ARM GAS  C:\Users\jo\AppData\Local\Temp\cc8AA3HA.s 			page 1


   1              		.syntax unified
   2              		.cpu cortex-m4
   3              		.fpu softvfp
   4              		.eabi_attribute 20, 1
   5              		.eabi_attribute 21, 1
   6              		.eabi_attribute 23, 3
   7              		.eabi_attribute 24, 1
   8              		.eabi_attribute 25, 1
   9              		.eabi_attribute 26, 1
  10              		.eabi_attribute 30, 2
  11              		.eabi_attribute 34, 1
  12              		.eabi_attribute 18, 4
  13              		.thumb
  14              		.file	"aes.c"
  15              		.text
  16              	.Ltext0:
  17              		.cfi_sections	.debug_frame
  18              		.section	.text.aes_gen_tables,"ax",%progbits
  19              		.align	2
  20              		.p2align 4,,15
  21              		.thumb
  22              		.thumb_func
  23              		.type	aes_gen_tables, %function
  24              	aes_gen_tables:
  25              	.LFB1:
  26              		.file 1 "../../../ext/mbedtls-1.3.11/library/aes.c"
  27              		.loc 1 391 0
  28              		.cfi_startproc
  29              		@ args = 0, pretend = 0, frame = 2072
  30              		@ frame_needed = 0, uses_anonymous_args = 0
  31              	.LVL0:
  32 0000 2DE9F04F 		push	{r4, r5, r6, r7, r8, r9, r10, fp, lr}
  33              		.cfi_def_cfa_offset 36
  34              		.cfi_offset 4, -36
  35              		.cfi_offset 5, -32
  36              		.cfi_offset 6, -28
  37              		.cfi_offset 7, -24
  38              		.cfi_offset 8, -20
  39              		.cfi_offset 9, -16
  40              		.cfi_offset 10, -12
  41              		.cfi_offset 11, -8
  42              		.cfi_offset 14, -4
  43 0004 ADF61C0D 		subw	sp, sp, #2076
  44              		.cfi_def_cfa_offset 2112
  45              		.loc 1 402 0
  46 0008 0023     		movs	r3, #0
  47              		.loc 1 401 0
  48 000a 0121     		movs	r1, #1
  49              		.loc 1 399 0
  50 000c 1846     		mov	r0, r3
  51              		.loc 1 402 0
  52 000e CDF81C34 		str	r3, [sp, #1052]
  53              		.loc 1 401 0
  54 0012 0691     		str	r1, [sp, #24]
  55 0014 06AC     		add	r4, sp, #24
  56              		.loc 1 403 0
  57 0016 0222     		movs	r2, #2
ARM GAS  C:\Users\jo\AppData\Local\Temp\cc8AA3HA.s 			page 2


  58 0018 0AE0     		b	.L2
  59              	.LVL1:
  60              	.L4:
  61              		.loc 1 402 0
  62 001a 0DF58362 		add	r2, sp, #1048
  63              		.loc 1 403 0
  64 001e 13F08003 		ands	r3, r3, #128
  65              		.loc 1 401 0
  66 0022 44F8041F 		str	r1, [r4, #4]!
  67              		.loc 1 402 0
  68 0026 42F82100 		str	r0, [r2, r1, lsl #2]
  69              		.loc 1 403 0
  70 002a 18BF     		it	ne
  71 002c 1B23     		movne	r3, #27
  72 002e 4A00     		lsls	r2, r1, #1
  73              	.LVL2:
  74              	.L2:
  75 0030 4B40     		eors	r3, r3, r1
  76              		.loc 1 399 0 discriminator 4
  77 0032 0130     		adds	r0, r0, #1
  78              		.loc 1 403 0 discriminator 4
  79 0034 5340     		eors	r3, r3, r2
  80              		.loc 1 399 0 discriminator 4
  81 0036 B0F5807F 		cmp	r0, #256
  82              		.loc 1 403 0 discriminator 4
  83 003a D9B2     		uxtb	r1, r3
  84              	.LVL3:
  85              		.loc 1 399 0 discriminator 4
  86 003c EDD1     		bne	.L4
  87 003e 7549     		ldr	r1, .L23
  88              	.LVL4:
  89              		.loc 1 399 0 is_stmt 0
  90 0040 0123     		movs	r3, #1
  91              	.LVL5:
  92 0042 01F12800 		add	r0, r1, #40
  93              	.LVL6:
  94              	.L6:
  95              		.loc 1 412 0 is_stmt 1
  96 0046 13F08002 		ands	r2, r3, #128
  97              		.loc 1 411 0
  98 004a 41F8043B 		str	r3, [r1], #4
  99              		.loc 1 412 0
 100 004e 18BF     		it	ne
 101 0050 1B22     		movne	r2, #27
 102 0052 82EA4303 		eor	r3, r2, r3, lsl #1
 103              	.LVL7:
 104              		.loc 1 409 0
 105 0056 8142     		cmp	r1, r0
 106              		.loc 1 412 0
 107 0058 DBB2     		uxtb	r3, r3
 108              	.LVL8:
 109              		.loc 1 409 0
 110 005a F4D1     		bne	.L6
 111              		.loc 1 418 0
 112 005c 6E4E     		ldr	r6, .L23+4
 113              		.loc 1 419 0
 114 005e DFF8DCE1 		ldr	lr, .L23+40
ARM GAS  C:\Users\jo\AppData\Local\Temp\cc8AA3HA.s 			page 3


 115              		.loc 1 418 0
 116 0062 6322     		movs	r2, #99
 117              		.loc 1 419 0
 118 0064 0023     		movs	r3, #0
 119              	.LVL9:
 120              		.loc 1 418 0
 121 0066 3270     		strb	r2, [r6]
 122              		.loc 1 419 0
 123 0068 8EF86330 		strb	r3, [lr, #99]
 124              	.LVL10:
 125 006c 0DF58367 		add	r7, sp, #1048
 126              		.loc 1 421 0
 127 0070 0125     		movs	r5, #1
 128              	.LVL11:
 129              	.L7:
 130              		.loc 1 423 0 discriminator 3
 131 0072 57F8043F 		ldr	r3, [r7, #4]!
 132 0076 06AA     		add	r2, sp, #24
 133 0078 C3F1FF03 		rsb	r3, r3, #255
 134 007c 52F82300 		ldr	r0, [r2, r3, lsl #2]
 135              	.LVL12:
 136              		.loc 1 425 0 discriminator 3
 137 0080 4100     		lsls	r1, r0, #1
 138 0082 41EAE011 		orr	r1, r1, r0, asr #7
 139 0086 C9B2     		uxtb	r1, r1
 140              	.LVL13:
 141              		.loc 1 426 0 discriminator 3
 142 0088 4A00     		lsls	r2, r1, #1
 143 008a 42EAD112 		orr	r2, r2, r1, lsr #7
 144 008e D2B2     		uxtb	r2, r2
 145              	.LVL14:
 146              		.loc 1 427 0 discriminator 3
 147 0090 5300     		lsls	r3, r2, #1
 148 0092 43EAD213 		orr	r3, r3, r2, lsr #7
 149 0096 DBB2     		uxtb	r3, r3
 150              	.LVL15:
 151 0098 80F06300 		eor	r0, r0, #99
 152              	.LVL16:
 153 009c 4140     		eors	r1, r1, r0
 154              	.LVL17:
 155              		.loc 1 428 0 discriminator 3
 156 009e 5800     		lsls	r0, r3, #1
 157 00a0 4A40     		eors	r2, r2, r1
 158              	.LVL18:
 159 00a2 40EAD311 		orr	r1, r0, r3, lsr #7
 160              	.LVL19:
 161 00a6 5340     		eors	r3, r3, r2
 162              	.LVL20:
 163 00a8 CAB2     		uxtb	r2, r1
 164              		.loc 1 429 0 discriminator 3
 165 00aa 5340     		eors	r3, r3, r2
 166              	.LVL21:
 167              		.loc 1 431 0 discriminator 3
 168 00ac 06F8013F 		strb	r3, [r6, #1]!
 169              		.loc 1 432 0 discriminator 3
 170 00b0 0EF80350 		strb	r5, [lr, r3]
 171              		.loc 1 421 0 discriminator 3
ARM GAS  C:\Users\jo\AppData\Local\Temp\cc8AA3HA.s 			page 4


 172 00b4 0135     		adds	r5, r5, #1
 173              	.LVL22:
 174 00b6 B5F5807F 		cmp	r5, #256
 175 00ba DAD1     		bne	.L7
 176              		.loc 1 455 0
 177 00bc DDF85034 		ldr	r3, [sp, #1104]
 178              	.LVL23:
 179 00c0 0293     		str	r3, [sp, #8]
 180              		.loc 1 456 0
 181 00c2 DDF83C34 		ldr	r3, [sp, #1084]
 182 00c6 0393     		str	r3, [sp, #12]
 183              		.loc 1 457 0
 184 00c8 DDF84C34 		ldr	r3, [sp, #1100]
 185 00cc 0493     		str	r3, [sp, #16]
 186 00ce DFF870A1 		ldr	r10, .L23+44
 187              		.loc 1 458 0
 188 00d2 DDF84434 		ldr	r3, [sp, #1092]
 189 00d6 0593     		str	r3, [sp, #20]
 190 00d8 504C     		ldr	r4, .L23+8
 191 00da 514B     		ldr	r3, .L23+12
 192 00dc 0093     		str	r3, [sp]
 193 00de DFF864C1 		ldr	ip, .L23+48
 194 00e2 DFF864E1 		ldr	lr, .L23+52
 195 00e6 4F4D     		ldr	r5, .L23+16
 196              	.LVL24:
 197              		.loc 1 456 0
 198 00e8 4F48     		ldr	r0, .L23+20
 199              		.loc 1 458 0
 200 00ea 0194     		str	r4, [sp, #4]
 201 00ec 0021     		movs	r1, #0
 202              	.LVL25:
 203 00ee D346     		mov	fp, r10
 204 00f0 5DE0     		b	.L10
 205              	.LVL26:
 206              	.L22:
 207              		.loc 1 455 0 discriminator 1
 208 00f2 0DF58363 		add	r3, sp, #1048
 209              		.loc 1 456 0 discriminator 1
 210 00f6 039C     		ldr	r4, [sp, #12]
 211              		.loc 1 455 0 discriminator 1
 212 00f8 53F82660 		ldr	r6, [r3, r6, lsl #2]
 213              	.LVL27:
 214              		.loc 1 457 0 discriminator 1
 215 00fc 049B     		ldr	r3, [sp, #16]
 216 00fe 06EB030A 		add	r10, r6, r3
 217 0102 8AFB0023 		smull	r2, r3, r10, r0
 218 0106 0AEB0308 		add	r8, r10, r3
 219 010a 4FEAEA73 		asr	r3, r10, #31
 220 010e C3EBE818 		rsb	r8, r3, r8, asr #7
 221              		.loc 1 455 0 discriminator 1
 222 0112 029A     		ldr	r2, [sp, #8]
 223              		.loc 1 458 0 discriminator 1
 224 0114 059B     		ldr	r3, [sp, #20]
 225              		.loc 1 456 0 discriminator 1
 226 0116 06EB0409 		add	r9, r6, r4
 227              		.loc 1 455 0 discriminator 1
 228 011a 3244     		add	r2, r2, r6
ARM GAS  C:\Users\jo\AppData\Local\Temp\cc8AA3HA.s 			page 5


 229              		.loc 1 458 0 discriminator 1
 230 011c F318     		adds	r3, r6, r3
 231              		.loc 1 457 0 discriminator 1
 232 011e C8EB0828 		rsb	r8, r8, r8, lsl #8
 233              		.loc 1 456 0 discriminator 1
 234 0122 89FB0067 		smull	r6, r7, r9, r0
 235 0126 09EB0706 		add	r6, r9, r7
 236              		.loc 1 457 0 discriminator 1
 237 012a C8EB0A08 		rsb	r8, r8, r10
 238              		.loc 1 456 0 discriminator 1
 239 012e 4FEAE97A 		asr	r10, r9, #31
 240 0132 CAEBE61A 		rsb	r10, r10, r6, asr #7
 241 0136 CAEB0A2A 		rsb	r10, r10, r10, lsl #8
 242              		.loc 1 455 0 discriminator 1
 243 013a 82FB0067 		smull	r6, r7, r2, r0
 244              		.loc 1 457 0 discriminator 1
 245 013e 06AC     		add	r4, sp, #24
 246              		.loc 1 455 0 discriminator 1
 247 0140 D619     		adds	r6, r2, r7
 248              		.loc 1 456 0 discriminator 1
 249 0142 CAEB0909 		rsb	r9, r10, r9
 250              		.loc 1 455 0 discriminator 1
 251 0146 4FEAE27A 		asr	r10, r2, #31
 252 014a CAEBE61A 		rsb	r10, r10, r6, asr #7
 253              		.loc 1 458 0 discriminator 1
 254 014e 83FB0067 		smull	r6, r7, r3, r0
 255 0152 DE19     		adds	r6, r3, r7
 256              		.loc 1 457 0 discriminator 1
 257 0154 54F82870 		ldr	r7, [r4, r8, lsl #2]
 258              		.loc 1 456 0 discriminator 1
 259 0158 54F82980 		ldr	r8, [r4, r9, lsl #2]
 260              		.loc 1 458 0 discriminator 1
 261 015c 4FEAE379 		asr	r9, r3, #31
 262              		.loc 1 455 0 discriminator 1
 263 0160 CAEB0A2A 		rsb	r10, r10, r10, lsl #8
 264              		.loc 1 458 0 discriminator 1
 265 0164 C9EBE616 		rsb	r6, r9, r6, asr #7
 266              		.loc 1 455 0 discriminator 1
 267 0168 CAEB020A 		rsb	r10, r10, r2
 268              		.loc 1 458 0 discriminator 1
 269 016c C6EB0626 		rsb	r6, r6, r6, lsl #8
 270 0170 9E1B     		subs	r6, r3, r6
 271              		.loc 1 456 0 discriminator 1
 272 0172 54F82A20 		ldr	r2, [r4, r10, lsl #2]
 273              		.loc 1 458 0 discriminator 1
 274 0176 54F82660 		ldr	r6, [r4, r6, lsl #2]
 275              		.loc 1 457 0 discriminator 1
 276 017a 3B04     		lsls	r3, r7, #16
 277 017c 83EA0827 		eor	r7, r3, r8, lsl #8
 278              		.loc 1 456 0 discriminator 1
 279 0180 5740     		eors	r7, r7, r2
 280 0182 87EA0667 		eor	r7, r7, r6, lsl #24
 281 0186 4FEA3766 		ror	r6, r7, #24
 282 018a 4FEA3662 		ror	r2, r6, #24
 283 018e 4FEA3263 		ror	r3, r2, #24
 284              	.L9:
 285              		.loc 1 461 0 discriminator 2
ARM GAS  C:\Users\jo\AppData\Local\Temp\cc8AA3HA.s 			page 6


 286 0192 45F8042F 		str	r2, [r5, #4]!
 287              		.loc 1 462 0 discriminator 2
 288 0196 019A     		ldr	r2, [sp, #4]
 289              		.loc 1 455 0 discriminator 2
 290 0198 4CF8047F 		str	r7, [ip, #4]!
 291              		.loc 1 438 0 discriminator 2
 292 019c 0131     		adds	r1, r1, #1
 293              	.LVL28:
 294              		.loc 1 462 0 discriminator 2
 295 019e 42F8043F 		str	r3, [r2, #4]!
 296              		.loc 1 438 0 discriminator 2
 297 01a2 B1F5807F 		cmp	r1, #256
 298              		.loc 1 460 0 discriminator 2
 299 01a6 4EF8046F 		str	r6, [lr, #4]!
 300              		.loc 1 462 0 discriminator 2
 301 01aa 0192     		str	r2, [sp, #4]
 302              		.loc 1 438 0 discriminator 2
 303 01ac 2DD0     		beq	.L21
 304              	.LVL29:
 305              	.L10:
 306              		.loc 1 440 0
 307 01ae 009A     		ldr	r2, [sp]
 308              		.loc 1 444 0
 309 01b0 1E4C     		ldr	r4, .L23+24
 310              		.loc 1 440 0
 311 01b2 12F8013F 		ldrb	r3, [r2, #1]!	@ zero_extendqisi2
 312 01b6 0092     		str	r2, [sp]
 313              	.LVL30:
 314              		.loc 1 441 0
 315 01b8 13F0800F 		tst	r3, #128
 316 01bc 14BF     		ite	ne
 317 01be 1B22     		movne	r2, #27
 318 01c0 0022     		moveq	r2, #0
 319 01c2 82EA4302 		eor	r2, r2, r3, lsl #1
 320              		.loc 1 445 0
 321 01c6 1F02     		lsls	r7, r3, #8
 322              		.loc 1 441 0
 323 01c8 D2B2     		uxtb	r2, r2
 324              	.LVL31:
 325 01ca 47EA0347 		orr	r7, r7, r3, lsl #16
 326              		.loc 1 445 0
 327 01ce 5740     		eors	r7, r7, r2
 328              		.loc 1 442 0
 329 01d0 5340     		eors	r3, r3, r2
 330              	.LVL32:
 331              		.loc 1 446 0
 332 01d2 47EA0363 		orr	r3, r7, r3, lsl #24
 333              	.LVL33:
 334              		.loc 1 444 0
 335 01d6 44F82130 		str	r3, [r4, r1, lsl #2]
 336              		.loc 1 449 0
 337 01da 154C     		ldr	r4, .L23+28
 338              		.loc 1 453 0
 339 01dc 1BF8016F 		ldrb	r6, [fp, #1]!	@ zero_extendqisi2
 340              	.LVL34:
 341              		.loc 1 449 0
 342 01e0 4FEA3367 		ror	r7, r3, #24
ARM GAS  C:\Users\jo\AppData\Local\Temp\cc8AA3HA.s 			page 7


 343 01e4 44F82170 		str	r7, [r4, r1, lsl #2]
 344              		.loc 1 450 0
 345 01e8 124C     		ldr	r4, .L23+32
 346 01ea 4FEA3762 		ror	r2, r7, #24
 347              	.LVL35:
 348              		.loc 1 451 0
 349 01ee 4FEA3263 		ror	r3, r2, #24
 350              		.loc 1 450 0
 351 01f2 44F82120 		str	r2, [r4, r1, lsl #2]
 352              		.loc 1 451 0
 353 01f6 104A     		ldr	r2, .L23+36
 354 01f8 42F82130 		str	r3, [r2, r1, lsl #2]
 355              		.loc 1 455 0
 356 01fc 002E     		cmp	r6, #0
 357 01fe 7FF478AF 		bne	.L22
 358              	.LVL36:
 359 0202 3346     		mov	r3, r6
 360 0204 3246     		mov	r2, r6
 361 0206 1F46     		mov	r7, r3
 362 0208 C3E7     		b	.L9
 363              	.LVL37:
 364              	.L21:
 365              		.loc 1 464 0
 366 020a 0DF61C0D 		addw	sp, sp, #2076
 367              		.cfi_def_cfa_offset 36
 368              	.LVL38:
 369              		@ sp needed
 370 020e BDE8F08F 		pop	{r4, r5, r6, r7, r8, r9, r10, fp, pc}
 371              	.LVL39:
 372              	.L24:
 373 0212 00BF     		.align	2
 374              	.L23:
 375 0214 00000000 		.word	.LANCHOR0
 376 0218 00000000 		.word	.LANCHOR1
 377 021c FCFFFFFF 		.word	.LANCHOR6-4
 378 0220 FFFFFFFF 		.word	.LANCHOR1-1
 379 0224 FCFFFFFF 		.word	.LANCHOR5-4
 380 0228 81808080 		.word	-2139062143
 381 022c 00000000 		.word	.LANCHOR7
 382 0230 00000000 		.word	.LANCHOR8
 383 0234 00000000 		.word	.LANCHOR9
 384 0238 00000000 		.word	.LANCHOR10
 385 023c 00000000 		.word	.LANCHOR2
 386 0240 FFFFFFFF 		.word	.LANCHOR2-1
 387 0244 FCFFFFFF 		.word	.LANCHOR3-4
 388 0248 FCFFFFFF 		.word	.LANCHOR4-4
 389              		.cfi_endproc
 390              	.LFE1:
 391              		.size	aes_gen_tables, .-aes_gen_tables
 392 024c AFF30080 		.section	.text.aes_init,"ax",%progbits
 393              		.align	2
 394              		.p2align 4,,15
 395              		.global	aes_init
 396              		.thumb
 397              		.thumb_func
 398              		.type	aes_init, %function
 399              	aes_init:
ARM GAS  C:\Users\jo\AppData\Local\Temp\cc8AA3HA.s 			page 8


 400              	.LFB2:
 401              		.loc 1 469 0
 402              		.cfi_startproc
 403              		@ args = 0, pretend = 0, frame = 0
 404              		@ frame_needed = 0, uses_anonymous_args = 0
 405              		@ link register save eliminated.
 406              	.LVL40:
 407              		.loc 1 470 0
 408 0000 0021     		movs	r1, #0
 409 0002 4FF48C72 		mov	r2, #280
 410 0006 FFF7FEBF 		b	memset
 411              	.LVL41:
 412              		.cfi_endproc
 413              	.LFE2:
 414              		.size	aes_init, .-aes_init
 415 000a 00BFAFF3 		.section	.text.aes_free,"ax",%progbits
 415      0080
 416              		.align	2
 417              		.p2align 4,,15
 418              		.global	aes_free
 419              		.thumb
 420              		.thumb_func
 421              		.type	aes_free, %function
 422              	aes_free:
 423              	.LFB3:
 424              		.loc 1 474 0
 425              		.cfi_startproc
 426              		@ args = 0, pretend = 0, frame = 0
 427              		@ frame_needed = 0, uses_anonymous_args = 0
 428              		@ link register save eliminated.
 429              	.LVL42:
 430              		.loc 1 475 0
 431 0000 30B1     		cbz	r0, .L26
 432 0002 00F58C72 		add	r2, r0, #280
 433              	.LBB17:
 434              	.LBB18:
 435              		.loc 1 60 0
 436 0006 0023     		movs	r3, #0
 437              	.LVL43:
 438              	.L28:
 439 0008 0370     		strb	r3, [r0]
 440              	.LVL44:
 441 000a 0130     		adds	r0, r0, #1
 442              	.LVL45:
 443 000c 9042     		cmp	r0, r2
 444 000e FBD1     		bne	.L28
 445              	.LVL46:
 446              	.L26:
 447 0010 7047     		bx	lr
 448              	.LBE18:
 449              	.LBE17:
 450              		.cfi_endproc
 451              	.LFE3:
 452              		.size	aes_free, .-aes_free
 453 0012 00BFAFF3 		.section	.text.aes_setkey_enc,"ax",%progbits
 453      0080AFF3 
 453      0080AFF3 
ARM GAS  C:\Users\jo\AppData\Local\Temp\cc8AA3HA.s 			page 9


 453      0080
 454              		.align	2
 455              		.p2align 4,,15
 456              		.global	aes_setkey_enc
 457              		.thumb
 458              		.thumb_func
 459              		.type	aes_setkey_enc, %function
 460              	aes_setkey_enc:
 461              	.LFB4:
 462              		.loc 1 486 0
 463              		.cfi_startproc
 464              		@ args = 0, pretend = 0, frame = 8
 465              		@ frame_needed = 0, uses_anonymous_args = 0
 466              	.LVL47:
 467 0000 2DE9F04F 		push	{r4, r5, r6, r7, r8, r9, r10, fp, lr}
 468              		.cfi_def_cfa_offset 36
 469              		.cfi_offset 4, -36
 470              		.cfi_offset 5, -32
 471              		.cfi_offset 6, -28
 472              		.cfi_offset 7, -24
 473              		.cfi_offset 8, -20
 474              		.cfi_offset 9, -16
 475              		.cfi_offset 10, -12
 476              		.cfi_offset 11, -8
 477              		.cfi_offset 14, -4
 478              		.loc 1 491 0
 479 0004 814D     		ldr	r5, .L60
 480 0006 2B68     		ldr	r3, [r5]
 481              		.loc 1 486 0
 482 0008 83B0     		sub	sp, sp, #12
 483              		.cfi_def_cfa_offset 48
 484              		.loc 1 486 0
 485 000a 8046     		mov	r8, r0
 486 000c 8946     		mov	r9, r1
 487 000e 1446     		mov	r4, r2
 488              		.loc 1 491 0
 489 0010 A3B3     		cbz	r3, .L56
 490              		.loc 1 499 0
 491 0012 C02C     		cmp	r4, #192
 492 0014 38D0     		beq	.L34
 493              	.LVL48:
 494              	.L59:
 495 0016 B4F5807F 		cmp	r4, #256
 496 001a 39D0     		beq	.L35
 497 001c 802C     		cmp	r4, #128
 498 001e 04D0     		beq	.L57
 499              		.loc 1 504 0
 500 0020 6FF01F00 		mvn	r0, #31
 501              		.loc 1 591 0
 502 0024 03B0     		add	sp, sp, #12
 503              		.cfi_remember_state
 504              		.cfi_def_cfa_offset 36
 505              		@ sp needed
 506 0026 BDE8F08F 		pop	{r4, r5, r6, r7, r8, r9, r10, fp, pc}
 507              	.LVL49:
 508              	.L57:
 509              		.cfi_restore_state
ARM GAS  C:\Users\jo\AppData\Local\Temp\cc8AA3HA.s 			page 10


 510              		.loc 1 501 0
 511 002a 0A21     		movs	r1, #10
 512 002c C8F80010 		str	r1, [r8]
 513              	.L37:
 514              		.loc 1 515 0
 515 0030 4046     		mov	r0, r8
 516 0032 08F10803 		add	r3, r8, #8
 517              	.LVL50:
 518 0036 40F8043F 		str	r3, [r0, #4]!
 519              	.LVL51:
 520              		.loc 1 522 0
 521 003a 6209     		lsrs	r2, r4, #5
 522 003c 0027     		movs	r7, #0
 523              	.LVL52:
 524              	.L38:
 525              		.loc 1 524 0 discriminator 3
 526 003e 09EB870E 		add	lr, r9, r7, lsl #2
 527 0042 19F82750 		ldrb	r5, [r9, r7, lsl #2]	@ zero_extendqisi2
 528 0046 9EF80260 		ldrb	r6, [lr, #2]	@ zero_extendqisi2
 529 004a 9EF80140 		ldrb	r4, [lr, #1]	@ zero_extendqisi2
 530 004e 9EF803E0 		ldrb	lr, [lr, #3]	@ zero_extendqisi2
 531 0052 3604     		lsls	r6, r6, #16
 532 0054 46EA0424 		orr	r4, r6, r4, lsl #8
 533 0058 2C43     		orrs	r4, r4, r5
 534              		.loc 1 522 0 discriminator 3
 535 005a 0137     		adds	r7, r7, #1
 536              	.LVL53:
 537              		.loc 1 524 0 discriminator 3
 538 005c 44EA0E64 		orr	r4, r4, lr, lsl #24
 539              		.loc 1 522 0 discriminator 3
 540 0060 BA42     		cmp	r2, r7
 541              		.loc 1 524 0 discriminator 3
 542 0062 40F8044F 		str	r4, [r0, #4]!
 543              		.loc 1 522 0 discriminator 3
 544 0066 EAD8     		bhi	.L38
 545              		.loc 1 527 0
 546 0068 0C29     		cmp	r1, #12
 547 006a 15D0     		beq	.L39
 548 006c 0E29     		cmp	r1, #14
 549 006e 78D0     		beq	.L40
 550 0070 0A29     		cmp	r1, #10
 551 0072 49D0     		beq	.L58
 552              	.LVL54:
 553              	.L53:
 554              		.loc 1 590 0
 555 0074 0020     		movs	r0, #0
 556              		.loc 1 591 0
 557 0076 03B0     		add	sp, sp, #12
 558              		.cfi_remember_state
 559              		.cfi_def_cfa_offset 36
 560              		@ sp needed
 561 0078 BDE8F08F 		pop	{r4, r5, r6, r7, r8, r9, r10, fp, pc}
 562              	.LVL55:
 563              	.L56:
 564              		.cfi_restore_state
 565              		.loc 1 493 0
 566 007c FFF7FEFF 		bl	aes_gen_tables
ARM GAS  C:\Users\jo\AppData\Local\Temp\cc8AA3HA.s 			page 11


 567              	.LVL56:
 568              		.loc 1 494 0
 569 0080 0123     		movs	r3, #1
 570              		.loc 1 499 0
 571 0082 C02C     		cmp	r4, #192
 572              		.loc 1 494 0
 573 0084 2B60     		str	r3, [r5]
 574              		.loc 1 499 0
 575 0086 C6D1     		bne	.L59
 576              	.L34:
 577              		.loc 1 502 0
 578 0088 0C21     		movs	r1, #12
 579 008a C8F80010 		str	r1, [r8]
 580 008e CFE7     		b	.L37
 581              	.L35:
 582              		.loc 1 503 0
 583 0090 0E21     		movs	r1, #14
 584 0092 C8F80010 		str	r1, [r8]
 585 0096 CBE7     		b	.L37
 586              	.LVL57:
 587              	.L39:
 588 0098 5D48     		ldr	r0, .L60+4
 589 009a DFF87CE1 		ldr	lr, .L60+12
 590 009e 08F1C808 		add	r8, r8, #200
 591              	.LVL58:
 592              	.L43:
 593              		.loc 1 550 0 discriminator 3
 594 00a2 5969     		ldr	r1, [r3, #20]
 595              		.loc 1 557 0 discriminator 3
 596 00a4 DD68     		ldr	r5, [r3, #12]
 597 00a6 50F8044F 		ldr	r4, [r0, #4]!
 598 00aa 0195     		str	r5, [sp, #4]
 599              		.loc 1 550 0 discriminator 3
 600 00ac C1F30722 		ubfx	r2, r1, #8, #8
 601 00b0 1D68     		ldr	r5, [r3]
 602 00b2 1EF80220 		ldrb	r2, [lr, r2]	@ zero_extendqisi2
 603              		.loc 1 555 0 discriminator 3
 604 00b6 5F68     		ldr	r7, [r3, #4]
 605              		.loc 1 556 0 discriminator 3
 606 00b8 9E68     		ldr	r6, [r3, #8]
 607              		.loc 1 552 0 discriminator 3
 608 00ba 4FEA1169 		lsr	r9, r1, #24
 609              		.loc 1 553 0 discriminator 3
 610 00be 5FFA81FB 		uxtb	fp, r1
 611              		.loc 1 552 0 discriminator 3
 612 00c2 1EF809A0 		ldrb	r10, [lr, r9]	@ zero_extendqisi2
 613 00c6 85EA040C 		eor	ip, r5, r4
 614              		.loc 1 551 0 discriminator 3
 615 00ca C1F30749 		ubfx	r9, r1, #16, #8
 616 00ce 8CEA020C 		eor	ip, ip, r2
 617              		.loc 1 553 0 discriminator 3
 618 00d2 1EF80B20 		ldrb	r2, [lr, fp]	@ zero_extendqisi2
 619              		.loc 1 551 0 discriminator 3
 620 00d6 1EF80990 		ldrb	r9, [lr, r9]	@ zero_extendqisi2
 621              		.loc 1 557 0 discriminator 3
 622 00da 019D     		ldr	r5, [sp, #4]
 623              		.loc 1 558 0 discriminator 3
ARM GAS  C:\Users\jo\AppData\Local\Temp\cc8AA3HA.s 			page 12


 624 00dc 1C69     		ldr	r4, [r3, #16]
 625 00de 8CEA0A4C 		eor	ip, ip, r10, lsl #16
 626 00e2 8CEA0262 		eor	r2, ip, r2, lsl #24
 627              		.loc 1 552 0 discriminator 3
 628 00e6 82EA0922 		eor	r2, r2, r9, lsl #8
 629              		.loc 1 555 0 discriminator 3
 630 00ea 5740     		eors	r7, r7, r2
 631              		.loc 1 556 0 discriminator 3
 632 00ec 7E40     		eors	r6, r6, r7
 633              		.loc 1 557 0 discriminator 3
 634 00ee 7540     		eors	r5, r5, r6
 635              		.loc 1 558 0 discriminator 3
 636 00f0 6C40     		eors	r4, r4, r5
 637              		.loc 1 559 0 discriminator 3
 638 00f2 6140     		eors	r1, r1, r4
 639              		.loc 1 549 0 discriminator 3
 640 00f4 9A61     		str	r2, [r3, #24]
 641              		.loc 1 555 0 discriminator 3
 642 00f6 DF61     		str	r7, [r3, #28]
 643              		.loc 1 556 0 discriminator 3
 644 00f8 1E62     		str	r6, [r3, #32]
 645              		.loc 1 557 0 discriminator 3
 646 00fa 5D62     		str	r5, [r3, #36]
 647              		.loc 1 559 0 discriminator 3
 648 00fc D962     		str	r1, [r3, #44]
 649              		.loc 1 558 0 discriminator 3
 650 00fe 9C62     		str	r4, [r3, #40]
 651              		.loc 1 547 0 discriminator 3
 652 0100 1833     		adds	r3, r3, #24
 653              	.LVL59:
 654 0102 4345     		cmp	r3, r8
 655 0104 CDD1     		bne	.L43
 656 0106 B5E7     		b	.L53
 657              	.LVL60:
 658              	.L58:
 659 0108 4248     		ldr	r0, .L60+8
 660 010a DFF80CE1 		ldr	lr, .L60+12
 661 010e 08F1A808 		add	r8, r8, #168
 662              	.LVL61:
 663              	.L42:
 664              		.loc 1 534 0 discriminator 3
 665 0112 DF68     		ldr	r7, [r3, #12]
 666              		.loc 1 533 0 discriminator 3
 667 0114 50F8041B 		ldr	r1, [r0], #4
 668              		.loc 1 539 0 discriminator 3
 669 0118 5D68     		ldr	r5, [r3, #4]
 670              		.loc 1 540 0 discriminator 3
 671 011a 9C68     		ldr	r4, [r3, #8]
 672              		.loc 1 536 0 discriminator 3
 673 011c 3A0E     		lsrs	r2, r7, #24
 674              		.loc 1 534 0 discriminator 3
 675 011e C7F30726 		ubfx	r6, r7, #8, #8
 676              		.loc 1 536 0 discriminator 3
 677 0122 1EF802C0 		ldrb	ip, [lr, r2]	@ zero_extendqisi2
 678 0126 1A68     		ldr	r2, [r3]
 679              		.loc 1 534 0 discriminator 3
 680 0128 1EF80660 		ldrb	r6, [lr, r6]	@ zero_extendqisi2
ARM GAS  C:\Users\jo\AppData\Local\Temp\cc8AA3HA.s 			page 13


 681              		.loc 1 537 0 discriminator 3
 682 012c 5FFA87FA 		uxtb	r10, r7
 683 0130 5140     		eors	r1, r1, r2
 684              		.loc 1 535 0 discriminator 3
 685 0132 C7F30749 		ubfx	r9, r7, #16, #8
 686              		.loc 1 537 0 discriminator 3
 687 0136 1EF80A20 		ldrb	r2, [lr, r10]	@ zero_extendqisi2
 688 013a 7140     		eors	r1, r1, r6
 689 013c 81EA0C41 		eor	r1, r1, ip, lsl #16
 690              		.loc 1 535 0 discriminator 3
 691 0140 1EF80960 		ldrb	r6, [lr, r9]	@ zero_extendqisi2
 692 0144 81EA0262 		eor	r2, r1, r2, lsl #24
 693              		.loc 1 536 0 discriminator 3
 694 0148 82EA0622 		eor	r2, r2, r6, lsl #8
 695              		.loc 1 539 0 discriminator 3
 696 014c 5540     		eors	r5, r5, r2
 697              		.loc 1 540 0 discriminator 3
 698 014e 6C40     		eors	r4, r4, r5
 699              		.loc 1 541 0 discriminator 3
 700 0150 6740     		eors	r7, r7, r4
 701              		.loc 1 533 0 discriminator 3
 702 0152 1A61     		str	r2, [r3, #16]
 703              		.loc 1 539 0 discriminator 3
 704 0154 5D61     		str	r5, [r3, #20]
 705              		.loc 1 541 0 discriminator 3
 706 0156 DF61     		str	r7, [r3, #28]
 707              		.loc 1 540 0 discriminator 3
 708 0158 9C61     		str	r4, [r3, #24]
 709              		.loc 1 531 0 discriminator 3
 710 015a 1033     		adds	r3, r3, #16
 711              	.LVL62:
 712 015c 4345     		cmp	r3, r8
 713 015e D8D1     		bne	.L42
 714 0160 88E7     		b	.L53
 715              	.LVL63:
 716              	.L40:
 717 0162 DFF8ACC0 		ldr	ip, .L60+4
 718 0166 DFF8B0E0 		ldr	lr, .L60+12
 719 016a 08F1E808 		add	r8, r8, #232
 720              	.LVL64:
 721              	.L45:
 722              		.loc 1 568 0 discriminator 3
 723 016e D869     		ldr	r0, [r3, #28]
 724 0170 5CF8042F 		ldr	r2, [ip, #4]!
 725 0174 1C68     		ldr	r4, [r3]
 726              		.loc 1 573 0 discriminator 3
 727 0176 5F68     		ldr	r7, [r3, #4]
 728              		.loc 1 574 0 discriminator 3
 729 0178 9E68     		ldr	r6, [r3, #8]
 730              		.loc 1 575 0 discriminator 3
 731 017a D968     		ldr	r1, [r3, #12]
 732              		.loc 1 583 0 discriminator 3
 733 017c 5D69     		ldr	r5, [r3, #20]
 734              		.loc 1 568 0 discriminator 3
 735 017e C0F30729 		ubfx	r9, r0, #8, #8
 736              		.loc 1 570 0 discriminator 3
 737 0182 4FEA106A 		lsr	r10, r0, #24
ARM GAS  C:\Users\jo\AppData\Local\Temp\cc8AA3HA.s 			page 14


 738              		.loc 1 568 0 discriminator 3
 739 0186 1EF80990 		ldrb	r9, [lr, r9]	@ zero_extendqisi2
 740              		.loc 1 570 0 discriminator 3
 741 018a 1EF80AA0 		ldrb	r10, [lr, r10]	@ zero_extendqisi2
 742 018e 84EA020B 		eor	fp, r4, r2
 743 0192 8BEA0909 		eor	r9, fp, r9
 744              		.loc 1 571 0 discriminator 3
 745 0196 5FFA80FB 		uxtb	fp, r0
 746 019a 89EA0A4A 		eor	r10, r9, r10, lsl #16
 747              		.loc 1 569 0 discriminator 3
 748 019e C0F30749 		ubfx	r9, r0, #16, #8
 749              		.loc 1 571 0 discriminator 3
 750 01a2 1EF80BB0 		ldrb	fp, [lr, fp]	@ zero_extendqisi2
 751              		.loc 1 569 0 discriminator 3
 752 01a6 1EF80990 		ldrb	r9, [lr, r9]	@ zero_extendqisi2
 753 01aa 8AEA0B6A 		eor	r10, r10, fp, lsl #24
 754              		.loc 1 570 0 discriminator 3
 755 01ae 8AEA0924 		eor	r4, r10, r9, lsl #8
 756              		.loc 1 573 0 discriminator 3
 757 01b2 84EA0702 		eor	r2, r4, r7
 758              		.loc 1 574 0 discriminator 3
 759 01b6 5640     		eors	r6, r6, r2
 760              		.loc 1 575 0 discriminator 3
 761 01b8 86EA0107 		eor	r7, r6, r1
 762              		.loc 1 578 0 discriminator 3
 763 01bc F9B2     		uxtb	r1, r7
 764              		.loc 1 567 0 discriminator 3
 765 01be 1C62     		str	r4, [r3, #32]
 766              		.loc 1 573 0 discriminator 3
 767 01c0 5A62     		str	r2, [r3, #36]
 768              		.loc 1 574 0 discriminator 3
 769 01c2 9E62     		str	r6, [r3, #40]
 770              		.loc 1 575 0 discriminator 3
 771 01c4 DF62     		str	r7, [r3, #44]
 772              		.loc 1 581 0 discriminator 3
 773 01c6 3E0E     		lsrs	r6, r7, #24
 774              		.loc 1 578 0 discriminator 3
 775 01c8 1EF80110 		ldrb	r1, [lr, r1]	@ zero_extendqisi2
 776 01cc 1A69     		ldr	r2, [r3, #16]
 777              		.loc 1 581 0 discriminator 3
 778 01ce 1EF80690 		ldrb	r9, [lr, r6]	@ zero_extendqisi2
 779              		.loc 1 579 0 discriminator 3
 780 01d2 C7F3072A 		ubfx	r10, r7, #8, #8
 781              		.loc 1 580 0 discriminator 3
 782 01d6 C7F30747 		ubfx	r7, r7, #16, #8
 783 01da 81EA0206 		eor	r6, r1, r2
 784              		.loc 1 579 0 discriminator 3
 785 01de 1EF80A20 		ldrb	r2, [lr, r10]	@ zero_extendqisi2
 786              		.loc 1 580 0 discriminator 3
 787 01e2 1EF80770 		ldrb	r7, [lr, r7]	@ zero_extendqisi2
 788 01e6 86EA0961 		eor	r1, r6, r9, lsl #24
 789 01ea 81EA0222 		eor	r2, r1, r2, lsl #8
 790 01ee 82EA0742 		eor	r2, r2, r7, lsl #16
 791              		.loc 1 584 0 discriminator 3
 792 01f2 9969     		ldr	r1, [r3, #24]
 793              		.loc 1 577 0 discriminator 3
 794 01f4 1A63     		str	r2, [r3, #48]
ARM GAS  C:\Users\jo\AppData\Local\Temp\cc8AA3HA.s 			page 15


 795              		.loc 1 583 0 discriminator 3
 796 01f6 5540     		eors	r5, r5, r2
 797              		.loc 1 584 0 discriminator 3
 798 01f8 85EA0104 		eor	r4, r5, r1
 799              		.loc 1 585 0 discriminator 3
 800 01fc 6040     		eors	r0, r0, r4
 801              		.loc 1 583 0 discriminator 3
 802 01fe 5D63     		str	r5, [r3, #52]
 803              		.loc 1 585 0 discriminator 3
 804 0200 D863     		str	r0, [r3, #60]
 805              		.loc 1 584 0 discriminator 3
 806 0202 9C63     		str	r4, [r3, #56]
 807              		.loc 1 565 0 discriminator 3
 808 0204 2033     		adds	r3, r3, #32
 809              	.LVL65:
 810 0206 4345     		cmp	r3, r8
 811 0208 B1D1     		bne	.L45
 812 020a 33E7     		b	.L53
 813              	.L61:
 814              		.align	2
 815              	.L60:
 816 020c 00000000 		.word	.LANCHOR11
 817 0210 FCFFFFFF 		.word	.LANCHOR0-4
 818 0214 00000000 		.word	.LANCHOR0
 819 0218 00000000 		.word	.LANCHOR1
 820              		.cfi_endproc
 821              	.LFE4:
 822              		.size	aes_setkey_enc, .-aes_setkey_enc
 823 021c AFF30080 		.section	.text.aes_setkey_dec,"ax",%progbits
 824              		.align	2
 825              		.p2align 4,,15
 826              		.global	aes_setkey_dec
 827              		.thumb
 828              		.thumb_func
 829              		.type	aes_setkey_dec, %function
 830              	aes_setkey_dec:
 831              	.LFB5:
 832              		.loc 1 598 0
 833              		.cfi_startproc
 834              		@ args = 0, pretend = 0, frame = 304
 835              		@ frame_needed = 0, uses_anonymous_args = 0
 836              	.LVL66:
 837 0000 2DE9F04F 		push	{r4, r5, r6, r7, r8, r9, r10, fp, lr}
 838              		.cfi_def_cfa_offset 36
 839              		.cfi_offset 4, -36
 840              		.cfi_offset 5, -32
 841              		.cfi_offset 6, -28
 842              		.cfi_offset 7, -24
 843              		.cfi_offset 8, -20
 844              		.cfi_offset 9, -16
 845              		.cfi_offset 10, -12
 846              		.cfi_offset 11, -8
 847              		.cfi_offset 14, -4
 848 0004 CDB0     		sub	sp, sp, #308
 849              		.cfi_def_cfa_offset 344
 850              	.LVL67:
 851              		.loc 1 598 0
ARM GAS  C:\Users\jo\AppData\Local\Temp\cc8AA3HA.s 			page 16


 852 0006 0546     		mov	r5, r0
 853 0008 0E46     		mov	r6, r1
 854 000a 1446     		mov	r4, r2
 855              	.LBB19:
 856              	.LBB20:
 857              		.loc 1 470 0
 858 000c 0021     		movs	r1, #0
 859              	.LVL68:
 860 000e 4FF48C72 		mov	r2, #280
 861              	.LVL69:
 862 0012 06A8     		add	r0, sp, #24
 863              	.LVL70:
 864 0014 FFF7FEFF 		bl	memset
 865              	.LVL71:
 866              	.LBE20:
 867              	.LBE19:
 868              		.loc 1 614 0
 869 0018 05F10803 		add	r3, r5, #8
 870              	.LVL72:
 871              		.loc 1 617 0
 872 001c 3146     		mov	r1, r6
 873 001e 2246     		mov	r2, r4
 874              		.loc 1 614 0
 875 0020 6B60     		str	r3, [r5, #4]
 876              		.loc 1 617 0
 877 0022 06A8     		add	r0, sp, #24
 878              	.LVL73:
 879 0024 FFF7FEFF 		bl	aes_setkey_enc
 880              	.LVL74:
 881 0028 0190     		str	r0, [sp, #4]
 882 002a 0028     		cmp	r0, #0
 883 002c 65D1     		bne	.L63
 884              		.loc 1 620 0
 885 002e 069B     		ldr	r3, [sp, #24]
 886 0030 0493     		str	r3, [sp, #16]
 887 0032 1A46     		mov	r2, r3
 888              		.loc 1 631 0
 889 0034 1101     		lsls	r1, r2, #4
 890 0036 079B     		ldr	r3, [sp, #28]
 891              		.loc 1 620 0
 892 0038 2A60     		str	r2, [r5]
 893              		.loc 1 631 0
 894 003a 03EB010A 		add	r10, r3, r1
 895              	.LVL75:
 896              		.loc 1 633 0
 897 003e 5B58     		ldr	r3, [r3, r1]
 898 0040 AB60     		str	r3, [r5, #8]
 899              	.LVL76:
 900              		.loc 1 634 0
 901 0042 DAF80430 		ldr	r3, [r10, #4]
 902 0046 EB60     		str	r3, [r5, #12]
 903              	.LVL77:
 904              		.loc 1 635 0
 905 0048 DAF80830 		ldr	r3, [r10, #8]
 906 004c 2B61     		str	r3, [r5, #16]
 907              		.loc 1 636 0
 908 004e DAF80C30 		ldr	r3, [r10, #12]
ARM GAS  C:\Users\jo\AppData\Local\Temp\cc8AA3HA.s 			page 17


 909 0052 6B61     		str	r3, [r5, #20]
 910              		.loc 1 638 0
 911 0054 02F1FF3B 		add	fp, r2, #-1
 912 0058 AAF11003 		sub	r3, r10, #16
 913 005c 0393     		str	r3, [sp, #12]
 914 005e BBF1000F 		cmp	fp, #0
 915              		.loc 1 636 0
 916 0062 05F11803 		add	r3, r5, #24
 917              		.loc 1 631 0
 918 0066 0591     		str	r1, [sp, #20]
 919              		.loc 1 636 0
 920 0068 0293     		str	r3, [sp, #8]
 921              	.LVL78:
 922              		.loc 1 638 0
 923 006a 3BDD     		ble	.L64
 924 006c DFF8A490 		ldr	r9, .L72+4
 925 0070 274C     		ldr	r4, .L72
 926              	.LVL79:
 927 0072 DFF8A480 		ldr	r8, .L72+8
 928 0076 DFF8A4C0 		ldr	ip, .L72+12
 929 007a DFF8A4E0 		ldr	lr, .L72+16
 930 007e AAF1140A 		sub	r10, r10, #20
 931 0082 1435     		adds	r5, r5, #20
 932              	.LVL80:
 933              	.L65:
 934 0084 05F11006 		add	r6, r5, #16
 935              		.loc 1 598 0 discriminator 1
 936 0088 5046     		mov	r0, r10
 937              	.LVL81:
 938              	.L66:
 939              		.loc 1 642 0 discriminator 3
 940 008a 50F8043F 		ldr	r3, [r0, #4]!
 941              	.LVL82:
 942              		.loc 1 645 0 discriminator 3
 943 008e 1F0E     		lsrs	r7, r3, #24
 944              		.loc 1 642 0 discriminator 3
 945 0090 D9B2     		uxtb	r1, r3
 946              		.loc 1 643 0 discriminator 3
 947 0092 C3F30722 		ubfx	r2, r3, #8, #8
 948              		.loc 1 645 0 discriminator 3
 949 0096 E75D     		ldrb	r7, [r4, r7]	@ zero_extendqisi2
 950              		.loc 1 642 0 discriminator 3
 951 0098 615C     		ldrb	r1, [r4, r1]	@ zero_extendqisi2
 952              		.loc 1 643 0 discriminator 3
 953 009a A25C     		ldrb	r2, [r4, r2]	@ zero_extendqisi2
 954 009c 59F82770 		ldr	r7, [r9, r7, lsl #2]
 955 00a0 58F82110 		ldr	r1, [r8, r1, lsl #2]
 956 00a4 5CF82220 		ldr	r2, [ip, r2, lsl #2]
 957              		.loc 1 644 0 discriminator 3
 958 00a8 C3F30743 		ubfx	r3, r3, #16, #8
 959 00ac 7940     		eors	r1, r1, r7
 960 00ae E35C     		ldrb	r3, [r4, r3]	@ zero_extendqisi2
 961 00b0 5EF82330 		ldr	r3, [lr, r3, lsl #2]
 962 00b4 4A40     		eors	r2, r2, r1
 963 00b6 5A40     		eors	r2, r2, r3
 964              		.loc 1 642 0 discriminator 3
 965 00b8 45F8042F 		str	r2, [r5, #4]!
ARM GAS  C:\Users\jo\AppData\Local\Temp\cc8AA3HA.s 			page 18


 966              	.LVL83:
 967              		.loc 1 640 0 discriminator 3
 968 00bc AE42     		cmp	r6, r5
 969 00be E4D1     		bne	.L66
 970              	.LVL84:
 971              		.loc 1 638 0
 972 00c0 BBF1010B 		subs	fp, fp, #1
 973              	.LVL85:
 974 00c4 AAF1100A 		sub	r10, r10, #16
 975              	.LVL86:
 976 00c8 3546     		mov	r5, r6
 977 00ca DBD1     		bne	.L65
 978              	.LVL87:
 979 00cc 049B     		ldr	r3, [sp, #16]
 980 00ce 0399     		ldr	r1, [sp, #12]
 981 00d0 059A     		ldr	r2, [sp, #20]
 982 00d2 1B01     		lsls	r3, r3, #4
 983 00d4 C3F11003 		rsb	r3, r3, #16
 984 00d8 1944     		add	r1, r1, r3
 985 00da 029B     		ldr	r3, [sp, #8]
 986 00dc 0391     		str	r1, [sp, #12]
 987 00de 103A     		subs	r2, r2, #16
 988 00e0 1344     		add	r3, r3, r2
 989 00e2 0293     		str	r3, [sp, #8]
 990              	.LVL88:
 991              	.L64:
 992              		.loc 1 649 0
 993 00e4 0399     		ldr	r1, [sp, #12]
 994 00e6 029C     		ldr	r4, [sp, #8]
 995 00e8 0B68     		ldr	r3, [r1]
 996 00ea 2360     		str	r3, [r4]
 997              	.LVL89:
 998              		.loc 1 650 0
 999 00ec 4B68     		ldr	r3, [r1, #4]
 1000 00ee 6360     		str	r3, [r4, #4]
 1001              	.LVL90:
 1002              		.loc 1 651 0
 1003 00f0 8B68     		ldr	r3, [r1, #8]
 1004 00f2 A360     		str	r3, [r4, #8]
 1005              	.LVL91:
 1006              		.loc 1 650 0
 1007 00f4 0A46     		mov	r2, r1
 1008              		.loc 1 652 0
 1009 00f6 D368     		ldr	r3, [r2, #12]
 1010 00f8 E360     		str	r3, [r4, #12]
 1011              	.LVL92:
 1012              	.L63:
 1013              		.loc 1 598 0
 1014 00fa 06AB     		add	r3, sp, #24
 1015              	.LVL93:
 1016              	.LBB21:
 1017              	.LBB22:
 1018              	.LBB23:
 1019              		.loc 1 60 0
 1020 00fc 0022     		movs	r2, #0
 1021              	.LVL94:
 1022              	.L67:
ARM GAS  C:\Users\jo\AppData\Local\Temp\cc8AA3HA.s 			page 19


 1023 00fe 1A70     		strb	r2, [r3]
 1024              	.LVL95:
 1025 0100 4CA9     		add	r1, sp, #304
 1026 0102 0133     		adds	r3, r3, #1
 1027              	.LVL96:
 1028 0104 8B42     		cmp	r3, r1
 1029 0106 FAD1     		bne	.L67
 1030              	.LBE23:
 1031              	.LBE22:
 1032              	.LBE21:
 1033              		.loc 1 658 0
 1034 0108 0198     		ldr	r0, [sp, #4]
 1035 010a 4DB0     		add	sp, sp, #308
 1036              		.cfi_def_cfa_offset 36
 1037              		@ sp needed
 1038 010c BDE8F08F 		pop	{r4, r5, r6, r7, r8, r9, r10, fp, pc}
 1039              	.LVL97:
 1040              	.L73:
 1041              		.align	2
 1042              	.L72:
 1043 0110 00000000 		.word	.LANCHOR1
 1044 0114 00000000 		.word	.LANCHOR6
 1045 0118 00000000 		.word	.LANCHOR3
 1046 011c 00000000 		.word	.LANCHOR4
 1047 0120 00000000 		.word	.LANCHOR5
 1048              		.cfi_endproc
 1049              	.LFE5:
 1050              		.size	aes_setkey_dec, .-aes_setkey_dec
 1051 0124 AFF30080 		.section	.text.aes_crypt_ecb,"ax",%progbits
 1051      AFF30080 
 1051      AFF30080 
 1052              		.align	2
 1053              		.p2align 4,,15
 1054              		.global	aes_crypt_ecb
 1055              		.thumb
 1056              		.thumb_func
 1057              		.type	aes_crypt_ecb, %function
 1058              	aes_crypt_ecb:
 1059              	.LFB6:
 1060              		.loc 1 713 0
 1061              		.cfi_startproc
 1062              		@ args = 0, pretend = 0, frame = 48
 1063              		@ frame_needed = 0, uses_anonymous_args = 0
 1064              	.LVL98:
 1065 0000 2DE9F04F 		push	{r4, r5, r6, r7, r8, r9, r10, fp, lr}
 1066              		.cfi_def_cfa_offset 36
 1067              		.cfi_offset 4, -36
 1068              		.cfi_offset 5, -32
 1069              		.cfi_offset 6, -28
 1070              		.cfi_offset 7, -24
 1071              		.cfi_offset 8, -20
 1072              		.cfi_offset 9, -16
 1073              		.cfi_offset 10, -12
 1074              		.cfi_offset 11, -8
 1075              		.cfi_offset 14, -4
 1076              		.loc 1 736 0
 1077 0004 92F802C0 		ldrb	ip, [r2, #2]	@ zero_extendqisi2
ARM GAS  C:\Users\jo\AppData\Local\Temp\cc8AA3HA.s 			page 20


 1078              		.loc 1 739 0
 1079 0008 967B     		ldrb	r6, [r2, #14]	@ zero_extendqisi2
 1080              		.loc 1 736 0
 1081 000a 92F801E0 		ldrb	lr, [r2, #1]	@ zero_extendqisi2
 1082              		.loc 1 739 0
 1083 000e 92F80D80 		ldrb	r8, [r2, #13]	@ zero_extendqisi2
 1084              		.loc 1 734 0
 1085 0012 4568     		ldr	r5, [r0, #4]
 1086              	.LVL99:
 1087              		.loc 1 736 0
 1088 0014 92F800A0 		ldrb	r10, [r2]	@ zero_extendqisi2
 1089              		.loc 1 737 0
 1090 0018 9479     		ldrb	r4, [r2, #6]	@ zero_extendqisi2
 1091              		.loc 1 738 0
 1092 001a 977A     		ldrb	r7, [r2, #10]	@ zero_extendqisi2
 1093              		.loc 1 737 0
 1094 001c 92F805B0 		ldrb	fp, [r2, #5]	@ zero_extendqisi2
 1095              		.loc 1 738 0
 1096 0020 92F80990 		ldrb	r9, [r2, #9]	@ zero_extendqisi2
 1097              		.loc 1 713 0
 1098 0024 8DB0     		sub	sp, sp, #52
 1099              		.cfi_def_cfa_offset 88
 1100              		.loc 1 736 0
 1101 0026 4FEA0C4C 		lsl	ip, ip, #16
 1102              		.loc 1 739 0
 1103 002a 3604     		lsls	r6, r6, #16
 1104 002c 4CEA0E2C 		orr	ip, ip, lr, lsl #8
 1105 0030 46EA0826 		orr	r6, r6, r8, lsl #8
 1106              		.loc 1 736 0
 1107 0034 92F80380 		ldrb	r8, [r2, #3]	@ zero_extendqisi2
 1108              		.loc 1 713 0
 1109 0038 0190     		str	r0, [sp, #4]
 1110              		.loc 1 738 0
 1111 003a 3F04     		lsls	r7, r7, #16
 1112              		.loc 1 737 0
 1113 003c 1079     		ldrb	r0, [r2, #4]	@ zero_extendqisi2
 1114              	.LVL100:
 1115              		.loc 1 713 0
 1116 003e 0A93     		str	r3, [sp, #40]
 1117              		.loc 1 736 0
 1118 0040 4CEA0A0C 		orr	ip, ip, r10
 1119 0044 2B68     		ldr	r3, [r5]
 1120              	.LVL101:
 1121              		.loc 1 738 0
 1122 0046 92F808E0 		ldrb	lr, [r2, #8]	@ zero_extendqisi2
 1123 004a 92F80BA0 		ldrb	r10, [r2, #11]	@ zero_extendqisi2
 1124              		.loc 1 737 0
 1125 004e 2404     		lsls	r4, r4, #16
 1126 0050 44EA0B24 		orr	r4, r4, fp, lsl #8
 1127 0054 47EA0929 		orr	r9, r7, r9, lsl #8
 1128              		.loc 1 736 0
 1129 0058 4CEA0868 		orr	r8, ip, r8, lsl #24
 1130              	.LVL102:
 1131              		.loc 1 737 0
 1132 005c D779     		ldrb	r7, [r2, #7]	@ zero_extendqisi2
 1133              		.loc 1 739 0
 1134 005e 92F80CB0 		ldrb	fp, [r2, #12]	@ zero_extendqisi2
ARM GAS  C:\Users\jo\AppData\Local\Temp\cc8AA3HA.s 			page 21


 1135 0062 D27B     		ldrb	r2, [r2, #15]	@ zero_extendqisi2
 1136              	.LVL103:
 1137              		.loc 1 737 0
 1138 0064 0443     		orrs	r4, r4, r0
 1139              		.loc 1 736 0
 1140 0066 88EA0308 		eor	r8, r8, r3
 1141              	.LVL104:
 1142              		.loc 1 737 0
 1143 006a 6B68     		ldr	r3, [r5, #4]
 1144 006c 44EA0764 		orr	r4, r4, r7, lsl #24
 1145              	.LVL105:
 1146 0070 6340     		eors	r3, r3, r4
 1147              		.loc 1 738 0
 1148 0072 49EA0E0E 		orr	lr, r9, lr
 1149              		.loc 1 737 0
 1150 0076 0393     		str	r3, [sp, #12]
 1151              	.LVL106:
 1152              		.loc 1 738 0
 1153 0078 AB68     		ldr	r3, [r5, #8]
 1154              	.LVL107:
 1155 007a 4EEA0A67 		orr	r7, lr, r10, lsl #24
 1156              	.LVL108:
 1157              		.loc 1 739 0
 1158 007e 46EA0B06 		orr	r6, r6, fp
 1159              		.loc 1 738 0
 1160 0082 5F40     		eors	r7, r7, r3
 1161              	.LVL109:
 1162              		.loc 1 739 0
 1163 0084 EB68     		ldr	r3, [r5, #12]
 1164 0086 46EA0262 		orr	r2, r6, r2, lsl #24
 1165              	.LVL110:
 1166 008a 5A40     		eors	r2, r2, r3
 1167              	.LVL111:
 1168 008c 05F11003 		add	r3, r5, #16
 1169 0090 0993     		str	r3, [sp, #36]
 1170              	.LVL112:
 1171              		.loc 1 743 0
 1172 0092 019B     		ldr	r3, [sp, #4]
 1173              	.LVL113:
 1174 0094 1B68     		ldr	r3, [r3]
 1175 0096 5B10     		asrs	r3, r3, #1
 1176 0098 0B93     		str	r3, [sp, #44]
 1177 009a 013B     		subs	r3, r3, #1
 1178              		.loc 1 741 0
 1179 009c 0029     		cmp	r1, #0
 1180 009e 40F01482 		bne	.L75
 1181              		.loc 1 743 0
 1182 00a2 0693     		str	r3, [sp, #24]
 1183              	.LVL114:
 1184 00a4 002B     		cmp	r3, #0
 1185 00a6 D04B     		ldr	r3, .L88
 1186              	.LVL115:
 1187 00a8 0493     		str	r3, [sp, #16]
 1188 00aa D04B     		ldr	r3, .L88+4
 1189 00ac 0293     		str	r3, [sp, #8]
 1190 00ae D04B     		ldr	r3, .L88+8
 1191 00b0 DFF844A3 		ldr	r10, .L88+16
ARM GAS  C:\Users\jo\AppData\Local\Temp\cc8AA3HA.s 			page 22


 1192 00b4 0193     		str	r3, [sp, #4]
 1193              	.LVL116:
 1194 00b6 40F3EA80 		ble	.L76
 1195 00ba 05F13009 		add	r9, r5, #48
 1196 00be 0597     		str	r7, [sp, #20]
 1197              	.LVL117:
 1198              	.L77:
 1199              		.loc 1 745 0 discriminator 3
 1200 00c0 039C     		ldr	r4, [sp, #12]
 1201 00c2 049F     		ldr	r7, [sp, #16]
 1202 00c4 DDF814B0 		ldr	fp, [sp, #20]
 1203 00c8 E5B2     		uxtb	r5, r4
 1204 00ca D0B2     		uxtb	r0, r2
 1205 00cc 230E     		lsrs	r3, r4, #24
 1206 00ce 029C     		ldr	r4, [sp, #8]
 1207 00d0 57F825C0 		ldr	ip, [r7, r5, lsl #2]
 1208 00d4 54F823E0 		ldr	lr, [r4, r3, lsl #2]
 1209 00d8 57F82050 		ldr	r5, [r7, r0, lsl #2]
 1210 00dc 59F8143C 		ldr	r3, [r9, #-20]
 1211 00e0 5FFA8BF1 		uxtb	r1, fp
 1212 00e4 6B40     		eors	r3, r3, r5
 1213 00e6 57F82100 		ldr	r0, [r7, r1, lsl #2]
 1214 00ea 59F81C1C 		ldr	r1, [r9, #-28]
 1215 00ee 150E     		lsrs	r5, r2, #24
 1216 00f0 8CEA010C 		eor	ip, ip, r1
 1217 00f4 5946     		mov	r1, fp
 1218 00f6 54F825B0 		ldr	fp, [r4, r5, lsl #2]
 1219 00fa 59F8185C 		ldr	r5, [r9, #-24]
 1220 00fe 6840     		eors	r0, r0, r5
 1221 0100 4FEA1865 		lsr	r5, r8, #24
 1222 0104 5FFA88F6 		uxtb	r6, r8
 1223 0108 54F82550 		ldr	r5, [r4, r5, lsl #2]
 1224 010c 57F82660 		ldr	r6, [r7, r6, lsl #2]
 1225 0110 59F8207C 		ldr	r7, [r9, #-32]
 1226 0114 6B40     		eors	r3, r3, r5
 1227 0116 090E     		lsrs	r1, r1, #24
 1228 0118 059D     		ldr	r5, [sp, #20]
 1229 011a 54F82110 		ldr	r1, [r4, r1, lsl #2]
 1230 011e 039C     		ldr	r4, [sp, #12]
 1231 0120 7E40     		eors	r6, r6, r7
 1232 0122 80EA0B00 		eor	r0, r0, fp
 1233 0126 C5F3072B 		ubfx	fp, r5, #8, #8
 1234 012a 86EA0E06 		eor	r6, r6, lr
 1235 012e 5AF82B70 		ldr	r7, [r10, fp, lsl #2]
 1236 0132 0796     		str	r6, [sp, #28]
 1237 0134 C2F3072E 		ubfx	lr, r2, #8, #8
 1238 0138 019E     		ldr	r6, [sp, #4]
 1239 013a 5AF82EE0 		ldr	lr, [r10, lr, lsl #2]
 1240 013e 8CEA0101 		eor	r1, ip, r1
 1241 0142 C4F3072B 		ubfx	fp, r4, #8, #8
 1242 0146 C8F3072C 		ubfx	ip, r8, #8, #8
 1243 014a C2F30742 		ubfx	r2, r2, #16, #8
 1244              	.LVL118:
 1245 014e C8F30748 		ubfx	r8, r8, #16, #8
 1246              	.LVL119:
 1247 0152 C5F30745 		ubfx	r5, r5, #16, #8
 1248 0156 C4F30744 		ubfx	r4, r4, #16, #8
ARM GAS  C:\Users\jo\AppData\Local\Temp\cc8AA3HA.s 			page 23


 1249 015a 56F82220 		ldr	r2, [r6, r2, lsl #2]
 1250 015e 56F82440 		ldr	r4, [r6, r4, lsl #2]
 1251 0162 56F82880 		ldr	r8, [r6, r8, lsl #2]
 1252 0166 56F82550 		ldr	r5, [r6, r5, lsl #2]
 1253 016a 079E     		ldr	r6, [sp, #28]
 1254 016c 5AF82CC0 		ldr	ip, [r10, ip, lsl #2]
 1255 0170 5AF82BB0 		ldr	fp, [r10, fp, lsl #2]
 1256 0174 86EA0E06 		eor	r6, r6, lr
 1257 0178 7540     		eors	r5, r5, r6
 1258              	.LVL120:
 1259 017a 2E46     		mov	r6, r5
 1260 017c 81EA0C01 		eor	r1, r1, ip
 1261 0180 7B40     		eors	r3, r3, r7
 1262              		.loc 1 746 0 discriminator 3
 1263 0182 0396     		str	r6, [sp, #12]
 1264              	.LVL121:
 1265 0184 C6F30727 		ubfx	r7, r6, #8, #8
 1266 0188 EDB2     		uxtb	r5, r5
 1267              	.LVL122:
 1268 018a 049E     		ldr	r6, [sp, #16]
 1269              	.LVL123:
 1270              		.loc 1 745 0 discriminator 3
 1271 018c 6340     		eors	r3, r3, r4
 1272 018e 5140     		eors	r1, r1, r2
 1273              	.LVL124:
 1274 0190 80EA0B00 		eor	r0, r0, fp
 1275 0194 80EA0808 		eor	r8, r0, r8
 1276              	.LVL125:
 1277 0198 56F82550 		ldr	r5, [r6, r5, lsl #2]
 1278 019c 029E     		ldr	r6, [sp, #8]
 1279              		.loc 1 746 0 discriminator 3
 1280 019e C3F3072C 		ubfx	ip, r3, #8, #8
 1281 01a2 080E     		lsrs	r0, r1, #24
 1282 01a4 B346     		mov	fp, r6
 1283 01a6 56F82000 		ldr	r0, [r6, r0, lsl #2]
 1284 01aa 5AF82C60 		ldr	r6, [r10, ip, lsl #2]
 1285 01ae 0596     		str	r6, [sp, #20]
 1286              	.LVL126:
 1287 01b0 C8F30744 		ubfx	r4, r8, #16, #8
 1288 01b4 019E     		ldr	r6, [sp, #4]
 1289 01b6 5AF827C0 		ldr	ip, [r10, r7, lsl #2]
 1290 01ba 56F82440 		ldr	r4, [r6, r4, lsl #2]
 1291 01be 049E     		ldr	r6, [sp, #16]
 1292 01c0 0794     		str	r4, [sp, #28]
 1293 01c2 4FEA186E 		lsr	lr, r8, #24
 1294 01c6 CAB2     		uxtb	r2, r1
 1295 01c8 5BF82E40 		ldr	r4, [fp, lr, lsl #2]
 1296 01cc 56F82220 		ldr	r2, [r6, r2, lsl #2]
 1297 01d0 59F8107C 		ldr	r7, [r9, #-16]
 1298 01d4 82EA040B 		eor	fp, r2, r4
 1299 01d8 6840     		eors	r0, r0, r5
 1300 01da 019A     		ldr	r2, [sp, #4]
 1301 01dc C3F30745 		ubfx	r5, r3, #16, #8
 1302 01e0 5FFA88F4 		uxtb	r4, r8
 1303 01e4 52F82550 		ldr	r5, [r2, r5, lsl #2]
 1304 01e8 59F80C2C 		ldr	r2, [r9, #-12]
 1305 01ec 0895     		str	r5, [sp, #32]
ARM GAS  C:\Users\jo\AppData\Local\Temp\cc8AA3HA.s 			page 24


 1306 01ee 7840     		eors	r0, r0, r7
 1307 01f0 8BEA020B 		eor	fp, fp, r2
 1308 01f4 029F     		ldr	r7, [sp, #8]
 1309 01f6 56F82450 		ldr	r5, [r6, r4, lsl #2]
 1310 01fa 1A0E     		lsrs	r2, r3, #24
 1311 01fc DBB2     		uxtb	r3, r3
 1312              	.LVL127:
 1313 01fe 57F82270 		ldr	r7, [r7, r2, lsl #2]
 1314 0202 56F82330 		ldr	r3, [r6, r3, lsl #2]
 1315 0206 019E     		ldr	r6, [sp, #4]
 1316 0208 C1F30722 		ubfx	r2, r1, #8, #8
 1317 020c 85EA070E 		eor	lr, r5, r7
 1318 0210 C1F30741 		ubfx	r1, r1, #16, #8
 1319              	.LVL128:
 1320 0214 039D     		ldr	r5, [sp, #12]
 1321 0216 5AF82270 		ldr	r7, [r10, r2, lsl #2]
 1322 021a 59F8082C 		ldr	r2, [r9, #-8]
 1323 021e 56F82110 		ldr	r1, [r6, r1, lsl #2]
 1324 0222 8EEA020E 		eor	lr, lr, r2
 1325 0226 C5F30746 		ubfx	r6, r5, #16, #8
 1326 022a 2A0E     		lsrs	r2, r5, #24
 1327 022c 029D     		ldr	r5, [sp, #8]
 1328 022e 55F82220 		ldr	r2, [r5, r2, lsl #2]
 1329 0232 019D     		ldr	r5, [sp, #4]
 1330 0234 5A40     		eors	r2, r2, r3
 1331 0236 059B     		ldr	r3, [sp, #20]
 1332 0238 55F82660 		ldr	r6, [r5, r6, lsl #2]
 1333 023c 089D     		ldr	r5, [sp, #32]
 1334 023e C8F30728 		ubfx	r8, r8, #8, #8
 1335              	.LVL129:
 1336 0242 5840     		eors	r0, r0, r3
 1337 0244 59F8043C 		ldr	r3, [r9, #-4]
 1338 0248 5AF82840 		ldr	r4, [r10, r8, lsl #2]
 1339 024c 8BEA0C0B 		eor	fp, fp, ip
 1340 0250 5A40     		eors	r2, r2, r3
 1341 0252 8EEA0707 		eor	r7, lr, r7
 1342 0256 8BEA0503 		eor	r3, fp, r5
 1343 025a 6240     		eors	r2, r2, r4
 1344 025c 079C     		ldr	r4, [sp, #28]
 1345 025e 0393     		str	r3, [sp, #12]
 1346              	.LVL130:
 1347 0260 87EA0603 		eor	r3, r7, r6
 1348 0264 0593     		str	r3, [sp, #20]
 1349              		.loc 1 743 0 discriminator 3
 1350 0266 069B     		ldr	r3, [sp, #24]
 1351 0268 013B     		subs	r3, r3, #1
 1352              		.loc 1 746 0 discriminator 3
 1353 026a 80EA0408 		eor	r8, r0, r4
 1354              	.LVL131:
 1355 026e 82EA0102 		eor	r2, r2, r1
 1356              	.LVL132:
 1357 0272 09F12009 		add	r9, r9, #32
 1358              	.LVL133:
 1359              		.loc 1 743 0 discriminator 3
 1360 0276 0693     		str	r3, [sp, #24]
 1361 0278 7FF422AF 		bne	.L77
 1362 027c 0B9B     		ldr	r3, [sp, #44]
ARM GAS  C:\Users\jo\AppData\Local\Temp\cc8AA3HA.s 			page 25


 1363              	.LVL134:
 1364 027e 0999     		ldr	r1, [sp, #36]
 1365 0280 059F     		ldr	r7, [sp, #20]
 1366 0282 03F10063 		add	r3, r3, #134217728
 1367 0286 013B     		subs	r3, r3, #1
 1368 0288 01EB4313 		add	r3, r1, r3, lsl #5
 1369 028c 0993     		str	r3, [sp, #36]
 1370              	.LVL135:
 1371              	.L76:
 1372              		.loc 1 749 0
 1373 028e 039C     		ldr	r4, [sp, #12]
 1374 0290 9DF80C60 		ldrb	r6, [sp, #12]	@ zero_extendqisi2
 1375 0294 5FFA88FE 		uxtb	lr, r8
 1376 0298 210E     		lsrs	r1, r4, #24
 1377 029a 049C     		ldr	r4, [sp, #16]
 1378 029c 54F82EE0 		ldr	lr, [r4, lr, lsl #2]
 1379 02a0 029C     		ldr	r4, [sp, #8]
 1380 02a2 54F82110 		ldr	r1, [r4, r1, lsl #2]
 1381 02a6 049C     		ldr	r4, [sp, #16]
 1382 02a8 3D0E     		lsrs	r5, r7, #24
 1383 02aa 54F82660 		ldr	r6, [r4, r6, lsl #2]
 1384 02ae 029C     		ldr	r4, [sp, #8]
 1385 02b0 0696     		str	r6, [sp, #24]
 1386 02b2 130E     		lsrs	r3, r2, #24
 1387 02b4 54F82550 		ldr	r5, [r4, r5, lsl #2]
 1388 02b8 54F82390 		ldr	r9, [r4, r3, lsl #2]
 1389 02bc 0795     		str	r5, [sp, #28]
 1390 02be 2546     		mov	r5, r4
 1391 02c0 099C     		ldr	r4, [sp, #36]
 1392 02c2 049E     		ldr	r6, [sp, #16]
 1393 02c4 2368     		ldr	r3, [r4]
 1394 02c6 0293     		str	r3, [sp, #8]
 1395 02c8 8EEA010C 		eor	ip, lr, r1
 1396 02cc 4FEA1863 		lsr	r3, r8, #24
 1397 02d0 C2F30721 		ubfx	r1, r2, #8, #8
 1398 02d4 55F82330 		ldr	r3, [r5, r3, lsl #2]
 1399 02d8 5AF82150 		ldr	r5, [r10, r1, lsl #2]
 1400 02dc 0595     		str	r5, [sp, #20]
 1401 02de D0B2     		uxtb	r0, r2
 1402 02e0 019D     		ldr	r5, [sp, #4]
 1403 02e2 0499     		ldr	r1, [sp, #16]
 1404 02e4 56F82060 		ldr	r6, [r6, r0, lsl #2]
 1405              		.loc 1 752 0
 1406 02e8 4248     		ldr	r0, .L88+12
 1407              		.loc 1 749 0
 1408 02ea C2F30742 		ubfx	r2, r2, #16, #8
 1409              	.LVL136:
 1410 02ee 5FFA87FE 		uxtb	lr, r7
 1411 02f2 55F822B0 		ldr	fp, [r5, r2, lsl #2]
 1412 02f6 069A     		ldr	r2, [sp, #24]
 1413 02f8 079D     		ldr	r5, [sp, #28]
 1414 02fa 51F82E10 		ldr	r1, [r1, lr, lsl #2]
 1415 02fe 5540     		eors	r5, r5, r2
 1416 0300 C8F30722 		ubfx	r2, r8, #8, #8
 1417 0304 81EA0909 		eor	r9, r1, r9
 1418 0308 7340     		eors	r3, r3, r6
 1419 030a C7F30721 		ubfx	r1, r7, #8, #8
ARM GAS  C:\Users\jo\AppData\Local\Temp\cc8AA3HA.s 			page 26


 1420 030e C8F30748 		ubfx	r8, r8, #16, #8
 1421              	.LVL137:
 1422 0312 019E     		ldr	r6, [sp, #4]
 1423 0314 5AF82220 		ldr	r2, [r10, r2, lsl #2]
 1424 0318 56F82860 		ldr	r6, [r6, r8, lsl #2]
 1425 031c 0492     		str	r2, [sp, #16]
 1426 031e 5AF82180 		ldr	r8, [r10, r1, lsl #2]
 1427 0322 2246     		mov	r2, r4
 1428 0324 C7F30747 		ubfx	r7, r7, #16, #8
 1429              	.LVL138:
 1430 0328 6468     		ldr	r4, [r4, #4]
 1431 032a 0199     		ldr	r1, [sp, #4]
 1432 032c 51F82710 		ldr	r1, [r1, r7, lsl #2]
 1433 0330 D768     		ldr	r7, [r2, #12]
 1434 0332 3A46     		mov	r2, r7
 1435 0334 029F     		ldr	r7, [sp, #8]
 1436 0336 8CEA070E 		eor	lr, ip, r7
 1437 033a 85EA040C 		eor	ip, r5, r4
 1438 033e 039C     		ldr	r4, [sp, #12]
 1439 0340 C4F30725 		ubfx	r5, r4, #8, #8
 1440 0344 C4F30744 		ubfx	r4, r4, #16, #8
 1441 0348 5AF82570 		ldr	r7, [r10, r5, lsl #2]
 1442 034c 019D     		ldr	r5, [sp, #4]
 1443 034e 55F82450 		ldr	r5, [r5, r4, lsl #2]
 1444 0352 099C     		ldr	r4, [sp, #36]
 1445 0354 A468     		ldr	r4, [r4, #8]
 1446 0356 89EA040A 		eor	r10, r9, r4
 1447 035a 059C     		ldr	r4, [sp, #20]
 1448 035c 5340     		eors	r3, r3, r2
 1449 035e 8EEA040E 		eor	lr, lr, r4
 1450 0362 83EA0803 		eor	r3, r3, r8
 1451 0366 8EEA0101 		eor	r1, lr, r1
 1452              	.LVL139:
 1453 036a 049A     		ldr	r2, [sp, #16]
 1454 036c 6B40     		eors	r3, r3, r5
 1455 036e 8AEA0704 		eor	r4, r10, r7
 1456              		.loc 1 760 0
 1457 0372 C3F30745 		ubfx	r5, r3, #16, #8
 1458              		.loc 1 759 0
 1459 0376 C1F30727 		ubfx	r7, r1, #8, #8
 1460              		.loc 1 749 0
 1461 037a 7440     		eors	r4, r4, r6
 1462              		.loc 1 760 0
 1463 037c 0495     		str	r5, [sp, #16]
 1464              		.loc 1 753 0
 1465 037e C3F30729 		ubfx	r9, r3, #8, #8
 1466              		.loc 1 767 0
 1467 0382 1D0E     		lsrs	r5, r3, #24
 1468 0384 8CEA0202 		eor	r2, ip, r2
 1469              		.loc 1 770 0
 1470 0388 DBB2     		uxtb	r3, r3
 1471              		.loc 1 749 0
 1472 038a 82EA0B02 		eor	r2, r2, fp
 1473              	.LVL140:
 1474              		.loc 1 759 0
 1475 038e C75D     		ldrb	r7, [r0, r7]	@ zero_extendqisi2
 1476              		.loc 1 770 0
ARM GAS  C:\Users\jo\AppData\Local\Temp\cc8AA3HA.s 			page 27


 1477 0390 0693     		str	r3, [sp, #24]
 1478              		.loc 1 754 0
 1479 0392 C4F30748 		ubfx	r8, r4, #16, #8
 1480              		.loc 1 764 0
 1481 0396 E6B2     		uxtb	r6, r4
 1482              		.loc 1 752 0
 1483 0398 5FFA81FB 		uxtb	fp, r1
 1484 039c 099B     		ldr	r3, [sp, #36]
 1485              		.loc 1 764 0
 1486 039e 0596     		str	r6, [sp, #20]
 1487              		.loc 1 755 0
 1488 03a0 4FEA126A 		lsr	r10, r2, #24
 1489              		.loc 1 753 0
 1490 03a4 10F80960 		ldrb	r6, [r0, r9]	@ zero_extendqisi2
 1491              		.loc 1 759 0
 1492 03a8 0397     		str	r7, [sp, #12]
 1493              		.loc 1 760 0
 1494 03aa 049F     		ldr	r7, [sp, #16]
 1495              		.loc 1 752 0
 1496 03ac 10F80BB0 		ldrb	fp, [r0, fp]	@ zero_extendqisi2
 1497 03b0 1B69     		ldr	r3, [r3, #16]
 1498              		.loc 1 753 0
 1499 03b2 0196     		str	r6, [sp, #4]
 1500              		.loc 1 754 0
 1501 03b4 10F80860 		ldrb	r6, [r0, r8]	@ zero_extendqisi2
 1502              		.loc 1 755 0
 1503 03b8 10F80AA0 		ldrb	r10, [r0, r10]	@ zero_extendqisi2
 1504              		.loc 1 760 0
 1505 03bc C75D     		ldrb	r7, [r0, r7]	@ zero_extendqisi2
 1506              		.loc 1 754 0
 1507 03be 0296     		str	r6, [sp, #8]
 1508              		.loc 1 758 0
 1509 03c0 5FFA82FC 		uxtb	ip, r2
 1510              		.loc 1 761 0
 1511 03c4 4FEA146E 		lsr	lr, r4, #24
 1512              		.loc 1 764 0
 1513 03c8 059E     		ldr	r6, [sp, #20]
 1514              		.loc 1 760 0
 1515 03ca 0497     		str	r7, [sp, #16]
 1516 03cc 8BEA0303 		eor	r3, fp, r3
 1517              		.loc 1 765 0
 1518 03d0 C2F30727 		ubfx	r7, r2, #8, #8
 1519              		.loc 1 772 0
 1520 03d4 C2F30742 		ubfx	r2, r2, #16, #8
 1521              	.LVL141:
 1522              		.loc 1 758 0
 1523 03d8 10F80CC0 		ldrb	ip, [r0, ip]	@ zero_extendqisi2
 1524              		.loc 1 767 0
 1525 03dc 10F80590 		ldrb	r9, [r0, r5]	@ zero_extendqisi2
 1526              		.loc 1 761 0
 1527 03e0 10F80EE0 		ldrb	lr, [r0, lr]	@ zero_extendqisi2
 1528              		.loc 1 764 0
 1529 03e4 865D     		ldrb	r6, [r0, r6]	@ zero_extendqisi2
 1530 03e6 09E0     		b	.L89
 1531              	.L90:
 1532              		.align	2
 1533              	.L88:
ARM GAS  C:\Users\jo\AppData\Local\Temp\cc8AA3HA.s 			page 28


 1534 03e8 00000000 		.word	.LANCHOR3
 1535 03ec 00000000 		.word	.LANCHOR6
 1536 03f0 00000000 		.word	.LANCHOR5
 1537 03f4 00000000 		.word	.LANCHOR2
 1538 03f8 00000000 		.word	.LANCHOR4
 1539              	.L89:
 1540              		.loc 1 772 0
 1541 03fc 0592     		str	r2, [sp, #20]
 1542 03fe 83EA0A6B 		eor	fp, r3, r10, lsl #24
 1543 0402 099B     		ldr	r3, [sp, #36]
 1544              		.loc 1 770 0
 1545 0404 069A     		ldr	r2, [sp, #24]
 1546 0406 5D69     		ldr	r5, [r3, #20]
 1547 0408 D3F81CA0 		ldr	r10, [r3, #28]
 1548              		.loc 1 765 0
 1549 040c C75D     		ldrb	r7, [r0, r7]	@ zero_extendqisi2
 1550 040e 8CEA0505 		eor	r5, ip, r5
 1551              		.loc 1 773 0
 1552 0412 4FEA1168 		lsr	r8, r1, #24
 1553 0416 85EA0E6E 		eor	lr, r5, lr, lsl #24
 1554 041a 9D69     		ldr	r5, [r3, #24]
 1555              		.loc 1 770 0
 1556 041c 10F802C0 		ldrb	ip, [r0, r2]	@ zero_extendqisi2
 1557              		.loc 1 772 0
 1558 0420 059B     		ldr	r3, [sp, #20]
 1559              		.loc 1 773 0
 1560 0422 10F80880 		ldrb	r8, [r0, r8]	@ zero_extendqisi2
 1561              		.loc 1 772 0
 1562 0426 C25C     		ldrb	r2, [r0, r3]	@ zero_extendqisi2
 1563 0428 019B     		ldr	r3, [sp, #4]
 1564              		.loc 1 771 0
 1565 042a C4F30724 		ubfx	r4, r4, #8, #8
 1566              	.LVL142:
 1567 042e 6E40     		eors	r6, r6, r5
 1568              		.loc 1 766 0
 1569 0430 C1F30741 		ubfx	r1, r1, #16, #8
 1570              	.LVL143:
 1571              		.loc 1 771 0
 1572 0434 045D     		ldrb	r4, [r0, r4]	@ zero_extendqisi2
 1573 0436 039D     		ldr	r5, [sp, #12]
 1574              		.loc 1 766 0
 1575 0438 415C     		ldrb	r1, [r0, r1]	@ zero_extendqisi2
 1576              		.loc 1 751 0
 1577 043a 0298     		ldr	r0, [sp, #8]
 1578 043c 8CEA0A0C 		eor	ip, ip, r10
 1579 0440 86EA0966 		eor	r6, r6, r9, lsl #24
 1580 0444 86EA0726 		eor	r6, r6, r7, lsl #8
 1581 0448 8CEA086C 		eor	ip, ip, r8, lsl #24
 1582              		.loc 1 757 0
 1583 044c 049F     		ldr	r7, [sp, #16]
 1584 044e 8BEA0323 		eor	r3, fp, r3, lsl #8
 1585 0452 8EEA052E 		eor	lr, lr, r5, lsl #8
 1586 0456 8CEA0424 		eor	r4, ip, r4, lsl #8
 1587              		.loc 1 751 0
 1588 045a 83EA0043 		eor	r3, r3, r0, lsl #16
 1589              	.LVL144:
 1590              		.loc 1 757 0
ARM GAS  C:\Users\jo\AppData\Local\Temp\cc8AA3HA.s 			page 29


 1591 045e 8EEA074E 		eor	lr, lr, r7, lsl #16
 1592              	.LVL145:
 1593              		.loc 1 763 0
 1594 0462 86EA0140 		eor	r0, r6, r1, lsl #16
 1595              	.LVL146:
 1596              		.loc 1 769 0
 1597 0466 84EA0242 		eor	r2, r4, r2, lsl #16
 1598              	.LVL147:
 1599              	.L78:
 1600              		.loc 1 810 0
 1601 046a 0A99     		ldr	r1, [sp, #40]
 1602              		.loc 1 812 0
 1603 046c 050A     		lsrs	r5, r0, #8
 1604 046e 040C     		lsrs	r4, r0, #16
 1605 0470 4FEA106B 		lsr	fp, r0, #24
 1606 0474 0872     		strb	r0, [r1, #8]
 1607              		.loc 1 813 0
 1608 0476 100E     		lsrs	r0, r2, #24
 1609              	.LVL148:
 1610              		.loc 1 810 0
 1611 0478 4FEA132A 		lsr	r10, r3, #8
 1612 047c 4FEA1349 		lsr	r9, r3, #16
 1613 0480 4FEA1368 		lsr	r8, r3, #24
 1614              		.loc 1 811 0
 1615 0484 4FEA1E2C 		lsr	ip, lr, #8
 1616 0488 4FEA1E47 		lsr	r7, lr, #16
 1617 048c 4FEA1E66 		lsr	r6, lr, #24
 1618              		.loc 1 810 0
 1619 0490 0B70     		strb	r3, [r1]
 1620              		.loc 1 811 0
 1621 0492 81F804E0 		strb	lr, [r1, #4]
 1622              		.loc 1 813 0
 1623 0496 130A     		lsrs	r3, r2, #8
 1624              	.LVL149:
 1625 0498 4FEA124E 		lsr	lr, r2, #16
 1626              	.LVL150:
 1627 049c C873     		strb	r0, [r1, #15]
 1628              		.loc 1 816 0
 1629 049e 0020     		movs	r0, #0
 1630              		.loc 1 813 0
 1631 04a0 0A73     		strb	r2, [r1, #12]
 1632              		.loc 1 810 0
 1633 04a2 81F801A0 		strb	r10, [r1, #1]
 1634 04a6 81F80290 		strb	r9, [r1, #2]
 1635 04aa 81F80380 		strb	r8, [r1, #3]
 1636              		.loc 1 811 0
 1637 04ae 81F805C0 		strb	ip, [r1, #5]
 1638 04b2 8F71     		strb	r7, [r1, #6]
 1639 04b4 CE71     		strb	r6, [r1, #7]
 1640              		.loc 1 812 0
 1641 04b6 4D72     		strb	r5, [r1, #9]
 1642 04b8 8C72     		strb	r4, [r1, #10]
 1643 04ba 81F80BB0 		strb	fp, [r1, #11]
 1644              		.loc 1 813 0
 1645 04be 4B73     		strb	r3, [r1, #13]
 1646 04c0 81F80EE0 		strb	lr, [r1, #14]
 1647              		.loc 1 816 0
ARM GAS  C:\Users\jo\AppData\Local\Temp\cc8AA3HA.s 			page 30


 1648 04c4 0DB0     		add	sp, sp, #52
 1649              		.cfi_remember_state
 1650              		.cfi_def_cfa_offset 36
 1651              		@ sp needed
 1652 04c6 BDE8F08F 		pop	{r4, r5, r6, r7, r8, r9, r10, fp, pc}
 1653              	.LVL151:
 1654              	.L75:
 1655              		.cfi_restore_state
 1656              		.loc 1 777 0
 1657 04ca 0793     		str	r3, [sp, #28]
 1658              	.LVL152:
 1659 04cc 002B     		cmp	r3, #0
 1660 04ce D24B     		ldr	r3, .L91
 1661 04d0 0593     		str	r3, [sp, #20]
 1662 04d2 D24B     		ldr	r3, .L91+4
 1663 04d4 0193     		str	r3, [sp, #4]
 1664              	.LVL153:
 1665 04d6 DFF84CB3 		ldr	fp, .L91+12
 1666 04da DFF84C93 		ldr	r9, .L91+16
 1667 04de 40F3F080 		ble	.L79
 1668 04e2 039C     		ldr	r4, [sp, #12]
 1669 04e4 0697     		str	r7, [sp, #24]
 1670 04e6 05F1300A 		add	r10, r5, #48
 1671 04ea 0492     		str	r2, [sp, #16]
 1672 04ec CDF808B0 		str	fp, [sp, #8]
 1673              	.LVL154:
 1674              	.L80:
 1675              		.loc 1 779 0 discriminator 3
 1676 04f0 049A     		ldr	r2, [sp, #16]
 1677 04f2 059F     		ldr	r7, [sp, #20]
 1678 04f4 DDF818B0 		ldr	fp, [sp, #24]
 1679 04f8 D5B2     		uxtb	r5, r2
 1680 04fa E0B2     		uxtb	r0, r4
 1681 04fc 130E     		lsrs	r3, r2, #24
 1682 04fe 019A     		ldr	r2, [sp, #4]
 1683 0500 57F825C0 		ldr	ip, [r7, r5, lsl #2]
 1684 0504 52F823E0 		ldr	lr, [r2, r3, lsl #2]
 1685 0508 57F82050 		ldr	r5, [r7, r0, lsl #2]
 1686 050c 5AF81C3C 		ldr	r3, [r10, #-28]
 1687 0510 5FFA8BF1 		uxtb	r1, fp
 1688 0514 6B40     		eors	r3, r3, r5
 1689 0516 57F82100 		ldr	r0, [r7, r1, lsl #2]
 1690 051a 5AF8141C 		ldr	r1, [r10, #-20]
 1691 051e 250E     		lsrs	r5, r4, #24
 1692 0520 8CEA010C 		eor	ip, ip, r1
 1693 0524 5946     		mov	r1, fp
 1694 0526 52F825B0 		ldr	fp, [r2, r5, lsl #2]
 1695 052a 5AF8185C 		ldr	r5, [r10, #-24]
 1696 052e 5FFA88F6 		uxtb	r6, r8
 1697 0532 6840     		eors	r0, r0, r5
 1698 0534 4FEA1865 		lsr	r5, r8, #24
 1699 0538 57F82660 		ldr	r6, [r7, r6, lsl #2]
 1700 053c 52F82550 		ldr	r5, [r2, r5, lsl #2]
 1701 0540 5AF8207C 		ldr	r7, [r10, #-32]
 1702 0544 6B40     		eors	r3, r3, r5
 1703 0546 7E40     		eors	r6, r6, r7
 1704 0548 069D     		ldr	r5, [sp, #24]
ARM GAS  C:\Users\jo\AppData\Local\Temp\cc8AA3HA.s 			page 31


 1705 054a 090E     		lsrs	r1, r1, #24
 1706 054c 86EA0E06 		eor	r6, r6, lr
 1707 0550 0396     		str	r6, [sp, #12]
 1708 0552 52F82110 		ldr	r1, [r2, r1, lsl #2]
 1709 0556 029E     		ldr	r6, [sp, #8]
 1710 0558 049A     		ldr	r2, [sp, #16]
 1711 055a 80EA0B00 		eor	r0, r0, fp
 1712 055e C5F3072B 		ubfx	fp, r5, #8, #8
 1713 0562 C4F3072E 		ubfx	lr, r4, #8, #8
 1714 0566 56F82B70 		ldr	r7, [r6, fp, lsl #2]
 1715 056a 56F82EE0 		ldr	lr, [r6, lr, lsl #2]
 1716 056e 8CEA0101 		eor	r1, ip, r1
 1717 0572 C2F3072B 		ubfx	fp, r2, #8, #8
 1718 0576 C8F3072C 		ubfx	ip, r8, #8, #8
 1719 057a C5F30745 		ubfx	r5, r5, #16, #8
 1720 057e 56F82CC0 		ldr	ip, [r6, ip, lsl #2]
 1721 0582 56F82BB0 		ldr	fp, [r6, fp, lsl #2]
 1722 0586 039E     		ldr	r6, [sp, #12]
 1723 0588 59F82550 		ldr	r5, [r9, r5, lsl #2]
 1724 058c 86EA0E06 		eor	r6, r6, lr
 1725 0590 7540     		eors	r5, r5, r6
 1726              	.LVL155:
 1727 0592 C4F30744 		ubfx	r4, r4, #16, #8
 1728              	.LVL156:
 1729 0596 C2F30742 		ubfx	r2, r2, #16, #8
 1730 059a 2E46     		mov	r6, r5
 1731 059c C8F30748 		ubfx	r8, r8, #16, #8
 1732              	.LVL157:
 1733 05a0 59F82440 		ldr	r4, [r9, r4, lsl #2]
 1734 05a4 59F82220 		ldr	r2, [r9, r2, lsl #2]
 1735              		.loc 1 780 0 discriminator 3
 1736 05a8 0396     		str	r6, [sp, #12]
 1737 05aa 4FEA166E 		lsr	lr, r6, #24
 1738 05ae EDB2     		uxtb	r5, r5
 1739              	.LVL158:
 1740 05b0 059E     		ldr	r6, [sp, #20]
 1741              	.LVL159:
 1742              		.loc 1 779 0 discriminator 3
 1743 05b2 59F82880 		ldr	r8, [r9, r8, lsl #2]
 1744 05b6 56F82550 		ldr	r5, [r6, r5, lsl #2]
 1745 05ba 0495     		str	r5, [sp, #16]
 1746              	.LVL160:
 1747 05bc 7B40     		eors	r3, r3, r7
 1748 05be 81EA0C01 		eor	r1, r1, ip
 1749 05c2 6140     		eors	r1, r1, r4
 1750 05c4 5A40     		eors	r2, r2, r3
 1751              	.LVL161:
 1752 05c6 80EA0B00 		eor	r0, r0, fp
 1753 05ca 019E     		ldr	r6, [sp, #4]
 1754 05cc 029D     		ldr	r5, [sp, #8]
 1755 05ce 80EA0808 		eor	r8, r0, r8
 1756              	.LVL162:
 1757              		.loc 1 780 0 discriminator 3
 1758 05d2 C2F3072C 		ubfx	ip, r2, #8, #8
 1759 05d6 080E     		lsrs	r0, r1, #24
 1760 05d8 B346     		mov	fp, r6
 1761 05da 56F82000 		ldr	r0, [r6, r0, lsl #2]
ARM GAS  C:\Users\jo\AppData\Local\Temp\cc8AA3HA.s 			page 32


 1762 05de 55F82C60 		ldr	r6, [r5, ip, lsl #2]
 1763 05e2 0696     		str	r6, [sp, #24]
 1764              	.LVL163:
 1765 05e4 C8F30744 		ubfx	r4, r8, #16, #8
 1766 05e8 059E     		ldr	r6, [sp, #20]
 1767 05ea 59F82440 		ldr	r4, [r9, r4, lsl #2]
 1768 05ee 0894     		str	r4, [sp, #32]
 1769 05f0 C8F30727 		ubfx	r7, r8, #8, #8
 1770 05f4 D3B2     		uxtb	r3, r2
 1771 05f6 5BF82E40 		ldr	r4, [fp, lr, lsl #2]
 1772 05fa 56F82330 		ldr	r3, [r6, r3, lsl #2]
 1773 05fe 55F827B0 		ldr	fp, [r5, r7, lsl #2]
 1774 0602 049D     		ldr	r5, [sp, #16]
 1775 0604 5AF8107C 		ldr	r7, [r10, #-16]
 1776 0608 5C40     		eors	r4, r4, r3
 1777 060a 6840     		eors	r0, r0, r5
 1778 060c 5AF80C3C 		ldr	r3, [r10, #-12]
 1779 0610 C1F30745 		ubfx	r5, r1, #16, #8
 1780 0614 7840     		eors	r0, r0, r7
 1781 0616 59F825C0 		ldr	ip, [r9, r5, lsl #2]
 1782 061a 019F     		ldr	r7, [sp, #4]
 1783 061c 5FFA88F5 		uxtb	r5, r8
 1784 0620 6340     		eors	r3, r3, r4
 1785 0622 140E     		lsrs	r4, r2, #24
 1786 0624 56F82550 		ldr	r5, [r6, r5, lsl #2]
 1787 0628 57F82470 		ldr	r7, [r7, r4, lsl #2]
 1788 062c C1F30724 		ubfx	r4, r1, #8, #8
 1789 0630 85EA070E 		eor	lr, r5, r7
 1790 0634 029D     		ldr	r5, [sp, #8]
 1791 0636 4FEA1868 		lsr	r8, r8, #24
 1792              	.LVL164:
 1793 063a 55F82470 		ldr	r7, [r5, r4, lsl #2]
 1794 063e 019C     		ldr	r4, [sp, #4]
 1795 0640 C9B2     		uxtb	r1, r1
 1796              	.LVL165:
 1797 0642 54F82850 		ldr	r5, [r4, r8, lsl #2]
 1798 0646 56F82110 		ldr	r1, [r6, r1, lsl #2]
 1799 064a 5AF8086C 		ldr	r6, [r10, #-8]
 1800 064e 6940     		eors	r1, r1, r5
 1801 0650 039D     		ldr	r5, [sp, #12]
 1802 0652 8EEA060E 		eor	lr, lr, r6
 1803 0656 C5F30724 		ubfx	r4, r5, #8, #8
 1804 065a C5F30746 		ubfx	r6, r5, #16, #8
 1805 065e 029D     		ldr	r5, [sp, #8]
 1806 0660 59F82660 		ldr	r6, [r9, r6, lsl #2]
 1807 0664 55F82450 		ldr	r5, [r5, r4, lsl #2]
 1808 0668 5AF8044C 		ldr	r4, [r10, #-4]
 1809 066c 6140     		eors	r1, r1, r4
 1810 066e 069C     		ldr	r4, [sp, #24]
 1811 0670 C2F30742 		ubfx	r2, r2, #16, #8
 1812              	.LVL166:
 1813 0674 6040     		eors	r0, r0, r4
 1814 0676 089C     		ldr	r4, [sp, #32]
 1815 0678 59F82220 		ldr	r2, [r9, r2, lsl #2]
 1816 067c 83EA0B03 		eor	r3, r3, fp
 1817 0680 8EEA0707 		eor	r7, lr, r7
 1818 0684 6940     		eors	r1, r1, r5
ARM GAS  C:\Users\jo\AppData\Local\Temp\cc8AA3HA.s 			page 33


 1819 0686 80EA0408 		eor	r8, r0, r4
 1820              	.LVL167:
 1821 068a 83EA0C04 		eor	r4, r3, ip
 1822              	.LVL168:
 1823 068e 87EA0603 		eor	r3, r7, r6
 1824 0692 0693     		str	r3, [sp, #24]
 1825              	.LVL169:
 1826 0694 82EA0103 		eor	r3, r2, r1
 1827              	.LVL170:
 1828 0698 0493     		str	r3, [sp, #16]
 1829              	.LVL171:
 1830              		.loc 1 777 0 discriminator 3
 1831 069a 079B     		ldr	r3, [sp, #28]
 1832              	.LVL172:
 1833 069c 013B     		subs	r3, r3, #1
 1834              	.LVL173:
 1835 069e 0AF1200A 		add	r10, r10, #32
 1836              	.LVL174:
 1837 06a2 0793     		str	r3, [sp, #28]
 1838 06a4 7FF424AF 		bne	.L80
 1839 06a8 0B9B     		ldr	r3, [sp, #44]
 1840              	.LVL175:
 1841 06aa 0999     		ldr	r1, [sp, #36]
 1842 06ac 069F     		ldr	r7, [sp, #24]
 1843 06ae 049A     		ldr	r2, [sp, #16]
 1844 06b0 DDF808B0 		ldr	fp, [sp, #8]
 1845 06b4 0394     		str	r4, [sp, #12]
 1846              	.LVL176:
 1847 06b6 03F10063 		add	r3, r3, #134217728
 1848 06ba 013B     		subs	r3, r3, #1
 1849 06bc 01EB4313 		add	r3, r1, r3, lsl #5
 1850 06c0 0993     		str	r3, [sp, #36]
 1851              	.LVL177:
 1852              	.L79:
 1853 06c2 059C     		ldr	r4, [sp, #20]
 1854              		.loc 1 783 0
 1855 06c4 0398     		ldr	r0, [sp, #12]
 1856 06c6 5FFA88FE 		uxtb	lr, r8
 1857 06ca 160E     		lsrs	r6, r2, #24
 1858 06cc 54F82EE0 		ldr	lr, [r4, lr, lsl #2]
 1859 06d0 019C     		ldr	r4, [sp, #4]
 1860 06d2 D5B2     		uxtb	r5, r2
 1861 06d4 54F82660 		ldr	r6, [r4, r6, lsl #2]
 1862 06d8 059C     		ldr	r4, [sp, #20]
 1863 06da C1B2     		uxtb	r1, r0
 1864 06dc 54F82550 		ldr	r5, [r4, r5, lsl #2]
 1865 06e0 019C     		ldr	r4, [sp, #4]
 1866 06e2 0495     		str	r5, [sp, #16]
 1867 06e4 000E     		lsrs	r0, r0, #24
 1868 06e6 059D     		ldr	r5, [sp, #20]
 1869 06e8 54F820A0 		ldr	r10, [r4, r0, lsl #2]
 1870 06ec 0998     		ldr	r0, [sp, #36]
 1871 06ee 55F82110 		ldr	r1, [r5, r1, lsl #2]
 1872 06f2 0068     		ldr	r0, [r0]
 1873 06f4 0290     		str	r0, [sp, #8]
 1874 06f6 3B0E     		lsrs	r3, r7, #24
 1875 06f8 0398     		ldr	r0, [sp, #12]
ARM GAS  C:\Users\jo\AppData\Local\Temp\cc8AA3HA.s 			page 34


 1876 06fa 54F82330 		ldr	r3, [r4, r3, lsl #2]
 1877 06fe 019C     		ldr	r4, [sp, #4]
 1878 0700 8EEA060C 		eor	ip, lr, r6
 1879 0704 4FEA1865 		lsr	r5, r8, #24
 1880 0708 C0F30726 		ubfx	r6, r0, #8, #8
 1881 070c 54F82550 		ldr	r5, [r4, r5, lsl #2]
 1882 0710 5BF82640 		ldr	r4, [fp, r6, lsl #2]
 1883 0714 0194     		str	r4, [sp, #4]
 1884 0716 5FFA87FE 		uxtb	lr, r7
 1885 071a C0F30744 		ubfx	r4, r0, #16, #8
 1886 071e 059E     		ldr	r6, [sp, #20]
 1887 0720 56F82E60 		ldr	r6, [r6, lr, lsl #2]
 1888 0724 59F824E0 		ldr	lr, [r9, r4, lsl #2]
 1889 0728 049C     		ldr	r4, [sp, #16]
 1890 072a 6340     		eors	r3, r3, r4
 1891 072c C8F30724 		ubfx	r4, r8, #8, #8
 1892 0730 C8F30748 		ubfx	r8, r8, #16, #8
 1893              	.LVL178:
 1894 0734 6940     		eors	r1, r1, r5
 1895 0736 86EA0A0A 		eor	r10, r6, r10
 1896 073a 099D     		ldr	r5, [sp, #36]
 1897 073c 59F82800 		ldr	r0, [r9, r8, lsl #2]
 1898 0740 0490     		str	r0, [sp, #16]
 1899 0742 C7F30726 		ubfx	r6, r7, #8, #8
 1900 0746 C7F30747 		ubfx	r7, r7, #16, #8
 1901              	.LVL179:
 1902 074a E868     		ldr	r0, [r5, #12]
 1903 074c 5BF82660 		ldr	r6, [fp, r6, lsl #2]
 1904 0750 5BF82440 		ldr	r4, [fp, r4, lsl #2]
 1905 0754 0590     		str	r0, [sp, #20]
 1906 0756 0396     		str	r6, [sp, #12]
 1907 0758 59F82780 		ldr	r8, [r9, r7, lsl #2]
 1908 075c 6F68     		ldr	r7, [r5, #4]
 1909 075e 029E     		ldr	r6, [sp, #8]
 1910 0760 2846     		mov	r0, r5
 1911 0762 3D46     		mov	r5, r7
 1912 0764 059F     		ldr	r7, [sp, #20]
 1913 0766 7B40     		eors	r3, r3, r7
 1914 0768 C2F30727 		ubfx	r7, r2, #8, #8
 1915 076c C2F30742 		ubfx	r2, r2, #16, #8
 1916              	.LVL180:
 1917 0770 5BF827B0 		ldr	fp, [fp, r7, lsl #2]
 1918 0774 59F82270 		ldr	r7, [r9, r2, lsl #2]
 1919 0778 8268     		ldr	r2, [r0, #8]
 1920 077a 0069     		ldr	r0, [r0, #16]
 1921 077c 8AEA020A 		eor	r10, r10, r2
 1922 0780 019A     		ldr	r2, [sp, #4]
 1923 0782 8CEA0606 		eor	r6, ip, r6
 1924 0786 5640     		eors	r6, r6, r2
 1925 0788 039A     		ldr	r2, [sp, #12]
 1926 078a 6940     		eors	r1, r1, r5
 1927 078c 5140     		eors	r1, r1, r2
 1928 078e 86EA0802 		eor	r2, r6, r8
 1929 0792 0192     		str	r2, [sp, #4]
 1930              	.LVL181:
 1931 0794 6340     		eors	r3, r3, r4
 1932 0796 83EA0E02 		eor	r2, r3, lr
ARM GAS  C:\Users\jo\AppData\Local\Temp\cc8AA3HA.s 			page 35


 1933              	.LVL182:
 1934              		.loc 1 795 0
 1935 079a 019C     		ldr	r4, [sp, #4]
 1936              		.loc 1 783 0
 1937 079c 049B     		ldr	r3, [sp, #16]
 1938 079e 8AEA0B0A 		eor	r10, r10, fp
 1939 07a2 8AEA0305 		eor	r5, r10, r3
 1940              		.loc 1 795 0
 1941 07a6 4FEA146C 		lsr	ip, r4, #24
 1942              		.loc 1 786 0
 1943 07aa 9DF80430 		ldrb	r3, [sp, #4]	@ zero_extendqisi2
 1944 07ae 1C4C     		ldr	r4, .L91+8
 1945              		.loc 1 783 0
 1946 07b0 7940     		eors	r1, r1, r7
 1947              	.LVL183:
 1948              		.loc 1 786 0
 1949 07b2 E35C     		ldrb	r3, [r4, r3]	@ zero_extendqisi2
 1950              		.loc 1 789 0
 1951 07b4 4FEA126B 		lsr	fp, r2, #24
 1952 07b8 0446     		mov	r4, r0
 1953              		.loc 1 787 0
 1954 07ba C1F3072A 		ubfx	r10, r1, #8, #8
 1955              		.loc 1 789 0
 1956 07be 1848     		ldr	r0, .L91+8
 1957              		.loc 1 788 0
 1958 07c0 C5F30749 		ubfx	r9, r5, #16, #8
 1959              		.loc 1 787 0
 1960 07c4 10F80AA0 		ldrb	r10, [r0, r10]	@ zero_extendqisi2
 1961              		.loc 1 789 0
 1962 07c8 10F80BB0 		ldrb	fp, [r0, fp]	@ zero_extendqisi2
 1963              		.loc 1 788 0
 1964 07cc 1448     		ldr	r0, .L91+8
 1965              		.loc 1 787 0
 1966 07ce CDF808A0 		str	r10, [sp, #8]
 1967              		.loc 1 788 0
 1968 07d2 10F80990 		ldrb	r9, [r0, r9]	@ zero_extendqisi2
 1969              		.loc 1 792 0
 1970 07d6 1248     		ldr	r0, .L91+8
 1971              		.loc 1 788 0
 1972 07d8 CDF80C90 		str	r9, [sp, #12]
 1973              		.loc 1 792 0
 1974 07dc 5FFA81F8 		uxtb	r8, r1
 1975              		.loc 1 795 0
 1976 07e0 10F80CC0 		ldrb	ip, [r0, ip]	@ zero_extendqisi2
 1977              		.loc 1 792 0
 1978 07e4 10F80880 		ldrb	r8, [r0, r8]	@ zero_extendqisi2
 1979              		.loc 1 793 0
 1980 07e8 0D48     		ldr	r0, .L91+8
 1981              		.loc 1 795 0
 1982 07ea CDF810C0 		str	ip, [sp, #16]
 1983              		.loc 1 793 0
 1984 07ee C5F3072E 		ubfx	lr, r5, #8, #8
 1985              		.loc 1 798 0
 1986 07f2 EEB2     		uxtb	r6, r5
 1987              		.loc 1 807 0
 1988 07f4 2D0E     		lsrs	r5, r5, #24
 1989              	.LVL184:
ARM GAS  C:\Users\jo\AppData\Local\Temp\cc8AA3HA.s 			page 36


 1990              		.loc 1 793 0
 1991 07f6 10F80EE0 		ldrb	lr, [r0, lr]	@ zero_extendqisi2
 1992              		.loc 1 807 0
 1993 07fa 0695     		str	r5, [sp, #24]
 1994              		.loc 1 794 0
 1995 07fc 0848     		ldr	r0, .L91+8
 1996              		.loc 1 793 0
 1997 07fe CDF814E0 		str	lr, [sp, #20]
 1998              		.loc 1 794 0
 1999 0802 C2F30747 		ubfx	r7, r2, #16, #8
 2000              		.loc 1 801 0
 2001 0806 0D0E     		lsrs	r5, r1, #24
 2002              		.loc 1 794 0
 2003 0808 10F807E0 		ldrb	lr, [r0, r7]	@ zero_extendqisi2
 2004              		.loc 1 801 0
 2005 080c 10F805C0 		ldrb	ip, [r0, r5]	@ zero_extendqisi2
 2006              		.loc 1 798 0
 2007 0810 865D     		ldrb	r6, [r0, r6]	@ zero_extendqisi2
 2008 0812 0998     		ldr	r0, [sp, #36]
 2009 0814 0AE0     		b	.L92
 2010              	.L93:
 2011 0816 00BF     		.align	2
 2012              	.L91:
 2013 0818 00000000 		.word	.LANCHOR7
 2014 081c 00000000 		.word	.LANCHOR10
 2015 0820 00000000 		.word	.LANCHOR1
 2016 0824 00000000 		.word	.LANCHOR8
 2017 0828 00000000 		.word	.LANCHOR9
 2018              	.L92:
 2019 082c 6340     		eors	r3, r3, r4
 2020              		.loc 1 799 0
 2021 082e C2F30727 		ubfx	r7, r2, #8, #8
 2022 0832 1C4C     		ldr	r4, .L94
 2023 0834 4569     		ldr	r5, [r0, #20]
 2024 0836 14F80790 		ldrb	r9, [r4, r7]	@ zero_extendqisi2
 2025              		.loc 1 804 0
 2026 083a D2B2     		uxtb	r2, r2
 2027              	.LVL185:
 2028 083c 83EA0B6B 		eor	fp, r3, fp, lsl #24
 2029 0840 8369     		ldr	r3, [r0, #24]
 2030 0842 A75C     		ldrb	r7, [r4, r2]	@ zero_extendqisi2
 2031 0844 C269     		ldr	r2, [r0, #28]
 2032              		.loc 1 807 0
 2033 0846 0698     		ldr	r0, [sp, #24]
 2034 0848 5E40     		eors	r6, r6, r3
 2035              		.loc 1 805 0
 2036 084a 019B     		ldr	r3, [sp, #4]
 2037 084c 88EA0505 		eor	r5, r8, r5
 2038 0850 5740     		eors	r7, r7, r2
 2039              		.loc 1 807 0
 2040 0852 8046     		mov	r8, r0
 2041              		.loc 1 800 0
 2042 0854 019A     		ldr	r2, [sp, #4]
 2043              		.loc 1 807 0
 2044 0856 14F808A0 		ldrb	r10, [r4, r8]	@ zero_extendqisi2
 2045              		.loc 1 806 0
 2046 085a C1F30741 		ubfx	r1, r1, #16, #8
ARM GAS  C:\Users\jo\AppData\Local\Temp\cc8AA3HA.s 			page 37


 2047              	.LVL186:
 2048              		.loc 1 807 0
 2049 085e 2046     		mov	r0, r4
 2050              		.loc 1 805 0
 2051 0860 C3F30723 		ubfx	r3, r3, #8, #8
 2052              		.loc 1 806 0
 2053 0864 615C     		ldrb	r1, [r4, r1]	@ zero_extendqisi2
 2054              		.loc 1 800 0
 2055 0866 C2F30744 		ubfx	r4, r2, #16, #8
 2056              		.loc 1 805 0
 2057 086a C25C     		ldrb	r2, [r0, r3]	@ zero_extendqisi2
 2058 086c 049B     		ldr	r3, [sp, #16]
 2059              		.loc 1 800 0
 2060 086e 005D     		ldrb	r0, [r0, r4]	@ zero_extendqisi2
 2061 0870 059C     		ldr	r4, [sp, #20]
 2062 0872 85EA0365 		eor	r5, r5, r3, lsl #24
 2063 0876 029B     		ldr	r3, [sp, #8]
 2064 0878 85EA0425 		eor	r5, r5, r4, lsl #8
 2065 087c 86EA0C66 		eor	r6, r6, ip, lsl #24
 2066 0880 87EA0A67 		eor	r7, r7, r10, lsl #24
 2067              		.loc 1 785 0
 2068 0884 039C     		ldr	r4, [sp, #12]
 2069 0886 8BEA0323 		eor	r3, fp, r3, lsl #8
 2070 088a 86EA0926 		eor	r6, r6, r9, lsl #8
 2071 088e 87EA0222 		eor	r2, r7, r2, lsl #8
 2072 0892 83EA0443 		eor	r3, r3, r4, lsl #16
 2073              	.LVL187:
 2074              		.loc 1 791 0
 2075 0896 85EA0E4E 		eor	lr, r5, lr, lsl #16
 2076              	.LVL188:
 2077              		.loc 1 797 0
 2078 089a 86EA0040 		eor	r0, r6, r0, lsl #16
 2079              	.LVL189:
 2080              		.loc 1 803 0
 2081 089e 82EA0142 		eor	r2, r2, r1, lsl #16
 2082              	.LVL190:
 2083 08a2 E2E5     		b	.L78
 2084              	.L95:
 2085              		.align	2
 2086              	.L94:
 2087 08a4 00000000 		.word	.LANCHOR1
 2088              		.cfi_endproc
 2089              	.LFE6:
 2090              		.size	aes_crypt_ecb, .-aes_crypt_ecb
 2091 08a8 AFF30080 		.section	.text.aes_crypt_cbc,"ax",%progbits
 2091      AFF30080 
 2092              		.align	2
 2093              		.p2align 4,,15
 2094              		.global	aes_crypt_cbc
 2095              		.thumb
 2096              		.thumb_func
 2097              		.type	aes_crypt_cbc, %function
 2098              	aes_crypt_cbc:
 2099              	.LFB7:
 2100              		.loc 1 828 0
 2101              		.cfi_startproc
 2102              		@ args = 8, pretend = 0, frame = 16
ARM GAS  C:\Users\jo\AppData\Local\Temp\cc8AA3HA.s 			page 38


 2103              		@ frame_needed = 0, uses_anonymous_args = 0
 2104              	.LVL191:
 2105 0000 2DE9F047 		push	{r4, r5, r6, r7, r8, r9, r10, lr}
 2106              		.cfi_def_cfa_offset 32
 2107              		.cfi_offset 4, -32
 2108              		.cfi_offset 5, -28
 2109              		.cfi_offset 6, -24
 2110              		.cfi_offset 7, -20
 2111              		.cfi_offset 8, -16
 2112              		.cfi_offset 9, -12
 2113              		.cfi_offset 10, -8
 2114              		.cfi_offset 14, -4
 2115 0004 84B0     		sub	sp, sp, #16
 2116              		.cfi_def_cfa_offset 48
 2117              		.loc 1 832 0
 2118 0006 12F00F0F 		tst	r2, #15
 2119              		.loc 1 828 0
 2120 000a 9046     		mov	r8, r2
 2121 000c DDF830A0 		ldr	r10, [sp, #48]
 2122 0010 0D9C     		ldr	r4, [sp, #52]
 2123              		.loc 1 832 0
 2124 0012 5CD1     		bne	.L107
 2125 0014 0646     		mov	r6, r0
 2126 0016 8946     		mov	r9, r1
 2127 0018 1D46     		mov	r5, r3
 2128              		.loc 1 847 0
 2129 001a 41B3     		cbz	r1, .L114
 2130              	.LVL192:
 2131              		.loc 1 866 0
 2132 001c 1AB3     		cbz	r2, .L106
 2133 001e 0AF1FF3A 		add	r10, r10, #-1
 2134              	.LVL193:
 2135 0022 5F1E     		subs	r7, r3, #1
 2136              	.LVL194:
 2137              	.L105:
 2138 0024 3946     		mov	r1, r7
 2139 0026 621E     		subs	r2, r4, #1
 2140 0028 0AF1100E 		add	lr, r10, #16
 2141              	.LVL195:
 2142              	.L104:
 2143              		.loc 1 869 0 discriminator 3
 2144 002c 1AF8013F 		ldrb	r3, [r10, #1]!	@ zero_extendqisi2
 2145              	.LVL196:
 2146 0030 11F8010F 		ldrb	r0, [r1, #1]!	@ zero_extendqisi2
 2147              		.loc 1 868 0 discriminator 3
 2148 0034 F245     		cmp	r10, lr
 2149              		.loc 1 869 0 discriminator 3
 2150 0036 83EA0003 		eor	r3, r3, r0
 2151 003a 02F8013F 		strb	r3, [r2, #1]!
 2152              	.LVL197:
 2153              		.loc 1 868 0 discriminator 3
 2154 003e F5D1     		bne	.L104
 2155              		.loc 1 871 0
 2156 0040 2246     		mov	r2, r4
 2157 0042 2346     		mov	r3, r4
 2158 0044 4946     		mov	r1, r9
 2159 0046 3046     		mov	r0, r6
ARM GAS  C:\Users\jo\AppData\Local\Temp\cc8AA3HA.s 			page 39


 2160 0048 FFF7FEFF 		bl	aes_crypt_ecb
 2161              	.LVL198:
 2162              		.loc 1 872 0
 2163 004c 2168     		ldr	r1, [r4]	@ unaligned
 2164 004e 6268     		ldr	r2, [r4, #4]	@ unaligned
 2165 0050 A368     		ldr	r3, [r4, #8]	@ unaligned
 2166 0052 E068     		ldr	r0, [r4, #12]	@ unaligned
 2167 0054 E860     		str	r0, [r5, #12]	@ unaligned
 2168              	.LVL199:
 2169              		.loc 1 866 0
 2170 0056 B8F11008 		subs	r8, r8, #16
 2171              	.LVL200:
 2172              		.loc 1 872 0
 2173 005a 2960     		str	r1, [r5]	@ unaligned
 2174 005c 6A60     		str	r2, [r5, #4]	@ unaligned
 2175 005e AB60     		str	r3, [r5, #8]	@ unaligned
 2176              		.loc 1 875 0
 2177 0060 04F11004 		add	r4, r4, #16
 2178              	.LVL201:
 2179              		.loc 1 866 0
 2180 0064 DED1     		bne	.L105
 2181              	.LVL202:
 2182              	.L106:
 2183              		.loc 1 880 0
 2184 0066 0020     		movs	r0, #0
 2185              	.LVL203:
 2186              	.L112:
 2187              		.loc 1 881 0
 2188 0068 04B0     		add	sp, sp, #16
 2189              		.cfi_remember_state
 2190              		.cfi_def_cfa_offset 32
 2191              		@ sp needed
 2192 006a BDE8F087 		pop	{r4, r5, r6, r7, r8, r9, r10, pc}
 2193              	.LVL204:
 2194              	.L114:
 2195              		.cfi_restore_state
 2196 006e 5F1E     		subs	r7, r3, #1
 2197              	.LBB26:
 2198              	.LBB27:
 2199              		.loc 1 849 0
 2200 0070 002A     		cmp	r2, #0
 2201 0072 F8D0     		beq	.L106
 2202              	.LVL205:
 2203              	.L102:
 2204              		.loc 1 851 0
 2205 0074 DAF80000 		ldr	r0, [r10]	@ unaligned
 2206 0078 DAF80410 		ldr	r1, [r10, #4]	@ unaligned
 2207 007c DAF80820 		ldr	r2, [r10, #8]	@ unaligned
 2208 0080 DAF80C30 		ldr	r3, [r10, #12]	@ unaligned
 2209 0084 EE46     		mov	lr, sp
 2210 0086 AEE80F00 		stmia	lr!, {r0, r1, r2, r3}
 2211              		.loc 1 852 0
 2212 008a 0021     		movs	r1, #0
 2213 008c 2346     		mov	r3, r4
 2214 008e 3046     		mov	r0, r6
 2215 0090 5246     		mov	r2, r10
 2216 0092 FFF7FEFF 		bl	aes_crypt_ecb
ARM GAS  C:\Users\jo\AppData\Local\Temp\cc8AA3HA.s 			page 40


 2217              	.LVL206:
 2218 0096 631E     		subs	r3, r4, #1
 2219 0098 3946     		mov	r1, r7
 2220 009a 04F10F0E 		add	lr, r4, #15
 2221              	.LVL207:
 2222              	.L101:
 2223              		.loc 1 855 0
 2224 009e 13F8012F 		ldrb	r2, [r3, #1]!	@ zero_extendqisi2
 2225 00a2 11F8010F 		ldrb	r0, [r1, #1]!	@ zero_extendqisi2
 2226              		.loc 1 854 0
 2227 00a6 7345     		cmp	r3, lr
 2228              		.loc 1 855 0
 2229 00a8 82EA0002 		eor	r2, r2, r0
 2230 00ac 1A70     		strb	r2, [r3]
 2231              		.loc 1 854 0
 2232 00ae F6D1     		bne	.L101
 2233              		.loc 1 857 0
 2234 00b0 EE46     		mov	lr, sp
 2235 00b2 BEE80F00 		ldmia	lr!, {r0, r1, r2, r3}
 2236              		.loc 1 849 0
 2237 00b6 B8F11008 		subs	r8, r8, #16
 2238              	.LVL208:
 2239              		.loc 1 859 0
 2240 00ba 0AF1100A 		add	r10, r10, #16
 2241              		.loc 1 860 0
 2242 00be 04F11004 		add	r4, r4, #16
 2243              	.LVL209:
 2244              		.loc 1 857 0
 2245 00c2 2860     		str	r0, [r5]	@ unaligned
 2246 00c4 6960     		str	r1, [r5, #4]	@ unaligned
 2247 00c6 AA60     		str	r2, [r5, #8]	@ unaligned
 2248 00c8 EB60     		str	r3, [r5, #12]	@ unaligned
 2249              	.LVL210:
 2250              		.loc 1 849 0
 2251 00ca D3D1     		bne	.L102
 2252 00cc CBE7     		b	.L106
 2253              	.LVL211:
 2254              	.L107:
 2255              	.LBE27:
 2256              	.LBE26:
 2257              		.loc 1 833 0
 2258 00ce 6FF02100 		mvn	r0, #33
 2259              	.LVL212:
 2260 00d2 C9E7     		b	.L112
 2261              		.cfi_endproc
 2262              	.LFE7:
 2263              		.size	aes_crypt_cbc, .-aes_crypt_cbc
 2264 00d4 AFF30080 		.section	.text.aes_crypt_cfb128,"ax",%progbits
 2264      AFF30080 
 2264      AFF30080 
 2265              		.align	2
 2266              		.p2align 4,,15
 2267              		.global	aes_crypt_cfb128
 2268              		.thumb
 2269              		.thumb_func
 2270              		.type	aes_crypt_cfb128, %function
 2271              	aes_crypt_cfb128:
ARM GAS  C:\Users\jo\AppData\Local\Temp\cc8AA3HA.s 			page 41


 2272              	.LFB8:
 2273              		.loc 1 895 0
 2274              		.cfi_startproc
 2275              		@ args = 12, pretend = 0, frame = 0
 2276              		@ frame_needed = 0, uses_anonymous_args = 0
 2277              	.LVL213:
 2278 0000 2DE9F047 		push	{r4, r5, r6, r7, r8, r9, r10, lr}
 2279              		.cfi_def_cfa_offset 32
 2280              		.cfi_offset 4, -32
 2281              		.cfi_offset 5, -28
 2282              		.cfi_offset 6, -24
 2283              		.cfi_offset 7, -20
 2284              		.cfi_offset 8, -16
 2285              		.cfi_offset 9, -12
 2286              		.cfi_offset 10, -8
 2287              		.cfi_offset 14, -4
 2288              		.loc 1 895 0
 2289 0004 08AE     		add	r6, sp, #32
 2290              	.LVL214:
 2291 0006 9846     		mov	r8, r3
 2292 0008 0746     		mov	r7, r0
 2293              		.loc 1 897 0
 2294 000a 1C68     		ldr	r4, [r3]
 2295              		.loc 1 895 0
 2296 000c 96E84006 		ldmia	r6, {r6, r9, r10}
 2297              	.LVL215:
 2298              		.loc 1 899 0
 2299 0010 A9B1     		cbz	r1, .L116
 2300              	.LVL216:
 2301              		.loc 1 915 0
 2302 0012 7AB1     		cbz	r2, .L118
 2303 0014 0AF1FF3A 		add	r10, r10, #-1
 2304 0018 1546     		mov	r5, r2
 2305              	.LVL217:
 2306              	.L122:
 2307              		.loc 1 917 0
 2308 001a 4CB3     		cbz	r4, .L130
 2309              	.L121:
 2310              		.loc 1 920 0
 2311 001c 315D     		ldrb	r1, [r6, r4]	@ zero_extendqisi2
 2312 001e 19F8013B 		ldrb	r3, [r9], #1	@ zero_extendqisi2
 2313              	.LVL218:
 2314              		.loc 1 922 0
 2315 0022 621C     		adds	r2, r4, #1
 2316              		.loc 1 920 0
 2317 0024 4B40     		eors	r3, r3, r1
 2318              		.loc 1 915 0
 2319 0026 013D     		subs	r5, r5, #1
 2320              	.LVL219:
 2321              		.loc 1 920 0
 2322 0028 0AF8013F 		strb	r3, [r10, #1]!
 2323 002c 3355     		strb	r3, [r6, r4]
 2324              		.loc 1 922 0
 2325 002e 02F00F04 		and	r4, r2, #15
 2326              	.LVL220:
 2327              		.loc 1 915 0
 2328 0032 F2D1     		bne	.L122
ARM GAS  C:\Users\jo\AppData\Local\Temp\cc8AA3HA.s 			page 42


 2329              	.L118:
 2330              		.loc 1 926 0
 2331 0034 C8F80040 		str	r4, [r8]
 2332              		.loc 1 929 0
 2333 0038 0020     		movs	r0, #0
 2334 003a BDE8F087 		pop	{r4, r5, r6, r7, r8, r9, r10, pc}
 2335              	.LVL221:
 2336              	.L116:
 2337              		.loc 1 901 0
 2338 003e 002A     		cmp	r2, #0
 2339 0040 F8D0     		beq	.L118
 2340 0042 1546     		mov	r5, r2
 2341              		.loc 1 903 0
 2342 0044 6CB1     		cbz	r4, .L131
 2343              	.LVL222:
 2344              	.L119:
 2345              		.loc 1 907 0
 2346 0046 335D     		ldrb	r3, [r6, r4]	@ zero_extendqisi2
 2347              		.loc 1 906 0
 2348 0048 19F8012B 		ldrb	r2, [r9], #1	@ zero_extendqisi2
 2349              	.LVL223:
 2350              		.loc 1 910 0
 2351 004c 611C     		adds	r1, r4, #1
 2352              		.loc 1 907 0
 2353 004e 5340     		eors	r3, r3, r2
 2354              		.loc 1 901 0
 2355 0050 013D     		subs	r5, r5, #1
 2356              		.loc 1 907 0
 2357 0052 0AF8013B 		strb	r3, [r10], #1
 2358              	.LVL224:
 2359              		.loc 1 908 0
 2360 0056 3255     		strb	r2, [r6, r4]
 2361              		.loc 1 910 0
 2362 0058 01F00F04 		and	r4, r1, #15
 2363              	.LVL225:
 2364              		.loc 1 901 0
 2365 005c EAD0     		beq	.L118
 2366              	.LVL226:
 2367              		.loc 1 903 0
 2368 005e 002C     		cmp	r4, #0
 2369 0060 F1D1     		bne	.L119
 2370              	.LVL227:
 2371              	.L131:
 2372              		.loc 1 904 0
 2373 0062 3846     		mov	r0, r7
 2374 0064 0121     		movs	r1, #1
 2375 0066 3246     		mov	r2, r6
 2376 0068 3346     		mov	r3, r6
 2377 006a FFF7FEFF 		bl	aes_crypt_ecb
 2378              	.LVL228:
 2379 006e EAE7     		b	.L119
 2380              	.LVL229:
 2381              	.L130:
 2382              		.loc 1 918 0
 2383 0070 3846     		mov	r0, r7
 2384 0072 0121     		movs	r1, #1
 2385 0074 3246     		mov	r2, r6
ARM GAS  C:\Users\jo\AppData\Local\Temp\cc8AA3HA.s 			page 43


 2386 0076 3346     		mov	r3, r6
 2387 0078 FFF7FEFF 		bl	aes_crypt_ecb
 2388              	.LVL230:
 2389 007c CEE7     		b	.L121
 2390              		.cfi_endproc
 2391              	.LFE8:
 2392              		.size	aes_crypt_cfb128, .-aes_crypt_cfb128
 2393 007e 00BF     		.section	.text.aes_crypt_cfb8,"ax",%progbits
 2394              		.align	2
 2395              		.p2align 4,,15
 2396              		.global	aes_crypt_cfb8
 2397              		.thumb
 2398              		.thumb_func
 2399              		.type	aes_crypt_cfb8, %function
 2400              	aes_crypt_cfb8:
 2401              	.LFB9:
 2402              		.loc 1 940 0
 2403              		.cfi_startproc
 2404              		@ args = 8, pretend = 0, frame = 24
 2405              		@ frame_needed = 0, uses_anonymous_args = 0
 2406              	.LVL231:
 2407              		.loc 1 944 0
 2408 0000 002A     		cmp	r2, #0
 2409 0002 42D0     		beq	.L141
 2410              		.loc 1 940 0
 2411 0004 2DE9F047 		push	{r4, r5, r6, r7, r8, r9, r10, lr}
 2412              		.cfi_def_cfa_offset 32
 2413              		.cfi_offset 4, -32
 2414              		.cfi_offset 5, -28
 2415              		.cfi_offset 6, -24
 2416              		.cfi_offset 7, -20
 2417              		.cfi_offset 8, -16
 2418              		.cfi_offset 9, -12
 2419              		.cfi_offset 10, -8
 2420              		.cfi_offset 14, -4
 2421 0008 86B0     		sub	sp, sp, #24
 2422              		.cfi_def_cfa_offset 56
 2423 000a 1C46     		mov	r4, r3
 2424 000c 0F9B     		ldr	r3, [sp, #60]
 2425              	.LVL232:
 2426 000e 03F10108 		add	r8, r3, #1
 2427 0012 0E9B     		ldr	r3, [sp, #56]
 2428 0014 8946     		mov	r9, r1
 2429 0016 8246     		mov	r10, r0
 2430              		.loc 1 944 0
 2431 0018 1646     		mov	r6, r2
 2432 001a 5F1C     		adds	r7, r3, #1
 2433 001c 16E0     		b	.L136
 2434              	.LVL233:
 2435              	.L143:
 2436              		.loc 1 952 0
 2437 001e 5340     		eors	r3, r3, r2
 2438              		.loc 1 950 0
 2439 0020 8DF81420 		strb	r2, [sp, #20]
 2440              		.loc 1 952 0
 2441 0024 08F8013C 		strb	r3, [r8, #-1]
 2442              	.LVL234:
ARM GAS  C:\Users\jo\AppData\Local\Temp\cc8AA3HA.s 			page 44


 2443              	.L135:
 2444              		.loc 1 957 0
 2445 0028 DDF80500 		ldr	r0, [sp, #5]	@ unaligned
 2446 002c DDF80910 		ldr	r1, [sp, #9]	@ unaligned
 2447 0030 DDF80D20 		ldr	r2, [sp, #13]	@ unaligned
 2448 0034 DDF81130 		ldr	r3, [sp, #17]	@ unaligned
 2449 0038 2060     		str	r0, [r4]	@ unaligned
 2450              		.loc 1 944 0
 2451 003a 013E     		subs	r6, r6, #1
 2452              	.LVL235:
 2453 003c 08F10108 		add	r8, r8, #1
 2454              	.LVL236:
 2455 0040 07F10107 		add	r7, r7, #1
 2456              		.loc 1 957 0
 2457 0044 6160     		str	r1, [r4, #4]	@ unaligned
 2458 0046 A260     		str	r2, [r4, #8]	@ unaligned
 2459 0048 E360     		str	r3, [r4, #12]	@ unaligned
 2460              	.LVL237:
 2461              		.loc 1 944 0
 2462 004a 1AD0     		beq	.L142
 2463              	.L136:
 2464              	.LVL238:
 2465              		.loc 1 946 0
 2466 004c 2068     		ldr	r0, [r4]	@ unaligned
 2467 004e 6168     		ldr	r1, [r4, #4]	@ unaligned
 2468 0050 A268     		ldr	r2, [r4, #8]	@ unaligned
 2469 0052 E368     		ldr	r3, [r4, #12]	@ unaligned
 2470 0054 01AD     		add	r5, sp, #4
 2471 0056 0FC5     		stmia	r5!, {r0, r1, r2, r3}
 2472              		.loc 1 947 0
 2473 0058 2246     		mov	r2, r4
 2474 005a 2346     		mov	r3, r4
 2475 005c 5046     		mov	r0, r10
 2476 005e 0121     		movs	r1, #1
 2477 0060 FFF7FEFF 		bl	aes_crypt_ecb
 2478              	.LVL239:
 2479              		.loc 1 950 0
 2480 0064 17F8012C 		ldrb	r2, [r7, #-1]	@ zero_extendqisi2
 2481              		.loc 1 952 0
 2482 0068 2378     		ldrb	r3, [r4]	@ zero_extendqisi2
 2483              		.loc 1 949 0
 2484 006a B9F1000F 		cmp	r9, #0
 2485 006e D6D0     		beq	.L143
 2486              		.loc 1 952 0
 2487 0070 5340     		eors	r3, r3, r2
 2488              		.loc 1 954 0
 2489 0072 B9F1010F 		cmp	r9, #1
 2490              		.loc 1 952 0
 2491 0076 08F8013C 		strb	r3, [r8, #-1]
 2492              	.LVL240:
 2493              		.loc 1 955 0
 2494 007a 08BF     		it	eq
 2495 007c 8DF81430 		strbeq	r3, [sp, #20]
 2496 0080 D2E7     		b	.L135
 2497              	.LVL241:
 2498              	.L142:
 2499              		.loc 1 961 0
ARM GAS  C:\Users\jo\AppData\Local\Temp\cc8AA3HA.s 			page 45


 2500 0082 0020     		movs	r0, #0
 2501 0084 06B0     		add	sp, sp, #24
 2502              		.cfi_def_cfa_offset 32
 2503              		@ sp needed
 2504 0086 BDE8F087 		pop	{r4, r5, r6, r7, r8, r9, r10, pc}
 2505              	.LVL242:
 2506              	.L141:
 2507              		.cfi_def_cfa_offset 0
 2508              		.cfi_restore 4
 2509              		.cfi_restore 5
 2510              		.cfi_restore 6
 2511              		.cfi_restore 7
 2512              		.cfi_restore 8
 2513              		.cfi_restore 9
 2514              		.cfi_restore 10
 2515              		.cfi_restore 14
 2516 008a 0020     		movs	r0, #0
 2517              	.LVL243:
 2518 008c 7047     		bx	lr
 2519              		.cfi_endproc
 2520              	.LFE9:
 2521              		.size	aes_crypt_cfb8, .-aes_crypt_cfb8
 2522 008e 00BF     		.section	.text.aes_crypt_ctr,"ax",%progbits
 2523              		.align	2
 2524              		.p2align 4,,15
 2525              		.global	aes_crypt_ctr
 2526              		.thumb
 2527              		.thumb_func
 2528              		.type	aes_crypt_ctr, %function
 2529              	aes_crypt_ctr:
 2530              	.LFB10:
 2531              		.loc 1 975 0
 2532              		.cfi_startproc
 2533              		@ args = 12, pretend = 0, frame = 0
 2534              		@ frame_needed = 0, uses_anonymous_args = 0
 2535              	.LVL244:
 2536 0000 2DE9F84F 		push	{r3, r4, r5, r6, r7, r8, r9, r10, fp, lr}
 2537              		.cfi_def_cfa_offset 40
 2538              		.cfi_offset 3, -40
 2539              		.cfi_offset 4, -36
 2540              		.cfi_offset 5, -32
 2541              		.cfi_offset 6, -28
 2542              		.cfi_offset 7, -24
 2543              		.cfi_offset 8, -20
 2544              		.cfi_offset 9, -16
 2545              		.cfi_offset 10, -12
 2546              		.cfi_offset 11, -8
 2547              		.cfi_offset 14, -4
 2548              		.loc 1 975 0
 2549 0004 DDF828B0 		ldr	fp, [sp, #40]
 2550              		.loc 1 977 0
 2551 0008 1468     		ldr	r4, [r2]
 2552              	.LVL245:
 2553              		.loc 1 975 0
 2554 000a 0B9F     		ldr	r7, [sp, #44]
 2555 000c DDF83080 		ldr	r8, [sp, #48]
 2556              	.LVL246:
ARM GAS  C:\Users\jo\AppData\Local\Temp\cc8AA3HA.s 			page 46


 2557 0010 9246     		mov	r10, r2
 2558              		.loc 1 979 0
 2559 0012 79B1     		cbz	r1, .L145
 2560 0014 8146     		mov	r9, r0
 2561 0016 1E46     		mov	r6, r3
 2562 0018 0D46     		mov	r5, r1
 2563              	.LVL247:
 2564              	.L147:
 2565              		.loc 1 981 0
 2566 001a 84B1     		cbz	r4, .L146
 2567              	.LVL248:
 2568              	.L148:
 2569              		.loc 1 989 0
 2570 001c 1BF80420 		ldrb	r2, [fp, r4]	@ zero_extendqisi2
 2571 0020 17F8013B 		ldrb	r3, [r7], #1	@ zero_extendqisi2
 2572              	.LVL249:
 2573              		.loc 1 991 0
 2574 0024 0134     		adds	r4, r4, #1
 2575              	.LVL250:
 2576              		.loc 1 989 0
 2577 0026 5340     		eors	r3, r3, r2
 2578              		.loc 1 979 0
 2579 0028 013D     		subs	r5, r5, #1
 2580              	.LVL251:
 2581              		.loc 1 991 0
 2582 002a 04F00F04 		and	r4, r4, #15
 2583              	.LVL252:
 2584              		.loc 1 989 0
 2585 002e 08F8013B 		strb	r3, [r8], #1
 2586              	.LVL253:
 2587              		.loc 1 979 0
 2588 0032 F2D1     		bne	.L147
 2589              	.LVL254:
 2590              	.L145:
 2591              		.loc 1 994 0
 2592 0034 CAF80040 		str	r4, [r10]
 2593              		.loc 1 997 0
 2594 0038 0020     		movs	r0, #0
 2595 003a BDE8F88F 		pop	{r3, r4, r5, r6, r7, r8, r9, r10, fp, pc}
 2596              	.LVL255:
 2597              	.L146:
 2598              		.loc 1 982 0
 2599 003e 3246     		mov	r2, r6
 2600 0040 4846     		mov	r0, r9
 2601 0042 0121     		movs	r1, #1
 2602 0044 5B46     		mov	r3, fp
 2603 0046 FFF7FEFF 		bl	aes_crypt_ecb
 2604              	.LVL256:
 2605 004a 06F11002 		add	r2, r6, #16
 2606              	.LVL257:
 2607              	.L149:
 2608              		.loc 1 985 0
 2609 004e 12F8013D 		ldrb	r3, [r2, #-1]!	@ zero_extendqisi2
 2610              	.LVL258:
 2611 0052 0133     		adds	r3, r3, #1
 2612 0054 DBB2     		uxtb	r3, r3
 2613 0056 1370     		strb	r3, [r2]
ARM GAS  C:\Users\jo\AppData\Local\Temp\cc8AA3HA.s 			page 47


 2614 0058 002B     		cmp	r3, #0
 2615 005a DFD1     		bne	.L148
 2616              		.loc 1 984 0 discriminator 2
 2617 005c B242     		cmp	r2, r6
 2618 005e F6D1     		bne	.L149
 2619 0060 DCE7     		b	.L148
 2620              		.cfi_endproc
 2621              	.LFE10:
 2622              		.size	aes_crypt_ctr, .-aes_crypt_ctr
 2623 0062 00BFAFF3 		.section	.text.aes_self_test,"ax",%progbits
 2623      0080AFF3 
 2623      0080AFF3 
 2623      0080
 2624              		.align	2
 2625              		.p2align 4,,15
 2626              		.global	aes_self_test
 2627              		.thumb
 2628              		.thumb_func
 2629              		.type	aes_self_test, %function
 2630              	aes_self_test:
 2631              	.LFB11:
 2632              		.loc 1 1183 0
 2633              		.cfi_startproc
 2634              		@ args = 0, pretend = 0, frame = 456
 2635              		@ frame_needed = 0, uses_anonymous_args = 0
 2636              	.LVL259:
 2637 0000 2DE9F04F 		push	{r4, r5, r6, r7, r8, r9, r10, fp, lr}
 2638              		.cfi_def_cfa_offset 36
 2639              		.cfi_offset 4, -36
 2640              		.cfi_offset 5, -32
 2641              		.cfi_offset 6, -28
 2642              		.cfi_offset 7, -24
 2643              		.cfi_offset 8, -20
 2644              		.cfi_offset 9, -16
 2645              		.cfi_offset 10, -12
 2646              		.cfi_offset 11, -8
 2647              		.cfi_offset 14, -4
 2648              		.loc 1 1201 0
 2649 0004 0026     		movs	r6, #0
 2650              		.loc 1 1183 0
 2651 0006 F7B0     		sub	sp, sp, #476
 2652              		.cfi_def_cfa_offset 512
 2653              		.loc 1 1183 0
 2654 0008 8346     		mov	fp, r0
 2655              	.LBB28:
 2656              	.LBB29:
 2657              		.loc 1 470 0
 2658 000a 3146     		mov	r1, r6
 2659 000c 30A8     		add	r0, sp, #192
 2660              	.LVL260:
 2661 000e 4FF48C72 		mov	r2, #280
 2662              	.LBE29:
 2663              	.LBE28:
 2664              		.loc 1 1201 0
 2665 0012 1896     		str	r6, [sp, #96]
 2666 0014 1996     		str	r6, [sp, #100]
 2667 0016 1A96     		str	r6, [sp, #104]
ARM GAS  C:\Users\jo\AppData\Local\Temp\cc8AA3HA.s 			page 48


 2668 0018 1B96     		str	r6, [sp, #108]
 2669 001a 1C96     		str	r6, [sp, #112]
 2670 001c 1D96     		str	r6, [sp, #116]
 2671 001e 1E96     		str	r6, [sp, #120]
 2672 0020 1F96     		str	r6, [sp, #124]
 2673              	.LVL261:
 2674              	.LBB31:
 2675              	.LBB30:
 2676              		.loc 1 470 0
 2677 0022 FFF7FEFF 		bl	memset
 2678              	.LVL262:
 2679              	.LBE30:
 2680              	.LBE31:
 2681              		.loc 1 1213 0
 2682 0026 DFF82893 		ldr	r9, .L251+8
 2683 002a DFF82883 		ldr	r8, .L251+12
 2684 002e 20AC     		add	r4, sp, #128
 2685              	.LVL263:
 2686              	.L167:
 2687              		.loc 1 1209 0
 2688 0030 7710     		asrs	r7, r6, #1
 2689              	.LVL264:
 2690              		.loc 1 1213 0
 2691 0032 BD1C     		adds	r5, r7, #2
 2692              		.loc 1 1210 0
 2693 0034 06F0010A 		and	r10, r6, #1
 2694              	.LVL265:
 2695              		.loc 1 1213 0
 2696 0038 AD01     		lsls	r5, r5, #6
 2697              		.loc 1 1212 0
 2698 003a BBF1000F 		cmp	fp, #0
 2699 003e 08D0     		beq	.L158
 2700              		.loc 1 1213 0
 2701 0040 2946     		mov	r1, r5
 2702 0042 C148     		ldr	r0, .L251
 2703 0044 BAF1000F 		cmp	r10, #0
 2704 0048 0CBF     		ite	eq
 2705 004a 4A46     		moveq	r2, r9
 2706 004c 4246     		movne	r2, r8
 2707 004e FFF7FEFF 		bl	printf
 2708              	.LVL266:
 2709              	.L158:
 2710              		.loc 1 1216 0
 2711 0052 0023     		movs	r3, #0
 2712 0054 2360     		str	r3, [r4]
 2713              		.loc 1 1220 0
 2714 0056 2A46     		mov	r2, r5
 2715              		.loc 1 1216 0
 2716 0058 2193     		str	r3, [sp, #132]
 2717 005a 2293     		str	r3, [sp, #136]
 2718 005c 2393     		str	r3, [sp, #140]
 2719              		.loc 1 1220 0
 2720 005e 30A8     		add	r0, sp, #192
 2721              	.LVL267:
 2722 0060 18A9     		add	r1, sp, #96
 2723              		.loc 1 1218 0
 2724 0062 BAF1000F 		cmp	r10, #0
ARM GAS  C:\Users\jo\AppData\Local\Temp\cc8AA3HA.s 			page 49


 2725 0066 40F06081 		bne	.L160
 2726              		.loc 1 1220 0
 2727 006a FFF7FEFF 		bl	aes_setkey_dec
 2728              	.LVL268:
 2729 006e 42F21075 		movw	r5, #10000
 2730              	.LVL269:
 2731              	.L161:
 2732              		.loc 1 1223 0 discriminator 3
 2733 0072 30A8     		add	r0, sp, #192
 2734              	.LVL270:
 2735 0074 0021     		movs	r1, #0
 2736 0076 2246     		mov	r2, r4
 2737 0078 2346     		mov	r3, r4
 2738 007a FFF7FEFF 		bl	aes_crypt_ecb
 2739              	.LVL271:
 2740              		.loc 1 1222 0 discriminator 3
 2741 007e 013D     		subs	r5, r5, #1
 2742              	.LVL272:
 2743 0080 F7D1     		bne	.L161
 2744              		.loc 1 1225 0
 2745 0082 B249     		ldr	r1, .L251+4
 2746              	.LVL273:
 2747              	.L241:
 2748 0084 2046     		mov	r0, r4
 2749 0086 01EB0711 		add	r1, r1, r7, lsl #4
 2750 008a 1022     		movs	r2, #16
 2751 008c FFF7FEFF 		bl	memcmp
 2752              	.LVL274:
 2753 0090 0028     		cmp	r0, #0
 2754 0092 40F03B81 		bne	.L165
 2755              		.loc 1 1251 0
 2756 0096 BBF1000F 		cmp	fp, #0
 2757 009a 40F0C481 		bne	.L242
 2758              	.L166:
 2759              		.loc 1 1207 0 discriminator 2
 2760 009e 0136     		adds	r6, r6, #1
 2761              	.LVL275:
 2762 00a0 062E     		cmp	r6, #6
 2763 00a2 C5D1     		bne	.L167
 2764              		.loc 1 1255 0
 2765 00a4 BBF1000F 		cmp	fp, #0
 2766 00a8 40F0C981 		bne	.L243
 2767              	.L168:
 2768              	.LVL276:
 2769              		.loc 1 1236 0 discriminator 1
 2770 00ac 4FF00008 		mov	r8, #0
 2771 00b0 08AF     		add	r7, sp, #32
 2772              	.LVL277:
 2773 00b2 0CAD     		add	r5, sp, #48
 2774              	.LVL278:
 2775              	.L177:
 2776              		.loc 1 1264 0
 2777 00b4 4FEA680A 		asr	r10, r8, #1
 2778              	.LVL279:
 2779              		.loc 1 1268 0
 2780 00b8 0AF10206 		add	r6, r10, #2
 2781              		.loc 1 1265 0
ARM GAS  C:\Users\jo\AppData\Local\Temp\cc8AA3HA.s 			page 50


 2782 00bc 08F00109 		and	r9, r8, #1
 2783              	.LVL280:
 2784              		.loc 1 1268 0
 2785 00c0 B601     		lsls	r6, r6, #6
 2786              		.loc 1 1267 0
 2787 00c2 BBF1000F 		cmp	fp, #0
 2788 00c6 09D0     		beq	.L170
 2789              		.loc 1 1268 0
 2790 00c8 A14A     		ldr	r2, .L251+8
 2791 00ca A24B     		ldr	r3, .L251+12
 2792 00cc A248     		ldr	r0, .L251+16
 2793 00ce 3146     		mov	r1, r6
 2794 00d0 B9F1000F 		cmp	r9, #0
 2795 00d4 18BF     		it	ne
 2796 00d6 1A46     		movne	r2, r3
 2797 00d8 FFF7FEFF 		bl	printf
 2798              	.LVL281:
 2799              	.L170:
 2800              		.loc 1 1271 0
 2801 00dc 0023     		movs	r3, #0
 2802 00de 3B60     		str	r3, [r7]
 2803              		.loc 1 1272 0
 2804 00e0 2B60     		str	r3, [r5]
 2805              		.loc 1 1273 0
 2806 00e2 2360     		str	r3, [r4]
 2807              		.loc 1 1271 0
 2808 00e4 0993     		str	r3, [sp, #36]
 2809 00e6 0A93     		str	r3, [sp, #40]
 2810 00e8 0B93     		str	r3, [sp, #44]
 2811              		.loc 1 1272 0
 2812 00ea 0D93     		str	r3, [sp, #52]
 2813 00ec 0E93     		str	r3, [sp, #56]
 2814 00ee 0F93     		str	r3, [sp, #60]
 2815              		.loc 1 1273 0
 2816 00f0 2193     		str	r3, [sp, #132]
 2817 00f2 2293     		str	r3, [sp, #136]
 2818 00f4 2393     		str	r3, [sp, #140]
 2819              		.loc 1 1277 0
 2820 00f6 3246     		mov	r2, r6
 2821 00f8 30A8     		add	r0, sp, #192
 2822              	.LVL282:
 2823 00fa 18A9     		add	r1, sp, #96
 2824              		.loc 1 1275 0
 2825 00fc B9F1000F 		cmp	r9, #0
 2826 0100 40F0DE80 		bne	.L172
 2827              		.loc 1 1277 0
 2828 0104 FFF7FEFF 		bl	aes_setkey_dec
 2829              	.LVL283:
 2830 0108 42F21076 		movw	r6, #10000
 2831              	.LVL284:
 2832              	.L173:
 2833              		.loc 1 1280 0 discriminator 3
 2834 010c 0094     		str	r4, [sp]
 2835 010e 0194     		str	r4, [sp, #4]
 2836 0110 30A8     		add	r0, sp, #192
 2837              	.LVL285:
 2838 0112 0021     		movs	r1, #0
ARM GAS  C:\Users\jo\AppData\Local\Temp\cc8AA3HA.s 			page 51


 2839 0114 1022     		movs	r2, #16
 2840 0116 3B46     		mov	r3, r7
 2841 0118 FFF7FEFF 		bl	aes_crypt_cbc
 2842              	.LVL286:
 2843              		.loc 1 1279 0 discriminator 3
 2844 011c 013E     		subs	r6, r6, #1
 2845              	.LVL287:
 2846 011e F5D1     		bne	.L173
 2847              		.loc 1 1282 0
 2848 0120 8E49     		ldr	r1, .L251+20
 2849 0122 2046     		mov	r0, r4
 2850 0124 01EB0A11 		add	r1, r1, r10, lsl #4
 2851 0128 1022     		movs	r2, #16
 2852 012a FFF7FEFF 		bl	memcmp
 2853              	.LVL288:
 2854 012e 0028     		cmp	r0, #0
 2855 0130 40F0EC80 		bne	.L165
 2856              	.LVL289:
 2857              	.L174:
 2858              		.loc 1 1316 0
 2859 0134 BBF1000F 		cmp	fp, #0
 2860 0138 40F07981 		bne	.L244
 2861              	.L176:
 2862              		.loc 1 1262 0 discriminator 2
 2863 013c 08F10108 		add	r8, r8, #1
 2864              	.LVL290:
 2865 0140 B8F1060F 		cmp	r8, #6
 2866 0144 B6D1     		bne	.L177
 2867              		.loc 1 1320 0
 2868 0146 BBF1000F 		cmp	fp, #0
 2869 014a 40F07C81 		bne	.L245
 2870              	.L178:
 2871              	.LVL291:
 2872              		.loc 1 1293 0 discriminator 1
 2873 014e 4FF00008 		mov	r8, #0
 2874              	.LVL292:
 2875              	.L185:
 2876              		.loc 1 1330 0
 2877 0152 4FEA6809 		asr	r9, r8, #1
 2878              	.LVL293:
 2879              		.loc 1 1334 0
 2880 0156 09F10205 		add	r5, r9, #2
 2881 015a 7D4A     		ldr	r2, .L251+8
 2882 015c 7D4B     		ldr	r3, .L251+12
 2883 015e 8048     		ldr	r0, .L251+24
 2884 0160 AE01     		lsls	r6, r5, #6
 2885              		.loc 1 1331 0
 2886 0162 08F0010A 		and	r10, r8, #1
 2887              	.LVL294:
 2888              		.loc 1 1334 0
 2889 0166 3146     		mov	r1, r6
 2890 0168 BAF1000F 		cmp	r10, #0
 2891 016c 18BF     		it	ne
 2892 016e 1A46     		movne	r2, r3
 2893              		.loc 1 1333 0
 2894 0170 BBF1000F 		cmp	fp, #0
 2895 0174 01D0     		beq	.L180
ARM GAS  C:\Users\jo\AppData\Local\Temp\cc8AA3HA.s 			page 52


 2896              		.loc 1 1334 0
 2897 0176 FFF7FEFF 		bl	printf
 2898              	.LVL295:
 2899              	.L180:
 2900              		.loc 1 1337 0
 2901 017a 7A4B     		ldr	r3, .L251+28
 2902 017c 0FCB     		ldmia	r3, {r0, r1, r2, r3}
 2903 017e 87E80F00 		stmia	r7, {r0, r1, r2, r3}
 2904              		.loc 1 1338 0
 2905 0182 794B     		ldr	r3, .L251+32
 2906 0184 EA00     		lsls	r2, r5, #3
 2907 0186 03EB4911 		add	r1, r3, r9, lsl #5
 2908 018a 18A8     		add	r0, sp, #96
 2909 018c FFF7FEFF 		bl	memcpy
 2910              	.LVL296:
 2911              		.loc 1 1340 0
 2912 0190 0023     		movs	r3, #0
 2913              		.loc 1 1341 0
 2914 0192 3246     		mov	r2, r6
 2915 0194 30A8     		add	r0, sp, #192
 2916              	.LVL297:
 2917 0196 18A9     		add	r1, sp, #96
 2918              		.loc 1 1340 0
 2919 0198 0793     		str	r3, [sp, #28]
 2920              		.loc 1 1341 0
 2921 019a FFF7FEFF 		bl	aes_setkey_enc
 2922              	.LVL298:
 2923              		.loc 1 1345 0
 2924 019e 734B     		ldr	r3, .L251+36
 2925              		.loc 1 1359 0
 2926 01a0 734E     		ldr	r6, .L251+40
 2927              		.loc 1 1328 0
 2928 01a2 08F10108 		add	r8, r8, #1
 2929              	.LVL299:
 2930              		.loc 1 1345 0
 2931 01a6 03EB891C 		add	ip, r3, r9, lsl #6
 2932 01aa A646     		mov	lr, r4
 2933              		.loc 1 1359 0
 2934 01ac 2546     		mov	r5, r4
 2935              		.loc 1 1343 0
 2936 01ae BAF1000F 		cmp	r10, #0
 2937 01b2 40F0EF80 		bne	.L182
 2938              		.loc 1 1345 0
 2939 01b6 BCE80F00 		ldmia	ip!, {r0, r1, r2, r3}
 2940 01ba AEE80F00 		stmia	lr!, {r0, r1, r2, r3}
 2941 01be BCE80F00 		ldmia	ip!, {r0, r1, r2, r3}
 2942 01c2 AEE80F00 		stmia	lr!, {r0, r1, r2, r3}
 2943 01c6 BCE80F00 		ldmia	ip!, {r0, r1, r2, r3}
 2944 01ca AEE80F00 		stmia	lr!, {r0, r1, r2, r3}
 2945 01ce 9CE80F00 		ldmia	ip, {r0, r1, r2, r3}
 2946              		.loc 1 1346 0
 2947 01d2 0097     		str	r7, [sp]
 2948              		.loc 1 1345 0
 2949 01d4 8EE80F00 		stmia	lr, {r0, r1, r2, r3}
 2950              		.loc 1 1346 0
 2951 01d8 0194     		str	r4, [sp, #4]
 2952 01da 5146     		mov	r1, r10
ARM GAS  C:\Users\jo\AppData\Local\Temp\cc8AA3HA.s 			page 53


 2953 01dc 4022     		movs	r2, #64
 2954 01de 0294     		str	r4, [sp, #8]
 2955 01e0 30A8     		add	r0, sp, #192
 2956              	.LVL300:
 2957 01e2 07AB     		add	r3, sp, #28
 2958 01e4 FFF7FEFF 		bl	aes_crypt_cfb128
 2959              	.LVL301:
 2960              		.loc 1 1348 0
 2961 01e8 2046     		mov	r0, r4
 2962 01ea 3146     		mov	r1, r6
 2963 01ec 4022     		movs	r2, #64
 2964 01ee FFF7FEFF 		bl	memcmp
 2965              	.LVL302:
 2966 01f2 0028     		cmp	r0, #0
 2967 01f4 40F08A80 		bne	.L165
 2968              		.loc 1 1372 0
 2969 01f8 BBF1000F 		cmp	fp, #0
 2970 01fc 40F0EA80 		bne	.L246
 2971              	.L184:
 2972              	.LVL303:
 2973              		.loc 1 1328 0 discriminator 2
 2974 0200 B8F1060F 		cmp	r8, #6
 2975 0204 A5D1     		bne	.L185
 2976              		.loc 1 1376 0
 2977 0206 BBF1000F 		cmp	fp, #0
 2978 020a 40F01481 		bne	.L247
 2979              	.L186:
 2980              	.LVL304:
 2981 020e 14AB     		add	r3, sp, #80
 2982              		.loc 1 1334 0 discriminator 1
 2983 0210 4FF00008 		mov	r8, #0
 2984 0214 0593     		str	r3, [sp, #20]
 2985              	.LVL305:
 2986              	.L192:
 2987              		.loc 1 1390 0
 2988 0216 4E49     		ldr	r1, .L251+8
 2989 0218 4E4B     		ldr	r3, .L251+12
 2990 021a 5648     		ldr	r0, .L251+44
 2991              		.loc 1 1387 0
 2992 021c 08F00106 		and	r6, r8, #1
 2993              		.loc 1 1386 0
 2994 0220 4FEA680A 		asr	r10, r8, #1
 2995              	.LVL306:
 2996              		.loc 1 1390 0
 2997 0224 002E     		cmp	r6, #0
 2998 0226 18BF     		it	ne
 2999 0228 1946     		movne	r1, r3
 3000              		.loc 1 1384 0
 3001 022a 08F10108 		add	r8, r8, #1
 3002              	.LVL307:
 3003              		.loc 1 1389 0
 3004 022e BBF1000F 		cmp	fp, #0
 3005 0232 01D0     		beq	.L187
 3006              		.loc 1 1390 0
 3007 0234 FFF7FEFF 		bl	printf
 3008              	.LVL308:
 3009              	.L187:
ARM GAS  C:\Users\jo\AppData\Local\Temp\cc8AA3HA.s 			page 54


 3010              		.loc 1 1393 0
 3011 0238 4F4B     		ldr	r3, .L251+48
 3012              		.loc 1 1394 0
 3013 023a 504F     		ldr	r7, .L251+52
 3014              		.loc 1 1393 0
 3015 023c 4FEA0A15 		lsl	r5, r10, #4
 3016 0240 2B44     		add	r3, r3, r5
 3017 0242 0FCB     		ldmia	r3, {r0, r1, r2, r3}
 3018              		.loc 1 1394 0
 3019 0244 3D44     		add	r5, r5, r7
 3020              		.loc 1 1393 0
 3021 0246 10AF     		add	r7, sp, #64
 3022 0248 87E80F00 		stmia	r7, {r0, r1, r2, r3}
 3023              		.loc 1 1394 0
 3024 024c 95E80F00 		ldmia	r5, {r0, r1, r2, r3}
 3025 0250 18AF     		add	r7, sp, #96
 3026 0252 87E80F00 		stmia	r7, {r0, r1, r2, r3}
 3027              		.loc 1 1396 0
 3028 0256 0025     		movs	r5, #0
 3029              		.loc 1 1397 0
 3030 0258 3946     		mov	r1, r7
 3031 025a 30A8     		add	r0, sp, #192
 3032              	.LVL309:
 3033 025c 8022     		movs	r2, #128
 3034              		.loc 1 1396 0
 3035 025e 0795     		str	r5, [sp, #28]
 3036              		.loc 1 1397 0
 3037 0260 FFF7FEFF 		bl	aes_setkey_enc
 3038              	.LVL310:
 3039              		.loc 1 1402 0
 3040 0264 0AEB4A05 		add	r5, r10, r10, lsl #1
 3041 0268 454B     		ldr	r3, .L251+56
 3042 026a 2D01     		lsls	r5, r5, #4
 3043 026c 5919     		adds	r1, r3, r5
 3044              		.loc 1 1419 0
 3045 026e A946     		mov	r9, r5
 3046              		.loc 1 1402 0
 3047 0270 2046     		mov	r0, r4
 3048 0272 444B     		ldr	r3, .L251+60
 3049              		.loc 1 1399 0
 3050 0274 002E     		cmp	r6, #0
 3051 0276 40F0B180 		bne	.L189
 3052              		.loc 1 1402 0
 3053 027a 53F82A60 		ldr	r6, [r3, r10, lsl #2]
 3054              	.LVL311:
 3055 027e 3246     		mov	r2, r6
 3056 0280 FFF7FEFF 		bl	memcpy
 3057              	.LVL312:
 3058              		.loc 1 1404 0
 3059 0284 059B     		ldr	r3, [sp, #20]
 3060 0286 0294     		str	r4, [sp, #8]
 3061 0288 8DE81800 		stmia	sp, {r3, r4}
 3062 028c 3146     		mov	r1, r6
 3063 028e 07AA     		add	r2, sp, #28
 3064 0290 10AB     		add	r3, sp, #64
 3065 0292 30A8     		add	r0, sp, #192
 3066              	.LVL313:
ARM GAS  C:\Users\jo\AppData\Local\Temp\cc8AA3HA.s 			page 55


 3067 0294 FFF7FEFF 		bl	aes_crypt_ctr
 3068              	.LVL314:
 3069              		.loc 1 1407 0
 3070 0298 3B4B     		ldr	r3, .L251+64
 3071 029a 2046     		mov	r0, r4
 3072 029c 3246     		mov	r2, r6
 3073 029e 5919     		adds	r1, r3, r5
 3074 02a0 FFF7FEFF 		bl	memcmp
 3075              	.LVL315:
 3076 02a4 90BB     		cbnz	r0, .L165
 3077              		.loc 1 1434 0
 3078 02a6 BBF1000F 		cmp	fp, #0
 3079 02aa 40F0B880 		bne	.L248
 3080              	.L191:
 3081              	.LVL316:
 3082              		.loc 1 1384 0 discriminator 2
 3083 02ae B8F1060F 		cmp	r8, #6
 3084 02b2 B0D1     		bne	.L192
 3085              		.loc 1 1438 0
 3086 02b4 BBF1000F 		cmp	fp, #0
 3087 02b8 40F0CE80 		bne	.L249
 3088              		.loc 1 1442 0
 3089 02bc 5846     		mov	r0, fp
 3090 02be 2AE0     		b	.L163
 3091              	.LVL317:
 3092              	.L172:
 3093              		.loc 1 1293 0
 3094 02c0 FFF7FEFF 		bl	aes_setkey_enc
 3095              	.LVL318:
 3096 02c4 42F21079 		movw	r9, #10000
 3097              	.LVL319:
 3098 02c8 14AE     		add	r6, sp, #80
 3099              	.LVL320:
 3100              	.L175:
 3101              	.LBB32:
 3102              		.loc 1 1299 0 discriminator 3
 3103 02ca 0121     		movs	r1, #1
 3104 02cc 1022     		movs	r2, #16
 3105 02ce 3B46     		mov	r3, r7
 3106 02d0 0094     		str	r4, [sp]
 3107 02d2 0194     		str	r4, [sp, #4]
 3108 02d4 30A8     		add	r0, sp, #192
 3109              	.LVL321:
 3110 02d6 FFF7FEFF 		bl	aes_crypt_cbc
 3111              	.LVL322:
 3112              		.loc 1 1301 0 discriminator 3
 3113 02da 95E80F00 		ldmia	r5, {r0, r1, r2, r3}
 3114 02de 86E80F00 		stmia	r6, {r0, r1, r2, r3}
 3115              		.loc 1 1302 0 discriminator 3
 3116 02e2 94E80F00 		ldmia	r4, {r0, r1, r2, r3}
 3117 02e6 85E80F00 		stmia	r5, {r0, r1, r2, r3}
 3118              		.loc 1 1303 0 discriminator 3
 3119 02ea 96E80F00 		ldmia	r6, {r0, r1, r2, r3}
 3120              	.LBE32:
 3121              		.loc 1 1295 0 discriminator 3
 3122 02ee B9F10109 		subs	r9, r9, #1
 3123              	.LVL323:
ARM GAS  C:\Users\jo\AppData\Local\Temp\cc8AA3HA.s 			page 56


 3124              	.LBB33:
 3125              		.loc 1 1303 0 discriminator 3
 3126 02f2 84E80F00 		stmia	r4, {r0, r1, r2, r3}
 3127              	.LVL324:
 3128              	.LBE33:
 3129              		.loc 1 1295 0 discriminator 3
 3130 02f6 E8D1     		bne	.L175
 3131              		.loc 1 1306 0
 3132 02f8 2449     		ldr	r1, .L251+68
 3133 02fa 2846     		mov	r0, r5
 3134 02fc 01EB0A11 		add	r1, r1, r10, lsl #4
 3135 0300 1022     		movs	r2, #16
 3136 0302 FFF7FEFF 		bl	memcmp
 3137              	.LVL325:
 3138 0306 0028     		cmp	r0, #0
 3139 0308 3FF414AF 		beq	.L174
 3140              	.LVL326:
 3141              	.L165:
 3142              		.loc 1 1230 0
 3143 030c 0120     		movs	r0, #1
 3144              		.loc 1 1227 0
 3145 030e BBF1000F 		cmp	fp, #0
 3146 0312 40F09C80 		bne	.L250
 3147              	.L163:
 3148              	.LVL327:
 3149 0316 30AB     		add	r3, sp, #192
 3150              	.LVL328:
 3151              	.LBB34:
 3152              	.LBB35:
 3153              	.LBB36:
 3154              		.loc 1 60 0
 3155 0318 0022     		movs	r2, #0
 3156              	.LVL329:
 3157              	.L193:
 3158 031a 1A70     		strb	r2, [r3]
 3159              	.LVL330:
 3160 031c 76A9     		add	r1, sp, #472
 3161 031e 0133     		adds	r3, r3, #1
 3162              	.LVL331:
 3163 0320 8B42     		cmp	r3, r1
 3164 0322 FAD1     		bne	.L193
 3165              	.LBE36:
 3166              	.LBE35:
 3167              	.LBE34:
 3168              		.loc 1 1448 0
 3169 0324 77B0     		add	sp, sp, #476
 3170              		.cfi_remember_state
 3171              		.cfi_def_cfa_offset 36
 3172              		@ sp needed
 3173 0326 BDE8F08F 		pop	{r4, r5, r6, r7, r8, r9, r10, fp, pc}
 3174              	.LVL332:
 3175              	.L160:
 3176              		.cfi_restore_state
 3177              		.loc 1 1236 0
 3178 032a FFF7FEFF 		bl	aes_setkey_enc
 3179              	.LVL333:
 3180 032e 42F21075 		movw	r5, #10000
ARM GAS  C:\Users\jo\AppData\Local\Temp\cc8AA3HA.s 			page 57


 3181              	.LVL334:
 3182              	.L164:
 3183              		.loc 1 1239 0 discriminator 3
 3184 0332 30A8     		add	r0, sp, #192
 3185              	.LVL335:
 3186 0334 0121     		movs	r1, #1
 3187 0336 2246     		mov	r2, r4
 3188 0338 2346     		mov	r3, r4
 3189 033a FFF7FEFF 		bl	aes_crypt_ecb
 3190              	.LVL336:
 3191              		.loc 1 1238 0 discriminator 3
 3192 033e 013D     		subs	r5, r5, #1
 3193              	.LVL337:
 3194 0340 F7D1     		bne	.L164
 3195              		.loc 1 1241 0
 3196 0342 1349     		ldr	r1, .L251+72
 3197 0344 9EE6     		b	.L241
 3198              	.L252:
 3199 0346 00BF     		.align	2
 3200              	.L251:
 3201 0348 08000000 		.word	.LC2
 3202 034c 00000000 		.word	.LANCHOR12
 3203 0350 00000000 		.word	.LC0
 3204 0354 04000000 		.word	.LC1
 3205 0358 30000000 		.word	.LC5
 3206 035c 00000000 		.word	.LANCHOR14
 3207 0360 48000000 		.word	.LC6
 3208 0364 00000000 		.word	.LANCHOR16
 3209 0368 00000000 		.word	.LANCHOR17
 3210 036c 00000000 		.word	.LANCHOR18
 3211 0370 00000000 		.word	.LANCHOR19
 3212 0374 60000000 		.word	.LC7
 3213 0378 00000000 		.word	.LANCHOR20
 3214 037c 00000000 		.word	.LANCHOR21
 3215 0380 00000000 		.word	.LANCHOR23
 3216 0384 00000000 		.word	.LANCHOR22
 3217 0388 00000000 		.word	.LANCHOR24
 3218 038c 00000000 		.word	.LANCHOR15
 3219 0390 00000000 		.word	.LANCHOR13
 3220              	.LVL338:
 3221              	.L182:
 3222              		.loc 1 1359 0
 3223 0394 0FCE     		ldmia	r6!, {r0, r1, r2, r3}
 3224 0396 0FC5     		stmia	r5!, {r0, r1, r2, r3}
 3225 0398 0FCE     		ldmia	r6!, {r0, r1, r2, r3}
 3226 039a 0FC5     		stmia	r5!, {r0, r1, r2, r3}
 3227 039c 0FCE     		ldmia	r6!, {r0, r1, r2, r3}
 3228 039e 0FC5     		stmia	r5!, {r0, r1, r2, r3}
 3229 03a0 96E80F00 		ldmia	r6, {r0, r1, r2, r3}
 3230              		.loc 1 1360 0
 3231 03a4 0097     		str	r7, [sp]
 3232              		.loc 1 1359 0
 3233 03a6 85E80F00 		stmia	r5, {r0, r1, r2, r3}
 3234              		.loc 1 1360 0
 3235 03aa 0194     		str	r4, [sp, #4]
 3236 03ac 0121     		movs	r1, #1
 3237 03ae 4022     		movs	r2, #64
ARM GAS  C:\Users\jo\AppData\Local\Temp\cc8AA3HA.s 			page 58


 3238 03b0 07AB     		add	r3, sp, #28
 3239 03b2 30A8     		add	r0, sp, #192
 3240              	.LVL339:
 3241 03b4 0294     		str	r4, [sp, #8]
 3242 03b6 FFF7FEFF 		bl	aes_crypt_cfb128
 3243              	.LVL340:
 3244              		.loc 1 1362 0
 3245 03ba 2A4B     		ldr	r3, .L253
 3246 03bc 2046     		mov	r0, r4
 3247 03be 03EB8911 		add	r1, r3, r9, lsl #6
 3248 03c2 4022     		movs	r2, #64
 3249 03c4 FFF7FEFF 		bl	memcmp
 3250              	.LVL341:
 3251 03c8 0028     		cmp	r0, #0
 3252 03ca 9FD1     		bne	.L165
 3253              		.loc 1 1372 0
 3254 03cc BBF1000F 		cmp	fp, #0
 3255 03d0 3FF416AF 		beq	.L184
 3256              	.L246:
 3257              		.loc 1 1373 0
 3258 03d4 2448     		ldr	r0, .L253+4
 3259 03d6 FFF7FEFF 		bl	puts
 3260              	.LVL342:
 3261 03da 11E7     		b	.L184
 3262              	.LVL343:
 3263              	.L189:
 3264              		.loc 1 1419 0
 3265 03dc 53F82A50 		ldr	r5, [r3, r10, lsl #2]
 3266 03e0 224B     		ldr	r3, .L253+8
 3267 03e2 2A46     		mov	r2, r5
 3268 03e4 03EB0901 		add	r1, r3, r9
 3269 03e8 2046     		mov	r0, r4
 3270 03ea FFF7FEFF 		bl	memcpy
 3271              	.LVL344:
 3272              		.loc 1 1421 0
 3273 03ee 059B     		ldr	r3, [sp, #20]
 3274 03f0 0294     		str	r4, [sp, #8]
 3275 03f2 8DE81800 		stmia	sp, {r3, r4}
 3276 03f6 2946     		mov	r1, r5
 3277 03f8 07AA     		add	r2, sp, #28
 3278 03fa 10AB     		add	r3, sp, #64
 3279 03fc 30A8     		add	r0, sp, #192
 3280              	.LVL345:
 3281 03fe FFF7FEFF 		bl	aes_crypt_ctr
 3282              	.LVL346:
 3283              		.loc 1 1424 0
 3284 0402 1B4B     		ldr	r3, .L253+12
 3285 0404 2046     		mov	r0, r4
 3286 0406 2A46     		mov	r2, r5
 3287 0408 03EB0901 		add	r1, r3, r9
 3288 040c FFF7FEFF 		bl	memcmp
 3289              	.LVL347:
 3290 0410 0028     		cmp	r0, #0
 3291 0412 7FF47BAF 		bne	.L165
 3292              		.loc 1 1434 0
 3293 0416 BBF1000F 		cmp	fp, #0
 3294 041a 3FF448AF 		beq	.L191
ARM GAS  C:\Users\jo\AppData\Local\Temp\cc8AA3HA.s 			page 59


 3295              	.LVL348:
 3296              	.L248:
 3297              		.loc 1 1435 0
 3298 041e 1248     		ldr	r0, .L253+4
 3299 0420 FFF7FEFF 		bl	puts
 3300              	.LVL349:
 3301 0424 43E7     		b	.L191
 3302              	.LVL350:
 3303              	.L242:
 3304              		.loc 1 1252 0
 3305 0426 1048     		ldr	r0, .L253+4
 3306 0428 FFF7FEFF 		bl	puts
 3307              	.LVL351:
 3308 042c 37E6     		b	.L166
 3309              	.LVL352:
 3310              	.L244:
 3311              		.loc 1 1317 0
 3312 042e 0E48     		ldr	r0, .L253+4
 3313 0430 FFF7FEFF 		bl	puts
 3314              	.LVL353:
 3315 0434 82E6     		b	.L176
 3316              	.LVL354:
 3317              	.L247:
 3318              		.loc 1 1377 0
 3319 0436 0A20     		movs	r0, #10
 3320 0438 FFF7FEFF 		bl	putchar
 3321              	.LVL355:
 3322 043c E7E6     		b	.L186
 3323              	.LVL356:
 3324              	.L243:
 3325              		.loc 1 1256 0
 3326 043e 0A20     		movs	r0, #10
 3327 0440 FFF7FEFF 		bl	putchar
 3328              	.LVL357:
 3329 0444 32E6     		b	.L168
 3330              	.LVL358:
 3331              	.L245:
 3332              		.loc 1 1321 0
 3333 0446 0A20     		movs	r0, #10
 3334 0448 FFF7FEFF 		bl	putchar
 3335              	.LVL359:
 3336 044c 7FE6     		b	.L178
 3337              	.LVL360:
 3338              	.L250:
 3339              		.loc 1 1228 0
 3340 044e 0948     		ldr	r0, .L253+16
 3341 0450 FFF7FEFF 		bl	puts
 3342              	.LVL361:
 3343              		.loc 1 1230 0
 3344 0454 0120     		movs	r0, #1
 3345 0456 5EE7     		b	.L163
 3346              	.LVL362:
 3347              	.L249:
 3348              		.loc 1 1439 0
 3349 0458 0A20     		movs	r0, #10
 3350 045a FFF7FEFF 		bl	putchar
 3351              	.LVL363:
ARM GAS  C:\Users\jo\AppData\Local\Temp\cc8AA3HA.s 			page 60


 3352              		.loc 1 1442 0
 3353 045e 0020     		movs	r0, #0
 3354 0460 59E7     		b	.L163
 3355              	.L254:
 3356 0462 00BF     		.align	2
 3357              	.L253:
 3358 0464 00000000 		.word	.LANCHOR18
 3359 0468 28000000 		.word	.LC4
 3360 046c 00000000 		.word	.LANCHOR24
 3361 0470 00000000 		.word	.LANCHOR23
 3362 0474 20000000 		.word	.LC3
 3363              		.cfi_endproc
 3364              	.LFE11:
 3365              		.size	aes_self_test, .-aes_self_test
 3366 0478 AFF30080 		.section	.bss.FT0,"aw",%nobits
 3366      AFF30080 
 3367              		.align	2
 3368              		.set	.LANCHOR7,. + 0
 3369              		.type	FT0, %object
 3370              		.size	FT0, 1024
 3371              	FT0:
 3372 0000 00000000 		.space	1024
 3372      00000000 
 3372      00000000 
 3372      00000000 
 3372      00000000 
 3373              		.section	.bss.FT1,"aw",%nobits
 3374              		.align	2
 3375              		.set	.LANCHOR8,. + 0
 3376              		.type	FT1, %object
 3377              		.size	FT1, 1024
 3378              	FT1:
 3379 0000 00000000 		.space	1024
 3379      00000000 
 3379      00000000 
 3379      00000000 
 3379      00000000 
 3380              		.section	.bss.FT2,"aw",%nobits
 3381              		.align	2
 3382              		.set	.LANCHOR9,. + 0
 3383              		.type	FT2, %object
 3384              		.size	FT2, 1024
 3385              	FT2:
 3386 0000 00000000 		.space	1024
 3386      00000000 
 3386      00000000 
 3386      00000000 
 3386      00000000 
 3387              		.section	.bss.FT3,"aw",%nobits
 3388              		.align	2
 3389              		.set	.LANCHOR10,. + 0
 3390              		.type	FT3, %object
 3391              		.size	FT3, 1024
 3392              	FT3:
 3393 0000 00000000 		.space	1024
 3393      00000000 
 3393      00000000 
ARM GAS  C:\Users\jo\AppData\Local\Temp\cc8AA3HA.s 			page 61


 3393      00000000 
 3393      00000000 
 3394              		.section	.bss.RT0,"aw",%nobits
 3395              		.align	2
 3396              		.set	.LANCHOR3,. + 0
 3397              		.type	RT0, %object
 3398              		.size	RT0, 1024
 3399              	RT0:
 3400 0000 00000000 		.space	1024
 3400      00000000 
 3400      00000000 
 3400      00000000 
 3400      00000000 
 3401              		.section	.bss.RT1,"aw",%nobits
 3402              		.align	2
 3403              		.set	.LANCHOR4,. + 0
 3404              		.type	RT1, %object
 3405              		.size	RT1, 1024
 3406              	RT1:
 3407 0000 00000000 		.space	1024
 3407      00000000 
 3407      00000000 
 3407      00000000 
 3407      00000000 
 3408              		.section	.rodata.aes_test_ecb_dec,"a",%progbits
 3409              		.align	2
 3410              		.set	.LANCHOR12,. + 0
 3411              		.type	aes_test_ecb_dec, %object
 3412              		.size	aes_test_ecb_dec, 48
 3413              	aes_test_ecb_dec:
 3414 0000 44       		.byte	68
 3415 0001 41       		.byte	65
 3416 0002 6A       		.byte	106
 3417 0003 C2       		.byte	-62
 3418 0004 D1       		.byte	-47
 3419 0005 F5       		.byte	-11
 3420 0006 3C       		.byte	60
 3421 0007 58       		.byte	88
 3422 0008 33       		.byte	51
 3423 0009 03       		.byte	3
 3424 000a 91       		.byte	-111
 3425 000b 7E       		.byte	126
 3426 000c 6B       		.byte	107
 3427 000d E9       		.byte	-23
 3428 000e EB       		.byte	-21
 3429 000f E0       		.byte	-32
 3430 0010 48       		.byte	72
 3431 0011 E3       		.byte	-29
 3432 0012 1E       		.byte	30
 3433 0013 9E       		.byte	-98
 3434 0014 25       		.byte	37
 3435 0015 67       		.byte	103
 3436 0016 18       		.byte	24
 3437 0017 F2       		.byte	-14
 3438 0018 92       		.byte	-110
 3439 0019 29       		.byte	41
 3440 001a 31       		.byte	49
ARM GAS  C:\Users\jo\AppData\Local\Temp\cc8AA3HA.s 			page 62


 3441 001b 9C       		.byte	-100
 3442 001c 19       		.byte	25
 3443 001d F1       		.byte	-15
 3444 001e 5B       		.byte	91
 3445 001f A4       		.byte	-92
 3446 0020 05       		.byte	5
 3447 0021 8C       		.byte	-116
 3448 0022 CF       		.byte	-49
 3449 0023 FD       		.byte	-3
 3450 0024 BB       		.byte	-69
 3451 0025 CB       		.byte	-53
 3452 0026 38       		.byte	56
 3453 0027 2D       		.byte	45
 3454 0028 1F       		.byte	31
 3455 0029 6F       		.byte	111
 3456 002a 56       		.byte	86
 3457 002b 58       		.byte	88
 3458 002c 5D       		.byte	93
 3459 002d 8A       		.byte	-118
 3460 002e 4A       		.byte	74
 3461 002f DE       		.byte	-34
 3462              		.section	.bss.RT3,"aw",%nobits
 3463              		.align	2
 3464              		.set	.LANCHOR6,. + 0
 3465              		.type	RT3, %object
 3466              		.size	RT3, 1024
 3467              	RT3:
 3468 0000 00000000 		.space	1024
 3468      00000000 
 3468      00000000 
 3468      00000000 
 3468      00000000 
 3469              		.section	.bss.RCON,"aw",%nobits
 3470              		.align	2
 3471              		.set	.LANCHOR0,. + 0
 3472              		.type	RCON, %object
 3473              		.size	RCON, 40
 3474              	RCON:
 3475 0000 00000000 		.space	40
 3475      00000000 
 3475      00000000 
 3475      00000000 
 3475      00000000 
 3476              		.section	.bss.aes_init_done,"aw",%nobits
 3477              		.align	2
 3478              		.set	.LANCHOR11,. + 0
 3479              		.type	aes_init_done, %object
 3480              		.size	aes_init_done, 4
 3481              	aes_init_done:
 3482 0000 00000000 		.space	4
 3483              		.section	.rodata.aes_test_cfb128_ct,"a",%progbits
 3484              		.align	2
 3485              		.set	.LANCHOR18,. + 0
 3486              		.type	aes_test_cfb128_ct, %object
 3487              		.size	aes_test_cfb128_ct, 192
 3488              	aes_test_cfb128_ct:
 3489 0000 3B       		.byte	59
ARM GAS  C:\Users\jo\AppData\Local\Temp\cc8AA3HA.s 			page 63


 3490 0001 3F       		.byte	63
 3491 0002 D9       		.byte	-39
 3492 0003 2E       		.byte	46
 3493 0004 B7       		.byte	-73
 3494 0005 2D       		.byte	45
 3495 0006 AD       		.byte	-83
 3496 0007 20       		.byte	32
 3497 0008 33       		.byte	51
 3498 0009 34       		.byte	52
 3499 000a 49       		.byte	73
 3500 000b F8       		.byte	-8
 3501 000c E8       		.byte	-24
 3502 000d 3C       		.byte	60
 3503 000e FB       		.byte	-5
 3504 000f 4A       		.byte	74
 3505 0010 C8       		.byte	-56
 3506 0011 A6       		.byte	-90
 3507 0012 45       		.byte	69
 3508 0013 37       		.byte	55
 3509 0014 A0       		.byte	-96
 3510 0015 B3       		.byte	-77
 3511 0016 A9       		.byte	-87
 3512 0017 3F       		.byte	63
 3513 0018 CD       		.byte	-51
 3514 0019 E3       		.byte	-29
 3515 001a CD       		.byte	-51
 3516 001b AD       		.byte	-83
 3517 001c 9F       		.byte	-97
 3518 001d 1C       		.byte	28
 3519 001e E5       		.byte	-27
 3520 001f 8B       		.byte	-117
 3521 0020 26       		.byte	38
 3522 0021 75       		.byte	117
 3523 0022 1F       		.byte	31
 3524 0023 67       		.byte	103
 3525 0024 A3       		.byte	-93
 3526 0025 CB       		.byte	-53
 3527 0026 B1       		.byte	-79
 3528 0027 40       		.byte	64
 3529 0028 B1       		.byte	-79
 3530 0029 80       		.byte	-128
 3531 002a 8C       		.byte	-116
 3532 002b F1       		.byte	-15
 3533 002c 87       		.byte	-121
 3534 002d A4       		.byte	-92
 3535 002e F4       		.byte	-12
 3536 002f DF       		.byte	-33
 3537 0030 C0       		.byte	-64
 3538 0031 4B       		.byte	75
 3539 0032 05       		.byte	5
 3540 0033 35       		.byte	53
 3541 0034 7C       		.byte	124
 3542 0035 5D       		.byte	93
 3543 0036 1C       		.byte	28
 3544 0037 0E       		.byte	14
 3545 0038 EA       		.byte	-22
 3546 0039 C4       		.byte	-60
ARM GAS  C:\Users\jo\AppData\Local\Temp\cc8AA3HA.s 			page 64


 3547 003a C6       		.byte	-58
 3548 003b 6F       		.byte	111
 3549 003c 9F       		.byte	-97
 3550 003d F7       		.byte	-9
 3551 003e F2       		.byte	-14
 3552 003f E6       		.byte	-26
 3553 0040 CD       		.byte	-51
 3554 0041 C8       		.byte	-56
 3555 0042 0D       		.byte	13
 3556 0043 6F       		.byte	111
 3557 0044 DD       		.byte	-35
 3558 0045 F1       		.byte	-15
 3559 0046 8C       		.byte	-116
 3560 0047 AB       		.byte	-85
 3561 0048 34       		.byte	52
 3562 0049 C2       		.byte	-62
 3563 004a 59       		.byte	89
 3564 004b 09       		.byte	9
 3565 004c C9       		.byte	-55
 3566 004d 9A       		.byte	-102
 3567 004e 41       		.byte	65
 3568 004f 74       		.byte	116
 3569 0050 67       		.byte	103
 3570 0051 CE       		.byte	-50
 3571 0052 7F       		.byte	127
 3572 0053 7F       		.byte	127
 3573 0054 81       		.byte	-127
 3574 0055 17       		.byte	23
 3575 0056 36       		.byte	54
 3576 0057 21       		.byte	33
 3577 0058 96       		.byte	-106
 3578 0059 1A       		.byte	26
 3579 005a 2B       		.byte	43
 3580 005b 70       		.byte	112
 3581 005c 17       		.byte	23
 3582 005d 1D       		.byte	29
 3583 005e 3D       		.byte	61
 3584 005f 7A       		.byte	122
 3585 0060 2E       		.byte	46
 3586 0061 1E       		.byte	30
 3587 0062 8A       		.byte	-118
 3588 0063 1D       		.byte	29
 3589 0064 D5       		.byte	-43
 3590 0065 9B       		.byte	-101
 3591 0066 88       		.byte	-120
 3592 0067 B1       		.byte	-79
 3593 0068 C8       		.byte	-56
 3594 0069 E6       		.byte	-26
 3595 006a 0F       		.byte	15
 3596 006b ED       		.byte	-19
 3597 006c 1E       		.byte	30
 3598 006d FA       		.byte	-6
 3599 006e C4       		.byte	-60
 3600 006f C9       		.byte	-55
 3601 0070 C0       		.byte	-64
 3602 0071 5F       		.byte	95
 3603 0072 9F       		.byte	-97
ARM GAS  C:\Users\jo\AppData\Local\Temp\cc8AA3HA.s 			page 65


 3604 0073 9C       		.byte	-100
 3605 0074 A9       		.byte	-87
 3606 0075 83       		.byte	-125
 3607 0076 4F       		.byte	79
 3608 0077 A0       		.byte	-96
 3609 0078 42       		.byte	66
 3610 0079 AE       		.byte	-82
 3611 007a 8F       		.byte	-113
 3612 007b BA       		.byte	-70
 3613 007c 58       		.byte	88
 3614 007d 4B       		.byte	75
 3615 007e 09       		.byte	9
 3616 007f FF       		.byte	-1
 3617 0080 DC       		.byte	-36
 3618 0081 7E       		.byte	126
 3619 0082 84       		.byte	-124
 3620 0083 BF       		.byte	-65
 3621 0084 DA       		.byte	-38
 3622 0085 79       		.byte	121
 3623 0086 16       		.byte	22
 3624 0087 4B       		.byte	75
 3625 0088 7E       		.byte	126
 3626 0089 CD       		.byte	-51
 3627 008a 84       		.byte	-124
 3628 008b 86       		.byte	-122
 3629 008c 98       		.byte	-104
 3630 008d 5D       		.byte	93
 3631 008e 38       		.byte	56
 3632 008f 60       		.byte	96
 3633 0090 39       		.byte	57
 3634 0091 FF       		.byte	-1
 3635 0092 ED       		.byte	-19
 3636 0093 14       		.byte	20
 3637 0094 3B       		.byte	59
 3638 0095 28       		.byte	40
 3639 0096 B1       		.byte	-79
 3640 0097 C8       		.byte	-56
 3641 0098 32       		.byte	50
 3642 0099 11       		.byte	17
 3643 009a 3C       		.byte	60
 3644 009b 63       		.byte	99
 3645 009c 31       		.byte	49
 3646 009d E5       		.byte	-27
 3647 009e 40       		.byte	64
 3648 009f 7B       		.byte	123
 3649 00a0 DF       		.byte	-33
 3650 00a1 10       		.byte	16
 3651 00a2 13       		.byte	19
 3652 00a3 24       		.byte	36
 3653 00a4 15       		.byte	21
 3654 00a5 E5       		.byte	-27
 3655 00a6 4B       		.byte	75
 3656 00a7 92       		.byte	-110
 3657 00a8 A1       		.byte	-95
 3658 00a9 3E       		.byte	62
 3659 00aa D0       		.byte	-48
 3660 00ab A8       		.byte	-88
ARM GAS  C:\Users\jo\AppData\Local\Temp\cc8AA3HA.s 			page 66


 3661 00ac 26       		.byte	38
 3662 00ad 7A       		.byte	122
 3663 00ae E2       		.byte	-30
 3664 00af F9       		.byte	-7
 3665 00b0 75       		.byte	117
 3666 00b1 A3       		.byte	-93
 3667 00b2 85       		.byte	-123
 3668 00b3 74       		.byte	116
 3669 00b4 1A       		.byte	26
 3670 00b5 B9       		.byte	-71
 3671 00b6 CE       		.byte	-50
 3672 00b7 F8       		.byte	-8
 3673 00b8 20       		.byte	32
 3674 00b9 31       		.byte	49
 3675 00ba 62       		.byte	98
 3676 00bb 3D       		.byte	61
 3677 00bc 55       		.byte	85
 3678 00bd B1       		.byte	-79
 3679 00be E4       		.byte	-28
 3680 00bf 71       		.byte	113
 3681              		.section	.rodata.aes_test_cbc_dec,"a",%progbits
 3682              		.align	2
 3683              		.set	.LANCHOR14,. + 0
 3684              		.type	aes_test_cbc_dec, %object
 3685              		.size	aes_test_cbc_dec, 48
 3686              	aes_test_cbc_dec:
 3687 0000 FA       		.byte	-6
 3688 0001 CA       		.byte	-54
 3689 0002 37       		.byte	55
 3690 0003 E0       		.byte	-32
 3691 0004 B0       		.byte	-80
 3692 0005 C8       		.byte	-56
 3693 0006 53       		.byte	83
 3694 0007 73       		.byte	115
 3695 0008 DF       		.byte	-33
 3696 0009 70       		.byte	112
 3697 000a 6E       		.byte	110
 3698 000b 73       		.byte	115
 3699 000c F7       		.byte	-9
 3700 000d C9       		.byte	-55
 3701 000e AF       		.byte	-81
 3702 000f 86       		.byte	-122
 3703 0010 5D       		.byte	93
 3704 0011 F6       		.byte	-10
 3705 0012 78       		.byte	120
 3706 0013 DD       		.byte	-35
 3707 0014 17       		.byte	23
 3708 0015 BA       		.byte	-70
 3709 0016 4E       		.byte	78
 3710 0017 75       		.byte	117
 3711 0018 B6       		.byte	-74
 3712 0019 17       		.byte	23
 3713 001a 68       		.byte	104
 3714 001b C6       		.byte	-58
 3715 001c AD       		.byte	-83
 3716 001d EF       		.byte	-17
 3717 001e 7C       		.byte	124
ARM GAS  C:\Users\jo\AppData\Local\Temp\cc8AA3HA.s 			page 67


 3718 001f 7B       		.byte	123
 3719 0020 48       		.byte	72
 3720 0021 04       		.byte	4
 3721 0022 E1       		.byte	-31
 3722 0023 81       		.byte	-127
 3723 0024 8F       		.byte	-113
 3724 0025 E6       		.byte	-26
 3725 0026 29       		.byte	41
 3726 0027 75       		.byte	117
 3727 0028 19       		.byte	25
 3728 0029 A3       		.byte	-93
 3729 002a E8       		.byte	-24
 3730 002b 8C       		.byte	-116
 3731 002c 57       		.byte	87
 3732 002d 31       		.byte	49
 3733 002e 04       		.byte	4
 3734 002f 13       		.byte	19
 3735              		.section	.rodata.str1.4,"aMS",%progbits,1
 3736              		.align	2
 3737              	.LC0:
 3738 0000 64656300 		.ascii	"dec\000"
 3739              	.LC1:
 3740 0004 656E6300 		.ascii	"enc\000"
 3741              	.LC2:
 3742 0008 20204145 		.ascii	"  AES-ECB-%3d (%s): \000"
 3742      532D4543 
 3742      422D2533 
 3742      64202825 
 3742      73293A20 
 3743 001d 000000   		.space	3
 3744              	.LC3:
 3745 0020 6661696C 		.ascii	"failed\000"
 3745      656400
 3746 0027 00       		.space	1
 3747              	.LC4:
 3748 0028 70617373 		.ascii	"passed\000"
 3748      656400
 3749 002f 00       		.space	1
 3750              	.LC5:
 3751 0030 20204145 		.ascii	"  AES-CBC-%3d (%s): \000"
 3751      532D4342 
 3751      432D2533 
 3751      64202825 
 3751      73293A20 
 3752 0045 000000   		.space	3
 3753              	.LC6:
 3754 0048 20204145 		.ascii	"  AES-CFB128-%3d (%s): \000"
 3754      532D4346 
 3754      42313238 
 3754      2D253364 
 3754      20282573 
 3755              	.LC7:
 3756 0060 20204145 		.ascii	"  AES-CTR-128 (%s): \000"
 3756      532D4354 
 3756      522D3132 
 3756      38202825 
 3756      73293A20 
ARM GAS  C:\Users\jo\AppData\Local\Temp\cc8AA3HA.s 			page 68


 3757 0075 000000   		.section	.rodata.aes_test_ctr_key,"a",%progbits
 3758              		.align	2
 3759              		.set	.LANCHOR21,. + 0
 3760              		.type	aes_test_ctr_key, %object
 3761              		.size	aes_test_ctr_key, 48
 3762              	aes_test_ctr_key:
 3763 0000 AE       		.byte	-82
 3764 0001 68       		.byte	104
 3765 0002 52       		.byte	82
 3766 0003 F8       		.byte	-8
 3767 0004 12       		.byte	18
 3768 0005 10       		.byte	16
 3769 0006 67       		.byte	103
 3770 0007 CC       		.byte	-52
 3771 0008 4B       		.byte	75
 3772 0009 F7       		.byte	-9
 3773 000a A5       		.byte	-91
 3774 000b 76       		.byte	118
 3775 000c 55       		.byte	85
 3776 000d 77       		.byte	119
 3777 000e F3       		.byte	-13
 3778 000f 9E       		.byte	-98
 3779 0010 7E       		.byte	126
 3780 0011 24       		.byte	36
 3781 0012 06       		.byte	6
 3782 0013 78       		.byte	120
 3783 0014 17       		.byte	23
 3784 0015 FA       		.byte	-6
 3785 0016 E0       		.byte	-32
 3786 0017 D7       		.byte	-41
 3787 0018 43       		.byte	67
 3788 0019 D6       		.byte	-42
 3789 001a CE       		.byte	-50
 3790 001b 1F       		.byte	31
 3791 001c 32       		.byte	50
 3792 001d 53       		.byte	83
 3793 001e 91       		.byte	-111
 3794 001f 63       		.byte	99
 3795 0020 76       		.byte	118
 3796 0021 91       		.byte	-111
 3797 0022 BE       		.byte	-66
 3798 0023 03       		.byte	3
 3799 0024 5E       		.byte	94
 3800 0025 50       		.byte	80
 3801 0026 20       		.byte	32
 3802 0027 A8       		.byte	-88
 3803 0028 AC       		.byte	-84
 3804 0029 6E       		.byte	110
 3805 002a 61       		.byte	97
 3806 002b 85       		.byte	-123
 3807 002c 29       		.byte	41
 3808 002d F9       		.byte	-7
 3809 002e A0       		.byte	-96
 3810 002f DC       		.byte	-36
 3811              		.section	.bss.RSb,"aw",%nobits
 3812              		.align	2
 3813              		.set	.LANCHOR2,. + 0
ARM GAS  C:\Users\jo\AppData\Local\Temp\cc8AA3HA.s 			page 69


 3814              		.type	RSb, %object
 3815              		.size	RSb, 256
 3816              	RSb:
 3817 0000 00000000 		.space	256
 3817      00000000 
 3817      00000000 
 3817      00000000 
 3817      00000000 
 3818              		.section	.rodata.aes_test_ecb_enc,"a",%progbits
 3819              		.align	2
 3820              		.set	.LANCHOR13,. + 0
 3821              		.type	aes_test_ecb_enc, %object
 3822              		.size	aes_test_ecb_enc, 48
 3823              	aes_test_ecb_enc:
 3824 0000 C3       		.byte	-61
 3825 0001 4C       		.byte	76
 3826 0002 05       		.byte	5
 3827 0003 2C       		.byte	44
 3828 0004 C0       		.byte	-64
 3829 0005 DA       		.byte	-38
 3830 0006 8D       		.byte	-115
 3831 0007 73       		.byte	115
 3832 0008 45       		.byte	69
 3833 0009 1A       		.byte	26
 3834 000a FE       		.byte	-2
 3835 000b 5F       		.byte	95
 3836 000c 03       		.byte	3
 3837 000d BE       		.byte	-66
 3838 000e 29       		.byte	41
 3839 000f 7F       		.byte	127
 3840 0010 F3       		.byte	-13
 3841 0011 F6       		.byte	-10
 3842 0012 75       		.byte	117
 3843 0013 2A       		.byte	42
 3844 0014 E8       		.byte	-24
 3845 0015 D7       		.byte	-41
 3846 0016 83       		.byte	-125
 3847 0017 11       		.byte	17
 3848 0018 38       		.byte	56
 3849 0019 F0       		.byte	-16
 3850 001a 41       		.byte	65
 3851 001b 56       		.byte	86
 3852 001c 06       		.byte	6
 3853 001d 31       		.byte	49
 3854 001e B1       		.byte	-79
 3855 001f 14       		.byte	20
 3856 0020 8B       		.byte	-117
 3857 0021 79       		.byte	121
 3858 0022 EE       		.byte	-18
 3859 0023 CC       		.byte	-52
 3860 0024 93       		.byte	-109
 3861 0025 A0       		.byte	-96
 3862 0026 EE       		.byte	-18
 3863 0027 5D       		.byte	93
 3864 0028 FF       		.byte	-1
 3865 0029 30       		.byte	48
 3866 002a B4       		.byte	-76
ARM GAS  C:\Users\jo\AppData\Local\Temp\cc8AA3HA.s 			page 70


 3867 002b EA       		.byte	-22
 3868 002c 21       		.byte	33
 3869 002d 63       		.byte	99
 3870 002e 6D       		.byte	109
 3871 002f A4       		.byte	-92
 3872              		.section	.rodata.aes_test_cfb128_pt,"a",%progbits
 3873              		.align	2
 3874              		.set	.LANCHOR19,. + 0
 3875              		.type	aes_test_cfb128_pt, %object
 3876              		.size	aes_test_cfb128_pt, 64
 3877              	aes_test_cfb128_pt:
 3878 0000 6B       		.byte	107
 3879 0001 C1       		.byte	-63
 3880 0002 BE       		.byte	-66
 3881 0003 E2       		.byte	-30
 3882 0004 2E       		.byte	46
 3883 0005 40       		.byte	64
 3884 0006 9F       		.byte	-97
 3885 0007 96       		.byte	-106
 3886 0008 E9       		.byte	-23
 3887 0009 3D       		.byte	61
 3888 000a 7E       		.byte	126
 3889 000b 11       		.byte	17
 3890 000c 73       		.byte	115
 3891 000d 93       		.byte	-109
 3892 000e 17       		.byte	23
 3893 000f 2A       		.byte	42
 3894 0010 AE       		.byte	-82
 3895 0011 2D       		.byte	45
 3896 0012 8A       		.byte	-118
 3897 0013 57       		.byte	87
 3898 0014 1E       		.byte	30
 3899 0015 03       		.byte	3
 3900 0016 AC       		.byte	-84
 3901 0017 9C       		.byte	-100
 3902 0018 9E       		.byte	-98
 3903 0019 B7       		.byte	-73
 3904 001a 6F       		.byte	111
 3905 001b AC       		.byte	-84
 3906 001c 45       		.byte	69
 3907 001d AF       		.byte	-81
 3908 001e 8E       		.byte	-114
 3909 001f 51       		.byte	81
 3910 0020 30       		.byte	48
 3911 0021 C8       		.byte	-56
 3912 0022 1C       		.byte	28
 3913 0023 46       		.byte	70
 3914 0024 A3       		.byte	-93
 3915 0025 5C       		.byte	92
 3916 0026 E4       		.byte	-28
 3917 0027 11       		.byte	17
 3918 0028 E5       		.byte	-27
 3919 0029 FB       		.byte	-5
 3920 002a C1       		.byte	-63
 3921 002b 19       		.byte	25
 3922 002c 1A       		.byte	26
 3923 002d 0A       		.byte	10
ARM GAS  C:\Users\jo\AppData\Local\Temp\cc8AA3HA.s 			page 71


 3924 002e 52       		.byte	82
 3925 002f EF       		.byte	-17
 3926 0030 F6       		.byte	-10
 3927 0031 9F       		.byte	-97
 3928 0032 24       		.byte	36
 3929 0033 45       		.byte	69
 3930 0034 DF       		.byte	-33
 3931 0035 4F       		.byte	79
 3932 0036 9B       		.byte	-101
 3933 0037 17       		.byte	23
 3934 0038 AD       		.byte	-83
 3935 0039 2B       		.byte	43
 3936 003a 41       		.byte	65
 3937 003b 7B       		.byte	123
 3938 003c E6       		.byte	-26
 3939 003d 6C       		.byte	108
 3940 003e 37       		.byte	55
 3941 003f 10       		.byte	16
 3942              		.section	.rodata.aes_test_cfb128_key,"a",%progbits
 3943              		.align	2
 3944              		.set	.LANCHOR17,. + 0
 3945              		.type	aes_test_cfb128_key, %object
 3946              		.size	aes_test_cfb128_key, 96
 3947              	aes_test_cfb128_key:
 3948 0000 2B       		.byte	43
 3949 0001 7E       		.byte	126
 3950 0002 15       		.byte	21
 3951 0003 16       		.byte	22
 3952 0004 28       		.byte	40
 3953 0005 AE       		.byte	-82
 3954 0006 D2       		.byte	-46
 3955 0007 A6       		.byte	-90
 3956 0008 AB       		.byte	-85
 3957 0009 F7       		.byte	-9
 3958 000a 15       		.byte	21
 3959 000b 88       		.byte	-120
 3960 000c 09       		.byte	9
 3961 000d CF       		.byte	-49
 3962 000e 4F       		.byte	79
 3963 000f 3C       		.byte	60
 3964 0010 00000000 		.space	16
 3964      00000000 
 3964      00000000 
 3964      00000000 
 3965 0020 8E       		.byte	-114
 3966 0021 73       		.byte	115
 3967 0022 B0       		.byte	-80
 3968 0023 F7       		.byte	-9
 3969 0024 DA       		.byte	-38
 3970 0025 0E       		.byte	14
 3971 0026 64       		.byte	100
 3972 0027 52       		.byte	82
 3973 0028 C8       		.byte	-56
 3974 0029 10       		.byte	16
 3975 002a F3       		.byte	-13
 3976 002b 2B       		.byte	43
 3977 002c 80       		.byte	-128
ARM GAS  C:\Users\jo\AppData\Local\Temp\cc8AA3HA.s 			page 72


 3978 002d 90       		.byte	-112
 3979 002e 79       		.byte	121
 3980 002f E5       		.byte	-27
 3981 0030 62       		.byte	98
 3982 0031 F8       		.byte	-8
 3983 0032 EA       		.byte	-22
 3984 0033 D2       		.byte	-46
 3985 0034 52       		.byte	82
 3986 0035 2C       		.byte	44
 3987 0036 6B       		.byte	107
 3988 0037 7B       		.byte	123
 3989 0038 00000000 		.space	8
 3989      00000000 
 3990 0040 60       		.byte	96
 3991 0041 3D       		.byte	61
 3992 0042 EB       		.byte	-21
 3993 0043 10       		.byte	16
 3994 0044 15       		.byte	21
 3995 0045 CA       		.byte	-54
 3996 0046 71       		.byte	113
 3997 0047 BE       		.byte	-66
 3998 0048 2B       		.byte	43
 3999 0049 73       		.byte	115
 4000 004a AE       		.byte	-82
 4001 004b F0       		.byte	-16
 4002 004c 85       		.byte	-123
 4003 004d 7D       		.byte	125
 4004 004e 77       		.byte	119
 4005 004f 81       		.byte	-127
 4006 0050 1F       		.byte	31
 4007 0051 35       		.byte	53
 4008 0052 2C       		.byte	44
 4009 0053 07       		.byte	7
 4010 0054 3B       		.byte	59
 4011 0055 61       		.byte	97
 4012 0056 08       		.byte	8
 4013 0057 D7       		.byte	-41
 4014 0058 2D       		.byte	45
 4015 0059 98       		.byte	-104
 4016 005a 10       		.byte	16
 4017 005b A3       		.byte	-93
 4018 005c 09       		.byte	9
 4019 005d 14       		.byte	20
 4020 005e DF       		.byte	-33
 4021 005f F4       		.byte	-12
 4022              		.section	.rodata.aes_test_ctr_ct,"a",%progbits
 4023              		.align	2
 4024              		.set	.LANCHOR23,. + 0
 4025              		.type	aes_test_ctr_ct, %object
 4026              		.size	aes_test_ctr_ct, 144
 4027              	aes_test_ctr_ct:
 4028 0000 E4       		.byte	-28
 4029 0001 09       		.byte	9
 4030 0002 5D       		.byte	93
 4031 0003 4F       		.byte	79
 4032 0004 B7       		.byte	-73
 4033 0005 A7       		.byte	-89
ARM GAS  C:\Users\jo\AppData\Local\Temp\cc8AA3HA.s 			page 73


 4034 0006 B3       		.byte	-77
 4035 0007 79       		.byte	121
 4036 0008 2D       		.byte	45
 4037 0009 61       		.byte	97
 4038 000a 75       		.byte	117
 4039 000b A3       		.byte	-93
 4040 000c 26       		.byte	38
 4041 000d 13       		.byte	19
 4042 000e 11       		.byte	17
 4043 000f B8       		.byte	-72
 4044 0010 00000000 		.space	32
 4044      00000000 
 4044      00000000 
 4044      00000000 
 4044      00000000 
 4045 0030 51       		.byte	81
 4046 0031 04       		.byte	4
 4047 0032 A1       		.byte	-95
 4048 0033 06       		.byte	6
 4049 0034 16       		.byte	22
 4050 0035 8A       		.byte	-118
 4051 0036 72       		.byte	114
 4052 0037 D9       		.byte	-39
 4053 0038 79       		.byte	121
 4054 0039 0D       		.byte	13
 4055 003a 41       		.byte	65
 4056 003b EE       		.byte	-18
 4057 003c 8E       		.byte	-114
 4058 003d DA       		.byte	-38
 4059 003e D3       		.byte	-45
 4060 003f 88       		.byte	-120
 4061 0040 EB       		.byte	-21
 4062 0041 2E       		.byte	46
 4063 0042 1E       		.byte	30
 4064 0043 FC       		.byte	-4
 4065 0044 46       		.byte	70
 4066 0045 DA       		.byte	-38
 4067 0046 57       		.byte	87
 4068 0047 C8       		.byte	-56
 4069 0048 FC       		.byte	-4
 4070 0049 E6       		.byte	-26
 4071 004a 30       		.byte	48
 4072 004b DF       		.byte	-33
 4073 004c 91       		.byte	-111
 4074 004d 41       		.byte	65
 4075 004e BE       		.byte	-66
 4076 004f 28       		.byte	40
 4077 0050 00000000 		.space	16
 4077      00000000 
 4077      00000000 
 4077      00000000 
 4078 0060 C1       		.byte	-63
 4079 0061 CF       		.byte	-49
 4080 0062 48       		.byte	72
 4081 0063 A8       		.byte	-88
 4082 0064 9F       		.byte	-97
 4083 0065 2F       		.byte	47
ARM GAS  C:\Users\jo\AppData\Local\Temp\cc8AA3HA.s 			page 74


 4084 0066 FD       		.byte	-3
 4085 0067 D9       		.byte	-39
 4086 0068 CF       		.byte	-49
 4087 0069 46       		.byte	70
 4088 006a 52       		.byte	82
 4089 006b E9       		.byte	-23
 4090 006c EF       		.byte	-17
 4091 006d DB       		.byte	-37
 4092 006e 72       		.byte	114
 4093 006f D7       		.byte	-41
 4094 0070 45       		.byte	69
 4095 0071 40       		.byte	64
 4096 0072 A4       		.byte	-92
 4097 0073 2B       		.byte	43
 4098 0074 DE       		.byte	-34
 4099 0075 6D       		.byte	109
 4100 0076 78       		.byte	120
 4101 0077 36       		.byte	54
 4102 0078 D5       		.byte	-43
 4103 0079 9A       		.byte	-102
 4104 007a 5C       		.byte	92
 4105 007b EA       		.byte	-22
 4106 007c AE       		.byte	-82
 4107 007d F3       		.byte	-13
 4108 007e 10       		.byte	16
 4109 007f 53       		.byte	83
 4110 0080 25       		.byte	37
 4111 0081 B2       		.byte	-78
 4112 0082 07       		.byte	7
 4113 0083 2F       		.byte	47
 4114 0084 00000000 		.space	12
 4114      00000000 
 4114      00000000 
 4115              		.section	.rodata.aes_test_ctr_nonce_counter,"a",%progbits
 4116              		.align	2
 4117              		.set	.LANCHOR20,. + 0
 4118              		.type	aes_test_ctr_nonce_counter, %object
 4119              		.size	aes_test_ctr_nonce_counter, 48
 4120              	aes_test_ctr_nonce_counter:
 4121 0000 00       		.byte	0
 4122 0001 00       		.byte	0
 4123 0002 00       		.byte	0
 4124 0003 30       		.byte	48
 4125 0004 00       		.byte	0
 4126 0005 00       		.byte	0
 4127 0006 00       		.byte	0
 4128 0007 00       		.byte	0
 4129 0008 00       		.byte	0
 4130 0009 00       		.byte	0
 4131 000a 00       		.byte	0
 4132 000b 00       		.byte	0
 4133 000c 00       		.byte	0
 4134 000d 00       		.byte	0
 4135 000e 00       		.byte	0
 4136 000f 01       		.byte	1
 4137 0010 00       		.byte	0
 4138 0011 6C       		.byte	108
ARM GAS  C:\Users\jo\AppData\Local\Temp\cc8AA3HA.s 			page 75


 4139 0012 B6       		.byte	-74
 4140 0013 DB       		.byte	-37
 4141 0014 C0       		.byte	-64
 4142 0015 54       		.byte	84
 4143 0016 3B       		.byte	59
 4144 0017 59       		.byte	89
 4145 0018 DA       		.byte	-38
 4146 0019 48       		.byte	72
 4147 001a D9       		.byte	-39
 4148 001b 0B       		.byte	11
 4149 001c 00       		.byte	0
 4150 001d 00       		.byte	0
 4151 001e 00       		.byte	0
 4152 001f 01       		.byte	1
 4153 0020 00       		.byte	0
 4154 0021 E0       		.byte	-32
 4155 0022 01       		.byte	1
 4156 0023 7B       		.byte	123
 4157 0024 27       		.byte	39
 4158 0025 77       		.byte	119
 4159 0026 7F       		.byte	127
 4160 0027 3F       		.byte	63
 4161 0028 4A       		.byte	74
 4162 0029 17       		.byte	23
 4163 002a 86       		.byte	-122
 4164 002b F0       		.byte	-16
 4165 002c 00       		.byte	0
 4166 002d 00       		.byte	0
 4167 002e 00       		.byte	0
 4168 002f 01       		.byte	1
 4169              		.section	.bss.FSb,"aw",%nobits
 4170              		.align	2
 4171              		.set	.LANCHOR1,. + 0
 4172              		.type	FSb, %object
 4173              		.size	FSb, 256
 4174              	FSb:
 4175 0000 00000000 		.space	256
 4175      00000000 
 4175      00000000 
 4175      00000000 
 4175      00000000 
 4176              		.section	.rodata.aes_test_ctr_len,"a",%progbits
 4177              		.align	2
 4178              		.set	.LANCHOR22,. + 0
 4179              		.type	aes_test_ctr_len, %object
 4180              		.size	aes_test_ctr_len, 12
 4181              	aes_test_ctr_len:
 4182 0000 10000000 		.word	16
 4183 0004 20000000 		.word	32
 4184 0008 24000000 		.word	36
 4185              		.section	.bss.RT2,"aw",%nobits
 4186              		.align	2
 4187              		.set	.LANCHOR5,. + 0
 4188              		.type	RT2, %object
 4189              		.size	RT2, 1024
 4190              	RT2:
 4191 0000 00000000 		.space	1024
ARM GAS  C:\Users\jo\AppData\Local\Temp\cc8AA3HA.s 			page 76


 4191      00000000 
 4191      00000000 
 4191      00000000 
 4191      00000000 
 4192              		.section	.rodata.aes_test_cbc_enc,"a",%progbits
 4193              		.align	2
 4194              		.set	.LANCHOR15,. + 0
 4195              		.type	aes_test_cbc_enc, %object
 4196              		.size	aes_test_cbc_enc, 48
 4197              	aes_test_cbc_enc:
 4198 0000 8A       		.byte	-118
 4199 0001 05       		.byte	5
 4200 0002 FC       		.byte	-4
 4201 0003 5E       		.byte	94
 4202 0004 09       		.byte	9
 4203 0005 5A       		.byte	90
 4204 0006 F4       		.byte	-12
 4205 0007 84       		.byte	-124
 4206 0008 8A       		.byte	-118
 4207 0009 08       		.byte	8
 4208 000a D3       		.byte	-45
 4209 000b 28       		.byte	40
 4210 000c D3       		.byte	-45
 4211 000d 68       		.byte	104
 4212 000e 8E       		.byte	-114
 4213 000f 3D       		.byte	61
 4214 0010 7B       		.byte	123
 4215 0011 D9       		.byte	-39
 4216 0012 66       		.byte	102
 4217 0013 D5       		.byte	-43
 4218 0014 3A       		.byte	58
 4219 0015 D8       		.byte	-40
 4220 0016 C1       		.byte	-63
 4221 0017 BB       		.byte	-69
 4222 0018 85       		.byte	-123
 4223 0019 D2       		.byte	-46
 4224 001a AD       		.byte	-83
 4225 001b FA       		.byte	-6
 4226 001c E8       		.byte	-24
 4227 001d 7B       		.byte	123
 4228 001e B1       		.byte	-79
 4229 001f 04       		.byte	4
 4230 0020 FE       		.byte	-2
 4231 0021 3C       		.byte	60
 4232 0022 53       		.byte	83
 4233 0023 65       		.byte	101
 4234 0024 3E       		.byte	62
 4235 0025 2F       		.byte	47
 4236 0026 45       		.byte	69
 4237 0027 B5       		.byte	-75
 4238 0028 6F       		.byte	111
 4239 0029 CD       		.byte	-51
 4240 002a 88       		.byte	-120
 4241 002b B2       		.byte	-78
 4242 002c CC       		.byte	-52
 4243 002d 89       		.byte	-119
 4244 002e 8F       		.byte	-113
ARM GAS  C:\Users\jo\AppData\Local\Temp\cc8AA3HA.s 			page 77


 4245 002f F0       		.byte	-16
 4246              		.section	.rodata.aes_test_ctr_pt,"a",%progbits
 4247              		.align	2
 4248              		.set	.LANCHOR24,. + 0
 4249              		.type	aes_test_ctr_pt, %object
 4250              		.size	aes_test_ctr_pt, 144
 4251              	aes_test_ctr_pt:
 4252 0000 53       		.byte	83
 4253 0001 69       		.byte	105
 4254 0002 6E       		.byte	110
 4255 0003 67       		.byte	103
 4256 0004 6C       		.byte	108
 4257 0005 65       		.byte	101
 4258 0006 20       		.byte	32
 4259 0007 62       		.byte	98
 4260 0008 6C       		.byte	108
 4261 0009 6F       		.byte	111
 4262 000a 63       		.byte	99
 4263 000b 6B       		.byte	107
 4264 000c 20       		.byte	32
 4265 000d 6D       		.byte	109
 4266 000e 73       		.byte	115
 4267 000f 67       		.byte	103
 4268 0010 00000000 		.space	32
 4268      00000000 
 4268      00000000 
 4268      00000000 
 4268      00000000 
 4269 0030 00       		.byte	0
 4270 0031 01       		.byte	1
 4271 0032 02       		.byte	2
 4272 0033 03       		.byte	3
 4273 0034 04       		.byte	4
 4274 0035 05       		.byte	5
 4275 0036 06       		.byte	6
 4276 0037 07       		.byte	7
 4277 0038 08       		.byte	8
 4278 0039 09       		.byte	9
 4279 003a 0A       		.byte	10
 4280 003b 0B       		.byte	11
 4281 003c 0C       		.byte	12
 4282 003d 0D       		.byte	13
 4283 003e 0E       		.byte	14
 4284 003f 0F       		.byte	15
 4285 0040 10       		.byte	16
 4286 0041 11       		.byte	17
 4287 0042 12       		.byte	18
 4288 0043 13       		.byte	19
 4289 0044 14       		.byte	20
 4290 0045 15       		.byte	21
 4291 0046 16       		.byte	22
 4292 0047 17       		.byte	23
 4293 0048 18       		.byte	24
 4294 0049 19       		.byte	25
 4295 004a 1A       		.byte	26
 4296 004b 1B       		.byte	27
 4297 004c 1C       		.byte	28
ARM GAS  C:\Users\jo\AppData\Local\Temp\cc8AA3HA.s 			page 78


 4298 004d 1D       		.byte	29
 4299 004e 1E       		.byte	30
 4300 004f 1F       		.byte	31
 4301 0050 00000000 		.space	16
 4301      00000000 
 4301      00000000 
 4301      00000000 
 4302 0060 00       		.byte	0
 4303 0061 01       		.byte	1
 4304 0062 02       		.byte	2
 4305 0063 03       		.byte	3
 4306 0064 04       		.byte	4
 4307 0065 05       		.byte	5
 4308 0066 06       		.byte	6
 4309 0067 07       		.byte	7
 4310 0068 08       		.byte	8
 4311 0069 09       		.byte	9
 4312 006a 0A       		.byte	10
 4313 006b 0B       		.byte	11
 4314 006c 0C       		.byte	12
 4315 006d 0D       		.byte	13
 4316 006e 0E       		.byte	14
 4317 006f 0F       		.byte	15
 4318 0070 10       		.byte	16
 4319 0071 11       		.byte	17
 4320 0072 12       		.byte	18
 4321 0073 13       		.byte	19
 4322 0074 14       		.byte	20
 4323 0075 15       		.byte	21
 4324 0076 16       		.byte	22
 4325 0077 17       		.byte	23
 4326 0078 18       		.byte	24
 4327 0079 19       		.byte	25
 4328 007a 1A       		.byte	26
 4329 007b 1B       		.byte	27
 4330 007c 1C       		.byte	28
 4331 007d 1D       		.byte	29
 4332 007e 1E       		.byte	30
 4333 007f 1F       		.byte	31
 4334 0080 20       		.byte	32
 4335 0081 21       		.byte	33
 4336 0082 22       		.byte	34
 4337 0083 23       		.byte	35
 4338 0084 00000000 		.space	12
 4338      00000000 
 4338      00000000 
 4339              		.section	.rodata.aes_test_cfb128_iv,"a",%progbits
 4340              		.align	2
 4341              		.set	.LANCHOR16,. + 0
 4342              		.type	aes_test_cfb128_iv, %object
 4343              		.size	aes_test_cfb128_iv, 16
 4344              	aes_test_cfb128_iv:
 4345 0000 00       		.byte	0
 4346 0001 01       		.byte	1
 4347 0002 02       		.byte	2
 4348 0003 03       		.byte	3
 4349 0004 04       		.byte	4
ARM GAS  C:\Users\jo\AppData\Local\Temp\cc8AA3HA.s 			page 79


 4350 0005 05       		.byte	5
 4351 0006 06       		.byte	6
 4352 0007 07       		.byte	7
 4353 0008 08       		.byte	8
 4354 0009 09       		.byte	9
 4355 000a 0A       		.byte	10
 4356 000b 0B       		.byte	11
 4357 000c 0C       		.byte	12
 4358 000d 0D       		.byte	13
 4359 000e 0E       		.byte	14
 4360 000f 0F       		.byte	15
 4361              		.text
 4362              	.Letext0:
 4363              		.file 2 "c:\\program files\\gnu tools arm embedded\\4.9 2014q4\\lib\\gcc\\arm-none-eabi\\4.9.3\\in
 4364              		.file 3 "c:\\program files\\gnu tools arm embedded\\4.9 2014q4\\arm-none-eabi\\include\\machine\\_
 4365              		.file 4 "c:\\program files\\gnu tools arm embedded\\4.9 2014q4\\arm-none-eabi\\include\\stdint.h"
 4366              		.file 5 "../../../ext/mbedtls-1.3.11/library/../include/polarssl/aes.h"
 4367              		.file 6 "c:\\program files\\gnu tools arm embedded\\4.9 2014q4\\arm-none-eabi\\include\\stdio.h"
 4368              		.file 7 "c:\\program files\\gnu tools arm embedded\\4.9 2014q4\\arm-none-eabi\\include\\string.h"
 4369              		.file 8 "<built-in>"