ARM GAS  C:\Users\jo\AppData\Local\Temp\cc8AA3HA.s 			page 1


   1              		.syntax unified
   2              		.cpu cortex-m4
   3              		.fpu softvfp
   4              		.eabi_attribute 20, 1
   5              		.eabi_attribute 21, 1
   6              		.eabi_attribute 23, 3
   7              		.eabi_attribute 24, 1
   8              		.eabi_attribute 25, 1
   9              		.eabi_attribute 26, 1
  10              		.eabi_attribute 30, 2
  11              		.eabi_attribute 34, 1
  12              		.eabi_attribute 18, 4
  13              		.thumb
  14              		.file	"aes.c"
  15              		.text
  16              	.Ltext0:
  17              		.cfi_sections	.debug_frame
  18              		.section	.text.aes_gen_tables,"ax",%progbits
  19              		.align	2
  20              		.p2align 4,,15
  21              		.thumb
  22              		.thumb_func
  23              		.type	aes_gen_tables, %function
  24              	aes_gen_tables:
  25              	.LFB1:
  26              		.file 1 "../../../ext/mbedtls-1.3.11/library/aes.c"
  27              		.loc 1 391 0
  28              		.cfi_startproc
  29              		@ args = 0, pretend = 0, frame = 2072
  30              		@ frame_needed = 0, uses_anonymous_args = 0
  31              	.LVL0:
  32 0000 2DE9F04F 		push	{r4, r5, r6, r7, r8, r9, r10, fp, lr}
  33              		.cfi_def_cfa_offset 36
  34              		.cfi_offset 4, -36
  35              		.cfi_offset 5, -32
  36              		.cfi_offset 6, -28
  37              		.cfi_offset 7, -24
  38              		.cfi_offset 8, -20
  39              		.cfi_offset 9, -16
  40              		.cfi_offset 10, -12
  41              		.cfi_offset 11, -8
  42              		.cfi_offset 14, -4
  43 0004 ADF61C0D 		subw	sp, sp, #2076
  44              		.cfi_def_cfa_offset 2112
  45              		.loc 1 402 0
  46 0008 0023     		movs	r3, #0
  47              		.loc 1 401 0
  48 000a 0121     		movs	r1, #1
  49              		.loc 1 399 0
  50 000c 1846     		mov	r0, r3
  51              		.loc 1 402 0
  52 000e CDF81C34 		str	r3, [sp, #1052]
  53              		.loc 1 401 0
  54 0012 0691     		str	r1, [sp, #24]
  55 0014 06AC     		add	r4, sp, #24
  56              		.loc 1 403 0
  57 0016 0222     		movs	r2, #2
ARM GAS  C:\Users\jo\AppData\Local\Temp\cc8AA3HA.s 			page 2


  58 0018 0AE0     		b	.L2
  59              	.LVL1:
  60              	.L4:
  61              		.loc 1 402 0
  62 001a 0DF58362 		add	r2, sp, #1048
  63              		.loc 1 403 0
  64 001e 13F08003 		ands	r3, r3, #128
  65              		.loc 1 401 0
  66 0022 44F8041F 		str	r1, [r4, #4]!
  67              		.loc 1 402 0
  68 0026 42F82100 		str	r0, [r2, r1, lsl #2]
  69              		.loc 1 403 0
  70 002a 18BF     		it	ne
  71 002c 1B23     		movne	r3, #27
  72 002e 4A00     		lsls	r2, r1, #1
  73              	.LVL2:
  74              	.L2:
  75 0030 4B40     		eors	r3, r3, r1
  76              		.loc 1 399 0 discriminator 4
  77 0032 0130     		adds	r0, r0, #1
  78              		.loc 1 403 0 discriminator 4
  79 0034 5340     		eors	r3, r3, r2
  80              		.loc 1 399 0 discriminator 4
  81 0036 B0F5807F 		cmp	r0, #256
  82              		.loc 1 403 0 discriminator 4
  83 003a D9B2     		uxtb	r1, r3
  84              	.LVL3:
  85              		.loc 1 399 0 discriminator 4
  86 003c EDD1     		bne	.L4
  87 003e 7549     		ldr	r1, .L23
  88              	.LVL4:
  89              		.loc 1 399 0 is_stmt 0
  90 0040 0123     		movs	r3, #1
  91              	.LVL5:
  92 0042 01F12800 		add	r0, r1, #40
  93              	.LVL6:
  94              	.L6:
  95              		.loc 1 412 0 is_stmt 1
  96 0046 13F08002 		ands	r2, r3, #128
  97              		.loc 1 411 0
  98 004a 41F8043B 		str	r3, [r1], #4
  99              		.loc 1 412 0
 100 004e 18BF     		it	ne
 101 0050 1B22     		movne	r2, #27
 102 0052 82EA4303 		eor	r3, r2, r3, lsl #1
 103              	.LVL7:
 104              		.loc 1 409 0
 105 0056 8142     		cmp	r1, r0
 106              		.loc 1 412 0
 107 0058 DBB2     		uxtb	r3, r3
 108              	.LVL8:
 109              		.loc 1 409 0
 110 005a F4D1     		bne	.L6
 111              		.loc 1 418 0
 112 005c 6E4E     		ldr	r6, .L23+4
 113              		.loc 1 419 0
 114 005e DFF8DCE1 		ldr	lr, .L23+40
ARM GAS  C:\Users\jo\AppData\Local\Temp\cc8AA3HA.s 			page 3


 115              		.loc 1 418 0
 116 0062 6322     		movs	r2, #99
 117              		.loc 1 419 0
 118 0064 0023     		movs	r3, #0
 119              	.LVL9:
 120              		.loc 1 418 0
 121 0066 3270     		strb	r2, [r6]
 122              		.loc 1 419 0
 123 0068 8EF86330 		strb	r3, [lr, #99]
 124              	.LVL10:
 125 006c 0DF58367 		add	r7, sp, #1048
 126              		.loc 1 421 0
 127 0070 0125     		movs	r5, #1
 128              	.LVL11:
 129              	.L7:
 130              		.loc 1 423 0 discriminator 3
 131 0072 57F8043F 		ldr	r3, [r7, #4]!
 132 0076 06AA     		add	r2, sp, #24
 133 0078 C3F1FF03 		rsb	r3, r3, #255
 134 007c 52F82300 		ldr	r0, [r2, r3, lsl #2]
 135              	.LVL12:
 136              		.loc 1 425 0 discriminator 3
 137 0080 4100     		lsls	r1, r0, #1
 138 0082 41EAE011 		orr	r1, r1, r0, asr #7
 139 0086 C9B2     		uxtb	r1, r1
 140              	.LVL13:
 141              		.loc 1 426 0 discriminator 3
 142 0088 4A00     		lsls	r2, r1, #1
 143 008a 42EAD112 		orr	r2, r2, r1, lsr #7
 144 008e D2B2     		uxtb	r2, r2
 145              	.LVL14:
 146              		.loc 1 427 0 discriminator 3
 147 0090 5300     		lsls	r3, r2, #1
 148 0092 43EAD213 		orr	r3, r3, r2, lsr #7
 149 0096 DBB2     		uxtb	r3, r3
 150              	.LVL15:
 151 0098 80F06300 		eor	r0, r0, #99
 152              	.LVL16:
 153 009c 4140     		eors	r1, r1, r0
 154              	.LVL17:
 155              		.loc 1 428 0 discriminator 3
 156 009e 5800     		lsls	r0, r3, #1
 157 00a0 4A40     		eors	r2, r2, r1
 158              	.LVL18:
 159 00a2 40EAD311 		orr	r1, r0, r3, lsr #7
 160              	.LVL19:
 161 00a6 5340     		eors	r3, r3, r2
 162              	.LVL20:
 163 00a8 CAB2     		uxtb	r2, r1
 164              		.loc 1 429 0 discriminator 3
 165 00aa 5340     		eors	r3, r3, r2
 166              	.LVL21:
 167              		.loc 1 431 0 discriminator 3
 168 00ac 06F8013F 		strb	r3, [r6, #1]!
 169              		.loc 1 432 0 discriminator 3
 170 00b0 0EF80350 		strb	r5, [lr, r3]
 171              		.loc 1 421 0 discriminator 3
ARM GAS  C:\Users\jo\AppData\Local\Temp\cc8AA3HA.s 			page 4


 172 00b4 0135     		adds	r5, r5, #1
 173              	.LVL22:
 174 00b6 B5F5807F 		cmp	r5, #256
 175 00ba DAD1     		bne	.L7
 176              		.loc 1 455 0
 177 00bc DDF85034 		ldr	r3, [sp, #1104]
 178              	.LVL23:
 179 00c0 0293     		str	r3, [sp, #8]
 180              		.loc 1 456 0
 181 00c2 DDF83C34 		ldr	r3, [sp, #1084]
 182 00c6 0393     		str	r3, [sp, #12]
 183              		.loc 1 457 0
 184 00c8 DDF84C34 		ldr	r3, [sp, #1100]
 185 00cc 0493     		str	r3, [sp, #16]
 186 00ce DFF870A1 		ldr	r10, .L23+44
 187              		.loc 1 458 0
 188 00d2 DDF84434 		ldr	r3, [sp, #1092]
 189 00d6 0593     		str	r3, [sp, #20]
 190 00d8 504C     		ldr	r4, .L23+8
 191 00da 514B     		ldr	r3, .L23+12
 192 00dc 0093     		str	r3, [sp]
 193 00de DFF864C1 		ldr	ip, .L23+48
 194 00e2 DFF864E1 		ldr	lr, .L23+52
 195 00e6 4F4D     		ldr	r5, .L23+16
 196              	.LVL24:
 197              		.loc 1 456 0
 198 00e8 4F48     		ldr	r0, .L23+20
 199              		.loc 1 458 0
 200 00ea 0194     		str	r4, [sp, #4]
 201 00ec 0021     		movs	r1, #0
 202              	.LVL25:
 203 00ee D346     		mov	fp, r10
 204 00f0 5DE0     		b	.L10
 205              	.LVL26:
 206              	.L22:
 207              		.loc 1 455 0 discriminator 1
 208 00f2 0DF58363 		add	r3, sp, #1048
 209              		.loc 1 456 0 discriminator 1
 210 00f6 039C     		ldr	r4, [sp, #12]
 211              		.loc 1 455 0 discriminator 1
 212 00f8 53F82660 		ldr	r6, [r3, r6, lsl #2]
 213              	.LVL27:
 214              		.loc 1 457 0 discriminator 1
 215 00fc 049B     		ldr	r3, [sp, #16]
 216 00fe 06EB030A 		add	r10, r6, r3
 217 0102 8AFB0023 		smull	r2, r3, r10, r0
 218 0106 0AEB0308 		add	r8, r10, r3
 219 010a 4FEAEA73 		asr	r3, r10, #31
 220 010e C3EBE818 		rsb	r8, r3, r8, asr #7
 221              		.loc 1 455 0 discriminator 1
 222 0112 029A     		ldr	r2, [sp, #8]
 223              		.loc 1 458 0 discriminator 1
 224 0114 059B     		ldr	r3, [sp, #20]
 225              		.loc 1 456 0 discriminator 1
 226 0116 06EB0409 		add	r9, r6, r4
 227              		.loc 1 455 0 discriminator 1
 228 011a 3244     		add	r2, r2, r6
ARM GAS  C:\Users\jo\AppData\Local\Temp\cc8AA3HA.s 			page 5


 229              		.loc 1 458 0 discriminator 1
 230 011c F318     		adds	r3, r6, r3
 231              		.loc 1 457 0 discriminator 1
 232 011e C8EB0828 		rsb	r8, r8, r8, lsl #8
 233              		.loc 1 456 0 discriminator 1
 234 0122 89FB0067 		smull	r6, r7, r9, r0
 235 0126 09EB0706 		add	r6, r9, r7
 236              		.loc 1 457 0 discriminator 1
 237 012a C8EB0A08 		rsb	r8, r8, r10
 238              		.loc 1 456 0 discriminator 1
 239 012e 4FEAE97A 		asr	r10, r9, #31
 240 0132 CAEBE61A 		rsb	r10, r10, r6, asr #7
 241 0136 CAEB0A2A 		rsb	r10, r10, r10, lsl #8
 242              		.loc 1 455 0 discriminator 1
 243 013a 82FB0067 		smull	r6, r7, r2, r0
 244              		.loc 1 457 0 discriminator 1
 245 013e 06AC     		add	r4, sp, #24
 246              		.loc 1 455 0 discriminator 1
 247 0140 D619     		adds	r6, r2, r7
 248              		.loc 1 456 0 discriminator 1
 249 0142 CAEB0909 		rsb	r9, r10, r9
 250              		.loc 1 455 0 discriminator 1
 251 0146 4FEAE27A 		asr	r10, r2, #31
 252 014a CAEBE61A 		rsb	r10, r10, r6, asr #7
 253              		.loc 1 458 0 discriminator 1
 254 014e 83FB0067 		smull	r6, r7, r3, r0
 255 0152 DE19     		adds	r6, r3, r7
 256              		.loc 1 457 0 discriminator 1
 257 0154 54F82870 		ldr	r7, [r4, r8, lsl #2]
 258              		.loc 1 456 0 discriminator 1
 259 0158 54F82980 		ldr	r8, [r4, r9, lsl #2]
 260              		.loc 1 458 0 discriminator 1
 261 015c 4FEAE379 		asr	r9, r3, #31
 262              		.loc 1 455 0 discriminator 1
 263 0160 CAEB0A2A 		rsb	r10, r10, r10, lsl #8
 264              		.loc 1 458 0 discriminator 1
 265 0164 C9EBE616 		rsb	r6, r9, r6, asr #7
 266              		.loc 1 455 0 discriminator 1
 267 0168 CAEB020A 		rsb	r10, r10, r2
 268              		.loc 1 458 0 discriminator 1
 269 016c C6EB0626 		rsb	r6, r6, r6, lsl #8
 270 0170 9E1B     		subs	r6, r3, r6
 271              		.loc 1 456 0 discriminator 1
 272 0172 54F82A20 		ldr	r2, [r4, r10, lsl #2]
 273              		.loc 1 458 0 discriminator 1
 274 0176 54F82660 		ldr	r6, [r4, r6, lsl #2]
 275              		.loc 1 457 0 discriminator 1
 276 017a 3B04     		lsls	r3, r7, #16
 277 017c 83EA0827 		eor	r7, r3, r8, lsl #8
 278              		.loc 1 456 0 discriminator 1
 279 0180 5740     		eors	r7, r7, r2
 280 0182 87EA0667 		eor	r7, r7, r6, lsl #24
 281 0186 4FEA3766 		ror	r6, r7, #24
 282 018a 4FEA3662 		ror	r2, r6, #24
 283 018e 4FEA3263 		ror	r3, r2, #24
 284              	.L9:
 285              		.loc 1 461 0 discriminator 2
ARM GAS  C:\Users\jo\AppData\Local\Temp\cc8AA3HA.s 			page 6


 286 0192 45F8042F 		str	r2, [r5, #4]!
 287              		.loc 1 462 0 discriminator 2
 288 0196 019A     		ldr	r2, [sp, #4]
 289              		.loc 1 455 0 discriminator 2
 290 0198 4CF8047F 		str	r7, [ip, #4]!
 291              		.loc 1 438 0 discriminator 2
 292 019c 0131     		adds	r1, r1, #1
 293              	.LVL28:
 294              		.loc 1 462 0 discriminator 2
 295 019e 42F8043F 		str	r3, [r2, #4]!
 296              		.loc 1 438 0 discriminator 2
 297 01a2 B1F5807F 		cmp	r1, #256
 298              		.loc 1 460 0 discriminator 2
 299 01a6 4EF8046F 		str	r6, [lr, #4]!
 300              		.loc 1 462 0 discriminator 2
 301 01aa 0192     		str	r2, [sp, #4]
 302              		.loc 1 438 0 discriminator 2
 303 01ac 2DD0     		beq	.L21
 304              	.LVL29:
 305              	.L10:
 306              		.loc 1 440 0
 307 01ae 009A     		ldr	r2, [sp]
 308              		.loc 1 444 0
 309 01b0 1E4C     		ldr	r4, .L23+24
 310              		.loc 1 440 0
 311 01b2 12F8013F 		ldrb	r3, [r2, #1]!	@ zero_extendqisi2
 312 01b6 0092     		str	r2, [sp]
 313              	.LVL30:
 314              		.loc 1 441 0
 315 01b8 13F0800F 		tst	r3, #128
 316 01bc 14BF     		ite	ne
 317 01be 1B22     		movne	r2, #27
 318 01c0 0022     		moveq	r2, #0
 319 01c2 82EA4302 		eor	r2, r2, r3, lsl #1
 320              		.loc 1 445 0
 321 01c6 1F02     		lsls	r7, r3, #8
 322              		.loc 1 441 0
 323 01c8 D2B2     		uxtb	r2, r2
 324              	.LVL31:
 325 01ca 47EA0347 		orr	r7, r7, r3, lsl #16
 326              		.loc 1 445 0
 327 01ce 5740     		eors	r7, r7, r2
 328              		.loc 1 442 0
 329 01d0 5340     		eors	r3, r3, r2
 330              	.LVL32:
 331              		.loc 1 446 0
 332 01d2 47EA0363 		orr	r3, r7, r3, lsl #24
 333              	.LVL33:
 334              		.loc 1 444 0
 335 01d6 44F82130 		str	r3, [r4, r1, lsl #2]
 336              		.loc 1 449 0
 337 01da 154C     		ldr	r4, .L23+28
 338              		.loc 1 453 0
 339 01dc 1BF8016F 		ldrb	r6, [fp, #1]!	@ zero_extendqisi2
 340              	.LVL34:
 341              		.loc 1 449 0
 342 01e0 4FEA3367 		ror	r7, r3, #24
ARM GAS  C:\Users\jo\AppData\Local\Temp\cc8AA3HA.s 			page 7


 343 01e4 44F82170 		str	r7, [r4, r1, lsl #2]
 344              		.loc 1 450 0
 345 01e8 124C     		ldr	r4, .L23+32
 346 01ea 4FEA3762 		ror	r2, r7, #24
 347              	.LVL35:
 348              		.loc 1 451 0
 349 01ee 4FEA3263 		ror	r3, r2, #24
 350              		.loc 1 450 0
 351 01f2 44F82120 		str	r2, [r4, r1, lsl #2]
 352              		.loc 1 451 0
 353 01f6 104A     		ldr	r2, .L23+36
 354 01f8 42F82130 		str	r3, [r2, r1, lsl #2]
 355              		.loc 1 455 0
 356 01fc 002E     		cmp	r6, #0
 357 01fe 7FF478AF 		bne	.L22
 358              	.LVL36:
 359 0202 3346     		mov	r3, r6
 360 0204 3246     		mov	r2, r6
 361 0206 1F46     		mov	r7, r3
 362 0208 C3E7     		b	.L9
 363              	.LVL37:
 364              	.L21:
 365              		.loc 1 464 0
 366 020a 0DF61C0D 		addw	sp, sp, #2076
 367              		.cfi_def_cfa_offset 36
 368              	.LVL38:
 369              		@ sp needed
 370 020e BDE8F08F 		pop	{r4, r5, r6, r7, r8, r9, r10, fp, pc}
 371              	.LVL39:
 372              	.L24:
 373 0212 00BF     		.align	2
 374              	.L23:
 375 0214 00000000 		.word	.LANCHOR0
 376 0218 00000000 		.word	.LANCHOR1
 377 021c FCFFFFFF 		.word	.LANCHOR6-4
 378 0220 FFFFFFFF 		.word	.LANCHOR1-1
 379 0224 FCFFFFFF 		.word	.LANCHOR5-4
 380 0228 81808080 		.word	-2139062143
 381 022c 00000000 		.word	.LANCHOR7
 382 0230 00000000 		.word	.LANCHOR8
 383 0234 00000000 		.word	.LANCHOR9
 384 0238 00000000 		.word	.LANCHOR10
 385 023c 00000000 		.word	.LANCHOR2
 386 0240 FFFFFFFF 		.word	.LANCHOR2-1
 387 0244 FCFFFFFF 		.word	.LANCHOR3-4
 388 0248 FCFFFFFF 		.word	.LANCHOR4-4
 389              		.cfi_endproc
 390              	.LFE1:
 391              		.size	aes_gen_tables, .-aes_gen_tables
 392 024c AFF30080 		.section	.text.aes_init,"ax",%progbits
 393              		.align	2
 394              		.p2align 4,,15
 395              		.global	aes_init
 396              		.thumb
 397              		.thumb_func
 398              		.type	aes_init, %function
 399              	aes_init:
ARM GAS  C:\Users\jo\AppData\Local\Temp\cc8AA3HA.s 			page 8


 400              	.LFB2:
 401              		.loc 1 469 0
 402              		.cfi_startproc
 403              		@ args = 0, pretend = 0, frame = 0
 404              		@ frame_needed = 0, uses_anonymous_args = 0
 405              		@ link register save eliminated.
 406              	.LVL40:
 407              		.loc 1 470 0
 408 0000 0021     		movs	r1, #0
 409 0002 4FF48C72 		mov	r2, #280
 410 0006 FFF7FEBF 		b	memset
 411              	.LVL41:
 412              		.cfi_endproc
 413              	.LFE2:
 414              		.size	aes_init, .-aes_init
 415 000a 00BFAFF3 		.section	.text.aes_free,"ax",%progbits
 415      0080
 416              		.align	2
 417              		.p2align 4,,15
 418              		.global	aes_free
 419              		.thumb
 420              		.thumb_func
 421              		.type	aes_free, %function
 422              	aes_free:
 423              	.LFB3:
 424              		.loc 1 474 0
 425              		.cfi_startproc
 426              		@ args = 0, pretend = 0, frame = 0
 427              		@ frame_needed = 0, uses_anonymous_args = 0
 428              		@ link register save eliminated.
 429              	.LVL42:
 430              		.loc 1 475 0
 431 0000 30B1     		cbz	r0, .L26
 432 0002 00F58C72 		add	r2, r0, #280
 433              	.LBB17:
 434              	.LBB18:
 435              		.loc 1 60 0
 436 0006 0023     		movs	r3, #0
 437              	.LVL43:
 438              	.L28:
 439 0008 0370     		strb	r3, [r0]
 440              	.LVL44:
 441 000a 0130     		adds	r0, r0, #1
 442              	.LVL45:
 443 000c 9042     		cmp	r0, r2
 444 000e FBD1     		bne	.L28
 445              	.LVL46:
 446              	.L26:
 447 0010 7047     		bx	lr
 448              	.LBE18:
 449              	.LBE17:
 450              		.cfi_endproc
 451              	.LFE3:
 452              		.size	aes_free, .-aes_free
 453 0012 00BFAFF3 		.section	.text.aes_setkey_enc,"ax",%progbits
 453      0080AFF3 
 453      0080AFF3 
ARM GAS  C:\Users\jo\AppData\Local\Temp\cc8AA3HA.s 			page 9


 453      0080
 454              		.align	2
 455              		.p2align 4,,15
 456              		.global	aes_setkey_enc
 457              		.thumb
 458              		.thumb_func
 459              		.type	aes_setkey_enc, %function
 460              	aes_setkey_enc:
 461              	.LFB4:
 462              		.loc 1 486 0
 463              		.cfi_startproc
 464              		@ args = 0, pretend = 0, frame = 8
 465              		@ frame_needed = 0, uses_anonymous_args = 0
 466              	.LVL47:
 467 0000 2DE9F04F 		push	{r4, r5, r6, r7, r8, r9, r10, fp, lr}
 468              		.cfi_def_cfa_offset 36
 469              		.cfi_offset 4, -36
 470              		.cfi_offset 5, -32
 471              		.cfi_offset 6, -28
 472              		.cfi_offset 7, -24
 473              		.cfi_offset 8, -20
 474              		.cfi_offset 9, -16
 475              		.cfi_offset 10, -12
 476              		.cfi_offset 11, -8
 477              		.cfi_offset 14, -4
 478              		.loc 1 491 0
 479 0004 814D     		ldr	r5, .L60
 480 0006 2B68     		ldr	r3, [r5]
 481              		.loc 1 486 0
 482 0008 83B0     		sub	sp, sp, #12
 483              		.cfi_def_cfa_offset 48
 484              		.loc 1 486 0
 485 000a 8046     		mov	r8, r0
 486 000c 8946     		mov	r9, r1
 487 000e 1446     		mov	r4, r2
 488              		.loc 1 491 0
 489 0010 A3B3     		cbz	r3, .L56
 490              		.loc 1 499 0
 491 0012 C02C     		cmp	r4, #192
 492 0014 38D0     		beq	.L34
 493              	.LVL48:
 494              	.L59:
 495 0016 B4F5807F 		cmp	r4, #256
 496 001a 39D0     		beq	.L35
 497 001c 802C     		cmp	r4, #128
 498 001e 04D0     		beq	.L57
 499              		.loc 1 504 0
 500 0020 6FF01F00 		mvn	r0, #31
 501              		.loc 1 591 0
 502 0024 03B0     		add	sp, sp, #12
 503              		.cfi_remember_state
 504              		.cfi_def_cfa_offset 36
 505              		@ sp needed
 506 0026 BDE8F08F 		pop	{r4, r5, r6, r7, r8, r9, r10, fp, pc}
 507              	.LVL49:
 508              	.L57:
 509              		.cfi_restore_state
ARM GAS  C:\Users\jo\AppData\Local\Temp\cc8AA3HA.s 			page 10


 510              		.loc 1 501 0
 511 002a 0A21     		movs	r1, #10
 512 002c C8F80010 		str	r1, [r8]
 513              	.L37:
 514              		.loc 1 515 0
 515 0030 4046     		mov	r0, r8
 516 0032 08F10803 		add	r3, r8, #8
 517              	.LVL50:
 518 0036 40F8043F 		str	r3, [r0, #4]!
 519              	.LVL51:
 520              		.loc 1 522 0
 521 003a 6209     		lsrs	r2, r4, #5
 522 003c 0027     		movs	r7, #0
 523              	.LVL52:
 524              	.L38:
 525              		.loc 1 524 0 discriminator 3
 526 003e 09EB870E 		add	lr, r9, r7, lsl #2
 527 0042 19F82750 		ldrb	r5, [r9, r7, lsl #2]	@ zero_extendqisi2
 528 0046 9EF80260 		ldrb	r6, [lr, #2]	@ zero_extendqisi2
 529 004a 9EF80140 		ldrb	r4, [lr, #1]	@ zero_extendqisi2
 530 004e 9EF803E0 		ldrb	lr, [lr, #3]	@ zero_extendqisi2
 531 0052 3604     		lsls	r6, r6, #16
 532 0054 46EA0424 		orr	r4, r6, r4, lsl #8
 533 0058 2C43     		orrs	r4, r4, r5
 534              		.loc 1 522 0 discriminator 3
 535 005a 0137     		adds	r7, r7, #1
 536              	.LVL53:
 537              		.loc 1 524 0 discriminator 3
 538 005c 44EA0E64 		orr	r4, r4, lr, lsl #24
 539              		.loc 1 522 0 discriminator 3
 540 0060 BA42     		cmp	r2, r7
 541              		.loc 1 524 0 discriminator 3
 542 0062 40F8044F 		str	r4, [r0, #4]!
 543              		.loc 1 522 0 discriminator 3
 544 0066 EAD8     		bhi	.L38
 545              		.loc 1 527 0
 546 0068 0C29     		cmp	r1, #12
 547 006a 15D0     		beq	.L39
 548 006c 0E29     		cmp	r1, #14
 549 006e 78D0     		beq	.L40
 550 0070 0A29     		cmp	r1, #10
 551 0072 49D0     		beq	.L58
 552              	.LVL54:
 553              	.L53:
 554              		.loc 1 590 0
 555 0074 0020     		movs	r0, #0
 556              		.loc 1 591 0
 557 0076 03B0     		add	sp, sp, #12
 558              		.cfi_remember_state
 559              		.cfi_def_cfa_offset 36
 560              		@ sp needed
 561 0078 BDE8F08F 		pop	{r4, r5, r6, r7, r8, r9, r10, fp, pc}
 562              	.LVL55:
 563              	.L56:
 564              		.cfi_restore_state
 565              		.loc 1 493 0
 566 007c FFF7FEFF 		bl	aes_gen_tables
ARM GAS  C:\Users\jo\AppData\Local\Temp\cc8AA3HA.s 			page 11


 567              	.LVL56:
 568              		.loc 1 494 0
 569 0080 0123     		movs	r3, #1
 570              		.loc 1 499 0
 571 0082 C02C     		cmp	r4, #192
 572              		.loc 1 494 0
 573 0084 2B60     		str	r3, [r5]
 574              		.loc 1 499 0
 575 0086 C6D1     		bne	.L59
 576              	.L34:
 577              		.loc 1 502 0
 578 0088 0C21     		movs	r1, #12
 579 008a C8F80010 		str	r1, [r8]
 580 008e CFE7     		b	.L37
 581              	.L35:
 582              		.loc 1 503 0
 583 0090 0E21     		movs	r1, #14
 584 0092 C8F80010 		str	r1, [r8]
 585 0096 CBE7     		b	.L37
 586              	.LVL57:
 587              	.L39:
 588 0098 5D48     		ldr	r0, .L60+4
 589 009a DFF87CE1 		ldr	lr, .L60+12
 590 009e 08F1C808 		add	r8, r8, #200
 591              	.LVL58:
 592              	.L43:
 593              		.loc 1 550 0 discriminator 3
 594 00a2 5969     		ldr	r1, [r3, #20]
 595              		.loc 1 557 0 discriminator 3
 596 00a4 DD68     		ldr	r5, [r3, #12]
 597 00a6 50F8044F 		ldr	r4, [r0, #4]!
 598 00aa 0195     		str	r5, [sp, #4]
 599              		.loc 1 550 0 discriminator 3
 600 00ac C1F30722 		ubfx	r2, r1, #8, #8
 601 00b0 1D68     		ldr	r5, [r3]
 602 00b2 1EF80220 		ldrb	r2, [lr, r2]	@ zero_extendqisi2
 603              		.loc 1 555 0 discriminator 3
 604 00b6 5F68     		ldr	r7, [r3, #4]
 605              		.loc 1 556 0 discriminator 3
 606 00b8 9E68     		ldr	r6, [r3, #8]
 607              		.loc 1 552 0 discriminator 3
 608 00ba 4FEA1169 		lsr	r9, r1, #24
 609              		.loc 1 553 0 discriminator 3
 610 00be 5FFA81FB 		uxtb	fp, r1
 611              		.loc 1 552 0 discriminator 3
 612 00c2 1EF809A0 		ldrb	r10, [lr, r9]	@ zero_extendqisi2
 613 00c6 85EA040C 		eor	ip, r5, r4
 614              		.loc 1 551 0 discriminator 3
 615 00ca C1F30749 		ubfx	r9, r1, #16, #8
 616 00ce 8CEA020C 		eor	ip, ip, r2
 617              		.loc 1 553 0 discriminator 3
 618 00d2 1EF80B20 		ldrb	r2, [lr, fp]	@ zero_extendqisi2
 619              		.loc 1 551 0 discriminator 3
 620 00d6 1EF80990 		ldrb	r9, [lr, r9]	@ zero_extendqisi2
 621              		.loc 1 557 0 discriminator 3
 622 00da 019D     		ldr	r5, [sp, #4]
 623              		.loc 1 558 0 discriminator 3
ARM GAS  C:\Users\jo\AppData\Local\Temp\cc8AA3HA.s 			page 12


 624 00dc 1C69     		ldr	r4, [r3, #16]
 625 00de 8CEA0A4C 		eor	ip, ip, r10, lsl #16
 626 00e2 8CEA0262 		eor	r2, ip, r2, lsl #24
 627              		.loc 1 552 0 discriminator 3
 628 00e6 82EA0922 		eor	r2, r2, r9, lsl #8
 629              		.loc 1 555 0 discriminator 3
 630 00ea 5740     		eors	r7, r7, r2
 631              		.loc 1 556 0 discriminator 3
 632 00ec 7E40     		eors	r6, r6, r7
 633              		.loc 1 557 0 discriminator 3
 634 00ee 7540     		eors	r5, r5, r6
 635              		.loc 1 558 0 discriminator 3
 636 00f0 6C40     		eors	r4, r4, r5
 637              		.loc 1 559 0 discriminator 3
 638 00f2 6140     		eors	r1, r1, r4
 639              		.loc 1 549 0 discriminator 3
 640 00f4 9A61     		str	r2, [r3, #24]
 641              		.loc 1 555 0 discriminator 3
 642 00f6 DF61     		str	r7, [r3, #28]
 643              		.loc 1 556 0 discriminator 3
 644 00f8 1E62     		str	r6, [r3, #32]
 645              		.loc 1 557 0 discriminator 3
 646 00fa 5D62     		str	r5, [r3, #36]
 647              		.loc 1 559 0 discriminator 3
 648 00fc D962     		str	r1, [r3, #44]
 649              		.loc 1 558 0 discriminator 3
 650 00fe 9C62     		str	r4, [r3, #40]
 651              		.loc 1 547 0 discriminator 3
 652 0100 1833     		adds	r3, r3, #24
 653              	.LVL59:
 654 0102 4345     		cmp	r3, r8
 655 0104 CDD1     		bne	.L43
 656 0106 B5E7     		b	.L53
 657              	.LVL60:
 658              	.L58:
 659 0108 4248     		ldr	r0, .L60+8
 660 010a DFF80CE1 		ldr	lr, .L60+12
 661 010e 08F1A808 		add	r8, r8, #168
 662              	.LVL61:
 663              	.L42:
 664              		.loc 1 534 0 discriminator 3
 665 0112 DF68     		ldr	r7, [r3, #12]
 666              		.loc 1 533 0 discriminator 3
 667 0114 50F8041B 		ldr	r1, [r0], #4
 668              		.loc 1 539 0 discriminator 3
 669 0118 5D68     		ldr	r5, [r3, #4]
 670              		.loc 1 540 0 discriminator 3
 671 011a 9C68     		ldr	r4, [r3, #8]
 672              		.loc 1 536 0 discriminator 3
 673 011c 3A0E     		lsrs	r2, r7, #24
 674              		.loc 1 534 0 discriminator 3
 675 011e C7F30726 		ubfx	r6, r7, #8, #8
 676              		.loc 1 536 0 discriminator 3
 677 0122 1EF802C0 		ldrb	ip, [lr, r2]	@ zero_extendqisi2
 678 0126 1A68     		ldr	r2, [r3]
 679              		.loc 1 534 0 discriminator 3
 680 0128 1EF80660 		ldrb	r6, [lr, r6]	@ zero_extendqisi2
ARM GAS  C:\Users\jo\AppData\Local\Temp\cc8AA3HA.s 			page 13


 681              		.loc 1 537 0 discriminator 3
 682 012c 5FFA87FA 		uxtb	r10, r7
 683 0130 5140     		eors	r1, r1, r2
 684              		.loc 1 535 0 discriminator 3
 685 0132 C7F30749 		ubfx	r9, r7, #16, #8
 686              		.loc 1 537 0 discriminator 3
 687 0136 1EF80A20 		ldrb	r2, [lr, r10]	@ zero_extendqisi2
 688 013a 7140     		eors	r1, r1, r6
 689 013c 81EA0C41 		eor	r1, r1, ip, lsl #16
 690              		.loc 1 535 0 discriminator 3
 691 0140 1EF80960 		ldrb	r6, [lr, r9]	@ zero_extendqisi2
 692 0144 81EA0262 		eor	r2, r1, r2, lsl #24
 693              		.loc 1 536 0 discriminator 3
 694 0148 82EA0622 		eor	r2, r2, r6, lsl #8
 695              		.loc 1 539 0 discriminator 3
 696 014c 5540     		eors	r5, r5, r2
 697              		.loc 1 540 0 discriminator 3
 698 014e 6C40     		eors	r4, r4, r5
 699              		.loc 1 541 0 discriminator 3
 700 0150 6740     		eors	r7, r7, r4
 701              		.loc 1 533 0 discriminator 3
 702 0152 1A61     		str	r2, [r3, #16]
 703              		.loc 1 539 0 discriminator 3
 704 0154 5D61     		str	r5, [r3, #20]
 705              		.loc 1 541 0 discriminator 3
 706 0156 DF61     		str	r7, [r3, #28]
 707              		.loc 1 540 0 discriminator 3
 708 0158 9C61     		str	r4, [r3, #24]
 709              		.loc 1 531 0 discriminator 3
 710 015a 1033     		adds	r3, r3, #16
 711              	.LVL62:
 712 015c 4345     		cmp	r3, r8
 713 015e D8D1     		bne	.L42
 714 0160 88E7     		b	.L53
 715              	.LVL63:
 716              	.L40:
 717 0162 DFF8ACC0 		ldr	ip, .L60+4
 718 0166 DFF8B0E0 		ldr	lr, .L60+12
 719 016a 08F1E808 		add	r8, r8, #232
 720              	.LVL64:
 721              	.L45:
 722              		.loc 1 568 0 discriminator 3
 723 016e D869     		ldr	r0, [r3, #28]
 724 0170 5CF8042F 		ldr	r2, [ip, #4]!
 725 0174 1C68     		ldr	r4, [r3]
 726              		.loc 1 573 0 discriminator 3
 727 0176 5F68     		ldr	r7, [r3, #4]
 728              		.loc 1 574 0 discriminator 3
 729 0178 9E68     		ldr	r6, [r3, #8]
 730              		.loc 1 575 0 discriminator 3
 731 017a D968     		ldr	r1, [r3, #12]
 732              		.loc 1 583 0 discriminator 3
 733 017c 5D69     		ldr	r5, [r3, #20]
 734              		.loc 1 568 0 discriminator 3
 735 017e C0F30729 		ubfx	r9, r0, #8, #8
 736              		.loc 1 570 0 discriminator 3
 737 0182 4FEA106A 		lsr	r10, r0, #24
ARM GAS  C:\Users\jo\AppData\Local\Temp\cc8AA3HA.s 			page 14


 738              		.loc 1 568 0 discriminator 3
 739 0186 1EF80990 		ldrb	r9, [lr, r9]	@ zero_extendqisi2
 740              		.loc 1 570 0 discriminator 3
 741 018a 1EF80AA0 		ldrb	r10, [lr, r10]	@ zero_extendqisi2
 742 018e 84EA020B 		eor	fp, r4, r2
 743 0192 8BEA0909 		eor	r9, fp, r9
 744              		.loc 1 571 0 discriminator 3
 745 0196 5FFA80FB 		uxtb	fp, r0
 746 019a 89EA0A4A 		eor	r10, r9, r10, lsl #16
 747              		.loc 1 569 0 discriminator 3
 748 019e C0F30749 		ubfx	r9, r0, #16, #8
 749              		.loc 1 571 0 discriminator 3
 750 01a2 1EF80BB0 		ldrb	fp, [lr, fp]	@ zero_extendqisi2
 751              		.loc 1 569 0 discriminator 3
 752 01a6 1EF80990 		ldrb	r9, [lr, r9]	@ zero_extendqisi2
 753 01aa 8AEA0B6A 		eor	r10, r10, fp, lsl #24
 754              		.loc 1 570 0 discriminator 3
 755 01ae 8AEA0924 		eor	r4, r10, r9, lsl #8
 756              		.loc 1 573 0 discriminator 3
 757 01b2 84EA0702 		eor	r2, r4, r7
 758              		.loc 1 574 0 discriminator 3
 759 01b6 5640     		eors	r6, r6, r2
 760              		.loc 1 575 0 discriminator 3
 761 01b8 86EA0107 		eor	r7, r6, r1
 762              		.loc 1 578 0 discriminator 3
 763 01bc F9B2     		uxtb	r1, r7
 764              		.loc 1 567 0 discriminator 3
 765 01be 1C62     		str	r4, [r3, #32]
 766              		.loc 1 573 0 discriminator 3
 767 01c0 5A62     		str	r2, [r3, #36]
 768              		.loc 1 574 0 discriminator 3
 769 01c2 9E62     		str	r6, [r3, #40]
 770              		.loc 1 575 0 discriminator 3
 771 01c4 DF62     		str	r7, [r3, #44]
 772              		.loc 1 581 0 discriminator 3
 773 01c6 3E0E     		lsrs	r6, r7, #24
 774              		.loc 1 578 0 discriminator 3
 775 01c8 1EF80110 		ldrb	r1, [lr, r1]	@ zero_extendqisi2
 776 01cc 1A69     		ldr	r2, [r3, #16]
 777              		.loc 1 581 0 discriminator 3
 778 01ce 1EF80690 		ldrb	r9, [lr, r6]	@ zero_extendqisi2
 779              		.loc 1 579 0 discriminator 3
 780 01d2 C7F3072A 		ubfx	r10, r7, #8, #8
 781              		.loc 1 580 0 discriminator 3
 782 01d6 C7F30747 		ubfx	r7, r7, #16, #8
 783 01da 81EA0206 		eor	r6, r1, r2
 784              		.loc 1 579 0 discriminator 3
 785 01de 1EF80A20 		ldrb	r2, [lr, r10]	@ zero_extendqisi2
 786              		.loc 1 580 0 discriminator 3
 787 01e2 1EF80770 		ldrb	r7, [lr, r7]	@ zero_extendqisi2
 788 01e6 86EA0961 		eor	r1, r6, r9, lsl #24
 789 01ea 81EA0222 		eor	r2, r1, r2, lsl #8
 790 01ee 82EA0742 		eor	r2, r2, r7, lsl #16
 791              		.loc 1 584 0 discriminator 3
 792 01f2 9969     		ldr	r1, [r3, #24]
 793              		.loc 1 577 0 discriminator 3
 794 01f4 1A63     		str	r2, [r3, #48]
ARM GAS  C:\Users\jo\AppData\Local\Temp\cc8AA3HA.s 			page 15


 795              		.loc 1 583 0 discriminator 3
 796 01f6 5540     		eors	r5, r5, r2
 797              		.loc 1 584 0 discriminator 3
 798 01f8 85EA0104 		eor	r4, r5, r1
 799              		.loc 1 585 0 discriminator 3
 800 01fc 6040     		eors	r0, r0, r4
 801              		.loc 1 583 0 discriminator 3
 802 01fe 5D63     		str	r5, [r3, #52]
 803              		.loc 1 585 0 discriminator 3
 804 0200 D863     		str	r0, [r3, #60]
 805              		.loc 1 584 0 discriminator 3
 806 0202 9C63     		str	r4, [r3, #56]
 807              		.loc 1 565 0 discriminator 3
 808 0204 2033     		adds	r3, r3, #32
 809              	.LVL65:
 810 0206 4345     		cmp	r3, r8
 811 0208 B1D1     		bne	.L45
 812 020a 33E7     		b	.L53
 813              	.L61:
 814              		.align	2
 815              	.L60:
 816 020c 00000000 		.word	.LANCHOR11
 817 0210 FCFFFFFF 		.word	.LANCHOR0-4
 818 0214 00000000 		.word	.LANCHOR0
 819 0218 00000000 		.word	.LANCHOR1
 820              		.cfi_endproc
 821              	.LFE4:
 822              		.size	aes_setkey_enc, .-aes_setkey_enc
 823 021c AFF30080 		.section	.text.aes_setkey_dec,"ax",%progbits
 824              		.align	2
 825              		.p2align 4,,15
 826              		.global	aes_setkey_dec
 827              		.thumb
 828              		.thumb_func
 829              		.type	aes_setkey_dec, %function
 830              	aes_setkey_dec:
 831              	.LFB5:
 832              		.loc 1 598 0
 833              		.cfi_startproc
 834              		@ args = 0, pretend = 0, frame = 304
 835              		@ frame_needed = 0, uses_anonymous_args = 0
 836              	.LVL66:
 837 0000 2DE9F04F 		push	{r4, r5, r6, r7, r8, r9, r10, fp, lr}
 838              		.cfi_def_cfa_offset 36
 839              		.cfi_offset 4, -36
 840              		.cfi_offset 5, -32
 841              		.cfi_offset 6, -28
 842              		.cfi_offset 7, -24
 843              		.cfi_offset 8, -20
 844              		.cfi_offset 9, -16
 845              		.cfi_offset 10, -12
 846              		.cfi_offset 11, -8
 847              		.cfi_offset 14, -4
 848 0004 CDB0     		sub	sp, sp, #308
 849              		.cfi_def_cfa_offset 344
 850              	.LVL67:
 851              		.loc 1 598 0
ARM GAS  C:\Users\jo\AppData\Local\Temp\cc8AA3HA.s 			page 16


 852 0006 0546     		mov	r5, r0
 853 0008 0E46     		mov	r6, r1
 854 000a 1446     		mov	r4, r2
 855              	.LBB19:
 856              	.LBB20:
 857              		.loc 1 470 0
 858 000c 0021     		movs	r1, #0
 859              	.LVL68:
 860 000e 4FF48C72 		mov	r2, #280
 861              	.LVL69:
 862 0012 06A8     		add	r0, sp, #24
 863              	.LVL70:
 864 0014 FFF7FEFF 		bl	memset
 865              	.LVL71:
 866              	.LBE20:
 867              	.LBE19:
 868              		.loc 1 614 0
 869 0018 05F10803 		add	r3, r5, #8
 870              	.LVL72:
 871              		.loc 1 617 0
 872 001c 3146     		mov	r1, r6
 873 001e 2246     		mov	r2, r4
 874              		.loc 1 614 0
 875 0020 6B60     		str	r3, [r5, #4]
 876              		.loc 1 617 0
 877 0022 06A8     		add	r0, sp, #24
 878              	.LVL73:
 879 0024 FFF7FEFF 		bl	aes_setkey_enc
 880              	.LVL74:
 881 0028 0190     		str	r0, [sp, #4]
 882 002a 0028     		cmp	r0, #0
 883 002c 65D1     		bne	.L63
 884              		.loc 1 620 0
 885 002e 069B     		ldr	r3, [sp, #24]
 886 0030 0493     		str	r3, [sp, #16]
 887 0032 1A46     		mov	r2, r3
 888              		.loc 1 631 0
 889 0034 1101     		lsls	r1, r2, #4
 890 0036 079B     		ldr	r3, [sp, #28]
 891              		.loc 1 620 0
 892 0038 2A60     		str	r2, [r5]
 893              		.loc 1 631 0
 894 003a 03EB010A 		add	r10, r3, r1
 895              	.LVL75:
 896              		.loc 1 633 0
 897 003e 5B58     		ldr	r3, [r3, r1]
 898 0040 AB60     		str	r3, [r5, #8]
 899              	.LVL76:
 900              		.loc 1 634 0
 901 0042 DAF80430 		ldr	r3, [r10, #4]
 902 0046 EB60     		str	r3, [r5, #12]
 903              	.LVL77:
 904              		.loc 1 635 0
 905 0048 DAF80830 		ldr	r3, [r10, #8]
 906 004c 2B61     		str	r3, [r5, #16]
 907              		.loc 1 636 0
 908 004e DAF80C30 		ldr	r3, [r10, #12]
ARM GAS  C:\Users\jo\AppData\Local\Temp\cc8AA3HA.s 			page 17


 909 0052 6B61     		str	r3, [r5, #20]
 910              		.loc 1 638 0
 911 0054 02F1FF3B 		add	fp, r2, #-1
 912 0058 AAF11003 		sub	r3, r10, #16
 913 005c 0393     		str	r3, [sp, #12]
 914 005e BBF1000F 		cmp	fp, #0
 915              		.loc 1 636 0
 916 0062 05F11803 		add	r3, r5, #24
 917              		.loc 1 631 0
 918 0066 0591     		str	r1, [sp, #20]
 919              		.loc 1 636 0
 920 0068 0293     		str	r3, [sp, #8]
 921              	.LVL78:
 922              		.loc 1 638 0
 923 006a 3BDD     		ble	.L64
 924 006c DFF8A490 		ldr	r9, .L72+4
 925 0070 274C     		ldr	r4, .L72
 926              	.LVL79:
 927 0072 DFF8A480 		ldr	r8, .L72+8
 928 0076 DFF8A4C0 		ldr	ip, .L72+12
 929 007a DFF8A4E0 		ldr	lr, .L72+16
 930 007e AAF1140A 		sub	r10, r10, #20
 931 0082 1435     		adds	r5, r5, #20
 932              	.LVL80:
 933              	.L65:
 934 0084 05F11006 		add	r6, r5, #16
 935              		.loc 1 598 0 discriminator 1
 936 0088 5046     		mov	r0, r10
 937              	.LVL81:
 938              	.L66:
 939              		.loc 1 642 0 discriminator 3
 940 008a 50F8043F 		ldr	r3, [r0, #4]!
 941              	.LVL82:
 942              		.loc 1 645 0 discriminator 3
 943 008e 1F0E     		lsrs	r7, r3, #24
 944              		.loc 1 642 0 discriminator 3
 945 0090 D9B2     		uxtb	r1, r3
 946              		.loc 1 643 0 discriminator 3
 947 0092 C3F30722 		ubfx	r2, r3, #8, #8
 948              		.loc 1 645 0 discriminator 3
 949 0096 E75D     		ldrb	r7, [r4, r7]	@ zero_extendqisi2
 950              		.loc 1 642 0 discriminator 3
 951 0098 615C     		ldrb	r1, [r4, r1]	@ zero_extendqisi2
 952              		.loc 1 643 0 discriminator 3
 953 009a A25C     		ldrb	r2, [r4, r2]	@ zero_extendqisi2
 954 009c 59F82770 		ldr	r7, [r9, r7, lsl #2]
 955 00a0 58F82110 		ldr	r1, [r8, r1, lsl #2]
 956 00a4 5CF82220 		ldr	r2, [ip, r2, lsl #2]
 957              		.loc 1 644 0 discriminator 3
 958 00a8 C3F30743 		ubfx	r3, r3, #16, #8
 959 00ac 7940     		eors	r1, r1, r7
 960 00ae E35C     		ldrb	r3, [r4, r3]	@ zero_extendqisi2
 961 00b0 5EF82330 		ldr	r3, [lr, r3, lsl #2]
 962 00b4 4A40     		eors	r2, r2, r1
 963 00b6 5A40     		eors	r2, r2, r3
 964              		.loc 1 642 0 discriminator 3
 965 00b8 45F8042F 		str	r2, [r5, #4]!
ARM GAS  C:\Users\jo\AppData\Local\Temp\cc8AA3HA.s 			page 18


 966              	.LVL83:
 967              		.loc 1 640 0 discriminator 3
 968 00bc AE42     		cmp	r6, r5
 969 00be E4D1     		bne	.L66
 970              	.LVL84:
 971              		.loc 1 638 0
 972 00c0 BBF1010B 		subs	fp, fp, #1
 973              	.LVL85:
 974 00c4 AAF1100A 		sub	r10, r10, #16
 975              	.LVL86:
 976 00c8 3546     		mov	r5, r6
 977 00ca DBD1     		bne	.L65
 978              	.LVL87:
 979 00cc 049B     		ldr	r3, [sp, #16]
 980 00ce 0399     		ldr	r1, [sp, #12]
 981 00d0 059A     		ldr	r2, [sp, #20]
 982 00d2 1B01     		lsls	r3, r3, #4
 983 00d4 C3F11003 		rsb	r3, r3, #16
 984 00d8 1944     		add	r1, r1, r3
 985 00da 029B     		ldr	r3, [sp, #8]
 986 00dc 0391     		str	r1, [sp, #12]
 987 00de 103A     		subs	r2, r2, #16
 988 00e0 1344     		add	r3, r3, r2
 989 00e2 0293     		str	r3, [sp, #8]
 990              	.LVL88:
 991              	.L64:
 992              		.loc 1 649 0
 993 00e4 0399     		ldr	r1, [sp, #12]
 994 00e6 029C     		ldr	r4, [sp, #8]
 995 00e8 0B68     		ldr	r3, [r1]
 996 00ea 2360     		str	r3, [r4]
 997              	.LVL89:
 998              		.loc 1 650 0
 999 00ec 4B68     		ldr	r3, [r1, #4]
 1000 00ee 6360     		str	r3, [r4, #4]
 1001              	.LVL90:
 1002              		.loc 1 651 0
 1003 00f0 8B68     		ldr	r3, [r1, #8]
 1004 00f2 A360     		str	r3, [r4, #8]
 1005              	.LVL91:
 1006              		.loc 1 650 0
 1007 00f4 0A46     		mov	r2, r1
 1008              		.loc 1 652 0
 1009 00f6 D368     		ldr	r3, [r2, #12]
 1010 00f8 E360     		str	r3, [r4, #12]
 1011              	.LVL92:
 1012              	.L63:
 1013              		.loc 1 598 0
 1014 00fa 06AB     		add	r3, sp, #24
 1015              	.LVL93:
 1016              	.LBB21:
 1017              	.LBB22:
 1018              	.LBB23:
 1019              		.loc 1 60 0
 1020 00fc 0022     		movs	r2, #0
 1021              	.LVL94:
 1022              	.L67:
ARM GAS  C:\Users\jo\AppData\Local\Temp\cc8AA3HA.s 			page 19


 1023 00fe 1A70     		strb	r2, [r3]
 1024              	.LVL95:
 1025 0100 4CA9     		add	r1, sp, #304
 1026 0102 0133     		adds	r3, r3, #1
 1027              	.LVL96:
 1028 0104 8B42     		cmp	r3, r1
 1029 0106 FAD1     		bne	.L67
 1030              	.LBE23:
 1031              	.LBE22:
 1032              	.LBE21:
 1033              		.loc 1 658 0
 1034 0108 0198     		ldr	r0, [sp, #4]
 1035 010a 4DB0     		add	sp, sp, #308
 1036              		.cfi_def_cfa_offset 36
 1037              		@ sp needed
 1038 010c BDE8F08F 		pop	{r4, r5, r6, r7, r8, r9, r10, fp, pc}
 1039              	.LVL97:
 1040              	.L73:
 1041              		.align	2
 1042              	.L72:
 1043 0110 00000000 		.word	.LANCHOR1
 1044 0114 00000000 		.word	.LANCHOR6
 1045 0118 00000000 		.word	.LANCHOR3
 1046 011c 00000000 		.word	.LANCHOR4
 1047 0120 00000000 		.word	.LANCHOR5
 1048              		.cfi_endproc
 1049              	.LFE5:
 1050              		.size	aes_setkey_dec, .-aes_setkey_dec
 1051 0124 AFF30080 		.section	.text.aes_crypt_ecb,"ax",%progbits
 1051      AFF30080 
 1051      AFF30080 
 1052              		.align	2
 1053              		.p2align 4,,15
 1054              		.global	aes_crypt_ecb
 1055              		.thumb
 1056              		.thumb_func
 1057              		.type	aes_crypt_ecb, %function
 1058              	aes_crypt_ecb:
 1059              	.LFB6:
 1060              		.loc 1 713 0
 1061              		.cfi_startproc
 1062              		@ args = 0, pretend = 0, frame = 48
 1063              		@ frame_needed = 0, uses_anonymous_args = 0
 1064              	.LVL98:
 1065 0000 2DE9F04F 		push	{r4, r5, r6, r7, r8, r9, r10, fp, lr}
 1066              		.cfi_def_cfa_offset 36
 1067              		.cfi_offset 4, -36
 1068              		.cfi_offset 5, -32
 1069              		.cfi_offset 6, -28
 1070              		.cfi_offset 7, -24
 1071              		.cfi_offset 8, -20
 1072              		.cfi_offset 9, -16
 1073              		.cfi_offset 10, -12
 1074              		.cfi_offset 11, -8
 1075              		.cfi_offset 14, -4
 1076              		.loc 1 736 0
 1077 0004 92F802C0 		ldrb	ip, [r2, #2]	@ zero_extendqisi2
ARM GAS  C:\Users\jo\AppData\Local\Temp\cc8AA3HA.s 			page 20


 1078              		.loc 1 739 0
 1079 0008 967B     		ldrb	r6, [r2, #14]	@ zero_extendqisi2
 1080              		.loc 1 736 0
 1081 000a 92F801E0 		ldrb	lr, [r2, #1]	@ zero_extendqisi2
 1082              		.loc 1 739 0
 1083 000e 92F80D80 		ldrb	r8, [r2, #13]	@ zero_extendqisi2
 1084              		.loc 1 734 0
 1085 0012 4568     		ldr	r5, [r0, #4]
 1086              	.LVL99:
 1087              		.loc 1 736 0
 1088 0014 92F800A0 		ldrb	r10, [r2]	@ zero_extendqisi2
 1089              		.loc 1 737 0
 1090 0018 9479     		ldrb	r4, [r2, #6]	@ zero_extendqisi2
 1091              		.loc 1 738 0
 1092 001a 977A     		ldrb	r7, [r2, #10]	@ zero_extendqisi2
 1093              		.loc 1 737 0
 1094 001c 92F805B0 		ldrb	fp, [r2, #5]	@ zero_extendqisi2
 1095              		.loc 1 738 0
 1096 0020 92F80990 		ldrb	r9, [r2, #9]	@ zero_extendqisi2
 1097              		.loc 1 713 0
 1098 0024 8DB0     		sub	sp, sp, #52
 1099              		.cfi_def_cfa_offset 88
 1100              		.loc 1 736 0
 1101 0026 4FEA0C4C 		lsl	ip, ip, #16
 1102              		.loc 1 739 0
 1103 002a 3604     		lsls	r6, r6, #16
 1104 002c 4CEA0E2C 		orr	ip, ip, lr, lsl #8
 1105 0030 46EA0826 		orr	r6, r6, r8, lsl #8
 1106              		.loc 1 736 0
 1107 0034 92F80380 		ldrb	r8, [r2, #3]	@ zero_extendqisi2
 1108              		.loc 1 713 0
 1109 0038 0190     		str	r0, [sp, #4]
 1110              		.loc 1 738 0
 1111 003a 3F04     		lsls	r7, r7, #16
 1112              		.loc 1 737 0
 1113 003c 1079     		ldrb	r0, [r2, #4]	@ zero_extendqisi2
 1114              	.LVL100:
 1115              		.loc 1 713 0
 1116 003e 0A93     		str	r3, [sp, #40]
 1117              		.loc 1 736 0
 1118 0040 4CEA0A0C 		orr	ip, ip, r10
 1119 0044 2B68     		ldr	r3, [r5]
 1120              	.LVL101:
 1121              		.loc 1 738 0
 1122 0046 92F808E0 		ldrb	lr, [r2, #8]	@ zero_extendqisi2
 1123 004a 92F80BA0 		ldrb	r10, [r2, #11]	@ zero_extendqisi2
 1124              		.loc 1 737 0
 1125 004e 2404     		lsls	r4, r4, #16
 1126 0050 44EA0B24 		orr	r4, r4, fp, lsl #8
 1127 0054 47EA0929 		orr	r9, r7, r9, lsl #8
 1128              		.loc 1 736 0
 1129 0058 4CEA0868 		orr	r8, ip, r8, lsl #24
 1130              	.LVL102:
 1131              		.loc 1 737 0
 1132 005c D779     		ldrb	r7, [r2, #7]	@ zero_extendqisi2
 1133              		.loc 1 739 0
 1134 005e 92F80CB0 		ldrb	fp, [r2, #12]	@ zero_extendqisi2
ARM GAS  C:\Users\jo\AppData\Local\Temp\cc8AA3HA.s 			page 21


 1135 0062 D27B     		ldrb	r2, [r2, #15]	@ zero_extendqisi2
 1136              	.LVL103:
 1137              		.loc 1 737 0
 1138 0064 0443     		orrs	r4, r4, r0
 1139              		.loc 1 736 0
 1140 0066 88EA0308 		eor	r8, r8, r3
 1141              	.LVL104:
 1142              		.loc 1 737 0
 1143 006a 6B68     		ldr	r3, [r5, #4]
 1144 006c 44EA0764 		orr	r4, r4, r7, lsl #24
 1145              	.LVL105:
 1146 0070 6340     		eors	r3, r3, r4
 1147              		.loc 1 738 0
 1148 0072 49EA0E0E 		orr	lr, r9, lr
 1149              		.loc 1 737 0
 1150 0076 0393     		str	r3, [sp, #12]
 1151              	.LVL106:
 1152              		.loc 1 738 0
 1153 0078 AB68     		ldr	r3, [r5, #8]
 1154              	.LVL107:
 1155 007a 4EEA0A67 		orr	r7, lr, r10, lsl #24
 1156              	.LVL108:
 1157              		.loc 1 739 0
 1158 007e 46EA0B06 		orr	r6, r6, fp
 1159              		.loc 1 738 0
 1160 0082 5F40     		eors	r7, r7, r3
 1161              	.LVL109:
 1162              		.loc 1 739 0
 1163 0084 EB68     		ldr	r3, [r5, #12]
 1164 0086 46EA0262 		orr	r2, r6, r2, lsl #24
 1165              	.LVL110:
 1166 008a 5A40     		eors	r2, r2, r3
 1167              	.LVL111:
 1168 008c 05F11003 		add	r3, r5, #16
 1169 0090 0993     		str	r3, [sp, #36]
 1170              	.LVL112:
 1171              		.loc 1 743 0
 1172 0092 019B     		ldr	r3, [sp, #4]
 1173              	.LVL113:
 1174 0094 1B68     		ldr	r3, [r3]
 1175 0096 5B10     		asrs	r3, r3, #1
 1176 0098 0B93     		str	r3, [sp, #44]
 1177 009a 013B     		subs	r3, r3, #1
 1178              		.loc 1 741 0
 1179 009c 0029     		cmp	r1, #0
 1180 009e 40F01482 		bne	.L75
 1181              		.loc 1 743 0
 1182 00a2 0693     		str	r3, [sp, #24]
 1183              	.LVL114:
 1184 00a4 002B     		cmp	r3, #0
 1185 00a6 D04B     		ldr	r3, .L88
 1186              	.LVL115:
 1187 00a8 0493     		str	r3, [sp, #16]
 1188 00aa D04B     		ldr	r3, .L88+4
 1189 00ac 0293     		str	r3, [sp, #8]
 1190 00ae D04B     		ldr	r3, .L88+8
 1191 00b0 DFF844A3 		ldr	r10, .L88+16
ARM GAS  C:\Users\jo\AppData\Local\Temp\cc8AA3HA.s 			page 22


 1192 00b4 0193     		str	r3, [sp, #4]
 1193              	.LVL116:
 1194 00b6 40F3EA80 		ble	.L76
 1195 00ba 05F13009 		add	r9, r5, #48
 1196 00be 0597     		str	r7, [sp, #20]
 1197              	.LVL117:
 1198              	.L77:
 1199              		.loc 1 745 0 discriminator 3
 1200 00c0 039C     		ldr	r4, [sp, #12]
 1201 00c2 049F     		ldr	r7, [sp, #16]
 1202 00c4 DDF814B0 		ldr	fp, [sp, #20]
 1203 00c8 E5B2     		uxtb	r5, r4
 1204 00ca D0B2     		uxtb	r0, r2
 1205 00cc 230E     		lsrs	r3, r4, #24
 1206 00ce 029C     		ldr	r4, [sp, #8]
 1207 00d0 57F825C0 		ldr	ip, [r7, r5, lsl #2]
 1208 00d4 54F823E0 		ldr	lr, [r4, r3, lsl #2]
 1209 00d8 57F82050 		ldr	r5, [r7, r0, lsl #2]
 1210 00dc 59F8143C 		ldr	r3, [r9, #-20]
 1211 00e0 5FFA8BF1 		uxtb	r1, fp
 1212 00e4 6B40     		eors	r3, r3, r5
 1213 00e6 57F82100 		ldr	r0, [r7, r1, lsl #2]
 1214 00ea 59F81C1C 		ldr	r1, [r9, #-28]
 1215 00ee 150E     		lsrs	r5, r2, #24
 1216 00f0 8CEA010C 		eor	ip, ip, r1
 1217 00f4 5946     		mov	r1, fp
 1218 00f6 54F825B0 		ldr	fp, [r4, r5, lsl #2]
 1219 00fa 59F8185C 		ldr	r5, [r9, #-24]
 1220 00fe 6840     		eors	r0, r0, r5
 1221 0100 4FEA1865 		lsr	r5, r8, #24
 1222 0104 5FFA88F6 		uxtb	r6, r8
 1223 0108 54F82550 		ldr	r5, [r4, r5, lsl #2]
 1224 010c 57F82660 		ldr	r6, [r7, r6, lsl #2]
 1225 0110 59F8207C 		ldr	r7, [r9, #-32]
 1226 0114 6B40     		eors	r3, r3, r5
 1227 0116 090E     		lsrs	r1, r1, #24
 1228 0118 059D     		ldr	r5, [sp, #20]
 1229 011a 54F82110 		ldr	r1, [r4, r1, lsl #2]
 1230 011e 039C     		ldr	r4, [sp, #12]
 1231 0120 7E40     		eors	r6, r6, r7
 1232 0122 80EA0B00 		eor	r0, r0, fp
 1233 0126 C5F3072B 		ubfx	fp, r5, #8, #8
 1234 012a 86EA0E06 		eor	r6, r6, lr
 1235 012e 5AF82B70 		ldr	r7, [r10, fp, lsl #2]
 1236 0132 0796     		str	r6, [sp, #28]
 1237 0134 C2F3072E 		ubfx	lr, r2, #8, #8
 1238 0138 019E     		ldr	r6, [sp, #4]
 1239 013a 5AF82EE0 		ldr	lr, [r10, lr, lsl #2]
 1240 013e 8CEA0101 		eor	r1, ip, r1
 1241 0142 C4F3072B 		ubfx	fp, r4, #8, #8
 1242 0146 C8F3072C 		ubfx	ip, r8, #8, #8
 1243 014a C2F30742 		ubfx	r2, r2, #16, #8
 1244              	.LVL118:
 1245 014e C8F30748 		ubfx	r8, r8, #16, #8
 1246              	.LVL119:
 1247 0152 C5F30745 		ubfx	r5, r5, #16, #8
 1248 0156 C4F30744 		ubfx	r4, r4, #16, #8
ARM GAS  C:\Users\jo\AppData\Local\Temp\cc8AA3HA.s 			page 23


 1249 015a 56F82220 		ldr	r2, [r6, r2, lsl #2]
 1250 015e 56F82440 		ldr	r4, [r6, r4, lsl #2]
 1251 0162 56F82880 		ldr	r8, [r6, r8, lsl #2]
 1252 0166 56F82550 		ldr	r5, [r6, r5, lsl #2]
 1253 016a 079E     		ldr	r6, [sp, #28]
 1254 016c 5AF82CC0 		ldr	ip, [r10, ip, lsl #2]
 1255 0170 5AF82BB0 		ldr	fp, [r10, fp, lsl #2]
 1256 0174 86EA0E06 		eor	r6, r6, lr
 1257 0178 7540     		eors	r5, r5, r6
 1258              	.LVL120:
 1259 017a 2E46     		mov	r6, r5
 1260 017c 81EA0C01 		eor	r1, r1, ip
 1261 0180 7B40     		eors	r3, r3, r7
 1262              		.loc 1 746 0 discriminator 3
 1263 0182 0396     		str	r6, [sp, #12]
 1264              	.LVL121:
 1265 0184 C6F30727 		ubfx	r7, r6, #8, #8
 1266 0188 EDB2     		uxtb	r5, r5
 1267              	.LVL122:
 1268 018a 049E     		ldr	r6, [sp, #16]
 1269              	.LVL123:
 1270              		.loc 1 745 0 discriminator 3
 1271 018c 6340     		eors	r3, r3, r4
 1272 018e 5140     		eors	r1, r1, r2
 1273              	.LVL124:
 1274 0190 80EA0B00 		eor	r0, r0, fp
 1275 0194 80EA0808 		eor	r8, r0, r8
 1276              	.LVL125:
 1277 0198 56F82550 		ldr	r5, [r6, r5, lsl #2]
 1278 019c 029E     		ldr	r6, [sp, #8]
 1279              		.loc 1 746 0 discriminator 3
 1280 019e C3F3072C 		ubfx	ip, r3, #8, #8
 1281 01a2 080E     		lsrs	r0, r1, #24
 1282 01a4 B346     		mov	fp, r6
 1283 01a6 56F82000 		ldr	r0, [r6, r0, lsl #2]
 1284 01aa 5AF82C60 		ldr	r6, [r10, ip, lsl #2]
 1285 01ae 0596     		str	r6, [sp, #20]
 1286              	.LVL126:
 1287 01b0 C8F30744 		ubfx	r4, r8, #16, #8
 1288 01b4 019E     		ldr	r6, [sp, #4]
 1289 01b6 5AF827C0 		ldr	ip, [r10, r7, lsl #2]
 1290 01ba 56F82440 		ldr	r4, [r6, r4, lsl #2]
 1291 01be 049E     		ldr	r6, [sp, #16]
 1292 01c0 0794     		str	r4, [sp, #28]
 1293 01c2 4FEA186E 		lsr	lr, r8, #24
 1294 01c6 CAB2     		uxtb	r2, r1
 1295 01c8 5BF82E40 		ldr	r4, [fp, lr, lsl #2]
 1296 01cc 56F82220 		ldr	r2, [r6, r2, lsl #2]
 1297 01d0 59F8107C 		ldr	r7, [r9, #-16]
 1298 01d4 82EA040B 		eor	fp, r2, r4
 1299 01d8 6840     		eors	r0, r0, r5
 1300 01da 019A     		ldr	r2, [sp, #4]
 1301 01dc C3F30745 		ubfx	r5, r3, #16, #8
 1302 01e0 5FFA88F4 		uxtb	r4, r8
 1303 01e4 52F82550 		ldr	r5, [r2, r5, lsl #2]
 1304 01e8 59F80C2C 		ldr	r2, [r9, #-12]
 1305 01ec 0895     		str	r5, [sp, #32]
ARM GAS  C:\Users\jo\AppData\Local\Temp\cc8AA3HA.s 			page 24


 1306 01ee 7840     		eors	r0, r0, r7
 1307 01f0 8BEA020B 		eor	fp, fp, r2
 1308 01f4 029F     		ldr	r7, [sp, #8]
 1309 01f6 56F82450 		ldr	r5, [r6, r4, lsl #2]
 1310 01fa 1A0E     		lsrs	r2, r3, #24
 1311 01fc DBB2     		uxtb	r3, r3
 1312              	.LVL127:
 1313 01fe 57F82270 		ldr	r7, [r7, r2, lsl #2]
 1314 0202 56F82330 		ldr	r3, [r6, r3, lsl #2]
 1315 0206 019E     		ldr	r6, [sp, #4]
 1316 0208 C1F30722 		ubfx	r2, r1, #8, #8
 1317 020c 85EA070E 		eor	lr, r5, r7
 1318 0210 C1F30741 		ubfx	r1, r1, #16, #8
 1319              	.LVL128:
 1320 0214 039D     		ldr	r5, [sp, #12]
 1321 0216 5AF82270 		ldr	r7, [r10, r2, lsl #2]
 1322 021a 59F8082C 		ldr	r2, [r9, #-8]
 1323 021e 56F82110 		ldr	r1, [r6, r1, lsl #2]
 1324 0222 8EEA020E 		eor	lr, lr, r2
 1325 0226 C5F30746 		ubfx	r6, r5, #16, #8
 1326 022a 2A0E     		lsrs	r2, r5, #24
 1327 022c 029D     		ldr	r5, [sp, #8]
 1328 022e 55F82220 		ldr	r2, [r5, r2, lsl #2]
 1329 0232 019D     		ldr	r5, [sp, #4]
 1330 0234 5A40     		eors	r2, r2, r3
 1331 0236 059B     		ldr	r3, [sp, #20]
 1332 0238 55F82660 		ldr	r6, [r5, r6, lsl #2]
 1333 023c 089D     		ldr	r5, [sp, #32]
 1334 023e C8F30728 		ubfx	r8, r8, #8, #8
 1335              	.LVL129:
 1336 0242 5840     		eors	r0, r0, r3
 1337 0244 59F8043C 		ldr	r3, [r9, #-4]
 1338 0248 5AF82840 		ldr	r4, [r10, r8, lsl #2]
 1339 024c 8BEA0C0B 		eor	fp, fp, ip
 1340 0250 5A40     		eors	r2, r2, r3
 1341 0252 8EEA0707 		eor	r7, lr, r7
 1342 0256 8BEA0503 		eor	r3, fp, r5
 1343 025a 6240     		eors	r2, r2, r4
 1344 025c 079C     		ldr	r4, [sp, #28]
 1345 025e 0393     		str	r3, [sp, #12]
 1346              	.LVL130:
 1347 0260 87EA0603 		eor	r3, r7, r6
 1348 0264 0593     		str	r3, [sp, #20]
 1349              		.loc 1 743 0 discriminator 3
 1350 0266 069B     		ldr	r3, [sp, #24]
 1351 0268 013B     		subs	r3, r3, #1
 1352              		.loc 1 746 0 discriminator 3
 1353 026a 80EA0408 		eor	r8, r0, r4
 1354              	.LVL131:
 1355 026e 82EA0102 		eor	r2, r2, r1
 1356              	.LVL132:
 1357 0272 09F12009 		add	r9, r9, #32
 1358              	.LVL133:
 1359              		.loc 1 743 0 discriminator 3
 1360 0276 0693     		str	r3, [sp, #24]
 1361 0278 7FF422AF 		bne	.L77
 1362 027c 0B9B     		ldr	r3, [sp, #44]
ARM GAS  C:\Users\jo\AppData\Local\Temp\cc8AA3HA.s 			page 25


 1363              	.LVL134:
 1364 027e 0999     		ldr	r1, [sp, #36]
 1365 0280 059F     		ldr	r7, [sp, #20]
 1366 0282 03F10063 		add	r3, r3, #134217728
 1367 0286 013B     		subs	r3, r3, #1
 1368 0288 01EB4313 		add	r3, r1, r3, lsl #5
 1369 028c 0993     		str	r3, [sp, #36]
 1370              	.LVL135:
 1371              	.L76:
 1372              		.loc 1 749 0
 1373 028e 039C     		ldr	r4, [sp, #12]
 1374 0290 9DF80C60 		ldrb	r6, [sp, #12]	@ zero_extendqisi2
 1375 0294 5FFA88FE 		uxtb	lr, r8
 1376 0298 210E     		lsrs	r1, r4, #24
 1377 029a 049C     		ldr	r4, [sp, #16]
 1378 029c 54F82EE0 		ldr	lr, [r4, lr, lsl #2]
 1379 02a0 029C     		ldr	r4, [sp, #8]
 1380 02a2 54F82110 		ldr	r1, [r4, r1, lsl #2]
 1381 02a6 049C     		ldr	r4, [sp, #16]
 1382 02a8 3D0E     		lsrs	r5, r7, #24
 1383 02aa 54F82660 		ldr	r6, [r4, r6, lsl #2]
 1384 02ae 029C     		ldr	r4, [sp, #8]
 1385 02b0 0696     		str	r6, [sp, #24]
 1386 02b2 130E     		lsrs	r3, r2, #24
 1387 02b4 54F82550 		ldr	r5, [r4, r5, lsl #2]
 1388 02b8 54F82390 		ldr	r9, [r4, r3, lsl #2]
 1389 02bc 0795     		str	r5, [sp, #28]
 1390 02be 2546     		mov	r5, r4
 1391 02c0 099C     		ldr	r4, [sp, #36]
 1392 02c2 049E     		ldr	r6, [sp, #16]
 1393 02c4 2368     		ldr	r3, [r4]
 1394 02c6 0293     		str	r3, [sp, #8]
 1395 02c8 8EEA010C 		eor	ip, lr, r1
 1396 02cc 4FEA1863 		lsr	r3, r8, #24
 1397 02d0 C2F30721 		ubfx	r1, r2, #8, #8
 1398 02d4 55F82330 		ldr	r3, [r5, r3, lsl #2]
 1399 02d8 5AF82150 		ldr	r5, [r10, r1, lsl #2]
 1400 02dc 0595     		str	r5, [sp, #20]
 1401 02de D0B2     		uxtb	r0, r2
 1402 02e0 019D     		ldr	r5, [sp, #4]
 1403 02e2 0499     		ldr	r1, [sp, #16]
 1404 02e4 56F82060 		ldr	r6, [r6, r0, lsl #2]
 1405              		.loc 1 752 0
 1406 02e8 4248     		ldr	r0, .L88+12
 1407              		.loc 1 749 0
 1408 02ea C2F30742 		ubfx	r2, r2, #16, #8
 1409              	.LVL136:
 1410 02ee 5FFA87FE 		uxtb	lr, r7
 1411 02f2 55F822B0 		ldr	fp, [r5, r2, lsl #2]
 1412 02f6 069A     		ldr	r2, [sp, #24]
 1413 02f8 079D     		ldr	r5, [sp, #28]
 1414 02fa 51F82E10 		ldr	r1, [r1, lr, lsl #2]
 1415 02fe 5540     		eors	r5, r5, r2
 1416 0300 C8F30722 		ubfx	r2, r8, #8, #8
 1417 0304 81EA0909 		eor	r9, r1, r9
 1418 0308 7340     		eors	r3, r3, r6
 1419 030a C7F30721 		ubfx	r1, r7, #8, #8
ARM GAS  C:\Users\jo\AppData\Local\Temp\cc8AA3HA.s 			page 26


 1420 030e C8F30748 		ubfx	r8, r8, #16, #8
 1421              	.LVL137:
 1422 0312 019E     		ldr	r6, [sp, #4]
 1423 0314 5AF82220 		ldr	r2, [r10, r2, lsl #2]
 1424 0318 56F82860 		ldr	r6, [r6, r8, lsl #2]
 1425 031c 0492     		str	r2, [sp, #16]
 1426 031e 5AF82180 		ldr	r8, [r10, r1, lsl #2]
 1427 0322 2246     		mov	r2, r4
 1428 0324 C7F30747 		ubfx	r7, r7, #16, #8
 1429              	.LVL138:
 1430 0328 6468     		ldr	r4, [r4, #4]
 1431 032a 0199     		ldr	r1, [sp, #4]
 1432 032c 51F82710 		ldr	r1, [r1, r7, lsl #2]
 1433 0330 D768     		ldr	r7, [r2, #12]
 1434 0332 3A46     		mov	r2, r7
 1435 0334 029F     		ldr	r7, [sp, #8]
 1436 0336 8CEA070E 		eor	lr, ip, r7
 1437 033a 85EA040C 		eor	ip, r5, r4
 1438 033e 039C     		ldr	r4, [sp, #12]
 1439 0340 C4F30725 		ubfx	r5, r4, #8, #8
 1440 0344 C4F30744 		ubfx	r4, r4, #16, #8
 1441 0348 5AF82570 		ldr	r7, [r10, r5, lsl #2]
 1442 034c 019D     		ldr	r5, [sp, #4]
 1443 034e 55F82450 		ldr	r5, [r5, r4, lsl #2]
 1444 0352 099C     		ldr	r4, [sp, #36]
 1445 0354 A468     		ldr	r4, [r4, #8]
 1446 0356 89EA040A 		eor	r10, r9, r4
 1447 035a 059C     		ldr	r4, [sp, #20]
 1448 035c 5340     		eors	r3, r3, r2
 1449 035e 8EEA040E 		eor	lr, lr, r4
 1450 0362 83EA0803 		eor	r3, r3, r8
 1451 0366 8EEA0101 		eor	r1, lr, r1
 1452              	.LVL139:
 1453 036a 049A     		ldr	r2, [sp, #16]
 1454 036c 6B40     		eors	r3, r3, r5
 1455 036e 8AEA0704 		eor	r4, r10, r7
 1456              		.loc 1 760 0
 1457 0372 C3F30745 		ubfx	r5, r3, #16, #8
 1458              		.loc 1 759 0
 1459 0376 C1F30727 		ubfx	r7, r1, #8, #8
 1460              		.loc 1 749 0
 1461 037a 7440     		eors	r4, r4, r6
 1462              		.loc 1 760 0
 1463 037c 0495     		str	r5, [sp, #16]
 1464              		.loc 1 753 0
 1465 037e C3F30729 		ubfx	r9, r3, #8, #8
 1466              		.loc 1 767 0
 1467 0382 1D0E     		lsrs	r5, r3, #24
 1468 0384 8CEA0202 		eor	r2, ip, r2
 1469              		.loc 1 770 0
 1470 0388 DBB2     		uxtb	r3, r3
 1471              		.loc 1 749 0
 1472 038a 82EA0B02 		eor	r2, r2, fp
 1473              	.LVL140:
 1474              		.loc 1 759 0
 1475 038e C75D     		ldrb	r7, [r0, r7]	@ zero_extendqisi2
 1476              		.loc 1 770 0
ARM GAS  C:\Users\jo\AppData\Local\Temp\cc8AA3HA.s 			page 27


 1477 0390 0693     		str	r3, [sp, #24]
 1478              		.loc 1 754 0
 1479 0392 C4F30748 		ubfx	r8, r4, #16, #8
 1480              		.loc 1 764 0
 1481 0396 E6B2     		uxtb	r6, r4
 1482              		.loc 1 752 0
 1483 0398 5FFA81FB 		uxtb	fp, r1
 1484 039c 099B     		ldr	r3, [sp, #36]
 1485              		.loc 1 764 0
 1486 039e 0596     		str	r6, [sp, #20]
 1487              		.loc 1 755 0
 1488 03a0 4FEA126A 		lsr	r10, r2, #24
 1489              		.loc 1 753 0
 1490 03a4 10F80960 		ldrb	r6, [r0, r9]	@ zero_extendqisi2
 1491              		.loc 1 759 0
 1492 03a8 0397     		str	r7, [sp, #12]
 1493              		.loc 1 760 0
 1494 03aa 049F     		ldr	r7, [sp, #16]
 1495              		.loc 1 752 0
 1496 03ac 10F80BB0 		ldrb	fp, [r0, fp]	@ zero_extendqisi2
 1497 03b0 1B69     		ldr	r3, [r3, #16]
 1498              		.loc 1 753 0
 1499 03b2 0196     		str	r6, [sp, #4]
 1500              		.loc 1 754 0
 1501 03b4 10F80860 		ldrb	r6, [r0, r8]	@ zero_extendqisi2
 1502              		.loc 1 755 0
 1503 03b8 10F80AA0 		ldrb	r10, [r0, r10]	@ zero_extendqisi2
 1504              		.loc 1 760 0
 1505 03bc C75D     		ldrb	r7, [r0, r7]	@ zero_extendqisi2
 1506              		.loc 1 754 0
 1507 03be 0296     		str	r6, [sp, #8]
 1508              		.loc 1 758 0
 1509 03c0 5FFA82FC 		uxtb	ip, r2
 1510              		.loc 1 761 0
 1511 03c4 4FEA146E 		lsr	lr, r4, #24
 1512              		.loc 1 764 0
 1513 03c8 059E     		ldr	r6, [sp, #20]
 1514              		.loc 1 760 0
 1515 03ca 0497     		str	r7, [sp, #16]
 1516 03cc 8BEA0303 		eor	r3, fp, r3
 1517              		.loc 1 765 0
 1518 03d0 C2F30727 		ubfx	r7, r2, #8, #8
 1519              		.loc 1 772 0
 1520 03d4 C2F30742 		ubfx	r2, r2, #16, #8
 1521              	.LVL141:
 1522              		.loc 1 758 0
 1523 03d8 10F80CC0 		ldrb	ip, [r0, ip]	@ zero_extendqisi2
 1524              		.loc 1 767 0
 1525 03dc 10F80590 		ldrb	r9, [r0, r5]	@ zero_extendqisi2
 1526              		.loc 1 761 0
 1527 03e0 10F80EE0 		ldrb	lr, [r0, lr]	@ zero_extendqisi2
 1528              		.loc 1 764 0
 1529 03e4 865D     		ldrb	r6, [r0, r6]	@ zero_extendqisi2
 1530 03e6 09E0     		b	.L89
 1531              	.L90:
 1532              		.align	2
 1533              	.L88:
ARM GAS  C:\Users\jo\AppData\Local\Temp\cc8AA3HA.s 			page 28


 1534 03e8 00000000 		.word	.LANCHOR3
 1535 03ec 00000000 		.word	.LANCHOR6
 1536 03f0 00000000 		.word	.LANCHOR5
 1537 03f4 00000000 		.word	.LANCHOR2
 1538 03f8 00000000 		.word	.LANCHOR4
 1539              	.L89:
 1540              		.loc 1 772 0
 1541 03fc 0592     		str	r2, [sp, #20]
 1542 03fe 83EA0A6B 		eor	fp, r3, r10, lsl #24
 1543 0402 099B     		ldr	r3, [sp, #36]
 1544              		.loc 1 770 0
 1545 0404 069A     		ldr	r2, [sp, #24]
 1546 0406 5D69     		ldr	r5, [r3, #20]
 1547 0408 D3F81CA0 		ldr	r10, [r3, #28]
 1548              		.loc 1 765 0
 1549 040c C75D     		ldrb	r7, [r0, r7]	@ zero_extendqisi2
 1550 040e 8CEA0505 		eor	r5, ip, r5
 1551              		.loc 1 773 0
 1552 0412 4FEA1168 		lsr	r8, r1, #24
 1553 0416 85EA0E6E 		eor	lr, r5, lr, lsl #24
 1554 041a 9D69     		ldr	r5, [r3, #24]
 1555              		.loc 1 770 0
 1556 041c 10F802C0 		ldrb	ip, [r0, r2]	@ zero_extendqisi2
 1557              		.loc 1 772 0
 1558 0420 059B     		ldr	r3, [sp, #20]
 1559              		.loc 1 773 0
 1560 0422 10F80880 		ldrb	r8, [r0, r8]	@ zero_extendqisi2
 1561              		.loc 1 772 0
 1562 0426 C25C     		ldrb	r2, [r0, r3]	@ zero_extendqisi2
 1563 0428 019B     		ldr	r3, [sp, #4]
 1564              		.loc 1 771 0
 1565 042a C4F30724 		ubfx	r4, r4, #8, #8
 1566              	.LVL142:
 1567 042e 6E40     		eors	r6, r6, r5
 1568              		.loc 1 766 0
 1569 0430 C1F30741 		ubfx	r1, r1, #16, #8
 1570              	.LVL143:
 1571              		.loc 1 771 0
 1572 0434 045D     		ldrb	r4, [r0, r4]	@ zero_extendqisi2
 1573 0436 039D     		ldr	r5, [sp, #12]
 1574              		.loc 1 766 0
 1575 0438 415C     		ldrb	r1, [r0, r1]	@ zero_extendqisi2
 1576              		.loc 1 751 0
 1577 043a 0298     		ldr	r0, [sp, #8]
 1578 043c 8CEA0A0C 		eor	ip, ip, r10
 1579 0440 86EA0966 		eor	r6, r6, r9, lsl #24
 1580 0444 86EA0726 		eor	r6, r6, r7, lsl #8
 1581 0448 8CEA086C 		eor	ip, ip, r8, lsl #24
 1582              		.loc 1 757 0
 1583 044c 049F     		ldr	r7, [sp, #16]
 1584 044e 8BEA0323 		eor	r3, fp, r3, lsl #8
 1585 0452 8EEA052E 		eor	lr, lr, r5, lsl #8
 1586 0456 8CEA0424 		eor	r4, ip, r4, lsl #8
 1587              		.loc 1 751 0
 1588 045a 83EA0043 		eor	r3, r3, r0, lsl #16
 1589              	.LVL144:
 1590              		.loc 1 757 0
ARM GAS  C:\Users\jo\AppData\Local\Temp\cc8AA3HA.s 			page 29


 1591 045e 8EEA074E 		eor	lr, lr, r7, lsl #16
 1592              	.LVL145:
 1593              		.loc 1 763 0
 1594 0462 86EA0140 		eor	r0, r6, r1, lsl #16
 1595              	.LVL146:
 1596              		.loc 1 769 0
 1597 0466 84EA0242 		eor	r2, r4, r2, lsl #16
 1598              	.LVL147:
 1599              	.L78:
 1600              		.loc 1 810 0
 1601 046a 0A99     		ldr	r1, [sp, #40]
 1602              		.loc 1 812 0
 1603 046c 050A     		lsrs	r5, r0, #8
 1604 046e 040C     		lsrs	r4, r0, #16
 1605 0470 4FEA106B 		lsr	fp, r0, #24
 1606 0474 0872     		strb	r0, [r1, #8]
 1607              		.loc 1 813 0
 1608 0476 100E     		lsrs	r0, r2, #24
 1609              	.LVL148:
 1610              		.loc 1 810 0
 1611 0478 4FEA132A 		lsr	r10, r3, #8
 1612 047c 4FEA1349 		lsr	r9, r3, #16
 1613 0480 4FEA1368 		lsr	r8, r3, #24
 1614              		.loc 1 811 0
 1615 0484 4FEA1E2C 		lsr	ip, lr, #8
 1616 0488 4FEA1E47 		lsr	r7, lr, #16
 1617 048c 4FEA1E66 		lsr	r6, lr, #24
 1618              		.loc 1 810 0
 1619 0490 0B70     		strb	r3, [r1]
 1620              		.loc 1 811 0
 1621 0492 81F804E0 		strb	lr, [r1, #4]
 1622              		.loc 1 813 0
 1623 0496 130A     		lsrs	r3, r2, #8
 1624              	.LVL149:
 1625 0498 4FEA124E 		lsr	lr, r2, #16
 1626              	.LVL150:
 1627 049c C873     		strb	r0, [r1, #15]
 1628              		.loc 1 816 0
 1629 049e 0020     		movs	r0, #0
 1630              		.loc 1 813 0
 1631 04a0 0A73     		strb	r2, [r1, #12]
 1632              		.loc 1 810 0
 1633 04a2 81F801A0 		strb	r10, [r1, #1]
 1634 04a6 81F80290 		strb	r9, [r1, #2]
 1635 04aa 81F80380 		strb	r8, [r1, #3]
 1636              		.loc 1 811 0
 1637 04ae 81F805C0 		strb	ip, [r1, #5]
 1638 04b2 8F71     		strb	r7, [r1, #6]
 1639 04b4 CE71     		strb	r6, [r1, #7]
 1640              		.loc 1 812 0
 1641 04b6 4D72     		strb	r5, [r1, #9]
 1642 04b8 8C72     		strb	r4, [r1, #10]
 1643 04ba 81F80BB0 		strb	fp, [r1, #11]
 1644              		.loc 1 813 0
 1645 04be 4B73     		strb	r3, [r1, #13]
 1646 04c0 81F80EE0 		strb	lr, [r1, #14]
 1647              		.loc 1 816 0
ARM GAS  C:\Users\jo\AppData\Local\Temp\cc8AA3HA.s 			page 30


 1648 04c4 0DB0     		add	sp, sp, #52
 1649              		.cfi_remember_state
 1650              		.cfi_def_cfa_offset 36
 1651              		@ sp needed
 1652 04c6 BDE8F08F 		pop	{r4, r5, r6, r7, r8, r9, r10, fp, pc}
 1653              	.LVL151:
 1654              	.L75:
 1655              		.cfi_restore_state
 1656              		.loc 1 777 0
 1657 04ca 0793     		str	r3, [sp, #28]
 1658              	.LVL152:
 1659 04cc 002B     		cmp	r3, #0
 1660 04ce D24B     		ldr	r3, .L91
 1661 04d0 0593     		str	r3, [sp, #20]
 1662 04d2 D24B     		ldr	r3, .L91+4
 1663 04d4 0193     		str	r3, [sp, #4]
 1664              	.LVL153:
 1665 04d6 DFF84CB3 		ldr	fp, .L91+12
 1666 04da DFF84C93 		ldr	r9, .L91+16
 1667 04de 40F3F080 		ble	.L79
 1668 04e2 039C     		ldr	r4, [sp, #12]
 1669 04e4 0697     		str	r7, [sp, #24]
 1670 04e6 05F1300A 		add	r10, r5, #48
 1671 04ea 0492     		str	r2, [sp, #16]
 1672 04ec CDF808B0 		str	fp, [sp, #8]
 1673              	.LVL154:
 1674              	.L80:
 1675              		.loc 1 779 0 discriminator 3
 1676 04f0 049A     		ldr	r2, [sp, #16]
 1677 04f2 059F     		ldr	r7, [sp, #20]
 1678 04f4 DDF818B0 		ldr	fp, [sp, #24]
 1679 04f8 D5B2     		uxtb	r5, r2
 1680 04fa E0B2     		uxtb	r0, r4
 1681 04fc 130E     		lsrs	r3, r2, #24
 1682 04fe 019A     		ldr	r2, [sp, #4]
 1683 0500 57F825C0 		ldr	ip, [r7, r5, lsl #2]
 1684 0504 52F823E0 		ldr	lr, [r2, r3, lsl #2]
 1685 0508 57F82050 		ldr	r5, [r7, r0, lsl #2]
 1686 050c 5AF81C3C 		ldr	r3, [r10, #-28]
 1687 0510 5FFA8BF1 		uxtb	r1, fp
 1688 0514 6B40     		eors	r3, r3, r5
 1689 0516 57F82100 		ldr	r0, [r7, r1, lsl #2]
 1690 051a 5AF8141C 		ldr	r1, [r10, #-20]
 1691 051e 250E     		lsrs	r5, r4, #24
 1692 0520 8CEA010C 		eor	ip, ip, r1
 1693 0524 5946     		mov	r1, fp
 1694 0526 52F825B0 		ldr	fp, [r2, r5, lsl #2]
 1695 052a 5AF8185C 		ldr	r5, [r10, #-24]
 1696 052e 5FFA88F6 		uxtb	r6, r8
 1697 0532 6840     		eors	r0, r0, r5
 1698 0534 4FEA1865 		lsr	r5, r8, #24
 1699 0538 57F82660 		ldr	r6, [r7, r6, lsl #2]
 1700 053c 52F82550 		ldr	r5, [r2, r5, lsl #2]
 1701 0540 5AF8207C 		ldr	r7, [r10, #-32]
 1702 0544 6B40     		eors	r3, r3, r5
 1703 0546 7E40     		eors	r6, r6, r7
 1704 0548 069D     		ldr	r5, [sp, #24]
ARM GAS  C:\Users\jo\AppData\Local\Temp\cc8AA3HA.s 			page 31


 1705 054a 090E     		lsrs	r1, r1, #24
 1706 054c 86EA0E06 		eor	r6, r6, lr
 1707 0550 0396     		str	r6, [sp, #12]
 1708 0552 52F82110 		ldr	r1, [r2, r1, lsl #2]
 1709 0556 029E     		ldr	r6, [sp, #8]
 1710 0558 049A     		ldr	r2, [sp, #16]
 1711 055a 80EA0B00 		eor	r0, r0, fp
 1712 055e C5F3072B 		ubfx	fp, r5, #8, #8
 1713 0562 C4F3072E 		ubfx	lr, r4, #8, #8
 1714 0566 56F82B70 		ldr	r7, [r6, fp, lsl #2]
 1715 056a 56F82EE0 		ldr	lr, [r6, lr, lsl #2]
 1716 056e 8CEA0101 		eor	r1, ip, r1
 1717 0572 C2F3072B 		ubfx	fp, r2, #8, #8
 1718 0576 C8F3072C 		ubfx	ip, r8, #8, #8
 1719 057a C5F30745 		ubfx	r5, r5, #16, #8
 1720 057e 56F82CC0 		ldr	ip, [r6, ip, lsl #2]
 1721 0582 56F82BB0 		ldr	fp, [r6, fp, lsl #2]
 1722 0586 039E     		ldr	r6, [sp, #12]
 1723 0588 59F82550 		ldr	r5, [r9, r5, lsl #2]
 1724 058c 86EA0E06 		eor	r6, r6, lr
 1725 0590 7540     		eors	r5, r5, r6
 1726              	.LVL155:
 1727 0592 C4F30744 		ubfx	r4, r4, #16, #8
 1728              	.LVL156:
 1729 0596 C2F30742 		ubfx	r2, r2, #16, #8
 1730 059a 2E46     		mov	r6, r5
 1731 059c C8F30748 		ubfx	r8, r8, #16, #8
 1732              	.LVL157:
 1733 05a0 59F82440 		ldr	r4, [r9, r4, lsl #2]
 1734 05a4 59F82220 		ldr	r2, [r9, r2, lsl #2]
 1735              		.loc 1 780 0 discriminator 3
 1736 05a8 0396     		str	r6, [sp, #12]
 1737 05aa 4FEA166E 		lsr	lr, r6, #24
 1738 05ae EDB2     		uxtb	r5, r5
 1739              	.LVL158:
 1740 05b0 059E     		ldr	r6, [sp, #20]
 1741              	.LVL159:
 1742              		.loc 1 779 0 discriminator 3
 1743 05b2 59F82880 		ldr	r8, [r9, r8, lsl #2]
 1744 05b6 56F82550 		ldr	r5, [r6, r5, lsl #2]
 1745 05ba 0495     		str	r5, [sp, #16]
 1746              	.LVL160:
 1747 05bc 7B40     		eors	r3, r3, r7
 1748 05be 81EA0C01 		eor	r1, r1, ip
 1749 05c2 6140     		eors	r1, r1, r4
 1750 05c4 5A40     		eors	r2, r2, r3
 1751              	.LVL161:
 1752 05c6 80EA0B00 		eor	r0, r0, fp
 1753 05ca 019E     		ldr	r6, [sp, #4]
 1754 05cc 029D     		ldr	r5, [sp, #8]
 1755 05ce 80EA0808 		eor	r8, r0, r8
 1756              	.LVL162:
 1757              		.loc 1 780 0 discriminator 3
 1758 05d2 C2F3072C 		ubfx	ip, r2, #8, #8
 1759 05d6 080E     		lsrs	r0, r1, #24
 1760 05d8 B346     		mov	fp, r6
 1761 05da 56F82000 		ldr	r0, [r6, r0, lsl #2]
ARM GAS  C:\Users\jo\AppData\Local\Temp\cc8AA3HA.s 			page 32


 1762 05de 55F82C60 		ldr	r6, [r5, ip, lsl #2]
 1763 05e2 0696     		str	r6, [sp, #24]
 1764              	.LVL163:
 1765 05e4 C8F30744 		ubfx	r4, r8, #16, #8
 1766 05e8 059E     		ldr	r6, [sp, #20]
 1767 05ea 59F82440 		ldr	r4, [r9, r4, lsl #2]
 1768 05ee 0894     		str	r4, [sp, #32]
 1769 05f0 C8F30727 		ubfx	r7, r8, #8, #8
 1770 05f4 D3B2     		uxtb	r3, r2
 1771 05f6 5BF82E40 		ldr	r4, [fp, lr, lsl #2]
 1772 05fa 56F82330 		ldr	r3, [r6, r3, lsl #2]
 1773 05fe 55F827B0 		ldr	fp, [r5, r7, lsl #2]
 1774 0602 049D     		ldr	r5, [sp, #16]
 1775 0604 5AF8107C 		ldr	r7, [r10, #-16]
 1776 0608 5C40     		eors	r4, r4, r3
 1777 060a 6840     		eors	r0, r0, r5
 1778 060c 5AF80C3C 		ldr	r3, [r10, #-12]
 1779 0610 C1F30745 		ubfx	r5, r1, #16, #8
 1780 0614 7840     		eors	r0, r0, r7
 1781 0616 59F825C0 		ldr	ip, [r9, r5, lsl #2]
 1782 061a 019F     		ldr	r7, [sp, #4]
 1783 061c 5FFA88F5 		uxtb	r5, r8
 1784 0620 6340     		eors	r3, r3, r4
 1785 0622 140E     		lsrs	r4, r2, #24
 1786 0624 56F82550 		ldr	r5, [r6, r5, lsl #2]
 1787 0628 57F82470 		ldr	r7, [r7, r4, lsl #2]
 1788 062c C1F30724 		ubfx	r4, r1, #8, #8
 1789 0630 85EA070E 		eor	lr, r5, r7
 1790 0634 029D     		ldr	r5, [sp, #8]
 1791 0636 4FEA1868 		lsr	r8, r8, #24
 1792              	.LVL164:
 1793 063a 55F82470 		ldr	r7, [r5, r4, lsl #2]
 1794 063e 019C     		ldr	r4, [sp, #4]
 1795 0640 C9B2     		uxtb	r1, r1
 1796              	.LVL165:
 1797 0642 54F82850 		ldr	r5, [r4, r8, lsl #2]
 1798 0646 56F82110 		ldr	r1, [r6, r1, lsl #2]
 1799 064a 5AF8086C 		ldr	r6, [r10, #-8]
 1800 064e 6940     		eors	r1, r1, r5
 1801 0650 039D     		ldr	r5, [sp, #12]
 1802 0652 8EEA060E 		eor	lr, lr, r6
 1803 0656 C5F30724 		ubfx	r4, r5, #8, #8
 1804 065a C5F30746 		ubfx	r6, r5, #16, #8
 1805 065e 029D     		ldr	r5, [sp, #8]
 1806 0660 59F82660 		ldr	r6, [r9, r6, lsl #2]
 1807 0664 55F82450 		ldr	r5, [r5, r4, lsl #2]
 1808 0668 5AF8044C 		ldr	r4, [r10, #-4]
 1809 066c 6140     		eors	r1, r1, r4
 1810 066e 069C     		ldr	r4, [sp, #24]
 1811 0670 C2F30742 		ubfx	r2, r2, #16, #8
 1812              	.LVL166:
 1813 0674 6040     		eors	r0, r0, r4
 1814 0676 089C     		ldr	r4, [sp, #32]
 1815 0678 59F82220 		ldr	r2, [r9, r2, lsl #2]
 1816 067c 83EA0B03 		eor	r3, r3, fp
 1817 0680 8EEA0707 		eor	r7, lr, r7
 1818 0684 6940     		eors	r1, r1, r5
ARM GAS  C:\Users\jo\AppData\Local\Temp\cc8AA3HA.s 			page 33


 1819 0686 80EA0408 		eor	r8, r0, r4
 1820              	.LVL167:
 1821 068a 83EA0C04 		eor	r4, r3, ip
 1822              	.LVL168:
 1823 068e 87EA0603 		eor	r3, r7, r6
 1824 0692 0693     		str	r3, [sp, #24]
 1825              	.LVL169:
 1826 0694 82EA0103 		eor	r3, r2, r1
 1827              	.LVL170:
 1828 0698 0493     		str	r3, [sp, #16]
 1829              	.LVL171:
 1830              		.loc 1 777 0 discriminator 3
 1831 069a 079B     		ldr	r3, [sp, #28]
 1832              	.LVL172:
 1833 069c 013B     		subs	r3, r3, #1
 1834              	.LVL173:
 1835 069e 0AF1200A 		add	r10, r10, #32
 1836              	.LVL174:
 1837 06a2 0793     		str	r3, [sp, #28]
 1838 06a4 7FF424AF 		bne	.L80
 1839 06a8 0B9B     		ldr	r3, [sp, #44]
 1840              	.LVL175:
 1841 06aa 0999     		ldr	r1, [sp, #36]
 1842 06ac 069F     		ldr	r7, [sp, #24]
 1843 06ae 049A     		ldr	r2, [sp, #16]
 1844 06b0 DDF808B0 		ldr	fp, [sp, #8]
 1845 06b4 0394     		str	r4, [sp, #12]
 1846              	.LVL176:
 1847 06b6 03F10063 		add	r3, r3, #134217728
 1848 06ba 013B     		subs	r3, r3, #1
 1849 06bc 01EB4313 		add	r3, r1, r3, lsl #5
 1850 06c0 0993     		str	r3, [sp, #36]
 1851              	.LVL177:
 1852              	.L79:
 1853 06c2 059C     		ldr	r4, [sp, #20]
 1854              		.loc 1 783 0
 1855 06c4 0398     		ldr	r0, [sp, #12]
 1856 06c6 5FFA88FE 		uxtb	lr, r8
 1857 06ca 160E     		lsrs	r6, r2, #24
 1858 06cc 54F82EE0 		ldr	lr, [r4, lr, lsl #2]
 1859 06d0 019C     		ldr	r4, [sp, #4]
 1860 06d2 D5B2     		uxtb	r5, r2
 1861 06d4 54F82660 		ldr	r6, [r4, r6, lsl #2]
 1862 06d8 059C     		ldr	r4, [sp, #20]
 1863 06da C1B2     		uxtb	r1, r0
 1864 06dc 54F82550 		ldr	r5, [r4, r5, lsl #2]
 1865 06e0 019C     		ldr	r4, [sp, #4]
 1866 06e2 0495     		str	r5, [sp, #16]
 1867 06e4 000E     		lsrs	r0, r0, #24
 1868 06e6 059D     		ldr	r5, [sp, #20]
 1869 06e8 54F820A0 		ldr	r10, [r4, r0, lsl #2]
 1870 06ec 0998     		ldr	r0, [sp, #36]
 1871 06ee 55F82110 		ldr	r1, [r5, r1, lsl #2]
 1872 06f2 0068     		ldr	r0, [r0]
 1873 06f4 0290     		str	r0, [sp, #8]
 1874 06f6 3B0E     		lsrs	r3, r7, #24
 1875 06f8 0398     		ldr	r0, [sp, #12]
ARM GAS  C:\Users\jo\AppData\Local\Temp\cc8AA3HA.s 			page 34


 1876 06fa 54F82330 		ldr	r3, [r4, r3, lsl #2]
 1877 06fe 019C     		ldr	r4, [sp, #4]
 1878 0700 8EEA060C 		eor	ip, lr, r6
 1879 0704 4FEA1865 		lsr	r5, r8, #24
 1880 0708 C0F30726 		ubfx	r6, r0, #8, #8
 1881 070c 54F82550 		ldr	r5, [r4, r5, lsl #2]
 1882 0710 5BF82640 		ldr	r4, [fp, r6, lsl #2]
 1883 0714 0194     		str	r4, [sp, #4]
 1884 0716 5FFA87FE 		uxtb	lr, r7
 1885 071a C0F30744 		ubfx	r4, r0, #16, #8
 1886 071e 059E     		ldr	r6, [sp, #20]
 1887 0720 56F82E60 		ldr	r6, [r6, lr, lsl #2]
 1888 0724 59F824E0 		ldr	lr, [r9, r4, lsl #2]
 1889 0728 049C     		ldr	r4, [sp, #16]
 1890 072a 6340     		eors	r3, r3, r4
 1891 072c C8F30724 		ubfx	r4, r8, #8, #8
 1892 0730 C8F30748 		ubfx	r8, r8, #16, #8
 1893              	.LVL178:
 1894 0734 6940     		eors	r1, r1, r5
 1895 0736 86EA0A0A 		eor	r10, r6, r10
 1896 073a 099D     		ldr	r5, [sp, #36]
 1897 073c 59F82800 		ldr	r0, [r9, r8, lsl #2]
 1898 0740 0490     		str	r0, [sp, #16]
 1899 0742 C7F30726 		ubfx	r6, r7, #8, #8
 1900 0746 C7F30747 		ubfx	r7, r7, #16, #8
 1901              	.LVL179:
 1902 074a E868     		ldr	r0, [r5, #12]
 1903 074c 5BF82660 		ldr	r6, [fp, r6, lsl #2]
 1904 0750 5BF82440 		ldr	r4, [fp, r4, lsl #2]
 1905 0754 0590     		str	r0, [sp, #20]
 1906 0756 0396     		str	r6, [sp, #12]
 1907 0758 59F82780 		ldr	r8, [r9, r7, lsl #2]
 1908 075c 6F68     		ldr	r7, [r5, #4]
 1909 075e 029E     		ldr	r6, [sp, #8]
 1910 0760 2846     		mov	r0, r5
 1911 0762 3D46     		mov	r5, r7
 1912 0764 059F     		ldr	r7, [sp, #20]
 1913 0766 7B40     		eors	r3, r3, r7
 1914 0768 C2F30727 		ubfx	r7, r2, #8, #8
 1915 076c C2F30742 		ubfx	r2, r2, #16, #8
 1916              	.LVL180:
 1917 0770 5BF827B0 		ldr	fp, [fp, r7, lsl #2]
 1918 0774 59F82270 		ldr	r7, [r9, r2, lsl #2]
 1919 0778 8268     		ldr	r2, [r0, #8]
 1920 077a 0069     		ldr	r0, [r0, #16]
 1921 077c 8AEA020A 		eor	r10, r10, r2
 1922 0780 019A     		ldr	r2, [sp, #4]
 1923 0782 8CEA0606 		eor	r6, ip, r6
 1924 0786 5640     		eors	r6, r6, r2
 1925 0788 039A     		ldr	r2, [sp, #12]
 1926 078a 6940     		eors	r1, r1, r5
 1927 078c 5140     		eors	r1, r1, r2
 1928 078e 86EA0802 		eor	r2, r6, r8
 1929 0792 0192     		str	r2, [sp, #4]
 1930              	.LVL181:
 1931 0794 6340     		eors	r3, r3, r4
 1932 0796 83EA0E02 		eor	r2, r3, lr
ARM GAS  C:\Users\jo\AppData\Local\Temp\cc8AA3HA.s 			page 35


 1933              	.LVL182:
 1934              		.loc 1 795 0
 1935 079a 019C     		ldr	r4, [sp, #4]
 1936              		.loc 1 783 0
 1937 079c 049B     		ldr	r3, [sp, #16]
 1938 079e 8AEA0B0A 		eor	r10, r10, fp
 1939 07a2 8AEA0305 		eor	r5, r10, r3
 1940              		.loc 1 795 0
 1941 07a6 4FEA146C 		lsr	ip, r4, #24
 1942              		.loc 1 786 0
 1943 07aa 9DF80430 		ldrb	r3, [sp, #4]	@ zero_extendqisi2
 1944 07ae 1C4C     		ldr	r4, .L91+8
 1945              		.loc 1 783 0
 1946 07b0 7940     		eors	r1, r1, r7
 1947              	.LVL183:
 1948              		.loc 1 786 0
 1949 07b2 E35C     		ldrb	r3, [r4, r3]	@ zero_extendqisi2
 1950              		.loc 1 789 0
 1951 07b4 4FEA126B 		lsr	fp, r2, #24
 1952 07b8 0446     		mov	r4, r0
 1953              		.loc 1 787 0
 1954 07ba C1F3072A 		ubfx	r10, r1, #8, #8
 1955              		.loc 1 789 0
 1956 07be 1848     		ldr	r0, .L91+8
 1957              		.loc 1 788 0
 1958 07c0 C5F30749 		ubfx	r9, r5, #16, #8
 1959              		.loc 1 787 0
 1960 07c4 10F80AA0 		ldrb	r10, [r0, r10]	@ zero_extendqisi2
 1961              		.loc 1 789 0
 1962 07c8 10F80BB0 		ldrb	fp, [r0, fp]	@ zero_extendqisi2
 1963              		.loc 1 788 0
 1964 07cc 1448     		ldr	r0, .L91+8
 1965              		.loc 1 787 0
 1966 07ce CDF808A0 		str	r10, [sp, #8]
 1967              		.loc 1 788 0
 1968 07d2 10F80990 		ldrb	r9, [r0, r9]	@ zero_extendqisi2
 1969              		.loc 1 792 0
 1970 07d6 1248     		ldr	r0, .L91+8
 1971              		.loc 1 788 0
 1972 07d8 CDF80C90 		str	r9, [sp, #12]
 1973              		.loc 1 792 0
 1974 07dc 5FFA81F8 		uxtb	r8, r1
 1975              		.loc 1 795 0
 1976 07e0 10F80CC0 		ldrb	ip, [r0, ip]	@ zero_extendqisi2
 1977              		.loc 1 792 0
 1978 07e4 10F80880 		ldrb	r8, [r0, r8]	@ zero_extendqisi2
 1979              		.loc 1 793 0
 1980 07e8 0D48     		ldr	r0, .L91+8
 1981              		.loc 1 795 0
 1982 07ea CDF810C0 		str	ip, [sp, #16]
 1983              		.loc 1 793 0
 1984 07ee C5F3072E 		ubfx	lr, r5, #8, #8
 1985              		.loc 1 798 0
 1986 07f2 EEB2     		uxtb	r6, r5
 1987              		.loc 1 807 0
 1988 07f4 2D0E     		lsrs	r5, r5, #24
 1989              	.LVL184:
ARM GAS  C:\Users\jo\AppData\Local\Temp\cc8AA3HA.s 			page 36


 1990              		.loc 1 793 0
 1991 07f6 10F80EE0 		ldrb	lr, [r0, lr]	@ zero_extendqisi2
 1992              		.loc 1 807 0
 1993 07fa 0695     		str	r5, [sp, #24]
 1994              		.loc 1 794 0
 1995 07fc 0848     		ldr	r0, .L91+8
 1996              		.loc 1 793 0
 1997 07fe CDF814E0 		str	lr, [sp, #20]
 1998              		.loc 1 794 0
 1999 0802 C2F30747 		ubfx	r7, r2, #16, #8
 2000              		.loc 1 801 0
 2001 0806 0D0E     		lsrs	r5, r1, #24
 2002              		.loc 1 794 0
 2003 0808 10F807E0 		ldrb	lr, [r0, r7]	@ zero_extendqisi2
 2004              		.loc 1 801 0
 2005 080c 10F805C0 		ldrb	ip, [r0, r5]	@ zero_extendqisi2
 2006              		.loc 1 798 0
 2007 0810 865D     		ldrb	r6, [r0, r6]	@ zero_extendqisi2
 2008 0812 0998     		ldr	r0, [sp, #36]
 2009 0814 0AE0     		b	.L92
 2010              	.L93:
 2011 0816 00BF     		.align	2
 2012              	.L91:
 2013 0818 00000000 		.word	.LANCHOR7
 2014 081c 00000000 		.word	.LANCHOR10
 2015 0820 00000000 		.word	.LANCHOR1
 2016 0824 00000000 		.word	.LANCHOR8
 2017 0828 00000000 		.word	.LANCHOR9
 2018              	.L92:
 2019 082c 6340     		eors	r3, r3, r4
 2020              		.loc 1 799 0
 2021 082e C2F30727 		ubfx	r7, r2, #8, #8
 2022 0832 1C4C     		ldr	r4, .L94
 2023 0834 4569     		ldr	r5, [r0, #20]
 2024 0836 14F80790 		ldrb	r9, [r4, r7]	@ zero_extendqisi2
 2025              		.loc 1 804 0
 2026 083a D2B2     		uxtb	r2, r2
 2027              	.LVL185:
 2028 083c 83EA0B6B 		eor	fp, r3, fp, lsl #24
 2029 0840 8369     		ldr	r3, [r0, #24]
 2030 0842 A75C     		ldrb	r7, [r4, r2]	@ zero_extendqisi2
 2031 0844 C269     		ldr	r2, [r0, #28]
 2032              		.loc 1 807 0
 2033 0846 0698     		ldr	r0, [sp, #24]
 2034 0848 5E40     		eors	r6, r6, r3
 2035              		.loc 1 805 0
 2036 084a 019B     		ldr	r3, [sp, #4]
 2037 084c 88EA0505 		eor	r5, r8, r5
 2038 0850 5740     		eors	r7, r7, r2
 2039              		.loc 1 807 0
 2040 0852 8046     		mov	r8, r0
 2041              		.loc 1 800 0
 2042 0854 019A     		ldr	r2, [sp, #4]
 2043              		.loc 1 807 0
 2044 0856 14F808A0 		ldrb	r10, [r4, r8]	@ zero_extendqisi2
 2045              		.loc 1 806 0
 2046 085a C1F30741 		ubfx	r1, r1, #16, #8
ARM GAS  C:\Users\jo\AppData\Local\Temp\cc8AA3HA.s 			page 37


 2047              	.LVL186:
 2048              		.loc 1 807 0
 2049 085e 2046     		mov	r0, r4
 2050              		.loc 1 805 0
 2051 0860 C3F30723 		ubfx	r3, r3, #8, #8
 2052              		.loc 1 806 0
 2053 0864 615C     		ldrb	r1, [r4, r1]	@ zero_extendqisi2
 2054              		.loc 1 800 0
 2055 0866 C2F30744 		ubfx	r4, r2, #16, #8
 2056              		.loc 1 805 0
 2057 086a C25C     		ldrb	r2, [r0, r3]	@ zero_extendqisi2
 2058 086c 049B     		ldr	r3, [sp, #16]
 2059              		.loc 1 800 0
 2060 086e 005D     		ldrb	r0, [r0, r4]	@ zero_extendqisi2
 2061 0870 059C     		ldr	r4, [sp, #20]
 2062 0872 85EA0365 		eor	r5, r5, r3, lsl #24
 2063 0876 029B     		ldr	r3, [sp, #8]
 2064 0878 85EA0425 		eor	r5, r5, r4, lsl #8
 2065 087c 86EA0C66 		eor	r6, r6, ip, lsl #24
 2066 0880 87EA0A67 		eor	r7, r7, r10, lsl #24
 2067              		.loc 1 785 0
 2068 0884 039C     		ldr	r4, [sp, #12]
 2069 0886 8BEA0323 		eor	r3, fp, r3, lsl #8
 2070 088a 86EA0926 		eor	r6, r6, r9, lsl #8
 2071 088e 87EA0222 		eor	r2, r7, r2, lsl #8
 2072 0892 83EA0443 		eor	r3, r3, r4, lsl #16
 2073              	.LVL187:
 2074              		.loc 1 791 0
 2075 0896 85EA0E4E 		eor	lr, r5, lr, lsl #16
 2076              	.LVL188:
 2077              		.loc 1 797 0
 2078 089a 86EA0040 		eor	r0, r6, r0, lsl #16
 2079              	.LVL189:
 2080              		.loc 1 803 0
 2081 089e 82EA0142 		eor	r2, r2, r1, lsl #16
 2082              	.LVL190:
 2083 08a2 E2E5     		b	.L78
 2084              	.L95:
 2085              		.align	2
 2086              	.L94:
 2087 08a4 00000000 		.word	.LANCHOR1
 2088              		.cfi_endproc
 2089              	.LFE6:
 2090              		.size	aes_crypt_ecb, .-aes_crypt_ecb
 2091 08a8 AFF30080 		.section	.text.aes_crypt_cbc,"ax",%progbits
 2091      AFF30080 
 2092              		.align	2
 2093              		.p2align 4,,15
 2094              		.global	aes_crypt_cbc
 2095              		.thumb
 2096              		.thumb_func
 2097              		.type	aes_crypt_cbc, %function
 2098              	aes_crypt_cbc:
 2099              	.LFB7:
 2100              		.loc 1 828 0
 2101              		.cfi_startproc
 2102              		@ args = 8, pretend = 0, frame = 16
ARM GAS  C:\Users\jo\AppData\Local\Temp\cc8AA3HA.s 			page 38


 2103              		@ frame_needed = 0, uses_anonymous_args = 0
 2104              	.LVL191:
 2105 0000 2DE9F047 		push	{r4, r5, r6, r7, r8, r9, r10, lr}
 2106              		.cfi_def_cfa_offset 32
 2107              		.cfi_offset 4, -32
 2108              		.cfi_offset 5, -28
 2109              		.cfi_offset 6, -24
 2110              		.cfi_offset 7, -20
 2111              		.cfi_offset 8, -16
 2112              		.cfi_offset 9, -12
 2113              		.cfi_offset 10, -8
 2114              		.cfi_offset 14, -4
 2115 0004 84B0     		sub	sp, sp, #16
 2116              		.cfi_def_cfa_offset 48
 2117              		.loc 1 832 0
 2118 0006 12F00F0F 		tst	r2, #15
 2119              		.loc 1 828 0
 2120 000a 9046     		mov	r8, r2
 2121 000c DDF830A0 		ldr	r10, [sp, #48]
 2122 0010 0D9C     		ldr	r4, [sp, #52]
 2123              		.loc 1 832 0
 2124 0012 5CD1     		bne	.L107
 2125 0014 0646     		mov	r6, r0
 2126 0016 8946     		mov	r9, r1
 2127 0018 1D46     		mov	r5, r3
 2128              		.loc 1 847 0
 2129 001a 41B3     		cbz	r1, .L114
 2130              	.LVL192:
 2131              		.loc 1 866 0
 2132 001c 1AB3     		cbz	r2, .L106
 2133 001e 0AF1FF3A 		add	r10, r10, #-1
 2134              	.LVL193:
 2135 0022 5F1E     		subs	r7, r3, #1
 2136              	.LVL194:
 2137              	.L105:
 2138 0024 3946     		mov	r1, r7
 2139 0026 621E     		subs	r2, r4, #1
 2140 0028 0AF1100E 		add	lr, r10, #16
 2141              	.LVL195:
 2142              	.L104:
 2143              		.loc 1 869 0 discriminator 3
 2144 002c 1AF8013F 		ldrb	r3, [r10, #1]!	@ zero_extendqisi2
 2145              	.LVL196:
 2146 0030 11F8010F 		ldrb	r0, [r1, #1]!	@ zero_extendqisi2
 2147              		.loc 1 868 0 discriminator 3
 2148 0034 F245     		cmp	r10, lr
 2149              		.loc 1 869 0 discriminator 3
 2150 0036 83EA0003 		eor	r3, r3, r0
 2151 003a 02F8013F 		strb	r3, [r2, #1]!
 2152              	.LVL197:
 2153              		.loc 1 868 0 discriminator 3
 2154 003e F5D1     		bne	.L104
 2155              		.loc 1 871 0
 2156 0040 2246     		mov	r2, r4
 2157 0042 2346     		mov	r3, r4
 2158 0044 4946     		mov	r1, r9
 2159 0046 3046     		mov	r0, r6
ARM GAS  C:\Users\jo\AppData\Local\Temp\cc8AA3HA.s 			page 39


 2160 0048 FFF7FEFF 		bl	aes_crypt_ecb
 2161              	.LVL198:
 2162              		.loc 1 872 0
 2163 004c 2168     		ldr	r1, [r4]	@ unaligned
 2164 004e 6268     		ldr	r2, [r4, #4]	@ unaligned
 2165 0050 A368     		ldr	r3, [r4, #8]	@ unaligned
 2166 0052 E068     		ldr	r0, [r4, #12]	@ unaligned
 2167 0054 E860     		str	r0, [r5, #12]	@ unaligned
 2168              	.LVL199:
 2169              		.loc 1 866 0
 2170 0056 B8F11008 		subs	r8, r8, #16
 2171              	.LVL200:
 2172              		.loc 1 872 0
 2173 005a 2960     		str	r1, [r5]	@ unaligned
 2174 005c 6A60     		str	r2, [r5, #4]	@ unaligned
 2175 005e AB60     		str	r3, [r5, #8]	@ unaligned
 2176              		.loc 1 875 0
 2177 0060 04F11004 		add	r4, r4, #16
 2178              	.LVL201:
 2179              		.loc 1 866 0
 2180 0064 DED1     		bne	.L105
 2181              	.LVL202:
 2182              	.L106:
 2183              		.loc 1 880 0
 2184 0066 0020     		movs	r0, #0
 2185              	.LVL203:
 2186              	.L112:
 2187              		.loc 1 881 0
 2188 0068 04B0     		add	sp, sp, #16
 2189              		.cfi_remember_state
 2190              		.cfi_def_cfa_offset 32
 2191              		@ sp needed
 2192 006a BDE8F087 		pop	{r4, r5, r6, r7, r8, r9, r10, pc}
 2193              	.LVL204:
 2194              	.L114:
 2195              		.cfi_restore_state
 2196 006e 5F1E     		subs	r7, r3, #1
 2197              	.LBB26:
 2198              	.LBB27:
 2199              		.loc 1 849 0
 2200 0070 002A     		cmp	r2, #0
 2201 0072 F8D0     		beq	.L106
 2202              	.LVL205:
 2203              	.L102:
 2204              		.loc 1 851 0
 2205 0074 DAF80000 		ldr	r0, [r10]	@ unaligned
 2206 0078 DAF80410 		ldr	r1, [r10, #4]	@ unaligned
 2207 007c DAF80820 		ldr	r2, [r10, #8]	@ unaligned
 2208 0080 DAF80C30 		ldr	r3, [r10, #12]	@ unaligned
 2209 0084 EE46     		mov	lr, sp
 2210 0086 AEE80F00 		stmia	lr!, {r0, r1, r2, r3}
 2211              		.loc 1 852 0
 2212 008a 0021     		movs	r1, #0
 2213 008c 2346     		mov	r3, r4
 2214 008e 3046     		mov	r0, r6
 2215 0090 5246     		mov	r2, r10
 2216 0092 FFF7FEFF 		bl	aes_crypt_ecb
ARM GAS  C:\Users\jo\AppData\Local\Temp\cc8AA3HA.s 			page 40


 2217              	.LVL206:
 2218 0096 631E     		subs	r3, r4, #1
 2219 0098 3946     		mov	r1, r7
 2220 009a 04F10F0E 		add	lr, r4, #15
 2221              	.LVL207:
 2222              	.L101:
 2223              		.loc 1 855 0
 2224 009e 13F8012F 		ldrb	r2, [r3, #1]!	@ zero_extendqisi2
 2225 00a2 11F8010F 		ldrb	r0, [r1, #1]!	@ zero_extendqisi2
 2226              		.loc 1 854 0
 2227 00a6 7345     		cmp	r3, lr
 2228              		.loc 1 855 0
 2229 00a8 82EA0002 		eor	r2, r2, r0
 2230 00ac 1A70     		strb	r2, [r3]
 2231              		.loc 1 854 0
 2232 00ae F6D1     		bne	.L101
 2233              		.loc 1 857 0
 2234 00b0 EE46     		mov	lr, sp
 2235 00b2 BEE80F00 		ldmia	lr!, {r0, r1, r2, r3}
 2236              		.loc 1 849 0
 2237 00b6 B8F11008 		subs	r8, r8, #16
 2238              	.LVL208:
 2239              		.loc 1 859 0
 2240 00ba 0AF1100A 		add	r10, r10, #16
 2241              		.loc 1 860 0
 2242 00be 04F11004 		add	r4, r4, #16
 2243              	.LVL209:
 2244              		.loc 1 857 0
 2245 00c2 2860     		str	r0, [r5]	@ unaligned
 2246 00c4 6960     		str	r1, [r5, #4]	@ unaligned
 2247 00c6 AA60     		str	r2, [r5, #8]	@ unaligned
 2248 00c8 EB60     		str	r3, [r5, #12]	@ unaligned
 2249              	.LVL210:
 2250              		.loc 1 849 0
 2251 00ca D3D1     		bne	.L102
 2252 00cc CBE7     		b	.L106
 2253              	.LVL211:
 2254              	.L107:
 2255              	.LBE27:
 2256              	.LBE26:
 2257              		.loc 1 833 0
 2258 00ce 6FF02100 		mvn	r0, #33
 2259              	.LVL212:
 2260 00d2 C9E7     		b	.L112
 2261              		.cfi_endproc
 2262              	.LFE7:
 2263              		.size	aes_crypt_cbc, .-aes_crypt_cbc
 2264 00d4 AFF30080 		.section	.text.aes_crypt_cfb128,"ax",%progbits
 2264      AFF30080 
 2264      AFF30080 
 2265              		.align	2
 2266              		.p2align 4,,15
 2267              		.global	aes_crypt_cfb128
 2268              		.thumb
 2269              		.thumb_func
 2270              		.type	aes_crypt_cfb128, %function
 2271              	aes_crypt_cfb128:
ARM GAS  C:\Users\jo\AppData\Local\Temp\cc8AA3HA.s 			page 41


 2272              	.LFB8:
 2273              		.loc 1 895 0
 2274              		.cfi_startproc
 2275              		@ args = 12, pretend = 0, frame = 0
 2276              		@ frame_needed = 0, uses_anonymous_args = 0
 2277              	.LVL213:
 2278 0000 2DE9F047 		push	{r4, r5, r6, r7, r8, r9, r10, lr}
 2279              		.cfi_def_cfa_offset 32
 2280              		.cfi_offset 4, -32
 2281              		.cfi_offset 5, -28
 2282              		.cfi_offset 6, -24
 2283              		.cfi_offset 7, -20
 2284              		.cfi_offset 8, -16
 2285              		.cfi_offset 9, -12
 2286              		.cfi_offset 10, -8
 2287              		.cfi_offset 14, -4
 2288              		.loc 1 895 0
 2289 0004 08AE     		add	r6, sp, #32
 2290              	.LVL214:
 2291 0006 9846     		mov	r8, r3
 2292 0008 0746     		mov	r7, r0
 2293              		.loc 1 897 0
 2294 000a 1C68     		ldr	r4, [r3]
 2295              		.loc 1 895 0
 2296 000c 96E84006 		ldmia	r6, {r6, r9, r10}
 2297              	.LVL215:
 2298              		.loc 1 899 0
 2299 0010 A9B1     		cbz	r1, .L116
 2300              	.LVL216:
 2301              		.loc 1 915 0
 2302 0012 7AB1     		cbz	r2, .L118
 2303 0014 0AF1FF3A 		add	r10, r10, #-1
 2304 0018 1546     		mov	r5, r2
 2305              	.LVL217:
 2306              	.L122:
 2307              		.loc 1 917 0
 2308 001a 4CB3     		cbz	r4, .L130
 2309              	.L121:
 2310              		.loc 1 920 0
 2311 001c 315D     		ldrb	r1, [r6, r4]	@ zero_extendqisi2
 2312 001e 19F8013B 		ldrb	r3, [r9], #1	@ zero_extendqisi2
 2313              	.LVL218:
 2314              		.loc 1 922 0
 2315 0022 621C     		adds	r2, r4, #1
 2316              		.loc 1 920 0
 2317 0024 4B40     		eors	r3, r3, r1
 2318              		.loc 1 915 0
 2319 0026 013D     		subs	r5, r5, #1
 2320              	.LVL219:
 2321              		.loc 1 920 0
 2322 0028 0AF8013F 		strb	r3, [r10, #1]!
 2323 002c 3355     		strb	r3, [r6, r4]
 2324              		.loc 1 922 0
 2325 002e 02F00F04 		and	r4, r2, #15
 2326              	.LVL220:
 2327              		.loc 1 915 0
 2328 0032 F2D1     		bne	.L122
ARM GAS  C:\Users\jo\AppData\Local\Temp\cc8AA3HA.s 			page 42


 2329              	.L118:
 2330              		.loc 1 926 0
 2331 0034 C8F80040 		str	r4, [r8]
 2332              		.loc 1 929 0
 2333 0038 0020     		movs	r0, #0
 2334 003a BDE8F087 		pop	{r4, r5, r6, r7, r8, r9, r10, pc}
 2335              	.LVL221:
 2336              	.L116:
 2337              		.loc 1 901 0
 2338 003e 002A     		cmp	r2, #0
 2339 0040 F8D0     		beq	.L118
 2340 0042 1546     		mov	r5, r2
 2341              		.loc 1 903 0
 2342 0044 6CB1     		cbz	r4, .L131
 2343              	.LVL222:
 2344              	.L119:
 2345              		.loc 1 907 0
 2346 0046 335D     		ldrb	r3, [r6, r4]	@ zero_extendqisi2
 2347              		.loc 1 906 0
 2348 0048 19F8012B 		ldrb	r2, [r9], #1	@ zero_extendqisi2
 2349              	.LVL223:
 2350              		.loc 1 910 0
 2351 004c 611C     		adds	r1, r4, #1
 2352              		.loc 1 907 0
 2353 004e 5340     		eors	r3, r3, r2
 2354              		.loc 1 901 0
 2355 0050 013D     		subs	r5, r5, #1
 2356              		.loc 1 907 0
 2357 0052 0AF8013B 		strb	r3, [r10], #1
 2358              	.LVL224:
 2359              		.loc 1 908 0
 2360 0056 3255     		strb	r2, [r6, r4]
 2361              		.loc 1 910 0
 2362 0058 01F00F04 		and	r4, r1, #15
 2363              	.LVL225:
 2364              		.loc 1 901 0
 2365 005c EAD0     		beq	.L118
 2366              	.LVL226:
 2367              		.loc 1 903 0
 2368 005e 002C     		cmp	r4, #0
 2369 0060 F1D1     		bne	.L119
 2370              	.LVL227:
 2371              	.L131:
 2372              		.loc 1 904 0
 2373 0062 3846     		mov	r0, r7
 2374 0064 0121     		movs	r1, #1
 2375 0066 3246     		mov	r2, r6
 2376 0068 3346     		mov	r3, r6
 2377 006a FFF7FEFF 		bl	aes_crypt_ecb
 2378              	.LVL228:
 2379 006e EAE7     		b	.L119
 2380              	.LVL229:
 2381              	.L130:
 2382              		.loc 1 918 0
 2383 0070 3846     		mov	r0, r7
 2384 0072 0121     		movs	r1, #1
 2385 0074 3246     		mov	r2, r6
ARM GAS  C:\Users\jo\AppData\Local\Temp\cc8AA3HA.s 			page 43


 2386 0076 3346     		mov	r3, r6
 2387 0078 FFF7FEFF 		bl	aes_crypt_ecb
 2388              	.LVL230:
 2389 007c CEE7     		b	.L121
 2390              		.cfi_endproc
 2391              	.LFE8:
 2392              		.size	aes_crypt_cfb128, .-aes_crypt_cfb128
 2393 007e 00BF     		.section	.text.aes_crypt_cfb8,"ax",%progbits
 2394              		.align	2
 2395              		.p2align 4,,15
 2396              		.global	aes_crypt_cfb8
 2397              		.thumb
 2398              		.thumb_func
 2399              		.type	aes_crypt_cfb8, %function
 2400              	aes_crypt_cfb8:
 2401              	.LFB9:
 2402              		.loc 1 940 0
 2403              		.cfi_startproc
 2404              		@ args = 8, pretend = 0, frame = 24
 2405              		@ frame_needed = 0, uses_anonymous_args = 0
 2406              	.LVL231:
 2407              		.loc 1 944 0
 2408 0000 002A     		cmp	r2, #0
 2409 0002 42D0     		beq	.L141
 2410              		.loc 1 940 0
 2411 0004 2DE9F047 		push	{r4, r5, r6, r7, r8, r9, r10, lr}
 2412              		.cfi_def_cfa_offset 32
 2413              		.cfi_offset 4, -32
 2414              		.cfi_offset 5, -28
 2415              		.cfi_offset 6, -24
 2416              		.cfi_offset 7, -20
 2417              		.cfi_offset 8, -16
 2418              		.cfi_offset 9, -12
 2419              		.cfi_offset 10, -8
 2420              		.cfi_offset 14, -4
 2421 0008 86B0     		sub	sp, sp, #24
 2422              		.cfi_def_cfa_offset 56
 2423 000a 1C46     		mov	r4, r3
 2424 000c 0F9B     		ldr	r3, [sp, #60]
 2425              	.LVL232:
 2426 000e 03F10108 		add	r8, r3, #1
 2427 0012 0E9B     		ldr	r3, [sp, #56]
 2428 0014 8946     		mov	r9, r1
 2429 0016 8246     		mov	r10, r0
 2430              		.loc 1 944 0
 2431 0018 1646     		mov	r6, r2
 2432 001a 5F1C     		adds	r7, r3, #1
 2433 001c 16E0     		b	.L136
 2434              	.LVL233:
 2435              	.L143:
 2436              		.loc 1 952 0
 2437 001e 5340     		eors	r3, r3, r2
 2438              		.loc 1 950 0
 2439 0020 8DF81420 		strb	r2, [sp, #20]
 2440              		.loc 1 952 0
 2441 0024 08F8013C 		strb	r3, [r8, #-1]
 2442              	.LVL234:
ARM GAS  C:\Users\jo\AppData\Local\Temp\cc8AA3HA.s 			page 44


 2443              	.L135:
 2444              		.loc 1 957 0
 2445 0028 DDF80500 		ldr	r0, [sp, #5]	@ unaligned
 2446 002c DDF80910 		ldr	r1, [sp, #9]	@ unaligned
 2447 0030 DDF80D20 		ldr	r2, [sp, #13]	@ unaligned
 2448 0034 DDF81130 		ldr	r3, [sp, #17]	@ unaligned
 2449 0038 2060     		str	r0, [r4]	@ unaligned
 2450              		.loc 1 944 0
 2451 003a 013E     		subs	r6, r6, #1
 2452              	.LVL235:
 2453 003c 08F10108 		add	r8, r8, #1
 2454              	.LVL236:
 2455 0040 07F10107 		add	r7, r7, #1
 2456              		.loc 1 957 0
 2457 0044 6160     		str	r1, [r4, #4]	@ unaligned
 2458 0046 A260     		str	r2, [r4, #8]	@ unaligned
 2459 0048 E360     		str	r3, [r4, #12]	@ unaligned
 2460              	.LVL237:
 2461              		.loc 1 944 0
 2462 004a 1AD0     		beq	.L142
 2463              	.L136:
 2464              	.LVL238:
 2465              		.loc 1 946 0
 2466 004c 2068     		ldr	r0, [r4]	@ unaligned
 2467 004e 6168     		ldr	r1, [r4, #4]	@ unaligned
 2468 0050 A268     		ldr	r2, [r4, #8]	@ unaligned
 2469 0052 E368     		ldr	r3, [r4, #12]	@ unaligned
 2470 0054 01AD     		add	r5, sp, #4
 2471 0056 0FC5     		stmia	r5!, {r0, r1, r2, r3}
 2472              		.loc 1 947 0
 2473 0058 2246     		mov	r2, r4
 2474 005a 2346     		mov	r3, r4
 2475 005c 5046     		mov	r0, r10
 2476 005e 0121     		movs	r1, #1
 2477 0060 FFF7FEFF 		bl	aes_crypt_ecb
 2478              	.LVL239:
 2479              		.loc 1 950 0
 2480 0064 17F8012C 		ldrb	r2, [r7, #-1]	@ zero_extendqisi2
 2481              		.loc 1 952 0
 2482 0068 2378     		ldrb	r3, [r4]	@ zero_extendqisi2
 2483              		.loc 1 949 0
 2484 006a B9F1000F 		cmp	r9, #0
 2485 006e D6D0     		beq	.L143
 2486              		.loc 1 952 0
 2487 0070 5340     		eors	r3, r3, r2
 2488              		.loc 1 954 0
 2489 0072 B9F1010F 		cmp	r9, #1
 2490              		.loc 1 952 0
 2491 0076 08F8013C 		strb	r3, [r8, #-1]
 2492              	.LVL240:
 2493              		.loc 1 955 0
 2494 007a 08BF     		it	eq
 2495 007c 8DF81430 		strbeq	r3, [sp, #20]
 2496 0080 D2E7     		b	.L135
 2497              	.LVL241:
 2498              	.L142:
 2499              		.loc 1 961 0
ARM GAS  C:\Users\jo\AppData\Local\Temp\cc8AA3HA.s 			page 45


 2500 0082 0020     		movs	r0, #0
 2501 0084 06B0     		add	sp, sp, #24
 2502              		.cfi_def_cfa_offset 32
 2503              		@ sp needed
 2504 0086 BDE8F087 		pop	{r4, r5, r6, r7, r8, r9, r10, pc}
 2505              	.LVL242:
 2506              	.L141:
 2507              		.cfi_def_cfa_offset 0
 2508              		.cfi_restore 4
 2509              		.cfi_restore 5
 2510              		.cfi_restore 6
 2511              		.cfi_restore 7
 2512              		.cfi_restore 8
 2513              		.cfi_restore 9
 2514              		.cfi_restore 10
 2515              		.cfi_restore 14
 2516 008a 0020     		movs	r0, #0
 2517              	.LVL243:
 2518 008c 7047     		bx	lr
 2519              		.cfi_endproc
 2520              	.LFE9:
 2521              		.size	aes_crypt_cfb8, .-aes_crypt_cfb8
 2522 008e 00BF     		.section	.text.aes_crypt_ctr,"ax",%progbits
 2523              		.align	2
 2524              		.p2align 4,,15
 2525              		.global	aes_crypt_ctr
 2526              		.thumb
 2527              		.thumb_func
 2528              		.type	aes_crypt_ctr, %function
 2529              	aes_crypt_ctr:
 2530              	.LFB10:
 2531              		.loc 1 975 0
 2532              		.cfi_startproc
 2533              		@ args = 12, pretend = 0, frame = 0
 2534              		@ frame_needed = 0, uses_anonymous_args = 0
 2535              	.LVL244:
 2536 0000 2DE9F84F 		push	{r3, r4, r5, r6, r7, r8, r9, r10, fp, lr}
 2537              		.cfi_def_cfa_offset 40
 2538              		.cfi_offset 3, -40
 2539              		.cfi_offset 4, -36
 2540              		.cfi_offset 5, -32
 2541              		.cfi_offset 6, -28
 2542              		.cfi_offset 7, -24
 2543              		.cfi_offset 8, -20
 2544              		.cfi_offset 9, -16
 2545              		.cfi_offset 10, -12
 2546              		.cfi_offset 11, -8
 2547              		.cfi_offset 14, -4
 2548              		.loc 1 975 0
 2549 0004 DDF828B0 		ldr	fp, [sp, #40]
 2550              		.loc 1 977 0
 2551 0008 1468     		ldr	r4, [r2]
 2552              	.LVL245:
 2553              		.loc 1 975 0
 2554 000a 0B9F     		ldr	r7, [sp, #44]
 2555 000c DDF83080 		ldr	r8, [sp, #48]
 2556              	.LVL246:
ARM GAS  C:\Users\jo\AppData\Local\Temp\cc8AA3HA.s 			page 46


 2557 0010 9246     		mov	r10, r2
 2558              		.loc 1 979 0
 2559 0012 79B1     		cbz	r1, .L145
 2560 0014 8146     		mov	r9, r0
 2561 0016 1E46     		mov	r6, r3
 2562 0018 0D46     		mov	r5, r1
 2563              	.LVL247:
 2564              	.L147:
 2565              		.loc 1 981 0
 2566 001a 84B1     		cbz	r4, .L146
 2567              	.LVL248:
 2568              	.L148:
 2569              		.loc 1 989 0
 2570 001c 1BF80420 		ldrb	r2, [fp, r4]	@ zero_extendqisi2
 2571 0020 17F8013B 		ldrb	r3, [r7], #1	@ zero_extendqisi2
 2572              	.LVL249:
 2573              		.loc 1 991 0
 2574 0024 0134     		adds	r4, r4, #1
 2575              	.LVL250:
 2576              		.loc 1 989 0
 2577 0026 5340     		eors	r3, r3, r2
 2578              		.loc 1 979 0
 2579 0028 013D     		subs	r5, r5, #1
 2580              	.LVL251:
 2581              		.loc 1 991 0
 2582 002a 04F00F04 		and	r4, r4, #15
 2583              	.LVL252:
 2584              		.loc 1 989 0
 2585 002e 08F8013B 		strb	r3, [r8], #1
 2586              	.LVL253:
 2587              		.loc 1 979 0
 2588 0032 F2D1     		bne	.L147
 2589              	.LVL254:
 2590              	.L145:
 2591              		.loc 1 994 0
 2592 0034 CAF80040 		str	r4, [r10]
 2593              		.loc 1 997 0
 2594 0038 0020     		movs	r0, #0
 2595 003a BDE8F88F 		pop	{r3, r4, r5, r6, r7, r8, r9, r10, fp, pc}
 2596              	.LVL255:
 2597              	.L146:
 2598              		.loc 1 982 0
 2599 003e 3246     		mov	r2, r6
 2600 0040 4846     		mov	r0, r9
 2601 0042 0121     		movs	r1, #1
 2602 0044 5B46     		mov	r3, fp
 2603 0046 FFF7FEFF 		bl	aes_crypt_ecb
 2604              	.LVL256:
 2605 004a 06F11002 		add	r2, r6, #16
 2606              	.LVL257:
 2607              	.L149:
 2608              		.loc 1 985 0
 2609 004e 12F8013D 		ldrb	r3, [r2, #-1]!	@ zero_extendqisi2
 2610              	.LVL258:
 2611 0052 0133     		adds	r3, r3, #1
 2612 0054 DBB2     		uxtb	r3, r3
 2613 0056 1370     		strb	r3, [r2]
ARM GAS  C:\Users\jo\AppData\Local\Temp\cc8AA3HA.s 			page 47


 2614 0058 002B     		cmp	r3, #0
 2615 005a DFD1     		bne	.L148
 2616              		.loc 1 984 0 discriminator 2
 2617 005c B242     		cmp	r2, r6
 2618 005e F6D1     		bne	.L149
 2619 0060 DCE7     		b	.L148
 2620              		.cfi_endproc
 2621              	.LFE10:
 2622              		.size	aes_crypt_ctr, .-aes_crypt_ctr
 2623 0062 00BFAFF3 		.section	.text.aes_self_test,"ax",%progbits
 2623      0080AFF3 
 2623      0080AFF3 
 2623      0080
 2624              		.align	2
 2625              		.p2align 4,,15
 2626              		.global	aes_self_test
 2627              		.thumb
 2628              		.thumb_func
 2629              		.type	aes_self_test, %function
 2630              	aes_self_test:
 2631              	.LFB11:
 2632              		.loc 1 1183 0
 2633              		.cfi_startproc
 2634              		@ args = 0, pretend = 0, frame = 456
 2635              		@ frame_needed = 0, uses_anonymous_args = 0
 2636              	.LVL259:
 2637 0000 2DE9F04F 		push	{r4, r5, r6, r7, r8, r9, r10, fp, lr}
 2638              		.cfi_def_cfa_offset 36
 2639              		.cfi_offset 4, -36
 2640              		.cfi_offset 5, -32
 2641              		.cfi_offset 6, -28
 2642              		.cfi_offset 7, -24
 2643              		.cfi_offset 8, -20
 2644              		.cfi_offset 9, -16
 2645              		.cfi_offset 10, -12
 2646              		.cfi_offset 11, -8
 2647              		.cfi_offset 14, -4
 2648              		.loc 1 1201 0
 2649 0004 0026     		movs	r6, #0
 2650              		.loc 1 1183 0
 2651 0006 F7B0     		sub	sp, sp, #476
 2652              		.cfi_def_cfa_offset 512
 2653              		.loc 1 1183 0
 2654 0008 8346     		mov	fp, r0
 2655              	.LBB28:
 2656              	.LBB29:
 2657              		.loc 1 470 0
 2658 000a 3146     		mov	r1, r6
 2659 000c 30A8     		add	r0, sp, #192
 2660              	.LVL260:
 2661 000e 4FF48C72 		mov	r2, #280
 2662              	.LBE29:
 2663              	.LBE28:
 2664              		.loc 1 1201 0
 2665 0012 1896     		str	r6, [sp, #96]
 2666 0014 1996     		str	r6, [sp, #100]
 2667 0016 1A96     		str	r6, [sp, #104]
ARM GAS  C:\Users\jo\AppData\Local\Temp\cc8AA3HA.s 			page 48


 2668 0018 1B96     		str	r6, [sp, #108]
 2669 001a 1C96     		str	r6, [sp, #112]
 2670 001c 1D96     		str	r6, [sp, #116]
 2671 001e 1E96     		str	r6, [sp, #120]
 2672 0020 1F96     		str	r6, [sp, #124]
 2673              	.LVL261:
 2674              	.LBB31:
 2675              	.LBB30:
 2676              		.loc 1 470 0
 2677 0022 FFF7FEFF 		bl	memset
 2678              	.LVL262:
 2679              	.LBE30:
 2680              	.LBE31:
 2681              		.loc 1 1213 0
 2682 0026 DFF82893 		ldr	r9, .L251+8
 2683 002a DFF82883 		ldr	r8, .L251+12
 2684 002e 20AC     		add	r4, sp, #128
 2685              	.LVL263:
 2686              	.L167:
 2687              		.loc 1 1209 0
 2688 0030 7710     		asrs	r7, r6, #1
 2689              	.LVL264:
 2690              		.loc 1 1213 0
 2691 0032 BD1C     		adds	r5, r7, #2
 2692              		.loc 1 1210 0
 2693 0034 06F0010A 		and	r10, r6, #1
 2694              	.LVL265:
 2695              		.loc 1 1213 0
 2696 0038 AD01     		lsls	r5, r5, #6
 2697              		.loc 1 1212 0
 2698 003a BBF1000F 		cmp	fp, #0
 2699 003e 08D0     		beq	.L158
 2700              		.loc 1 1213 0
 2701 0040 2946     		mov	r1, r5
 2702 0042 C148     		ldr	r0, .L251
 2703 0044 BAF1000F 		cmp	r10, #0
 2704 0048 0CBF     		ite	eq
 2705 004a 4A46     		moveq	r2, r9
 2706 004c 4246     		movne	r2, r8
 2707 004e FFF7FEFF 		bl	printf
 2708              	.LVL266:
 2709              	.L158:
 2710              		.loc 1 1216 0
 2711 0052 0023     		movs	r3, #0
 2712 0054 2360     		str	r3, [r4]
 2713              		.loc 1 1220 0
 2714 0056 2A46     		mov	r2, r5
 2715              		.loc 1 1216 0
 2716 0058 2193     		str	r3, [sp, #132]
 2717 005a 2293     		str	r3, [sp, #136]
 2718 005c 2393     		str	r3, [sp, #140]
 2719              		.loc 1 1220 0
 2720 005e 30A8     		add	r0, sp, #192
 2721              	.LVL267:
 2722 0060 18A9     		add	r1, sp, #96
 2723              		.loc 1 1218 0
 2724 0062 BAF1000F 		cmp	r10, #0
ARM GAS  C:\Users\jo\AppData\Local\Temp\cc8AA3HA.s 			page 49


 2725 0066 40F06081 		bne	.L160
 2726              		.loc 1 1220 0
 2727 006a FFF7FEFF 		bl	aes_setkey_dec
 2728              	.LVL268:
 2729 006e 42F21075 		movw	r5, #10000
 2730              	.LVL269:
 2731              	.L161:
 2732              		.loc 1 1223 0 discriminator 3
 2733 0072 30A8     		add	r0, sp, #192
 2734              	.LVL270:
 2735 0074 0021     		movs	r1, #0
 2736 0076 2246     		mov	r2, r4
 2737 0078 2346     		mov	r3, r4
 2738 007a FFF7FEFF 		bl	aes_crypt_ecb
 2739              	.LVL271:
 2740              		.loc 1 1222 0 discriminator 3
 2741 007e 013D     		subs	r5, r5, #1
 2742              	.LVL272:
 2743 0080 F7D1     		bne	.L161
 2744              		.loc 1 1225 0
 2745 0082 B249     		ldr	r1, .L251+4
 2746              	.LVL273:
 2747              	.L241:
 2748 0084 2046     		mov	r0, r4
 2749 0086 01EB0711 		add	r1, r1, r7, lsl #4
 2750 008a 1022     		movs	r2, #16
 2751 008c FFF7FEFF 		bl	memcmp
 2752              	.LVL274:
 2753 0090 0028     		cmp	r0, #0
 2754 0092 40F03B81 		bne	.L165
 2755              		.loc 1 1251 0
 2756 0096 BBF1000F 		cmp	fp, #0
 2757 009a 40F0C481 		bne	.L242
 2758              	.L166:
 2759              		.loc 1 1207 0 discriminator 2
 2760 009e 0136     		adds	r6, r6, #1
 2761              	.LVL275:
 2762 00a0 062E     		cmp	r6, #6
 2763 00a2 C5D1     		bne	.L167
 2764              		.loc 1 1255 0
 2765 00a4 BBF1000F 		cmp	fp, #0
 2766 00a8 40F0C981 		bne	.L243
 2767              	.L168:
 2768              	.LVL276:
 2769              		.loc 1 1236 0 discriminator 1
 2770 00ac 4FF00008 		mov	r8, #0
 2771 00b0 08AF     		add	r7, sp, #32
 2772              	.LVL277:
 2773 00b2 0CAD     		add	r5, sp, #48
 2774              	.LVL278:
 2775              	.L177:
 2776              		.loc 1 1264 0
 2777 00b4 4FEA680A 		asr	r10, r8, #1
 2778              	.LVL279:
 2779              		.loc 1 1268 0
 2780 00b8 0AF10206 		add	r6, r10, #2
 2781              		.loc 1 1265 0
ARM GAS  C:\Users\jo\AppData\Local\Temp\cc8AA3HA.s 			page 50


 2782 00bc 08F00109 		and	r9, r8, #1
 2783              	.LVL280:
 2784              		.loc 1 1268 0
 2785 00c0 B601     		lsls	r6, r6, #6
 2786              		.loc 1 1267 0
 2787 00c2 BBF1000F 		cmp	fp, #0
 2788 00c6 09D0     		beq	.L170
 2789              		.loc 1 1268 0
 2790 00c8 A14A     		ldr	r2, .L251+8
 2791 00ca A24B     		ldr	r3, .L251+12
 2792 00cc A248     		ldr	r0, .L251+16
 2793 00ce 3146     		mov	r1, r6
 2794 00d0 B9F1000F 		cmp	r9, #0
 2795 00d4 18BF     		it	ne
 2796 00d6 1A46     		movne	r2, r3
 2797 00d8 FFF7FEFF 		bl	printf
 2798              	.LVL281:
 2799              	.L170:
 2800              		.loc 1 1271 0
 2801 00dc 0023     		movs	r3, #0
 2802 00de 3B60     		str	r3, [r7]
 2803              		.loc 1 1272 0
 2804 00e0 2B60     		str	r3, [r5]
 2805              		.loc 1 1273 0
 2806 00e2 2360     		str	r3, [r4]
 2807              		.loc 1 1271 0
 2808 00e4 0993     		str	r3, [sp, #36]
 2809 00e6 0A93     		str	r3, [sp, #40]
 2810 00e8 0B93     		str	r3, [sp, #44]
 2811              		.loc 1 1272 0
 2812 00ea 0D93     		str	r3, [sp, #52]
 2813 00ec 0E93     		str	r3, [sp, #56]
 2814 00ee 0F93     		str	r3, [sp, #60]
 2815              		.loc 1 1273 0
 2816 00f0 2193     		str	r3, [sp, #132]
 2817 00f2 2293     		str	r3, [sp, #136]
 2818 00f4 2393     		str	r3, [sp, #140]
 2819              		.loc 1 1277 0
 2820 00f6 3246     		mov	r2, r6
 2821 00f8 30A8     		add	r0, sp, #192
 2822              	.LVL282:
 2823 00fa 18A9     		add	r1, sp, #96
 2824              		.loc 1 1275 0
 2825 00fc B9F1000F 		cmp	r9, #0
 2826 0100 40F0DE80 		bne	.L172
 2827              		.loc 1 1277 0
 2828 0104 FFF7FEFF 		bl	aes_setkey_dec
 2829              	.LVL283:
 2830 0108 42F21076 		movw	r6, #10000
 2831              	.LVL284:
 2832              	.L173:
 2833              		.loc 1 1280 0 discriminator 3
 2834 010c 0094     		str	r4, [sp]
 2835 010e 0194     		str	r4, [sp, #4]
 2836 0110 30A8     		add	r0, sp, #192
 2837              	.LVL285:
 2838 0112 0021     		movs	r1, #0
ARM GAS  C:\Users\jo\AppData\Local\Temp\cc8AA3HA.s 			page 51


 2839 0114 1022     		movs	r2, #16
 2840 0116 3B46     		mov	r3, r7
 2841 0118 FFF7FEFF 		bl	aes_crypt_cbc
 2842              	.LVL286:
 2843              		.loc 1 1279 0 discriminator 3
 2844 011c 013E     		subs	r6, r6, #1
 2845              	.LVL287:
 2846 011e F5D1     		bne	.L173
 2847              		.loc 1 1282 0
 2848 0120 8E49     		ldr	r1, .L251+20
 2849 0122 2046     		mov	r0, r4
 2850 0124 01EB0A11 		add	r1, r1, r10, lsl #4
 2851 0128 1022     		movs	r2, #16
 2852 012a FFF7FEFF 		bl	memcmp
 2853              	.LVL288:
 2854 012e 0028     		cmp	r0, #0
 2855 0130 40F0EC80 		bne	.L165
 2856              	.LVL289:
 2857              	.L174:
 2858              		.loc 1 1316 0
 2859 0134 BBF1000F 		cmp	fp, #0
 2860 0138 40F07981 		bne	.L244
 2861              	.L176:
 2862              		.loc 1 1262 0 discriminator 2
 2863 013c 08F10108 		add	r8, r8, #1
 2864              	.LVL290:
 2865 0140 B8F1060F 		cmp	r8, #6
 2866 0144 B6D1     		bne	.L177
 2867              		.loc 1 1320 0
 2868 0146 BBF1000F 		cmp	fp, #0
 2869 014a 40F07C81 		bne	.L245
 2870              	.L178:
 2871              	.LVL291:
 2872              		.loc 1 1293 0 discriminator 1
 2873 014e 4FF00008 		mov	r8, #0
 2874              	.LVL292:
 2875              	.L185:
 2876              		.loc 1 1330 0
 2877 0152 4FEA6809 		asr	r9, r8, #1
 2878              	.LVL293:
 2879              		.loc 1 1334 0
 2880 0156 09F10205 		add	r5, r9, #2
 2881 015a 7D4A     		ldr	r2, .L251+8
 2882 015c 7D4B     		ldr	r3, .L251+12
 2883 015e 8048     		ldr	r0, .L251+24
 2884 0160 AE01     		lsls	r6, r5, #6
 2885              		.loc 1 1331 0
 2886 0162 08F0010A 		and	r10, r8, #1
 2887              	.LVL294:
 2888              		.loc 1 1334 0
 2889 0166 3146     		mov	r1, r6
 2890 0168 BAF1000F 		cmp	r10, #0
 2891 016c 18BF     		it	ne
 2892 016e 1A46     		movne	r2, r3
 2893              		.loc 1 1333 0
 2894 0170 BBF1000F 		cmp	fp, #0
 2895 0174 01D0     		beq	.L180
ARM GAS  C:\Users\jo\AppData\Local\Temp\cc8AA3HA.s 			page 52


 2896              		.loc 1 1334 0
 2897 0176 FFF7FEFF 		bl	printf
 2898              	.LVL295:
 2899              	.L180:
 2900              		.loc 1 1337 0
 2901 017a 7A4B     		ldr	r3, .L251+28
 2902 017c 0FCB     		ldmia	r3, {r0, r1, r2, r3}
 2903 017e 87E80F00 		stmia	r7, {r0, r1, r2, r3}
 2904              		.loc 1 1338 0
 2905 0182 794B     		ldr	r3, .L251+32
 2906 0184 EA00     		lsls	r2, r5, #3
 2907 0186 03EB4911 		add	r1, r3, r9, lsl #5
 2908 018a 18A8     		add	r0, sp, #96
 2909 018c FFF7FEFF 		bl	memcpy
 2910              	.LVL296:
 2911              		.loc 1 1340 0
 2912 0190 0023     		movs	r3, #0
 2913              		.loc 1 1341 0
 2914 0192 3246     		mov	r2, r6
 2915 0194 30A8     		add	r0, sp, #192
 2916              	.LVL297:
 2917 0196 18A9     		add	r1, sp, #96
 2918              		.loc 1 1340 0
 2919 0198 0793     		str	r3, [sp, #28]
 2920              		.loc 1 1341 0
 2921 019a FFF7FEFF 		bl	aes_setkey_enc
 2922              	.LVL298:
 2923              		.loc 1 1345 0
 2924 019e 734B     		ldr	r3, .L251+36
 2925              		.loc 1 1359 0
 2926 01a0 734E     		ldr	r6, .L251+40
 2927              		.loc 1 1328 0
 2928 01a2 08F10108 		add	r8, r8, #1
 2929              	.LVL299:
 2930              		.loc 1 1345 0
 2931 01a6 03EB891C 		add	ip, r3, r9, lsl #6
 2932 01aa A646     		mov	lr, r4
 2933              		.loc 1 1359 0
 2934 01ac 2546     		mov	r5, r4
 2935              		.loc 1 1343 0
 2936 01ae BAF1000F 		cmp	r10, #0
 2937 01b2 40F0EF80 		bne	.L182
 2938              		.loc 1 1345 0
 2939 01b6 BCE80F00 		ldmia	ip!, {r0, r1, r2, r3}
 2940 01ba AEE80F00 		stmia	lr!, {r0, r1, r2, r3}
 2941 01be BCE80F00 		ldmia	ip!, {r0, r1, r2, r3}
 2942 01c2 AEE80F00 		stmia	lr!, {r0, r1, r2, r3}
 2943 01c6 BCE80F00 		ldmia	ip!, {r0, r1, r2, r3}
 2944 01ca AEE80F00 		stmia	lr!, {r0, r1, r2, r3}
 2945 01ce 9CE80F00 		ldmia	ip, {r0, r1, r2, r3}
 2946              		.loc 1 1346 0
 2947 01d2 0097     		str	r7, [sp]
 2948              		.loc 1 1345 0
 2949 01d4 8EE80F00 		stmia	lr, {r0, r1, r2, r3}
 2950              		.loc 1 1346 0
 2951 01d8 0194     		str	r4, [sp, #4]
 2952 01da 5146     		mov	r1, r10
ARM GAS  C:\Users\jo\AppData\Local\Temp\cc8AA3HA.s 			page 53


 2953 01dc 4022     		movs	r2, #64
 2954 01de 0294     		str	r4, [sp, #8]
 2955 01e0 30A8     		add	r0, sp, #192
 2956              	.LVL300:
 2957 01e2 07AB     		add	r3, sp, #28
 2958 01e4 FFF7FEFF 		bl	aes_crypt_cfb128
 2959              	.LVL301:
 2960              		.loc 1 1348 0
 2961 01e8 2046     		mov	r0, r4
 2962 01ea 3146     		mov	r1, r6
 2963 01ec 4022     		movs	r2, #64
 2964 01ee FFF7FEFF 		bl	memcmp
 2965              	.LVL302:
 2966 01f2 0028     		cmp	r0, #0
 2967 01f4 40F08A80 		bne	.L165
 2968              		.loc 1 1372 0
 2969 01f8 BBF1000F 		cmp	fp, #0
 2970 01fc 40F0EA80 		bne	.L246
 2971              	.L184:
 2972              	.LVL303:
 2973              		.loc 1 1328 0 discriminator 2
 2974 0200 B8F1060F 		cmp	r8, #6
 2975 0204 A5D1     		bne	.L185
 2976              		.loc 1 1376 0
 2977 0206 BBF1000F 		cmp	fp, #0
 2978 020a 40F01481 		bne	.L247
 2979              	.L186:
 2980              	.LVL304:
 2981 020e 14AB     		add	r3, sp, #80
 2982              		.loc 1 1334 0 discriminator 1
 2983 0210 4FF00008 		mov	r8, #0
 2984 0214 0593     		str	r3, [sp, #20]
 2985              	.LVL305:
 2986              	.L192:
 2987              		.loc 1 1390 0
 2988 0216 4E49     		ldr	r1, .L251+8
 2989 0218 4E4B     		ldr	r3, .L251+12
 2990 021a 5648     		ldr	r0, .L251+44
 2991              		.loc 1 1387 0
 2992 021c 08F00106 		and	r6, r8, #1
 2993              		.loc 1 1386 0
 2994 0220 4FEA680A 		asr	r10, r8, #1
 2995              	.LVL306:
 2996              		.loc 1 1390 0
 2997 0224 002E     		cmp	r6, #0
 2998 0226 18BF     		it	ne
 2999 0228 1946     		movne	r1, r3
 3000              		.loc 1 1384 0
 3001 022a 08F10108 		add	r8, r8, #1
 3002              	.LVL307:
 3003              		.loc 1 1389 0
 3004 022e BBF1000F 		cmp	fp, #0
 3005 0232 01D0     		beq	.L187
 3006              		.loc 1 1390 0
 3007 0234 FFF7FEFF 		bl	printf
 3008              	.LVL308:
 3009              	.L187:
ARM GAS  C:\Users\jo\AppData\Local\Temp\cc8AA3HA.s 			page 54


 3010              		.loc 1 1393 0
 3011 0238 4F4B     		ldr	r3, .L251+48
 3012              		.loc 1 1394 0
 3013 023a 504F     		ldr	r7, .L251+52
 3014              		.loc 1 1393 0
 3015 023c 4FEA0A15 		lsl	r5, r10, #4
 3016 0240 2B44     		add	r3, r3, r5
 3017 0242 0FCB     		ldmia	r3, {r0, r1, r2, r3}
 3018              		.loc 1 1394 0
 3019 0244 3D44     		add	r5, r5, r7
 3020              		.loc 1 1393 0
 3021 0246 10AF     		add	r7, sp, #64
 3022 0248 87E80F00 		stmia	r7, {r0, r1, r2, r3}
 3023              		.loc 1 1394 0
 3024 024c 95E80F00 		ldmia	r5, {r0, r1, r2, r3}
 3025 0250 18AF     		add	r7, sp, #96
 3026 0252 87E80F00 		stmia	r7, {r0, r1, r2, r3}
 3027              		.loc 1 1396 0
 3028 0256 0025     		movs	r5, #0
 3029              		.loc 1 1397 0
 3030 0258 3946     		mov	r1, r7
 3031 025a 30A8     		add	r0, sp, #192
 3032              	.LVL309:
 3033 025c 8022     		movs	r2, #128
 3034              		.loc 1 1396 0
 3035 025e 0795     		str	r5, [sp, #28]
 3036              		.loc 1 1397 0
 3037 0260 FFF7FEFF 		bl	aes_setkey_enc
 3038              	.LVL310:
 3039              		.loc 1 1402 0
 3040 0264 0AEB4A05 		add	r5, r10, r10, lsl #1
 3041 0268 454B     		ldr	r3, .L251+56
 3042 026a 2D01     		lsls	r5, r5, #4
 3043 026c 5919     		adds	r1, r3, r5
 3044              		.loc 1 1419 0
 3045 026e A946     		mov	r9, r5
 3046              		.loc 1 1402 0
 3047 0270 2046     		mov	r0, r4
 3048 0272 444B     		ldr	r3, .L251+60
 3049              		.loc 1 1399 0
 3050 0274 002E     		cmp	r6, #0
 3051 0276 40F0B180 		bne	.L189
 3052              		.loc 1 1402 0
 3053 027a 53F82A60 		ldr	r6, [r3, r10, lsl #2]
 3054              	.LVL311:
 3055 027e 3246     		mov	r2, r6
 3056 0280 FFF7FEFF 		bl	memcpy
 3057              	.LVL312:
 3058              		.loc 1 1404 0
 3059 0284 059B     		ldr	r3, [sp, #20]
 3060 0286 0294     		str	r4, [sp, #8]
 3061 0288 8DE81800 		stmia	sp, {r3, r4}
 3062 028c 3146     		mov	r1, r6
 3063 028e 07AA     		add	r2, sp, #28
 3064 0290 10AB     		add	r3, sp, #64
 3065 0292 30A8     		add	r0, sp, #192
 3066              	.LVL313:
ARM GAS  C:\Users\jo\AppData\Local\Temp\cc8AA3HA.s 			page 55


 3067 0294 FFF7FEFF 		bl	aes_crypt_ctr
 3068              	.LVL314:
 3069              		.loc 1 1407 0
 3070 0298 3B4B     		ldr	r3, .L251+64
 3071 029a 2046     		mov	r0, r4
 3072 029c 3246     		mov	r2, r6
 3073 029e 5919     		adds	r1, r3, r5
 3074 02a0 FFF7FEFF 		bl	memcmp
 3075              	.LVL315:
 3076 02a4 90BB     		cbnz	r0, .L165
 3077              		.loc 1 1434 0
 3078 02a6 BBF1000F 		cmp	fp, #0
 3079 02aa 40F0B880 		bne	.L248
 3080              	.L191:
 3081              	.LVL316:
 3082              		.loc 1 1384 0 discriminator 2
 3083 02ae B8F1060F 		cmp	r8, #6
 3084 02b2 B0D1     		bne	.L192
 3085              		.loc 1 1438 0
 3086 02b4 BBF1000F 		cmp	fp, #0
 3087 02b8 40F0CE80 		bne	.L249
 3088              		.loc 1 1442 0
 3089 02bc 5846     		mov	r0, fp
 3090 02be 2AE0     		b	.L163
 3091              	.LVL317:
 3092              	.L172:
 3093              		.loc 1 1293 0
 3094 02c0 FFF7FEFF 		bl	aes_setkey_enc
 3095              	.LVL318:
 3096 02c4 42F21079 		movw	r9, #10000
 3097              	.LVL319:
 3098 02c8 14AE     		add	r6, sp, #80
 3099              	.LVL320:
 3100              	.L175:
 3101              	.LBB32:
 3102              		.loc 1 1299 0 discriminator 3
 3103 02ca 0121     		movs	r1, #1
 3104 02cc 1022     		movs	r2, #16
 3105 02ce 3B46     		mov	r3, r7
 3106 02d0 0094     		str	r4, [sp]
 3107 02d2 0194     		str	r4, [sp, #4]
 3108 02d4 30A8     		add	r0, sp, #192
 3109              	.LVL321:
 3110 02d6 FFF7FEFF 		bl	aes_crypt_cbc
 3111              	.LVL322:
 3112              		.loc 1 1301 0 discriminator 3
 3113 02da 95E80F00 		ldmia	r5, {r0, r1, r2, r3}
 3114 02de 86E80F00 		stmia	r6, {r0, r1, r2, r3}
 3115              		.loc 1 1302 0 discriminator 3
 3116 02e2 94E80F00 		ldmia	r4, {r0, r1, r2, r3}
 3117 02e6 85E80F00 		stmia	r5, {r0, r1, r2, r3}
 3118              		.loc 1 1303 0 discriminator 3
 3119 02ea 96E80F00 		ldmia	r6, {r0, r1, r2, r3}
 3120              	.LBE32:
 3121              		.loc 1 1295 0 discriminator 3
 3122 02ee B9F10109 		subs	r9, r9, #1
 3123              	.LVL323:
ARM GAS  C:\Users\jo\AppData\Local\Temp\cc8AA3HA.s 			page 56


 3124              	.LBB33:
 3125              		.loc 1 1303 0 discriminator 3
 3126 02f2 84E80F00 		stmia	r4, {r0, r1, r2, r3}
 3127              	.LVL324:
 3128              	.LBE33:
 3129              		.loc 1 1295 0 discriminator 3
 3130 02f6 E8D1     		bne	.L175
 3131              		.loc 1 1306 0
 3132 02f8 2449     		ldr	r1, .L251+68
 3133 02fa 2846     		mov	r0, r5
 3134 02fc 01EB0A11 		add	r1, r1, r10, lsl #4
 3135 0300 1022     		movs	r2, #16
 3136 0302 FFF7FEFF 		bl	memcmp
 3137              	.LVL325:
 3138 0306 0028     		cmp	r0, #0
 3139 0308 3FF414AF 		beq	.L174
 3140              	.LVL326:
 3141              	.L165:
 3142              		.loc 1 1230 0
 3143 030c 0120     		movs	r0, #1
 3144              		.loc 1 1227 0
 3145 030e BBF1000F 		cmp	fp, #0
 3146 0312 40F09C80 		bne	.L250
 3147              	.L163:
 3148              	.LVL327:
 3149 0316 30AB     		add	r3, sp, #192
 3150              	.LVL328:
 3151              	.LBB34:
 3152              	.LBB35:
 3153              	.LBB36:
 3154              		.loc 1 60 0
 3155 0318 0022     		movs	r2, #0
 3156              	.LVL329:
 3157              	.L193:
 3158 031a 1A70     		strb	r2, [r3]
 3159              	.LVL330:
 3160 031c 76A9     		add	r1, sp, #472
 3161 031e 0133     		adds	r3, r3, #1
 3162              	.LVL331:
 3163 0320 8B42     		cmp	r3, r1
 3164 0322 FAD1     		bne	.L193
 3165              	.LBE36:
 3166              	.LBE35:
 3167              	.LBE34:
 3168              		.loc 1 1448 0
 3169 0324 77B0     		add	sp, sp, #476
 3170              		.cfi_remember_state
 3171              		.cfi_def_cfa_offset 36
 3172              		@ sp needed
 3173 0326 BDE8F08F 		pop	{r4, r5, r6, r7, r8, r9, r10, fp, pc}
 3174              	.LVL332:
 3175              	.L160:
 3176              		.cfi_restore_state
 3177              		.loc 1 1236 0
 3178 032a FFF7FEFF 		bl	aes_setkey_enc
 3179              	.LVL333:
 3180 032e 42F21075 		movw	r5, #10000
ARM GAS  C:\Users\jo\AppData\Local\Temp\cc8AA3HA.s 			page 57


 3181              	.LVL334:
 3182              	.L164:
 3183              		.loc 1 1239 0 discriminator 3
 3184 0332 30A8     		add	r0, sp, #192
 3185              	.LVL335:
 3186 0334 0121     		movs	r1, #1
 3187 0336 2246     		mov	r2, r4
 3188 0338 2346     		mov	r3, r4
 3189 033a FFF7FEFF 		bl	aes_crypt_ecb
 3190              	.LVL336:
 3191              		.loc 1 1238 0 discriminator 3
 3192 033e 013D     		subs	r5, r5, #1
 3193              	.LVL337:
 3194 0340 F7D1     		bne	.L164
 3195              		.loc 1 1241 0
 3196 0342 1349     		ldr	r1, .L251+72
 3197 0344 9EE6     		b	.L241
 3198              	.L252:
 3199 0346 00BF     		.align	2
 3200              	.L251:
 3201 0348 08000000 		.word	.LC2
 3202 034c 00000000 		.word	.LANCHOR12
 3203 0350 00000000 		.word	.LC0
 3204 0354 04000000 		.word	.LC1
 3205 0358 30000000 		.word	.LC5
 3206 035c 00000000 		.word	.LANCHOR14
 3207 0360 48000000 		.word	.LC6
 3208 0364 00000000 		.word	.LANCHOR16
 3209 0368 00000000 		.word	.LANCHOR17
 3210 036c 00000000 		.word	.LANCHOR18
 3211 0370 00000000 		.word	.LANCHOR19
 3212 0374 60000000 		.word	.LC7
 3213 0378 00000000 		.word	.LANCHOR20
 3214 037c 00000000 		.word	.LANCHOR21
 3215 0380 00000000 		.word	.LANCHOR23
 3216 0384 00000000 		.word	.LANCHOR22
 3217 0388 00000000 		.word	.LANCHOR24
 3218 038c 00000000 		.word	.LANCHOR15
 3219 0390 00000000 		.word	.LANCHOR13
 3220              	.LVL338:
 3221              	.L182:
 3222              		.loc 1 1359 0
 3223 0394 0FCE     		ldmia	r6!, {r0, r1, r2, r3}
 3224 0396 0FC5     		stmia	r5!, {r0, r1, r2, r3}
 3225 0398 0FCE     		ldmia	r6!, {r0, r1, r2, r3}
 3226 039a 0FC5     		stmia	r5!, {r0, r1, r2, r3}
 3227 039c 0FCE     		ldmia	r6!, {r0, r1, r2, r3}
 3228 039e 0FC5     		stmia	r5!, {r0, r1, r2, r3}
 3229 03a0 96E80F00 		ldmia	r6, {r0, r1, r2, r3}
 3230              		.loc 1 1360 0
 3231 03a4 0097     		str	r7, [sp]
 3232              		.loc 1 1359 0
 3233 03a6 85E80F00 		stmia	r5, {r0, r1, r2, r3}
 3234              		.loc 1 1360 0
 3235 03aa 0194     		str	r4, [sp, #4]
 3236 03ac 0121     		movs	r1, #1
 3237 03ae 4022     		movs	r2, #64
ARM GAS  C:\Users\jo\AppData\Local\Temp\cc8AA3HA.s 			page 58


 3238 03b0 07AB     		add	r3, sp, #28
 3239 03b2 30A8     		add	r0, sp, #192
 3240              	.LVL339:
 3241 03b4 0294     		str	r4, [sp, #8]
 3242 03b6 FFF7FEFF 		bl	aes_crypt_cfb128
 3243              	.LVL340:
 3244              		.loc 1 1362 0
 3245 03ba 2A4B     		ldr	r3, .L253
 3246 03bc 2046     		mov	r0, r4
 3247 03be 03EB8911 		add	r1, r3, r9, lsl #6
 3248 03c2 4022     		movs	r2, #64
 3249 03c4 FFF7FEFF 		bl	memcmp
 3250              	.LVL341:
 3251 03c8 0028     		cmp	r0, #0
 3252 03ca 9FD1     		bne	.L165
 3253              		.loc 1 1372 0
 3254 03cc BBF1000F 		cmp	fp, #0
 3255 03d0 3FF416AF 		beq	.L184
 3256              	.L246:
 3257              		.loc 1 1373 0
 3258 03d4 2448     		ldr	r0, .L253+4
 3259 03d6 FFF7FEFF 		bl	puts
 3260              	.LVL342:
 3261 03da 11E7     		b	.L184
 3262              	.LVL343:
 3263              	.L189:
 3264              		.loc 1 1419 0
 3265 03dc 53F82A50 		ldr	r5, [r3, r10, lsl #2]
 3266 03e0 224B     		ldr	r3, .L253+8
 3267 03e2 2A46     		mov	r2, r5
 3268 03e4 03EB0901 		add	r1, r3, r9
 3269 03e8 2046     		mov	r0, r4
 3270 03ea FFF7FEFF 		bl	memcpy
 3271              	.LVL344:
 3272              		.loc 1 1421 0
 3273 03ee 059B     		ldr	r3, [sp, #20]
 3274 03f0 0294     		str	r4, [sp, #8]
 3275 03f2 8DE81800 		stmia	sp, {r3, r4}
 3276 03f6 2946     		mov	r1, r5
 3277 03f8 07AA     		add	r2, sp, #28
 3278 03fa 10AB     		add	r3, sp, #64
 3279 03fc 30A8     		add	r0, sp, #192
 3280              	.LVL345:
 3281 03fe FFF7FEFF 		bl	aes_crypt_ctr
 3282              	.LVL346:
 3283              		.loc 1 1424 0
 3284 0402 1B4B     		ldr	r3, .L253+12
 3285 0404 2046     		mov	r0, r4
 3286 0406 2A46     		mov	r2, r5
 3287 0408 03EB0901 		add	r1, r3, r9
 3288 040c FFF7FEFF 		bl	memcmp
 3289              	.LVL347:
 3290 0410 0028     		cmp	r0, #0
 3291 0412 7FF47BAF 		bne	.L165
 3292              		.loc 1 1434 0
 3293 0416 BBF1000F 		cmp	fp, #0
 3294 041a 3FF448AF 		beq	.L191
ARM GAS  C:\Users\jo\AppData\Local\Temp\cc8AA3HA.s 			page 59


 3295              	.LVL348:
 3296              	.L248:
 3297              		.loc 1 1435 0
 3298 041e 1248     		ldr	r0, .L253+4
 3299 0420 FFF7FEFF 		bl	puts
 3300              	.LVL349:
 3301 0424 43E7     		b	.L191
 3302              	.LVL350:
 3303              	.L242:
 3304              		.loc 1 1252 0
 3305 0426 1048     		ldr	r0, .L253+4
 3306 0428 FFF7FEFF 		bl	puts
 3307              	.LVL351:
 3308 042c 37E6     		b	.L166
 3309              	.LVL352:
 3310              	.L244:
 3311              		.loc 1 1317 0
 3312 042e 0E48     		ldr	r0, .L253+4
 3313 0430 FFF7FEFF 		bl	puts
 3314              	.LVL353:
 3315 0434 82E6     		b	.L176
 3316              	.LVL354:
 3317              	.L247:
 3318              		.loc 1 1377 0
 3319 0436 0A20     		movs	r0, #10
 3320 0438 FFF7FEFF 		bl	putchar
 3321              	.LVL355:
 3322 043c E7E6     		b	.L186
 3323              	.LVL356:
 3324              	.L243:
 3325              		.loc 1 1256 0
 3326 043e 0A20     		movs	r0, #10
 3327 0440 FFF7FEFF 		bl	putchar
 3328              	.LVL357:
 3329 0444 32E6     		b	.L168
 3330              	.LVL358:
 3331              	.L245:
 3332              		.loc 1 1321 0
 3333 0446 0A20     		movs	r0, #10
 3334 0448 FFF7FEFF 		bl	putchar
 3335              	.LVL359:
 3336 044c 7FE6     		b	.L178
 3337              	.LVL360:
 3338              	.L250:
 3339              		.loc 1 1228 0
 3340 044e 0948     		ldr	r0, .L253+16
 3341 0450 FFF7FEFF 		bl	puts
 3342              	.LVL361:
 3343              		.loc 1 1230 0
 3344 0454 0120     		movs	r0, #1
 3345 0456 5EE7     		b	.L163
 3346              	.LVL362:
 3347              	.L249:
 3348              		.loc 1 1439 0
 3349 0458 0A20     		movs	r0, #10
 3350 045a FFF7FEFF 		bl	putchar
 3351              	.LVL363:
ARM GAS  C:\Users\jo\AppData\Local\Temp\cc8AA3HA.s 			page 60


 3352              		.loc 1 1442 0
 3353 045e 0020     		movs	r0, #0
 3354 0460 59E7     		b	.L163
 3355              	.L254:
 3356 0462 00BF     		.align	2
 3357              	.L253:
 3358 0464 00000000 		.word	.LANCHOR18
 3359 0468 28000000 		.word	.LC4
 3360 046c 00000000 		.word	.LANCHOR24
 3361 0470 00000000 		.word	.LANCHOR23
 3362 0474 20000000 		.word	.LC3
 3363              		.cfi_endproc
 3364              	.LFE11:
 3365              		.size	aes_self_test, .-aes_self_test
 3366 0478 AFF30080 		.section	.bss.FT0,"aw",%nobits
 3366      AFF30080 
 3367              		.align	2
 3368              		.set	.LANCHOR7,. + 0
 3369              		.type	FT0, %object
 3370              		.size	FT0, 1024
 3371              	FT0:
 3372 0000 00000000 		.space	1024
 3372      00000000 
 3372      00000000 
 3372      00000000 
 3372      00000000 
 3373              		.section	.bss.FT1,"aw",%nobits
 3374              		.align	2
 3375              		.set	.LANCHOR8,. + 0
 3376              		.type	FT1, %object
 3377              		.size	FT1, 1024
 3378              	FT1:
 3379 0000 00000000 		.space	1024
 3379      00000000 
 3379      00000000 
 3379      00000000 
 3379      00000000 
 3380              		.section	.bss.FT2,"aw",%nobits
 3381              		.align	2
 3382              		.set	.LANCHOR9,. + 0
 3383              		.type	FT2, %object
 3384              		.size	FT2, 1024
 3385              	FT2:
 3386 0000 00000000 		.space	1024
 3386      00000000 
 3386      00000000 
 3386      00000000 
 3386      00000000 
 3387              		.section	.bss.FT3,"aw",%nobits
 3388              		.align	2
 3389              		.set	.LANCHOR10,. + 0
 3390              		.type	FT3, %object
 3391              		.size	FT3, 1024
 3392              	FT3:
 3393 0000 00000000 		.space	1024
 3393      00000000 
 3393      00000000 
ARM GAS  C:\Users\jo\AppData\Local\Temp\cc8AA3HA.s 			page 61


 3393      00000000 
 3393      00000000 
 3394              		.section	.bss.RT0,"aw",%nobits
 3395              		.align	2
 3396              		.set	.LANCHOR3,. + 0
 3397              		.type	RT0, %object
 3398              		.size	RT0, 1024
 3399              	RT0:
 3400 0000 00000000 		.space	1024
 3400      00000000 
 3400      00000000 
 3400      00000000 
 3400      00000000 
 3401              		.section	.bss.RT1,"aw",%nobits
 3402              		.align	2
 3403              		.set	.LANCHOR4,. + 0
 3404              		.type	RT1, %object
 3405              		.size	RT1, 1024
 3406              	RT1:
 3407 0000 00000000 		.space	1024
 3407      00000000 
 3407      00000000 
 3407      00000000 
 3407      00000000 
 3408              		.section	.rodata.aes_test_ecb_dec,"a",%progbits
 3409              		.align	2
 3410              		.set	.LANCHOR12,. + 0
 3411              		.type	aes_test_ecb_dec, %object
 3412              		.size	aes_test_ecb_dec, 48
 3413              	aes_test_ecb_dec:
 3414 0000 44       		.byte	68
 3415 0001 41       		.byte	65
 3416 0002 6A       		.byte	106
 3417 0003 C2       		.byte	-62
 3418 0004 D1       		.byte	-47
 3419 0005 F5       		.byte	-11
 3420 0006 3C       		.byte	60
 3421 0007 58       		.byte	88
 3422 0008 33       		.byte	51
 3423 0009 03       		.byte	3
 3424 000a 91       		.byte	-111
 3425 000b 7E       		.byte	126
 3426 000c 6B       		.byte	107
 3427 000d E9       		.byte	-23
 3428 000e EB       		.byte	-21
 3429 000f E0       		.byte	-32
 3430 0010 48       		.byte	72
 3431 0011 E3       		.byte	-29
 3432 0012 1E       		.byte	30
 3433 0013 9E       		.byte	-98
 3434 0014 25       		.byte	37
 3435 0015 67       		.byte	103
 3436 0016 18       		.byte	24
 3437 0017 F2       		.byte	-14
 3438 0018 92       		.byte	-110
 3439 0019 29       		.byte	41
 3440 001a 31       		.byte	49
ARM GAS  C:\Users\jo\AppData\Local\Temp\cc8AA3HA.s 			page 62


 3441 001b 9C       		.byte	-100
 3442 001c 19       		.byte	25
 3443 001d F1       		.byte	-15
 3444 001e 5B       		.byte	91
 3445 001f A4       		.byte	-92
 3446 0020 05       		.byte	5
 3447 0021 8C       		.byte	-116
 3448 0022 CF       		.byte	-49
 3449 0023 FD       		.byte	-3
 3450 0024 BB       		.byte	-69
 3451 0025 CB       		.byte	-53
 3452 0026 38       		.byte	56
 3453 0027 2D       		.byte	45
 3454 0028 1F       		.byte	31
 3455 0029 6F       		.byte	111
 3456 002a 56       		.byte	86
 3457 002b 58       		.byte	88
 3458 002c 5D       		.byte	93
 3459 002d 8A       		.byte	-118
 3460 002e 4A       		.byte	74
 3461 002f DE       		.byte	-34
 3462              		.section	.bss.RT3,"aw",%nobits
 3463              		.align	2
 3464              		.set	.LANCHOR6,. + 0
 3465              		.type	RT3, %object
 3466              		.size	RT3, 1024
 3467              	RT3:
 3468 0000 00000000 		.space	1024
 3468      00000000 
 3468      00000000 
 3468      00000000 
 3468      00000000 
 3469              		.section	.bss.RCON,"aw",%nobits
 3470              		.align	2
 3471              		.set	.LANCHOR0,. + 0
 3472              		.type	RCON, %object
 3473              		.size	RCON, 40
 3474              	RCON:
 3475 0000 00000000 		.space	40
 3475      00000000 
 3475      00000000 
 3475      00000000 
 3475      00000000 
 3476              		.section	.bss.aes_init_done,"aw",%nobits
 3477              		.align	2
 3478              		.set	.LANCHOR11,. + 0
 3479              		.type	aes_init_done, %object
 3480              		.size	aes_init_done, 4
 3481              	aes_init_done:
 3482 0000 00000000 		.space	4
 3483              		.section	.rodata.aes_test_cfb128_ct,"a",%progbits
 3484              		.align	2
 3485              		.set	.LANCHOR18,. + 0
 3486              		.type	aes_test_cfb128_ct, %object
 3487              		.size	aes_test_cfb128_ct, 192
 3488              	aes_test_cfb128_ct:
 3489 0000 3B       		.byte	59
ARM GAS  C:\Users\jo\AppData\Local\Temp\cc8AA3HA.s 			page 63


 3490 0001 3F       		.byte	63
 3491 0002 D9       		.byte	-39
 3492 0003 2E       		.byte	46
 3493 0004 B7       		.byte	-73
 3494 0005 2D       		.byte	45
 3495 0006 AD       		.byte	-83
 3496 0007 20       		.byte	32
 3497 0008 33       		.byte	51
 3498 0009 34       		.byte	52
 3499 000a 49       		.byte	73
 3500 000b F8       		.byte	-8
 3501 000c E8       		.byte	-24
 3502 000d 3C       		.byte	60
 3503 000e FB       		.byte	-5
 3504 000f 4A       		.byte	74
 3505 0010 C8       		.byte	-56
 3506 0011 A6       		.byte	-90
 3507 0012 45       		.byte	69
 3508 0013 37       		.byte	55
 3509 0014 A0       		.byte	-96
 3510 0015 B3       		.byte	-77
 3511 0016 A9       		.byte	-87
 3512 0017 3F       		.byte	63
 3513 0018 CD       		.byte	-51
 3514 0019 E3       		.byte	-29
 3515 001a CD       		.byte	-51
 3516 001b AD       		.byte	-83
 3517 001c 9F       		.byte	-97
 3518 001d 1C       		.byte	28
 3519 001e E5       		.byte	-27
 3520 001f 8B       		.byte	-117
 3521 0020 26       		.byte	38
 3522 0021 75       		.byte	117
 3523 0022 1F       		.byte	31
 3524 0023 67       		.byte	103
 3525 0024 A3       		.byte	-93
 3526 0025 CB       		.byte	-53
 3527 0026 B1       		.byte	-79
 3528 0027 40       		.byte	64
 3529 0028 B1       		.byte	-79
 3530 0029 80       		.byte	-128
 3531 002a 8C       		.byte	-116
 3532 002b F1       		.byte	-15
 3533 002c 87       		.byte	-121
 3534 002d A4       		.byte	-92
 3535 002e F4       		.byte	-12
 3536 002f DF       		.byte	-33
 3537 0030 C0       		.byte	-64
 3538 0031 4B       		.byte	75
 3539 0032 05       		.byte	5
 3540 0033 35       		.byte	53
 3541 0034 7C       		.byte	124
 3542 0035 5D       		.byte	93
 3543 0036 1C       		.byte	28
 3544 0037 0E       		.byte	14
 3545 0038 EA       		.byte	-22
 3546 0039 C4       		.byte	-60
ARM GAS  C:\Users\jo\AppData\Local\Temp\cc8AA3HA.s 			page 64


 3547 003a C6       		.byte	-58
 3548 003b 6F       		.byte	111
 3549 003c 9F       		.byte	-97
 3550 003d F7       		.byte	-9
 3551 003e F2       		.byte	-14
 3552 003f E6       		.byte	-26
 3553 0040 CD       		.byte	-51
 3554 0041 C8       		.byte	-56
 3555 0042 0D       		.byte	13
 3556 0043 6F       		.byte	111
 3557 0044 DD       		.byte	-35
 3558 0045 F1       		.byte	-15
 3559 0046 8C       		.byte	-116
 3560 0047 AB       		.byte	-85
 3561 0048 34       		.byte	52
 3562 0049 C2       		.byte	-62
 3563 004a 59       		.byte	89
 3564 004b 09       		.byte	9
 3565 004c C9       		.byte	-55
 3566 004d 9A       		.byte	-102
 3567 004e 41       		.byte	65
 3568 004f 74       		.byte	116
 3569 0050 67       		.byte	103
 3570 0051 CE       		.byte	-50
 3571 0052 7F       		.byte	127
 3572 0053 7F       		.byte	127
 3573 0054 81       		.byte	-127
 3574 0055 17       		.byte	23
 3575 0056 36       		.byte	54
 3576 0057 21       		.byte	33
 3577 0058 96       		.byte	-106
 3578 0059 1A       		.byte	26
 3579 005a 2B       		.byte	43
 3580 005b 70       		.byte	112
 3581 005c 17       		.byte	23
 3582 005d 1D       		.byte	29
 3583 005e 3D       		.byte	61
 3584 005f 7A       		.byte	122
 3585 0060 2E       		.byte	46
 3586 0061 1E       		.byte	30
 3587 0062 8A       		.byte	-118
 3588 0063 1D       		.byte	29
 3589 0064 D5       		.byte	-43
 3590 0065 9B       		.byte	-101
 3591 0066 88       		.byte	-120
 3592 0067 B1       		.byte	-79
 3593 0068 C8       		.byte	-56
 3594 0069 E6       		.byte	-26
 3595 006a 0F       		.byte	15
 3596 006b ED       		.byte	-19
 3597 006c 1E       		.byte	30
 3598 006d FA       		.byte	-6
 3599 006e C4       		.byte	-60
 3600 006f C9       		.byte	-55
 3601 0070 C0       		.byte	-64
 3602 0071 5F       		.byte	95
 3603 0072 9F       		.byte	-97
ARM GAS  C:\Users\jo\AppData\Local\Temp\cc8AA3HA.s 			page 65


 3604 0073 9C       		.byte	-100
 3605 0074 A9       		.byte	-87
 3606 0075 83       		.byte	-125
 3607 0076 4F       		.byte	79
 3608 0077 A0       		.byte	-96
 3609 0078 42       		.byte	66
 3610 0079 AE       		.byte	-82
 3611 007a 8F       		.byte	-113
 3612 007b BA       		.byte	-70
 3613 007c 58       		.byte	88
 3614 007d 4B       		.byte	75
 3615 007e 09       		.byte	9
 3616 007f FF       		.byte	-1
 3617 0080 DC       		.byte	-36
 3618 0081 7E       		.byte	126
 3619 0082 84       		.byte	-124
 3620 0083 BF       		.byte	-65
 3621 0084 DA       		.byte	-38
 3622 0085 79       		.byte	121
 3623 0086 16       		.byte	22
 3624 0087 4B       		.byte	75
 3625 0088 7E       		.byte	126
 3626 0089 CD       		.byte	-51
 3627 008a 84       		.byte	-124
 3628 008b 86       		.byte	-122
 3629 008c 98       		.byte	-104
 3630 008d 5D       		.byte	93
 3631 008e 38       		.byte	56
 3632 008f 60       		.byte	96
 3633 0090 39       		.byte	57
 3634 0091 FF       		.byte	-1
 3635 0092 ED       		.byte	-19
 3636 0093 14       		.byte	20
 3637 0094 3B       		.byte	59
 3638 0095 28       		.byte	40
 3639 0096 B1       		.byte	-79
 3640 0097 C8       		.byte	-56
 3641 0098 32       		.byte	50
 3642 0099 11       		.byte	17
 3643 009a 3C       		.byte	60
 3644 009b 63       		.byte	99
 3645 009c 31       		.byte	49
 3646 009d E5       		.byte	-27
 3647 009e 40       		.byte	64
 3648 009f 7B       		.byte	123
 3649 00a0 DF       		.byte	-33
 3650 00a1 10       		.byte	16
 3651 00a2 13       		.byte	19
 3652 00a3 24       		.byte	36
 3653 00a4 15       		.byte	21
 3654 00a5 E5       		.byte	-27
 3655 00a6 4B       		.byte	75
 3656 00a7 92       		.byte	-110
 3657 00a8 A1       		.byte	-95
 3658 00a9 3E       		.byte	62
 3659 00aa D0       		.byte	-48
 3660 00ab A8       		.byte	-88
ARM GAS  C:\Users\jo\AppData\Local\Temp\cc8AA3HA.s 			page 66


 3661 00ac 26       		.byte	38
 3662 00ad 7A       		.byte	122
 3663 00ae E2       		.byte	-30
 3664 00af F9       		.byte	-7
 3665 00b0 75       		.byte	117
 3666 00b1 A3       		.byte	-93
 3667 00b2 85       		.byte	-123
 3668 00b3 74       		.byte	116
 3669 00b4 1A       		.byte	26
 3670 00b5 B9       		.byte	-71
 3671 00b6 CE       		.byte	-50
 3672 00b7 F8       		.byte	-8
 3673 00b8 20       		.byte	32
 3674 00b9 31       		.byte	49
 3675 00ba 62       		.byte	98
 3676 00bb 3D       		.byte	61
 3677 00bc 55       		.byte	85
 3678 00bd B1       		.byte	-79
 3679 00be E4       		.byte	-28
 3680 00bf 71       		.byte	113
 3681              		.section	.rodata.aes_test_cbc_dec,"a",%progbits
 3682              		.align	2
 3683              		.set	.LANCHOR14,. + 0
 3684              		.type	aes_test_cbc_dec, %object
 3685              		.size	aes_test_cbc_dec, 48
 3686              	aes_test_cbc_dec:
 3687 0000 FA       		.byte	-6
 3688 0001 CA       		.byte	-54
 3689 0002 37       		.byte	55
 3690 0003 E0       		.byte	-32
 3691 0004 B0       		.byte	-80
 3692 0005 C8       		.byte	-56
 3693 0006 53       		.byte	83
 3694 0007 73       		.byte	115
 3695 0008 DF       		.byte	-33
 3696 0009 70       		.byte	112
 3697 000a 6E       		.byte	110
 3698 000b 73       		.byte	115
 3699 000c F7       		.byte	-9
 3700 000d C9       		.byte	-55
 3701 000e AF       		.byte	-81
 3702 000f 86       		.byte	-122
 3703 0010 5D       		.byte	93
 3704 0011 F6       		.byte	-10
 3705 0012 78       		.byte	120
 3706 0013 DD       		.byte	-35
 3707 0014 17       		.byte	23
 3708 0015 BA       		.byte	-70
 3709 0016 4E       		.byte	78
 3710 0017 75       		.byte	117
 3711 0018 B6       		.byte	-74
 3712 0019 17       		.byte	23
 3713 001a 68       		.byte	104
 3714 001b C6       		.byte	-58
 3715 001c AD       		.byte	-83
 3716 001d EF       		.byte	-17
 3717 001e 7C       		.byte	124
ARM GAS  C:\Users\jo\AppData\Local\Temp\cc8AA3HA.s 			page 67


 3718 001f 7B       		.byte	123
 3719 0020 48       		.byte	72
 3720 0021 04       		.byte	4
 3721 0022 E1       		.byte	-31
 3722 0023 81       		.byte	-127
 3723 0024 8F       		.byte	-113
 3724 0025 E6       		.byte	-26
 3725 0026 29       		.byte	41
 3726 0027 75       		.byte	117
 3727 0028 19       		.byte	25
 3728 0029 A3       		.byte	-93
 3729 002a E8       		.byte	-24
 3730 002b 8C       		.byte	-116
 3731 002c 57       		.byte	87
 3732 002d 31       		.byte	49
 3733 002e 04       		.byte	4
 3734 002f 13       		.byte	19
 3735              		.section	.rodata.str1.4,"aMS",%progbits,1
 3736              		.align	2
 3737              	.LC0:
 3738 0000 64656300 		.ascii	"dec\000"
 3739              	.LC1:
 3740 0004 656E6300 		.ascii	"enc\000"
 3741              	.LC2:
 3742 0008 20204145 		.ascii	"  AES-ECB-%3d (%s): \000"
 3742      532D4543 
 3742      422D2533 
 3742      64202825 
 3742      73293A20 
 3743 001d 000000   		.space	3
 3744              	.LC3:
 3745 0020 6661696C 		.ascii	"failed\000"
 3745      656400
 3746 0027 00       		.space	1
 3747              	.LC4:
 3748 0028 70617373 		.ascii	"passed\000"
 3748      656400
 3749 002f 00       		.space	1
 3750              	.LC5:
 3751 0030 20204145 		.ascii	"  AES-CBC-%3d (%s): \000"
 3751      532D4342 
 3751      432D2533 
 3751      64202825 
 3751      73293A20 
 3752 0045 000000   		.space	3
 3753              	.LC6:
 3754 0048 20204145 		.ascii	"  AES-CFB128-%3d (%s): \000"
 3754      532D4346 
 3754      42313238 
 3754      2D253364 
 3754      20282573 
 3755              	.LC7:
 3756 0060 20204145 		.ascii	"  AES-CTR-128 (%s): \000"
 3756      532D4354 
 3756      522D3132 
 3756      38202825 
 3756      73293A20 
ARM GAS  C:\Users\jo\AppData\Local\Temp\cc8AA3HA.s 			page 68


 3757 0075 000000   		.section	.rodata.aes_test_ctr_key,"a",%progbits
 3758              		.align	2
 3759              		.set	.LANCHOR21,. + 0
 3760              		.type	aes_test_ctr_key, %object
 3761              		.size	aes_test_ctr_key, 48
 3762              	aes_test_ctr_key:
 3763 0000 AE       		.byte	-82
 3764 0001 68       		.byte	104
 3765 0002 52       		.byte	82
 3766 0003 F8       		.byte	-8
 3767 0004 12       		.byte	18
 3768 0005 10       		.byte	16
 3769 0006 67       		.byte	103
 3770 0007 CC       		.byte	-52
 3771 0008 4B       		.byte	75
 3772 0009 F7       		.byte	-9
 3773 000a A5       		.byte	-91
 3774 000b 76       		.byte	118
 3775 000c 55       		.byte	85
 3776 000d 77       		.byte	119
 3777 000e F3       		.byte	-13
 3778 000f 9E       		.byte	-98
 3779 0010 7E       		.byte	126
 3780 0011 24       		.byte	36
 3781 0012 06       		.byte	6
 3782 0013 78       		.byte	120
 3783 0014 17       		.byte	23
 3784 0015 FA       		.byte	-6
 3785 0016 E0       		.byte	-32
 3786 0017 D7       		.byte	-41
 3787 0018 43       		.byte	67
 3788 0019 D6       		.byte	-42
 3789 001a CE       		.byte	-50
 3790 001b 1F       		.byte	31
 3791 001c 32       		.byte	50
 3792 001d 53       		.byte	83
 3793 001e 91       		.byte	-111
 3794 001f 63       		.byte	99
 3795 0020 76       		.byte	118
 3796 0021 91       		.byte	-111
 3797 0022 BE       		.byte	-66
 3798 0023 03       		.byte	3
 3799 0024 5E       		.byte	94
 3800 0025 50       		.byte	80
 3801 0026 20       		.byte	32
 3802 0027 A8       		.byte	-88
 3803 0028 AC       		.byte	-84
 3804 0029 6E       		.byte	110
 3805 002a 61       		.byte	97
 3806 002b 85       		.byte	-123
 3807 002c 29       		.byte	41
 3808 002d F9       		.byte	-7
 3809 002e A0       		.byte	-96
 3810 002f DC       		.byte	-36
 3811              		.section	.bss.RSb,"aw",%nobits
 3812              		.align	2
 3813              		.set	.LANCHOR2,. + 0
ARM GAS  C:\Users\jo\AppData\Local\Temp\cc8AA3HA.s 			page 69


 3814              		.type	RSb, %object
 3815              		.size	RSb, 256
 3816              	RSb:
 3817 0000 00000000 		.space	256
 3817      00000000 
 3817      00000000 
 3817      00000000 
 3817      00000000 
 3818              		.section	.rodata.aes_test_ecb_enc,"a",%progbits
 3819              		.align	2
 3820              		.set	.LANCHOR13,. + 0
 3821              		.type	aes_test_ecb_enc, %object
 3822              		.size	aes_test_ecb_enc, 48
 3823              	aes_test_ecb_enc:
 3824 0000 C3       		.byte	-61
 3825 0001 4C       		.byte	76
 3826 0002 05       		.byte	5
 3827 0003 2C       		.byte	44
 3828 0004 C0       		.byte	-64
 3829 0005 DA       		.byte	-38
 3830 0006 8D       		.byte	-115
 3831 0007 73       		.byte	115
 3832 0008 45       		.byte	69
 3833 0009 1A       		.byte	26
 3834 000a FE       		.byte	-2
 3835 000b 5F       		.byte	95
 3836 000c 03       		.byte	3
 3837 000d BE       		.byte	-66
 3838 000e 29       		.byte	41
 3839 000f 7F       		.byte	127
 3840 0010 F3       		.byte	-13
 3841 0011 F6       		.byte	-10
 3842 0012 75       		.byte	117
 3843 0013 2A       		.byte	42
 3844 0014 E8       		.byte	-24
 3845 0015 D7       		.byte	-41
 3846 0016 83       		.byte	-125
 3847 0017 11       		.byte	17
 3848 0018 38       		.byte	56
 3849 0019 F0       		.byte	-16
 3850 001a 41       		.byte	65
 3851 001b 56       		.byte	86
 3852 001c 06       		.byte	6
 3853 001d 31       		.byte	49
 3854 001e B1       		.byte	-79
 3855 001f 14       		.byte	20
 3856 0020 8B       		.byte	-117
 3857 0021 79       		.byte	121
 3858 0022 EE       		.byte	-18
 3859 0023 CC       		.byte	-52
 3860 0024 93       		.byte	-109
 3861 0025 A0       		.byte	-96
 3862 0026 EE       		.byte	-18
 3863 0027 5D       		.byte	93
 3864 0028 FF       		.byte	-1
 3865 0029 30       		.byte	48
 3866 002a B4       		.byte	-76
ARM GAS  C:\Users\jo\AppData\Local\Temp\cc8AA3HA.s 			page 70


 3867 002b EA       		.byte	-22
 3868 002c 21       		.byte	33
 3869 002d 63       		.byte	99
 3870 002e 6D       		.byte	109
 3871 002f A4       		.byte	-92
 3872              		.section	.rodata.aes_test_cfb128_pt,"a",%progbits
 3873              		.align	2
 3874              		.set	.LANCHOR19,. + 0
 3875              		.type	aes_test_cfb128_pt, %object
 3876              		.size	aes_test_cfb128_pt, 64
 3877              	aes_test_cfb128_pt:
 3878 0000 6B       		.byte	107
 3879 0001 C1       		.byte	-63
 3880 0002 BE       		.byte	-66
 3881 0003 E2       		.byte	-30
 3882 0004 2E       		.byte	46
 3883 0005 40       		.byte	64
 3884 0006 9F       		.byte	-97
 3885 0007 96       		.byte	-106
 3886 0008 E9       		.byte	-23
 3887 0009 3D       		.byte	61
 3888 000a 7E       		.byte	126
 3889 000b 11       		.byte	17
 3890 000c 73       		.byte	115
 3891 000d 93       		.byte	-109
 3892 000e 17       		.byte	23
 3893 000f 2A       		.byte	42
 3894 0010 AE       		.byte	-82
 3895 0011 2D       		.byte	45
 3896 0012 8A       		.byte	-118
 3897 0013 57       		.byte	87
 3898 0014 1E       		.byte	30
 3899 0015 03       		.byte	3
 3900 0016 AC       		.byte	-84
 3901 0017 9C       		.byte	-100
 3902 0018 9E       		.byte	-98
 3903 0019 B7       		.byte	-73
 3904 001a 6F       		.byte	111
 3905 001b AC       		.byte	-84
 3906 001c 45       		.byte	69
 3907 001d AF       		.byte	-81
 3908 001e 8E       		.byte	-114
 3909 001f 51       		.byte	81
 3910 0020 30       		.byte	48
 3911 0021 C8       		.byte	-56
 3912 0022 1C       		.byte	28
 3913 0023 46       		.byte	70
 3914 0024 A3       		.byte	-93
 3915 0025 5C       		.byte	92
 3916 0026 E4       		.byte	-28
 3917 0027 11       		.byte	17
 3918 0028 E5       		.byte	-27
 3919 0029 FB       		.byte	-5
 3920 002a C1       		.byte	-63
 3921 002b 19       		.byte	25
 3922 002c 1A       		.byte	26
 3923 002d 0A       		.byte	10
ARM GAS  C:\Users\jo\AppData\Local\Temp\cc8AA3HA.s 			page 71


 3924 002e 52       		.byte	82
 3925 002f EF       		.byte	-17
 3926 0030 F6       		.byte	-10
 3927 0031 9F       		.byte	-97
 3928 0032 24       		.byte	36
 3929 0033 45       		.byte	69
 3930 0034 DF       		.byte	-33
 3931 0035 4F       		.byte	79
 3932 0036 9B       		.byte	-101
 3933 0037 17       		.byte	23
 3934 0038 AD       		.byte	-83
 3935 0039 2B       		.byte	43
 3936 003a 41       		.byte	65
 3937 003b 7B       		.byte	123
 3938 003c E6       		.byte	-26
 3939 003d 6C       		.byte	108
 3940 003e 37       		.byte	55
 3941 003f 10       		.byte	16
 3942              		.section	.rodata.aes_test_cfb128_key,"a",%progbits
 3943              		.align	2
 3944              		.set	.LANCHOR17,. + 0
 3945              		.type	aes_test_cfb128_key, %object
 3946              		.size	aes_test_cfb128_key, 96
 3947              	aes_test_cfb128_key:
 3948 0000 2B       		.byte	43
 3949 0001 7E       		.byte	126
 3950 0002 15       		.byte	21
 3951 0003 16       		.byte	22
 3952 0004 28       		.byte	40
 3953 0005 AE       		.byte	-82
 3954 0006 D2       		.byte	-46
 3955 0007 A6       		.byte	-90
 3956 0008 AB       		.byte	-85
 3957 0009 F7       		.byte	-9
 3958 000a 15       		.byte	21
 3959 000b 88       		.byte	-120
 3960 000c 09       		.byte	9
 3961 000d CF       		.byte	-49
 3962 000e 4F       		.byte	79
 3963 000f 3C       		.byte	60
 3964 0010 00000000 		.space	16
 3964      00000000 
 3964      00000000 
 3964      00000000 
 3965 0020 8E       		.byte	-114
 3966 0021 73       		.byte	115
 3967 0022 B0       		.byte	-80
 3968 0023 F7       		.byte	-9
 3969 0024 DA       		.byte	-38
 3970 0025 0E       		.byte	14
 3971 0026 64       		.byte	100
 3972 0027 52       		.byte	82
 3973 0028 C8       		.byte	-56
 3974 0029 10       		.byte	16
 3975 002a F3       		.byte	-13
 3976 002b 2B       		.byte	43
 3977 002c 80       		.byte	-128
ARM GAS  C:\Users\jo\AppData\Local\Temp\cc8AA3HA.s 			page 72


 3978 002d 90       		.byte	-112
 3979 002e 79       		.byte	121
 3980 002f E5       		.byte	-27
 3981 0030 62       		.byte	98
 3982 0031 F8       		.byte	-8
 3983 0032 EA       		.byte	-22
 3984 0033 D2       		.byte	-46
 3985 0034 52       		.byte	82
 3986 0035 2C       		.byte	44
 3987 0036 6B       		.byte	107
 3988 0037 7B       		.byte	123
 3989 0038 00000000 		.space	8
 3989      00000000 
 3990 0040 60       		.byte	96
 3991 0041 3D       		.byte	61
 3992 0042 EB       		.byte	-21
 3993 0043 10       		.byte	16
 3994 0044 15       		.byte	21
 3995 0045 CA       		.byte	-54
 3996 0046 71       		.byte	113
 3997 0047 BE       		.byte	-66
 3998 0048 2B       		.byte	43
 3999 0049 73       		.byte	115
 4000 004a AE       		.byte	-82
 4001 004b F0       		.byte	-16
 4002 004c 85       		.byte	-123
 4003 004d 7D       		.byte	125
 4004 004e 77       		.byte	119
 4005 004f 81       		.byte	-127
 4006 0050 1F       		.byte	31
 4007 0051 35       		.byte	53
 4008 0052 2C       		.byte	44
 4009 0053 07       		.byte	7
 4010 0054 3B       		.byte	59
 4011 0055 61       		.byte	97
 4012 0056 08       		.byte	8
 4013 0057 D7       		.byte	-41
 4014 0058 2D       		.byte	45
 4015 0059 98       		.byte	-104
 4016 005a 10       		.byte	16
 4017 005b A3       		.byte	-93
 4018 005c 09       		.byte	9
 4019 005d 14       		.byte	20
 4020 005e DF       		.byte	-33
 4021 005f F4       		.byte	-12
 4022              		.section	.rodata.aes_test_ctr_ct,"a",%progbits
 4023              		.align	2
 4024              		.set	.LANCHOR23,. + 0
 4025              		.type	aes_test_ctr_ct, %object
 4026              		.size	aes_test_ctr_ct, 144
 4027              	aes_test_ctr_ct:
 4028 0000 E4       		.byte	-28
 4029 0001 09       		.byte	9
 4030 0002 5D       		.byte	93
 4031 0003 4F       		.byte	79
 4032 0004 B7       		.byte	-73
 4033 0005 A7       		.byte	-89
ARM GAS  C:\Users\jo\AppData\Local\Temp\cc8AA3HA.s 			page 73


 4034 0006 B3       		.byte	-77
 4035 0007 79       		.byte	121
 4036 0008 2D       		.byte	45
 4037 0009 61       		.byte	97
 4038 000a 75       		.byte	117
 4039 000b A3       		.byte	-93
 4040 000c 26       		.byte	38
 4041 000d 13       		.byte	19
 4042 000e 11       		.byte	17
 4043 000f B8       		.byte	-72
 4044 0010 00000000 		.space	32
 4044      00000000 
 4044      00000000 
 4044      00000000 
 4044      00000000 
 4045 0030 51       		.byte	81
 4046 0031 04       		.byte	4
 4047 0032 A1       		.byte	-95
 4048 0033 06       		.byte	6
 4049 0034 16       		.byte	22
 4050 0035 8A       		.byte	-118
 4051 0036 72       		.byte	114
 4052 0037 D9       		.byte	-39
 4053 0038 79       		.byte	121
 4054 0039 0D       		.byte	13
 4055 003a 41       		.byte	65
 4056 003b EE       		.byte	-18
 4057 003c 8E       		.byte	-114
 4058 003d DA       		.byte	-38
 4059 003e D3       		.byte	-45
 4060 003f 88       		.byte	-120
 4061 0040 EB       		.byte	-21
 4062 0041 2E       		.byte	46
 4063 0042 1E       		.byte	30
 4064 0043 FC       		.byte	-4
 4065 0044 46       		.byte	70
 4066 0045 DA       		.byte	-38
 4067 0046 57       		.byte	87
 4068 0047 C8       		.byte	-56
 4069 0048 FC       		.byte	-4
 4070 0049 E6       		.byte	-26
 4071 004a 30       		.byte	48
 4072 004b DF       		.byte	-33
 4073 004c 91       		.byte	-111
 4074 004d 41       		.byte	65
 4075 004e BE       		.byte	-66
 4076 004f 28       		.byte	40
 4077 0050 00000000 		.space	16
 4077      00000000 
 4077      00000000 
 4077      00000000 
 4078 0060 C1       		.byte	-63
 4079 0061 CF       		.byte	-49
 4080 0062 48       		.byte	72
 4081 0063 A8       		.byte	-88
 4082 0064 9F       		.byte	-97
 4083 0065 2F       		.byte	47
ARM GAS  C:\Users\jo\AppData\Local\Temp\cc8AA3HA.s 			page 74


 4084 0066 FD       		.byte	-3
 4085 0067 D9       		.byte	-39
 4086 0068 CF       		.byte	-49
 4087 0069 46       		.byte	70
 4088 006a 52       		.byte	82
 4089 006b E9       		.byte	-23
 4090 006c EF       		.byte	-17
 4091 006d DB       		.byte	-37
 4092 006e 72       		.byte	114
 4093 006f D7       		.byte	-41
 4094 0070 45       		.byte	69
 4095 0071 40       		.byte	64
 4096 0072 A4       		.byte	-92
 4097 0073 2B       		.byte	43
 4098 0074 DE       		.byte	-34
 4099 0075 6D       		.byte	109
 4100 0076 78       		.byte	120
 4101 0077 36       		.byte	54
 4102 0078 D5       		.byte	-43
 4103 0079 9A       		.byte	-102
 4104 007a 5C       		.byte	92
 4105 007b EA       		.byte	-22
 4106 007c AE       		.byte	-82
 4107 007d F3       		.byte	-13
 4108 007e 10       		.byte	16
 4109 007f 53       		.byte	83
 4110 0080 25       		.byte	37
 4111 0081 B2       		.byte	-78
 4112 0082 07       		.byte	7
 4113 0083 2F       		.byte	47
 4114 0084 00000000 		.space	12
 4114      00000000 
 4114      00000000 
 4115              		.section	.rodata.aes_test_ctr_nonce_counter,"a",%progbits
 4116              		.align	2
 4117              		.set	.LANCHOR20,. + 0
 4118              		.type	aes_test_ctr_nonce_counter, %object
 4119              		.size	aes_test_ctr_nonce_counter, 48
 4120              	aes_test_ctr_nonce_counter:
 4121 0000 00       		.byte	0
 4122 0001 00       		.byte	0
 4123 0002 00       		.byte	0
 4124 0003 30       		.byte	48
 4125 0004 00       		.byte	0
 4126 0005 00       		.byte	0
 4127 0006 00       		.byte	0
 4128 0007 00       		.byte	0
 4129 0008 00       		.byte	0
 4130 0009 00       		.byte	0
 4131 000a 00       		.byte	0
 4132 000b 00       		.byte	0
 4133 000c 00       		.byte	0
 4134 000d 00       		.byte	0
 4135 000e 00       		.byte	0
 4136 000f 01       		.byte	1
 4137 0010 00       		.byte	0
 4138 0011 6C       		.byte	108
ARM GAS  C:\Users\jo\AppData\Local\Temp\cc8AA3HA.s 			page 75


 4139 0012 B6       		.byte	-74
 4140 0013 DB       		.byte	-37
 4141 0014 C0       		.byte	-64
 4142 0015 54       		.byte	84
 4143 0016 3B       		.byte	59
 4144 0017 59       		.byte	89
 4145 0018 DA       		.byte	-38
 4146 0019 48       		.byte	72
 4147 001a D9       		.byte	-39
 4148 001b 0B       		.byte	11
 4149 001c 00       		.byte	0
 4150 001d 00       		.byte	0
 4151 001e 00       		.byte	0
 4152 001f 01       		.byte	1
 4153 0020 00       		.byte	0
 4154 0021 E0       		.byte	-32
 4155 0022 01       		.byte	1
 4156 0023 7B       		.byte	123
 4157 0024 27       		.byte	39
 4158 0025 77       		.byte	119
 4159 0026 7F       		.byte	127
 4160 0027 3F       		.byte	63
 4161 0028 4A       		.byte	74
 4162 0029 17       		.byte	23
 4163 002a 86       		.byte	-122
 4164 002b F0       		.byte	-16
 4165 002c 00       		.byte	0
 4166 002d 00       		.byte	0
 4167 002e 00       		.byte	0
 4168 002f 01       		.byte	1
 4169              		.section	.bss.FSb,"aw",%nobits
 4170              		.align	2
 4171              		.set	.LANCHOR1,. + 0
 4172              		.type	FSb, %object
 4173              		.size	FSb, 256
 4174              	FSb:
 4175 0000 00000000 		.space	256
 4175      00000000 
 4175      00000000 
 4175      00000000 
 4175      00000000 
 4176              		.section	.rodata.aes_test_ctr_len,"a",%progbits
 4177              		.align	2
 4178              		.set	.LANCHOR22,. + 0
 4179              		.type	aes_test_ctr_len, %object
 4180              		.size	aes_test_ctr_len, 12
 4181              	aes_test_ctr_len:
 4182 0000 10000000 		.word	16
 4183 0004 20000000 		.word	32
 4184 0008 24000000 		.word	36
 4185              		.section	.bss.RT2,"aw",%nobits
 4186              		.align	2
 4187              		.set	.LANCHOR5,. + 0
 4188              		.type	RT2, %object
 4189              		.size	RT2, 1024
 4190              	RT2:
 4191 0000 00000000 		.space	1024
ARM GAS  C:\Users\jo\AppData\Local\Temp\cc8AA3HA.s 			page 76


 4191      00000000 
 4191      00000000 
 4191      00000000 
 4191      00000000 
 4192              		.section	.rodata.aes_test_cbc_enc,"a",%progbits
 4193              		.align	2
 4194              		.set	.LANCHOR15,. + 0
 4195              		.type	aes_test_cbc_enc, %object
 4196              		.size	aes_test_cbc_enc, 48
 4197              	aes_test_cbc_enc:
 4198 0000 8A       		.byte	-118
 4199 0001 05       		.byte	5
 4200 0002 FC       		.byte	-4
 4201 0003 5E       		.byte	94
 4202 0004 09       		.byte	9
 4203 0005 5A       		.byte	90
 4204 0006 F4       		.byte	-12
 4205 0007 84       		.byte	-124
 4206 0008 8A       		.byte	-118
 4207 0009 08       		.byte	8
 4208 000a D3       		.byte	-45
 4209 000b 28       		.byte	40
 4210 000c D3       		.byte	-45
 4211 000d 68       		.byte	104
 4212 000e 8E       		.byte	-114
 4213 000f 3D       		.byte	61
 4214 0010 7B       		.byte	123
 4215 0011 D9       		.byte	-39
 4216 0012 66       		.byte	102
 4217 0013 D5       		.byte	-43
 4218 0014 3A       		.byte	58
 4219 0015 D8       		.byte	-40
 4220 0016 C1       		.byte	-63
 4221 0017 BB       		.byte	-69
 4222 0018 85       		.byte	-123
 4223 0019 D2       		.byte	-46
 4224 001a AD       		.byte	-83
 4225 001b FA       		.byte	-6
 4226 001c E8       		.byte	-24
 4227 001d 7B       		.byte	123
 4228 001e B1       		.byte	-79
 4229 001f 04       		.byte	4
 4230 0020 FE       		.byte	-2
 4231 0021 3C       		.byte	60
 4232 0022 53       		.byte	83
 4233 0023 65       		.byte	101
 4234 0024 3E       		.byte	62
 4235 0025 2F       		.byte	47
 4236 0026 45       		.byte	69
 4237 0027 B5       		.byte	-75
 4238 0028 6F       		.byte	111
 4239 0029 CD       		.byte	-51
 4240 002a 88       		.byte	-120
 4241 002b B2       		.byte	-78
 4242 002c CC       		.byte	-52
 4243 002d 89       		.byte	-119
 4244 002e 8F       		.byte	-113
ARM GAS  C:\Users\jo\AppData\Local\Temp\cc8AA3HA.s 			page 77


 4245 002f F0       		.byte	-16
 4246              		.section	.rodata.aes_test_ctr_pt,"a",%progbits
 4247              		.align	2
 4248              		.set	.LANCHOR24,. + 0
 4249              		.type	aes_test_ctr_pt, %object
 4250              		.size	aes_test_ctr_pt, 144
 4251              	aes_test_ctr_pt:
 4252 0000 53       		.byte	83
 4253 0001 69       		.byte	105
 4254 0002 6E       		.byte	110
 4255 0003 67       		.byte	103
 4256 0004 6C       		.byte	108
 4257 0005 65       		.byte	101
 4258 0006 20       		.byte	32
 4259 0007 62       		.byte	98
 4260 0008 6C       		.byte	108
 4261 0009 6F       		.byte	111
 4262 000a 63       		.byte	99
 4263 000b 6B       		.byte	107
 4264 000c 20       		.byte	32
 4265 000d 6D       		.byte	109
 4266 000e 73       		.byte	115
 4267 000f 67       		.byte	103
 4268 0010 00000000 		.space	32
 4268      00000000 
 4268      00000000 
 4268      00000000 
 4268      00000000 
 4269 0030 00       		.byte	0
 4270 0031 01       		.byte	1
 4271 0032 02       		.byte	2
 4272 0033 03       		.byte	3
 4273 0034 04       		.byte	4
 4274 0035 05       		.byte	5
 4275 0036 06       		.byte	6
 4276 0037 07       		.byte	7
 4277 0038 08       		.byte	8
 4278 0039 09       		.byte	9
 4279 003a 0A       		.byte	10
 4280 003b 0B       		.byte	11
 4281 003c 0C       		.byte	12
 4282 003d 0D       		.byte	13
 4283 003e 0E       		.byte	14
 4284 003f 0F       		.byte	15
 4285 0040 10       		.byte	16
 4286 0041 11       		.byte	17
 4287 0042 12       		.byte	18
 4288 0043 13       		.byte	19
 4289 0044 14       		.byte	20
 4290 0045 15       		.byte	21
 4291 0046 16       		.byte	22
 4292 0047 17       		.byte	23
 4293 0048 18       		.byte	24
 4294 0049 19       		.byte	25
 4295 004a 1A       		.byte	26
 4296 004b 1B       		.byte	27
 4297 004c 1C       		.byte	28
ARM GAS  C:\Users\jo\AppData\Local\Temp\cc8AA3HA.s 			page 78


 4298 004d 1D       		.byte	29
 4299 004e 1E       		.byte	30
 4300 004f 1F       		.byte	31
 4301 0050 00000000 		.space	16
 4301      00000000 
 4301      00000000 
 4301      00000000 
 4302 0060 00       		.byte	0
 4303 0061 01       		.byte	1
 4304 0062 02       		.byte	2
 4305 0063 03       		.byte	3
 4306 0064 04       		.byte	4
 4307 0065 05       		.byte	5
 4308 0066 06       		.byte	6
 4309 0067 07       		.byte	7
 4310 0068 08       		.byte	8
 4311 0069 09       		.byte	9
 4312 006a 0A       		.byte	10
 4313 006b 0B       		.byte	11
 4314 006c 0C       		.byte	12
 4315 006d 0D       		.byte	13
 4316 006e 0E       		.byte	14
 4317 006f 0F       		.byte	15
 4318 0070 10       		.byte	16
 4319 0071 11       		.byte	17
 4320 0072 12       		.byte	18
 4321 0073 13       		.byte	19
 4322 0074 14       		.byte	20
 4323 0075 15       		.byte	21
 4324 0076 16       		.byte	22
 4325 0077 17       		.byte	23
 4326 0078 18       		.byte	24
 4327 0079 19       		.byte	25
 4328 007a 1A       		.byte	26
 4329 007b 1B       		.byte	27
 4330 007c 1C       		.byte	28
 4331 007d 1D       		.byte	29
 4332 007e 1E       		.byte	30
 4333 007f 1F       		.byte	31
 4334 0080 20       		.byte	32
 4335 0081 21       		.byte	33
 4336 0082 22       		.byte	34
 4337 0083 23       		.byte	35
 4338 0084 00000000 		.space	12
 4338      00000000 
 4338      00000000 
 4339              		.section	.rodata.aes_test_cfb128_iv,"a",%progbits
 4340              		.align	2
 4341              		.set	.LANCHOR16,. + 0
 4342              		.type	aes_test_cfb128_iv, %object
 4343              		.size	aes_test_cfb128_iv, 16
 4344              	aes_test_cfb128_iv:
 4345 0000 00       		.byte	0
 4346 0001 01       		.byte	1
 4347 0002 02       		.byte	2
 4348 0003 03       		.byte	3
 4349 0004 04       		.byte	4
ARM GAS  C:\Users\jo\AppData\Local\Temp\cc8AA3HA.s 			page 79


 4350 0005 05       		.byte	5
 4351 0006 06       		.byte	6
 4352 0007 07       		.byte	7
 4353 0008 08       		.byte	8
 4354 0009 09       		.byte	9
 4355 000a 0A       		.byte	10
 4356 000b 0B       		.byte	11
 4357 000c 0C       		.byte	12
 4358 000d 0D       		.byte	13
 4359 000e 0E       		.byte	14
 4360 000f 0F       		.byte	15
 4361              		.text
 4362              	.Letext0:
 4363              		.file 2 "c:\\program files\\gnu tools arm embedded\\4.9 2014q4\\lib\\gcc\\arm-none-eabi\\4.9.3\\in
 4364              		.file 3 "c:\\program files\\gnu tools arm embedded\\4.9 2014q4\\arm-none-eabi\\include\\machine\\_
 4365              		.file 4 "c:\\program files\\gnu tools arm embedded\\4.9 2014q4\\arm-none-eabi\\include\\stdint.h"
 4366              		.file 5 "../../../ext/mbedtls-1.3.11/library/../include/polarssl/aes.h"
 4367              		.file 6 "c:\\program files\\gnu tools arm embedded\\4.9 2014q4\\arm-none-eabi\\include\\stdio.h"
 4368              		.file 7 "c:\\program files\\gnu tools arm embedded\\4.9 2014q4\\arm-none-eabi\\include\\string.h"
 4369              		.file 8 "<built-in>"
 4370              		.section	.debug_info,"",%progbits
 4371              	.Ldebug_info0:
 4372 0000 59130000 		.4byte	0x1359
 4373 0004 0400     		.2byte	0x4
 4374 0006 00000000 		.4byte	.Ldebug_abbrev0
 4375 000a 04       		.byte	0x4
 4376 000b 01       		.uleb128 0x1
 4377 000c E5010000 		.4byte	.LASF57
 4378 0010 01       		.byte	0x1
 4379 0011 3A030000 		.4byte	.LASF58
 4380 0015 74000000 		.4byte	.LASF59
 4381 0019 30000000 		.4byte	.Ldebug_ranges0+0x30
 4382 001d 00000000 		.4byte	0
 4383 0021 00000000 		.4byte	.Ldebug_line0
 4384 0025 02       		.uleb128 0x2
 4385 0026 04       		.byte	0x4
 4386 0027 05       		.byte	0x5
 4387 0028 696E7400 		.ascii	"int\000"
 4388 002c 03       		.uleb128 0x3
 4389 002d 07000000 		.4byte	.LASF6
 4390 0031 02       		.byte	0x2
 4391 0032 D4       		.byte	0xd4
 4392 0033 37000000 		.4byte	0x37
 4393 0037 04       		.uleb128 0x4
 4394 0038 04       		.byte	0x4
 4395 0039 07       		.byte	0x7
 4396 003a 48010000 		.4byte	.LASF0
 4397 003e 04       		.uleb128 0x4
 4398 003f 01       		.byte	0x1
 4399 0040 06       		.byte	0x6
 4400 0041 D0000000 		.4byte	.LASF1
 4401 0045 04       		.uleb128 0x4
 4402 0046 01       		.byte	0x1
 4403 0047 08       		.byte	0x8
 4404 0048 7F030000 		.4byte	.LASF2
 4405 004c 04       		.uleb128 0x4
 4406 004d 02       		.byte	0x2
ARM GAS  C:\Users\jo\AppData\Local\Temp\cc8AA3HA.s 			page 80


 4407 004e 05       		.byte	0x5
 4408 004f 8D030000 		.4byte	.LASF3
 4409 0053 04       		.uleb128 0x4
 4410 0054 02       		.byte	0x2
 4411 0055 07       		.byte	0x7
 4412 0056 C1010000 		.4byte	.LASF4
 4413 005a 04       		.uleb128 0x4
 4414 005b 04       		.byte	0x4
 4415 005c 05       		.byte	0x5
 4416 005d F8000000 		.4byte	.LASF5
 4417 0061 03       		.uleb128 0x3
 4418 0062 18010000 		.4byte	.LASF7
 4419 0066 03       		.byte	0x3
 4420 0067 41       		.byte	0x41
 4421 0068 6C000000 		.4byte	0x6c
 4422 006c 04       		.uleb128 0x4
 4423 006d 04       		.byte	0x4
 4424 006e 07       		.byte	0x7
 4425 006f 73010000 		.4byte	.LASF8
 4426 0073 04       		.uleb128 0x4
 4427 0074 08       		.byte	0x8
 4428 0075 05       		.byte	0x5
 4429 0076 C2000000 		.4byte	.LASF9
 4430 007a 04       		.uleb128 0x4
 4431 007b 08       		.byte	0x8
 4432 007c 07       		.byte	0x7
 4433 007d 37000000 		.4byte	.LASF10
 4434 0081 04       		.uleb128 0x4
 4435 0082 04       		.byte	0x4
 4436 0083 07       		.byte	0x7
 4437 0084 C6020000 		.4byte	.LASF11
 4438 0088 05       		.uleb128 0x5
 4439 0089 04       		.byte	0x4
 4440 008a 06       		.uleb128 0x6
 4441 008b 04       		.byte	0x4
 4442 008c 45000000 		.4byte	0x45
 4443 0090 04       		.uleb128 0x4
 4444 0091 01       		.byte	0x1
 4445 0092 08       		.byte	0x8
 4446 0093 B2030000 		.4byte	.LASF12
 4447 0097 06       		.uleb128 0x6
 4448 0098 04       		.byte	0x4
 4449 0099 9D000000 		.4byte	0x9d
 4450 009d 07       		.uleb128 0x7
 4451 009e 90000000 		.4byte	0x90
 4452 00a2 03       		.uleb128 0x3
 4453 00a3 A2030000 		.4byte	.LASF13
 4454 00a7 04       		.byte	0x4
 4455 00a8 2D       		.byte	0x2d
 4456 00a9 61000000 		.4byte	0x61
 4457 00ad 08       		.uleb128 0x8
 4458 00ae 1801     		.2byte	0x118
 4459 00b0 05       		.byte	0x5
 4460 00b1 41       		.byte	0x41
 4461 00b2 D9000000 		.4byte	0xd9
 4462 00b6 09       		.uleb128 0x9
 4463 00b7 6E7200   		.ascii	"nr\000"
ARM GAS  C:\Users\jo\AppData\Local\Temp\cc8AA3HA.s 			page 81


 4464 00ba 05       		.byte	0x5
 4465 00bb 43       		.byte	0x43
 4466 00bc 25000000 		.4byte	0x25
 4467 00c0 00       		.byte	0
 4468 00c1 09       		.uleb128 0x9
 4469 00c2 726B00   		.ascii	"rk\000"
 4470 00c5 05       		.byte	0x5
 4471 00c6 44       		.byte	0x44
 4472 00c7 D9000000 		.4byte	0xd9
 4473 00cb 04       		.byte	0x4
 4474 00cc 09       		.uleb128 0x9
 4475 00cd 62756600 		.ascii	"buf\000"
 4476 00d1 05       		.byte	0x5
 4477 00d2 45       		.byte	0x45
 4478 00d3 DF000000 		.4byte	0xdf
 4479 00d7 08       		.byte	0x8
 4480 00d8 00       		.byte	0
 4481 00d9 06       		.uleb128 0x6
 4482 00da 04       		.byte	0x4
 4483 00db A2000000 		.4byte	0xa2
 4484 00df 0A       		.uleb128 0xa
 4485 00e0 A2000000 		.4byte	0xa2
 4486 00e4 EF000000 		.4byte	0xef
 4487 00e8 0B       		.uleb128 0xb
 4488 00e9 81000000 		.4byte	0x81
 4489 00ed 43       		.byte	0x43
 4490 00ee 00       		.byte	0
 4491 00ef 03       		.uleb128 0x3
 4492 00f0 DF020000 		.4byte	.LASF14
 4493 00f4 05       		.byte	0x5
 4494 00f5 47       		.byte	0x47
 4495 00f6 AD000000 		.4byte	0xad
 4496 00fa 06       		.uleb128 0x6
 4497 00fb 04       		.byte	0x4
 4498 00fc 00010000 		.4byte	0x100
 4499 0100 0C       		.uleb128 0xc
 4500 0101 0D       		.uleb128 0xd
 4501 0102 D4010000 		.4byte	.LASF60
 4502 0106 01       		.byte	0x1
 4503 0107 3B       		.byte	0x3b
 4504 0108 01       		.byte	0x1
 4505 0109 29010000 		.4byte	0x129
 4506 010d 0E       		.uleb128 0xe
 4507 010e 7600     		.ascii	"v\000"
 4508 0110 01       		.byte	0x1
 4509 0111 3B       		.byte	0x3b
 4510 0112 88000000 		.4byte	0x88
 4511 0116 0E       		.uleb128 0xe
 4512 0117 6E00     		.ascii	"n\000"
 4513 0119 01       		.byte	0x1
 4514 011a 3B       		.byte	0x3b
 4515 011b 2C000000 		.4byte	0x2c
 4516 011f 0F       		.uleb128 0xf
 4517 0120 7000     		.ascii	"p\000"
 4518 0122 01       		.byte	0x1
 4519 0123 3C       		.byte	0x3c
 4520 0124 29010000 		.4byte	0x129
ARM GAS  C:\Users\jo\AppData\Local\Temp\cc8AA3HA.s 			page 82


 4521 0128 00       		.byte	0
 4522 0129 06       		.uleb128 0x6
 4523 012a 04       		.byte	0x4
 4524 012b 2F010000 		.4byte	0x12f
 4525 012f 10       		.uleb128 0x10
 4526 0130 45000000 		.4byte	0x45
 4527 0134 11       		.uleb128 0x11
 4528 0135 0E000000 		.4byte	.LASF15
 4529 0139 01       		.byte	0x1
 4530 013a D401     		.2byte	0x1d4
 4531 013c 01       		.byte	0x1
 4532 013d 4E010000 		.4byte	0x14e
 4533 0141 12       		.uleb128 0x12
 4534 0142 63747800 		.ascii	"ctx\000"
 4535 0146 01       		.byte	0x1
 4536 0147 D401     		.2byte	0x1d4
 4537 0149 4E010000 		.4byte	0x14e
 4538 014d 00       		.byte	0
 4539 014e 06       		.uleb128 0x6
 4540 014f 04       		.byte	0x4
 4541 0150 EF000000 		.4byte	0xef
 4542 0154 11       		.uleb128 0x11
 4543 0155 55000000 		.4byte	.LASF16
 4544 0159 01       		.byte	0x1
 4545 015a D901     		.2byte	0x1d9
 4546 015c 01       		.byte	0x1
 4547 015d 6E010000 		.4byte	0x16e
 4548 0161 12       		.uleb128 0x12
 4549 0162 63747800 		.ascii	"ctx\000"
 4550 0166 01       		.byte	0x1
 4551 0167 D901     		.2byte	0x1d9
 4552 0169 4E010000 		.4byte	0x14e
 4553 016d 00       		.byte	0
 4554 016e 13       		.uleb128 0x13
 4555 016f EA000000 		.4byte	.LASF52
 4556 0173 01       		.byte	0x1
 4557 0174 3603     		.2byte	0x336
 4558 0176 25000000 		.4byte	0x25
 4559 017a 01       		.byte	0x1
 4560 017b DD010000 		.4byte	0x1dd
 4561 017f 12       		.uleb128 0x12
 4562 0180 63747800 		.ascii	"ctx\000"
 4563 0184 01       		.byte	0x1
 4564 0185 3603     		.2byte	0x336
 4565 0187 4E010000 		.4byte	0x14e
 4566 018b 14       		.uleb128 0x14
 4567 018c B7030000 		.4byte	.LASF17
 4568 0190 01       		.byte	0x1
 4569 0191 3703     		.2byte	0x337
 4570 0193 25000000 		.4byte	0x25
 4571 0197 14       		.uleb128 0x14
 4572 0198 AB030000 		.4byte	.LASF18
 4573 019c 01       		.byte	0x1
 4574 019d 3803     		.2byte	0x338
 4575 019f 2C000000 		.4byte	0x2c
 4576 01a3 12       		.uleb128 0x12
 4577 01a4 697600   		.ascii	"iv\000"
ARM GAS  C:\Users\jo\AppData\Local\Temp\cc8AA3HA.s 			page 83


 4578 01a7 01       		.byte	0x1
 4579 01a8 3903     		.2byte	0x339
 4580 01aa 8A000000 		.4byte	0x8a
 4581 01ae 14       		.uleb128 0x14
 4582 01af 9C030000 		.4byte	.LASF19
 4583 01b3 01       		.byte	0x1
 4584 01b4 3A03     		.2byte	0x33a
 4585 01b6 DD010000 		.4byte	0x1dd
 4586 01ba 14       		.uleb128 0x14
 4587 01bb BF020000 		.4byte	.LASF20
 4588 01bf 01       		.byte	0x1
 4589 01c0 3B03     		.2byte	0x33b
 4590 01c2 8A000000 		.4byte	0x8a
 4591 01c6 15       		.uleb128 0x15
 4592 01c7 6900     		.ascii	"i\000"
 4593 01c9 01       		.byte	0x1
 4594 01ca 3D03     		.2byte	0x33d
 4595 01cc 25000000 		.4byte	0x25
 4596 01d0 16       		.uleb128 0x16
 4597 01d1 43010000 		.4byte	.LASF21
 4598 01d5 01       		.byte	0x1
 4599 01d6 3E03     		.2byte	0x33e
 4600 01d8 E8010000 		.4byte	0x1e8
 4601 01dc 00       		.byte	0
 4602 01dd 06       		.uleb128 0x6
 4603 01de 04       		.byte	0x4
 4604 01df E3010000 		.4byte	0x1e3
 4605 01e3 07       		.uleb128 0x7
 4606 01e4 45000000 		.4byte	0x45
 4607 01e8 0A       		.uleb128 0xa
 4608 01e9 45000000 		.4byte	0x45
 4609 01ed F8010000 		.4byte	0x1f8
 4610 01f1 0B       		.uleb128 0xb
 4611 01f2 81000000 		.4byte	0x81
 4612 01f6 0F       		.byte	0xf
 4613 01f7 00       		.byte	0
 4614 01f8 17       		.uleb128 0x17
 4615 01f9 5E000000 		.4byte	.LASF61
 4616 01fd 01       		.byte	0x1
 4617 01fe 8601     		.2byte	0x186
 4618 0200 00000000 		.4byte	.LFB1
 4619 0204 4C020000 		.4byte	.LFE1-.LFB1
 4620 0208 01       		.uleb128 0x1
 4621 0209 9C       		.byte	0x9c
 4622 020a 67020000 		.4byte	0x267
 4623 020e 18       		.uleb128 0x18
 4624 020f 6900     		.ascii	"i\000"
 4625 0211 01       		.byte	0x1
 4626 0212 8801     		.2byte	0x188
 4627 0214 25000000 		.4byte	0x25
 4628 0218 00000000 		.4byte	.LLST0
 4629 021c 18       		.uleb128 0x18
 4630 021d 7800     		.ascii	"x\000"
 4631 021f 01       		.byte	0x1
 4632 0220 8801     		.2byte	0x188
 4633 0222 25000000 		.4byte	0x25
 4634 0226 4C000000 		.4byte	.LLST1
ARM GAS  C:\Users\jo\AppData\Local\Temp\cc8AA3HA.s 			page 84


 4635 022a 18       		.uleb128 0x18
 4636 022b 7900     		.ascii	"y\000"
 4637 022d 01       		.byte	0x1
 4638 022e 8801     		.2byte	0x188
 4639 0230 25000000 		.4byte	0x25
 4640 0234 37050000 		.4byte	.LLST2
 4641 0238 18       		.uleb128 0x18
 4642 0239 7A00     		.ascii	"z\000"
 4643 023b 01       		.byte	0x1
 4644 023c 8801     		.2byte	0x188
 4645 023e 25000000 		.4byte	0x25
 4646 0242 29080000 		.4byte	.LLST3
 4647 0246 19       		.uleb128 0x19
 4648 0247 706F7700 		.ascii	"pow\000"
 4649 024b 01       		.byte	0x1
 4650 024c 8901     		.2byte	0x189
 4651 024e 67020000 		.4byte	0x267
 4652 0252 03       		.uleb128 0x3
 4653 0253 91       		.byte	0x91
 4654 0254 D86F     		.sleb128 -2088
 4655 0256 19       		.uleb128 0x19
 4656 0257 6C6F6700 		.ascii	"log\000"
 4657 025b 01       		.byte	0x1
 4658 025c 8A01     		.2byte	0x18a
 4659 025e 67020000 		.4byte	0x267
 4660 0262 03       		.uleb128 0x3
 4661 0263 91       		.byte	0x91
 4662 0264 D877     		.sleb128 -1064
 4663 0266 00       		.byte	0
 4664 0267 0A       		.uleb128 0xa
 4665 0268 25000000 		.4byte	0x25
 4666 026c 77020000 		.4byte	0x277
 4667 0270 0B       		.uleb128 0xb
 4668 0271 81000000 		.4byte	0x81
 4669 0275 FF       		.byte	0xff
 4670 0276 00       		.byte	0
 4671 0277 1A       		.uleb128 0x1a
 4672 0278 34010000 		.4byte	0x134
 4673 027c 00000000 		.4byte	.LFB2
 4674 0280 0A000000 		.4byte	.LFE2-.LFB2
 4675 0284 01       		.uleb128 0x1
 4676 0285 9C       		.byte	0x9c
 4677 0286 B1020000 		.4byte	0x2b1
 4678 028a 1B       		.uleb128 0x1b
 4679 028b 41010000 		.4byte	0x141
 4680 028f A8090000 		.4byte	.LLST4
 4681 0293 1C       		.uleb128 0x1c
 4682 0294 0A000000 		.4byte	.LVL41
 4683 0298 BF120000 		.4byte	0x12bf
 4684 029c 1D       		.uleb128 0x1d
 4685 029d 01       		.uleb128 0x1
 4686 029e 52       		.byte	0x52
 4687 029f 03       		.uleb128 0x3
 4688 02a0 0A       		.byte	0xa
 4689 02a1 1801     		.2byte	0x118
 4690 02a3 1D       		.uleb128 0x1d
 4691 02a4 01       		.uleb128 0x1
ARM GAS  C:\Users\jo\AppData\Local\Temp\cc8AA3HA.s 			page 85


 4692 02a5 51       		.byte	0x51
 4693 02a6 01       		.uleb128 0x1
 4694 02a7 30       		.byte	0x30
 4695 02a8 1D       		.uleb128 0x1d
 4696 02a9 01       		.uleb128 0x1
 4697 02aa 50       		.byte	0x50
 4698 02ab 03       		.uleb128 0x3
 4699 02ac F3       		.byte	0xf3
 4700 02ad 01       		.uleb128 0x1
 4701 02ae 50       		.byte	0x50
 4702 02af 00       		.byte	0
 4703 02b0 00       		.byte	0
 4704 02b1 1A       		.uleb128 0x1a
 4705 02b2 54010000 		.4byte	0x154
 4706 02b6 00000000 		.4byte	.LFB3
 4707 02ba 12000000 		.4byte	.LFE3-.LFB3
 4708 02be 01       		.uleb128 0x1
 4709 02bf 9C       		.byte	0x9c
 4710 02c0 00030000 		.4byte	0x300
 4711 02c4 1B       		.uleb128 0x1b
 4712 02c5 61010000 		.4byte	0x161
 4713 02c9 C9090000 		.4byte	.LLST5
 4714 02cd 1E       		.uleb128 0x1e
 4715 02ce 01010000 		.4byte	0x101
 4716 02d2 06000000 		.4byte	.LBB17
 4717 02d6 0C000000 		.4byte	.LBE17-.LBB17
 4718 02da 01       		.byte	0x1
 4719 02db DE01     		.2byte	0x1de
 4720 02dd 1B       		.uleb128 0x1b
 4721 02de 16010000 		.4byte	0x116
 4722 02e2 F8090000 		.4byte	.LLST6
 4723 02e6 1F       		.uleb128 0x1f
 4724 02e7 0D010000 		.4byte	0x10d
 4725 02eb 20       		.uleb128 0x20
 4726 02ec 06000000 		.4byte	.LBB18
 4727 02f0 0C000000 		.4byte	.LBE18-.LBB18
 4728 02f4 21       		.uleb128 0x21
 4729 02f5 1F010000 		.4byte	0x11f
 4730 02f9 0E0A0000 		.4byte	.LLST7
 4731 02fd 00       		.byte	0
 4732 02fe 00       		.byte	0
 4733 02ff 00       		.byte	0
 4734 0300 22       		.uleb128 0x22
 4735 0301 64010000 		.4byte	.LASF23
 4736 0305 01       		.byte	0x1
 4737 0306 E401     		.2byte	0x1e4
 4738 0308 25000000 		.4byte	0x25
 4739 030c 00000000 		.4byte	.LFB4
 4740 0310 1C020000 		.4byte	.LFE4-.LFB4
 4741 0314 01       		.uleb128 0x1
 4742 0315 9C       		.byte	0x9c
 4743 0316 71030000 		.4byte	0x371
 4744 031a 23       		.uleb128 0x23
 4745 031b 63747800 		.ascii	"ctx\000"
 4746 031f 01       		.byte	0x1
 4747 0320 E401     		.2byte	0x1e4
 4748 0322 4E010000 		.4byte	0x14e
ARM GAS  C:\Users\jo\AppData\Local\Temp\cc8AA3HA.s 			page 86


 4749 0326 2E0A0000 		.4byte	.LLST8
 4750 032a 23       		.uleb128 0x23
 4751 032b 6B657900 		.ascii	"key\000"
 4752 032f 01       		.byte	0x1
 4753 0330 E401     		.2byte	0x1e4
 4754 0332 DD010000 		.4byte	0x1dd
 4755 0336 B00A0000 		.4byte	.LLST9
 4756 033a 24       		.uleb128 0x24
 4757 033b 85010000 		.4byte	.LASF22
 4758 033f 01       		.byte	0x1
 4759 0340 E501     		.2byte	0x1e5
 4760 0342 37000000 		.4byte	0x37
 4761 0346 320B0000 		.4byte	.LLST10
 4762 034a 18       		.uleb128 0x18
 4763 034b 6900     		.ascii	"i\000"
 4764 034d 01       		.byte	0x1
 4765 034e E701     		.2byte	0x1e7
 4766 0350 37000000 		.4byte	0x37
 4767 0354 820B0000 		.4byte	.LLST11
 4768 0358 18       		.uleb128 0x18
 4769 0359 524B00   		.ascii	"RK\000"
 4770 035c 01       		.byte	0x1
 4771 035d E801     		.2byte	0x1e8
 4772 035f D9000000 		.4byte	0xd9
 4773 0363 C20B0000 		.4byte	.LLST12
 4774 0367 25       		.uleb128 0x25
 4775 0368 80000000 		.4byte	.LVL56
 4776 036c F8010000 		.4byte	0x1f8
 4777 0370 00       		.byte	0
 4778 0371 22       		.uleb128 0x22
 4779 0372 55010000 		.4byte	.LASF24
 4780 0376 01       		.byte	0x1
 4781 0377 5402     		.2byte	0x254
 4782 0379 25000000 		.4byte	0x25
 4783 037d 00000000 		.4byte	.LFB5
 4784 0381 24010000 		.4byte	.LFE5-.LFB5
 4785 0385 01       		.uleb128 0x1
 4786 0386 9C       		.byte	0x9c
 4787 0387 C2040000 		.4byte	0x4c2
 4788 038b 23       		.uleb128 0x23
 4789 038c 63747800 		.ascii	"ctx\000"
 4790 0390 01       		.byte	0x1
 4791 0391 5402     		.2byte	0x254
 4792 0393 4E010000 		.4byte	0x14e
 4793 0397 E00B0000 		.4byte	.LLST13
 4794 039b 23       		.uleb128 0x23
 4795 039c 6B657900 		.ascii	"key\000"
 4796 03a0 01       		.byte	0x1
 4797 03a1 5402     		.2byte	0x254
 4798 03a3 DD010000 		.4byte	0x1dd
 4799 03a7 1D0C0000 		.4byte	.LLST14
 4800 03ab 24       		.uleb128 0x24
 4801 03ac 85010000 		.4byte	.LASF22
 4802 03b0 01       		.byte	0x1
 4803 03b1 5502     		.2byte	0x255
 4804 03b3 37000000 		.4byte	0x37
 4805 03b7 490C0000 		.4byte	.LLST15
ARM GAS  C:\Users\jo\AppData\Local\Temp\cc8AA3HA.s 			page 87


 4806 03bb 18       		.uleb128 0x18
 4807 03bc 6900     		.ascii	"i\000"
 4808 03be 01       		.byte	0x1
 4809 03bf 5702     		.2byte	0x257
 4810 03c1 25000000 		.4byte	0x25
 4811 03c5 750C0000 		.4byte	.LLST16
 4812 03c9 18       		.uleb128 0x18
 4813 03ca 6A00     		.ascii	"j\000"
 4814 03cc 01       		.byte	0x1
 4815 03cd 5702     		.2byte	0x257
 4816 03cf 25000000 		.4byte	0x25
 4817 03d3 A00C0000 		.4byte	.LLST17
 4818 03d7 18       		.uleb128 0x18
 4819 03d8 72657400 		.ascii	"ret\000"
 4820 03dc 01       		.byte	0x1
 4821 03dd 5702     		.2byte	0x257
 4822 03df 25000000 		.4byte	0x25
 4823 03e3 B40C0000 		.4byte	.LLST18
 4824 03e7 19       		.uleb128 0x19
 4825 03e8 63747900 		.ascii	"cty\000"
 4826 03ec 01       		.byte	0x1
 4827 03ed 5802     		.2byte	0x258
 4828 03ef EF000000 		.4byte	0xef
 4829 03f3 03       		.uleb128 0x3
 4830 03f4 91       		.byte	0x91
 4831 03f5 C07D     		.sleb128 -320
 4832 03f7 18       		.uleb128 0x18
 4833 03f8 524B00   		.ascii	"RK\000"
 4834 03fb 01       		.byte	0x1
 4835 03fc 5902     		.2byte	0x259
 4836 03fe D9000000 		.4byte	0xd9
 4837 0402 E10C0000 		.4byte	.LLST19
 4838 0406 18       		.uleb128 0x18
 4839 0407 534B00   		.ascii	"SK\000"
 4840 040a 01       		.byte	0x1
 4841 040b 5A02     		.2byte	0x25a
 4842 040d D9000000 		.4byte	0xd9
 4843 0411 E20D0000 		.4byte	.LLST20
 4844 0415 26       		.uleb128 0x26
 4845 0416 97030000 		.4byte	.LASF62
 4846 041a 01       		.byte	0x1
 4847 041b 8E02     		.2byte	0x28e
 4848 041d 27       		.uleb128 0x27
 4849 041e 34010000 		.4byte	0x134
 4850 0422 0C000000 		.4byte	.LBB19
 4851 0426 0C000000 		.4byte	.LBE19-.LBB19
 4852 042a 01       		.byte	0x1
 4853 042b 5C02     		.2byte	0x25c
 4854 042d 58040000 		.4byte	0x458
 4855 0431 1B       		.uleb128 0x1b
 4856 0432 41010000 		.4byte	0x141
 4857 0436 AE0E0000 		.4byte	.LLST21
 4858 043a 28       		.uleb128 0x28
 4859 043b 18000000 		.4byte	.LVL71
 4860 043f BF120000 		.4byte	0x12bf
 4861 0443 1D       		.uleb128 0x1d
 4862 0444 01       		.uleb128 0x1
ARM GAS  C:\Users\jo\AppData\Local\Temp\cc8AA3HA.s 			page 88


 4863 0445 52       		.byte	0x52
 4864 0446 03       		.uleb128 0x3
 4865 0447 0A       		.byte	0xa
 4866 0448 1801     		.2byte	0x118
 4867 044a 1D       		.uleb128 0x1d
 4868 044b 01       		.uleb128 0x1
 4869 044c 51       		.byte	0x51
 4870 044d 01       		.uleb128 0x1
 4871 044e 30       		.byte	0x30
 4872 044f 1D       		.uleb128 0x1d
 4873 0450 01       		.uleb128 0x1
 4874 0451 50       		.byte	0x50
 4875 0452 03       		.uleb128 0x3
 4876 0453 91       		.byte	0x91
 4877 0454 C07D     		.sleb128 -320
 4878 0456 00       		.byte	0
 4879 0457 00       		.byte	0
 4880 0458 27       		.uleb128 0x27
 4881 0459 54010000 		.4byte	0x154
 4882 045d FC000000 		.4byte	.LBB21
 4883 0461 0C000000 		.4byte	.LBE21-.LBB21
 4884 0465 01       		.byte	0x1
 4885 0466 8F02     		.2byte	0x28f
 4886 0468 A4040000 		.4byte	0x4a4
 4887 046c 1F       		.uleb128 0x1f
 4888 046d 61010000 		.4byte	0x161
 4889 0471 1E       		.uleb128 0x1e
 4890 0472 01010000 		.4byte	0x101
 4891 0476 FC000000 		.4byte	.LBB22
 4892 047a 0C000000 		.4byte	.LBE22-.LBB22
 4893 047e 01       		.byte	0x1
 4894 047f DE01     		.2byte	0x1de
 4895 0481 1B       		.uleb128 0x1b
 4896 0482 16010000 		.4byte	0x116
 4897 0486 1D0F0000 		.4byte	.LLST22
 4898 048a 1F       		.uleb128 0x1f
 4899 048b 0D010000 		.4byte	0x10d
 4900 048f 20       		.uleb128 0x20
 4901 0490 FC000000 		.4byte	.LBB23
 4902 0494 0C000000 		.4byte	.LBE23-.LBB23
 4903 0498 21       		.uleb128 0x21
 4904 0499 1F010000 		.4byte	0x11f
 4905 049d 7F0F0000 		.4byte	.LLST23
 4906 04a1 00       		.byte	0
 4907 04a2 00       		.byte	0
 4908 04a3 00       		.byte	0
 4909 04a4 28       		.uleb128 0x28
 4910 04a5 28000000 		.4byte	.LVL74
 4911 04a9 00030000 		.4byte	0x300
 4912 04ad 1D       		.uleb128 0x1d
 4913 04ae 01       		.uleb128 0x1
 4914 04af 52       		.byte	0x52
 4915 04b0 02       		.uleb128 0x2
 4916 04b1 74       		.byte	0x74
 4917 04b2 00       		.sleb128 0
 4918 04b3 1D       		.uleb128 0x1d
 4919 04b4 01       		.uleb128 0x1
ARM GAS  C:\Users\jo\AppData\Local\Temp\cc8AA3HA.s 			page 89


 4920 04b5 51       		.byte	0x51
 4921 04b6 02       		.uleb128 0x2
 4922 04b7 76       		.byte	0x76
 4923 04b8 00       		.sleb128 0
 4924 04b9 1D       		.uleb128 0x1d
 4925 04ba 01       		.uleb128 0x1
 4926 04bb 50       		.byte	0x50
 4927 04bc 03       		.uleb128 0x3
 4928 04bd 91       		.byte	0x91
 4929 04be C07D     		.sleb128 -320
 4930 04c0 00       		.byte	0
 4931 04c1 00       		.byte	0
 4932 04c2 22       		.uleb128 0x22
 4933 04c3 21040000 		.4byte	.LASF25
 4934 04c7 01       		.byte	0x1
 4935 04c8 C502     		.2byte	0x2c5
 4936 04ca 25000000 		.4byte	0x25
 4937 04ce 00000000 		.4byte	.LFB6
 4938 04d2 A8080000 		.4byte	.LFE6-.LFB6
 4939 04d6 01       		.uleb128 0x1
 4940 04d7 9C       		.byte	0x9c
 4941 04d8 B2050000 		.4byte	0x5b2
 4942 04dc 23       		.uleb128 0x23
 4943 04dd 63747800 		.ascii	"ctx\000"
 4944 04e1 01       		.byte	0x1
 4945 04e2 C502     		.2byte	0x2c5
 4946 04e4 4E010000 		.4byte	0x14e
 4947 04e8 B80F0000 		.4byte	.LLST24
 4948 04ec 24       		.uleb128 0x24
 4949 04ed B7030000 		.4byte	.LASF17
 4950 04f1 01       		.byte	0x1
 4951 04f2 C602     		.2byte	0x2c6
 4952 04f4 25000000 		.4byte	0x25
 4953 04f8 01100000 		.4byte	.LLST25
 4954 04fc 24       		.uleb128 0x24
 4955 04fd 9C030000 		.4byte	.LASF19
 4956 0501 01       		.byte	0x1
 4957 0502 C702     		.2byte	0x2c7
 4958 0504 DD010000 		.4byte	0x1dd
 4959 0508 3B100000 		.4byte	.LLST26
 4960 050c 24       		.uleb128 0x24
 4961 050d BF020000 		.4byte	.LASF20
 4962 0511 01       		.byte	0x1
 4963 0512 C802     		.2byte	0x2c8
 4964 0514 8A000000 		.4byte	0x8a
 4965 0518 5C100000 		.4byte	.LLST27
 4966 051c 18       		.uleb128 0x18
 4967 051d 6900     		.ascii	"i\000"
 4968 051f 01       		.byte	0x1
 4969 0520 CA02     		.2byte	0x2ca
 4970 0522 25000000 		.4byte	0x25
 4971 0526 7B100000 		.4byte	.LLST28
 4972 052a 18       		.uleb128 0x18
 4973 052b 524B00   		.ascii	"RK\000"
 4974 052e 01       		.byte	0x1
 4975 052f CB02     		.2byte	0x2cb
 4976 0531 D9000000 		.4byte	0xd9
ARM GAS  C:\Users\jo\AppData\Local\Temp\cc8AA3HA.s 			page 90


 4977 0535 E4100000 		.4byte	.LLST29
 4978 0539 18       		.uleb128 0x18
 4979 053a 583000   		.ascii	"X0\000"
 4980 053d 01       		.byte	0x1
 4981 053e CB02     		.2byte	0x2cb
 4982 0540 A2000000 		.4byte	0xa2
 4983 0544 B3120000 		.4byte	.LLST30
 4984 0548 18       		.uleb128 0x18
 4985 0549 583100   		.ascii	"X1\000"
 4986 054c 01       		.byte	0x1
 4987 054d CB02     		.2byte	0x2cb
 4988 054f A2000000 		.4byte	0xa2
 4989 0553 FD120000 		.4byte	.LLST31
 4990 0557 18       		.uleb128 0x18
 4991 0558 583200   		.ascii	"X2\000"
 4992 055b 01       		.byte	0x1
 4993 055c CB02     		.2byte	0x2cb
 4994 055e A2000000 		.4byte	0xa2
 4995 0562 7B130000 		.4byte	.LLST32
 4996 0566 18       		.uleb128 0x18
 4997 0567 583300   		.ascii	"X3\000"
 4998 056a 01       		.byte	0x1
 4999 056b CB02     		.2byte	0x2cb
 5000 056d A2000000 		.4byte	0xa2
 5001 0571 02140000 		.4byte	.LLST33
 5002 0575 18       		.uleb128 0x18
 5003 0576 593000   		.ascii	"Y0\000"
 5004 0579 01       		.byte	0x1
 5005 057a CB02     		.2byte	0x2cb
 5006 057c A2000000 		.4byte	0xa2
 5007 0580 8B140000 		.4byte	.LLST34
 5008 0584 18       		.uleb128 0x18
 5009 0585 593100   		.ascii	"Y1\000"
 5010 0588 01       		.byte	0x1
 5011 0589 CB02     		.2byte	0x2cb
 5012 058b A2000000 		.4byte	0xa2
 5013 058f FC140000 		.4byte	.LLST35
 5014 0593 18       		.uleb128 0x18
 5015 0594 593200   		.ascii	"Y2\000"
 5016 0597 01       		.byte	0x1
 5017 0598 CB02     		.2byte	0x2cb
 5018 059a A2000000 		.4byte	0xa2
 5019 059e 30150000 		.4byte	.LLST36
 5020 05a2 18       		.uleb128 0x18
 5021 05a3 593300   		.ascii	"Y3\000"
 5022 05a6 01       		.byte	0x1
 5023 05a7 CB02     		.2byte	0x2cb
 5024 05a9 A2000000 		.4byte	0xa2
 5025 05ad 64150000 		.4byte	.LLST37
 5026 05b1 00       		.byte	0
 5027 05b2 1A       		.uleb128 0x1a
 5028 05b3 6E010000 		.4byte	0x16e
 5029 05b7 00000000 		.4byte	.LFB7
 5030 05bb D4000000 		.4byte	.LFE7-.LFB7
 5031 05bf 01       		.uleb128 0x1
 5032 05c0 9C       		.byte	0x9c
 5033 05c1 A0060000 		.4byte	0x6a0
ARM GAS  C:\Users\jo\AppData\Local\Temp\cc8AA3HA.s 			page 91


 5034 05c5 1B       		.uleb128 0x1b
 5035 05c6 7F010000 		.4byte	0x17f
 5036 05ca 8D150000 		.4byte	.LLST38
 5037 05ce 1B       		.uleb128 0x1b
 5038 05cf 8B010000 		.4byte	0x18b
 5039 05d3 E8150000 		.4byte	.LLST39
 5040 05d7 1B       		.uleb128 0x1b
 5041 05d8 97010000 		.4byte	0x197
 5042 05dc 35160000 		.4byte	.LLST40
 5043 05e0 1B       		.uleb128 0x1b
 5044 05e1 A3010000 		.4byte	0x1a3
 5045 05e5 84160000 		.4byte	.LLST41
 5046 05e9 1B       		.uleb128 0x1b
 5047 05ea AE010000 		.4byte	0x1ae
 5048 05ee D1160000 		.4byte	.LLST42
 5049 05f2 1B       		.uleb128 0x1b
 5050 05f3 BA010000 		.4byte	0x1ba
 5051 05f7 18170000 		.4byte	.LLST43
 5052 05fb 21       		.uleb128 0x21
 5053 05fc C6010000 		.4byte	0x1c6
 5054 0600 43170000 		.4byte	.LLST44
 5055 0604 29       		.uleb128 0x29
 5056 0605 D0010000 		.4byte	0x1d0
 5057 0609 2A       		.uleb128 0x2a
 5058 060a 70000000 		.4byte	.LBB26
 5059 060e 5E000000 		.4byte	.LBE26-.LBB26
 5060 0612 7D060000 		.4byte	0x67d
 5061 0616 1B       		.uleb128 0x1b
 5062 0617 BA010000 		.4byte	0x1ba
 5063 061b 8E170000 		.4byte	.LLST45
 5064 061f 1B       		.uleb128 0x1b
 5065 0620 AE010000 		.4byte	0x1ae
 5066 0624 B9170000 		.4byte	.LLST46
 5067 0628 1F       		.uleb128 0x1f
 5068 0629 A3010000 		.4byte	0x1a3
 5069 062d 1B       		.uleb128 0x1b
 5070 062e 97010000 		.4byte	0x197
 5071 0632 CC170000 		.4byte	.LLST47
 5072 0636 1F       		.uleb128 0x1f
 5073 0637 8B010000 		.4byte	0x18b
 5074 063b 1F       		.uleb128 0x1f
 5075 063c 7F010000 		.4byte	0x17f
 5076 0640 20       		.uleb128 0x20
 5077 0641 70000000 		.4byte	.LBB27
 5078 0645 5E000000 		.4byte	.LBE27-.LBB27
 5079 0649 21       		.uleb128 0x21
 5080 064a C6010000 		.4byte	0x1c6
 5081 064e F7170000 		.4byte	.LLST48
 5082 0652 2B       		.uleb128 0x2b
 5083 0653 D0010000 		.4byte	0x1d0
 5084 0657 02       		.uleb128 0x2
 5085 0658 91       		.byte	0x91
 5086 0659 50       		.sleb128 -48
 5087 065a 28       		.uleb128 0x28
 5088 065b 96000000 		.4byte	.LVL206
 5089 065f C2040000 		.4byte	0x4c2
 5090 0663 1D       		.uleb128 0x1d
ARM GAS  C:\Users\jo\AppData\Local\Temp\cc8AA3HA.s 			page 92


 5091 0664 01       		.uleb128 0x1
 5092 0665 53       		.byte	0x53
 5093 0666 02       		.uleb128 0x2
 5094 0667 74       		.byte	0x74
 5095 0668 00       		.sleb128 0
 5096 0669 1D       		.uleb128 0x1d
 5097 066a 01       		.uleb128 0x1
 5098 066b 52       		.byte	0x52
 5099 066c 02       		.uleb128 0x2
 5100 066d 7A       		.byte	0x7a
 5101 066e 00       		.sleb128 0
 5102 066f 1D       		.uleb128 0x1d
 5103 0670 01       		.uleb128 0x1
 5104 0671 51       		.byte	0x51
 5105 0672 01       		.uleb128 0x1
 5106 0673 30       		.byte	0x30
 5107 0674 1D       		.uleb128 0x1d
 5108 0675 01       		.uleb128 0x1
 5109 0676 50       		.byte	0x50
 5110 0677 02       		.uleb128 0x2
 5111 0678 76       		.byte	0x76
 5112 0679 00       		.sleb128 0
 5113 067a 00       		.byte	0
 5114 067b 00       		.byte	0
 5115 067c 00       		.byte	0
 5116 067d 28       		.uleb128 0x28
 5117 067e 4C000000 		.4byte	.LVL198
 5118 0682 C2040000 		.4byte	0x4c2
 5119 0686 1D       		.uleb128 0x1d
 5120 0687 01       		.uleb128 0x1
 5121 0688 53       		.byte	0x53
 5122 0689 02       		.uleb128 0x2
 5123 068a 74       		.byte	0x74
 5124 068b 00       		.sleb128 0
 5125 068c 1D       		.uleb128 0x1d
 5126 068d 01       		.uleb128 0x1
 5127 068e 52       		.byte	0x52
 5128 068f 02       		.uleb128 0x2
 5129 0690 74       		.byte	0x74
 5130 0691 00       		.sleb128 0
 5131 0692 1D       		.uleb128 0x1d
 5132 0693 01       		.uleb128 0x1
 5133 0694 51       		.byte	0x51
 5134 0695 02       		.uleb128 0x2
 5135 0696 79       		.byte	0x79
 5136 0697 00       		.sleb128 0
 5137 0698 1D       		.uleb128 0x1d
 5138 0699 01       		.uleb128 0x1
 5139 069a 50       		.byte	0x50
 5140 069b 02       		.uleb128 0x2
 5141 069c 76       		.byte	0x76
 5142 069d 00       		.sleb128 0
 5143 069e 00       		.byte	0
 5144 069f 00       		.byte	0
 5145 06a0 22       		.uleb128 0x22
 5146 06a1 32010000 		.4byte	.LASF26
 5147 06a5 01       		.byte	0x1
ARM GAS  C:\Users\jo\AppData\Local\Temp\cc8AA3HA.s 			page 93


 5148 06a6 7803     		.2byte	0x378
 5149 06a8 25000000 		.4byte	0x25
 5150 06ac 00000000 		.4byte	.LFB8
 5151 06b0 7E000000 		.4byte	.LFE8-.LFB8
 5152 06b4 01       		.uleb128 0x1
 5153 06b5 9C       		.byte	0x9c
 5154 06b6 8A070000 		.4byte	0x78a
 5155 06ba 23       		.uleb128 0x23
 5156 06bb 63747800 		.ascii	"ctx\000"
 5157 06bf 01       		.byte	0x1
 5158 06c0 7803     		.2byte	0x378
 5159 06c2 4E010000 		.4byte	0x14e
 5160 06c6 0B180000 		.4byte	.LLST49
 5161 06ca 24       		.uleb128 0x24
 5162 06cb B7030000 		.4byte	.LASF17
 5163 06cf 01       		.byte	0x1
 5164 06d0 7903     		.2byte	0x379
 5165 06d2 25000000 		.4byte	0x25
 5166 06d6 3F180000 		.4byte	.LLST50
 5167 06da 24       		.uleb128 0x24
 5168 06db AB030000 		.4byte	.LASF18
 5169 06df 01       		.byte	0x1
 5170 06e0 7A03     		.2byte	0x37a
 5171 06e2 2C000000 		.4byte	0x2c
 5172 06e6 79180000 		.4byte	.LLST51
 5173 06ea 24       		.uleb128 0x24
 5174 06eb 6D000000 		.4byte	.LASF27
 5175 06ef 01       		.byte	0x1
 5176 06f0 7B03     		.2byte	0x37b
 5177 06f2 8A070000 		.4byte	0x78a
 5178 06f6 D8180000 		.4byte	.LLST52
 5179 06fa 23       		.uleb128 0x23
 5180 06fb 697600   		.ascii	"iv\000"
 5181 06fe 01       		.byte	0x1
 5182 06ff 7C03     		.2byte	0x37c
 5183 0701 8A000000 		.4byte	0x8a
 5184 0705 0C190000 		.4byte	.LLST53
 5185 0709 24       		.uleb128 0x24
 5186 070a 9C030000 		.4byte	.LASF19
 5187 070e 01       		.byte	0x1
 5188 070f 7D03     		.2byte	0x37d
 5189 0711 DD010000 		.4byte	0x1dd
 5190 0715 38190000 		.4byte	.LLST54
 5191 0719 24       		.uleb128 0x24
 5192 071a BF020000 		.4byte	.LASF20
 5193 071e 01       		.byte	0x1
 5194 071f 7E03     		.2byte	0x37e
 5195 0721 8A000000 		.4byte	0x8a
 5196 0725 9F190000 		.4byte	.LLST55
 5197 0729 18       		.uleb128 0x18
 5198 072a 6300     		.ascii	"c\000"
 5199 072c 01       		.byte	0x1
 5200 072d 8003     		.2byte	0x380
 5201 072f 25000000 		.4byte	0x25
 5202 0733 E3190000 		.4byte	.LLST56
 5203 0737 19       		.uleb128 0x19
 5204 0738 6E00     		.ascii	"n\000"
ARM GAS  C:\Users\jo\AppData\Local\Temp\cc8AA3HA.s 			page 94


 5205 073a 01       		.byte	0x1
 5206 073b 8103     		.2byte	0x381
 5207 073d 2C000000 		.4byte	0x2c
 5208 0741 01       		.uleb128 0x1
 5209 0742 54       		.byte	0x54
 5210 0743 2C       		.uleb128 0x2c
 5211 0744 6E000000 		.4byte	.LVL228
 5212 0748 C2040000 		.4byte	0x4c2
 5213 074c 68070000 		.4byte	0x768
 5214 0750 1D       		.uleb128 0x1d
 5215 0751 01       		.uleb128 0x1
 5216 0752 53       		.byte	0x53
 5217 0753 02       		.uleb128 0x2
 5218 0754 76       		.byte	0x76
 5219 0755 00       		.sleb128 0
 5220 0756 1D       		.uleb128 0x1d
 5221 0757 01       		.uleb128 0x1
 5222 0758 52       		.byte	0x52
 5223 0759 02       		.uleb128 0x2
 5224 075a 76       		.byte	0x76
 5225 075b 00       		.sleb128 0
 5226 075c 1D       		.uleb128 0x1d
 5227 075d 01       		.uleb128 0x1
 5228 075e 51       		.byte	0x51
 5229 075f 01       		.uleb128 0x1
 5230 0760 31       		.byte	0x31
 5231 0761 1D       		.uleb128 0x1d
 5232 0762 01       		.uleb128 0x1
 5233 0763 50       		.byte	0x50
 5234 0764 02       		.uleb128 0x2
 5235 0765 77       		.byte	0x77
 5236 0766 00       		.sleb128 0
 5237 0767 00       		.byte	0
 5238 0768 28       		.uleb128 0x28
 5239 0769 7C000000 		.4byte	.LVL230
 5240 076d C2040000 		.4byte	0x4c2
 5241 0771 1D       		.uleb128 0x1d
 5242 0772 01       		.uleb128 0x1
 5243 0773 53       		.byte	0x53
 5244 0774 02       		.uleb128 0x2
 5245 0775 76       		.byte	0x76
 5246 0776 00       		.sleb128 0
 5247 0777 1D       		.uleb128 0x1d
 5248 0778 01       		.uleb128 0x1
 5249 0779 52       		.byte	0x52
 5250 077a 02       		.uleb128 0x2
 5251 077b 76       		.byte	0x76
 5252 077c 00       		.sleb128 0
 5253 077d 1D       		.uleb128 0x1d
 5254 077e 01       		.uleb128 0x1
 5255 077f 51       		.byte	0x51
 5256 0780 01       		.uleb128 0x1
 5257 0781 31       		.byte	0x31
 5258 0782 1D       		.uleb128 0x1d
 5259 0783 01       		.uleb128 0x1
 5260 0784 50       		.byte	0x50
 5261 0785 02       		.uleb128 0x2
ARM GAS  C:\Users\jo\AppData\Local\Temp\cc8AA3HA.s 			page 95


 5262 0786 77       		.byte	0x77
 5263 0787 00       		.sleb128 0
 5264 0788 00       		.byte	0
 5265 0789 00       		.byte	0
 5266 078a 06       		.uleb128 0x6
 5267 078b 04       		.byte	0x4
 5268 078c 2C000000 		.4byte	0x2c
 5269 0790 22       		.uleb128 0x22
 5270 0791 23010000 		.4byte	.LASF28
 5271 0795 01       		.byte	0x1
 5272 0796 A603     		.2byte	0x3a6
 5273 0798 25000000 		.4byte	0x25
 5274 079c 00000000 		.4byte	.LFB9
 5275 07a0 8E000000 		.4byte	.LFE9-.LFB9
 5276 07a4 01       		.uleb128 0x1
 5277 07a5 9C       		.byte	0x9c
 5278 07a6 47080000 		.4byte	0x847
 5279 07aa 23       		.uleb128 0x23
 5280 07ab 63747800 		.ascii	"ctx\000"
 5281 07af 01       		.byte	0x1
 5282 07b0 A603     		.2byte	0x3a6
 5283 07b2 4E010000 		.4byte	0x14e
 5284 07b6 FB190000 		.4byte	.LLST57
 5285 07ba 24       		.uleb128 0x24
 5286 07bb B7030000 		.4byte	.LASF17
 5287 07bf 01       		.byte	0x1
 5288 07c0 A703     		.2byte	0x3a7
 5289 07c2 25000000 		.4byte	0x25
 5290 07c6 321A0000 		.4byte	.LLST58
 5291 07ca 24       		.uleb128 0x24
 5292 07cb AB030000 		.4byte	.LASF18
 5293 07cf 01       		.byte	0x1
 5294 07d0 A803     		.2byte	0x3a8
 5295 07d2 2C000000 		.4byte	0x2c
 5296 07d6 5B1A0000 		.4byte	.LLST59
 5297 07da 23       		.uleb128 0x23
 5298 07db 697600   		.ascii	"iv\000"
 5299 07de 01       		.byte	0x1
 5300 07df A903     		.2byte	0x3a9
 5301 07e1 8A000000 		.4byte	0x8a
 5302 07e5 AD1A0000 		.4byte	.LLST60
 5303 07e9 24       		.uleb128 0x24
 5304 07ea 9C030000 		.4byte	.LASF19
 5305 07ee 01       		.byte	0x1
 5306 07ef AA03     		.2byte	0x3aa
 5307 07f1 DD010000 		.4byte	0x1dd
 5308 07f5 D61A0000 		.4byte	.LLST61
 5309 07f9 24       		.uleb128 0x24
 5310 07fa BF020000 		.4byte	.LASF20
 5311 07fe 01       		.byte	0x1
 5312 07ff AB03     		.2byte	0x3ab
 5313 0801 8A000000 		.4byte	0x8a
 5314 0805 2E1B0000 		.4byte	.LLST62
 5315 0809 18       		.uleb128 0x18
 5316 080a 6300     		.ascii	"c\000"
 5317 080c 01       		.byte	0x1
 5318 080d AD03     		.2byte	0x3ad
ARM GAS  C:\Users\jo\AppData\Local\Temp\cc8AA3HA.s 			page 96


 5319 080f 45000000 		.4byte	0x45
 5320 0813 8A1B0000 		.4byte	.LLST63
 5321 0817 19       		.uleb128 0x19
 5322 0818 6F7600   		.ascii	"ov\000"
 5323 081b 01       		.byte	0x1
 5324 081c AE03     		.2byte	0x3ae
 5325 081e 47080000 		.4byte	0x847
 5326 0822 02       		.uleb128 0x2
 5327 0823 91       		.byte	0x91
 5328 0824 4C       		.sleb128 -52
 5329 0825 28       		.uleb128 0x28
 5330 0826 64000000 		.4byte	.LVL239
 5331 082a C2040000 		.4byte	0x4c2
 5332 082e 1D       		.uleb128 0x1d
 5333 082f 01       		.uleb128 0x1
 5334 0830 53       		.byte	0x53
 5335 0831 02       		.uleb128 0x2
 5336 0832 74       		.byte	0x74
 5337 0833 00       		.sleb128 0
 5338 0834 1D       		.uleb128 0x1d
 5339 0835 01       		.uleb128 0x1
 5340 0836 52       		.byte	0x52
 5341 0837 02       		.uleb128 0x2
 5342 0838 74       		.byte	0x74
 5343 0839 00       		.sleb128 0
 5344 083a 1D       		.uleb128 0x1d
 5345 083b 01       		.uleb128 0x1
 5346 083c 51       		.byte	0x51
 5347 083d 01       		.uleb128 0x1
 5348 083e 31       		.byte	0x31
 5349 083f 1D       		.uleb128 0x1d
 5350 0840 01       		.uleb128 0x1
 5351 0841 50       		.byte	0x50
 5352 0842 02       		.uleb128 0x2
 5353 0843 7A       		.byte	0x7a
 5354 0844 00       		.sleb128 0
 5355 0845 00       		.byte	0
 5356 0846 00       		.byte	0
 5357 0847 0A       		.uleb128 0xa
 5358 0848 45000000 		.4byte	0x45
 5359 084c 57080000 		.4byte	0x857
 5360 0850 0B       		.uleb128 0xb
 5361 0851 81000000 		.4byte	0x81
 5362 0855 10       		.byte	0x10
 5363 0856 00       		.byte	0
 5364 0857 22       		.uleb128 0x22
 5365 0858 2C030000 		.4byte	.LASF29
 5366 085c 01       		.byte	0x1
 5367 085d C803     		.2byte	0x3c8
 5368 085f 25000000 		.4byte	0x25
 5369 0863 00000000 		.4byte	.LFB10
 5370 0867 62000000 		.4byte	.LFE10-.LFB10
 5371 086b 01       		.uleb128 0x1
 5372 086c 9C       		.byte	0x9c
 5373 086d 2D090000 		.4byte	0x92d
 5374 0871 23       		.uleb128 0x23
 5375 0872 63747800 		.ascii	"ctx\000"
ARM GAS  C:\Users\jo\AppData\Local\Temp\cc8AA3HA.s 			page 97


 5376 0876 01       		.byte	0x1
 5377 0877 C803     		.2byte	0x3c8
 5378 0879 4E010000 		.4byte	0x14e
 5379 087d 9D1B0000 		.4byte	.LLST64
 5380 0881 24       		.uleb128 0x24
 5381 0882 AB030000 		.4byte	.LASF18
 5382 0886 01       		.byte	0x1
 5383 0887 C903     		.2byte	0x3c9
 5384 0889 2C000000 		.4byte	0x2c
 5385 088d D41B0000 		.4byte	.LLST65
 5386 0891 24       		.uleb128 0x24
 5387 0892 4E000000 		.4byte	.LASF30
 5388 0896 01       		.byte	0x1
 5389 0897 CA03     		.2byte	0x3ca
 5390 0899 8A070000 		.4byte	0x78a
 5391 089d 191C0000 		.4byte	.LLST66
 5392 08a1 24       		.uleb128 0x24
 5393 08a2 EB020000 		.4byte	.LASF31
 5394 08a6 01       		.byte	0x1
 5395 08a7 CB03     		.2byte	0x3cb
 5396 08a9 8A000000 		.4byte	0x8a
 5397 08ad 371C0000 		.4byte	.LLST67
 5398 08b1 24       		.uleb128 0x24
 5399 08b2 2A000000 		.4byte	.LASF32
 5400 08b6 01       		.byte	0x1
 5401 08b7 CC03     		.2byte	0x3cc
 5402 08b9 8A000000 		.4byte	0x8a
 5403 08bd 6E1C0000 		.4byte	.LLST68
 5404 08c1 24       		.uleb128 0x24
 5405 08c2 9C030000 		.4byte	.LASF19
 5406 08c6 01       		.byte	0x1
 5407 08c7 CD03     		.2byte	0x3cd
 5408 08c9 DD010000 		.4byte	0x1dd
 5409 08cd 8E1C0000 		.4byte	.LLST69
 5410 08d1 24       		.uleb128 0x24
 5411 08d2 BF020000 		.4byte	.LASF20
 5412 08d6 01       		.byte	0x1
 5413 08d7 CE03     		.2byte	0x3ce
 5414 08d9 8A000000 		.4byte	0x8a
 5415 08dd C51C0000 		.4byte	.LLST70
 5416 08e1 18       		.uleb128 0x18
 5417 08e2 6300     		.ascii	"c\000"
 5418 08e4 01       		.byte	0x1
 5419 08e5 D003     		.2byte	0x3d0
 5420 08e7 25000000 		.4byte	0x25
 5421 08eb E41C0000 		.4byte	.LLST71
 5422 08ef 18       		.uleb128 0x18
 5423 08f0 6900     		.ascii	"i\000"
 5424 08f2 01       		.byte	0x1
 5425 08f3 D003     		.2byte	0x3d0
 5426 08f5 25000000 		.4byte	0x25
 5427 08f9 101D0000 		.4byte	.LLST72
 5428 08fd 18       		.uleb128 0x18
 5429 08fe 6E00     		.ascii	"n\000"
 5430 0900 01       		.byte	0x1
 5431 0901 D103     		.2byte	0x3d1
 5432 0903 2C000000 		.4byte	0x2c
ARM GAS  C:\Users\jo\AppData\Local\Temp\cc8AA3HA.s 			page 98


 5433 0907 341D0000 		.4byte	.LLST73
 5434 090b 28       		.uleb128 0x28
 5435 090c 4A000000 		.4byte	.LVL256
 5436 0910 C2040000 		.4byte	0x4c2
 5437 0914 1D       		.uleb128 0x1d
 5438 0915 01       		.uleb128 0x1
 5439 0916 53       		.byte	0x53
 5440 0917 02       		.uleb128 0x2
 5441 0918 7B       		.byte	0x7b
 5442 0919 00       		.sleb128 0
 5443 091a 1D       		.uleb128 0x1d
 5444 091b 01       		.uleb128 0x1
 5445 091c 52       		.byte	0x52
 5446 091d 02       		.uleb128 0x2
 5447 091e 76       		.byte	0x76
 5448 091f 00       		.sleb128 0
 5449 0920 1D       		.uleb128 0x1d
 5450 0921 01       		.uleb128 0x1
 5451 0922 51       		.byte	0x51
 5452 0923 01       		.uleb128 0x1
 5453 0924 31       		.byte	0x31
 5454 0925 1D       		.uleb128 0x1d
 5455 0926 01       		.uleb128 0x1
 5456 0927 50       		.byte	0x50
 5457 0928 02       		.uleb128 0x2
 5458 0929 79       		.byte	0x79
 5459 092a 00       		.sleb128 0
 5460 092b 00       		.byte	0
 5461 092c 00       		.byte	0
 5462 092d 22       		.uleb128 0x22
 5463 092e DC000000 		.4byte	.LASF33
 5464 0932 01       		.byte	0x1
 5465 0933 9E04     		.2byte	0x49e
 5466 0935 25000000 		.4byte	0x25
 5467 0939 00000000 		.4byte	.LFB11
 5468 093d 78040000 		.4byte	.LFE11-.LFB11
 5469 0941 01       		.uleb128 0x1
 5470 0942 9C       		.byte	0x9c
 5471 0943 04100000 		.4byte	0x1004
 5472 0947 24       		.uleb128 0x24
 5473 0948 CD030000 		.4byte	.LASF34
 5474 094c 01       		.byte	0x1
 5475 094d 9E04     		.2byte	0x49e
 5476 094f 25000000 		.4byte	0x25
 5477 0953 5F1D0000 		.4byte	.LLST74
 5478 0957 18       		.uleb128 0x18
 5479 0958 72657400 		.ascii	"ret\000"
 5480 095c 01       		.byte	0x1
 5481 095d A004     		.2byte	0x4a0
 5482 095f 25000000 		.4byte	0x25
 5483 0963 7D1D0000 		.4byte	.LLST75
 5484 0967 18       		.uleb128 0x18
 5485 0968 6900     		.ascii	"i\000"
 5486 096a 01       		.byte	0x1
 5487 096b A004     		.2byte	0x4a0
 5488 096d 25000000 		.4byte	0x25
 5489 0971 A81D0000 		.4byte	.LLST76
ARM GAS  C:\Users\jo\AppData\Local\Temp\cc8AA3HA.s 			page 99


 5490 0975 18       		.uleb128 0x18
 5491 0976 6A00     		.ascii	"j\000"
 5492 0978 01       		.byte	0x1
 5493 0979 A004     		.2byte	0x4a0
 5494 097b 25000000 		.4byte	0x25
 5495 097f 8B1E0000 		.4byte	.LLST77
 5496 0983 18       		.uleb128 0x18
 5497 0984 7500     		.ascii	"u\000"
 5498 0986 01       		.byte	0x1
 5499 0987 A004     		.2byte	0x4a0
 5500 0989 25000000 		.4byte	0x25
 5501 098d 7E1F0000 		.4byte	.LLST78
 5502 0991 18       		.uleb128 0x18
 5503 0992 7600     		.ascii	"v\000"
 5504 0994 01       		.byte	0x1
 5505 0995 A004     		.2byte	0x4a0
 5506 0997 25000000 		.4byte	0x25
 5507 099b 24200000 		.4byte	.LLST79
 5508 099f 19       		.uleb128 0x19
 5509 09a0 6B657900 		.ascii	"key\000"
 5510 09a4 01       		.byte	0x1
 5511 09a5 A104     		.2byte	0x4a1
 5512 09a7 04100000 		.4byte	0x1004
 5513 09ab 03       		.uleb128 0x3
 5514 09ac 91       		.byte	0x91
 5515 09ad E07C     		.sleb128 -416
 5516 09af 19       		.uleb128 0x19
 5517 09b0 62756600 		.ascii	"buf\000"
 5518 09b4 01       		.byte	0x1
 5519 09b5 A204     		.2byte	0x4a2
 5520 09b7 14100000 		.4byte	0x1014
 5521 09bb 03       		.uleb128 0x3
 5522 09bc 91       		.byte	0x91
 5523 09bd 807D     		.sleb128 -384
 5524 09bf 19       		.uleb128 0x19
 5525 09c0 697600   		.ascii	"iv\000"
 5526 09c3 01       		.byte	0x1
 5527 09c4 A304     		.2byte	0x4a3
 5528 09c6 E8010000 		.4byte	0x1e8
 5529 09ca 03       		.uleb128 0x3
 5530 09cb 91       		.byte	0x91
 5531 09cc A07C     		.sleb128 -480
 5532 09ce 19       		.uleb128 0x19
 5533 09cf 70727600 		.ascii	"prv\000"
 5534 09d3 01       		.byte	0x1
 5535 09d4 A504     		.2byte	0x4a5
 5536 09d6 E8010000 		.4byte	0x1e8
 5537 09da 03       		.uleb128 0x3
 5538 09db 91       		.byte	0x91
 5539 09dc B07C     		.sleb128 -464
 5540 09de 2D       		.uleb128 0x2d
 5541 09df E5030000 		.4byte	.LASF35
 5542 09e3 01       		.byte	0x1
 5543 09e4 A804     		.2byte	0x4a8
 5544 09e6 2C000000 		.4byte	0x2c
 5545 09ea 03       		.uleb128 0x3
 5546 09eb 91       		.byte	0x91
ARM GAS  C:\Users\jo\AppData\Local\Temp\cc8AA3HA.s 			page 100


 5547 09ec 9C7C     		.sleb128 -484
 5548 09ee 18       		.uleb128 0x18
 5549 09ef 6C656E00 		.ascii	"len\000"
 5550 09f3 01       		.byte	0x1
 5551 09f4 AB04     		.2byte	0x4ab
 5552 09f6 25000000 		.4byte	0x25
 5553 09fa 07210000 		.4byte	.LLST80
 5554 09fe 2D       		.uleb128 0x2d
 5555 09ff EB020000 		.4byte	.LASF31
 5556 0a03 01       		.byte	0x1
 5557 0a04 AC04     		.2byte	0x4ac
 5558 0a06 E8010000 		.4byte	0x1e8
 5559 0a0a 03       		.uleb128 0x3
 5560 0a0b 91       		.byte	0x91
 5561 0a0c C07C     		.sleb128 -448
 5562 0a0e 2D       		.uleb128 0x2d
 5563 0a0f 2A000000 		.4byte	.LASF32
 5564 0a13 01       		.byte	0x1
 5565 0a14 AD04     		.2byte	0x4ad
 5566 0a16 E8010000 		.4byte	0x1e8
 5567 0a1a 03       		.uleb128 0x3
 5568 0a1b 91       		.byte	0x91
 5569 0a1c D07C     		.sleb128 -432
 5570 0a1e 19       		.uleb128 0x19
 5571 0a1f 63747800 		.ascii	"ctx\000"
 5572 0a23 01       		.byte	0x1
 5573 0a24 AF04     		.2byte	0x4af
 5574 0a26 EF000000 		.4byte	0xef
 5575 0a2a 03       		.uleb128 0x3
 5576 0a2b 91       		.byte	0x91
 5577 0a2c C07D     		.sleb128 -320
 5578 0a2e 2E       		.uleb128 0x2e
 5579 0a2f 97030000 		.4byte	.LASF62
 5580 0a33 01       		.byte	0x1
 5581 0a34 A405     		.2byte	0x5a4
 5582 0a36 16030000 		.4byte	.L163
 5583 0a3a 2F       		.uleb128 0x2f
 5584 0a3b 34010000 		.4byte	0x134
 5585 0a3f 0A000000 		.4byte	.LBB28
 5586 0a43 00000000 		.4byte	.Ldebug_ranges0+0
 5587 0a47 01       		.byte	0x1
 5588 0a48 B204     		.2byte	0x4b2
 5589 0a4a 760A0000 		.4byte	0xa76
 5590 0a4e 1B       		.uleb128 0x1b
 5591 0a4f 41010000 		.4byte	0x141
 5592 0a53 4B210000 		.4byte	.LLST81
 5593 0a57 28       		.uleb128 0x28
 5594 0a58 26000000 		.4byte	.LVL262
 5595 0a5c BF120000 		.4byte	0x12bf
 5596 0a60 1D       		.uleb128 0x1d
 5597 0a61 01       		.uleb128 0x1
 5598 0a62 52       		.byte	0x52
 5599 0a63 03       		.uleb128 0x3
 5600 0a64 0A       		.byte	0xa
 5601 0a65 1801     		.2byte	0x118
 5602 0a67 1D       		.uleb128 0x1d
 5603 0a68 01       		.uleb128 0x1
ARM GAS  C:\Users\jo\AppData\Local\Temp\cc8AA3HA.s 			page 101


 5604 0a69 51       		.byte	0x51
 5605 0a6a 02       		.uleb128 0x2
 5606 0a6b 76       		.byte	0x76
 5607 0a6c 00       		.sleb128 0
 5608 0a6d 1D       		.uleb128 0x1d
 5609 0a6e 01       		.uleb128 0x1
 5610 0a6f 50       		.byte	0x50
 5611 0a70 03       		.uleb128 0x3
 5612 0a71 91       		.byte	0x91
 5613 0a72 C07D     		.sleb128 -320
 5614 0a74 00       		.byte	0
 5615 0a75 00       		.byte	0
 5616 0a76 30       		.uleb128 0x30
 5617 0a77 18000000 		.4byte	.Ldebug_ranges0+0x18
 5618 0a7b BF0A0000 		.4byte	0xabf
 5619 0a7f 19       		.uleb128 0x19
 5620 0a80 746D7000 		.ascii	"tmp\000"
 5621 0a84 01       		.byte	0x1
 5622 0a85 1105     		.2byte	0x511
 5623 0a87 E8010000 		.4byte	0x1e8
 5624 0a8b 03       		.uleb128 0x3
 5625 0a8c 91       		.byte	0x91
 5626 0a8d D07C     		.sleb128 -432
 5627 0a8f 28       		.uleb128 0x28
 5628 0a90 DA020000 		.4byte	.LVL322
 5629 0a94 6E010000 		.4byte	0x16e
 5630 0a98 1D       		.uleb128 0x1d
 5631 0a99 01       		.uleb128 0x1
 5632 0a9a 53       		.byte	0x53
 5633 0a9b 02       		.uleb128 0x2
 5634 0a9c 77       		.byte	0x77
 5635 0a9d 00       		.sleb128 0
 5636 0a9e 1D       		.uleb128 0x1d
 5637 0a9f 01       		.uleb128 0x1
 5638 0aa0 52       		.byte	0x52
 5639 0aa1 01       		.uleb128 0x1
 5640 0aa2 40       		.byte	0x40
 5641 0aa3 1D       		.uleb128 0x1d
 5642 0aa4 01       		.uleb128 0x1
 5643 0aa5 51       		.byte	0x51
 5644 0aa6 01       		.uleb128 0x1
 5645 0aa7 31       		.byte	0x31
 5646 0aa8 1D       		.uleb128 0x1d
 5647 0aa9 01       		.uleb128 0x1
 5648 0aaa 50       		.byte	0x50
 5649 0aab 03       		.uleb128 0x3
 5650 0aac 91       		.byte	0x91
 5651 0aad C07D     		.sleb128 -320
 5652 0aaf 1D       		.uleb128 0x1d
 5653 0ab0 02       		.uleb128 0x2
 5654 0ab1 7D       		.byte	0x7d
 5655 0ab2 04       		.sleb128 4
 5656 0ab3 02       		.uleb128 0x2
 5657 0ab4 74       		.byte	0x74
 5658 0ab5 00       		.sleb128 0
 5659 0ab6 1D       		.uleb128 0x1d
 5660 0ab7 02       		.uleb128 0x2
ARM GAS  C:\Users\jo\AppData\Local\Temp\cc8AA3HA.s 			page 102


 5661 0ab8 7D       		.byte	0x7d
 5662 0ab9 00       		.sleb128 0
 5663 0aba 02       		.uleb128 0x2
 5664 0abb 74       		.byte	0x74
 5665 0abc 00       		.sleb128 0
 5666 0abd 00       		.byte	0
 5667 0abe 00       		.byte	0
 5668 0abf 27       		.uleb128 0x27
 5669 0ac0 54010000 		.4byte	0x154
 5670 0ac4 18030000 		.4byte	.LBB34
 5671 0ac8 0C000000 		.4byte	.LBE34-.LBB34
 5672 0acc 01       		.byte	0x1
 5673 0acd A505     		.2byte	0x5a5
 5674 0acf 0F0B0000 		.4byte	0xb0f
 5675 0ad3 1B       		.uleb128 0x1b
 5676 0ad4 61010000 		.4byte	0x161
 5677 0ad8 E3220000 		.4byte	.LLST82
 5678 0adc 1E       		.uleb128 0x1e
 5679 0add 01010000 		.4byte	0x101
 5680 0ae1 18030000 		.4byte	.LBB35
 5681 0ae5 0C000000 		.4byte	.LBE35-.LBB35
 5682 0ae9 01       		.byte	0x1
 5683 0aea DE01     		.2byte	0x1de
 5684 0aec 1B       		.uleb128 0x1b
 5685 0aed 16010000 		.4byte	0x116
 5686 0af1 12230000 		.4byte	.LLST83
 5687 0af5 1F       		.uleb128 0x1f
 5688 0af6 0D010000 		.4byte	0x10d
 5689 0afa 20       		.uleb128 0x20
 5690 0afb 18030000 		.4byte	.LBB36
 5691 0aff 0C000000 		.4byte	.LBE36-.LBB36
 5692 0b03 21       		.uleb128 0x21
 5693 0b04 1F010000 		.4byte	0x11f
 5694 0b08 61230000 		.4byte	.LLST84
 5695 0b0c 00       		.byte	0
 5696 0b0d 00       		.byte	0
 5697 0b0e 00       		.byte	0
 5698 0b0f 2C       		.uleb128 0x2c
 5699 0b10 52000000 		.4byte	.LVL266
 5700 0b14 DC120000 		.4byte	0x12dc
 5701 0b18 3D0B0000 		.4byte	0xb3d
 5702 0b1c 1D       		.uleb128 0x1d
 5703 0b1d 01       		.uleb128 0x1
 5704 0b1e 52       		.byte	0x52
 5705 0b1f 0D       		.uleb128 0xd
 5706 0b20 79       		.byte	0x79
 5707 0b21 00       		.sleb128 0
 5708 0b22 78       		.byte	0x78
 5709 0b23 00       		.sleb128 0
 5710 0b24 7A       		.byte	0x7a
 5711 0b25 00       		.sleb128 0
 5712 0b26 30       		.byte	0x30
 5713 0b27 29       		.byte	0x29
 5714 0b28 28       		.byte	0x28
 5715 0b29 0100     		.2byte	0x1
 5716 0b2b 16       		.byte	0x16
 5717 0b2c 13       		.byte	0x13
ARM GAS  C:\Users\jo\AppData\Local\Temp\cc8AA3HA.s 			page 103


 5718 0b2d 1D       		.uleb128 0x1d
 5719 0b2e 01       		.uleb128 0x1
 5720 0b2f 51       		.byte	0x51
 5721 0b30 02       		.uleb128 0x2
 5722 0b31 75       		.byte	0x75
 5723 0b32 00       		.sleb128 0
 5724 0b33 1D       		.uleb128 0x1d
 5725 0b34 01       		.uleb128 0x1
 5726 0b35 50       		.byte	0x50
 5727 0b36 05       		.uleb128 0x5
 5728 0b37 03       		.byte	0x3
 5729 0b38 08000000 		.4byte	.LC2
 5730 0b3c 00       		.byte	0
 5731 0b3d 2C       		.uleb128 0x2c
 5732 0b3e 6E000000 		.4byte	.LVL268
 5733 0b42 71030000 		.4byte	0x371
 5734 0b46 5F0B0000 		.4byte	0xb5f
 5735 0b4a 1D       		.uleb128 0x1d
 5736 0b4b 01       		.uleb128 0x1
 5737 0b4c 52       		.byte	0x52
 5738 0b4d 02       		.uleb128 0x2
 5739 0b4e 75       		.byte	0x75
 5740 0b4f 00       		.sleb128 0
 5741 0b50 1D       		.uleb128 0x1d
 5742 0b51 01       		.uleb128 0x1
 5743 0b52 51       		.byte	0x51
 5744 0b53 03       		.uleb128 0x3
 5745 0b54 91       		.byte	0x91
 5746 0b55 E07C     		.sleb128 -416
 5747 0b57 1D       		.uleb128 0x1d
 5748 0b58 01       		.uleb128 0x1
 5749 0b59 50       		.byte	0x50
 5750 0b5a 03       		.uleb128 0x3
 5751 0b5b 91       		.byte	0x91
 5752 0b5c C07D     		.sleb128 -320
 5753 0b5e 00       		.byte	0
 5754 0b5f 2C       		.uleb128 0x2c
 5755 0b60 7E000000 		.4byte	.LVL271
 5756 0b64 C2040000 		.4byte	0x4c2
 5757 0b68 850B0000 		.4byte	0xb85
 5758 0b6c 1D       		.uleb128 0x1d
 5759 0b6d 01       		.uleb128 0x1
 5760 0b6e 53       		.byte	0x53
 5761 0b6f 02       		.uleb128 0x2
 5762 0b70 74       		.byte	0x74
 5763 0b71 00       		.sleb128 0
 5764 0b72 1D       		.uleb128 0x1d
 5765 0b73 01       		.uleb128 0x1
 5766 0b74 52       		.byte	0x52
 5767 0b75 02       		.uleb128 0x2
 5768 0b76 74       		.byte	0x74
 5769 0b77 00       		.sleb128 0
 5770 0b78 1D       		.uleb128 0x1d
 5771 0b79 01       		.uleb128 0x1
 5772 0b7a 51       		.byte	0x51
 5773 0b7b 01       		.uleb128 0x1
 5774 0b7c 30       		.byte	0x30
ARM GAS  C:\Users\jo\AppData\Local\Temp\cc8AA3HA.s 			page 104


 5775 0b7d 1D       		.uleb128 0x1d
 5776 0b7e 01       		.uleb128 0x1
 5777 0b7f 50       		.byte	0x50
 5778 0b80 03       		.uleb128 0x3
 5779 0b81 91       		.byte	0x91
 5780 0b82 C07D     		.sleb128 -320
 5781 0b84 00       		.byte	0
 5782 0b85 2C       		.uleb128 0x2c
 5783 0b86 90000000 		.4byte	.LVL274
 5784 0b8a F2120000 		.4byte	0x12f2
 5785 0b8e 9E0B0000 		.4byte	0xb9e
 5786 0b92 1D       		.uleb128 0x1d
 5787 0b93 01       		.uleb128 0x1
 5788 0b94 52       		.byte	0x52
 5789 0b95 01       		.uleb128 0x1
 5790 0b96 40       		.byte	0x40
 5791 0b97 1D       		.uleb128 0x1d
 5792 0b98 01       		.uleb128 0x1
 5793 0b99 50       		.byte	0x50
 5794 0b9a 02       		.uleb128 0x2
 5795 0b9b 74       		.byte	0x74
 5796 0b9c 00       		.sleb128 0
 5797 0b9d 00       		.byte	0
 5798 0b9e 2C       		.uleb128 0x2c
 5799 0b9f DC000000 		.4byte	.LVL281
 5800 0ba3 DC120000 		.4byte	0x12dc
 5801 0ba7 D20B0000 		.4byte	0xbd2
 5802 0bab 1D       		.uleb128 0x1d
 5803 0bac 01       		.uleb128 0x1
 5804 0bad 52       		.byte	0x52
 5805 0bae 13       		.uleb128 0x13
 5806 0baf 03       		.byte	0x3
 5807 0bb0 00000000 		.4byte	.LC0
 5808 0bb4 03       		.byte	0x3
 5809 0bb5 04000000 		.4byte	.LC1
 5810 0bb9 79       		.byte	0x79
 5811 0bba 00       		.sleb128 0
 5812 0bbb 30       		.byte	0x30
 5813 0bbc 29       		.byte	0x29
 5814 0bbd 28       		.byte	0x28
 5815 0bbe 0100     		.2byte	0x1
 5816 0bc0 16       		.byte	0x16
 5817 0bc1 13       		.byte	0x13
 5818 0bc2 1D       		.uleb128 0x1d
 5819 0bc3 01       		.uleb128 0x1
 5820 0bc4 51       		.byte	0x51
 5821 0bc5 02       		.uleb128 0x2
 5822 0bc6 76       		.byte	0x76
 5823 0bc7 00       		.sleb128 0
 5824 0bc8 1D       		.uleb128 0x1d
 5825 0bc9 01       		.uleb128 0x1
 5826 0bca 50       		.byte	0x50
 5827 0bcb 05       		.uleb128 0x5
 5828 0bcc 03       		.byte	0x3
 5829 0bcd 30000000 		.4byte	.LC5
 5830 0bd1 00       		.byte	0
 5831 0bd2 2C       		.uleb128 0x2c
ARM GAS  C:\Users\jo\AppData\Local\Temp\cc8AA3HA.s 			page 105


 5832 0bd3 08010000 		.4byte	.LVL283
 5833 0bd7 71030000 		.4byte	0x371
 5834 0bdb F40B0000 		.4byte	0xbf4
 5835 0bdf 1D       		.uleb128 0x1d
 5836 0be0 01       		.uleb128 0x1
 5837 0be1 52       		.byte	0x52
 5838 0be2 02       		.uleb128 0x2
 5839 0be3 76       		.byte	0x76
 5840 0be4 00       		.sleb128 0
 5841 0be5 1D       		.uleb128 0x1d
 5842 0be6 01       		.uleb128 0x1
 5843 0be7 51       		.byte	0x51
 5844 0be8 03       		.uleb128 0x3
 5845 0be9 91       		.byte	0x91
 5846 0bea E07C     		.sleb128 -416
 5847 0bec 1D       		.uleb128 0x1d
 5848 0bed 01       		.uleb128 0x1
 5849 0bee 50       		.byte	0x50
 5850 0bef 03       		.uleb128 0x3
 5851 0bf0 91       		.byte	0x91
 5852 0bf1 C07D     		.sleb128 -320
 5853 0bf3 00       		.byte	0
 5854 0bf4 2C       		.uleb128 0x2c
 5855 0bf5 1C010000 		.4byte	.LVL286
 5856 0bf9 6E010000 		.4byte	0x16e
 5857 0bfd 270C0000 		.4byte	0xc27
 5858 0c01 1D       		.uleb128 0x1d
 5859 0c02 01       		.uleb128 0x1
 5860 0c03 53       		.byte	0x53
 5861 0c04 02       		.uleb128 0x2
 5862 0c05 77       		.byte	0x77
 5863 0c06 00       		.sleb128 0
 5864 0c07 1D       		.uleb128 0x1d
 5865 0c08 01       		.uleb128 0x1
 5866 0c09 52       		.byte	0x52
 5867 0c0a 01       		.uleb128 0x1
 5868 0c0b 40       		.byte	0x40
 5869 0c0c 1D       		.uleb128 0x1d
 5870 0c0d 01       		.uleb128 0x1
 5871 0c0e 51       		.byte	0x51
 5872 0c0f 01       		.uleb128 0x1
 5873 0c10 30       		.byte	0x30
 5874 0c11 1D       		.uleb128 0x1d
 5875 0c12 01       		.uleb128 0x1
 5876 0c13 50       		.byte	0x50
 5877 0c14 03       		.uleb128 0x3
 5878 0c15 91       		.byte	0x91
 5879 0c16 C07D     		.sleb128 -320
 5880 0c18 1D       		.uleb128 0x1d
 5881 0c19 02       		.uleb128 0x2
 5882 0c1a 7D       		.byte	0x7d
 5883 0c1b 04       		.sleb128 4
 5884 0c1c 02       		.uleb128 0x2
 5885 0c1d 74       		.byte	0x74
 5886 0c1e 00       		.sleb128 0
 5887 0c1f 1D       		.uleb128 0x1d
 5888 0c20 02       		.uleb128 0x2
ARM GAS  C:\Users\jo\AppData\Local\Temp\cc8AA3HA.s 			page 106


 5889 0c21 7D       		.byte	0x7d
 5890 0c22 00       		.sleb128 0
 5891 0c23 02       		.uleb128 0x2
 5892 0c24 74       		.byte	0x74
 5893 0c25 00       		.sleb128 0
 5894 0c26 00       		.byte	0
 5895 0c27 2C       		.uleb128 0x2c
 5896 0c28 2E010000 		.4byte	.LVL288
 5897 0c2c F2120000 		.4byte	0x12f2
 5898 0c30 4E0C0000 		.4byte	0xc4e
 5899 0c34 1D       		.uleb128 0x1d
 5900 0c35 01       		.uleb128 0x1
 5901 0c36 52       		.byte	0x52
 5902 0c37 01       		.uleb128 0x1
 5903 0c38 40       		.byte	0x40
 5904 0c39 1D       		.uleb128 0x1d
 5905 0c3a 01       		.uleb128 0x1
 5906 0c3b 51       		.byte	0x51
 5907 0c3c 0A       		.uleb128 0xa
 5908 0c3d 7A       		.byte	0x7a
 5909 0c3e 00       		.sleb128 0
 5910 0c3f 34       		.byte	0x34
 5911 0c40 24       		.byte	0x24
 5912 0c41 03       		.byte	0x3
 5913 0c42 00000000 		.4byte	.LANCHOR14
 5914 0c46 22       		.byte	0x22
 5915 0c47 1D       		.uleb128 0x1d
 5916 0c48 01       		.uleb128 0x1
 5917 0c49 50       		.byte	0x50
 5918 0c4a 02       		.uleb128 0x2
 5919 0c4b 74       		.byte	0x74
 5920 0c4c 00       		.sleb128 0
 5921 0c4d 00       		.byte	0
 5922 0c4e 2C       		.uleb128 0x2c
 5923 0c4f 7A010000 		.4byte	.LVL295
 5924 0c53 DC120000 		.4byte	0x12dc
 5925 0c57 820C0000 		.4byte	0xc82
 5926 0c5b 1D       		.uleb128 0x1d
 5927 0c5c 01       		.uleb128 0x1
 5928 0c5d 52       		.byte	0x52
 5929 0c5e 13       		.uleb128 0x13
 5930 0c5f 03       		.byte	0x3
 5931 0c60 00000000 		.4byte	.LC0
 5932 0c64 03       		.byte	0x3
 5933 0c65 04000000 		.4byte	.LC1
 5934 0c69 7A       		.byte	0x7a
 5935 0c6a 00       		.sleb128 0
 5936 0c6b 30       		.byte	0x30
 5937 0c6c 29       		.byte	0x29
 5938 0c6d 28       		.byte	0x28
 5939 0c6e 0100     		.2byte	0x1
 5940 0c70 16       		.byte	0x16
 5941 0c71 13       		.byte	0x13
 5942 0c72 1D       		.uleb128 0x1d
 5943 0c73 01       		.uleb128 0x1
 5944 0c74 51       		.byte	0x51
 5945 0c75 02       		.uleb128 0x2
ARM GAS  C:\Users\jo\AppData\Local\Temp\cc8AA3HA.s 			page 107


 5946 0c76 76       		.byte	0x76
 5947 0c77 00       		.sleb128 0
 5948 0c78 1D       		.uleb128 0x1d
 5949 0c79 01       		.uleb128 0x1
 5950 0c7a 50       		.byte	0x50
 5951 0c7b 05       		.uleb128 0x5
 5952 0c7c 03       		.byte	0x3
 5953 0c7d 48000000 		.4byte	.LC6
 5954 0c81 00       		.byte	0
 5955 0c82 2C       		.uleb128 0x2c
 5956 0c83 90010000 		.4byte	.LVL296
 5957 0c87 11130000 		.4byte	0x1311
 5958 0c8b AD0C0000 		.4byte	0xcad
 5959 0c8f 1D       		.uleb128 0x1d
 5960 0c90 01       		.uleb128 0x1
 5961 0c91 52       		.byte	0x52
 5962 0c92 04       		.uleb128 0x4
 5963 0c93 75       		.byte	0x75
 5964 0c94 00       		.sleb128 0
 5965 0c95 33       		.byte	0x33
 5966 0c96 24       		.byte	0x24
 5967 0c97 1D       		.uleb128 0x1d
 5968 0c98 01       		.uleb128 0x1
 5969 0c99 51       		.byte	0x51
 5970 0c9a 0A       		.uleb128 0xa
 5971 0c9b 79       		.byte	0x79
 5972 0c9c 00       		.sleb128 0
 5973 0c9d 35       		.byte	0x35
 5974 0c9e 24       		.byte	0x24
 5975 0c9f 03       		.byte	0x3
 5976 0ca0 00000000 		.4byte	.LANCHOR17
 5977 0ca4 22       		.byte	0x22
 5978 0ca5 1D       		.uleb128 0x1d
 5979 0ca6 01       		.uleb128 0x1
 5980 0ca7 50       		.byte	0x50
 5981 0ca8 03       		.uleb128 0x3
 5982 0ca9 91       		.byte	0x91
 5983 0caa E07C     		.sleb128 -416
 5984 0cac 00       		.byte	0
 5985 0cad 2C       		.uleb128 0x2c
 5986 0cae 9E010000 		.4byte	.LVL298
 5987 0cb2 00030000 		.4byte	0x300
 5988 0cb6 CF0C0000 		.4byte	0xccf
 5989 0cba 1D       		.uleb128 0x1d
 5990 0cbb 01       		.uleb128 0x1
 5991 0cbc 52       		.byte	0x52
 5992 0cbd 02       		.uleb128 0x2
 5993 0cbe 76       		.byte	0x76
 5994 0cbf 00       		.sleb128 0
 5995 0cc0 1D       		.uleb128 0x1d
 5996 0cc1 01       		.uleb128 0x1
 5997 0cc2 51       		.byte	0x51
 5998 0cc3 03       		.uleb128 0x3
 5999 0cc4 91       		.byte	0x91
 6000 0cc5 E07C     		.sleb128 -416
 6001 0cc7 1D       		.uleb128 0x1d
 6002 0cc8 01       		.uleb128 0x1
ARM GAS  C:\Users\jo\AppData\Local\Temp\cc8AA3HA.s 			page 108


 6003 0cc9 50       		.byte	0x50
 6004 0cca 03       		.uleb128 0x3
 6005 0ccb 91       		.byte	0x91
 6006 0ccc C07D     		.sleb128 -320
 6007 0cce 00       		.byte	0
 6008 0ccf 2C       		.uleb128 0x2c
 6009 0cd0 E8010000 		.4byte	.LVL301
 6010 0cd4 A0060000 		.4byte	0x6a0
 6011 0cd8 050D0000 		.4byte	0xd05
 6012 0cdc 1D       		.uleb128 0x1d
 6013 0cdd 01       		.uleb128 0x1
 6014 0cde 53       		.byte	0x53
 6015 0cdf 03       		.uleb128 0x3
 6016 0ce0 91       		.byte	0x91
 6017 0ce1 9C7C     		.sleb128 -484
 6018 0ce3 1D       		.uleb128 0x1d
 6019 0ce4 01       		.uleb128 0x1
 6020 0ce5 52       		.byte	0x52
 6021 0ce6 02       		.uleb128 0x2
 6022 0ce7 08       		.byte	0x8
 6023 0ce8 40       		.byte	0x40
 6024 0ce9 1D       		.uleb128 0x1d
 6025 0cea 01       		.uleb128 0x1
 6026 0ceb 51       		.byte	0x51
 6027 0cec 02       		.uleb128 0x2
 6028 0ced 7A       		.byte	0x7a
 6029 0cee 00       		.sleb128 0
 6030 0cef 1D       		.uleb128 0x1d
 6031 0cf0 01       		.uleb128 0x1
 6032 0cf1 50       		.byte	0x50
 6033 0cf2 03       		.uleb128 0x3
 6034 0cf3 91       		.byte	0x91
 6035 0cf4 C07D     		.sleb128 -320
 6036 0cf6 1D       		.uleb128 0x1d
 6037 0cf7 02       		.uleb128 0x2
 6038 0cf8 7D       		.byte	0x7d
 6039 0cf9 08       		.sleb128 8
 6040 0cfa 02       		.uleb128 0x2
 6041 0cfb 74       		.byte	0x74
 6042 0cfc 00       		.sleb128 0
 6043 0cfd 1D       		.uleb128 0x1d
 6044 0cfe 02       		.uleb128 0x2
 6045 0cff 7D       		.byte	0x7d
 6046 0d00 04       		.sleb128 4
 6047 0d01 02       		.uleb128 0x2
 6048 0d02 74       		.byte	0x74
 6049 0d03 00       		.sleb128 0
 6050 0d04 00       		.byte	0
 6051 0d05 2C       		.uleb128 0x2c
 6052 0d06 F2010000 		.4byte	.LVL302
 6053 0d0a F2120000 		.4byte	0x12f2
 6054 0d0e 250D0000 		.4byte	0xd25
 6055 0d12 1D       		.uleb128 0x1d
 6056 0d13 01       		.uleb128 0x1
 6057 0d14 52       		.byte	0x52
 6058 0d15 02       		.uleb128 0x2
 6059 0d16 08       		.byte	0x8
ARM GAS  C:\Users\jo\AppData\Local\Temp\cc8AA3HA.s 			page 109


 6060 0d17 40       		.byte	0x40
 6061 0d18 1D       		.uleb128 0x1d
 6062 0d19 01       		.uleb128 0x1
 6063 0d1a 51       		.byte	0x51
 6064 0d1b 02       		.uleb128 0x2
 6065 0d1c 76       		.byte	0x76
 6066 0d1d 00       		.sleb128 0
 6067 0d1e 1D       		.uleb128 0x1d
 6068 0d1f 01       		.uleb128 0x1
 6069 0d20 50       		.byte	0x50
 6070 0d21 02       		.uleb128 0x2
 6071 0d22 74       		.byte	0x74
 6072 0d23 00       		.sleb128 0
 6073 0d24 00       		.byte	0
 6074 0d25 2C       		.uleb128 0x2c
 6075 0d26 38020000 		.4byte	.LVL308
 6076 0d2a DC120000 		.4byte	0x12dc
 6077 0d2e 530D0000 		.4byte	0xd53
 6078 0d32 1D       		.uleb128 0x1d
 6079 0d33 01       		.uleb128 0x1
 6080 0d34 51       		.byte	0x51
 6081 0d35 13       		.uleb128 0x13
 6082 0d36 03       		.byte	0x3
 6083 0d37 00000000 		.4byte	.LC0
 6084 0d3b 03       		.byte	0x3
 6085 0d3c 04000000 		.4byte	.LC1
 6086 0d40 76       		.byte	0x76
 6087 0d41 00       		.sleb128 0
 6088 0d42 30       		.byte	0x30
 6089 0d43 29       		.byte	0x29
 6090 0d44 28       		.byte	0x28
 6091 0d45 0100     		.2byte	0x1
 6092 0d47 16       		.byte	0x16
 6093 0d48 13       		.byte	0x13
 6094 0d49 1D       		.uleb128 0x1d
 6095 0d4a 01       		.uleb128 0x1
 6096 0d4b 50       		.byte	0x50
 6097 0d4c 05       		.uleb128 0x5
 6098 0d4d 03       		.byte	0x3
 6099 0d4e 60000000 		.4byte	.LC7
 6100 0d52 00       		.byte	0
 6101 0d53 2C       		.uleb128 0x2c
 6102 0d54 64020000 		.4byte	.LVL310
 6103 0d58 00030000 		.4byte	0x300
 6104 0d5c 740D0000 		.4byte	0xd74
 6105 0d60 1D       		.uleb128 0x1d
 6106 0d61 01       		.uleb128 0x1
 6107 0d62 52       		.byte	0x52
 6108 0d63 02       		.uleb128 0x2
 6109 0d64 08       		.byte	0x8
 6110 0d65 80       		.byte	0x80
 6111 0d66 1D       		.uleb128 0x1d
 6112 0d67 01       		.uleb128 0x1
 6113 0d68 51       		.byte	0x51
 6114 0d69 02       		.uleb128 0x2
 6115 0d6a 77       		.byte	0x77
 6116 0d6b 00       		.sleb128 0
ARM GAS  C:\Users\jo\AppData\Local\Temp\cc8AA3HA.s 			page 110


 6117 0d6c 1D       		.uleb128 0x1d
 6118 0d6d 01       		.uleb128 0x1
 6119 0d6e 50       		.byte	0x50
 6120 0d6f 03       		.uleb128 0x3
 6121 0d70 91       		.byte	0x91
 6122 0d71 C07D     		.sleb128 -320
 6123 0d73 00       		.byte	0
 6124 0d74 2C       		.uleb128 0x2c
 6125 0d75 84020000 		.4byte	.LVL312
 6126 0d79 11130000 		.4byte	0x1311
 6127 0d7d 9A0D0000 		.4byte	0xd9a
 6128 0d81 1D       		.uleb128 0x1d
 6129 0d82 01       		.uleb128 0x1
 6130 0d83 52       		.byte	0x52
 6131 0d84 02       		.uleb128 0x2
 6132 0d85 76       		.byte	0x76
 6133 0d86 00       		.sleb128 0
 6134 0d87 1D       		.uleb128 0x1d
 6135 0d88 01       		.uleb128 0x1
 6136 0d89 51       		.byte	0x51
 6137 0d8a 08       		.uleb128 0x8
 6138 0d8b 75       		.byte	0x75
 6139 0d8c 00       		.sleb128 0
 6140 0d8d 03       		.byte	0x3
 6141 0d8e 00000000 		.4byte	.LANCHOR23
 6142 0d92 22       		.byte	0x22
 6143 0d93 1D       		.uleb128 0x1d
 6144 0d94 01       		.uleb128 0x1
 6145 0d95 50       		.byte	0x50
 6146 0d96 02       		.uleb128 0x2
 6147 0d97 74       		.byte	0x74
 6148 0d98 00       		.sleb128 0
 6149 0d99 00       		.byte	0
 6150 0d9a 2C       		.uleb128 0x2c
 6151 0d9b 98020000 		.4byte	.LVL314
 6152 0d9f 57080000 		.4byte	0x857
 6153 0da3 DA0D0000 		.4byte	0xdda
 6154 0da7 1D       		.uleb128 0x1d
 6155 0da8 01       		.uleb128 0x1
 6156 0da9 53       		.byte	0x53
 6157 0daa 03       		.uleb128 0x3
 6158 0dab 91       		.byte	0x91
 6159 0dac C07C     		.sleb128 -448
 6160 0dae 1D       		.uleb128 0x1d
 6161 0daf 01       		.uleb128 0x1
 6162 0db0 52       		.byte	0x52
 6163 0db1 03       		.uleb128 0x3
 6164 0db2 91       		.byte	0x91
 6165 0db3 9C7C     		.sleb128 -484
 6166 0db5 1D       		.uleb128 0x1d
 6167 0db6 01       		.uleb128 0x1
 6168 0db7 51       		.byte	0x51
 6169 0db8 02       		.uleb128 0x2
 6170 0db9 76       		.byte	0x76
 6171 0dba 00       		.sleb128 0
 6172 0dbb 1D       		.uleb128 0x1d
 6173 0dbc 01       		.uleb128 0x1
ARM GAS  C:\Users\jo\AppData\Local\Temp\cc8AA3HA.s 			page 111


 6174 0dbd 50       		.byte	0x50
 6175 0dbe 03       		.uleb128 0x3
 6176 0dbf 91       		.byte	0x91
 6177 0dc0 C07D     		.sleb128 -320
 6178 0dc2 1D       		.uleb128 0x1d
 6179 0dc3 02       		.uleb128 0x2
 6180 0dc4 7D       		.byte	0x7d
 6181 0dc5 08       		.sleb128 8
 6182 0dc6 02       		.uleb128 0x2
 6183 0dc7 74       		.byte	0x74
 6184 0dc8 00       		.sleb128 0
 6185 0dc9 1D       		.uleb128 0x1d
 6186 0dca 02       		.uleb128 0x2
 6187 0dcb 7D       		.byte	0x7d
 6188 0dcc 04       		.sleb128 4
 6189 0dcd 02       		.uleb128 0x2
 6190 0dce 74       		.byte	0x74
 6191 0dcf 00       		.sleb128 0
 6192 0dd0 1D       		.uleb128 0x1d
 6193 0dd1 02       		.uleb128 0x2
 6194 0dd2 7D       		.byte	0x7d
 6195 0dd3 00       		.sleb128 0
 6196 0dd4 04       		.uleb128 0x4
 6197 0dd5 91       		.byte	0x91
 6198 0dd6 947C     		.sleb128 -492
 6199 0dd8 06       		.byte	0x6
 6200 0dd9 00       		.byte	0
 6201 0dda 2C       		.uleb128 0x2c
 6202 0ddb A4020000 		.4byte	.LVL315
 6203 0ddf F2120000 		.4byte	0x12f2
 6204 0de3 000E0000 		.4byte	0xe00
 6205 0de7 1D       		.uleb128 0x1d
 6206 0de8 01       		.uleb128 0x1
 6207 0de9 52       		.byte	0x52
 6208 0dea 02       		.uleb128 0x2
 6209 0deb 76       		.byte	0x76
 6210 0dec 00       		.sleb128 0
 6211 0ded 1D       		.uleb128 0x1d
 6212 0dee 01       		.uleb128 0x1
 6213 0def 51       		.byte	0x51
 6214 0df0 08       		.uleb128 0x8
 6215 0df1 75       		.byte	0x75
 6216 0df2 00       		.sleb128 0
 6217 0df3 03       		.byte	0x3
 6218 0df4 00000000 		.4byte	.LANCHOR24
 6219 0df8 22       		.byte	0x22
 6220 0df9 1D       		.uleb128 0x1d
 6221 0dfa 01       		.uleb128 0x1
 6222 0dfb 50       		.byte	0x50
 6223 0dfc 02       		.uleb128 0x2
 6224 0dfd 74       		.byte	0x74
 6225 0dfe 00       		.sleb128 0
 6226 0dff 00       		.byte	0
 6227 0e00 25       		.uleb128 0x25
 6228 0e01 C4020000 		.4byte	.LVL318
 6229 0e05 00030000 		.4byte	0x300
 6230 0e09 2C       		.uleb128 0x2c
ARM GAS  C:\Users\jo\AppData\Local\Temp\cc8AA3HA.s 			page 112


 6231 0e0a 06030000 		.4byte	.LVL325
 6232 0e0e F2120000 		.4byte	0x12f2
 6233 0e12 300E0000 		.4byte	0xe30
 6234 0e16 1D       		.uleb128 0x1d
 6235 0e17 01       		.uleb128 0x1
 6236 0e18 52       		.byte	0x52
 6237 0e19 01       		.uleb128 0x1
 6238 0e1a 40       		.byte	0x40
 6239 0e1b 1D       		.uleb128 0x1d
 6240 0e1c 01       		.uleb128 0x1
 6241 0e1d 51       		.byte	0x51
 6242 0e1e 0A       		.uleb128 0xa
 6243 0e1f 7A       		.byte	0x7a
 6244 0e20 00       		.sleb128 0
 6245 0e21 34       		.byte	0x34
 6246 0e22 24       		.byte	0x24
 6247 0e23 03       		.byte	0x3
 6248 0e24 00000000 		.4byte	.LANCHOR15
 6249 0e28 22       		.byte	0x22
 6250 0e29 1D       		.uleb128 0x1d
 6251 0e2a 01       		.uleb128 0x1
 6252 0e2b 50       		.byte	0x50
 6253 0e2c 02       		.uleb128 0x2
 6254 0e2d 75       		.byte	0x75
 6255 0e2e 00       		.sleb128 0
 6256 0e2f 00       		.byte	0
 6257 0e30 25       		.uleb128 0x25
 6258 0e31 2E030000 		.4byte	.LVL333
 6259 0e35 00030000 		.4byte	0x300
 6260 0e39 2C       		.uleb128 0x2c
 6261 0e3a 3E030000 		.4byte	.LVL336
 6262 0e3e C2040000 		.4byte	0x4c2
 6263 0e42 5F0E0000 		.4byte	0xe5f
 6264 0e46 1D       		.uleb128 0x1d
 6265 0e47 01       		.uleb128 0x1
 6266 0e48 53       		.byte	0x53
 6267 0e49 02       		.uleb128 0x2
 6268 0e4a 74       		.byte	0x74
 6269 0e4b 00       		.sleb128 0
 6270 0e4c 1D       		.uleb128 0x1d
 6271 0e4d 01       		.uleb128 0x1
 6272 0e4e 52       		.byte	0x52
 6273 0e4f 02       		.uleb128 0x2
 6274 0e50 74       		.byte	0x74
 6275 0e51 00       		.sleb128 0
 6276 0e52 1D       		.uleb128 0x1d
 6277 0e53 01       		.uleb128 0x1
 6278 0e54 51       		.byte	0x51
 6279 0e55 01       		.uleb128 0x1
 6280 0e56 31       		.byte	0x31
 6281 0e57 1D       		.uleb128 0x1d
 6282 0e58 01       		.uleb128 0x1
 6283 0e59 50       		.byte	0x50
 6284 0e5a 03       		.uleb128 0x3
 6285 0e5b 91       		.byte	0x91
 6286 0e5c C07D     		.sleb128 -320
 6287 0e5e 00       		.byte	0
ARM GAS  C:\Users\jo\AppData\Local\Temp\cc8AA3HA.s 			page 113


 6288 0e5f 2C       		.uleb128 0x2c
 6289 0e60 BA030000 		.4byte	.LVL340
 6290 0e64 A0060000 		.4byte	0x6a0
 6291 0e68 940E0000 		.4byte	0xe94
 6292 0e6c 1D       		.uleb128 0x1d
 6293 0e6d 01       		.uleb128 0x1
 6294 0e6e 53       		.byte	0x53
 6295 0e6f 03       		.uleb128 0x3
 6296 0e70 91       		.byte	0x91
 6297 0e71 9C7C     		.sleb128 -484
 6298 0e73 1D       		.uleb128 0x1d
 6299 0e74 01       		.uleb128 0x1
 6300 0e75 52       		.byte	0x52
 6301 0e76 02       		.uleb128 0x2
 6302 0e77 08       		.byte	0x8
 6303 0e78 40       		.byte	0x40
 6304 0e79 1D       		.uleb128 0x1d
 6305 0e7a 01       		.uleb128 0x1
 6306 0e7b 51       		.byte	0x51
 6307 0e7c 01       		.uleb128 0x1
 6308 0e7d 31       		.byte	0x31
 6309 0e7e 1D       		.uleb128 0x1d
 6310 0e7f 01       		.uleb128 0x1
 6311 0e80 50       		.byte	0x50
 6312 0e81 03       		.uleb128 0x3
 6313 0e82 91       		.byte	0x91
 6314 0e83 C07D     		.sleb128 -320
 6315 0e85 1D       		.uleb128 0x1d
 6316 0e86 02       		.uleb128 0x2
 6317 0e87 7D       		.byte	0x7d
 6318 0e88 08       		.sleb128 8
 6319 0e89 02       		.uleb128 0x2
 6320 0e8a 74       		.byte	0x74
 6321 0e8b 00       		.sleb128 0
 6322 0e8c 1D       		.uleb128 0x1d
 6323 0e8d 02       		.uleb128 0x2
 6324 0e8e 7D       		.byte	0x7d
 6325 0e8f 04       		.sleb128 4
 6326 0e90 02       		.uleb128 0x2
 6327 0e91 74       		.byte	0x74
 6328 0e92 00       		.sleb128 0
 6329 0e93 00       		.byte	0
 6330 0e94 2C       		.uleb128 0x2c
 6331 0e95 C8030000 		.4byte	.LVL341
 6332 0e99 F2120000 		.4byte	0x12f2
 6333 0e9d BC0E0000 		.4byte	0xebc
 6334 0ea1 1D       		.uleb128 0x1d
 6335 0ea2 01       		.uleb128 0x1
 6336 0ea3 52       		.byte	0x52
 6337 0ea4 02       		.uleb128 0x2
 6338 0ea5 08       		.byte	0x8
 6339 0ea6 40       		.byte	0x40
 6340 0ea7 1D       		.uleb128 0x1d
 6341 0ea8 01       		.uleb128 0x1
 6342 0ea9 51       		.byte	0x51
 6343 0eaa 0A       		.uleb128 0xa
 6344 0eab 79       		.byte	0x79
ARM GAS  C:\Users\jo\AppData\Local\Temp\cc8AA3HA.s 			page 114


 6345 0eac 00       		.sleb128 0
 6346 0ead 36       		.byte	0x36
 6347 0eae 24       		.byte	0x24
 6348 0eaf 03       		.byte	0x3
 6349 0eb0 00000000 		.4byte	.LANCHOR18
 6350 0eb4 22       		.byte	0x22
 6351 0eb5 1D       		.uleb128 0x1d
 6352 0eb6 01       		.uleb128 0x1
 6353 0eb7 50       		.byte	0x50
 6354 0eb8 02       		.uleb128 0x2
 6355 0eb9 74       		.byte	0x74
 6356 0eba 00       		.sleb128 0
 6357 0ebb 00       		.byte	0
 6358 0ebc 2C       		.uleb128 0x2c
 6359 0ebd DA030000 		.4byte	.LVL342
 6360 0ec1 2E130000 		.4byte	0x132e
 6361 0ec5 D30E0000 		.4byte	0xed3
 6362 0ec9 1D       		.uleb128 0x1d
 6363 0eca 01       		.uleb128 0x1
 6364 0ecb 50       		.byte	0x50
 6365 0ecc 05       		.uleb128 0x5
 6366 0ecd 03       		.byte	0x3
 6367 0ece 28000000 		.4byte	.LC4
 6368 0ed2 00       		.byte	0
 6369 0ed3 2C       		.uleb128 0x2c
 6370 0ed4 EE030000 		.4byte	.LVL344
 6371 0ed8 11130000 		.4byte	0x1311
 6372 0edc F90E0000 		.4byte	0xef9
 6373 0ee0 1D       		.uleb128 0x1d
 6374 0ee1 01       		.uleb128 0x1
 6375 0ee2 52       		.byte	0x52
 6376 0ee3 02       		.uleb128 0x2
 6377 0ee4 75       		.byte	0x75
 6378 0ee5 00       		.sleb128 0
 6379 0ee6 1D       		.uleb128 0x1d
 6380 0ee7 01       		.uleb128 0x1
 6381 0ee8 51       		.byte	0x51
 6382 0ee9 08       		.uleb128 0x8
 6383 0eea 79       		.byte	0x79
 6384 0eeb 00       		.sleb128 0
 6385 0eec 03       		.byte	0x3
 6386 0eed 00000000 		.4byte	.LANCHOR24
 6387 0ef1 22       		.byte	0x22
 6388 0ef2 1D       		.uleb128 0x1d
 6389 0ef3 01       		.uleb128 0x1
 6390 0ef4 50       		.byte	0x50
 6391 0ef5 02       		.uleb128 0x2
 6392 0ef6 74       		.byte	0x74
 6393 0ef7 00       		.sleb128 0
 6394 0ef8 00       		.byte	0
 6395 0ef9 2C       		.uleb128 0x2c
 6396 0efa 02040000 		.4byte	.LVL346
 6397 0efe 57080000 		.4byte	0x857
 6398 0f02 390F0000 		.4byte	0xf39
 6399 0f06 1D       		.uleb128 0x1d
 6400 0f07 01       		.uleb128 0x1
 6401 0f08 53       		.byte	0x53
ARM GAS  C:\Users\jo\AppData\Local\Temp\cc8AA3HA.s 			page 115


 6402 0f09 03       		.uleb128 0x3
 6403 0f0a 91       		.byte	0x91
 6404 0f0b C07C     		.sleb128 -448
 6405 0f0d 1D       		.uleb128 0x1d
 6406 0f0e 01       		.uleb128 0x1
 6407 0f0f 52       		.byte	0x52
 6408 0f10 03       		.uleb128 0x3
 6409 0f11 91       		.byte	0x91
 6410 0f12 9C7C     		.sleb128 -484
 6411 0f14 1D       		.uleb128 0x1d
 6412 0f15 01       		.uleb128 0x1
 6413 0f16 51       		.byte	0x51
 6414 0f17 02       		.uleb128 0x2
 6415 0f18 75       		.byte	0x75
 6416 0f19 00       		.sleb128 0
 6417 0f1a 1D       		.uleb128 0x1d
 6418 0f1b 01       		.uleb128 0x1
 6419 0f1c 50       		.byte	0x50
 6420 0f1d 03       		.uleb128 0x3
 6421 0f1e 91       		.byte	0x91
 6422 0f1f C07D     		.sleb128 -320
 6423 0f21 1D       		.uleb128 0x1d
 6424 0f22 02       		.uleb128 0x2
 6425 0f23 7D       		.byte	0x7d
 6426 0f24 08       		.sleb128 8
 6427 0f25 02       		.uleb128 0x2
 6428 0f26 74       		.byte	0x74
 6429 0f27 00       		.sleb128 0
 6430 0f28 1D       		.uleb128 0x1d
 6431 0f29 02       		.uleb128 0x2
 6432 0f2a 7D       		.byte	0x7d
 6433 0f2b 04       		.sleb128 4
 6434 0f2c 02       		.uleb128 0x2
 6435 0f2d 74       		.byte	0x74
 6436 0f2e 00       		.sleb128 0
 6437 0f2f 1D       		.uleb128 0x1d
 6438 0f30 02       		.uleb128 0x2
 6439 0f31 7D       		.byte	0x7d
 6440 0f32 00       		.sleb128 0
 6441 0f33 04       		.uleb128 0x4
 6442 0f34 91       		.byte	0x91
 6443 0f35 947C     		.sleb128 -492
 6444 0f37 06       		.byte	0x6
 6445 0f38 00       		.byte	0
 6446 0f39 2C       		.uleb128 0x2c
 6447 0f3a 10040000 		.4byte	.LVL347
 6448 0f3e F2120000 		.4byte	0x12f2
 6449 0f42 5F0F0000 		.4byte	0xf5f
 6450 0f46 1D       		.uleb128 0x1d
 6451 0f47 01       		.uleb128 0x1
 6452 0f48 52       		.byte	0x52
 6453 0f49 02       		.uleb128 0x2
 6454 0f4a 75       		.byte	0x75
 6455 0f4b 00       		.sleb128 0
 6456 0f4c 1D       		.uleb128 0x1d
 6457 0f4d 01       		.uleb128 0x1
 6458 0f4e 51       		.byte	0x51
ARM GAS  C:\Users\jo\AppData\Local\Temp\cc8AA3HA.s 			page 116


 6459 0f4f 08       		.uleb128 0x8
 6460 0f50 79       		.byte	0x79
 6461 0f51 00       		.sleb128 0
 6462 0f52 03       		.byte	0x3
 6463 0f53 00000000 		.4byte	.LANCHOR23
 6464 0f57 22       		.byte	0x22
 6465 0f58 1D       		.uleb128 0x1d
 6466 0f59 01       		.uleb128 0x1
 6467 0f5a 50       		.byte	0x50
 6468 0f5b 02       		.uleb128 0x2
 6469 0f5c 74       		.byte	0x74
 6470 0f5d 00       		.sleb128 0
 6471 0f5e 00       		.byte	0
 6472 0f5f 2C       		.uleb128 0x2c
 6473 0f60 24040000 		.4byte	.LVL349
 6474 0f64 2E130000 		.4byte	0x132e
 6475 0f68 760F0000 		.4byte	0xf76
 6476 0f6c 1D       		.uleb128 0x1d
 6477 0f6d 01       		.uleb128 0x1
 6478 0f6e 50       		.byte	0x50
 6479 0f6f 05       		.uleb128 0x5
 6480 0f70 03       		.byte	0x3
 6481 0f71 28000000 		.4byte	.LC4
 6482 0f75 00       		.byte	0
 6483 0f76 2C       		.uleb128 0x2c
 6484 0f77 2C040000 		.4byte	.LVL351
 6485 0f7b 2E130000 		.4byte	0x132e
 6486 0f7f 8D0F0000 		.4byte	0xf8d
 6487 0f83 1D       		.uleb128 0x1d
 6488 0f84 01       		.uleb128 0x1
 6489 0f85 50       		.byte	0x50
 6490 0f86 05       		.uleb128 0x5
 6491 0f87 03       		.byte	0x3
 6492 0f88 28000000 		.4byte	.LC4
 6493 0f8c 00       		.byte	0
 6494 0f8d 2C       		.uleb128 0x2c
 6495 0f8e 34040000 		.4byte	.LVL353
 6496 0f92 2E130000 		.4byte	0x132e
 6497 0f96 A40F0000 		.4byte	0xfa4
 6498 0f9a 1D       		.uleb128 0x1d
 6499 0f9b 01       		.uleb128 0x1
 6500 0f9c 50       		.byte	0x50
 6501 0f9d 05       		.uleb128 0x5
 6502 0f9e 03       		.byte	0x3
 6503 0f9f 28000000 		.4byte	.LC4
 6504 0fa3 00       		.byte	0
 6505 0fa4 2C       		.uleb128 0x2c
 6506 0fa5 3C040000 		.4byte	.LVL355
 6507 0fa9 47130000 		.4byte	0x1347
 6508 0fad B70F0000 		.4byte	0xfb7
 6509 0fb1 1D       		.uleb128 0x1d
 6510 0fb2 01       		.uleb128 0x1
 6511 0fb3 50       		.byte	0x50
 6512 0fb4 01       		.uleb128 0x1
 6513 0fb5 3A       		.byte	0x3a
 6514 0fb6 00       		.byte	0
 6515 0fb7 2C       		.uleb128 0x2c
ARM GAS  C:\Users\jo\AppData\Local\Temp\cc8AA3HA.s 			page 117


 6516 0fb8 44040000 		.4byte	.LVL357
 6517 0fbc 47130000 		.4byte	0x1347
 6518 0fc0 CA0F0000 		.4byte	0xfca
 6519 0fc4 1D       		.uleb128 0x1d
 6520 0fc5 01       		.uleb128 0x1
 6521 0fc6 50       		.byte	0x50
 6522 0fc7 01       		.uleb128 0x1
 6523 0fc8 3A       		.byte	0x3a
 6524 0fc9 00       		.byte	0
 6525 0fca 2C       		.uleb128 0x2c
 6526 0fcb 4C040000 		.4byte	.LVL359
 6527 0fcf 47130000 		.4byte	0x1347
 6528 0fd3 DD0F0000 		.4byte	0xfdd
 6529 0fd7 1D       		.uleb128 0x1d
 6530 0fd8 01       		.uleb128 0x1
 6531 0fd9 50       		.byte	0x50
 6532 0fda 01       		.uleb128 0x1
 6533 0fdb 3A       		.byte	0x3a
 6534 0fdc 00       		.byte	0
 6535 0fdd 2C       		.uleb128 0x2c
 6536 0fde 54040000 		.4byte	.LVL361
 6537 0fe2 2E130000 		.4byte	0x132e
 6538 0fe6 F40F0000 		.4byte	0xff4
 6539 0fea 1D       		.uleb128 0x1d
 6540 0feb 01       		.uleb128 0x1
 6541 0fec 50       		.byte	0x50
 6542 0fed 05       		.uleb128 0x5
 6543 0fee 03       		.byte	0x3
 6544 0fef 20000000 		.4byte	.LC3
 6545 0ff3 00       		.byte	0
 6546 0ff4 28       		.uleb128 0x28
 6547 0ff5 5E040000 		.4byte	.LVL363
 6548 0ff9 47130000 		.4byte	0x1347
 6549 0ffd 1D       		.uleb128 0x1d
 6550 0ffe 01       		.uleb128 0x1
 6551 0fff 50       		.byte	0x50
 6552 1000 01       		.uleb128 0x1
 6553 1001 3A       		.byte	0x3a
 6554 1002 00       		.byte	0
 6555 1003 00       		.byte	0
 6556 1004 0A       		.uleb128 0xa
 6557 1005 45000000 		.4byte	0x45
 6558 1009 14100000 		.4byte	0x1014
 6559 100d 0B       		.uleb128 0xb
 6560 100e 81000000 		.4byte	0x81
 6561 1012 1F       		.byte	0x1f
 6562 1013 00       		.byte	0
 6563 1014 0A       		.uleb128 0xa
 6564 1015 45000000 		.4byte	0x45
 6565 1019 24100000 		.4byte	0x1024
 6566 101d 0B       		.uleb128 0xb
 6567 101e 81000000 		.4byte	0x81
 6568 1022 3F       		.byte	0x3f
 6569 1023 00       		.byte	0
 6570 1024 0A       		.uleb128 0xa
 6571 1025 45000000 		.4byte	0x45
 6572 1029 34100000 		.4byte	0x1034
ARM GAS  C:\Users\jo\AppData\Local\Temp\cc8AA3HA.s 			page 118


 6573 102d 0B       		.uleb128 0xb
 6574 102e 81000000 		.4byte	0x81
 6575 1032 FF       		.byte	0xff
 6576 1033 00       		.byte	0
 6577 1034 19       		.uleb128 0x19
 6578 1035 46536200 		.ascii	"FSb\000"
 6579 1039 01       		.byte	0x1
 6580 103a 6901     		.2byte	0x169
 6581 103c 24100000 		.4byte	0x1024
 6582 1040 05       		.uleb128 0x5
 6583 1041 03       		.byte	0x3
 6584 1042 00000000 		.4byte	FSb
 6585 1046 0A       		.uleb128 0xa
 6586 1047 A2000000 		.4byte	0xa2
 6587 104b 56100000 		.4byte	0x1056
 6588 104f 0B       		.uleb128 0xb
 6589 1050 81000000 		.4byte	0x81
 6590 1054 FF       		.byte	0xff
 6591 1055 00       		.byte	0
 6592 1056 19       		.uleb128 0x19
 6593 1057 46543000 		.ascii	"FT0\000"
 6594 105b 01       		.byte	0x1
 6595 105c 6A01     		.2byte	0x16a
 6596 105e 46100000 		.4byte	0x1046
 6597 1062 05       		.uleb128 0x5
 6598 1063 03       		.byte	0x3
 6599 1064 00000000 		.4byte	FT0
 6600 1068 19       		.uleb128 0x19
 6601 1069 46543100 		.ascii	"FT1\000"
 6602 106d 01       		.byte	0x1
 6603 106e 6B01     		.2byte	0x16b
 6604 1070 46100000 		.4byte	0x1046
 6605 1074 05       		.uleb128 0x5
 6606 1075 03       		.byte	0x3
 6607 1076 00000000 		.4byte	FT1
 6608 107a 19       		.uleb128 0x19
 6609 107b 46543200 		.ascii	"FT2\000"
 6610 107f 01       		.byte	0x1
 6611 1080 6C01     		.2byte	0x16c
 6612 1082 46100000 		.4byte	0x1046
 6613 1086 05       		.uleb128 0x5
 6614 1087 03       		.byte	0x3
 6615 1088 00000000 		.4byte	FT2
 6616 108c 19       		.uleb128 0x19
 6617 108d 46543300 		.ascii	"FT3\000"
 6618 1091 01       		.byte	0x1
 6619 1092 6D01     		.2byte	0x16d
 6620 1094 46100000 		.4byte	0x1046
 6621 1098 05       		.uleb128 0x5
 6622 1099 03       		.byte	0x3
 6623 109a 00000000 		.4byte	FT3
 6624 109e 19       		.uleb128 0x19
 6625 109f 52536200 		.ascii	"RSb\000"
 6626 10a3 01       		.byte	0x1
 6627 10a4 7201     		.2byte	0x172
 6628 10a6 24100000 		.4byte	0x1024
 6629 10aa 05       		.uleb128 0x5
ARM GAS  C:\Users\jo\AppData\Local\Temp\cc8AA3HA.s 			page 119


 6630 10ab 03       		.byte	0x3
 6631 10ac 00000000 		.4byte	RSb
 6632 10b0 19       		.uleb128 0x19
 6633 10b1 52543000 		.ascii	"RT0\000"
 6634 10b5 01       		.byte	0x1
 6635 10b6 7301     		.2byte	0x173
 6636 10b8 46100000 		.4byte	0x1046
 6637 10bc 05       		.uleb128 0x5
 6638 10bd 03       		.byte	0x3
 6639 10be 00000000 		.4byte	RT0
 6640 10c2 19       		.uleb128 0x19
 6641 10c3 52543100 		.ascii	"RT1\000"
 6642 10c7 01       		.byte	0x1
 6643 10c8 7401     		.2byte	0x174
 6644 10ca 46100000 		.4byte	0x1046
 6645 10ce 05       		.uleb128 0x5
 6646 10cf 03       		.byte	0x3
 6647 10d0 00000000 		.4byte	RT1
 6648 10d4 19       		.uleb128 0x19
 6649 10d5 52543200 		.ascii	"RT2\000"
 6650 10d9 01       		.byte	0x1
 6651 10da 7501     		.2byte	0x175
 6652 10dc 46100000 		.4byte	0x1046
 6653 10e0 05       		.uleb128 0x5
 6654 10e1 03       		.byte	0x3
 6655 10e2 00000000 		.4byte	RT2
 6656 10e6 19       		.uleb128 0x19
 6657 10e7 52543300 		.ascii	"RT3\000"
 6658 10eb 01       		.byte	0x1
 6659 10ec 7601     		.2byte	0x176
 6660 10ee 46100000 		.4byte	0x1046
 6661 10f2 05       		.uleb128 0x5
 6662 10f3 03       		.byte	0x3
 6663 10f4 00000000 		.4byte	RT3
 6664 10f8 0A       		.uleb128 0xa
 6665 10f9 A2000000 		.4byte	0xa2
 6666 10fd 08110000 		.4byte	0x1108
 6667 1101 0B       		.uleb128 0xb
 6668 1102 81000000 		.4byte	0x81
 6669 1106 09       		.byte	0x9
 6670 1107 00       		.byte	0
 6671 1108 2D       		.uleb128 0x2d
 6672 1109 0E040000 		.4byte	.LASF36
 6673 110d 01       		.byte	0x1
 6674 110e 7B01     		.2byte	0x17b
 6675 1110 F8100000 		.4byte	0x10f8
 6676 1114 05       		.uleb128 0x5
 6677 1115 03       		.byte	0x3
 6678 1116 00000000 		.4byte	RCON
 6679 111a 2D       		.uleb128 0x2d
 6680 111b 13040000 		.4byte	.LASF37
 6681 111f 01       		.byte	0x1
 6682 1120 8401     		.2byte	0x184
 6683 1122 25000000 		.4byte	0x25
 6684 1126 05       		.uleb128 0x5
 6685 1127 03       		.byte	0x3
 6686 1128 00000000 		.4byte	aes_init_done
ARM GAS  C:\Users\jo\AppData\Local\Temp\cc8AA3HA.s 			page 120


 6687 112c 0A       		.uleb128 0xa
 6688 112d 45000000 		.4byte	0x45
 6689 1131 42110000 		.4byte	0x1142
 6690 1135 0B       		.uleb128 0xb
 6691 1136 81000000 		.4byte	0x81
 6692 113a 02       		.byte	0x2
 6693 113b 0B       		.uleb128 0xb
 6694 113c 81000000 		.4byte	0x81
 6695 1140 0F       		.byte	0xf
 6696 1141 00       		.byte	0
 6697 1142 2D       		.uleb128 0x2d
 6698 1143 9F010000 		.4byte	.LASF38
 6699 1147 01       		.byte	0x1
 6700 1148 F003     		.2byte	0x3f0
 6701 114a 54110000 		.4byte	0x1154
 6702 114e 05       		.uleb128 0x5
 6703 114f 03       		.byte	0x3
 6704 1150 00000000 		.4byte	aes_test_ecb_dec
 6705 1154 07       		.uleb128 0x7
 6706 1155 2C110000 		.4byte	0x112c
 6707 1159 2D       		.uleb128 0x2d
 6708 115a B0010000 		.4byte	.LASF39
 6709 115e 01       		.byte	0x1
 6710 115f FA03     		.2byte	0x3fa
 6711 1161 6B110000 		.4byte	0x116b
 6712 1165 05       		.uleb128 0x5
 6713 1166 03       		.byte	0x3
 6714 1167 00000000 		.4byte	aes_test_ecb_enc
 6715 116b 07       		.uleb128 0x7
 6716 116c 2C110000 		.4byte	0x112c
 6717 1170 2D       		.uleb128 0x2d
 6718 1171 F9020000 		.4byte	.LASF40
 6719 1175 01       		.byte	0x1
 6720 1176 0504     		.2byte	0x405
 6721 1178 82110000 		.4byte	0x1182
 6722 117c 05       		.uleb128 0x5
 6723 117d 03       		.byte	0x3
 6724 117e 00000000 		.4byte	aes_test_cbc_dec
 6725 1182 07       		.uleb128 0x7
 6726 1183 2C110000 		.4byte	0x112c
 6727 1187 2D       		.uleb128 0x2d
 6728 1188 0A030000 		.4byte	.LASF41
 6729 118c 01       		.byte	0x1
 6730 118d 0F04     		.2byte	0x40f
 6731 118f 99110000 		.4byte	0x1199
 6732 1193 05       		.uleb128 0x5
 6733 1194 03       		.byte	0x3
 6734 1195 00000000 		.4byte	aes_test_cbc_enc
 6735 1199 07       		.uleb128 0x7
 6736 119a 2C110000 		.4byte	0x112c
 6737 119e 0A       		.uleb128 0xa
 6738 119f 45000000 		.4byte	0x45
 6739 11a3 B4110000 		.4byte	0x11b4
 6740 11a7 0B       		.uleb128 0xb
 6741 11a8 81000000 		.4byte	0x81
 6742 11ac 02       		.byte	0x2
 6743 11ad 0B       		.uleb128 0xb
ARM GAS  C:\Users\jo\AppData\Local\Temp\cc8AA3HA.s 			page 121


 6744 11ae 81000000 		.4byte	0x81
 6745 11b2 1F       		.byte	0x1f
 6746 11b3 00       		.byte	0
 6747 11b4 2D       		.uleb128 0x2d
 6748 11b5 F3030000 		.4byte	.LASF42
 6749 11b9 01       		.byte	0x1
 6750 11ba 2004     		.2byte	0x420
 6751 11bc C6110000 		.4byte	0x11c6
 6752 11c0 05       		.uleb128 0x5
 6753 11c1 03       		.byte	0x3
 6754 11c2 00000000 		.4byte	aes_test_cfb128_key
 6755 11c6 07       		.uleb128 0x7
 6756 11c7 9E110000 		.4byte	0x119e
 6757 11cb 2D       		.uleb128 0x2d
 6758 11cc 17000000 		.4byte	.LASF43
 6759 11d0 01       		.byte	0x1
 6760 11d1 2D04     		.2byte	0x42d
 6761 11d3 DD110000 		.4byte	0x11dd
 6762 11d7 05       		.uleb128 0x5
 6763 11d8 03       		.byte	0x3
 6764 11d9 00000000 		.4byte	aes_test_cfb128_iv
 6765 11dd 07       		.uleb128 0x7
 6766 11de E8010000 		.4byte	0x1e8
 6767 11e2 2D       		.uleb128 0x2d
 6768 11e3 4E040000 		.4byte	.LASF44
 6769 11e7 01       		.byte	0x1
 6770 11e8 3304     		.2byte	0x433
 6771 11ea F4110000 		.4byte	0x11f4
 6772 11ee 05       		.uleb128 0x5
 6773 11ef 03       		.byte	0x3
 6774 11f0 00000000 		.4byte	aes_test_cfb128_pt
 6775 11f4 07       		.uleb128 0x7
 6776 11f5 14100000 		.4byte	0x1014
 6777 11f9 0A       		.uleb128 0xa
 6778 11fa 45000000 		.4byte	0x45
 6779 11fe 0F120000 		.4byte	0x120f
 6780 1202 0B       		.uleb128 0xb
 6781 1203 81000000 		.4byte	0x81
 6782 1207 02       		.byte	0x2
 6783 1208 0B       		.uleb128 0xb
 6784 1209 81000000 		.4byte	0x81
 6785 120d 3F       		.byte	0x3f
 6786 120e 00       		.byte	0
 6787 120f 2D       		.uleb128 0x2d
 6788 1210 34040000 		.4byte	.LASF45
 6789 1214 01       		.byte	0x1
 6790 1215 3F04     		.2byte	0x43f
 6791 1217 21120000 		.4byte	0x1221
 6792 121b 05       		.uleb128 0x5
 6793 121c 03       		.byte	0x3
 6794 121d 00000000 		.4byte	aes_test_cfb128_ct
 6795 1221 07       		.uleb128 0x7
 6796 1222 F9110000 		.4byte	0x11f9
 6797 1226 2D       		.uleb128 0x2d
 6798 1227 BC030000 		.4byte	.LASF46
 6799 122b 01       		.byte	0x1
 6800 122c 6304     		.2byte	0x463
ARM GAS  C:\Users\jo\AppData\Local\Temp\cc8AA3HA.s 			page 122


 6801 122e 38120000 		.4byte	0x1238
 6802 1232 05       		.uleb128 0x5
 6803 1233 03       		.byte	0x3
 6804 1234 00000000 		.4byte	aes_test_ctr_key
 6805 1238 07       		.uleb128 0x7
 6806 1239 2C110000 		.4byte	0x112c
 6807 123d 2D       		.uleb128 0x2d
 6808 123e 64030000 		.4byte	.LASF47
 6809 1242 01       		.byte	0x1
 6810 1243 6D04     		.2byte	0x46d
 6811 1245 4F120000 		.4byte	0x124f
 6812 1249 05       		.uleb128 0x5
 6813 124a 03       		.byte	0x3
 6814 124b 00000000 		.4byte	aes_test_ctr_nonce_counter
 6815 124f 07       		.uleb128 0x7
 6816 1250 2C110000 		.4byte	0x112c
 6817 1254 0A       		.uleb128 0xa
 6818 1255 45000000 		.4byte	0x45
 6819 1259 6A120000 		.4byte	0x126a
 6820 125d 0B       		.uleb128 0xb
 6821 125e 81000000 		.4byte	0x81
 6822 1262 02       		.byte	0x2
 6823 1263 0B       		.uleb128 0xb
 6824 1264 81000000 		.4byte	0x81
 6825 1268 2F       		.byte	0x2f
 6826 1269 00       		.byte	0
 6827 126a 2D       		.uleb128 0x2d
 6828 126b CF020000 		.4byte	.LASF48
 6829 126f 01       		.byte	0x1
 6830 1270 7704     		.2byte	0x477
 6831 1272 7C120000 		.4byte	0x127c
 6832 1276 05       		.uleb128 0x5
 6833 1277 03       		.byte	0x3
 6834 1278 00000000 		.4byte	aes_test_ctr_pt
 6835 127c 07       		.uleb128 0x7
 6836 127d 54120000 		.4byte	0x1254
 6837 1281 2D       		.uleb128 0x2d
 6838 1282 D5030000 		.4byte	.LASF49
 6839 1286 01       		.byte	0x1
 6840 1287 8804     		.2byte	0x488
 6841 1289 93120000 		.4byte	0x1293
 6842 128d 05       		.uleb128 0x5
 6843 128e 03       		.byte	0x3
 6844 128f 00000000 		.4byte	aes_test_ctr_ct
 6845 1293 07       		.uleb128 0x7
 6846 1294 54120000 		.4byte	0x1254
 6847 1298 0A       		.uleb128 0xa
 6848 1299 25000000 		.4byte	0x25
 6849 129d A8120000 		.4byte	0x12a8
 6850 12a1 0B       		.uleb128 0xb
 6851 12a2 81000000 		.4byte	0x81
 6852 12a6 02       		.byte	0x2
 6853 12a7 00       		.byte	0
 6854 12a8 2D       		.uleb128 0x2d
 6855 12a9 1B030000 		.4byte	.LASF50
 6856 12ad 01       		.byte	0x1
 6857 12ae 9704     		.2byte	0x497
ARM GAS  C:\Users\jo\AppData\Local\Temp\cc8AA3HA.s 			page 123


 6858 12b0 BA120000 		.4byte	0x12ba
 6859 12b4 05       		.uleb128 0x5
 6860 12b5 03       		.byte	0x3
 6861 12b6 00000000 		.4byte	aes_test_ctr_len
 6862 12ba 07       		.uleb128 0x7
 6863 12bb 98120000 		.4byte	0x1298
 6864 12bf 31       		.uleb128 0x31
 6865 12c0 07040000 		.4byte	.LASF51
 6866 12c4 88000000 		.4byte	0x88
 6867 12c8 DC120000 		.4byte	0x12dc
 6868 12cc 32       		.uleb128 0x32
 6869 12cd 88000000 		.4byte	0x88
 6870 12d1 32       		.uleb128 0x32
 6871 12d2 25000000 		.4byte	0x25
 6872 12d6 32       		.uleb128 0x32
 6873 12d7 81000000 		.4byte	0x81
 6874 12db 00       		.byte	0
 6875 12dc 33       		.uleb128 0x33
 6876 12dd 00000000 		.4byte	.LASF53
 6877 12e1 06       		.byte	0x6
 6878 12e2 B1       		.byte	0xb1
 6879 12e3 25000000 		.4byte	0x25
 6880 12e7 F2120000 		.4byte	0x12f2
 6881 12eb 32       		.uleb128 0x32
 6882 12ec 97000000 		.4byte	0x97
 6883 12f0 34       		.uleb128 0x34
 6884 12f1 00       		.byte	0
 6885 12f2 33       		.uleb128 0x33
 6886 12f3 47040000 		.4byte	.LASF54
 6887 12f7 07       		.byte	0x7
 6888 12f8 16       		.byte	0x16
 6889 12f9 25000000 		.4byte	0x25
 6890 12fd 11130000 		.4byte	0x1311
 6891 1301 32       		.uleb128 0x32
 6892 1302 FA000000 		.4byte	0xfa
 6893 1306 32       		.uleb128 0x32
 6894 1307 FA000000 		.4byte	0xfa
 6895 130b 32       		.uleb128 0x32
 6896 130c 2C000000 		.4byte	0x2c
 6897 1310 00       		.byte	0
 6898 1311 31       		.uleb128 0x31
 6899 1312 EC030000 		.4byte	.LASF55
 6900 1316 88000000 		.4byte	0x88
 6901 131a 2E130000 		.4byte	0x132e
 6902 131e 32       		.uleb128 0x32
 6903 131f 88000000 		.4byte	0x88
 6904 1323 32       		.uleb128 0x32
 6905 1324 FA000000 		.4byte	0xfa
 6906 1328 32       		.uleb128 0x32
 6907 1329 81000000 		.4byte	0x81
 6908 132d 00       		.byte	0
 6909 132e 35       		.uleb128 0x35
 6910 132f 01010000 		.4byte	.LASF63
 6911 1333 08       		.byte	0x8
 6912 1334 00       		.byte	0
 6913 1335 2F040000 		.4byte	.LASF64
 6914 1339 25000000 		.4byte	0x25
ARM GAS  C:\Users\jo\AppData\Local\Temp\cc8AA3HA.s 			page 124


 6915 133d 47130000 		.4byte	0x1347
 6916 1341 32       		.uleb128 0x32
 6917 1342 97000000 		.4byte	0x97
 6918 1346 00       		.byte	0
 6919 1347 36       		.uleb128 0x36
 6920 1348 8D010000 		.4byte	.LASF56
 6921 134c 08       		.byte	0x8
 6922 134d 00       		.byte	0
 6923 134e 10010000 		.4byte	.LASF65
 6924 1352 25000000 		.4byte	0x25
 6925 1356 32       		.uleb128 0x32
 6926 1357 25000000 		.4byte	0x25
 6927 135b 00       		.byte	0
 6928 135c 00       		.byte	0
 6929              		.section	.debug_abbrev,"",%progbits
 6930              	.Ldebug_abbrev0:
 6931 0000 01       		.uleb128 0x1
 6932 0001 11       		.uleb128 0x11
 6933 0002 01       		.byte	0x1
 6934 0003 25       		.uleb128 0x25
 6935 0004 0E       		.uleb128 0xe
 6936 0005 13       		.uleb128 0x13
 6937 0006 0B       		.uleb128 0xb
 6938 0007 03       		.uleb128 0x3
 6939 0008 0E       		.uleb128 0xe
 6940 0009 1B       		.uleb128 0x1b
 6941 000a 0E       		.uleb128 0xe
 6942 000b 55       		.uleb128 0x55
 6943 000c 17       		.uleb128 0x17
 6944 000d 11       		.uleb128 0x11
 6945 000e 01       		.uleb128 0x1
 6946 000f 10       		.uleb128 0x10
 6947 0010 17       		.uleb128 0x17
 6948 0011 00       		.byte	0
 6949 0012 00       		.byte	0
 6950 0013 02       		.uleb128 0x2
 6951 0014 24       		.uleb128 0x24
 6952 0015 00       		.byte	0
 6953 0016 0B       		.uleb128 0xb
 6954 0017 0B       		.uleb128 0xb
 6955 0018 3E       		.uleb128 0x3e
 6956 0019 0B       		.uleb128 0xb
 6957 001a 03       		.uleb128 0x3
 6958 001b 08       		.uleb128 0x8
 6959 001c 00       		.byte	0
 6960 001d 00       		.byte	0
 6961 001e 03       		.uleb128 0x3
 6962 001f 16       		.uleb128 0x16
 6963 0020 00       		.byte	0
 6964 0021 03       		.uleb128 0x3
 6965 0022 0E       		.uleb128 0xe
 6966 0023 3A       		.uleb128 0x3a
 6967 0024 0B       		.uleb128 0xb
 6968 0025 3B       		.uleb128 0x3b
 6969 0026 0B       		.uleb128 0xb
 6970 0027 49       		.uleb128 0x49
 6971 0028 13       		.uleb128 0x13
ARM GAS  C:\Users\jo\AppData\Local\Temp\cc8AA3HA.s 			page 125


 6972 0029 00       		.byte	0
 6973 002a 00       		.byte	0
 6974 002b 04       		.uleb128 0x4
 6975 002c 24       		.uleb128 0x24
 6976 002d 00       		.byte	0
 6977 002e 0B       		.uleb128 0xb
 6978 002f 0B       		.uleb128 0xb
 6979 0030 3E       		.uleb128 0x3e
 6980 0031 0B       		.uleb128 0xb
 6981 0032 03       		.uleb128 0x3
 6982 0033 0E       		.uleb128 0xe
 6983 0034 00       		.byte	0
 6984 0035 00       		.byte	0
 6985 0036 05       		.uleb128 0x5
 6986 0037 0F       		.uleb128 0xf
 6987 0038 00       		.byte	0
 6988 0039 0B       		.uleb128 0xb
 6989 003a 0B       		.uleb128 0xb
 6990 003b 00       		.byte	0
 6991 003c 00       		.byte	0
 6992 003d 06       		.uleb128 0x6
 6993 003e 0F       		.uleb128 0xf
 6994 003f 00       		.byte	0
 6995 0040 0B       		.uleb128 0xb
 6996 0041 0B       		.uleb128 0xb
 6997 0042 49       		.uleb128 0x49
 6998 0043 13       		.uleb128 0x13
 6999 0044 00       		.byte	0
 7000 0045 00       		.byte	0
 7001 0046 07       		.uleb128 0x7
 7002 0047 26       		.uleb128 0x26
 7003 0048 00       		.byte	0
 7004 0049 49       		.uleb128 0x49
 7005 004a 13       		.uleb128 0x13
 7006 004b 00       		.byte	0
 7007 004c 00       		.byte	0
 7008 004d 08       		.uleb128 0x8
 7009 004e 13       		.uleb128 0x13
 7010 004f 01       		.byte	0x1
 7011 0050 0B       		.uleb128 0xb
 7012 0051 05       		.uleb128 0x5
 7013 0052 3A       		.uleb128 0x3a
 7014 0053 0B       		.uleb128 0xb
 7015 0054 3B       		.uleb128 0x3b
 7016 0055 0B       		.uleb128 0xb
 7017 0056 01       		.uleb128 0x1
 7018 0057 13       		.uleb128 0x13
 7019 0058 00       		.byte	0
 7020 0059 00       		.byte	0
 7021 005a 09       		.uleb128 0x9
 7022 005b 0D       		.uleb128 0xd
 7023 005c 00       		.byte	0
 7024 005d 03       		.uleb128 0x3
 7025 005e 08       		.uleb128 0x8
 7026 005f 3A       		.uleb128 0x3a
 7027 0060 0B       		.uleb128 0xb
 7028 0061 3B       		.uleb128 0x3b
ARM GAS  C:\Users\jo\AppData\Local\Temp\cc8AA3HA.s 			page 126


 7029 0062 0B       		.uleb128 0xb
 7030 0063 49       		.uleb128 0x49
 7031 0064 13       		.uleb128 0x13
 7032 0065 38       		.uleb128 0x38
 7033 0066 0B       		.uleb128 0xb
 7034 0067 00       		.byte	0
 7035 0068 00       		.byte	0
 7036 0069 0A       		.uleb128 0xa
 7037 006a 01       		.uleb128 0x1
 7038 006b 01       		.byte	0x1
 7039 006c 49       		.uleb128 0x49
 7040 006d 13       		.uleb128 0x13
 7041 006e 01       		.uleb128 0x1
 7042 006f 13       		.uleb128 0x13
 7043 0070 00       		.byte	0
 7044 0071 00       		.byte	0
 7045 0072 0B       		.uleb128 0xb
 7046 0073 21       		.uleb128 0x21
 7047 0074 00       		.byte	0
 7048 0075 49       		.uleb128 0x49
 7049 0076 13       		.uleb128 0x13
 7050 0077 2F       		.uleb128 0x2f
 7051 0078 0B       		.uleb128 0xb
 7052 0079 00       		.byte	0
 7053 007a 00       		.byte	0
 7054 007b 0C       		.uleb128 0xc
 7055 007c 26       		.uleb128 0x26
 7056 007d 00       		.byte	0
 7057 007e 00       		.byte	0
 7058 007f 00       		.byte	0
 7059 0080 0D       		.uleb128 0xd
 7060 0081 2E       		.uleb128 0x2e
 7061 0082 01       		.byte	0x1
 7062 0083 03       		.uleb128 0x3
 7063 0084 0E       		.uleb128 0xe
 7064 0085 3A       		.uleb128 0x3a
 7065 0086 0B       		.uleb128 0xb
 7066 0087 3B       		.uleb128 0x3b
 7067 0088 0B       		.uleb128 0xb
 7068 0089 27       		.uleb128 0x27
 7069 008a 19       		.uleb128 0x19
 7070 008b 20       		.uleb128 0x20
 7071 008c 0B       		.uleb128 0xb
 7072 008d 01       		.uleb128 0x1
 7073 008e 13       		.uleb128 0x13
 7074 008f 00       		.byte	0
 7075 0090 00       		.byte	0
 7076 0091 0E       		.uleb128 0xe
 7077 0092 05       		.uleb128 0x5
 7078 0093 00       		.byte	0
 7079 0094 03       		.uleb128 0x3
 7080 0095 08       		.uleb128 0x8
 7081 0096 3A       		.uleb128 0x3a
 7082 0097 0B       		.uleb128 0xb
 7083 0098 3B       		.uleb128 0x3b
 7084 0099 0B       		.uleb128 0xb
 7085 009a 49       		.uleb128 0x49
ARM GAS  C:\Users\jo\AppData\Local\Temp\cc8AA3HA.s 			page 127


 7086 009b 13       		.uleb128 0x13
 7087 009c 00       		.byte	0
 7088 009d 00       		.byte	0
 7089 009e 0F       		.uleb128 0xf
 7090 009f 34       		.uleb128 0x34
 7091 00a0 00       		.byte	0
 7092 00a1 03       		.uleb128 0x3
 7093 00a2 08       		.uleb128 0x8
 7094 00a3 3A       		.uleb128 0x3a
 7095 00a4 0B       		.uleb128 0xb
 7096 00a5 3B       		.uleb128 0x3b
 7097 00a6 0B       		.uleb128 0xb
 7098 00a7 49       		.uleb128 0x49
 7099 00a8 13       		.uleb128 0x13
 7100 00a9 00       		.byte	0
 7101 00aa 00       		.byte	0
 7102 00ab 10       		.uleb128 0x10
 7103 00ac 35       		.uleb128 0x35
 7104 00ad 00       		.byte	0
 7105 00ae 49       		.uleb128 0x49
 7106 00af 13       		.uleb128 0x13
 7107 00b0 00       		.byte	0
 7108 00b1 00       		.byte	0
 7109 00b2 11       		.uleb128 0x11
 7110 00b3 2E       		.uleb128 0x2e
 7111 00b4 01       		.byte	0x1
 7112 00b5 3F       		.uleb128 0x3f
 7113 00b6 19       		.uleb128 0x19
 7114 00b7 03       		.uleb128 0x3
 7115 00b8 0E       		.uleb128 0xe
 7116 00b9 3A       		.uleb128 0x3a
 7117 00ba 0B       		.uleb128 0xb
 7118 00bb 3B       		.uleb128 0x3b
 7119 00bc 05       		.uleb128 0x5
 7120 00bd 27       		.uleb128 0x27
 7121 00be 19       		.uleb128 0x19
 7122 00bf 20       		.uleb128 0x20
 7123 00c0 0B       		.uleb128 0xb
 7124 00c1 01       		.uleb128 0x1
 7125 00c2 13       		.uleb128 0x13
 7126 00c3 00       		.byte	0
 7127 00c4 00       		.byte	0
 7128 00c5 12       		.uleb128 0x12
 7129 00c6 05       		.uleb128 0x5
 7130 00c7 00       		.byte	0
 7131 00c8 03       		.uleb128 0x3
 7132 00c9 08       		.uleb128 0x8
 7133 00ca 3A       		.uleb128 0x3a
 7134 00cb 0B       		.uleb128 0xb
 7135 00cc 3B       		.uleb128 0x3b
 7136 00cd 05       		.uleb128 0x5
 7137 00ce 49       		.uleb128 0x49
 7138 00cf 13       		.uleb128 0x13
 7139 00d0 00       		.byte	0
 7140 00d1 00       		.byte	0
 7141 00d2 13       		.uleb128 0x13
 7142 00d3 2E       		.uleb128 0x2e
ARM GAS  C:\Users\jo\AppData\Local\Temp\cc8AA3HA.s 			page 128


 7143 00d4 01       		.byte	0x1
 7144 00d5 3F       		.uleb128 0x3f
 7145 00d6 19       		.uleb128 0x19
 7146 00d7 03       		.uleb128 0x3
 7147 00d8 0E       		.uleb128 0xe
 7148 00d9 3A       		.uleb128 0x3a
 7149 00da 0B       		.uleb128 0xb
 7150 00db 3B       		.uleb128 0x3b
 7151 00dc 05       		.uleb128 0x5
 7152 00dd 27       		.uleb128 0x27
 7153 00de 19       		.uleb128 0x19
 7154 00df 49       		.uleb128 0x49
 7155 00e0 13       		.uleb128 0x13
 7156 00e1 20       		.uleb128 0x20
 7157 00e2 0B       		.uleb128 0xb
 7158 00e3 01       		.uleb128 0x1
 7159 00e4 13       		.uleb128 0x13
 7160 00e5 00       		.byte	0
 7161 00e6 00       		.byte	0
 7162 00e7 14       		.uleb128 0x14
 7163 00e8 05       		.uleb128 0x5
 7164 00e9 00       		.byte	0
 7165 00ea 03       		.uleb128 0x3
 7166 00eb 0E       		.uleb128 0xe
 7167 00ec 3A       		.uleb128 0x3a
 7168 00ed 0B       		.uleb128 0xb
 7169 00ee 3B       		.uleb128 0x3b
 7170 00ef 05       		.uleb128 0x5
 7171 00f0 49       		.uleb128 0x49
 7172 00f1 13       		.uleb128 0x13
 7173 00f2 00       		.byte	0
 7174 00f3 00       		.byte	0
 7175 00f4 15       		.uleb128 0x15
 7176 00f5 34       		.uleb128 0x34
 7177 00f6 00       		.byte	0
 7178 00f7 03       		.uleb128 0x3
 7179 00f8 08       		.uleb128 0x8
 7180 00f9 3A       		.uleb128 0x3a
 7181 00fa 0B       		.uleb128 0xb
 7182 00fb 3B       		.uleb128 0x3b
 7183 00fc 05       		.uleb128 0x5
 7184 00fd 49       		.uleb128 0x49
 7185 00fe 13       		.uleb128 0x13
 7186 00ff 00       		.byte	0
 7187 0100 00       		.byte	0
 7188 0101 16       		.uleb128 0x16
 7189 0102 34       		.uleb128 0x34
 7190 0103 00       		.byte	0
 7191 0104 03       		.uleb128 0x3
 7192 0105 0E       		.uleb128 0xe
 7193 0106 3A       		.uleb128 0x3a
 7194 0107 0B       		.uleb128 0xb
 7195 0108 3B       		.uleb128 0x3b
 7196 0109 05       		.uleb128 0x5
 7197 010a 49       		.uleb128 0x49
 7198 010b 13       		.uleb128 0x13
 7199 010c 00       		.byte	0
ARM GAS  C:\Users\jo\AppData\Local\Temp\cc8AA3HA.s 			page 129


 7200 010d 00       		.byte	0
 7201 010e 17       		.uleb128 0x17
 7202 010f 2E       		.uleb128 0x2e
 7203 0110 01       		.byte	0x1
 7204 0111 03       		.uleb128 0x3
 7205 0112 0E       		.uleb128 0xe
 7206 0113 3A       		.uleb128 0x3a
 7207 0114 0B       		.uleb128 0xb
 7208 0115 3B       		.uleb128 0x3b
 7209 0116 05       		.uleb128 0x5
 7210 0117 27       		.uleb128 0x27
 7211 0118 19       		.uleb128 0x19
 7212 0119 11       		.uleb128 0x11
 7213 011a 01       		.uleb128 0x1
 7214 011b 12       		.uleb128 0x12
 7215 011c 06       		.uleb128 0x6
 7216 011d 40       		.uleb128 0x40
 7217 011e 18       		.uleb128 0x18
 7218 011f 9742     		.uleb128 0x2117
 7219 0121 19       		.uleb128 0x19
 7220 0122 01       		.uleb128 0x1
 7221 0123 13       		.uleb128 0x13
 7222 0124 00       		.byte	0
 7223 0125 00       		.byte	0
 7224 0126 18       		.uleb128 0x18
 7225 0127 34       		.uleb128 0x34
 7226 0128 00       		.byte	0
 7227 0129 03       		.uleb128 0x3
 7228 012a 08       		.uleb128 0x8
 7229 012b 3A       		.uleb128 0x3a
 7230 012c 0B       		.uleb128 0xb
 7231 012d 3B       		.uleb128 0x3b
 7232 012e 05       		.uleb128 0x5
 7233 012f 49       		.uleb128 0x49
 7234 0130 13       		.uleb128 0x13
 7235 0131 02       		.uleb128 0x2
 7236 0132 17       		.uleb128 0x17
 7237 0133 00       		.byte	0
 7238 0134 00       		.byte	0
 7239 0135 19       		.uleb128 0x19
 7240 0136 34       		.uleb128 0x34
 7241 0137 00       		.byte	0
 7242 0138 03       		.uleb128 0x3
 7243 0139 08       		.uleb128 0x8
 7244 013a 3A       		.uleb128 0x3a
 7245 013b 0B       		.uleb128 0xb
 7246 013c 3B       		.uleb128 0x3b
 7247 013d 05       		.uleb128 0x5
 7248 013e 49       		.uleb128 0x49
 7249 013f 13       		.uleb128 0x13
 7250 0140 02       		.uleb128 0x2
 7251 0141 18       		.uleb128 0x18
 7252 0142 00       		.byte	0
 7253 0143 00       		.byte	0
 7254 0144 1A       		.uleb128 0x1a
 7255 0145 2E       		.uleb128 0x2e
 7256 0146 01       		.byte	0x1
ARM GAS  C:\Users\jo\AppData\Local\Temp\cc8AA3HA.s 			page 130


 7257 0147 31       		.uleb128 0x31
 7258 0148 13       		.uleb128 0x13
 7259 0149 11       		.uleb128 0x11
 7260 014a 01       		.uleb128 0x1
 7261 014b 12       		.uleb128 0x12
 7262 014c 06       		.uleb128 0x6
 7263 014d 40       		.uleb128 0x40
 7264 014e 18       		.uleb128 0x18
 7265 014f 9742     		.uleb128 0x2117
 7266 0151 19       		.uleb128 0x19
 7267 0152 01       		.uleb128 0x1
 7268 0153 13       		.uleb128 0x13
 7269 0154 00       		.byte	0
 7270 0155 00       		.byte	0
 7271 0156 1B       		.uleb128 0x1b
 7272 0157 05       		.uleb128 0x5
 7273 0158 00       		.byte	0
 7274 0159 31       		.uleb128 0x31
 7275 015a 13       		.uleb128 0x13
 7276 015b 02       		.uleb128 0x2
 7277 015c 17       		.uleb128 0x17
 7278 015d 00       		.byte	0
 7279 015e 00       		.byte	0
 7280 015f 1C       		.uleb128 0x1c
 7281 0160 898201   		.uleb128 0x4109
 7282 0163 01       		.byte	0x1
 7283 0164 11       		.uleb128 0x11
 7284 0165 01       		.uleb128 0x1
 7285 0166 9542     		.uleb128 0x2115
 7286 0168 19       		.uleb128 0x19
 7287 0169 31       		.uleb128 0x31
 7288 016a 13       		.uleb128 0x13
 7289 016b 00       		.byte	0
 7290 016c 00       		.byte	0
 7291 016d 1D       		.uleb128 0x1d
 7292 016e 8A8201   		.uleb128 0x410a
 7293 0171 00       		.byte	0
 7294 0172 02       		.uleb128 0x2
 7295 0173 18       		.uleb128 0x18
 7296 0174 9142     		.uleb128 0x2111
 7297 0176 18       		.uleb128 0x18
 7298 0177 00       		.byte	0
 7299 0178 00       		.byte	0
 7300 0179 1E       		.uleb128 0x1e
 7301 017a 1D       		.uleb128 0x1d
 7302 017b 01       		.byte	0x1
 7303 017c 31       		.uleb128 0x31
 7304 017d 13       		.uleb128 0x13
 7305 017e 11       		.uleb128 0x11
 7306 017f 01       		.uleb128 0x1
 7307 0180 12       		.uleb128 0x12
 7308 0181 06       		.uleb128 0x6
 7309 0182 58       		.uleb128 0x58
 7310 0183 0B       		.uleb128 0xb
 7311 0184 59       		.uleb128 0x59
 7312 0185 05       		.uleb128 0x5
 7313 0186 00       		.byte	0
ARM GAS  C:\Users\jo\AppData\Local\Temp\cc8AA3HA.s 			page 131


 7314 0187 00       		.byte	0
 7315 0188 1F       		.uleb128 0x1f
 7316 0189 05       		.uleb128 0x5
 7317 018a 00       		.byte	0
 7318 018b 31       		.uleb128 0x31
 7319 018c 13       		.uleb128 0x13
 7320 018d 00       		.byte	0
 7321 018e 00       		.byte	0
 7322 018f 20       		.uleb128 0x20
 7323 0190 0B       		.uleb128 0xb
 7324 0191 01       		.byte	0x1
 7325 0192 11       		.uleb128 0x11
 7326 0193 01       		.uleb128 0x1
 7327 0194 12       		.uleb128 0x12
 7328 0195 06       		.uleb128 0x6
 7329 0196 00       		.byte	0
 7330 0197 00       		.byte	0
 7331 0198 21       		.uleb128 0x21
 7332 0199 34       		.uleb128 0x34
 7333 019a 00       		.byte	0
 7334 019b 31       		.uleb128 0x31
 7335 019c 13       		.uleb128 0x13
 7336 019d 02       		.uleb128 0x2
 7337 019e 17       		.uleb128 0x17
 7338 019f 00       		.byte	0
 7339 01a0 00       		.byte	0
 7340 01a1 22       		.uleb128 0x22
 7341 01a2 2E       		.uleb128 0x2e
 7342 01a3 01       		.byte	0x1
 7343 01a4 3F       		.uleb128 0x3f
 7344 01a5 19       		.uleb128 0x19
 7345 01a6 03       		.uleb128 0x3
 7346 01a7 0E       		.uleb128 0xe
 7347 01a8 3A       		.uleb128 0x3a
 7348 01a9 0B       		.uleb128 0xb
 7349 01aa 3B       		.uleb128 0x3b
 7350 01ab 05       		.uleb128 0x5
 7351 01ac 27       		.uleb128 0x27
 7352 01ad 19       		.uleb128 0x19
 7353 01ae 49       		.uleb128 0x49
 7354 01af 13       		.uleb128 0x13
 7355 01b0 11       		.uleb128 0x11
 7356 01b1 01       		.uleb128 0x1
 7357 01b2 12       		.uleb128 0x12
 7358 01b3 06       		.uleb128 0x6
 7359 01b4 40       		.uleb128 0x40
 7360 01b5 18       		.uleb128 0x18
 7361 01b6 9742     		.uleb128 0x2117
 7362 01b8 19       		.uleb128 0x19
 7363 01b9 01       		.uleb128 0x1
 7364 01ba 13       		.uleb128 0x13
 7365 01bb 00       		.byte	0
 7366 01bc 00       		.byte	0
 7367 01bd 23       		.uleb128 0x23
 7368 01be 05       		.uleb128 0x5
 7369 01bf 00       		.byte	0
 7370 01c0 03       		.uleb128 0x3
ARM GAS  C:\Users\jo\AppData\Local\Temp\cc8AA3HA.s 			page 132


 7371 01c1 08       		.uleb128 0x8
 7372 01c2 3A       		.uleb128 0x3a
 7373 01c3 0B       		.uleb128 0xb
 7374 01c4 3B       		.uleb128 0x3b
 7375 01c5 05       		.uleb128 0x5
 7376 01c6 49       		.uleb128 0x49
 7377 01c7 13       		.uleb128 0x13
 7378 01c8 02       		.uleb128 0x2
 7379 01c9 17       		.uleb128 0x17
 7380 01ca 00       		.byte	0
 7381 01cb 00       		.byte	0
 7382 01cc 24       		.uleb128 0x24
 7383 01cd 05       		.uleb128 0x5
 7384 01ce 00       		.byte	0
 7385 01cf 03       		.uleb128 0x3
 7386 01d0 0E       		.uleb128 0xe
 7387 01d1 3A       		.uleb128 0x3a
 7388 01d2 0B       		.uleb128 0xb
 7389 01d3 3B       		.uleb128 0x3b
 7390 01d4 05       		.uleb128 0x5
 7391 01d5 49       		.uleb128 0x49
 7392 01d6 13       		.uleb128 0x13
 7393 01d7 02       		.uleb128 0x2
 7394 01d8 17       		.uleb128 0x17
 7395 01d9 00       		.byte	0
 7396 01da 00       		.byte	0
 7397 01db 25       		.uleb128 0x25
 7398 01dc 898201   		.uleb128 0x4109
 7399 01df 00       		.byte	0
 7400 01e0 11       		.uleb128 0x11
 7401 01e1 01       		.uleb128 0x1
 7402 01e2 31       		.uleb128 0x31
 7403 01e3 13       		.uleb128 0x13
 7404 01e4 00       		.byte	0
 7405 01e5 00       		.byte	0
 7406 01e6 26       		.uleb128 0x26
 7407 01e7 0A       		.uleb128 0xa
 7408 01e8 00       		.byte	0
 7409 01e9 03       		.uleb128 0x3
 7410 01ea 0E       		.uleb128 0xe
 7411 01eb 3A       		.uleb128 0x3a
 7412 01ec 0B       		.uleb128 0xb
 7413 01ed 3B       		.uleb128 0x3b
 7414 01ee 05       		.uleb128 0x5
 7415 01ef 00       		.byte	0
 7416 01f0 00       		.byte	0
 7417 01f1 27       		.uleb128 0x27
 7418 01f2 1D       		.uleb128 0x1d
 7419 01f3 01       		.byte	0x1
 7420 01f4 31       		.uleb128 0x31
 7421 01f5 13       		.uleb128 0x13
 7422 01f6 11       		.uleb128 0x11
 7423 01f7 01       		.uleb128 0x1
 7424 01f8 12       		.uleb128 0x12
 7425 01f9 06       		.uleb128 0x6
 7426 01fa 58       		.uleb128 0x58
 7427 01fb 0B       		.uleb128 0xb
ARM GAS  C:\Users\jo\AppData\Local\Temp\cc8AA3HA.s 			page 133


 7428 01fc 59       		.uleb128 0x59
 7429 01fd 05       		.uleb128 0x5
 7430 01fe 01       		.uleb128 0x1
 7431 01ff 13       		.uleb128 0x13
 7432 0200 00       		.byte	0
 7433 0201 00       		.byte	0
 7434 0202 28       		.uleb128 0x28
 7435 0203 898201   		.uleb128 0x4109
 7436 0206 01       		.byte	0x1
 7437 0207 11       		.uleb128 0x11
 7438 0208 01       		.uleb128 0x1
 7439 0209 31       		.uleb128 0x31
 7440 020a 13       		.uleb128 0x13
 7441 020b 00       		.byte	0
 7442 020c 00       		.byte	0
 7443 020d 29       		.uleb128 0x29
 7444 020e 34       		.uleb128 0x34
 7445 020f 00       		.byte	0
 7446 0210 31       		.uleb128 0x31
 7447 0211 13       		.uleb128 0x13
 7448 0212 00       		.byte	0
 7449 0213 00       		.byte	0
 7450 0214 2A       		.uleb128 0x2a
 7451 0215 0B       		.uleb128 0xb
 7452 0216 01       		.byte	0x1
 7453 0217 11       		.uleb128 0x11
 7454 0218 01       		.uleb128 0x1
 7455 0219 12       		.uleb128 0x12
 7456 021a 06       		.uleb128 0x6
 7457 021b 01       		.uleb128 0x1
 7458 021c 13       		.uleb128 0x13
 7459 021d 00       		.byte	0
 7460 021e 00       		.byte	0
 7461 021f 2B       		.uleb128 0x2b
 7462 0220 34       		.uleb128 0x34
 7463 0221 00       		.byte	0
 7464 0222 31       		.uleb128 0x31
 7465 0223 13       		.uleb128 0x13
 7466 0224 02       		.uleb128 0x2
 7467 0225 18       		.uleb128 0x18
 7468 0226 00       		.byte	0
 7469 0227 00       		.byte	0
 7470 0228 2C       		.uleb128 0x2c
 7471 0229 898201   		.uleb128 0x4109
 7472 022c 01       		.byte	0x1
 7473 022d 11       		.uleb128 0x11
 7474 022e 01       		.uleb128 0x1
 7475 022f 31       		.uleb128 0x31
 7476 0230 13       		.uleb128 0x13
 7477 0231 01       		.uleb128 0x1
 7478 0232 13       		.uleb128 0x13
 7479 0233 00       		.byte	0
 7480 0234 00       		.byte	0
 7481 0235 2D       		.uleb128 0x2d
 7482 0236 34       		.uleb128 0x34
 7483 0237 00       		.byte	0
 7484 0238 03       		.uleb128 0x3
ARM GAS  C:\Users\jo\AppData\Local\Temp\cc8AA3HA.s 			page 134


 7485 0239 0E       		.uleb128 0xe
 7486 023a 3A       		.uleb128 0x3a
 7487 023b 0B       		.uleb128 0xb
 7488 023c 3B       		.uleb128 0x3b
 7489 023d 05       		.uleb128 0x5
 7490 023e 49       		.uleb128 0x49
 7491 023f 13       		.uleb128 0x13
 7492 0240 02       		.uleb128 0x2
 7493 0241 18       		.uleb128 0x18
 7494 0242 00       		.byte	0
 7495 0243 00       		.byte	0
 7496 0244 2E       		.uleb128 0x2e
 7497 0245 0A       		.uleb128 0xa
 7498 0246 00       		.byte	0
 7499 0247 03       		.uleb128 0x3
 7500 0248 0E       		.uleb128 0xe
 7501 0249 3A       		.uleb128 0x3a
 7502 024a 0B       		.uleb128 0xb
 7503 024b 3B       		.uleb128 0x3b
 7504 024c 05       		.uleb128 0x5
 7505 024d 11       		.uleb128 0x11
 7506 024e 01       		.uleb128 0x1
 7507 024f 00       		.byte	0
 7508 0250 00       		.byte	0
 7509 0251 2F       		.uleb128 0x2f
 7510 0252 1D       		.uleb128 0x1d
 7511 0253 01       		.byte	0x1
 7512 0254 31       		.uleb128 0x31
 7513 0255 13       		.uleb128 0x13
 7514 0256 52       		.uleb128 0x52
 7515 0257 01       		.uleb128 0x1
 7516 0258 55       		.uleb128 0x55
 7517 0259 17       		.uleb128 0x17
 7518 025a 58       		.uleb128 0x58
 7519 025b 0B       		.uleb128 0xb
 7520 025c 59       		.uleb128 0x59
 7521 025d 05       		.uleb128 0x5
 7522 025e 01       		.uleb128 0x1
 7523 025f 13       		.uleb128 0x13
 7524 0260 00       		.byte	0
 7525 0261 00       		.byte	0
 7526 0262 30       		.uleb128 0x30
 7527 0263 0B       		.uleb128 0xb
 7528 0264 01       		.byte	0x1
 7529 0265 55       		.uleb128 0x55
 7530 0266 17       		.uleb128 0x17
 7531 0267 01       		.uleb128 0x1
 7532 0268 13       		.uleb128 0x13
 7533 0269 00       		.byte	0
 7534 026a 00       		.byte	0
 7535 026b 31       		.uleb128 0x31
 7536 026c 2E       		.uleb128 0x2e
 7537 026d 01       		.byte	0x1
 7538 026e 3F       		.uleb128 0x3f
 7539 026f 19       		.uleb128 0x19
 7540 0270 03       		.uleb128 0x3
 7541 0271 0E       		.uleb128 0xe
ARM GAS  C:\Users\jo\AppData\Local\Temp\cc8AA3HA.s 			page 135


 7542 0272 27       		.uleb128 0x27
 7543 0273 19       		.uleb128 0x19
 7544 0274 49       		.uleb128 0x49
 7545 0275 13       		.uleb128 0x13
 7546 0276 34       		.uleb128 0x34
 7547 0277 19       		.uleb128 0x19
 7548 0278 3C       		.uleb128 0x3c
 7549 0279 19       		.uleb128 0x19
 7550 027a 01       		.uleb128 0x1
 7551 027b 13       		.uleb128 0x13
 7552 027c 00       		.byte	0
 7553 027d 00       		.byte	0
 7554 027e 32       		.uleb128 0x32
 7555 027f 05       		.uleb128 0x5
 7556 0280 00       		.byte	0
 7557 0281 49       		.uleb128 0x49
 7558 0282 13       		.uleb128 0x13
 7559 0283 00       		.byte	0
 7560 0284 00       		.byte	0
 7561 0285 33       		.uleb128 0x33
 7562 0286 2E       		.uleb128 0x2e
 7563 0287 01       		.byte	0x1
 7564 0288 3F       		.uleb128 0x3f
 7565 0289 19       		.uleb128 0x19
 7566 028a 03       		.uleb128 0x3
 7567 028b 0E       		.uleb128 0xe
 7568 028c 3A       		.uleb128 0x3a
 7569 028d 0B       		.uleb128 0xb
 7570 028e 3B       		.uleb128 0x3b
 7571 028f 0B       		.uleb128 0xb
 7572 0290 27       		.uleb128 0x27
 7573 0291 19       		.uleb128 0x19
 7574 0292 49       		.uleb128 0x49
 7575 0293 13       		.uleb128 0x13
 7576 0294 3C       		.uleb128 0x3c
 7577 0295 19       		.uleb128 0x19
 7578 0296 01       		.uleb128 0x1
 7579 0297 13       		.uleb128 0x13
 7580 0298 00       		.byte	0
 7581 0299 00       		.byte	0
 7582 029a 34       		.uleb128 0x34
 7583 029b 18       		.uleb128 0x18
 7584 029c 00       		.byte	0
 7585 029d 00       		.byte	0
 7586 029e 00       		.byte	0
 7587 029f 35       		.uleb128 0x35
 7588 02a0 2E       		.uleb128 0x2e
 7589 02a1 01       		.byte	0x1
 7590 02a2 3F       		.uleb128 0x3f
 7591 02a3 19       		.uleb128 0x19
 7592 02a4 03       		.uleb128 0x3
 7593 02a5 0E       		.uleb128 0xe
 7594 02a6 3A       		.uleb128 0x3a
 7595 02a7 0B       		.uleb128 0xb
 7596 02a8 3B       		.uleb128 0x3b
 7597 02a9 0B       		.uleb128 0xb
 7598 02aa 6E       		.uleb128 0x6e
ARM GAS  C:\Users\jo\AppData\Local\Temp\cc8AA3HA.s 			page 136


 7599 02ab 0E       		.uleb128 0xe
 7600 02ac 27       		.uleb128 0x27
 7601 02ad 19       		.uleb128 0x19
 7602 02ae 49       		.uleb128 0x49
 7603 02af 13       		.uleb128 0x13
 7604 02b0 3C       		.uleb128 0x3c
 7605 02b1 19       		.uleb128 0x19
 7606 02b2 01       		.uleb128 0x1
 7607 02b3 13       		.uleb128 0x13
 7608 02b4 00       		.byte	0
 7609 02b5 00       		.byte	0
 7610 02b6 36       		.uleb128 0x36
 7611 02b7 2E       		.uleb128 0x2e
 7612 02b8 01       		.byte	0x1
 7613 02b9 3F       		.uleb128 0x3f
 7614 02ba 19       		.uleb128 0x19
 7615 02bb 03       		.uleb128 0x3
 7616 02bc 0E       		.uleb128 0xe
 7617 02bd 3A       		.uleb128 0x3a
 7618 02be 0B       		.uleb128 0xb
 7619 02bf 3B       		.uleb128 0x3b
 7620 02c0 0B       		.uleb128 0xb
 7621 02c1 6E       		.uleb128 0x6e
 7622 02c2 0E       		.uleb128 0xe
 7623 02c3 27       		.uleb128 0x27
 7624 02c4 19       		.uleb128 0x19
 7625 02c5 49       		.uleb128 0x49
 7626 02c6 13       		.uleb128 0x13
 7627 02c7 3C       		.uleb128 0x3c
 7628 02c8 19       		.uleb128 0x19
 7629 02c9 00       		.byte	0
 7630 02ca 00       		.byte	0
 7631 02cb 00       		.byte	0
 7632              		.section	.debug_loc,"",%progbits
 7633              	.Ldebug_loc0:
 7634              	.LLST0:
 7635 0000 00000000 		.4byte	.LVL0
 7636 0004 1A000000 		.4byte	.LVL1
 7637 0008 0200     		.2byte	0x2
 7638 000a 30       		.byte	0x30
 7639 000b 9F       		.byte	0x9f
 7640 000c 1A000000 		.4byte	.LVL1
 7641 0010 30000000 		.4byte	.LVL2
 7642 0014 0100     		.2byte	0x1
 7643 0016 50       		.byte	0x50
 7644 0017 3C000000 		.4byte	.LVL3
 7645 001b 46000000 		.4byte	.LVL6
 7646 001f 0100     		.2byte	0x1
 7647 0021 50       		.byte	0x50
 7648 0022 6C000000 		.4byte	.LVL10
 7649 0026 72000000 		.4byte	.LVL11
 7650 002a 0200     		.2byte	0x2
 7651 002c 31       		.byte	0x31
 7652 002d 9F       		.byte	0x9f
 7653 002e 72000000 		.4byte	.LVL11
 7654 0032 E8000000 		.4byte	.LVL24
 7655 0036 0100     		.2byte	0x1
ARM GAS  C:\Users\jo\AppData\Local\Temp\cc8AA3HA.s 			page 137


 7656 0038 55       		.byte	0x55
 7657 0039 F2000000 		.4byte	.LVL26
 7658 003d 4C020000 		.4byte	.LFE1
 7659 0041 0100     		.2byte	0x1
 7660 0043 51       		.byte	0x51
 7661 0044 00000000 		.4byte	0
 7662 0048 00000000 		.4byte	0
 7663              	.LLST1:
 7664 004c 00000000 		.4byte	.LVL0
 7665 0050 1A000000 		.4byte	.LVL1
 7666 0054 0200     		.2byte	0x2
 7667 0056 31       		.byte	0x31
 7668 0057 9F       		.byte	0x9f
 7669 0058 1A000000 		.4byte	.LVL1
 7670 005c 30000000 		.4byte	.LVL2
 7671 0060 0100     		.2byte	0x1
 7672 0062 51       		.byte	0x51
 7673 0063 3C000000 		.4byte	.LVL3
 7674 0067 40000000 		.4byte	.LVL4
 7675 006b 0100     		.2byte	0x1
 7676 006d 51       		.byte	0x51
 7677 006e 40000000 		.4byte	.LVL4
 7678 0072 42000000 		.4byte	.LVL5
 7679 0076 0600     		.2byte	0x6
 7680 0078 73       		.byte	0x73
 7681 0079 00       		.sleb128 0
 7682 007a 08       		.byte	0x8
 7683 007b FF       		.byte	0xff
 7684 007c 1A       		.byte	0x1a
 7685 007d 9F       		.byte	0x9f
 7686 007e 46000000 		.4byte	.LVL6
 7687 0082 56000000 		.4byte	.LVL7
 7688 0086 0100     		.2byte	0x1
 7689 0088 53       		.byte	0x53
 7690 0089 56000000 		.4byte	.LVL7
 7691 008d 5A000000 		.4byte	.LVL8
 7692 0091 0200     		.2byte	0x2
 7693 0093 71       		.byte	0x71
 7694 0094 7C       		.sleb128 -4
 7695 0095 5A000000 		.4byte	.LVL8
 7696 0099 66000000 		.4byte	.LVL9
 7697 009d 0100     		.2byte	0x1
 7698 009f 53       		.byte	0x53
 7699 00a0 66000000 		.4byte	.LVL9
 7700 00a4 72000000 		.4byte	.LVL11
 7701 00a8 1E00     		.2byte	0x1e
 7702 00aa 71       		.byte	0x71
 7703 00ab 7C       		.sleb128 -4
 7704 00ac 06       		.byte	0x6
 7705 00ad 31       		.byte	0x31
 7706 00ae 24       		.byte	0x24
 7707 00af 4B       		.byte	0x4b
 7708 00b0 71       		.byte	0x71
 7709 00b1 7C       		.sleb128 -4
 7710 00b2 06       		.byte	0x6
 7711 00b3 08       		.byte	0x8
 7712 00b4 80       		.byte	0x80
ARM GAS  C:\Users\jo\AppData\Local\Temp\cc8AA3HA.s 			page 138


 7713 00b5 1A       		.byte	0x1a
 7714 00b6 71       		.byte	0x71
 7715 00b7 7C       		.sleb128 -4
 7716 00b8 06       		.byte	0x6
 7717 00b9 08       		.byte	0x8
 7718 00ba 80       		.byte	0x80
 7719 00bb 1A       		.byte	0x1a
 7720 00bc 30       		.byte	0x30
 7721 00bd 2E       		.byte	0x2e
 7722 00be 28       		.byte	0x28
 7723 00bf 0100     		.2byte	0x1
 7724 00c1 16       		.byte	0x16
 7725 00c2 13       		.byte	0x13
 7726 00c3 27       		.byte	0x27
 7727 00c4 08       		.byte	0x8
 7728 00c5 FF       		.byte	0xff
 7729 00c6 1A       		.byte	0x1a
 7730 00c7 9F       		.byte	0x9f
 7731 00c8 80000000 		.4byte	.LVL12
 7732 00cc 88000000 		.4byte	.LVL13
 7733 00d0 0100     		.2byte	0x1
 7734 00d2 50       		.byte	0x50
 7735 00d3 88000000 		.4byte	.LVL13
 7736 00d7 90000000 		.4byte	.LVL14
 7737 00db 0600     		.2byte	0x6
 7738 00dd 70       		.byte	0x70
 7739 00de 00       		.sleb128 0
 7740 00df 71       		.byte	0x71
 7741 00e0 00       		.sleb128 0
 7742 00e1 27       		.byte	0x27
 7743 00e2 9F       		.byte	0x9f
 7744 00e3 90000000 		.4byte	.LVL14
 7745 00e7 98000000 		.4byte	.LVL15
 7746 00eb 0900     		.2byte	0x9
 7747 00ed 70       		.byte	0x70
 7748 00ee 00       		.sleb128 0
 7749 00ef 71       		.byte	0x71
 7750 00f0 00       		.sleb128 0
 7751 00f1 27       		.byte	0x27
 7752 00f2 72       		.byte	0x72
 7753 00f3 00       		.sleb128 0
 7754 00f4 27       		.byte	0x27
 7755 00f5 9F       		.byte	0x9f
 7756 00f6 98000000 		.4byte	.LVL15
 7757 00fa 9C000000 		.4byte	.LVL16
 7758 00fe 0C00     		.2byte	0xc
 7759 0100 70       		.byte	0x70
 7760 0101 00       		.sleb128 0
 7761 0102 71       		.byte	0x71
 7762 0103 00       		.sleb128 0
 7763 0104 27       		.byte	0x27
 7764 0105 72       		.byte	0x72
 7765 0106 00       		.sleb128 0
 7766 0107 27       		.byte	0x27
 7767 0108 73       		.byte	0x73
 7768 0109 00       		.sleb128 0
 7769 010a 27       		.byte	0x27
ARM GAS  C:\Users\jo\AppData\Local\Temp\cc8AA3HA.s 			page 139


 7770 010b 9F       		.byte	0x9f
 7771 010c 9C000000 		.4byte	.LVL16
 7772 0110 9E000000 		.4byte	.LVL17
 7773 0114 1A00     		.2byte	0x1a
 7774 0116 08       		.byte	0x8
 7775 0117 FF       		.byte	0xff
 7776 0118 77       		.byte	0x77
 7777 0119 00       		.sleb128 0
 7778 011a 06       		.byte	0x6
 7779 011b 1C       		.byte	0x1c
 7780 011c 32       		.byte	0x32
 7781 011d 24       		.byte	0x24
 7782 011e 91       		.byte	0x91
 7783 011f 00       		.sleb128 0
 7784 0120 22       		.byte	0x22
 7785 0121 0A       		.byte	0xa
 7786 0122 2808     		.2byte	0x828
 7787 0124 1C       		.byte	0x1c
 7788 0125 06       		.byte	0x6
 7789 0126 71       		.byte	0x71
 7790 0127 00       		.sleb128 0
 7791 0128 27       		.byte	0x27
 7792 0129 72       		.byte	0x72
 7793 012a 00       		.sleb128 0
 7794 012b 27       		.byte	0x27
 7795 012c 73       		.byte	0x73
 7796 012d 00       		.sleb128 0
 7797 012e 27       		.byte	0x27
 7798 012f 9F       		.byte	0x9f
 7799 0130 9E000000 		.4byte	.LVL17
 7800 0134 A2000000 		.4byte	.LVL18
 7801 0138 4000     		.2byte	0x40
 7802 013a 08       		.byte	0x8
 7803 013b FF       		.byte	0xff
 7804 013c 77       		.byte	0x77
 7805 013d 00       		.sleb128 0
 7806 013e 06       		.byte	0x6
 7807 013f 1C       		.byte	0x1c
 7808 0140 32       		.byte	0x32
 7809 0141 24       		.byte	0x24
 7810 0142 91       		.byte	0x91
 7811 0143 00       		.sleb128 0
 7812 0144 22       		.byte	0x22
 7813 0145 0A       		.byte	0xa
 7814 0146 2808     		.2byte	0x828
 7815 0148 1C       		.byte	0x1c
 7816 0149 06       		.byte	0x6
 7817 014a 37       		.byte	0x37
 7818 014b 26       		.byte	0x26
 7819 014c 08       		.byte	0x8
 7820 014d FF       		.byte	0xff
 7821 014e 77       		.byte	0x77
 7822 014f 00       		.sleb128 0
 7823 0150 06       		.byte	0x6
 7824 0151 1C       		.byte	0x1c
 7825 0152 32       		.byte	0x32
 7826 0153 24       		.byte	0x24
ARM GAS  C:\Users\jo\AppData\Local\Temp\cc8AA3HA.s 			page 140


 7827 0154 91       		.byte	0x91
 7828 0155 00       		.sleb128 0
 7829 0156 22       		.byte	0x22
 7830 0157 0A       		.byte	0xa
 7831 0158 2808     		.2byte	0x828
 7832 015a 1C       		.byte	0x1c
 7833 015b 06       		.byte	0x6
 7834 015c 31       		.byte	0x31
 7835 015d 24       		.byte	0x24
 7836 015e 21       		.byte	0x21
 7837 015f 08       		.byte	0x8
 7838 0160 FF       		.byte	0xff
 7839 0161 1A       		.byte	0x1a
 7840 0162 08       		.byte	0x8
 7841 0163 FF       		.byte	0xff
 7842 0164 77       		.byte	0x77
 7843 0165 00       		.sleb128 0
 7844 0166 06       		.byte	0x6
 7845 0167 1C       		.byte	0x1c
 7846 0168 32       		.byte	0x32
 7847 0169 24       		.byte	0x24
 7848 016a 91       		.byte	0x91
 7849 016b 00       		.sleb128 0
 7850 016c 22       		.byte	0x22
 7851 016d 0A       		.byte	0xa
 7852 016e 2808     		.2byte	0x828
 7853 0170 1C       		.byte	0x1c
 7854 0171 06       		.byte	0x6
 7855 0172 27       		.byte	0x27
 7856 0173 72       		.byte	0x72
 7857 0174 00       		.sleb128 0
 7858 0175 27       		.byte	0x27
 7859 0176 73       		.byte	0x73
 7860 0177 00       		.sleb128 0
 7861 0178 27       		.byte	0x27
 7862 0179 9F       		.byte	0x9f
 7863 017a A2000000 		.4byte	.LVL18
 7864 017e A8000000 		.4byte	.LVL20
 7865 0182 9600     		.2byte	0x96
 7866 0184 08       		.byte	0x8
 7867 0185 FF       		.byte	0xff
 7868 0186 77       		.byte	0x77
 7869 0187 00       		.sleb128 0
 7870 0188 06       		.byte	0x6
 7871 0189 1C       		.byte	0x1c
 7872 018a 32       		.byte	0x32
 7873 018b 24       		.byte	0x24
 7874 018c 91       		.byte	0x91
 7875 018d 00       		.sleb128 0
 7876 018e 22       		.byte	0x22
 7877 018f 0A       		.byte	0xa
 7878 0190 2808     		.2byte	0x828
 7879 0192 1C       		.byte	0x1c
 7880 0193 06       		.byte	0x6
 7881 0194 37       		.byte	0x37
 7882 0195 26       		.byte	0x26
 7883 0196 08       		.byte	0x8
ARM GAS  C:\Users\jo\AppData\Local\Temp\cc8AA3HA.s 			page 141


 7884 0197 FF       		.byte	0xff
 7885 0198 77       		.byte	0x77
 7886 0199 00       		.sleb128 0
 7887 019a 06       		.byte	0x6
 7888 019b 1C       		.byte	0x1c
 7889 019c 32       		.byte	0x32
 7890 019d 24       		.byte	0x24
 7891 019e 91       		.byte	0x91
 7892 019f 00       		.sleb128 0
 7893 01a0 22       		.byte	0x22
 7894 01a1 0A       		.byte	0xa
 7895 01a2 2808     		.2byte	0x828
 7896 01a4 1C       		.byte	0x1c
 7897 01a5 06       		.byte	0x6
 7898 01a6 31       		.byte	0x31
 7899 01a7 24       		.byte	0x24
 7900 01a8 21       		.byte	0x21
 7901 01a9 08       		.byte	0x8
 7902 01aa FF       		.byte	0xff
 7903 01ab 1A       		.byte	0x1a
 7904 01ac 08       		.byte	0x8
 7905 01ad FF       		.byte	0xff
 7906 01ae 77       		.byte	0x77
 7907 01af 00       		.sleb128 0
 7908 01b0 06       		.byte	0x6
 7909 01b1 1C       		.byte	0x1c
 7910 01b2 32       		.byte	0x32
 7911 01b3 24       		.byte	0x24
 7912 01b4 91       		.byte	0x91
 7913 01b5 00       		.sleb128 0
 7914 01b6 22       		.byte	0x22
 7915 01b7 0A       		.byte	0xa
 7916 01b8 2808     		.2byte	0x828
 7917 01ba 1C       		.byte	0x1c
 7918 01bb 06       		.byte	0x6
 7919 01bc 37       		.byte	0x37
 7920 01bd 26       		.byte	0x26
 7921 01be 08       		.byte	0x8
 7922 01bf FF       		.byte	0xff
 7923 01c0 77       		.byte	0x77
 7924 01c1 00       		.sleb128 0
 7925 01c2 06       		.byte	0x6
 7926 01c3 1C       		.byte	0x1c
 7927 01c4 32       		.byte	0x32
 7928 01c5 24       		.byte	0x24
 7929 01c6 91       		.byte	0x91
 7930 01c7 00       		.sleb128 0
 7931 01c8 22       		.byte	0x22
 7932 01c9 0A       		.byte	0xa
 7933 01ca 2808     		.2byte	0x828
 7934 01cc 1C       		.byte	0x1c
 7935 01cd 06       		.byte	0x6
 7936 01ce 31       		.byte	0x31
 7937 01cf 24       		.byte	0x24
 7938 01d0 21       		.byte	0x21
 7939 01d1 08       		.byte	0x8
 7940 01d2 FF       		.byte	0xff
ARM GAS  C:\Users\jo\AppData\Local\Temp\cc8AA3HA.s 			page 142


 7941 01d3 1A       		.byte	0x1a
 7942 01d4 37       		.byte	0x37
 7943 01d5 25       		.byte	0x25
 7944 01d6 08       		.byte	0x8
 7945 01d7 FF       		.byte	0xff
 7946 01d8 77       		.byte	0x77
 7947 01d9 00       		.sleb128 0
 7948 01da 06       		.byte	0x6
 7949 01db 1C       		.byte	0x1c
 7950 01dc 32       		.byte	0x32
 7951 01dd 24       		.byte	0x24
 7952 01de 91       		.byte	0x91
 7953 01df 00       		.sleb128 0
 7954 01e0 22       		.byte	0x22
 7955 01e1 0A       		.byte	0xa
 7956 01e2 2808     		.2byte	0x828
 7957 01e4 1C       		.byte	0x1c
 7958 01e5 06       		.byte	0x6
 7959 01e6 37       		.byte	0x37
 7960 01e7 26       		.byte	0x26
 7961 01e8 08       		.byte	0x8
 7962 01e9 FF       		.byte	0xff
 7963 01ea 77       		.byte	0x77
 7964 01eb 00       		.sleb128 0
 7965 01ec 06       		.byte	0x6
 7966 01ed 1C       		.byte	0x1c
 7967 01ee 32       		.byte	0x32
 7968 01ef 24       		.byte	0x24
 7969 01f0 91       		.byte	0x91
 7970 01f1 00       		.sleb128 0
 7971 01f2 22       		.byte	0x22
 7972 01f3 0A       		.byte	0xa
 7973 01f4 2808     		.2byte	0x828
 7974 01f6 1C       		.byte	0x1c
 7975 01f7 06       		.byte	0x6
 7976 01f8 31       		.byte	0x31
 7977 01f9 24       		.byte	0x24
 7978 01fa 21       		.byte	0x21
 7979 01fb 08       		.byte	0x8
 7980 01fc FF       		.byte	0xff
 7981 01fd 1A       		.byte	0x1a
 7982 01fe 31       		.byte	0x31
 7983 01ff 24       		.byte	0x24
 7984 0200 21       		.byte	0x21
 7985 0201 08       		.byte	0x8
 7986 0202 FF       		.byte	0xff
 7987 0203 1A       		.byte	0x1a
 7988 0204 27       		.byte	0x27
 7989 0205 08       		.byte	0x8
 7990 0206 FF       		.byte	0xff
 7991 0207 77       		.byte	0x77
 7992 0208 00       		.sleb128 0
 7993 0209 06       		.byte	0x6
 7994 020a 1C       		.byte	0x1c
 7995 020b 32       		.byte	0x32
 7996 020c 24       		.byte	0x24
 7997 020d 91       		.byte	0x91
ARM GAS  C:\Users\jo\AppData\Local\Temp\cc8AA3HA.s 			page 143


 7998 020e 00       		.sleb128 0
 7999 020f 22       		.byte	0x22
 8000 0210 0A       		.byte	0xa
 8001 0211 2808     		.2byte	0x828
 8002 0213 1C       		.byte	0x1c
 8003 0214 06       		.byte	0x6
 8004 0215 27       		.byte	0x27
 8005 0216 73       		.byte	0x73
 8006 0217 00       		.sleb128 0
 8007 0218 27       		.byte	0x27
 8008 0219 9F       		.byte	0x9f
 8009 021a A8000000 		.4byte	.LVL20
 8010 021e AC000000 		.4byte	.LVL21
 8011 0222 4C01     		.2byte	0x14c
 8012 0224 08       		.byte	0x8
 8013 0225 FF       		.byte	0xff
 8014 0226 77       		.byte	0x77
 8015 0227 00       		.sleb128 0
 8016 0228 06       		.byte	0x6
 8017 0229 1C       		.byte	0x1c
 8018 022a 32       		.byte	0x32
 8019 022b 24       		.byte	0x24
 8020 022c 91       		.byte	0x91
 8021 022d 00       		.sleb128 0
 8022 022e 22       		.byte	0x22
 8023 022f 0A       		.byte	0xa
 8024 0230 2808     		.2byte	0x828
 8025 0232 1C       		.byte	0x1c
 8026 0233 06       		.byte	0x6
 8027 0234 37       		.byte	0x37
 8028 0235 26       		.byte	0x26
 8029 0236 08       		.byte	0x8
 8030 0237 FF       		.byte	0xff
 8031 0238 77       		.byte	0x77
 8032 0239 00       		.sleb128 0
 8033 023a 06       		.byte	0x6
 8034 023b 1C       		.byte	0x1c
 8035 023c 32       		.byte	0x32
 8036 023d 24       		.byte	0x24
 8037 023e 91       		.byte	0x91
 8038 023f 00       		.sleb128 0
 8039 0240 22       		.byte	0x22
 8040 0241 0A       		.byte	0xa
 8041 0242 2808     		.2byte	0x828
 8042 0244 1C       		.byte	0x1c
 8043 0245 06       		.byte	0x6
 8044 0246 31       		.byte	0x31
 8045 0247 24       		.byte	0x24
 8046 0248 21       		.byte	0x21
 8047 0249 08       		.byte	0x8
 8048 024a FF       		.byte	0xff
 8049 024b 1A       		.byte	0x1a
 8050 024c 08       		.byte	0x8
 8051 024d FF       		.byte	0xff
 8052 024e 77       		.byte	0x77
 8053 024f 00       		.sleb128 0
 8054 0250 06       		.byte	0x6
ARM GAS  C:\Users\jo\AppData\Local\Temp\cc8AA3HA.s 			page 144


 8055 0251 1C       		.byte	0x1c
 8056 0252 32       		.byte	0x32
 8057 0253 24       		.byte	0x24
 8058 0254 91       		.byte	0x91
 8059 0255 00       		.sleb128 0
 8060 0256 22       		.byte	0x22
 8061 0257 0A       		.byte	0xa
 8062 0258 2808     		.2byte	0x828
 8063 025a 1C       		.byte	0x1c
 8064 025b 06       		.byte	0x6
 8065 025c 37       		.byte	0x37
 8066 025d 26       		.byte	0x26
 8067 025e 08       		.byte	0x8
 8068 025f FF       		.byte	0xff
 8069 0260 77       		.byte	0x77
 8070 0261 00       		.sleb128 0
 8071 0262 06       		.byte	0x6
 8072 0263 1C       		.byte	0x1c
 8073 0264 32       		.byte	0x32
 8074 0265 24       		.byte	0x24
 8075 0266 91       		.byte	0x91
 8076 0267 00       		.sleb128 0
 8077 0268 22       		.byte	0x22
 8078 0269 0A       		.byte	0xa
 8079 026a 2808     		.2byte	0x828
 8080 026c 1C       		.byte	0x1c
 8081 026d 06       		.byte	0x6
 8082 026e 31       		.byte	0x31
 8083 026f 24       		.byte	0x24
 8084 0270 21       		.byte	0x21
 8085 0271 08       		.byte	0x8
 8086 0272 FF       		.byte	0xff
 8087 0273 1A       		.byte	0x1a
 8088 0274 37       		.byte	0x37
 8089 0275 25       		.byte	0x25
 8090 0276 08       		.byte	0x8
 8091 0277 FF       		.byte	0xff
 8092 0278 77       		.byte	0x77
 8093 0279 00       		.sleb128 0
 8094 027a 06       		.byte	0x6
 8095 027b 1C       		.byte	0x1c
 8096 027c 32       		.byte	0x32
 8097 027d 24       		.byte	0x24
 8098 027e 91       		.byte	0x91
 8099 027f 00       		.sleb128 0
 8100 0280 22       		.byte	0x22
 8101 0281 0A       		.byte	0xa
 8102 0282 2808     		.2byte	0x828
 8103 0284 1C       		.byte	0x1c
 8104 0285 06       		.byte	0x6
 8105 0286 37       		.byte	0x37
 8106 0287 26       		.byte	0x26
 8107 0288 08       		.byte	0x8
 8108 0289 FF       		.byte	0xff
 8109 028a 77       		.byte	0x77
 8110 028b 00       		.sleb128 0
 8111 028c 06       		.byte	0x6
ARM GAS  C:\Users\jo\AppData\Local\Temp\cc8AA3HA.s 			page 145


 8112 028d 1C       		.byte	0x1c
 8113 028e 32       		.byte	0x32
 8114 028f 24       		.byte	0x24
 8115 0290 91       		.byte	0x91
 8116 0291 00       		.sleb128 0
 8117 0292 22       		.byte	0x22
 8118 0293 0A       		.byte	0xa
 8119 0294 2808     		.2byte	0x828
 8120 0296 1C       		.byte	0x1c
 8121 0297 06       		.byte	0x6
 8122 0298 31       		.byte	0x31
 8123 0299 24       		.byte	0x24
 8124 029a 21       		.byte	0x21
 8125 029b 08       		.byte	0x8
 8126 029c FF       		.byte	0xff
 8127 029d 1A       		.byte	0x1a
 8128 029e 31       		.byte	0x31
 8129 029f 24       		.byte	0x24
 8130 02a0 21       		.byte	0x21
 8131 02a1 08       		.byte	0x8
 8132 02a2 FF       		.byte	0xff
 8133 02a3 1A       		.byte	0x1a
 8134 02a4 27       		.byte	0x27
 8135 02a5 08       		.byte	0x8
 8136 02a6 FF       		.byte	0xff
 8137 02a7 77       		.byte	0x77
 8138 02a8 00       		.sleb128 0
 8139 02a9 06       		.byte	0x6
 8140 02aa 1C       		.byte	0x1c
 8141 02ab 32       		.byte	0x32
 8142 02ac 24       		.byte	0x24
 8143 02ad 91       		.byte	0x91
 8144 02ae 00       		.sleb128 0
 8145 02af 22       		.byte	0x22
 8146 02b0 0A       		.byte	0xa
 8147 02b1 2808     		.2byte	0x828
 8148 02b3 1C       		.byte	0x1c
 8149 02b4 06       		.byte	0x6
 8150 02b5 37       		.byte	0x37
 8151 02b6 26       		.byte	0x26
 8152 02b7 08       		.byte	0x8
 8153 02b8 FF       		.byte	0xff
 8154 02b9 77       		.byte	0x77
 8155 02ba 00       		.sleb128 0
 8156 02bb 06       		.byte	0x6
 8157 02bc 1C       		.byte	0x1c
 8158 02bd 32       		.byte	0x32
 8159 02be 24       		.byte	0x24
 8160 02bf 91       		.byte	0x91
 8161 02c0 00       		.sleb128 0
 8162 02c1 22       		.byte	0x22
 8163 02c2 0A       		.byte	0xa
 8164 02c3 2808     		.2byte	0x828
 8165 02c5 1C       		.byte	0x1c
 8166 02c6 06       		.byte	0x6
 8167 02c7 31       		.byte	0x31
 8168 02c8 24       		.byte	0x24
ARM GAS  C:\Users\jo\AppData\Local\Temp\cc8AA3HA.s 			page 146


 8169 02c9 21       		.byte	0x21
 8170 02ca 08       		.byte	0x8
 8171 02cb FF       		.byte	0xff
 8172 02cc 1A       		.byte	0x1a
 8173 02cd 37       		.byte	0x37
 8174 02ce 25       		.byte	0x25
 8175 02cf 08       		.byte	0x8
 8176 02d0 FF       		.byte	0xff
 8177 02d1 77       		.byte	0x77
 8178 02d2 00       		.sleb128 0
 8179 02d3 06       		.byte	0x6
 8180 02d4 1C       		.byte	0x1c
 8181 02d5 32       		.byte	0x32
 8182 02d6 24       		.byte	0x24
 8183 02d7 91       		.byte	0x91
 8184 02d8 00       		.sleb128 0
 8185 02d9 22       		.byte	0x22
 8186 02da 0A       		.byte	0xa
 8187 02db 2808     		.2byte	0x828
 8188 02dd 1C       		.byte	0x1c
 8189 02de 06       		.byte	0x6
 8190 02df 37       		.byte	0x37
 8191 02e0 26       		.byte	0x26
 8192 02e1 08       		.byte	0x8
 8193 02e2 FF       		.byte	0xff
 8194 02e3 77       		.byte	0x77
 8195 02e4 00       		.sleb128 0
 8196 02e5 06       		.byte	0x6
 8197 02e6 1C       		.byte	0x1c
 8198 02e7 32       		.byte	0x32
 8199 02e8 24       		.byte	0x24
 8200 02e9 91       		.byte	0x91
 8201 02ea 00       		.sleb128 0
 8202 02eb 22       		.byte	0x22
 8203 02ec 0A       		.byte	0xa
 8204 02ed 2808     		.2byte	0x828
 8205 02ef 1C       		.byte	0x1c
 8206 02f0 06       		.byte	0x6
 8207 02f1 31       		.byte	0x31
 8208 02f2 24       		.byte	0x24
 8209 02f3 21       		.byte	0x21
 8210 02f4 08       		.byte	0x8
 8211 02f5 FF       		.byte	0xff
 8212 02f6 1A       		.byte	0x1a
 8213 02f7 31       		.byte	0x31
 8214 02f8 24       		.byte	0x24
 8215 02f9 21       		.byte	0x21
 8216 02fa 08       		.byte	0x8
 8217 02fb FF       		.byte	0xff
 8218 02fc 1A       		.byte	0x1a
 8219 02fd 37       		.byte	0x37
 8220 02fe 25       		.byte	0x25
 8221 02ff 08       		.byte	0x8
 8222 0300 FF       		.byte	0xff
 8223 0301 77       		.byte	0x77
 8224 0302 00       		.sleb128 0
 8225 0303 06       		.byte	0x6
ARM GAS  C:\Users\jo\AppData\Local\Temp\cc8AA3HA.s 			page 147


 8226 0304 1C       		.byte	0x1c
 8227 0305 32       		.byte	0x32
 8228 0306 24       		.byte	0x24
 8229 0307 91       		.byte	0x91
 8230 0308 00       		.sleb128 0
 8231 0309 22       		.byte	0x22
 8232 030a 0A       		.byte	0xa
 8233 030b 2808     		.2byte	0x828
 8234 030d 1C       		.byte	0x1c
 8235 030e 06       		.byte	0x6
 8236 030f 37       		.byte	0x37
 8237 0310 26       		.byte	0x26
 8238 0311 08       		.byte	0x8
 8239 0312 FF       		.byte	0xff
 8240 0313 77       		.byte	0x77
 8241 0314 00       		.sleb128 0
 8242 0315 06       		.byte	0x6
 8243 0316 1C       		.byte	0x1c
 8244 0317 32       		.byte	0x32
 8245 0318 24       		.byte	0x24
 8246 0319 91       		.byte	0x91
 8247 031a 00       		.sleb128 0
 8248 031b 22       		.byte	0x22
 8249 031c 0A       		.byte	0xa
 8250 031d 2808     		.2byte	0x828
 8251 031f 1C       		.byte	0x1c
 8252 0320 06       		.byte	0x6
 8253 0321 31       		.byte	0x31
 8254 0322 24       		.byte	0x24
 8255 0323 21       		.byte	0x21
 8256 0324 08       		.byte	0x8
 8257 0325 FF       		.byte	0xff
 8258 0326 1A       		.byte	0x1a
 8259 0327 37       		.byte	0x37
 8260 0328 25       		.byte	0x25
 8261 0329 08       		.byte	0x8
 8262 032a FF       		.byte	0xff
 8263 032b 77       		.byte	0x77
 8264 032c 00       		.sleb128 0
 8265 032d 06       		.byte	0x6
 8266 032e 1C       		.byte	0x1c
 8267 032f 32       		.byte	0x32
 8268 0330 24       		.byte	0x24
 8269 0331 91       		.byte	0x91
 8270 0332 00       		.sleb128 0
 8271 0333 22       		.byte	0x22
 8272 0334 0A       		.byte	0xa
 8273 0335 2808     		.2byte	0x828
 8274 0337 1C       		.byte	0x1c
 8275 0338 06       		.byte	0x6
 8276 0339 37       		.byte	0x37
 8277 033a 26       		.byte	0x26
 8278 033b 08       		.byte	0x8
 8279 033c FF       		.byte	0xff
 8280 033d 77       		.byte	0x77
 8281 033e 00       		.sleb128 0
 8282 033f 06       		.byte	0x6
ARM GAS  C:\Users\jo\AppData\Local\Temp\cc8AA3HA.s 			page 148


 8283 0340 1C       		.byte	0x1c
 8284 0341 32       		.byte	0x32
 8285 0342 24       		.byte	0x24
 8286 0343 91       		.byte	0x91
 8287 0344 00       		.sleb128 0
 8288 0345 22       		.byte	0x22
 8289 0346 0A       		.byte	0xa
 8290 0347 2808     		.2byte	0x828
 8291 0349 1C       		.byte	0x1c
 8292 034a 06       		.byte	0x6
 8293 034b 31       		.byte	0x31
 8294 034c 24       		.byte	0x24
 8295 034d 21       		.byte	0x21
 8296 034e 08       		.byte	0x8
 8297 034f FF       		.byte	0xff
 8298 0350 1A       		.byte	0x1a
 8299 0351 31       		.byte	0x31
 8300 0352 24       		.byte	0x24
 8301 0353 21       		.byte	0x21
 8302 0354 08       		.byte	0x8
 8303 0355 FF       		.byte	0xff
 8304 0356 1A       		.byte	0x1a
 8305 0357 31       		.byte	0x31
 8306 0358 24       		.byte	0x24
 8307 0359 21       		.byte	0x21
 8308 035a 08       		.byte	0x8
 8309 035b FF       		.byte	0xff
 8310 035c 1A       		.byte	0x1a
 8311 035d 27       		.byte	0x27
 8312 035e 08       		.byte	0x8
 8313 035f FF       		.byte	0xff
 8314 0360 77       		.byte	0x77
 8315 0361 00       		.sleb128 0
 8316 0362 06       		.byte	0x6
 8317 0363 1C       		.byte	0x1c
 8318 0364 32       		.byte	0x32
 8319 0365 24       		.byte	0x24
 8320 0366 91       		.byte	0x91
 8321 0367 00       		.sleb128 0
 8322 0368 22       		.byte	0x22
 8323 0369 0A       		.byte	0xa
 8324 036a 2808     		.2byte	0x828
 8325 036c 1C       		.byte	0x1c
 8326 036d 06       		.byte	0x6
 8327 036e 27       		.byte	0x27
 8328 036f 9F       		.byte	0x9f
 8329 0370 AC000000 		.4byte	.LVL21
 8330 0374 C0000000 		.4byte	.LVL23
 8331 0378 0100     		.2byte	0x1
 8332 037a 53       		.byte	0x53
 8333 037b C0000000 		.4byte	.LVL23
 8334 037f F2000000 		.4byte	.LVL26
 8335 0383 5201     		.2byte	0x152
 8336 0385 08       		.byte	0x8
 8337 0386 FF       		.byte	0xff
 8338 0387 77       		.byte	0x77
 8339 0388 00       		.sleb128 0
ARM GAS  C:\Users\jo\AppData\Local\Temp\cc8AA3HA.s 			page 149


 8340 0389 06       		.byte	0x6
 8341 038a 1C       		.byte	0x1c
 8342 038b 32       		.byte	0x32
 8343 038c 24       		.byte	0x24
 8344 038d 91       		.byte	0x91
 8345 038e 00       		.sleb128 0
 8346 038f 22       		.byte	0x22
 8347 0390 0A       		.byte	0xa
 8348 0391 2808     		.2byte	0x828
 8349 0393 1C       		.byte	0x1c
 8350 0394 06       		.byte	0x6
 8351 0395 37       		.byte	0x37
 8352 0396 26       		.byte	0x26
 8353 0397 08       		.byte	0x8
 8354 0398 FF       		.byte	0xff
 8355 0399 77       		.byte	0x77
 8356 039a 00       		.sleb128 0
 8357 039b 06       		.byte	0x6
 8358 039c 1C       		.byte	0x1c
 8359 039d 32       		.byte	0x32
 8360 039e 24       		.byte	0x24
 8361 039f 91       		.byte	0x91
 8362 03a0 00       		.sleb128 0
 8363 03a1 22       		.byte	0x22
 8364 03a2 0A       		.byte	0xa
 8365 03a3 2808     		.2byte	0x828
 8366 03a5 1C       		.byte	0x1c
 8367 03a6 06       		.byte	0x6
 8368 03a7 31       		.byte	0x31
 8369 03a8 24       		.byte	0x24
 8370 03a9 21       		.byte	0x21
 8371 03aa 08       		.byte	0x8
 8372 03ab FF       		.byte	0xff
 8373 03ac 1A       		.byte	0x1a
 8374 03ad 08       		.byte	0x8
 8375 03ae FF       		.byte	0xff
 8376 03af 77       		.byte	0x77
 8377 03b0 00       		.sleb128 0
 8378 03b1 06       		.byte	0x6
 8379 03b2 1C       		.byte	0x1c
 8380 03b3 32       		.byte	0x32
 8381 03b4 24       		.byte	0x24
 8382 03b5 91       		.byte	0x91
 8383 03b6 00       		.sleb128 0
 8384 03b7 22       		.byte	0x22
 8385 03b8 0A       		.byte	0xa
 8386 03b9 2808     		.2byte	0x828
 8387 03bb 1C       		.byte	0x1c
 8388 03bc 06       		.byte	0x6
 8389 03bd 37       		.byte	0x37
 8390 03be 26       		.byte	0x26
 8391 03bf 08       		.byte	0x8
 8392 03c0 FF       		.byte	0xff
 8393 03c1 77       		.byte	0x77
 8394 03c2 00       		.sleb128 0
 8395 03c3 06       		.byte	0x6
 8396 03c4 1C       		.byte	0x1c
ARM GAS  C:\Users\jo\AppData\Local\Temp\cc8AA3HA.s 			page 150


 8397 03c5 32       		.byte	0x32
 8398 03c6 24       		.byte	0x24
 8399 03c7 91       		.byte	0x91
 8400 03c8 00       		.sleb128 0
 8401 03c9 22       		.byte	0x22
 8402 03ca 0A       		.byte	0xa
 8403 03cb 2808     		.2byte	0x828
 8404 03cd 1C       		.byte	0x1c
 8405 03ce 06       		.byte	0x6
 8406 03cf 31       		.byte	0x31
 8407 03d0 24       		.byte	0x24
 8408 03d1 21       		.byte	0x21
 8409 03d2 08       		.byte	0x8
 8410 03d3 FF       		.byte	0xff
 8411 03d4 1A       		.byte	0x1a
 8412 03d5 37       		.byte	0x37
 8413 03d6 25       		.byte	0x25
 8414 03d7 08       		.byte	0x8
 8415 03d8 FF       		.byte	0xff
 8416 03d9 77       		.byte	0x77
 8417 03da 00       		.sleb128 0
 8418 03db 06       		.byte	0x6
 8419 03dc 1C       		.byte	0x1c
 8420 03dd 32       		.byte	0x32
 8421 03de 24       		.byte	0x24
 8422 03df 91       		.byte	0x91
 8423 03e0 00       		.sleb128 0
 8424 03e1 22       		.byte	0x22
 8425 03e2 0A       		.byte	0xa
 8426 03e3 2808     		.2byte	0x828
 8427 03e5 1C       		.byte	0x1c
 8428 03e6 06       		.byte	0x6
 8429 03e7 37       		.byte	0x37
 8430 03e8 26       		.byte	0x26
 8431 03e9 08       		.byte	0x8
 8432 03ea FF       		.byte	0xff
 8433 03eb 77       		.byte	0x77
 8434 03ec 00       		.sleb128 0
 8435 03ed 06       		.byte	0x6
 8436 03ee 1C       		.byte	0x1c
 8437 03ef 32       		.byte	0x32
 8438 03f0 24       		.byte	0x24
 8439 03f1 91       		.byte	0x91
 8440 03f2 00       		.sleb128 0
 8441 03f3 22       		.byte	0x22
 8442 03f4 0A       		.byte	0xa
 8443 03f5 2808     		.2byte	0x828
 8444 03f7 1C       		.byte	0x1c
 8445 03f8 06       		.byte	0x6
 8446 03f9 31       		.byte	0x31
 8447 03fa 24       		.byte	0x24
 8448 03fb 21       		.byte	0x21
 8449 03fc 08       		.byte	0x8
 8450 03fd FF       		.byte	0xff
 8451 03fe 1A       		.byte	0x1a
 8452 03ff 31       		.byte	0x31
 8453 0400 24       		.byte	0x24
ARM GAS  C:\Users\jo\AppData\Local\Temp\cc8AA3HA.s 			page 151


 8454 0401 21       		.byte	0x21
 8455 0402 08       		.byte	0x8
 8456 0403 FF       		.byte	0xff
 8457 0404 1A       		.byte	0x1a
 8458 0405 27       		.byte	0x27
 8459 0406 08       		.byte	0x8
 8460 0407 FF       		.byte	0xff
 8461 0408 77       		.byte	0x77
 8462 0409 00       		.sleb128 0
 8463 040a 06       		.byte	0x6
 8464 040b 1C       		.byte	0x1c
 8465 040c 32       		.byte	0x32
 8466 040d 24       		.byte	0x24
 8467 040e 91       		.byte	0x91
 8468 040f 00       		.sleb128 0
 8469 0410 22       		.byte	0x22
 8470 0411 0A       		.byte	0xa
 8471 0412 2808     		.2byte	0x828
 8472 0414 1C       		.byte	0x1c
 8473 0415 06       		.byte	0x6
 8474 0416 37       		.byte	0x37
 8475 0417 26       		.byte	0x26
 8476 0418 08       		.byte	0x8
 8477 0419 FF       		.byte	0xff
 8478 041a 77       		.byte	0x77
 8479 041b 00       		.sleb128 0
 8480 041c 06       		.byte	0x6
 8481 041d 1C       		.byte	0x1c
 8482 041e 32       		.byte	0x32
 8483 041f 24       		.byte	0x24
 8484 0420 91       		.byte	0x91
 8485 0421 00       		.sleb128 0
 8486 0422 22       		.byte	0x22
 8487 0423 0A       		.byte	0xa
 8488 0424 2808     		.2byte	0x828
 8489 0426 1C       		.byte	0x1c
 8490 0427 06       		.byte	0x6
 8491 0428 31       		.byte	0x31
 8492 0429 24       		.byte	0x24
 8493 042a 21       		.byte	0x21
 8494 042b 08       		.byte	0x8
 8495 042c FF       		.byte	0xff
 8496 042d 1A       		.byte	0x1a
 8497 042e 37       		.byte	0x37
 8498 042f 25       		.byte	0x25
 8499 0430 08       		.byte	0x8
 8500 0431 FF       		.byte	0xff
 8501 0432 77       		.byte	0x77
 8502 0433 00       		.sleb128 0
 8503 0434 06       		.byte	0x6
 8504 0435 1C       		.byte	0x1c
 8505 0436 32       		.byte	0x32
 8506 0437 24       		.byte	0x24
 8507 0438 91       		.byte	0x91
 8508 0439 00       		.sleb128 0
 8509 043a 22       		.byte	0x22
 8510 043b 0A       		.byte	0xa
ARM GAS  C:\Users\jo\AppData\Local\Temp\cc8AA3HA.s 			page 152


 8511 043c 2808     		.2byte	0x828
 8512 043e 1C       		.byte	0x1c
 8513 043f 06       		.byte	0x6
 8514 0440 37       		.byte	0x37
 8515 0441 26       		.byte	0x26
 8516 0442 08       		.byte	0x8
 8517 0443 FF       		.byte	0xff
 8518 0444 77       		.byte	0x77
 8519 0445 00       		.sleb128 0
 8520 0446 06       		.byte	0x6
 8521 0447 1C       		.byte	0x1c
 8522 0448 32       		.byte	0x32
 8523 0449 24       		.byte	0x24
 8524 044a 91       		.byte	0x91
 8525 044b 00       		.sleb128 0
 8526 044c 22       		.byte	0x22
 8527 044d 0A       		.byte	0xa
 8528 044e 2808     		.2byte	0x828
 8529 0450 1C       		.byte	0x1c
 8530 0451 06       		.byte	0x6
 8531 0452 31       		.byte	0x31
 8532 0453 24       		.byte	0x24
 8533 0454 21       		.byte	0x21
 8534 0455 08       		.byte	0x8
 8535 0456 FF       		.byte	0xff
 8536 0457 1A       		.byte	0x1a
 8537 0458 31       		.byte	0x31
 8538 0459 24       		.byte	0x24
 8539 045a 21       		.byte	0x21
 8540 045b 08       		.byte	0x8
 8541 045c FF       		.byte	0xff
 8542 045d 1A       		.byte	0x1a
 8543 045e 37       		.byte	0x37
 8544 045f 25       		.byte	0x25
 8545 0460 08       		.byte	0x8
 8546 0461 FF       		.byte	0xff
 8547 0462 77       		.byte	0x77
 8548 0463 00       		.sleb128 0
 8549 0464 06       		.byte	0x6
 8550 0465 1C       		.byte	0x1c
 8551 0466 32       		.byte	0x32
 8552 0467 24       		.byte	0x24
 8553 0468 91       		.byte	0x91
 8554 0469 00       		.sleb128 0
 8555 046a 22       		.byte	0x22
 8556 046b 0A       		.byte	0xa
 8557 046c 2808     		.2byte	0x828
 8558 046e 1C       		.byte	0x1c
 8559 046f 06       		.byte	0x6
 8560 0470 37       		.byte	0x37
 8561 0471 26       		.byte	0x26
 8562 0472 08       		.byte	0x8
 8563 0473 FF       		.byte	0xff
 8564 0474 77       		.byte	0x77
 8565 0475 00       		.sleb128 0
 8566 0476 06       		.byte	0x6
 8567 0477 1C       		.byte	0x1c
ARM GAS  C:\Users\jo\AppData\Local\Temp\cc8AA3HA.s 			page 153


 8568 0478 32       		.byte	0x32
 8569 0479 24       		.byte	0x24
 8570 047a 91       		.byte	0x91
 8571 047b 00       		.sleb128 0
 8572 047c 22       		.byte	0x22
 8573 047d 0A       		.byte	0xa
 8574 047e 2808     		.2byte	0x828
 8575 0480 1C       		.byte	0x1c
 8576 0481 06       		.byte	0x6
 8577 0482 31       		.byte	0x31
 8578 0483 24       		.byte	0x24
 8579 0484 21       		.byte	0x21
 8580 0485 08       		.byte	0x8
 8581 0486 FF       		.byte	0xff
 8582 0487 1A       		.byte	0x1a
 8583 0488 37       		.byte	0x37
 8584 0489 25       		.byte	0x25
 8585 048a 08       		.byte	0x8
 8586 048b FF       		.byte	0xff
 8587 048c 77       		.byte	0x77
 8588 048d 00       		.sleb128 0
 8589 048e 06       		.byte	0x6
 8590 048f 1C       		.byte	0x1c
 8591 0490 32       		.byte	0x32
 8592 0491 24       		.byte	0x24
 8593 0492 91       		.byte	0x91
 8594 0493 00       		.sleb128 0
 8595 0494 22       		.byte	0x22
 8596 0495 0A       		.byte	0xa
 8597 0496 2808     		.2byte	0x828
 8598 0498 1C       		.byte	0x1c
 8599 0499 06       		.byte	0x6
 8600 049a 37       		.byte	0x37
 8601 049b 26       		.byte	0x26
 8602 049c 08       		.byte	0x8
 8603 049d FF       		.byte	0xff
 8604 049e 77       		.byte	0x77
 8605 049f 00       		.sleb128 0
 8606 04a0 06       		.byte	0x6
 8607 04a1 1C       		.byte	0x1c
 8608 04a2 32       		.byte	0x32
 8609 04a3 24       		.byte	0x24
 8610 04a4 91       		.byte	0x91
 8611 04a5 00       		.sleb128 0
 8612 04a6 22       		.byte	0x22
 8613 04a7 0A       		.byte	0xa
 8614 04a8 2808     		.2byte	0x828
 8615 04aa 1C       		.byte	0x1c
 8616 04ab 06       		.byte	0x6
 8617 04ac 31       		.byte	0x31
 8618 04ad 24       		.byte	0x24
 8619 04ae 21       		.byte	0x21
 8620 04af 08       		.byte	0x8
 8621 04b0 FF       		.byte	0xff
 8622 04b1 1A       		.byte	0x1a
 8623 04b2 31       		.byte	0x31
 8624 04b3 24       		.byte	0x24
ARM GAS  C:\Users\jo\AppData\Local\Temp\cc8AA3HA.s 			page 154


 8625 04b4 21       		.byte	0x21
 8626 04b5 08       		.byte	0x8
 8627 04b6 FF       		.byte	0xff
 8628 04b7 1A       		.byte	0x1a
 8629 04b8 31       		.byte	0x31
 8630 04b9 24       		.byte	0x24
 8631 04ba 21       		.byte	0x21
 8632 04bb 08       		.byte	0x8
 8633 04bc FF       		.byte	0xff
 8634 04bd 1A       		.byte	0x1a
 8635 04be 27       		.byte	0x27
 8636 04bf 08       		.byte	0x8
 8637 04c0 FF       		.byte	0xff
 8638 04c1 77       		.byte	0x77
 8639 04c2 00       		.sleb128 0
 8640 04c3 06       		.byte	0x6
 8641 04c4 1C       		.byte	0x1c
 8642 04c5 32       		.byte	0x32
 8643 04c6 24       		.byte	0x24
 8644 04c7 91       		.byte	0x91
 8645 04c8 00       		.sleb128 0
 8646 04c9 22       		.byte	0x22
 8647 04ca 0A       		.byte	0xa
 8648 04cb 2808     		.2byte	0x828
 8649 04cd 1C       		.byte	0x1c
 8650 04ce 06       		.byte	0x6
 8651 04cf 27       		.byte	0x27
 8652 04d0 72       		.byte	0x72
 8653 04d1 00       		.sleb128 0
 8654 04d2 27       		.byte	0x27
 8655 04d3 08       		.byte	0x8
 8656 04d4 63       		.byte	0x63
 8657 04d5 27       		.byte	0x27
 8658 04d6 9F       		.byte	0x9f
 8659 04d7 F2000000 		.4byte	.LVL26
 8660 04db FC000000 		.4byte	.LVL27
 8661 04df 0100     		.2byte	0x1
 8662 04e1 56       		.byte	0x56
 8663 04e2 FC000000 		.4byte	.LVL27
 8664 04e6 AE010000 		.4byte	.LVL29
 8665 04ea 0800     		.2byte	0x8
 8666 04ec 7B       		.byte	0x7b
 8667 04ed 00       		.sleb128 0
 8668 04ee 94       		.byte	0x94
 8669 04ef 01       		.byte	0x1
 8670 04f0 08       		.byte	0x8
 8671 04f1 FF       		.byte	0xff
 8672 04f2 1A       		.byte	0x1a
 8673 04f3 9F       		.byte	0x9f
 8674 04f4 B8010000 		.4byte	.LVL30
 8675 04f8 D2010000 		.4byte	.LVL32
 8676 04fc 0100     		.2byte	0x1
 8677 04fe 53       		.byte	0x53
 8678 04ff D2010000 		.4byte	.LVL32
 8679 0503 E0010000 		.4byte	.LVL34
 8680 0507 0900     		.2byte	0x9
 8681 0509 7D       		.byte	0x7d
ARM GAS  C:\Users\jo\AppData\Local\Temp\cc8AA3HA.s 			page 155


 8682 050a 00       		.sleb128 0
 8683 050b 06       		.byte	0x6
 8684 050c 94       		.byte	0x94
 8685 050d 01       		.byte	0x1
 8686 050e 08       		.byte	0x8
 8687 050f FF       		.byte	0xff
 8688 0510 1A       		.byte	0x1a
 8689 0511 9F       		.byte	0x9f
 8690 0512 E0010000 		.4byte	.LVL34
 8691 0516 0A020000 		.4byte	.LVL37
 8692 051a 0100     		.2byte	0x1
 8693 051c 56       		.byte	0x56
 8694 051d 0A020000 		.4byte	.LVL37
 8695 0521 12020000 		.4byte	.LVL39
 8696 0525 0800     		.2byte	0x8
 8697 0527 7B       		.byte	0x7b
 8698 0528 00       		.sleb128 0
 8699 0529 94       		.byte	0x94
 8700 052a 01       		.byte	0x1
 8701 052b 08       		.byte	0x8
 8702 052c FF       		.byte	0xff
 8703 052d 1A       		.byte	0x1a
 8704 052e 9F       		.byte	0x9f
 8705 052f 00000000 		.4byte	0
 8706 0533 00000000 		.4byte	0
 8707              	.LLST2:
 8708 0537 80000000 		.4byte	.LVL12
 8709 053b 88000000 		.4byte	.LVL13
 8710 053f 0100     		.2byte	0x1
 8711 0541 50       		.byte	0x50
 8712 0542 88000000 		.4byte	.LVL13
 8713 0546 90000000 		.4byte	.LVL14
 8714 054a 0100     		.2byte	0x1
 8715 054c 51       		.byte	0x51
 8716 054d 90000000 		.4byte	.LVL14
 8717 0551 98000000 		.4byte	.LVL15
 8718 0555 0100     		.2byte	0x1
 8719 0557 52       		.byte	0x52
 8720 0558 98000000 		.4byte	.LVL15
 8721 055c A6000000 		.4byte	.LVL19
 8722 0560 0100     		.2byte	0x1
 8723 0562 53       		.byte	0x53
 8724 0563 A6000000 		.4byte	.LVL19
 8725 0567 EE000000 		.4byte	.LVL25
 8726 056b 0600     		.2byte	0x6
 8727 056d 71       		.byte	0x71
 8728 056e 00       		.sleb128 0
 8729 056f 08       		.byte	0x8
 8730 0570 FF       		.byte	0xff
 8731 0571 1A       		.byte	0x1a
 8732 0572 9F       		.byte	0x9f
 8733 0573 EE000000 		.4byte	.LVL25
 8734 0577 F2000000 		.4byte	.LVL26
 8735 057b 7901     		.2byte	0x179
 8736 057d 08       		.byte	0x8
 8737 057e FF       		.byte	0xff
 8738 057f 77       		.byte	0x77
ARM GAS  C:\Users\jo\AppData\Local\Temp\cc8AA3HA.s 			page 156


 8739 0580 00       		.sleb128 0
 8740 0581 06       		.byte	0x6
 8741 0582 1C       		.byte	0x1c
 8742 0583 32       		.byte	0x32
 8743 0584 24       		.byte	0x24
 8744 0585 91       		.byte	0x91
 8745 0586 00       		.sleb128 0
 8746 0587 22       		.byte	0x22
 8747 0588 0A       		.byte	0xa
 8748 0589 2808     		.2byte	0x828
 8749 058b 1C       		.byte	0x1c
 8750 058c 06       		.byte	0x6
 8751 058d 37       		.byte	0x37
 8752 058e 26       		.byte	0x26
 8753 058f 08       		.byte	0x8
 8754 0590 FF       		.byte	0xff
 8755 0591 77       		.byte	0x77
 8756 0592 00       		.sleb128 0
 8757 0593 06       		.byte	0x6
 8758 0594 1C       		.byte	0x1c
 8759 0595 32       		.byte	0x32
 8760 0596 24       		.byte	0x24
 8761 0597 91       		.byte	0x91
 8762 0598 00       		.sleb128 0
 8763 0599 22       		.byte	0x22
 8764 059a 0A       		.byte	0xa
 8765 059b 2808     		.2byte	0x828
 8766 059d 1C       		.byte	0x1c
 8767 059e 06       		.byte	0x6
 8768 059f 31       		.byte	0x31
 8769 05a0 24       		.byte	0x24
 8770 05a1 21       		.byte	0x21
 8771 05a2 08       		.byte	0x8
 8772 05a3 FF       		.byte	0xff
 8773 05a4 1A       		.byte	0x1a
 8774 05a5 37       		.byte	0x37
 8775 05a6 25       		.byte	0x25
 8776 05a7 08       		.byte	0x8
 8777 05a8 FF       		.byte	0xff
 8778 05a9 77       		.byte	0x77
 8779 05aa 00       		.sleb128 0
 8780 05ab 06       		.byte	0x6
 8781 05ac 1C       		.byte	0x1c
 8782 05ad 32       		.byte	0x32
 8783 05ae 24       		.byte	0x24
 8784 05af 91       		.byte	0x91
 8785 05b0 00       		.sleb128 0
 8786 05b1 22       		.byte	0x22
 8787 05b2 0A       		.byte	0xa
 8788 05b3 2808     		.2byte	0x828
 8789 05b5 1C       		.byte	0x1c
 8790 05b6 06       		.byte	0x6
 8791 05b7 37       		.byte	0x37
 8792 05b8 26       		.byte	0x26
 8793 05b9 08       		.byte	0x8
 8794 05ba FF       		.byte	0xff
 8795 05bb 77       		.byte	0x77
ARM GAS  C:\Users\jo\AppData\Local\Temp\cc8AA3HA.s 			page 157


 8796 05bc 00       		.sleb128 0
 8797 05bd 06       		.byte	0x6
 8798 05be 1C       		.byte	0x1c
 8799 05bf 32       		.byte	0x32
 8800 05c0 24       		.byte	0x24
 8801 05c1 91       		.byte	0x91
 8802 05c2 00       		.sleb128 0
 8803 05c3 22       		.byte	0x22
 8804 05c4 0A       		.byte	0xa
 8805 05c5 2808     		.2byte	0x828
 8806 05c7 1C       		.byte	0x1c
 8807 05c8 06       		.byte	0x6
 8808 05c9 31       		.byte	0x31
 8809 05ca 24       		.byte	0x24
 8810 05cb 21       		.byte	0x21
 8811 05cc 08       		.byte	0x8
 8812 05cd FF       		.byte	0xff
 8813 05ce 1A       		.byte	0x1a
 8814 05cf 31       		.byte	0x31
 8815 05d0 24       		.byte	0x24
 8816 05d1 21       		.byte	0x21
 8817 05d2 08       		.byte	0x8
 8818 05d3 FF       		.byte	0xff
 8819 05d4 1A       		.byte	0x1a
 8820 05d5 37       		.byte	0x37
 8821 05d6 25       		.byte	0x25
 8822 05d7 08       		.byte	0x8
 8823 05d8 FF       		.byte	0xff
 8824 05d9 77       		.byte	0x77
 8825 05da 00       		.sleb128 0
 8826 05db 06       		.byte	0x6
 8827 05dc 1C       		.byte	0x1c
 8828 05dd 32       		.byte	0x32
 8829 05de 24       		.byte	0x24
 8830 05df 91       		.byte	0x91
 8831 05e0 00       		.sleb128 0
 8832 05e1 22       		.byte	0x22
 8833 05e2 0A       		.byte	0xa
 8834 05e3 2808     		.2byte	0x828
 8835 05e5 1C       		.byte	0x1c
 8836 05e6 06       		.byte	0x6
 8837 05e7 37       		.byte	0x37
 8838 05e8 26       		.byte	0x26
 8839 05e9 08       		.byte	0x8
 8840 05ea FF       		.byte	0xff
 8841 05eb 77       		.byte	0x77
 8842 05ec 00       		.sleb128 0
 8843 05ed 06       		.byte	0x6
 8844 05ee 1C       		.byte	0x1c
 8845 05ef 32       		.byte	0x32
 8846 05f0 24       		.byte	0x24
 8847 05f1 91       		.byte	0x91
 8848 05f2 00       		.sleb128 0
 8849 05f3 22       		.byte	0x22
 8850 05f4 0A       		.byte	0xa
 8851 05f5 2808     		.2byte	0x828
 8852 05f7 1C       		.byte	0x1c
ARM GAS  C:\Users\jo\AppData\Local\Temp\cc8AA3HA.s 			page 158


 8853 05f8 06       		.byte	0x6
 8854 05f9 31       		.byte	0x31
 8855 05fa 24       		.byte	0x24
 8856 05fb 21       		.byte	0x21
 8857 05fc 08       		.byte	0x8
 8858 05fd FF       		.byte	0xff
 8859 05fe 1A       		.byte	0x1a
 8860 05ff 37       		.byte	0x37
 8861 0600 25       		.byte	0x25
 8862 0601 08       		.byte	0x8
 8863 0602 FF       		.byte	0xff
 8864 0603 77       		.byte	0x77
 8865 0604 00       		.sleb128 0
 8866 0605 06       		.byte	0x6
 8867 0606 1C       		.byte	0x1c
 8868 0607 32       		.byte	0x32
 8869 0608 24       		.byte	0x24
 8870 0609 91       		.byte	0x91
 8871 060a 00       		.sleb128 0
 8872 060b 22       		.byte	0x22
 8873 060c 0A       		.byte	0xa
 8874 060d 2808     		.2byte	0x828
 8875 060f 1C       		.byte	0x1c
 8876 0610 06       		.byte	0x6
 8877 0611 37       		.byte	0x37
 8878 0612 26       		.byte	0x26
 8879 0613 08       		.byte	0x8
 8880 0614 FF       		.byte	0xff
 8881 0615 77       		.byte	0x77
 8882 0616 00       		.sleb128 0
 8883 0617 06       		.byte	0x6
 8884 0618 1C       		.byte	0x1c
 8885 0619 32       		.byte	0x32
 8886 061a 24       		.byte	0x24
 8887 061b 91       		.byte	0x91
 8888 061c 00       		.sleb128 0
 8889 061d 22       		.byte	0x22
 8890 061e 0A       		.byte	0xa
 8891 061f 2808     		.2byte	0x828
 8892 0621 1C       		.byte	0x1c
 8893 0622 06       		.byte	0x6
 8894 0623 31       		.byte	0x31
 8895 0624 24       		.byte	0x24
 8896 0625 21       		.byte	0x21
 8897 0626 08       		.byte	0x8
 8898 0627 FF       		.byte	0xff
 8899 0628 1A       		.byte	0x1a
 8900 0629 31       		.byte	0x31
 8901 062a 24       		.byte	0x24
 8902 062b 21       		.byte	0x21
 8903 062c 08       		.byte	0x8
 8904 062d FF       		.byte	0xff
 8905 062e 1A       		.byte	0x1a
 8906 062f 31       		.byte	0x31
 8907 0630 24       		.byte	0x24
 8908 0631 21       		.byte	0x21
 8909 0632 08       		.byte	0x8
ARM GAS  C:\Users\jo\AppData\Local\Temp\cc8AA3HA.s 			page 159


 8910 0633 FF       		.byte	0xff
 8911 0634 1A       		.byte	0x1a
 8912 0635 37       		.byte	0x37
 8913 0636 25       		.byte	0x25
 8914 0637 08       		.byte	0x8
 8915 0638 FF       		.byte	0xff
 8916 0639 77       		.byte	0x77
 8917 063a 00       		.sleb128 0
 8918 063b 06       		.byte	0x6
 8919 063c 1C       		.byte	0x1c
 8920 063d 32       		.byte	0x32
 8921 063e 24       		.byte	0x24
 8922 063f 91       		.byte	0x91
 8923 0640 00       		.sleb128 0
 8924 0641 22       		.byte	0x22
 8925 0642 0A       		.byte	0xa
 8926 0643 2808     		.2byte	0x828
 8927 0645 1C       		.byte	0x1c
 8928 0646 06       		.byte	0x6
 8929 0647 37       		.byte	0x37
 8930 0648 26       		.byte	0x26
 8931 0649 08       		.byte	0x8
 8932 064a FF       		.byte	0xff
 8933 064b 77       		.byte	0x77
 8934 064c 00       		.sleb128 0
 8935 064d 06       		.byte	0x6
 8936 064e 1C       		.byte	0x1c
 8937 064f 32       		.byte	0x32
 8938 0650 24       		.byte	0x24
 8939 0651 91       		.byte	0x91
 8940 0652 00       		.sleb128 0
 8941 0653 22       		.byte	0x22
 8942 0654 0A       		.byte	0xa
 8943 0655 2808     		.2byte	0x828
 8944 0657 1C       		.byte	0x1c
 8945 0658 06       		.byte	0x6
 8946 0659 31       		.byte	0x31
 8947 065a 24       		.byte	0x24
 8948 065b 21       		.byte	0x21
 8949 065c 08       		.byte	0x8
 8950 065d FF       		.byte	0xff
 8951 065e 1A       		.byte	0x1a
 8952 065f 37       		.byte	0x37
 8953 0660 25       		.byte	0x25
 8954 0661 08       		.byte	0x8
 8955 0662 FF       		.byte	0xff
 8956 0663 77       		.byte	0x77
 8957 0664 00       		.sleb128 0
 8958 0665 06       		.byte	0x6
 8959 0666 1C       		.byte	0x1c
 8960 0667 32       		.byte	0x32
 8961 0668 24       		.byte	0x24
 8962 0669 91       		.byte	0x91
 8963 066a 00       		.sleb128 0
 8964 066b 22       		.byte	0x22
 8965 066c 0A       		.byte	0xa
 8966 066d 2808     		.2byte	0x828
ARM GAS  C:\Users\jo\AppData\Local\Temp\cc8AA3HA.s 			page 160


 8967 066f 1C       		.byte	0x1c
 8968 0670 06       		.byte	0x6
 8969 0671 37       		.byte	0x37
 8970 0672 26       		.byte	0x26
 8971 0673 08       		.byte	0x8
 8972 0674 FF       		.byte	0xff
 8973 0675 77       		.byte	0x77
 8974 0676 00       		.sleb128 0
 8975 0677 06       		.byte	0x6
 8976 0678 1C       		.byte	0x1c
 8977 0679 32       		.byte	0x32
 8978 067a 24       		.byte	0x24
 8979 067b 91       		.byte	0x91
 8980 067c 00       		.sleb128 0
 8981 067d 22       		.byte	0x22
 8982 067e 0A       		.byte	0xa
 8983 067f 2808     		.2byte	0x828
 8984 0681 1C       		.byte	0x1c
 8985 0682 06       		.byte	0x6
 8986 0683 31       		.byte	0x31
 8987 0684 24       		.byte	0x24
 8988 0685 21       		.byte	0x21
 8989 0686 08       		.byte	0x8
 8990 0687 FF       		.byte	0xff
 8991 0688 1A       		.byte	0x1a
 8992 0689 31       		.byte	0x31
 8993 068a 24       		.byte	0x24
 8994 068b 21       		.byte	0x21
 8995 068c 08       		.byte	0x8
 8996 068d FF       		.byte	0xff
 8997 068e 1A       		.byte	0x1a
 8998 068f 37       		.byte	0x37
 8999 0690 25       		.byte	0x25
 9000 0691 08       		.byte	0x8
 9001 0692 FF       		.byte	0xff
 9002 0693 77       		.byte	0x77
 9003 0694 00       		.sleb128 0
 9004 0695 06       		.byte	0x6
 9005 0696 1C       		.byte	0x1c
 9006 0697 32       		.byte	0x32
 9007 0698 24       		.byte	0x24
 9008 0699 91       		.byte	0x91
 9009 069a 00       		.sleb128 0
 9010 069b 22       		.byte	0x22
 9011 069c 0A       		.byte	0xa
 9012 069d 2808     		.2byte	0x828
 9013 069f 1C       		.byte	0x1c
 9014 06a0 06       		.byte	0x6
 9015 06a1 37       		.byte	0x37
 9016 06a2 26       		.byte	0x26
 9017 06a3 08       		.byte	0x8
 9018 06a4 FF       		.byte	0xff
 9019 06a5 77       		.byte	0x77
 9020 06a6 00       		.sleb128 0
 9021 06a7 06       		.byte	0x6
 9022 06a8 1C       		.byte	0x1c
 9023 06a9 32       		.byte	0x32
ARM GAS  C:\Users\jo\AppData\Local\Temp\cc8AA3HA.s 			page 161


 9024 06aa 24       		.byte	0x24
 9025 06ab 91       		.byte	0x91
 9026 06ac 00       		.sleb128 0
 9027 06ad 22       		.byte	0x22
 9028 06ae 0A       		.byte	0xa
 9029 06af 2808     		.2byte	0x828
 9030 06b1 1C       		.byte	0x1c
 9031 06b2 06       		.byte	0x6
 9032 06b3 31       		.byte	0x31
 9033 06b4 24       		.byte	0x24
 9034 06b5 21       		.byte	0x21
 9035 06b6 08       		.byte	0x8
 9036 06b7 FF       		.byte	0xff
 9037 06b8 1A       		.byte	0x1a
 9038 06b9 37       		.byte	0x37
 9039 06ba 25       		.byte	0x25
 9040 06bb 08       		.byte	0x8
 9041 06bc FF       		.byte	0xff
 9042 06bd 77       		.byte	0x77
 9043 06be 00       		.sleb128 0
 9044 06bf 06       		.byte	0x6
 9045 06c0 1C       		.byte	0x1c
 9046 06c1 32       		.byte	0x32
 9047 06c2 24       		.byte	0x24
 9048 06c3 91       		.byte	0x91
 9049 06c4 00       		.sleb128 0
 9050 06c5 22       		.byte	0x22
 9051 06c6 0A       		.byte	0xa
 9052 06c7 2808     		.2byte	0x828
 9053 06c9 1C       		.byte	0x1c
 9054 06ca 06       		.byte	0x6
 9055 06cb 37       		.byte	0x37
 9056 06cc 26       		.byte	0x26
 9057 06cd 08       		.byte	0x8
 9058 06ce FF       		.byte	0xff
 9059 06cf 77       		.byte	0x77
 9060 06d0 00       		.sleb128 0
 9061 06d1 06       		.byte	0x6
 9062 06d2 1C       		.byte	0x1c
 9063 06d3 32       		.byte	0x32
 9064 06d4 24       		.byte	0x24
 9065 06d5 91       		.byte	0x91
 9066 06d6 00       		.sleb128 0
 9067 06d7 22       		.byte	0x22
 9068 06d8 0A       		.byte	0xa
 9069 06d9 2808     		.2byte	0x828
 9070 06db 1C       		.byte	0x1c
 9071 06dc 06       		.byte	0x6
 9072 06dd 31       		.byte	0x31
 9073 06de 24       		.byte	0x24
 9074 06df 21       		.byte	0x21
 9075 06e0 08       		.byte	0x8
 9076 06e1 FF       		.byte	0xff
 9077 06e2 1A       		.byte	0x1a
 9078 06e3 31       		.byte	0x31
 9079 06e4 24       		.byte	0x24
 9080 06e5 21       		.byte	0x21
ARM GAS  C:\Users\jo\AppData\Local\Temp\cc8AA3HA.s 			page 162


 9081 06e6 08       		.byte	0x8
 9082 06e7 FF       		.byte	0xff
 9083 06e8 1A       		.byte	0x1a
 9084 06e9 31       		.byte	0x31
 9085 06ea 24       		.byte	0x24
 9086 06eb 21       		.byte	0x21
 9087 06ec 08       		.byte	0x8
 9088 06ed FF       		.byte	0xff
 9089 06ee 1A       		.byte	0x1a
 9090 06ef 31       		.byte	0x31
 9091 06f0 24       		.byte	0x24
 9092 06f1 21       		.byte	0x21
 9093 06f2 08       		.byte	0x8
 9094 06f3 FF       		.byte	0xff
 9095 06f4 1A       		.byte	0x1a
 9096 06f5 9F       		.byte	0x9f
 9097 06f6 F2000000 		.4byte	.LVL26
 9098 06fa AE010000 		.4byte	.LVL29
 9099 06fe 3C00     		.2byte	0x3c
 9100 0700 7D       		.byte	0x7d
 9101 0701 00       		.sleb128 0
 9102 0702 06       		.byte	0x6
 9103 0703 94       		.byte	0x94
 9104 0704 01       		.byte	0x1
 9105 0705 08       		.byte	0x8
 9106 0706 FF       		.byte	0xff
 9107 0707 1A       		.byte	0x1a
 9108 0708 31       		.byte	0x31
 9109 0709 24       		.byte	0x24
 9110 070a 30       		.byte	0x30
 9111 070b 4B       		.byte	0x4b
 9112 070c 7D       		.byte	0x7d
 9113 070d 00       		.sleb128 0
 9114 070e 06       		.byte	0x6
 9115 070f 7D       		.byte	0x7d
 9116 0710 00       		.sleb128 0
 9117 0711 06       		.byte	0x6
 9118 0712 94       		.byte	0x94
 9119 0713 01       		.byte	0x1
 9120 0714 08       		.byte	0x8
 9121 0715 FF       		.byte	0xff
 9122 0716 1A       		.byte	0x1a
 9123 0717 09       		.byte	0x9
 9124 0718 FC       		.byte	0xfc
 9125 0719 24       		.byte	0x24
 9126 071a 33       		.byte	0x33
 9127 071b 25       		.byte	0x25
 9128 071c 30       		.byte	0x30
 9129 071d 2E       		.byte	0x2e
 9130 071e 28       		.byte	0x28
 9131 071f 0100     		.2byte	0x1
 9132 0721 16       		.byte	0x16
 9133 0722 13       		.byte	0x13
 9134 0723 7D       		.byte	0x7d
 9135 0724 00       		.sleb128 0
 9136 0725 06       		.byte	0x6
 9137 0726 94       		.byte	0x94
ARM GAS  C:\Users\jo\AppData\Local\Temp\cc8AA3HA.s 			page 163


 9138 0727 01       		.byte	0x1
 9139 0728 08       		.byte	0x8
 9140 0729 FF       		.byte	0xff
 9141 072a 1A       		.byte	0x1a
 9142 072b 09       		.byte	0x9
 9143 072c FC       		.byte	0xfc
 9144 072d 24       		.byte	0x24
 9145 072e 33       		.byte	0x33
 9146 072f 25       		.byte	0x25
 9147 0730 30       		.byte	0x30
 9148 0731 29       		.byte	0x29
 9149 0732 28       		.byte	0x28
 9150 0733 0100     		.2byte	0x1
 9151 0735 16       		.byte	0x16
 9152 0736 13       		.byte	0x13
 9153 0737 27       		.byte	0x27
 9154 0738 08       		.byte	0x8
 9155 0739 FF       		.byte	0xff
 9156 073a 1A       		.byte	0x1a
 9157 073b 9F       		.byte	0x9f
 9158 073c CA010000 		.4byte	.LVL31
 9159 0740 EE010000 		.4byte	.LVL35
 9160 0744 0100     		.2byte	0x1
 9161 0746 52       		.byte	0x52
 9162 0747 02020000 		.4byte	.LVL36
 9163 074b 0E020000 		.4byte	.LVL38
 9164 074f 3C00     		.2byte	0x3c
 9165 0751 7D       		.byte	0x7d
 9166 0752 00       		.sleb128 0
 9167 0753 06       		.byte	0x6
 9168 0754 94       		.byte	0x94
 9169 0755 01       		.byte	0x1
 9170 0756 08       		.byte	0x8
 9171 0757 FF       		.byte	0xff
 9172 0758 1A       		.byte	0x1a
 9173 0759 31       		.byte	0x31
 9174 075a 24       		.byte	0x24
 9175 075b 30       		.byte	0x30
 9176 075c 4B       		.byte	0x4b
 9177 075d 7D       		.byte	0x7d
 9178 075e 00       		.sleb128 0
 9179 075f 06       		.byte	0x6
 9180 0760 7D       		.byte	0x7d
 9181 0761 00       		.sleb128 0
 9182 0762 06       		.byte	0x6
 9183 0763 94       		.byte	0x94
 9184 0764 01       		.byte	0x1
 9185 0765 08       		.byte	0x8
 9186 0766 FF       		.byte	0xff
 9187 0767 1A       		.byte	0x1a
 9188 0768 09       		.byte	0x9
 9189 0769 FC       		.byte	0xfc
 9190 076a 24       		.byte	0x24
 9191 076b 33       		.byte	0x33
 9192 076c 25       		.byte	0x25
 9193 076d 30       		.byte	0x30
 9194 076e 2E       		.byte	0x2e
ARM GAS  C:\Users\jo\AppData\Local\Temp\cc8AA3HA.s 			page 164


 9195 076f 28       		.byte	0x28
 9196 0770 0100     		.2byte	0x1
 9197 0772 16       		.byte	0x16
 9198 0773 13       		.byte	0x13
 9199 0774 7D       		.byte	0x7d
 9200 0775 00       		.sleb128 0
 9201 0776 06       		.byte	0x6
 9202 0777 94       		.byte	0x94
 9203 0778 01       		.byte	0x1
 9204 0779 08       		.byte	0x8
 9205 077a FF       		.byte	0xff
 9206 077b 1A       		.byte	0x1a
 9207 077c 09       		.byte	0x9
 9208 077d FC       		.byte	0xfc
 9209 077e 24       		.byte	0x24
 9210 077f 33       		.byte	0x33
 9211 0780 25       		.byte	0x25
 9212 0781 30       		.byte	0x30
 9213 0782 29       		.byte	0x29
 9214 0783 28       		.byte	0x28
 9215 0784 0100     		.2byte	0x1
 9216 0786 16       		.byte	0x16
 9217 0787 13       		.byte	0x13
 9218 0788 27       		.byte	0x27
 9219 0789 08       		.byte	0x8
 9220 078a FF       		.byte	0xff
 9221 078b 1A       		.byte	0x1a
 9222 078c 9F       		.byte	0x9f
 9223 078d 0E020000 		.4byte	.LVL38
 9224 0791 12020000 		.4byte	.LVL39
 9225 0795 4000     		.2byte	0x40
 9226 0797 91       		.byte	0x91
 9227 0798 C06F     		.sleb128 -2112
 9228 079a 06       		.byte	0x6
 9229 079b 94       		.byte	0x94
 9230 079c 01       		.byte	0x1
 9231 079d 08       		.byte	0x8
 9232 079e FF       		.byte	0xff
 9233 079f 1A       		.byte	0x1a
 9234 07a0 31       		.byte	0x31
 9235 07a1 24       		.byte	0x24
 9236 07a2 30       		.byte	0x30
 9237 07a3 4B       		.byte	0x4b
 9238 07a4 91       		.byte	0x91
 9239 07a5 C06F     		.sleb128 -2112
 9240 07a7 06       		.byte	0x6
 9241 07a8 91       		.byte	0x91
 9242 07a9 C06F     		.sleb128 -2112
 9243 07ab 06       		.byte	0x6
 9244 07ac 94       		.byte	0x94
 9245 07ad 01       		.byte	0x1
 9246 07ae 08       		.byte	0x8
 9247 07af FF       		.byte	0xff
 9248 07b0 1A       		.byte	0x1a
 9249 07b1 09       		.byte	0x9
 9250 07b2 FC       		.byte	0xfc
 9251 07b3 24       		.byte	0x24
ARM GAS  C:\Users\jo\AppData\Local\Temp\cc8AA3HA.s 			page 165


 9252 07b4 33       		.byte	0x33
 9253 07b5 25       		.byte	0x25
 9254 07b6 30       		.byte	0x30
 9255 07b7 2E       		.byte	0x2e
 9256 07b8 28       		.byte	0x28
 9257 07b9 0100     		.2byte	0x1
 9258 07bb 16       		.byte	0x16
 9259 07bc 13       		.byte	0x13
 9260 07bd 91       		.byte	0x91
 9261 07be C06F     		.sleb128 -2112
 9262 07c0 06       		.byte	0x6
 9263 07c1 94       		.byte	0x94
 9264 07c2 01       		.byte	0x1
 9265 07c3 08       		.byte	0x8
 9266 07c4 FF       		.byte	0xff
 9267 07c5 1A       		.byte	0x1a
 9268 07c6 09       		.byte	0x9
 9269 07c7 FC       		.byte	0xfc
 9270 07c8 24       		.byte	0x24
 9271 07c9 33       		.byte	0x33
 9272 07ca 25       		.byte	0x25
 9273 07cb 30       		.byte	0x30
 9274 07cc 29       		.byte	0x29
 9275 07cd 28       		.byte	0x28
 9276 07ce 0100     		.2byte	0x1
 9277 07d0 16       		.byte	0x16
 9278 07d1 13       		.byte	0x13
 9279 07d2 27       		.byte	0x27
 9280 07d3 08       		.byte	0x8
 9281 07d4 FF       		.byte	0xff
 9282 07d5 1A       		.byte	0x1a
 9283 07d6 9F       		.byte	0x9f
 9284 07d7 12020000 		.4byte	.LVL39
 9285 07db 4C020000 		.4byte	.LFE1
 9286 07df 4000     		.2byte	0x40
 9287 07e1 7D       		.byte	0x7d
 9288 07e2 C06F     		.sleb128 -2112
 9289 07e4 06       		.byte	0x6
 9290 07e5 94       		.byte	0x94
 9291 07e6 01       		.byte	0x1
 9292 07e7 08       		.byte	0x8
 9293 07e8 FF       		.byte	0xff
 9294 07e9 1A       		.byte	0x1a
 9295 07ea 31       		.byte	0x31
 9296 07eb 24       		.byte	0x24
 9297 07ec 30       		.byte	0x30
 9298 07ed 4B       		.byte	0x4b
 9299 07ee 7D       		.byte	0x7d
 9300 07ef C06F     		.sleb128 -2112
 9301 07f1 06       		.byte	0x6
 9302 07f2 7D       		.byte	0x7d
 9303 07f3 C06F     		.sleb128 -2112
 9304 07f5 06       		.byte	0x6
 9305 07f6 94       		.byte	0x94
 9306 07f7 01       		.byte	0x1
 9307 07f8 08       		.byte	0x8
 9308 07f9 FF       		.byte	0xff
ARM GAS  C:\Users\jo\AppData\Local\Temp\cc8AA3HA.s 			page 166


 9309 07fa 1A       		.byte	0x1a
 9310 07fb 09       		.byte	0x9
 9311 07fc FC       		.byte	0xfc
 9312 07fd 24       		.byte	0x24
 9313 07fe 33       		.byte	0x33
 9314 07ff 25       		.byte	0x25
 9315 0800 30       		.byte	0x30
 9316 0801 2E       		.byte	0x2e
 9317 0802 28       		.byte	0x28
 9318 0803 0100     		.2byte	0x1
 9319 0805 16       		.byte	0x16
 9320 0806 13       		.byte	0x13
 9321 0807 7D       		.byte	0x7d
 9322 0808 C06F     		.sleb128 -2112
 9323 080a 06       		.byte	0x6
 9324 080b 94       		.byte	0x94
 9325 080c 01       		.byte	0x1
 9326 080d 08       		.byte	0x8
 9327 080e FF       		.byte	0xff
 9328 080f 1A       		.byte	0x1a
 9329 0810 09       		.byte	0x9
 9330 0811 FC       		.byte	0xfc
 9331 0812 24       		.byte	0x24
 9332 0813 33       		.byte	0x33
 9333 0814 25       		.byte	0x25
 9334 0815 30       		.byte	0x30
 9335 0816 29       		.byte	0x29
 9336 0817 28       		.byte	0x28
 9337 0818 0100     		.2byte	0x1
 9338 081a 16       		.byte	0x16
 9339 081b 13       		.byte	0x13
 9340 081c 27       		.byte	0x27
 9341 081d 08       		.byte	0x8
 9342 081e FF       		.byte	0xff
 9343 081f 1A       		.byte	0x1a
 9344 0820 9F       		.byte	0x9f
 9345 0821 00000000 		.4byte	0
 9346 0825 00000000 		.4byte	0
 9347              	.LLST3:
 9348 0829 F2000000 		.4byte	.LVL26
 9349 082d AE010000 		.4byte	.LVL29
 9350 0831 4500     		.2byte	0x45
 9351 0833 7D       		.byte	0x7d
 9352 0834 00       		.sleb128 0
 9353 0835 06       		.byte	0x6
 9354 0836 94       		.byte	0x94
 9355 0837 01       		.byte	0x1
 9356 0838 08       		.byte	0x8
 9357 0839 FF       		.byte	0xff
 9358 083a 1A       		.byte	0x1a
 9359 083b 31       		.byte	0x31
 9360 083c 24       		.byte	0x24
 9361 083d 30       		.byte	0x30
 9362 083e 4B       		.byte	0x4b
 9363 083f 7D       		.byte	0x7d
 9364 0840 00       		.sleb128 0
 9365 0841 06       		.byte	0x6
ARM GAS  C:\Users\jo\AppData\Local\Temp\cc8AA3HA.s 			page 167


 9366 0842 7D       		.byte	0x7d
 9367 0843 00       		.sleb128 0
 9368 0844 06       		.byte	0x6
 9369 0845 94       		.byte	0x94
 9370 0846 01       		.byte	0x1
 9371 0847 08       		.byte	0x8
 9372 0848 FF       		.byte	0xff
 9373 0849 1A       		.byte	0x1a
 9374 084a 09       		.byte	0x9
 9375 084b FC       		.byte	0xfc
 9376 084c 24       		.byte	0x24
 9377 084d 33       		.byte	0x33
 9378 084e 25       		.byte	0x25
 9379 084f 30       		.byte	0x30
 9380 0850 2E       		.byte	0x2e
 9381 0851 28       		.byte	0x28
 9382 0852 0100     		.2byte	0x1
 9383 0854 16       		.byte	0x16
 9384 0855 13       		.byte	0x13
 9385 0856 7D       		.byte	0x7d
 9386 0857 00       		.sleb128 0
 9387 0858 06       		.byte	0x6
 9388 0859 94       		.byte	0x94
 9389 085a 01       		.byte	0x1
 9390 085b 08       		.byte	0x8
 9391 085c FF       		.byte	0xff
 9392 085d 1A       		.byte	0x1a
 9393 085e 09       		.byte	0x9
 9394 085f FC       		.byte	0xfc
 9395 0860 24       		.byte	0x24
 9396 0861 33       		.byte	0x33
 9397 0862 25       		.byte	0x25
 9398 0863 30       		.byte	0x30
 9399 0864 29       		.byte	0x29
 9400 0865 28       		.byte	0x28
 9401 0866 0100     		.2byte	0x1
 9402 0868 16       		.byte	0x16
 9403 0869 13       		.byte	0x13
 9404 086a 27       		.byte	0x27
 9405 086b 08       		.byte	0x8
 9406 086c FF       		.byte	0xff
 9407 086d 1A       		.byte	0x1a
 9408 086e 7D       		.byte	0x7d
 9409 086f 00       		.sleb128 0
 9410 0870 06       		.byte	0x6
 9411 0871 94       		.byte	0x94
 9412 0872 01       		.byte	0x1
 9413 0873 08       		.byte	0x8
 9414 0874 FF       		.byte	0xff
 9415 0875 1A       		.byte	0x1a
 9416 0876 27       		.byte	0x27
 9417 0877 9F       		.byte	0x9f
 9418 0878 CA010000 		.4byte	.LVL31
 9419 087c D2010000 		.4byte	.LVL32
 9420 0880 0600     		.2byte	0x6
 9421 0882 72       		.byte	0x72
 9422 0883 00       		.sleb128 0
ARM GAS  C:\Users\jo\AppData\Local\Temp\cc8AA3HA.s 			page 168


 9423 0884 73       		.byte	0x73
 9424 0885 00       		.sleb128 0
 9425 0886 27       		.byte	0x27
 9426 0887 9F       		.byte	0x9f
 9427 0888 D2010000 		.4byte	.LVL32
 9428 088c D6010000 		.4byte	.LVL33
 9429 0890 0100     		.2byte	0x1
 9430 0892 53       		.byte	0x53
 9431 0893 D6010000 		.4byte	.LVL33
 9432 0897 EE010000 		.4byte	.LVL35
 9433 089b 0C00     		.2byte	0xc
 9434 089d 7D       		.byte	0x7d
 9435 089e 00       		.sleb128 0
 9436 089f 06       		.byte	0x6
 9437 08a0 94       		.byte	0x94
 9438 08a1 01       		.byte	0x1
 9439 08a2 08       		.byte	0x8
 9440 08a3 FF       		.byte	0xff
 9441 08a4 1A       		.byte	0x1a
 9442 08a5 72       		.byte	0x72
 9443 08a6 00       		.sleb128 0
 9444 08a7 27       		.byte	0x27
 9445 08a8 9F       		.byte	0x9f
 9446 08a9 02020000 		.4byte	.LVL36
 9447 08ad 0E020000 		.4byte	.LVL38
 9448 08b1 4500     		.2byte	0x45
 9449 08b3 7D       		.byte	0x7d
 9450 08b4 00       		.sleb128 0
 9451 08b5 06       		.byte	0x6
 9452 08b6 94       		.byte	0x94
 9453 08b7 01       		.byte	0x1
 9454 08b8 08       		.byte	0x8
 9455 08b9 FF       		.byte	0xff
 9456 08ba 1A       		.byte	0x1a
 9457 08bb 31       		.byte	0x31
 9458 08bc 24       		.byte	0x24
 9459 08bd 30       		.byte	0x30
 9460 08be 4B       		.byte	0x4b
 9461 08bf 7D       		.byte	0x7d
 9462 08c0 00       		.sleb128 0
 9463 08c1 06       		.byte	0x6
 9464 08c2 7D       		.byte	0x7d
 9465 08c3 00       		.sleb128 0
 9466 08c4 06       		.byte	0x6
 9467 08c5 94       		.byte	0x94
 9468 08c6 01       		.byte	0x1
 9469 08c7 08       		.byte	0x8
 9470 08c8 FF       		.byte	0xff
 9471 08c9 1A       		.byte	0x1a
 9472 08ca 09       		.byte	0x9
 9473 08cb FC       		.byte	0xfc
 9474 08cc 24       		.byte	0x24
 9475 08cd 33       		.byte	0x33
 9476 08ce 25       		.byte	0x25
 9477 08cf 30       		.byte	0x30
 9478 08d0 2E       		.byte	0x2e
 9479 08d1 28       		.byte	0x28
ARM GAS  C:\Users\jo\AppData\Local\Temp\cc8AA3HA.s 			page 169


 9480 08d2 0100     		.2byte	0x1
 9481 08d4 16       		.byte	0x16
 9482 08d5 13       		.byte	0x13
 9483 08d6 7D       		.byte	0x7d
 9484 08d7 00       		.sleb128 0
 9485 08d8 06       		.byte	0x6
 9486 08d9 94       		.byte	0x94
 9487 08da 01       		.byte	0x1
 9488 08db 08       		.byte	0x8
 9489 08dc FF       		.byte	0xff
 9490 08dd 1A       		.byte	0x1a
 9491 08de 09       		.byte	0x9
 9492 08df FC       		.byte	0xfc
 9493 08e0 24       		.byte	0x24
 9494 08e1 33       		.byte	0x33
 9495 08e2 25       		.byte	0x25
 9496 08e3 30       		.byte	0x30
 9497 08e4 29       		.byte	0x29
 9498 08e5 28       		.byte	0x28
 9499 08e6 0100     		.2byte	0x1
 9500 08e8 16       		.byte	0x16
 9501 08e9 13       		.byte	0x13
 9502 08ea 27       		.byte	0x27
 9503 08eb 08       		.byte	0x8
 9504 08ec FF       		.byte	0xff
 9505 08ed 1A       		.byte	0x1a
 9506 08ee 7D       		.byte	0x7d
 9507 08ef 00       		.sleb128 0
 9508 08f0 06       		.byte	0x6
 9509 08f1 94       		.byte	0x94
 9510 08f2 01       		.byte	0x1
 9511 08f3 08       		.byte	0x8
 9512 08f4 FF       		.byte	0xff
 9513 08f5 1A       		.byte	0x1a
 9514 08f6 27       		.byte	0x27
 9515 08f7 9F       		.byte	0x9f
 9516 08f8 0E020000 		.4byte	.LVL38
 9517 08fc 12020000 		.4byte	.LVL39
 9518 0900 4A00     		.2byte	0x4a
 9519 0902 91       		.byte	0x91
 9520 0903 C06F     		.sleb128 -2112
 9521 0905 06       		.byte	0x6
 9522 0906 94       		.byte	0x94
 9523 0907 01       		.byte	0x1
 9524 0908 08       		.byte	0x8
 9525 0909 FF       		.byte	0xff
 9526 090a 1A       		.byte	0x1a
 9527 090b 31       		.byte	0x31
 9528 090c 24       		.byte	0x24
 9529 090d 30       		.byte	0x30
 9530 090e 4B       		.byte	0x4b
 9531 090f 91       		.byte	0x91
 9532 0910 C06F     		.sleb128 -2112
 9533 0912 06       		.byte	0x6
 9534 0913 91       		.byte	0x91
 9535 0914 C06F     		.sleb128 -2112
 9536 0916 06       		.byte	0x6
ARM GAS  C:\Users\jo\AppData\Local\Temp\cc8AA3HA.s 			page 170


 9537 0917 94       		.byte	0x94
 9538 0918 01       		.byte	0x1
 9539 0919 08       		.byte	0x8
 9540 091a FF       		.byte	0xff
 9541 091b 1A       		.byte	0x1a
 9542 091c 09       		.byte	0x9
 9543 091d FC       		.byte	0xfc
 9544 091e 24       		.byte	0x24
 9545 091f 33       		.byte	0x33
 9546 0920 25       		.byte	0x25
 9547 0921 30       		.byte	0x30
 9548 0922 2E       		.byte	0x2e
 9549 0923 28       		.byte	0x28
 9550 0924 0100     		.2byte	0x1
 9551 0926 16       		.byte	0x16
 9552 0927 13       		.byte	0x13
 9553 0928 91       		.byte	0x91
 9554 0929 C06F     		.sleb128 -2112
 9555 092b 06       		.byte	0x6
 9556 092c 94       		.byte	0x94
 9557 092d 01       		.byte	0x1
 9558 092e 08       		.byte	0x8
 9559 092f FF       		.byte	0xff
 9560 0930 1A       		.byte	0x1a
 9561 0931 09       		.byte	0x9
 9562 0932 FC       		.byte	0xfc
 9563 0933 24       		.byte	0x24
 9564 0934 33       		.byte	0x33
 9565 0935 25       		.byte	0x25
 9566 0936 30       		.byte	0x30
 9567 0937 29       		.byte	0x29
 9568 0938 28       		.byte	0x28
 9569 0939 0100     		.2byte	0x1
 9570 093b 16       		.byte	0x16
 9571 093c 13       		.byte	0x13
 9572 093d 27       		.byte	0x27
 9573 093e 08       		.byte	0x8
 9574 093f FF       		.byte	0xff
 9575 0940 1A       		.byte	0x1a
 9576 0941 91       		.byte	0x91
 9577 0942 C06F     		.sleb128 -2112
 9578 0944 06       		.byte	0x6
 9579 0945 94       		.byte	0x94
 9580 0946 01       		.byte	0x1
 9581 0947 08       		.byte	0x8
 9582 0948 FF       		.byte	0xff
 9583 0949 1A       		.byte	0x1a
 9584 094a 27       		.byte	0x27
 9585 094b 9F       		.byte	0x9f
 9586 094c 12020000 		.4byte	.LVL39
 9587 0950 4C020000 		.4byte	.LFE1
 9588 0954 4A00     		.2byte	0x4a
 9589 0956 7D       		.byte	0x7d
 9590 0957 C06F     		.sleb128 -2112
 9591 0959 06       		.byte	0x6
 9592 095a 94       		.byte	0x94
 9593 095b 01       		.byte	0x1
ARM GAS  C:\Users\jo\AppData\Local\Temp\cc8AA3HA.s 			page 171


 9594 095c 08       		.byte	0x8
 9595 095d FF       		.byte	0xff
 9596 095e 1A       		.byte	0x1a
 9597 095f 31       		.byte	0x31
 9598 0960 24       		.byte	0x24
 9599 0961 30       		.byte	0x30
 9600 0962 4B       		.byte	0x4b
 9601 0963 7D       		.byte	0x7d
 9602 0964 C06F     		.sleb128 -2112
 9603 0966 06       		.byte	0x6
 9604 0967 7D       		.byte	0x7d
 9605 0968 C06F     		.sleb128 -2112
 9606 096a 06       		.byte	0x6
 9607 096b 94       		.byte	0x94
 9608 096c 01       		.byte	0x1
 9609 096d 08       		.byte	0x8
 9610 096e FF       		.byte	0xff
 9611 096f 1A       		.byte	0x1a
 9612 0970 09       		.byte	0x9
 9613 0971 FC       		.byte	0xfc
 9614 0972 24       		.byte	0x24
 9615 0973 33       		.byte	0x33
 9616 0974 25       		.byte	0x25
 9617 0975 30       		.byte	0x30
 9618 0976 2E       		.byte	0x2e
 9619 0977 28       		.byte	0x28
 9620 0978 0100     		.2byte	0x1
 9621 097a 16       		.byte	0x16
 9622 097b 13       		.byte	0x13
 9623 097c 7D       		.byte	0x7d
 9624 097d C06F     		.sleb128 -2112
 9625 097f 06       		.byte	0x6
 9626 0980 94       		.byte	0x94
 9627 0981 01       		.byte	0x1
 9628 0982 08       		.byte	0x8
 9629 0983 FF       		.byte	0xff
 9630 0984 1A       		.byte	0x1a
 9631 0985 09       		.byte	0x9
 9632 0986 FC       		.byte	0xfc
 9633 0987 24       		.byte	0x24
 9634 0988 33       		.byte	0x33
 9635 0989 25       		.byte	0x25
 9636 098a 30       		.byte	0x30
 9637 098b 29       		.byte	0x29
 9638 098c 28       		.byte	0x28
 9639 098d 0100     		.2byte	0x1
 9640 098f 16       		.byte	0x16
 9641 0990 13       		.byte	0x13
 9642 0991 27       		.byte	0x27
 9643 0992 08       		.byte	0x8
 9644 0993 FF       		.byte	0xff
 9645 0994 1A       		.byte	0x1a
 9646 0995 7D       		.byte	0x7d
 9647 0996 C06F     		.sleb128 -2112
 9648 0998 06       		.byte	0x6
 9649 0999 94       		.byte	0x94
 9650 099a 01       		.byte	0x1
ARM GAS  C:\Users\jo\AppData\Local\Temp\cc8AA3HA.s 			page 172


 9651 099b 08       		.byte	0x8
 9652 099c FF       		.byte	0xff
 9653 099d 1A       		.byte	0x1a
 9654 099e 27       		.byte	0x27
 9655 099f 9F       		.byte	0x9f
 9656 09a0 00000000 		.4byte	0
 9657 09a4 00000000 		.4byte	0
 9658              	.LLST4:
 9659 09a8 00000000 		.4byte	.LVL40
 9660 09ac 09000000 		.4byte	.LVL41-1
 9661 09b0 0100     		.2byte	0x1
 9662 09b2 50       		.byte	0x50
 9663 09b3 09000000 		.4byte	.LVL41-1
 9664 09b7 0A000000 		.4byte	.LFE2
 9665 09bb 0400     		.2byte	0x4
 9666 09bd F3       		.byte	0xf3
 9667 09be 01       		.uleb128 0x1
 9668 09bf 50       		.byte	0x50
 9669 09c0 9F       		.byte	0x9f
 9670 09c1 00000000 		.4byte	0
 9671 09c5 00000000 		.4byte	0
 9672              	.LLST5:
 9673 09c9 00000000 		.4byte	.LVL42
 9674 09cd 08000000 		.4byte	.LVL43
 9675 09d1 0100     		.2byte	0x1
 9676 09d3 50       		.byte	0x50
 9677 09d4 08000000 		.4byte	.LVL43
 9678 09d8 10000000 		.4byte	.LVL46
 9679 09dc 0400     		.2byte	0x4
 9680 09de 72       		.byte	0x72
 9681 09df E87D     		.sleb128 -280
 9682 09e1 9F       		.byte	0x9f
 9683 09e2 10000000 		.4byte	.LVL46
 9684 09e6 12000000 		.4byte	.LFE3
 9685 09ea 0400     		.2byte	0x4
 9686 09ec F3       		.byte	0xf3
 9687 09ed 01       		.uleb128 0x1
 9688 09ee 50       		.byte	0x50
 9689 09ef 9F       		.byte	0x9f
 9690 09f0 00000000 		.4byte	0
 9691 09f4 00000000 		.4byte	0
 9692              	.LLST6:
 9693 09f8 08000000 		.4byte	.LVL43
 9694 09fc 10000000 		.4byte	.LVL46
 9695 0a00 0400     		.2byte	0x4
 9696 0a02 0A       		.byte	0xa
 9697 0a03 1701     		.2byte	0x117
 9698 0a05 9F       		.byte	0x9f
 9699 0a06 00000000 		.4byte	0
 9700 0a0a 00000000 		.4byte	0
 9701              	.LLST7:
 9702 0a0e 08000000 		.4byte	.LVL43
 9703 0a12 0C000000 		.4byte	.LVL45
 9704 0a16 0300     		.2byte	0x3
 9705 0a18 70       		.byte	0x70
 9706 0a19 01       		.sleb128 1
 9707 0a1a 9F       		.byte	0x9f
ARM GAS  C:\Users\jo\AppData\Local\Temp\cc8AA3HA.s 			page 173


 9708 0a1b 0C000000 		.4byte	.LVL45
 9709 0a1f 10000000 		.4byte	.LVL46
 9710 0a23 0100     		.2byte	0x1
 9711 0a25 50       		.byte	0x50
 9712 0a26 00000000 		.4byte	0
 9713 0a2a 00000000 		.4byte	0
 9714              	.LLST8:
 9715 0a2e 00000000 		.4byte	.LVL47
 9716 0a32 16000000 		.4byte	.LVL48
 9717 0a36 0100     		.2byte	0x1
 9718 0a38 50       		.byte	0x50
 9719 0a39 16000000 		.4byte	.LVL48
 9720 0a3d 74000000 		.4byte	.LVL54
 9721 0a41 0100     		.2byte	0x1
 9722 0a43 58       		.byte	0x58
 9723 0a44 74000000 		.4byte	.LVL54
 9724 0a48 7C000000 		.4byte	.LVL55
 9725 0a4c 0400     		.2byte	0x4
 9726 0a4e F3       		.byte	0xf3
 9727 0a4f 01       		.uleb128 0x1
 9728 0a50 50       		.byte	0x50
 9729 0a51 9F       		.byte	0x9f
 9730 0a52 7C000000 		.4byte	.LVL55
 9731 0a56 7F000000 		.4byte	.LVL56-1
 9732 0a5a 0100     		.2byte	0x1
 9733 0a5c 50       		.byte	0x50
 9734 0a5d 7F000000 		.4byte	.LVL56-1
 9735 0a61 A2000000 		.4byte	.LVL58
 9736 0a65 0100     		.2byte	0x1
 9737 0a67 58       		.byte	0x58
 9738 0a68 A2000000 		.4byte	.LVL58
 9739 0a6c 08010000 		.4byte	.LVL60
 9740 0a70 0400     		.2byte	0x4
 9741 0a72 78       		.byte	0x78
 9742 0a73 B87E     		.sleb128 -200
 9743 0a75 9F       		.byte	0x9f
 9744 0a76 08010000 		.4byte	.LVL60
 9745 0a7a 12010000 		.4byte	.LVL61
 9746 0a7e 0100     		.2byte	0x1
 9747 0a80 58       		.byte	0x58
 9748 0a81 12010000 		.4byte	.LVL61
 9749 0a85 62010000 		.4byte	.LVL63
 9750 0a89 0400     		.2byte	0x4
 9751 0a8b 78       		.byte	0x78
 9752 0a8c D87E     		.sleb128 -168
 9753 0a8e 9F       		.byte	0x9f
 9754 0a8f 62010000 		.4byte	.LVL63
 9755 0a93 6E010000 		.4byte	.LVL64
 9756 0a97 0100     		.2byte	0x1
 9757 0a99 58       		.byte	0x58
 9758 0a9a 6E010000 		.4byte	.LVL64
 9759 0a9e 1C020000 		.4byte	.LFE4
 9760 0aa2 0400     		.2byte	0x4
 9761 0aa4 78       		.byte	0x78
 9762 0aa5 987E     		.sleb128 -232
 9763 0aa7 9F       		.byte	0x9f
 9764 0aa8 00000000 		.4byte	0
ARM GAS  C:\Users\jo\AppData\Local\Temp\cc8AA3HA.s 			page 174


 9765 0aac 00000000 		.4byte	0
 9766              	.LLST9:
 9767 0ab0 00000000 		.4byte	.LVL47
 9768 0ab4 16000000 		.4byte	.LVL48
 9769 0ab8 0100     		.2byte	0x1
 9770 0aba 51       		.byte	0x51
 9771 0abb 16000000 		.4byte	.LVL48
 9772 0abf 74000000 		.4byte	.LVL54
 9773 0ac3 0100     		.2byte	0x1
 9774 0ac5 59       		.byte	0x59
 9775 0ac6 74000000 		.4byte	.LVL54
 9776 0aca 7C000000 		.4byte	.LVL55
 9777 0ace 0400     		.2byte	0x4
 9778 0ad0 F3       		.byte	0xf3
 9779 0ad1 01       		.uleb128 0x1
 9780 0ad2 51       		.byte	0x51
 9781 0ad3 9F       		.byte	0x9f
 9782 0ad4 7C000000 		.4byte	.LVL55
 9783 0ad8 7F000000 		.4byte	.LVL56-1
 9784 0adc 0100     		.2byte	0x1
 9785 0ade 51       		.byte	0x51
 9786 0adf 7F000000 		.4byte	.LVL56-1
 9787 0ae3 A2000000 		.4byte	.LVL58
 9788 0ae7 0100     		.2byte	0x1
 9789 0ae9 59       		.byte	0x59
 9790 0aea A2000000 		.4byte	.LVL58
 9791 0aee 08010000 		.4byte	.LVL60
 9792 0af2 0400     		.2byte	0x4
 9793 0af4 F3       		.byte	0xf3
 9794 0af5 01       		.uleb128 0x1
 9795 0af6 51       		.byte	0x51
 9796 0af7 9F       		.byte	0x9f
 9797 0af8 08010000 		.4byte	.LVL60
 9798 0afc 12010000 		.4byte	.LVL61
 9799 0b00 0100     		.2byte	0x1
 9800 0b02 59       		.byte	0x59
 9801 0b03 12010000 		.4byte	.LVL61
 9802 0b07 62010000 		.4byte	.LVL63
 9803 0b0b 0400     		.2byte	0x4
 9804 0b0d F3       		.byte	0xf3
 9805 0b0e 01       		.uleb128 0x1
 9806 0b0f 51       		.byte	0x51
 9807 0b10 9F       		.byte	0x9f
 9808 0b11 62010000 		.4byte	.LVL63
 9809 0b15 6E010000 		.4byte	.LVL64
 9810 0b19 0100     		.2byte	0x1
 9811 0b1b 59       		.byte	0x59
 9812 0b1c 6E010000 		.4byte	.LVL64
 9813 0b20 1C020000 		.4byte	.LFE4
 9814 0b24 0400     		.2byte	0x4
 9815 0b26 F3       		.byte	0xf3
 9816 0b27 01       		.uleb128 0x1
 9817 0b28 51       		.byte	0x51
 9818 0b29 9F       		.byte	0x9f
 9819 0b2a 00000000 		.4byte	0
 9820 0b2e 00000000 		.4byte	0
 9821              	.LLST10:
ARM GAS  C:\Users\jo\AppData\Local\Temp\cc8AA3HA.s 			page 175


 9822 0b32 00000000 		.4byte	.LVL47
 9823 0b36 16000000 		.4byte	.LVL48
 9824 0b3a 0100     		.2byte	0x1
 9825 0b3c 52       		.byte	0x52
 9826 0b3d 16000000 		.4byte	.LVL48
 9827 0b41 3E000000 		.4byte	.LVL52
 9828 0b45 0100     		.2byte	0x1
 9829 0b47 54       		.byte	0x54
 9830 0b48 3E000000 		.4byte	.LVL52
 9831 0b4c 7C000000 		.4byte	.LVL55
 9832 0b50 0400     		.2byte	0x4
 9833 0b52 F3       		.byte	0xf3
 9834 0b53 01       		.uleb128 0x1
 9835 0b54 52       		.byte	0x52
 9836 0b55 9F       		.byte	0x9f
 9837 0b56 7C000000 		.4byte	.LVL55
 9838 0b5a 7F000000 		.4byte	.LVL56-1
 9839 0b5e 0100     		.2byte	0x1
 9840 0b60 52       		.byte	0x52
 9841 0b61 7F000000 		.4byte	.LVL56-1
 9842 0b65 98000000 		.4byte	.LVL57
 9843 0b69 0100     		.2byte	0x1
 9844 0b6b 54       		.byte	0x54
 9845 0b6c 98000000 		.4byte	.LVL57
 9846 0b70 1C020000 		.4byte	.LFE4
 9847 0b74 0400     		.2byte	0x4
 9848 0b76 F3       		.byte	0xf3
 9849 0b77 01       		.uleb128 0x1
 9850 0b78 52       		.byte	0x52
 9851 0b79 9F       		.byte	0x9f
 9852 0b7a 00000000 		.4byte	0
 9853 0b7e 00000000 		.4byte	0
 9854              	.LLST11:
 9855 0b82 3A000000 		.4byte	.LVL51
 9856 0b86 3E000000 		.4byte	.LVL52
 9857 0b8a 0200     		.2byte	0x2
 9858 0b8c 30       		.byte	0x30
 9859 0b8d 9F       		.byte	0x9f
 9860 0b8e 3E000000 		.4byte	.LVL52
 9861 0b92 74000000 		.4byte	.LVL54
 9862 0b96 0100     		.2byte	0x1
 9863 0b98 57       		.byte	0x57
 9864 0b99 98000000 		.4byte	.LVL57
 9865 0b9d A2000000 		.4byte	.LVL58
 9866 0ba1 0100     		.2byte	0x1
 9867 0ba3 57       		.byte	0x57
 9868 0ba4 08010000 		.4byte	.LVL60
 9869 0ba8 12010000 		.4byte	.LVL61
 9870 0bac 0100     		.2byte	0x1
 9871 0bae 57       		.byte	0x57
 9872 0baf 62010000 		.4byte	.LVL63
 9873 0bb3 6E010000 		.4byte	.LVL64
 9874 0bb7 0100     		.2byte	0x1
 9875 0bb9 57       		.byte	0x57
 9876 0bba 00000000 		.4byte	0
 9877 0bbe 00000000 		.4byte	0
 9878              	.LLST12:
ARM GAS  C:\Users\jo\AppData\Local\Temp\cc8AA3HA.s 			page 176


 9879 0bc2 36000000 		.4byte	.LVL50
 9880 0bc6 7C000000 		.4byte	.LVL55
 9881 0bca 0100     		.2byte	0x1
 9882 0bcc 53       		.byte	0x53
 9883 0bcd 98000000 		.4byte	.LVL57
 9884 0bd1 1C020000 		.4byte	.LFE4
 9885 0bd5 0100     		.2byte	0x1
 9886 0bd7 53       		.byte	0x53
 9887 0bd8 00000000 		.4byte	0
 9888 0bdc 00000000 		.4byte	0
 9889              	.LLST13:
 9890 0be0 00000000 		.4byte	.LVL66
 9891 0be4 14000000 		.4byte	.LVL70
 9892 0be8 0100     		.2byte	0x1
 9893 0bea 50       		.byte	0x50
 9894 0beb 14000000 		.4byte	.LVL70
 9895 0bef 84000000 		.4byte	.LVL80
 9896 0bf3 0100     		.2byte	0x1
 9897 0bf5 55       		.byte	0x55
 9898 0bf6 84000000 		.4byte	.LVL80
 9899 0bfa E4000000 		.4byte	.LVL88
 9900 0bfe 0700     		.2byte	0x7
 9901 0c00 91       		.byte	0x91
 9902 0c01 B07D     		.sleb128 -336
 9903 0c03 06       		.byte	0x6
 9904 0c04 48       		.byte	0x48
 9905 0c05 1C       		.byte	0x1c
 9906 0c06 9F       		.byte	0x9f
 9907 0c07 E4000000 		.4byte	.LVL88
 9908 0c0b 24010000 		.4byte	.LFE5
 9909 0c0f 0400     		.2byte	0x4
 9910 0c11 F3       		.byte	0xf3
 9911 0c12 01       		.uleb128 0x1
 9912 0c13 50       		.byte	0x50
 9913 0c14 9F       		.byte	0x9f
 9914 0c15 00000000 		.4byte	0
 9915 0c19 00000000 		.4byte	0
 9916              	.LLST14:
 9917 0c1d 00000000 		.4byte	.LVL66
 9918 0c21 0E000000 		.4byte	.LVL68
 9919 0c25 0100     		.2byte	0x1
 9920 0c27 51       		.byte	0x51
 9921 0c28 0E000000 		.4byte	.LVL68
 9922 0c2c 84000000 		.4byte	.LVL80
 9923 0c30 0100     		.2byte	0x1
 9924 0c32 56       		.byte	0x56
 9925 0c33 84000000 		.4byte	.LVL80
 9926 0c37 24010000 		.4byte	.LFE5
 9927 0c3b 0400     		.2byte	0x4
 9928 0c3d F3       		.byte	0xf3
 9929 0c3e 01       		.uleb128 0x1
 9930 0c3f 51       		.byte	0x51
 9931 0c40 9F       		.byte	0x9f
 9932 0c41 00000000 		.4byte	0
 9933 0c45 00000000 		.4byte	0
 9934              	.LLST15:
 9935 0c49 00000000 		.4byte	.LVL66
ARM GAS  C:\Users\jo\AppData\Local\Temp\cc8AA3HA.s 			page 177


 9936 0c4d 12000000 		.4byte	.LVL69
 9937 0c51 0100     		.2byte	0x1
 9938 0c53 52       		.byte	0x52
 9939 0c54 12000000 		.4byte	.LVL69
 9940 0c58 72000000 		.4byte	.LVL79
 9941 0c5c 0100     		.2byte	0x1
 9942 0c5e 54       		.byte	0x54
 9943 0c5f 72000000 		.4byte	.LVL79
 9944 0c63 24010000 		.4byte	.LFE5
 9945 0c67 0400     		.2byte	0x4
 9946 0c69 F3       		.byte	0xf3
 9947 0c6a 01       		.uleb128 0x1
 9948 0c6b 52       		.byte	0x52
 9949 0c6c 9F       		.byte	0x9f
 9950 0c6d 00000000 		.4byte	0
 9951 0c71 00000000 		.4byte	0
 9952              	.LLST16:
 9953 0c75 6A000000 		.4byte	.LVL78
 9954 0c79 C0000000 		.4byte	.LVL84
 9955 0c7d 0100     		.2byte	0x1
 9956 0c7f 5B       		.byte	0x5b
 9957 0c80 C0000000 		.4byte	.LVL84
 9958 0c84 C4000000 		.4byte	.LVL85
 9959 0c88 0300     		.2byte	0x3
 9960 0c8a 7B       		.byte	0x7b
 9961 0c8b 7F       		.sleb128 -1
 9962 0c8c 9F       		.byte	0x9f
 9963 0c8d C4000000 		.4byte	.LVL85
 9964 0c91 FA000000 		.4byte	.LVL92
 9965 0c95 0100     		.2byte	0x1
 9966 0c97 5B       		.byte	0x5b
 9967 0c98 00000000 		.4byte	0
 9968 0c9c 00000000 		.4byte	0
 9969              	.LLST17:
 9970 0ca0 84000000 		.4byte	.LVL80
 9971 0ca4 8A000000 		.4byte	.LVL81
 9972 0ca8 0200     		.2byte	0x2
 9973 0caa 30       		.byte	0x30
 9974 0cab 9F       		.byte	0x9f
 9975 0cac 00000000 		.4byte	0
 9976 0cb0 00000000 		.4byte	0
 9977              	.LLST18:
 9978 0cb4 28000000 		.4byte	.LVL74
 9979 0cb8 84000000 		.4byte	.LVL80
 9980 0cbc 0100     		.2byte	0x1
 9981 0cbe 50       		.byte	0x50
 9982 0cbf 84000000 		.4byte	.LVL80
 9983 0cc3 10010000 		.4byte	.LVL97
 9984 0cc7 0300     		.2byte	0x3
 9985 0cc9 91       		.byte	0x91
 9986 0cca AC7D     		.sleb128 -340
 9987 0ccc 10010000 		.4byte	.LVL97
 9988 0cd0 24010000 		.4byte	.LFE5
 9989 0cd4 0300     		.2byte	0x3
 9990 0cd6 7D       		.byte	0x7d
 9991 0cd7 AC7D     		.sleb128 -340
 9992 0cd9 00000000 		.4byte	0
ARM GAS  C:\Users\jo\AppData\Local\Temp\cc8AA3HA.s 			page 178


 9993 0cdd 00000000 		.4byte	0
 9994              	.LLST19:
 9995 0ce1 18000000 		.4byte	.LVL71
 9996 0ce5 1C000000 		.4byte	.LVL72
 9997 0ce9 0300     		.2byte	0x3
 9998 0ceb 75       		.byte	0x75
 9999 0cec 08       		.sleb128 8
 10000 0ced 9F       		.byte	0x9f
 10001 0cee 1C000000 		.4byte	.LVL72
 10002 0cf2 27000000 		.4byte	.LVL74-1
 10003 0cf6 0100     		.2byte	0x1
 10004 0cf8 53       		.byte	0x53
 10005 0cf9 27000000 		.4byte	.LVL74-1
 10006 0cfd 3E000000 		.4byte	.LVL75
 10007 0d01 0300     		.2byte	0x3
 10008 0d03 75       		.byte	0x75
 10009 0d04 08       		.sleb128 8
 10010 0d05 9F       		.byte	0x9f
 10011 0d06 3E000000 		.4byte	.LVL75
 10012 0d0a 42000000 		.4byte	.LVL76
 10013 0d0e 0300     		.2byte	0x3
 10014 0d10 75       		.byte	0x75
 10015 0d11 0C       		.sleb128 12
 10016 0d12 9F       		.byte	0x9f
 10017 0d13 42000000 		.4byte	.LVL76
 10018 0d17 48000000 		.4byte	.LVL77
 10019 0d1b 0300     		.2byte	0x3
 10020 0d1d 75       		.byte	0x75
 10021 0d1e 10       		.sleb128 16
 10022 0d1f 9F       		.byte	0x9f
 10023 0d20 48000000 		.4byte	.LVL77
 10024 0d24 6A000000 		.4byte	.LVL78
 10025 0d28 0300     		.2byte	0x3
 10026 0d2a 75       		.byte	0x75
 10027 0d2b 14       		.sleb128 20
 10028 0d2c 9F       		.byte	0x9f
 10029 0d2d 6A000000 		.4byte	.LVL78
 10030 0d31 84000000 		.4byte	.LVL80
 10031 0d35 0100     		.2byte	0x1
 10032 0d37 53       		.byte	0x53
 10033 0d38 84000000 		.4byte	.LVL80
 10034 0d3c 8A000000 		.4byte	.LVL81
 10035 0d40 0300     		.2byte	0x3
 10036 0d42 75       		.byte	0x75
 10037 0d43 04       		.sleb128 4
 10038 0d44 9F       		.byte	0x9f
 10039 0d45 8A000000 		.4byte	.LVL81
 10040 0d49 BC000000 		.4byte	.LVL83
 10041 0d4d 0B00     		.2byte	0xb
 10042 0d4f 70       		.byte	0x70
 10043 0d50 00       		.sleb128 0
 10044 0d51 75       		.byte	0x75
 10045 0d52 00       		.sleb128 0
 10046 0d53 22       		.byte	0x22
 10047 0d54 7A       		.byte	0x7a
 10048 0d55 00       		.sleb128 0
 10049 0d56 1C       		.byte	0x1c
ARM GAS  C:\Users\jo\AppData\Local\Temp\cc8AA3HA.s 			page 179


 10050 0d57 23       		.byte	0x23
 10051 0d58 08       		.uleb128 0x8
 10052 0d59 9F       		.byte	0x9f
 10053 0d5a BC000000 		.4byte	.LVL83
 10054 0d5e C0000000 		.4byte	.LVL84
 10055 0d62 0B00     		.2byte	0xb
 10056 0d64 70       		.byte	0x70
 10057 0d65 00       		.sleb128 0
 10058 0d66 75       		.byte	0x75
 10059 0d67 00       		.sleb128 0
 10060 0d68 22       		.byte	0x22
 10061 0d69 7A       		.byte	0x7a
 10062 0d6a 00       		.sleb128 0
 10063 0d6b 1C       		.byte	0x1c
 10064 0d6c 23       		.byte	0x23
 10065 0d6d 04       		.uleb128 0x4
 10066 0d6e 9F       		.byte	0x9f
 10067 0d6f C0000000 		.4byte	.LVL84
 10068 0d73 C8000000 		.4byte	.LVL86
 10069 0d77 0300     		.2byte	0x3
 10070 0d79 75       		.byte	0x75
 10071 0d7a 14       		.sleb128 20
 10072 0d7b 9F       		.byte	0x9f
 10073 0d7c C8000000 		.4byte	.LVL86
 10074 0d80 CC000000 		.4byte	.LVL87
 10075 0d84 0300     		.2byte	0x3
 10076 0d86 76       		.byte	0x76
 10077 0d87 14       		.sleb128 20
 10078 0d88 9F       		.byte	0x9f
 10079 0d89 CC000000 		.4byte	.LVL87
 10080 0d8d E4000000 		.4byte	.LVL88
 10081 0d91 0300     		.2byte	0x3
 10082 0d93 75       		.byte	0x75
 10083 0d94 14       		.sleb128 20
 10084 0d95 9F       		.byte	0x9f
 10085 0d96 E4000000 		.4byte	.LVL88
 10086 0d9a EC000000 		.4byte	.LVL89
 10087 0d9e 0700     		.2byte	0x7
 10088 0da0 91       		.byte	0x91
 10089 0da1 B07D     		.sleb128 -336
 10090 0da3 06       		.byte	0x6
 10091 0da4 23       		.byte	0x23
 10092 0da5 04       		.uleb128 0x4
 10093 0da6 9F       		.byte	0x9f
 10094 0da7 EC000000 		.4byte	.LVL89
 10095 0dab F0000000 		.4byte	.LVL90
 10096 0daf 0700     		.2byte	0x7
 10097 0db1 91       		.byte	0x91
 10098 0db2 B07D     		.sleb128 -336
 10099 0db4 06       		.byte	0x6
 10100 0db5 23       		.byte	0x23
 10101 0db6 08       		.uleb128 0x8
 10102 0db7 9F       		.byte	0x9f
 10103 0db8 F0000000 		.4byte	.LVL90
 10104 0dbc F4000000 		.4byte	.LVL91
 10105 0dc0 0700     		.2byte	0x7
 10106 0dc2 91       		.byte	0x91
ARM GAS  C:\Users\jo\AppData\Local\Temp\cc8AA3HA.s 			page 180


 10107 0dc3 B07D     		.sleb128 -336
 10108 0dc5 06       		.byte	0x6
 10109 0dc6 23       		.byte	0x23
 10110 0dc7 0C       		.uleb128 0xc
 10111 0dc8 9F       		.byte	0x9f
 10112 0dc9 F4000000 		.4byte	.LVL91
 10113 0dcd FA000000 		.4byte	.LVL92
 10114 0dd1 0700     		.2byte	0x7
 10115 0dd3 91       		.byte	0x91
 10116 0dd4 B07D     		.sleb128 -336
 10117 0dd6 06       		.byte	0x6
 10118 0dd7 23       		.byte	0x23
 10119 0dd8 10       		.uleb128 0x10
 10120 0dd9 9F       		.byte	0x9f
 10121 0dda 00000000 		.4byte	0
 10122 0dde 00000000 		.4byte	0
 10123              	.LLST20:
 10124 0de2 3E000000 		.4byte	.LVL75
 10125 0de6 42000000 		.4byte	.LVL76
 10126 0dea 0300     		.2byte	0x3
 10127 0dec 7A       		.byte	0x7a
 10128 0ded 04       		.sleb128 4
 10129 0dee 9F       		.byte	0x9f
 10130 0def 42000000 		.4byte	.LVL76
 10131 0df3 48000000 		.4byte	.LVL77
 10132 0df7 0300     		.2byte	0x3
 10133 0df9 7A       		.byte	0x7a
 10134 0dfa 08       		.sleb128 8
 10135 0dfb 9F       		.byte	0x9f
 10136 0dfc 48000000 		.4byte	.LVL77
 10137 0e00 6A000000 		.4byte	.LVL78
 10138 0e04 0300     		.2byte	0x3
 10139 0e06 7A       		.byte	0x7a
 10140 0e07 0C       		.sleb128 12
 10141 0e08 9F       		.byte	0x9f
 10142 0e09 6A000000 		.4byte	.LVL78
 10143 0e0d 84000000 		.4byte	.LVL80
 10144 0e11 0300     		.2byte	0x3
 10145 0e13 91       		.byte	0x91
 10146 0e14 B47D     		.sleb128 -332
 10147 0e16 84000000 		.4byte	.LVL80
 10148 0e1a 8A000000 		.4byte	.LVL81
 10149 0e1e 0300     		.2byte	0x3
 10150 0e20 7A       		.byte	0x7a
 10151 0e21 04       		.sleb128 4
 10152 0e22 9F       		.byte	0x9f
 10153 0e23 8A000000 		.4byte	.LVL81
 10154 0e27 8E000000 		.4byte	.LVL82
 10155 0e2b 0300     		.2byte	0x3
 10156 0e2d 70       		.byte	0x70
 10157 0e2e 04       		.sleb128 4
 10158 0e2f 9F       		.byte	0x9f
 10159 0e30 8E000000 		.4byte	.LVL82
 10160 0e34 BC000000 		.4byte	.LVL83
 10161 0e38 0100     		.2byte	0x1
 10162 0e3a 50       		.byte	0x50
 10163 0e3b BC000000 		.4byte	.LVL83
ARM GAS  C:\Users\jo\AppData\Local\Temp\cc8AA3HA.s 			page 181


 10164 0e3f C0000000 		.4byte	.LVL84
 10165 0e43 0300     		.2byte	0x3
 10166 0e45 70       		.byte	0x70
 10167 0e46 04       		.sleb128 4
 10168 0e47 9F       		.byte	0x9f
 10169 0e48 C0000000 		.4byte	.LVL84
 10170 0e4c C8000000 		.4byte	.LVL86
 10171 0e50 0300     		.2byte	0x3
 10172 0e52 7A       		.byte	0x7a
 10173 0e53 74       		.sleb128 -12
 10174 0e54 9F       		.byte	0x9f
 10175 0e55 C8000000 		.4byte	.LVL86
 10176 0e59 E4000000 		.4byte	.LVL88
 10177 0e5d 0300     		.2byte	0x3
 10178 0e5f 7A       		.byte	0x7a
 10179 0e60 04       		.sleb128 4
 10180 0e61 9F       		.byte	0x9f
 10181 0e62 E4000000 		.4byte	.LVL88
 10182 0e66 EC000000 		.4byte	.LVL89
 10183 0e6a 0700     		.2byte	0x7
 10184 0e6c 91       		.byte	0x91
 10185 0e6d B47D     		.sleb128 -332
 10186 0e6f 06       		.byte	0x6
 10187 0e70 23       		.byte	0x23
 10188 0e71 04       		.uleb128 0x4
 10189 0e72 9F       		.byte	0x9f
 10190 0e73 EC000000 		.4byte	.LVL89
 10191 0e77 F0000000 		.4byte	.LVL90
 10192 0e7b 0700     		.2byte	0x7
 10193 0e7d 91       		.byte	0x91
 10194 0e7e B47D     		.sleb128 -332
 10195 0e80 06       		.byte	0x6
 10196 0e81 23       		.byte	0x23
 10197 0e82 08       		.uleb128 0x8
 10198 0e83 9F       		.byte	0x9f
 10199 0e84 F0000000 		.4byte	.LVL90
 10200 0e88 F4000000 		.4byte	.LVL91
 10201 0e8c 0700     		.2byte	0x7
 10202 0e8e 91       		.byte	0x91
 10203 0e8f B47D     		.sleb128 -332
 10204 0e91 06       		.byte	0x6
 10205 0e92 23       		.byte	0x23
 10206 0e93 0C       		.uleb128 0xc
 10207 0e94 9F       		.byte	0x9f
 10208 0e95 F4000000 		.4byte	.LVL91
 10209 0e99 FA000000 		.4byte	.LVL92
 10210 0e9d 0700     		.2byte	0x7
 10211 0e9f 91       		.byte	0x91
 10212 0ea0 B47D     		.sleb128 -332
 10213 0ea2 06       		.byte	0x6
 10214 0ea3 23       		.byte	0x23
 10215 0ea4 10       		.uleb128 0x10
 10216 0ea5 9F       		.byte	0x9f
 10217 0ea6 00000000 		.4byte	0
 10218 0eaa 00000000 		.4byte	0
 10219              	.LLST21:
 10220 0eae 06000000 		.4byte	.LVL67
ARM GAS  C:\Users\jo\AppData\Local\Temp\cc8AA3HA.s 			page 182


 10221 0eb2 14000000 		.4byte	.LVL70
 10222 0eb6 0400     		.2byte	0x4
 10223 0eb8 91       		.byte	0x91
 10224 0eb9 C07D     		.sleb128 -320
 10225 0ebb 9F       		.byte	0x9f
 10226 0ebc 14000000 		.4byte	.LVL70
 10227 0ec0 17000000 		.4byte	.LVL71-1
 10228 0ec4 0100     		.2byte	0x1
 10229 0ec6 50       		.byte	0x50
 10230 0ec7 17000000 		.4byte	.LVL71-1
 10231 0ecb 24000000 		.4byte	.LVL73
 10232 0ecf 0400     		.2byte	0x4
 10233 0ed1 91       		.byte	0x91
 10234 0ed2 C07D     		.sleb128 -320
 10235 0ed4 9F       		.byte	0x9f
 10236 0ed5 24000000 		.4byte	.LVL73
 10237 0ed9 27000000 		.4byte	.LVL74-1
 10238 0edd 0100     		.2byte	0x1
 10239 0edf 50       		.byte	0x50
 10240 0ee0 27000000 		.4byte	.LVL74-1
 10241 0ee4 FC000000 		.4byte	.LVL93
 10242 0ee8 0400     		.2byte	0x4
 10243 0eea 91       		.byte	0x91
 10244 0eeb C07D     		.sleb128 -320
 10245 0eed 9F       		.byte	0x9f
 10246 0eee FC000000 		.4byte	.LVL93
 10247 0ef2 FE000000 		.4byte	.LVL94
 10248 0ef6 0100     		.2byte	0x1
 10249 0ef8 53       		.byte	0x53
 10250 0ef9 FE000000 		.4byte	.LVL94
 10251 0efd 10010000 		.4byte	.LVL97
 10252 0f01 0400     		.2byte	0x4
 10253 0f03 91       		.byte	0x91
 10254 0f04 C07D     		.sleb128 -320
 10255 0f06 9F       		.byte	0x9f
 10256 0f07 10010000 		.4byte	.LVL97
 10257 0f0b 24010000 		.4byte	.LFE5
 10258 0f0f 0400     		.2byte	0x4
 10259 0f11 7D       		.byte	0x7d
 10260 0f12 C07D     		.sleb128 -320
 10261 0f14 9F       		.byte	0x9f
 10262 0f15 00000000 		.4byte	0
 10263 0f19 00000000 		.4byte	0
 10264              	.LLST22:
 10265 0f1d FA000000 		.4byte	.LVL92
 10266 0f21 FE000000 		.4byte	.LVL94
 10267 0f25 0400     		.2byte	0x4
 10268 0f27 0A       		.byte	0xa
 10269 0f28 1701     		.2byte	0x117
 10270 0f2a 9F       		.byte	0x9f
 10271 0f2b FE000000 		.4byte	.LVL94
 10272 0f2f 00010000 		.4byte	.LVL95
 10273 0f33 0900     		.2byte	0x9
 10274 0f35 91       		.byte	0x91
 10275 0f36 00       		.sleb128 0
 10276 0f37 73       		.byte	0x73
 10277 0f38 00       		.sleb128 0
ARM GAS  C:\Users\jo\AppData\Local\Temp\cc8AA3HA.s 			page 183


 10278 0f39 1C       		.byte	0x1c
 10279 0f3a 08       		.byte	0x8
 10280 0f3b 29       		.byte	0x29
 10281 0f3c 1C       		.byte	0x1c
 10282 0f3d 9F       		.byte	0x9f
 10283 0f3e 00010000 		.4byte	.LVL95
 10284 0f42 04010000 		.4byte	.LVL96
 10285 0f46 0900     		.2byte	0x9
 10286 0f48 91       		.byte	0x91
 10287 0f49 00       		.sleb128 0
 10288 0f4a 73       		.byte	0x73
 10289 0f4b 00       		.sleb128 0
 10290 0f4c 1C       		.byte	0x1c
 10291 0f4d 08       		.byte	0x8
 10292 0f4e 2A       		.byte	0x2a
 10293 0f4f 1C       		.byte	0x1c
 10294 0f50 9F       		.byte	0x9f
 10295 0f51 04010000 		.4byte	.LVL96
 10296 0f55 10010000 		.4byte	.LVL97
 10297 0f59 0900     		.2byte	0x9
 10298 0f5b 91       		.byte	0x91
 10299 0f5c 00       		.sleb128 0
 10300 0f5d 73       		.byte	0x73
 10301 0f5e 00       		.sleb128 0
 10302 0f5f 1C       		.byte	0x1c
 10303 0f60 08       		.byte	0x8
 10304 0f61 29       		.byte	0x29
 10305 0f62 1C       		.byte	0x1c
 10306 0f63 9F       		.byte	0x9f
 10307 0f64 10010000 		.4byte	.LVL97
 10308 0f68 24010000 		.4byte	.LFE5
 10309 0f6c 0900     		.2byte	0x9
 10310 0f6e 7D       		.byte	0x7d
 10311 0f6f 00       		.sleb128 0
 10312 0f70 73       		.byte	0x73
 10313 0f71 00       		.sleb128 0
 10314 0f72 1C       		.byte	0x1c
 10315 0f73 08       		.byte	0x8
 10316 0f74 29       		.byte	0x29
 10317 0f75 1C       		.byte	0x1c
 10318 0f76 9F       		.byte	0x9f
 10319 0f77 00000000 		.4byte	0
 10320 0f7b 00000000 		.4byte	0
 10321              	.LLST23:
 10322 0f7f FA000000 		.4byte	.LVL92
 10323 0f83 FC000000 		.4byte	.LVL93
 10324 0f87 0400     		.2byte	0x4
 10325 0f89 91       		.byte	0x91
 10326 0f8a C07D     		.sleb128 -320
 10327 0f8c 9F       		.byte	0x9f
 10328 0f8d FC000000 		.4byte	.LVL93
 10329 0f91 FE000000 		.4byte	.LVL94
 10330 0f95 0100     		.2byte	0x1
 10331 0f97 53       		.byte	0x53
 10332 0f98 FE000000 		.4byte	.LVL94
 10333 0f9c 04010000 		.4byte	.LVL96
 10334 0fa0 0300     		.2byte	0x3
ARM GAS  C:\Users\jo\AppData\Local\Temp\cc8AA3HA.s 			page 184


 10335 0fa2 73       		.byte	0x73
 10336 0fa3 01       		.sleb128 1
 10337 0fa4 9F       		.byte	0x9f
 10338 0fa5 04010000 		.4byte	.LVL96
 10339 0fa9 24010000 		.4byte	.LFE5
 10340 0fad 0100     		.2byte	0x1
 10341 0faf 53       		.byte	0x53
 10342 0fb0 00000000 		.4byte	0
 10343 0fb4 00000000 		.4byte	0
 10344              	.LLST24:
 10345 0fb8 00000000 		.4byte	.LVL98
 10346 0fbc 3E000000 		.4byte	.LVL100
 10347 0fc0 0100     		.2byte	0x1
 10348 0fc2 50       		.byte	0x50
 10349 0fc3 3E000000 		.4byte	.LVL100
 10350 0fc7 B6000000 		.4byte	.LVL116
 10351 0fcb 0300     		.2byte	0x3
 10352 0fcd 91       		.byte	0x91
 10353 0fce AC7F     		.sleb128 -84
 10354 0fd0 B6000000 		.4byte	.LVL116
 10355 0fd4 CA040000 		.4byte	.LVL151
 10356 0fd8 0400     		.2byte	0x4
 10357 0fda F3       		.byte	0xf3
 10358 0fdb 01       		.uleb128 0x1
 10359 0fdc 50       		.byte	0x50
 10360 0fdd 9F       		.byte	0x9f
 10361 0fde CA040000 		.4byte	.LVL151
 10362 0fe2 D6040000 		.4byte	.LVL153
 10363 0fe6 0300     		.2byte	0x3
 10364 0fe8 91       		.byte	0x91
 10365 0fe9 AC7F     		.sleb128 -84
 10366 0feb D6040000 		.4byte	.LVL153
 10367 0fef A8080000 		.4byte	.LFE6
 10368 0ff3 0400     		.2byte	0x4
 10369 0ff5 F3       		.byte	0xf3
 10370 0ff6 01       		.uleb128 0x1
 10371 0ff7 50       		.byte	0x50
 10372 0ff8 9F       		.byte	0x9f
 10373 0ff9 00000000 		.4byte	0
 10374 0ffd 00000000 		.4byte	0
 10375              	.LLST25:
 10376 1001 00000000 		.4byte	.LVL98
 10377 1005 C0000000 		.4byte	.LVL117
 10378 1009 0100     		.2byte	0x1
 10379 100b 51       		.byte	0x51
 10380 100c C0000000 		.4byte	.LVL117
 10381 1010 CA040000 		.4byte	.LVL151
 10382 1014 0400     		.2byte	0x4
 10383 1016 F3       		.byte	0xf3
 10384 1017 01       		.uleb128 0x1
 10385 1018 51       		.byte	0x51
 10386 1019 9F       		.byte	0x9f
 10387 101a CA040000 		.4byte	.LVL151
 10388 101e F0040000 		.4byte	.LVL154
 10389 1022 0100     		.2byte	0x1
 10390 1024 51       		.byte	0x51
 10391 1025 F0040000 		.4byte	.LVL154
ARM GAS  C:\Users\jo\AppData\Local\Temp\cc8AA3HA.s 			page 185


 10392 1029 A8080000 		.4byte	.LFE6
 10393 102d 0400     		.2byte	0x4
 10394 102f F3       		.byte	0xf3
 10395 1030 01       		.uleb128 0x1
 10396 1031 51       		.byte	0x51
 10397 1032 9F       		.byte	0x9f
 10398 1033 00000000 		.4byte	0
 10399 1037 00000000 		.4byte	0
 10400              	.LLST26:
 10401 103b 00000000 		.4byte	.LVL98
 10402 103f 64000000 		.4byte	.LVL103
 10403 1043 0100     		.2byte	0x1
 10404 1045 52       		.byte	0x52
 10405 1046 64000000 		.4byte	.LVL103
 10406 104a A8080000 		.4byte	.LFE6
 10407 104e 0400     		.2byte	0x4
 10408 1050 F3       		.byte	0xf3
 10409 1051 01       		.uleb128 0x1
 10410 1052 52       		.byte	0x52
 10411 1053 9F       		.byte	0x9f
 10412 1054 00000000 		.4byte	0
 10413 1058 00000000 		.4byte	0
 10414              	.LLST27:
 10415 105c 00000000 		.4byte	.LVL98
 10416 1060 46000000 		.4byte	.LVL101
 10417 1064 0100     		.2byte	0x1
 10418 1066 53       		.byte	0x53
 10419 1067 46000000 		.4byte	.LVL101
 10420 106b A8080000 		.4byte	.LFE6
 10421 106f 0200     		.2byte	0x2
 10422 1071 91       		.byte	0x91
 10423 1072 50       		.sleb128 -48
 10424 1073 00000000 		.4byte	0
 10425 1077 00000000 		.4byte	0
 10426              	.LLST28:
 10427 107b A4000000 		.4byte	.LVL114
 10428 107f A8000000 		.4byte	.LVL115
 10429 1083 0100     		.2byte	0x1
 10430 1085 53       		.byte	0x53
 10431 1086 A8000000 		.4byte	.LVL115
 10432 108a 72020000 		.4byte	.LVL132
 10433 108e 0200     		.2byte	0x2
 10434 1090 91       		.byte	0x91
 10435 1091 40       		.sleb128 -64
 10436 1092 72020000 		.4byte	.LVL132
 10437 1096 7E020000 		.4byte	.LVL134
 10438 109a 0100     		.2byte	0x1
 10439 109c 53       		.byte	0x53
 10440 109d 7E020000 		.4byte	.LVL134
 10441 10a1 6A040000 		.4byte	.LVL147
 10442 10a5 0200     		.2byte	0x2
 10443 10a7 91       		.byte	0x91
 10444 10a8 40       		.sleb128 -64
 10445 10a9 CC040000 		.4byte	.LVL152
 10446 10ad 9A060000 		.4byte	.LVL171
 10447 10b1 0200     		.2byte	0x2
 10448 10b3 91       		.byte	0x91
ARM GAS  C:\Users\jo\AppData\Local\Temp\cc8AA3HA.s 			page 186


 10449 10b4 44       		.sleb128 -60
 10450 10b5 9A060000 		.4byte	.LVL171
 10451 10b9 9E060000 		.4byte	.LVL173
 10452 10bd 0600     		.2byte	0x6
 10453 10bf 91       		.byte	0x91
 10454 10c0 44       		.sleb128 -60
 10455 10c1 06       		.byte	0x6
 10456 10c2 31       		.byte	0x31
 10457 10c3 1C       		.byte	0x1c
 10458 10c4 9F       		.byte	0x9f
 10459 10c5 9E060000 		.4byte	.LVL173
 10460 10c9 AA060000 		.4byte	.LVL175
 10461 10cd 0100     		.2byte	0x1
 10462 10cf 53       		.byte	0x53
 10463 10d0 AA060000 		.4byte	.LVL175
 10464 10d4 A8080000 		.4byte	.LFE6
 10465 10d8 0200     		.2byte	0x2
 10466 10da 91       		.byte	0x91
 10467 10db 44       		.sleb128 -60
 10468 10dc 00000000 		.4byte	0
 10469 10e0 00000000 		.4byte	0
 10470              	.LLST29:
 10471 10e4 14000000 		.4byte	.LVL99
 10472 10e8 5C000000 		.4byte	.LVL102
 10473 10ec 0100     		.2byte	0x1
 10474 10ee 55       		.byte	0x55
 10475 10ef 5C000000 		.4byte	.LVL102
 10476 10f3 70000000 		.4byte	.LVL105
 10477 10f7 0300     		.2byte	0x3
 10478 10f9 75       		.byte	0x75
 10479 10fa 04       		.sleb128 4
 10480 10fb 9F       		.byte	0x9f
 10481 10fc 70000000 		.4byte	.LVL105
 10482 1100 7E000000 		.4byte	.LVL108
 10483 1104 0300     		.2byte	0x3
 10484 1106 75       		.byte	0x75
 10485 1107 08       		.sleb128 8
 10486 1108 9F       		.byte	0x9f
 10487 1109 7E000000 		.4byte	.LVL108
 10488 110d 92000000 		.4byte	.LVL112
 10489 1111 0300     		.2byte	0x3
 10490 1113 75       		.byte	0x75
 10491 1114 0C       		.sleb128 12
 10492 1115 9F       		.byte	0x9f
 10493 1116 92000000 		.4byte	.LVL112
 10494 111a 94000000 		.4byte	.LVL113
 10495 111e 0100     		.2byte	0x1
 10496 1120 53       		.byte	0x53
 10497 1121 94000000 		.4byte	.LVL113
 10498 1125 C0000000 		.4byte	.LVL117
 10499 1129 0200     		.2byte	0x2
 10500 112b 91       		.byte	0x91
 10501 112c 4C       		.sleb128 -52
 10502 112d C0000000 		.4byte	.LVL117
 10503 1131 7A010000 		.4byte	.LVL120
 10504 1135 0300     		.2byte	0x3
 10505 1137 79       		.byte	0x79
ARM GAS  C:\Users\jo\AppData\Local\Temp\cc8AA3HA.s 			page 187


 10506 1138 64       		.sleb128 -28
 10507 1139 9F       		.byte	0x9f
 10508 113a 7A010000 		.4byte	.LVL120
 10509 113e 90010000 		.4byte	.LVL124
 10510 1142 0300     		.2byte	0x3
 10511 1144 79       		.byte	0x79
 10512 1145 68       		.sleb128 -24
 10513 1146 9F       		.byte	0x9f
 10514 1147 90010000 		.4byte	.LVL124
 10515 114b 98010000 		.4byte	.LVL125
 10516 114f 0300     		.2byte	0x3
 10517 1151 79       		.byte	0x79
 10518 1152 6C       		.sleb128 -20
 10519 1153 9F       		.byte	0x9f
 10520 1154 98010000 		.4byte	.LVL125
 10521 1158 6E020000 		.4byte	.LVL131
 10522 115c 0300     		.2byte	0x3
 10523 115e 79       		.byte	0x79
 10524 115f 74       		.sleb128 -12
 10525 1160 9F       		.byte	0x9f
 10526 1161 6E020000 		.4byte	.LVL131
 10527 1165 76020000 		.4byte	.LVL133
 10528 1169 0100     		.2byte	0x1
 10529 116b 59       		.byte	0x59
 10530 116c 76020000 		.4byte	.LVL133
 10531 1170 8E020000 		.4byte	.LVL135
 10532 1174 0300     		.2byte	0x3
 10533 1176 79       		.byte	0x79
 10534 1177 60       		.sleb128 -32
 10535 1178 9F       		.byte	0x9f
 10536 1179 8E020000 		.4byte	.LVL135
 10537 117d 6A030000 		.4byte	.LVL139
 10538 1181 0600     		.2byte	0x6
 10539 1183 91       		.byte	0x91
 10540 1184 4C       		.sleb128 -52
 10541 1185 06       		.byte	0x6
 10542 1186 23       		.byte	0x23
 10543 1187 04       		.uleb128 0x4
 10544 1188 9F       		.byte	0x9f
 10545 1189 6A030000 		.4byte	.LVL139
 10546 118d 8E030000 		.4byte	.LVL140
 10547 1191 0600     		.2byte	0x6
 10548 1193 91       		.byte	0x91
 10549 1194 4C       		.sleb128 -52
 10550 1195 06       		.byte	0x6
 10551 1196 23       		.byte	0x23
 10552 1197 08       		.uleb128 0x8
 10553 1198 9F       		.byte	0x9f
 10554 1199 8E030000 		.4byte	.LVL140
 10555 119d 5E040000 		.4byte	.LVL144
 10556 11a1 0600     		.2byte	0x6
 10557 11a3 91       		.byte	0x91
 10558 11a4 4C       		.sleb128 -52
 10559 11a5 06       		.byte	0x6
 10560 11a6 23       		.byte	0x23
 10561 11a7 14       		.uleb128 0x14
 10562 11a8 9F       		.byte	0x9f
ARM GAS  C:\Users\jo\AppData\Local\Temp\cc8AA3HA.s 			page 188


 10563 11a9 5E040000 		.4byte	.LVL144
 10564 11ad 62040000 		.4byte	.LVL145
 10565 11b1 0600     		.2byte	0x6
 10566 11b3 91       		.byte	0x91
 10567 11b4 4C       		.sleb128 -52
 10568 11b5 06       		.byte	0x6
 10569 11b6 23       		.byte	0x23
 10570 11b7 18       		.uleb128 0x18
 10571 11b8 9F       		.byte	0x9f
 10572 11b9 62040000 		.4byte	.LVL145
 10573 11bd 66040000 		.4byte	.LVL146
 10574 11c1 0600     		.2byte	0x6
 10575 11c3 91       		.byte	0x91
 10576 11c4 4C       		.sleb128 -52
 10577 11c5 06       		.byte	0x6
 10578 11c6 23       		.byte	0x23
 10579 11c7 1C       		.uleb128 0x1c
 10580 11c8 9F       		.byte	0x9f
 10581 11c9 66040000 		.4byte	.LVL146
 10582 11cd 6A040000 		.4byte	.LVL147
 10583 11d1 0600     		.2byte	0x6
 10584 11d3 91       		.byte	0x91
 10585 11d4 4C       		.sleb128 -52
 10586 11d5 06       		.byte	0x6
 10587 11d6 23       		.byte	0x23
 10588 11d7 20       		.uleb128 0x20
 10589 11d8 9F       		.byte	0x9f
 10590 11d9 CA040000 		.4byte	.LVL151
 10591 11dd F0040000 		.4byte	.LVL154
 10592 11e1 0200     		.2byte	0x2
 10593 11e3 91       		.byte	0x91
 10594 11e4 4C       		.sleb128 -52
 10595 11e5 F0040000 		.4byte	.LVL154
 10596 11e9 92050000 		.4byte	.LVL155
 10597 11ed 0300     		.2byte	0x3
 10598 11ef 7A       		.byte	0x7a
 10599 11f0 64       		.sleb128 -28
 10600 11f1 9F       		.byte	0x9f
 10601 11f2 92050000 		.4byte	.LVL155
 10602 11f6 C6050000 		.4byte	.LVL161
 10603 11fa 0300     		.2byte	0x3
 10604 11fc 7A       		.byte	0x7a
 10605 11fd 68       		.sleb128 -24
 10606 11fe 9F       		.byte	0x9f
 10607 11ff C6050000 		.4byte	.LVL161
 10608 1203 D2050000 		.4byte	.LVL162
 10609 1207 0300     		.2byte	0x3
 10610 1209 7A       		.byte	0x7a
 10611 120a 6C       		.sleb128 -20
 10612 120b 9F       		.byte	0x9f
 10613 120c D2050000 		.4byte	.LVL162
 10614 1210 8A060000 		.4byte	.LVL167
 10615 1214 0300     		.2byte	0x3
 10616 1216 7A       		.byte	0x7a
 10617 1217 74       		.sleb128 -12
 10618 1218 9F       		.byte	0x9f
 10619 1219 8A060000 		.4byte	.LVL167
ARM GAS  C:\Users\jo\AppData\Local\Temp\cc8AA3HA.s 			page 189


 10620 121d 8E060000 		.4byte	.LVL168
 10621 1221 0300     		.2byte	0x3
 10622 1223 7A       		.byte	0x7a
 10623 1224 78       		.sleb128 -8
 10624 1225 9F       		.byte	0x9f
 10625 1226 8E060000 		.4byte	.LVL168
 10626 122a 94060000 		.4byte	.LVL169
 10627 122e 0300     		.2byte	0x3
 10628 1230 7A       		.byte	0x7a
 10629 1231 7C       		.sleb128 -4
 10630 1232 9F       		.byte	0x9f
 10631 1233 94060000 		.4byte	.LVL169
 10632 1237 A2060000 		.4byte	.LVL174
 10633 123b 0100     		.2byte	0x1
 10634 123d 5A       		.byte	0x5a
 10635 123e A2060000 		.4byte	.LVL174
 10636 1242 C2060000 		.4byte	.LVL177
 10637 1246 0300     		.2byte	0x3
 10638 1248 7A       		.byte	0x7a
 10639 1249 60       		.sleb128 -32
 10640 124a 9F       		.byte	0x9f
 10641 124b C2060000 		.4byte	.LVL177
 10642 124f 94070000 		.4byte	.LVL181
 10643 1253 0600     		.2byte	0x6
 10644 1255 91       		.byte	0x91
 10645 1256 4C       		.sleb128 -52
 10646 1257 06       		.byte	0x6
 10647 1258 23       		.byte	0x23
 10648 1259 04       		.uleb128 0x4
 10649 125a 9F       		.byte	0x9f
 10650 125b 94070000 		.4byte	.LVL181
 10651 125f B2070000 		.4byte	.LVL183
 10652 1263 0600     		.2byte	0x6
 10653 1265 91       		.byte	0x91
 10654 1266 4C       		.sleb128 -52
 10655 1267 06       		.byte	0x6
 10656 1268 23       		.byte	0x23
 10657 1269 08       		.uleb128 0x8
 10658 126a 9F       		.byte	0x9f
 10659 126b B2070000 		.4byte	.LVL183
 10660 126f 96080000 		.4byte	.LVL187
 10661 1273 0600     		.2byte	0x6
 10662 1275 91       		.byte	0x91
 10663 1276 4C       		.sleb128 -52
 10664 1277 06       		.byte	0x6
 10665 1278 23       		.byte	0x23
 10666 1279 14       		.uleb128 0x14
 10667 127a 9F       		.byte	0x9f
 10668 127b 96080000 		.4byte	.LVL187
 10669 127f 9A080000 		.4byte	.LVL188
 10670 1283 0600     		.2byte	0x6
 10671 1285 91       		.byte	0x91
 10672 1286 4C       		.sleb128 -52
 10673 1287 06       		.byte	0x6
 10674 1288 23       		.byte	0x23
 10675 1289 18       		.uleb128 0x18
 10676 128a 9F       		.byte	0x9f
ARM GAS  C:\Users\jo\AppData\Local\Temp\cc8AA3HA.s 			page 190


 10677 128b 9A080000 		.4byte	.LVL188
 10678 128f 9E080000 		.4byte	.LVL189
 10679 1293 0600     		.2byte	0x6
 10680 1295 91       		.byte	0x91
 10681 1296 4C       		.sleb128 -52
 10682 1297 06       		.byte	0x6
 10683 1298 23       		.byte	0x23
 10684 1299 1C       		.uleb128 0x1c
 10685 129a 9F       		.byte	0x9f
 10686 129b 9E080000 		.4byte	.LVL189
 10687 129f A8080000 		.4byte	.LFE6
 10688 12a3 0600     		.2byte	0x6
 10689 12a5 91       		.byte	0x91
 10690 12a6 4C       		.sleb128 -52
 10691 12a7 06       		.byte	0x6
 10692 12a8 23       		.byte	0x23
 10693 12a9 20       		.uleb128 0x20
 10694 12aa 9F       		.byte	0x9f
 10695 12ab 00000000 		.4byte	0
 10696 12af 00000000 		.4byte	0
 10697              	.LLST30:
 10698 12b3 5C000000 		.4byte	.LVL102
 10699 12b7 52010000 		.4byte	.LVL119
 10700 12bb 0100     		.2byte	0x1
 10701 12bd 58       		.byte	0x58
 10702 12be 6E020000 		.4byte	.LVL131
 10703 12c2 12030000 		.4byte	.LVL137
 10704 12c6 0100     		.2byte	0x1
 10705 12c8 58       		.byte	0x58
 10706 12c9 5E040000 		.4byte	.LVL144
 10707 12cd 98040000 		.4byte	.LVL149
 10708 12d1 0100     		.2byte	0x1
 10709 12d3 53       		.byte	0x53
 10710 12d4 CA040000 		.4byte	.LVL151
 10711 12d8 A0050000 		.4byte	.LVL157
 10712 12dc 0100     		.2byte	0x1
 10713 12de 58       		.byte	0x58
 10714 12df 8A060000 		.4byte	.LVL167
 10715 12e3 34070000 		.4byte	.LVL178
 10716 12e7 0100     		.2byte	0x1
 10717 12e9 58       		.byte	0x58
 10718 12ea 96080000 		.4byte	.LVL187
 10719 12ee A8080000 		.4byte	.LFE6
 10720 12f2 0100     		.2byte	0x1
 10721 12f4 53       		.byte	0x53
 10722 12f5 00000000 		.4byte	0
 10723 12f9 00000000 		.4byte	0
 10724              	.LLST31:
 10725 12fd 70000000 		.4byte	.LVL105
 10726 1301 78000000 		.4byte	.LVL106
 10727 1305 0100     		.2byte	0x1
 10728 1307 54       		.byte	0x54
 10729 1308 78000000 		.4byte	.LVL106
 10730 130c 7A000000 		.4byte	.LVL107
 10731 1310 0100     		.2byte	0x1
 10732 1312 53       		.byte	0x53
 10733 1313 7A000000 		.4byte	.LVL107
ARM GAS  C:\Users\jo\AppData\Local\Temp\cc8AA3HA.s 			page 191


 10734 1317 84010000 		.4byte	.LVL121
 10735 131b 0300     		.2byte	0x3
 10736 131d 91       		.byte	0x91
 10737 131e B47F     		.sleb128 -76
 10738 1320 6E020000 		.4byte	.LVL131
 10739 1324 62040000 		.4byte	.LVL145
 10740 1328 0300     		.2byte	0x3
 10741 132a 91       		.byte	0x91
 10742 132b B47F     		.sleb128 -76
 10743 132d 62040000 		.4byte	.LVL145
 10744 1331 9C040000 		.4byte	.LVL150
 10745 1335 0100     		.2byte	0x1
 10746 1337 5E       		.byte	0x5e
 10747 1338 CA040000 		.4byte	.LVL151
 10748 133c F0040000 		.4byte	.LVL154
 10749 1340 0300     		.2byte	0x3
 10750 1342 91       		.byte	0x91
 10751 1343 B47F     		.sleb128 -76
 10752 1345 F0040000 		.4byte	.LVL154
 10753 1349 96050000 		.4byte	.LVL156
 10754 134d 0100     		.2byte	0x1
 10755 134f 54       		.byte	0x54
 10756 1350 8E060000 		.4byte	.LVL168
 10757 1354 C2060000 		.4byte	.LVL177
 10758 1358 0100     		.2byte	0x1
 10759 135a 54       		.byte	0x54
 10760 135b C2060000 		.4byte	.LVL177
 10761 135f 9A080000 		.4byte	.LVL188
 10762 1363 0300     		.2byte	0x3
 10763 1365 91       		.byte	0x91
 10764 1366 B47F     		.sleb128 -76
 10765 1368 9A080000 		.4byte	.LVL188
 10766 136c A8080000 		.4byte	.LFE6
 10767 1370 0100     		.2byte	0x1
 10768 1372 5E       		.byte	0x5e
 10769 1373 00000000 		.4byte	0
 10770 1377 00000000 		.4byte	0
 10771              	.LLST32:
 10772 137b 7E000000 		.4byte	.LVL108
 10773 137f C0000000 		.4byte	.LVL117
 10774 1383 0100     		.2byte	0x1
 10775 1385 57       		.byte	0x57
 10776 1386 C0000000 		.4byte	.LVL117
 10777 138a B0010000 		.4byte	.LVL126
 10778 138e 0300     		.2byte	0x3
 10779 1390 91       		.byte	0x91
 10780 1391 BC7F     		.sleb128 -68
 10781 1393 6E020000 		.4byte	.LVL131
 10782 1397 8E020000 		.4byte	.LVL135
 10783 139b 0300     		.2byte	0x3
 10784 139d 91       		.byte	0x91
 10785 139e BC7F     		.sleb128 -68
 10786 13a0 8E020000 		.4byte	.LVL135
 10787 13a4 28030000 		.4byte	.LVL138
 10788 13a8 0100     		.2byte	0x1
 10789 13aa 57       		.byte	0x57
 10790 13ab 66040000 		.4byte	.LVL146
ARM GAS  C:\Users\jo\AppData\Local\Temp\cc8AA3HA.s 			page 192


 10791 13af 78040000 		.4byte	.LVL148
 10792 13b3 0100     		.2byte	0x1
 10793 13b5 50       		.byte	0x50
 10794 13b6 CA040000 		.4byte	.LVL151
 10795 13ba F0040000 		.4byte	.LVL154
 10796 13be 0100     		.2byte	0x1
 10797 13c0 57       		.byte	0x57
 10798 13c1 F0040000 		.4byte	.LVL154
 10799 13c5 E4050000 		.4byte	.LVL163
 10800 13c9 0200     		.2byte	0x2
 10801 13cb 91       		.byte	0x91
 10802 13cc 40       		.sleb128 -64
 10803 13cd 94060000 		.4byte	.LVL169
 10804 13d1 98060000 		.4byte	.LVL170
 10805 13d5 0100     		.2byte	0x1
 10806 13d7 53       		.byte	0x53
 10807 13d8 98060000 		.4byte	.LVL170
 10808 13dc C2060000 		.4byte	.LVL177
 10809 13e0 0200     		.2byte	0x2
 10810 13e2 91       		.byte	0x91
 10811 13e3 40       		.sleb128 -64
 10812 13e4 C2060000 		.4byte	.LVL177
 10813 13e8 4A070000 		.4byte	.LVL179
 10814 13ec 0100     		.2byte	0x1
 10815 13ee 57       		.byte	0x57
 10816 13ef 9E080000 		.4byte	.LVL189
 10817 13f3 A8080000 		.4byte	.LFE6
 10818 13f7 0100     		.2byte	0x1
 10819 13f9 50       		.byte	0x50
 10820 13fa 00000000 		.4byte	0
 10821 13fe 00000000 		.4byte	0
 10822              	.LLST33:
 10823 1402 8A000000 		.4byte	.LVL110
 10824 1406 8C000000 		.4byte	.LVL111
 10825 140a 0100     		.2byte	0x1
 10826 140c 52       		.byte	0x52
 10827 140d 8C000000 		.4byte	.LVL111
 10828 1411 92000000 		.4byte	.LVL112
 10829 1415 1000     		.2byte	0x10
 10830 1417 F3       		.byte	0xf3
 10831 1418 01       		.uleb128 0x1
 10832 1419 52       		.byte	0x52
 10833 141a 23       		.byte	0x23
 10834 141b 0F       		.uleb128 0xf
 10835 141c 94       		.byte	0x94
 10836 141d 01       		.byte	0x1
 10837 141e 08       		.byte	0x8
 10838 141f FF       		.byte	0xff
 10839 1420 1A       		.byte	0x1a
 10840 1421 48       		.byte	0x48
 10841 1422 24       		.byte	0x24
 10842 1423 76       		.byte	0x76
 10843 1424 00       		.sleb128 0
 10844 1425 21       		.byte	0x21
 10845 1426 9F       		.byte	0x9f
 10846 1427 92000000 		.4byte	.LVL112
 10847 142b 4E010000 		.4byte	.LVL118
ARM GAS  C:\Users\jo\AppData\Local\Temp\cc8AA3HA.s 			page 193


 10848 142f 0100     		.2byte	0x1
 10849 1431 52       		.byte	0x52
 10850 1432 72020000 		.4byte	.LVL132
 10851 1436 EE020000 		.4byte	.LVL136
 10852 143a 0100     		.2byte	0x1
 10853 143c 52       		.byte	0x52
 10854 143d 6A040000 		.4byte	.LVL147
 10855 1441 F0040000 		.4byte	.LVL154
 10856 1445 0100     		.2byte	0x1
 10857 1447 52       		.byte	0x52
 10858 1448 F0040000 		.4byte	.LVL154
 10859 144c BC050000 		.4byte	.LVL160
 10860 1450 0300     		.2byte	0x3
 10861 1452 91       		.byte	0x91
 10862 1453 B87F     		.sleb128 -72
 10863 1455 9A060000 		.4byte	.LVL171
 10864 1459 9C060000 		.4byte	.LVL172
 10865 145d 0100     		.2byte	0x1
 10866 145f 53       		.byte	0x53
 10867 1460 9C060000 		.4byte	.LVL172
 10868 1464 C2060000 		.4byte	.LVL177
 10869 1468 0300     		.2byte	0x3
 10870 146a 91       		.byte	0x91
 10871 146b B87F     		.sleb128 -72
 10872 146d C2060000 		.4byte	.LVL177
 10873 1471 70070000 		.4byte	.LVL180
 10874 1475 0100     		.2byte	0x1
 10875 1477 52       		.byte	0x52
 10876 1478 A2080000 		.4byte	.LVL190
 10877 147c A8080000 		.4byte	.LFE6
 10878 1480 0100     		.2byte	0x1
 10879 1482 52       		.byte	0x52
 10880 1483 00000000 		.4byte	0
 10881 1487 00000000 		.4byte	0
 10882              	.LLST34:
 10883 148b 7A010000 		.4byte	.LVL120
 10884 148f 8A010000 		.4byte	.LVL122
 10885 1493 0100     		.2byte	0x1
 10886 1495 55       		.byte	0x55
 10887 1496 8A010000 		.4byte	.LVL122
 10888 149a 8C010000 		.4byte	.LVL123
 10889 149e 0100     		.2byte	0x1
 10890 14a0 56       		.byte	0x56
 10891 14a1 8C010000 		.4byte	.LVL123
 10892 14a5 60020000 		.4byte	.LVL130
 10893 14a9 0300     		.2byte	0x3
 10894 14ab 91       		.byte	0x91
 10895 14ac B47F     		.sleb128 -76
 10896 14ae 6A030000 		.4byte	.LVL139
 10897 14b2 34040000 		.4byte	.LVL143
 10898 14b6 0100     		.2byte	0x1
 10899 14b8 51       		.byte	0x51
 10900 14b9 92050000 		.4byte	.LVL155
 10901 14bd B0050000 		.4byte	.LVL158
 10902 14c1 0100     		.2byte	0x1
 10903 14c3 55       		.byte	0x55
 10904 14c4 B0050000 		.4byte	.LVL158
ARM GAS  C:\Users\jo\AppData\Local\Temp\cc8AA3HA.s 			page 194


 10905 14c8 B2050000 		.4byte	.LVL159
 10906 14cc 0100     		.2byte	0x1
 10907 14ce 56       		.byte	0x56
 10908 14cf B2050000 		.4byte	.LVL159
 10909 14d3 B6060000 		.4byte	.LVL176
 10910 14d7 0300     		.2byte	0x3
 10911 14d9 91       		.byte	0x91
 10912 14da B47F     		.sleb128 -76
 10913 14dc 94070000 		.4byte	.LVL181
 10914 14e0 9A070000 		.4byte	.LVL182
 10915 14e4 0100     		.2byte	0x1
 10916 14e6 52       		.byte	0x52
 10917 14e7 9A070000 		.4byte	.LVL182
 10918 14eb A8080000 		.4byte	.LFE6
 10919 14ef 0300     		.2byte	0x3
 10920 14f1 91       		.byte	0x91
 10921 14f2 AC7F     		.sleb128 -84
 10922 14f4 00000000 		.4byte	0
 10923 14f8 00000000 		.4byte	0
 10924              	.LLST35:
 10925 14fc 90010000 		.4byte	.LVL124
 10926 1500 14020000 		.4byte	.LVL128
 10927 1504 0100     		.2byte	0x1
 10928 1506 51       		.byte	0x51
 10929 1507 8E030000 		.4byte	.LVL140
 10930 150b D8030000 		.4byte	.LVL141
 10931 150f 0100     		.2byte	0x1
 10932 1511 52       		.byte	0x52
 10933 1512 C6050000 		.4byte	.LVL161
 10934 1516 74060000 		.4byte	.LVL166
 10935 151a 0100     		.2byte	0x1
 10936 151c 52       		.byte	0x52
 10937 151d B2070000 		.4byte	.LVL183
 10938 1521 5E080000 		.4byte	.LVL186
 10939 1525 0100     		.2byte	0x1
 10940 1527 51       		.byte	0x51
 10941 1528 00000000 		.4byte	0
 10942 152c 00000000 		.4byte	0
 10943              	.LLST36:
 10944 1530 98010000 		.4byte	.LVL125
 10945 1534 42020000 		.4byte	.LVL129
 10946 1538 0100     		.2byte	0x1
 10947 153a 58       		.byte	0x58
 10948 153b 8E030000 		.4byte	.LVL140
 10949 153f 2E040000 		.4byte	.LVL142
 10950 1543 0100     		.2byte	0x1
 10951 1545 54       		.byte	0x54
 10952 1546 D2050000 		.4byte	.LVL162
 10953 154a 3A060000 		.4byte	.LVL164
 10954 154e 0100     		.2byte	0x1
 10955 1550 58       		.byte	0x58
 10956 1551 B2070000 		.4byte	.LVL183
 10957 1555 F6070000 		.4byte	.LVL184
 10958 1559 0100     		.2byte	0x1
 10959 155b 55       		.byte	0x55
 10960 155c 00000000 		.4byte	0
 10961 1560 00000000 		.4byte	0
ARM GAS  C:\Users\jo\AppData\Local\Temp\cc8AA3HA.s 			page 195


 10962              	.LLST37:
 10963 1564 98010000 		.4byte	.LVL125
 10964 1568 FE010000 		.4byte	.LVL127
 10965 156c 0100     		.2byte	0x1
 10966 156e 53       		.byte	0x53
 10967 156f D2050000 		.4byte	.LVL162
 10968 1573 42060000 		.4byte	.LVL165
 10969 1577 0100     		.2byte	0x1
 10970 1579 51       		.byte	0x51
 10971 157a B2070000 		.4byte	.LVL183
 10972 157e 3C080000 		.4byte	.LVL185
 10973 1582 0100     		.2byte	0x1
 10974 1584 52       		.byte	0x52
 10975 1585 00000000 		.4byte	0
 10976 1589 00000000 		.4byte	0
 10977              	.LLST38:
 10978 158d 00000000 		.4byte	.LVL191
 10979 1591 24000000 		.4byte	.LVL194
 10980 1595 0100     		.2byte	0x1
 10981 1597 50       		.byte	0x50
 10982 1598 24000000 		.4byte	.LVL194
 10983 159c 68000000 		.4byte	.LVL203
 10984 15a0 0100     		.2byte	0x1
 10985 15a2 56       		.byte	0x56
 10986 15a3 68000000 		.4byte	.LVL203
 10987 15a7 6E000000 		.4byte	.LVL204
 10988 15ab 0400     		.2byte	0x4
 10989 15ad F3       		.byte	0xf3
 10990 15ae 01       		.uleb128 0x1
 10991 15af 50       		.byte	0x50
 10992 15b0 9F       		.byte	0x9f
 10993 15b1 6E000000 		.4byte	.LVL204
 10994 15b5 74000000 		.4byte	.LVL205
 10995 15b9 0100     		.2byte	0x1
 10996 15bb 50       		.byte	0x50
 10997 15bc 74000000 		.4byte	.LVL205
 10998 15c0 CE000000 		.4byte	.LVL211
 10999 15c4 0100     		.2byte	0x1
 11000 15c6 56       		.byte	0x56
 11001 15c7 CE000000 		.4byte	.LVL211
 11002 15cb D2000000 		.4byte	.LVL212
 11003 15cf 0100     		.2byte	0x1
 11004 15d1 50       		.byte	0x50
 11005 15d2 D2000000 		.4byte	.LVL212
 11006 15d6 D4000000 		.4byte	.LFE7
 11007 15da 0400     		.2byte	0x4
 11008 15dc F3       		.byte	0xf3
 11009 15dd 01       		.uleb128 0x1
 11010 15de 50       		.byte	0x50
 11011 15df 9F       		.byte	0x9f
 11012 15e0 00000000 		.4byte	0
 11013 15e4 00000000 		.4byte	0
 11014              	.LLST39:
 11015 15e8 00000000 		.4byte	.LVL191
 11016 15ec 24000000 		.4byte	.LVL194
 11017 15f0 0100     		.2byte	0x1
 11018 15f2 51       		.byte	0x51
ARM GAS  C:\Users\jo\AppData\Local\Temp\cc8AA3HA.s 			page 196


 11019 15f3 24000000 		.4byte	.LVL194
 11020 15f7 68000000 		.4byte	.LVL203
 11021 15fb 0100     		.2byte	0x1
 11022 15fd 59       		.byte	0x59
 11023 15fe 68000000 		.4byte	.LVL203
 11024 1602 6E000000 		.4byte	.LVL204
 11025 1606 0400     		.2byte	0x4
 11026 1608 F3       		.byte	0xf3
 11027 1609 01       		.uleb128 0x1
 11028 160a 51       		.byte	0x51
 11029 160b 9F       		.byte	0x9f
 11030 160c 6E000000 		.4byte	.LVL204
 11031 1610 74000000 		.4byte	.LVL205
 11032 1614 0100     		.2byte	0x1
 11033 1616 51       		.byte	0x51
 11034 1617 74000000 		.4byte	.LVL205
 11035 161b CE000000 		.4byte	.LVL211
 11036 161f 0100     		.2byte	0x1
 11037 1621 59       		.byte	0x59
 11038 1622 CE000000 		.4byte	.LVL211
 11039 1626 D4000000 		.4byte	.LFE7
 11040 162a 0100     		.2byte	0x1
 11041 162c 51       		.byte	0x51
 11042 162d 00000000 		.4byte	0
 11043 1631 00000000 		.4byte	0
 11044              	.LLST40:
 11045 1635 00000000 		.4byte	.LVL191
 11046 1639 24000000 		.4byte	.LVL194
 11047 163d 0100     		.2byte	0x1
 11048 163f 52       		.byte	0x52
 11049 1640 24000000 		.4byte	.LVL194
 11050 1644 5A000000 		.4byte	.LVL200
 11051 1648 0100     		.2byte	0x1
 11052 164a 58       		.byte	0x58
 11053 164b 5A000000 		.4byte	.LVL200
 11054 164f 64000000 		.4byte	.LVL201
 11055 1653 0300     		.2byte	0x3
 11056 1655 78       		.byte	0x78
 11057 1656 10       		.sleb128 16
 11058 1657 9F       		.byte	0x9f
 11059 1658 6E000000 		.4byte	.LVL204
 11060 165c 74000000 		.4byte	.LVL205
 11061 1660 0100     		.2byte	0x1
 11062 1662 52       		.byte	0x52
 11063 1663 74000000 		.4byte	.LVL205
 11064 1667 CE000000 		.4byte	.LVL211
 11065 166b 0400     		.2byte	0x4
 11066 166d F3       		.byte	0xf3
 11067 166e 01       		.uleb128 0x1
 11068 166f 52       		.byte	0x52
 11069 1670 9F       		.byte	0x9f
 11070 1671 CE000000 		.4byte	.LVL211
 11071 1675 D4000000 		.4byte	.LFE7
 11072 1679 0100     		.2byte	0x1
 11073 167b 52       		.byte	0x52
 11074 167c 00000000 		.4byte	0
 11075 1680 00000000 		.4byte	0
ARM GAS  C:\Users\jo\AppData\Local\Temp\cc8AA3HA.s 			page 197


 11076              	.LLST41:
 11077 1684 00000000 		.4byte	.LVL191
 11078 1688 24000000 		.4byte	.LVL194
 11079 168c 0100     		.2byte	0x1
 11080 168e 53       		.byte	0x53
 11081 168f 24000000 		.4byte	.LVL194
 11082 1693 68000000 		.4byte	.LVL203
 11083 1697 0100     		.2byte	0x1
 11084 1699 55       		.byte	0x55
 11085 169a 68000000 		.4byte	.LVL203
 11086 169e 6E000000 		.4byte	.LVL204
 11087 16a2 0400     		.2byte	0x4
 11088 16a4 F3       		.byte	0xf3
 11089 16a5 01       		.uleb128 0x1
 11090 16a6 53       		.byte	0x53
 11091 16a7 9F       		.byte	0x9f
 11092 16a8 6E000000 		.4byte	.LVL204
 11093 16ac 74000000 		.4byte	.LVL205
 11094 16b0 0100     		.2byte	0x1
 11095 16b2 53       		.byte	0x53
 11096 16b3 74000000 		.4byte	.LVL205
 11097 16b7 CE000000 		.4byte	.LVL211
 11098 16bb 0100     		.2byte	0x1
 11099 16bd 55       		.byte	0x55
 11100 16be CE000000 		.4byte	.LVL211
 11101 16c2 D4000000 		.4byte	.LFE7
 11102 16c6 0100     		.2byte	0x1
 11103 16c8 53       		.byte	0x53
 11104 16c9 00000000 		.4byte	0
 11105 16cd 00000000 		.4byte	0
 11106              	.LLST42:
 11107 16d1 00000000 		.4byte	.LVL191
 11108 16d5 1C000000 		.4byte	.LVL192
 11109 16d9 0200     		.2byte	0x2
 11110 16db 91       		.byte	0x91
 11111 16dc 00       		.sleb128 0
 11112 16dd 1C000000 		.4byte	.LVL192
 11113 16e1 22000000 		.4byte	.LVL193
 11114 16e5 0100     		.2byte	0x1
 11115 16e7 5A       		.byte	0x5a
 11116 16e8 22000000 		.4byte	.LVL193
 11117 16ec 56000000 		.4byte	.LVL199
 11118 16f0 0200     		.2byte	0x2
 11119 16f2 91       		.byte	0x91
 11120 16f3 00       		.sleb128 0
 11121 16f4 56000000 		.4byte	.LVL199
 11122 16f8 66000000 		.4byte	.LVL202
 11123 16fc 0600     		.2byte	0x6
 11124 16fe 91       		.byte	0x91
 11125 16ff 00       		.sleb128 0
 11126 1700 06       		.byte	0x6
 11127 1701 23       		.byte	0x23
 11128 1702 10       		.uleb128 0x10
 11129 1703 9F       		.byte	0x9f
 11130 1704 6E000000 		.4byte	.LVL204
 11131 1708 D4000000 		.4byte	.LFE7
 11132 170c 0200     		.2byte	0x2
ARM GAS  C:\Users\jo\AppData\Local\Temp\cc8AA3HA.s 			page 198


 11133 170e 91       		.byte	0x91
 11134 170f 00       		.sleb128 0
 11135 1710 00000000 		.4byte	0
 11136 1714 00000000 		.4byte	0
 11137              	.LLST43:
 11138 1718 00000000 		.4byte	.LVL191
 11139 171c 1C000000 		.4byte	.LVL192
 11140 1720 0200     		.2byte	0x2
 11141 1722 91       		.byte	0x91
 11142 1723 04       		.sleb128 4
 11143 1724 1C000000 		.4byte	.LVL192
 11144 1728 66000000 		.4byte	.LVL202
 11145 172c 0100     		.2byte	0x1
 11146 172e 54       		.byte	0x54
 11147 172f 6E000000 		.4byte	.LVL204
 11148 1733 D4000000 		.4byte	.LFE7
 11149 1737 0200     		.2byte	0x2
 11150 1739 91       		.byte	0x91
 11151 173a 04       		.sleb128 4
 11152 173b 00000000 		.4byte	0
 11153 173f 00000000 		.4byte	0
 11154              	.LLST44:
 11155 1743 24000000 		.4byte	.LVL194
 11156 1747 2C000000 		.4byte	.LVL195
 11157 174b 0200     		.2byte	0x2
 11158 174d 30       		.byte	0x30
 11159 174e 9F       		.byte	0x9f
 11160 174f 2C000000 		.4byte	.LVL195
 11161 1753 30000000 		.4byte	.LVL196
 11162 1757 0900     		.2byte	0x9
 11163 1759 7A       		.byte	0x7a
 11164 175a 00       		.sleb128 0
 11165 175b 91       		.byte	0x91
 11166 175c 00       		.sleb128 0
 11167 175d 06       		.byte	0x6
 11168 175e 1C       		.byte	0x1c
 11169 175f 23       		.byte	0x23
 11170 1760 01       		.uleb128 0x1
 11171 1761 9F       		.byte	0x9f
 11172 1762 30000000 		.4byte	.LVL196
 11173 1766 3E000000 		.4byte	.LVL197
 11174 176a 0700     		.2byte	0x7
 11175 176c 7A       		.byte	0x7a
 11176 176d 00       		.sleb128 0
 11177 176e 91       		.byte	0x91
 11178 176f 00       		.sleb128 0
 11179 1770 06       		.byte	0x6
 11180 1771 1C       		.byte	0x1c
 11181 1772 9F       		.byte	0x9f
 11182 1773 3E000000 		.4byte	.LVL197
 11183 1777 66000000 		.4byte	.LVL202
 11184 177b 0900     		.2byte	0x9
 11185 177d 7A       		.byte	0x7a
 11186 177e 00       		.sleb128 0
 11187 177f 91       		.byte	0x91
 11188 1780 00       		.sleb128 0
 11189 1781 06       		.byte	0x6
ARM GAS  C:\Users\jo\AppData\Local\Temp\cc8AA3HA.s 			page 199


 11190 1782 1C       		.byte	0x1c
 11191 1783 23       		.byte	0x23
 11192 1784 01       		.uleb128 0x1
 11193 1785 9F       		.byte	0x9f
 11194 1786 00000000 		.4byte	0
 11195 178a 00000000 		.4byte	0
 11196              	.LLST45:
 11197 178e 6E000000 		.4byte	.LVL204
 11198 1792 C2000000 		.4byte	.LVL209
 11199 1796 0100     		.2byte	0x1
 11200 1798 54       		.byte	0x54
 11201 1799 C2000000 		.4byte	.LVL209
 11202 179d CA000000 		.4byte	.LVL210
 11203 17a1 0300     		.2byte	0x3
 11204 17a3 74       		.byte	0x74
 11205 17a4 70       		.sleb128 -16
 11206 17a5 9F       		.byte	0x9f
 11207 17a6 CA000000 		.4byte	.LVL210
 11208 17aa CE000000 		.4byte	.LVL211
 11209 17ae 0100     		.2byte	0x1
 11210 17b0 54       		.byte	0x54
 11211 17b1 00000000 		.4byte	0
 11212 17b5 00000000 		.4byte	0
 11213              	.LLST46:
 11214 17b9 6E000000 		.4byte	.LVL204
 11215 17bd 74000000 		.4byte	.LVL205
 11216 17c1 0100     		.2byte	0x1
 11217 17c3 5A       		.byte	0x5a
 11218 17c4 00000000 		.4byte	0
 11219 17c8 00000000 		.4byte	0
 11220              	.LLST47:
 11221 17cc 6E000000 		.4byte	.LVL204
 11222 17d0 74000000 		.4byte	.LVL205
 11223 17d4 0100     		.2byte	0x1
 11224 17d6 52       		.byte	0x52
 11225 17d7 74000000 		.4byte	.LVL205
 11226 17db BA000000 		.4byte	.LVL208
 11227 17df 0100     		.2byte	0x1
 11228 17e1 58       		.byte	0x58
 11229 17e2 BA000000 		.4byte	.LVL208
 11230 17e6 CA000000 		.4byte	.LVL210
 11231 17ea 0300     		.2byte	0x3
 11232 17ec 78       		.byte	0x78
 11233 17ed 10       		.sleb128 16
 11234 17ee 9F       		.byte	0x9f
 11235 17ef 00000000 		.4byte	0
 11236 17f3 00000000 		.4byte	0
 11237              	.LLST48:
 11238 17f7 96000000 		.4byte	.LVL206
 11239 17fb 9E000000 		.4byte	.LVL207
 11240 17ff 0200     		.2byte	0x2
 11241 1801 30       		.byte	0x30
 11242 1802 9F       		.byte	0x9f
 11243 1803 00000000 		.4byte	0
 11244 1807 00000000 		.4byte	0
 11245              	.LLST49:
 11246 180b 00000000 		.4byte	.LVL213
ARM GAS  C:\Users\jo\AppData\Local\Temp\cc8AA3HA.s 			page 200


 11247 180f 1A000000 		.4byte	.LVL217
 11248 1813 0100     		.2byte	0x1
 11249 1815 50       		.byte	0x50
 11250 1816 1A000000 		.4byte	.LVL217
 11251 181a 3E000000 		.4byte	.LVL221
 11252 181e 0100     		.2byte	0x1
 11253 1820 57       		.byte	0x57
 11254 1821 3E000000 		.4byte	.LVL221
 11255 1825 46000000 		.4byte	.LVL222
 11256 1829 0100     		.2byte	0x1
 11257 182b 50       		.byte	0x50
 11258 182c 46000000 		.4byte	.LVL222
 11259 1830 7E000000 		.4byte	.LFE8
 11260 1834 0100     		.2byte	0x1
 11261 1836 57       		.byte	0x57
 11262 1837 00000000 		.4byte	0
 11263 183b 00000000 		.4byte	0
 11264              	.LLST50:
 11265 183f 00000000 		.4byte	.LVL213
 11266 1843 1A000000 		.4byte	.LVL217
 11267 1847 0100     		.2byte	0x1
 11268 1849 51       		.byte	0x51
 11269 184a 1A000000 		.4byte	.LVL217
 11270 184e 3E000000 		.4byte	.LVL221
 11271 1852 0400     		.2byte	0x4
 11272 1854 F3       		.byte	0xf3
 11273 1855 01       		.uleb128 0x1
 11274 1856 51       		.byte	0x51
 11275 1857 9F       		.byte	0x9f
 11276 1858 3E000000 		.4byte	.LVL221
 11277 185c 46000000 		.4byte	.LVL222
 11278 1860 0100     		.2byte	0x1
 11279 1862 51       		.byte	0x51
 11280 1863 46000000 		.4byte	.LVL222
 11281 1867 7E000000 		.4byte	.LFE8
 11282 186b 0400     		.2byte	0x4
 11283 186d F3       		.byte	0xf3
 11284 186e 01       		.uleb128 0x1
 11285 186f 51       		.byte	0x51
 11286 1870 9F       		.byte	0x9f
 11287 1871 00000000 		.4byte	0
 11288 1875 00000000 		.4byte	0
 11289              	.LLST51:
 11290 1879 00000000 		.4byte	.LVL213
 11291 187d 12000000 		.4byte	.LVL216
 11292 1881 0100     		.2byte	0x1
 11293 1883 52       		.byte	0x52
 11294 1884 12000000 		.4byte	.LVL216
 11295 1888 1A000000 		.4byte	.LVL217
 11296 188c 0300     		.2byte	0x3
 11297 188e 72       		.byte	0x72
 11298 188f 7F       		.sleb128 -1
 11299 1890 9F       		.byte	0x9f
 11300 1891 1A000000 		.4byte	.LVL217
 11301 1895 28000000 		.4byte	.LVL219
 11302 1899 0300     		.2byte	0x3
 11303 189b 75       		.byte	0x75
ARM GAS  C:\Users\jo\AppData\Local\Temp\cc8AA3HA.s 			page 201


 11304 189c 7F       		.sleb128 -1
 11305 189d 9F       		.byte	0x9f
 11306 189e 28000000 		.4byte	.LVL219
 11307 18a2 32000000 		.4byte	.LVL220
 11308 18a6 0100     		.2byte	0x1
 11309 18a8 55       		.byte	0x55
 11310 18a9 3E000000 		.4byte	.LVL221
 11311 18ad 46000000 		.4byte	.LVL222
 11312 18b1 0300     		.2byte	0x3
 11313 18b3 72       		.byte	0x72
 11314 18b4 7F       		.sleb128 -1
 11315 18b5 9F       		.byte	0x9f
 11316 18b6 5E000000 		.4byte	.LVL226
 11317 18ba 62000000 		.4byte	.LVL227
 11318 18be 0300     		.2byte	0x3
 11319 18c0 75       		.byte	0x75
 11320 18c1 7F       		.sleb128 -1
 11321 18c2 9F       		.byte	0x9f
 11322 18c3 70000000 		.4byte	.LVL229
 11323 18c7 7E000000 		.4byte	.LFE8
 11324 18cb 0300     		.2byte	0x3
 11325 18cd 75       		.byte	0x75
 11326 18ce 7F       		.sleb128 -1
 11327 18cf 9F       		.byte	0x9f
 11328 18d0 00000000 		.4byte	0
 11329 18d4 00000000 		.4byte	0
 11330              	.LLST52:
 11331 18d8 00000000 		.4byte	.LVL213
 11332 18dc 1A000000 		.4byte	.LVL217
 11333 18e0 0100     		.2byte	0x1
 11334 18e2 53       		.byte	0x53
 11335 18e3 1A000000 		.4byte	.LVL217
 11336 18e7 3E000000 		.4byte	.LVL221
 11337 18eb 0100     		.2byte	0x1
 11338 18ed 58       		.byte	0x58
 11339 18ee 3E000000 		.4byte	.LVL221
 11340 18f2 46000000 		.4byte	.LVL222
 11341 18f6 0100     		.2byte	0x1
 11342 18f8 53       		.byte	0x53
 11343 18f9 46000000 		.4byte	.LVL222
 11344 18fd 7E000000 		.4byte	.LFE8
 11345 1901 0100     		.2byte	0x1
 11346 1903 58       		.byte	0x58
 11347 1904 00000000 		.4byte	0
 11348 1908 00000000 		.4byte	0
 11349              	.LLST53:
 11350 190c 00000000 		.4byte	.LVL213
 11351 1910 06000000 		.4byte	.LVL214
 11352 1914 0200     		.2byte	0x2
 11353 1916 91       		.byte	0x91
 11354 1917 00       		.sleb128 0
 11355 1918 06000000 		.4byte	.LVL214
 11356 191c 10000000 		.4byte	.LVL215
 11357 1920 0200     		.2byte	0x2
 11358 1922 76       		.byte	0x76
 11359 1923 00       		.sleb128 0
 11360 1924 10000000 		.4byte	.LVL215
ARM GAS  C:\Users\jo\AppData\Local\Temp\cc8AA3HA.s 			page 202


 11361 1928 7E000000 		.4byte	.LFE8
 11362 192c 0200     		.2byte	0x2
 11363 192e 91       		.byte	0x91
 11364 192f 00       		.sleb128 0
 11365 1930 00000000 		.4byte	0
 11366 1934 00000000 		.4byte	0
 11367              	.LLST54:
 11368 1938 00000000 		.4byte	.LVL213
 11369 193c 06000000 		.4byte	.LVL214
 11370 1940 0200     		.2byte	0x2
 11371 1942 91       		.byte	0x91
 11372 1943 04       		.sleb128 4
 11373 1944 06000000 		.4byte	.LVL214
 11374 1948 10000000 		.4byte	.LVL215
 11375 194c 0200     		.2byte	0x2
 11376 194e 76       		.byte	0x76
 11377 194f 04       		.sleb128 4
 11378 1950 10000000 		.4byte	.LVL215
 11379 1954 12000000 		.4byte	.LVL216
 11380 1958 0200     		.2byte	0x2
 11381 195a 91       		.byte	0x91
 11382 195b 04       		.sleb128 4
 11383 195c 12000000 		.4byte	.LVL216
 11384 1960 22000000 		.4byte	.LVL218
 11385 1964 0100     		.2byte	0x1
 11386 1966 59       		.byte	0x59
 11387 1967 22000000 		.4byte	.LVL218
 11388 196b 32000000 		.4byte	.LVL220
 11389 196f 0300     		.2byte	0x3
 11390 1971 79       		.byte	0x79
 11391 1972 7F       		.sleb128 -1
 11392 1973 9F       		.byte	0x9f
 11393 1974 32000000 		.4byte	.LVL220
 11394 1978 4C000000 		.4byte	.LVL223
 11395 197c 0100     		.2byte	0x1
 11396 197e 59       		.byte	0x59
 11397 197f 4C000000 		.4byte	.LVL223
 11398 1983 5C000000 		.4byte	.LVL225
 11399 1987 0300     		.2byte	0x3
 11400 1989 79       		.byte	0x79
 11401 198a 7F       		.sleb128 -1
 11402 198b 9F       		.byte	0x9f
 11403 198c 5C000000 		.4byte	.LVL225
 11404 1990 7E000000 		.4byte	.LFE8
 11405 1994 0100     		.2byte	0x1
 11406 1996 59       		.byte	0x59
 11407 1997 00000000 		.4byte	0
 11408 199b 00000000 		.4byte	0
 11409              	.LLST55:
 11410 199f 00000000 		.4byte	.LVL213
 11411 19a3 06000000 		.4byte	.LVL214
 11412 19a7 0200     		.2byte	0x2
 11413 19a9 91       		.byte	0x91
 11414 19aa 08       		.sleb128 8
 11415 19ab 06000000 		.4byte	.LVL214
 11416 19af 10000000 		.4byte	.LVL215
 11417 19b3 0200     		.2byte	0x2
ARM GAS  C:\Users\jo\AppData\Local\Temp\cc8AA3HA.s 			page 203


 11418 19b5 76       		.byte	0x76
 11419 19b6 08       		.sleb128 8
 11420 19b7 10000000 		.4byte	.LVL215
 11421 19bb 12000000 		.4byte	.LVL216
 11422 19bf 0200     		.2byte	0x2
 11423 19c1 91       		.byte	0x91
 11424 19c2 08       		.sleb128 8
 11425 19c3 4C000000 		.4byte	.LVL223
 11426 19c7 56000000 		.4byte	.LVL224
 11427 19cb 0300     		.2byte	0x3
 11428 19cd 7A       		.byte	0x7a
 11429 19ce 01       		.sleb128 1
 11430 19cf 9F       		.byte	0x9f
 11431 19d0 56000000 		.4byte	.LVL224
 11432 19d4 62000000 		.4byte	.LVL227
 11433 19d8 0100     		.2byte	0x1
 11434 19da 5A       		.byte	0x5a
 11435 19db 00000000 		.4byte	0
 11436 19df 00000000 		.4byte	0
 11437              	.LLST56:
 11438 19e3 4C000000 		.4byte	.LVL223
 11439 19e7 62000000 		.4byte	.LVL227
 11440 19eb 0600     		.2byte	0x6
 11441 19ed 72       		.byte	0x72
 11442 19ee 00       		.sleb128 0
 11443 19ef 08       		.byte	0x8
 11444 19f0 FF       		.byte	0xff
 11445 19f1 1A       		.byte	0x1a
 11446 19f2 9F       		.byte	0x9f
 11447 19f3 00000000 		.4byte	0
 11448 19f7 00000000 		.4byte	0
 11449              	.LLST57:
 11450 19fb 00000000 		.4byte	.LVL231
 11451 19ff 1E000000 		.4byte	.LVL233
 11452 1a03 0100     		.2byte	0x1
 11453 1a05 50       		.byte	0x50
 11454 1a06 1E000000 		.4byte	.LVL233
 11455 1a0a 8A000000 		.4byte	.LVL242
 11456 1a0e 0100     		.2byte	0x1
 11457 1a10 5A       		.byte	0x5a
 11458 1a11 8A000000 		.4byte	.LVL242
 11459 1a15 8C000000 		.4byte	.LVL243
 11460 1a19 0100     		.2byte	0x1
 11461 1a1b 50       		.byte	0x50
 11462 1a1c 8C000000 		.4byte	.LVL243
 11463 1a20 8E000000 		.4byte	.LFE9
 11464 1a24 0400     		.2byte	0x4
 11465 1a26 F3       		.byte	0xf3
 11466 1a27 01       		.uleb128 0x1
 11467 1a28 50       		.byte	0x50
 11468 1a29 9F       		.byte	0x9f
 11469 1a2a 00000000 		.4byte	0
 11470 1a2e 00000000 		.4byte	0
 11471              	.LLST58:
 11472 1a32 00000000 		.4byte	.LVL231
 11473 1a36 1E000000 		.4byte	.LVL233
 11474 1a3a 0100     		.2byte	0x1
ARM GAS  C:\Users\jo\AppData\Local\Temp\cc8AA3HA.s 			page 204


 11475 1a3c 51       		.byte	0x51
 11476 1a3d 1E000000 		.4byte	.LVL233
 11477 1a41 8A000000 		.4byte	.LVL242
 11478 1a45 0100     		.2byte	0x1
 11479 1a47 59       		.byte	0x59
 11480 1a48 8A000000 		.4byte	.LVL242
 11481 1a4c 8E000000 		.4byte	.LFE9
 11482 1a50 0100     		.2byte	0x1
 11483 1a52 51       		.byte	0x51
 11484 1a53 00000000 		.4byte	0
 11485 1a57 00000000 		.4byte	0
 11486              	.LLST59:
 11487 1a5b 00000000 		.4byte	.LVL231
 11488 1a5f 00000000 		.4byte	.LVL231
 11489 1a63 0100     		.2byte	0x1
 11490 1a65 52       		.byte	0x52
 11491 1a66 00000000 		.4byte	.LVL231
 11492 1a6a 1E000000 		.4byte	.LVL233
 11493 1a6e 0300     		.2byte	0x3
 11494 1a70 72       		.byte	0x72
 11495 1a71 7F       		.sleb128 -1
 11496 1a72 9F       		.byte	0x9f
 11497 1a73 1E000000 		.4byte	.LVL233
 11498 1a77 3C000000 		.4byte	.LVL235
 11499 1a7b 0300     		.2byte	0x3
 11500 1a7d 76       		.byte	0x76
 11501 1a7e 7F       		.sleb128 -1
 11502 1a7f 9F       		.byte	0x9f
 11503 1a80 3C000000 		.4byte	.LVL235
 11504 1a84 4A000000 		.4byte	.LVL237
 11505 1a88 0100     		.2byte	0x1
 11506 1a8a 56       		.byte	0x56
 11507 1a8b 4C000000 		.4byte	.LVL238
 11508 1a8f 82000000 		.4byte	.LVL241
 11509 1a93 0300     		.2byte	0x3
 11510 1a95 76       		.byte	0x76
 11511 1a96 7F       		.sleb128 -1
 11512 1a97 9F       		.byte	0x9f
 11513 1a98 8A000000 		.4byte	.LVL242
 11514 1a9c 8E000000 		.4byte	.LFE9
 11515 1aa0 0300     		.2byte	0x3
 11516 1aa2 72       		.byte	0x72
 11517 1aa3 7F       		.sleb128 -1
 11518 1aa4 9F       		.byte	0x9f
 11519 1aa5 00000000 		.4byte	0
 11520 1aa9 00000000 		.4byte	0
 11521              	.LLST60:
 11522 1aad 00000000 		.4byte	.LVL231
 11523 1ab1 0E000000 		.4byte	.LVL232
 11524 1ab5 0100     		.2byte	0x1
 11525 1ab7 53       		.byte	0x53
 11526 1ab8 0E000000 		.4byte	.LVL232
 11527 1abc 8A000000 		.4byte	.LVL242
 11528 1ac0 0100     		.2byte	0x1
 11529 1ac2 54       		.byte	0x54
 11530 1ac3 8A000000 		.4byte	.LVL242
 11531 1ac7 8E000000 		.4byte	.LFE9
ARM GAS  C:\Users\jo\AppData\Local\Temp\cc8AA3HA.s 			page 205


 11532 1acb 0100     		.2byte	0x1
 11533 1acd 53       		.byte	0x53
 11534 1ace 00000000 		.4byte	0
 11535 1ad2 00000000 		.4byte	0
 11536              	.LLST61:
 11537 1ad6 00000000 		.4byte	.LVL231
 11538 1ada 00000000 		.4byte	.LVL231
 11539 1ade 0200     		.2byte	0x2
 11540 1ae0 91       		.byte	0x91
 11541 1ae1 00       		.sleb128 0
 11542 1ae2 00000000 		.4byte	.LVL231
 11543 1ae6 1E000000 		.4byte	.LVL233
 11544 1aea 0200     		.2byte	0x2
 11545 1aec 91       		.byte	0x91
 11546 1aed 38       		.sleb128 56
 11547 1aee 1E000000 		.4byte	.LVL233
 11548 1af2 28000000 		.4byte	.LVL234
 11549 1af6 0100     		.2byte	0x1
 11550 1af8 57       		.byte	0x57
 11551 1af9 4C000000 		.4byte	.LVL238
 11552 1afd 64000000 		.4byte	.LVL239
 11553 1b01 0C00     		.2byte	0xc
 11554 1b03 91       		.byte	0x91
 11555 1b04 3C       		.sleb128 60
 11556 1b05 06       		.byte	0x6
 11557 1b06 20       		.byte	0x20
 11558 1b07 91       		.byte	0x91
 11559 1b08 38       		.sleb128 56
 11560 1b09 06       		.byte	0x6
 11561 1b0a 22       		.byte	0x22
 11562 1b0b 78       		.byte	0x78
 11563 1b0c 00       		.sleb128 0
 11564 1b0d 22       		.byte	0x22
 11565 1b0e 9F       		.byte	0x9f
 11566 1b0f 64000000 		.4byte	.LVL239
 11567 1b13 82000000 		.4byte	.LVL241
 11568 1b17 0100     		.2byte	0x1
 11569 1b19 57       		.byte	0x57
 11570 1b1a 8A000000 		.4byte	.LVL242
 11571 1b1e 8E000000 		.4byte	.LFE9
 11572 1b22 0200     		.2byte	0x2
 11573 1b24 91       		.byte	0x91
 11574 1b25 38       		.sleb128 56
 11575 1b26 00000000 		.4byte	0
 11576 1b2a 00000000 		.4byte	0
 11577              	.LLST62:
 11578 1b2e 00000000 		.4byte	.LVL231
 11579 1b32 00000000 		.4byte	.LVL231
 11580 1b36 0200     		.2byte	0x2
 11581 1b38 91       		.byte	0x91
 11582 1b39 04       		.sleb128 4
 11583 1b3a 00000000 		.4byte	.LVL231
 11584 1b3e 1E000000 		.4byte	.LVL233
 11585 1b42 0200     		.2byte	0x2
 11586 1b44 91       		.byte	0x91
 11587 1b45 3C       		.sleb128 60
 11588 1b46 1E000000 		.4byte	.LVL233
ARM GAS  C:\Users\jo\AppData\Local\Temp\cc8AA3HA.s 			page 206


 11589 1b4a 40000000 		.4byte	.LVL236
 11590 1b4e 0100     		.2byte	0x1
 11591 1b50 58       		.byte	0x58
 11592 1b51 40000000 		.4byte	.LVL236
 11593 1b55 4A000000 		.4byte	.LVL237
 11594 1b59 0300     		.2byte	0x3
 11595 1b5b 78       		.byte	0x78
 11596 1b5c 7F       		.sleb128 -1
 11597 1b5d 9F       		.byte	0x9f
 11598 1b5e 4C000000 		.4byte	.LVL238
 11599 1b62 64000000 		.4byte	.LVL239
 11600 1b66 0300     		.2byte	0x3
 11601 1b68 78       		.byte	0x78
 11602 1b69 7F       		.sleb128 -1
 11603 1b6a 9F       		.byte	0x9f
 11604 1b6b 64000000 		.4byte	.LVL239
 11605 1b6f 82000000 		.4byte	.LVL241
 11606 1b73 0100     		.2byte	0x1
 11607 1b75 58       		.byte	0x58
 11608 1b76 8A000000 		.4byte	.LVL242
 11609 1b7a 8E000000 		.4byte	.LFE9
 11610 1b7e 0200     		.2byte	0x2
 11611 1b80 91       		.byte	0x91
 11612 1b81 3C       		.sleb128 60
 11613 1b82 00000000 		.4byte	0
 11614 1b86 00000000 		.4byte	0
 11615              	.LLST63:
 11616 1b8a 7A000000 		.4byte	.LVL240
 11617 1b8e 82000000 		.4byte	.LVL241
 11618 1b92 0100     		.2byte	0x1
 11619 1b94 53       		.byte	0x53
 11620 1b95 00000000 		.4byte	0
 11621 1b99 00000000 		.4byte	0
 11622              	.LLST64:
 11623 1b9d 00000000 		.4byte	.LVL244
 11624 1ba1 1A000000 		.4byte	.LVL247
 11625 1ba5 0100     		.2byte	0x1
 11626 1ba7 50       		.byte	0x50
 11627 1ba8 1A000000 		.4byte	.LVL247
 11628 1bac 34000000 		.4byte	.LVL254
 11629 1bb0 0100     		.2byte	0x1
 11630 1bb2 59       		.byte	0x59
 11631 1bb3 34000000 		.4byte	.LVL254
 11632 1bb7 3E000000 		.4byte	.LVL255
 11633 1bbb 0400     		.2byte	0x4
 11634 1bbd F3       		.byte	0xf3
 11635 1bbe 01       		.uleb128 0x1
 11636 1bbf 50       		.byte	0x50
 11637 1bc0 9F       		.byte	0x9f
 11638 1bc1 3E000000 		.4byte	.LVL255
 11639 1bc5 62000000 		.4byte	.LFE10
 11640 1bc9 0100     		.2byte	0x1
 11641 1bcb 59       		.byte	0x59
 11642 1bcc 00000000 		.4byte	0
 11643 1bd0 00000000 		.4byte	0
 11644              	.LLST65:
 11645 1bd4 00000000 		.4byte	.LVL244
ARM GAS  C:\Users\jo\AppData\Local\Temp\cc8AA3HA.s 			page 207


 11646 1bd8 10000000 		.4byte	.LVL246
 11647 1bdc 0100     		.2byte	0x1
 11648 1bde 51       		.byte	0x51
 11649 1bdf 10000000 		.4byte	.LVL246
 11650 1be3 1A000000 		.4byte	.LVL247
 11651 1be7 0300     		.2byte	0x3
 11652 1be9 71       		.byte	0x71
 11653 1bea 7F       		.sleb128 -1
 11654 1beb 9F       		.byte	0x9f
 11655 1bec 1A000000 		.4byte	.LVL247
 11656 1bf0 2A000000 		.4byte	.LVL251
 11657 1bf4 0300     		.2byte	0x3
 11658 1bf6 75       		.byte	0x75
 11659 1bf7 7F       		.sleb128 -1
 11660 1bf8 9F       		.byte	0x9f
 11661 1bf9 2A000000 		.4byte	.LVL251
 11662 1bfd 32000000 		.4byte	.LVL253
 11663 1c01 0100     		.2byte	0x1
 11664 1c03 55       		.byte	0x55
 11665 1c04 3E000000 		.4byte	.LVL255
 11666 1c08 62000000 		.4byte	.LFE10
 11667 1c0c 0300     		.2byte	0x3
 11668 1c0e 75       		.byte	0x75
 11669 1c0f 7F       		.sleb128 -1
 11670 1c10 9F       		.byte	0x9f
 11671 1c11 00000000 		.4byte	0
 11672 1c15 00000000 		.4byte	0
 11673              	.LLST66:
 11674 1c19 00000000 		.4byte	.LVL244
 11675 1c1d 1A000000 		.4byte	.LVL247
 11676 1c21 0100     		.2byte	0x1
 11677 1c23 52       		.byte	0x52
 11678 1c24 1A000000 		.4byte	.LVL247
 11679 1c28 62000000 		.4byte	.LFE10
 11680 1c2c 0100     		.2byte	0x1
 11681 1c2e 5A       		.byte	0x5a
 11682 1c2f 00000000 		.4byte	0
 11683 1c33 00000000 		.4byte	0
 11684              	.LLST67:
 11685 1c37 00000000 		.4byte	.LVL244
 11686 1c3b 1A000000 		.4byte	.LVL247
 11687 1c3f 0100     		.2byte	0x1
 11688 1c41 53       		.byte	0x53
 11689 1c42 1A000000 		.4byte	.LVL247
 11690 1c46 34000000 		.4byte	.LVL254
 11691 1c4a 0100     		.2byte	0x1
 11692 1c4c 56       		.byte	0x56
 11693 1c4d 34000000 		.4byte	.LVL254
 11694 1c51 3E000000 		.4byte	.LVL255
 11695 1c55 0400     		.2byte	0x4
 11696 1c57 F3       		.byte	0xf3
 11697 1c58 01       		.uleb128 0x1
 11698 1c59 53       		.byte	0x53
 11699 1c5a 9F       		.byte	0x9f
 11700 1c5b 3E000000 		.4byte	.LVL255
 11701 1c5f 62000000 		.4byte	.LFE10
 11702 1c63 0100     		.2byte	0x1
ARM GAS  C:\Users\jo\AppData\Local\Temp\cc8AA3HA.s 			page 208


 11703 1c65 56       		.byte	0x56
 11704 1c66 00000000 		.4byte	0
 11705 1c6a 00000000 		.4byte	0
 11706              	.LLST68:
 11707 1c6e 00000000 		.4byte	.LVL244
 11708 1c72 3E000000 		.4byte	.LVL255
 11709 1c76 0200     		.2byte	0x2
 11710 1c78 91       		.byte	0x91
 11711 1c79 00       		.sleb128 0
 11712 1c7a 3E000000 		.4byte	.LVL255
 11713 1c7e 62000000 		.4byte	.LFE10
 11714 1c82 0200     		.2byte	0x2
 11715 1c84 91       		.byte	0x91
 11716 1c85 00       		.sleb128 0
 11717 1c86 00000000 		.4byte	0
 11718 1c8a 00000000 		.4byte	0
 11719              	.LLST69:
 11720 1c8e 00000000 		.4byte	.LVL244
 11721 1c92 10000000 		.4byte	.LVL246
 11722 1c96 0200     		.2byte	0x2
 11723 1c98 91       		.byte	0x91
 11724 1c99 04       		.sleb128 4
 11725 1c9a 10000000 		.4byte	.LVL246
 11726 1c9e 24000000 		.4byte	.LVL249
 11727 1ca2 0100     		.2byte	0x1
 11728 1ca4 57       		.byte	0x57
 11729 1ca5 24000000 		.4byte	.LVL249
 11730 1ca9 32000000 		.4byte	.LVL253
 11731 1cad 0300     		.2byte	0x3
 11732 1caf 77       		.byte	0x77
 11733 1cb0 7F       		.sleb128 -1
 11734 1cb1 9F       		.byte	0x9f
 11735 1cb2 32000000 		.4byte	.LVL253
 11736 1cb6 4E000000 		.4byte	.LVL257
 11737 1cba 0100     		.2byte	0x1
 11738 1cbc 57       		.byte	0x57
 11739 1cbd 00000000 		.4byte	0
 11740 1cc1 00000000 		.4byte	0
 11741              	.LLST70:
 11742 1cc5 00000000 		.4byte	.LVL244
 11743 1cc9 10000000 		.4byte	.LVL246
 11744 1ccd 0200     		.2byte	0x2
 11745 1ccf 91       		.byte	0x91
 11746 1cd0 08       		.sleb128 8
 11747 1cd1 10000000 		.4byte	.LVL246
 11748 1cd5 4E000000 		.4byte	.LVL257
 11749 1cd9 0100     		.2byte	0x1
 11750 1cdb 58       		.byte	0x58
 11751 1cdc 00000000 		.4byte	0
 11752 1ce0 00000000 		.4byte	0
 11753              	.LLST71:
 11754 1ce4 1C000000 		.4byte	.LVL248
 11755 1ce8 24000000 		.4byte	.LVL249
 11756 1cec 0800     		.2byte	0x8
 11757 1cee 77       		.byte	0x77
 11758 1cef 7F       		.sleb128 -1
 11759 1cf0 94       		.byte	0x94
ARM GAS  C:\Users\jo\AppData\Local\Temp\cc8AA3HA.s 			page 209


 11760 1cf1 01       		.byte	0x1
 11761 1cf2 08       		.byte	0x8
 11762 1cf3 FF       		.byte	0xff
 11763 1cf4 1A       		.byte	0x1a
 11764 1cf5 9F       		.byte	0x9f
 11765 1cf6 24000000 		.4byte	.LVL249
 11766 1cfa 32000000 		.4byte	.LVL253
 11767 1cfe 0800     		.2byte	0x8
 11768 1d00 77       		.byte	0x77
 11769 1d01 7E       		.sleb128 -2
 11770 1d02 94       		.byte	0x94
 11771 1d03 01       		.byte	0x1
 11772 1d04 08       		.byte	0x8
 11773 1d05 FF       		.byte	0xff
 11774 1d06 1A       		.byte	0x1a
 11775 1d07 9F       		.byte	0x9f
 11776 1d08 00000000 		.4byte	0
 11777 1d0c 00000000 		.4byte	0
 11778              	.LLST72:
 11779 1d10 4A000000 		.4byte	.LVL256
 11780 1d14 4E000000 		.4byte	.LVL257
 11781 1d18 0200     		.2byte	0x2
 11782 1d1a 40       		.byte	0x40
 11783 1d1b 9F       		.byte	0x9f
 11784 1d1c 52000000 		.4byte	.LVL258
 11785 1d20 62000000 		.4byte	.LFE10
 11786 1d24 0600     		.2byte	0x6
 11787 1d26 72       		.byte	0x72
 11788 1d27 00       		.sleb128 0
 11789 1d28 76       		.byte	0x76
 11790 1d29 00       		.sleb128 0
 11791 1d2a 1C       		.byte	0x1c
 11792 1d2b 9F       		.byte	0x9f
 11793 1d2c 00000000 		.4byte	0
 11794 1d30 00000000 		.4byte	0
 11795              	.LLST73:
 11796 1d34 0A000000 		.4byte	.LVL245
 11797 1d38 26000000 		.4byte	.LVL250
 11798 1d3c 0100     		.2byte	0x1
 11799 1d3e 54       		.byte	0x54
 11800 1d3f 26000000 		.4byte	.LVL250
 11801 1d43 2E000000 		.4byte	.LVL252
 11802 1d47 0300     		.2byte	0x3
 11803 1d49 74       		.byte	0x74
 11804 1d4a 7F       		.sleb128 -1
 11805 1d4b 9F       		.byte	0x9f
 11806 1d4c 2E000000 		.4byte	.LVL252
 11807 1d50 62000000 		.4byte	.LFE10
 11808 1d54 0100     		.2byte	0x1
 11809 1d56 54       		.byte	0x54
 11810 1d57 00000000 		.4byte	0
 11811 1d5b 00000000 		.4byte	0
 11812              	.LLST74:
 11813 1d5f 00000000 		.4byte	.LVL259
 11814 1d63 0E000000 		.4byte	.LVL260
 11815 1d67 0100     		.2byte	0x1
 11816 1d69 50       		.byte	0x50
ARM GAS  C:\Users\jo\AppData\Local\Temp\cc8AA3HA.s 			page 210


 11817 1d6a 0E000000 		.4byte	.LVL260
 11818 1d6e 78040000 		.4byte	.LFE11
 11819 1d72 0100     		.2byte	0x1
 11820 1d74 5B       		.byte	0x5b
 11821 1d75 00000000 		.4byte	0
 11822 1d79 00000000 		.4byte	0
 11823              	.LLST75:
 11824 1d7d 00000000 		.4byte	.LVL259
 11825 1d81 16030000 		.4byte	.LVL327
 11826 1d85 0200     		.2byte	0x2
 11827 1d87 30       		.byte	0x30
 11828 1d88 9F       		.byte	0x9f
 11829 1d89 16030000 		.4byte	.LVL327
 11830 1d8d 2A030000 		.4byte	.LVL332
 11831 1d91 0100     		.2byte	0x1
 11832 1d93 50       		.byte	0x50
 11833 1d94 2A030000 		.4byte	.LVL332
 11834 1d98 78040000 		.4byte	.LFE11
 11835 1d9c 0200     		.2byte	0x2
 11836 1d9e 30       		.byte	0x30
 11837 1d9f 9F       		.byte	0x9f
 11838 1da0 00000000 		.4byte	0
 11839 1da4 00000000 		.4byte	0
 11840              	.LLST76:
 11841 1da8 26000000 		.4byte	.LVL262
 11842 1dac 30000000 		.4byte	.LVL263
 11843 1db0 0200     		.2byte	0x2
 11844 1db2 30       		.byte	0x30
 11845 1db3 9F       		.byte	0x9f
 11846 1db4 30000000 		.4byte	.LVL263
 11847 1db8 AC000000 		.4byte	.LVL276
 11848 1dbc 0100     		.2byte	0x1
 11849 1dbe 56       		.byte	0x56
 11850 1dbf AC000000 		.4byte	.LVL276
 11851 1dc3 B4000000 		.4byte	.LVL278
 11852 1dc7 0200     		.2byte	0x2
 11853 1dc9 30       		.byte	0x30
 11854 1dca 9F       		.byte	0x9f
 11855 1dcb B4000000 		.4byte	.LVL278
 11856 1dcf 4E010000 		.4byte	.LVL291
 11857 1dd3 0100     		.2byte	0x1
 11858 1dd5 58       		.byte	0x58
 11859 1dd6 4E010000 		.4byte	.LVL291
 11860 1dda 52010000 		.4byte	.LVL292
 11861 1dde 0200     		.2byte	0x2
 11862 1de0 30       		.byte	0x30
 11863 1de1 9F       		.byte	0x9f
 11864 1de2 52010000 		.4byte	.LVL292
 11865 1de6 A6010000 		.4byte	.LVL299
 11866 1dea 0100     		.2byte	0x1
 11867 1dec 58       		.byte	0x58
 11868 1ded A6010000 		.4byte	.LVL299
 11869 1df1 00020000 		.4byte	.LVL303
 11870 1df5 0300     		.2byte	0x3
 11871 1df7 78       		.byte	0x78
 11872 1df8 7F       		.sleb128 -1
 11873 1df9 9F       		.byte	0x9f
ARM GAS  C:\Users\jo\AppData\Local\Temp\cc8AA3HA.s 			page 211


 11874 1dfa 00020000 		.4byte	.LVL303
 11875 1dfe 0E020000 		.4byte	.LVL304
 11876 1e02 0100     		.2byte	0x1
 11877 1e04 58       		.byte	0x58
 11878 1e05 0E020000 		.4byte	.LVL304
 11879 1e09 16020000 		.4byte	.LVL305
 11880 1e0d 0200     		.2byte	0x2
 11881 1e0f 30       		.byte	0x30
 11882 1e10 9F       		.byte	0x9f
 11883 1e11 16020000 		.4byte	.LVL305
 11884 1e15 2E020000 		.4byte	.LVL307
 11885 1e19 0100     		.2byte	0x1
 11886 1e1b 58       		.byte	0x58
 11887 1e1c 2E020000 		.4byte	.LVL307
 11888 1e20 AE020000 		.4byte	.LVL316
 11889 1e24 0300     		.2byte	0x3
 11890 1e26 78       		.byte	0x78
 11891 1e27 7F       		.sleb128 -1
 11892 1e28 9F       		.byte	0x9f
 11893 1e29 AE020000 		.4byte	.LVL316
 11894 1e2d 0C030000 		.4byte	.LVL326
 11895 1e31 0100     		.2byte	0x1
 11896 1e33 58       		.byte	0x58
 11897 1e34 2A030000 		.4byte	.LVL332
 11898 1e38 94030000 		.4byte	.LVL338
 11899 1e3c 0100     		.2byte	0x1
 11900 1e3e 56       		.byte	0x56
 11901 1e3f 94030000 		.4byte	.LVL338
 11902 1e43 26040000 		.4byte	.LVL350
 11903 1e47 0300     		.2byte	0x3
 11904 1e49 78       		.byte	0x78
 11905 1e4a 7F       		.sleb128 -1
 11906 1e4b 9F       		.byte	0x9f
 11907 1e4c 26040000 		.4byte	.LVL350
 11908 1e50 2E040000 		.4byte	.LVL352
 11909 1e54 0100     		.2byte	0x1
 11910 1e56 56       		.byte	0x56
 11911 1e57 2E040000 		.4byte	.LVL352
 11912 1e5b 3E040000 		.4byte	.LVL356
 11913 1e5f 0100     		.2byte	0x1
 11914 1e61 58       		.byte	0x58
 11915 1e62 3E040000 		.4byte	.LVL356
 11916 1e66 46040000 		.4byte	.LVL358
 11917 1e6a 0100     		.2byte	0x1
 11918 1e6c 56       		.byte	0x56
 11919 1e6d 46040000 		.4byte	.LVL358
 11920 1e71 4E040000 		.4byte	.LVL360
 11921 1e75 0100     		.2byte	0x1
 11922 1e77 58       		.byte	0x58
 11923 1e78 58040000 		.4byte	.LVL362
 11924 1e7c 78040000 		.4byte	.LFE11
 11925 1e80 0100     		.2byte	0x1
 11926 1e82 58       		.byte	0x58
 11927 1e83 00000000 		.4byte	0
 11928 1e87 00000000 		.4byte	0
 11929              	.LLST77:
 11930 1e8b 6E000000 		.4byte	.LVL268
ARM GAS  C:\Users\jo\AppData\Local\Temp\cc8AA3HA.s 			page 212


 11931 1e8f 72000000 		.4byte	.LVL269
 11932 1e93 0200     		.2byte	0x2
 11933 1e95 30       		.byte	0x30
 11934 1e96 9F       		.byte	0x9f
 11935 1e97 72000000 		.4byte	.LVL269
 11936 1e9b 7E000000 		.4byte	.LVL271
 11937 1e9f 0700     		.2byte	0x7
 11938 1ea1 0A       		.byte	0xa
 11939 1ea2 1027     		.2byte	0x2710
 11940 1ea4 75       		.byte	0x75
 11941 1ea5 00       		.sleb128 0
 11942 1ea6 1C       		.byte	0x1c
 11943 1ea7 9F       		.byte	0x9f
 11944 1ea8 7E000000 		.4byte	.LVL271
 11945 1eac 80000000 		.4byte	.LVL272
 11946 1eb0 0700     		.2byte	0x7
 11947 1eb2 0A       		.byte	0xa
 11948 1eb3 1127     		.2byte	0x2711
 11949 1eb5 75       		.byte	0x75
 11950 1eb6 00       		.sleb128 0
 11951 1eb7 1C       		.byte	0x1c
 11952 1eb8 9F       		.byte	0x9f
 11953 1eb9 80000000 		.4byte	.LVL272
 11954 1ebd 84000000 		.4byte	.LVL273
 11955 1ec1 0700     		.2byte	0x7
 11956 1ec3 0A       		.byte	0xa
 11957 1ec4 1027     		.2byte	0x2710
 11958 1ec6 75       		.byte	0x75
 11959 1ec7 00       		.sleb128 0
 11960 1ec8 1C       		.byte	0x1c
 11961 1ec9 9F       		.byte	0x9f
 11962 1eca 08010000 		.4byte	.LVL283
 11963 1ece 0C010000 		.4byte	.LVL284
 11964 1ed2 0200     		.2byte	0x2
 11965 1ed4 30       		.byte	0x30
 11966 1ed5 9F       		.byte	0x9f
 11967 1ed6 0C010000 		.4byte	.LVL284
 11968 1eda 1C010000 		.4byte	.LVL286
 11969 1ede 0700     		.2byte	0x7
 11970 1ee0 0A       		.byte	0xa
 11971 1ee1 1027     		.2byte	0x2710
 11972 1ee3 76       		.byte	0x76
 11973 1ee4 00       		.sleb128 0
 11974 1ee5 1C       		.byte	0x1c
 11975 1ee6 9F       		.byte	0x9f
 11976 1ee7 1C010000 		.4byte	.LVL286
 11977 1eeb 1E010000 		.4byte	.LVL287
 11978 1eef 0700     		.2byte	0x7
 11979 1ef1 0A       		.byte	0xa
 11980 1ef2 1127     		.2byte	0x2711
 11981 1ef4 76       		.byte	0x76
 11982 1ef5 00       		.sleb128 0
 11983 1ef6 1C       		.byte	0x1c
 11984 1ef7 9F       		.byte	0x9f
 11985 1ef8 1E010000 		.4byte	.LVL287
 11986 1efc 34010000 		.4byte	.LVL289
 11987 1f00 0700     		.2byte	0x7
ARM GAS  C:\Users\jo\AppData\Local\Temp\cc8AA3HA.s 			page 213


 11988 1f02 0A       		.byte	0xa
 11989 1f03 1027     		.2byte	0x2710
 11990 1f05 76       		.byte	0x76
 11991 1f06 00       		.sleb128 0
 11992 1f07 1C       		.byte	0x1c
 11993 1f08 9F       		.byte	0x9f
 11994 1f09 C4020000 		.4byte	.LVL318
 11995 1f0d CA020000 		.4byte	.LVL320
 11996 1f11 0200     		.2byte	0x2
 11997 1f13 30       		.byte	0x30
 11998 1f14 9F       		.byte	0x9f
 11999 1f15 CA020000 		.4byte	.LVL320
 12000 1f19 F2020000 		.4byte	.LVL323
 12001 1f1d 0700     		.2byte	0x7
 12002 1f1f 0A       		.byte	0xa
 12003 1f20 1027     		.2byte	0x2710
 12004 1f22 79       		.byte	0x79
 12005 1f23 00       		.sleb128 0
 12006 1f24 1C       		.byte	0x1c
 12007 1f25 9F       		.byte	0x9f
 12008 1f26 F2020000 		.4byte	.LVL323
 12009 1f2a F6020000 		.4byte	.LVL324
 12010 1f2e 0700     		.2byte	0x7
 12011 1f30 0A       		.byte	0xa
 12012 1f31 0F27     		.2byte	0x270f
 12013 1f33 79       		.byte	0x79
 12014 1f34 00       		.sleb128 0
 12015 1f35 1C       		.byte	0x1c
 12016 1f36 9F       		.byte	0x9f
 12017 1f37 2E030000 		.4byte	.LVL333
 12018 1f3b 32030000 		.4byte	.LVL334
 12019 1f3f 0200     		.2byte	0x2
 12020 1f41 30       		.byte	0x30
 12021 1f42 9F       		.byte	0x9f
 12022 1f43 32030000 		.4byte	.LVL334
 12023 1f47 3E030000 		.4byte	.LVL336
 12024 1f4b 0700     		.2byte	0x7
 12025 1f4d 0A       		.byte	0xa
 12026 1f4e 1027     		.2byte	0x2710
 12027 1f50 75       		.byte	0x75
 12028 1f51 00       		.sleb128 0
 12029 1f52 1C       		.byte	0x1c
 12030 1f53 9F       		.byte	0x9f
 12031 1f54 3E030000 		.4byte	.LVL336
 12032 1f58 40030000 		.4byte	.LVL337
 12033 1f5c 0700     		.2byte	0x7
 12034 1f5e 0A       		.byte	0xa
 12035 1f5f 1127     		.2byte	0x2711
 12036 1f61 75       		.byte	0x75
 12037 1f62 00       		.sleb128 0
 12038 1f63 1C       		.byte	0x1c
 12039 1f64 9F       		.byte	0x9f
 12040 1f65 40030000 		.4byte	.LVL337
 12041 1f69 94030000 		.4byte	.LVL338
 12042 1f6d 0700     		.2byte	0x7
 12043 1f6f 0A       		.byte	0xa
 12044 1f70 1027     		.2byte	0x2710
ARM GAS  C:\Users\jo\AppData\Local\Temp\cc8AA3HA.s 			page 214


 12045 1f72 75       		.byte	0x75
 12046 1f73 00       		.sleb128 0
 12047 1f74 1C       		.byte	0x1c
 12048 1f75 9F       		.byte	0x9f
 12049 1f76 00000000 		.4byte	0
 12050 1f7a 00000000 		.4byte	0
 12051              	.LLST78:
 12052 1f7e 32000000 		.4byte	.LVL264
 12053 1f82 B2000000 		.4byte	.LVL277
 12054 1f86 0100     		.2byte	0x1
 12055 1f88 57       		.byte	0x57
 12056 1f89 B2000000 		.4byte	.LVL277
 12057 1f8d B4000000 		.4byte	.LVL278
 12058 1f91 0500     		.2byte	0x5
 12059 1f93 76       		.byte	0x76
 12060 1f94 7F       		.sleb128 -1
 12061 1f95 31       		.byte	0x31
 12062 1f96 26       		.byte	0x26
 12063 1f97 9F       		.byte	0x9f
 12064 1f98 B8000000 		.4byte	.LVL279
 12065 1f9c 52010000 		.4byte	.LVL292
 12066 1fa0 0100     		.2byte	0x1
 12067 1fa2 5A       		.byte	0x5a
 12068 1fa3 56010000 		.4byte	.LVL293
 12069 1fa7 16020000 		.4byte	.LVL305
 12070 1fab 0100     		.2byte	0x1
 12071 1fad 59       		.byte	0x59
 12072 1fae 24020000 		.4byte	.LVL306
 12073 1fb2 0C030000 		.4byte	.LVL326
 12074 1fb6 0100     		.2byte	0x1
 12075 1fb8 5A       		.byte	0x5a
 12076 1fb9 2A030000 		.4byte	.LVL332
 12077 1fbd 94030000 		.4byte	.LVL338
 12078 1fc1 0100     		.2byte	0x1
 12079 1fc3 57       		.byte	0x57
 12080 1fc4 94030000 		.4byte	.LVL338
 12081 1fc8 DC030000 		.4byte	.LVL343
 12082 1fcc 0100     		.2byte	0x1
 12083 1fce 59       		.byte	0x59
 12084 1fcf DC030000 		.4byte	.LVL343
 12085 1fd3 26040000 		.4byte	.LVL350
 12086 1fd7 0100     		.2byte	0x1
 12087 1fd9 5A       		.byte	0x5a
 12088 1fda 26040000 		.4byte	.LVL350
 12089 1fde 2E040000 		.4byte	.LVL352
 12090 1fe2 0100     		.2byte	0x1
 12091 1fe4 57       		.byte	0x57
 12092 1fe5 2E040000 		.4byte	.LVL352
 12093 1fe9 36040000 		.4byte	.LVL354
 12094 1fed 0100     		.2byte	0x1
 12095 1fef 5A       		.byte	0x5a
 12096 1ff0 36040000 		.4byte	.LVL354
 12097 1ff4 3E040000 		.4byte	.LVL356
 12098 1ff8 0100     		.2byte	0x1
 12099 1ffa 59       		.byte	0x59
 12100 1ffb 3E040000 		.4byte	.LVL356
 12101 1fff 46040000 		.4byte	.LVL358
ARM GAS  C:\Users\jo\AppData\Local\Temp\cc8AA3HA.s 			page 215


 12102 2003 0100     		.2byte	0x1
 12103 2005 57       		.byte	0x57
 12104 2006 46040000 		.4byte	.LVL358
 12105 200a 4E040000 		.4byte	.LVL360
 12106 200e 0100     		.2byte	0x1
 12107 2010 5A       		.byte	0x5a
 12108 2011 58040000 		.4byte	.LVL362
 12109 2015 78040000 		.4byte	.LFE11
 12110 2019 0100     		.2byte	0x1
 12111 201b 5A       		.byte	0x5a
 12112 201c 00000000 		.4byte	0
 12113 2020 00000000 		.4byte	0
 12114              	.LLST79:
 12115 2024 38000000 		.4byte	.LVL265
 12116 2028 B4000000 		.4byte	.LVL278
 12117 202c 0100     		.2byte	0x1
 12118 202e 5A       		.byte	0x5a
 12119 202f C0000000 		.4byte	.LVL280
 12120 2033 34010000 		.4byte	.LVL289
 12121 2037 0100     		.2byte	0x1
 12122 2039 59       		.byte	0x59
 12123 203a 34010000 		.4byte	.LVL289
 12124 203e 40010000 		.4byte	.LVL290
 12125 2042 0500     		.2byte	0x5
 12126 2044 78       		.byte	0x78
 12127 2045 00       		.sleb128 0
 12128 2046 31       		.byte	0x31
 12129 2047 1A       		.byte	0x1a
 12130 2048 9F       		.byte	0x9f
 12131 2049 40010000 		.4byte	.LVL290
 12132 204d 52010000 		.4byte	.LVL292
 12133 2051 0500     		.2byte	0x5
 12134 2053 78       		.byte	0x78
 12135 2054 7F       		.sleb128 -1
 12136 2055 31       		.byte	0x31
 12137 2056 1A       		.byte	0x1a
 12138 2057 9F       		.byte	0x9f
 12139 2058 66010000 		.4byte	.LVL294
 12140 205c 16020000 		.4byte	.LVL305
 12141 2060 0100     		.2byte	0x1
 12142 2062 5A       		.byte	0x5a
 12143 2063 24020000 		.4byte	.LVL306
 12144 2067 7E020000 		.4byte	.LVL311
 12145 206b 0100     		.2byte	0x1
 12146 206d 56       		.byte	0x56
 12147 206e 7E020000 		.4byte	.LVL311
 12148 2072 C0020000 		.4byte	.LVL317
 12149 2076 0500     		.2byte	0x5
 12150 2078 78       		.byte	0x78
 12151 2079 7F       		.sleb128 -1
 12152 207a 31       		.byte	0x31
 12153 207b 1A       		.byte	0x1a
 12154 207c 9F       		.byte	0x9f
 12155 207d C0020000 		.4byte	.LVL317
 12156 2081 C8020000 		.4byte	.LVL319
 12157 2085 0100     		.2byte	0x1
 12158 2087 59       		.byte	0x59
ARM GAS  C:\Users\jo\AppData\Local\Temp\cc8AA3HA.s 			page 216


 12159 2088 C8020000 		.4byte	.LVL319
 12160 208c 0C030000 		.4byte	.LVL326
 12161 2090 0500     		.2byte	0x5
 12162 2092 78       		.byte	0x78
 12163 2093 00       		.sleb128 0
 12164 2094 31       		.byte	0x31
 12165 2095 1A       		.byte	0x1a
 12166 2096 9F       		.byte	0x9f
 12167 2097 2A030000 		.4byte	.LVL332
 12168 209b DC030000 		.4byte	.LVL343
 12169 209f 0100     		.2byte	0x1
 12170 20a1 5A       		.byte	0x5a
 12171 20a2 DC030000 		.4byte	.LVL343
 12172 20a6 1E040000 		.4byte	.LVL348
 12173 20aa 0100     		.2byte	0x1
 12174 20ac 56       		.byte	0x56
 12175 20ad 1E040000 		.4byte	.LVL348
 12176 20b1 26040000 		.4byte	.LVL350
 12177 20b5 0500     		.2byte	0x5
 12178 20b7 78       		.byte	0x78
 12179 20b8 7F       		.sleb128 -1
 12180 20b9 31       		.byte	0x31
 12181 20ba 1A       		.byte	0x1a
 12182 20bb 9F       		.byte	0x9f
 12183 20bc 26040000 		.4byte	.LVL350
 12184 20c0 2E040000 		.4byte	.LVL352
 12185 20c4 0100     		.2byte	0x1
 12186 20c6 5A       		.byte	0x5a
 12187 20c7 2E040000 		.4byte	.LVL352
 12188 20cb 36040000 		.4byte	.LVL354
 12189 20cf 0500     		.2byte	0x5
 12190 20d1 78       		.byte	0x78
 12191 20d2 00       		.sleb128 0
 12192 20d3 31       		.byte	0x31
 12193 20d4 1A       		.byte	0x1a
 12194 20d5 9F       		.byte	0x9f
 12195 20d6 36040000 		.4byte	.LVL354
 12196 20da 46040000 		.4byte	.LVL358
 12197 20de 0100     		.2byte	0x1
 12198 20e0 5A       		.byte	0x5a
 12199 20e1 46040000 		.4byte	.LVL358
 12200 20e5 4E040000 		.4byte	.LVL360
 12201 20e9 0500     		.2byte	0x5
 12202 20eb 78       		.byte	0x78
 12203 20ec 7F       		.sleb128 -1
 12204 20ed 31       		.byte	0x31
 12205 20ee 1A       		.byte	0x1a
 12206 20ef 9F       		.byte	0x9f
 12207 20f0 58040000 		.4byte	.LVL362
 12208 20f4 78040000 		.4byte	.LFE11
 12209 20f8 0500     		.2byte	0x5
 12210 20fa 78       		.byte	0x78
 12211 20fb 7F       		.sleb128 -1
 12212 20fc 31       		.byte	0x31
 12213 20fd 1A       		.byte	0x1a
 12214 20fe 9F       		.byte	0x9f
 12215 20ff 00000000 		.4byte	0
ARM GAS  C:\Users\jo\AppData\Local\Temp\cc8AA3HA.s 			page 217


 12216 2103 00000000 		.4byte	0
 12217              	.LLST80:
 12218 2107 64020000 		.4byte	.LVL310
 12219 210b C0020000 		.4byte	.LVL317
 12220 210f 0A00     		.2byte	0xa
 12221 2111 7A       		.byte	0x7a
 12222 2112 00       		.sleb128 0
 12223 2113 32       		.byte	0x32
 12224 2114 24       		.byte	0x24
 12225 2115 03       		.byte	0x3
 12226 2116 00000000 		.4byte	aes_test_ctr_len
 12227 211a 22       		.byte	0x22
 12228 211b DC030000 		.4byte	.LVL343
 12229 211f 26040000 		.4byte	.LVL350
 12230 2123 0A00     		.2byte	0xa
 12231 2125 7A       		.byte	0x7a
 12232 2126 00       		.sleb128 0
 12233 2127 32       		.byte	0x32
 12234 2128 24       		.byte	0x24
 12235 2129 03       		.byte	0x3
 12236 212a 00000000 		.4byte	aes_test_ctr_len
 12237 212e 22       		.byte	0x22
 12238 212f 58040000 		.4byte	.LVL362
 12239 2133 78040000 		.4byte	.LFE11
 12240 2137 0A00     		.2byte	0xa
 12241 2139 7A       		.byte	0x7a
 12242 213a 00       		.sleb128 0
 12243 213b 32       		.byte	0x32
 12244 213c 24       		.byte	0x24
 12245 213d 03       		.byte	0x3
 12246 213e 00000000 		.4byte	aes_test_ctr_len
 12247 2142 22       		.byte	0x22
 12248 2143 00000000 		.4byte	0
 12249 2147 00000000 		.4byte	0
 12250              	.LLST81:
 12251 214b 22000000 		.4byte	.LVL261
 12252 214f 25000000 		.4byte	.LVL262-1
 12253 2153 0100     		.2byte	0x1
 12254 2155 50       		.byte	0x50
 12255 2156 25000000 		.4byte	.LVL262-1
 12256 215a 60000000 		.4byte	.LVL267
 12257 215e 0400     		.2byte	0x4
 12258 2160 91       		.byte	0x91
 12259 2161 C07D     		.sleb128 -320
 12260 2163 9F       		.byte	0x9f
 12261 2164 60000000 		.4byte	.LVL267
 12262 2168 6D000000 		.4byte	.LVL268-1
 12263 216c 0100     		.2byte	0x1
 12264 216e 50       		.byte	0x50
 12265 216f 6D000000 		.4byte	.LVL268-1
 12266 2173 74000000 		.4byte	.LVL270
 12267 2177 0400     		.2byte	0x4
 12268 2179 91       		.byte	0x91
 12269 217a C07D     		.sleb128 -320
 12270 217c 9F       		.byte	0x9f
 12271 217d 74000000 		.4byte	.LVL270
 12272 2181 7D000000 		.4byte	.LVL271-1
ARM GAS  C:\Users\jo\AppData\Local\Temp\cc8AA3HA.s 			page 218


 12273 2185 0100     		.2byte	0x1
 12274 2187 50       		.byte	0x50
 12275 2188 7D000000 		.4byte	.LVL271-1
 12276 218c FA000000 		.4byte	.LVL282
 12277 2190 0400     		.2byte	0x4
 12278 2192 91       		.byte	0x91
 12279 2193 C07D     		.sleb128 -320
 12280 2195 9F       		.byte	0x9f
 12281 2196 FA000000 		.4byte	.LVL282
 12282 219a 07010000 		.4byte	.LVL283-1
 12283 219e 0100     		.2byte	0x1
 12284 21a0 50       		.byte	0x50
 12285 21a1 07010000 		.4byte	.LVL283-1
 12286 21a5 12010000 		.4byte	.LVL285
 12287 21a9 0400     		.2byte	0x4
 12288 21ab 91       		.byte	0x91
 12289 21ac C07D     		.sleb128 -320
 12290 21ae 9F       		.byte	0x9f
 12291 21af 12010000 		.4byte	.LVL285
 12292 21b3 1B010000 		.4byte	.LVL286-1
 12293 21b7 0100     		.2byte	0x1
 12294 21b9 50       		.byte	0x50
 12295 21ba 1B010000 		.4byte	.LVL286-1
 12296 21be 96010000 		.4byte	.LVL297
 12297 21c2 0400     		.2byte	0x4
 12298 21c4 91       		.byte	0x91
 12299 21c5 C07D     		.sleb128 -320
 12300 21c7 9F       		.byte	0x9f
 12301 21c8 96010000 		.4byte	.LVL297
 12302 21cc 9D010000 		.4byte	.LVL298-1
 12303 21d0 0100     		.2byte	0x1
 12304 21d2 50       		.byte	0x50
 12305 21d3 9D010000 		.4byte	.LVL298-1
 12306 21d7 E2010000 		.4byte	.LVL300
 12307 21db 0400     		.2byte	0x4
 12308 21dd 91       		.byte	0x91
 12309 21de C07D     		.sleb128 -320
 12310 21e0 9F       		.byte	0x9f
 12311 21e1 E2010000 		.4byte	.LVL300
 12312 21e5 E7010000 		.4byte	.LVL301-1
 12313 21e9 0100     		.2byte	0x1
 12314 21eb 50       		.byte	0x50
 12315 21ec E7010000 		.4byte	.LVL301-1
 12316 21f0 5C020000 		.4byte	.LVL309
 12317 21f4 0400     		.2byte	0x4
 12318 21f6 91       		.byte	0x91
 12319 21f7 C07D     		.sleb128 -320
 12320 21f9 9F       		.byte	0x9f
 12321 21fa 5C020000 		.4byte	.LVL309
 12322 21fe 63020000 		.4byte	.LVL310-1
 12323 2202 0100     		.2byte	0x1
 12324 2204 50       		.byte	0x50
 12325 2205 63020000 		.4byte	.LVL310-1
 12326 2209 94020000 		.4byte	.LVL313
 12327 220d 0400     		.2byte	0x4
 12328 220f 91       		.byte	0x91
 12329 2210 C07D     		.sleb128 -320
ARM GAS  C:\Users\jo\AppData\Local\Temp\cc8AA3HA.s 			page 219


 12330 2212 9F       		.byte	0x9f
 12331 2213 94020000 		.4byte	.LVL313
 12332 2217 97020000 		.4byte	.LVL314-1
 12333 221b 0100     		.2byte	0x1
 12334 221d 50       		.byte	0x50
 12335 221e 97020000 		.4byte	.LVL314-1
 12336 2222 C0020000 		.4byte	.LVL317
 12337 2226 0400     		.2byte	0x4
 12338 2228 91       		.byte	0x91
 12339 2229 C07D     		.sleb128 -320
 12340 222b 9F       		.byte	0x9f
 12341 222c C0020000 		.4byte	.LVL317
 12342 2230 C3020000 		.4byte	.LVL318-1
 12343 2234 0100     		.2byte	0x1
 12344 2236 50       		.byte	0x50
 12345 2237 C3020000 		.4byte	.LVL318-1
 12346 223b D6020000 		.4byte	.LVL321
 12347 223f 0400     		.2byte	0x4
 12348 2241 91       		.byte	0x91
 12349 2242 C07D     		.sleb128 -320
 12350 2244 9F       		.byte	0x9f
 12351 2245 D6020000 		.4byte	.LVL321
 12352 2249 D9020000 		.4byte	.LVL322-1
 12353 224d 0100     		.2byte	0x1
 12354 224f 50       		.byte	0x50
 12355 2250 D9020000 		.4byte	.LVL322-1
 12356 2254 18030000 		.4byte	.LVL328
 12357 2258 0400     		.2byte	0x4
 12358 225a 91       		.byte	0x91
 12359 225b C07D     		.sleb128 -320
 12360 225d 9F       		.byte	0x9f
 12361 225e 18030000 		.4byte	.LVL328
 12362 2262 1A030000 		.4byte	.LVL329
 12363 2266 0100     		.2byte	0x1
 12364 2268 53       		.byte	0x53
 12365 2269 1A030000 		.4byte	.LVL329
 12366 226d 2A030000 		.4byte	.LVL332
 12367 2271 0400     		.2byte	0x4
 12368 2273 91       		.byte	0x91
 12369 2274 C07D     		.sleb128 -320
 12370 2276 9F       		.byte	0x9f
 12371 2277 2A030000 		.4byte	.LVL332
 12372 227b 2D030000 		.4byte	.LVL333-1
 12373 227f 0100     		.2byte	0x1
 12374 2281 50       		.byte	0x50
 12375 2282 2D030000 		.4byte	.LVL333-1
 12376 2286 34030000 		.4byte	.LVL335
 12377 228a 0400     		.2byte	0x4
 12378 228c 91       		.byte	0x91
 12379 228d C07D     		.sleb128 -320
 12380 228f 9F       		.byte	0x9f
 12381 2290 34030000 		.4byte	.LVL335
 12382 2294 3D030000 		.4byte	.LVL336-1
 12383 2298 0100     		.2byte	0x1
 12384 229a 50       		.byte	0x50
 12385 229b 3D030000 		.4byte	.LVL336-1
 12386 229f B4030000 		.4byte	.LVL339
ARM GAS  C:\Users\jo\AppData\Local\Temp\cc8AA3HA.s 			page 220


 12387 22a3 0400     		.2byte	0x4
 12388 22a5 91       		.byte	0x91
 12389 22a6 C07D     		.sleb128 -320
 12390 22a8 9F       		.byte	0x9f
 12391 22a9 B4030000 		.4byte	.LVL339
 12392 22ad B9030000 		.4byte	.LVL340-1
 12393 22b1 0100     		.2byte	0x1
 12394 22b3 50       		.byte	0x50
 12395 22b4 B9030000 		.4byte	.LVL340-1
 12396 22b8 FE030000 		.4byte	.LVL345
 12397 22bc 0400     		.2byte	0x4
 12398 22be 91       		.byte	0x91
 12399 22bf C07D     		.sleb128 -320
 12400 22c1 9F       		.byte	0x9f
 12401 22c2 FE030000 		.4byte	.LVL345
 12402 22c6 01040000 		.4byte	.LVL346-1
 12403 22ca 0100     		.2byte	0x1
 12404 22cc 50       		.byte	0x50
 12405 22cd 01040000 		.4byte	.LVL346-1
 12406 22d1 78040000 		.4byte	.LFE11
 12407 22d5 0400     		.2byte	0x4
 12408 22d7 91       		.byte	0x91
 12409 22d8 C07D     		.sleb128 -320
 12410 22da 9F       		.byte	0x9f
 12411 22db 00000000 		.4byte	0
 12412 22df 00000000 		.4byte	0
 12413              	.LLST82:
 12414 22e3 16030000 		.4byte	.LVL327
 12415 22e7 18030000 		.4byte	.LVL328
 12416 22eb 0400     		.2byte	0x4
 12417 22ed 91       		.byte	0x91
 12418 22ee C07D     		.sleb128 -320
 12419 22f0 9F       		.byte	0x9f
 12420 22f1 18030000 		.4byte	.LVL328
 12421 22f5 1A030000 		.4byte	.LVL329
 12422 22f9 0100     		.2byte	0x1
 12423 22fb 53       		.byte	0x53
 12424 22fc 1A030000 		.4byte	.LVL329
 12425 2300 2A030000 		.4byte	.LVL332
 12426 2304 0400     		.2byte	0x4
 12427 2306 91       		.byte	0x91
 12428 2307 C07D     		.sleb128 -320
 12429 2309 9F       		.byte	0x9f
 12430 230a 00000000 		.4byte	0
 12431 230e 00000000 		.4byte	0
 12432              	.LLST83:
 12433 2312 16030000 		.4byte	.LVL327
 12434 2316 1A030000 		.4byte	.LVL329
 12435 231a 0400     		.2byte	0x4
 12436 231c 0A       		.byte	0xa
 12437 231d 1701     		.2byte	0x117
 12438 231f 9F       		.byte	0x9f
 12439 2320 1A030000 		.4byte	.LVL329
 12440 2324 1C030000 		.4byte	.LVL330
 12441 2328 0900     		.2byte	0x9
 12442 232a 91       		.byte	0x91
 12443 232b 00       		.sleb128 0
ARM GAS  C:\Users\jo\AppData\Local\Temp\cc8AA3HA.s 			page 221


 12444 232c 73       		.byte	0x73
 12445 232d 00       		.sleb128 0
 12446 232e 1C       		.byte	0x1c
 12447 232f 08       		.byte	0x8
 12448 2330 29       		.byte	0x29
 12449 2331 1C       		.byte	0x1c
 12450 2332 9F       		.byte	0x9f
 12451 2333 1C030000 		.4byte	.LVL330
 12452 2337 20030000 		.4byte	.LVL331
 12453 233b 0900     		.2byte	0x9
 12454 233d 91       		.byte	0x91
 12455 233e 00       		.sleb128 0
 12456 233f 73       		.byte	0x73
 12457 2340 00       		.sleb128 0
 12458 2341 1C       		.byte	0x1c
 12459 2342 08       		.byte	0x8
 12460 2343 2A       		.byte	0x2a
 12461 2344 1C       		.byte	0x1c
 12462 2345 9F       		.byte	0x9f
 12463 2346 20030000 		.4byte	.LVL331
 12464 234a 2A030000 		.4byte	.LVL332
 12465 234e 0900     		.2byte	0x9
 12466 2350 91       		.byte	0x91
 12467 2351 00       		.sleb128 0
 12468 2352 73       		.byte	0x73
 12469 2353 00       		.sleb128 0
 12470 2354 1C       		.byte	0x1c
 12471 2355 08       		.byte	0x8
 12472 2356 29       		.byte	0x29
 12473 2357 1C       		.byte	0x1c
 12474 2358 9F       		.byte	0x9f
 12475 2359 00000000 		.4byte	0
 12476 235d 00000000 		.4byte	0
 12477              	.LLST84:
 12478 2361 16030000 		.4byte	.LVL327
 12479 2365 18030000 		.4byte	.LVL328
 12480 2369 0400     		.2byte	0x4
 12481 236b 91       		.byte	0x91
 12482 236c C07D     		.sleb128 -320
 12483 236e 9F       		.byte	0x9f
 12484 236f 18030000 		.4byte	.LVL328
 12485 2373 1A030000 		.4byte	.LVL329
 12486 2377 0100     		.2byte	0x1
 12487 2379 53       		.byte	0x53
 12488 237a 1A030000 		.4byte	.LVL329
 12489 237e 20030000 		.4byte	.LVL331
 12490 2382 0300     		.2byte	0x3
 12491 2384 73       		.byte	0x73
 12492 2385 01       		.sleb128 1
 12493 2386 9F       		.byte	0x9f
 12494 2387 20030000 		.4byte	.LVL331
 12495 238b 2A030000 		.4byte	.LVL332
 12496 238f 0100     		.2byte	0x1
 12497 2391 53       		.byte	0x53
 12498 2392 00000000 		.4byte	0
 12499 2396 00000000 		.4byte	0
 12500              		.section	.debug_aranges,"",%progbits
ARM GAS  C:\Users\jo\AppData\Local\Temp\cc8AA3HA.s 			page 222


 12501 0000 6C000000 		.4byte	0x6c
 12502 0004 0200     		.2byte	0x2
 12503 0006 00000000 		.4byte	.Ldebug_info0
 12504 000a 04       		.byte	0x4
 12505 000b 00       		.byte	0
 12506 000c 0000     		.2byte	0
 12507 000e 0000     		.2byte	0
 12508 0010 00000000 		.4byte	.LFB1
 12509 0014 4C020000 		.4byte	.LFE1-.LFB1
 12510 0018 00000000 		.4byte	.LFB2
 12511 001c 0A000000 		.4byte	.LFE2-.LFB2
 12512 0020 00000000 		.4byte	.LFB3
 12513 0024 12000000 		.4byte	.LFE3-.LFB3
 12514 0028 00000000 		.4byte	.LFB4
 12515 002c 1C020000 		.4byte	.LFE4-.LFB4
 12516 0030 00000000 		.4byte	.LFB5
 12517 0034 24010000 		.4byte	.LFE5-.LFB5
 12518 0038 00000000 		.4byte	.LFB6
 12519 003c A8080000 		.4byte	.LFE6-.LFB6
 12520 0040 00000000 		.4byte	.LFB7
 12521 0044 D4000000 		.4byte	.LFE7-.LFB7
 12522 0048 00000000 		.4byte	.LFB8
 12523 004c 7E000000 		.4byte	.LFE8-.LFB8
 12524 0050 00000000 		.4byte	.LFB9
 12525 0054 8E000000 		.4byte	.LFE9-.LFB9
 12526 0058 00000000 		.4byte	.LFB10
 12527 005c 62000000 		.4byte	.LFE10-.LFB10
 12528 0060 00000000 		.4byte	.LFB11
 12529 0064 78040000 		.4byte	.LFE11-.LFB11
 12530 0068 00000000 		.4byte	0
 12531 006c 00000000 		.4byte	0
 12532              		.section	.debug_ranges,"",%progbits
 12533              	.Ldebug_ranges0:
 12534 0000 0A000000 		.4byte	.LBB28
 12535 0004 12000000 		.4byte	.LBE28
 12536 0008 22000000 		.4byte	.LBB31
 12537 000c 26000000 		.4byte	.LBE31
 12538 0010 00000000 		.4byte	0
 12539 0014 00000000 		.4byte	0
 12540 0018 CA020000 		.4byte	.LBB32
 12541 001c EE020000 		.4byte	.LBE32
 12542 0020 F2020000 		.4byte	.LBB33
 12543 0024 F6020000 		.4byte	.LBE33
 12544 0028 00000000 		.4byte	0
 12545 002c 00000000 		.4byte	0
 12546 0030 00000000 		.4byte	.LFB1
 12547 0034 4C020000 		.4byte	.LFE1
 12548 0038 00000000 		.4byte	.LFB2
 12549 003c 0A000000 		.4byte	.LFE2
 12550 0040 00000000 		.4byte	.LFB3
 12551 0044 12000000 		.4byte	.LFE3
 12552 0048 00000000 		.4byte	.LFB4
 12553 004c 1C020000 		.4byte	.LFE4
 12554 0050 00000000 		.4byte	.LFB5
 12555 0054 24010000 		.4byte	.LFE5
 12556 0058 00000000 		.4byte	.LFB6
 12557 005c A8080000 		.4byte	.LFE6
ARM GAS  C:\Users\jo\AppData\Local\Temp\cc8AA3HA.s 			page 223


 12558 0060 00000000 		.4byte	.LFB7
 12559 0064 D4000000 		.4byte	.LFE7
 12560 0068 00000000 		.4byte	.LFB8
 12561 006c 7E000000 		.4byte	.LFE8
 12562 0070 00000000 		.4byte	.LFB9
 12563 0074 8E000000 		.4byte	.LFE9
 12564 0078 00000000 		.4byte	.LFB10
 12565 007c 62000000 		.4byte	.LFE10
 12566 0080 00000000 		.4byte	.LFB11
 12567 0084 78040000 		.4byte	.LFE11
 12568 0088 00000000 		.4byte	0
 12569 008c 00000000 		.4byte	0
 12570              		.section	.debug_line,"",%progbits
 12571              	.Ldebug_line0:
 12572 0000 7E090000 		.section	.debug_str,"MS",%progbits,1
 12572      0200C301 
 12572      00000201 
 12572      FB0E0D00 
 12572      01010101 
 12573              	.LASF53:
 12574 0000 7072696E 		.ascii	"printf\000"
 12574      746600
 12575              	.LASF6:
 12576 0007 73697A65 		.ascii	"size_t\000"
 12576      5F7400
 12577              	.LASF15:
 12578 000e 6165735F 		.ascii	"aes_init\000"
 12578      696E6974 
 12578      00
 12579              	.LASF43:
 12580 0017 6165735F 		.ascii	"aes_test_cfb128_iv\000"
 12580      74657374 
 12580      5F636662 
 12580      3132385F 
 12580      697600
 12581              	.LASF32:
 12582 002a 73747265 		.ascii	"stream_block\000"
 12582      616D5F62 
 12582      6C6F636B 
 12582      00
 12583              	.LASF10:
 12584 0037 6C6F6E67 		.ascii	"long long unsigned int\000"
 12584      206C6F6E 
 12584      6720756E 
 12584      7369676E 
 12584      65642069 
 12585              	.LASF30:
 12586 004e 6E635F6F 		.ascii	"nc_off\000"
 12586      666600
 12587              	.LASF16:
 12588 0055 6165735F 		.ascii	"aes_free\000"
 12588      66726565 
 12588      00
 12589              	.LASF61:
 12590 005e 6165735F 		.ascii	"aes_gen_tables\000"
 12590      67656E5F 
 12590      7461626C 
ARM GAS  C:\Users\jo\AppData\Local\Temp\cc8AA3HA.s 			page 224


 12590      657300
 12591              	.LASF27:
 12592 006d 69765F6F 		.ascii	"iv_off\000"
 12592      666600
 12593              	.LASF59:
 12594 0074 433A5C55 		.ascii	"C:\\Users\\jo\\Documents\\GitHub\\ChibiOS\\demos\\S"
 12594      73657273 
 12594      5C6A6F5C 
 12594      446F6375 
 12594      6D656E74 
 12595 00a0 544D3332 		.ascii	"TM32\\RT-STM32F407-DISCOVERY-uHttp\000"
 12595      5C52542D 
 12595      53544D33 
 12595      32463430 
 12595      372D4449 
 12596              	.LASF9:
 12597 00c2 6C6F6E67 		.ascii	"long long int\000"
 12597      206C6F6E 
 12597      6720696E 
 12597      7400
 12598              	.LASF1:
 12599 00d0 7369676E 		.ascii	"signed char\000"
 12599      65642063 
 12599      68617200 
 12600              	.LASF33:
 12601 00dc 6165735F 		.ascii	"aes_self_test\000"
 12601      73656C66 
 12601      5F746573 
 12601      7400
 12602              	.LASF52:
 12603 00ea 6165735F 		.ascii	"aes_crypt_cbc\000"
 12603      63727970 
 12603      745F6362 
 12603      6300
 12604              	.LASF5:
 12605 00f8 6C6F6E67 		.ascii	"long int\000"
 12605      20696E74 
 12605      00
 12606              	.LASF63:
 12607 0101 5F5F6275 		.ascii	"__builtin_puts\000"
 12607      696C7469 
 12607      6E5F7075 
 12607      747300
 12608              	.LASF65:
 12609 0110 70757463 		.ascii	"putchar\000"
 12609      68617200 
 12610              	.LASF7:
 12611 0118 5F5F7569 		.ascii	"__uint32_t\000"
 12611      6E743332 
 12611      5F7400
 12612              	.LASF28:
 12613 0123 6165735F 		.ascii	"aes_crypt_cfb8\000"
 12613      63727970 
 12613      745F6366 
 12613      623800
 12614              	.LASF26:
 12615 0132 6165735F 		.ascii	"aes_crypt_cfb128\000"
ARM GAS  C:\Users\jo\AppData\Local\Temp\cc8AA3HA.s 			page 225


 12615      63727970 
 12615      745F6366 
 12615      62313238 
 12615      00
 12616              	.LASF21:
 12617 0143 74656D70 		.ascii	"temp\000"
 12617      00
 12618              	.LASF0:
 12619 0148 756E7369 		.ascii	"unsigned int\000"
 12619      676E6564 
 12619      20696E74 
 12619      00
 12620              	.LASF24:
 12621 0155 6165735F 		.ascii	"aes_setkey_dec\000"
 12621      7365746B 
 12621      65795F64 
 12621      656300
 12622              	.LASF23:
 12623 0164 6165735F 		.ascii	"aes_setkey_enc\000"
 12623      7365746B 
 12623      65795F65 
 12623      6E6300
 12624              	.LASF8:
 12625 0173 6C6F6E67 		.ascii	"long unsigned int\000"
 12625      20756E73 
 12625      69676E65 
 12625      6420696E 
 12625      7400
 12626              	.LASF22:
 12627 0185 6B657973 		.ascii	"keysize\000"
 12627      697A6500 
 12628              	.LASF56:
 12629 018d 5F5F6275 		.ascii	"__builtin_putchar\000"
 12629      696C7469 
 12629      6E5F7075 
 12629      74636861 
 12629      7200
 12630              	.LASF38:
 12631 019f 6165735F 		.ascii	"aes_test_ecb_dec\000"
 12631      74657374 
 12631      5F656362 
 12631      5F646563 
 12631      00
 12632              	.LASF39:
 12633 01b0 6165735F 		.ascii	"aes_test_ecb_enc\000"
 12633      74657374 
 12633      5F656362 
 12633      5F656E63 
 12633      00
 12634              	.LASF4:
 12635 01c1 73686F72 		.ascii	"short unsigned int\000"
 12635      7420756E 
 12635      7369676E 
 12635      65642069 
 12635      6E7400
 12636              	.LASF60:
 12637 01d4 706F6C61 		.ascii	"polarssl_zeroize\000"
ARM GAS  C:\Users\jo\AppData\Local\Temp\cc8AA3HA.s 			page 226


 12637      7273736C 
 12637      5F7A6572 
 12637      6F697A65 
 12637      00
 12638              	.LASF57:
 12639 01e5 474E5520 		.ascii	"GNU C 4.9.3 20141119 (release) [ARM/embedded-4_9-br"
 12639      4320342E 
 12639      392E3320 
 12639      32303134 
 12639      31313139 
 12640 0218 616E6368 		.ascii	"anch revision 218278] -mcpu=cortex-m4 -mno-thumb-in"
 12640      20726576 
 12640      6973696F 
 12640      6E203231 
 12640      38323738 
 12641 024b 74657277 		.ascii	"terwork -mthumb -ggdb -O2 -fomit-frame-pointer -fal"
 12641      6F726B20 
 12641      2D6D7468 
 12641      756D6220 
 12641      2D676764 
 12642 027e 69676E2D 		.ascii	"ign-functions=16 -ffunction-sections -fdata-section"
 12642      66756E63 
 12642      74696F6E 
 12642      733D3136 
 12642      202D6666 
 12643 02b1 73202D66 		.ascii	"s -fno-common\000"
 12643      6E6F2D63 
 12643      6F6D6D6F 
 12643      6E00
 12644              	.LASF20:
 12645 02bf 6F757470 		.ascii	"output\000"
 12645      757400
 12646              	.LASF11:
 12647 02c6 73697A65 		.ascii	"sizetype\000"
 12647      74797065 
 12647      00
 12648              	.LASF48:
 12649 02cf 6165735F 		.ascii	"aes_test_ctr_pt\000"
 12649      74657374 
 12649      5F637472 
 12649      5F707400 
 12650              	.LASF14:
 12651 02df 6165735F 		.ascii	"aes_context\000"
 12651      636F6E74 
 12651      65787400 
 12652              	.LASF31:
 12653 02eb 6E6F6E63 		.ascii	"nonce_counter\000"
 12653      655F636F 
 12653      756E7465 
 12653      7200
 12654              	.LASF40:
 12655 02f9 6165735F 		.ascii	"aes_test_cbc_dec\000"
 12655      74657374 
 12655      5F636263 
 12655      5F646563 
 12655      00
 12656              	.LASF41:
ARM GAS  C:\Users\jo\AppData\Local\Temp\cc8AA3HA.s 			page 227


 12657 030a 6165735F 		.ascii	"aes_test_cbc_enc\000"
 12657      74657374 
 12657      5F636263 
 12657      5F656E63 
 12657      00
 12658              	.LASF50:
 12659 031b 6165735F 		.ascii	"aes_test_ctr_len\000"
 12659      74657374 
 12659      5F637472 
 12659      5F6C656E 
 12659      00
 12660              	.LASF29:
 12661 032c 6165735F 		.ascii	"aes_crypt_ctr\000"
 12661      63727970 
 12661      745F6374 
 12661      7200
 12662              	.LASF58:
 12663 033a 2E2E2F2E 		.ascii	"../../../ext/mbedtls-1.3.11/library/aes.c\000"
 12663      2E2F2E2E 
 12663      2F657874 
 12663      2F6D6265 
 12663      64746C73 
 12664              	.LASF47:
 12665 0364 6165735F 		.ascii	"aes_test_ctr_nonce_counter\000"
 12665      74657374 
 12665      5F637472 
 12665      5F6E6F6E 
 12665      63655F63 
 12666              	.LASF2:
 12667 037f 756E7369 		.ascii	"unsigned char\000"
 12667      676E6564 
 12667      20636861 
 12667      7200
 12668              	.LASF3:
 12669 038d 73686F72 		.ascii	"short int\000"
 12669      7420696E 
 12669      7400
 12670              	.LASF62:
 12671 0397 65786974 		.ascii	"exit\000"
 12671      00
 12672              	.LASF19:
 12673 039c 696E7075 		.ascii	"input\000"
 12673      7400
 12674              	.LASF13:
 12675 03a2 75696E74 		.ascii	"uint32_t\000"
 12675      33325F74 
 12675      00
 12676              	.LASF18:
 12677 03ab 6C656E67 		.ascii	"length\000"
 12677      746800
 12678              	.LASF12:
 12679 03b2 63686172 		.ascii	"char\000"
 12679      00
 12680              	.LASF17:
 12681 03b7 6D6F6465 		.ascii	"mode\000"
 12681      00
 12682              	.LASF46:
ARM GAS  C:\Users\jo\AppData\Local\Temp\cc8AA3HA.s 			page 228


 12683 03bc 6165735F 		.ascii	"aes_test_ctr_key\000"
 12683      74657374 
 12683      5F637472 
 12683      5F6B6579 
 12683      00
 12684              	.LASF34:
 12685 03cd 76657262 		.ascii	"verbose\000"
 12685      6F736500 
 12686              	.LASF49:
 12687 03d5 6165735F 		.ascii	"aes_test_ctr_ct\000"
 12687      74657374 
 12687      5F637472 
 12687      5F637400 
 12688              	.LASF35:
 12689 03e5 6F666673 		.ascii	"offset\000"
 12689      657400
 12690              	.LASF55:
 12691 03ec 6D656D63 		.ascii	"memcpy\000"
 12691      707900
 12692              	.LASF42:
 12693 03f3 6165735F 		.ascii	"aes_test_cfb128_key\000"
 12693      74657374 
 12693      5F636662 
 12693      3132385F 
 12693      6B657900 
 12694              	.LASF51:
 12695 0407 6D656D73 		.ascii	"memset\000"
 12695      657400
 12696              	.LASF36:
 12697 040e 52434F4E 		.ascii	"RCON\000"
 12697      00
 12698              	.LASF37:
 12699 0413 6165735F 		.ascii	"aes_init_done\000"
 12699      696E6974 
 12699      5F646F6E 
 12699      6500
 12700              	.LASF25:
 12701 0421 6165735F 		.ascii	"aes_crypt_ecb\000"
 12701      63727970 
 12701      745F6563 
 12701      6200
 12702              	.LASF64:
 12703 042f 70757473 		.ascii	"puts\000"
 12703      00
 12704              	.LASF45:
 12705 0434 6165735F 		.ascii	"aes_test_cfb128_ct\000"
 12705      74657374 
 12705      5F636662 
 12705      3132385F 
 12705      637400
 12706              	.LASF54:
 12707 0447 6D656D63 		.ascii	"memcmp\000"
 12707      6D7000
 12708              	.LASF44:
 12709 044e 6165735F 		.ascii	"aes_test_cfb128_pt\000"
 12709      74657374 
 12709      5F636662 
ARM GAS  C:\Users\jo\AppData\Local\Temp\cc8AA3HA.s 			page 229


 12709      3132385F 
 12709      707400
 12710              		.ident	"GCC: (GNU Tools for ARM Embedded Processors) 4.9.3 20141119 (release) [ARM/embedded-4_9-br
ARM GAS  C:\Users\jo\AppData\Local\Temp\cc8AA3HA.s 			page 230


DEFINED SYMBOLS
                            *ABS*:00000000 aes.c
C:\Users\jo\AppData\Local\Temp\cc8AA3HA.s:19     .text.aes_gen_tables:00000000 $t
C:\Users\jo\AppData\Local\Temp\cc8AA3HA.s:24     .text.aes_gen_tables:00000000 aes_gen_tables
C:\Users\jo\AppData\Local\Temp\cc8AA3HA.s:375    .text.aes_gen_tables:00000214 $d
C:\Users\jo\AppData\Local\Temp\cc8AA3HA.s:393    .text.aes_init:00000000 $t
C:\Users\jo\AppData\Local\Temp\cc8AA3HA.s:399    .text.aes_init:00000000 aes_init
C:\Users\jo\AppData\Local\Temp\cc8AA3HA.s:416    .text.aes_free:00000000 $t
C:\Users\jo\AppData\Local\Temp\cc8AA3HA.s:422    .text.aes_free:00000000 aes_free
C:\Users\jo\AppData\Local\Temp\cc8AA3HA.s:454    .text.aes_setkey_enc:00000000 $t
C:\Users\jo\AppData\Local\Temp\cc8AA3HA.s:460    .text.aes_setkey_enc:00000000 aes_setkey_enc
C:\Users\jo\AppData\Local\Temp\cc8AA3HA.s:816    .text.aes_setkey_enc:0000020c $d
C:\Users\jo\AppData\Local\Temp\cc8AA3HA.s:824    .text.aes_setkey_dec:00000000 $t
C:\Users\jo\AppData\Local\Temp\cc8AA3HA.s:830    .text.aes_setkey_dec:00000000 aes_setkey_dec
C:\Users\jo\AppData\Local\Temp\cc8AA3HA.s:1043   .text.aes_setkey_dec:00000110 $d
C:\Users\jo\AppData\Local\Temp\cc8AA3HA.s:1052   .text.aes_crypt_ecb:00000000 $t
C:\Users\jo\AppData\Local\Temp\cc8AA3HA.s:1058   .text.aes_crypt_ecb:00000000 aes_crypt_ecb
C:\Users\jo\AppData\Local\Temp\cc8AA3HA.s:1534   .text.aes_crypt_ecb:000003e8 $d
C:\Users\jo\AppData\Local\Temp\cc8AA3HA.s:1541   .text.aes_crypt_ecb:000003fc $t
C:\Users\jo\AppData\Local\Temp\cc8AA3HA.s:2013   .text.aes_crypt_ecb:00000818 $d
C:\Users\jo\AppData\Local\Temp\cc8AA3HA.s:2019   .text.aes_crypt_ecb:0000082c $t
C:\Users\jo\AppData\Local\Temp\cc8AA3HA.s:2087   .text.aes_crypt_ecb:000008a4 $d
C:\Users\jo\AppData\Local\Temp\cc8AA3HA.s:2092   .text.aes_crypt_cbc:00000000 $t
C:\Users\jo\AppData\Local\Temp\cc8AA3HA.s:2098   .text.aes_crypt_cbc:00000000 aes_crypt_cbc
C:\Users\jo\AppData\Local\Temp\cc8AA3HA.s:2265   .text.aes_crypt_cfb128:00000000 $t
C:\Users\jo\AppData\Local\Temp\cc8AA3HA.s:2271   .text.aes_crypt_cfb128:00000000 aes_crypt_cfb128
C:\Users\jo\AppData\Local\Temp\cc8AA3HA.s:2394   .text.aes_crypt_cfb8:00000000 $t
C:\Users\jo\AppData\Local\Temp\cc8AA3HA.s:2400   .text.aes_crypt_cfb8:00000000 aes_crypt_cfb8
C:\Users\jo\AppData\Local\Temp\cc8AA3HA.s:2523   .text.aes_crypt_ctr:00000000 $t
C:\Users\jo\AppData\Local\Temp\cc8AA3HA.s:2529   .text.aes_crypt_ctr:00000000 aes_crypt_ctr
C:\Users\jo\AppData\Local\Temp\cc8AA3HA.s:2624   .text.aes_self_test:00000000 $t
C:\Users\jo\AppData\Local\Temp\cc8AA3HA.s:2630   .text.aes_self_test:00000000 aes_self_test
C:\Users\jo\AppData\Local\Temp\cc8AA3HA.s:3201   .text.aes_self_test:00000348 $d
C:\Users\jo\AppData\Local\Temp\cc8AA3HA.s:3223   .text.aes_self_test:00000394 $t
C:\Users\jo\AppData\Local\Temp\cc8AA3HA.s:3358   .text.aes_self_test:00000464 $d
C:\Users\jo\AppData\Local\Temp\cc8AA3HA.s:3367   .bss.FT0:00000000 $d
C:\Users\jo\AppData\Local\Temp\cc8AA3HA.s:3371   .bss.FT0:00000000 FT0
C:\Users\jo\AppData\Local\Temp\cc8AA3HA.s:3374   .bss.FT1:00000000 $d
C:\Users\jo\AppData\Local\Temp\cc8AA3HA.s:3378   .bss.FT1:00000000 FT1
C:\Users\jo\AppData\Local\Temp\cc8AA3HA.s:3381   .bss.FT2:00000000 $d
C:\Users\jo\AppData\Local\Temp\cc8AA3HA.s:3385   .bss.FT2:00000000 FT2
C:\Users\jo\AppData\Local\Temp\cc8AA3HA.s:3388   .bss.FT3:00000000 $d
C:\Users\jo\AppData\Local\Temp\cc8AA3HA.s:3392   .bss.FT3:00000000 FT3
C:\Users\jo\AppData\Local\Temp\cc8AA3HA.s:3395   .bss.RT0:00000000 $d
C:\Users\jo\AppData\Local\Temp\cc8AA3HA.s:3399   .bss.RT0:00000000 RT0
C:\Users\jo\AppData\Local\Temp\cc8AA3HA.s:3402   .bss.RT1:00000000 $d
C:\Users\jo\AppData\Local\Temp\cc8AA3HA.s:3406   .bss.RT1:00000000 RT1
C:\Users\jo\AppData\Local\Temp\cc8AA3HA.s:3409   .rodata.aes_test_ecb_dec:00000000 $d
C:\Users\jo\AppData\Local\Temp\cc8AA3HA.s:3413   .rodata.aes_test_ecb_dec:00000000 aes_test_ecb_dec
C:\Users\jo\AppData\Local\Temp\cc8AA3HA.s:3463   .bss.RT3:00000000 $d
C:\Users\jo\AppData\Local\Temp\cc8AA3HA.s:3467   .bss.RT3:00000000 RT3
C:\Users\jo\AppData\Local\Temp\cc8AA3HA.s:3470   .bss.RCON:00000000 $d
C:\Users\jo\AppData\Local\Temp\cc8AA3HA.s:3474   .bss.RCON:00000000 RCON
C:\Users\jo\AppData\Local\Temp\cc8AA3HA.s:3477   .bss.aes_init_done:00000000 $d
C:\Users\jo\AppData\Local\Temp\cc8AA3HA.s:3481   .bss.aes_init_done:00000000 aes_init_done
C:\Users\jo\AppData\Local\Temp\cc8AA3HA.s:3484   .rodata.aes_test_cfb128_ct:00000000 $d
C:\Users\jo\AppData\Local\Temp\cc8AA3HA.s:3488   .rodata.aes_test_cfb128_ct:00000000 aes_test_cfb128_ct
ARM GAS  C:\Users\jo\AppData\Local\Temp\cc8AA3HA.s 			page 231


C:\Users\jo\AppData\Local\Temp\cc8AA3HA.s:3682   .rodata.aes_test_cbc_dec:00000000 $d
C:\Users\jo\AppData\Local\Temp\cc8AA3HA.s:3686   .rodata.aes_test_cbc_dec:00000000 aes_test_cbc_dec
C:\Users\jo\AppData\Local\Temp\cc8AA3HA.s:3736   .rodata.str1.4:00000000 $d
C:\Users\jo\AppData\Local\Temp\cc8AA3HA.s:3758   .rodata.aes_test_ctr_key:00000000 $d
C:\Users\jo\AppData\Local\Temp\cc8AA3HA.s:3762   .rodata.aes_test_ctr_key:00000000 aes_test_ctr_key
C:\Users\jo\AppData\Local\Temp\cc8AA3HA.s:3812   .bss.RSb:00000000 $d
C:\Users\jo\AppData\Local\Temp\cc8AA3HA.s:3816   .bss.RSb:00000000 RSb
C:\Users\jo\AppData\Local\Temp\cc8AA3HA.s:3819   .rodata.aes_test_ecb_enc:00000000 $d
C:\Users\jo\AppData\Local\Temp\cc8AA3HA.s:3823   .rodata.aes_test_ecb_enc:00000000 aes_test_ecb_enc
C:\Users\jo\AppData\Local\Temp\cc8AA3HA.s:3873   .rodata.aes_test_cfb128_pt:00000000 $d
C:\Users\jo\AppData\Local\Temp\cc8AA3HA.s:3877   .rodata.aes_test_cfb128_pt:00000000 aes_test_cfb128_pt
C:\Users\jo\AppData\Local\Temp\cc8AA3HA.s:3943   .rodata.aes_test_cfb128_key:00000000 $d
C:\Users\jo\AppData\Local\Temp\cc8AA3HA.s:3947   .rodata.aes_test_cfb128_key:00000000 aes_test_cfb128_key
C:\Users\jo\AppData\Local\Temp\cc8AA3HA.s:4023   .rodata.aes_test_ctr_ct:00000000 $d
C:\Users\jo\AppData\Local\Temp\cc8AA3HA.s:4027   .rodata.aes_test_ctr_ct:00000000 aes_test_ctr_ct
C:\Users\jo\AppData\Local\Temp\cc8AA3HA.s:4116   .rodata.aes_test_ctr_nonce_counter:00000000 $d
C:\Users\jo\AppData\Local\Temp\cc8AA3HA.s:4120   .rodata.aes_test_ctr_nonce_counter:00000000 aes_test_ctr_nonce_counter
C:\Users\jo\AppData\Local\Temp\cc8AA3HA.s:4170   .bss.FSb:00000000 $d
C:\Users\jo\AppData\Local\Temp\cc8AA3HA.s:4174   .bss.FSb:00000000 FSb
C:\Users\jo\AppData\Local\Temp\cc8AA3HA.s:4177   .rodata.aes_test_ctr_len:00000000 $d
C:\Users\jo\AppData\Local\Temp\cc8AA3HA.s:4181   .rodata.aes_test_ctr_len:00000000 aes_test_ctr_len
C:\Users\jo\AppData\Local\Temp\cc8AA3HA.s:4186   .bss.RT2:00000000 $d
C:\Users\jo\AppData\Local\Temp\cc8AA3HA.s:4190   .bss.RT2:00000000 RT2
C:\Users\jo\AppData\Local\Temp\cc8AA3HA.s:4193   .rodata.aes_test_cbc_enc:00000000 $d
C:\Users\jo\AppData\Local\Temp\cc8AA3HA.s:4197   .rodata.aes_test_cbc_enc:00000000 aes_test_cbc_enc
C:\Users\jo\AppData\Local\Temp\cc8AA3HA.s:4247   .rodata.aes_test_ctr_pt:00000000 $d
C:\Users\jo\AppData\Local\Temp\cc8AA3HA.s:4251   .rodata.aes_test_ctr_pt:00000000 aes_test_ctr_pt
C:\Users\jo\AppData\Local\Temp\cc8AA3HA.s:4340   .rodata.aes_test_cfb128_iv:00000000 $d
C:\Users\jo\AppData\Local\Temp\cc8AA3HA.s:4344   .rodata.aes_test_cfb128_iv:00000000 aes_test_cfb128_iv
                     .debug_frame:00000010 $d
C:\Users\jo\AppData\Local\Temp\cc8AA3HA.s:392    .text.aes_gen_tables:0000024c $t
C:\Users\jo\AppData\Local\Temp\cc8AA3HA.s:823    .text.aes_setkey_enc:0000021c $t
C:\Users\jo\AppData\Local\Temp\cc8AA3HA.s:1051   .text.aes_setkey_dec:00000124 $t
C:\Users\jo\AppData\Local\Temp\cc8AA3HA.s:2091   .text.aes_crypt_ecb:000008a8 $t
C:\Users\jo\AppData\Local\Temp\cc8AA3HA.s:3366   .text.aes_self_test:00000478 $t

UNDEFINED SYMBOLS
memset
printf
memcmp
memcpy
puts
putchar
