ARM GAS  C:\Users\jo\AppData\Local\Temp\cc7IXmgX.s 			page 1


   1              		.syntax unified
   2              		.cpu cortex-m4
   3              		.fpu softvfp
   4              		.eabi_attribute 20, 1
   5              		.eabi_attribute 21, 1
   6              		.eabi_attribute 23, 3
   7              		.eabi_attribute 24, 1
   8              		.eabi_attribute 25, 1
   9              		.eabi_attribute 26, 1
  10              		.eabi_attribute 30, 2
  11              		.eabi_attribute 34, 1
  12              		.eabi_attribute 18, 4
  13              		.thumb
  14              		.file	"api_lib.c"
  15              		.text
  16              	.Ltext0:
  17              		.cfi_sections	.debug_frame
  18              		.section	.text.chprintf.constprop.2,"ax",%progbits
  19              		.align	2
  20              		.p2align 4,,15
  21              		.thumb
  22              		.thumb_func
  23              		.type	chprintf.constprop.2, %function
  24              	chprintf.constprop.2:
  25              	.LFB280:
  26              		.file 1 "../../../os/hal/lib/streams/chprintf.h"
  27              		.loc 1 69 0
  28              		.cfi_startproc
  29              		@ args = 4, pretend = 12, frame = 8
  30              		@ frame_needed = 0, uses_anonymous_args = 1
  31              	.LVL0:
  32 0000 0EB4     		push	{r1, r2, r3}
  33              		.cfi_def_cfa_offset 12
  34              		.cfi_offset 1, -12
  35              		.cfi_offset 2, -8
  36              		.cfi_offset 3, -4
  37 0002 00B5     		push	{lr}
  38              		.cfi_def_cfa_offset 16
  39              		.cfi_offset 14, -16
  40 0004 82B0     		sub	sp, sp, #8
  41              		.cfi_def_cfa_offset 24
  42              		.loc 1 73 0
  43 0006 04AB     		add	r3, sp, #16
  44              		.loc 1 74 0
  45 0008 1A46     		mov	r2, r3
  46 000a 0549     		ldr	r1, .L3
  47 000c 0548     		ldr	r0, .L3+4
  48              	.LVL1:
  49              		.loc 1 73 0
  50 000e 0193     		str	r3, [sp, #4]
  51              		.loc 1 74 0
  52 0010 FFF7FEFF 		bl	chvprintf
  53              	.LVL2:
  54              		.loc 1 78 0
  55 0014 02B0     		add	sp, sp, #8
  56              		.cfi_def_cfa_offset 16
  57              		@ sp needed
ARM GAS  C:\Users\jo\AppData\Local\Temp\cc7IXmgX.s 			page 2


  58 0016 5DF804EB 		ldr	lr, [sp], #4
  59              		.cfi_restore 14
  60              		.cfi_def_cfa_offset 12
  61 001a 03B0     		add	sp, sp, #12
  62              		.cfi_restore 3
  63              		.cfi_restore 2
  64              		.cfi_restore 1
  65              		.cfi_def_cfa_offset 0
  66 001c 7047     		bx	lr
  67              	.L4:
  68 001e 00BF     		.align	2
  69              	.L3:
  70 0020 00000000 		.word	.LC0
  71 0024 00000000 		.word	itm_port
  72              		.cfi_endproc
  73              	.LFE280:
  74              		.size	chprintf.constprop.2, .-chprintf.constprop.2
  75 0028 AFF30080 		.section	.text.netconn_recv_data,"ax",%progbits
  75      AFF30080 
  76              		.align	2
  77              		.p2align 4,,15
  78              		.thumb
  79              		.thumb_func
  80              		.type	netconn_recv_data, %function
  81              	netconn_recv_data:
  82              	.LFB268:
  83              		.file 2 "../../../ext/lwip/src/api/api_lib.c"
  84              		.loc 2 343 0
  85              		.cfi_startproc
  86              		@ args = 0, pretend = 0, frame = 32
  87              		@ frame_needed = 0, uses_anonymous_args = 0
  88              	.LVL3:
  89 0000 F0B5     		push	{r4, r5, r6, r7, lr}
  90              		.cfi_def_cfa_offset 20
  91              		.cfi_offset 4, -20
  92              		.cfi_offset 5, -16
  93              		.cfi_offset 6, -12
  94              		.cfi_offset 7, -8
  95              		.cfi_offset 14, -4
  96 0002 8BB0     		sub	sp, sp, #44
  97              		.cfi_def_cfa_offset 64
  98              		.loc 2 344 0
  99 0004 0025     		movs	r5, #0
 100 0006 0395     		str	r5, [sp, #12]
 101              		.loc 2 351 0
 102 0008 0E46     		mov	r6, r1
 103 000a 0029     		cmp	r1, #0
 104 000c 7BD0     		beq	.L33
 105 000e 0446     		mov	r4, r0
 106              		.loc 2 352 0
 107 0010 0D60     		str	r5, [r1]
 108              		.loc 2 353 0
 109 0012 0028     		cmp	r0, #0
 110 0014 69D0     		beq	.L34
 111              		.loc 2 354 0
 112 0016 00F11007 		add	r7, r0, #16
 113 001a 3846     		mov	r0, r7
ARM GAS  C:\Users\jo\AppData\Local\Temp\cc7IXmgX.s 			page 3


 114              	.LVL4:
 115 001c FFF7FEFF 		bl	sys_mbox_valid
 116              	.LVL5:
 117 0020 0028     		cmp	r0, #0
 118 0022 54D0     		beq	.L35
 119              		.loc 2 356 0
 120 0024 207A     		ldrb	r0, [r4, #8]	@ zero_extendqisi2
 121              	.LVL6:
 122              		.loc 2 357 0
 123 0026 43B2     		sxtb	r3, r0
 124 0028 0933     		adds	r3, r3, #9
 125 002a 02DA     		bge	.L36
 126              	.LVL7:
 127              	.L7:
 128 002c 40B2     		sxtb	r0, r0
 129              		.loc 2 425 0
 130 002e 0BB0     		add	sp, sp, #44
 131              		.cfi_remember_state
 132              		.cfi_def_cfa_offset 20
 133              		@ sp needed
 134 0030 F0BD     		pop	{r4, r5, r6, r7, pc}
 135              	.LVL8:
 136              	.L36:
 137              		.cfi_restore_state
 138              		.loc 2 371 0
 139 0032 3846     		mov	r0, r7
 140              	.LVL9:
 141 0034 2A46     		mov	r2, r5
 142 0036 03A9     		add	r1, sp, #12
 143 0038 FFF7FEFF 		bl	sys_arch_mbox_fetch
 144              	.LVL10:
 145              		.loc 2 376 0
 146 003c 2378     		ldrb	r3, [r4]	@ zero_extendqisi2
 147 003e 102B     		cmp	r3, #16
 148 0040 0FD0     		beq	.L37
 149              		.loc 2 409 0
 150 0042 039B     		ldr	r3, [sp, #12]
 151 0044 002B     		cmp	r3, #0
 152 0046 34D0     		beq	.L38
 153              	.L19:
 154              		.loc 2 410 0
 155 0048 1A68     		ldr	r2, [r3]
 156 004a 1289     		ldrh	r2, [r2, #8]
 157              	.LVL11:
 158              	.L18:
 159              		.loc 2 418 0
 160 004c A56A     		ldr	r5, [r4, #40]
 161 004e 1DB1     		cbz	r5, .L20
 162              		.loc 2 418 0 is_stmt 0 discriminator 1
 163 0050 2046     		mov	r0, r4
 164 0052 0121     		movs	r1, #1
 165 0054 A847     		blx	r5
 166              	.LVL12:
 167 0056 039B     		ldr	r3, [sp, #12]
 168              	.L20:
 169              		.loc 2 422 0 is_stmt 1
 170 0058 3360     		str	r3, [r6]
ARM GAS  C:\Users\jo\AppData\Local\Temp\cc7IXmgX.s 			page 4


 171              		.loc 2 424 0
 172 005a 0020     		movs	r0, #0
 173 005c 40B2     		sxtb	r0, r0
 174              		.loc 2 425 0
 175 005e 0BB0     		add	sp, sp, #44
 176              		.cfi_remember_state
 177              		.cfi_def_cfa_offset 20
 178              		@ sp needed
 179 0060 F0BD     		pop	{r4, r5, r6, r7, pc}
 180              	.LVL13:
 181              	.L37:
 182              		.cfi_restore_state
 183              		.loc 2 379 0
 184 0062 237F     		ldrb	r3, [r4, #28]	@ zero_extendqisi2
 185 0064 13F0080F 		tst	r3, #8
 186 0068 039B     		ldr	r3, [sp, #12]
 187 006a 0CD1     		bne	.L11
 188              		.loc 2 383 0
 189 006c 2D4A     		ldr	r2, .L40
 190              		.loc 2 384 0
 191 006e 0594     		str	r4, [sp, #20]
 192              		.loc 2 383 0
 193 0070 0492     		str	r2, [sp, #16]
 194              		.loc 2 385 0
 195 0072 6BB1     		cbz	r3, .L13
 196              		.loc 2 386 0
 197 0074 1B89     		ldrh	r3, [r3, #8]
 198 0076 0793     		str	r3, [sp, #28]
 199              	.L16:
 200              		.loc 2 391 0
 201 0078 04A8     		add	r0, sp, #16
 202 007a FFF7FEFF 		bl	tcpip_apimsg
 203              	.LVL14:
 204              		.loc 2 395 0
 205 007e 039B     		ldr	r3, [sp, #12]
 206 0080 4BB1     		cbz	r3, .L39
 207              	.L15:
 208              		.loc 2 401 0
 209 0082 1A89     		ldrh	r2, [r3, #8]
 210              	.LVL15:
 211 0084 E2E7     		b	.L18
 212              	.LVL16:
 213              	.L11:
 214              		.loc 2 379 0 discriminator 1
 215 0086 002B     		cmp	r3, #0
 216 0088 FBD1     		bne	.L15
 217              		.loc 2 383 0
 218 008a 264B     		ldr	r3, .L40
 219              		.loc 2 384 0
 220 008c 0594     		str	r4, [sp, #20]
 221              		.loc 2 383 0
 222 008e 0493     		str	r3, [sp, #16]
 223              	.L13:
 224              		.loc 2 388 0
 225 0090 0123     		movs	r3, #1
 226 0092 0793     		str	r3, [sp, #28]
 227 0094 F0E7     		b	.L16
ARM GAS  C:\Users\jo\AppData\Local\Temp\cc7IXmgX.s 			page 5


 228              	.L39:
 229              		.loc 2 396 0
 230 0096 A56A     		ldr	r5, [r4, #40]
 231 0098 1DB1     		cbz	r5, .L17
 232              		.loc 2 396 0 is_stmt 0 discriminator 1
 233 009a 1A46     		mov	r2, r3
 234 009c 2046     		mov	r0, r4
 235 009e 0121     		movs	r1, #1
 236 00a0 A847     		blx	r5
 237              	.LVL17:
 238              	.L17:
 239              		.loc 2 398 0 is_stmt 1
 240 00a2 94F90830 		ldrsb	r3, [r4, #8]
 241 00a6 0933     		adds	r3, r3, #9
 242 00a8 4FF0F400 		mov	r0, #244
 243 00ac BEDB     		blt	.L7
 244              		.loc 2 398 0 is_stmt 0 discriminator 1
 245 00ae 2072     		strb	r0, [r4, #8]
 246 00b0 BCE7     		b	.L7
 247              	.L38:
 248              		.loc 2 409 0 is_stmt 1 discriminator 1
 249 00b2 1D4B     		ldr	r3, .L40+4
 250 00b4 0093     		str	r3, [sp]
 251 00b6 1D49     		ldr	r1, .L40+8
 252 00b8 1D4A     		ldr	r2, .L40+12
 253 00ba 1E48     		ldr	r0, .L40+16
 254 00bc 40F29913 		movw	r3, #409
 255 00c0 FFF7FEFF 		bl	chprintf.constprop.2
 256              	.LVL18:
 257              	.LBB61:
 258              	.LBB62:
 259              		.file 3 "../../../os/hal/osal/rt/osal.h"
 260              		.loc 3 416 0 discriminator 1
 261 00c4 1A48     		ldr	r0, .L40+12
 262 00c6 FFF7FEFF 		bl	chSysHalt
 263              	.LVL19:
 264 00ca 039B     		ldr	r3, [sp, #12]
 265 00cc BCE7     		b	.L19
 266              	.LVL20:
 267              	.L35:
 268              	.LBE62:
 269              	.LBE61:
 270              		.loc 2 354 0 discriminator 1
 271 00ce 164B     		ldr	r3, .L40+4
 272 00d0 0093     		str	r3, [sp]
 273 00d2 1649     		ldr	r1, .L40+8
 274 00d4 184A     		ldr	r2, .L40+20
 275 00d6 1748     		ldr	r0, .L40+16
 276 00d8 4FF4B173 		mov	r3, #354
 277 00dc FFF7FEFF 		bl	chprintf.constprop.2
 278              	.LVL21:
 279              	.LBB63:
 280              	.LBB64:
 281              		.loc 3 416 0 discriminator 1
 282 00e0 1548     		ldr	r0, .L40+20
 283 00e2 FFF7FEFF 		bl	chSysHalt
 284              	.LVL22:
ARM GAS  C:\Users\jo\AppData\Local\Temp\cc7IXmgX.s 			page 6


 285              	.LBE64:
 286              	.LBE63:
 287              		.loc 2 354 0 discriminator 1
 288 00e6 F320     		movs	r0, #243
 289 00e8 A0E7     		b	.L7
 290              	.LVL23:
 291              	.L34:
 292              		.loc 2 353 0 discriminator 1
 293 00ea 0F4B     		ldr	r3, .L40+4
 294 00ec 0093     		str	r3, [sp]
 295 00ee 0F49     		ldr	r1, .L40+8
 296              	.LVL24:
 297 00f0 124A     		ldr	r2, .L40+24
 298 00f2 1048     		ldr	r0, .L40+16
 299              	.LVL25:
 300 00f4 40F26113 		movw	r3, #353
 301 00f8 FFF7FEFF 		bl	chprintf.constprop.2
 302              	.LVL26:
 303              	.LBB65:
 304              	.LBB66:
 305              		.loc 3 416 0 discriminator 1
 306 00fc 0F48     		ldr	r0, .L40+24
 307 00fe FFF7FEFF 		bl	chSysHalt
 308              	.LVL27:
 309              	.LBE66:
 310              	.LBE65:
 311              		.loc 2 353 0 discriminator 1
 312 0102 F220     		movs	r0, #242
 313 0104 92E7     		b	.L7
 314              	.LVL28:
 315              	.L33:
 316              		.loc 2 351 0 discriminator 1
 317 0106 084B     		ldr	r3, .L40+4
 318 0108 0093     		str	r3, [sp]
 319 010a 0849     		ldr	r1, .L40+8
 320              	.LVL29:
 321 010c 0C4A     		ldr	r2, .L40+28
 322 010e 0948     		ldr	r0, .L40+16
 323              	.LVL30:
 324 0110 40F25F13 		movw	r3, #351
 325 0114 FFF7FEFF 		bl	chprintf.constprop.2
 326              	.LVL31:
 327              	.LBB67:
 328              	.LBB68:
 329              		.loc 3 416 0 discriminator 1
 330 0118 0948     		ldr	r0, .L40+28
 331 011a FFF7FEFF 		bl	chSysHalt
 332              	.LVL32:
 333              	.LBE68:
 334              	.LBE67:
 335              		.loc 2 351 0 discriminator 1
 336 011e F220     		movs	r0, #242
 337 0120 84E7     		b	.L7
 338              	.L41:
 339 0122 00BF     		.align	2
 340              	.L40:
 341 0124 00000000 		.word	do_recv
ARM GAS  C:\Users\jo\AppData\Local\Temp\cc7IXmgX.s 			page 7


 342 0128 48000000 		.word	.LC2
 343 012c 00000000 		.word	.LC0
 344 0130 AC000000 		.word	.LC5
 345 0134 00000000 		.word	itm_port
 346 0138 88000000 		.word	.LC4
 347 013c 6C000000 		.word	.LC3
 348 0140 28000000 		.word	.LC1
 349              		.cfi_endproc
 350              	.LFE268:
 351              		.size	netconn_recv_data, .-netconn_recv_data
 352 0144 AFF30080 		.section	.text.netconn_close_shutdown,"ax",%progbits
 352      AFF30080 
 352      AFF30080 
 353              		.align	2
 354              		.p2align 4,,15
 355              		.thumb
 356              		.thumb_func
 357              		.type	netconn_close_shutdown, %function
 358              	netconn_close_shutdown:
 359              	.LFB275:
 360              		.loc 2 664 0
 361              		.cfi_startproc
 362              		@ args = 0, pretend = 0, frame = 24
 363              		@ frame_needed = 0, uses_anonymous_args = 0
 364              	.LVL33:
 365 0000 10B5     		push	{r4, lr}
 366              		.cfi_def_cfa_offset 8
 367              		.cfi_offset 4, -8
 368              		.cfi_offset 14, -4
 369              		.loc 2 668 0
 370 0002 0446     		mov	r4, r0
 371              		.loc 2 664 0
 372 0004 88B0     		sub	sp, sp, #32
 373              		.cfi_def_cfa_offset 40
 374              		.loc 2 668 0
 375 0006 78B1     		cbz	r0, .L47
 376              		.loc 2 670 0
 377 0008 0E4B     		ldr	r3, .L48
 378              		.loc 2 671 0
 379 000a 0390     		str	r0, [sp, #12]
 380              		.loc 2 676 0
 381 000c 02A8     		add	r0, sp, #8
 382              	.LVL34:
 383              		.loc 2 670 0
 384 000e 0293     		str	r3, [sp, #8]
 385              		.loc 2 673 0
 386 0010 8DF81410 		strb	r1, [sp, #20]
 387              		.loc 2 676 0
 388 0014 FFF7FEFF 		bl	tcpip_apimsg
 389              	.LVL35:
 390              		.loc 2 678 0
 391 0018 94F90830 		ldrsb	r3, [r4, #8]
 392 001c 0933     		adds	r3, r3, #9
 393 001e A8BF     		it	ge
 394 0020 2072     		strbge	r0, [r4, #8]
 395              	.LVL36:
 396              	.L44:
ARM GAS  C:\Users\jo\AppData\Local\Temp\cc7IXmgX.s 			page 8


 397              		.loc 2 680 0
 398 0022 40B2     		sxtb	r0, r0
 399 0024 08B0     		add	sp, sp, #32
 400              		.cfi_remember_state
 401              		.cfi_def_cfa_offset 8
 402              		@ sp needed
 403 0026 10BD     		pop	{r4, pc}
 404              	.LVL37:
 405              	.L47:
 406              		.cfi_restore_state
 407              	.LBB73:
 408              	.LBB74:
 409              		.loc 2 668 0
 410 0028 074B     		ldr	r3, .L48+4
 411 002a 0093     		str	r3, [sp]
 412 002c 0749     		ldr	r1, .L48+8
 413              	.LVL38:
 414 002e 084A     		ldr	r2, .L48+12
 415 0030 0848     		ldr	r0, .L48+16
 416              	.LVL39:
 417 0032 4FF42773 		mov	r3, #668
 418 0036 FFF7FEFF 		bl	chprintf.constprop.2
 419              	.LVL40:
 420              	.LBB75:
 421              	.LBB76:
 422              		.loc 3 416 0
 423 003a 0548     		ldr	r0, .L48+12
 424 003c FFF7FEFF 		bl	chSysHalt
 425              	.LVL41:
 426 0040 F220     		movs	r0, #242
 427 0042 EEE7     		b	.L44
 428              	.L49:
 429              		.align	2
 430              	.L48:
 431 0044 00000000 		.word	do_close
 432 0048 48000000 		.word	.LC2
 433 004c 00000000 		.word	.LC0
 434 0050 B8000000 		.word	.LC6
 435 0054 00000000 		.word	itm_port
 436              	.LBE76:
 437              	.LBE75:
 438              	.LBE74:
 439              	.LBE73:
 440              		.cfi_endproc
 441              	.LFE275:
 442              		.size	netconn_close_shutdown, .-netconn_close_shutdown
 443 0058 AFF30080 		.section	.text.netconn_new_with_proto_and_callback,"ax",%progbits
 443      AFF30080 
 444              		.align	2
 445              		.p2align 4,,15
 446              		.global	netconn_new_with_proto_and_callback
 447              		.thumb
 448              		.thumb_func
 449              		.type	netconn_new_with_proto_and_callback, %function
 450              	netconn_new_with_proto_and_callback:
 451              	.LFB260:
 452              		.loc 2 69 0
ARM GAS  C:\Users\jo\AppData\Local\Temp\cc7IXmgX.s 			page 9


 453              		.cfi_startproc
 454              		@ args = 0, pretend = 0, frame = 24
 455              		@ frame_needed = 0, uses_anonymous_args = 0
 456              	.LVL42:
 457 0000 70B5     		push	{r4, r5, r6, lr}
 458              		.cfi_def_cfa_offset 16
 459              		.cfi_offset 4, -16
 460              		.cfi_offset 5, -12
 461              		.cfi_offset 6, -8
 462              		.cfi_offset 14, -4
 463 0002 0D46     		mov	r5, r1
 464 0004 88B0     		sub	sp, sp, #32
 465              		.cfi_def_cfa_offset 48
 466              		.loc 2 73 0
 467 0006 1146     		mov	r1, r2
 468              	.LVL43:
 469 0008 FFF7FEFF 		bl	netconn_alloc
 470              	.LVL44:
 471              		.loc 2 74 0
 472 000c 0446     		mov	r4, r0
 473 000e 0028     		cmp	r0, #0
 474 0010 53D0     		beq	.L65
 475              		.loc 2 75 0
 476 0012 2B4B     		ldr	r3, .L67
 477              		.loc 2 76 0
 478 0014 8DF81450 		strb	r5, [sp, #20]
 479              		.loc 2 78 0
 480 0018 02A8     		add	r0, sp, #8
 481              	.LVL45:
 482              		.loc 2 77 0
 483 001a 0394     		str	r4, [sp, #12]
 484              		.loc 2 75 0
 485 001c 0293     		str	r3, [sp, #8]
 486              		.loc 2 78 0
 487 001e FFF7FEFF 		bl	tcpip_apimsg
 488              	.LVL46:
 489 0022 10B9     		cbnz	r0, .L66
 490 0024 2046     		mov	r0, r4
 491              		.loc 2 92 0
 492 0026 08B0     		add	sp, sp, #32
 493              		.cfi_remember_state
 494              		.cfi_def_cfa_offset 16
 495              		@ sp needed
 496 0028 70BD     		pop	{r4, r5, r6, pc}
 497              	.LVL47:
 498              	.L66:
 499              		.cfi_restore_state
 500              		.loc 2 79 0
 501 002a 6368     		ldr	r3, [r4, #4]
 502 002c 53B1     		cbz	r3, .L52
 503              		.loc 2 79 0 is_stmt 0 discriminator 1
 504 002e 254B     		ldr	r3, .L67+4
 505 0030 0093     		str	r3, [sp]
 506 0032 2548     		ldr	r0, .L67+8
 507 0034 2549     		ldr	r1, .L67+12
 508 0036 264A     		ldr	r2, .L67+16
 509 0038 4F23     		movs	r3, #79
ARM GAS  C:\Users\jo\AppData\Local\Temp\cc7IXmgX.s 			page 10


 510 003a FFF7FEFF 		bl	chprintf.constprop.2
 511              	.LVL48:
 512              	.LBB77:
 513              	.LBB78:
 514              		.loc 3 416 0 is_stmt 1 discriminator 1
 515 003e 2448     		ldr	r0, .L67+16
 516 0040 FFF7FEFF 		bl	chSysHalt
 517              	.LVL49:
 518              	.L52:
 519              	.LBE78:
 520              	.LBE77:
 521              		.loc 2 80 0
 522 0044 04F10C06 		add	r6, r4, #12
 523 0048 3046     		mov	r0, r6
 524 004a FFF7FEFF 		bl	sys_sem_valid
 525              	.LVL50:
 526 004e 50B9     		cbnz	r0, .L53
 527              		.loc 2 80 0 is_stmt 0 discriminator 1
 528 0050 1C4B     		ldr	r3, .L67+4
 529 0052 0093     		str	r3, [sp]
 530 0054 1C48     		ldr	r0, .L67+8
 531 0056 1D49     		ldr	r1, .L67+12
 532 0058 1E4A     		ldr	r2, .L67+20
 533 005a 5023     		movs	r3, #80
 534 005c FFF7FEFF 		bl	chprintf.constprop.2
 535              	.LVL51:
 536              	.LBB79:
 537              	.LBB80:
 538              		.loc 3 416 0 is_stmt 1 discriminator 1
 539 0060 1C48     		ldr	r0, .L67+20
 540 0062 FFF7FEFF 		bl	chSysHalt
 541              	.LVL52:
 542              	.L53:
 543              	.LBE80:
 544              	.LBE79:
 545              		.loc 2 81 0
 546 0066 04F11005 		add	r5, r4, #16
 547 006a 2846     		mov	r0, r5
 548 006c FFF7FEFF 		bl	sys_mbox_valid
 549              	.LVL53:
 550 0070 50B9     		cbnz	r0, .L54
 551              		.loc 2 81 0 is_stmt 0 discriminator 1
 552 0072 144B     		ldr	r3, .L67+4
 553 0074 0093     		str	r3, [sp]
 554 0076 1448     		ldr	r0, .L67+8
 555 0078 1449     		ldr	r1, .L67+12
 556 007a 174A     		ldr	r2, .L67+24
 557 007c 5123     		movs	r3, #81
 558 007e FFF7FEFF 		bl	chprintf.constprop.2
 559              	.LVL54:
 560              	.LBB81:
 561              	.LBB82:
 562              		.loc 3 416 0 is_stmt 1 discriminator 1
 563 0082 1548     		ldr	r0, .L67+24
 564 0084 FFF7FEFF 		bl	chSysHalt
 565              	.LVL55:
 566              	.L54:
ARM GAS  C:\Users\jo\AppData\Local\Temp\cc7IXmgX.s 			page 11


 567              	.LBE82:
 568              	.LBE81:
 569              		.loc 2 83 0
 570 0088 04F11400 		add	r0, r4, #20
 571 008c FFF7FEFF 		bl	sys_mbox_valid
 572              	.LVL56:
 573 0090 50B1     		cbz	r0, .L55
 574              		.loc 2 83 0 is_stmt 0 discriminator 1
 575 0092 0C4B     		ldr	r3, .L67+4
 576 0094 0093     		str	r3, [sp]
 577 0096 0C48     		ldr	r0, .L67+8
 578 0098 0C49     		ldr	r1, .L67+12
 579 009a 104A     		ldr	r2, .L67+28
 580 009c 5323     		movs	r3, #83
 581 009e FFF7FEFF 		bl	chprintf.constprop.2
 582              	.LVL57:
 583              	.LBB83:
 584              	.LBB84:
 585              		.loc 3 416 0 is_stmt 1 discriminator 1
 586 00a2 0E48     		ldr	r0, .L67+28
 587 00a4 FFF7FEFF 		bl	chSysHalt
 588              	.LVL58:
 589              	.L55:
 590              	.LBE84:
 591              	.LBE83:
 592              		.loc 2 85 0
 593 00a8 3046     		mov	r0, r6
 594 00aa FFF7FEFF 		bl	sys_sem_free
 595              	.LVL59:
 596              		.loc 2 86 0
 597 00ae 2846     		mov	r0, r5
 598 00b0 FFF7FEFF 		bl	sys_mbox_free
 599              	.LVL60:
 600              		.loc 2 87 0
 601 00b4 2046     		mov	r0, r4
 602 00b6 FFF7FEFF 		bl	free
 603              	.LVL61:
 604              	.L65:
 605              		.loc 2 88 0
 606 00ba 0020     		movs	r0, #0
 607              		.loc 2 92 0
 608 00bc 08B0     		add	sp, sp, #32
 609              		.cfi_def_cfa_offset 16
 610              		@ sp needed
 611 00be 70BD     		pop	{r4, r5, r6, pc}
 612              	.LVL62:
 613              	.L68:
 614              		.align	2
 615              	.L67:
 616 00c0 00000000 		.word	do_newconn
 617 00c4 48000000 		.word	.LC2
 618 00c8 00000000 		.word	itm_port
 619 00cc 00000000 		.word	.LC0
 620 00d0 D4000000 		.word	.LC7
 621 00d4 F8000000 		.word	.LC8
 622 00d8 14010000 		.word	.LC9
 623 00dc 2C010000 		.word	.LC10
ARM GAS  C:\Users\jo\AppData\Local\Temp\cc7IXmgX.s 			page 12


 624              		.cfi_endproc
 625              	.LFE260:
 626              		.size	netconn_new_with_proto_and_callback, .-netconn_new_with_proto_and_callback
 627              		.section	.text.netconn_delete,"ax",%progbits
 628              		.align	2
 629              		.p2align 4,,15
 630              		.global	netconn_delete
 631              		.thumb
 632              		.thumb_func
 633              		.type	netconn_delete, %function
 634              	netconn_delete:
 635              	.LFB261:
 636              		.loc 2 104 0
 637              		.cfi_startproc
 638              		@ args = 0, pretend = 0, frame = 24
 639              		@ frame_needed = 0, uses_anonymous_args = 0
 640              	.LVL63:
 641              		.loc 2 108 0
 642 0000 70B1     		cbz	r0, .L75
 643              		.loc 2 104 0
 644 0002 10B5     		push	{r4, lr}
 645              		.cfi_def_cfa_offset 8
 646              		.cfi_offset 4, -8
 647              		.cfi_offset 14, -4
 648 0004 86B0     		sub	sp, sp, #24
 649              		.cfi_def_cfa_offset 32
 650              		.loc 2 112 0
 651 0006 074B     		ldr	r3, .L76
 652              		.loc 2 113 0
 653 0008 0190     		str	r0, [sp, #4]
 654 000a 0446     		mov	r4, r0
 655              		.loc 2 114 0
 656 000c 6846     		mov	r0, sp
 657              	.LVL64:
 658              		.loc 2 112 0
 659 000e 0093     		str	r3, [sp]
 660              		.loc 2 114 0
 661 0010 FFF7FEFF 		bl	tcpip_apimsg
 662              	.LVL65:
 663              		.loc 2 116 0
 664 0014 2046     		mov	r0, r4
 665 0016 FFF7FEFF 		bl	netconn_free
 666              	.LVL66:
 667              		.loc 2 121 0
 668 001a 0020     		movs	r0, #0
 669 001c 06B0     		add	sp, sp, #24
 670              		.cfi_def_cfa_offset 8
 671              		@ sp needed
 672 001e 10BD     		pop	{r4, pc}
 673              	.LVL67:
 674              	.L75:
 675              		.cfi_def_cfa_offset 0
 676              		.cfi_restore 4
 677              		.cfi_restore 14
 678 0020 0020     		movs	r0, #0
 679              	.LVL68:
 680 0022 7047     		bx	lr
ARM GAS  C:\Users\jo\AppData\Local\Temp\cc7IXmgX.s 			page 13


 681              	.L77:
 682              		.align	2
 683              	.L76:
 684 0024 00000000 		.word	do_delconn
 685              		.cfi_endproc
 686              	.LFE261:
 687              		.size	netconn_delete, .-netconn_delete
 688 0028 AFF30080 		.section	.text.netconn_getaddr,"ax",%progbits
 688      AFF30080 
 689              		.align	2
 690              		.p2align 4,,15
 691              		.global	netconn_getaddr
 692              		.thumb
 693              		.thumb_func
 694              		.type	netconn_getaddr, %function
 695              	netconn_getaddr:
 696              	.LFB262:
 697              		.loc 2 136 0
 698              		.cfi_startproc
 699              		@ args = 0, pretend = 0, frame = 24
 700              		@ frame_needed = 0, uses_anonymous_args = 0
 701              	.LVL69:
 702 0000 30B5     		push	{r4, r5, lr}
 703              		.cfi_def_cfa_offset 12
 704              		.cfi_offset 4, -12
 705              		.cfi_offset 5, -8
 706              		.cfi_offset 14, -4
 707              		.loc 2 140 0
 708 0002 0446     		mov	r4, r0
 709              		.loc 2 136 0
 710 0004 89B0     		sub	sp, sp, #36
 711              		.cfi_def_cfa_offset 48
 712              		.loc 2 140 0
 713 0006 0028     		cmp	r0, #0
 714 0008 2DD0     		beq	.L85
 715              		.loc 2 141 0
 716 000a F9B1     		cbz	r1, .L86
 717              		.loc 2 142 0
 718 000c 8AB1     		cbz	r2, .L87
 719              		.loc 2 145 0
 720 000e 0390     		str	r0, [sp, #12]
 721              		.loc 2 144 0
 722 0010 1B4D     		ldr	r5, .L88
 723              		.loc 2 148 0
 724 0012 8DF81C30 		strb	r3, [sp, #28]
 725              		.loc 2 149 0
 726 0016 02A8     		add	r0, sp, #8
 727              	.LVL70:
 728              		.loc 2 146 0
 729 0018 0591     		str	r1, [sp, #20]
 730              		.loc 2 147 0
 731 001a 0692     		str	r2, [sp, #24]
 732              		.loc 2 144 0
 733 001c 0295     		str	r5, [sp, #8]
 734              		.loc 2 149 0
 735 001e FFF7FEFF 		bl	tcpip_apimsg
 736              	.LVL71:
ARM GAS  C:\Users\jo\AppData\Local\Temp\cc7IXmgX.s 			page 14


 737              		.loc 2 151 0
 738 0022 94F90830 		ldrsb	r3, [r4, #8]
 739 0026 0933     		adds	r3, r3, #9
 740 0028 A8BF     		it	ge
 741 002a 2072     		strbge	r0, [r4, #8]
 742              	.LVL72:
 743              	.L80:
 744              		.loc 2 153 0
 745 002c 40B2     		sxtb	r0, r0
 746 002e 09B0     		add	sp, sp, #36
 747              		.cfi_remember_state
 748              		.cfi_def_cfa_offset 12
 749              		@ sp needed
 750 0030 30BD     		pop	{r4, r5, pc}
 751              	.LVL73:
 752              	.L87:
 753              		.cfi_restore_state
 754              		.loc 2 142 0 discriminator 1
 755 0032 144B     		ldr	r3, .L88+4
 756              	.LVL74:
 757 0034 0093     		str	r3, [sp]
 758 0036 1449     		ldr	r1, .L88+8
 759              	.LVL75:
 760 0038 144A     		ldr	r2, .L88+12
 761              	.LVL76:
 762 003a 1548     		ldr	r0, .L88+16
 763              	.LVL77:
 764 003c 8E23     		movs	r3, #142
 765 003e FFF7FEFF 		bl	chprintf.constprop.2
 766              	.LVL78:
 767              	.LBB85:
 768              	.LBB86:
 769              		.loc 3 416 0 discriminator 1
 770 0042 1248     		ldr	r0, .L88+12
 771 0044 FFF7FEFF 		bl	chSysHalt
 772              	.LVL79:
 773              	.LBE86:
 774              	.LBE85:
 775              		.loc 2 142 0 discriminator 1
 776 0048 F220     		movs	r0, #242
 777 004a EFE7     		b	.L80
 778              	.LVL80:
 779              	.L86:
 780              		.loc 2 141 0 discriminator 1
 781 004c 0D4B     		ldr	r3, .L88+4
 782              	.LVL81:
 783 004e 0093     		str	r3, [sp]
 784 0050 0D49     		ldr	r1, .L88+8
 785              	.LVL82:
 786 0052 104A     		ldr	r2, .L88+20
 787              	.LVL83:
 788 0054 0E48     		ldr	r0, .L88+16
 789              	.LVL84:
 790 0056 8D23     		movs	r3, #141
 791 0058 FFF7FEFF 		bl	chprintf.constprop.2
 792              	.LVL85:
 793              	.LBB87:
ARM GAS  C:\Users\jo\AppData\Local\Temp\cc7IXmgX.s 			page 15


 794              	.LBB88:
 795              		.loc 3 416 0 discriminator 1
 796 005c 0D48     		ldr	r0, .L88+20
 797 005e FFF7FEFF 		bl	chSysHalt
 798              	.LVL86:
 799              	.LBE88:
 800              	.LBE87:
 801              		.loc 2 141 0 discriminator 1
 802 0062 F220     		movs	r0, #242
 803 0064 E2E7     		b	.L80
 804              	.LVL87:
 805              	.L85:
 806              		.loc 2 140 0 discriminator 1
 807 0066 074B     		ldr	r3, .L88+4
 808              	.LVL88:
 809 0068 0093     		str	r3, [sp]
 810 006a 0749     		ldr	r1, .L88+8
 811              	.LVL89:
 812 006c 0A4A     		ldr	r2, .L88+24
 813              	.LVL90:
 814 006e 0848     		ldr	r0, .L88+16
 815              	.LVL91:
 816 0070 8C23     		movs	r3, #140
 817 0072 FFF7FEFF 		bl	chprintf.constprop.2
 818              	.LVL92:
 819              	.LBB89:
 820              	.LBB90:
 821              		.loc 3 416 0 discriminator 1
 822 0076 0848     		ldr	r0, .L88+24
 823 0078 FFF7FEFF 		bl	chSysHalt
 824              	.LVL93:
 825              	.LBE90:
 826              	.LBE89:
 827              		.loc 2 140 0 discriminator 1
 828 007c F220     		movs	r0, #242
 829 007e D5E7     		b	.L80
 830              	.L89:
 831              		.align	2
 832              	.L88:
 833 0080 00000000 		.word	do_getaddr
 834 0084 48000000 		.word	.LC2
 835 0088 00000000 		.word	.LC0
 836 008c 90010000 		.word	.LC13
 837 0090 00000000 		.word	itm_port
 838 0094 70010000 		.word	.LC12
 839 0098 50010000 		.word	.LC11
 840              		.cfi_endproc
 841              	.LFE262:
 842              		.size	netconn_getaddr, .-netconn_getaddr
 843 009c AFF30080 		.section	.text.netconn_bind,"ax",%progbits
 844              		.align	2
 845              		.p2align 4,,15
 846              		.global	netconn_bind
 847              		.thumb
 848              		.thumb_func
 849              		.type	netconn_bind, %function
 850              	netconn_bind:
ARM GAS  C:\Users\jo\AppData\Local\Temp\cc7IXmgX.s 			page 16


 851              	.LFB263:
 852              		.loc 2 167 0
 853              		.cfi_startproc
 854              		@ args = 0, pretend = 0, frame = 24
 855              		@ frame_needed = 0, uses_anonymous_args = 0
 856              	.LVL94:
 857 0000 10B5     		push	{r4, lr}
 858              		.cfi_def_cfa_offset 8
 859              		.cfi_offset 4, -8
 860              		.cfi_offset 14, -4
 861              		.loc 2 171 0
 862 0002 0446     		mov	r4, r0
 863              		.loc 2 167 0
 864 0004 88B0     		sub	sp, sp, #32
 865              		.cfi_def_cfa_offset 40
 866              		.loc 2 171 0
 867 0006 80B1     		cbz	r0, .L95
 868              		.loc 2 173 0
 869 0008 0E4B     		ldr	r3, .L96
 870              		.loc 2 174 0
 871 000a 0390     		str	r0, [sp, #12]
 872              		.loc 2 177 0
 873 000c 02A8     		add	r0, sp, #8
 874              	.LVL95:
 875              		.loc 2 173 0
 876 000e 0293     		str	r3, [sp, #8]
 877              		.loc 2 175 0
 878 0010 0591     		str	r1, [sp, #20]
 879              		.loc 2 176 0
 880 0012 ADF81820 		strh	r2, [sp, #24]	@ movhi
 881              		.loc 2 177 0
 882 0016 FFF7FEFF 		bl	tcpip_apimsg
 883              	.LVL96:
 884              		.loc 2 179 0
 885 001a 94F90830 		ldrsb	r3, [r4, #8]
 886 001e 0933     		adds	r3, r3, #9
 887 0020 A8BF     		it	ge
 888 0022 2072     		strbge	r0, [r4, #8]
 889              	.LVL97:
 890              	.L92:
 891              		.loc 2 181 0
 892 0024 40B2     		sxtb	r0, r0
 893 0026 08B0     		add	sp, sp, #32
 894              		.cfi_remember_state
 895              		.cfi_def_cfa_offset 8
 896              		@ sp needed
 897 0028 10BD     		pop	{r4, pc}
 898              	.LVL98:
 899              	.L95:
 900              		.cfi_restore_state
 901              		.loc 2 171 0 discriminator 1
 902 002a 074B     		ldr	r3, .L96+4
 903 002c 0093     		str	r3, [sp]
 904 002e 0749     		ldr	r1, .L96+8
 905              	.LVL99:
 906 0030 074A     		ldr	r2, .L96+12
 907              	.LVL100:
ARM GAS  C:\Users\jo\AppData\Local\Temp\cc7IXmgX.s 			page 17


 908 0032 0848     		ldr	r0, .L96+16
 909              	.LVL101:
 910 0034 AB23     		movs	r3, #171
 911 0036 FFF7FEFF 		bl	chprintf.constprop.2
 912              	.LVL102:
 913              	.LBB91:
 914              	.LBB92:
 915              		.loc 3 416 0 discriminator 1
 916 003a 0548     		ldr	r0, .L96+12
 917 003c FFF7FEFF 		bl	chSysHalt
 918              	.LVL103:
 919              	.LBE92:
 920              	.LBE91:
 921              		.loc 2 171 0 discriminator 1
 922 0040 F220     		movs	r0, #242
 923 0042 EFE7     		b	.L92
 924              	.L97:
 925              		.align	2
 926              	.L96:
 927 0044 00000000 		.word	do_bind
 928 0048 48000000 		.word	.LC2
 929 004c 00000000 		.word	.LC0
 930 0050 B0010000 		.word	.LC14
 931 0054 00000000 		.word	itm_port
 932              		.cfi_endproc
 933              	.LFE263:
 934              		.size	netconn_bind, .-netconn_bind
 935 0058 AFF30080 		.section	.text.netconn_connect,"ax",%progbits
 935      AFF30080 
 936              		.align	2
 937              		.p2align 4,,15
 938              		.global	netconn_connect
 939              		.thumb
 940              		.thumb_func
 941              		.type	netconn_connect, %function
 942              	netconn_connect:
 943              	.LFB264:
 944              		.loc 2 193 0
 945              		.cfi_startproc
 946              		@ args = 0, pretend = 0, frame = 24
 947              		@ frame_needed = 0, uses_anonymous_args = 0
 948              	.LVL104:
 949 0000 10B5     		push	{r4, lr}
 950              		.cfi_def_cfa_offset 8
 951              		.cfi_offset 4, -8
 952              		.cfi_offset 14, -4
 953              		.loc 2 197 0
 954 0002 0446     		mov	r4, r0
 955              		.loc 2 193 0
 956 0004 88B0     		sub	sp, sp, #32
 957              		.cfi_def_cfa_offset 40
 958              		.loc 2 197 0
 959 0006 80B1     		cbz	r0, .L103
 960              		.loc 2 199 0
 961 0008 0E4B     		ldr	r3, .L104
 962              		.loc 2 200 0
 963 000a 0390     		str	r0, [sp, #12]
ARM GAS  C:\Users\jo\AppData\Local\Temp\cc7IXmgX.s 			page 18


 964              		.loc 2 204 0
 965 000c 02A8     		add	r0, sp, #8
 966              	.LVL105:
 967              		.loc 2 199 0
 968 000e 0293     		str	r3, [sp, #8]
 969              		.loc 2 201 0
 970 0010 0591     		str	r1, [sp, #20]
 971              		.loc 2 202 0
 972 0012 ADF81820 		strh	r2, [sp, #24]	@ movhi
 973              		.loc 2 204 0
 974 0016 FFF7FEFF 		bl	tcpip_apimsg
 975              	.LVL106:
 976              		.loc 2 206 0
 977 001a 94F90830 		ldrsb	r3, [r4, #8]
 978 001e 0933     		adds	r3, r3, #9
 979 0020 A8BF     		it	ge
 980 0022 2072     		strbge	r0, [r4, #8]
 981              	.LVL107:
 982              	.L100:
 983              		.loc 2 208 0
 984 0024 40B2     		sxtb	r0, r0
 985 0026 08B0     		add	sp, sp, #32
 986              		.cfi_remember_state
 987              		.cfi_def_cfa_offset 8
 988              		@ sp needed
 989 0028 10BD     		pop	{r4, pc}
 990              	.LVL108:
 991              	.L103:
 992              		.cfi_restore_state
 993              		.loc 2 197 0 discriminator 1
 994 002a 074B     		ldr	r3, .L104+4
 995 002c 0093     		str	r3, [sp]
 996 002e 0749     		ldr	r1, .L104+8
 997              	.LVL109:
 998 0030 074A     		ldr	r2, .L104+12
 999              	.LVL110:
 1000 0032 0848     		ldr	r0, .L104+16
 1001              	.LVL111:
 1002 0034 C523     		movs	r3, #197
 1003 0036 FFF7FEFF 		bl	chprintf.constprop.2
 1004              	.LVL112:
 1005              	.LBB93:
 1006              	.LBB94:
 1007              		.loc 3 416 0 discriminator 1
 1008 003a 0548     		ldr	r0, .L104+12
 1009 003c FFF7FEFF 		bl	chSysHalt
 1010              	.LVL113:
 1011              	.LBE94:
 1012              	.LBE93:
 1013              		.loc 2 197 0 discriminator 1
 1014 0040 F220     		movs	r0, #242
 1015 0042 EFE7     		b	.L100
 1016              	.L105:
 1017              		.align	2
 1018              	.L104:
 1019 0044 00000000 		.word	do_connect
 1020 0048 48000000 		.word	.LC2
ARM GAS  C:\Users\jo\AppData\Local\Temp\cc7IXmgX.s 			page 19


 1021 004c 00000000 		.word	.LC0
 1022 0050 CC010000 		.word	.LC15
 1023 0054 00000000 		.word	itm_port
 1024              		.cfi_endproc
 1025              	.LFE264:
 1026              		.size	netconn_connect, .-netconn_connect
 1027 0058 AFF30080 		.section	.text.netconn_disconnect,"ax",%progbits
 1027      AFF30080 
 1028              		.align	2
 1029              		.p2align 4,,15
 1030              		.global	netconn_disconnect
 1031              		.thumb
 1032              		.thumb_func
 1033              		.type	netconn_disconnect, %function
 1034              	netconn_disconnect:
 1035              	.LFB265:
 1036              		.loc 2 218 0
 1037              		.cfi_startproc
 1038              		@ args = 0, pretend = 0, frame = 24
 1039              		@ frame_needed = 0, uses_anonymous_args = 0
 1040              	.LVL114:
 1041 0000 10B5     		push	{r4, lr}
 1042              		.cfi_def_cfa_offset 8
 1043              		.cfi_offset 4, -8
 1044              		.cfi_offset 14, -4
 1045              		.loc 2 222 0
 1046 0002 0446     		mov	r4, r0
 1047              		.loc 2 218 0
 1048 0004 88B0     		sub	sp, sp, #32
 1049              		.cfi_def_cfa_offset 40
 1050              		.loc 2 222 0
 1051 0006 68B1     		cbz	r0, .L111
 1052              		.loc 2 224 0
 1053 0008 0D4B     		ldr	r3, .L112
 1054              		.loc 2 225 0
 1055 000a 0390     		str	r0, [sp, #12]
 1056              		.loc 2 226 0
 1057 000c 02A8     		add	r0, sp, #8
 1058              	.LVL115:
 1059              		.loc 2 224 0
 1060 000e 0293     		str	r3, [sp, #8]
 1061              		.loc 2 226 0
 1062 0010 FFF7FEFF 		bl	tcpip_apimsg
 1063              	.LVL116:
 1064              		.loc 2 228 0
 1065 0014 94F90830 		ldrsb	r3, [r4, #8]
 1066 0018 0933     		adds	r3, r3, #9
 1067 001a A8BF     		it	ge
 1068 001c 2072     		strbge	r0, [r4, #8]
 1069              	.LVL117:
 1070              	.L108:
 1071              		.loc 2 230 0
 1072 001e 40B2     		sxtb	r0, r0
 1073 0020 08B0     		add	sp, sp, #32
 1074              		.cfi_remember_state
 1075              		.cfi_def_cfa_offset 8
 1076              		@ sp needed
ARM GAS  C:\Users\jo\AppData\Local\Temp\cc7IXmgX.s 			page 20


 1077 0022 10BD     		pop	{r4, pc}
 1078              	.LVL118:
 1079              	.L111:
 1080              		.cfi_restore_state
 1081              		.loc 2 222 0 discriminator 1
 1082 0024 074B     		ldr	r3, .L112+4
 1083 0026 0093     		str	r3, [sp]
 1084 0028 0749     		ldr	r1, .L112+8
 1085 002a 084A     		ldr	r2, .L112+12
 1086 002c 0848     		ldr	r0, .L112+16
 1087              	.LVL119:
 1088 002e DE23     		movs	r3, #222
 1089 0030 FFF7FEFF 		bl	chprintf.constprop.2
 1090              	.LVL120:
 1091              	.LBB95:
 1092              	.LBB96:
 1093              		.loc 3 416 0 discriminator 1
 1094 0034 0548     		ldr	r0, .L112+12
 1095 0036 FFF7FEFF 		bl	chSysHalt
 1096              	.LVL121:
 1097              	.LBE96:
 1098              	.LBE95:
 1099              		.loc 2 222 0 discriminator 1
 1100 003a F220     		movs	r0, #242
 1101 003c EFE7     		b	.L108
 1102              	.L113:
 1103 003e 00BF     		.align	2
 1104              	.L112:
 1105 0040 00000000 		.word	do_disconnect
 1106 0044 48000000 		.word	.LC2
 1107 0048 00000000 		.word	.LC0
 1108 004c EC010000 		.word	.LC16
 1109 0050 00000000 		.word	itm_port
 1110              		.cfi_endproc
 1111              	.LFE265:
 1112              		.size	netconn_disconnect, .-netconn_disconnect
 1113 0054 AFF30080 		.section	.text.netconn_listen_with_backlog,"ax",%progbits
 1113      AFF30080 
 1113      AFF30080 
 1114              		.align	2
 1115              		.p2align 4,,15
 1116              		.global	netconn_listen_with_backlog
 1117              		.thumb
 1118              		.thumb_func
 1119              		.type	netconn_listen_with_backlog, %function
 1120              	netconn_listen_with_backlog:
 1121              	.LFB266:
 1122              		.loc 2 242 0
 1123              		.cfi_startproc
 1124              		@ args = 0, pretend = 0, frame = 24
 1125              		@ frame_needed = 0, uses_anonymous_args = 0
 1126              	.LVL122:
 1127 0000 10B5     		push	{r4, lr}
 1128              		.cfi_def_cfa_offset 8
 1129              		.cfi_offset 4, -8
 1130              		.cfi_offset 14, -4
 1131              		.loc 2 250 0
ARM GAS  C:\Users\jo\AppData\Local\Temp\cc7IXmgX.s 			page 21


 1132 0002 0446     		mov	r4, r0
 1133              		.loc 2 242 0
 1134 0004 88B0     		sub	sp, sp, #32
 1135              		.cfi_def_cfa_offset 40
 1136              		.loc 2 250 0
 1137 0006 68B1     		cbz	r0, .L119
 1138              		.loc 2 252 0
 1139 0008 0D4B     		ldr	r3, .L120
 1140              		.loc 2 253 0
 1141 000a 0390     		str	r0, [sp, #12]
 1142              		.loc 2 257 0
 1143 000c 02A8     		add	r0, sp, #8
 1144              	.LVL123:
 1145              		.loc 2 252 0
 1146 000e 0293     		str	r3, [sp, #8]
 1147              		.loc 2 257 0
 1148 0010 FFF7FEFF 		bl	tcpip_apimsg
 1149              	.LVL124:
 1150              		.loc 2 259 0
 1151 0014 94F90830 		ldrsb	r3, [r4, #8]
 1152 0018 0933     		adds	r3, r3, #9
 1153 001a A8BF     		it	ge
 1154 001c 2072     		strbge	r0, [r4, #8]
 1155              	.LVL125:
 1156              	.L116:
 1157              		.loc 2 266 0
 1158 001e 40B2     		sxtb	r0, r0
 1159 0020 08B0     		add	sp, sp, #32
 1160              		.cfi_remember_state
 1161              		.cfi_def_cfa_offset 8
 1162              		@ sp needed
 1163 0022 10BD     		pop	{r4, pc}
 1164              	.LVL126:
 1165              	.L119:
 1166              		.cfi_restore_state
 1167              		.loc 2 250 0 discriminator 1
 1168 0024 074B     		ldr	r3, .L120+4
 1169 0026 0093     		str	r3, [sp]
 1170 0028 0749     		ldr	r1, .L120+8
 1171              	.LVL127:
 1172 002a 084A     		ldr	r2, .L120+12
 1173 002c 0848     		ldr	r0, .L120+16
 1174              	.LVL128:
 1175 002e FA23     		movs	r3, #250
 1176 0030 FFF7FEFF 		bl	chprintf.constprop.2
 1177              	.LVL129:
 1178              	.LBB97:
 1179              	.LBB98:
 1180              		.loc 3 416 0 discriminator 1
 1181 0034 0548     		ldr	r0, .L120+12
 1182 0036 FFF7FEFF 		bl	chSysHalt
 1183              	.LVL130:
 1184              	.LBE98:
 1185              	.LBE97:
 1186              		.loc 2 250 0 discriminator 1
 1187 003a F220     		movs	r0, #242
 1188 003c EFE7     		b	.L116
ARM GAS  C:\Users\jo\AppData\Local\Temp\cc7IXmgX.s 			page 22


 1189              	.L121:
 1190 003e 00BF     		.align	2
 1191              	.L120:
 1192 0040 00000000 		.word	do_listen
 1193 0044 48000000 		.word	.LC2
 1194 0048 00000000 		.word	.LC0
 1195 004c 10020000 		.word	.LC17
 1196 0050 00000000 		.word	itm_port
 1197              		.cfi_endproc
 1198              	.LFE266:
 1199              		.size	netconn_listen_with_backlog, .-netconn_listen_with_backlog
 1200 0054 AFF30080 		.section	.text.netconn_accept,"ax",%progbits
 1200      AFF30080 
 1200      AFF30080 
 1201              		.align	2
 1202              		.p2align 4,,15
 1203              		.global	netconn_accept
 1204              		.thumb
 1205              		.thumb_func
 1206              		.type	netconn_accept, %function
 1207              	netconn_accept:
 1208              	.LFB267:
 1209              		.loc 2 278 0
 1210              		.cfi_startproc
 1211              		@ args = 0, pretend = 0, frame = 8
 1212              		@ frame_needed = 0, uses_anonymous_args = 0
 1213              	.LVL131:
 1214 0000 F0B5     		push	{r4, r5, r6, r7, lr}
 1215              		.cfi_def_cfa_offset 20
 1216              		.cfi_offset 4, -20
 1217              		.cfi_offset 5, -16
 1218              		.cfi_offset 6, -12
 1219              		.cfi_offset 7, -8
 1220              		.cfi_offset 14, -4
 1221              		.loc 2 286 0
 1222 0002 0D46     		mov	r5, r1
 1223              		.loc 2 278 0
 1224 0004 85B0     		sub	sp, sp, #20
 1225              		.cfi_def_cfa_offset 40
 1226              		.loc 2 286 0
 1227 0006 0029     		cmp	r1, #0
 1228 0008 47D0     		beq	.L135
 1229              		.loc 2 287 0
 1230 000a 0026     		movs	r6, #0
 1231 000c 0446     		mov	r4, r0
 1232 000e 0E60     		str	r6, [r1]
 1233              		.loc 2 288 0
 1234 0010 0028     		cmp	r0, #0
 1235 0012 34D0     		beq	.L136
 1236              		.loc 2 289 0
 1237 0014 00F11407 		add	r7, r0, #20
 1238 0018 3846     		mov	r0, r7
 1239              	.LVL132:
 1240 001a FFF7FEFF 		bl	sys_mbox_valid
 1241              	.LVL133:
 1242 001e 00B3     		cbz	r0, .L137
 1243              		.loc 2 291 0
ARM GAS  C:\Users\jo\AppData\Local\Temp\cc7IXmgX.s 			page 23


 1244 0020 207A     		ldrb	r0, [r4, #8]	@ zero_extendqisi2
 1245              	.LVL134:
 1246              		.loc 2 292 0
 1247 0022 43B2     		sxtb	r3, r0
 1248 0024 0933     		adds	r3, r3, #9
 1249 0026 02DA     		bge	.L138
 1250              	.LVL135:
 1251              	.L124:
 1252              		.loc 2 330 0
 1253 0028 40B2     		sxtb	r0, r0
 1254 002a 05B0     		add	sp, sp, #20
 1255              		.cfi_remember_state
 1256              		.cfi_def_cfa_offset 20
 1257              		@ sp needed
 1258 002c F0BD     		pop	{r4, r5, r6, r7, pc}
 1259              	.LVL136:
 1260              	.L138:
 1261              		.cfi_restore_state
 1262              		.loc 2 304 0
 1263 002e 3846     		mov	r0, r7
 1264              	.LVL137:
 1265 0030 03A9     		add	r1, sp, #12
 1266 0032 3246     		mov	r2, r6
 1267 0034 FFF7FEFF 		bl	sys_arch_mbox_fetch
 1268              	.LVL138:
 1269              		.loc 2 307 0
 1270 0038 A36A     		ldr	r3, [r4, #40]
 1271 003a 1BB1     		cbz	r3, .L127
 1272              		.loc 2 307 0 is_stmt 0 discriminator 1
 1273 003c 3246     		mov	r2, r6
 1274 003e 2046     		mov	r0, r4
 1275 0040 0121     		movs	r1, #1
 1276 0042 9847     		blx	r3
 1277              	.LVL139:
 1278              	.L127:
 1279              		.loc 2 309 0 is_stmt 1
 1280 0044 039B     		ldr	r3, [sp, #12]
 1281 0046 23B1     		cbz	r3, .L139
 1282              		.loc 2 324 0
 1283 0048 0020     		movs	r0, #0
 1284              		.loc 2 330 0
 1285 004a 40B2     		sxtb	r0, r0
 1286              		.loc 2 322 0
 1287 004c 2B60     		str	r3, [r5]
 1288              		.loc 2 330 0
 1289 004e 05B0     		add	sp, sp, #20
 1290              		.cfi_remember_state
 1291              		.cfi_def_cfa_offset 20
 1292              		@ sp needed
 1293 0050 F0BD     		pop	{r4, r5, r6, r7, pc}
 1294              	.LVL140:
 1295              	.L139:
 1296              		.cfi_restore_state
 1297              		.loc 2 311 0
 1298 0052 94F90830 		ldrsb	r3, [r4, #8]
 1299 0056 0933     		adds	r3, r3, #9
 1300 0058 4FF0F600 		mov	r0, #246
ARM GAS  C:\Users\jo\AppData\Local\Temp\cc7IXmgX.s 			page 24


 1301 005c E4DB     		blt	.L124
 1302              		.loc 2 311 0 is_stmt 0 discriminator 1
 1303 005e 2072     		strb	r0, [r4, #8]
 1304 0060 E2E7     		b	.L124
 1305              	.L137:
 1306              		.loc 2 289 0 is_stmt 1 discriminator 1
 1307 0062 154B     		ldr	r3, .L140
 1308 0064 0093     		str	r3, [sp]
 1309 0066 1549     		ldr	r1, .L140+4
 1310 0068 154A     		ldr	r2, .L140+8
 1311 006a 1648     		ldr	r0, .L140+12
 1312 006c 40F22113 		movw	r3, #289
 1313 0070 FFF7FEFF 		bl	chprintf.constprop.2
 1314              	.LVL141:
 1315              	.LBB99:
 1316              	.LBB100:
 1317              		.loc 3 416 0 discriminator 1
 1318 0074 1248     		ldr	r0, .L140+8
 1319 0076 FFF7FEFF 		bl	chSysHalt
 1320              	.LVL142:
 1321              	.LBE100:
 1322              	.LBE99:
 1323              		.loc 2 289 0 discriminator 1
 1324 007a F220     		movs	r0, #242
 1325 007c D4E7     		b	.L124
 1326              	.LVL143:
 1327              	.L136:
 1328              		.loc 2 288 0 discriminator 1
 1329 007e 0E4B     		ldr	r3, .L140
 1330 0080 0093     		str	r3, [sp]
 1331 0082 0E49     		ldr	r1, .L140+4
 1332              	.LVL144:
 1333 0084 104A     		ldr	r2, .L140+16
 1334 0086 0F48     		ldr	r0, .L140+12
 1335              	.LVL145:
 1336 0088 4FF49073 		mov	r3, #288
 1337 008c FFF7FEFF 		bl	chprintf.constprop.2
 1338              	.LVL146:
 1339              	.LBB101:
 1340              	.LBB102:
 1341              		.loc 3 416 0 discriminator 1
 1342 0090 0D48     		ldr	r0, .L140+16
 1343 0092 FFF7FEFF 		bl	chSysHalt
 1344              	.LVL147:
 1345              	.LBE102:
 1346              	.LBE101:
 1347              		.loc 2 288 0 discriminator 1
 1348 0096 F220     		movs	r0, #242
 1349 0098 C6E7     		b	.L124
 1350              	.LVL148:
 1351              	.L135:
 1352              		.loc 2 286 0 discriminator 1
 1353 009a 074B     		ldr	r3, .L140
 1354 009c 0093     		str	r3, [sp]
 1355 009e 0749     		ldr	r1, .L140+4
 1356              	.LVL149:
 1357 00a0 0A4A     		ldr	r2, .L140+20
ARM GAS  C:\Users\jo\AppData\Local\Temp\cc7IXmgX.s 			page 25


 1358 00a2 0848     		ldr	r0, .L140+12
 1359              	.LVL150:
 1360 00a4 4FF48F73 		mov	r3, #286
 1361 00a8 FFF7FEFF 		bl	chprintf.constprop.2
 1362              	.LVL151:
 1363              	.LBB103:
 1364              	.LBB104:
 1365              		.loc 3 416 0 discriminator 1
 1366 00ac 0748     		ldr	r0, .L140+20
 1367 00ae FFF7FEFF 		bl	chSysHalt
 1368              	.LVL152:
 1369              	.LBE104:
 1370              	.LBE103:
 1371              		.loc 2 286 0 discriminator 1
 1372 00b2 F220     		movs	r0, #242
 1373 00b4 B8E7     		b	.L124
 1374              	.L141:
 1375 00b6 00BF     		.align	2
 1376              	.L140:
 1377 00b8 48000000 		.word	.LC2
 1378 00bc 00000000 		.word	.LC0
 1379 00c0 70020000 		.word	.LC20
 1380 00c4 00000000 		.word	itm_port
 1381 00c8 50020000 		.word	.LC19
 1382 00cc 30020000 		.word	.LC18
 1383              		.cfi_endproc
 1384              	.LFE267:
 1385              		.size	netconn_accept, .-netconn_accept
 1386              		.section	.text.netconn_recv_tcp_pbuf,"ax",%progbits
 1387              		.align	2
 1388              		.p2align 4,,15
 1389              		.global	netconn_recv_tcp_pbuf
 1390              		.thumb
 1391              		.thumb_func
 1392              		.type	netconn_recv_tcp_pbuf, %function
 1393              	netconn_recv_tcp_pbuf:
 1394              	.LFB269:
 1395              		.loc 2 438 0
 1396              		.cfi_startproc
 1397              		@ args = 0, pretend = 0, frame = 0
 1398              		@ frame_needed = 0, uses_anonymous_args = 0
 1399              	.LVL153:
 1400 0000 00B5     		push	{lr}
 1401              		.cfi_def_cfa_offset 4
 1402              		.cfi_offset 14, -4
 1403 0002 83B0     		sub	sp, sp, #12
 1404              		.cfi_def_cfa_offset 16
 1405              		.loc 2 439 0
 1406 0004 38B1     		cbz	r0, .L143
 1407              		.loc 2 439 0 is_stmt 0 discriminator 2
 1408 0006 0378     		ldrb	r3, [r0]	@ zero_extendqisi2
 1409 0008 102B     		cmp	r3, #16
 1410 000a 04D1     		bne	.L143
 1411              		.loc 2 443 0 is_stmt 1
 1412 000c 03B0     		add	sp, sp, #12
 1413              		.cfi_remember_state
 1414              		.cfi_def_cfa_offset 4
ARM GAS  C:\Users\jo\AppData\Local\Temp\cc7IXmgX.s 			page 26


 1415              		@ sp needed
 1416 000e 5DF804EB 		ldr	lr, [sp], #4
 1417              		.cfi_restore 14
 1418              		.cfi_def_cfa_offset 0
 1419              		.loc 2 442 0
 1420 0012 FFF7FEBF 		b	netconn_recv_data
 1421              	.LVL154:
 1422              	.L143:
 1423              		.cfi_restore_state
 1424              		.loc 2 439 0 discriminator 3
 1425 0016 084B     		ldr	r3, .L151
 1426 0018 0093     		str	r3, [sp]
 1427 001a 0849     		ldr	r1, .L151+4
 1428              	.LVL155:
 1429 001c 084A     		ldr	r2, .L151+8
 1430 001e 0948     		ldr	r0, .L151+12
 1431              	.LVL156:
 1432 0020 4FF4DC73 		mov	r3, #440
 1433 0024 FFF7FEFF 		bl	chprintf.constprop.2
 1434              	.LVL157:
 1435              	.LBB105:
 1436              	.LBB106:
 1437              		.loc 3 416 0 discriminator 3
 1438 0028 0548     		ldr	r0, .L151+8
 1439 002a FFF7FEFF 		bl	chSysHalt
 1440              	.LVL158:
 1441              	.LBE106:
 1442              	.LBE105:
 1443              		.loc 2 443 0 discriminator 3
 1444 002e 6FF00D00 		mvn	r0, #13
 1445 0032 03B0     		add	sp, sp, #12
 1446              		.cfi_def_cfa_offset 4
 1447              		@ sp needed
 1448 0034 5DF804FB 		ldr	pc, [sp], #4
 1449              	.L152:
 1450              		.align	2
 1451              	.L151:
 1452 0038 48000000 		.word	.LC2
 1453 003c 00000000 		.word	.LC0
 1454 0040 6C000000 		.word	.LC3
 1455 0044 00000000 		.word	itm_port
 1456              		.cfi_endproc
 1457              	.LFE269:
 1458              		.size	netconn_recv_tcp_pbuf, .-netconn_recv_tcp_pbuf
 1459 0048 AFF30080 		.section	.text.netconn_recv,"ax",%progbits
 1459      AFF30080 
 1460              		.align	2
 1461              		.p2align 4,,15
 1462              		.global	netconn_recv
 1463              		.thumb
 1464              		.thumb_func
 1465              		.type	netconn_recv, %function
 1466              	netconn_recv:
 1467              	.LFB270:
 1468              		.loc 2 455 0
 1469              		.cfi_startproc
 1470              		@ args = 0, pretend = 0, frame = 8
ARM GAS  C:\Users\jo\AppData\Local\Temp\cc7IXmgX.s 			page 27


 1471              		@ frame_needed = 0, uses_anonymous_args = 0
 1472              	.LVL159:
 1473 0000 70B5     		push	{r4, r5, r6, lr}
 1474              		.cfi_def_cfa_offset 16
 1475              		.cfi_offset 4, -16
 1476              		.cfi_offset 5, -12
 1477              		.cfi_offset 6, -8
 1478              		.cfi_offset 14, -4
 1479              		.loc 2 461 0
 1480 0002 0D46     		mov	r5, r1
 1481              		.loc 2 455 0
 1482 0004 84B0     		sub	sp, sp, #16
 1483              		.cfi_def_cfa_offset 32
 1484              		.loc 2 461 0
 1485 0006 0029     		cmp	r1, #0
 1486 0008 62D0     		beq	.L165
 1487              		.loc 2 462 0
 1488 000a 0026     		movs	r6, #0
 1489 000c 0446     		mov	r4, r0
 1490 000e 0E60     		str	r6, [r1]
 1491              		.loc 2 463 0
 1492 0010 0028     		cmp	r0, #0
 1493 0012 4FD0     		beq	.L166
 1494              		.loc 2 464 0
 1495 0014 1030     		adds	r0, r0, #16
 1496              	.LVL160:
 1497 0016 FFF7FEFF 		bl	sys_mbox_valid
 1498              	.LVL161:
 1499 001a 0028     		cmp	r0, #0
 1500 001c 2ED0     		beq	.L167
 1501              		.loc 2 468 0
 1502 001e 2378     		ldrb	r3, [r4]	@ zero_extendqisi2
 1503 0020 102B     		cmp	r3, #16
 1504 0022 06D0     		beq	.L168
 1505              		.loc 2 501 0
 1506 0024 2046     		mov	r0, r4
 1507 0026 2946     		mov	r1, r5
 1508 0028 FFF7FEFF 		bl	netconn_recv_data
 1509              	.LVL162:
 1510              	.L155:
 1511              		.loc 2 504 0 discriminator 1
 1512 002c 40B2     		sxtb	r0, r0
 1513 002e 04B0     		add	sp, sp, #16
 1514              		.cfi_remember_state
 1515              		.cfi_def_cfa_offset 16
 1516              		@ sp needed
 1517 0030 70BD     		pop	{r4, r5, r6, pc}
 1518              	.LVL163:
 1519              	.L168:
 1520              		.cfi_restore_state
 1521              	.LBB107:
 1522              		.loc 2 474 0
 1523 0032 2E4B     		ldr	r3, .L172
 1524              		.loc 2 471 0
 1525 0034 0396     		str	r6, [sp, #12]
 1526              		.loc 2 474 0
 1527 0036 9889     		ldrh	r0, [r3, #12]
ARM GAS  C:\Users\jo\AppData\Local\Temp\cc7IXmgX.s 			page 28


 1528 0038 FFF7FEFF 		bl	malloc
 1529              	.LVL164:
 1530              		.loc 2 475 0
 1531 003c 0646     		mov	r6, r0
 1532 003e 80B1     		cbz	r0, .L169
 1533              		.loc 2 480 0
 1534 0040 2046     		mov	r0, r4
 1535              	.LVL165:
 1536 0042 03A9     		add	r1, sp, #12
 1537 0044 FFF7FEFF 		bl	netconn_recv_data
 1538              	.LVL166:
 1539              		.loc 2 481 0
 1540 0048 0446     		mov	r4, r0
 1541              	.LVL167:
 1542 004a 90B9     		cbnz	r0, .L170
 1543              		.loc 2 485 0
 1544 004c 039B     		ldr	r3, [sp, #12]
 1545 004e 1BB3     		cbz	r3, .L171
 1546              	.LVL168:
 1547              	.L162:
 1548              		.loc 2 489 0
 1549 0050 0020     		movs	r0, #0
 1550 0052 B081     		strh	r0, [r6, #12]	@ movhi
 1551              		.loc 2 490 0
 1552 0054 B060     		str	r0, [r6, #8]
 1553              	.LBE107:
 1554              		.loc 2 504 0
 1555 0056 40B2     		sxtb	r0, r0
 1556              	.LBB110:
 1557              		.loc 2 487 0
 1558 0058 3360     		str	r3, [r6]
 1559              		.loc 2 488 0
 1560 005a 7360     		str	r3, [r6, #4]
 1561              		.loc 2 491 0
 1562 005c 2E60     		str	r6, [r5]
 1563              	.LBE110:
 1564              		.loc 2 504 0
 1565 005e 04B0     		add	sp, sp, #16
 1566              		.cfi_remember_state
 1567              		.cfi_def_cfa_offset 16
 1568              		@ sp needed
 1569 0060 70BD     		pop	{r4, r5, r6, pc}
 1570              	.LVL169:
 1571              	.L169:
 1572              		.cfi_restore_state
 1573              	.LBB111:
 1574              		.loc 2 476 0
 1575 0062 94F90830 		ldrsb	r3, [r4, #8]
 1576 0066 0933     		adds	r3, r3, #9
 1577 0068 4FF0FF00 		mov	r0, #255
 1578              	.LVL170:
 1579 006c DEDB     		blt	.L155
 1580              		.loc 2 476 0 is_stmt 0 discriminator 1
 1581 006e 2072     		strb	r0, [r4, #8]
 1582 0070 DCE7     		b	.L155
 1583              	.LVL171:
 1584              	.L170:
ARM GAS  C:\Users\jo\AppData\Local\Temp\cc7IXmgX.s 			page 29


 1585              		.loc 2 482 0 is_stmt 1
 1586 0072 3046     		mov	r0, r6
 1587              	.LVL172:
 1588 0074 FFF7FEFF 		bl	free
 1589              	.LVL173:
 1590              		.loc 2 483 0
 1591 0078 2046     		mov	r0, r4
 1592 007a D7E7     		b	.L155
 1593              	.LVL174:
 1594              	.L167:
 1595              	.LBE111:
 1596              		.loc 2 464 0 discriminator 1
 1597 007c 1C4B     		ldr	r3, .L172+4
 1598 007e 0093     		str	r3, [sp]
 1599 0080 1C49     		ldr	r1, .L172+8
 1600 0082 1D4A     		ldr	r2, .L172+12
 1601 0084 1D48     		ldr	r0, .L172+16
 1602 0086 4FF4E873 		mov	r3, #464
 1603 008a FFF7FEFF 		bl	chprintf.constprop.2
 1604              	.LVL175:
 1605              	.LBB112:
 1606              	.LBB113:
 1607              		.loc 3 416 0 discriminator 1
 1608 008e 1A48     		ldr	r0, .L172+12
 1609 0090 FFF7FEFF 		bl	chSysHalt
 1610              	.LVL176:
 1611              	.LBE113:
 1612              	.LBE112:
 1613              		.loc 2 464 0 discriminator 1
 1614 0094 F320     		movs	r0, #243
 1615 0096 C9E7     		b	.L155
 1616              	.LVL177:
 1617              	.L171:
 1618              	.LBB114:
 1619              		.loc 2 485 0 discriminator 1
 1620 0098 154B     		ldr	r3, .L172+4
 1621 009a 0093     		str	r3, [sp]
 1622 009c 1549     		ldr	r1, .L172+8
 1623 009e 184A     		ldr	r2, .L172+20
 1624 00a0 1648     		ldr	r0, .L172+16
 1625              	.LVL178:
 1626 00a2 40F2E513 		movw	r3, #485
 1627 00a6 FFF7FEFF 		bl	chprintf.constprop.2
 1628              	.LVL179:
 1629              	.LBB108:
 1630              	.LBB109:
 1631              		.loc 3 416 0 discriminator 1
 1632 00aa 1548     		ldr	r0, .L172+20
 1633 00ac FFF7FEFF 		bl	chSysHalt
 1634              	.LVL180:
 1635 00b0 039B     		ldr	r3, [sp, #12]
 1636 00b2 CDE7     		b	.L162
 1637              	.LVL181:
 1638              	.L166:
 1639              	.LBE109:
 1640              	.LBE108:
 1641              	.LBE114:
ARM GAS  C:\Users\jo\AppData\Local\Temp\cc7IXmgX.s 			page 30


 1642              		.loc 2 463 0 discriminator 1
 1643 00b4 0E4B     		ldr	r3, .L172+4
 1644 00b6 0093     		str	r3, [sp]
 1645 00b8 0E49     		ldr	r1, .L172+8
 1646              	.LVL182:
 1647 00ba 124A     		ldr	r2, .L172+24
 1648 00bc 0F48     		ldr	r0, .L172+16
 1649              	.LVL183:
 1650 00be 40F2CF13 		movw	r3, #463
 1651 00c2 FFF7FEFF 		bl	chprintf.constprop.2
 1652              	.LVL184:
 1653              	.LBB115:
 1654              	.LBB116:
 1655              		.loc 3 416 0 discriminator 1
 1656 00c6 0F48     		ldr	r0, .L172+24
 1657 00c8 FFF7FEFF 		bl	chSysHalt
 1658              	.LVL185:
 1659              	.LBE116:
 1660              	.LBE115:
 1661              		.loc 2 463 0 discriminator 1
 1662 00cc F220     		movs	r0, #242
 1663 00ce ADE7     		b	.L155
 1664              	.LVL186:
 1665              	.L165:
 1666              		.loc 2 461 0 discriminator 1
 1667 00d0 074B     		ldr	r3, .L172+4
 1668 00d2 0093     		str	r3, [sp]
 1669 00d4 0749     		ldr	r1, .L172+8
 1670              	.LVL187:
 1671 00d6 0C4A     		ldr	r2, .L172+28
 1672 00d8 0848     		ldr	r0, .L172+16
 1673              	.LVL188:
 1674 00da 40F2CD13 		movw	r3, #461
 1675 00de FFF7FEFF 		bl	chprintf.constprop.2
 1676              	.LVL189:
 1677              	.LBB117:
 1678              	.LBB118:
 1679              		.loc 3 416 0 discriminator 1
 1680 00e2 0948     		ldr	r0, .L172+28
 1681 00e4 FFF7FEFF 		bl	chSysHalt
 1682              	.LVL190:
 1683              	.LBE118:
 1684              	.LBE117:
 1685              		.loc 2 461 0 discriminator 1
 1686 00e8 F220     		movs	r0, #242
 1687 00ea 9FE7     		b	.L155
 1688              	.L173:
 1689              		.align	2
 1690              	.L172:
 1691 00ec 00000000 		.word	memp_sizes
 1692 00f0 48000000 		.word	.LC2
 1693 00f4 00000000 		.word	.LC0
 1694 00f8 88000000 		.word	.LC4
 1695 00fc 00000000 		.word	itm_port
 1696 0100 94020000 		.word	.LC21
 1697 0104 6C000000 		.word	.LC3
 1698 0108 28000000 		.word	.LC1
ARM GAS  C:\Users\jo\AppData\Local\Temp\cc7IXmgX.s 			page 31


 1699              		.cfi_endproc
 1700              	.LFE270:
 1701              		.size	netconn_recv, .-netconn_recv
 1702 010c AFF30080 		.section	.text.netconn_recved,"ax",%progbits
 1703              		.align	2
 1704              		.p2align 4,,15
 1705              		.global	netconn_recved
 1706              		.thumb
 1707              		.thumb_func
 1708              		.type	netconn_recved, %function
 1709              	netconn_recved:
 1710              	.LFB271:
 1711              		.loc 2 518 0
 1712              		.cfi_startproc
 1713              		@ args = 0, pretend = 0, frame = 24
 1714              		@ frame_needed = 0, uses_anonymous_args = 0
 1715              	.LVL191:
 1716              		.loc 2 520 0
 1717 0000 10B1     		cbz	r0, .L183
 1718              		.loc 2 520 0 is_stmt 0 discriminator 1
 1719 0002 0378     		ldrb	r3, [r0]	@ zero_extendqisi2
 1720 0004 102B     		cmp	r3, #16
 1721 0006 00D0     		beq	.L184
 1722              	.L183:
 1723 0008 7047     		bx	lr
 1724              	.L184:
 1725              		.loc 2 521 0 is_stmt 1 discriminator 2
 1726 000a 037F     		ldrb	r3, [r0, #28]	@ zero_extendqisi2
 1727              		.loc 2 520 0 discriminator 2
 1728 000c 1B07     		lsls	r3, r3, #28
 1729 000e FBD5     		bpl	.L183
 1730              		.loc 2 518 0
 1731 0010 00B5     		push	{lr}
 1732              		.cfi_def_cfa_offset 4
 1733              		.cfi_offset 14, -4
 1734 0012 87B0     		sub	sp, sp, #28
 1735              		.cfi_def_cfa_offset 32
 1736              	.LBB119:
 1737              		.loc 2 526 0
 1738 0014 044B     		ldr	r3, .L185
 1739              		.loc 2 527 0
 1740 0016 0190     		str	r0, [sp, #4]
 1741              		.loc 2 530 0
 1742 0018 6846     		mov	r0, sp
 1743              	.LVL192:
 1744              		.loc 2 528 0
 1745 001a 0391     		str	r1, [sp, #12]
 1746              		.loc 2 526 0
 1747 001c 0093     		str	r3, [sp]
 1748              		.loc 2 530 0
 1749 001e FFF7FEFF 		bl	tcpip_apimsg
 1750              	.LVL193:
 1751              	.LBE119:
 1752              		.loc 2 536 0
 1753 0022 07B0     		add	sp, sp, #28
 1754              		.cfi_def_cfa_offset 4
 1755              		@ sp needed
ARM GAS  C:\Users\jo\AppData\Local\Temp\cc7IXmgX.s 			page 32


 1756 0024 5DF804FB 		ldr	pc, [sp], #4
 1757              	.L186:
 1758              		.align	2
 1759              	.L185:
 1760 0028 00000000 		.word	do_recv
 1761              		.cfi_endproc
 1762              	.LFE271:
 1763              		.size	netconn_recved, .-netconn_recved
 1764 002c AFF30080 		.section	.text.netconn_send,"ax",%progbits
 1765              		.align	2
 1766              		.p2align 4,,15
 1767              		.global	netconn_send
 1768              		.thumb
 1769              		.thumb_func
 1770              		.type	netconn_send, %function
 1771              	netconn_send:
 1772              	.LFB273:
 1773              		.loc 2 568 0
 1774              		.cfi_startproc
 1775              		@ args = 0, pretend = 0, frame = 24
 1776              		@ frame_needed = 0, uses_anonymous_args = 0
 1777              	.LVL194:
 1778 0000 10B5     		push	{r4, lr}
 1779              		.cfi_def_cfa_offset 8
 1780              		.cfi_offset 4, -8
 1781              		.cfi_offset 14, -4
 1782              		.loc 2 572 0
 1783 0002 0446     		mov	r4, r0
 1784              		.loc 2 568 0
 1785 0004 88B0     		sub	sp, sp, #32
 1786              		.cfi_def_cfa_offset 40
 1787              		.loc 2 572 0
 1788 0006 70B1     		cbz	r0, .L192
 1789              		.loc 2 575 0
 1790 0008 0E4B     		ldr	r3, .L193
 1791              		.loc 2 576 0
 1792 000a 0390     		str	r0, [sp, #12]
 1793              		.loc 2 578 0
 1794 000c 02A8     		add	r0, sp, #8
 1795              	.LVL195:
 1796              		.loc 2 575 0
 1797 000e 0293     		str	r3, [sp, #8]
 1798              		.loc 2 577 0
 1799 0010 0591     		str	r1, [sp, #20]
 1800              		.loc 2 578 0
 1801 0012 FFF7FEFF 		bl	tcpip_apimsg
 1802              	.LVL196:
 1803              		.loc 2 580 0
 1804 0016 94F90830 		ldrsb	r3, [r4, #8]
 1805 001a 0933     		adds	r3, r3, #9
 1806 001c A8BF     		it	ge
 1807 001e 2072     		strbge	r0, [r4, #8]
 1808              	.LVL197:
 1809              	.L189:
 1810              		.loc 2 582 0
 1811 0020 40B2     		sxtb	r0, r0
 1812 0022 08B0     		add	sp, sp, #32
ARM GAS  C:\Users\jo\AppData\Local\Temp\cc7IXmgX.s 			page 33


 1813              		.cfi_remember_state
 1814              		.cfi_def_cfa_offset 8
 1815              		@ sp needed
 1816 0024 10BD     		pop	{r4, pc}
 1817              	.LVL198:
 1818              	.L192:
 1819              		.cfi_restore_state
 1820              	.LBB124:
 1821              	.LBB125:
 1822              		.loc 2 572 0
 1823 0026 084B     		ldr	r3, .L193+4
 1824 0028 0093     		str	r3, [sp]
 1825 002a 0849     		ldr	r1, .L193+8
 1826              	.LVL199:
 1827 002c 084A     		ldr	r2, .L193+12
 1828 002e 0948     		ldr	r0, .L193+16
 1829              	.LVL200:
 1830 0030 4FF40F73 		mov	r3, #572
 1831 0034 FFF7FEFF 		bl	chprintf.constprop.2
 1832              	.LVL201:
 1833              	.LBB126:
 1834              	.LBB127:
 1835              		.loc 3 416 0
 1836 0038 0548     		ldr	r0, .L193+12
 1837 003a FFF7FEFF 		bl	chSysHalt
 1838              	.LVL202:
 1839 003e F220     		movs	r0, #242
 1840 0040 EEE7     		b	.L189
 1841              	.L194:
 1842 0042 00BF     		.align	2
 1843              	.L193:
 1844 0044 00000000 		.word	do_send
 1845 0048 48000000 		.word	.LC2
 1846 004c 00000000 		.word	.LC0
 1847 0050 A0020000 		.word	.LC22
 1848 0054 00000000 		.word	itm_port
 1849              	.LBE127:
 1850              	.LBE126:
 1851              	.LBE125:
 1852              	.LBE124:
 1853              		.cfi_endproc
 1854              	.LFE273:
 1855              		.size	netconn_send, .-netconn_send
 1856              		.section	.text.netconn_sendto,"ax",%progbits
 1857              		.align	2
 1858              		.p2align 4,,15
 1859              		.global	netconn_sendto
 1860              		.thumb
 1861              		.thumb_func
 1862              		.type	netconn_sendto, %function
 1863              	netconn_sendto:
 1864              	.LFB272:
 1865              		.loc 2 550 0
 1866              		.cfi_startproc
 1867              		@ args = 0, pretend = 0, frame = 0
 1868              		@ frame_needed = 0, uses_anonymous_args = 0
 1869              		@ link register save eliminated.
ARM GAS  C:\Users\jo\AppData\Local\Temp\cc7IXmgX.s 			page 34


 1870              	.LVL203:
 1871              		.loc 2 551 0
 1872 0000 29B1     		cbz	r1, .L196
 1873              		.loc 2 552 0
 1874 0002 02B1     		cbz	r2, .L197
 1875              		.loc 2 552 0 is_stmt 0 discriminator 1
 1876 0004 1268     		ldr	r2, [r2]
 1877              	.LVL204:
 1878              	.L197:
 1879              		.loc 2 552 0 discriminator 4
 1880 0006 8A60     		str	r2, [r1, #8]
 1881              		.loc 2 553 0 is_stmt 1 discriminator 4
 1882 0008 8B81     		strh	r3, [r1, #12]	@ movhi
 1883              		.loc 2 554 0 discriminator 4
 1884 000a FFF7FEBF 		b	netconn_send
 1885              	.LVL205:
 1886              	.L196:
 1887              		.loc 2 557 0
 1888 000e 6FF00500 		mvn	r0, #5
 1889              	.LVL206:
 1890 0012 7047     		bx	lr
 1891              		.cfi_endproc
 1892              	.LFE272:
 1893              		.size	netconn_sendto, .-netconn_sendto
 1894 0014 AFF30080 		.section	.text.netconn_write_partly,"ax",%progbits
 1894      AFF30080 
 1894      AFF30080 
 1895              		.align	2
 1896              		.p2align 4,,15
 1897              		.global	netconn_write_partly
 1898              		.thumb
 1899              		.thumb_func
 1900              		.type	netconn_write_partly, %function
 1901              	netconn_write_partly:
 1902              	.LFB274:
 1903              		.loc 2 600 0
 1904              		.cfi_startproc
 1905              		@ args = 4, pretend = 0, frame = 24
 1906              		@ frame_needed = 0, uses_anonymous_args = 0
 1907              	.LVL207:
 1908 0000 30B5     		push	{r4, r5, lr}
 1909              		.cfi_def_cfa_offset 12
 1910              		.cfi_offset 4, -12
 1911              		.cfi_offset 5, -8
 1912              		.cfi_offset 14, -4
 1913              		.loc 2 605 0
 1914 0002 0546     		mov	r5, r0
 1915              		.loc 2 600 0
 1916 0004 89B0     		sub	sp, sp, #36
 1917              		.cfi_def_cfa_offset 48
 1918              		.loc 2 605 0
 1919 0006 0028     		cmp	r0, #0
 1920 0008 49D0     		beq	.L212
 1921 000a 1446     		mov	r4, r2
 1922              		.loc 2 606 0
 1923 000c 0278     		ldrb	r2, [r0]	@ zero_extendqisi2
 1924              	.LVL208:
ARM GAS  C:\Users\jo\AppData\Local\Temp\cc7IXmgX.s 			page 35


 1925 000e 102A     		cmp	r2, #16
 1926 0010 35D1     		bne	.L213
 1927              		.loc 2 607 0
 1928 0012 002C     		cmp	r4, #0
 1929 0014 2FD0     		beq	.L207
 1930              		.loc 2 610 0
 1931 0016 027F     		ldrb	r2, [r0, #28]	@ zero_extendqisi2
 1932 0018 9007     		lsls	r0, r2, #30
 1933              	.LVL209:
 1934 001a 18D5     		bpl	.L214
 1935              	.L203:
 1936              	.LVL210:
 1937              		.loc 2 611 0
 1938 001c 0C9A     		ldr	r2, [sp, #48]
 1939 001e 002A     		cmp	r2, #0
 1940 0020 3BD0     		beq	.L209
 1941              		.loc 2 618 0
 1942 0022 264A     		ldr	r2, .L215
 1943              		.loc 2 619 0
 1944 0024 0395     		str	r5, [sp, #12]
 1945              		.loc 2 636 0
 1946 0026 02A8     		add	r0, sp, #8
 1947              		.loc 2 620 0
 1948 0028 0591     		str	r1, [sp, #20]
 1949              		.loc 2 621 0
 1950 002a 8DF81C30 		strb	r3, [sp, #28]
 1951              		.loc 2 622 0
 1952 002e 0694     		str	r4, [sp, #24]
 1953              		.loc 2 618 0
 1954 0030 0292     		str	r2, [sp, #8]
 1955              		.loc 2 636 0
 1956 0032 FFF7FEFF 		bl	tcpip_apimsg
 1957              	.LVL211:
 1958              		.loc 2 637 0
 1959 0036 10B9     		cbnz	r0, .L204
 1960              		.loc 2 644 0
 1961 0038 0C9A     		ldr	r2, [sp, #48]
 1962 003a 069B     		ldr	r3, [sp, #24]
 1963 003c 1360     		str	r3, [r2]
 1964              	.LVL212:
 1965              	.L204:
 1966              		.loc 2 651 0
 1967 003e 95F90830 		ldrsb	r3, [r5, #8]
 1968 0042 0933     		adds	r3, r3, #9
 1969 0044 00DB     		blt	.L201
 1970              		.loc 2 651 0 is_stmt 0 discriminator 1
 1971 0046 2872     		strb	r0, [r5, #8]
 1972              	.LVL213:
 1973              	.L201:
 1974 0048 40B2     		sxtb	r0, r0
 1975              		.loc 2 653 0 is_stmt 1
 1976 004a 09B0     		add	sp, sp, #36
 1977              		.cfi_remember_state
 1978              		.cfi_def_cfa_offset 12
 1979              		@ sp needed
 1980 004c 30BD     		pop	{r4, r5, pc}
 1981              	.LVL214:
ARM GAS  C:\Users\jo\AppData\Local\Temp\cc7IXmgX.s 			page 36


 1982              	.L214:
 1983              		.cfi_restore_state
 1984              		.loc 2 610 0 discriminator 2
 1985 004e 5A07     		lsls	r2, r3, #29
 1986 0050 E4D4     		bmi	.L203
 1987              	.LVL215:
 1988              		.loc 2 618 0
 1989 0052 1A4A     		ldr	r2, .L215
 1990              		.loc 2 619 0
 1991 0054 0395     		str	r5, [sp, #12]
 1992              		.loc 2 636 0
 1993 0056 02A8     		add	r0, sp, #8
 1994              		.loc 2 620 0
 1995 0058 0591     		str	r1, [sp, #20]
 1996              		.loc 2 621 0
 1997 005a 8DF81C30 		strb	r3, [sp, #28]
 1998              		.loc 2 622 0
 1999 005e 0694     		str	r4, [sp, #24]
 2000              		.loc 2 618 0
 2001 0060 0292     		str	r2, [sp, #8]
 2002              		.loc 2 636 0
 2003 0062 FFF7FEFF 		bl	tcpip_apimsg
 2004              	.LVL216:
 2005              		.loc 2 637 0
 2006 0066 0028     		cmp	r0, #0
 2007 0068 E9D1     		bne	.L204
 2008              		.loc 2 637 0 is_stmt 0 discriminator 1
 2009 006a 0C9B     		ldr	r3, [sp, #48]
 2010 006c 002B     		cmp	r3, #0
 2011 006e E6D0     		beq	.L204
 2012              		.loc 2 647 0 is_stmt 1
 2013 0070 0C9B     		ldr	r3, [sp, #48]
 2014 0072 1C60     		str	r4, [r3]
 2015 0074 E3E7     		b	.L204
 2016              	.LVL217:
 2017              	.L207:
 2018              		.loc 2 608 0
 2019 0076 2046     		mov	r0, r4
 2020              	.LVL218:
 2021 0078 40B2     		sxtb	r0, r0
 2022              		.loc 2 653 0
 2023 007a 09B0     		add	sp, sp, #36
 2024              		.cfi_remember_state
 2025              		.cfi_def_cfa_offset 12
 2026              		@ sp needed
 2027 007c 30BD     		pop	{r4, r5, pc}
 2028              	.LVL219:
 2029              	.L213:
 2030              		.cfi_restore_state
 2031              		.loc 2 606 0 discriminator 1
 2032 007e 104B     		ldr	r3, .L215+4
 2033              	.LVL220:
 2034 0080 0093     		str	r3, [sp]
 2035 0082 1049     		ldr	r1, .L215+8
 2036              	.LVL221:
 2037 0084 104A     		ldr	r2, .L215+12
 2038 0086 1148     		ldr	r0, .L215+16
ARM GAS  C:\Users\jo\AppData\Local\Temp\cc7IXmgX.s 			page 37


 2039              	.LVL222:
 2040 0088 40F25E23 		movw	r3, #606
 2041 008c FFF7FEFF 		bl	chprintf.constprop.2
 2042              	.LVL223:
 2043              	.LBB128:
 2044              	.LBB129:
 2045              		.loc 3 416 0 discriminator 1
 2046 0090 0D48     		ldr	r0, .L215+12
 2047 0092 FFF7FEFF 		bl	chSysHalt
 2048              	.LVL224:
 2049              	.LBE129:
 2050              	.LBE128:
 2051              		.loc 2 606 0 discriminator 1
 2052 0096 FA20     		movs	r0, #250
 2053 0098 D6E7     		b	.L201
 2054              	.LVL225:
 2055              	.L209:
 2056              		.loc 2 614 0
 2057 009a FA20     		movs	r0, #250
 2058 009c D4E7     		b	.L201
 2059              	.LVL226:
 2060              	.L212:
 2061              		.loc 2 605 0 discriminator 1
 2062 009e 084B     		ldr	r3, .L215+4
 2063              	.LVL227:
 2064 00a0 0093     		str	r3, [sp]
 2065 00a2 0849     		ldr	r1, .L215+8
 2066              	.LVL228:
 2067 00a4 0A4A     		ldr	r2, .L215+20
 2068              	.LVL229:
 2069 00a6 0948     		ldr	r0, .L215+16
 2070              	.LVL230:
 2071 00a8 40F25D23 		movw	r3, #605
 2072 00ac FFF7FEFF 		bl	chprintf.constprop.2
 2073              	.LVL231:
 2074              	.LBB130:
 2075              	.LBB131:
 2076              		.loc 3 416 0 discriminator 1
 2077 00b0 0748     		ldr	r0, .L215+20
 2078 00b2 FFF7FEFF 		bl	chSysHalt
 2079              	.LVL232:
 2080              	.LBE131:
 2081              	.LBE130:
 2082              		.loc 2 605 0 discriminator 1
 2083 00b6 F220     		movs	r0, #242
 2084 00b8 C6E7     		b	.L201
 2085              	.L216:
 2086 00ba 00BF     		.align	2
 2087              	.L215:
 2088 00bc 00000000 		.word	do_write
 2089 00c0 48000000 		.word	.LC2
 2090 00c4 00000000 		.word	.LC0
 2091 00c8 D8020000 		.word	.LC24
 2092 00cc 00000000 		.word	itm_port
 2093 00d0 BC020000 		.word	.LC23
 2094              		.cfi_endproc
 2095              	.LFE274:
ARM GAS  C:\Users\jo\AppData\Local\Temp\cc7IXmgX.s 			page 38


 2096              		.size	netconn_write_partly, .-netconn_write_partly
 2097 00d4 AFF30080 		.section	.text.netconn_close,"ax",%progbits
 2097      AFF30080 
 2097      AFF30080 
 2098              		.align	2
 2099              		.p2align 4,,15
 2100              		.global	netconn_close
 2101              		.thumb
 2102              		.thumb_func
 2103              		.type	netconn_close, %function
 2104              	netconn_close:
 2105              	.LFB276:
 2106              		.loc 2 690 0
 2107              		.cfi_startproc
 2108              		@ args = 0, pretend = 0, frame = 0
 2109              		@ frame_needed = 0, uses_anonymous_args = 0
 2110              		@ link register save eliminated.
 2111              	.LVL233:
 2112              		.loc 2 692 0
 2113 0000 0321     		movs	r1, #3
 2114 0002 FFF7FEBF 		b	netconn_close_shutdown
 2115              	.LVL234:
 2116              		.cfi_endproc
 2117              	.LFE276:
 2118              		.size	netconn_close, .-netconn_close
 2119 0006 00BFAFF3 		.section	.text.netconn_shutdown,"ax",%progbits
 2119      0080AFF3 
 2119      0080
 2120              		.align	2
 2121              		.p2align 4,,15
 2122              		.global	netconn_shutdown
 2123              		.thumb
 2124              		.thumb_func
 2125              		.type	netconn_shutdown, %function
 2126              	netconn_shutdown:
 2127              	.LFB277:
 2128              		.loc 2 703 0
 2129              		.cfi_startproc
 2130              		@ args = 0, pretend = 0, frame = 0
 2131              		@ frame_needed = 0, uses_anonymous_args = 0
 2132              		@ link register save eliminated.
 2133              	.LVL235:
 2134              		.loc 2 704 0
 2135 0000 002A     		cmp	r2, #0
 2136 0002 14BF     		ite	ne
 2137 0004 0223     		movne	r3, #2
 2138 0006 0023     		moveq	r3, #0
 2139 0008 0029     		cmp	r1, #0
 2140 000a 0CBF     		ite	eq
 2141 000c 1946     		moveq	r1, r3
 2142 000e 43F00101 		orrne	r1, r3, #1
 2143              	.LVL236:
 2144 0012 FFF7FEBF 		b	netconn_close_shutdown
 2145              	.LVL237:
 2146              		.cfi_endproc
 2147              	.LFE277:
 2148              		.size	netconn_shutdown, .-netconn_shutdown
ARM GAS  C:\Users\jo\AppData\Local\Temp\cc7IXmgX.s 			page 39


 2149 0016 00BFAFF3 		.section	.rodata.str1.4,"aMS",%progbits,1
 2149      0080AFF3 
 2149      0080
 2150              		.align	2
 2151              	.LC0:
 2152 0000 41737365 		.ascii	"Assertion \"%s\" failed at line %d in %s\012\000"
 2152      7274696F 
 2152      6E202225 
 2152      73222066 
 2152      61696C65 
 2153              	.LC1:
 2154 0028 6E657463 		.ascii	"netconn_recv: invalid pointer\000"
 2154      6F6E6E5F 
 2154      72656376 
 2154      3A20696E 
 2154      76616C69 
 2155 0046 0000     		.space	2
 2156              	.LC2:
 2157 0048 2E2E2F2E 		.ascii	"../../../ext/lwip/src/api/api_lib.c\000"
 2157      2E2F2E2E 
 2157      2F657874 
 2157      2F6C7769 
 2157      702F7372 
 2158              	.LC3:
 2159 006c 6E657463 		.ascii	"netconn_recv: invalid conn\000"
 2159      6F6E6E5F 
 2159      72656376 
 2159      3A20696E 
 2159      76616C69 
 2160 0087 00       		.space	1
 2161              	.LC4:
 2162 0088 6E657463 		.ascii	"netconn_accept: invalid recvmbox\000"
 2162      6F6E6E5F 
 2162      61636365 
 2162      70743A20 
 2162      696E7661 
 2163 00a9 000000   		.space	3
 2164              	.LC5:
 2165 00ac 62756620 		.ascii	"buf != NULL\000"
 2165      213D204E 
 2165      554C4C00 
 2166              	.LC6:
 2167 00b8 6E657463 		.ascii	"netconn_close: invalid conn\000"
 2167      6F6E6E5F 
 2167      636C6F73 
 2167      653A2069 
 2167      6E76616C 
 2168              	.LC7:
 2169 00d4 66726565 		.ascii	"freeing conn without freeing pcb\000"
 2169      696E6720 
 2169      636F6E6E 
 2169      20776974 
 2169      686F7574 
 2170 00f5 000000   		.space	3
 2171              	.LC8:
 2172 00f8 636F6E6E 		.ascii	"conn has no op_completed\000"
 2172      20686173 
ARM GAS  C:\Users\jo\AppData\Local\Temp\cc7IXmgX.s 			page 40


 2172      206E6F20 
 2172      6F705F63 
 2172      6F6D706C 
 2173 0111 000000   		.space	3
 2174              	.LC9:
 2175 0114 636F6E6E 		.ascii	"conn has no recvmbox\000"
 2175      20686173 
 2175      206E6F20 
 2175      72656376 
 2175      6D626F78 
 2176 0129 000000   		.space	3
 2177              	.LC10:
 2178 012c 636F6E6E 		.ascii	"conn->acceptmbox shouldn't exist\000"
 2178      2D3E6163 
 2178      63657074 
 2178      6D626F78 
 2178      2073686F 
 2179 014d 000000   		.space	3
 2180              	.LC11:
 2181 0150 6E657463 		.ascii	"netconn_getaddr: invalid conn\000"
 2181      6F6E6E5F 
 2181      67657461 
 2181      6464723A 
 2181      20696E76 
 2182 016e 0000     		.space	2
 2183              	.LC12:
 2184 0170 6E657463 		.ascii	"netconn_getaddr: invalid addr\000"
 2184      6F6E6E5F 
 2184      67657461 
 2184      6464723A 
 2184      20696E76 
 2185 018e 0000     		.space	2
 2186              	.LC13:
 2187 0190 6E657463 		.ascii	"netconn_getaddr: invalid port\000"
 2187      6F6E6E5F 
 2187      67657461 
 2187      6464723A 
 2187      20696E76 
 2188 01ae 0000     		.space	2
 2189              	.LC14:
 2190 01b0 6E657463 		.ascii	"netconn_bind: invalid conn\000"
 2190      6F6E6E5F 
 2190      62696E64 
 2190      3A20696E 
 2190      76616C69 
 2191 01cb 00       		.space	1
 2192              	.LC15:
 2193 01cc 6E657463 		.ascii	"netconn_connect: invalid conn\000"
 2193      6F6E6E5F 
 2193      636F6E6E 
 2193      6563743A 
 2193      20696E76 
 2194 01ea 0000     		.space	2
 2195              	.LC16:
 2196 01ec 6E657463 		.ascii	"netconn_disconnect: invalid conn\000"
 2196      6F6E6E5F 
 2196      64697363 
ARM GAS  C:\Users\jo\AppData\Local\Temp\cc7IXmgX.s 			page 41


 2196      6F6E6E65 
 2196      63743A20 
 2197 020d 000000   		.space	3
 2198              	.LC17:
 2199 0210 6E657463 		.ascii	"netconn_listen: invalid conn\000"
 2199      6F6E6E5F 
 2199      6C697374 
 2199      656E3A20 
 2199      696E7661 
 2200 022d 000000   		.space	3
 2201              	.LC18:
 2202 0230 6E657463 		.ascii	"netconn_accept: invalid pointer\000"
 2202      6F6E6E5F 
 2202      61636365 
 2202      70743A20 
 2202      696E7661 
 2203              	.LC19:
 2204 0250 6E657463 		.ascii	"netconn_accept: invalid conn\000"
 2204      6F6E6E5F 
 2204      61636365 
 2204      70743A20 
 2204      696E7661 
 2205 026d 000000   		.space	3
 2206              	.LC20:
 2207 0270 6E657463 		.ascii	"netconn_accept: invalid acceptmbox\000"
 2207      6F6E6E5F 
 2207      61636365 
 2207      70743A20 
 2207      696E7661 
 2208 0293 00       		.space	1
 2209              	.LC21:
 2210 0294 7020213D 		.ascii	"p != NULL\000"
 2210      204E554C 
 2210      4C00
 2211 029e 0000     		.space	2
 2212              	.LC22:
 2213 02a0 6E657463 		.ascii	"netconn_send: invalid conn\000"
 2213      6F6E6E5F 
 2213      73656E64 
 2213      3A20696E 
 2213      76616C69 
 2214 02bb 00       		.space	1
 2215              	.LC23:
 2216 02bc 6E657463 		.ascii	"netconn_write: invalid conn\000"
 2216      6F6E6E5F 
 2216      77726974 
 2216      653A2069 
 2216      6E76616C 
 2217              	.LC24:
 2218 02d8 6E657463 		.ascii	"netconn_write: invalid conn->type\000"
 2218      6F6E6E5F 
 2218      77726974 
 2218      653A2069 
 2218      6E76616C 
 2219 02fa 0000     		.text
 2220              	.Letext0:
 2221              		.file 4 "c:\\program files\\gnu tools arm embedded\\4.9 2014q4\\lib\\gcc\\arm-none-eabi\\4.9.3\\in
ARM GAS  C:\Users\jo\AppData\Local\Temp\cc7IXmgX.s 			page 42


 2222              		.file 5 "c:\\program files\\gnu tools arm embedded\\4.9 2014q4\\arm-none-eabi\\include\\machine\\_
 2223              		.file 6 "c:\\program files\\gnu tools arm embedded\\4.9 2014q4\\arm-none-eabi\\include\\stdint.h"
 2224              		.file 7 "../../../os/rt/ports/ARMCMx/compilers/GCC/chtypes.h"
 2225              		.file 8 "../../../os/rt/include/chsystypes.h"
 2226              		.file 9 "../../../os/rt/include/chschd.h"
 2227              		.file 10 "../../../os/rt/ports/ARMCMx/chcore.h"
 2228              		.file 11 "../../../os/rt/ports/ARMCMx/chcore_v7m.h"
 2229              		.file 12 "../../../os/rt/include/chdebug.h"
 2230              		.file 13 "../../../os/rt/include/chtm.h"
 2231              		.file 14 "../../../os/rt/include/chsem.h"
 2232              		.file 15 "../../../os/rt/include/chmtx.h"
 2233              		.file 16 "../../../os/rt/include/chmboxes.h"
 2234              		.file 17 "../../../os/rt/include/chstreams.h"
 2235              		.file 18 "./ITM_trace.h"
 2236              		.file 19 "c:\\program files\\gnu tools arm embedded\\4.9 2014q4\\lib\\gcc\\arm-none-eabi\\4.9.3\\i
 2237              		.file 20 "<built-in>"
 2238              		.file 21 "../../../os/various/lwip_bindings/arch/cc.h"
 2239              		.file 22 "../../../ext/lwip/src/include/lwip/err.h"
 2240              		.file 23 "../../../ext/lwip/src/include/lwip/pbuf.h"
 2241              		.file 24 "../../../ext/lwip/src/include/ipv4/lwip/ip_addr.h"
 2242              		.file 25 "../../../ext/lwip/src/include/lwip/netbuf.h"
 2243              		.file 26 "../../../os/various/lwip_bindings/arch/sys_arch.h"
 2244              		.file 27 "../../../ext/lwip/src/include/lwip/api.h"
 2245              		.file 28 "../../../ext/lwip/src/include/ipv4/lwip/ip.h"
 2246              		.file 29 "../../../ext/lwip/src/include/lwip/tcp.h"
 2247              		.file 30 "../../../ext/lwip/src/include/lwip/udp.h"
 2248              		.file 31 "../../../ext/lwip/src/include/lwip/api_msg.h"
 2249              		.file 32 "../../../os/ext/CMSIS/include/core_cm4.h"
 2250              		.file 33 "../../../ext/lwip/src/include/lwip/memp.h"
 2251              		.file 34 "../../../ext/lwip/src/include/lwip/sys.h"
 2252              		.file 35 "../../../ext/lwip/src/include/lwip/tcpip.h"
 2253              		.file 36 "../../../os/rt/include/chsys.h"
 2254              		.file 37 "c:\\program files\\gnu tools arm embedded\\4.9 2014q4\\arm-none-eabi\\include\\stdlib.h"