ARM GAS  C:\Users\jo\AppData\Local\Temp\ccCSMiNu.s 			page 1


   1              		.syntax unified
   2              		.cpu cortex-m4
   3              		.fpu softvfp
   4              		.eabi_attribute 20, 1
   5              		.eabi_attribute 21, 1
   6              		.eabi_attribute 23, 3
   7              		.eabi_attribute 24, 1
   8              		.eabi_attribute 25, 1
   9              		.eabi_attribute 26, 1
  10              		.eabi_attribute 30, 2
  11              		.eabi_attribute 34, 1
  12              		.eabi_attribute 18, 4
  13              		.thumb
  14              		.file	"api_msg.c"
  15              		.text
  16              	.Ltext0:
  17              		.cfi_sections	.debug_frame
  18              		.section	.text.setup_tcp,"ax",%progbits
  19              		.align	2
  20              		.p2align 4,,15
  21              		.thumb
  22              		.thumb_func
  23              		.type	setup_tcp, %function
  24              	setup_tcp:
  25              	.LFB265:
  26              		.file 1 "../../../ext/lwip/src/api/api_msg.c"
  27              		.loc 1 414 0
  28              		.cfi_startproc
  29              		@ args = 0, pretend = 0, frame = 0
  30              		@ frame_needed = 0, uses_anonymous_args = 0
  31              	.LVL0:
  32 0000 10B5     		push	{r4, lr}
  33              		.cfi_def_cfa_offset 8
  34              		.cfi_offset 4, -8
  35              		.cfi_offset 14, -4
  36              		.loc 1 417 0
  37 0002 4468     		ldr	r4, [r0, #4]
  38              	.LVL1:
  39              		.loc 1 418 0
  40 0004 0146     		mov	r1, r0
  41 0006 2046     		mov	r0, r4
  42              	.LVL2:
  43 0008 FFF7FEFF 		bl	tcp_arg
  44              	.LVL3:
  45              		.loc 1 419 0
  46 000c 2046     		mov	r0, r4
  47 000e 0949     		ldr	r1, .L3
  48 0010 FFF7FEFF 		bl	tcp_recv
  49              	.LVL4:
  50              		.loc 1 420 0
  51 0014 2046     		mov	r0, r4
  52 0016 0849     		ldr	r1, .L3+4
  53 0018 FFF7FEFF 		bl	tcp_sent
  54              	.LVL5:
  55              		.loc 1 421 0
  56 001c 2046     		mov	r0, r4
  57 001e 0749     		ldr	r1, .L3+8
ARM GAS  C:\Users\jo\AppData\Local\Temp\ccCSMiNu.s 			page 2


  58 0020 0422     		movs	r2, #4
  59 0022 FFF7FEFF 		bl	tcp_poll
  60              	.LVL6:
  61              		.loc 1 422 0
  62 0026 2046     		mov	r0, r4
  63 0028 0549     		ldr	r1, .L3+12
  64              		.loc 1 423 0
  65 002a BDE81040 		pop	{r4, lr}
  66              		.cfi_restore 14
  67              		.cfi_restore 4
  68              		.cfi_def_cfa_offset 0
  69              	.LVL7:
  70              		.loc 1 422 0
  71 002e FFF7FEBF 		b	tcp_err
  72              	.LVL8:
  73              	.L4:
  74 0032 00BF     		.align	2
  75              	.L3:
  76 0034 00000000 		.word	recv_tcp
  77 0038 00000000 		.word	sent_tcp
  78 003c 00000000 		.word	poll_tcp
  79 0040 00000000 		.word	err_tcp
  80              		.cfi_endproc
  81              	.LFE265:
  82              		.size	setup_tcp, .-setup_tcp
  83 0044 AFF30080 		.section	.text.chprintf.constprop.2,"ax",%progbits
  83      AFF30080 
  83      AFF30080 
  84              		.align	2
  85              		.p2align 4,,15
  86              		.thumb
  87              		.thumb_func
  88              		.type	chprintf.constprop.2, %function
  89              	chprintf.constprop.2:
  90              	.LFB287:
  91              		.file 2 "../../../os/hal/lib/streams/chprintf.h"
  92              		.loc 2 69 0
  93              		.cfi_startproc
  94              		@ args = 4, pretend = 12, frame = 8
  95              		@ frame_needed = 0, uses_anonymous_args = 1
  96              	.LVL9:
  97 0000 0EB4     		push	{r1, r2, r3}
  98              		.cfi_def_cfa_offset 12
  99              		.cfi_offset 1, -12
 100              		.cfi_offset 2, -8
 101              		.cfi_offset 3, -4
 102 0002 00B5     		push	{lr}
 103              		.cfi_def_cfa_offset 16
 104              		.cfi_offset 14, -16
 105 0004 82B0     		sub	sp, sp, #8
 106              		.cfi_def_cfa_offset 24
 107              		.loc 2 73 0
 108 0006 04AB     		add	r3, sp, #16
 109              		.loc 2 74 0
 110 0008 1A46     		mov	r2, r3
 111 000a 0549     		ldr	r1, .L7
 112 000c 0548     		ldr	r0, .L7+4
ARM GAS  C:\Users\jo\AppData\Local\Temp\ccCSMiNu.s 			page 3


 113              	.LVL10:
 114              		.loc 2 73 0
 115 000e 0193     		str	r3, [sp, #4]
 116              		.loc 2 74 0
 117 0010 FFF7FEFF 		bl	chvprintf
 118              	.LVL11:
 119              		.loc 2 78 0
 120 0014 02B0     		add	sp, sp, #8
 121              		.cfi_def_cfa_offset 16
 122              		@ sp needed
 123 0016 5DF804EB 		ldr	lr, [sp], #4
 124              		.cfi_restore 14
 125              		.cfi_def_cfa_offset 12
 126 001a 03B0     		add	sp, sp, #12
 127              		.cfi_restore 3
 128              		.cfi_restore 2
 129              		.cfi_restore 1
 130              		.cfi_def_cfa_offset 0
 131 001c 7047     		bx	lr
 132              	.L8:
 133 001e 00BF     		.align	2
 134              	.L7:
 135 0020 00000000 		.word	.LC0
 136 0024 00000000 		.word	itm_port
 137              		.cfi_endproc
 138              	.LFE287:
 139              		.size	chprintf.constprop.2, .-chprintf.constprop.2
 140 0028 AFF30080 		.section	.text.recv_tcp,"ax",%progbits
 140      AFF30080 
 141              		.align	2
 142              		.p2align 4,,15
 143              		.thumb
 144              		.thumb_func
 145              		.type	recv_tcp, %function
 146              	recv_tcp:
 147              	.LFB261:
 148              		.loc 1 217 0
 149              		.cfi_startproc
 150              		@ args = 0, pretend = 0, frame = 0
 151              		@ frame_needed = 0, uses_anonymous_args = 0
 152              	.LVL12:
 153 0000 2DE9F043 		push	{r4, r5, r6, r7, r8, r9, lr}
 154              		.cfi_def_cfa_offset 28
 155              		.cfi_offset 4, -28
 156              		.cfi_offset 5, -24
 157              		.cfi_offset 6, -20
 158              		.cfi_offset 7, -16
 159              		.cfi_offset 8, -12
 160              		.cfi_offset 9, -8
 161              		.cfi_offset 14, -4
 162 0004 0446     		mov	r4, r0
 163 0006 83B0     		sub	sp, sp, #12
 164              		.cfi_def_cfa_offset 40
 165              		.loc 1 217 0
 166 0008 1646     		mov	r6, r2
 167 000a 9946     		mov	r9, r3
 168              		.loc 1 222 0
ARM GAS  C:\Users\jo\AppData\Local\Temp\ccCSMiNu.s 			page 4


 169 000c 0F46     		mov	r7, r1
 170 000e 0029     		cmp	r1, #0
 171 0010 40D0     		beq	.L26
 172              	.LVL13:
 173              	.L10:
 174              		.loc 1 223 0
 175 0012 002C     		cmp	r4, #0
 176 0014 4CD0     		beq	.L27
 177              	.L11:
 178              	.LVL14:
 179              		.loc 1 225 0
 180 0016 6368     		ldr	r3, [r4, #4]
 181 0018 BB42     		cmp	r3, r7
 182 001a 0AD0     		beq	.L12
 183              		.loc 1 225 0 is_stmt 0 discriminator 1
 184 001c 2B4B     		ldr	r3, .L28
 185 001e 0093     		str	r3, [sp]
 186 0020 2B48     		ldr	r0, .L28+4
 187 0022 2C49     		ldr	r1, .L28+8
 188 0024 2C4A     		ldr	r2, .L28+12
 189 0026 E123     		movs	r3, #225
 190 0028 FFF7FEFF 		bl	chprintf.constprop.2
 191              	.LVL15:
 192              	.LBB89:
 193              	.LBB90:
 194              		.file 3 "../../../os/hal/osal/rt/osal.h"
 195              		.loc 3 416 0 is_stmt 1 discriminator 1
 196 002c 2A48     		ldr	r0, .L28+12
 197 002e FFF7FEFF 		bl	chSysHalt
 198              	.LVL16:
 199              	.L12:
 200              	.LBE90:
 201              	.LBE89:
 202              		.loc 1 230 0
 203 0032 04F11008 		add	r8, r4, #16
 204 0036 4046     		mov	r0, r8
 205 0038 FFF7FEFF 		bl	sys_mbox_valid
 206              	.LVL17:
 207 003c 0546     		mov	r5, r0
 208 003e 80B9     		cbnz	r0, .L13
 209              		.loc 1 232 0
 210 0040 56B1     		cbz	r6, .L18
 211              		.loc 1 233 0
 212 0042 3846     		mov	r0, r7
 213 0044 3189     		ldrh	r1, [r6, #8]
 214 0046 FFF7FEFF 		bl	tcp_recved
 215              	.LVL18:
 216              		.loc 1 234 0
 217 004a 3046     		mov	r0, r6
 218 004c FFF7FEFF 		bl	pbuf_free
 219              	.LVL19:
 220              	.L15:
 221              		.loc 1 263 0
 222 0050 68B2     		sxtb	r0, r5
 223 0052 03B0     		add	sp, sp, #12
 224              		.cfi_remember_state
 225              		.cfi_def_cfa_offset 28
ARM GAS  C:\Users\jo\AppData\Local\Temp\ccCSMiNu.s 			page 5


 226              		@ sp needed
 227 0054 BDE8F083 		pop	{r4, r5, r6, r7, r8, r9, pc}
 228              	.LVL20:
 229              	.L18:
 230              		.cfi_restore_state
 231              		.loc 1 236 0
 232 0058 0025     		movs	r5, #0
 233              		.loc 1 263 0
 234 005a 68B2     		sxtb	r0, r5
 235 005c 03B0     		add	sp, sp, #12
 236              		.cfi_remember_state
 237              		.cfi_def_cfa_offset 28
 238              		@ sp needed
 239 005e BDE8F083 		pop	{r4, r5, r6, r7, r8, r9, pc}
 240              	.LVL21:
 241              	.L13:
 242              		.cfi_restore_state
 243              		.loc 1 243 0
 244 0062 94F90830 		ldrsb	r3, [r4, #8]
 245 0066 0933     		adds	r3, r3, #9
 246 0068 A8BF     		it	ge
 247 006a 84F80890 		strbge	r9, [r4, #8]
 248              		.loc 1 245 0
 249 006e EEB1     		cbz	r6, .L19
 250              		.loc 1 246 0
 251 0070 3789     		ldrh	r7, [r6, #8]
 252              	.LVL22:
 253              	.L17:
 254              		.loc 1 251 0
 255 0072 4046     		mov	r0, r8
 256 0074 3146     		mov	r1, r6
 257 0076 FFF7FEFF 		bl	sys_mbox_trypost
 258              	.LVL23:
 259 007a 0546     		mov	r5, r0
 260 007c 20BB     		cbnz	r0, .L20
 261              		.loc 1 259 0
 262 007e A36A     		ldr	r3, [r4, #40]
 263 0080 002B     		cmp	r3, #0
 264 0082 E9D0     		beq	.L18
 265              		.loc 1 259 0 is_stmt 0 discriminator 1
 266 0084 2046     		mov	r0, r4
 267 0086 3A46     		mov	r2, r7
 268 0088 2946     		mov	r1, r5
 269 008a 9847     		blx	r3
 270              	.LVL24:
 271              		.loc 1 263 0 is_stmt 1 discriminator 1
 272 008c 68B2     		sxtb	r0, r5
 273 008e 03B0     		add	sp, sp, #12
 274              		.cfi_remember_state
 275              		.cfi_def_cfa_offset 28
 276              		@ sp needed
 277 0090 BDE8F083 		pop	{r4, r5, r6, r7, r8, r9, pc}
 278              	.LVL25:
 279              	.L26:
 280              		.cfi_restore_state
 281              		.loc 1 222 0 discriminator 1
 282 0094 0D4B     		ldr	r3, .L28
ARM GAS  C:\Users\jo\AppData\Local\Temp\ccCSMiNu.s 			page 6


 283              	.LVL26:
 284 0096 0093     		str	r3, [sp]
 285 0098 0E49     		ldr	r1, .L28+8
 286              	.LVL27:
 287 009a 104A     		ldr	r2, .L28+16
 288              	.LVL28:
 289 009c 0C48     		ldr	r0, .L28+4
 290              	.LVL29:
 291 009e DE23     		movs	r3, #222
 292 00a0 FFF7FEFF 		bl	chprintf.constprop.2
 293              	.LVL30:
 294              	.LBB91:
 295              	.LBB92:
 296              		.loc 3 416 0 discriminator 1
 297 00a4 0D48     		ldr	r0, .L28+16
 298 00a6 FFF7FEFF 		bl	chSysHalt
 299              	.LVL31:
 300 00aa B2E7     		b	.L10
 301              	.LVL32:
 302              	.L19:
 303              	.LBE92:
 304              	.LBE91:
 305              		.loc 1 248 0
 306 00ac 3746     		mov	r7, r6
 307              	.LVL33:
 308 00ae E0E7     		b	.L17
 309              	.LVL34:
 310              	.L27:
 311              		.loc 1 223 0 discriminator 1
 312 00b0 064B     		ldr	r3, .L28
 313 00b2 0093     		str	r3, [sp]
 314 00b4 0749     		ldr	r1, .L28+8
 315 00b6 0A4A     		ldr	r2, .L28+20
 316 00b8 0548     		ldr	r0, .L28+4
 317 00ba DF23     		movs	r3, #223
 318 00bc FFF7FEFF 		bl	chprintf.constprop.2
 319              	.LVL35:
 320              	.LBB93:
 321              	.LBB94:
 322              		.loc 3 416 0 discriminator 1
 323 00c0 0748     		ldr	r0, .L28+20
 324 00c2 FFF7FEFF 		bl	chSysHalt
 325              	.LVL36:
 326 00c6 A6E7     		b	.L11
 327              	.LVL37:
 328              	.L20:
 329              	.LBE94:
 330              	.LBE93:
 331              		.loc 1 253 0
 332 00c8 FF25     		movs	r5, #255
 333 00ca C1E7     		b	.L15
 334              	.L29:
 335              		.align	2
 336              	.L28:
 337 00cc 4C000000 		.word	.LC2
 338 00d0 00000000 		.word	itm_port
 339 00d4 00000000 		.word	.LC0
ARM GAS  C:\Users\jo\AppData\Local\Temp\ccCSMiNu.s 			page 7


 340 00d8 90000000 		.word	.LC4
 341 00dc 28000000 		.word	.LC1
 342 00e0 70000000 		.word	.LC3
 343              		.cfi_endproc
 344              	.LFE261:
 345              		.size	recv_tcp, .-recv_tcp
 346 00e4 AFF30080 		.section	.text.do_close_internal,"ax",%progbits
 346      AFF30080 
 346      AFF30080 
 347              		.align	2
 348              		.p2align 4,,15
 349              		.thumb
 350              		.thumb_func
 351              		.type	do_close_internal, %function
 352              	do_close_internal:
 353              	.LFB272:
 354              		.loc 1 748 0
 355              		.cfi_startproc
 356              		@ args = 0, pretend = 0, frame = 0
 357              		@ frame_needed = 0, uses_anonymous_args = 0
 358              	.LVL38:
 359 0000 F0B5     		push	{r4, r5, r6, r7, lr}
 360              		.cfi_def_cfa_offset 20
 361              		.cfi_offset 4, -20
 362              		.cfi_offset 5, -16
 363              		.cfi_offset 6, -12
 364              		.cfi_offset 7, -8
 365              		.cfi_offset 14, -4
 366              		.loc 1 752 0
 367 0002 0446     		mov	r4, r0
 368              		.loc 1 748 0
 369 0004 83B0     		sub	sp, sp, #12
 370              		.cfi_def_cfa_offset 32
 371              		.loc 1 752 0
 372 0006 0028     		cmp	r0, #0
 373 0008 00F0D280 		beq	.L79
 374              	.LVL39:
 375              	.L31:
 376              		.loc 1 753 0
 377 000c 2378     		ldrb	r3, [r4]	@ zero_extendqisi2
 378 000e 102B     		cmp	r3, #16
 379 0010 0BD0     		beq	.L32
 380              		.loc 1 753 0 is_stmt 0 discriminator 1
 381 0012 704B     		ldr	r3, .L88
 382 0014 0093     		str	r3, [sp]
 383 0016 7048     		ldr	r0, .L88+4
 384 0018 7049     		ldr	r1, .L88+8
 385 001a 714A     		ldr	r2, .L88+12
 386 001c 40F2F123 		movw	r3, #753
 387 0020 FFF7FEFF 		bl	chprintf.constprop.2
 388              	.LVL40:
 389              	.LBB95:
 390              	.LBB96:
 391              		.loc 3 416 0 is_stmt 1 discriminator 1
 392 0024 6E48     		ldr	r0, .L88+12
 393 0026 FFF7FEFF 		bl	chSysHalt
 394              	.LVL41:
ARM GAS  C:\Users\jo\AppData\Local\Temp\ccCSMiNu.s 			page 8


 395              	.L32:
 396              	.LBE96:
 397              	.LBE95:
 398              		.loc 1 754 0
 399 002a 6378     		ldrb	r3, [r4, #1]	@ zero_extendqisi2
 400 002c 042B     		cmp	r3, #4
 401 002e 0BD0     		beq	.L33
 402              		.loc 1 754 0 is_stmt 0 discriminator 1
 403 0030 684B     		ldr	r3, .L88
 404 0032 0093     		str	r3, [sp]
 405 0034 6848     		ldr	r0, .L88+4
 406 0036 6949     		ldr	r1, .L88+8
 407 0038 6A4A     		ldr	r2, .L88+16
 408 003a 40F2F223 		movw	r3, #754
 409 003e FFF7FEFF 		bl	chprintf.constprop.2
 410              	.LVL42:
 411              	.LBB97:
 412              	.LBB98:
 413              		.loc 3 416 0 is_stmt 1 discriminator 1
 414 0042 6848     		ldr	r0, .L88+16
 415 0044 FFF7FEFF 		bl	chSysHalt
 416              	.LVL43:
 417              	.L33:
 418              	.LBE98:
 419              	.LBE97:
 420              		.loc 1 755 0
 421 0048 6368     		ldr	r3, [r4, #4]
 422 004a 002B     		cmp	r3, #0
 423 004c 00F09580 		beq	.L80
 424              	.L34:
 425              		.loc 1 756 0
 426 0050 636A     		ldr	r3, [r4, #36]
 427 0052 002B     		cmp	r3, #0
 428 0054 00F09E80 		beq	.L81
 429              	.L35:
 430              		.loc 1 758 0
 431 0058 197A     		ldrb	r1, [r3, #8]	@ zero_extendqisi2
 432              	.LVL44:
 433              		.loc 1 766 0
 434 005a 6068     		ldr	r0, [r4, #4]
 435              		.loc 1 760 0
 436 005c 01F00206 		and	r6, r1, #2
 437              		.loc 1 762 0
 438 0060 A1F10307 		sub	r7, r1, #3
 439 0064 B7FA87F7 		clz	r7, r7
 440 0068 7F09     		lsrs	r7, r7, #5
 441              		.loc 1 760 0
 442 006a F6B2     		uxtb	r6, r6
 443              		.loc 1 759 0
 444 006c 01F00105 		and	r5, r1, #1
 445              	.LVL45:
 446              		.loc 1 765 0
 447 0070 002F     		cmp	r7, #0
 448 0072 69D1     		bne	.L82
 449              		.loc 1 768 0
 450 0074 037E     		ldrb	r3, [r0, #24]	@ zero_extendqisi2
 451 0076 012B     		cmp	r3, #1
ARM GAS  C:\Users\jo\AppData\Local\Temp\ccCSMiNu.s 			page 9


 452 0078 00F0A780 		beq	.L83
 453              	.LVL46:
 454              	.L55:
 455              		.loc 1 772 0
 456 007c 002D     		cmp	r5, #0
 457 007e 58D1     		bne	.L84
 458              		.loc 1 776 0
 459 0080 002E     		cmp	r6, #0
 460 0082 36D1     		bne	.L85
 461              	.L39:
 462              		.loc 1 779 0
 463 0084 002F     		cmp	r7, #0
 464 0086 3AD1     		bne	.L86
 465              	.L40:
 466              		.loc 1 788 0
 467 0088 2946     		mov	r1, r5
 468 008a 3246     		mov	r2, r6
 469 008c FFF7FEFF 		bl	tcp_shutdown
 470              	.LVL47:
 471              		.loc 1 790 0
 472 0090 C0B9     		cbnz	r0, .L42
 473              		.loc 1 792 0
 474 0092 636A     		ldr	r3, [r4, #36]
 475 0094 1871     		strb	r0, [r3, #4]
 476              		.loc 1 793 0
 477 0096 6062     		str	r0, [r4, #36]
 478              		.loc 1 794 0
 479 0098 6070     		strb	r0, [r4, #1]
 480              	.LVL48:
 481              	.L50:
 482              		.loc 1 802 0
 483 009a 2DB1     		cbz	r5, .L45
 484              		.loc 1 803 0
 485 009c A36A     		ldr	r3, [r4, #40]
 486 009e 53B1     		cbz	r3, .L47
 487              		.loc 1 803 0 is_stmt 0 discriminator 1
 488 00a0 0021     		movs	r1, #0
 489 00a2 0A46     		mov	r2, r1
 490 00a4 2046     		mov	r0, r4
 491 00a6 9847     		blx	r3
 492              	.LVL49:
 493              	.L45:
 494              		.loc 1 805 0 is_stmt 1
 495 00a8 2EB1     		cbz	r6, .L47
 496              		.loc 1 806 0
 497 00aa A36A     		ldr	r3, [r4, #40]
 498 00ac 1BB1     		cbz	r3, .L47
 499              		.loc 1 806 0 is_stmt 0 discriminator 1
 500 00ae 2046     		mov	r0, r4
 501 00b0 0221     		movs	r1, #2
 502 00b2 0022     		movs	r2, #0
 503 00b4 9847     		blx	r3
 504              	.LVL50:
 505              	.L47:
 506              		.loc 1 809 0 is_stmt 1
 507 00b6 04F10C00 		add	r0, r4, #12
 508              		.loc 1 822 0
ARM GAS  C:\Users\jo\AppData\Local\Temp\ccCSMiNu.s 			page 10


 509 00ba 03B0     		add	sp, sp, #12
 510              		.cfi_remember_state
 511              		.cfi_def_cfa_offset 20
 512              		@ sp needed
 513 00bc BDE8F040 		pop	{r4, r5, r6, r7, lr}
 514              		.cfi_restore 14
 515              		.cfi_restore 7
 516              		.cfi_restore 6
 517              		.cfi_restore 5
 518              		.cfi_restore 4
 519              		.cfi_def_cfa_offset 0
 520              	.LVL51:
 521              		.loc 1 809 0
 522 00c0 FFF7FEBF 		b	sys_sem_signal
 523              	.LVL52:
 524              	.L42:
 525              		.cfi_restore_state
 526              		.loc 1 813 0
 527 00c4 6068     		ldr	r0, [r4, #4]
 528              	.LVL53:
 529 00c6 037E     		ldrb	r3, [r0, #24]	@ zero_extendqisi2
 530 00c8 012B     		cmp	r3, #1
 531 00ca 48D0     		beq	.L87
 532              	.L49:
 533              		.loc 1 814 0
 534 00cc 4649     		ldr	r1, .L88+20
 535 00ce FFF7FEFF 		bl	tcp_sent
 536              	.LVL54:
 537              		.loc 1 815 0
 538 00d2 6068     		ldr	r0, [r4, #4]
 539 00d4 4549     		ldr	r1, .L88+24
 540 00d6 0422     		movs	r2, #4
 541 00d8 FFF7FEFF 		bl	tcp_poll
 542              	.LVL55:
 543              		.loc 1 816 0
 544 00dc 6068     		ldr	r0, [r4, #4]
 545 00de 4449     		ldr	r1, .L88+28
 546 00e0 FFF7FEFF 		bl	tcp_err
 547              	.LVL56:
 548              		.loc 1 817 0
 549 00e4 6068     		ldr	r0, [r4, #4]
 550 00e6 2146     		mov	r1, r4
 551              		.loc 1 822 0
 552 00e8 03B0     		add	sp, sp, #12
 553              		.cfi_remember_state
 554              		.cfi_def_cfa_offset 20
 555              		@ sp needed
 556 00ea BDE8F040 		pop	{r4, r5, r6, r7, lr}
 557              		.cfi_restore 14
 558              		.cfi_restore 7
 559              		.cfi_restore 6
 560              		.cfi_restore 5
 561              		.cfi_restore 4
 562              		.cfi_def_cfa_offset 0
 563              	.LVL57:
 564              		.loc 1 817 0
 565 00ee FFF7FEBF 		b	tcp_arg
ARM GAS  C:\Users\jo\AppData\Local\Temp\ccCSMiNu.s 			page 11


 566              	.LVL58:
 567              	.L85:
 568              		.cfi_restore_state
 569              		.loc 1 777 0
 570 00f2 0021     		movs	r1, #0
 571 00f4 FFF7FEFF 		bl	tcp_sent
 572              	.LVL59:
 573 00f8 6068     		ldr	r0, [r4, #4]
 574              		.loc 1 779 0
 575 00fa 002F     		cmp	r7, #0
 576 00fc C4D0     		beq	.L40
 577              	.L86:
 578              		.loc 1 780 0
 579 00fe 0021     		movs	r1, #0
 580 0100 0422     		movs	r2, #4
 581 0102 FFF7FEFF 		bl	tcp_poll
 582              	.LVL60:
 583              		.loc 1 781 0
 584 0106 6068     		ldr	r0, [r4, #4]
 585 0108 0021     		movs	r1, #0
 586 010a FFF7FEFF 		bl	tcp_err
 587              	.LVL61:
 588              	.L53:
 589              		.loc 1 786 0
 590 010e 6068     		ldr	r0, [r4, #4]
 591 0110 FFF7FEFF 		bl	tcp_close
 592              	.LVL62:
 593              		.loc 1 790 0
 594 0114 0028     		cmp	r0, #0
 595 0116 D5D1     		bne	.L42
 596              		.loc 1 792 0
 597 0118 636A     		ldr	r3, [r4, #36]
 598 011a 1871     		strb	r0, [r3, #4]
 599              		.loc 1 800 0
 600 011c A36A     		ldr	r3, [r4, #40]
 601              		.loc 1 793 0
 602 011e 6062     		str	r0, [r4, #36]
 603              		.loc 1 794 0
 604 0120 6070     		strb	r0, [r4, #1]
 605              		.loc 1 797 0
 606 0122 6060     		str	r0, [r4, #4]
 607              		.loc 1 800 0
 608 0124 002B     		cmp	r3, #0
 609 0126 BFD0     		beq	.L45
 610              		.loc 1 800 0 is_stmt 0 discriminator 1
 611 0128 0246     		mov	r2, r0
 612 012a 0421     		movs	r1, #4
 613 012c 2046     		mov	r0, r4
 614              	.LVL63:
 615 012e 9847     		blx	r3
 616              	.LVL64:
 617 0130 B3E7     		b	.L50
 618              	.L84:
 619              		.loc 1 773 0 is_stmt 1
 620 0132 0021     		movs	r1, #0
 621 0134 FFF7FEFF 		bl	tcp_recv
 622              	.LVL65:
ARM GAS  C:\Users\jo\AppData\Local\Temp\ccCSMiNu.s 			page 12


 623              		.loc 1 774 0
 624 0138 6068     		ldr	r0, [r4, #4]
 625 013a 0021     		movs	r1, #0
 626 013c FFF7FEFF 		bl	tcp_accept
 627              	.LVL66:
 628 0140 6068     		ldr	r0, [r4, #4]
 629              		.loc 1 776 0
 630 0142 002E     		cmp	r6, #0
 631 0144 9ED0     		beq	.L39
 632 0146 D4E7     		b	.L85
 633              	.LVL67:
 634              	.L82:
 635              		.loc 1 766 0
 636 0148 0021     		movs	r1, #0
 637              	.LVL68:
 638 014a FFF7FEFF 		bl	tcp_arg
 639              	.LVL69:
 640              		.loc 1 768 0
 641 014e 6068     		ldr	r0, [r4, #4]
 642 0150 037E     		ldrb	r3, [r0, #24]	@ zero_extendqisi2
 643 0152 012B     		cmp	r3, #1
 644 0154 92D1     		bne	.L55
 645              		.loc 1 769 0
 646 0156 0021     		movs	r1, #0
 647 0158 FFF7FEFF 		bl	tcp_accept
 648              	.LVL70:
 649 015c D7E7     		b	.L53
 650              	.L87:
 651              		.loc 1 813 0 discriminator 1
 652 015e 1D4B     		ldr	r3, .L88
 653 0160 0093     		str	r3, [sp]
 654 0162 1E49     		ldr	r1, .L88+8
 655 0164 234A     		ldr	r2, .L88+32
 656 0166 1C48     		ldr	r0, .L88+4
 657 0168 40F22D33 		movw	r3, #813
 658 016c FFF7FEFF 		bl	chprintf.constprop.2
 659              	.LVL71:
 660              	.LBB99:
 661              	.LBB100:
 662              		.loc 3 416 0 discriminator 1
 663 0170 2048     		ldr	r0, .L88+32
 664 0172 FFF7FEFF 		bl	chSysHalt
 665              	.LVL72:
 666 0176 6068     		ldr	r0, [r4, #4]
 667 0178 A8E7     		b	.L49
 668              	.LVL73:
 669              	.L80:
 670              	.LBE100:
 671              	.LBE99:
 672              		.loc 1 755 0 discriminator 1
 673 017a 164B     		ldr	r3, .L88
 674 017c 0093     		str	r3, [sp]
 675 017e 1749     		ldr	r1, .L88+8
 676 0180 1D4A     		ldr	r2, .L88+36
 677 0182 1548     		ldr	r0, .L88+4
 678 0184 40F2F323 		movw	r3, #755
 679 0188 FFF7FEFF 		bl	chprintf.constprop.2
ARM GAS  C:\Users\jo\AppData\Local\Temp\ccCSMiNu.s 			page 13


 680              	.LVL74:
 681              	.LBB101:
 682              	.LBB102:
 683              		.loc 3 416 0 discriminator 1
 684 018c 1A48     		ldr	r0, .L88+36
 685 018e FFF7FEFF 		bl	chSysHalt
 686              	.LVL75:
 687 0192 5DE7     		b	.L34
 688              	.LVL76:
 689              	.L81:
 690              	.LBE102:
 691              	.LBE101:
 692              		.loc 1 756 0 discriminator 1
 693 0194 0F4B     		ldr	r3, .L88
 694 0196 0093     		str	r3, [sp]
 695 0198 1049     		ldr	r1, .L88+8
 696 019a 184A     		ldr	r2, .L88+40
 697 019c 0E48     		ldr	r0, .L88+4
 698 019e 4FF43D73 		mov	r3, #756
 699 01a2 FFF7FEFF 		bl	chprintf.constprop.2
 700              	.LVL77:
 701              	.LBB103:
 702              	.LBB104:
 703              		.loc 3 416 0 discriminator 1
 704 01a6 1548     		ldr	r0, .L88+40
 705 01a8 FFF7FEFF 		bl	chSysHalt
 706              	.LVL78:
 707 01ac 636A     		ldr	r3, [r4, #36]
 708 01ae 53E7     		b	.L35
 709              	.LVL79:
 710              	.L79:
 711              	.LBE104:
 712              	.LBE103:
 713              		.loc 1 752 0 discriminator 1
 714 01b0 084B     		ldr	r3, .L88
 715 01b2 0093     		str	r3, [sp]
 716 01b4 0949     		ldr	r1, .L88+8
 717 01b6 124A     		ldr	r2, .L88+44
 718 01b8 0748     		ldr	r0, .L88+4
 719              	.LVL80:
 720 01ba 4FF43C73 		mov	r3, #752
 721 01be FFF7FEFF 		bl	chprintf.constprop.2
 722              	.LVL81:
 723              	.LBB105:
 724              	.LBB106:
 725              		.loc 3 416 0 discriminator 1
 726 01c2 0F48     		ldr	r0, .L88+44
 727 01c4 FFF7FEFF 		bl	chSysHalt
 728              	.LVL82:
 729 01c8 20E7     		b	.L31
 730              	.LVL83:
 731              	.L83:
 732              	.LBE106:
 733              	.LBE105:
 734              		.loc 1 769 0
 735 01ca 3946     		mov	r1, r7
 736              	.LVL84:
ARM GAS  C:\Users\jo\AppData\Local\Temp\ccCSMiNu.s 			page 14


 737 01cc FFF7FEFF 		bl	tcp_accept
 738              	.LVL85:
 739 01d0 6068     		ldr	r0, [r4, #4]
 740 01d2 59E7     		b	.L40
 741              	.L89:
 742              		.align	2
 743              	.L88:
 744 01d4 4C000000 		.word	.LC2
 745 01d8 00000000 		.word	itm_port
 746 01dc 00000000 		.word	.LC0
 747 01e0 C0000000 		.word	.LC6
 748 01e4 E0000000 		.word	.LC7
 749 01e8 00000000 		.word	sent_tcp
 750 01ec 00000000 		.word	poll_tcp
 751 01f0 00000000 		.word	err_tcp
 752 01f4 34010000 		.word	.LC10
 753 01f8 04010000 		.word	.LC8
 754 01fc 18010000 		.word	.LC9
 755 0200 B0000000 		.word	.LC5
 756              		.cfi_endproc
 757              	.LFE272:
 758              		.size	do_close_internal, .-do_close_internal
 759 0204 AFF30080 		.section	.text.do_writemore,"ax",%progbits
 759      AFF30080 
 759      AFF30080 
 760              		.align	2
 761              		.p2align 4,,15
 762              		.thumb
 763              		.thumb_func
 764              		.type	do_writemore, %function
 765              	do_writemore:
 766              	.LFB281:
 767              		.loc 1 1209 0
 768              		.cfi_startproc
 769              		@ args = 0, pretend = 0, frame = 0
 770              		@ frame_needed = 0, uses_anonymous_args = 0
 771              	.LVL86:
 772 0000 2DE9F043 		push	{r4, r5, r6, r7, r8, r9, lr}
 773              		.cfi_def_cfa_offset 28
 774              		.cfi_offset 4, -28
 775              		.cfi_offset 5, -24
 776              		.cfi_offset 6, -20
 777              		.cfi_offset 7, -16
 778              		.cfi_offset 8, -12
 779              		.cfi_offset 9, -8
 780              		.cfi_offset 14, -4
 781              		.loc 1 1215 0
 782 0004 037F     		ldrb	r3, [r0, #28]	@ zero_extendqisi2
 783 0006 13F0020F 		tst	r3, #2
 784 000a 436A     		ldr	r3, [r0, #36]
 785              		.loc 1 1216 0
 786 000c 0CBF     		ite	eq
 787 000e 1E7C     		ldrbeq	r6, [r3, #16]	@ zero_extendqisi2
 788 0010 1E7C     		ldrbne	r6, [r3, #16]	@ zero_extendqisi2
 789              		.loc 1 1220 0
 790 0012 4378     		ldrb	r3, [r0, #1]	@ zero_extendqisi2
 791              		.loc 1 1215 0
ARM GAS  C:\Users\jo\AppData\Local\Temp\ccCSMiNu.s 			page 15


 792 0014 14BF     		ite	ne
 793 0016 4FF00108 		movne	r8, #1
 794 001a C6F38008 		ubfxeq	r8, r6, #2, #1
 795              	.LVL87:
 796              		.loc 1 1220 0
 797 001e 012B     		cmp	r3, #1
 798              		.loc 1 1209 0
 799 0020 83B0     		sub	sp, sp, #12
 800              		.cfi_def_cfa_offset 40
 801              		.loc 1 1209 0
 802 0022 0446     		mov	r4, r0
 803              		.loc 1 1220 0
 804 0024 0FD0     		beq	.L93
 805              		.loc 1 1220 0 is_stmt 0 discriminator 1
 806 0026 6E4D     		ldr	r5, .L143
 807 0028 6E49     		ldr	r1, .L143+4
 808 002a 6F4A     		ldr	r2, .L143+8
 809 002c 0095     		str	r5, [sp]
 810 002e 40F2C443 		movw	r3, #1220
 811 0032 6E48     		ldr	r0, .L143+12
 812              	.LVL88:
 813 0034 FFF7FEFF 		bl	chprintf.constprop.2
 814              	.LVL89:
 815              	.LBB107:
 816              	.LBB108:
 817              		.loc 3 416 0 is_stmt 1 discriminator 1
 818 0038 6B48     		ldr	r0, .L143+8
 819 003a FFF7FEFF 		bl	chSysHalt
 820              	.LVL90:
 821              	.LBE108:
 822              	.LBE107:
 823              		.loc 1 1221 0 discriminator 1
 824 003e 636A     		ldr	r3, [r4, #36]
 825 0040 002B     		cmp	r3, #0
 826 0042 00F0A080 		beq	.L136
 827              	.LVL91:
 828              	.L93:
 829              		.loc 1 1222 0
 830 0046 6368     		ldr	r3, [r4, #4]
 831 0048 002B     		cmp	r3, #0
 832 004a 00F0AE80 		beq	.L137
 833              	.L94:
 834              		.loc 1 1223 0
 835 004e 616A     		ldr	r1, [r4, #36]
 836 0050 236A     		ldr	r3, [r4, #32]
 837 0052 CA68     		ldr	r2, [r1, #12]
 838 0054 9342     		cmp	r3, r2
 839 0056 54D2     		bcs	.L138
 840              	.L95:
 841              		.loc 1 1253 0
 842 0058 6068     		ldr	r0, [r4, #4]
 843              		.loc 1 1242 0
 844 005a 8F68     		ldr	r7, [r1, #8]
 845              		.loc 1 1253 0
 846 005c B0F86690 		ldrh	r9, [r0, #102]
 847              		.loc 1 1243 0
 848 0060 D51A     		subs	r5, r2, r3
ARM GAS  C:\Users\jo\AppData\Local\Temp\ccCSMiNu.s 			page 16


 849              		.loc 1 1244 0
 850 0062 B5F5803F 		cmp	r5, #65536
 851              		.loc 1 1245 0
 852 0066 2ABF     		itet	cs
 853 0068 4FF6FF75 		movwcs	r5, #65535
 854              		.loc 1 1251 0
 855 006c ADB2     		uxthcc	r5, r5
 856              		.loc 1 1249 0
 857 006e 46F00206 		orrcs	r6, r6, #2
 858              	.LVL92:
 859              		.loc 1 1254 0
 860 0072 4D45     		cmp	r5, r9
 861              		.loc 1 1242 0
 862 0074 1F44     		add	r7, r7, r3
 863              	.LVL93:
 864              		.loc 1 1254 0
 865 0076 33D9     		bls	.L98
 866              	.LVL94:
 867              		.loc 1 1257 0
 868 0078 B8F1000F 		cmp	r8, #0
 869 007c 2DD0     		beq	.L99
 870              		.loc 1 1258 0
 871 007e B9F1000F 		cmp	r9, #0
 872 0082 2CD1     		bne	.L134
 873              	.LVL95:
 874              		.loc 1 1274 0
 875 0084 002A     		cmp	r2, #0
 876 0086 40F09D80 		bne	.L118
 877              		.loc 1 1283 0
 878 008a A36A     		ldr	r3, [r4, #40]
 879              		.loc 1 1259 0
 880 008c F926     		movs	r6, #249
 881              	.LVL96:
 882              		.loc 1 1283 0
 883 008e 002B     		cmp	r3, #0
 884 0090 67D0     		beq	.L108
 885 0092 1546     		mov	r5, r2
 886 0094 2046     		mov	r0, r4
 887 0096 0321     		movs	r1, #3
 888 0098 2A46     		mov	r2, r5
 889 009a 9847     		blx	r3
 890              	.LVL97:
 891              	.L106:
 892              		.loc 1 1287 0
 893 009c 002E     		cmp	r6, #0
 894 009e 60D1     		bne	.L108
 895              		.loc 1 1288 0
 896 00a0 236A     		ldr	r3, [r4, #32]
 897              		.loc 1 1289 0
 898 00a2 626A     		ldr	r2, [r4, #36]
 899              		.loc 1 1288 0
 900 00a4 1D44     		add	r5, r5, r3
 901              	.LVL98:
 902 00a6 2562     		str	r5, [r4, #32]
 903              		.loc 1 1289 0
 904 00a8 D368     		ldr	r3, [r2, #12]
 905 00aa 9D42     		cmp	r5, r3
ARM GAS  C:\Users\jo\AppData\Local\Temp\ccCSMiNu.s 			page 17


 906 00ac 02D0     		beq	.L109
 907              		.loc 1 1289 0 is_stmt 0 discriminator 1
 908 00ae B8F1000F 		cmp	r8, #0
 909 00b2 5CD0     		beq	.L110
 910              	.L109:
 911              		.loc 1 1291 0 is_stmt 1
 912 00b4 D560     		str	r5, [r2, #12]
 913              	.LVL99:
 914              		.loc 1 1294 0
 915 00b6 0023     		movs	r3, #0
 916              		.loc 1 1296 0
 917 00b8 6068     		ldr	r0, [r4, #4]
 918              		.loc 1 1294 0
 919 00ba 2362     		str	r3, [r4, #32]
 920              		.loc 1 1296 0
 921 00bc FFF7FEFF 		bl	tcp_output
 922              	.LVL100:
 923              	.L111:
 924              		.loc 1 1318 0
 925 00c0 626A     		ldr	r2, [r4, #36]
 926              		.loc 1 1319 0
 927 00c2 0023     		movs	r3, #0
 928              		.loc 1 1318 0
 929 00c4 1671     		strb	r6, [r2, #4]
 930              		.loc 1 1325 0
 931 00c6 04F10C00 		add	r0, r4, #12
 932              		.loc 1 1319 0
 933 00ca 6362     		str	r3, [r4, #36]
 934              		.loc 1 1320 0
 935 00cc 6370     		strb	r3, [r4, #1]
 936              		.loc 1 1325 0
 937 00ce FFF7FEFF 		bl	sys_sem_signal
 938              	.LVL101:
 939              		.loc 1 1333 0
 940 00d2 0020     		movs	r0, #0
 941 00d4 03B0     		add	sp, sp, #12
 942              		.cfi_remember_state
 943              		.cfi_def_cfa_offset 28
 944              		@ sp needed
 945 00d6 BDE8F083 		pop	{r4, r5, r6, r7, r8, r9, pc}
 946              	.LVL102:
 947              	.L99:
 948              		.cfi_restore_state
 949              		.loc 1 1266 0
 950 00da 46F00206 		orr	r6, r6, #2
 951              	.LVL103:
 952              	.L134:
 953 00de 4D46     		mov	r5, r9
 954              	.LVL104:
 955              	.L98:
 956              		.loc 1 1269 0
 957 00e0 2B44     		add	r3, r3, r5
 958 00e2 9342     		cmp	r3, r2
 959 00e4 1DD8     		bhi	.L139
 960              	.L101:
 961              		.loc 1 1270 0
 962 00e6 3346     		mov	r3, r6
ARM GAS  C:\Users\jo\AppData\Local\Temp\ccCSMiNu.s 			page 18


 963 00e8 3946     		mov	r1, r7
 964 00ea 2A46     		mov	r2, r5
 965 00ec FFF7FEFF 		bl	tcp_write
 966              	.LVL105:
 967              		.loc 1 1272 0
 968 00f0 431C     		adds	r3, r0, #1
 969 00f2 DBB2     		uxtb	r3, r3
 970 00f4 012B     		cmp	r3, #1
 971              		.loc 1 1270 0
 972 00f6 0646     		mov	r6, r0
 973              	.LVL106:
 974              		.loc 1 1272 0
 975 00f8 21D9     		bls	.L140
 976              	.LVL107:
 977              	.L112:
 978              		.loc 1 1312 0
 979 00fa 636A     		ldr	r3, [r4, #36]
 980 00fc 0022     		movs	r2, #0
 981 00fe DA60     		str	r2, [r3, #12]
 982 0100 DEE7     		b	.L111
 983              	.LVL108:
 984              	.L138:
 985              		.loc 1 1223 0 discriminator 1
 986 0102 374B     		ldr	r3, .L143
 987 0104 3749     		ldr	r1, .L143+4
 988 0106 3A4A     		ldr	r2, .L143+16
 989 0108 0093     		str	r3, [sp]
 990 010a 3848     		ldr	r0, .L143+12
 991 010c 4FF49963 		mov	r3, #1224
 992 0110 FFF7FEFF 		bl	chprintf.constprop.2
 993              	.LVL109:
 994              	.LBB109:
 995              	.LBB110:
 996              		.loc 3 416 0 discriminator 1
 997 0114 3648     		ldr	r0, .L143+16
 998 0116 FFF7FEFF 		bl	chSysHalt
 999              	.LVL110:
 1000 011a 616A     		ldr	r1, [r4, #36]
 1001 011c 236A     		ldr	r3, [r4, #32]
 1002 011e CA68     		ldr	r2, [r1, #12]
 1003 0120 9AE7     		b	.L95
 1004              	.LVL111:
 1005              	.L139:
 1006              	.LBE110:
 1007              	.LBE109:
 1008              		.loc 1 1269 0 discriminator 1
 1009 0122 2F4B     		ldr	r3, .L143
 1010 0124 0093     		str	r3, [sp]
 1011 0126 2F49     		ldr	r1, .L143+4
 1012 0128 324A     		ldr	r2, .L143+20
 1013 012a 3048     		ldr	r0, .L143+12
 1014 012c 40F2F543 		movw	r3, #1269
 1015 0130 FFF7FEFF 		bl	chprintf.constprop.2
 1016              	.LVL112:
 1017              	.LBB111:
 1018              	.LBB112:
 1019              		.loc 3 416 0 discriminator 1
ARM GAS  C:\Users\jo\AppData\Local\Temp\ccCSMiNu.s 			page 19


 1020 0134 2F48     		ldr	r0, .L143+20
 1021 0136 FFF7FEFF 		bl	chSysHalt
 1022              	.LVL113:
 1023 013a 6068     		ldr	r0, [r4, #4]
 1024 013c D3E7     		b	.L101
 1025              	.LVL114:
 1026              	.L140:
 1027              	.L103:
 1028              	.LBE112:
 1029              	.LBE111:
 1030              		.loc 1 1274 0
 1031 013e B8F1000F 		cmp	r8, #0
 1032 0142 2CD1     		bne	.L141
 1033              	.L104:
 1034              		.loc 1 1279 0
 1035 0144 6368     		ldr	r3, [r4, #4]
 1036 0146 B3F86610 		ldrh	r1, [r3, #102]
 1037 014a 40F66832 		movw	r2, #2920
 1038 014e 9142     		cmp	r1, r2
 1039 0150 14D8     		bhi	.L142
 1040              	.L107:
 1041              		.loc 1 1283 0
 1042 0152 A36A     		ldr	r3, [r4, #40]
 1043 0154 002B     		cmp	r3, #0
 1044 0156 A1D0     		beq	.L106
 1045 0158 2046     		mov	r0, r4
 1046 015a 0321     		movs	r1, #3
 1047 015c 2A46     		mov	r2, r5
 1048 015e 9847     		blx	r3
 1049              	.LVL115:
 1050 0160 9CE7     		b	.L106
 1051              	.LVL116:
 1052              	.L108:
 1053              		.loc 1 1297 0
 1054 0162 73B2     		sxtb	r3, r6
 1055 0164 0133     		adds	r3, r3, #1
 1056 0166 C8D1     		bne	.L112
 1057              		.loc 1 1297 0 is_stmt 0 discriminator 1
 1058 0168 B8F1000F 		cmp	r8, #0
 1059 016c C5D1     		bne	.L112
 1060              	.L110:
 1061              		.loc 1 1296 0 is_stmt 1
 1062 016e 6068     		ldr	r0, [r4, #4]
 1063 0170 FFF7FEFF 		bl	tcp_output
 1064              	.LVL117:
 1065              		.loc 1 1333 0
 1066 0174 0020     		movs	r0, #0
 1067 0176 03B0     		add	sp, sp, #12
 1068              		.cfi_remember_state
 1069              		.cfi_def_cfa_offset 28
 1070              		@ sp needed
 1071 0178 BDE8F083 		pop	{r4, r5, r6, r7, r8, r9, pc}
 1072              	.LVL118:
 1073              	.L142:
 1074              		.cfi_restore_state
 1075              		.loc 1 1279 0 discriminator 1
 1076 017c B3F86830 		ldrh	r3, [r3, #104]
ARM GAS  C:\Users\jo\AppData\Local\Temp\ccCSMiNu.s 			page 20


 1077 0180 072B     		cmp	r3, #7
 1078 0182 8BD9     		bls	.L106
 1079 0184 E5E7     		b	.L107
 1080              	.LVL119:
 1081              	.L136:
 1082              		.loc 1 1221 0 discriminator 1
 1083 0186 0095     		str	r5, [sp]
 1084 0188 1649     		ldr	r1, .L143+4
 1085 018a 1B4A     		ldr	r2, .L143+24
 1086 018c 1748     		ldr	r0, .L143+12
 1087 018e 40F2C543 		movw	r3, #1221
 1088 0192 FFF7FEFF 		bl	chprintf.constprop.2
 1089              	.LVL120:
 1090              	.LBB113:
 1091              	.LBB114:
 1092              		.loc 3 416 0 discriminator 1
 1093 0196 1848     		ldr	r0, .L143+24
 1094 0198 FFF7FEFF 		bl	chSysHalt
 1095              	.LVL121:
 1096 019c 53E7     		b	.L93
 1097              	.LVL122:
 1098              	.L141:
 1099 019e 636A     		ldr	r3, [r4, #36]
 1100              	.LBE114:
 1101              	.LBE113:
 1102              		.loc 1 1274 0
 1103 01a0 DB68     		ldr	r3, [r3, #12]
 1104 01a2 9D42     		cmp	r5, r3
 1105 01a4 CED2     		bcs	.L104
 1106 01a6 A946     		mov	r9, r5
 1107              	.LVL123:
 1108 01a8 0DE0     		b	.L114
 1109              	.LVL124:
 1110              	.L137:
 1111              		.loc 1 1222 0 discriminator 1
 1112 01aa 0D4B     		ldr	r3, .L143
 1113 01ac 0093     		str	r3, [sp]
 1114 01ae 0D49     		ldr	r1, .L143+4
 1115 01b0 124A     		ldr	r2, .L143+28
 1116 01b2 0E48     		ldr	r0, .L143+12
 1117 01b4 40F2C643 		movw	r3, #1222
 1118 01b8 FFF7FEFF 		bl	chprintf.constprop.2
 1119              	.LVL125:
 1120              	.LBB115:
 1121              	.LBB116:
 1122              		.loc 3 416 0 discriminator 1
 1123 01bc 0F48     		ldr	r0, .L143+28
 1124 01be FFF7FEFF 		bl	chSysHalt
 1125              	.LVL126:
 1126 01c2 44E7     		b	.L94
 1127              	.LVL127:
 1128              	.L118:
 1129              	.LBE116:
 1130              	.LBE115:
 1131              		.loc 1 1259 0
 1132 01c4 F926     		movs	r6, #249
 1133              	.LVL128:
ARM GAS  C:\Users\jo\AppData\Local\Temp\ccCSMiNu.s 			page 21


 1134              	.L114:
 1135              		.loc 1 1277 0
 1136 01c6 A36A     		ldr	r3, [r4, #40]
 1137 01c8 1BB1     		cbz	r3, .L105
 1138              		.loc 1 1277 0 is_stmt 0 discriminator 1
 1139 01ca 2046     		mov	r0, r4
 1140 01cc 0321     		movs	r1, #3
 1141 01ce 4A46     		mov	r2, r9
 1142 01d0 9847     		blx	r3
 1143              	.LVL129:
 1144              	.L105:
 1145              		.loc 1 1278 0 is_stmt 1
 1146 01d2 237F     		ldrb	r3, [r4, #28]	@ zero_extendqisi2
 1147 01d4 43F01003 		orr	r3, r3, #16
 1148 01d8 4D46     		mov	r5, r9
 1149 01da 2377     		strb	r3, [r4, #28]
 1150 01dc 5EE7     		b	.L106
 1151              	.L144:
 1152 01de 00BF     		.align	2
 1153              	.L143:
 1154 01e0 4C000000 		.word	.LC2
 1155 01e4 00000000 		.word	.LC0
 1156 01e8 58010000 		.word	.LC11
 1157 01ec 00000000 		.word	itm_port
 1158 01f0 90010000 		.word	.LC13
 1159 01f4 C4010000 		.word	.LC14
 1160 01f8 18010000 		.word	.LC9
 1161 01fc 78010000 		.word	.LC12
 1162              		.cfi_endproc
 1163              	.LFE281:
 1164              		.size	do_writemore, .-do_writemore
 1165              		.section	.text.poll_tcp,"ax",%progbits
 1166              		.align	2
 1167              		.p2align 4,,15
 1168              		.thumb
 1169              		.thumb_func
 1170              		.type	poll_tcp, %function
 1171              	poll_tcp:
 1172              	.LFB262:
 1173              		.loc 1 278 0
 1174              		.cfi_startproc
 1175              		@ args = 0, pretend = 0, frame = 0
 1176              		@ frame_needed = 0, uses_anonymous_args = 0
 1177              	.LVL130:
 1178 0000 30B5     		push	{r4, r5, lr}
 1179              		.cfi_def_cfa_offset 12
 1180              		.cfi_offset 4, -12
 1181              		.cfi_offset 5, -8
 1182              		.cfi_offset 14, -4
 1183              		.loc 1 282 0
 1184 0002 0446     		mov	r4, r0
 1185              		.loc 1 278 0
 1186 0004 83B0     		sub	sp, sp, #12
 1187              		.cfi_def_cfa_offset 24
 1188              		.loc 1 282 0
 1189 0006 38B3     		cbz	r0, .L159
 1190              	.LVL131:
ARM GAS  C:\Users\jo\AppData\Local\Temp\ccCSMiNu.s 			page 22


 1191              	.L146:
 1192              		.loc 1 284 0
 1193 0008 6378     		ldrb	r3, [r4, #1]	@ zero_extendqisi2
 1194 000a 012B     		cmp	r3, #1
 1195 000c 1CD0     		beq	.L160
 1196              		.loc 1 286 0
 1197 000e 042B     		cmp	r3, #4
 1198 0010 1ED0     		beq	.L161
 1199              	.L148:
 1200              		.loc 1 292 0
 1201 0012 237F     		ldrb	r3, [r4, #28]	@ zero_extendqisi2
 1202 0014 DA06     		lsls	r2, r3, #27
 1203 0016 14D5     		bpl	.L150
 1204              		.loc 1 295 0
 1205 0018 6268     		ldr	r2, [r4, #4]
 1206 001a 92B1     		cbz	r2, .L150
 1207              		.loc 1 295 0 is_stmt 0 discriminator 1
 1208 001c B2F86600 		ldrh	r0, [r2, #102]
 1209 0020 40F66831 		movw	r1, #2920
 1210 0024 8842     		cmp	r0, r1
 1211 0026 0CD9     		bls	.L150
 1212              		.loc 1 295 0 discriminator 2
 1213 0028 B2F86820 		ldrh	r2, [r2, #104]
 1214 002c 072A     		cmp	r2, #7
 1215 002e 08D8     		bhi	.L150
 1216              		.loc 1 298 0 is_stmt 1
 1217 0030 A56A     		ldr	r5, [r4, #40]
 1218              		.loc 1 297 0
 1219 0032 23F01003 		bic	r3, r3, #16
 1220 0036 2377     		strb	r3, [r4, #28]
 1221              		.loc 1 298 0
 1222 0038 1DB1     		cbz	r5, .L150
 1223              		.loc 1 298 0 is_stmt 0 discriminator 1
 1224 003a 2046     		mov	r0, r4
 1225 003c 0221     		movs	r1, #2
 1226 003e 0022     		movs	r2, #0
 1227 0040 A847     		blx	r5
 1228              	.LVL132:
 1229              	.L150:
 1230              		.loc 1 303 0 is_stmt 1
 1231 0042 0020     		movs	r0, #0
 1232 0044 03B0     		add	sp, sp, #12
 1233              		.cfi_remember_state
 1234              		.cfi_def_cfa_offset 12
 1235              		@ sp needed
 1236 0046 30BD     		pop	{r4, r5, pc}
 1237              	.LVL133:
 1238              	.L160:
 1239              		.cfi_restore_state
 1240              		.loc 1 285 0
 1241 0048 2046     		mov	r0, r4
 1242 004a FFF7FEFF 		bl	do_writemore
 1243              	.LVL134:
 1244 004e E0E7     		b	.L148
 1245              	.L161:
 1246              		.loc 1 287 0
 1247 0050 2046     		mov	r0, r4
ARM GAS  C:\Users\jo\AppData\Local\Temp\ccCSMiNu.s 			page 23


 1248 0052 FFF7FEFF 		bl	do_close_internal
 1249              	.LVL135:
 1250 0056 DCE7     		b	.L148
 1251              	.LVL136:
 1252              	.L159:
 1253              		.loc 1 282 0 discriminator 1
 1254 0058 064B     		ldr	r3, .L162
 1255 005a 0093     		str	r3, [sp]
 1256 005c 0649     		ldr	r1, .L162+4
 1257              	.LVL137:
 1258 005e 074A     		ldr	r2, .L162+8
 1259 0060 0748     		ldr	r0, .L162+12
 1260              	.LVL138:
 1261 0062 4FF48D73 		mov	r3, #282
 1262 0066 FFF7FEFF 		bl	chprintf.constprop.2
 1263              	.LVL139:
 1264              	.LBB117:
 1265              	.LBB118:
 1266              		.loc 3 416 0 discriminator 1
 1267 006a 0448     		ldr	r0, .L162+8
 1268 006c FFF7FEFF 		bl	chSysHalt
 1269              	.LVL140:
 1270 0070 CAE7     		b	.L146
 1271              	.L163:
 1272 0072 00BF     		.align	2
 1273              	.L162:
 1274 0074 4C000000 		.word	.LC2
 1275 0078 00000000 		.word	.LC0
 1276 007c E4010000 		.word	.LC15
 1277 0080 00000000 		.word	itm_port
 1278              	.LBE118:
 1279              	.LBE117:
 1280              		.cfi_endproc
 1281              	.LFE262:
 1282              		.size	poll_tcp, .-poll_tcp
 1283 0084 AFF30080 		.section	.text.sent_tcp,"ax",%progbits
 1283      AFF30080 
 1283      AFF30080 
 1284              		.align	2
 1285              		.p2align 4,,15
 1286              		.thumb
 1287              		.thumb_func
 1288              		.type	sent_tcp, %function
 1289              	sent_tcp:
 1290              	.LFB263:
 1291              		.loc 1 314 0
 1292              		.cfi_startproc
 1293              		@ args = 0, pretend = 0, frame = 0
 1294              		@ frame_needed = 0, uses_anonymous_args = 0
 1295              	.LVL141:
 1296 0000 70B5     		push	{r4, r5, r6, lr}
 1297              		.cfi_def_cfa_offset 16
 1298              		.cfi_offset 4, -16
 1299              		.cfi_offset 5, -12
 1300              		.cfi_offset 6, -8
 1301              		.cfi_offset 14, -4
 1302 0002 1546     		mov	r5, r2
ARM GAS  C:\Users\jo\AppData\Local\Temp\ccCSMiNu.s 			page 24


 1303 0004 82B0     		sub	sp, sp, #8
 1304              		.cfi_def_cfa_offset 24
 1305              		.loc 1 318 0
 1306 0006 0446     		mov	r4, r0
 1307 0008 28B3     		cbz	r0, .L175
 1308              	.LVL142:
 1309              	.L165:
 1310              		.loc 1 320 0
 1311 000a 6378     		ldrb	r3, [r4, #1]	@ zero_extendqisi2
 1312 000c 012B     		cmp	r3, #1
 1313 000e 1AD0     		beq	.L176
 1314              		.loc 1 322 0
 1315 0010 042B     		cmp	r3, #4
 1316 0012 1CD0     		beq	.L177
 1317              	.L167:
 1318              		.loc 1 329 0
 1319 0014 6368     		ldr	r3, [r4, #4]
 1320 0016 9BB1     		cbz	r3, .L169
 1321              		.loc 1 329 0 is_stmt 0 discriminator 1
 1322 0018 B3F86610 		ldrh	r1, [r3, #102]
 1323 001c 40F66832 		movw	r2, #2920
 1324 0020 9142     		cmp	r1, r2
 1325 0022 0DD9     		bls	.L169
 1326              		.loc 1 329 0 discriminator 2
 1327 0024 B3F86830 		ldrh	r3, [r3, #104]
 1328 0028 072B     		cmp	r3, #7
 1329 002a 09D8     		bhi	.L169
 1330              	.LVL143:
 1331              	.LBB125:
 1332              	.LBB126:
 1333              		.loc 1 331 0 is_stmt 1
 1334 002c 237F     		ldrb	r3, [r4, #28]	@ zero_extendqisi2
 1335              		.loc 1 332 0
 1336 002e A66A     		ldr	r6, [r4, #40]
 1337              		.loc 1 331 0
 1338 0030 23F01003 		bic	r3, r3, #16
 1339 0034 2377     		strb	r3, [r4, #28]
 1340              		.loc 1 332 0
 1341 0036 1EB1     		cbz	r6, .L169
 1342 0038 2046     		mov	r0, r4
 1343 003a 2A46     		mov	r2, r5
 1344 003c 0221     		movs	r1, #2
 1345 003e B047     		blx	r6
 1346              	.LVL144:
 1347              	.L169:
 1348              	.LBE126:
 1349              	.LBE125:
 1350              		.loc 1 337 0
 1351 0040 0020     		movs	r0, #0
 1352 0042 02B0     		add	sp, sp, #8
 1353              		.cfi_remember_state
 1354              		.cfi_def_cfa_offset 16
 1355              		@ sp needed
 1356 0044 70BD     		pop	{r4, r5, r6, pc}
 1357              	.LVL145:
 1358              	.L176:
 1359              		.cfi_restore_state
ARM GAS  C:\Users\jo\AppData\Local\Temp\ccCSMiNu.s 			page 25


 1360              		.loc 1 321 0
 1361 0046 2046     		mov	r0, r4
 1362 0048 FFF7FEFF 		bl	do_writemore
 1363              	.LVL146:
 1364 004c E2E7     		b	.L167
 1365              	.L177:
 1366              		.loc 1 323 0
 1367 004e 2046     		mov	r0, r4
 1368 0050 FFF7FEFF 		bl	do_close_internal
 1369              	.LVL147:
 1370 0054 DEE7     		b	.L167
 1371              	.LVL148:
 1372              	.L175:
 1373              		.loc 1 318 0 discriminator 1
 1374 0056 064B     		ldr	r3, .L178
 1375 0058 0093     		str	r3, [sp]
 1376 005a 0649     		ldr	r1, .L178+4
 1377              	.LVL149:
 1378 005c 064A     		ldr	r2, .L178+8
 1379              	.LVL150:
 1380 005e 0748     		ldr	r0, .L178+12
 1381              	.LVL151:
 1382 0060 4FF49F73 		mov	r3, #318
 1383 0064 FFF7FEFF 		bl	chprintf.constprop.2
 1384              	.LVL152:
 1385              	.LBB127:
 1386              	.LBB128:
 1387              		.loc 3 416 0 discriminator 1
 1388 0068 0348     		ldr	r0, .L178+8
 1389 006a FFF7FEFF 		bl	chSysHalt
 1390              	.LVL153:
 1391 006e CCE7     		b	.L165
 1392              	.L179:
 1393              		.align	2
 1394              	.L178:
 1395 0070 4C000000 		.word	.LC2
 1396 0074 00000000 		.word	.LC0
 1397 0078 E4010000 		.word	.LC15
 1398 007c 00000000 		.word	itm_port
 1399              	.LBE128:
 1400              	.LBE127:
 1401              		.cfi_endproc
 1402              	.LFE263:
 1403              		.size	sent_tcp, .-sent_tcp
 1404              		.section	.text.do_connected,"ax",%progbits
 1405              		.align	2
 1406              		.p2align 4,,15
 1407              		.thumb
 1408              		.thumb_func
 1409              		.type	do_connected, %function
 1410              	do_connected:
 1411              	.LFB275:
 1412              		.loc 1 938 0
 1413              		.cfi_startproc
 1414              		@ args = 0, pretend = 0, frame = 0
 1415              		@ frame_needed = 0, uses_anonymous_args = 0
 1416              	.LVL154:
ARM GAS  C:\Users\jo\AppData\Local\Temp\ccCSMiNu.s 			page 26


 1417 0000 30B5     		push	{r4, r5, lr}
 1418              		.cfi_def_cfa_offset 12
 1419              		.cfi_offset 4, -12
 1420              		.cfi_offset 5, -8
 1421              		.cfi_offset 14, -4
 1422              		.loc 1 946 0
 1423 0002 0446     		mov	r4, r0
 1424              		.loc 1 938 0
 1425 0004 83B0     		sub	sp, sp, #12
 1426              		.cfi_def_cfa_offset 24
 1427              		.loc 1 946 0
 1428 0006 0028     		cmp	r0, #0
 1429 0008 54D0     		beq	.L193
 1430              		.loc 1 950 0
 1431 000a 4378     		ldrb	r3, [r0, #1]	@ zero_extendqisi2
 1432 000c 032B     		cmp	r3, #3
 1433 000e 1546     		mov	r5, r2
 1434 0010 0BD0     		beq	.L182
 1435              		.loc 1 950 0 is_stmt 0 discriminator 1
 1436 0012 294B     		ldr	r3, .L209
 1437 0014 0093     		str	r3, [sp]
 1438 0016 2948     		ldr	r0, .L209+4
 1439              	.LVL155:
 1440 0018 2949     		ldr	r1, .L209+8
 1441              	.LVL156:
 1442 001a 2A4A     		ldr	r2, .L209+12
 1443              	.LVL157:
 1444 001c 40F2B633 		movw	r3, #950
 1445 0020 FFF7FEFF 		bl	chprintf.constprop.2
 1446              	.LVL158:
 1447              	.LBB129:
 1448              	.LBB130:
 1449              		.loc 3 416 0 is_stmt 1 discriminator 1
 1450 0024 2748     		ldr	r0, .L209+12
 1451 0026 FFF7FEFF 		bl	chSysHalt
 1452              	.LVL159:
 1453              	.L182:
 1454              	.LBE130:
 1455              	.LBE129:
 1456              		.loc 1 951 0
 1457 002a 636A     		ldr	r3, [r4, #36]
 1458 002c 7BB3     		cbz	r3, .L206
 1459              	.L183:
 1460              		.loc 1 955 0
 1461 002e 1D71     		strb	r5, [r3, #4]
 1462              	.L185:
 1463              		.loc 1 957 0
 1464 0030 2378     		ldrb	r3, [r4]	@ zero_extendqisi2
 1465 0032 102B     		cmp	r3, #16
 1466 0034 25D0     		beq	.L207
 1467              	.L187:
 1468              		.loc 1 960 0
 1469 0036 237F     		ldrb	r3, [r4, #28]	@ zero_extendqisi2
 1470              	.LVL160:
 1471              		.loc 1 962 0
 1472 0038 0021     		movs	r1, #0
 1473              		.loc 1 961 0
ARM GAS  C:\Users\jo\AppData\Local\Temp\ccCSMiNu.s 			page 27


 1474 003a 23F00402 		bic	r2, r3, #4
 1475              		.loc 1 960 0
 1476 003e 03F00403 		and	r3, r3, #4
 1477              	.LVL161:
 1478              		.loc 1 961 0
 1479 0042 2277     		strb	r2, [r4, #28]
 1480              	.LVL162:
 1481              		.loc 1 962 0
 1482 0044 6162     		str	r1, [r4, #36]
 1483              		.loc 1 964 0
 1484 0046 03F0FF02 		and	r2, r3, #255
 1485              		.loc 1 963 0
 1486 004a 6170     		strb	r1, [r4, #1]
 1487              		.loc 1 964 0
 1488 004c 63B9     		cbnz	r3, .L208
 1489              		.loc 1 967 0
 1490 004e A36A     		ldr	r3, [r4, #40]
 1491 0050 13B1     		cbz	r3, .L191
 1492 0052 2046     		mov	r0, r4
 1493 0054 0221     		movs	r1, #2
 1494 0056 9847     		blx	r3
 1495              	.LVL163:
 1496              	.L191:
 1497              		.loc 1 970 0
 1498 0058 04F10C00 		add	r0, r4, #12
 1499 005c FFF7FEFF 		bl	sys_sem_signal
 1500              	.LVL164:
 1501              	.L205:
 1502              		.loc 1 972 0
 1503 0060 0020     		movs	r0, #0
 1504              	.L181:
 1505 0062 40B2     		sxtb	r0, r0
 1506              		.loc 1 973 0
 1507 0064 03B0     		add	sp, sp, #12
 1508              		.cfi_remember_state
 1509              		.cfi_def_cfa_offset 12
 1510              		@ sp needed
 1511 0066 30BD     		pop	{r4, r5, pc}
 1512              	.LVL165:
 1513              	.L208:
 1514              		.cfi_restore_state
 1515              		.loc 1 965 0
 1516 0068 94F90830 		ldrsb	r3, [r4, #8]
 1517 006c 0933     		adds	r3, r3, #9
 1518 006e 00DB     		blt	.L189
 1519              		.loc 1 965 0 is_stmt 0 discriminator 1
 1520 0070 2172     		strb	r1, [r4, #8]
 1521              	.L189:
 1522              		.loc 1 967 0 is_stmt 1
 1523 0072 A36A     		ldr	r3, [r4, #40]
 1524 0074 002B     		cmp	r3, #0
 1525 0076 F3D0     		beq	.L205
 1526 0078 2046     		mov	r0, r4
 1527 007a 0221     		movs	r1, #2
 1528 007c 0022     		movs	r2, #0
 1529 007e 9847     		blx	r3
 1530              	.LVL166:
ARM GAS  C:\Users\jo\AppData\Local\Temp\ccCSMiNu.s 			page 28


 1531 0080 EEE7     		b	.L205
 1532              	.L207:
 1533              		.loc 1 957 0 discriminator 1
 1534 0082 002D     		cmp	r5, #0
 1535 0084 D7D1     		bne	.L187
 1536              		.loc 1 958 0
 1537 0086 2046     		mov	r0, r4
 1538 0088 FFF7FEFF 		bl	setup_tcp
 1539              	.LVL167:
 1540 008c D3E7     		b	.L187
 1541              	.L206:
 1542              		.loc 1 951 0 discriminator 1
 1543 008e 237F     		ldrb	r3, [r4, #28]	@ zero_extendqisi2
 1544 0090 5B07     		lsls	r3, r3, #29
 1545 0092 CDD4     		bmi	.L185
 1546              		.loc 1 951 0 is_stmt 0 discriminator 2
 1547 0094 084B     		ldr	r3, .L209
 1548 0096 0093     		str	r3, [sp]
 1549 0098 0949     		ldr	r1, .L209+8
 1550 009a 0B4A     		ldr	r2, .L209+16
 1551 009c 0748     		ldr	r0, .L209+4
 1552 009e 4FF46E73 		mov	r3, #952
 1553 00a2 FFF7FEFF 		bl	chprintf.constprop.2
 1554              	.LVL168:
 1555              	.LBB131:
 1556              	.LBB132:
 1557              		.loc 3 416 0 is_stmt 1 discriminator 2
 1558 00a6 0848     		ldr	r0, .L209+16
 1559 00a8 FFF7FEFF 		bl	chSysHalt
 1560              	.LVL169:
 1561              	.LBE132:
 1562              	.LBE131:
 1563              		.loc 1 954 0 discriminator 2
 1564 00ac 636A     		ldr	r3, [r4, #36]
 1565 00ae 002B     		cmp	r3, #0
 1566 00b0 BED0     		beq	.L185
 1567 00b2 BCE7     		b	.L183
 1568              	.LVL170:
 1569              	.L193:
 1570              		.loc 1 947 0
 1571 00b4 FA20     		movs	r0, #250
 1572              	.LVL171:
 1573 00b6 D4E7     		b	.L181
 1574              	.L210:
 1575              		.align	2
 1576              	.L209:
 1577 00b8 4C000000 		.word	.LC2
 1578 00bc 00000000 		.word	itm_port
 1579 00c0 00000000 		.word	.LC0
 1580 00c4 F4010000 		.word	.LC16
 1581 00c8 14020000 		.word	.LC17
 1582              		.cfi_endproc
 1583              	.LFE275:
 1584              		.size	do_connected, .-do_connected
 1585 00cc AFF30080 		.section	.text.err_tcp,"ax",%progbits
 1586              		.align	2
 1587              		.p2align 4,,15
ARM GAS  C:\Users\jo\AppData\Local\Temp\ccCSMiNu.s 			page 29


 1588              		.thumb
 1589              		.thumb_func
 1590              		.type	err_tcp, %function
 1591              	err_tcp:
 1592              	.LFB264:
 1593              		.loc 1 348 0
 1594              		.cfi_startproc
 1595              		@ args = 0, pretend = 0, frame = 0
 1596              		@ frame_needed = 0, uses_anonymous_args = 0
 1597              	.LVL172:
 1598 0000 F0B5     		push	{r4, r5, r6, r7, lr}
 1599              		.cfi_def_cfa_offset 20
 1600              		.cfi_offset 4, -20
 1601              		.cfi_offset 5, -16
 1602              		.cfi_offset 6, -12
 1603              		.cfi_offset 7, -8
 1604              		.cfi_offset 14, -4
 1605 0002 0F46     		mov	r7, r1
 1606 0004 83B0     		sub	sp, sp, #12
 1607              		.cfi_def_cfa_offset 32
 1608              		.loc 1 354 0
 1609 0006 0446     		mov	r4, r0
 1610 0008 0028     		cmp	r0, #0
 1611 000a 57D0     		beq	.L243
 1612              	.LVL173:
 1613              	.L212:
 1614              		.loc 1 369 0
 1615 000c A36A     		ldr	r3, [r4, #40]
 1616              		.loc 1 364 0
 1617 000e 6678     		ldrb	r6, [r4, #1]	@ zero_extendqisi2
 1618              	.LVL174:
 1619              		.loc 1 360 0
 1620 0010 2772     		strb	r7, [r4, #8]
 1621              		.loc 1 356 0
 1622 0012 0025     		movs	r5, #0
 1623 0014 6560     		str	r5, [r4, #4]
 1624              		.loc 1 365 0
 1625 0016 6570     		strb	r5, [r4, #1]
 1626              		.loc 1 369 0
 1627 0018 7BB1     		cbz	r3, .L215
 1628              		.loc 1 369 0 is_stmt 0 discriminator 1
 1629 001a 2046     		mov	r0, r4
 1630 001c 0421     		movs	r1, #4
 1631 001e 2A46     		mov	r2, r5
 1632 0020 9847     		blx	r3
 1633              	.LVL175:
 1634              		.loc 1 372 0 is_stmt 1 discriminator 1
 1635 0022 A36A     		ldr	r3, [r4, #40]
 1636 0024 4BB1     		cbz	r3, .L215
 1637 0026 2046     		mov	r0, r4
 1638 0028 2946     		mov	r1, r5
 1639 002a 2A46     		mov	r2, r5
 1640 002c 9847     		blx	r3
 1641              	.LVL176:
 1642 002e A36A     		ldr	r3, [r4, #40]
 1643              		.loc 1 373 0 discriminator 1
 1644 0030 1BB1     		cbz	r3, .L215
ARM GAS  C:\Users\jo\AppData\Local\Temp\ccCSMiNu.s 			page 30


 1645 0032 2A46     		mov	r2, r5
 1646 0034 2046     		mov	r0, r4
 1647 0036 0221     		movs	r1, #2
 1648 0038 9847     		blx	r3
 1649              	.LVL177:
 1650              	.L215:
 1651              		.loc 1 376 0
 1652 003a 04F11005 		add	r5, r4, #16
 1653 003e 2846     		mov	r0, r5
 1654 0040 FFF7FEFF 		bl	sys_mbox_valid
 1655              	.LVL178:
 1656 0044 0028     		cmp	r0, #0
 1657 0046 34D1     		bne	.L244
 1658              	.L216:
 1659              		.loc 1 381 0
 1660 0048 04F11405 		add	r5, r4, #20
 1661 004c 2846     		mov	r0, r5
 1662 004e FFF7FEFF 		bl	sys_mbox_valid
 1663              	.LVL179:
 1664 0052 48BB     		cbnz	r0, .L245
 1665              	.L217:
 1666              		.loc 1 386 0
 1667 0054 012E     		cmp	r6, #1
 1668 0056 13D0     		beq	.L218
 1669              		.loc 1 386 0 is_stmt 0 discriminator 2
 1670 0058 033E     		subs	r6, r6, #3
 1671              	.LVL180:
 1672 005a 012E     		cmp	r6, #1
 1673 005c 10D9     		bls	.L218
 1674              		.loc 1 402 0 is_stmt 1
 1675 005e 636A     		ldr	r3, [r4, #36]
 1676 0060 03B3     		cbz	r3, .L211
 1677              		.loc 1 402 0 is_stmt 0 discriminator 1
 1678 0062 244B     		ldr	r3, .L247
 1679 0064 0093     		str	r3, [sp]
 1680 0066 2449     		ldr	r1, .L247+4
 1681 0068 244A     		ldr	r2, .L247+8
 1682 006a 2548     		ldr	r0, .L247+12
 1683 006c 4FF4C973 		mov	r3, #402
 1684 0070 FFF7FEFF 		bl	chprintf.constprop.2
 1685              	.LVL181:
 1686              	.LBB133:
 1687              	.LBB134:
 1688              		.loc 3 416 0 is_stmt 1 discriminator 1
 1689 0074 2148     		ldr	r0, .L247+8
 1690              	.LBE134:
 1691              	.LBE133:
 1692              		.loc 1 404 0 discriminator 1
 1693 0076 03B0     		add	sp, sp, #12
 1694              		.cfi_remember_state
 1695              		.cfi_def_cfa_offset 20
 1696              		@ sp needed
 1697 0078 BDE8F040 		pop	{r4, r5, r6, r7, lr}
 1698              		.cfi_restore 14
 1699              		.cfi_restore 7
 1700              		.cfi_restore 6
 1701              		.cfi_restore 5
ARM GAS  C:\Users\jo\AppData\Local\Temp\ccCSMiNu.s 			page 31


 1702              		.cfi_restore 4
 1703              		.cfi_def_cfa_offset 0
 1704              	.LVL182:
 1705              	.LBB136:
 1706              	.LBB135:
 1707              		.loc 3 416 0 discriminator 1
 1708 007c FFF7FEBF 		b	chSysHalt
 1709              	.LVL183:
 1710              	.L218:
 1711              		.cfi_restore_state
 1712              	.LBE135:
 1713              	.LBE136:
 1714              	.LBB137:
 1715              		.loc 1 390 0
 1716 0080 237F     		ldrb	r3, [r4, #28]	@ zero_extendqisi2
 1717              	.LVL184:
 1718              		.loc 1 391 0
 1719 0082 23F00402 		bic	r2, r3, #4
 1720              		.loc 1 393 0
 1721 0086 5B07     		lsls	r3, r3, #29
 1722              	.LVL185:
 1723              		.loc 1 391 0
 1724 0088 2277     		strb	r2, [r4, #28]
 1725              	.LVL186:
 1726              		.loc 1 393 0
 1727 008a 0BD4     		bmi	.L211
 1728              		.loc 1 395 0
 1729 008c 636A     		ldr	r3, [r4, #36]
 1730 008e 13B3     		cbz	r3, .L246
 1731              	.L222:
 1732              		.loc 1 396 0
 1733 0090 1F71     		strb	r7, [r3, #4]
 1734              		.loc 1 399 0
 1735 0092 04F10C00 		add	r0, r4, #12
 1736              		.loc 1 397 0
 1737 0096 0023     		movs	r3, #0
 1738 0098 6362     		str	r3, [r4, #36]
 1739              	.LBE137:
 1740              		.loc 1 404 0
 1741 009a 03B0     		add	sp, sp, #12
 1742              		.cfi_remember_state
 1743              		.cfi_def_cfa_offset 20
 1744              		@ sp needed
 1745 009c BDE8F040 		pop	{r4, r5, r6, r7, lr}
 1746              		.cfi_restore 14
 1747              		.cfi_restore 7
 1748              		.cfi_restore 6
 1749              		.cfi_restore 5
 1750              		.cfi_restore 4
 1751              		.cfi_def_cfa_offset 0
 1752              	.LVL187:
 1753              	.LBB140:
 1754              		.loc 1 399 0
 1755 00a0 FFF7FEBF 		b	sys_sem_signal
 1756              	.LVL188:
 1757              	.L211:
 1758              		.cfi_restore_state
ARM GAS  C:\Users\jo\AppData\Local\Temp\ccCSMiNu.s 			page 32


 1759              	.LBE140:
 1760              		.loc 1 404 0
 1761 00a4 03B0     		add	sp, sp, #12
 1762              		.cfi_remember_state
 1763              		.cfi_def_cfa_offset 20
 1764              		@ sp needed
 1765 00a6 F0BD     		pop	{r4, r5, r6, r7, pc}
 1766              	.LVL189:
 1767              	.L245:
 1768              		.cfi_restore_state
 1769              		.loc 1 383 0
 1770 00a8 2846     		mov	r0, r5
 1771 00aa 0021     		movs	r1, #0
 1772 00ac FFF7FEFF 		bl	sys_mbox_trypost
 1773              	.LVL190:
 1774 00b0 D0E7     		b	.L217
 1775              	.L244:
 1776              		.loc 1 378 0
 1777 00b2 2846     		mov	r0, r5
 1778 00b4 0021     		movs	r1, #0
 1779 00b6 FFF7FEFF 		bl	sys_mbox_trypost
 1780              	.LVL191:
 1781 00ba C5E7     		b	.L216
 1782              	.LVL192:
 1783              	.L243:
 1784              		.loc 1 354 0 discriminator 1
 1785 00bc 0D4B     		ldr	r3, .L247
 1786 00be 0093     		str	r3, [sp]
 1787 00c0 0D49     		ldr	r1, .L247+4
 1788              	.LVL193:
 1789 00c2 104A     		ldr	r2, .L247+16
 1790 00c4 0E48     		ldr	r0, .L247+12
 1791              	.LVL194:
 1792 00c6 4FF4B173 		mov	r3, #354
 1793 00ca FFF7FEFF 		bl	chprintf.constprop.2
 1794              	.LVL195:
 1795              	.LBB141:
 1796              	.LBB142:
 1797              		.loc 3 416 0 discriminator 1
 1798 00ce 0D48     		ldr	r0, .L247+16
 1799 00d0 FFF7FEFF 		bl	chSysHalt
 1800              	.LVL196:
 1801 00d4 9AE7     		b	.L212
 1802              	.LVL197:
 1803              	.L246:
 1804              	.LBE142:
 1805              	.LBE141:
 1806              	.LBB143:
 1807              		.loc 1 395 0 discriminator 1
 1808 00d6 074B     		ldr	r3, .L247
 1809 00d8 0093     		str	r3, [sp]
 1810 00da 0749     		ldr	r1, .L247+4
 1811 00dc 0A4A     		ldr	r2, .L247+20
 1812 00de 0848     		ldr	r0, .L247+12
 1813 00e0 40F28B13 		movw	r3, #395
 1814 00e4 FFF7FEFF 		bl	chprintf.constprop.2
 1815              	.LVL198:
ARM GAS  C:\Users\jo\AppData\Local\Temp\ccCSMiNu.s 			page 33


 1816              	.LBB138:
 1817              	.LBB139:
 1818              		.loc 3 416 0 discriminator 1
 1819 00e8 0748     		ldr	r0, .L247+20
 1820 00ea FFF7FEFF 		bl	chSysHalt
 1821              	.LVL199:
 1822 00ee 636A     		ldr	r3, [r4, #36]
 1823 00f0 CEE7     		b	.L222
 1824              	.L248:
 1825 00f2 00BF     		.align	2
 1826              	.L247:
 1827 00f4 4C000000 		.word	.LC2
 1828 00f8 00000000 		.word	.LC0
 1829 00fc 54020000 		.word	.LC18
 1830 0100 00000000 		.word	itm_port
 1831 0104 E4010000 		.word	.LC15
 1832 0108 18010000 		.word	.LC9
 1833              	.LBE139:
 1834              	.LBE138:
 1835              	.LBE143:
 1836              		.cfi_endproc
 1837              	.LFE264:
 1838              		.size	err_tcp, .-err_tcp
 1839 010c AFF30080 		.section	.text.recv_udp,"ax",%progbits
 1840              		.align	2
 1841              		.p2align 4,,15
 1842              		.thumb
 1843              		.thumb_func
 1844              		.type	recv_udp, %function
 1845              	recv_udp:
 1846              	.LFB260:
 1847              		.loc 1 146 0
 1848              		.cfi_startproc
 1849              		@ args = 4, pretend = 0, frame = 0
 1850              		@ frame_needed = 0, uses_anonymous_args = 0
 1851              	.LVL200:
 1852 0000 2DE9F043 		push	{r4, r5, r6, r7, r8, r9, lr}
 1853              		.cfi_def_cfa_offset 28
 1854              		.cfi_offset 4, -28
 1855              		.cfi_offset 5, -24
 1856              		.cfi_offset 6, -20
 1857              		.cfi_offset 7, -16
 1858              		.cfi_offset 8, -12
 1859              		.cfi_offset 9, -8
 1860              		.cfi_offset 14, -4
 1861 0004 83B0     		sub	sp, sp, #12
 1862              		.cfi_def_cfa_offset 40
 1863              		.loc 1 146 0
 1864 0006 0446     		mov	r4, r0
 1865 0008 1646     		mov	r6, r2
 1866 000a 1F46     		mov	r7, r3
 1867 000c BDF82890 		ldrh	r9, [sp, #40]
 1868              		.loc 1 155 0
 1869 0010 0D46     		mov	r5, r1
 1870 0012 0029     		cmp	r1, #0
 1871 0014 38D0     		beq	.L264
 1872              	.LVL201:
ARM GAS  C:\Users\jo\AppData\Local\Temp\ccCSMiNu.s 			page 34


 1873              	.L250:
 1874              		.loc 1 156 0
 1875 0016 002C     		cmp	r4, #0
 1876 0018 48D0     		beq	.L265
 1877              	.L251:
 1878              	.LVL202:
 1879              		.loc 1 158 0
 1880 001a 6368     		ldr	r3, [r4, #4]
 1881 001c AB42     		cmp	r3, r5
 1882 001e 0AD0     		beq	.L258
 1883              		.loc 1 158 0 is_stmt 0 discriminator 1
 1884 0020 2A4B     		ldr	r3, .L267
 1885 0022 0093     		str	r3, [sp]
 1886 0024 2A48     		ldr	r0, .L267+4
 1887 0026 2B49     		ldr	r1, .L267+8
 1888 0028 2B4A     		ldr	r2, .L267+12
 1889 002a 9E23     		movs	r3, #158
 1890 002c FFF7FEFF 		bl	chprintf.constprop.2
 1891              	.LVL203:
 1892              	.LBB144:
 1893              	.LBB145:
 1894              		.loc 3 416 0 is_stmt 1 discriminator 1
 1895 0030 2948     		ldr	r0, .L267+12
 1896 0032 FFF7FEFF 		bl	chSysHalt
 1897              	.LVL204:
 1898              	.L258:
 1899              	.LBE145:
 1900              	.LBE144:
 1901              		.loc 1 165 0 discriminator 1
 1902 0036 04F11008 		add	r8, r4, #16
 1903 003a 4046     		mov	r0, r8
 1904 003c FFF7FEFF 		bl	sys_mbox_valid
 1905              	.LVL205:
 1906 0040 28B9     		cbnz	r0, .L252
 1907              	.LVL206:
 1908              	.L253:
 1909              		.loc 1 167 0
 1910 0042 3046     		mov	r0, r6
 1911              		.loc 1 205 0
 1912 0044 03B0     		add	sp, sp, #12
 1913              		.cfi_remember_state
 1914              		.cfi_def_cfa_offset 28
 1915              		@ sp needed
 1916 0046 BDE8F043 		pop	{r4, r5, r6, r7, r8, r9, lr}
 1917              		.cfi_restore 14
 1918              		.cfi_restore 9
 1919              		.cfi_restore 8
 1920              		.cfi_restore 7
 1921              		.cfi_restore 6
 1922              		.cfi_restore 5
 1923              		.cfi_restore 4
 1924              		.cfi_def_cfa_offset 0
 1925              	.LVL207:
 1926              		.loc 1 167 0
 1927 004a FFF7FEBF 		b	pbuf_free
 1928              	.LVL208:
 1929              	.L252:
ARM GAS  C:\Users\jo\AppData\Local\Temp\ccCSMiNu.s 			page 35


 1930              		.cfi_restore_state
 1931              		.loc 1 171 0
 1932 004e 234B     		ldr	r3, .L267+16
 1933 0050 9889     		ldrh	r0, [r3, #12]
 1934 0052 FFF7FEFF 		bl	malloc
 1935              	.LVL209:
 1936              		.loc 1 172 0
 1937 0056 0546     		mov	r5, r0
 1938              	.LVL210:
 1939 0058 0028     		cmp	r0, #0
 1940 005a F2D0     		beq	.L253
 1941              		.loc 1 176 0
 1942 005c 0660     		str	r6, [r0]
 1943              		.loc 1 177 0
 1944 005e 4660     		str	r6, [r0, #4]
 1945              		.loc 1 178 0
 1946 0060 07B1     		cbz	r7, .L254
 1947              		.loc 1 178 0 is_stmt 0 discriminator 1
 1948 0062 3F68     		ldr	r7, [r7]
 1949              	.LVL211:
 1950              	.L254:
 1951              		.loc 1 178 0 discriminator 4
 1952 0064 AF60     		str	r7, [r5, #8]
 1953              		.loc 1 195 0 is_stmt 1 discriminator 4
 1954 0066 2946     		mov	r1, r5
 1955              		.loc 1 179 0 discriminator 4
 1956 0068 A5F80C90 		strh	r9, [r5, #12]	@ movhi
 1957              		.loc 1 195 0 discriminator 4
 1958 006c 4046     		mov	r0, r8
 1959              	.LVL212:
 1960              		.loc 1 194 0 discriminator 4
 1961 006e 3689     		ldrh	r6, [r6, #8]
 1962              	.LVL213:
 1963              		.loc 1 195 0 discriminator 4
 1964 0070 FFF7FEFF 		bl	sys_mbox_trypost
 1965              	.LVL214:
 1966 0074 0146     		mov	r1, r0
 1967 0076 98B9     		cbnz	r0, .L266
 1968              		.loc 1 203 0
 1969 0078 A36A     		ldr	r3, [r4, #40]
 1970 007a 1BB3     		cbz	r3, .L249
 1971              		.loc 1 203 0 is_stmt 0 discriminator 1
 1972 007c 2046     		mov	r0, r4
 1973 007e 3246     		mov	r2, r6
 1974              		.loc 1 205 0 is_stmt 1 discriminator 1
 1975 0080 03B0     		add	sp, sp, #12
 1976              		.cfi_remember_state
 1977              		.cfi_def_cfa_offset 28
 1978              		@ sp needed
 1979 0082 BDE8F043 		pop	{r4, r5, r6, r7, r8, r9, lr}
 1980              		.cfi_restore 14
 1981              		.cfi_restore 9
 1982              		.cfi_restore 8
 1983              		.cfi_restore 7
 1984              		.cfi_restore 6
 1985              		.cfi_restore 5
 1986              		.cfi_restore 4
ARM GAS  C:\Users\jo\AppData\Local\Temp\ccCSMiNu.s 			page 36


 1987              		.cfi_def_cfa_offset 0
 1988              	.LVL215:
 1989              		.loc 1 203 0 discriminator 1
 1990 0086 1847     		bx	r3	@ indirect register sibling call
 1991              	.LVL216:
 1992              	.L264:
 1993              		.cfi_restore_state
 1994              		.loc 1 155 0 discriminator 1
 1995 0088 104B     		ldr	r3, .L267
 1996              	.LVL217:
 1997 008a 0093     		str	r3, [sp]
 1998 008c 1149     		ldr	r1, .L267+8
 1999              	.LVL218:
 2000 008e 144A     		ldr	r2, .L267+20
 2001              	.LVL219:
 2002 0090 0F48     		ldr	r0, .L267+4
 2003              	.LVL220:
 2004 0092 9B23     		movs	r3, #155
 2005 0094 FFF7FEFF 		bl	chprintf.constprop.2
 2006              	.LVL221:
 2007              	.LBB146:
 2008              	.LBB147:
 2009              		.loc 3 416 0 discriminator 1
 2010 0098 1148     		ldr	r0, .L267+20
 2011 009a FFF7FEFF 		bl	chSysHalt
 2012              	.LVL222:
 2013 009e BAE7     		b	.L250
 2014              	.LVL223:
 2015              	.L266:
 2016              	.LBE147:
 2017              	.LBE146:
 2018              		.loc 1 196 0
 2019 00a0 2846     		mov	r0, r5
 2020              		.loc 1 205 0
 2021 00a2 03B0     		add	sp, sp, #12
 2022              		.cfi_remember_state
 2023              		.cfi_def_cfa_offset 28
 2024              		@ sp needed
 2025 00a4 BDE8F043 		pop	{r4, r5, r6, r7, r8, r9, lr}
 2026              		.cfi_restore 14
 2027              		.cfi_restore 9
 2028              		.cfi_restore 8
 2029              		.cfi_restore 7
 2030              		.cfi_restore 6
 2031              		.cfi_restore 5
 2032              		.cfi_restore 4
 2033              		.cfi_def_cfa_offset 0
 2034              	.LVL224:
 2035              		.loc 1 196 0
 2036 00a8 FFF7FEBF 		b	netbuf_delete
 2037              	.LVL225:
 2038              	.L265:
 2039              		.cfi_restore_state
 2040              		.loc 1 156 0 discriminator 1
 2041 00ac 074B     		ldr	r3, .L267
 2042 00ae 0093     		str	r3, [sp]
 2043 00b0 0849     		ldr	r1, .L267+8
ARM GAS  C:\Users\jo\AppData\Local\Temp\ccCSMiNu.s 			page 37


 2044 00b2 0C4A     		ldr	r2, .L267+24
 2045 00b4 0648     		ldr	r0, .L267+4
 2046 00b6 9C23     		movs	r3, #156
 2047 00b8 FFF7FEFF 		bl	chprintf.constprop.2
 2048              	.LVL226:
 2049              	.LBB148:
 2050              	.LBB149:
 2051              		.loc 3 416 0 discriminator 1
 2052 00bc 0948     		ldr	r0, .L267+24
 2053 00be FFF7FEFF 		bl	chSysHalt
 2054              	.LVL227:
 2055 00c2 AAE7     		b	.L251
 2056              	.LVL228:
 2057              	.L249:
 2058              	.LBE149:
 2059              	.LBE148:
 2060              		.loc 1 205 0
 2061 00c4 03B0     		add	sp, sp, #12
 2062              		.cfi_def_cfa_offset 28
 2063              		@ sp needed
 2064 00c6 BDE8F083 		pop	{r4, r5, r6, r7, r8, r9, pc}
 2065              	.LVL229:
 2066              	.L268:
 2067 00ca 00BF     		.align	2
 2068              	.L267:
 2069 00cc 4C000000 		.word	.LC2
 2070 00d0 00000000 		.word	itm_port
 2071 00d4 00000000 		.word	.LC0
 2072 00d8 B4020000 		.word	.LC21
 2073 00dc 00000000 		.word	memp_sizes
 2074 00e0 70020000 		.word	.LC19
 2075 00e4 94020000 		.word	.LC20
 2076              		.cfi_endproc
 2077              	.LFE260:
 2078              		.size	recv_udp, .-recv_udp
 2079 00e8 AFF30080 		.section	.text.do_newconn,"ax",%progbits
 2079      AFF30080 
 2080              		.align	2
 2081              		.p2align 4,,15
 2082              		.global	do_newconn
 2083              		.thumb
 2084              		.thumb_func
 2085              		.type	do_newconn, %function
 2086              	do_newconn:
 2087              	.LFB268:
 2088              		.loc 1 549 0
 2089              		.cfi_startproc
 2090              		@ args = 0, pretend = 0, frame = 0
 2091              		@ frame_needed = 0, uses_anonymous_args = 0
 2092              	.LVL230:
 2093 0000 38B5     		push	{r3, r4, r5, lr}
 2094              		.cfi_def_cfa_offset 16
 2095              		.cfi_offset 3, -16
 2096              		.cfi_offset 4, -12
 2097              		.cfi_offset 5, -8
 2098              		.cfi_offset 14, -4
 2099              		.loc 1 550 0
ARM GAS  C:\Users\jo\AppData\Local\Temp\ccCSMiNu.s 			page 38


 2100 0002 0023     		movs	r3, #0
 2101              		.loc 1 551 0
 2102 0004 0468     		ldr	r4, [r0]
 2103              		.loc 1 550 0
 2104 0006 0371     		strb	r3, [r0, #4]
 2105              		.loc 1 551 0
 2106 0008 6368     		ldr	r3, [r4, #4]
 2107 000a 2BB1     		cbz	r3, .L280
 2108              	.LVL231:
 2109              	.L270:
 2110              		.loc 1 558 0
 2111 000c 04F10C00 		add	r0, r4, #12
 2112              		.loc 1 559 0
 2113 0010 BDE83840 		pop	{r3, r4, r5, lr}
 2114              		.cfi_remember_state
 2115              		.cfi_restore 14
 2116              		.cfi_restore 5
 2117              		.cfi_restore 4
 2118              		.cfi_restore 3
 2119              		.cfi_def_cfa_offset 0
 2120              		.loc 1 558 0
 2121 0014 FFF7FEBF 		b	sys_sem_signal
 2122              	.LVL232:
 2123              	.L280:
 2124              		.cfi_restore_state
 2125              	.LBB154:
 2126              	.LBB155:
 2127              		.loc 1 495 0
 2128 0018 2378     		ldrb	r3, [r4]	@ zero_extendqisi2
 2129 001a 03F0F003 		and	r3, r3, #240
 2130 001e 102B     		cmp	r3, #16
 2131 0020 0546     		mov	r5, r0
 2132 0022 17D0     		beq	.L272
 2133 0024 202B     		cmp	r3, #32
 2134 0026 12D1     		bne	.L277
 2135              		.loc 1 508 0
 2136 0028 FFF7FEFF 		bl	udp_new
 2137              	.LVL233:
 2138 002c 6060     		str	r0, [r4, #4]
 2139              		.loc 1 509 0
 2140 002e 2C68     		ldr	r4, [r5]
 2141 0030 6068     		ldr	r0, [r4, #4]
 2142 0032 D0B1     		cbz	r0, .L279
 2143              		.loc 1 518 0
 2144 0034 2378     		ldrb	r3, [r4]	@ zero_extendqisi2
 2145 0036 222B     		cmp	r3, #34
 2146 0038 03D1     		bne	.L275
 2147              		.loc 1 519 0
 2148 003a 0123     		movs	r3, #1
 2149 003c 0374     		strb	r3, [r0, #16]
 2150 003e 2C68     		ldr	r4, [r5]
 2151 0040 6068     		ldr	r0, [r4, #4]
 2152              	.L275:
 2153              		.loc 1 521 0
 2154 0042 0B49     		ldr	r1, .L281
 2155 0044 2246     		mov	r2, r4
 2156 0046 FFF7FEFF 		bl	udp_recv
ARM GAS  C:\Users\jo\AppData\Local\Temp\ccCSMiNu.s 			page 39


 2157              	.LVL234:
 2158 004a 2C68     		ldr	r4, [r5]
 2159 004c DEE7     		b	.L270
 2160              	.LVL235:
 2161              	.L277:
 2162              		.loc 1 536 0
 2163 004e FA23     		movs	r3, #250
 2164 0050 0371     		strb	r3, [r0, #4]
 2165 0052 DBE7     		b	.L270
 2166              	.L272:
 2167              		.loc 1 526 0
 2168 0054 FFF7FEFF 		bl	tcp_new
 2169              	.LVL236:
 2170 0058 6060     		str	r0, [r4, #4]
 2171              		.loc 1 527 0
 2172 005a 2C68     		ldr	r4, [r5]
 2173 005c 6368     		ldr	r3, [r4, #4]
 2174 005e 23B1     		cbz	r3, .L279
 2175              		.loc 1 531 0
 2176 0060 2046     		mov	r0, r4
 2177 0062 FFF7FEFF 		bl	setup_tcp
 2178              	.LVL237:
 2179 0066 2C68     		ldr	r4, [r5]
 2180 0068 D0E7     		b	.L270
 2181              	.L279:
 2182              		.loc 1 528 0
 2183 006a FF23     		movs	r3, #255
 2184 006c 2B71     		strb	r3, [r5, #4]
 2185 006e CDE7     		b	.L270
 2186              	.L282:
 2187              		.align	2
 2188              	.L281:
 2189 0070 00000000 		.word	recv_udp
 2190              	.LBE155:
 2191              	.LBE154:
 2192              		.cfi_endproc
 2193              	.LFE268:
 2194              		.size	do_newconn, .-do_newconn
 2195 0074 AFF30080 		.section	.text.netconn_alloc,"ax",%progbits
 2195      AFF30080 
 2195      AFF30080 
 2196              		.align	2
 2197              		.p2align 4,,15
 2198              		.global	netconn_alloc
 2199              		.thumb
 2200              		.thumb_func
 2201              		.type	netconn_alloc, %function
 2202              	netconn_alloc:
 2203              	.LFB269:
 2204              		.loc 1 573 0
 2205              		.cfi_startproc
 2206              		@ args = 0, pretend = 0, frame = 0
 2207              		@ frame_needed = 0, uses_anonymous_args = 0
 2208              	.LVL238:
 2209 0000 F0B5     		push	{r4, r5, r6, r7, lr}
 2210              		.cfi_def_cfa_offset 20
 2211              		.cfi_offset 4, -20
ARM GAS  C:\Users\jo\AppData\Local\Temp\ccCSMiNu.s 			page 40


 2212              		.cfi_offset 5, -16
 2213              		.cfi_offset 6, -12
 2214              		.cfi_offset 7, -8
 2215              		.cfi_offset 14, -4
 2216              		.loc 1 577 0
 2217 0002 244B     		ldr	r3, .L297
 2218              		.loc 1 573 0
 2219 0004 83B0     		sub	sp, sp, #12
 2220              		.cfi_def_cfa_offset 32
 2221              		.loc 1 573 0
 2222 0006 0546     		mov	r5, r0
 2223              		.loc 1 577 0
 2224 0008 D889     		ldrh	r0, [r3, #14]
 2225              	.LVL239:
 2226              		.loc 1 573 0
 2227 000a 0E46     		mov	r6, r1
 2228              		.loc 1 577 0
 2229 000c FFF7FEFF 		bl	malloc
 2230              	.LVL240:
 2231              		.loc 1 578 0
 2232 0010 0446     		mov	r4, r0
 2233 0012 28B3     		cbz	r0, .L284
 2234              		.loc 1 590 0
 2235 0014 05F0F002 		and	r2, r5, #240
 2236              		.loc 1 582 0
 2237 0018 0023     		movs	r3, #0
 2238              		.loc 1 590 0
 2239 001a 102A     		cmp	r2, #16
 2240              		.loc 1 583 0
 2241 001c 0570     		strb	r5, [r0]
 2242              		.loc 1 582 0
 2243 001e 0372     		strb	r3, [r0, #8]
 2244              		.loc 1 584 0
 2245 0020 4360     		str	r3, [r0, #4]
 2246              		.loc 1 590 0
 2247 0022 31D0     		beq	.L286
 2248 0024 202A     		cmp	r2, #32
 2249 0026 1DD1     		bne	.L295
 2250              		.loc 1 598 0
 2251 0028 0425     		movs	r5, #4
 2252              	.L287:
 2253              	.LVL241:
 2254              		.loc 1 612 0
 2255 002a 04F10C07 		add	r7, r4, #12
 2256 002e 3846     		mov	r0, r7
 2257              	.LVL242:
 2258 0030 0021     		movs	r1, #0
 2259 0032 FFF7FEFF 		bl	sys_sem_new
 2260              	.LVL243:
 2261 0036 08BB     		cbnz	r0, .L288
 2262              		.loc 1 615 0
 2263 0038 2946     		mov	r1, r5
 2264 003a 04F11000 		add	r0, r4, #16
 2265 003e FFF7FEFF 		bl	sys_mbox_new
 2266              	.LVL244:
 2267 0042 0546     		mov	r5, r0
 2268              	.LVL245:
ARM GAS  C:\Users\jo\AppData\Local\Temp\ccCSMiNu.s 			page 41


 2269 0044 10BB     		cbnz	r0, .L296
 2270              		.loc 1 621 0
 2271 0046 04F11400 		add	r0, r4, #20
 2272 004a FFF7FEFF 		bl	sys_mbox_set_invalid
 2273              	.LVL246:
 2274              		.loc 1 626 0
 2275 004e 4FF0FF33 		mov	r3, #-1
 2276              		.loc 1 623 0
 2277 0052 6570     		strb	r5, [r4, #1]
 2278              		.loc 1 628 0
 2279 0054 A662     		str	r6, [r4, #40]
 2280              		.loc 1 630 0
 2281 0056 6562     		str	r5, [r4, #36]
 2282              		.loc 1 631 0
 2283 0058 2562     		str	r5, [r4, #32]
 2284              		.loc 1 643 0
 2285 005a 2577     		strb	r5, [r4, #28]
 2286              		.loc 1 626 0
 2287 005c A361     		str	r3, [r4, #24]
 2288              		.loc 1 644 0
 2289 005e 2046     		mov	r0, r4
 2290              	.LVL247:
 2291              	.L284:
 2292              		.loc 1 648 0
 2293 0060 03B0     		add	sp, sp, #12
 2294              		.cfi_remember_state
 2295              		.cfi_def_cfa_offset 20
 2296              		@ sp needed
 2297 0062 F0BD     		pop	{r4, r5, r6, r7, pc}
 2298              	.LVL248:
 2299              	.L295:
 2300              		.cfi_restore_state
 2301              		.loc 1 607 0 discriminator 1
 2302 0064 0C4B     		ldr	r3, .L297+4
 2303 0066 0093     		str	r3, [sp]
 2304 0068 0C48     		ldr	r0, .L297+8
 2305              	.LVL249:
 2306 006a 0D49     		ldr	r1, .L297+12
 2307 006c 0D4A     		ldr	r2, .L297+16
 2308 006e 40F25F23 		movw	r3, #607
 2309 0072 FFF7FEFF 		bl	chprintf.constprop.2
 2310              	.LVL250:
 2311              	.LBB156:
 2312              	.LBB157:
 2313              		.loc 3 416 0 discriminator 1
 2314 0076 0B48     		ldr	r0, .L297+16
 2315 0078 FFF7FEFF 		bl	chSysHalt
 2316              	.LVL251:
 2317              	.L288:
 2318              	.LBE157:
 2319              	.LBE156:
 2320              		.loc 1 646 0
 2321 007c 2046     		mov	r0, r4
 2322 007e FFF7FEFF 		bl	free
 2323              	.LVL252:
 2324              		.loc 1 647 0
 2325 0082 0020     		movs	r0, #0
ARM GAS  C:\Users\jo\AppData\Local\Temp\ccCSMiNu.s 			page 42


 2326              		.loc 1 648 0
 2327 0084 03B0     		add	sp, sp, #12
 2328              		.cfi_remember_state
 2329              		.cfi_def_cfa_offset 20
 2330              		@ sp needed
 2331 0086 F0BD     		pop	{r4, r5, r6, r7, pc}
 2332              	.LVL253:
 2333              	.L286:
 2334              		.cfi_restore_state
 2335              		.loc 1 603 0
 2336 0088 2825     		movs	r5, #40
 2337 008a CEE7     		b	.L287
 2338              	.LVL254:
 2339              	.L296:
 2340              		.loc 1 616 0
 2341 008c 3846     		mov	r0, r7
 2342 008e FFF7FEFF 		bl	sys_sem_free
 2343              	.LVL255:
 2344              		.loc 1 617 0
 2345 0092 F3E7     		b	.L288
 2346              	.L298:
 2347              		.align	2
 2348              	.L297:
 2349 0094 00000000 		.word	memp_sizes
 2350 0098 4C000000 		.word	.LC2
 2351 009c 00000000 		.word	itm_port
 2352 00a0 00000000 		.word	.LC0
 2353 00a4 D4020000 		.word	.LC22
 2354              		.cfi_endproc
 2355              	.LFE269:
 2356              		.size	netconn_alloc, .-netconn_alloc
 2357 00a8 AFF30080 		.section	.text.netconn_free,"ax",%progbits
 2357      AFF30080 
 2358              		.align	2
 2359              		.p2align 4,,15
 2360              		.global	netconn_free
 2361              		.thumb
 2362              		.thumb_func
 2363              		.type	netconn_free, %function
 2364              	netconn_free:
 2365              	.LFB270:
 2366              		.loc 1 658 0
 2367              		.cfi_startproc
 2368              		@ args = 0, pretend = 0, frame = 0
 2369              		@ frame_needed = 0, uses_anonymous_args = 0
 2370              	.LVL256:
 2371 0000 30B5     		push	{r4, r5, lr}
 2372              		.cfi_def_cfa_offset 12
 2373              		.cfi_offset 4, -12
 2374              		.cfi_offset 5, -8
 2375              		.cfi_offset 14, -4
 2376              		.loc 1 659 0
 2377 0002 4368     		ldr	r3, [r0, #4]
 2378              		.loc 1 658 0
 2379 0004 83B0     		sub	sp, sp, #12
 2380              		.cfi_def_cfa_offset 24
 2381              		.loc 1 658 0
ARM GAS  C:\Users\jo\AppData\Local\Temp\ccCSMiNu.s 			page 43


 2382 0006 0446     		mov	r4, r0
 2383              		.loc 1 659 0
 2384 0008 5BB1     		cbz	r3, .L300
 2385              		.loc 1 659 0 is_stmt 0 discriminator 1
 2386 000a 1E4B     		ldr	r3, .L314
 2387 000c 0093     		str	r3, [sp]
 2388 000e 1E48     		ldr	r0, .L314+4
 2389              	.LVL257:
 2390 0010 1E49     		ldr	r1, .L314+8
 2391 0012 1F4A     		ldr	r2, .L314+12
 2392 0014 40F29323 		movw	r3, #659
 2393 0018 FFF7FEFF 		bl	chprintf.constprop.2
 2394              	.LVL258:
 2395              	.LBB158:
 2396              	.LBB159:
 2397              		.loc 3 416 0 is_stmt 1 discriminator 1
 2398 001c 1C48     		ldr	r0, .L314+12
 2399 001e FFF7FEFF 		bl	chSysHalt
 2400              	.LVL259:
 2401              	.L300:
 2402              	.LBE159:
 2403              	.LBE158:
 2404              		.loc 1 660 0
 2405 0022 04F11000 		add	r0, r4, #16
 2406 0026 FFF7FEFF 		bl	sys_mbox_valid
 2407              	.LVL260:
 2408 002a F0B9     		cbnz	r0, .L313
 2409              	.L301:
 2410              		.loc 1 663 0
 2411 002c 04F11400 		add	r0, r4, #20
 2412 0030 FFF7FEFF 		bl	sys_mbox_valid
 2413              	.LVL261:
 2414 0034 58B1     		cbz	r0, .L302
 2415              		.loc 1 663 0 is_stmt 0 discriminator 1
 2416 0036 134B     		ldr	r3, .L314
 2417 0038 0093     		str	r3, [sp]
 2418 003a 1348     		ldr	r0, .L314+4
 2419 003c 1349     		ldr	r1, .L314+8
 2420 003e 154A     		ldr	r2, .L314+16
 2421 0040 4FF42673 		mov	r3, #664
 2422 0044 FFF7FEFF 		bl	chprintf.constprop.2
 2423              	.LVL262:
 2424              	.LBB160:
 2425              	.LBB161:
 2426              		.loc 3 416 0 is_stmt 1 discriminator 1
 2427 0048 1248     		ldr	r0, .L314+16
 2428 004a FFF7FEFF 		bl	chSysHalt
 2429              	.LVL263:
 2430              	.L302:
 2431              	.LBE161:
 2432              	.LBE160:
 2433              		.loc 1 667 0
 2434 004e 04F10C05 		add	r5, r4, #12
 2435 0052 2846     		mov	r0, r5
 2436 0054 FFF7FEFF 		bl	sys_sem_free
 2437              	.LVL264:
 2438              		.loc 1 668 0
ARM GAS  C:\Users\jo\AppData\Local\Temp\ccCSMiNu.s 			page 44


 2439 0058 2846     		mov	r0, r5
 2440 005a FFF7FEFF 		bl	sys_sem_set_invalid
 2441              	.LVL265:
 2442              		.loc 1 670 0
 2443 005e 2046     		mov	r0, r4
 2444              		.loc 1 671 0
 2445 0060 03B0     		add	sp, sp, #12
 2446              		.cfi_remember_state
 2447              		.cfi_def_cfa_offset 12
 2448              		@ sp needed
 2449 0062 BDE83040 		pop	{r4, r5, lr}
 2450              		.cfi_restore 14
 2451              		.cfi_restore 5
 2452              		.cfi_restore 4
 2453              		.cfi_def_cfa_offset 0
 2454              	.LVL266:
 2455              		.loc 1 670 0
 2456 0066 FFF7FEBF 		b	free
 2457              	.LVL267:
 2458              	.L313:
 2459              		.cfi_restore_state
 2460              		.loc 1 660 0 discriminator 1
 2461 006a 064B     		ldr	r3, .L314
 2462 006c 0093     		str	r3, [sp]
 2463 006e 0749     		ldr	r1, .L314+8
 2464 0070 094A     		ldr	r2, .L314+20
 2465 0072 0548     		ldr	r0, .L314+4
 2466 0074 40F29523 		movw	r3, #661
 2467 0078 FFF7FEFF 		bl	chprintf.constprop.2
 2468              	.LVL268:
 2469              	.LBB162:
 2470              	.LBB163:
 2471              		.loc 3 416 0 discriminator 1
 2472 007c 0648     		ldr	r0, .L314+20
 2473 007e FFF7FEFF 		bl	chSysHalt
 2474              	.LVL269:
 2475 0082 D3E7     		b	.L301
 2476              	.L315:
 2477              		.align	2
 2478              	.L314:
 2479 0084 4C000000 		.word	.LC2
 2480 0088 00000000 		.word	itm_port
 2481 008c 00000000 		.word	.LC0
 2482 0090 FC020000 		.word	.LC23
 2483 0094 68030000 		.word	.LC25
 2484 0098 2C030000 		.word	.LC24
 2485              	.LBE163:
 2486              	.LBE162:
 2487              		.cfi_endproc
 2488              	.LFE270:
 2489              		.size	netconn_free, .-netconn_free
 2490 009c AFF30080 		.section	.text.netconn_drain,"ax",%progbits
 2491              		.align	2
 2492              		.p2align 4,,15
 2493              		.thumb
 2494              		.thumb_func
 2495              		.type	netconn_drain, %function
ARM GAS  C:\Users\jo\AppData\Local\Temp\ccCSMiNu.s 			page 45


 2496              	netconn_drain:
 2497              	.LFB271:
 2498              		.loc 1 683 0
 2499              		.cfi_startproc
 2500              		@ args = 0, pretend = 0, frame = 8
 2501              		@ frame_needed = 0, uses_anonymous_args = 0
 2502              	.LVL270:
 2503 0000 2DE9F043 		push	{r4, r5, r6, r7, r8, r9, lr}
 2504              		.cfi_def_cfa_offset 28
 2505              		.cfi_offset 4, -28
 2506              		.cfi_offset 5, -24
 2507              		.cfi_offset 6, -20
 2508              		.cfi_offset 7, -16
 2509              		.cfi_offset 8, -12
 2510              		.cfi_offset 9, -8
 2511              		.cfi_offset 14, -4
 2512              		.loc 1 692 0
 2513 0004 00F11004 		add	r4, r0, #16
 2514              		.loc 1 683 0
 2515 0008 85B0     		sub	sp, sp, #20
 2516              		.cfi_def_cfa_offset 48
 2517              		.loc 1 683 0
 2518 000a 0646     		mov	r6, r0
 2519              		.loc 1 692 0
 2520 000c 2046     		mov	r0, r4
 2521              	.LVL271:
 2522 000e FFF7FEFF 		bl	sys_mbox_valid
 2523              	.LVL272:
 2524 0012 08B3     		cbz	r0, .L318
 2525 0014 03AF     		add	r7, sp, #12
 2526              	.L317:
 2527              		.loc 1 693 0
 2528 0016 2046     		mov	r0, r4
 2529 0018 3946     		mov	r1, r7
 2530 001a FFF7FEFF 		bl	sys_arch_mbox_tryfetch
 2531              	.LVL273:
 2532 001e 0130     		adds	r0, r0, #1
 2533 0020 14D0     		beq	.L346
 2534              	.L322:
 2535              		.loc 1 695 0
 2536 0022 3378     		ldrb	r3, [r6]	@ zero_extendqisi2
 2537 0024 102B     		cmp	r3, #16
 2538 0026 4ED1     		bne	.L319
 2539              		.loc 1 696 0
 2540 0028 039D     		ldr	r5, [sp, #12]
 2541              	.LVL274:
 2542 002a 002D     		cmp	r5, #0
 2543 002c F3D0     		beq	.L317
 2544              		.loc 1 699 0
 2545 002e 7368     		ldr	r3, [r6, #4]
 2546              		.loc 1 700 0
 2547 0030 1846     		mov	r0, r3
 2548              		.loc 1 699 0
 2549 0032 13B1     		cbz	r3, .L321
 2550              		.loc 1 700 0
 2551 0034 2989     		ldrh	r1, [r5, #8]
 2552 0036 FFF7FEFF 		bl	tcp_recved
ARM GAS  C:\Users\jo\AppData\Local\Temp\ccCSMiNu.s 			page 46


 2553              	.LVL275:
 2554              	.L321:
 2555              		.loc 1 702 0
 2556 003a 2846     		mov	r0, r5
 2557 003c FFF7FEFF 		bl	pbuf_free
 2558              	.LVL276:
 2559              		.loc 1 693 0
 2560 0040 2046     		mov	r0, r4
 2561 0042 3946     		mov	r1, r7
 2562 0044 FFF7FEFF 		bl	sys_arch_mbox_tryfetch
 2563              	.LVL277:
 2564 0048 0130     		adds	r0, r0, #1
 2565 004a EAD1     		bne	.L322
 2566              	.LVL278:
 2567              	.L346:
 2568              		.loc 1 710 0
 2569 004c 2046     		mov	r0, r4
 2570 004e FFF7FEFF 		bl	sys_mbox_free
 2571              	.LVL279:
 2572              		.loc 1 711 0
 2573 0052 2046     		mov	r0, r4
 2574 0054 FFF7FEFF 		bl	sys_mbox_set_invalid
 2575              	.LVL280:
 2576              	.L318:
 2577              		.loc 1 716 0
 2578 0058 06F11408 		add	r8, r6, #20
 2579 005c 4046     		mov	r0, r8
 2580 005e FFF7FEFF 		bl	sys_mbox_valid
 2581              	.LVL281:
 2582 0062 68B3     		cbz	r0, .L316
 2583 0064 03AF     		add	r7, sp, #12
 2584              	.LBB164:
 2585              		.loc 1 722 0
 2586 0066 DFF87490 		ldr	r9, .L347+12
 2587 006a 1DE0     		b	.L323
 2588              	.L327:
 2589              		.loc 1 721 0
 2590 006c 7568     		ldr	r5, [r6, #4]
 2591              		.loc 1 722 0
 2592 006e 1849     		ldr	r1, .L347
 2593 0070 184A     		ldr	r2, .L347+4
 2594 0072 1948     		ldr	r0, .L347+8
 2595              		.loc 1 718 0
 2596 0074 039C     		ldr	r4, [sp, #12]
 2597              	.LVL282:
 2598              		.loc 1 722 0
 2599 0076 40F2D223 		movw	r3, #722
 2600              		.loc 1 721 0
 2601 007a 4DB1     		cbz	r5, .L325
 2602              		.loc 1 722 0
 2603 007c 2D7E     		ldrb	r5, [r5, #24]	@ zero_extendqisi2
 2604 007e 012D     		cmp	r5, #1
 2605 0080 06D0     		beq	.L325
 2606              		.loc 1 722 0 is_stmt 0 discriminator 1
 2607 0082 CDF80090 		str	r9, [sp]
 2608 0086 FFF7FEFF 		bl	chprintf.constprop.2
 2609              	.LVL283:
ARM GAS  C:\Users\jo\AppData\Local\Temp\ccCSMiNu.s 			page 47


 2610              	.LBB165:
 2611              	.LBB166:
 2612              		.loc 3 416 0 is_stmt 1 discriminator 1
 2613 008a 1248     		ldr	r0, .L347+4
 2614 008c FFF7FEFF 		bl	chSysHalt
 2615              	.LVL284:
 2616              	.L325:
 2617              	.LBE166:
 2618              	.LBE165:
 2619              		.loc 1 725 0
 2620 0090 2046     		mov	r0, r4
 2621 0092 FFF7B5FF 		bl	netconn_drain
 2622              	.LVL285:
 2623              		.loc 1 726 0
 2624 0096 6068     		ldr	r0, [r4, #4]
 2625 0098 18B1     		cbz	r0, .L326
 2626              		.loc 1 727 0
 2627 009a FFF7FEFF 		bl	tcp_abort
 2628              	.LVL286:
 2629              		.loc 1 728 0
 2630 009e 0023     		movs	r3, #0
 2631 00a0 6360     		str	r3, [r4, #4]
 2632              	.L326:
 2633              		.loc 1 730 0
 2634 00a2 2046     		mov	r0, r4
 2635 00a4 FFF7FEFF 		bl	netconn_free
 2636              	.LVL287:
 2637              	.L323:
 2638              	.LBE164:
 2639              		.loc 1 717 0
 2640 00a8 4046     		mov	r0, r8
 2641 00aa 3946     		mov	r1, r7
 2642 00ac FFF7FEFF 		bl	sys_arch_mbox_tryfetch
 2643              	.LVL288:
 2644 00b0 0130     		adds	r0, r0, #1
 2645 00b2 DBD1     		bne	.L327
 2646              		.loc 1 732 0
 2647 00b4 4046     		mov	r0, r8
 2648 00b6 FFF7FEFF 		bl	sys_mbox_free
 2649              	.LVL289:
 2650              		.loc 1 733 0
 2651 00ba 4046     		mov	r0, r8
 2652 00bc FFF7FEFF 		bl	sys_mbox_set_invalid
 2653              	.LVL290:
 2654              	.L316:
 2655              		.loc 1 736 0
 2656 00c0 05B0     		add	sp, sp, #20
 2657              		.cfi_remember_state
 2658              		.cfi_def_cfa_offset 28
 2659              		@ sp needed
 2660 00c2 BDE8F083 		pop	{r4, r5, r6, r7, r8, r9, pc}
 2661              	.LVL291:
 2662              	.L319:
 2663              		.cfi_restore_state
 2664              		.loc 1 707 0
 2665 00c6 0398     		ldr	r0, [sp, #12]
 2666 00c8 FFF7FEFF 		bl	netbuf_delete
ARM GAS  C:\Users\jo\AppData\Local\Temp\ccCSMiNu.s 			page 48


 2667              	.LVL292:
 2668 00cc A3E7     		b	.L317
 2669              	.L348:
 2670 00ce 00BF     		.align	2
 2671              	.L347:
 2672 00d0 00000000 		.word	.LC0
 2673 00d4 A4030000 		.word	.LC26
 2674 00d8 00000000 		.word	itm_port
 2675 00dc 4C000000 		.word	.LC2
 2676              		.cfi_endproc
 2677              	.LFE271:
 2678              		.size	netconn_drain, .-netconn_drain
 2679              		.section	.text.accept_function,"ax",%progbits
 2680              		.align	2
 2681              		.p2align 4,,15
 2682              		.thumb
 2683              		.thumb_func
 2684              		.type	accept_function, %function
 2685              	accept_function:
 2686              	.LFB266:
 2687              		.loc 1 433 0
 2688              		.cfi_startproc
 2689              		@ args = 0, pretend = 0, frame = 0
 2690              		@ frame_needed = 0, uses_anonymous_args = 0
 2691              	.LVL293:
 2692 0000 2DE9F041 		push	{r4, r5, r6, r7, r8, lr}
 2693              		.cfi_def_cfa_offset 24
 2694              		.cfi_offset 4, -24
 2695              		.cfi_offset 5, -20
 2696              		.cfi_offset 6, -16
 2697              		.cfi_offset 7, -12
 2698              		.cfi_offset 8, -8
 2699              		.cfi_offset 14, -4
 2700              		.loc 1 439 0
 2701 0004 00F11405 		add	r5, r0, #20
 2702              		.loc 1 433 0
 2703 0008 0446     		mov	r4, r0
 2704              	.LVL294:
 2705              		.loc 1 439 0
 2706 000a 2846     		mov	r0, r5
 2707              	.LVL295:
 2708              		.loc 1 433 0
 2709 000c 8846     		mov	r8, r1
 2710 000e 1746     		mov	r7, r2
 2711              		.loc 1 439 0
 2712 0010 FFF7FEFF 		bl	sys_mbox_valid
 2713              	.LVL296:
 2714 0014 C8B1     		cbz	r0, .L352
 2715              		.loc 1 446 0
 2716 0016 2078     		ldrb	r0, [r4]	@ zero_extendqisi2
 2717 0018 A16A     		ldr	r1, [r4, #40]
 2718 001a FFF7FEFF 		bl	netconn_alloc
 2719              	.LVL297:
 2720              		.loc 1 447 0
 2721 001e 0646     		mov	r6, r0
 2722 0020 A8B1     		cbz	r0, .L353
 2723              		.loc 1 450 0
ARM GAS  C:\Users\jo\AppData\Local\Temp\ccCSMiNu.s 			page 49


 2724 0022 C0F80480 		str	r8, [r0, #4]
 2725              		.loc 1 451 0
 2726 0026 FFF7FEFF 		bl	setup_tcp
 2727              	.LVL298:
 2728              		.loc 1 456 0
 2729 002a 2846     		mov	r0, r5
 2730              		.loc 1 454 0
 2731 002c 3772     		strb	r7, [r6, #8]
 2732              		.loc 1 456 0
 2733 002e 3146     		mov	r1, r6
 2734 0030 FFF7FEFF 		bl	sys_mbox_trypost
 2735              	.LVL299:
 2736 0034 0546     		mov	r5, r0
 2737 0036 60B9     		cbnz	r0, .L358
 2738              		.loc 1 475 0
 2739 0038 A36A     		ldr	r3, [r4, #40]
 2740 003a 1BB1     		cbz	r3, .L350
 2741              		.loc 1 475 0 is_stmt 0 discriminator 1
 2742 003c 2046     		mov	r0, r4
 2743 003e 2946     		mov	r1, r5
 2744 0040 2A46     		mov	r2, r5
 2745 0042 9847     		blx	r3
 2746              	.LVL300:
 2747              	.L350:
 2748              		.loc 1 479 0 is_stmt 1
 2749 0044 68B2     		sxtb	r0, r5
 2750 0046 BDE8F081 		pop	{r4, r5, r6, r7, r8, pc}
 2751              	.LVL301:
 2752              	.L352:
 2753              		.loc 1 441 0
 2754 004a FA25     		movs	r5, #250
 2755 004c FAE7     		b	.L350
 2756              	.LVL302:
 2757              	.L353:
 2758              		.loc 1 448 0
 2759 004e FF25     		movs	r5, #255
 2760 0050 F8E7     		b	.L350
 2761              	.LVL303:
 2762              	.L358:
 2763              	.LBB167:
 2764              		.loc 1 460 0
 2765 0052 7468     		ldr	r4, [r6, #4]
 2766              	.LVL304:
 2767              		.loc 1 461 0
 2768 0054 0021     		movs	r1, #0
 2769 0056 2046     		mov	r0, r4
 2770 0058 FFF7FEFF 		bl	tcp_arg
 2771              	.LVL305:
 2772              		.loc 1 462 0
 2773 005c 2046     		mov	r0, r4
 2774 005e 0021     		movs	r1, #0
 2775 0060 FFF7FEFF 		bl	tcp_recv
 2776              	.LVL306:
 2777              		.loc 1 463 0
 2778 0064 2046     		mov	r0, r4
 2779 0066 0021     		movs	r1, #0
 2780 0068 FFF7FEFF 		bl	tcp_sent
ARM GAS  C:\Users\jo\AppData\Local\Temp\ccCSMiNu.s 			page 50


 2781              	.LVL307:
 2782              		.loc 1 464 0
 2783 006c 0422     		movs	r2, #4
 2784 006e 2046     		mov	r0, r4
 2785 0070 0021     		movs	r1, #0
 2786 0072 FFF7FEFF 		bl	tcp_poll
 2787              	.LVL308:
 2788              		.loc 1 465 0
 2789 0076 0021     		movs	r1, #0
 2790 0078 2046     		mov	r0, r4
 2791 007a FFF7FEFF 		bl	tcp_err
 2792              	.LVL309:
 2793              		.loc 1 469 0
 2794 007e 06F11004 		add	r4, r6, #16
 2795              	.LVL310:
 2796              		.loc 1 467 0
 2797 0082 0023     		movs	r3, #0
 2798 0084 7360     		str	r3, [r6, #4]
 2799              		.loc 1 469 0
 2800 0086 2046     		mov	r0, r4
 2801 0088 FFF7FEFF 		bl	sys_mbox_free
 2802              	.LVL311:
 2803              		.loc 1 470 0
 2804 008c 2046     		mov	r0, r4
 2805 008e FFF7FEFF 		bl	sys_mbox_set_invalid
 2806              	.LVL312:
 2807              		.loc 1 471 0
 2808 0092 3046     		mov	r0, r6
 2809 0094 FFF7FEFF 		bl	netconn_free
 2810              	.LVL313:
 2811              		.loc 1 472 0
 2812 0098 FF25     		movs	r5, #255
 2813 009a D3E7     		b	.L350
 2814              	.LBE167:
 2815              		.cfi_endproc
 2816              	.LFE266:
 2817              		.size	accept_function, .-accept_function
 2818 009c AFF30080 		.section	.text.do_delconn,"ax",%progbits
 2819              		.align	2
 2820              		.p2align 4,,15
 2821              		.global	do_delconn
 2822              		.thumb
 2823              		.thumb_func
 2824              		.type	do_delconn, %function
 2825              	do_delconn:
 2826              	.LFB273:
 2827              		.loc 1 833 0
 2828              		.cfi_startproc
 2829              		@ args = 0, pretend = 0, frame = 0
 2830              		@ frame_needed = 0, uses_anonymous_args = 0
 2831              	.LVL314:
 2832 0000 30B5     		push	{r4, r5, lr}
 2833              		.cfi_def_cfa_offset 12
 2834              		.cfi_offset 4, -12
 2835              		.cfi_offset 5, -8
 2836              		.cfi_offset 14, -4
 2837              		.loc 1 835 0
ARM GAS  C:\Users\jo\AppData\Local\Temp\ccCSMiNu.s 			page 51


 2838 0002 0368     		ldr	r3, [r0]
 2839 0004 5A78     		ldrb	r2, [r3, #1]	@ zero_extendqisi2
 2840 0006 12F0FD0F 		tst	r2, #253
 2841              		.loc 1 833 0
 2842 000a 83B0     		sub	sp, sp, #12
 2843              		.cfi_def_cfa_offset 24
 2844              		.loc 1 833 0
 2845 000c 0446     		mov	r4, r0
 2846              		.loc 1 835 0
 2847 000e 2BD0     		beq	.L360
 2848              		.loc 1 836 0
 2849 0010 032A     		cmp	r2, #3
 2850 0012 19D0     		beq	.L361
 2851              		.loc 1 839 0
 2852 0014 1A78     		ldrb	r2, [r3]	@ zero_extendqisi2
 2853 0016 102A     		cmp	r2, #16
 2854 0018 0CD0     		beq	.L362
 2855              		.loc 1 839 0 is_stmt 0 discriminator 1
 2856 001a 3C4B     		ldr	r3, .L392
 2857 001c 0093     		str	r3, [sp]
 2858 001e 3C49     		ldr	r1, .L392+4
 2859 0020 3C4A     		ldr	r2, .L392+8
 2860 0022 3D48     		ldr	r0, .L392+12
 2861              	.LVL315:
 2862 0024 40F24733 		movw	r3, #839
 2863 0028 FFF7FEFF 		bl	chprintf.constprop.2
 2864              	.LVL316:
 2865              	.LBB168:
 2866              	.LBB169:
 2867              		.loc 3 416 0 is_stmt 1 discriminator 1
 2868 002c 3948     		ldr	r0, .L392+8
 2869 002e FFF7FEFF 		bl	chSysHalt
 2870              	.LVL317:
 2871 0032 2368     		ldr	r3, [r4]
 2872              	.LVL318:
 2873              	.L362:
 2874              	.LBE169:
 2875              	.LBE168:
 2876              		.loc 1 840 0
 2877 0034 FB22     		movs	r2, #251
 2878 0036 2271     		strb	r2, [r4, #4]
 2879              	.L363:
 2880              		.loc 1 885 0
 2881 0038 03F10C00 		add	r0, r3, #12
 2882 003c FFF7FEFF 		bl	sys_sem_valid
 2883              	.LVL319:
 2884 0040 0028     		cmp	r0, #0
 2885 0042 3DD1     		bne	.L390
 2886              	.L359:
 2887              		.loc 1 888 0
 2888 0044 03B0     		add	sp, sp, #12
 2889              		.cfi_remember_state
 2890              		.cfi_def_cfa_offset 12
 2891              		@ sp needed
 2892 0046 30BD     		pop	{r4, r5, pc}
 2893              	.LVL320:
 2894              	.L361:
ARM GAS  C:\Users\jo\AppData\Local\Temp\ccCSMiNu.s 			page 52


 2895              		.cfi_restore_state
 2896              		.loc 1 842 0 discriminator 1
 2897 0048 1A7F     		ldrb	r2, [r3, #28]	@ zero_extendqisi2
 2898 004a 5207     		lsls	r2, r2, #29
 2899 004c 0CD4     		bmi	.L360
 2900              		.loc 1 842 0 is_stmt 0 discriminator 2
 2901 004e 2F4B     		ldr	r3, .L392
 2902 0050 0093     		str	r3, [sp]
 2903 0052 2F49     		ldr	r1, .L392+4
 2904 0054 314A     		ldr	r2, .L392+16
 2905 0056 3048     		ldr	r0, .L392+12
 2906              	.LVL321:
 2907 0058 40F24B33 		movw	r3, #843
 2908 005c FFF7FEFF 		bl	chprintf.constprop.2
 2909              	.LVL322:
 2910              	.LBB170:
 2911              	.LBB171:
 2912              		.loc 3 416 0 is_stmt 1 discriminator 2
 2913 0060 2E48     		ldr	r0, .L392+16
 2914 0062 FFF7FEFF 		bl	chSysHalt
 2915              	.LVL323:
 2916 0066 2368     		ldr	r3, [r4]
 2917              	.LVL324:
 2918              	.L360:
 2919              	.LBE171:
 2920              	.LBE170:
 2921              		.loc 1 845 0
 2922 0068 1846     		mov	r0, r3
 2923 006a FFF7FEFF 		bl	netconn_drain
 2924              	.LVL325:
 2925              		.loc 1 847 0
 2926 006e 2368     		ldr	r3, [r4]
 2927 0070 5968     		ldr	r1, [r3, #4]
 2928 0072 79B1     		cbz	r1, .L364
 2929              		.loc 1 849 0
 2930 0074 1A78     		ldrb	r2, [r3]	@ zero_extendqisi2
 2931 0076 02F0F002 		and	r2, r2, #240
 2932 007a 102A     		cmp	r2, #16
 2933 007c 27D0     		beq	.L366
 2934 007e 202A     		cmp	r2, #32
 2935 0080 05D1     		bne	.L365
 2936              		.loc 1 857 0
 2937 0082 0022     		movs	r2, #0
 2938 0084 CA61     		str	r2, [r1, #28]
 2939              		.loc 1 858 0
 2940 0086 5868     		ldr	r0, [r3, #4]
 2941 0088 FFF7FEFF 		bl	udp_remove
 2942              	.LVL326:
 2943 008c 2368     		ldr	r3, [r4]
 2944              	.L365:
 2945              		.loc 1 876 0
 2946 008e 0022     		movs	r2, #0
 2947 0090 5A60     		str	r2, [r3, #4]
 2948 0092 2368     		ldr	r3, [r4]
 2949              	.L364:
 2950              		.loc 1 882 0
 2951 0094 9D6A     		ldr	r5, [r3, #40]
ARM GAS  C:\Users\jo\AppData\Local\Temp\ccCSMiNu.s 			page 53


 2952 0096 002D     		cmp	r5, #0
 2953 0098 CED0     		beq	.L363
 2954              		.loc 1 882 0 is_stmt 0 discriminator 1
 2955 009a 0021     		movs	r1, #0
 2956 009c 1846     		mov	r0, r3
 2957 009e 0A46     		mov	r2, r1
 2958 00a0 A847     		blx	r5
 2959              	.LVL327:
 2960              		.loc 1 883 0 is_stmt 1 discriminator 1
 2961 00a2 2368     		ldr	r3, [r4]
 2962 00a4 9D6A     		ldr	r5, [r3, #40]
 2963 00a6 002D     		cmp	r5, #0
 2964 00a8 C6D0     		beq	.L363
 2965 00aa 1846     		mov	r0, r3
 2966 00ac 0221     		movs	r1, #2
 2967 00ae 0022     		movs	r2, #0
 2968 00b0 A847     		blx	r5
 2969              	.LVL328:
 2970 00b2 2368     		ldr	r3, [r4]
 2971              		.loc 1 885 0 discriminator 1
 2972 00b4 03F10C00 		add	r0, r3, #12
 2973 00b8 FFF7FEFF 		bl	sys_sem_valid
 2974              	.LVL329:
 2975 00bc 0028     		cmp	r0, #0
 2976 00be C1D0     		beq	.L359
 2977              	.L390:
 2978              		.loc 1 886 0
 2979 00c0 2068     		ldr	r0, [r4]
 2980 00c2 0C30     		adds	r0, r0, #12
 2981              		.loc 1 888 0
 2982 00c4 03B0     		add	sp, sp, #12
 2983              		.cfi_remember_state
 2984              		.cfi_def_cfa_offset 12
 2985              		@ sp needed
 2986 00c6 BDE83040 		pop	{r4, r5, lr}
 2987              		.cfi_restore 14
 2988              		.cfi_restore 5
 2989              		.cfi_restore 4
 2990              		.cfi_def_cfa_offset 0
 2991              	.LVL330:
 2992              		.loc 1 886 0
 2993 00ca FFF7FEBF 		b	sys_sem_signal
 2994              	.LVL331:
 2995              	.L366:
 2996              		.cfi_restore_state
 2997              		.loc 1 863 0
 2998 00ce 5A6A     		ldr	r2, [r3, #36]
 2999 00d0 BAB1     		cbz	r2, .L391
 3000              	.L368:
 3001              		.loc 1 863 0 is_stmt 0 discriminator 3
 3002 00d2 0E4B     		ldr	r3, .L392
 3003 00d4 0093     		str	r3, [sp]
 3004 00d6 0E49     		ldr	r1, .L392+4
 3005 00d8 114A     		ldr	r2, .L392+20
 3006 00da 0F48     		ldr	r0, .L392+12
 3007 00dc 4FF45873 		mov	r3, #864
 3008 00e0 FFF7FEFF 		bl	chprintf.constprop.2
ARM GAS  C:\Users\jo\AppData\Local\Temp\ccCSMiNu.s 			page 54


 3009              	.LVL332:
 3010              	.LBB172:
 3011              	.LBB173:
 3012              		.loc 3 416 0 is_stmt 1 discriminator 3
 3013 00e4 0E48     		ldr	r0, .L392+20
 3014 00e6 FFF7FEFF 		bl	chSysHalt
 3015              	.LVL333:
 3016 00ea 2368     		ldr	r3, [r4]
 3017              	.LVL334:
 3018              	.L369:
 3019              	.LBE173:
 3020              	.LBE172:
 3021              		.loc 1 865 0
 3022 00ec 0421     		movs	r1, #4
 3023              		.loc 1 866 0
 3024 00ee 0322     		movs	r2, #3
 3025              		.loc 1 868 0
 3026 00f0 1846     		mov	r0, r3
 3027              		.loc 1 865 0
 3028 00f2 5970     		strb	r1, [r3, #1]
 3029              		.loc 1 866 0
 3030 00f4 2272     		strb	r2, [r4, #8]
 3031              		.loc 1 867 0
 3032 00f6 5C62     		str	r4, [r3, #36]
 3033              		.loc 1 888 0
 3034 00f8 03B0     		add	sp, sp, #12
 3035              		.cfi_remember_state
 3036              		.cfi_def_cfa_offset 12
 3037              		@ sp needed
 3038 00fa BDE83040 		pop	{r4, r5, lr}
 3039              		.cfi_restore 14
 3040              		.cfi_restore 5
 3041              		.cfi_restore 4
 3042              		.cfi_def_cfa_offset 0
 3043              	.LVL335:
 3044              		.loc 1 868 0
 3045 00fe FFF7FEBF 		b	do_close_internal
 3046              	.LVL336:
 3047              	.L391:
 3048              		.cfi_restore_state
 3049              		.loc 1 863 0 discriminator 2
 3050 0102 1A6A     		ldr	r2, [r3, #32]
 3051 0104 002A     		cmp	r2, #0
 3052 0106 E4D1     		bne	.L368
 3053 0108 F0E7     		b	.L369
 3054              	.L393:
 3055 010a 00BF     		.align	2
 3056              	.L392:
 3057 010c 4C000000 		.word	.LC2
 3058 0110 00000000 		.word	.LC0
 3059 0114 D4030000 		.word	.LC27
 3060 0118 00000000 		.word	itm_port
 3061 011c F4030000 		.word	.LC28
 3062 0120 14040000 		.word	.LC29
 3063              		.cfi_endproc
 3064              	.LFE273:
 3065              		.size	do_delconn, .-do_delconn
ARM GAS  C:\Users\jo\AppData\Local\Temp\ccCSMiNu.s 			page 55


 3066 0124 AFF30080 		.section	.text.do_bind,"ax",%progbits
 3066      AFF30080 
 3066      AFF30080 
 3067              		.align	2
 3068              		.p2align 4,,15
 3069              		.global	do_bind
 3070              		.thumb
 3071              		.thumb_func
 3072              		.type	do_bind, %function
 3073              	do_bind:
 3074              	.LFB274:
 3075              		.loc 1 899 0
 3076              		.cfi_startproc
 3077              		@ args = 0, pretend = 0, frame = 0
 3078              		@ frame_needed = 0, uses_anonymous_args = 0
 3079              	.LVL337:
 3080              		.loc 1 900 0
 3081 0000 0368     		ldr	r3, [r0]
 3082 0002 1A7A     		ldrb	r2, [r3, #8]	@ zero_extendqisi2
 3083 0004 51B2     		sxtb	r1, r2
 3084 0006 0931     		adds	r1, r1, #9
 3085 0008 19DB     		blt	.L404
 3086              		.loc 1 903 0
 3087 000a FA22     		movs	r2, #250
 3088 000c 0271     		strb	r2, [r0, #4]
 3089              		.loc 1 904 0
 3090 000e 5968     		ldr	r1, [r3, #4]
 3091 0010 B1B1     		cbz	r1, .L403
 3092              		.loc 1 905 0
 3093 0012 1A78     		ldrb	r2, [r3]	@ zero_extendqisi2
 3094 0014 02F0F002 		and	r2, r2, #240
 3095 0018 102A     		cmp	r2, #16
 3096              		.loc 1 899 0
 3097 001a 10B5     		push	{r4, lr}
 3098              		.cfi_def_cfa_offset 8
 3099              		.cfi_offset 4, -8
 3100              		.cfi_offset 14, -4
 3101 001c 0446     		mov	r4, r0
 3102              		.loc 1 905 0
 3103 001e 13D0     		beq	.L397
 3104 0020 202A     		cmp	r2, #32
 3105 0022 06D1     		bne	.L396
 3106              		.loc 1 913 0
 3107 0024 0846     		mov	r0, r1
 3108              	.LVL338:
 3109 0026 A289     		ldrh	r2, [r4, #12]
 3110 0028 A168     		ldr	r1, [r4, #8]
 3111 002a FFF7FEFF 		bl	udp_bind
 3112              	.LVL339:
 3113 002e 2368     		ldr	r3, [r4]
 3114 0030 2071     		strb	r0, [r4, #4]
 3115              	.L396:
 3116              		.loc 1 926 0
 3117 0032 03F10C00 		add	r0, r3, #12
 3118              		.loc 1 927 0
 3119 0036 BDE81040 		pop	{r4, lr}
 3120              		.cfi_restore 14
ARM GAS  C:\Users\jo\AppData\Local\Temp\ccCSMiNu.s 			page 56


 3121              		.cfi_restore 4
 3122              		.cfi_def_cfa_offset 0
 3123              	.LVL340:
 3124              		.loc 1 926 0
 3125 003a FFF7FEBF 		b	sys_sem_signal
 3126              	.LVL341:
 3127              	.L404:
 3128              		.loc 1 901 0
 3129 003e 0271     		strb	r2, [r0, #4]
 3130              	.L403:
 3131              		.loc 1 926 0
 3132 0040 03F10C00 		add	r0, r3, #12
 3133              	.LVL342:
 3134 0044 FFF7FEBF 		b	sys_sem_signal
 3135              	.LVL343:
 3136              	.L397:
 3137              		.cfi_def_cfa_offset 8
 3138              		.cfi_offset 4, -8
 3139              		.cfi_offset 14, -4
 3140              		.loc 1 918 0
 3141 0048 0846     		mov	r0, r1
 3142              	.LVL344:
 3143 004a A289     		ldrh	r2, [r4, #12]
 3144 004c A168     		ldr	r1, [r4, #8]
 3145 004e FFF7FEFF 		bl	tcp_bind
 3146              	.LVL345:
 3147 0052 2368     		ldr	r3, [r4]
 3148 0054 2071     		strb	r0, [r4, #4]
 3149              		.loc 1 927 0
 3150 0056 BDE81040 		pop	{r4, lr}
 3151              		.cfi_restore 4
 3152              		.cfi_restore 14
 3153              		.cfi_def_cfa_offset 0
 3154              	.LVL346:
 3155              		.loc 1 926 0
 3156 005a 03F10C00 		add	r0, r3, #12
 3157 005e FFF7FEBF 		b	sys_sem_signal
 3158              	.LVL347:
 3159              		.cfi_endproc
 3160              	.LFE274:
 3161              		.size	do_bind, .-do_bind
 3162 0062 00BFAFF3 		.section	.text.do_connect,"ax",%progbits
 3162      0080AFF3 
 3162      0080AFF3 
 3162      0080
 3163              		.align	2
 3164              		.p2align 4,,15
 3165              		.global	do_connect
 3166              		.thumb
 3167              		.thumb_func
 3168              		.type	do_connect, %function
 3169              	do_connect:
 3170              	.LFB276:
 3171              		.loc 1 985 0
 3172              		.cfi_startproc
 3173              		@ args = 0, pretend = 0, frame = 0
 3174              		@ frame_needed = 0, uses_anonymous_args = 0
ARM GAS  C:\Users\jo\AppData\Local\Temp\ccCSMiNu.s 			page 57


 3175              	.LVL348:
 3176              		.loc 1 986 0
 3177 0000 0368     		ldr	r3, [r0]
 3178 0002 5968     		ldr	r1, [r3, #4]
 3179 0004 0029     		cmp	r1, #0
 3180 0006 38D0     		beq	.L418
 3181              		.loc 1 985 0
 3182 0008 10B5     		push	{r4, lr}
 3183              		.cfi_def_cfa_offset 8
 3184              		.cfi_offset 4, -8
 3185              		.cfi_offset 14, -4
 3186              		.loc 1 990 0
 3187 000a 1A78     		ldrb	r2, [r3]	@ zero_extendqisi2
 3188 000c 02F0F002 		and	r2, r2, #240
 3189 0010 102A     		cmp	r2, #16
 3190              		.loc 1 985 0
 3191 0012 82B0     		sub	sp, sp, #8
 3192              		.cfi_def_cfa_offset 16
 3193 0014 0446     		mov	r4, r0
 3194              		.loc 1 990 0
 3195 0016 25D0     		beq	.L409
 3196 0018 202A     		cmp	r2, #32
 3197 001a 15D0     		beq	.L419
 3198              		.loc 1 1027 0 discriminator 1
 3199 001c 2B4B     		ldr	r3, .L421
 3200 001e 2C4A     		ldr	r2, .L421+4
 3201 0020 0093     		str	r3, [sp]
 3202 0022 2C49     		ldr	r1, .L421+8
 3203 0024 2C48     		ldr	r0, .L421+12
 3204              	.LVL349:
 3205 0026 40F20343 		movw	r3, #1027
 3206 002a FFF7FEFF 		bl	chprintf.constprop.2
 3207              	.LVL350:
 3208              	.LBB174:
 3209              	.LBB175:
 3210              		.loc 3 416 0 discriminator 1
 3211 002e 2848     		ldr	r0, .L421+4
 3212 0030 FFF7FEFF 		bl	chSysHalt
 3213              	.LVL351:
 3214              	.LBE175:
 3215              	.LBE174:
 3216              		.loc 1 1027 0 discriminator 1
 3217 0034 FA22     		movs	r2, #250
 3218 0036 2368     		ldr	r3, [r4]
 3219 0038 2271     		strb	r2, [r4, #4]
 3220              	.LVL352:
 3221              	.L407:
 3222              		.loc 1 1031 0
 3223 003a 03F10C00 		add	r0, r3, #12
 3224              		.loc 1 1032 0
 3225 003e 02B0     		add	sp, sp, #8
 3226              		.cfi_remember_state
 3227              		.cfi_def_cfa_offset 8
 3228              		@ sp needed
 3229 0040 BDE81040 		pop	{r4, lr}
 3230              		.cfi_restore 14
 3231              		.cfi_restore 4
ARM GAS  C:\Users\jo\AppData\Local\Temp\ccCSMiNu.s 			page 58


 3232              		.cfi_def_cfa_offset 0
 3233              	.LVL353:
 3234              		.loc 1 1031 0
 3235 0044 FFF7FEBF 		b	sys_sem_signal
 3236              	.LVL354:
 3237              	.L419:
 3238              		.cfi_restore_state
 3239              		.loc 1 998 0
 3240 0048 0846     		mov	r0, r1
 3241              	.LVL355:
 3242 004a A289     		ldrh	r2, [r4, #12]
 3243 004c A168     		ldr	r1, [r4, #8]
 3244 004e FFF7FEFF 		bl	udp_connect
 3245              	.LVL356:
 3246 0052 2368     		ldr	r3, [r4]
 3247 0054 2071     		strb	r0, [r4, #4]
 3248              		.loc 1 1031 0
 3249 0056 03F10C00 		add	r0, r3, #12
 3250              		.loc 1 1032 0
 3251 005a 02B0     		add	sp, sp, #8
 3252              		.cfi_remember_state
 3253              		.cfi_def_cfa_offset 8
 3254              		@ sp needed
 3255 005c BDE81040 		pop	{r4, lr}
 3256              		.cfi_restore 4
 3257              		.cfi_restore 14
 3258              		.cfi_def_cfa_offset 0
 3259              	.LVL357:
 3260              		.loc 1 1031 0
 3261 0060 FFF7FEBF 		b	sys_sem_signal
 3262              	.LVL358:
 3263              	.L409:
 3264              		.cfi_restore_state
 3265              		.loc 1 1004 0
 3266 0064 5A78     		ldrb	r2, [r3, #1]	@ zero_extendqisi2
 3267 0066 72B1     		cbz	r2, .L411
 3268              		.loc 1 1005 0
 3269 0068 F722     		movs	r2, #247
 3270 006a 0271     		strb	r2, [r0, #4]
 3271              		.loc 1 1031 0
 3272 006c 03F10C00 		add	r0, r3, #12
 3273              	.LVL359:
 3274              		.loc 1 1032 0
 3275 0070 02B0     		add	sp, sp, #8
 3276              		.cfi_def_cfa_offset 8
 3277              		@ sp needed
 3278 0072 BDE81040 		pop	{r4, lr}
 3279              		.cfi_restore 4
 3280              		.cfi_restore 14
 3281              		.cfi_def_cfa_offset 0
 3282              	.LVL360:
 3283              		.loc 1 1031 0
 3284 0076 FFF7FEBF 		b	sys_sem_signal
 3285              	.LVL361:
 3286              	.L418:
 3287              		.loc 1 988 0
 3288 007a F422     		movs	r2, #244
ARM GAS  C:\Users\jo\AppData\Local\Temp\ccCSMiNu.s 			page 59


 3289 007c 0271     		strb	r2, [r0, #4]
 3290              		.loc 1 1031 0
 3291 007e 03F10C00 		add	r0, r3, #12
 3292              	.LVL362:
 3293 0082 FFF7FEBF 		b	sys_sem_signal
 3294              	.LVL363:
 3295              	.L411:
 3296              		.cfi_def_cfa_offset 16
 3297              		.cfi_offset 4, -8
 3298              		.cfi_offset 14, -4
 3299              		.loc 1 1007 0
 3300 0086 1846     		mov	r0, r3
 3301              	.LVL364:
 3302 0088 FFF7FEFF 		bl	setup_tcp
 3303              	.LVL365:
 3304              		.loc 1 1008 0
 3305 008c 2368     		ldr	r3, [r4]
 3306 008e A168     		ldr	r1, [r4, #8]
 3307 0090 5868     		ldr	r0, [r3, #4]
 3308 0092 A289     		ldrh	r2, [r4, #12]
 3309 0094 114B     		ldr	r3, .L421+16
 3310 0096 FFF7FEFF 		bl	tcp_connect
 3311              	.LVL366:
 3312 009a 2071     		strb	r0, [r4, #4]
 3313              		.loc 1 1010 0
 3314 009c 60B9     		cbnz	r0, .L420
 3315              	.LBB176:
 3316              		.loc 1 1011 0
 3317 009e 2268     		ldr	r2, [r4]
 3318 00a0 137F     		ldrb	r3, [r2, #28]	@ zero_extendqisi2
 3319              	.LVL367:
 3320              		.loc 1 1012 0
 3321 00a2 0321     		movs	r1, #3
 3322 00a4 5170     		strb	r1, [r2, #1]
 3323              		.loc 1 1013 0
 3324 00a6 9907     		lsls	r1, r3, #30
 3325 00a8 08D5     		bpl	.L413
 3326              		.loc 1 1013 0 is_stmt 0 discriminator 1
 3327 00aa 43F00403 		orr	r3, r3, #4
 3328              	.LVL368:
 3329 00ae 1377     		strb	r3, [r2, #28]
 3330              	.LVL369:
 3331              		.loc 1 1015 0 is_stmt 1 discriminator 1
 3332 00b0 FB22     		movs	r2, #251
 3333 00b2 2368     		ldr	r3, [r4]
 3334 00b4 2271     		strb	r2, [r4, #4]
 3335 00b6 C0E7     		b	.L407
 3336              	.L420:
 3337 00b8 2368     		ldr	r3, [r4]
 3338 00ba BEE7     		b	.L407
 3339              	.LVL370:
 3340              	.L413:
 3341              		.loc 1 1013 0 discriminator 2
 3342 00bc 23F00403 		bic	r3, r3, #4
 3343              	.LVL371:
 3344 00c0 1377     		strb	r3, [r2, #28]
 3345              	.LVL372:
ARM GAS  C:\Users\jo\AppData\Local\Temp\ccCSMiNu.s 			page 60


 3346              		.loc 1 1017 0 discriminator 2
 3347 00c2 2368     		ldr	r3, [r4]
 3348 00c4 5C62     		str	r4, [r3, #36]
 3349              	.LBE176:
 3350              		.loc 1 1032 0 discriminator 2
 3351 00c6 02B0     		add	sp, sp, #8
 3352              		.cfi_def_cfa_offset 8
 3353              		@ sp needed
 3354 00c8 10BD     		pop	{r4, pc}
 3355              	.LVL373:
 3356              	.L422:
 3357 00ca 00BF     		.align	2
 3358              	.L421:
 3359 00cc 4C000000 		.word	.LC2
 3360 00d0 30040000 		.word	.LC30
 3361 00d4 00000000 		.word	.LC0
 3362 00d8 00000000 		.word	itm_port
 3363 00dc 00000000 		.word	do_connected
 3364              		.cfi_endproc
 3365              	.LFE276:
 3366              		.size	do_connect, .-do_connect
 3367              		.section	.text.do_disconnect,"ax",%progbits
 3368              		.align	2
 3369              		.p2align 4,,15
 3370              		.global	do_disconnect
 3371              		.thumb
 3372              		.thumb_func
 3373              		.type	do_disconnect, %function
 3374              	do_disconnect:
 3375              	.LFB277:
 3376              		.loc 1 1043 0
 3377              		.cfi_startproc
 3378              		@ args = 0, pretend = 0, frame = 0
 3379              		@ frame_needed = 0, uses_anonymous_args = 0
 3380              	.LVL374:
 3381              		.loc 1 1045 0
 3382 0000 0268     		ldr	r2, [r0]
 3383 0002 1378     		ldrb	r3, [r2]	@ zero_extendqisi2
 3384 0004 03F0F003 		and	r3, r3, #240
 3385 0008 202B     		cmp	r3, #32
 3386 000a 05D0     		beq	.L428
 3387              		.loc 1 1051 0
 3388 000c FA23     		movs	r3, #250
 3389 000e 0371     		strb	r3, [r0, #4]
 3390              		.loc 1 1053 0
 3391 0010 02F10C00 		add	r0, r2, #12
 3392              	.LVL375:
 3393 0014 FFF7FEBF 		b	sys_sem_signal
 3394              	.LVL376:
 3395              	.L428:
 3396              		.loc 1 1043 0
 3397 0018 10B5     		push	{r4, lr}
 3398              		.cfi_def_cfa_offset 8
 3399              		.cfi_offset 4, -8
 3400              		.cfi_offset 14, -4
 3401 001a 0446     		mov	r4, r0
 3402              		.loc 1 1046 0
ARM GAS  C:\Users\jo\AppData\Local\Temp\ccCSMiNu.s 			page 61


 3403 001c 5068     		ldr	r0, [r2, #4]
 3404              	.LVL377:
 3405 001e FFF7FEFF 		bl	udp_disconnect
 3406              	.LVL378:
 3407 0022 2268     		ldr	r2, [r4]
 3408              		.loc 1 1047 0
 3409 0024 0023     		movs	r3, #0
 3410 0026 2371     		strb	r3, [r4, #4]
 3411              		.loc 1 1053 0
 3412 0028 02F10C00 		add	r0, r2, #12
 3413              		.loc 1 1054 0
 3414 002c BDE81040 		pop	{r4, lr}
 3415              		.cfi_restore 14
 3416              		.cfi_restore 4
 3417              		.cfi_def_cfa_offset 0
 3418              	.LVL379:
 3419              		.loc 1 1053 0
 3420 0030 FFF7FEBF 		b	sys_sem_signal
 3421              	.LVL380:
 3422              		.cfi_endproc
 3423              	.LFE277:
 3424              		.size	do_disconnect, .-do_disconnect
 3425 0034 AFF30080 		.section	.text.do_listen,"ax",%progbits
 3425      AFF30080 
 3425      AFF30080 
 3426              		.align	2
 3427              		.p2align 4,,15
 3428              		.global	do_listen
 3429              		.thumb
 3430              		.thumb_func
 3431              		.type	do_listen, %function
 3432              	do_listen:
 3433              	.LFB278:
 3434              		.loc 1 1065 0
 3435              		.cfi_startproc
 3436              		@ args = 0, pretend = 0, frame = 0
 3437              		@ frame_needed = 0, uses_anonymous_args = 0
 3438              	.LVL381:
 3439 0000 38B5     		push	{r3, r4, r5, lr}
 3440              		.cfi_def_cfa_offset 16
 3441              		.cfi_offset 3, -16
 3442              		.cfi_offset 4, -12
 3443              		.cfi_offset 5, -8
 3444              		.cfi_offset 14, -4
 3445              		.loc 1 1066 0
 3446 0002 0368     		ldr	r3, [r0]
 3447 0004 1A7A     		ldrb	r2, [r3, #8]	@ zero_extendqisi2
 3448 0006 51B2     		sxtb	r1, r2
 3449 0008 0931     		adds	r1, r1, #9
 3450 000a 07DB     		blt	.L445
 3451              		.loc 1 1069 0
 3452 000c F322     		movs	r2, #243
 3453 000e 0271     		strb	r2, [r0, #4]
 3454              		.loc 1 1070 0
 3455 0010 5A68     		ldr	r2, [r3, #4]
 3456 0012 22B1     		cbz	r2, .L431
 3457              		.loc 1 1071 0
ARM GAS  C:\Users\jo\AppData\Local\Temp\ccCSMiNu.s 			page 62


 3458 0014 1978     		ldrb	r1, [r3]	@ zero_extendqisi2
 3459 0016 1029     		cmp	r1, #16
 3460 0018 07D0     		beq	.L446
 3461              		.loc 1 1105 0
 3462 001a F222     		movs	r2, #242
 3463              	.L445:
 3464 001c 0271     		strb	r2, [r0, #4]
 3465              	.LVL382:
 3466              	.L431:
 3467              		.loc 1 1109 0
 3468 001e 03F10C00 		add	r0, r3, #12
 3469              		.loc 1 1110 0
 3470 0022 BDE83840 		pop	{r3, r4, r5, lr}
 3471              		.cfi_remember_state
 3472              		.cfi_restore 14
 3473              		.cfi_restore 5
 3474              		.cfi_restore 4
 3475              		.cfi_restore 3
 3476              		.cfi_def_cfa_offset 0
 3477              		.loc 1 1109 0
 3478 0026 FFF7FEBF 		b	sys_sem_signal
 3479              	.LVL383:
 3480              	.L446:
 3481              		.cfi_restore_state
 3482              		.loc 1 1072 0
 3483 002a 5978     		ldrb	r1, [r3, #1]	@ zero_extendqisi2
 3484 002c 0029     		cmp	r1, #0
 3485 002e F6D1     		bne	.L431
 3486 0030 0446     		mov	r4, r0
 3487              	.LBB177:
 3488              		.loc 1 1076 0
 3489 0032 FF21     		movs	r1, #255
 3490 0034 1046     		mov	r0, r2
 3491              	.LVL384:
 3492 0036 FFF7FEFF 		bl	tcp_listen_with_backlog
 3493              	.LVL385:
 3494              		.loc 1 1078 0
 3495 003a 0546     		mov	r5, r0
 3496 003c E0B1     		cbz	r0, .L447
 3497              		.loc 1 1083 0
 3498 003e 2068     		ldr	r0, [r4]
 3499              	.LVL386:
 3500 0040 1030     		adds	r0, r0, #16
 3501 0042 FFF7FEFF 		bl	sys_mbox_valid
 3502              	.LVL387:
 3503 0046 50BB     		cbnz	r0, .L448
 3504              	.L434:
 3505              		.loc 1 1089 0
 3506 0048 2068     		ldr	r0, [r4]
 3507              		.loc 1 1088 0
 3508 004a 0023     		movs	r3, #0
 3509              		.loc 1 1089 0
 3510 004c 1430     		adds	r0, r0, #20
 3511              		.loc 1 1088 0
 3512 004e 2371     		strb	r3, [r4, #4]
 3513              		.loc 1 1089 0
 3514 0050 FFF7FEFF 		bl	sys_mbox_valid
ARM GAS  C:\Users\jo\AppData\Local\Temp\ccCSMiNu.s 			page 63


 3515              	.LVL388:
 3516 0054 E0B1     		cbz	r0, .L435
 3517 0056 2079     		ldrb	r0, [r4, #4]	@ zero_extendqisi2
 3518              	.L436:
 3519              		.loc 1 1092 0
 3520 0058 90B9     		cbnz	r0, .L437
 3521              		.loc 1 1093 0
 3522 005a 2368     		ldr	r3, [r4]
 3523              		.loc 1 1094 0
 3524 005c 5D60     		str	r5, [r3, #4]
 3525              		.loc 1 1095 0
 3526 005e 2168     		ldr	r1, [r4]
 3527              		.loc 1 1093 0
 3528 0060 0222     		movs	r2, #2
 3529 0062 5A70     		strb	r2, [r3, #1]
 3530              		.loc 1 1095 0
 3531 0064 4868     		ldr	r0, [r1, #4]
 3532 0066 FFF7FEFF 		bl	tcp_arg
 3533              	.LVL389:
 3534              		.loc 1 1096 0
 3535 006a 2368     		ldr	r3, [r4]
 3536 006c 1049     		ldr	r1, .L449
 3537 006e 5868     		ldr	r0, [r3, #4]
 3538 0070 FFF7FEFF 		bl	tcp_accept
 3539              	.LVL390:
 3540 0074 2368     		ldr	r3, [r4]
 3541 0076 D2E7     		b	.L431
 3542              	.LVL391:
 3543              	.L447:
 3544              		.loc 1 1080 0
 3545 0078 FF23     		movs	r3, #255
 3546 007a 2371     		strb	r3, [r4, #4]
 3547 007c 2368     		ldr	r3, [r4]
 3548 007e CEE7     		b	.L431
 3549              	.LVL392:
 3550              	.L437:
 3551              		.loc 1 1099 0
 3552 0080 2846     		mov	r0, r5
 3553 0082 FFF7FEFF 		bl	tcp_close
 3554              	.LVL393:
 3555              		.loc 1 1100 0
 3556 0086 2368     		ldr	r3, [r4]
 3557 0088 0022     		movs	r2, #0
 3558 008a 5A60     		str	r2, [r3, #4]
 3559 008c 2368     		ldr	r3, [r4]
 3560 008e C6E7     		b	.L431
 3561              	.L435:
 3562              		.loc 1 1090 0
 3563 0090 2068     		ldr	r0, [r4]
 3564 0092 0421     		movs	r1, #4
 3565 0094 1430     		adds	r0, r0, #20
 3566 0096 FFF7FEFF 		bl	sys_mbox_new
 3567              	.LVL394:
 3568 009a 2071     		strb	r0, [r4, #4]
 3569 009c DCE7     		b	.L436
 3570              	.L448:
 3571              		.loc 1 1085 0
ARM GAS  C:\Users\jo\AppData\Local\Temp\ccCSMiNu.s 			page 64


 3572 009e 2068     		ldr	r0, [r4]
 3573 00a0 1030     		adds	r0, r0, #16
 3574 00a2 FFF7FEFF 		bl	sys_mbox_free
 3575              	.LVL395:
 3576              		.loc 1 1086 0
 3577 00a6 2068     		ldr	r0, [r4]
 3578 00a8 1030     		adds	r0, r0, #16
 3579 00aa FFF7FEFF 		bl	sys_mbox_set_invalid
 3580              	.LVL396:
 3581 00ae CBE7     		b	.L434
 3582              	.L450:
 3583              		.align	2
 3584              	.L449:
 3585 00b0 00000000 		.word	accept_function
 3586              	.LBE177:
 3587              		.cfi_endproc
 3588              	.LFE278:
 3589              		.size	do_listen, .-do_listen
 3590 00b4 AFF30080 		.section	.text.do_send,"ax",%progbits
 3590      AFF30080 
 3590      AFF30080 
 3591              		.align	2
 3592              		.p2align 4,,15
 3593              		.global	do_send
 3594              		.thumb
 3595              		.thumb_func
 3596              		.type	do_send, %function
 3597              	do_send:
 3598              	.LFB279:
 3599              		.loc 1 1121 0
 3600              		.cfi_startproc
 3601              		@ args = 0, pretend = 0, frame = 0
 3602              		@ frame_needed = 0, uses_anonymous_args = 0
 3603              	.LVL397:
 3604              		.loc 1 1122 0
 3605 0000 0368     		ldr	r3, [r0]
 3606 0002 1A7A     		ldrb	r2, [r3, #8]	@ zero_extendqisi2
 3607 0004 51B2     		sxtb	r1, r2
 3608 0006 0931     		adds	r1, r1, #9
 3609 0008 1CDB     		blt	.L465
 3610              		.loc 1 1125 0
 3611 000a F322     		movs	r2, #243
 3612 000c 0271     		strb	r2, [r0, #4]
 3613              		.loc 1 1126 0
 3614 000e 5968     		ldr	r1, [r3, #4]
 3615 0010 C9B1     		cbz	r1, .L464
 3616              		.loc 1 1127 0
 3617 0012 1A78     		ldrb	r2, [r3]	@ zero_extendqisi2
 3618 0014 02F0F002 		and	r2, r2, #240
 3619 0018 202A     		cmp	r2, #32
 3620 001a 14D1     		bne	.L464
 3621              		.loc 1 1121 0
 3622 001c 10B5     		push	{r4, lr}
 3623              		.cfi_def_cfa_offset 8
 3624              		.cfi_offset 4, -8
 3625              		.cfi_offset 14, -4
 3626              		.loc 1 1149 0
ARM GAS  C:\Users\jo\AppData\Local\Temp\ccCSMiNu.s 			page 65


 3627 001e 8368     		ldr	r3, [r0, #8]
 3628 0020 13F10802 		adds	r2, r3, #8
 3629 0024 0446     		mov	r4, r0
 3630 0026 01D0     		beq	.L455
 3631              		.loc 1 1149 0 is_stmt 0 discriminator 1
 3632 0028 9868     		ldr	r0, [r3, #8]
 3633              	.LVL398:
 3634 002a 80B9     		cbnz	r0, .L456
 3635              	.L455:
 3636              		.loc 1 1150 0 is_stmt 1
 3637 002c 0846     		mov	r0, r1
 3638 002e 1968     		ldr	r1, [r3]
 3639 0030 FFF7FEFF 		bl	udp_send
 3640              	.LVL399:
 3641 0034 2368     		ldr	r3, [r4]
 3642 0036 2071     		strb	r0, [r4, #4]
 3643              		.loc 1 1163 0
 3644 0038 BDE81040 		pop	{r4, lr}
 3645              		.cfi_restore 14
 3646              		.cfi_restore 4
 3647              		.cfi_def_cfa_offset 0
 3648              	.LVL400:
 3649              		.loc 1 1162 0
 3650 003c 03F10C00 		add	r0, r3, #12
 3651 0040 FFF7FEBF 		b	sys_sem_signal
 3652              	.LVL401:
 3653              	.L465:
 3654              		.loc 1 1123 0
 3655 0044 0271     		strb	r2, [r0, #4]
 3656              	.L464:
 3657              		.loc 1 1162 0
 3658 0046 03F10C00 		add	r0, r3, #12
 3659              	.LVL402:
 3660 004a FFF7FEBF 		b	sys_sem_signal
 3661              	.LVL403:
 3662              	.L456:
 3663              		.cfi_def_cfa_offset 8
 3664              		.cfi_offset 4, -8
 3665              		.cfi_offset 14, -4
 3666              		.loc 1 1152 0
 3667 004e 0846     		mov	r0, r1
 3668 0050 1968     		ldr	r1, [r3]
 3669 0052 9B89     		ldrh	r3, [r3, #12]
 3670 0054 FFF7FEFF 		bl	udp_sendto
 3671              	.LVL404:
 3672 0058 2368     		ldr	r3, [r4]
 3673 005a 2071     		strb	r0, [r4, #4]
 3674              		.loc 1 1163 0
 3675 005c BDE81040 		pop	{r4, lr}
 3676              		.cfi_restore 4
 3677              		.cfi_restore 14
 3678              		.cfi_def_cfa_offset 0
 3679              	.LVL405:
 3680              		.loc 1 1162 0
 3681 0060 03F10C00 		add	r0, r3, #12
 3682 0064 FFF7FEBF 		b	sys_sem_signal
 3683              	.LVL406:
ARM GAS  C:\Users\jo\AppData\Local\Temp\ccCSMiNu.s 			page 66


 3684              		.cfi_endproc
 3685              	.LFE279:
 3686              		.size	do_send, .-do_send
 3687 0068 AFF30080 		.section	.text.do_recv,"ax",%progbits
 3687      AFF30080 
 3688              		.align	2
 3689              		.p2align 4,,15
 3690              		.global	do_recv
 3691              		.thumb
 3692              		.thumb_func
 3693              		.type	do_recv, %function
 3694              	do_recv:
 3695              	.LFB280:
 3696              		.loc 1 1174 0
 3697              		.cfi_startproc
 3698              		@ args = 0, pretend = 0, frame = 0
 3699              		@ frame_needed = 0, uses_anonymous_args = 0
 3700              	.LVL407:
 3701 0000 70B5     		push	{r4, r5, r6, lr}
 3702              		.cfi_def_cfa_offset 16
 3703              		.cfi_offset 4, -16
 3704              		.cfi_offset 5, -12
 3705              		.cfi_offset 6, -8
 3706              		.cfi_offset 14, -4
 3707              		.loc 1 1175 0
 3708 0002 0022     		movs	r2, #0
 3709              		.loc 1 1176 0
 3710 0004 0368     		ldr	r3, [r0]
 3711              		.loc 1 1175 0
 3712 0006 0271     		strb	r2, [r0, #4]
 3713              		.loc 1 1174 0
 3714 0008 0646     		mov	r6, r0
 3715              		.loc 1 1176 0
 3716 000a 5868     		ldr	r0, [r3, #4]
 3717              	.LVL408:
 3718 000c 10B1     		cbz	r0, .L467
 3719              		.loc 1 1177 0
 3720 000e 1A78     		ldrb	r2, [r3]	@ zero_extendqisi2
 3721 0010 102A     		cmp	r2, #16
 3722 0012 05D0     		beq	.L477
 3723              	.L467:
 3724              		.loc 1 1193 0
 3725 0014 03F10C00 		add	r0, r3, #12
 3726              		.loc 1 1194 0
 3727 0018 BDE87040 		pop	{r4, r5, r6, lr}
 3728              		.cfi_remember_state
 3729              		.cfi_restore 14
 3730              		.cfi_restore 6
 3731              		.cfi_restore 5
 3732              		.cfi_restore 4
 3733              		.cfi_def_cfa_offset 0
 3734              	.LVL409:
 3735              		.loc 1 1193 0
 3736 001c FFF7FEBF 		b	sys_sem_signal
 3737              	.LVL410:
 3738              	.L477:
 3739              		.cfi_restore_state
ARM GAS  C:\Users\jo\AppData\Local\Temp\ccCSMiNu.s 			page 67


 3740              	.LBB178:
 3741              		.loc 1 1184 0
 3742 0020 B468     		ldr	r4, [r6, #8]
 3743              	.LVL411:
 3744 0022 00E0     		b	.L470
 3745              	.LVL412:
 3746              	.L478:
 3747 0024 5868     		ldr	r0, [r3, #4]
 3748              	.L470:
 3749              	.LBB179:
 3750              		.loc 1 1186 0
 3751 0026 B4F5803F 		cmp	r4, #65536
 3752 002a 2DBF     		iteet	cs
 3753 002c 4FF6FF75 		movwcs	r5, #65535
 3754 0030 A1B2     		uxthcc	r1, r4
 3755 0032 2546     		movcc	r5, r4
 3756 0034 2946     		movcs	r1, r5
 3757              	.LVL413:
 3758              		.loc 1 1187 0
 3759 0036 FFF7FEFF 		bl	tcp_recved
 3760              	.LVL414:
 3761              	.LBE179:
 3762              		.loc 1 1189 0
 3763 003a 641B     		subs	r4, r4, r5
 3764              	.LVL415:
 3765 003c 3368     		ldr	r3, [r6]
 3766 003e F1D1     		bne	.L478
 3767              	.LBE178:
 3768              		.loc 1 1193 0
 3769 0040 03F10C00 		add	r0, r3, #12
 3770              		.loc 1 1194 0
 3771 0044 BDE87040 		pop	{r4, r5, r6, lr}
 3772              		.cfi_restore 4
 3773              		.cfi_restore 5
 3774              		.cfi_restore 6
 3775              		.cfi_restore 14
 3776              		.cfi_def_cfa_offset 0
 3777              	.LVL416:
 3778              		.loc 1 1193 0
 3779 0048 FFF7FEBF 		b	sys_sem_signal
 3780              	.LVL417:
 3781              		.cfi_endproc
 3782              	.LFE280:
 3783              		.size	do_recv, .-do_recv
 3784 004c AFF30080 		.section	.text.do_write,"ax",%progbits
 3785              		.align	2
 3786              		.p2align 4,,15
 3787              		.global	do_write
 3788              		.thumb
 3789              		.thumb_func
 3790              		.type	do_write, %function
 3791              	do_write:
 3792              	.LFB282:
 3793              		.loc 1 1344 0
 3794              		.cfi_startproc
 3795              		@ args = 0, pretend = 0, frame = 0
 3796              		@ frame_needed = 0, uses_anonymous_args = 0
ARM GAS  C:\Users\jo\AppData\Local\Temp\ccCSMiNu.s 			page 68


 3797              	.LVL418:
 3798              		.loc 1 1345 0
 3799 0000 0368     		ldr	r3, [r0]
 3800 0002 1A7A     		ldrb	r2, [r3, #8]	@ zero_extendqisi2
 3801 0004 51B2     		sxtb	r1, r2
 3802 0006 0931     		adds	r1, r1, #9
 3803 0008 03DB     		blt	.L492
 3804              		.loc 1 1348 0
 3805 000a 1A78     		ldrb	r2, [r3]	@ zero_extendqisi2
 3806 000c 102A     		cmp	r2, #16
 3807 000e 05D0     		beq	.L493
 3808              		.loc 1 1384 0
 3809 0010 FA22     		movs	r2, #250
 3810              	.L492:
 3811 0012 0271     		strb	r2, [r0, #4]
 3812              	.L481:
 3813              		.loc 1 1388 0
 3814 0014 03F10C00 		add	r0, r3, #12
 3815              	.LVL419:
 3816 0018 FFF7FEBF 		b	sys_sem_signal
 3817              	.LVL420:
 3818              	.L493:
 3819              		.loc 1 1350 0
 3820 001c 5A78     		ldrb	r2, [r3, #1]	@ zero_extendqisi2
 3821 001e 12B1     		cbz	r2, .L483
 3822              		.loc 1 1352 0
 3823 0020 FB22     		movs	r2, #251
 3824 0022 0271     		strb	r2, [r0, #4]
 3825 0024 F6E7     		b	.L481
 3826              	.L483:
 3827              		.loc 1 1353 0
 3828 0026 5A68     		ldr	r2, [r3, #4]
 3829 0028 002A     		cmp	r2, #0
 3830 002a 2ED0     		beq	.L484
 3831              		.loc 1 1344 0
 3832 002c 10B5     		push	{r4, lr}
 3833              		.cfi_def_cfa_offset 8
 3834              		.cfi_offset 4, -8
 3835              		.cfi_offset 14, -4
 3836              		.loc 1 1356 0
 3837 002e 5A6A     		ldr	r2, [r3, #36]
 3838              		.loc 1 1354 0
 3839 0030 0121     		movs	r1, #1
 3840              		.loc 1 1344 0
 3841 0032 82B0     		sub	sp, sp, #8
 3842              		.cfi_def_cfa_offset 16
 3843 0034 0446     		mov	r4, r0
 3844              		.loc 1 1354 0
 3845 0036 5970     		strb	r1, [r3, #1]
 3846              		.loc 1 1356 0
 3847 0038 1AB3     		cbz	r2, .L494
 3848              	.L485:
 3849              		.loc 1 1356 0 is_stmt 0 discriminator 3
 3850 003a 154B     		ldr	r3, .L496
 3851 003c 0093     		str	r3, [sp]
 3852 003e 1548     		ldr	r0, .L496+4
 3853              	.LVL421:
ARM GAS  C:\Users\jo\AppData\Local\Temp\ccCSMiNu.s 			page 69


 3854 0040 1549     		ldr	r1, .L496+8
 3855 0042 164A     		ldr	r2, .L496+12
 3856 0044 40F24D53 		movw	r3, #1357
 3857 0048 FFF7FEFF 		bl	chprintf.constprop.2
 3858              	.LVL422:
 3859              	.LBB180:
 3860              	.LBB181:
 3861              		.loc 3 416 0 is_stmt 1 discriminator 3
 3862 004c 1348     		ldr	r0, .L496+12
 3863 004e FFF7FEFF 		bl	chSysHalt
 3864              	.LVL423:
 3865              	.L486:
 3866              	.LBE181:
 3867              	.LBE180:
 3868              		.loc 1 1358 0
 3869 0052 E368     		ldr	r3, [r4, #12]
 3870 0054 43B1     		cbz	r3, .L495
 3871              	.L487:
 3872              		.loc 1 1359 0
 3873 0056 2068     		ldr	r0, [r4]
 3874              		.loc 1 1360 0
 3875 0058 0023     		movs	r3, #0
 3876              		.loc 1 1359 0
 3877 005a 4462     		str	r4, [r0, #36]
 3878              		.loc 1 1360 0
 3879 005c 0362     		str	r3, [r0, #32]
 3880              		.loc 1 1389 0
 3881 005e 02B0     		add	sp, sp, #8
 3882              		.cfi_remember_state
 3883              		.cfi_def_cfa_offset 8
 3884              		@ sp needed
 3885 0060 BDE81040 		pop	{r4, lr}
 3886              		.cfi_restore 14
 3887              		.cfi_restore 4
 3888              		.cfi_def_cfa_offset 0
 3889              	.LVL424:
 3890              		.loc 1 1371 0
 3891 0064 FFF7FEBF 		b	do_writemore
 3892              	.LVL425:
 3893              	.L495:
 3894              		.cfi_restore_state
 3895              		.loc 1 1358 0 discriminator 1
 3896 0068 094B     		ldr	r3, .L496
 3897 006a 0093     		str	r3, [sp]
 3898 006c 0A49     		ldr	r1, .L496+8
 3899 006e 0C4A     		ldr	r2, .L496+16
 3900 0070 0848     		ldr	r0, .L496+4
 3901 0072 40F24E53 		movw	r3, #1358
 3902 0076 FFF7FEFF 		bl	chprintf.constprop.2
 3903              	.LVL426:
 3904              	.LBB182:
 3905              	.LBB183:
 3906              		.loc 3 416 0 discriminator 1
 3907 007a 0948     		ldr	r0, .L496+16
 3908 007c FFF7FEFF 		bl	chSysHalt
 3909              	.LVL427:
 3910 0080 E9E7     		b	.L487
ARM GAS  C:\Users\jo\AppData\Local\Temp\ccCSMiNu.s 			page 70


 3911              	.LVL428:
 3912              	.L494:
 3913              	.LBE183:
 3914              	.LBE182:
 3915              		.loc 1 1356 0 discriminator 2
 3916 0082 1B6A     		ldr	r3, [r3, #32]
 3917 0084 002B     		cmp	r3, #0
 3918 0086 E4D0     		beq	.L486
 3919 0088 D7E7     		b	.L485
 3920              	.L484:
 3921              		.cfi_def_cfa_offset 0
 3922              		.cfi_restore 4
 3923              		.cfi_restore 14
 3924              		.loc 1 1377 0
 3925 008a F322     		movs	r2, #243
 3926 008c 0271     		strb	r2, [r0, #4]
 3927 008e C1E7     		b	.L481
 3928              	.L497:
 3929              		.align	2
 3930              	.L496:
 3931 0090 4C000000 		.word	.LC2
 3932 0094 00000000 		.word	itm_port
 3933 0098 00000000 		.word	.LC0
 3934 009c 14040000 		.word	.LC29
 3935 00a0 48040000 		.word	.LC31
 3936              		.cfi_endproc
 3937              	.LFE282:
 3938              		.size	do_write, .-do_write
 3939 00a4 AFF30080 		.section	.text.do_getaddr,"ax",%progbits
 3939      AFF30080 
 3939      AFF30080 
 3940              		.align	2
 3941              		.p2align 4,,15
 3942              		.global	do_getaddr
 3943              		.thumb
 3944              		.thumb_func
 3945              		.type	do_getaddr, %function
 3946              	do_getaddr:
 3947              	.LFB283:
 3948              		.loc 1 1399 0
 3949              		.cfi_startproc
 3950              		@ args = 0, pretend = 0, frame = 0
 3951              		@ frame_needed = 0, uses_anonymous_args = 0
 3952              	.LVL429:
 3953 0000 10B5     		push	{r4, lr}
 3954              		.cfi_def_cfa_offset 8
 3955              		.cfi_offset 4, -8
 3956              		.cfi_offset 14, -4
 3957              		.loc 1 1400 0
 3958 0002 0468     		ldr	r4, [r0]
 3959 0004 6368     		ldr	r3, [r4, #4]
 3960              		.loc 1 1399 0
 3961 0006 82B0     		sub	sp, sp, #8
 3962              		.cfi_def_cfa_offset 16
 3963              		.loc 1 1400 0
 3964 0008 002B     		cmp	r3, #0
 3965 000a 3DD0     		beq	.L499
ARM GAS  C:\Users\jo\AppData\Local\Temp\ccCSMiNu.s 			page 71


 3966              		.loc 1 1401 0
 3967 000c 017C     		ldrb	r1, [r0, #16]	@ zero_extendqisi2
 3968 000e 8268     		ldr	r2, [r0, #8]
 3969 0010 A9B9     		cbnz	r1, .L512
 3970              		.loc 1 1401 0 is_stmt 0 discriminator 2
 3971 0012 5B68     		ldr	r3, [r3, #4]
 3972 0014 1360     		str	r3, [r2]
 3973              	.L501:
 3974              		.loc 1 1404 0 is_stmt 1
 3975 0016 0023     		movs	r3, #0
 3976 0018 0371     		strb	r3, [r0, #4]
 3977              		.loc 1 1405 0
 3978 001a 2378     		ldrb	r3, [r4]	@ zero_extendqisi2
 3979 001c 03F0F003 		and	r3, r3, #240
 3980 0020 102B     		cmp	r3, #16
 3981 0022 24D0     		beq	.L503
 3982 0024 202B     		cmp	r3, #32
 3983 0026 0DD1     		bne	.L510
 3984              		.loc 1 1418 0
 3985 0028 037C     		ldrb	r3, [r0, #16]	@ zero_extendqisi2
 3986 002a 002B     		cmp	r3, #0
 3987 002c 38D1     		bne	.L513
 3988              		.loc 1 1421 0
 3989 002e 6368     		ldr	r3, [r4, #4]
 3990 0030 1A7C     		ldrb	r2, [r3, #16]	@ zero_extendqisi2
 3991 0032 5207     		lsls	r2, r2, #29
 3992 0034 28D5     		bpl	.L499
 3993              		.loc 1 1424 0
 3994 0036 C268     		ldr	r2, [r0, #12]
 3995 0038 9B8A     		ldrh	r3, [r3, #20]
 3996 003a 1380     		strh	r3, [r2]	@ movhi
 3997 003c 10E0     		b	.L506
 3998              	.L512:
 3999              		.loc 1 1401 0 discriminator 1
 4000 003e 1B68     		ldr	r3, [r3]
 4001 0040 1360     		str	r3, [r2]
 4002 0042 E8E7     		b	.L501
 4003              	.L510:
 4004              		.loc 1 1435 0 discriminator 1
 4005 0044 1C4B     		ldr	r3, .L515
 4006 0046 0093     		str	r3, [sp]
 4007 0048 0446     		mov	r4, r0
 4008 004a 1C49     		ldr	r1, .L515+4
 4009 004c 1C4A     		ldr	r2, .L515+8
 4010 004e 1D48     		ldr	r0, .L515+12
 4011              	.LVL430:
 4012 0050 40F29B53 		movw	r3, #1435
 4013 0054 FFF7FEFF 		bl	chprintf.constprop.2
 4014              	.LVL431:
 4015              	.LBB184:
 4016              	.LBB185:
 4017              		.loc 3 416 0 discriminator 1
 4018 0058 1948     		ldr	r0, .L515+8
 4019 005a FFF7FEFF 		bl	chSysHalt
 4020              	.LVL432:
 4021 005e 2468     		ldr	r4, [r4]
 4022              	.LVL433:
ARM GAS  C:\Users\jo\AppData\Local\Temp\ccCSMiNu.s 			page 72


 4023              	.L506:
 4024              	.LBE185:
 4025              	.LBE184:
 4026              		.loc 1 1441 0
 4027 0060 04F10C00 		add	r0, r4, #12
 4028              		.loc 1 1442 0
 4029 0064 02B0     		add	sp, sp, #8
 4030              		.cfi_remember_state
 4031              		.cfi_def_cfa_offset 8
 4032              		@ sp needed
 4033 0066 BDE81040 		pop	{r4, lr}
 4034              		.cfi_restore 14
 4035              		.cfi_restore 4
 4036              		.cfi_def_cfa_offset 0
 4037              		.loc 1 1441 0
 4038 006a FFF7FEBF 		b	sys_sem_signal
 4039              	.LVL434:
 4040              	.L503:
 4041              		.cfi_restore_state
 4042              		.loc 1 1431 0
 4043 006e 027C     		ldrb	r2, [r0, #16]	@ zero_extendqisi2
 4044 0070 C368     		ldr	r3, [r0, #12]
 4045 0072 92B9     		cbnz	r2, .L514
 4046              		.loc 1 1431 0 is_stmt 0 discriminator 2
 4047 0074 6268     		ldr	r2, [r4, #4]
 4048 0076 928B     		ldrh	r2, [r2, #28]
 4049              	.L509:
 4050              		.loc 1 1431 0 discriminator 4
 4051 0078 1A80     		strh	r2, [r3]	@ movhi
 4052              		.loc 1 1441 0 is_stmt 1 discriminator 4
 4053 007a 04F10C00 		add	r0, r4, #12
 4054              	.LVL435:
 4055              		.loc 1 1442 0 discriminator 4
 4056 007e 02B0     		add	sp, sp, #8
 4057              		.cfi_remember_state
 4058              		.cfi_def_cfa_offset 8
 4059              		@ sp needed
 4060 0080 BDE81040 		pop	{r4, lr}
 4061              		.cfi_restore 4
 4062              		.cfi_restore 14
 4063              		.cfi_def_cfa_offset 0
 4064              		.loc 1 1441 0 discriminator 4
 4065 0084 FFF7FEBF 		b	sys_sem_signal
 4066              	.LVL436:
 4067              	.L499:
 4068              		.cfi_restore_state
 4069              		.loc 1 1439 0
 4070 0088 F323     		movs	r3, #243
 4071 008a 0371     		strb	r3, [r0, #4]
 4072              		.loc 1 1441 0
 4073 008c 04F10C00 		add	r0, r4, #12
 4074              	.LVL437:
 4075              		.loc 1 1442 0
 4076 0090 02B0     		add	sp, sp, #8
 4077              		.cfi_remember_state
 4078              		.cfi_def_cfa_offset 8
 4079              		@ sp needed
ARM GAS  C:\Users\jo\AppData\Local\Temp\ccCSMiNu.s 			page 73


 4080 0092 BDE81040 		pop	{r4, lr}
 4081              		.cfi_restore 4
 4082              		.cfi_restore 14
 4083              		.cfi_def_cfa_offset 0
 4084              		.loc 1 1441 0
 4085 0096 FFF7FEBF 		b	sys_sem_signal
 4086              	.LVL438:
 4087              	.L514:
 4088              		.cfi_restore_state
 4089              		.loc 1 1431 0 discriminator 1
 4090 009a 6268     		ldr	r2, [r4, #4]
 4091 009c 528B     		ldrh	r2, [r2, #26]
 4092 009e EBE7     		b	.L509
 4093              	.L513:
 4094              		.loc 1 1419 0
 4095 00a0 6268     		ldr	r2, [r4, #4]
 4096 00a2 C368     		ldr	r3, [r0, #12]
 4097 00a4 528A     		ldrh	r2, [r2, #18]
 4098 00a6 1A80     		strh	r2, [r3]	@ movhi
 4099              		.loc 1 1441 0
 4100 00a8 04F10C00 		add	r0, r4, #12
 4101              	.LVL439:
 4102              		.loc 1 1442 0
 4103 00ac 02B0     		add	sp, sp, #8
 4104              		.cfi_def_cfa_offset 8
 4105              		@ sp needed
 4106 00ae BDE81040 		pop	{r4, lr}
 4107              		.cfi_restore 4
 4108              		.cfi_restore 14
 4109              		.cfi_def_cfa_offset 0
 4110              		.loc 1 1441 0
 4111 00b2 FFF7FEBF 		b	sys_sem_signal
 4112              	.LVL440:
 4113              	.L516:
 4114 00b6 00BF     		.align	2
 4115              	.L515:
 4116 00b8 4C000000 		.word	.LC2
 4117 00bc 00000000 		.word	.LC0
 4118 00c0 5C040000 		.word	.LC32
 4119 00c4 00000000 		.word	itm_port
 4120              		.cfi_endproc
 4121              	.LFE283:
 4122              		.size	do_getaddr, .-do_getaddr
 4123 00c8 AFF30080 		.section	.text.do_close,"ax",%progbits
 4123      AFF30080 
 4124              		.align	2
 4125              		.p2align 4,,15
 4126              		.global	do_close
 4127              		.thumb
 4128              		.thumb_func
 4129              		.type	do_close, %function
 4130              	do_close:
 4131              	.LFB284:
 4132              		.loc 1 1452 0
 4133              		.cfi_startproc
 4134              		@ args = 0, pretend = 0, frame = 0
 4135              		@ frame_needed = 0, uses_anonymous_args = 0
ARM GAS  C:\Users\jo\AppData\Local\Temp\ccCSMiNu.s 			page 74


 4136              	.LVL441:
 4137 0000 10B5     		push	{r4, lr}
 4138              		.cfi_def_cfa_offset 8
 4139              		.cfi_offset 4, -8
 4140              		.cfi_offset 14, -4
 4141 0002 0446     		mov	r4, r0
 4142              		.loc 1 1455 0
 4143 0004 0068     		ldr	r0, [r0]
 4144              	.LVL442:
 4145 0006 4378     		ldrb	r3, [r0, #1]	@ zero_extendqisi2
 4146 0008 13F0FD0F 		tst	r3, #253
 4147              		.loc 1 1452 0
 4148 000c 82B0     		sub	sp, sp, #8
 4149              		.cfi_def_cfa_offset 16
 4150              		.loc 1 1455 0
 4151 000e 17D0     		beq	.L518
 4152              		.loc 1 1457 0
 4153 0010 0378     		ldrb	r3, [r0]	@ zero_extendqisi2
 4154 0012 102B     		cmp	r3, #16
 4155 0014 0CD0     		beq	.L519
 4156              		.loc 1 1457 0 is_stmt 0 discriminator 1
 4157 0016 254B     		ldr	r3, .L546
 4158 0018 0093     		str	r3, [sp]
 4159 001a 2549     		ldr	r1, .L546+4
 4160 001c 254A     		ldr	r2, .L546+8
 4161 001e 2648     		ldr	r0, .L546+12
 4162 0020 40F2B153 		movw	r3, #1457
 4163 0024 FFF7FEFF 		bl	chprintf.constprop.2
 4164              	.LVL443:
 4165              	.LBB186:
 4166              	.LBB187:
 4167              		.loc 3 416 0 is_stmt 1 discriminator 1
 4168 0028 2248     		ldr	r0, .L546+8
 4169 002a FFF7FEFF 		bl	chSysHalt
 4170              	.LVL444:
 4171 002e 2068     		ldr	r0, [r4]
 4172              	.LVL445:
 4173              	.L519:
 4174              	.LBE187:
 4175              	.LBE186:
 4176              		.loc 1 1458 0
 4177 0030 FB23     		movs	r3, #251
 4178              		.loc 1 1481 0
 4179 0032 0C30     		adds	r0, r0, #12
 4180              		.loc 1 1458 0
 4181 0034 2371     		strb	r3, [r4, #4]
 4182              		.loc 1 1482 0
 4183 0036 02B0     		add	sp, sp, #8
 4184              		.cfi_remember_state
 4185              		.cfi_def_cfa_offset 8
 4186              		@ sp needed
 4187 0038 BDE81040 		pop	{r4, lr}
 4188              		.cfi_restore 4
 4189              		.cfi_restore 14
 4190              		.cfi_def_cfa_offset 0
 4191              	.LVL446:
 4192              		.loc 1 1481 0
ARM GAS  C:\Users\jo\AppData\Local\Temp\ccCSMiNu.s 			page 75


 4193 003c FFF7FEBF 		b	sys_sem_signal
 4194              	.LVL447:
 4195              	.L518:
 4196              		.cfi_restore_state
 4197              		.loc 1 1459 0
 4198 0040 4268     		ldr	r2, [r0, #4]
 4199 0042 12B1     		cbz	r2, .L521
 4200              		.loc 1 1459 0 is_stmt 0 discriminator 1
 4201 0044 0278     		ldrb	r2, [r0]	@ zero_extendqisi2
 4202 0046 102A     		cmp	r2, #16
 4203 0048 07D0     		beq	.L543
 4204              	.L521:
 4205              		.loc 1 1479 0 is_stmt 1
 4206 004a FA23     		movs	r3, #250
 4207 004c 2371     		strb	r3, [r4, #4]
 4208              	.L520:
 4209              		.loc 1 1481 0
 4210 004e 0C30     		adds	r0, r0, #12
 4211              		.loc 1 1482 0
 4212 0050 02B0     		add	sp, sp, #8
 4213              		.cfi_remember_state
 4214              		.cfi_def_cfa_offset 8
 4215              		@ sp needed
 4216 0052 BDE81040 		pop	{r4, lr}
 4217              		.cfi_restore 14
 4218              		.cfi_restore 4
 4219              		.cfi_def_cfa_offset 0
 4220              	.LVL448:
 4221              		.loc 1 1481 0
 4222 0056 FFF7FEBF 		b	sys_sem_signal
 4223              	.LVL449:
 4224              	.L543:
 4225              		.cfi_restore_state
 4226              		.loc 1 1460 0
 4227 005a 227A     		ldrb	r2, [r4, #8]	@ zero_extendqisi2
 4228 005c 032A     		cmp	r2, #3
 4229 005e 1ED0     		beq	.L522
 4230              		.loc 1 1460 0 is_stmt 0 discriminator 1
 4231 0060 022B     		cmp	r3, #2
 4232 0062 20D0     		beq	.L544
 4233              		.loc 1 1464 0 is_stmt 1
 4234 0064 D307     		lsls	r3, r2, #31
 4235 0066 1AD4     		bmi	.L522
 4236              	.L524:
 4237              		.loc 1 1468 0
 4238 0068 436A     		ldr	r3, [r0, #36]
 4239 006a A3B1     		cbz	r3, .L545
 4240              	.L525:
 4241              		.loc 1 1468 0 is_stmt 0 discriminator 3
 4242 006c 0F4B     		ldr	r3, .L546
 4243 006e 0093     		str	r3, [sp]
 4244 0070 0F49     		ldr	r1, .L546+4
 4245 0072 124A     		ldr	r2, .L546+16
 4246 0074 1048     		ldr	r0, .L546+12
 4247 0076 40F2BD53 		movw	r3, #1469
 4248 007a FFF7FEFF 		bl	chprintf.constprop.2
 4249              	.LVL450:
ARM GAS  C:\Users\jo\AppData\Local\Temp\ccCSMiNu.s 			page 76


 4250              	.LBB188:
 4251              	.LBB189:
 4252              		.loc 3 416 0 is_stmt 1 discriminator 3
 4253 007e 0F48     		ldr	r0, .L546+16
 4254 0080 FFF7FEFF 		bl	chSysHalt
 4255              	.LVL451:
 4256 0084 2068     		ldr	r0, [r4]
 4257              	.LVL452:
 4258              	.L526:
 4259              	.LBE189:
 4260              	.LBE188:
 4261              		.loc 1 1471 0
 4262 0086 4462     		str	r4, [r0, #36]
 4263              		.loc 1 1470 0
 4264 0088 0423     		movs	r3, #4
 4265 008a 4370     		strb	r3, [r0, #1]
 4266              		.loc 1 1482 0
 4267 008c 02B0     		add	sp, sp, #8
 4268              		.cfi_remember_state
 4269              		.cfi_def_cfa_offset 8
 4270              		@ sp needed
 4271 008e BDE81040 		pop	{r4, lr}
 4272              		.cfi_restore 14
 4273              		.cfi_restore 4
 4274              		.cfi_def_cfa_offset 0
 4275              	.LVL453:
 4276              		.loc 1 1472 0
 4277 0092 FFF7FEBF 		b	do_close_internal
 4278              	.LVL454:
 4279              	.L545:
 4280              		.cfi_restore_state
 4281              		.loc 1 1468 0 discriminator 2
 4282 0096 036A     		ldr	r3, [r0, #32]
 4283 0098 002B     		cmp	r3, #0
 4284 009a E7D1     		bne	.L525
 4285 009c F3E7     		b	.L526
 4286              	.L522:
 4287              		.loc 1 1466 0
 4288 009e FFF7FEFF 		bl	netconn_drain
 4289              	.LVL455:
 4290 00a2 2068     		ldr	r0, [r4]
 4291 00a4 E0E7     		b	.L524
 4292              	.L544:
 4293              		.loc 1 1462 0
 4294 00a6 F323     		movs	r3, #243
 4295 00a8 2371     		strb	r3, [r4, #4]
 4296              		.loc 1 1460 0
 4297 00aa D0E7     		b	.L520
 4298              	.L547:
 4299              		.align	2
 4300              	.L546:
 4301 00ac 4C000000 		.word	.LC2
 4302 00b0 00000000 		.word	.LC0
 4303 00b4 D4030000 		.word	.LC27
 4304 00b8 00000000 		.word	itm_port
 4305 00bc 14040000 		.word	.LC29
 4306              		.cfi_endproc
ARM GAS  C:\Users\jo\AppData\Local\Temp\ccCSMiNu.s 			page 77


 4307              	.LFE284:
 4308              		.size	do_close, .-do_close
 4309              		.section	.rodata.str1.4,"aMS",%progbits,1
 4310              		.align	2
 4311              	.LC0:
 4312 0000 41737365 		.ascii	"Assertion \"%s\" failed at line %d in %s\012\000"
 4312      7274696F 
 4312      6E202225 
 4312      73222066 
 4312      61696C65 
 4313              	.LC1:
 4314 0028 72656376 		.ascii	"recv_tcp must have a pcb argument\000"
 4314      5F746370 
 4314      206D7573 
 4314      74206861 
 4314      76652061 
 4315 004a 0000     		.space	2
 4316              	.LC2:
 4317 004c 2E2E2F2E 		.ascii	"../../../ext/lwip/src/api/api_msg.c\000"
 4317      2E2F2E2E 
 4317      2F657874 
 4317      2F6C7769 
 4317      702F7372 
 4318              	.LC3:
 4319 0070 72656376 		.ascii	"recv_tcp must have an argument\000"
 4319      5F746370 
 4319      206D7573 
 4319      74206861 
 4319      76652061 
 4320 008f 00       		.space	1
 4321              	.LC4:
 4322 0090 72656376 		.ascii	"recv_tcp: recv for wrong pcb!\000"
 4322      5F746370 
 4322      3A207265 
 4322      63762066 
 4322      6F722077 
 4323 00ae 0000     		.space	2
 4324              	.LC5:
 4325 00b0 696E7661 		.ascii	"invalid conn\000"
 4325      6C696420 
 4325      636F6E6E 
 4325      00
 4326 00bd 000000   		.space	3
 4327              	.LC6:
 4328 00c0 74686973 		.ascii	"this is for tcp netconns only\000"
 4328      20697320 
 4328      666F7220 
 4328      74637020 
 4328      6E657463 
 4329 00de 0000     		.space	2
 4330              	.LC7:
 4331 00e0 636F6E6E 		.ascii	"conn must be in state NETCONN_CLOSE\000"
 4331      206D7573 
 4331      74206265 
 4331      20696E20 
 4331      73746174 
 4332              	.LC8:
ARM GAS  C:\Users\jo\AppData\Local\Temp\ccCSMiNu.s 			page 78


 4333 0104 70636220 		.ascii	"pcb already closed\000"
 4333      616C7265 
 4333      61647920 
 4333      636C6F73 
 4333      656400
 4334 0117 00       		.space	1
 4335              	.LC9:
 4336 0118 636F6E6E 		.ascii	"conn->current_msg != NULL\000"
 4336      2D3E6375 
 4336      7272656E 
 4336      745F6D73 
 4336      6720213D 
 4337 0132 0000     		.space	2
 4338              	.LC10:
 4339 0134 436C6F73 		.ascii	"Closing a listen pcb may not fail!\000"
 4339      696E6720 
 4339      61206C69 
 4339      7374656E 
 4339      20706362 
 4340 0157 00       		.space	1
 4341              	.LC11:
 4342 0158 636F6E6E 		.ascii	"conn->state == NETCONN_WRITE\000"
 4342      2D3E7374 
 4342      61746520 
 4342      3D3D204E 
 4342      4554434F 
 4343 0175 000000   		.space	3
 4344              	.LC12:
 4345 0178 636F6E6E 		.ascii	"conn->pcb.tcp != NULL\000"
 4345      2D3E7063 
 4345      622E7463 
 4345      7020213D 
 4345      204E554C 
 4346 018e 0000     		.space	2
 4347              	.LC13:
 4348 0190 636F6E6E 		.ascii	"conn->write_offset < conn->current_msg->msg.w.len\000"
 4348      2D3E7772 
 4348      6974655F 
 4348      6F666673 
 4348      6574203C 
 4349 01c2 0000     		.space	2
 4350              	.LC14:
 4351 01c4 646F5F77 		.ascii	"do_writemore: invalid length!\000"
 4351      72697465 
 4351      6D6F7265 
 4351      3A20696E 
 4351      76616C69 
 4352 01e2 0000     		.space	2
 4353              	.LC15:
 4354 01e4 636F6E6E 		.ascii	"conn != NULL\000"
 4354      20213D20 
 4354      4E554C4C 
 4354      00
 4355 01f1 000000   		.space	3
 4356              	.LC16:
 4357 01f4 636F6E6E 		.ascii	"conn->state == NETCONN_CONNECT\000"
 4357      2D3E7374 
ARM GAS  C:\Users\jo\AppData\Local\Temp\ccCSMiNu.s 			page 79


 4357      61746520 
 4357      3D3D204E 
 4357      4554434F 
 4358 0213 00       		.space	1
 4359              	.LC17:
 4360 0214 28636F6E 		.ascii	"(conn->current_msg != NULL) || conn->in_non_blockin"
 4360      6E2D3E63 
 4360      75727265 
 4360      6E745F6D 
 4360      73672021 
 4361 0247 675F636F 		.ascii	"g_connect\000"
 4361      6E6E6563 
 4361      7400
 4362 0251 000000   		.space	3
 4363              	.LC18:
 4364 0254 636F6E6E 		.ascii	"conn->current_msg == NULL\000"
 4364      2D3E6375 
 4364      7272656E 
 4364      745F6D73 
 4364      67203D3D 
 4365 026e 0000     		.space	2
 4366              	.LC19:
 4367 0270 72656376 		.ascii	"recv_udp must have a pcb argument\000"
 4367      5F756470 
 4367      206D7573 
 4367      74206861 
 4367      76652061 
 4368 0292 0000     		.space	2
 4369              	.LC20:
 4370 0294 72656376 		.ascii	"recv_udp must have an argument\000"
 4370      5F756470 
 4370      206D7573 
 4370      74206861 
 4370      76652061 
 4371 02b3 00       		.space	1
 4372              	.LC21:
 4373 02b4 72656376 		.ascii	"recv_udp: recv for wrong pcb!\000"
 4373      5F756470 
 4373      3A207265 
 4373      63762066 
 4373      6F722077 
 4374 02d2 0000     		.space	2
 4375              	.LC22:
 4376 02d4 6E657463 		.ascii	"netconn_alloc: undefined netconn_type\000"
 4376      6F6E6E5F 
 4376      616C6C6F 
 4376      633A2075 
 4376      6E646566 
 4377 02fa 0000     		.space	2
 4378              	.LC23:
 4379 02fc 50434220 		.ascii	"PCB must be deallocated outside this function\000"
 4379      6D757374 
 4379      20626520 
 4379      6465616C 
 4379      6C6F6361 
 4380 032a 0000     		.space	2
 4381              	.LC24:
ARM GAS  C:\Users\jo\AppData\Local\Temp\ccCSMiNu.s 			page 80


 4382 032c 72656376 		.ascii	"recvmbox must be deallocated before calling this fu"
 4382      6D626F78 
 4382      206D7573 
 4382      74206265 
 4382      20646561 
 4383 035f 6E637469 		.ascii	"nction\000"
 4383      6F6E00
 4384 0366 0000     		.space	2
 4385              	.LC25:
 4386 0368 61636365 		.ascii	"acceptmbox must be deallocated before calling this "
 4386      70746D62 
 4386      6F78206D 
 4386      75737420 
 4386      62652064 
 4387 039b 66756E63 		.ascii	"function\000"
 4387      74696F6E 
 4387      00
 4388              	.LC26:
 4389 03a4 7063622D 		.ascii	"pcb->state == LISTEN (called for wrong pcb?)\000"
 4389      3E737461 
 4389      7465203D 
 4389      3D204C49 
 4389      5354454E 
 4390 03d1 000000   		.space	3
 4391              	.LC27:
 4392 03d4 6D73672D 		.ascii	"msg->conn->type == NETCONN_TCP\000"
 4392      3E636F6E 
 4392      6E2D3E74 
 4392      79706520 
 4392      3D3D204E 
 4393 03f3 00       		.space	1
 4394              	.LC28:
 4395 03f4 626C6F63 		.ascii	"blocking connect in progress\000"
 4395      6B696E67 
 4395      20636F6E 
 4395      6E656374 
 4395      20696E20 
 4396 0411 000000   		.space	3
 4397              	.LC29:
 4398 0414 616C7265 		.ascii	"already writing or closing\000"
 4398      61647920 
 4398      77726974 
 4398      696E6720 
 4398      6F722063 
 4399 042f 00       		.space	1
 4400              	.LC30:
 4401 0430 496E7661 		.ascii	"Invalid netconn type\000"
 4401      6C696420 
 4401      6E657463 
 4401      6F6E6E20 
 4401      74797065 
 4402 0445 000000   		.space	3
 4403              	.LC31:
 4404 0448 6D73672D 		.ascii	"msg->msg.w.len != 0\000"
 4404      3E6D7367 
 4404      2E772E6C 
 4404      656E2021 
ARM GAS  C:\Users\jo\AppData\Local\Temp\ccCSMiNu.s 			page 81


 4404      3D203000 
 4405              	.LC32:
 4406 045c 696E7661 		.ascii	"invalid netconn_type\000"
 4406      6C696420 
 4406      6E657463 
 4406      6F6E6E5F 
 4406      74797065 
 4407 0471 000000   		.text
 4408              	.Letext0:
 4409              		.file 4 "c:\\program files\\gnu tools arm embedded\\4.9 2014q4\\lib\\gcc\\arm-none-eabi\\4.9.3\\in
 4410              		.file 5 "c:\\program files\\gnu tools arm embedded\\4.9 2014q4\\arm-none-eabi\\include\\machine\\_
 4411              		.file 6 "c:\\program files\\gnu tools arm embedded\\4.9 2014q4\\arm-none-eabi\\include\\stdint.h"
 4412              		.file 7 "../../../os/rt/ports/ARMCMx/compilers/GCC/chtypes.h"
 4413              		.file 8 "../../../os/rt/include/chsystypes.h"
 4414              		.file 9 "../../../os/rt/include/chschd.h"
 4415              		.file 10 "../../../os/rt/ports/ARMCMx/chcore.h"
 4416              		.file 11 "../../../os/rt/ports/ARMCMx/chcore_v7m.h"
 4417              		.file 12 "../../../os/rt/include/chdebug.h"
 4418              		.file 13 "../../../os/rt/include/chtm.h"
 4419              		.file 14 "../../../os/rt/include/chsem.h"
 4420              		.file 15 "../../../os/rt/include/chmtx.h"
 4421              		.file 16 "../../../os/rt/include/chmboxes.h"
 4422              		.file 17 "../../../os/rt/include/chstreams.h"
 4423              		.file 18 "./ITM_trace.h"
 4424              		.file 19 "c:\\program files\\gnu tools arm embedded\\4.9 2014q4\\lib\\gcc\\arm-none-eabi\\4.9.3\\i
 4425              		.file 20 "<built-in>"
 4426              		.file 21 "../../../os/various/lwip_bindings/arch/cc.h"
 4427              		.file 22 "../../../ext/lwip/src/include/ipv4/lwip/ip_addr.h"
 4428              		.file 23 "../../../ext/lwip/src/include/lwip/err.h"
 4429              		.file 24 "../../../os/various/lwip_bindings/arch/sys_arch.h"
 4430              		.file 25 "../../../ext/lwip/src/include/lwip/pbuf.h"
 4431              		.file 26 "../../../ext/lwip/src/include/lwip/netbuf.h"
 4432              		.file 27 "../../../ext/lwip/src/include/lwip/api.h"
 4433              		.file 28 "../../../ext/lwip/src/include/ipv4/lwip/ip.h"
 4434              		.file 29 "../../../ext/lwip/src/include/lwip/tcp.h"
 4435              		.file 30 "../../../ext/lwip/src/include/lwip/udp.h"
 4436              		.file 31 "../../../ext/lwip/src/include/lwip/api_msg.h"
 4437              		.file 32 "../../../os/ext/CMSIS/include/core_cm4.h"
 4438              		.file 33 "../../../ext/lwip/src/include/lwip/memp.h"
 4439              		.file 34 "../../../os/rt/include/chsys.h"
 4440              		.file 35 "../../../ext/lwip/src/include/lwip/sys.h"
 4441              		.file 36 "c:\\program files\\gnu tools arm embedded\\4.9 2014q4\\arm-none-eabi\\include\\stdlib.h"