ARM GAS  C:\Users\jo\AppData\Local\Temp\ccCSMiNu.s 			page 1


   1              		.syntax unified
   2              		.cpu cortex-m4
   3              		.fpu softvfp
   4              		.eabi_attribute 20, 1
   5              		.eabi_attribute 21, 1
   6              		.eabi_attribute 23, 3
   7              		.eabi_attribute 24, 1
   8              		.eabi_attribute 25, 1
   9              		.eabi_attribute 26, 1
  10              		.eabi_attribute 30, 2
  11              		.eabi_attribute 34, 1
  12              		.eabi_attribute 18, 4
  13              		.thumb
  14              		.file	"api_msg.c"
  15              		.text
  16              	.Ltext0:
  17              		.cfi_sections	.debug_frame
  18              		.section	.text.setup_tcp,"ax",%progbits
  19              		.align	2
  20              		.p2align 4,,15
  21              		.thumb
  22              		.thumb_func
  23              		.type	setup_tcp, %function
  24              	setup_tcp:
  25              	.LFB265:
  26              		.file 1 "../../../ext/lwip/src/api/api_msg.c"
  27              		.loc 1 414 0
  28              		.cfi_startproc
  29              		@ args = 0, pretend = 0, frame = 0
  30              		@ frame_needed = 0, uses_anonymous_args = 0
  31              	.LVL0:
  32 0000 10B5     		push	{r4, lr}
  33              		.cfi_def_cfa_offset 8
  34              		.cfi_offset 4, -8
  35              		.cfi_offset 14, -4
  36              		.loc 1 417 0
  37 0002 4468     		ldr	r4, [r0, #4]
  38              	.LVL1:
  39              		.loc 1 418 0
  40 0004 0146     		mov	r1, r0
  41 0006 2046     		mov	r0, r4
  42              	.LVL2:
  43 0008 FFF7FEFF 		bl	tcp_arg
  44              	.LVL3:
  45              		.loc 1 419 0
  46 000c 2046     		mov	r0, r4
  47 000e 0949     		ldr	r1, .L3
  48 0010 FFF7FEFF 		bl	tcp_recv
  49              	.LVL4:
  50              		.loc 1 420 0
  51 0014 2046     		mov	r0, r4
  52 0016 0849     		ldr	r1, .L3+4
  53 0018 FFF7FEFF 		bl	tcp_sent
  54              	.LVL5:
  55              		.loc 1 421 0
  56 001c 2046     		mov	r0, r4
  57 001e 0749     		ldr	r1, .L3+8
ARM GAS  C:\Users\jo\AppData\Local\Temp\ccCSMiNu.s 			page 2


  58 0020 0422     		movs	r2, #4
  59 0022 FFF7FEFF 		bl	tcp_poll
  60              	.LVL6:
  61              		.loc 1 422 0
  62 0026 2046     		mov	r0, r4
  63 0028 0549     		ldr	r1, .L3+12
  64              		.loc 1 423 0
  65 002a BDE81040 		pop	{r4, lr}
  66              		.cfi_restore 14
  67              		.cfi_restore 4
  68              		.cfi_def_cfa_offset 0
  69              	.LVL7:
  70              		.loc 1 422 0
  71 002e FFF7FEBF 		b	tcp_err
  72              	.LVL8:
  73              	.L4:
  74 0032 00BF     		.align	2
  75              	.L3:
  76 0034 00000000 		.word	recv_tcp
  77 0038 00000000 		.word	sent_tcp
  78 003c 00000000 		.word	poll_tcp
  79 0040 00000000 		.word	err_tcp
  80              		.cfi_endproc
  81              	.LFE265:
  82              		.size	setup_tcp, .-setup_tcp
  83 0044 AFF30080 		.section	.text.chprintf.constprop.2,"ax",%progbits
  83      AFF30080 
  83      AFF30080 
  84              		.align	2
  85              		.p2align 4,,15
  86              		.thumb
  87              		.thumb_func
  88              		.type	chprintf.constprop.2, %function
  89              	chprintf.constprop.2:
  90              	.LFB287:
  91              		.file 2 "../../../os/hal/lib/streams/chprintf.h"
  92              		.loc 2 69 0
  93              		.cfi_startproc
  94              		@ args = 4, pretend = 12, frame = 8
  95              		@ frame_needed = 0, uses_anonymous_args = 1
  96              	.LVL9:
  97 0000 0EB4     		push	{r1, r2, r3}
  98              		.cfi_def_cfa_offset 12
  99              		.cfi_offset 1, -12
 100              		.cfi_offset 2, -8
 101              		.cfi_offset 3, -4
 102 0002 00B5     		push	{lr}
 103              		.cfi_def_cfa_offset 16
 104              		.cfi_offset 14, -16
 105 0004 82B0     		sub	sp, sp, #8
 106              		.cfi_def_cfa_offset 24
 107              		.loc 2 73 0
 108 0006 04AB     		add	r3, sp, #16
 109              		.loc 2 74 0
 110 0008 1A46     		mov	r2, r3
 111 000a 0549     		ldr	r1, .L7
 112 000c 0548     		ldr	r0, .L7+4
ARM GAS  C:\Users\jo\AppData\Local\Temp\ccCSMiNu.s 			page 3


 113              	.LVL10:
 114              		.loc 2 73 0
 115 000e 0193     		str	r3, [sp, #4]
 116              		.loc 2 74 0
 117 0010 FFF7FEFF 		bl	chvprintf
 118              	.LVL11:
 119              		.loc 2 78 0
 120 0014 02B0     		add	sp, sp, #8
 121              		.cfi_def_cfa_offset 16
 122              		@ sp needed
 123 0016 5DF804EB 		ldr	lr, [sp], #4
 124              		.cfi_restore 14
 125              		.cfi_def_cfa_offset 12
 126 001a 03B0     		add	sp, sp, #12
 127              		.cfi_restore 3
 128              		.cfi_restore 2
 129              		.cfi_restore 1
 130              		.cfi_def_cfa_offset 0
 131 001c 7047     		bx	lr
 132              	.L8:
 133 001e 00BF     		.align	2
 134              	.L7:
 135 0020 00000000 		.word	.LC0
 136 0024 00000000 		.word	itm_port
 137              		.cfi_endproc
 138              	.LFE287:
 139              		.size	chprintf.constprop.2, .-chprintf.constprop.2
 140 0028 AFF30080 		.section	.text.recv_tcp,"ax",%progbits
 140      AFF30080 
 141              		.align	2
 142              		.p2align 4,,15
 143              		.thumb
 144              		.thumb_func
 145              		.type	recv_tcp, %function
 146              	recv_tcp:
 147              	.LFB261:
 148              		.loc 1 217 0
 149              		.cfi_startproc
 150              		@ args = 0, pretend = 0, frame = 0
 151              		@ frame_needed = 0, uses_anonymous_args = 0
 152              	.LVL12:
 153 0000 2DE9F043 		push	{r4, r5, r6, r7, r8, r9, lr}
 154              		.cfi_def_cfa_offset 28
 155              		.cfi_offset 4, -28
 156              		.cfi_offset 5, -24
 157              		.cfi_offset 6, -20
 158              		.cfi_offset 7, -16
 159              		.cfi_offset 8, -12
 160              		.cfi_offset 9, -8
 161              		.cfi_offset 14, -4
 162 0004 0446     		mov	r4, r0
 163 0006 83B0     		sub	sp, sp, #12
 164              		.cfi_def_cfa_offset 40
 165              		.loc 1 217 0
 166 0008 1646     		mov	r6, r2
 167 000a 9946     		mov	r9, r3
 168              		.loc 1 222 0
ARM GAS  C:\Users\jo\AppData\Local\Temp\ccCSMiNu.s 			page 4


 169 000c 0F46     		mov	r7, r1
 170 000e 0029     		cmp	r1, #0
 171 0010 40D0     		beq	.L26
 172              	.LVL13:
 173              	.L10:
 174              		.loc 1 223 0
 175 0012 002C     		cmp	r4, #0
 176 0014 4CD0     		beq	.L27
 177              	.L11:
 178              	.LVL14:
 179              		.loc 1 225 0
 180 0016 6368     		ldr	r3, [r4, #4]
 181 0018 BB42     		cmp	r3, r7
 182 001a 0AD0     		beq	.L12
 183              		.loc 1 225 0 is_stmt 0 discriminator 1
 184 001c 2B4B     		ldr	r3, .L28
 185 001e 0093     		str	r3, [sp]
 186 0020 2B48     		ldr	r0, .L28+4
 187 0022 2C49     		ldr	r1, .L28+8
 188 0024 2C4A     		ldr	r2, .L28+12
 189 0026 E123     		movs	r3, #225
 190 0028 FFF7FEFF 		bl	chprintf.constprop.2
 191              	.LVL15:
 192              	.LBB89:
 193              	.LBB90:
 194              		.file 3 "../../../os/hal/osal/rt/osal.h"
 195              		.loc 3 416 0 is_stmt 1 discriminator 1
 196 002c 2A48     		ldr	r0, .L28+12
 197 002e FFF7FEFF 		bl	chSysHalt
 198              	.LVL16:
 199              	.L12:
 200              	.LBE90:
 201              	.LBE89:
 202              		.loc 1 230 0
 203 0032 04F11008 		add	r8, r4, #16
 204 0036 4046     		mov	r0, r8
 205 0038 FFF7FEFF 		bl	sys_mbox_valid
 206              	.LVL17:
 207 003c 0546     		mov	r5, r0
 208 003e 80B9     		cbnz	r0, .L13
 209              		.loc 1 232 0
 210 0040 56B1     		cbz	r6, .L18
 211              		.loc 1 233 0
 212 0042 3846     		mov	r0, r7
 213 0044 3189     		ldrh	r1, [r6, #8]
 214 0046 FFF7FEFF 		bl	tcp_recved
 215              	.LVL18:
 216              		.loc 1 234 0
 217 004a 3046     		mov	r0, r6
 218 004c FFF7FEFF 		bl	pbuf_free
 219              	.LVL19:
 220              	.L15:
 221              		.loc 1 263 0
 222 0050 68B2     		sxtb	r0, r5
 223 0052 03B0     		add	sp, sp, #12
 224              		.cfi_remember_state
 225              		.cfi_def_cfa_offset 28
ARM GAS  C:\Users\jo\AppData\Local\Temp\ccCSMiNu.s 			page 5


 226              		@ sp needed
 227 0054 BDE8F083 		pop	{r4, r5, r6, r7, r8, r9, pc}
 228              	.LVL20:
 229              	.L18:
 230              		.cfi_restore_state
 231              		.loc 1 236 0
 232 0058 0025     		movs	r5, #0
 233              		.loc 1 263 0
 234 005a 68B2     		sxtb	r0, r5
 235 005c 03B0     		add	sp, sp, #12
 236              		.cfi_remember_state
 237              		.cfi_def_cfa_offset 28
 238              		@ sp needed
 239 005e BDE8F083 		pop	{r4, r5, r6, r7, r8, r9, pc}
 240              	.LVL21:
 241              	.L13:
 242              		.cfi_restore_state
 243              		.loc 1 243 0
 244 0062 94F90830 		ldrsb	r3, [r4, #8]
 245 0066 0933     		adds	r3, r3, #9
 246 0068 A8BF     		it	ge
 247 006a 84F80890 		strbge	r9, [r4, #8]
 248              		.loc 1 245 0
 249 006e EEB1     		cbz	r6, .L19
 250              		.loc 1 246 0
 251 0070 3789     		ldrh	r7, [r6, #8]
 252              	.LVL22:
 253              	.L17:
 254              		.loc 1 251 0
 255 0072 4046     		mov	r0, r8
 256 0074 3146     		mov	r1, r6
 257 0076 FFF7FEFF 		bl	sys_mbox_trypost
 258              	.LVL23:
 259 007a 0546     		mov	r5, r0
 260 007c 20BB     		cbnz	r0, .L20
 261              		.loc 1 259 0
 262 007e A36A     		ldr	r3, [r4, #40]
 263 0080 002B     		cmp	r3, #0
 264 0082 E9D0     		beq	.L18
 265              		.loc 1 259 0 is_stmt 0 discriminator 1
 266 0084 2046     		mov	r0, r4
 267 0086 3A46     		mov	r2, r7
 268 0088 2946     		mov	r1, r5
 269 008a 9847     		blx	r3
 270              	.LVL24:
 271              		.loc 1 263 0 is_stmt 1 discriminator 1
 272 008c 68B2     		sxtb	r0, r5
 273 008e 03B0     		add	sp, sp, #12
 274              		.cfi_remember_state
 275              		.cfi_def_cfa_offset 28
 276              		@ sp needed
 277 0090 BDE8F083 		pop	{r4, r5, r6, r7, r8, r9, pc}
 278              	.LVL25:
 279              	.L26:
 280              		.cfi_restore_state
 281              		.loc 1 222 0 discriminator 1
 282 0094 0D4B     		ldr	r3, .L28
ARM GAS  C:\Users\jo\AppData\Local\Temp\ccCSMiNu.s 			page 6


 283              	.LVL26:
 284 0096 0093     		str	r3, [sp]
 285 0098 0E49     		ldr	r1, .L28+8
 286              	.LVL27:
 287 009a 104A     		ldr	r2, .L28+16
 288              	.LVL28:
 289 009c 0C48     		ldr	r0, .L28+4
 290              	.LVL29:
 291 009e DE23     		movs	r3, #222
 292 00a0 FFF7FEFF 		bl	chprintf.constprop.2
 293              	.LVL30:
 294              	.LBB91:
 295              	.LBB92:
 296              		.loc 3 416 0 discriminator 1
 297 00a4 0D48     		ldr	r0, .L28+16
 298 00a6 FFF7FEFF 		bl	chSysHalt
 299              	.LVL31:
 300 00aa B2E7     		b	.L10
 301              	.LVL32:
 302              	.L19:
 303              	.LBE92:
 304              	.LBE91:
 305              		.loc 1 248 0
 306 00ac 3746     		mov	r7, r6
 307              	.LVL33:
 308 00ae E0E7     		b	.L17
 309              	.LVL34:
 310              	.L27:
 311              		.loc 1 223 0 discriminator 1
 312 00b0 064B     		ldr	r3, .L28
 313 00b2 0093     		str	r3, [sp]
 314 00b4 0749     		ldr	r1, .L28+8
 315 00b6 0A4A     		ldr	r2, .L28+20
 316 00b8 0548     		ldr	r0, .L28+4
 317 00ba DF23     		movs	r3, #223
 318 00bc FFF7FEFF 		bl	chprintf.constprop.2
 319              	.LVL35:
 320              	.LBB93:
 321              	.LBB94:
 322              		.loc 3 416 0 discriminator 1
 323 00c0 0748     		ldr	r0, .L28+20
 324 00c2 FFF7FEFF 		bl	chSysHalt
 325              	.LVL36:
 326 00c6 A6E7     		b	.L11
 327              	.LVL37:
 328              	.L20:
 329              	.LBE94:
 330              	.LBE93:
 331              		.loc 1 253 0
 332 00c8 FF25     		movs	r5, #255
 333 00ca C1E7     		b	.L15
 334              	.L29:
 335              		.align	2
 336              	.L28:
 337 00cc 4C000000 		.word	.LC2
 338 00d0 00000000 		.word	itm_port
 339 00d4 00000000 		.word	.LC0
ARM GAS  C:\Users\jo\AppData\Local\Temp\ccCSMiNu.s 			page 7


 340 00d8 90000000 		.word	.LC4
 341 00dc 28000000 		.word	.LC1
 342 00e0 70000000 		.word	.LC3
 343              		.cfi_endproc
 344              	.LFE261:
 345              		.size	recv_tcp, .-recv_tcp
 346 00e4 AFF30080 		.section	.text.do_close_internal,"ax",%progbits
 346      AFF30080 
 346      AFF30080 
 347              		.align	2
 348              		.p2align 4,,15
 349              		.thumb
 350              		.thumb_func
 351              		.type	do_close_internal, %function
 352              	do_close_internal:
 353              	.LFB272:
 354              		.loc 1 748 0
 355              		.cfi_startproc
 356              		@ args = 0, pretend = 0, frame = 0
 357              		@ frame_needed = 0, uses_anonymous_args = 0
 358              	.LVL38:
 359 0000 F0B5     		push	{r4, r5, r6, r7, lr}
 360              		.cfi_def_cfa_offset 20
 361              		.cfi_offset 4, -20
 362              		.cfi_offset 5, -16
 363              		.cfi_offset 6, -12
 364              		.cfi_offset 7, -8
 365              		.cfi_offset 14, -4
 366              		.loc 1 752 0
 367 0002 0446     		mov	r4, r0
 368              		.loc 1 748 0
 369 0004 83B0     		sub	sp, sp, #12
 370              		.cfi_def_cfa_offset 32
 371              		.loc 1 752 0
 372 0006 0028     		cmp	r0, #0
 373 0008 00F0D280 		beq	.L79
 374              	.LVL39:
 375              	.L31:
 376              		.loc 1 753 0
 377 000c 2378     		ldrb	r3, [r4]	@ zero_extendqisi2
 378 000e 102B     		cmp	r3, #16
 379 0010 0BD0     		beq	.L32
 380              		.loc 1 753 0 is_stmt 0 discriminator 1
 381 0012 704B     		ldr	r3, .L88
 382 0014 0093     		str	r3, [sp]
 383 0016 7048     		ldr	r0, .L88+4
 384 0018 7049     		ldr	r1, .L88+8
 385 001a 714A     		ldr	r2, .L88+12
 386 001c 40F2F123 		movw	r3, #753
 387 0020 FFF7FEFF 		bl	chprintf.constprop.2
 388              	.LVL40:
 389              	.LBB95:
 390              	.LBB96:
 391              		.loc 3 416 0 is_stmt 1 discriminator 1
 392 0024 6E48     		ldr	r0, .L88+12
 393 0026 FFF7FEFF 		bl	chSysHalt
 394              	.LVL41:
ARM GAS  C:\Users\jo\AppData\Local\Temp\ccCSMiNu.s 			page 8


 395              	.L32:
 396              	.LBE96:
 397              	.LBE95:
 398              		.loc 1 754 0
 399 002a 6378     		ldrb	r3, [r4, #1]	@ zero_extendqisi2
 400 002c 042B     		cmp	r3, #4
 401 002e 0BD0     		beq	.L33
 402              		.loc 1 754 0 is_stmt 0 discriminator 1
 403 0030 684B     		ldr	r3, .L88
 404 0032 0093     		str	r3, [sp]
 405 0034 6848     		ldr	r0, .L88+4
 406 0036 6949     		ldr	r1, .L88+8
 407 0038 6A4A     		ldr	r2, .L88+16
 408 003a 40F2F223 		movw	r3, #754
 409 003e FFF7FEFF 		bl	chprintf.constprop.2
 410              	.LVL42:
 411              	.LBB97:
 412              	.LBB98:
 413              		.loc 3 416 0 is_stmt 1 discriminator 1
 414 0042 6848     		ldr	r0, .L88+16
 415 0044 FFF7FEFF 		bl	chSysHalt
 416              	.LVL43:
 417              	.L33:
 418              	.LBE98:
 419              	.LBE97:
 420              		.loc 1 755 0
 421 0048 6368     		ldr	r3, [r4, #4]
 422 004a 002B     		cmp	r3, #0
 423 004c 00F09580 		beq	.L80
 424              	.L34:
 425              		.loc 1 756 0
 426 0050 636A     		ldr	r3, [r4, #36]
 427 0052 002B     		cmp	r3, #0
 428 0054 00F09E80 		beq	.L81
 429              	.L35:
 430              		.loc 1 758 0
 431 0058 197A     		ldrb	r1, [r3, #8]	@ zero_extendqisi2
 432              	.LVL44:
 433              		.loc 1 766 0
 434 005a 6068     		ldr	r0, [r4, #4]
 435              		.loc 1 760 0
 436 005c 01F00206 		and	r6, r1, #2
 437              		.loc 1 762 0
 438 0060 A1F10307 		sub	r7, r1, #3
 439 0064 B7FA87F7 		clz	r7, r7
 440 0068 7F09     		lsrs	r7, r7, #5
 441              		.loc 1 760 0
 442 006a F6B2     		uxtb	r6, r6
 443              		.loc 1 759 0
 444 006c 01F00105 		and	r5, r1, #1
 445              	.LVL45:
 446              		.loc 1 765 0
 447 0070 002F     		cmp	r7, #0
 448 0072 69D1     		bne	.L82
 449              		.loc 1 768 0
 450 0074 037E     		ldrb	r3, [r0, #24]	@ zero_extendqisi2
 451 0076 012B     		cmp	r3, #1
ARM GAS  C:\Users\jo\AppData\Local\Temp\ccCSMiNu.s 			page 9


 452 0078 00F0A780 		beq	.L83
 453              	.LVL46:
 454              	.L55:
 455              		.loc 1 772 0
 456 007c 002D     		cmp	r5, #0
 457 007e 58D1     		bne	.L84
 458              		.loc 1 776 0
 459 0080 002E     		cmp	r6, #0
 460 0082 36D1     		bne	.L85
 461              	.L39:
 462              		.loc 1 779 0
 463 0084 002F     		cmp	r7, #0
 464 0086 3AD1     		bne	.L86
 465              	.L40:
 466              		.loc 1 788 0
 467 0088 2946     		mov	r1, r5
 468 008a 3246     		mov	r2, r6
 469 008c FFF7FEFF 		bl	tcp_shutdown
 470              	.LVL47:
 471              		.loc 1 790 0
 472 0090 C0B9     		cbnz	r0, .L42
 473              		.loc 1 792 0
 474 0092 636A     		ldr	r3, [r4, #36]
 475 0094 1871     		strb	r0, [r3, #4]
 476              		.loc 1 793 0
 477 0096 6062     		str	r0, [r4, #36]
 478              		.loc 1 794 0
 479 0098 6070     		strb	r0, [r4, #1]
 480              	.LVL48:
 481              	.L50:
 482              		.loc 1 802 0
 483 009a 2DB1     		cbz	r5, .L45
 484              		.loc 1 803 0
 485 009c A36A     		ldr	r3, [r4, #40]
 486 009e 53B1     		cbz	r3, .L47
 487              		.loc 1 803 0 is_stmt 0 discriminator 1
 488 00a0 0021     		movs	r1, #0
 489 00a2 0A46     		mov	r2, r1
 490 00a4 2046     		mov	r0, r4
 491 00a6 9847     		blx	r3
 492              	.LVL49:
 493              	.L45:
 494              		.loc 1 805 0 is_stmt 1
 495 00a8 2EB1     		cbz	r6, .L47
 496              		.loc 1 806 0
 497 00aa A36A     		ldr	r3, [r4, #40]
 498 00ac 1BB1     		cbz	r3, .L47
 499              		.loc 1 806 0 is_stmt 0 discriminator 1
 500 00ae 2046     		mov	r0, r4
 501 00b0 0221     		movs	r1, #2
 502 00b2 0022     		movs	r2, #0
 503 00b4 9847     		blx	r3
 504              	.LVL50:
 505              	.L47:
 506              		.loc 1 809 0 is_stmt 1
 507 00b6 04F10C00 		add	r0, r4, #12
 508              		.loc 1 822 0
ARM GAS  C:\Users\jo\AppData\Local\Temp\ccCSMiNu.s 			page 10


 509 00ba 03B0     		add	sp, sp, #12
 510              		.cfi_remember_state
 511              		.cfi_def_cfa_offset 20
 512              		@ sp needed
 513 00bc BDE8F040 		pop	{r4, r5, r6, r7, lr}
 514              		.cfi_restore 14
 515              		.cfi_restore 7
 516              		.cfi_restore 6
 517              		.cfi_restore 5
 518              		.cfi_restore 4
 519              		.cfi_def_cfa_offset 0
 520              	.LVL51:
 521              		.loc 1 809 0
 522 00c0 FFF7FEBF 		b	sys_sem_signal
 523              	.LVL52:
 524              	.L42:
 525              		.cfi_restore_state
 526              		.loc 1 813 0
 527 00c4 6068     		ldr	r0, [r4, #4]
 528              	.LVL53:
 529 00c6 037E     		ldrb	r3, [r0, #24]	@ zero_extendqisi2
 530 00c8 012B     		cmp	r3, #1
 531 00ca 48D0     		beq	.L87
 532              	.L49:
 533              		.loc 1 814 0
 534 00cc 4649     		ldr	r1, .L88+20
 535 00ce FFF7FEFF 		bl	tcp_sent
 536              	.LVL54:
 537              		.loc 1 815 0
 538 00d2 6068     		ldr	r0, [r4, #4]
 539 00d4 4549     		ldr	r1, .L88+24
 540 00d6 0422     		movs	r2, #4
 541 00d8 FFF7FEFF 		bl	tcp_poll
 542              	.LVL55:
 543              		.loc 1 816 0
 544 00dc 6068     		ldr	r0, [r4, #4]
 545 00de 4449     		ldr	r1, .L88+28
 546 00e0 FFF7FEFF 		bl	tcp_err
 547              	.LVL56:
 548              		.loc 1 817 0
 549 00e4 6068     		ldr	r0, [r4, #4]
 550 00e6 2146     		mov	r1, r4
 551              		.loc 1 822 0
 552 00e8 03B0     		add	sp, sp, #12
 553              		.cfi_remember_state
 554              		.cfi_def_cfa_offset 20
 555              		@ sp needed
 556 00ea BDE8F040 		pop	{r4, r5, r6, r7, lr}
 557              		.cfi_restore 14
 558              		.cfi_restore 7
 559              		.cfi_restore 6
 560              		.cfi_restore 5
 561              		.cfi_restore 4
 562              		.cfi_def_cfa_offset 0
 563              	.LVL57:
 564              		.loc 1 817 0
 565 00ee FFF7FEBF 		b	tcp_arg
ARM GAS  C:\Users\jo\AppData\Local\Temp\ccCSMiNu.s 			page 11


 566              	.LVL58:
 567              	.L85:
 568              		.cfi_restore_state
 569              		.loc 1 777 0
 570 00f2 0021     		movs	r1, #0
 571 00f4 FFF7FEFF 		bl	tcp_sent
 572              	.LVL59:
 573 00f8 6068     		ldr	r0, [r4, #4]
 574              		.loc 1 779 0
 575 00fa 002F     		cmp	r7, #0
 576 00fc C4D0     		beq	.L40
 577              	.L86:
 578              		.loc 1 780 0
 579 00fe 0021     		movs	r1, #0
 580 0100 0422     		movs	r2, #4
 581 0102 FFF7FEFF 		bl	tcp_poll
 582              	.LVL60:
 583              		.loc 1 781 0
 584 0106 6068     		ldr	r0, [r4, #4]
 585 0108 0021     		movs	r1, #0
 586 010a FFF7FEFF 		bl	tcp_err
 587              	.LVL61:
 588              	.L53:
 589              		.loc 1 786 0
 590 010e 6068     		ldr	r0, [r4, #4]
 591 0110 FFF7FEFF 		bl	tcp_close
 592              	.LVL62:
 593              		.loc 1 790 0
 594 0114 0028     		cmp	r0, #0
 595 0116 D5D1     		bne	.L42
 596              		.loc 1 792 0
 597 0118 636A     		ldr	r3, [r4, #36]
 598 011a 1871     		strb	r0, [r3, #4]
 599              		.loc 1 800 0
 600 011c A36A     		ldr	r3, [r4, #40]
 601              		.loc 1 793 0
 602 011e 6062     		str	r0, [r4, #36]
 603              		.loc 1 794 0
 604 0120 6070     		strb	r0, [r4, #1]
 605              		.loc 1 797 0
 606 0122 6060     		str	r0, [r4, #4]
 607              		.loc 1 800 0
 608 0124 002B     		cmp	r3, #0
 609 0126 BFD0     		beq	.L45
 610              		.loc 1 800 0 is_stmt 0 discriminator 1
 611 0128 0246     		mov	r2, r0
 612 012a 0421     		movs	r1, #4
 613 012c 2046     		mov	r0, r4
 614              	.LVL63:
 615 012e 9847     		blx	r3
 616              	.LVL64:
 617 0130 B3E7     		b	.L50
 618              	.L84:
 619              		.loc 1 773 0 is_stmt 1
 620 0132 0021     		movs	r1, #0
 621 0134 FFF7FEFF 		bl	tcp_recv
 622              	.LVL65:
ARM GAS  C:\Users\jo\AppData\Local\Temp\ccCSMiNu.s 			page 12


 623              		.loc 1 774 0
 624 0138 6068     		ldr	r0, [r4, #4]
 625 013a 0021     		movs	r1, #0
 626 013c FFF7FEFF 		bl	tcp_accept
 627              	.LVL66:
 628 0140 6068     		ldr	r0, [r4, #4]
 629              		.loc 1 776 0
 630 0142 002E     		cmp	r6, #0
 631 0144 9ED0     		beq	.L39
 632 0146 D4E7     		b	.L85
 633              	.LVL67:
 634              	.L82:
 635              		.loc 1 766 0
 636 0148 0021     		movs	r1, #0
 637              	.LVL68:
 638 014a FFF7FEFF 		bl	tcp_arg
 639              	.LVL69:
 640              		.loc 1 768 0
 641 014e 6068     		ldr	r0, [r4, #4]
 642 0150 037E     		ldrb	r3, [r0, #24]	@ zero_extendqisi2
 643 0152 012B     		cmp	r3, #1
 644 0154 92D1     		bne	.L55
 645              		.loc 1 769 0
 646 0156 0021     		movs	r1, #0
 647 0158 FFF7FEFF 		bl	tcp_accept
 648              	.LVL70:
 649 015c D7E7     		b	.L53
 650              	.L87:
 651              		.loc 1 813 0 discriminator 1
 652 015e 1D4B     		ldr	r3, .L88
 653 0160 0093     		str	r3, [sp]
 654 0162 1E49     		ldr	r1, .L88+8
 655 0164 234A     		ldr	r2, .L88+32
 656 0166 1C48     		ldr	r0, .L88+4
 657 0168 40F22D33 		movw	r3, #813
 658 016c FFF7FEFF 		bl	chprintf.constprop.2
 659              	.LVL71:
 660              	.LBB99:
 661              	.LBB100:
 662              		.loc 3 416 0 discriminator 1
 663 0170 2048     		ldr	r0, .L88+32
 664 0172 FFF7FEFF 		bl	chSysHalt
 665              	.LVL72:
 666 0176 6068     		ldr	r0, [r4, #4]
 667 0178 A8E7     		b	.L49
 668              	.LVL73:
 669              	.L80:
 670              	.LBE100:
 671              	.LBE99:
 672              		.loc 1 755 0 discriminator 1
 673 017a 164B     		ldr	r3, .L88
 674 017c 0093     		str	r3, [sp]
 675 017e 1749     		ldr	r1, .L88+8
 676 0180 1D4A     		ldr	r2, .L88+36
 677 0182 1548     		ldr	r0, .L88+4
 678 0184 40F2F323 		movw	r3, #755
 679 0188 FFF7FEFF 		bl	chprintf.constprop.2
ARM GAS  C:\Users\jo\AppData\Local\Temp\ccCSMiNu.s 			page 13


 680              	.LVL74:
 681              	.LBB101:
 682              	.LBB102:
 683              		.loc 3 416 0 discriminator 1
 684 018c 1A48     		ldr	r0, .L88+36
 685 018e FFF7FEFF 		bl	chSysHalt
 686              	.LVL75:
 687 0192 5DE7     		b	.L34
 688              	.LVL76:
 689              	.L81:
 690              	.LBE102:
 691              	.LBE101:
 692              		.loc 1 756 0 discriminator 1
 693 0194 0F4B     		ldr	r3, .L88
 694 0196 0093     		str	r3, [sp]
 695 0198 1049     		ldr	r1, .L88+8
 696 019a 184A     		ldr	r2, .L88+40
 697 019c 0E48     		ldr	r0, .L88+4
 698 019e 4FF43D73 		mov	r3, #756
 699 01a2 FFF7FEFF 		bl	chprintf.constprop.2
 700              	.LVL77:
 701              	.LBB103:
 702              	.LBB104:
 703              		.loc 3 416 0 discriminator 1
 704 01a6 1548     		ldr	r0, .L88+40
 705 01a8 FFF7FEFF 		bl	chSysHalt
 706              	.LVL78:
 707 01ac 636A     		ldr	r3, [r4, #36]
 708 01ae 53E7     		b	.L35
 709              	.LVL79:
 710              	.L79:
 711              	.LBE104:
 712              	.LBE103:
 713              		.loc 1 752 0 discriminator 1
 714 01b0 084B     		ldr	r3, .L88
 715 01b2 0093     		str	r3, [sp]
 716 01b4 0949     		ldr	r1, .L88+8
 717 01b6 124A     		ldr	r2, .L88+44
 718 01b8 0748     		ldr	r0, .L88+4
 719              	.LVL80:
 720 01ba 4FF43C73 		mov	r3, #752
 721 01be FFF7FEFF 		bl	chprintf.constprop.2
 722              	.LVL81:
 723              	.LBB105:
 724              	.LBB106:
 725              		.loc 3 416 0 discriminator 1
 726 01c2 0F48     		ldr	r0, .L88+44
 727 01c4 FFF7FEFF 		bl	chSysHalt
 728              	.LVL82:
 729 01c8 20E7     		b	.L31
 730              	.LVL83:
 731              	.L83:
 732              	.LBE106:
 733              	.LBE105:
 734              		.loc 1 769 0
 735 01ca 3946     		mov	r1, r7
 736              	.LVL84:
ARM GAS  C:\Users\jo\AppData\Local\Temp\ccCSMiNu.s 			page 14


 737 01cc FFF7FEFF 		bl	tcp_accept
 738              	.LVL85:
 739 01d0 6068     		ldr	r0, [r4, #4]
 740 01d2 59E7     		b	.L40
 741              	.L89:
 742              		.align	2
 743              	.L88:
 744 01d4 4C000000 		.word	.LC2
 745 01d8 00000000 		.word	itm_port
 746 01dc 00000000 		.word	.LC0
 747 01e0 C0000000 		.word	.LC6
 748 01e4 E0000000 		.word	.LC7
 749 01e8 00000000 		.word	sent_tcp
 750 01ec 00000000 		.word	poll_tcp
 751 01f0 00000000 		.word	err_tcp
 752 01f4 34010000 		.word	.LC10
 753 01f8 04010000 		.word	.LC8
 754 01fc 18010000 		.word	.LC9
 755 0200 B0000000 		.word	.LC5
 756              		.cfi_endproc
 757              	.LFE272:
 758              		.size	do_close_internal, .-do_close_internal
 759 0204 AFF30080 		.section	.text.do_writemore,"ax",%progbits
 759      AFF30080 
 759      AFF30080 
 760              		.align	2
 761              		.p2align 4,,15
 762              		.thumb
 763              		.thumb_func
 764              		.type	do_writemore, %function
 765              	do_writemore:
 766              	.LFB281:
 767              		.loc 1 1209 0
 768              		.cfi_startproc
 769              		@ args = 0, pretend = 0, frame = 0
 770              		@ frame_needed = 0, uses_anonymous_args = 0
 771              	.LVL86:
 772 0000 2DE9F043 		push	{r4, r5, r6, r7, r8, r9, lr}
 773              		.cfi_def_cfa_offset 28
 774              		.cfi_offset 4, -28
 775              		.cfi_offset 5, -24
 776              		.cfi_offset 6, -20
 777              		.cfi_offset 7, -16
 778              		.cfi_offset 8, -12
 779              		.cfi_offset 9, -8
 780              		.cfi_offset 14, -4
 781              		.loc 1 1215 0
 782 0004 037F     		ldrb	r3, [r0, #28]	@ zero_extendqisi2
 783 0006 13F0020F 		tst	r3, #2
 784 000a 436A     		ldr	r3, [r0, #36]
 785              		.loc 1 1216 0
 786 000c 0CBF     		ite	eq
 787 000e 1E7C     		ldrbeq	r6, [r3, #16]	@ zero_extendqisi2
 788 0010 1E7C     		ldrbne	r6, [r3, #16]	@ zero_extendqisi2
 789              		.loc 1 1220 0
 790 0012 4378     		ldrb	r3, [r0, #1]	@ zero_extendqisi2
 791              		.loc 1 1215 0
ARM GAS  C:\Users\jo\AppData\Local\Temp\ccCSMiNu.s 			page 15


 792 0014 14BF     		ite	ne
 793 0016 4FF00108 		movne	r8, #1
 794 001a C6F38008 		ubfxeq	r8, r6, #2, #1
 795              	.LVL87:
 796              		.loc 1 1220 0
 797 001e 012B     		cmp	r3, #1
 798              		.loc 1 1209 0
 799 0020 83B0     		sub	sp, sp, #12
 800              		.cfi_def_cfa_offset 40
 801              		.loc 1 1209 0
 802 0022 0446     		mov	r4, r0
 803              		.loc 1 1220 0
 804 0024 0FD0     		beq	.L93
 805              		.loc 1 1220 0 is_stmt 0 discriminator 1
 806 0026 6E4D     		ldr	r5, .L143
 807 0028 6E49     		ldr	r1, .L143+4
 808 002a 6F4A     		ldr	r2, .L143+8
 809 002c 0095     		str	r5, [sp]
 810 002e 40F2C443 		movw	r3, #1220
 811 0032 6E48     		ldr	r0, .L143+12
 812              	.LVL88:
 813 0034 FFF7FEFF 		bl	chprintf.constprop.2
 814              	.LVL89:
 815              	.LBB107:
 816              	.LBB108:
 817              		.loc 3 416 0 is_stmt 1 discriminator 1
 818 0038 6B48     		ldr	r0, .L143+8
 819 003a FFF7FEFF 		bl	chSysHalt
 820              	.LVL90:
 821              	.LBE108:
 822              	.LBE107:
 823              		.loc 1 1221 0 discriminator 1
 824 003e 636A     		ldr	r3, [r4, #36]
 825 0040 002B     		cmp	r3, #0
 826 0042 00F0A080 		beq	.L136
 827              	.LVL91:
 828              	.L93:
 829              		.loc 1 1222 0
 830 0046 6368     		ldr	r3, [r4, #4]
 831 0048 002B     		cmp	r3, #0
 832 004a 00F0AE80 		beq	.L137
 833              	.L94:
 834              		.loc 1 1223 0
 835 004e 616A     		ldr	r1, [r4, #36]
 836 0050 236A     		ldr	r3, [r4, #32]
 837 0052 CA68     		ldr	r2, [r1, #12]
 838 0054 9342     		cmp	r3, r2
 839 0056 54D2     		bcs	.L138
 840              	.L95:
 841              		.loc 1 1253 0
 842 0058 6068     		ldr	r0, [r4, #4]
 843              		.loc 1 1242 0
 844 005a 8F68     		ldr	r7, [r1, #8]
 845              		.loc 1 1253 0
 846 005c B0F86690 		ldrh	r9, [r0, #102]
 847              		.loc 1 1243 0
 848 0060 D51A     		subs	r5, r2, r3
ARM GAS  C:\Users\jo\AppData\Local\Temp\ccCSMiNu.s 			page 16


 849              		.loc 1 1244 0
 850 0062 B5F5803F 		cmp	r5, #65536
 851              		.loc 1 1245 0
 852 0066 2ABF     		itet	cs
 853 0068 4FF6FF75 		movwcs	r5, #65535
 854              		.loc 1 1251 0
 855 006c ADB2     		uxthcc	r5, r5
 856              		.loc 1 1249 0
 857 006e 46F00206 		orrcs	r6, r6, #2
 858              	.LVL92:
 859              		.loc 1 1254 0
 860 0072 4D45     		cmp	r5, r9
 861              		.loc 1 1242 0
 862 0074 1F44     		add	r7, r7, r3
 863              	.LVL93:
 864              		.loc 1 1254 0
 865 0076 33D9     		bls	.L98
 866              	.LVL94:
 867              		.loc 1 1257 0
 868 0078 B8F1000F 		cmp	r8, #0
 869 007c 2DD0     		beq	.L99
 870              		.loc 1 1258 0
 871 007e B9F1000F 		cmp	r9, #0
 872 0082 2CD1     		bne	.L134
 873              	.LVL95:
 874              		.loc 1 1274 0
 875 0084 002A     		cmp	r2, #0
 876 0086 40F09D80 		bne	.L118
 877              		.loc 1 1283 0
 878 008a A36A     		ldr	r3, [r4, #40]
 879              		.loc 1 1259 0
 880 008c F926     		movs	r6, #249
 881              	.LVL96:
 882              		.loc 1 1283 0
 883 008e 002B     		cmp	r3, #0
 884 0090 67D0     		beq	.L108
 885 0092 1546     		mov	r5, r2
 886 0094 2046     		mov	r0, r4
 887 0096 0321     		movs	r1, #3
 888 0098 2A46     		mov	r2, r5
 889 009a 9847     		blx	r3
 890              	.LVL97:
 891              	.L106:
 892              		.loc 1 1287 0
 893 009c 002E     		cmp	r6, #0
 894 009e 60D1     		bne	.L108
 895              		.loc 1 1288 0
 896 00a0 236A     		ldr	r3, [r4, #32]
 897              		.loc 1 1289 0
 898 00a2 626A     		ldr	r2, [r4, #36]
 899              		.loc 1 1288 0
 900 00a4 1D44     		add	r5, r5, r3
 901              	.LVL98:
 902 00a6 2562     		str	r5, [r4, #32]
 903              		.loc 1 1289 0
 904 00a8 D368     		ldr	r3, [r2, #12]
 905 00aa 9D42     		cmp	r5, r3
ARM GAS  C:\Users\jo\AppData\Local\Temp\ccCSMiNu.s 			page 17


 906 00ac 02D0     		beq	.L109
 907              		.loc 1 1289 0 is_stmt 0 discriminator 1
 908 00ae B8F1000F 		cmp	r8, #0
 909 00b2 5CD0     		beq	.L110
 910              	.L109:
 911              		.loc 1 1291 0 is_stmt 1
 912 00b4 D560     		str	r5, [r2, #12]
 913              	.LVL99:
 914              		.loc 1 1294 0
 915 00b6 0023     		movs	r3, #0
 916              		.loc 1 1296 0
 917 00b8 6068     		ldr	r0, [r4, #4]
 918              		.loc 1 1294 0
 919 00ba 2362     		str	r3, [r4, #32]
 920              		.loc 1 1296 0
 921 00bc FFF7FEFF 		bl	tcp_output
 922              	.LVL100:
 923              	.L111:
 924              		.loc 1 1318 0
 925 00c0 626A     		ldr	r2, [r4, #36]
 926              		.loc 1 1319 0
 927 00c2 0023     		movs	r3, #0
 928              		.loc 1 1318 0
 929 00c4 1671     		strb	r6, [r2, #4]
 930              		.loc 1 1325 0
 931 00c6 04F10C00 		add	r0, r4, #12
 932              		.loc 1 1319 0
 933 00ca 6362     		str	r3, [r4, #36]
 934              		.loc 1 1320 0
 935 00cc 6370     		strb	r3, [r4, #1]
 936              		.loc 1 1325 0
 937 00ce FFF7FEFF 		bl	sys_sem_signal
 938              	.LVL101:
 939              		.loc 1 1333 0
 940 00d2 0020     		movs	r0, #0
 941 00d4 03B0     		add	sp, sp, #12
 942              		.cfi_remember_state
 943              		.cfi_def_cfa_offset 28
 944              		@ sp needed
 945 00d6 BDE8F083 		pop	{r4, r5, r6, r7, r8, r9, pc}
 946              	.LVL102:
 947              	.L99:
 948              		.cfi_restore_state
 949              		.loc 1 1266 0
 950 00da 46F00206 		orr	r6, r6, #2
 951              	.LVL103:
 952              	.L134:
 953 00de 4D46     		mov	r5, r9
 954              	.LVL104:
 955              	.L98:
 956              		.loc 1 1269 0
 957 00e0 2B44     		add	r3, r3, r5
 958 00e2 9342     		cmp	r3, r2
 959 00e4 1DD8     		bhi	.L139
 960              	.L101:
 961              		.loc 1 1270 0
 962 00e6 3346     		mov	r3, r6
ARM GAS  C:\Users\jo\AppData\Local\Temp\ccCSMiNu.s 			page 18


 963 00e8 3946     		mov	r1, r7
 964 00ea 2A46     		mov	r2, r5
 965 00ec FFF7FEFF 		bl	tcp_write
 966              	.LVL105:
 967              		.loc 1 1272 0
 968 00f0 431C     		adds	r3, r0, #1
 969 00f2 DBB2     		uxtb	r3, r3
 970 00f4 012B     		cmp	r3, #1
 971              		.loc 1 1270 0
 972 00f6 0646     		mov	r6, r0
 973              	.LVL106:
 974              		.loc 1 1272 0
 975 00f8 21D9     		bls	.L140
 976              	.LVL107:
 977              	.L112:
 978              		.loc 1 1312 0
 979 00fa 636A     		ldr	r3, [r4, #36]
 980 00fc 0022     		movs	r2, #0
 981 00fe DA60     		str	r2, [r3, #12]
 982 0100 DEE7     		b	.L111
 983              	.LVL108:
 984              	.L138:
 985              		.loc 1 1223 0 discriminator 1
 986 0102 374B     		ldr	r3, .L143
 987 0104 3749     		ldr	r1, .L143+4
 988 0106 3A4A     		ldr	r2, .L143+16
 989 0108 0093     		str	r3, [sp]
 990 010a 3848     		ldr	r0, .L143+12
 991 010c 4FF49963 		mov	r3, #1224
 992 0110 FFF7FEFF 		bl	chprintf.constprop.2
 993              	.LVL109:
 994              	.LBB109:
 995              	.LBB110:
 996              		.loc 3 416 0 discriminator 1
 997 0114 3648     		ldr	r0, .L143+16
 998 0116 FFF7FEFF 		bl	chSysHalt
 999              	.LVL110:
 1000 011a 616A     		ldr	r1, [r4, #36]
 1001 011c 236A     		ldr	r3, [r4, #32]
 1002 011e CA68     		ldr	r2, [r1, #12]
 1003 0120 9AE7     		b	.L95
 1004              	.LVL111:
 1005              	.L139:
 1006              	.LBE110:
 1007              	.LBE109:
 1008              		.loc 1 1269 0 discriminator 1
 1009 0122 2F4B     		ldr	r3, .L143
 1010 0124 0093     		str	r3, [sp]
 1011 0126 2F49     		ldr	r1, .L143+4
 1012 0128 324A     		ldr	r2, .L143+20
 1013 012a 3048     		ldr	r0, .L143+12
 1014 012c 40F2F543 		movw	r3, #1269
 1015 0130 FFF7FEFF 		bl	chprintf.constprop.2
 1016              	.LVL112:
 1017              	.LBB111:
 1018              	.LBB112:
 1019              		.loc 3 416 0 discriminator 1
ARM GAS  C:\Users\jo\AppData\Local\Temp\ccCSMiNu.s 			page 19


 1020 0134 2F48     		ldr	r0, .L143+20
 1021 0136 FFF7FEFF 		bl	chSysHalt
 1022              	.LVL113:
 1023 013a 6068     		ldr	r0, [r4, #4]
 1024 013c D3E7     		b	.L101
 1025              	.LVL114:
 1026              	.L140:
 1027              	.L103:
 1028              	.LBE112:
 1029              	.LBE111:
 1030              		.loc 1 1274 0
 1031 013e B8F1000F 		cmp	r8, #0
 1032 0142 2CD1     		bne	.L141
 1033              	.L104:
 1034              		.loc 1 1279 0
 1035 0144 6368     		ldr	r3, [r4, #4]
 1036 0146 B3F86610 		ldrh	r1, [r3, #102]
 1037 014a 40F66832 		movw	r2, #2920
 1038 014e 9142     		cmp	r1, r2
 1039 0150 14D8     		bhi	.L142
 1040              	.L107:
 1041              		.loc 1 1283 0
 1042 0152 A36A     		ldr	r3, [r4, #40]
 1043 0154 002B     		cmp	r3, #0
 1044 0156 A1D0     		beq	.L106
 1045 0158 2046     		mov	r0, r4
 1046 015a 0321     		movs	r1, #3
 1047 015c 2A46     		mov	r2, r5
 1048 015e 9847     		blx	r3
 1049              	.LVL115:
 1050 0160 9CE7     		b	.L106
 1051              	.LVL116:
 1052              	.L108:
 1053              		.loc 1 1297 0
 1054 0162 73B2     		sxtb	r3, r6
 1055 0164 0133     		adds	r3, r3, #1
 1056 0166 C8D1     		bne	.L112
 1057              		.loc 1 1297 0 is_stmt 0 discriminator 1
 1058 0168 B8F1000F 		cmp	r8, #0
 1059 016c C5D1     		bne	.L112
 1060              	.L110:
 1061              		.loc 1 1296 0 is_stmt 1
 1062 016e 6068     		ldr	r0, [r4, #4]
 1063 0170 FFF7FEFF 		bl	tcp_output
 1064              	.LVL117:
 1065              		.loc 1 1333 0
 1066 0174 0020     		movs	r0, #0
 1067 0176 03B0     		add	sp, sp, #12
 1068              		.cfi_remember_state
 1069              		.cfi_def_cfa_offset 28
 1070              		@ sp needed
 1071 0178 BDE8F083 		pop	{r4, r5, r6, r7, r8, r9, pc}
 1072              	.LVL118:
 1073              	.L142:
 1074              		.cfi_restore_state
 1075              		.loc 1 1279 0 discriminator 1
 1076 017c B3F86830 		ldrh	r3, [r3, #104]
ARM GAS  C:\Users\jo\AppData\Local\Temp\ccCSMiNu.s 			page 20


 1077 0180 072B     		cmp	r3, #7
 1078 0182 8BD9     		bls	.L106
 1079 0184 E5E7     		b	.L107
 1080              	.LVL119:
 1081              	.L136:
 1082              		.loc 1 1221 0 discriminator 1
 1083 0186 0095     		str	r5, [sp]
 1084 0188 1649     		ldr	r1, .L143+4
 1085 018a 1B4A     		ldr	r2, .L143+24
 1086 018c 1748     		ldr	r0, .L143+12
 1087 018e 40F2C543 		movw	r3, #1221
 1088 0192 FFF7FEFF 		bl	chprintf.constprop.2
 1089              	.LVL120:
 1090              	.LBB113:
 1091              	.LBB114:
 1092              		.loc 3 416 0 discriminator 1
 1093 0196 1848     		ldr	r0, .L143+24
 1094 0198 FFF7FEFF 		bl	chSysHalt
 1095              	.LVL121:
 1096 019c 53E7     		b	.L93
 1097              	.LVL122:
 1098              	.L141:
 1099 019e 636A     		ldr	r3, [r4, #36]
 1100              	.LBE114:
 1101              	.LBE113:
 1102              		.loc 1 1274 0
 1103 01a0 DB68     		ldr	r3, [r3, #12]
 1104 01a2 9D42     		cmp	r5, r3
 1105 01a4 CED2     		bcs	.L104
 1106 01a6 A946     		mov	r9, r5
 1107              	.LVL123:
 1108 01a8 0DE0     		b	.L114
 1109              	.LVL124:
 1110              	.L137:
 1111              		.loc 1 1222 0 discriminator 1
 1112 01aa 0D4B     		ldr	r3, .L143
 1113 01ac 0093     		str	r3, [sp]
 1114 01ae 0D49     		ldr	r1, .L143+4
 1115 01b0 124A     		ldr	r2, .L143+28
 1116 01b2 0E48     		ldr	r0, .L143+12
 1117 01b4 40F2C643 		movw	r3, #1222
 1118 01b8 FFF7FEFF 		bl	chprintf.constprop.2
 1119              	.LVL125:
 1120              	.LBB115:
 1121              	.LBB116:
 1122              		.loc 3 416 0 discriminator 1
 1123 01bc 0F48     		ldr	r0, .L143+28
 1124 01be FFF7FEFF 		bl	chSysHalt
 1125              	.LVL126:
 1126 01c2 44E7     		b	.L94
 1127              	.LVL127:
 1128              	.L118:
 1129              	.LBE116:
 1130              	.LBE115:
 1131              		.loc 1 1259 0
 1132 01c4 F926     		movs	r6, #249
 1133              	.LVL128:
ARM GAS  C:\Users\jo\AppData\Local\Temp\ccCSMiNu.s 			page 21


 1134              	.L114:
 1135              		.loc 1 1277 0
 1136 01c6 A36A     		ldr	r3, [r4, #40]
 1137 01c8 1BB1     		cbz	r3, .L105
 1138              		.loc 1 1277 0 is_stmt 0 discriminator 1
 1139 01ca 2046     		mov	r0, r4
 1140 01cc 0321     		movs	r1, #3
 1141 01ce 4A46     		mov	r2, r9
 1142 01d0 9847     		blx	r3
 1143              	.LVL129:
 1144              	.L105:
 1145              		.loc 1 1278 0 is_stmt 1
 1146 01d2 237F     		ldrb	r3, [r4, #28]	@ zero_extendqisi2
 1147 01d4 43F01003 		orr	r3, r3, #16
 1148 01d8 4D46     		mov	r5, r9
 1149 01da 2377     		strb	r3, [r4, #28]
 1150 01dc 5EE7     		b	.L106
 1151              	.L144:
 1152 01de 00BF     		.align	2
 1153              	.L143:
 1154 01e0 4C000000 		.word	.LC2
 1155 01e4 00000000 		.word	.LC0
 1156 01e8 58010000 		.word	.LC11
 1157 01ec 00000000 		.word	itm_port
 1158 01f0 90010000 		.word	.LC13
 1159 01f4 C4010000 		.word	.LC14
 1160 01f8 18010000 		.word	.LC9
 1161 01fc 78010000 		.word	.LC12
 1162              		.cfi_endproc
 1163              	.LFE281:
 1164              		.size	do_writemore, .-do_writemore
 1165              		.section	.text.poll_tcp,"ax",%progbits
 1166              		.align	2
 1167              		.p2align 4,,15
 1168              		.thumb
 1169              		.thumb_func
 1170              		.type	poll_tcp, %function
 1171              	poll_tcp:
 1172              	.LFB262:
 1173              		.loc 1 278 0
 1174              		.cfi_startproc
 1175              		@ args = 0, pretend = 0, frame = 0
 1176              		@ frame_needed = 0, uses_anonymous_args = 0
 1177              	.LVL130:
 1178 0000 30B5     		push	{r4, r5, lr}
 1179              		.cfi_def_cfa_offset 12
 1180              		.cfi_offset 4, -12
 1181              		.cfi_offset 5, -8
 1182              		.cfi_offset 14, -4
 1183              		.loc 1 282 0
 1184 0002 0446     		mov	r4, r0
 1185              		.loc 1 278 0
 1186 0004 83B0     		sub	sp, sp, #12
 1187              		.cfi_def_cfa_offset 24
 1188              		.loc 1 282 0
 1189 0006 38B3     		cbz	r0, .L159
 1190              	.LVL131:
ARM GAS  C:\Users\jo\AppData\Local\Temp\ccCSMiNu.s 			page 22


 1191              	.L146:
 1192              		.loc 1 284 0
 1193 0008 6378     		ldrb	r3, [r4, #1]	@ zero_extendqisi2
 1194 000a 012B     		cmp	r3, #1
 1195 000c 1CD0     		beq	.L160
 1196              		.loc 1 286 0
 1197 000e 042B     		cmp	r3, #4
 1198 0010 1ED0     		beq	.L161
 1199              	.L148:
 1200              		.loc 1 292 0
 1201 0012 237F     		ldrb	r3, [r4, #28]	@ zero_extendqisi2
 1202 0014 DA06     		lsls	r2, r3, #27
 1203 0016 14D5     		bpl	.L150
 1204              		.loc 1 295 0
 1205 0018 6268     		ldr	r2, [r4, #4]
 1206 001a 92B1     		cbz	r2, .L150
 1207              		.loc 1 295 0 is_stmt 0 discriminator 1
 1208 001c B2F86600 		ldrh	r0, [r2, #102]
 1209 0020 40F66831 		movw	r1, #2920
 1210 0024 8842     		cmp	r0, r1
 1211 0026 0CD9     		bls	.L150
 1212              		.loc 1 295 0 discriminator 2
 1213 0028 B2F86820 		ldrh	r2, [r2, #104]
 1214 002c 072A     		cmp	r2, #7
 1215 002e 08D8     		bhi	.L150
 1216              		.loc 1 298 0 is_stmt 1
 1217 0030 A56A     		ldr	r5, [r4, #40]
 1218              		.loc 1 297 0
 1219 0032 23F01003 		bic	r3, r3, #16
 1220 0036 2377     		strb	r3, [r4, #28]
 1221              		.loc 1 298 0
 1222 0038 1DB1     		cbz	r5, .L150
 1223              		.loc 1 298 0 is_stmt 0 discriminator 1
 1224 003a 2046     		mov	r0, r4
 1225 003c 0221     		movs	r1, #2
 1226 003e 0022     		movs	r2, #0
 1227 0040 A847     		blx	r5
 1228              	.LVL132:
 1229              	.L150:
 1230              		.loc 1 303 0 is_stmt 1
 1231 0042 0020     		movs	r0, #0
 1232 0044 03B0     		add	sp, sp, #12
 1233              		.cfi_remember_state
 1234              		.cfi_def_cfa_offset 12
 1235              		@ sp needed
 1236 0046 30BD     		pop	{r4, r5, pc}
 1237              	.LVL133:
 1238              	.L160:
 1239              		.cfi_restore_state
 1240              		.loc 1 285 0
 1241 0048 2046     		mov	r0, r4
 1242 004a FFF7FEFF 		bl	do_writemore
 1243              	.LVL134:
 1244 004e E0E7     		b	.L148
 1245              	.L161:
 1246              		.loc 1 287 0
 1247 0050 2046     		mov	r0, r4
ARM GAS  C:\Users\jo\AppData\Local\Temp\ccCSMiNu.s 			page 23


 1248 0052 FFF7FEFF 		bl	do_close_internal
 1249              	.LVL135:
 1250 0056 DCE7     		b	.L148
 1251              	.LVL136:
 1252              	.L159:
 1253              		.loc 1 282 0 discriminator 1
 1254 0058 064B     		ldr	r3, .L162
 1255 005a 0093     		str	r3, [sp]
 1256 005c 0649     		ldr	r1, .L162+4
 1257              	.LVL137:
 1258 005e 074A     		ldr	r2, .L162+8
 1259 0060 0748     		ldr	r0, .L162+12
 1260              	.LVL138:
 1261 0062 4FF48D73 		mov	r3, #282
 1262 0066 FFF7FEFF 		bl	chprintf.constprop.2
 1263              	.LVL139:
 1264              	.LBB117:
 1265              	.LBB118:
 1266              		.loc 3 416 0 discriminator 1
 1267 006a 0448     		ldr	r0, .L162+8
 1268 006c FFF7FEFF 		bl	chSysHalt
 1269              	.LVL140:
 1270 0070 CAE7     		b	.L146
 1271              	.L163:
 1272 0072 00BF     		.align	2
 1273              	.L162:
 1274 0074 4C000000 		.word	.LC2
 1275 0078 00000000 		.word	.LC0
 1276 007c E4010000 		.word	.LC15
 1277 0080 00000000 		.word	itm_port
 1278              	.LBE118:
 1279              	.LBE117:
 1280              		.cfi_endproc
 1281              	.LFE262:
 1282              		.size	poll_tcp, .-poll_tcp
 1283 0084 AFF30080 		.section	.text.sent_tcp,"ax",%progbits
 1283      AFF30080 
 1283      AFF30080 
 1284              		.align	2
 1285              		.p2align 4,,15
 1286              		.thumb
 1287              		.thumb_func
 1288              		.type	sent_tcp, %function
 1289              	sent_tcp:
 1290              	.LFB263:
 1291              		.loc 1 314 0
 1292              		.cfi_startproc
 1293              		@ args = 0, pretend = 0, frame = 0
 1294              		@ frame_needed = 0, uses_anonymous_args = 0
 1295              	.LVL141:
 1296 0000 70B5     		push	{r4, r5, r6, lr}
 1297              		.cfi_def_cfa_offset 16
 1298              		.cfi_offset 4, -16
 1299              		.cfi_offset 5, -12
 1300              		.cfi_offset 6, -8
 1301              		.cfi_offset 14, -4
 1302 0002 1546     		mov	r5, r2
ARM GAS  C:\Users\jo\AppData\Local\Temp\ccCSMiNu.s 			page 24


 1303 0004 82B0     		sub	sp, sp, #8
 1304              		.cfi_def_cfa_offset 24
 1305              		.loc 1 318 0
 1306 0006 0446     		mov	r4, r0
 1307 0008 28B3     		cbz	r0, .L175
 1308              	.LVL142:
 1309              	.L165:
 1310              		.loc 1 320 0
 1311 000a 6378     		ldrb	r3, [r4, #1]	@ zero_extendqisi2
 1312 000c 012B     		cmp	r3, #1
 1313 000e 1AD0     		beq	.L176
 1314              		.loc 1 322 0
 1315 0010 042B     		cmp	r3, #4
 1316 0012 1CD0     		beq	.L177
 1317              	.L167:
 1318              		.loc 1 329 0
 1319 0014 6368     		ldr	r3, [r4, #4]
 1320 0016 9BB1     		cbz	r3, .L169
 1321              		.loc 1 329 0 is_stmt 0 discriminator 1
 1322 0018 B3F86610 		ldrh	r1, [r3, #102]
 1323 001c 40F66832 		movw	r2, #2920
 1324 0020 9142     		cmp	r1, r2
 1325 0022 0DD9     		bls	.L169
 1326              		.loc 1 329 0 discriminator 2
 1327 0024 B3F86830 		ldrh	r3, [r3, #104]
 1328 0028 072B     		cmp	r3, #7
 1329 002a 09D8     		bhi	.L169
 1330              	.LVL143:
 1331              	.LBB125:
 1332              	.LBB126:
 1333              		.loc 1 331 0 is_stmt 1
 1334 002c 237F     		ldrb	r3, [r4, #28]	@ zero_extendqisi2
 1335              		.loc 1 332 0
 1336 002e A66A     		ldr	r6, [r4, #40]
 1337              		.loc 1 331 0
 1338 0030 23F01003 		bic	r3, r3, #16
 1339 0034 2377     		strb	r3, [r4, #28]
 1340              		.loc 1 332 0
 1341 0036 1EB1     		cbz	r6, .L169
 1342 0038 2046     		mov	r0, r4
 1343 003a 2A46     		mov	r2, r5
 1344 003c 0221     		movs	r1, #2
 1345 003e B047     		blx	r6
 1346              	.LVL144:
 1347              	.L169:
 1348              	.LBE126:
 1349              	.LBE125:
 1350              		.loc 1 337 0
 1351 0040 0020     		movs	r0, #0
 1352 0042 02B0     		add	sp, sp, #8
 1353              		.cfi_remember_state
 1354              		.cfi_def_cfa_offset 16
 1355              		@ sp needed
 1356 0044 70BD     		pop	{r4, r5, r6, pc}
 1357              	.LVL145:
 1358              	.L176:
 1359              		.cfi_restore_state
ARM GAS  C:\Users\jo\AppData\Local\Temp\ccCSMiNu.s 			page 25


 1360              		.loc 1 321 0
 1361 0046 2046     		mov	r0, r4
 1362 0048 FFF7FEFF 		bl	do_writemore
 1363              	.LVL146:
 1364 004c E2E7     		b	.L167
 1365              	.L177:
 1366              		.loc 1 323 0
 1367 004e 2046     		mov	r0, r4
 1368 0050 FFF7FEFF 		bl	do_close_internal
 1369              	.LVL147:
 1370 0054 DEE7     		b	.L167
 1371              	.LVL148:
 1372              	.L175:
 1373              		.loc 1 318 0 discriminator 1
 1374 0056 064B     		ldr	r3, .L178
 1375 0058 0093     		str	r3, [sp]
 1376 005a 0649     		ldr	r1, .L178+4
 1377              	.LVL149:
 1378 005c 064A     		ldr	r2, .L178+8
 1379              	.LVL150:
 1380 005e 0748     		ldr	r0, .L178+12
 1381              	.LVL151:
 1382 0060 4FF49F73 		mov	r3, #318
 1383 0064 FFF7FEFF 		bl	chprintf.constprop.2
 1384              	.LVL152:
 1385              	.LBB127:
 1386              	.LBB128:
 1387              		.loc 3 416 0 discriminator 1
 1388 0068 0348     		ldr	r0, .L178+8
 1389 006a FFF7FEFF 		bl	chSysHalt
 1390              	.LVL153:
 1391 006e CCE7     		b	.L165
 1392              	.L179:
 1393              		.align	2
 1394              	.L178:
 1395 0070 4C000000 		.word	.LC2
 1396 0074 00000000 		.word	.LC0
 1397 0078 E4010000 		.word	.LC15
 1398 007c 00000000 		.word	itm_port
 1399              	.LBE128:
 1400              	.LBE127:
 1401              		.cfi_endproc
 1402              	.LFE263:
 1403              		.size	sent_tcp, .-sent_tcp
 1404              		.section	.text.do_connected,"ax",%progbits
 1405              		.align	2
 1406              		.p2align 4,,15
 1407              		.thumb
 1408              		.thumb_func
 1409              		.type	do_connected, %function
 1410              	do_connected:
 1411              	.LFB275:
 1412              		.loc 1 938 0
 1413              		.cfi_startproc
 1414              		@ args = 0, pretend = 0, frame = 0
 1415              		@ frame_needed = 0, uses_anonymous_args = 0
 1416              	.LVL154:
ARM GAS  C:\Users\jo\AppData\Local\Temp\ccCSMiNu.s 			page 26


 1417 0000 30B5     		push	{r4, r5, lr}
 1418              		.cfi_def_cfa_offset 12
 1419              		.cfi_offset 4, -12
 1420              		.cfi_offset 5, -8
 1421              		.cfi_offset 14, -4
 1422              		.loc 1 946 0
 1423 0002 0446     		mov	r4, r0
 1424              		.loc 1 938 0
 1425 0004 83B0     		sub	sp, sp, #12
 1426              		.cfi_def_cfa_offset 24
 1427              		.loc 1 946 0
 1428 0006 0028     		cmp	r0, #0
 1429 0008 54D0     		beq	.L193
 1430              		.loc 1 950 0
 1431 000a 4378     		ldrb	r3, [r0, #1]	@ zero_extendqisi2
 1432 000c 032B     		cmp	r3, #3
 1433 000e 1546     		mov	r5, r2
 1434 0010 0BD0     		beq	.L182
 1435              		.loc 1 950 0 is_stmt 0 discriminator 1
 1436 0012 294B     		ldr	r3, .L209
 1437 0014 0093     		str	r3, [sp]
 1438 0016 2948     		ldr	r0, .L209+4
 1439              	.LVL155:
 1440 0018 2949     		ldr	r1, .L209+8
 1441              	.LVL156:
 1442 001a 2A4A     		ldr	r2, .L209+12
 1443              	.LVL157:
 1444 001c 40F2B633 		movw	r3, #950
 1445 0020 FFF7FEFF 		bl	chprintf.constprop.2
 1446              	.LVL158:
 1447              	.LBB129:
 1448              	.LBB130:
 1449              		.loc 3 416 0 is_stmt 1 discriminator 1
 1450 0024 2748     		ldr	r0, .L209+12
 1451 0026 FFF7FEFF 		bl	chSysHalt
 1452              	.LVL159:
 1453              	.L182:
 1454              	.LBE130:
 1455              	.LBE129:
 1456              		.loc 1 951 0
 1457 002a 636A     		ldr	r3, [r4, #36]
 1458 002c 7BB3     		cbz	r3, .L206
 1459              	.L183:
 1460              		.loc 1 955 0
 1461 002e 1D71     		strb	r5, [r3, #4]
 1462              	.L185:
 1463              		.loc 1 957 0
 1464 0030 2378     		ldrb	r3, [r4]	@ zero_extendqisi2
 1465 0032 102B     		cmp	r3, #16
 1466 0034 25D0     		beq	.L207
 1467              	.L187:
 1468              		.loc 1 960 0
 1469 0036 237F     		ldrb	r3, [r4, #28]	@ zero_extendqisi2
 1470              	.LVL160:
 1471              		.loc 1 962 0
 1472 0038 0021     		movs	r1, #0
 1473              		.loc 1 961 0
ARM GAS  C:\Users\jo\AppData\Local\Temp\ccCSMiNu.s 			page 27


 1474 003a 23F00402 		bic	r2, r3, #4
 1475              		.loc 1 960 0
 1476 003e 03F00403 		and	r3, r3, #4
 1477              	.LVL161:
 1478              		.loc 1 961 0
 1479 0042 2277     		strb	r2, [r4, #28]
 1480              	.LVL162:
 1481              		.loc 1 962 0
 1482 0044 6162     		str	r1, [r4, #36]
 1483              		.loc 1 964 0
 1484 0046 03F0FF02 		and	r2, r3, #255
 1485              		.loc 1 963 0
 1486 004a 6170     		strb	r1, [r4, #1]
 1487              		.loc 1 964 0
 1488 004c 63B9     		cbnz	r3, .L208
 1489              		.loc 1 967 0
 1490 004e A36A     		ldr	r3, [r4, #40]
 1491 0050 13B1     		cbz	r3, .L191
 1492 0052 2046     		mov	r0, r4
 1493 0054 0221     		movs	r1, #2
 1494 0056 9847     		blx	r3
 1495              	.LVL163:
 1496              	.L191:
 1497              		.loc 1 970 0
 1498 0058 04F10C00 		add	r0, r4, #12
 1499 005c FFF7FEFF 		bl	sys_sem_signal
 1500              	.LVL164:
 1501              	.L205:
 1502              		.loc 1 972 0
 1503 0060 0020     		movs	r0, #0
 1504              	.L181:
 1505 0062 40B2     		sxtb	r0, r0
 1506              		.loc 1 973 0
 1507 0064 03B0     		add	sp, sp, #12
 1508              		.cfi_remember_state
 1509              		.cfi_def_cfa_offset 12
 1510              		@ sp needed
 1511 0066 30BD     		pop	{r4, r5, pc}
 1512              	.LVL165:
 1513              	.L208:
 1514              		.cfi_restore_state
 1515              		.loc 1 965 0
 1516 0068 94F90830 		ldrsb	r3, [r4, #8]
 1517 006c 0933     		adds	r3, r3, #9
 1518 006e 00DB     		blt	.L189
 1519              		.loc 1 965 0 is_stmt 0 discriminator 1
 1520 0070 2172     		strb	r1, [r4, #8]
 1521              	.L189:
 1522              		.loc 1 967 0 is_stmt 1
 1523 0072 A36A     		ldr	r3, [r4, #40]
 1524 0074 002B     		cmp	r3, #0
 1525 0076 F3D0     		beq	.L205
 1526 0078 2046     		mov	r0, r4
 1527 007a 0221     		movs	r1, #2
 1528 007c 0022     		movs	r2, #0
 1529 007e 9847     		blx	r3
 1530              	.LVL166:
ARM GAS  C:\Users\jo\AppData\Local\Temp\ccCSMiNu.s 			page 28


 1531 0080 EEE7     		b	.L205
 1532              	.L207:
 1533              		.loc 1 957 0 discriminator 1
 1534 0082 002D     		cmp	r5, #0
 1535 0084 D7D1     		bne	.L187
 1536              		.loc 1 958 0
 1537 0086 2046     		mov	r0, r4
 1538 0088 FFF7FEFF 		bl	setup_tcp
 1539              	.LVL167:
 1540 008c D3E7     		b	.L187
 1541              	.L206:
 1542              		.loc 1 951 0 discriminator 1
 1543 008e 237F     		ldrb	r3, [r4, #28]	@ zero_extendqisi2
 1544 0090 5B07     		lsls	r3, r3, #29
 1545 0092 CDD4     		bmi	.L185
 1546              		.loc 1 951 0 is_stmt 0 discriminator 2
 1547 0094 084B     		ldr	r3, .L209
 1548 0096 0093     		str	r3, [sp]
 1549 0098 0949     		ldr	r1, .L209+8
 1550 009a 0B4A     		ldr	r2, .L209+16
 1551 009c 0748     		ldr	r0, .L209+4
 1552 009e 4FF46E73 		mov	r3, #952
 1553 00a2 FFF7FEFF 		bl	chprintf.constprop.2
 1554              	.LVL168:
 1555              	.LBB131:
 1556              	.LBB132:
 1557              		.loc 3 416 0 is_stmt 1 discriminator 2
 1558 00a6 0848     		ldr	r0, .L209+16
 1559 00a8 FFF7FEFF 		bl	chSysHalt
 1560              	.LVL169:
 1561              	.LBE132:
 1562              	.LBE131:
 1563              		.loc 1 954 0 discriminator 2
 1564 00ac 636A     		ldr	r3, [r4, #36]
 1565 00ae 002B     		cmp	r3, #0
 1566 00b0 BED0     		beq	.L185
 1567 00b2 BCE7     		b	.L183
 1568              	.LVL170:
 1569              	.L193:
 1570              		.loc 1 947 0
 1571 00b4 FA20     		movs	r0, #250
 1572              	.LVL171:
 1573 00b6 D4E7     		b	.L181
 1574              	.L210:
 1575              		.align	2
 1576              	.L209:
 1577 00b8 4C000000 		.word	.LC2
 1578 00bc 00000000 		.word	itm_port
 1579 00c0 00000000 		.word	.LC0
 1580 00c4 F4010000 		.word	.LC16
 1581 00c8 14020000 		.word	.LC17
 1582              		.cfi_endproc
 1583              	.LFE275:
 1584              		.size	do_connected, .-do_connected
 1585 00cc AFF30080 		.section	.text.err_tcp,"ax",%progbits
 1586              		.align	2
 1587              		.p2align 4,,15
ARM GAS  C:\Users\jo\AppData\Local\Temp\ccCSMiNu.s 			page 29


 1588              		.thumb
 1589              		.thumb_func
 1590              		.type	err_tcp, %function
 1591              	err_tcp:
 1592              	.LFB264:
 1593              		.loc 1 348 0
 1594              		.cfi_startproc
 1595              		@ args = 0, pretend = 0, frame = 0
 1596              		@ frame_needed = 0, uses_anonymous_args = 0
 1597              	.LVL172:
 1598 0000 F0B5     		push	{r4, r5, r6, r7, lr}
 1599              		.cfi_def_cfa_offset 20
 1600              		.cfi_offset 4, -20
 1601              		.cfi_offset 5, -16
 1602              		.cfi_offset 6, -12
 1603              		.cfi_offset 7, -8
 1604              		.cfi_offset 14, -4
 1605 0002 0F46     		mov	r7, r1
 1606 0004 83B0     		sub	sp, sp, #12
 1607              		.cfi_def_cfa_offset 32
 1608              		.loc 1 354 0
 1609 0006 0446     		mov	r4, r0
 1610 0008 0028     		cmp	r0, #0
 1611 000a 57D0     		beq	.L243
 1612              	.LVL173:
 1613              	.L212:
 1614              		.loc 1 369 0
 1615 000c A36A     		ldr	r3, [r4, #40]
 1616              		.loc 1 364 0
 1617 000e 6678     		ldrb	r6, [r4, #1]	@ zero_extendqisi2
 1618              	.LVL174:
 1619              		.loc 1 360 0
 1620 0010 2772     		strb	r7, [r4, #8]
 1621              		.loc 1 356 0
 1622 0012 0025     		movs	r5, #0
 1623 0014 6560     		str	r5, [r4, #4]
 1624              		.loc 1 365 0
 1625 0016 6570     		strb	r5, [r4, #1]
 1626              		.loc 1 369 0
 1627 0018 7BB1     		cbz	r3, .L215
 1628              		.loc 1 369 0 is_stmt 0 discriminator 1
 1629 001a 2046     		mov	r0, r4
 1630 001c 0421     		movs	r1, #4
 1631 001e 2A46     		mov	r2, r5
 1632 0020 9847     		blx	r3
 1633              	.LVL175:
 1634              		.loc 1 372 0 is_stmt 1 discriminator 1
 1635 0022 A36A     		ldr	r3, [r4, #40]
 1636 0024 4BB1     		cbz	r3, .L215
 1637 0026 2046     		mov	r0, r4
 1638 0028 2946     		mov	r1, r5
 1639 002a 2A46     		mov	r2, r5
 1640 002c 9847     		blx	r3
 1641              	.LVL176:
 1642 002e A36A     		ldr	r3, [r4, #40]
 1643              		.loc 1 373 0 discriminator 1
 1644 0030 1BB1     		cbz	r3, .L215
ARM GAS  C:\Users\jo\AppData\Local\Temp\ccCSMiNu.s 			page 30


 1645 0032 2A46     		mov	r2, r5
 1646 0034 2046     		mov	r0, r4
 1647 0036 0221     		movs	r1, #2
 1648 0038 9847     		blx	r3
 1649              	.LVL177:
 1650              	.L215:
 1651              		.loc 1 376 0
 1652 003a 04F11005 		add	r5, r4, #16
 1653 003e 2846     		mov	r0, r5
 1654 0040 FFF7FEFF 		bl	sys_mbox_valid
 1655              	.LVL178:
 1656 0044 0028     		cmp	r0, #0
 1657 0046 34D1     		bne	.L244
 1658              	.L216:
 1659              		.loc 1 381 0
 1660 0048 04F11405 		add	r5, r4, #20
 1661 004c 2846     		mov	r0, r5
 1662 004e FFF7FEFF 		bl	sys_mbox_valid
 1663              	.LVL179:
 1664 0052 48BB     		cbnz	r0, .L245
 1665              	.L217:
 1666              		.loc 1 386 0
 1667 0054 012E     		cmp	r6, #1
 1668 0056 13D0     		beq	.L218
 1669              		.loc 1 386 0 is_stmt 0 discriminator 2
 1670 0058 033E     		subs	r6, r6, #3
 1671              	.LVL180:
 1672 005a 012E     		cmp	r6, #1
 1673 005c 10D9     		bls	.L218
 1674              		.loc 1 402 0 is_stmt 1
 1675 005e 636A     		ldr	r3, [r4, #36]
 1676 0060 03B3     		cbz	r3, .L211
 1677              		.loc 1 402 0 is_stmt 0 discriminator 1
 1678 0062 244B     		ldr	r3, .L247
 1679 0064 0093     		str	r3, [sp]
 1680 0066 2449     		ldr	r1, .L247+4
 1681 0068 244A     		ldr	r2, .L247+8
 1682 006a 2548     		ldr	r0, .L247+12
 1683 006c 4FF4C973 		mov	r3, #402
 1684 0070 FFF7FEFF 		bl	chprintf.constprop.2
 1685              	.LVL181:
 1686              	.LBB133:
 1687              	.LBB134:
 1688              		.loc 3 416 0 is_stmt 1 discriminator 1
 1689 0074 2148     		ldr	r0, .L247+8
 1690              	.LBE134:
 1691              	.LBE133:
 1692              		.loc 1 404 0 discriminator 1
 1693 0076 03B0     		add	sp, sp, #12
 1694              		.cfi_remember_state
 1695              		.cfi_def_cfa_offset 20
 1696              		@ sp needed
 1697 0078 BDE8F040 		pop	{r4, r5, r6, r7, lr}
 1698              		.cfi_restore 14
 1699              		.cfi_restore 7
 1700              		.cfi_restore 6
 1701              		.cfi_restore 5
ARM GAS  C:\Users\jo\AppData\Local\Temp\ccCSMiNu.s 			page 31


 1702              		.cfi_restore 4
 1703              		.cfi_def_cfa_offset 0
 1704              	.LVL182:
 1705              	.LBB136:
 1706              	.LBB135:
 1707              		.loc 3 416 0 discriminator 1
 1708 007c FFF7FEBF 		b	chSysHalt
 1709              	.LVL183:
 1710              	.L218:
 1711              		.cfi_restore_state
 1712              	.LBE135:
 1713              	.LBE136:
 1714              	.LBB137:
 1715              		.loc 1 390 0
 1716 0080 237F     		ldrb	r3, [r4, #28]	@ zero_extendqisi2
 1717              	.LVL184:
 1718              		.loc 1 391 0
 1719 0082 23F00402 		bic	r2, r3, #4
 1720              		.loc 1 393 0
 1721 0086 5B07     		lsls	r3, r3, #29
 1722              	.LVL185:
 1723              		.loc 1 391 0
 1724 0088 2277     		strb	r2, [r4, #28]
 1725              	.LVL186:
 1726              		.loc 1 393 0
 1727 008a 0BD4     		bmi	.L211
 1728              		.loc 1 395 0
 1729 008c 636A     		ldr	r3, [r4, #36]
 1730 008e 13B3     		cbz	r3, .L246
 1731              	.L222:
 1732              		.loc 1 396 0
 1733 0090 1F71     		strb	r7, [r3, #4]
 1734              		.loc 1 399 0
 1735 0092 04F10C00 		add	r0, r4, #12
 1736              		.loc 1 397 0
 1737 0096 0023     		movs	r3, #0
 1738 0098 6362     		str	r3, [r4, #36]
 1739              	.LBE137:
 1740              		.loc 1 404 0
 1741 009a 03B0     		add	sp, sp, #12
 1742              		.cfi_remember_state
 1743              		.cfi_def_cfa_offset 20
 1744              		@ sp needed
 1745 009c BDE8F040 		pop	{r4, r5, r6, r7, lr}
 1746              		.cfi_restore 14
 1747              		.cfi_restore 7
 1748              		.cfi_restore 6
 1749              		.cfi_restore 5
 1750              		.cfi_restore 4
 1751              		.cfi_def_cfa_offset 0
 1752              	.LVL187:
 1753              	.LBB140:
 1754              		.loc 1 399 0
 1755 00a0 FFF7FEBF 		b	sys_sem_signal
 1756              	.LVL188:
 1757              	.L211:
 1758              		.cfi_restore_state
ARM GAS  C:\Users\jo\AppData\Local\Temp\ccCSMiNu.s 			page 32


 1759              	.LBE140:
 1760              		.loc 1 404 0
 1761 00a4 03B0     		add	sp, sp, #12
 1762              		.cfi_remember_state
 1763              		.cfi_def_cfa_offset 20
 1764              		@ sp needed
 1765 00a6 F0BD     		pop	{r4, r5, r6, r7, pc}
 1766              	.LVL189:
 1767              	.L245:
 1768              		.cfi_restore_state
 1769              		.loc 1 383 0
 1770 00a8 2846     		mov	r0, r5
 1771 00aa 0021     		movs	r1, #0
 1772 00ac FFF7FEFF 		bl	sys_mbox_trypost
 1773              	.LVL190:
 1774 00b0 D0E7     		b	.L217
 1775              	.L244:
 1776              		.loc 1 378 0
 1777 00b2 2846     		mov	r0, r5
 1778 00b4 0021     		movs	r1, #0
 1779 00b6 FFF7FEFF 		bl	sys_mbox_trypost
 1780              	.LVL191:
 1781 00ba C5E7     		b	.L216
 1782              	.LVL192:
 1783              	.L243:
 1784              		.loc 1 354 0 discriminator 1
 1785 00bc 0D4B     		ldr	r3, .L247
 1786 00be 0093     		str	r3, [sp]
 1787 00c0 0D49     		ldr	r1, .L247+4
 1788              	.LVL193:
 1789 00c2 104A     		ldr	r2, .L247+16
 1790 00c4 0E48     		ldr	r0, .L247+12
 1791              	.LVL194:
 1792 00c6 4FF4B173 		mov	r3, #354
 1793 00ca FFF7FEFF 		bl	chprintf.constprop.2
 1794              	.LVL195:
 1795              	.LBB141:
 1796              	.LBB142:
 1797              		.loc 3 416 0 discriminator 1
 1798 00ce 0D48     		ldr	r0, .L247+16
 1799 00d0 FFF7FEFF 		bl	chSysHalt
 1800              	.LVL196:
 1801 00d4 9AE7     		b	.L212
 1802              	.LVL197:
 1803              	.L246:
 1804              	.LBE142:
 1805              	.LBE141:
 1806              	.LBB143:
 1807              		.loc 1 395 0 discriminator 1
 1808 00d6 074B     		ldr	r3, .L247
 1809 00d8 0093     		str	r3, [sp]
 1810 00da 0749     		ldr	r1, .L247+4
 1811 00dc 0A4A     		ldr	r2, .L247+20
 1812 00de 0848     		ldr	r0, .L247+12
 1813 00e0 40F28B13 		movw	r3, #395
 1814 00e4 FFF7FEFF 		bl	chprintf.constprop.2
 1815              	.LVL198:
ARM GAS  C:\Users\jo\AppData\Local\Temp\ccCSMiNu.s 			page 33


 1816              	.LBB138:
 1817              	.LBB139:
 1818              		.loc 3 416 0 discriminator 1
 1819 00e8 0748     		ldr	r0, .L247+20
 1820 00ea FFF7FEFF 		bl	chSysHalt
 1821              	.LVL199:
 1822 00ee 636A     		ldr	r3, [r4, #36]
 1823 00f0 CEE7     		b	.L222
 1824              	.L248:
 1825 00f2 00BF     		.align	2
 1826              	.L247:
 1827 00f4 4C000000 		.word	.LC2
 1828 00f8 00000000 		.word	.LC0
 1829 00fc 54020000 		.word	.LC18
 1830 0100 00000000 		.word	itm_port
 1831 0104 E4010000 		.word	.LC15
 1832 0108 18010000 		.word	.LC9
 1833              	.LBE139:
 1834              	.LBE138:
 1835              	.LBE143:
 1836              		.cfi_endproc
 1837              	.LFE264:
 1838              		.size	err_tcp, .-err_tcp
 1839 010c AFF30080 		.section	.text.recv_udp,"ax",%progbits
 1840              		.align	2
 1841              		.p2align 4,,15
 1842              		.thumb
 1843              		.thumb_func
 1844              		.type	recv_udp, %function
 1845              	recv_udp:
 1846              	.LFB260:
 1847              		.loc 1 146 0
 1848              		.cfi_startproc
 1849              		@ args = 4, pretend = 0, frame = 0
 1850              		@ frame_needed = 0, uses_anonymous_args = 0
 1851              	.LVL200:
 1852 0000 2DE9F043 		push	{r4, r5, r6, r7, r8, r9, lr}
 1853              		.cfi_def_cfa_offset 28
 1854              		.cfi_offset 4, -28
 1855              		.cfi_offset 5, -24
 1856              		.cfi_offset 6, -20
 1857              		.cfi_offset 7, -16
 1858              		.cfi_offset 8, -12
 1859              		.cfi_offset 9, -8
 1860              		.cfi_offset 14, -4
 1861 0004 83B0     		sub	sp, sp, #12
 1862              		.cfi_def_cfa_offset 40
 1863              		.loc 1 146 0
 1864 0006 0446     		mov	r4, r0
 1865 0008 1646     		mov	r6, r2
 1866 000a 1F46     		mov	r7, r3
 1867 000c BDF82890 		ldrh	r9, [sp, #40]
 1868              		.loc 1 155 0
 1869 0010 0D46     		mov	r5, r1
 1870 0012 0029     		cmp	r1, #0
 1871 0014 38D0     		beq	.L264
 1872              	.LVL201:
ARM GAS  C:\Users\jo\AppData\Local\Temp\ccCSMiNu.s 			page 34


 1873              	.L250:
 1874              		.loc 1 156 0
 1875 0016 002C     		cmp	r4, #0
 1876 0018 48D0     		beq	.L265
 1877              	.L251:
 1878              	.LVL202:
 1879              		.loc 1 158 0
 1880 001a 6368     		ldr	r3, [r4, #4]
 1881 001c AB42     		cmp	r3, r5
 1882 001e 0AD0     		beq	.L258
 1883              		.loc 1 158 0 is_stmt 0 discriminator 1
 1884 0020 2A4B     		ldr	r3, .L267
 1885 0022 0093     		str	r3, [sp]
 1886 0024 2A48     		ldr	r0, .L267+4
 1887 0026 2B49     		ldr	r1, .L267+8
 1888 0028 2B4A     		ldr	r2, .L267+12
 1889 002a 9E23     		movs	r3, #158
 1890 002c FFF7FEFF 		bl	chprintf.constprop.2
 1891              	.LVL203:
 1892              	.LBB144:
 1893              	.LBB145:
 1894              		.loc 3 416 0 is_stmt 1 discriminator 1
 1895 0030 2948     		ldr	r0, .L267+12
 1896 0032 FFF7FEFF 		bl	chSysHalt
 1897              	.LVL204:
 1898              	.L258:
 1899              	.LBE145:
 1900              	.LBE144:
 1901              		.loc 1 165 0 discriminator 1
 1902 0036 04F11008 		add	r8, r4, #16
 1903 003a 4046     		mov	r0, r8
 1904 003c FFF7FEFF 		bl	sys_mbox_valid
 1905              	.LVL205:
 1906 0040 28B9     		cbnz	r0, .L252
 1907              	.LVL206:
 1908              	.L253:
 1909              		.loc 1 167 0
 1910 0042 3046     		mov	r0, r6
 1911              		.loc 1 205 0
 1912 0044 03B0     		add	sp, sp, #12
 1913              		.cfi_remember_state
 1914              		.cfi_def_cfa_offset 28
 1915              		@ sp needed
 1916 0046 BDE8F043 		pop	{r4, r5, r6, r7, r8, r9, lr}
 1917              		.cfi_restore 14
 1918              		.cfi_restore 9
 1919              		.cfi_restore 8
 1920              		.cfi_restore 7
 1921              		.cfi_restore 6
 1922              		.cfi_restore 5
 1923              		.cfi_restore 4
 1924              		.cfi_def_cfa_offset 0
 1925              	.LVL207:
 1926              		.loc 1 167 0
 1927 004a FFF7FEBF 		b	pbuf_free
 1928              	.LVL208:
 1929              	.L252:
ARM GAS  C:\Users\jo\AppData\Local\Temp\ccCSMiNu.s 			page 35


 1930              		.cfi_restore_state
 1931              		.loc 1 171 0
 1932 004e 234B     		ldr	r3, .L267+16
 1933 0050 9889     		ldrh	r0, [r3, #12]
 1934 0052 FFF7FEFF 		bl	malloc
 1935              	.LVL209:
 1936              		.loc 1 172 0
 1937 0056 0546     		mov	r5, r0
 1938              	.LVL210:
 1939 0058 0028     		cmp	r0, #0
 1940 005a F2D0     		beq	.L253
 1941              		.loc 1 176 0
 1942 005c 0660     		str	r6, [r0]
 1943              		.loc 1 177 0
 1944 005e 4660     		str	r6, [r0, #4]
 1945              		.loc 1 178 0
 1946 0060 07B1     		cbz	r7, .L254
 1947              		.loc 1 178 0 is_stmt 0 discriminator 1
 1948 0062 3F68     		ldr	r7, [r7]
 1949              	.LVL211:
 1950              	.L254:
 1951              		.loc 1 178 0 discriminator 4
 1952 0064 AF60     		str	r7, [r5, #8]
 1953              		.loc 1 195 0 is_stmt 1 discriminator 4
 1954 0066 2946     		mov	r1, r5
 1955              		.loc 1 179 0 discriminator 4
 1956 0068 A5F80C90 		strh	r9, [r5, #12]	@ movhi
 1957              		.loc 1 195 0 discriminator 4
 1958 006c 4046     		mov	r0, r8
 1959              	.LVL212:
 1960              		.loc 1 194 0 discriminator 4
 1961 006e 3689     		ldrh	r6, [r6, #8]
 1962              	.LVL213:
 1963              		.loc 1 195 0 discriminator 4
 1964 0070 FFF7FEFF 		bl	sys_mbox_trypost
 1965              	.LVL214:
 1966 0074 0146     		mov	r1, r0
 1967 0076 98B9     		cbnz	r0, .L266
 1968              		.loc 1 203 0
 1969 0078 A36A     		ldr	r3, [r4, #40]
 1970 007a 1BB3     		cbz	r3, .L249
 1971              		.loc 1 203 0 is_stmt 0 discriminator 1
 1972 007c 2046     		mov	r0, r4
 1973 007e 3246     		mov	r2, r6
 1974              		.loc 1 205 0 is_stmt 1 discriminator 1
 1975 0080 03B0     		add	sp, sp, #12
 1976              		.cfi_remember_state
 1977              		.cfi_def_cfa_offset 28
 1978              		@ sp needed
 1979 0082 BDE8F043 		pop	{r4, r5, r6, r7, r8, r9, lr}
 1980              		.cfi_restore 14
 1981              		.cfi_restore 9
 1982              		.cfi_restore 8
 1983              		.cfi_restore 7
 1984              		.cfi_restore 6
 1985              		.cfi_restore 5
 1986              		.cfi_restore 4
ARM GAS  C:\Users\jo\AppData\Local\Temp\ccCSMiNu.s 			page 36


 1987              		.cfi_def_cfa_offset 0
 1988              	.LVL215:
 1989              		.loc 1 203 0 discriminator 1
 1990 0086 1847     		bx	r3	@ indirect register sibling call
 1991              	.LVL216:
 1992              	.L264:
 1993              		.cfi_restore_state
 1994              		.loc 1 155 0 discriminator 1
 1995 0088 104B     		ldr	r3, .L267
 1996              	.LVL217:
 1997 008a 0093     		str	r3, [sp]
 1998 008c 1149     		ldr	r1, .L267+8
 1999              	.LVL218:
 2000 008e 144A     		ldr	r2, .L267+20
 2001              	.LVL219:
 2002 0090 0F48     		ldr	r0, .L267+4
 2003              	.LVL220:
 2004 0092 9B23     		movs	r3, #155
 2005 0094 FFF7FEFF 		bl	chprintf.constprop.2
 2006              	.LVL221:
 2007              	.LBB146:
 2008              	.LBB147:
 2009              		.loc 3 416 0 discriminator 1
 2010 0098 1148     		ldr	r0, .L267+20
 2011 009a FFF7FEFF 		bl	chSysHalt
 2012              	.LVL222:
 2013 009e BAE7     		b	.L250
 2014              	.LVL223:
 2015              	.L266:
 2016              	.LBE147:
 2017              	.LBE146:
 2018              		.loc 1 196 0
 2019 00a0 2846     		mov	r0, r5
 2020              		.loc 1 205 0
 2021 00a2 03B0     		add	sp, sp, #12
 2022              		.cfi_remember_state
 2023              		.cfi_def_cfa_offset 28
 2024              		@ sp needed
 2025 00a4 BDE8F043 		pop	{r4, r5, r6, r7, r8, r9, lr}
 2026              		.cfi_restore 14
 2027              		.cfi_restore 9
 2028              		.cfi_restore 8
 2029              		.cfi_restore 7
 2030              		.cfi_restore 6
 2031              		.cfi_restore 5
 2032              		.cfi_restore 4
 2033              		.cfi_def_cfa_offset 0
 2034              	.LVL224:
 2035              		.loc 1 196 0
 2036 00a8 FFF7FEBF 		b	netbuf_delete
 2037              	.LVL225:
 2038              	.L265:
 2039              		.cfi_restore_state
 2040              		.loc 1 156 0 discriminator 1
 2041 00ac 074B     		ldr	r3, .L267
 2042 00ae 0093     		str	r3, [sp]
 2043 00b0 0849     		ldr	r1, .L267+8
ARM GAS  C:\Users\jo\AppData\Local\Temp\ccCSMiNu.s 			page 37


 2044 00b2 0C4A     		ldr	r2, .L267+24
 2045 00b4 0648     		ldr	r0, .L267+4
 2046 00b6 9C23     		movs	r3, #156
 2047 00b8 FFF7FEFF 		bl	chprintf.constprop.2
 2048              	.LVL226:
 2049              	.LBB148:
 2050              	.LBB149:
 2051              		.loc 3 416 0 discriminator 1
 2052 00bc 0948     		ldr	r0, .L267+24
 2053 00be FFF7FEFF 		bl	chSysHalt
 2054              	.LVL227:
 2055 00c2 AAE7     		b	.L251
 2056              	.LVL228:
 2057              	.L249:
 2058              	.LBE149:
 2059              	.LBE148:
 2060              		.loc 1 205 0
 2061 00c4 03B0     		add	sp, sp, #12
 2062              		.cfi_def_cfa_offset 28
 2063              		@ sp needed
 2064 00c6 BDE8F083 		pop	{r4, r5, r6, r7, r8, r9, pc}
 2065              	.LVL229:
 2066              	.L268:
 2067 00ca 00BF     		.align	2
 2068              	.L267:
 2069 00cc 4C000000 		.word	.LC2
 2070 00d0 00000000 		.word	itm_port
 2071 00d4 00000000 		.word	.LC0
 2072 00d8 B4020000 		.word	.LC21
 2073 00dc 00000000 		.word	memp_sizes
 2074 00e0 70020000 		.word	.LC19
 2075 00e4 94020000 		.word	.LC20
 2076              		.cfi_endproc
 2077              	.LFE260:
 2078              		.size	recv_udp, .-recv_udp
 2079 00e8 AFF30080 		.section	.text.do_newconn,"ax",%progbits
 2079      AFF30080 
 2080              		.align	2
 2081              		.p2align 4,,15
 2082              		.global	do_newconn
 2083              		.thumb
 2084              		.thumb_func
 2085              		.type	do_newconn, %function
 2086              	do_newconn:
 2087              	.LFB268:
 2088              		.loc 1 549 0
 2089              		.cfi_startproc
 2090              		@ args = 0, pretend = 0, frame = 0
 2091              		@ frame_needed = 0, uses_anonymous_args = 0
 2092              	.LVL230:
 2093 0000 38B5     		push	{r3, r4, r5, lr}
 2094              		.cfi_def_cfa_offset 16
 2095              		.cfi_offset 3, -16
 2096              		.cfi_offset 4, -12
 2097              		.cfi_offset 5, -8
 2098              		.cfi_offset 14, -4
 2099              		.loc 1 550 0
ARM GAS  C:\Users\jo\AppData\Local\Temp\ccCSMiNu.s 			page 38


 2100 0002 0023     		movs	r3, #0
 2101              		.loc 1 551 0
 2102 0004 0468     		ldr	r4, [r0]
 2103              		.loc 1 550 0
 2104 0006 0371     		strb	r3, [r0, #4]
 2105              		.loc 1 551 0
 2106 0008 6368     		ldr	r3, [r4, #4]
 2107 000a 2BB1     		cbz	r3, .L280
 2108              	.LVL231:
 2109              	.L270:
 2110              		.loc 1 558 0
 2111 000c 04F10C00 		add	r0, r4, #12
 2112              		.loc 1 559 0
 2113 0010 BDE83840 		pop	{r3, r4, r5, lr}
 2114              		.cfi_remember_state
 2115              		.cfi_restore 14
 2116              		.cfi_restore 5
 2117              		.cfi_restore 4
 2118              		.cfi_restore 3
 2119              		.cfi_def_cfa_offset 0
 2120              		.loc 1 558 0
 2121 0014 FFF7FEBF 		b	sys_sem_signal
 2122              	.LVL232:
 2123              	.L280:
 2124              		.cfi_restore_state
 2125              	.LBB154:
 2126              	.LBB155:
 2127              		.loc 1 495 0
 2128 0018 2378     		ldrb	r3, [r4]	@ zero_extendqisi2
 2129 001a 03F0F003 		and	r3, r3, #240
 2130 001e 102B     		cmp	r3, #16
 2131 0020 0546     		mov	r5, r0
 2132 0022 17D0     		beq	.L272
 2133 0024 202B     		cmp	r3, #32
 2134 0026 12D1     		bne	.L277
 2135              		.loc 1 508 0
 2136 0028 FFF7FEFF 		bl	udp_new
 2137              	.LVL233:
 2138 002c 6060     		str	r0, [r4, #4]
 2139              		.loc 1 509 0
 2140 002e 2C68     		ldr	r4, [r5]
 2141 0030 6068     		ldr	r0, [r4, #4]
 2142 0032 D0B1     		cbz	r0, .L279
 2143              		.loc 1 518 0
 2144 0034 2378     		ldrb	r3, [r4]	@ zero_extendqisi2
 2145 0036 222B     		cmp	r3, #34
 2146 0038 03D1     		bne	.L275
 2147              		.loc 1 519 0
 2148 003a 0123     		movs	r3, #1
 2149 003c 0374     		strb	r3, [r0, #16]
 2150 003e 2C68     		ldr	r4, [r5]
 2151 0040 6068     		ldr	r0, [r4, #4]
 2152              	.L275:
 2153              		.loc 1 521 0
 2154 0042 0B49     		ldr	r1, .L281
 2155 0044 2246     		mov	r2, r4
 2156 0046 FFF7FEFF 		bl	udp_recv
ARM GAS  C:\Users\jo\AppData\Local\Temp\ccCSMiNu.s 			page 39


 2157              	.LVL234:
 2158 004a 2C68     		ldr	r4, [r5]
 2159 004c DEE7     		b	.L270
 2160              	.LVL235:
 2161              	.L277:
 2162              		.loc 1 536 0
 2163 004e FA23     		movs	r3, #250
 2164 0050 0371     		strb	r3, [r0, #4]
 2165 0052 DBE7     		b	.L270
 2166              	.L272:
 2167              		.loc 1 526 0
 2168 0054 FFF7FEFF 		bl	tcp_new
 2169              	.LVL236:
 2170 0058 6060     		str	r0, [r4, #4]
 2171              		.loc 1 527 0
 2172 005a 2C68     		ldr	r4, [r5]
 2173 005c 6368     		ldr	r3, [r4, #4]
 2174 005e 23B1     		cbz	r3, .L279
 2175              		.loc 1 531 0
 2176 0060 2046     		mov	r0, r4
 2177 0062 FFF7FEFF 		bl	setup_tcp
 2178              	.LVL237:
 2179 0066 2C68     		ldr	r4, [r5]
 2180 0068 D0E7     		b	.L270
 2181              	.L279:
 2182              		.loc 1 528 0
 2183 006a FF23     		movs	r3, #255
 2184 006c 2B71     		strb	r3, [r5, #4]
 2185 006e CDE7     		b	.L270
 2186              	.L282:
 2187              		.align	2
 2188              	.L281:
 2189 0070 00000000 		.word	recv_udp
 2190              	.LBE155:
 2191              	.LBE154:
 2192              		.cfi_endproc
 2193              	.LFE268:
 2194              		.size	do_newconn, .-do_newconn
 2195 0074 AFF30080 		.section	.text.netconn_alloc,"ax",%progbits
 2195      AFF30080 
 2195      AFF30080 
 2196              		.align	2
 2197              		.p2align 4,,15
 2198              		.global	netconn_alloc
 2199              		.thumb
 2200              		.thumb_func
 2201              		.type	netconn_alloc, %function
 2202              	netconn_alloc:
 2203              	.LFB269:
 2204              		.loc 1 573 0
 2205              		.cfi_startproc
 2206              		@ args = 0, pretend = 0, frame = 0
 2207              		@ frame_needed = 0, uses_anonymous_args = 0
 2208              	.LVL238:
 2209 0000 F0B5     		push	{r4, r5, r6, r7, lr}
 2210              		.cfi_def_cfa_offset 20
 2211              		.cfi_offset 4, -20
ARM GAS  C:\Users\jo\AppData\Local\Temp\ccCSMiNu.s 			page 40


 2212              		.cfi_offset 5, -16
 2213              		.cfi_offset 6, -12
 2214              		.cfi_offset 7, -8
 2215              		.cfi_offset 14, -4
 2216              		.loc 1 577 0
 2217 0002 244B     		ldr	r3, .L297
 2218              		.loc 1 573 0
 2219 0004 83B0     		sub	sp, sp, #12
 2220              		.cfi_def_cfa_offset 32
 2221              		.loc 1 573 0
 2222 0006 0546     		mov	r5, r0
 2223              		.loc 1 577 0
 2224 0008 D889     		ldrh	r0, [r3, #14]
 2225              	.LVL239:
 2226              		.loc 1 573 0
 2227 000a 0E46     		mov	r6, r1
 2228              		.loc 1 577 0
 2229 000c FFF7FEFF 		bl	malloc
 2230              	.LVL240:
 2231              		.loc 1 578 0
 2232 0010 0446     		mov	r4, r0
 2233 0012 28B3     		cbz	r0, .L284
 2234              		.loc 1 590 0
 2235 0014 05F0F002 		and	r2, r5, #240
 2236              		.loc 1 582 0
 2237 0018 0023     		movs	r3, #0
 2238              		.loc 1 590 0
 2239 001a 102A     		cmp	r2, #16
 2240              		.loc 1 583 0
 2241 001c 0570     		strb	r5, [r0]
 2242              		.loc 1 582 0
 2243 001e 0372     		strb	r3, [r0, #8]
 2244              		.loc 1 584 0
 2245 0020 4360     		str	r3, [r0, #4]
 2246              		.loc 1 590 0
 2247 0022 31D0     		beq	.L286
 2248 0024 202A     		cmp	r2, #32
 2249 0026 1DD1     		bne	.L295
 2250              		.loc 1 598 0
 2251 0028 0425     		movs	r5, #4
 2252              	.L287:
 2253              	.LVL241:
 2254              		.loc 1 612 0
 2255 002a 04F10C07 		add	r7, r4, #12
 2256 002e 3846     		mov	r0, r7
 2257              	.LVL242:
 2258 0030 0021     		movs	r1, #0
 2259 0032 FFF7FEFF 		bl	sys_sem_new
 2260              	.LVL243:
 2261 0036 08BB     		cbnz	r0, .L288
 2262              		.loc 1 615 0
 2263 0038 2946     		mov	r1, r5
 2264 003a 04F11000 		add	r0, r4, #16
 2265 003e FFF7FEFF 		bl	sys_mbox_new
 2266              	.LVL244:
 2267 0042 0546     		mov	r5, r0
 2268              	.LVL245:
ARM GAS  C:\Users\jo\AppData\Local\Temp\ccCSMiNu.s 			page 41


 2269 0044 10BB     		cbnz	r0, .L296
 2270              		.loc 1 621 0
 2271 0046 04F11400 		add	r0, r4, #20
 2272 004a FFF7FEFF 		bl	sys_mbox_set_invalid
 2273              	.LVL246:
 2274              		.loc 1 626 0
 2275 004e 4FF0FF33 		mov	r3, #-1
 2276              		.loc 1 623 0
 2277 0052 6570     		strb	r5, [r4, #1]
 2278              		.loc 1 628 0
 2279 0054 A662     		str	r6, [r4, #40]
 2280              		.loc 1 630 0
 2281 0056 6562     		str	r5, [r4, #36]
 2282              		.loc 1 631 0
 2283 0058 2562     		str	r5, [r4, #32]
 2284              		.loc 1 643 0
 2285 005a 2577     		strb	r5, [r4, #28]
 2286              		.loc 1 626 0
 2287 005c A361     		str	r3, [r4, #24]
 2288              		.loc 1 644 0
 2289 005e 2046     		mov	r0, r4
 2290              	.LVL247:
 2291              	.L284:
 2292              		.loc 1 648 0
 2293 0060 03B0     		add	sp, sp, #12
 2294              		.cfi_remember_state
 2295              		.cfi_def_cfa_offset 20
 2296              		@ sp needed
 2297 0062 F0BD     		pop	{r4, r5, r6, r7, pc}
 2298              	.LVL248:
 2299              	.L295:
 2300              		.cfi_restore_state
 2301              		.loc 1 607 0 discriminator 1
 2302 0064 0C4B     		ldr	r3, .L297+4
 2303 0066 0093     		str	r3, [sp]
 2304 0068 0C48     		ldr	r0, .L297+8
 2305              	.LVL249:
 2306 006a 0D49     		ldr	r1, .L297+12
 2307 006c 0D4A     		ldr	r2, .L297+16
 2308 006e 40F25F23 		movw	r3, #607
 2309 0072 FFF7FEFF 		bl	chprintf.constprop.2
 2310              	.LVL250:
 2311              	.LBB156:
 2312              	.LBB157:
 2313              		.loc 3 416 0 discriminator 1
 2314 0076 0B48     		ldr	r0, .L297+16
 2315 0078 FFF7FEFF 		bl	chSysHalt
 2316              	.LVL251:
 2317              	.L288:
 2318              	.LBE157:
 2319              	.LBE156:
 2320              		.loc 1 646 0
 2321 007c 2046     		mov	r0, r4
 2322 007e FFF7FEFF 		bl	free
 2323              	.LVL252:
 2324              		.loc 1 647 0
 2325 0082 0020     		movs	r0, #0
ARM GAS  C:\Users\jo\AppData\Local\Temp\ccCSMiNu.s 			page 42


 2326              		.loc 1 648 0
 2327 0084 03B0     		add	sp, sp, #12
 2328              		.cfi_remember_state
 2329              		.cfi_def_cfa_offset 20
 2330              		@ sp needed
 2331 0086 F0BD     		pop	{r4, r5, r6, r7, pc}
 2332              	.LVL253:
 2333              	.L286:
 2334              		.cfi_restore_state
 2335              		.loc 1 603 0
 2336 0088 2825     		movs	r5, #40
 2337 008a CEE7     		b	.L287
 2338              	.LVL254:
 2339              	.L296:
 2340              		.loc 1 616 0
 2341 008c 3846     		mov	r0, r7
 2342 008e FFF7FEFF 		bl	sys_sem_free
 2343              	.LVL255:
 2344              		.loc 1 617 0
 2345 0092 F3E7     		b	.L288
 2346              	.L298:
 2347              		.align	2
 2348              	.L297:
 2349 0094 00000000 		.word	memp_sizes
 2350 0098 4C000000 		.word	.LC2
 2351 009c 00000000 		.word	itm_port
 2352 00a0 00000000 		.word	.LC0
 2353 00a4 D4020000 		.word	.LC22
 2354              		.cfi_endproc
 2355              	.LFE269:
 2356              		.size	netconn_alloc, .-netconn_alloc
 2357 00a8 AFF30080 		.section	.text.netconn_free,"ax",%progbits
 2357      AFF30080 
 2358              		.align	2
 2359              		.p2align 4,,15
 2360              		.global	netconn_free
 2361              		.thumb
 2362              		.thumb_func
 2363              		.type	netconn_free, %function
 2364              	netconn_free:
 2365              	.LFB270:
 2366              		.loc 1 658 0
 2367              		.cfi_startproc
 2368              		@ args = 0, pretend = 0, frame = 0
 2369              		@ frame_needed = 0, uses_anonymous_args = 0
 2370              	.LVL256:
 2371 0000 30B5     		push	{r4, r5, lr}
 2372              		.cfi_def_cfa_offset 12
 2373              		.cfi_offset 4, -12
 2374              		.cfi_offset 5, -8
 2375              		.cfi_offset 14, -4
 2376              		.loc 1 659 0
 2377 0002 4368     		ldr	r3, [r0, #4]
 2378              		.loc 1 658 0
 2379 0004 83B0     		sub	sp, sp, #12
 2380              		.cfi_def_cfa_offset 24
 2381              		.loc 1 658 0
ARM GAS  C:\Users\jo\AppData\Local\Temp\ccCSMiNu.s 			page 43


 2382 0006 0446     		mov	r4, r0
 2383              		.loc 1 659 0
 2384 0008 5BB1     		cbz	r3, .L300
 2385              		.loc 1 659 0 is_stmt 0 discriminator 1
 2386 000a 1E4B     		ldr	r3, .L314
 2387 000c 0093     		str	r3, [sp]
 2388 000e 1E48     		ldr	r0, .L314+4
 2389              	.LVL257:
 2390 0010 1E49     		ldr	r1, .L314+8
 2391 0012 1F4A     		ldr	r2, .L314+12
 2392 0014 40F29323 		movw	r3, #659
 2393 0018 FFF7FEFF 		bl	chprintf.constprop.2
 2394              	.LVL258:
 2395              	.LBB158:
 2396              	.LBB159:
 2397              		.loc 3 416 0 is_stmt 1 discriminator 1
 2398 001c 1C48     		ldr	r0, .L314+12
 2399 001e FFF7FEFF 		bl	chSysHalt
 2400              	.LVL259:
 2401              	.L300:
 2402              	.LBE159:
 2403              	.LBE158:
 2404              		.loc 1 660 0
 2405 0022 04F11000 		add	r0, r4, #16
 2406 0026 FFF7FEFF 		bl	sys_mbox_valid
 2407              	.LVL260:
 2408 002a F0B9     		cbnz	r0, .L313
 2409              	.L301:
 2410              		.loc 1 663 0
 2411 002c 04F11400 		add	r0, r4, #20
 2412 0030 FFF7FEFF 		bl	sys_mbox_valid
 2413              	.LVL261:
 2414 0034 58B1     		cbz	r0, .L302
 2415              		.loc 1 663 0 is_stmt 0 discriminator 1
 2416 0036 134B     		ldr	r3, .L314
 2417 0038 0093     		str	r3, [sp]
 2418 003a 1348     		ldr	r0, .L314+4
 2419 003c 1349     		ldr	r1, .L314+8
 2420 003e 154A     		ldr	r2, .L314+16
 2421 0040 4FF42673 		mov	r3, #664
 2422 0044 FFF7FEFF 		bl	chprintf.constprop.2
 2423              	.LVL262:
 2424              	.LBB160:
 2425              	.LBB161:
 2426              		.loc 3 416 0 is_stmt 1 discriminator 1
 2427 0048 1248     		ldr	r0, .L314+16
 2428 004a FFF7FEFF 		bl	chSysHalt
 2429              	.LVL263:
 2430              	.L302:
 2431              	.LBE161:
 2432              	.LBE160:
 2433              		.loc 1 667 0
 2434 004e 04F10C05 		add	r5, r4, #12
 2435 0052 2846     		mov	r0, r5
 2436 0054 FFF7FEFF 		bl	sys_sem_free
 2437              	.LVL264:
 2438              		.loc 1 668 0
ARM GAS  C:\Users\jo\AppData\Local\Temp\ccCSMiNu.s 			page 44


 2439 0058 2846     		mov	r0, r5
 2440 005a FFF7FEFF 		bl	sys_sem_set_invalid
 2441              	.LVL265:
 2442              		.loc 1 670 0
 2443 005e 2046     		mov	r0, r4
 2444              		.loc 1 671 0
 2445 0060 03B0     		add	sp, sp, #12
 2446              		.cfi_remember_state
 2447              		.cfi_def_cfa_offset 12
 2448              		@ sp needed
 2449 0062 BDE83040 		pop	{r4, r5, lr}
 2450              		.cfi_restore 14
 2451              		.cfi_restore 5
 2452              		.cfi_restore 4
 2453              		.cfi_def_cfa_offset 0
 2454              	.LVL266:
 2455              		.loc 1 670 0
 2456 0066 FFF7FEBF 		b	free
 2457              	.LVL267:
 2458              	.L313:
 2459              		.cfi_restore_state
 2460              		.loc 1 660 0 discriminator 1
 2461 006a 064B     		ldr	r3, .L314
 2462 006c 0093     		str	r3, [sp]
 2463 006e 0749     		ldr	r1, .L314+8
 2464 0070 094A     		ldr	r2, .L314+20
 2465 0072 0548     		ldr	r0, .L314+4
 2466 0074 40F29523 		movw	r3, #661
 2467 0078 FFF7FEFF 		bl	chprintf.constprop.2
 2468              	.LVL268:
 2469              	.LBB162:
 2470              	.LBB163:
 2471              		.loc 3 416 0 discriminator 1
 2472 007c 0648     		ldr	r0, .L314+20
 2473 007e FFF7FEFF 		bl	chSysHalt
 2474              	.LVL269:
 2475 0082 D3E7     		b	.L301
 2476              	.L315:
 2477              		.align	2
 2478              	.L314:
 2479 0084 4C000000 		.word	.LC2
 2480 0088 00000000 		.word	itm_port
 2481 008c 00000000 		.word	.LC0
 2482 0090 FC020000 		.word	.LC23
 2483 0094 68030000 		.word	.LC25
 2484 0098 2C030000 		.word	.LC24
 2485              	.LBE163:
 2486              	.LBE162:
 2487              		.cfi_endproc
 2488              	.LFE270:
 2489              		.size	netconn_free, .-netconn_free
 2490 009c AFF30080 		.section	.text.netconn_drain,"ax",%progbits
 2491              		.align	2
 2492              		.p2align 4,,15
 2493              		.thumb
 2494              		.thumb_func
 2495              		.type	netconn_drain, %function
ARM GAS  C:\Users\jo\AppData\Local\Temp\ccCSMiNu.s 			page 45


 2496              	netconn_drain:
 2497              	.LFB271:
 2498              		.loc 1 683 0
 2499              		.cfi_startproc
 2500              		@ args = 0, pretend = 0, frame = 8
 2501              		@ frame_needed = 0, uses_anonymous_args = 0
 2502              	.LVL270:
 2503 0000 2DE9F043 		push	{r4, r5, r6, r7, r8, r9, lr}
 2504              		.cfi_def_cfa_offset 28
 2505              		.cfi_offset 4, -28
 2506              		.cfi_offset 5, -24
 2507              		.cfi_offset 6, -20
 2508              		.cfi_offset 7, -16
 2509              		.cfi_offset 8, -12
 2510              		.cfi_offset 9, -8
 2511              		.cfi_offset 14, -4
 2512              		.loc 1 692 0
 2513 0004 00F11004 		add	r4, r0, #16
 2514              		.loc 1 683 0
 2515 0008 85B0     		sub	sp, sp, #20
 2516              		.cfi_def_cfa_offset 48
 2517              		.loc 1 683 0
 2518 000a 0646     		mov	r6, r0
 2519              		.loc 1 692 0
 2520 000c 2046     		mov	r0, r4
 2521              	.LVL271:
 2522 000e FFF7FEFF 		bl	sys_mbox_valid
 2523              	.LVL272:
 2524 0012 08B3     		cbz	r0, .L318
 2525 0014 03AF     		add	r7, sp, #12
 2526              	.L317:
 2527              		.loc 1 693 0
 2528 0016 2046     		mov	r0, r4
 2529 0018 3946     		mov	r1, r7
 2530 001a FFF7FEFF 		bl	sys_arch_mbox_tryfetch
 2531              	.LVL273:
 2532 001e 0130     		adds	r0, r0, #1
 2533 0020 14D0     		beq	.L346
 2534              	.L322:
 2535              		.loc 1 695 0
 2536 0022 3378     		ldrb	r3, [r6]	@ zero_extendqisi2
 2537 0024 102B     		cmp	r3, #16
 2538 0026 4ED1     		bne	.L319
 2539              		.loc 1 696 0
 2540 0028 039D     		ldr	r5, [sp, #12]
 2541              	.LVL274:
 2542 002a 002D     		cmp	r5, #0
 2543 002c F3D0     		beq	.L317
 2544              		.loc 1 699 0
 2545 002e 7368     		ldr	r3, [r6, #4]
 2546              		.loc 1 700 0
 2547 0030 1846     		mov	r0, r3
 2548              		.loc 1 699 0
 2549 0032 13B1     		cbz	r3, .L321
 2550              		.loc 1 700 0
 2551 0034 2989     		ldrh	r1, [r5, #8]
 2552 0036 FFF7FEFF 		bl	tcp_recved
ARM GAS  C:\Users\jo\AppData\Local\Temp\ccCSMiNu.s 			page 46


 2553              	.LVL275:
 2554              	.L321:
 2555              		.loc 1 702 0
 2556 003a 2846     		mov	r0, r5
 2557 003c FFF7FEFF 		bl	pbuf_free
 2558              	.LVL276:
 2559              		.loc 1 693 0
 2560 0040 2046     		mov	r0, r4
 2561 0042 3946     		mov	r1, r7
 2562 0044 FFF7FEFF 		bl	sys_arch_mbox_tryfetch
 2563              	.LVL277:
 2564 0048 0130     		adds	r0, r0, #1
 2565 004a EAD1     		bne	.L322
 2566              	.LVL278:
 2567              	.L346:
 2568              		.loc 1 710 0
 2569 004c 2046     		mov	r0, r4
 2570 004e FFF7FEFF 		bl	sys_mbox_free
 2571              	.LVL279:
 2572              		.loc 1 711 0
 2573 0052 2046     		mov	r0, r4
 2574 0054 FFF7FEFF 		bl	sys_mbox_set_invalid
 2575              	.LVL280:
 2576              	.L318:
 2577              		.loc 1 716 0
 2578 0058 06F11408 		add	r8, r6, #20
 2579 005c 4046     		mov	r0, r8
 2580 005e FFF7FEFF 		bl	sys_mbox_valid
 2581              	.LVL281:
 2582 0062 68B3     		cbz	r0, .L316
 2583 0064 03AF     		add	r7, sp, #12
 2584              	.LBB164:
 2585              		.loc 1 722 0
 2586 0066 DFF87490 		ldr	r9, .L347+12
 2587 006a 1DE0     		b	.L323
 2588              	.L327:
 2589              		.loc 1 721 0
 2590 006c 7568     		ldr	r5, [r6, #4]
 2591              		.loc 1 722 0
 2592 006e 1849     		ldr	r1, .L347
 2593 0070 184A     		ldr	r2, .L347+4
 2594 0072 1948     		ldr	r0, .L347+8
 2595              		.loc 1 718 0
 2596 0074 039C     		ldr	r4, [sp, #12]
 2597              	.LVL282:
 2598              		.loc 1 722 0
 2599 0076 40F2D223 		movw	r3, #722
 2600              		.loc 1 721 0
 2601 007a 4DB1     		cbz	r5, .L325
 2602              		.loc 1 722 0
 2603 007c 2D7E     		ldrb	r5, [r5, #24]	@ zero_extendqisi2
 2604 007e 012D     		cmp	r5, #1
 2605 0080 06D0     		beq	.L325
 2606              		.loc 1 722 0 is_stmt 0 discriminator 1
 2607 0082 CDF80090 		str	r9, [sp]
 2608 0086 FFF7FEFF 		bl	chprintf.constprop.2
 2609              	.LVL283:
ARM GAS  C:\Users\jo\AppData\Local\Temp\ccCSMiNu.s 			page 47


 2610              	.LBB165:
 2611              	.LBB166:
 2612              		.loc 3 416 0 is_stmt 1 discriminator 1
 2613 008a 1248     		ldr	r0, .L347+4
 2614 008c FFF7FEFF 		bl	chSysHalt
 2615              	.LVL284:
 2616              	.L325:
 2617              	.LBE166:
 2618              	.LBE165:
 2619              		.loc 1 725 0
 2620 0090 2046     		mov	r0, r4
 2621 0092 FFF7B5FF 		bl	netconn_drain
 2622              	.LVL285:
 2623              		.loc 1 726 0
 2624 0096 6068     		ldr	r0, [r4, #4]
 2625 0098 18B1     		cbz	r0, .L326
 2626              		.loc 1 727 0
 2627 009a FFF7FEFF 		bl	tcp_abort
 2628              	.LVL286:
 2629              		.loc 1 728 0
 2630 009e 0023     		movs	r3, #0
 2631 00a0 6360     		str	r3, [r4, #4]
 2632              	.L326:
 2633              		.loc 1 730 0
 2634 00a2 2046     		mov	r0, r4
 2635 00a4 FFF7FEFF 		bl	netconn_free
 2636              	.LVL287:
 2637              	.L323:
 2638              	.LBE164:
 2639              		.loc 1 717 0
 2640 00a8 4046     		mov	r0, r8
 2641 00aa 3946     		mov	r1, r7
 2642 00ac FFF7FEFF 		bl	sys_arch_mbox_tryfetch
 2643              	.LVL288:
 2644 00b0 0130     		adds	r0, r0, #1
 2645 00b2 DBD1     		bne	.L327
 2646              		.loc 1 732 0
 2647 00b4 4046     		mov	r0, r8
 2648 00b6 FFF7FEFF 		bl	sys_mbox_free
 2649              	.LVL289:
 2650              		.loc 1 733 0
 2651 00ba 4046     		mov	r0, r8
 2652 00bc FFF7FEFF 		bl	sys_mbox_set_invalid
 2653              	.LVL290:
 2654              	.L316:
 2655              		.loc 1 736 0
 2656 00c0 05B0     		add	sp, sp, #20
 2657              		.cfi_remember_state
 2658              		.cfi_def_cfa_offset 28
 2659              		@ sp needed
 2660 00c2 BDE8F083 		pop	{r4, r5, r6, r7, r8, r9, pc}
 2661              	.LVL291:
 2662              	.L319:
 2663              		.cfi_restore_state
 2664              		.loc 1 707 0
 2665 00c6 0398     		ldr	r0, [sp, #12]
 2666 00c8 FFF7FEFF 		bl	netbuf_delete
ARM GAS  C:\Users\jo\AppData\Local\Temp\ccCSMiNu.s 			page 48


 2667              	.LVL292:
 2668 00cc A3E7     		b	.L317
 2669              	.L348:
 2670 00ce 00BF     		.align	2
 2671              	.L347:
 2672 00d0 00000000 		.word	.LC0
 2673 00d4 A4030000 		.word	.LC26
 2674 00d8 00000000 		.word	itm_port
 2675 00dc 4C000000 		.word	.LC2
 2676              		.cfi_endproc
 2677              	.LFE271:
 2678              		.size	netconn_drain, .-netconn_drain
 2679              		.section	.text.accept_function,"ax",%progbits
 2680              		.align	2
 2681              		.p2align 4,,15
 2682              		.thumb
 2683              		.thumb_func
 2684              		.type	accept_function, %function
 2685              	accept_function:
 2686              	.LFB266:
 2687              		.loc 1 433 0
 2688              		.cfi_startproc
 2689              		@ args = 0, pretend = 0, frame = 0
 2690              		@ frame_needed = 0, uses_anonymous_args = 0
 2691              	.LVL293:
 2692 0000 2DE9F041 		push	{r4, r5, r6, r7, r8, lr}
 2693              		.cfi_def_cfa_offset 24
 2694              		.cfi_offset 4, -24
 2695              		.cfi_offset 5, -20
 2696              		.cfi_offset 6, -16
 2697              		.cfi_offset 7, -12
 2698              		.cfi_offset 8, -8
 2699              		.cfi_offset 14, -4
 2700              		.loc 1 439 0
 2701 0004 00F11405 		add	r5, r0, #20
 2702              		.loc 1 433 0
 2703 0008 0446     		mov	r4, r0
 2704              	.LVL294:
 2705              		.loc 1 439 0
 2706 000a 2846     		mov	r0, r5
 2707              	.LVL295:
 2708              		.loc 1 433 0
 2709 000c 8846     		mov	r8, r1
 2710 000e 1746     		mov	r7, r2
 2711              		.loc 1 439 0
 2712 0010 FFF7FEFF 		bl	sys_mbox_valid
 2713              	.LVL296:
 2714 0014 C8B1     		cbz	r0, .L352
 2715              		.loc 1 446 0
 2716 0016 2078     		ldrb	r0, [r4]	@ zero_extendqisi2
 2717 0018 A16A     		ldr	r1, [r4, #40]
 2718 001a FFF7FEFF 		bl	netconn_alloc
 2719              	.LVL297:
 2720              		.loc 1 447 0
 2721 001e 0646     		mov	r6, r0
 2722 0020 A8B1     		cbz	r0, .L353
 2723              		.loc 1 450 0
ARM GAS  C:\Users\jo\AppData\Local\Temp\ccCSMiNu.s 			page 49


 2724 0022 C0F80480 		str	r8, [r0, #4]
 2725              		.loc 1 451 0
 2726 0026 FFF7FEFF 		bl	setup_tcp
 2727              	.LVL298:
 2728              		.loc 1 456 0
 2729 002a 2846     		mov	r0, r5
 2730              		.loc 1 454 0
 2731 002c 3772     		strb	r7, [r6, #8]
 2732              		.loc 1 456 0
 2733 002e 3146     		mov	r1, r6
 2734 0030 FFF7FEFF 		bl	sys_mbox_trypost
 2735              	.LVL299:
 2736 0034 0546     		mov	r5, r0
 2737 0036 60B9     		cbnz	r0, .L358
 2738              		.loc 1 475 0
 2739 0038 A36A     		ldr	r3, [r4, #40]
 2740 003a 1BB1     		cbz	r3, .L350
 2741              		.loc 1 475 0 is_stmt 0 discriminator 1
 2742 003c 2046     		mov	r0, r4
 2743 003e 2946     		mov	r1, r5
 2744 0040 2A46     		mov	r2, r5
 2745 0042 9847     		blx	r3
 2746              	.LVL300:
 2747              	.L350:
 2748              		.loc 1 479 0 is_stmt 1
 2749 0044 68B2     		sxtb	r0, r5
 2750 0046 BDE8F081 		pop	{r4, r5, r6, r7, r8, pc}
 2751              	.LVL301:
 2752              	.L352:
 2753              		.loc 1 441 0
 2754 004a FA25     		movs	r5, #250
 2755 004c FAE7     		b	.L350
 2756              	.LVL302:
 2757              	.L353:
 2758              		.loc 1 448 0
 2759 004e FF25     		movs	r5, #255
 2760 0050 F8E7     		b	.L350
 2761              	.LVL303:
 2762              	.L358:
 2763              	.LBB167:
 2764              		.loc 1 460 0
 2765 0052 7468     		ldr	r4, [r6, #4]
 2766              	.LVL304:
 2767              		.loc 1 461 0
 2768 0054 0021     		movs	r1, #0
 2769 0056 2046     		mov	r0, r4
 2770 0058 FFF7FEFF 		bl	tcp_arg
 2771              	.LVL305:
 2772              		.loc 1 462 0
 2773 005c 2046     		mov	r0, r4
 2774 005e 0021     		movs	r1, #0
 2775 0060 FFF7FEFF 		bl	tcp_recv
 2776              	.LVL306:
 2777              		.loc 1 463 0
 2778 0064 2046     		mov	r0, r4
 2779 0066 0021     		movs	r1, #0
 2780 0068 FFF7FEFF 		bl	tcp_sent
ARM GAS  C:\Users\jo\AppData\Local\Temp\ccCSMiNu.s 			page 50


 2781              	.LVL307:
 2782              		.loc 1 464 0
 2783 006c 0422     		movs	r2, #4
 2784 006e 2046     		mov	r0, r4
 2785 0070 0021     		movs	r1, #0
 2786 0072 FFF7FEFF 		bl	tcp_poll
 2787              	.LVL308:
 2788              		.loc 1 465 0
 2789 0076 0021     		movs	r1, #0
 2790 0078 2046     		mov	r0, r4
 2791 007a FFF7FEFF 		bl	tcp_err
 2792              	.LVL309:
 2793              		.loc 1 469 0
 2794 007e 06F11004 		add	r4, r6, #16
 2795              	.LVL310:
 2796              		.loc 1 467 0
 2797 0082 0023     		movs	r3, #0
 2798 0084 7360     		str	r3, [r6, #4]
 2799              		.loc 1 469 0
 2800 0086 2046     		mov	r0, r4
 2801 0088 FFF7FEFF 		bl	sys_mbox_free
 2802              	.LVL311:
 2803              		.loc 1 470 0
 2804 008c 2046     		mov	r0, r4
 2805 008e FFF7FEFF 		bl	sys_mbox_set_invalid
 2806              	.LVL312:
 2807              		.loc 1 471 0
 2808 0092 3046     		mov	r0, r6
 2809 0094 FFF7FEFF 		bl	netconn_free
 2810              	.LVL313:
 2811              		.loc 1 472 0
 2812 0098 FF25     		movs	r5, #255
 2813 009a D3E7     		b	.L350
 2814              	.LBE167:
 2815              		.cfi_endproc
 2816              	.LFE266:
 2817              		.size	accept_function, .-accept_function
 2818 009c AFF30080 		.section	.text.do_delconn,"ax",%progbits
 2819              		.align	2
 2820              		.p2align 4,,15
 2821              		.global	do_delconn
 2822              		.thumb
 2823              		.thumb_func
 2824              		.type	do_delconn, %function
 2825              	do_delconn:
 2826              	.LFB273:
 2827              		.loc 1 833 0
 2828              		.cfi_startproc
 2829              		@ args = 0, pretend = 0, frame = 0
 2830              		@ frame_needed = 0, uses_anonymous_args = 0
 2831              	.LVL314:
 2832 0000 30B5     		push	{r4, r5, lr}
 2833              		.cfi_def_cfa_offset 12
 2834              		.cfi_offset 4, -12
 2835              		.cfi_offset 5, -8
 2836              		.cfi_offset 14, -4
 2837              		.loc 1 835 0
ARM GAS  C:\Users\jo\AppData\Local\Temp\ccCSMiNu.s 			page 51


 2838 0002 0368     		ldr	r3, [r0]
 2839 0004 5A78     		ldrb	r2, [r3, #1]	@ zero_extendqisi2
 2840 0006 12F0FD0F 		tst	r2, #253
 2841              		.loc 1 833 0
 2842 000a 83B0     		sub	sp, sp, #12
 2843              		.cfi_def_cfa_offset 24
 2844              		.loc 1 833 0
 2845 000c 0446     		mov	r4, r0
 2846              		.loc 1 835 0
 2847 000e 2BD0     		beq	.L360
 2848              		.loc 1 836 0
 2849 0010 032A     		cmp	r2, #3
 2850 0012 19D0     		beq	.L361
 2851              		.loc 1 839 0
 2852 0014 1A78     		ldrb	r2, [r3]	@ zero_extendqisi2
 2853 0016 102A     		cmp	r2, #16
 2854 0018 0CD0     		beq	.L362
 2855              		.loc 1 839 0 is_stmt 0 discriminator 1
 2856 001a 3C4B     		ldr	r3, .L392
 2857 001c 0093     		str	r3, [sp]
 2858 001e 3C49     		ldr	r1, .L392+4
 2859 0020 3C4A     		ldr	r2, .L392+8
 2860 0022 3D48     		ldr	r0, .L392+12
 2861              	.LVL315:
 2862 0024 40F24733 		movw	r3, #839
 2863 0028 FFF7FEFF 		bl	chprintf.constprop.2
 2864              	.LVL316:
 2865              	.LBB168:
 2866              	.LBB169:
 2867              		.loc 3 416 0 is_stmt 1 discriminator 1
 2868 002c 3948     		ldr	r0, .L392+8
 2869 002e FFF7FEFF 		bl	chSysHalt
 2870              	.LVL317:
 2871 0032 2368     		ldr	r3, [r4]
 2872              	.LVL318:
 2873              	.L362:
 2874              	.LBE169:
 2875              	.LBE168:
 2876              		.loc 1 840 0
 2877 0034 FB22     		movs	r2, #251
 2878 0036 2271     		strb	r2, [r4, #4]
 2879              	.L363:
 2880              		.loc 1 885 0
 2881 0038 03F10C00 		add	r0, r3, #12
 2882 003c FFF7FEFF 		bl	sys_sem_valid
 2883              	.LVL319:
 2884 0040 0028     		cmp	r0, #0
 2885 0042 3DD1     		bne	.L390
 2886              	.L359:
 2887              		.loc 1 888 0
 2888 0044 03B0     		add	sp, sp, #12
 2889              		.cfi_remember_state
 2890              		.cfi_def_cfa_offset 12
 2891              		@ sp needed
 2892 0046 30BD     		pop	{r4, r5, pc}
 2893              	.LVL320:
 2894              	.L361:
ARM GAS  C:\Users\jo\AppData\Local\Temp\ccCSMiNu.s 			page 52


 2895              		.cfi_restore_state
 2896              		.loc 1 842 0 discriminator 1
 2897 0048 1A7F     		ldrb	r2, [r3, #28]	@ zero_extendqisi2
 2898 004a 5207     		lsls	r2, r2, #29
 2899 004c 0CD4     		bmi	.L360
 2900              		.loc 1 842 0 is_stmt 0 discriminator 2
 2901 004e 2F4B     		ldr	r3, .L392
 2902 0050 0093     		str	r3, [sp]
 2903 0052 2F49     		ldr	r1, .L392+4
 2904 0054 314A     		ldr	r2, .L392+16
 2905 0056 3048     		ldr	r0, .L392+12
 2906              	.LVL321:
 2907 0058 40F24B33 		movw	r3, #843
 2908 005c FFF7FEFF 		bl	chprintf.constprop.2
 2909              	.LVL322:
 2910              	.LBB170:
 2911              	.LBB171:
 2912              		.loc 3 416 0 is_stmt 1 discriminator 2
 2913 0060 2E48     		ldr	r0, .L392+16
 2914 0062 FFF7FEFF 		bl	chSysHalt
 2915              	.LVL323:
 2916 0066 2368     		ldr	r3, [r4]
 2917              	.LVL324:
 2918              	.L360:
 2919              	.LBE171:
 2920              	.LBE170:
 2921              		.loc 1 845 0
 2922 0068 1846     		mov	r0, r3
 2923 006a FFF7FEFF 		bl	netconn_drain
 2924              	.LVL325:
 2925              		.loc 1 847 0
 2926 006e 2368     		ldr	r3, [r4]
 2927 0070 5968     		ldr	r1, [r3, #4]
 2928 0072 79B1     		cbz	r1, .L364
 2929              		.loc 1 849 0
 2930 0074 1A78     		ldrb	r2, [r3]	@ zero_extendqisi2
 2931 0076 02F0F002 		and	r2, r2, #240
 2932 007a 102A     		cmp	r2, #16
 2933 007c 27D0     		beq	.L366
 2934 007e 202A     		cmp	r2, #32
 2935 0080 05D1     		bne	.L365
 2936              		.loc 1 857 0
 2937 0082 0022     		movs	r2, #0
 2938 0084 CA61     		str	r2, [r1, #28]
 2939              		.loc 1 858 0
 2940 0086 5868     		ldr	r0, [r3, #4]
 2941 0088 FFF7FEFF 		bl	udp_remove
 2942              	.LVL326:
 2943 008c 2368     		ldr	r3, [r4]
 2944              	.L365:
 2945              		.loc 1 876 0
 2946 008e 0022     		movs	r2, #0
 2947 0090 5A60     		str	r2, [r3, #4]
 2948 0092 2368     		ldr	r3, [r4]
 2949              	.L364:
 2950              		.loc 1 882 0
 2951 0094 9D6A     		ldr	r5, [r3, #40]
ARM GAS  C:\Users\jo\AppData\Local\Temp\ccCSMiNu.s 			page 53


 2952 0096 002D     		cmp	r5, #0
 2953 0098 CED0     		beq	.L363
 2954              		.loc 1 882 0 is_stmt 0 discriminator 1
 2955 009a 0021     		movs	r1, #0
 2956 009c 1846     		mov	r0, r3
 2957 009e 0A46     		mov	r2, r1
 2958 00a0 A847     		blx	r5
 2959              	.LVL327:
 2960              		.loc 1 883 0 is_stmt 1 discriminator 1
 2961 00a2 2368     		ldr	r3, [r4]
 2962 00a4 9D6A     		ldr	r5, [r3, #40]
 2963 00a6 002D     		cmp	r5, #0
 2964 00a8 C6D0     		beq	.L363
 2965 00aa 1846     		mov	r0, r3
 2966 00ac 0221     		movs	r1, #2
 2967 00ae 0022     		movs	r2, #0
 2968 00b0 A847     		blx	r5
 2969              	.LVL328:
 2970 00b2 2368     		ldr	r3, [r4]
 2971              		.loc 1 885 0 discriminator 1
 2972 00b4 03F10C00 		add	r0, r3, #12
 2973 00b8 FFF7FEFF 		bl	sys_sem_valid
 2974              	.LVL329:
 2975 00bc 0028     		cmp	r0, #0
 2976 00be C1D0     		beq	.L359
 2977              	.L390:
 2978              		.loc 1 886 0
 2979 00c0 2068     		ldr	r0, [r4]
 2980 00c2 0C30     		adds	r0, r0, #12
 2981              		.loc 1 888 0
 2982 00c4 03B0     		add	sp, sp, #12
 2983              		.cfi_remember_state
 2984              		.cfi_def_cfa_offset 12
 2985              		@ sp needed
 2986 00c6 BDE83040 		pop	{r4, r5, lr}
 2987              		.cfi_restore 14
 2988              		.cfi_restore 5
 2989              		.cfi_restore 4
 2990              		.cfi_def_cfa_offset 0
 2991              	.LVL330:
 2992              		.loc 1 886 0
 2993 00ca FFF7FEBF 		b	sys_sem_signal
 2994              	.LVL331:
 2995              	.L366:
 2996              		.cfi_restore_state
 2997              		.loc 1 863 0
 2998 00ce 5A6A     		ldr	r2, [r3, #36]
 2999 00d0 BAB1     		cbz	r2, .L391
 3000              	.L368:
 3001              		.loc 1 863 0 is_stmt 0 discriminator 3
 3002 00d2 0E4B     		ldr	r3, .L392
 3003 00d4 0093     		str	r3, [sp]
 3004 00d6 0E49     		ldr	r1, .L392+4
 3005 00d8 114A     		ldr	r2, .L392+20
 3006 00da 0F48     		ldr	r0, .L392+12
 3007 00dc 4FF45873 		mov	r3, #864
 3008 00e0 FFF7FEFF 		bl	chprintf.constprop.2
ARM GAS  C:\Users\jo\AppData\Local\Temp\ccCSMiNu.s 			page 54


 3009              	.LVL332:
 3010              	.LBB172:
 3011              	.LBB173:
 3012              		.loc 3 416 0 is_stmt 1 discriminator 3
 3013 00e4 0E48     		ldr	r0, .L392+20
 3014 00e6 FFF7FEFF 		bl	chSysHalt
 3015              	.LVL333:
 3016 00ea 2368     		ldr	r3, [r4]
 3017              	.LVL334:
 3018              	.L369:
 3019              	.LBE173:
 3020              	.LBE172:
 3021              		.loc 1 865 0
 3022 00ec 0421     		movs	r1, #4
 3023              		.loc 1 866 0
 3024 00ee 0322     		movs	r2, #3
 3025              		.loc 1 868 0
 3026 00f0 1846     		mov	r0, r3
 3027              		.loc 1 865 0
 3028 00f2 5970     		strb	r1, [r3, #1]
 3029              		.loc 1 866 0
 3030 00f4 2272     		strb	r2, [r4, #8]
 3031              		.loc 1 867 0
 3032 00f6 5C62     		str	r4, [r3, #36]
 3033              		.loc 1 888 0
 3034 00f8 03B0     		add	sp, sp, #12
 3035              		.cfi_remember_state
 3036              		.cfi_def_cfa_offset 12
 3037              		@ sp needed
 3038 00fa BDE83040 		pop	{r4, r5, lr}
 3039              		.cfi_restore 14
 3040              		.cfi_restore 5
 3041              		.cfi_restore 4
 3042              		.cfi_def_cfa_offset 0
 3043              	.LVL335:
 3044              		.loc 1 868 0
 3045 00fe FFF7FEBF 		b	do_close_internal
 3046              	.LVL336:
 3047              	.L391:
 3048              		.cfi_restore_state
 3049              		.loc 1 863 0 discriminator 2
 3050 0102 1A6A     		ldr	r2, [r3, #32]
 3051 0104 002A     		cmp	r2, #0
 3052 0106 E4D1     		bne	.L368
 3053 0108 F0E7     		b	.L369
 3054              	.L393:
 3055 010a 00BF     		.align	2
 3056              	.L392:
 3057 010c 4C000000 		.word	.LC2
 3058 0110 00000000 		.word	.LC0
 3059 0114 D4030000 		.word	.LC27
 3060 0118 00000000 		.word	itm_port
 3061 011c F4030000 		.word	.LC28
 3062 0120 14040000 		.word	.LC29
 3063              		.cfi_endproc
 3064              	.LFE273:
 3065              		.size	do_delconn, .-do_delconn
ARM GAS  C:\Users\jo\AppData\Local\Temp\ccCSMiNu.s 			page 55


 3066 0124 AFF30080 		.section	.text.do_bind,"ax",%progbits
 3066      AFF30080 
 3066      AFF30080 
 3067              		.align	2
 3068              		.p2align 4,,15
 3069              		.global	do_bind
 3070              		.thumb
 3071              		.thumb_func
 3072              		.type	do_bind, %function
 3073              	do_bind:
 3074              	.LFB274:
 3075              		.loc 1 899 0
 3076              		.cfi_startproc
 3077              		@ args = 0, pretend = 0, frame = 0
 3078              		@ frame_needed = 0, uses_anonymous_args = 0
 3079              	.LVL337:
 3080              		.loc 1 900 0
 3081 0000 0368     		ldr	r3, [r0]
 3082 0002 1A7A     		ldrb	r2, [r3, #8]	@ zero_extendqisi2
 3083 0004 51B2     		sxtb	r1, r2
 3084 0006 0931     		adds	r1, r1, #9
 3085 0008 19DB     		blt	.L404
 3086              		.loc 1 903 0
 3087 000a FA22     		movs	r2, #250
 3088 000c 0271     		strb	r2, [r0, #4]
 3089              		.loc 1 904 0
 3090 000e 5968     		ldr	r1, [r3, #4]
 3091 0010 B1B1     		cbz	r1, .L403
 3092              		.loc 1 905 0
 3093 0012 1A78     		ldrb	r2, [r3]	@ zero_extendqisi2
 3094 0014 02F0F002 		and	r2, r2, #240
 3095 0018 102A     		cmp	r2, #16
 3096              		.loc 1 899 0
 3097 001a 10B5     		push	{r4, lr}
 3098              		.cfi_def_cfa_offset 8
 3099              		.cfi_offset 4, -8
 3100              		.cfi_offset 14, -4
 3101 001c 0446     		mov	r4, r0
 3102              		.loc 1 905 0
 3103 001e 13D0     		beq	.L397
 3104 0020 202A     		cmp	r2, #32
 3105 0022 06D1     		bne	.L396
 3106              		.loc 1 913 0
 3107 0024 0846     		mov	r0, r1
 3108              	.LVL338:
 3109 0026 A289     		ldrh	r2, [r4, #12]
 3110 0028 A168     		ldr	r1, [r4, #8]
 3111 002a FFF7FEFF 		bl	udp_bind
 3112              	.LVL339:
 3113 002e 2368     		ldr	r3, [r4]
 3114 0030 2071     		strb	r0, [r4, #4]
 3115              	.L396:
 3116              		.loc 1 926 0
 3117 0032 03F10C00 		add	r0, r3, #12
 3118              		.loc 1 927 0
 3119 0036 BDE81040 		pop	{r4, lr}
 3120              		.cfi_restore 14
ARM GAS  C:\Users\jo\AppData\Local\Temp\ccCSMiNu.s 			page 56


 3121              		.cfi_restore 4
 3122              		.cfi_def_cfa_offset 0
 3123              	.LVL340:
 3124              		.loc 1 926 0
 3125 003a FFF7FEBF 		b	sys_sem_signal
 3126              	.LVL341:
 3127              	.L404:
 3128              		.loc 1 901 0
 3129 003e 0271     		strb	r2, [r0, #4]
 3130              	.L403:
 3131              		.loc 1 926 0
 3132 0040 03F10C00 		add	r0, r3, #12
 3133              	.LVL342:
 3134 0044 FFF7FEBF 		b	sys_sem_signal
 3135              	.LVL343:
 3136              	.L397:
 3137              		.cfi_def_cfa_offset 8
 3138              		.cfi_offset 4, -8
 3139              		.cfi_offset 14, -4
 3140              		.loc 1 918 0
 3141 0048 0846     		mov	r0, r1
 3142              	.LVL344:
 3143 004a A289     		ldrh	r2, [r4, #12]
 3144 004c A168     		ldr	r1, [r4, #8]
 3145 004e FFF7FEFF 		bl	tcp_bind
 3146              	.LVL345:
 3147 0052 2368     		ldr	r3, [r4]
 3148 0054 2071     		strb	r0, [r4, #4]
 3149              		.loc 1 927 0
 3150 0056 BDE81040 		pop	{r4, lr}
 3151              		.cfi_restore 4
 3152              		.cfi_restore 14
 3153              		.cfi_def_cfa_offset 0
 3154              	.LVL346:
 3155              		.loc 1 926 0
 3156 005a 03F10C00 		add	r0, r3, #12
 3157 005e FFF7FEBF 		b	sys_sem_signal
 3158              	.LVL347:
 3159              		.cfi_endproc
 3160              	.LFE274:
 3161              		.size	do_bind, .-do_bind
 3162 0062 00BFAFF3 		.section	.text.do_connect,"ax",%progbits
 3162      0080AFF3 
 3162      0080AFF3 
 3162      0080
 3163              		.align	2
 3164              		.p2align 4,,15
 3165              		.global	do_connect
 3166              		.thumb
 3167              		.thumb_func
 3168              		.type	do_connect, %function
 3169              	do_connect:
 3170              	.LFB276:
 3171              		.loc 1 985 0
 3172              		.cfi_startproc
 3173              		@ args = 0, pretend = 0, frame = 0
 3174              		@ frame_needed = 0, uses_anonymous_args = 0
ARM GAS  C:\Users\jo\AppData\Local\Temp\ccCSMiNu.s 			page 57


 3175              	.LVL348:
 3176              		.loc 1 986 0
 3177 0000 0368     		ldr	r3, [r0]
 3178 0002 5968     		ldr	r1, [r3, #4]
 3179 0004 0029     		cmp	r1, #0
 3180 0006 38D0     		beq	.L418
 3181              		.loc 1 985 0
 3182 0008 10B5     		push	{r4, lr}
 3183              		.cfi_def_cfa_offset 8
 3184              		.cfi_offset 4, -8
 3185              		.cfi_offset 14, -4
 3186              		.loc 1 990 0
 3187 000a 1A78     		ldrb	r2, [r3]	@ zero_extendqisi2
 3188 000c 02F0F002 		and	r2, r2, #240
 3189 0010 102A     		cmp	r2, #16
 3190              		.loc 1 985 0
 3191 0012 82B0     		sub	sp, sp, #8
 3192              		.cfi_def_cfa_offset 16
 3193 0014 0446     		mov	r4, r0
 3194              		.loc 1 990 0
 3195 0016 25D0     		beq	.L409
 3196 0018 202A     		cmp	r2, #32
 3197 001a 15D0     		beq	.L419
 3198              		.loc 1 1027 0 discriminator 1
 3199 001c 2B4B     		ldr	r3, .L421
 3200 001e 2C4A     		ldr	r2, .L421+4
 3201 0020 0093     		str	r3, [sp]
 3202 0022 2C49     		ldr	r1, .L421+8
 3203 0024 2C48     		ldr	r0, .L421+12
 3204              	.LVL349:
 3205 0026 40F20343 		movw	r3, #1027
 3206 002a FFF7FEFF 		bl	chprintf.constprop.2
 3207              	.LVL350:
 3208              	.LBB174:
 3209              	.LBB175:
 3210              		.loc 3 416 0 discriminator 1
 3211 002e 2848     		ldr	r0, .L421+4
 3212 0030 FFF7FEFF 		bl	chSysHalt
 3213              	.LVL351:
 3214              	.LBE175:
 3215              	.LBE174:
 3216              		.loc 1 1027 0 discriminator 1
 3217 0034 FA22     		movs	r2, #250
 3218 0036 2368     		ldr	r3, [r4]
 3219 0038 2271     		strb	r2, [r4, #4]
 3220              	.LVL352:
 3221              	.L407:
 3222              		.loc 1 1031 0
 3223 003a 03F10C00 		add	r0, r3, #12
 3224              		.loc 1 1032 0
 3225 003e 02B0     		add	sp, sp, #8
 3226              		.cfi_remember_state
 3227              		.cfi_def_cfa_offset 8
 3228              		@ sp needed
 3229 0040 BDE81040 		pop	{r4, lr}
 3230              		.cfi_restore 14
 3231              		.cfi_restore 4
ARM GAS  C:\Users\jo\AppData\Local\Temp\ccCSMiNu.s 			page 58


 3232              		.cfi_def_cfa_offset 0
 3233              	.LVL353:
 3234              		.loc 1 1031 0
 3235 0044 FFF7FEBF 		b	sys_sem_signal
 3236              	.LVL354:
 3237              	.L419:
 3238              		.cfi_restore_state
 3239              		.loc 1 998 0
 3240 0048 0846     		mov	r0, r1
 3241              	.LVL355:
 3242 004a A289     		ldrh	r2, [r4, #12]
 3243 004c A168     		ldr	r1, [r4, #8]
 3244 004e FFF7FEFF 		bl	udp_connect
 3245              	.LVL356:
 3246 0052 2368     		ldr	r3, [r4]
 3247 0054 2071     		strb	r0, [r4, #4]
 3248              		.loc 1 1031 0
 3249 0056 03F10C00 		add	r0, r3, #12
 3250              		.loc 1 1032 0
 3251 005a 02B0     		add	sp, sp, #8
 3252              		.cfi_remember_state
 3253              		.cfi_def_cfa_offset 8
 3254              		@ sp needed
 3255 005c BDE81040 		pop	{r4, lr}
 3256              		.cfi_restore 4
 3257              		.cfi_restore 14
 3258              		.cfi_def_cfa_offset 0
 3259              	.LVL357:
 3260              		.loc 1 1031 0
 3261 0060 FFF7FEBF 		b	sys_sem_signal
 3262              	.LVL358:
 3263              	.L409:
 3264              		.cfi_restore_state
 3265              		.loc 1 1004 0
 3266 0064 5A78     		ldrb	r2, [r3, #1]	@ zero_extendqisi2
 3267 0066 72B1     		cbz	r2, .L411
 3268              		.loc 1 1005 0
 3269 0068 F722     		movs	r2, #247
 3270 006a 0271     		strb	r2, [r0, #4]
 3271              		.loc 1 1031 0
 3272 006c 03F10C00 		add	r0, r3, #12
 3273              	.LVL359:
 3274              		.loc 1 1032 0
 3275 0070 02B0     		add	sp, sp, #8
 3276              		.cfi_def_cfa_offset 8
 3277              		@ sp needed
 3278 0072 BDE81040 		pop	{r4, lr}
 3279              		.cfi_restore 4
 3280              		.cfi_restore 14
 3281              		.cfi_def_cfa_offset 0
 3282              	.LVL360:
 3283              		.loc 1 1031 0
 3284 0076 FFF7FEBF 		b	sys_sem_signal
 3285              	.LVL361:
 3286              	.L418:
 3287              		.loc 1 988 0
 3288 007a F422     		movs	r2, #244
ARM GAS  C:\Users\jo\AppData\Local\Temp\ccCSMiNu.s 			page 59


 3289 007c 0271     		strb	r2, [r0, #4]
 3290              		.loc 1 1031 0
 3291 007e 03F10C00 		add	r0, r3, #12
 3292              	.LVL362:
 3293 0082 FFF7FEBF 		b	sys_sem_signal
 3294              	.LVL363:
 3295              	.L411:
 3296              		.cfi_def_cfa_offset 16
 3297              		.cfi_offset 4, -8
 3298              		.cfi_offset 14, -4
 3299              		.loc 1 1007 0
 3300 0086 1846     		mov	r0, r3
 3301              	.LVL364:
 3302 0088 FFF7FEFF 		bl	setup_tcp
 3303              	.LVL365:
 3304              		.loc 1 1008 0
 3305 008c 2368     		ldr	r3, [r4]
 3306 008e A168     		ldr	r1, [r4, #8]
 3307 0090 5868     		ldr	r0, [r3, #4]
 3308 0092 A289     		ldrh	r2, [r4, #12]
 3309 0094 114B     		ldr	r3, .L421+16
 3310 0096 FFF7FEFF 		bl	tcp_connect
 3311              	.LVL366:
 3312 009a 2071     		strb	r0, [r4, #4]
 3313              		.loc 1 1010 0
 3314 009c 60B9     		cbnz	r0, .L420
 3315              	.LBB176:
 3316              		.loc 1 1011 0
 3317 009e 2268     		ldr	r2, [r4]
 3318 00a0 137F     		ldrb	r3, [r2, #28]	@ zero_extendqisi2
 3319              	.LVL367:
 3320              		.loc 1 1012 0
 3321 00a2 0321     		movs	r1, #3
 3322 00a4 5170     		strb	r1, [r2, #1]
 3323              		.loc 1 1013 0
 3324 00a6 9907     		lsls	r1, r3, #30
 3325 00a8 08D5     		bpl	.L413
 3326              		.loc 1 1013 0 is_stmt 0 discriminator 1
 3327 00aa 43F00403 		orr	r3, r3, #4
 3328              	.LVL368:
 3329 00ae 1377     		strb	r3, [r2, #28]
 3330              	.LVL369:
 3331              		.loc 1 1015 0 is_stmt 1 discriminator 1
 3332 00b0 FB22     		movs	r2, #251
 3333 00b2 2368     		ldr	r3, [r4]
 3334 00b4 2271     		strb	r2, [r4, #4]
 3335 00b6 C0E7     		b	.L407
 3336              	.L420:
 3337 00b8 2368     		ldr	r3, [r4]
 3338 00ba BEE7     		b	.L407
 3339              	.LVL370:
 3340              	.L413:
 3341              		.loc 1 1013 0 discriminator 2
 3342 00bc 23F00403 		bic	r3, r3, #4
 3343              	.LVL371:
 3344 00c0 1377     		strb	r3, [r2, #28]
 3345              	.LVL372:
ARM GAS  C:\Users\jo\AppData\Local\Temp\ccCSMiNu.s 			page 60


 3346              		.loc 1 1017 0 discriminator 2
 3347 00c2 2368     		ldr	r3, [r4]
 3348 00c4 5C62     		str	r4, [r3, #36]
 3349              	.LBE176:
 3350              		.loc 1 1032 0 discriminator 2
 3351 00c6 02B0     		add	sp, sp, #8
 3352              		.cfi_def_cfa_offset 8
 3353              		@ sp needed
 3354 00c8 10BD     		pop	{r4, pc}
 3355              	.LVL373:
 3356              	.L422:
 3357 00ca 00BF     		.align	2
 3358              	.L421:
 3359 00cc 4C000000 		.word	.LC2
 3360 00d0 30040000 		.word	.LC30
 3361 00d4 00000000 		.word	.LC0
 3362 00d8 00000000 		.word	itm_port
 3363 00dc 00000000 		.word	do_connected
 3364              		.cfi_endproc
 3365              	.LFE276:
 3366              		.size	do_connect, .-do_connect
 3367              		.section	.text.do_disconnect,"ax",%progbits
 3368              		.align	2
 3369              		.p2align 4,,15
 3370              		.global	do_disconnect
 3371              		.thumb
 3372              		.thumb_func
 3373              		.type	do_disconnect, %function
 3374              	do_disconnect:
 3375              	.LFB277:
 3376              		.loc 1 1043 0
 3377              		.cfi_startproc
 3378              		@ args = 0, pretend = 0, frame = 0
 3379              		@ frame_needed = 0, uses_anonymous_args = 0
 3380              	.LVL374:
 3381              		.loc 1 1045 0
 3382 0000 0268     		ldr	r2, [r0]
 3383 0002 1378     		ldrb	r3, [r2]	@ zero_extendqisi2
 3384 0004 03F0F003 		and	r3, r3, #240
 3385 0008 202B     		cmp	r3, #32
 3386 000a 05D0     		beq	.L428
 3387              		.loc 1 1051 0
 3388 000c FA23     		movs	r3, #250
 3389 000e 0371     		strb	r3, [r0, #4]
 3390              		.loc 1 1053 0
 3391 0010 02F10C00 		add	r0, r2, #12
 3392              	.LVL375:
 3393 0014 FFF7FEBF 		b	sys_sem_signal
 3394              	.LVL376:
 3395              	.L428:
 3396              		.loc 1 1043 0
 3397 0018 10B5     		push	{r4, lr}
 3398              		.cfi_def_cfa_offset 8
 3399              		.cfi_offset 4, -8
 3400              		.cfi_offset 14, -4
 3401 001a 0446     		mov	r4, r0
 3402              		.loc 1 1046 0
ARM GAS  C:\Users\jo\AppData\Local\Temp\ccCSMiNu.s 			page 61


 3403 001c 5068     		ldr	r0, [r2, #4]
 3404              	.LVL377:
 3405 001e FFF7FEFF 		bl	udp_disconnect
 3406              	.LVL378:
 3407 0022 2268     		ldr	r2, [r4]
 3408              		.loc 1 1047 0
 3409 0024 0023     		movs	r3, #0
 3410 0026 2371     		strb	r3, [r4, #4]
 3411              		.loc 1 1053 0
 3412 0028 02F10C00 		add	r0, r2, #12
 3413              		.loc 1 1054 0
 3414 002c BDE81040 		pop	{r4, lr}
 3415              		.cfi_restore 14
 3416              		.cfi_restore 4
 3417              		.cfi_def_cfa_offset 0
 3418              	.LVL379:
 3419              		.loc 1 1053 0
 3420 0030 FFF7FEBF 		b	sys_sem_signal
 3421              	.LVL380:
 3422              		.cfi_endproc
 3423              	.LFE277:
 3424              		.size	do_disconnect, .-do_disconnect
 3425 0034 AFF30080 		.section	.text.do_listen,"ax",%progbits
 3425      AFF30080 
 3425      AFF30080 
 3426              		.align	2
 3427              		.p2align 4,,15
 3428              		.global	do_listen
 3429              		.thumb
 3430              		.thumb_func
 3431              		.type	do_listen, %function
 3432              	do_listen:
 3433              	.LFB278:
 3434              		.loc 1 1065 0
 3435              		.cfi_startproc
 3436              		@ args = 0, pretend = 0, frame = 0
 3437              		@ frame_needed = 0, uses_anonymous_args = 0
 3438              	.LVL381:
 3439 0000 38B5     		push	{r3, r4, r5, lr}
 3440              		.cfi_def_cfa_offset 16
 3441              		.cfi_offset 3, -16
 3442              		.cfi_offset 4, -12
 3443              		.cfi_offset 5, -8
 3444              		.cfi_offset 14, -4
 3445              		.loc 1 1066 0
 3446 0002 0368     		ldr	r3, [r0]
 3447 0004 1A7A     		ldrb	r2, [r3, #8]	@ zero_extendqisi2
 3448 0006 51B2     		sxtb	r1, r2
 3449 0008 0931     		adds	r1, r1, #9
 3450 000a 07DB     		blt	.L445
 3451              		.loc 1 1069 0
 3452 000c F322     		movs	r2, #243
 3453 000e 0271     		strb	r2, [r0, #4]
 3454              		.loc 1 1070 0
 3455 0010 5A68     		ldr	r2, [r3, #4]
 3456 0012 22B1     		cbz	r2, .L431
 3457              		.loc 1 1071 0
ARM GAS  C:\Users\jo\AppData\Local\Temp\ccCSMiNu.s 			page 62


 3458 0014 1978     		ldrb	r1, [r3]	@ zero_extendqisi2
 3459 0016 1029     		cmp	r1, #16
 3460 0018 07D0     		beq	.L446
 3461              		.loc 1 1105 0
 3462 001a F222     		movs	r2, #242
 3463              	.L445:
 3464 001c 0271     		strb	r2, [r0, #4]
 3465              	.LVL382:
 3466              	.L431:
 3467              		.loc 1 1109 0
 3468 001e 03F10C00 		add	r0, r3, #12
 3469              		.loc 1 1110 0
 3470 0022 BDE83840 		pop	{r3, r4, r5, lr}
 3471              		.cfi_remember_state
 3472              		.cfi_restore 14
 3473              		.cfi_restore 5
 3474              		.cfi_restore 4
 3475              		.cfi_restore 3
 3476              		.cfi_def_cfa_offset 0
 3477              		.loc 1 1109 0
 3478 0026 FFF7FEBF 		b	sys_sem_signal
 3479              	.LVL383:
 3480              	.L446:
 3481              		.cfi_restore_state
 3482              		.loc 1 1072 0
 3483 002a 5978     		ldrb	r1, [r3, #1]	@ zero_extendqisi2
 3484 002c 0029     		cmp	r1, #0
 3485 002e F6D1     		bne	.L431
 3486 0030 0446     		mov	r4, r0
 3487              	.LBB177:
 3488              		.loc 1 1076 0
 3489 0032 FF21     		movs	r1, #255
 3490 0034 1046     		mov	r0, r2
 3491              	.LVL384:
 3492 0036 FFF7FEFF 		bl	tcp_listen_with_backlog
 3493              	.LVL385:
 3494              		.loc 1 1078 0
 3495 003a 0546     		mov	r5, r0
 3496 003c E0B1     		cbz	r0, .L447
 3497              		.loc 1 1083 0
 3498 003e 2068     		ldr	r0, [r4]
 3499              	.LVL386:
 3500 0040 1030     		adds	r0, r0, #16
 3501 0042 FFF7FEFF 		bl	sys_mbox_valid
 3502              	.LVL387:
 3503 0046 50BB     		cbnz	r0, .L448
 3504              	.L434:
 3505              		.loc 1 1089 0
 3506 0048 2068     		ldr	r0, [r4]
 3507              		.loc 1 1088 0
 3508 004a 0023     		movs	r3, #0
 3509              		.loc 1 1089 0
 3510 004c 1430     		adds	r0, r0, #20
 3511              		.loc 1 1088 0
 3512 004e 2371     		strb	r3, [r4, #4]
 3513              		.loc 1 1089 0
 3514 0050 FFF7FEFF 		bl	sys_mbox_valid
ARM GAS  C:\Users\jo\AppData\Local\Temp\ccCSMiNu.s 			page 63


 3515              	.LVL388:
 3516 0054 E0B1     		cbz	r0, .L435
 3517 0056 2079     		ldrb	r0, [r4, #4]	@ zero_extendqisi2
 3518              	.L436:
 3519              		.loc 1 1092 0
 3520 0058 90B9     		cbnz	r0, .L437
 3521              		.loc 1 1093 0
 3522 005a 2368     		ldr	r3, [r4]
 3523              		.loc 1 1094 0
 3524 005c 5D60     		str	r5, [r3, #4]
 3525              		.loc 1 1095 0
 3526 005e 2168     		ldr	r1, [r4]
 3527              		.loc 1 1093 0
 3528 0060 0222     		movs	r2, #2
 3529 0062 5A70     		strb	r2, [r3, #1]
 3530              		.loc 1 1095 0
 3531 0064 4868     		ldr	r0, [r1, #4]
 3532 0066 FFF7FEFF 		bl	tcp_arg
 3533              	.LVL389:
 3534              		.loc 1 1096 0
 3535 006a 2368     		ldr	r3, [r4]
 3536 006c 1049     		ldr	r1, .L449
 3537 006e 5868     		ldr	r0, [r3, #4]
 3538 0070 FFF7FEFF 		bl	tcp_accept
 3539              	.LVL390:
 3540 0074 2368     		ldr	r3, [r4]
 3541 0076 D2E7     		b	.L431
 3542              	.LVL391:
 3543              	.L447:
 3544              		.loc 1 1080 0
 3545 0078 FF23     		movs	r3, #255
 3546 007a 2371     		strb	r3, [r4, #4]
 3547 007c 2368     		ldr	r3, [r4]
 3548 007e CEE7     		b	.L431
 3549              	.LVL392:
 3550              	.L437:
 3551              		.loc 1 1099 0
 3552 0080 2846     		mov	r0, r5
 3553 0082 FFF7FEFF 		bl	tcp_close
 3554              	.LVL393:
 3555              		.loc 1 1100 0
 3556 0086 2368     		ldr	r3, [r4]
 3557 0088 0022     		movs	r2, #0
 3558 008a 5A60     		str	r2, [r3, #4]
 3559 008c 2368     		ldr	r3, [r4]
 3560 008e C6E7     		b	.L431
 3561              	.L435:
 3562              		.loc 1 1090 0
 3563 0090 2068     		ldr	r0, [r4]
 3564 0092 0421     		movs	r1, #4
 3565 0094 1430     		adds	r0, r0, #20
 3566 0096 FFF7FEFF 		bl	sys_mbox_new
 3567              	.LVL394:
 3568 009a 2071     		strb	r0, [r4, #4]
 3569 009c DCE7     		b	.L436
 3570              	.L448:
 3571              		.loc 1 1085 0
ARM GAS  C:\Users\jo\AppData\Local\Temp\ccCSMiNu.s 			page 64


 3572 009e 2068     		ldr	r0, [r4]
 3573 00a0 1030     		adds	r0, r0, #16
 3574 00a2 FFF7FEFF 		bl	sys_mbox_free
 3575              	.LVL395:
 3576              		.loc 1 1086 0
 3577 00a6 2068     		ldr	r0, [r4]
 3578 00a8 1030     		adds	r0, r0, #16
 3579 00aa FFF7FEFF 		bl	sys_mbox_set_invalid
 3580              	.LVL396:
 3581 00ae CBE7     		b	.L434
 3582              	.L450:
 3583              		.align	2
 3584              	.L449:
 3585 00b0 00000000 		.word	accept_function
 3586              	.LBE177:
 3587              		.cfi_endproc
 3588              	.LFE278:
 3589              		.size	do_listen, .-do_listen
 3590 00b4 AFF30080 		.section	.text.do_send,"ax",%progbits
 3590      AFF30080 
 3590      AFF30080 
 3591              		.align	2
 3592              		.p2align 4,,15
 3593              		.global	do_send
 3594              		.thumb
 3595              		.thumb_func
 3596              		.type	do_send, %function
 3597              	do_send:
 3598              	.LFB279:
 3599              		.loc 1 1121 0
 3600              		.cfi_startproc
 3601              		@ args = 0, pretend = 0, frame = 0
 3602              		@ frame_needed = 0, uses_anonymous_args = 0
 3603              	.LVL397:
 3604              		.loc 1 1122 0
 3605 0000 0368     		ldr	r3, [r0]
 3606 0002 1A7A     		ldrb	r2, [r3, #8]	@ zero_extendqisi2
 3607 0004 51B2     		sxtb	r1, r2
 3608 0006 0931     		adds	r1, r1, #9
 3609 0008 1CDB     		blt	.L465
 3610              		.loc 1 1125 0
 3611 000a F322     		movs	r2, #243
 3612 000c 0271     		strb	r2, [r0, #4]
 3613              		.loc 1 1126 0
 3614 000e 5968     		ldr	r1, [r3, #4]
 3615 0010 C9B1     		cbz	r1, .L464
 3616              		.loc 1 1127 0
 3617 0012 1A78     		ldrb	r2, [r3]	@ zero_extendqisi2
 3618 0014 02F0F002 		and	r2, r2, #240
 3619 0018 202A     		cmp	r2, #32
 3620 001a 14D1     		bne	.L464
 3621              		.loc 1 1121 0
 3622 001c 10B5     		push	{r4, lr}
 3623              		.cfi_def_cfa_offset 8
 3624              		.cfi_offset 4, -8
 3625              		.cfi_offset 14, -4
 3626              		.loc 1 1149 0
ARM GAS  C:\Users\jo\AppData\Local\Temp\ccCSMiNu.s 			page 65


 3627 001e 8368     		ldr	r3, [r0, #8]
 3628 0020 13F10802 		adds	r2, r3, #8
 3629 0024 0446     		mov	r4, r0
 3630 0026 01D0     		beq	.L455
 3631              		.loc 1 1149 0 is_stmt 0 discriminator 1
 3632 0028 9868     		ldr	r0, [r3, #8]
 3633              	.LVL398:
 3634 002a 80B9     		cbnz	r0, .L456
 3635              	.L455:
 3636              		.loc 1 1150 0 is_stmt 1
 3637 002c 0846     		mov	r0, r1
 3638 002e 1968     		ldr	r1, [r3]
 3639 0030 FFF7FEFF 		bl	udp_send
 3640              	.LVL399:
 3641 0034 2368     		ldr	r3, [r4]
 3642 0036 2071     		strb	r0, [r4, #4]
 3643              		.loc 1 1163 0
 3644 0038 BDE81040 		pop	{r4, lr}
 3645              		.cfi_restore 14
 3646              		.cfi_restore 4
 3647              		.cfi_def_cfa_offset 0
 3648              	.LVL400:
 3649              		.loc 1 1162 0
 3650 003c 03F10C00 		add	r0, r3, #12
 3651 0040 FFF7FEBF 		b	sys_sem_signal
 3652              	.LVL401:
 3653              	.L465:
 3654              		.loc 1 1123 0
 3655 0044 0271     		strb	r2, [r0, #4]
 3656              	.L464:
 3657              		.loc 1 1162 0
 3658 0046 03F10C00 		add	r0, r3, #12
 3659              	.LVL402:
 3660 004a FFF7FEBF 		b	sys_sem_signal
 3661              	.LVL403:
 3662              	.L456:
 3663              		.cfi_def_cfa_offset 8
 3664              		.cfi_offset 4, -8
 3665              		.cfi_offset 14, -4
 3666              		.loc 1 1152 0
 3667 004e 0846     		mov	r0, r1
 3668 0050 1968     		ldr	r1, [r3]
 3669 0052 9B89     		ldrh	r3, [r3, #12]
 3670 0054 FFF7FEFF 		bl	udp_sendto
 3671              	.LVL404:
 3672 0058 2368     		ldr	r3, [r4]
 3673 005a 2071     		strb	r0, [r4, #4]
 3674              		.loc 1 1163 0
 3675 005c BDE81040 		pop	{r4, lr}
 3676              		.cfi_restore 4
 3677              		.cfi_restore 14
 3678              		.cfi_def_cfa_offset 0
 3679              	.LVL405:
 3680              		.loc 1 1162 0
 3681 0060 03F10C00 		add	r0, r3, #12
 3682 0064 FFF7FEBF 		b	sys_sem_signal
 3683              	.LVL406:
ARM GAS  C:\Users\jo\AppData\Local\Temp\ccCSMiNu.s 			page 66


 3684              		.cfi_endproc
 3685              	.LFE279:
 3686              		.size	do_send, .-do_send
 3687 0068 AFF30080 		.section	.text.do_recv,"ax",%progbits
 3687      AFF30080 
 3688              		.align	2
 3689              		.p2align 4,,15
 3690              		.global	do_recv
 3691              		.thumb
 3692              		.thumb_func
 3693              		.type	do_recv, %function
 3694              	do_recv:
 3695              	.LFB280:
 3696              		.loc 1 1174 0
 3697              		.cfi_startproc
 3698              		@ args = 0, pretend = 0, frame = 0
 3699              		@ frame_needed = 0, uses_anonymous_args = 0
 3700              	.LVL407:
 3701 0000 70B5     		push	{r4, r5, r6, lr}
 3702              		.cfi_def_cfa_offset 16
 3703              		.cfi_offset 4, -16
 3704              		.cfi_offset 5, -12
 3705              		.cfi_offset 6, -8
 3706              		.cfi_offset 14, -4
 3707              		.loc 1 1175 0
 3708 0002 0022     		movs	r2, #0
 3709              		.loc 1 1176 0
 3710 0004 0368     		ldr	r3, [r0]
 3711              		.loc 1 1175 0
 3712 0006 0271     		strb	r2, [r0, #4]
 3713              		.loc 1 1174 0
 3714 0008 0646     		mov	r6, r0
 3715              		.loc 1 1176 0
 3716 000a 5868     		ldr	r0, [r3, #4]
 3717              	.LVL408:
 3718 000c 10B1     		cbz	r0, .L467
 3719              		.loc 1 1177 0
 3720 000e 1A78     		ldrb	r2, [r3]	@ zero_extendqisi2
 3721 0010 102A     		cmp	r2, #16
 3722 0012 05D0     		beq	.L477
 3723              	.L467:
 3724              		.loc 1 1193 0
 3725 0014 03F10C00 		add	r0, r3, #12
 3726              		.loc 1 1194 0
 3727 0018 BDE87040 		pop	{r4, r5, r6, lr}
 3728              		.cfi_remember_state
 3729              		.cfi_restore 14
 3730              		.cfi_restore 6
 3731              		.cfi_restore 5
 3732              		.cfi_restore 4
 3733              		.cfi_def_cfa_offset 0
 3734              	.LVL409:
 3735              		.loc 1 1193 0
 3736 001c FFF7FEBF 		b	sys_sem_signal
 3737              	.LVL410:
 3738              	.L477:
 3739              		.cfi_restore_state
ARM GAS  C:\Users\jo\AppData\Local\Temp\ccCSMiNu.s 			page 67


 3740              	.LBB178:
 3741              		.loc 1 1184 0
 3742 0020 B468     		ldr	r4, [r6, #8]
 3743              	.LVL411:
 3744 0022 00E0     		b	.L470
 3745              	.LVL412:
 3746              	.L478:
 3747 0024 5868     		ldr	r0, [r3, #4]
 3748              	.L470:
 3749              	.LBB179:
 3750              		.loc 1 1186 0
 3751 0026 B4F5803F 		cmp	r4, #65536
 3752 002a 2DBF     		iteet	cs
 3753 002c 4FF6FF75 		movwcs	r5, #65535
 3754 0030 A1B2     		uxthcc	r1, r4
 3755 0032 2546     		movcc	r5, r4
 3756 0034 2946     		movcs	r1, r5
 3757              	.LVL413:
 3758              		.loc 1 1187 0
 3759 0036 FFF7FEFF 		bl	tcp_recved
 3760              	.LVL414:
 3761              	.LBE179:
 3762              		.loc 1 1189 0
 3763 003a 641B     		subs	r4, r4, r5
 3764              	.LVL415:
 3765 003c 3368     		ldr	r3, [r6]
 3766 003e F1D1     		bne	.L478
 3767              	.LBE178:
 3768              		.loc 1 1193 0
 3769 0040 03F10C00 		add	r0, r3, #12
 3770              		.loc 1 1194 0
 3771 0044 BDE87040 		pop	{r4, r5, r6, lr}
 3772              		.cfi_restore 4
 3773              		.cfi_restore 5
 3774              		.cfi_restore 6
 3775              		.cfi_restore 14
 3776              		.cfi_def_cfa_offset 0
 3777              	.LVL416:
 3778              		.loc 1 1193 0
 3779 0048 FFF7FEBF 		b	sys_sem_signal
 3780              	.LVL417:
 3781              		.cfi_endproc
 3782              	.LFE280:
 3783              		.size	do_recv, .-do_recv
 3784 004c AFF30080 		.section	.text.do_write,"ax",%progbits
 3785              		.align	2
 3786              		.p2align 4,,15
 3787              		.global	do_write
 3788              		.thumb
 3789              		.thumb_func
 3790              		.type	do_write, %function
 3791              	do_write:
 3792              	.LFB282:
 3793              		.loc 1 1344 0
 3794              		.cfi_startproc
 3795              		@ args = 0, pretend = 0, frame = 0
 3796              		@ frame_needed = 0, uses_anonymous_args = 0
ARM GAS  C:\Users\jo\AppData\Local\Temp\ccCSMiNu.s 			page 68


 3797              	.LVL418:
 3798              		.loc 1 1345 0
 3799 0000 0368     		ldr	r3, [r0]
 3800 0002 1A7A     		ldrb	r2, [r3, #8]	@ zero_extendqisi2
 3801 0004 51B2     		sxtb	r1, r2
 3802 0006 0931     		adds	r1, r1, #9
 3803 0008 03DB     		blt	.L492
 3804              		.loc 1 1348 0
 3805 000a 1A78     		ldrb	r2, [r3]	@ zero_extendqisi2
 3806 000c 102A     		cmp	r2, #16
 3807 000e 05D0     		beq	.L493
 3808              		.loc 1 1384 0
 3809 0010 FA22     		movs	r2, #250
 3810              	.L492:
 3811 0012 0271     		strb	r2, [r0, #4]
 3812              	.L481:
 3813              		.loc 1 1388 0
 3814 0014 03F10C00 		add	r0, r3, #12
 3815              	.LVL419:
 3816 0018 FFF7FEBF 		b	sys_sem_signal
 3817              	.LVL420:
 3818              	.L493:
 3819              		.loc 1 1350 0
 3820 001c 5A78     		ldrb	r2, [r3, #1]	@ zero_extendqisi2
 3821 001e 12B1     		cbz	r2, .L483
 3822              		.loc 1 1352 0
 3823 0020 FB22     		movs	r2, #251
 3824 0022 0271     		strb	r2, [r0, #4]
 3825 0024 F6E7     		b	.L481
 3826              	.L483:
 3827              		.loc 1 1353 0
 3828 0026 5A68     		ldr	r2, [r3, #4]
 3829 0028 002A     		cmp	r2, #0
 3830 002a 2ED0     		beq	.L484
 3831              		.loc 1 1344 0
 3832 002c 10B5     		push	{r4, lr}
 3833              		.cfi_def_cfa_offset 8
 3834              		.cfi_offset 4, -8
 3835              		.cfi_offset 14, -4
 3836              		.loc 1 1356 0
 3837 002e 5A6A     		ldr	r2, [r3, #36]
 3838              		.loc 1 1354 0
 3839 0030 0121     		movs	r1, #1
 3840              		.loc 1 1344 0
 3841 0032 82B0     		sub	sp, sp, #8
 3842              		.cfi_def_cfa_offset 16
 3843 0034 0446     		mov	r4, r0
 3844              		.loc 1 1354 0
 3845 0036 5970     		strb	r1, [r3, #1]
 3846              		.loc 1 1356 0
 3847 0038 1AB3     		cbz	r2, .L494
 3848              	.L485:
 3849              		.loc 1 1356 0 is_stmt 0 discriminator 3
 3850 003a 154B     		ldr	r3, .L496
 3851 003c 0093     		str	r3, [sp]
 3852 003e 1548     		ldr	r0, .L496+4
 3853              	.LVL421:
ARM GAS  C:\Users\jo\AppData\Local\Temp\ccCSMiNu.s 			page 69


 3854 0040 1549     		ldr	r1, .L496+8
 3855 0042 164A     		ldr	r2, .L496+12
 3856 0044 40F24D53 		movw	r3, #1357
 3857 0048 FFF7FEFF 		bl	chprintf.constprop.2
 3858              	.LVL422:
 3859              	.LBB180:
 3860              	.LBB181:
 3861              		.loc 3 416 0 is_stmt 1 discriminator 3
 3862 004c 1348     		ldr	r0, .L496+12
 3863 004e FFF7FEFF 		bl	chSysHalt
 3864              	.LVL423:
 3865              	.L486:
 3866              	.LBE181:
 3867              	.LBE180:
 3868              		.loc 1 1358 0
 3869 0052 E368     		ldr	r3, [r4, #12]
 3870 0054 43B1     		cbz	r3, .L495
 3871              	.L487:
 3872              		.loc 1 1359 0
 3873 0056 2068     		ldr	r0, [r4]
 3874              		.loc 1 1360 0
 3875 0058 0023     		movs	r3, #0
 3876              		.loc 1 1359 0
 3877 005a 4462     		str	r4, [r0, #36]
 3878              		.loc 1 1360 0
 3879 005c 0362     		str	r3, [r0, #32]
 3880              		.loc 1 1389 0
 3881 005e 02B0     		add	sp, sp, #8
 3882              		.cfi_remember_state
 3883              		.cfi_def_cfa_offset 8
 3884              		@ sp needed
 3885 0060 BDE81040 		pop	{r4, lr}
 3886              		.cfi_restore 14
 3887              		.cfi_restore 4
 3888              		.cfi_def_cfa_offset 0
 3889              	.LVL424:
 3890              		.loc 1 1371 0
 3891 0064 FFF7FEBF 		b	do_writemore
 3892              	.LVL425:
 3893              	.L495:
 3894              		.cfi_restore_state
 3895              		.loc 1 1358 0 discriminator 1
 3896 0068 094B     		ldr	r3, .L496
 3897 006a 0093     		str	r3, [sp]
 3898 006c 0A49     		ldr	r1, .L496+8
 3899 006e 0C4A     		ldr	r2, .L496+16
 3900 0070 0848     		ldr	r0, .L496+4
 3901 0072 40F24E53 		movw	r3, #1358
 3902 0076 FFF7FEFF 		bl	chprintf.constprop.2
 3903              	.LVL426:
 3904              	.LBB182:
 3905              	.LBB183:
 3906              		.loc 3 416 0 discriminator 1
 3907 007a 0948     		ldr	r0, .L496+16
 3908 007c FFF7FEFF 		bl	chSysHalt
 3909              	.LVL427:
 3910 0080 E9E7     		b	.L487
ARM GAS  C:\Users\jo\AppData\Local\Temp\ccCSMiNu.s 			page 70


 3911              	.LVL428:
 3912              	.L494:
 3913              	.LBE183:
 3914              	.LBE182:
 3915              		.loc 1 1356 0 discriminator 2
 3916 0082 1B6A     		ldr	r3, [r3, #32]
 3917 0084 002B     		cmp	r3, #0
 3918 0086 E4D0     		beq	.L486
 3919 0088 D7E7     		b	.L485
 3920              	.L484:
 3921              		.cfi_def_cfa_offset 0
 3922              		.cfi_restore 4
 3923              		.cfi_restore 14
 3924              		.loc 1 1377 0
 3925 008a F322     		movs	r2, #243
 3926 008c 0271     		strb	r2, [r0, #4]
 3927 008e C1E7     		b	.L481
 3928              	.L497:
 3929              		.align	2
 3930              	.L496:
 3931 0090 4C000000 		.word	.LC2
 3932 0094 00000000 		.word	itm_port
 3933 0098 00000000 		.word	.LC0
 3934 009c 14040000 		.word	.LC29
 3935 00a0 48040000 		.word	.LC31
 3936              		.cfi_endproc
 3937              	.LFE282:
 3938              		.size	do_write, .-do_write
 3939 00a4 AFF30080 		.section	.text.do_getaddr,"ax",%progbits
 3939      AFF30080 
 3939      AFF30080 
 3940              		.align	2
 3941              		.p2align 4,,15
 3942              		.global	do_getaddr
 3943              		.thumb
 3944              		.thumb_func
 3945              		.type	do_getaddr, %function
 3946              	do_getaddr:
 3947              	.LFB283:
 3948              		.loc 1 1399 0
 3949              		.cfi_startproc
 3950              		@ args = 0, pretend = 0, frame = 0
 3951              		@ frame_needed = 0, uses_anonymous_args = 0
 3952              	.LVL429:
 3953 0000 10B5     		push	{r4, lr}
 3954              		.cfi_def_cfa_offset 8
 3955              		.cfi_offset 4, -8
 3956              		.cfi_offset 14, -4
 3957              		.loc 1 1400 0
 3958 0002 0468     		ldr	r4, [r0]
 3959 0004 6368     		ldr	r3, [r4, #4]
 3960              		.loc 1 1399 0
 3961 0006 82B0     		sub	sp, sp, #8
 3962              		.cfi_def_cfa_offset 16
 3963              		.loc 1 1400 0
 3964 0008 002B     		cmp	r3, #0
 3965 000a 3DD0     		beq	.L499
ARM GAS  C:\Users\jo\AppData\Local\Temp\ccCSMiNu.s 			page 71


 3966              		.loc 1 1401 0
 3967 000c 017C     		ldrb	r1, [r0, #16]	@ zero_extendqisi2
 3968 000e 8268     		ldr	r2, [r0, #8]
 3969 0010 A9B9     		cbnz	r1, .L512
 3970              		.loc 1 1401 0 is_stmt 0 discriminator 2
 3971 0012 5B68     		ldr	r3, [r3, #4]
 3972 0014 1360     		str	r3, [r2]
 3973              	.L501:
 3974              		.loc 1 1404 0 is_stmt 1
 3975 0016 0023     		movs	r3, #0
 3976 0018 0371     		strb	r3, [r0, #4]
 3977              		.loc 1 1405 0
 3978 001a 2378     		ldrb	r3, [r4]	@ zero_extendqisi2
 3979 001c 03F0F003 		and	r3, r3, #240
 3980 0020 102B     		cmp	r3, #16
 3981 0022 24D0     		beq	.L503
 3982 0024 202B     		cmp	r3, #32
 3983 0026 0DD1     		bne	.L510
 3984              		.loc 1 1418 0
 3985 0028 037C     		ldrb	r3, [r0, #16]	@ zero_extendqisi2
 3986 002a 002B     		cmp	r3, #0
 3987 002c 38D1     		bne	.L513
 3988              		.loc 1 1421 0
 3989 002e 6368     		ldr	r3, [r4, #4]
 3990 0030 1A7C     		ldrb	r2, [r3, #16]	@ zero_extendqisi2
 3991 0032 5207     		lsls	r2, r2, #29
 3992 0034 28D5     		bpl	.L499
 3993              		.loc 1 1424 0
 3994 0036 C268     		ldr	r2, [r0, #12]
 3995 0038 9B8A     		ldrh	r3, [r3, #20]
 3996 003a 1380     		strh	r3, [r2]	@ movhi
 3997 003c 10E0     		b	.L506
 3998              	.L512:
 3999              		.loc 1 1401 0 discriminator 1
 4000 003e 1B68     		ldr	r3, [r3]
 4001 0040 1360     		str	r3, [r2]
 4002 0042 E8E7     		b	.L501
 4003              	.L510:
 4004              		.loc 1 1435 0 discriminator 1
 4005 0044 1C4B     		ldr	r3, .L515
 4006 0046 0093     		str	r3, [sp]
 4007 0048 0446     		mov	r4, r0
 4008 004a 1C49     		ldr	r1, .L515+4
 4009 004c 1C4A     		ldr	r2, .L515+8
 4010 004e 1D48     		ldr	r0, .L515+12
 4011              	.LVL430:
 4012 0050 40F29B53 		movw	r3, #1435
 4013 0054 FFF7FEFF 		bl	chprintf.constprop.2
 4014              	.LVL431:
 4015              	.LBB184:
 4016              	.LBB185:
 4017              		.loc 3 416 0 discriminator 1
 4018 0058 1948     		ldr	r0, .L515+8
 4019 005a FFF7FEFF 		bl	chSysHalt
 4020              	.LVL432:
 4021 005e 2468     		ldr	r4, [r4]
 4022              	.LVL433:
ARM GAS  C:\Users\jo\AppData\Local\Temp\ccCSMiNu.s 			page 72


 4023              	.L506:
 4024              	.LBE185:
 4025              	.LBE184:
 4026              		.loc 1 1441 0
 4027 0060 04F10C00 		add	r0, r4, #12
 4028              		.loc 1 1442 0
 4029 0064 02B0     		add	sp, sp, #8
 4030              		.cfi_remember_state
 4031              		.cfi_def_cfa_offset 8
 4032              		@ sp needed
 4033 0066 BDE81040 		pop	{r4, lr}
 4034              		.cfi_restore 14
 4035              		.cfi_restore 4
 4036              		.cfi_def_cfa_offset 0
 4037              		.loc 1 1441 0
 4038 006a FFF7FEBF 		b	sys_sem_signal
 4039              	.LVL434:
 4040              	.L503:
 4041              		.cfi_restore_state
 4042              		.loc 1 1431 0
 4043 006e 027C     		ldrb	r2, [r0, #16]	@ zero_extendqisi2
 4044 0070 C368     		ldr	r3, [r0, #12]
 4045 0072 92B9     		cbnz	r2, .L514
 4046              		.loc 1 1431 0 is_stmt 0 discriminator 2
 4047 0074 6268     		ldr	r2, [r4, #4]
 4048 0076 928B     		ldrh	r2, [r2, #28]
 4049              	.L509:
 4050              		.loc 1 1431 0 discriminator 4
 4051 0078 1A80     		strh	r2, [r3]	@ movhi
 4052              		.loc 1 1441 0 is_stmt 1 discriminator 4
 4053 007a 04F10C00 		add	r0, r4, #12
 4054              	.LVL435:
 4055              		.loc 1 1442 0 discriminator 4
 4056 007e 02B0     		add	sp, sp, #8
 4057              		.cfi_remember_state
 4058              		.cfi_def_cfa_offset 8
 4059              		@ sp needed
 4060 0080 BDE81040 		pop	{r4, lr}
 4061              		.cfi_restore 4
 4062              		.cfi_restore 14
 4063              		.cfi_def_cfa_offset 0
 4064              		.loc 1 1441 0 discriminator 4
 4065 0084 FFF7FEBF 		b	sys_sem_signal
 4066              	.LVL436:
 4067              	.L499:
 4068              		.cfi_restore_state
 4069              		.loc 1 1439 0
 4070 0088 F323     		movs	r3, #243
 4071 008a 0371     		strb	r3, [r0, #4]
 4072              		.loc 1 1441 0
 4073 008c 04F10C00 		add	r0, r4, #12
 4074              	.LVL437:
 4075              		.loc 1 1442 0
 4076 0090 02B0     		add	sp, sp, #8
 4077              		.cfi_remember_state
 4078              		.cfi_def_cfa_offset 8
 4079              		@ sp needed
ARM GAS  C:\Users\jo\AppData\Local\Temp\ccCSMiNu.s 			page 73


 4080 0092 BDE81040 		pop	{r4, lr}
 4081              		.cfi_restore 4
 4082              		.cfi_restore 14
 4083              		.cfi_def_cfa_offset 0
 4084              		.loc 1 1441 0
 4085 0096 FFF7FEBF 		b	sys_sem_signal
 4086              	.LVL438:
 4087              	.L514:
 4088              		.cfi_restore_state
 4089              		.loc 1 1431 0 discriminator 1
 4090 009a 6268     		ldr	r2, [r4, #4]
 4091 009c 528B     		ldrh	r2, [r2, #26]
 4092 009e EBE7     		b	.L509
 4093              	.L513:
 4094              		.loc 1 1419 0
 4095 00a0 6268     		ldr	r2, [r4, #4]
 4096 00a2 C368     		ldr	r3, [r0, #12]
 4097 00a4 528A     		ldrh	r2, [r2, #18]
 4098 00a6 1A80     		strh	r2, [r3]	@ movhi
 4099              		.loc 1 1441 0
 4100 00a8 04F10C00 		add	r0, r4, #12
 4101              	.LVL439:
 4102              		.loc 1 1442 0
 4103 00ac 02B0     		add	sp, sp, #8
 4104              		.cfi_def_cfa_offset 8
 4105              		@ sp needed
 4106 00ae BDE81040 		pop	{r4, lr}
 4107              		.cfi_restore 4
 4108              		.cfi_restore 14
 4109              		.cfi_def_cfa_offset 0
 4110              		.loc 1 1441 0
 4111 00b2 FFF7FEBF 		b	sys_sem_signal
 4112              	.LVL440:
 4113              	.L516:
 4114 00b6 00BF     		.align	2
 4115              	.L515:
 4116 00b8 4C000000 		.word	.LC2
 4117 00bc 00000000 		.word	.LC0
 4118 00c0 5C040000 		.word	.LC32
 4119 00c4 00000000 		.word	itm_port
 4120              		.cfi_endproc
 4121              	.LFE283:
 4122              		.size	do_getaddr, .-do_getaddr
 4123 00c8 AFF30080 		.section	.text.do_close,"ax",%progbits
 4123      AFF30080 
 4124              		.align	2
 4125              		.p2align 4,,15
 4126              		.global	do_close
 4127              		.thumb
 4128              		.thumb_func
 4129              		.type	do_close, %function
 4130              	do_close:
 4131              	.LFB284:
 4132              		.loc 1 1452 0
 4133              		.cfi_startproc
 4134              		@ args = 0, pretend = 0, frame = 0
 4135              		@ frame_needed = 0, uses_anonymous_args = 0
ARM GAS  C:\Users\jo\AppData\Local\Temp\ccCSMiNu.s 			page 74


 4136              	.LVL441:
 4137 0000 10B5     		push	{r4, lr}
 4138              		.cfi_def_cfa_offset 8
 4139              		.cfi_offset 4, -8
 4140              		.cfi_offset 14, -4
 4141 0002 0446     		mov	r4, r0
 4142              		.loc 1 1455 0
 4143 0004 0068     		ldr	r0, [r0]
 4144              	.LVL442:
 4145 0006 4378     		ldrb	r3, [r0, #1]	@ zero_extendqisi2
 4146 0008 13F0FD0F 		tst	r3, #253
 4147              		.loc 1 1452 0
 4148 000c 82B0     		sub	sp, sp, #8
 4149              		.cfi_def_cfa_offset 16
 4150              		.loc 1 1455 0
 4151 000e 17D0     		beq	.L518
 4152              		.loc 1 1457 0
 4153 0010 0378     		ldrb	r3, [r0]	@ zero_extendqisi2
 4154 0012 102B     		cmp	r3, #16
 4155 0014 0CD0     		beq	.L519
 4156              		.loc 1 1457 0 is_stmt 0 discriminator 1
 4157 0016 254B     		ldr	r3, .L546
 4158 0018 0093     		str	r3, [sp]
 4159 001a 2549     		ldr	r1, .L546+4
 4160 001c 254A     		ldr	r2, .L546+8
 4161 001e 2648     		ldr	r0, .L546+12
 4162 0020 40F2B153 		movw	r3, #1457
 4163 0024 FFF7FEFF 		bl	chprintf.constprop.2
 4164              	.LVL443:
 4165              	.LBB186:
 4166              	.LBB187:
 4167              		.loc 3 416 0 is_stmt 1 discriminator 1
 4168 0028 2248     		ldr	r0, .L546+8
 4169 002a FFF7FEFF 		bl	chSysHalt
 4170              	.LVL444:
 4171 002e 2068     		ldr	r0, [r4]
 4172              	.LVL445:
 4173              	.L519:
 4174              	.LBE187:
 4175              	.LBE186:
 4176              		.loc 1 1458 0
 4177 0030 FB23     		movs	r3, #251
 4178              		.loc 1 1481 0
 4179 0032 0C30     		adds	r0, r0, #12
 4180              		.loc 1 1458 0
 4181 0034 2371     		strb	r3, [r4, #4]
 4182              		.loc 1 1482 0
 4183 0036 02B0     		add	sp, sp, #8
 4184              		.cfi_remember_state
 4185              		.cfi_def_cfa_offset 8
 4186              		@ sp needed
 4187 0038 BDE81040 		pop	{r4, lr}
 4188              		.cfi_restore 4
 4189              		.cfi_restore 14
 4190              		.cfi_def_cfa_offset 0
 4191              	.LVL446:
 4192              		.loc 1 1481 0
ARM GAS  C:\Users\jo\AppData\Local\Temp\ccCSMiNu.s 			page 75


 4193 003c FFF7FEBF 		b	sys_sem_signal
 4194              	.LVL447:
 4195              	.L518:
 4196              		.cfi_restore_state
 4197              		.loc 1 1459 0
 4198 0040 4268     		ldr	r2, [r0, #4]
 4199 0042 12B1     		cbz	r2, .L521
 4200              		.loc 1 1459 0 is_stmt 0 discriminator 1
 4201 0044 0278     		ldrb	r2, [r0]	@ zero_extendqisi2
 4202 0046 102A     		cmp	r2, #16
 4203 0048 07D0     		beq	.L543
 4204              	.L521:
 4205              		.loc 1 1479 0 is_stmt 1
 4206 004a FA23     		movs	r3, #250
 4207 004c 2371     		strb	r3, [r4, #4]
 4208              	.L520:
 4209              		.loc 1 1481 0
 4210 004e 0C30     		adds	r0, r0, #12
 4211              		.loc 1 1482 0
 4212 0050 02B0     		add	sp, sp, #8
 4213              		.cfi_remember_state
 4214              		.cfi_def_cfa_offset 8
 4215              		@ sp needed
 4216 0052 BDE81040 		pop	{r4, lr}
 4217              		.cfi_restore 14
 4218              		.cfi_restore 4
 4219              		.cfi_def_cfa_offset 0
 4220              	.LVL448:
 4221              		.loc 1 1481 0
 4222 0056 FFF7FEBF 		b	sys_sem_signal
 4223              	.LVL449:
 4224              	.L543:
 4225              		.cfi_restore_state
 4226              		.loc 1 1460 0
 4227 005a 227A     		ldrb	r2, [r4, #8]	@ zero_extendqisi2
 4228 005c 032A     		cmp	r2, #3
 4229 005e 1ED0     		beq	.L522
 4230              		.loc 1 1460 0 is_stmt 0 discriminator 1
 4231 0060 022B     		cmp	r3, #2
 4232 0062 20D0     		beq	.L544
 4233              		.loc 1 1464 0 is_stmt 1
 4234 0064 D307     		lsls	r3, r2, #31
 4235 0066 1AD4     		bmi	.L522
 4236              	.L524:
 4237              		.loc 1 1468 0
 4238 0068 436A     		ldr	r3, [r0, #36]
 4239 006a A3B1     		cbz	r3, .L545
 4240              	.L525:
 4241              		.loc 1 1468 0 is_stmt 0 discriminator 3
 4242 006c 0F4B     		ldr	r3, .L546
 4243 006e 0093     		str	r3, [sp]
 4244 0070 0F49     		ldr	r1, .L546+4
 4245 0072 124A     		ldr	r2, .L546+16
 4246 0074 1048     		ldr	r0, .L546+12
 4247 0076 40F2BD53 		movw	r3, #1469
 4248 007a FFF7FEFF 		bl	chprintf.constprop.2
 4249              	.LVL450:
ARM GAS  C:\Users\jo\AppData\Local\Temp\ccCSMiNu.s 			page 76


 4250              	.LBB188:
 4251              	.LBB189:
 4252              		.loc 3 416 0 is_stmt 1 discriminator 3
 4253 007e 0F48     		ldr	r0, .L546+16
 4254 0080 FFF7FEFF 		bl	chSysHalt
 4255              	.LVL451:
 4256 0084 2068     		ldr	r0, [r4]
 4257              	.LVL452:
 4258              	.L526:
 4259              	.LBE189:
 4260              	.LBE188:
 4261              		.loc 1 1471 0
 4262 0086 4462     		str	r4, [r0, #36]
 4263              		.loc 1 1470 0
 4264 0088 0423     		movs	r3, #4
 4265 008a 4370     		strb	r3, [r0, #1]
 4266              		.loc 1 1482 0
 4267 008c 02B0     		add	sp, sp, #8
 4268              		.cfi_remember_state
 4269              		.cfi_def_cfa_offset 8
 4270              		@ sp needed
 4271 008e BDE81040 		pop	{r4, lr}
 4272              		.cfi_restore 14
 4273              		.cfi_restore 4
 4274              		.cfi_def_cfa_offset 0
 4275              	.LVL453:
 4276              		.loc 1 1472 0
 4277 0092 FFF7FEBF 		b	do_close_internal
 4278              	.LVL454:
 4279              	.L545:
 4280              		.cfi_restore_state
 4281              		.loc 1 1468 0 discriminator 2
 4282 0096 036A     		ldr	r3, [r0, #32]
 4283 0098 002B     		cmp	r3, #0
 4284 009a E7D1     		bne	.L525
 4285 009c F3E7     		b	.L526
 4286              	.L522:
 4287              		.loc 1 1466 0
 4288 009e FFF7FEFF 		bl	netconn_drain
 4289              	.LVL455:
 4290 00a2 2068     		ldr	r0, [r4]
 4291 00a4 E0E7     		b	.L524
 4292              	.L544:
 4293              		.loc 1 1462 0
 4294 00a6 F323     		movs	r3, #243
 4295 00a8 2371     		strb	r3, [r4, #4]
 4296              		.loc 1 1460 0
 4297 00aa D0E7     		b	.L520
 4298              	.L547:
 4299              		.align	2
 4300              	.L546:
 4301 00ac 4C000000 		.word	.LC2
 4302 00b0 00000000 		.word	.LC0
 4303 00b4 D4030000 		.word	.LC27
 4304 00b8 00000000 		.word	itm_port
 4305 00bc 14040000 		.word	.LC29
 4306              		.cfi_endproc
ARM GAS  C:\Users\jo\AppData\Local\Temp\ccCSMiNu.s 			page 77


 4307              	.LFE284:
 4308              		.size	do_close, .-do_close
 4309              		.section	.rodata.str1.4,"aMS",%progbits,1
 4310              		.align	2
 4311              	.LC0:
 4312 0000 41737365 		.ascii	"Assertion \"%s\" failed at line %d in %s\012\000"
 4312      7274696F 
 4312      6E202225 
 4312      73222066 
 4312      61696C65 
 4313              	.LC1:
 4314 0028 72656376 		.ascii	"recv_tcp must have a pcb argument\000"
 4314      5F746370 
 4314      206D7573 
 4314      74206861 
 4314      76652061 
 4315 004a 0000     		.space	2
 4316              	.LC2:
 4317 004c 2E2E2F2E 		.ascii	"../../../ext/lwip/src/api/api_msg.c\000"
 4317      2E2F2E2E 
 4317      2F657874 
 4317      2F6C7769 
 4317      702F7372 
 4318              	.LC3:
 4319 0070 72656376 		.ascii	"recv_tcp must have an argument\000"
 4319      5F746370 
 4319      206D7573 
 4319      74206861 
 4319      76652061 
 4320 008f 00       		.space	1
 4321              	.LC4:
 4322 0090 72656376 		.ascii	"recv_tcp: recv for wrong pcb!\000"
 4322      5F746370 
 4322      3A207265 
 4322      63762066 
 4322      6F722077 
 4323 00ae 0000     		.space	2
 4324              	.LC5:
 4325 00b0 696E7661 		.ascii	"invalid conn\000"
 4325      6C696420 
 4325      636F6E6E 
 4325      00
 4326 00bd 000000   		.space	3
 4327              	.LC6:
 4328 00c0 74686973 		.ascii	"this is for tcp netconns only\000"
 4328      20697320 
 4328      666F7220 
 4328      74637020 
 4328      6E657463 
 4329 00de 0000     		.space	2
 4330              	.LC7:
 4331 00e0 636F6E6E 		.ascii	"conn must be in state NETCONN_CLOSE\000"
 4331      206D7573 
 4331      74206265 
 4331      20696E20 
 4331      73746174 
 4332              	.LC8:
ARM GAS  C:\Users\jo\AppData\Local\Temp\ccCSMiNu.s 			page 78


 4333 0104 70636220 		.ascii	"pcb already closed\000"
 4333      616C7265 
 4333      61647920 
 4333      636C6F73 
 4333      656400
 4334 0117 00       		.space	1
 4335              	.LC9:
 4336 0118 636F6E6E 		.ascii	"conn->current_msg != NULL\000"
 4336      2D3E6375 
 4336      7272656E 
 4336      745F6D73 
 4336      6720213D 
 4337 0132 0000     		.space	2
 4338              	.LC10:
 4339 0134 436C6F73 		.ascii	"Closing a listen pcb may not fail!\000"
 4339      696E6720 
 4339      61206C69 
 4339      7374656E 
 4339      20706362 
 4340 0157 00       		.space	1
 4341              	.LC11:
 4342 0158 636F6E6E 		.ascii	"conn->state == NETCONN_WRITE\000"
 4342      2D3E7374 
 4342      61746520 
 4342      3D3D204E 
 4342      4554434F 
 4343 0175 000000   		.space	3
 4344              	.LC12:
 4345 0178 636F6E6E 		.ascii	"conn->pcb.tcp != NULL\000"
 4345      2D3E7063 
 4345      622E7463 
 4345      7020213D 
 4345      204E554C 
 4346 018e 0000     		.space	2
 4347              	.LC13:
 4348 0190 636F6E6E 		.ascii	"conn->write_offset < conn->current_msg->msg.w.len\000"
 4348      2D3E7772 
 4348      6974655F 
 4348      6F666673 
 4348      6574203C 
 4349 01c2 0000     		.space	2
 4350              	.LC14:
 4351 01c4 646F5F77 		.ascii	"do_writemore: invalid length!\000"
 4351      72697465 
 4351      6D6F7265 
 4351      3A20696E 
 4351      76616C69 
 4352 01e2 0000     		.space	2
 4353              	.LC15:
 4354 01e4 636F6E6E 		.ascii	"conn != NULL\000"
 4354      20213D20 
 4354      4E554C4C 
 4354      00
 4355 01f1 000000   		.space	3
 4356              	.LC16:
 4357 01f4 636F6E6E 		.ascii	"conn->state == NETCONN_CONNECT\000"
 4357      2D3E7374 
ARM GAS  C:\Users\jo\AppData\Local\Temp\ccCSMiNu.s 			page 79


 4357      61746520 
 4357      3D3D204E 
 4357      4554434F 
 4358 0213 00       		.space	1
 4359              	.LC17:
 4360 0214 28636F6E 		.ascii	"(conn->current_msg != NULL) || conn->in_non_blockin"
 4360      6E2D3E63 
 4360      75727265 
 4360      6E745F6D 
 4360      73672021 
 4361 0247 675F636F 		.ascii	"g_connect\000"
 4361      6E6E6563 
 4361      7400
 4362 0251 000000   		.space	3
 4363              	.LC18:
 4364 0254 636F6E6E 		.ascii	"conn->current_msg == NULL\000"
 4364      2D3E6375 
 4364      7272656E 
 4364      745F6D73 
 4364      67203D3D 
 4365 026e 0000     		.space	2
 4366              	.LC19:
 4367 0270 72656376 		.ascii	"recv_udp must have a pcb argument\000"
 4367      5F756470 
 4367      206D7573 
 4367      74206861 
 4367      76652061 
 4368 0292 0000     		.space	2
 4369              	.LC20:
 4370 0294 72656376 		.ascii	"recv_udp must have an argument\000"
 4370      5F756470 
 4370      206D7573 
 4370      74206861 
 4370      76652061 
 4371 02b3 00       		.space	1
 4372              	.LC21:
 4373 02b4 72656376 		.ascii	"recv_udp: recv for wrong pcb!\000"
 4373      5F756470 
 4373      3A207265 
 4373      63762066 
 4373      6F722077 
 4374 02d2 0000     		.space	2
 4375              	.LC22:
 4376 02d4 6E657463 		.ascii	"netconn_alloc: undefined netconn_type\000"
 4376      6F6E6E5F 
 4376      616C6C6F 
 4376      633A2075 
 4376      6E646566 
 4377 02fa 0000     		.space	2
 4378              	.LC23:
 4379 02fc 50434220 		.ascii	"PCB must be deallocated outside this function\000"
 4379      6D757374 
 4379      20626520 
 4379      6465616C 
 4379      6C6F6361 
 4380 032a 0000     		.space	2
 4381              	.LC24:
ARM GAS  C:\Users\jo\AppData\Local\Temp\ccCSMiNu.s 			page 80


 4382 032c 72656376 		.ascii	"recvmbox must be deallocated before calling this fu"
 4382      6D626F78 
 4382      206D7573 
 4382      74206265 
 4382      20646561 
 4383 035f 6E637469 		.ascii	"nction\000"
 4383      6F6E00
 4384 0366 0000     		.space	2
 4385              	.LC25:
 4386 0368 61636365 		.ascii	"acceptmbox must be deallocated before calling this "
 4386      70746D62 
 4386      6F78206D 
 4386      75737420 
 4386      62652064 
 4387 039b 66756E63 		.ascii	"function\000"
 4387      74696F6E 
 4387      00
 4388              	.LC26:
 4389 03a4 7063622D 		.ascii	"pcb->state == LISTEN (called for wrong pcb?)\000"
 4389      3E737461 
 4389      7465203D 
 4389      3D204C49 
 4389      5354454E 
 4390 03d1 000000   		.space	3
 4391              	.LC27:
 4392 03d4 6D73672D 		.ascii	"msg->conn->type == NETCONN_TCP\000"
 4392      3E636F6E 
 4392      6E2D3E74 
 4392      79706520 
 4392      3D3D204E 
 4393 03f3 00       		.space	1
 4394              	.LC28:
 4395 03f4 626C6F63 		.ascii	"blocking connect in progress\000"
 4395      6B696E67 
 4395      20636F6E 
 4395      6E656374 
 4395      20696E20 
 4396 0411 000000   		.space	3
 4397              	.LC29:
 4398 0414 616C7265 		.ascii	"already writing or closing\000"
 4398      61647920 
 4398      77726974 
 4398      696E6720 
 4398      6F722063 
 4399 042f 00       		.space	1
 4400              	.LC30:
 4401 0430 496E7661 		.ascii	"Invalid netconn type\000"
 4401      6C696420 
 4401      6E657463 
 4401      6F6E6E20 
 4401      74797065 
 4402 0445 000000   		.space	3
 4403              	.LC31:
 4404 0448 6D73672D 		.ascii	"msg->msg.w.len != 0\000"
 4404      3E6D7367 
 4404      2E772E6C 
 4404      656E2021 
ARM GAS  C:\Users\jo\AppData\Local\Temp\ccCSMiNu.s 			page 81


 4404      3D203000 
 4405              	.LC32:
 4406 045c 696E7661 		.ascii	"invalid netconn_type\000"
 4406      6C696420 
 4406      6E657463 
 4406      6F6E6E5F 
 4406      74797065 
 4407 0471 000000   		.text
 4408              	.Letext0:
 4409              		.file 4 "c:\\program files\\gnu tools arm embedded\\4.9 2014q4\\lib\\gcc\\arm-none-eabi\\4.9.3\\in
 4410              		.file 5 "c:\\program files\\gnu tools arm embedded\\4.9 2014q4\\arm-none-eabi\\include\\machine\\_
 4411              		.file 6 "c:\\program files\\gnu tools arm embedded\\4.9 2014q4\\arm-none-eabi\\include\\stdint.h"
 4412              		.file 7 "../../../os/rt/ports/ARMCMx/compilers/GCC/chtypes.h"
 4413              		.file 8 "../../../os/rt/include/chsystypes.h"
 4414              		.file 9 "../../../os/rt/include/chschd.h"
 4415              		.file 10 "../../../os/rt/ports/ARMCMx/chcore.h"
 4416              		.file 11 "../../../os/rt/ports/ARMCMx/chcore_v7m.h"
 4417              		.file 12 "../../../os/rt/include/chdebug.h"
 4418              		.file 13 "../../../os/rt/include/chtm.h"
 4419              		.file 14 "../../../os/rt/include/chsem.h"
 4420              		.file 15 "../../../os/rt/include/chmtx.h"
 4421              		.file 16 "../../../os/rt/include/chmboxes.h"
 4422              		.file 17 "../../../os/rt/include/chstreams.h"
 4423              		.file 18 "./ITM_trace.h"
 4424              		.file 19 "c:\\program files\\gnu tools arm embedded\\4.9 2014q4\\lib\\gcc\\arm-none-eabi\\4.9.3\\i
 4425              		.file 20 "<built-in>"
 4426              		.file 21 "../../../os/various/lwip_bindings/arch/cc.h"
 4427              		.file 22 "../../../ext/lwip/src/include/ipv4/lwip/ip_addr.h"
 4428              		.file 23 "../../../ext/lwip/src/include/lwip/err.h"
 4429              		.file 24 "../../../os/various/lwip_bindings/arch/sys_arch.h"
 4430              		.file 25 "../../../ext/lwip/src/include/lwip/pbuf.h"
 4431              		.file 26 "../../../ext/lwip/src/include/lwip/netbuf.h"
 4432              		.file 27 "../../../ext/lwip/src/include/lwip/api.h"
 4433              		.file 28 "../../../ext/lwip/src/include/ipv4/lwip/ip.h"
 4434              		.file 29 "../../../ext/lwip/src/include/lwip/tcp.h"
 4435              		.file 30 "../../../ext/lwip/src/include/lwip/udp.h"
 4436              		.file 31 "../../../ext/lwip/src/include/lwip/api_msg.h"
 4437              		.file 32 "../../../os/ext/CMSIS/include/core_cm4.h"
 4438              		.file 33 "../../../ext/lwip/src/include/lwip/memp.h"
 4439              		.file 34 "../../../os/rt/include/chsys.h"
 4440              		.file 35 "../../../ext/lwip/src/include/lwip/sys.h"
 4441              		.file 36 "c:\\program files\\gnu tools arm embedded\\4.9 2014q4\\arm-none-eabi\\include\\stdlib.h"
 4442              		.section	.debug_info,"",%progbits
 4443              	.Ldebug_info0:
 4444 0000 4D380000 		.4byte	0x384d
 4445 0004 0400     		.2byte	0x4
 4446 0006 00000000 		.4byte	.Ldebug_abbrev0
 4447 000a 04       		.byte	0x4
 4448 000b 01       		.uleb128 0x1
 4449 000c B1000000 		.4byte	.LASF373
 4450 0010 01       		.byte	0x1
 4451 0011 EB040000 		.4byte	.LASF374
 4452 0015 CE020000 		.4byte	.LASF375
 4453 0019 38000000 		.4byte	.Ldebug_ranges0+0x38
 4454 001d 00000000 		.4byte	0
 4455 0021 00000000 		.4byte	.Ldebug_line0
 4456 0025 02       		.uleb128 0x2
ARM GAS  C:\Users\jo\AppData\Local\Temp\ccCSMiNu.s 			page 82


 4457 0026 04       		.byte	0x4
 4458 0027 05       		.byte	0x5
 4459 0028 696E7400 		.ascii	"int\000"
 4460 002c 03       		.uleb128 0x3
 4461 002d 32060000 		.4byte	.LASF1
 4462 0031 04       		.byte	0x4
 4463 0032 D4       		.byte	0xd4
 4464 0033 37000000 		.4byte	0x37
 4465 0037 04       		.uleb128 0x4
 4466 0038 04       		.byte	0x4
 4467 0039 07       		.byte	0x7
 4468 003a 10020000 		.4byte	.LASF0
 4469 003e 03       		.uleb128 0x3
 4470 003f C10F0000 		.4byte	.LASF2
 4471 0043 05       		.byte	0x5
 4472 0044 1B       		.byte	0x1b
 4473 0045 49000000 		.4byte	0x49
 4474 0049 04       		.uleb128 0x4
 4475 004a 01       		.byte	0x1
 4476 004b 06       		.byte	0x6
 4477 004c 7C0F0000 		.4byte	.LASF3
 4478 0050 03       		.uleb128 0x3
 4479 0051 8B0C0000 		.4byte	.LASF4
 4480 0055 05       		.byte	0x5
 4481 0056 1D       		.byte	0x1d
 4482 0057 5B000000 		.4byte	0x5b
 4483 005b 04       		.uleb128 0x4
 4484 005c 01       		.byte	0x1
 4485 005d 08       		.byte	0x8
 4486 005e F60D0000 		.4byte	.LASF5
 4487 0062 03       		.uleb128 0x3
 4488 0063 6D090000 		.4byte	.LASF6
 4489 0067 05       		.byte	0x5
 4490 0068 29       		.byte	0x29
 4491 0069 6D000000 		.4byte	0x6d
 4492 006d 04       		.uleb128 0x4
 4493 006e 02       		.byte	0x2
 4494 006f 05       		.byte	0x5
 4495 0070 7A0B0000 		.4byte	.LASF7
 4496 0074 03       		.uleb128 0x3
 4497 0075 0F050000 		.4byte	.LASF8
 4498 0079 05       		.byte	0x5
 4499 007a 2B       		.byte	0x2b
 4500 007b 7F000000 		.4byte	0x7f
 4501 007f 04       		.uleb128 0x4
 4502 0080 02       		.byte	0x2
 4503 0081 07       		.byte	0x7
 4504 0082 900F0000 		.4byte	.LASF9
 4505 0086 03       		.uleb128 0x3
 4506 0087 94020000 		.4byte	.LASF10
 4507 008b 05       		.byte	0x5
 4508 008c 3F       		.byte	0x3f
 4509 008d 91000000 		.4byte	0x91
 4510 0091 04       		.uleb128 0x4
 4511 0092 04       		.byte	0x4
 4512 0093 05       		.byte	0x5
 4513 0094 B20B0000 		.4byte	.LASF11
ARM GAS  C:\Users\jo\AppData\Local\Temp\ccCSMiNu.s 			page 83


 4514 0098 03       		.uleb128 0x3
 4515 0099 35080000 		.4byte	.LASF12
 4516 009d 05       		.byte	0x5
 4517 009e 41       		.byte	0x41
 4518 009f A3000000 		.4byte	0xa3
 4519 00a3 04       		.uleb128 0x4
 4520 00a4 04       		.byte	0x4
 4521 00a5 07       		.byte	0x7
 4522 00a6 170D0000 		.4byte	.LASF13
 4523 00aa 04       		.uleb128 0x4
 4524 00ab 08       		.byte	0x8
 4525 00ac 05       		.byte	0x5
 4526 00ad FC070000 		.4byte	.LASF14
 4527 00b1 03       		.uleb128 0x3
 4528 00b2 B3060000 		.4byte	.LASF15
 4529 00b6 05       		.byte	0x5
 4530 00b7 5B       		.byte	0x5b
 4531 00b8 BC000000 		.4byte	0xbc
 4532 00bc 04       		.uleb128 0x4
 4533 00bd 08       		.byte	0x8
 4534 00be 07       		.byte	0x7
 4535 00bf AB040000 		.4byte	.LASF16
 4536 00c3 03       		.uleb128 0x3
 4537 00c4 1E070000 		.4byte	.LASF17
 4538 00c8 06       		.byte	0x6
 4539 00c9 14       		.byte	0x14
 4540 00ca 3E000000 		.4byte	0x3e
 4541 00ce 03       		.uleb128 0x3
 4542 00cf 45080000 		.4byte	.LASF18
 4543 00d3 06       		.byte	0x6
 4544 00d4 15       		.byte	0x15
 4545 00d5 50000000 		.4byte	0x50
 4546 00d9 03       		.uleb128 0x3
 4547 00da 77040000 		.4byte	.LASF19
 4548 00de 06       		.byte	0x6
 4549 00df 20       		.byte	0x20
 4550 00e0 62000000 		.4byte	0x62
 4551 00e4 03       		.uleb128 0x3
 4552 00e5 E30A0000 		.4byte	.LASF20
 4553 00e9 06       		.byte	0x6
 4554 00ea 21       		.byte	0x21
 4555 00eb 74000000 		.4byte	0x74
 4556 00ef 03       		.uleb128 0x3
 4557 00f0 570D0000 		.4byte	.LASF21
 4558 00f4 06       		.byte	0x6
 4559 00f5 2C       		.byte	0x2c
 4560 00f6 86000000 		.4byte	0x86
 4561 00fa 03       		.uleb128 0x3
 4562 00fb F7030000 		.4byte	.LASF22
 4563 00ff 06       		.byte	0x6
 4564 0100 2D       		.byte	0x2d
 4565 0101 98000000 		.4byte	0x98
 4566 0105 03       		.uleb128 0x3
 4567 0106 420C0000 		.4byte	.LASF23
 4568 010a 06       		.byte	0x6
 4569 010b 39       		.byte	0x39
 4570 010c B1000000 		.4byte	0xb1
ARM GAS  C:\Users\jo\AppData\Local\Temp\ccCSMiNu.s 			page 84


 4571 0110 05       		.uleb128 0x5
 4572 0111 EF000000 		.4byte	0xef
 4573 0115 03       		.uleb128 0x3
 4574 0116 1B0B0000 		.4byte	.LASF24
 4575 011a 07       		.byte	0x7
 4576 011b 45       		.byte	0x45
 4577 011c FA000000 		.4byte	0xfa
 4578 0120 03       		.uleb128 0x3
 4579 0121 B30A0000 		.4byte	.LASF25
 4580 0125 07       		.byte	0x7
 4581 0126 48       		.byte	0x48
 4582 0127 CE000000 		.4byte	0xce
 4583 012b 03       		.uleb128 0x3
 4584 012c E3070000 		.4byte	.LASF26
 4585 0130 07       		.byte	0x7
 4586 0131 49       		.byte	0x49
 4587 0132 CE000000 		.4byte	0xce
 4588 0136 03       		.uleb128 0x3
 4589 0137 0F0D0000 		.4byte	.LASF27
 4590 013b 07       		.byte	0x7
 4591 013c 4A       		.byte	0x4a
 4592 013d CE000000 		.4byte	0xce
 4593 0141 03       		.uleb128 0x3
 4594 0142 5E040000 		.4byte	.LASF28
 4595 0146 07       		.byte	0x7
 4596 0147 4C       		.byte	0x4c
 4597 0148 FA000000 		.4byte	0xfa
 4598 014c 03       		.uleb128 0x3
 4599 014d 37090000 		.4byte	.LASF29
 4600 0151 07       		.byte	0x7
 4601 0152 4D       		.byte	0x4d
 4602 0153 EF000000 		.4byte	0xef
 4603 0157 03       		.uleb128 0x3
 4604 0158 12040000 		.4byte	.LASF30
 4605 015c 07       		.byte	0x7
 4606 015d 4F       		.byte	0x4f
 4607 015e FA000000 		.4byte	0xfa
 4608 0162 03       		.uleb128 0x3
 4609 0163 31090000 		.4byte	.LASF31
 4610 0167 07       		.byte	0x7
 4611 0168 51       		.byte	0x51
 4612 0169 EF000000 		.4byte	0xef
 4613 016d 03       		.uleb128 0x3
 4614 016e A7010000 		.4byte	.LASF32
 4615 0172 08       		.byte	0x8
 4616 0173 33       		.byte	0x33
 4617 0174 FA000000 		.4byte	0xfa
 4618 0178 03       		.uleb128 0x3
 4619 0179 E0050000 		.4byte	.LASF33
 4620 017d 08       		.byte	0x8
 4621 017e 3F       		.byte	0x3f
 4622 017f 83010000 		.4byte	0x183
 4623 0183 06       		.uleb128 0x6
 4624 0184 92080000 		.4byte	.LASF54
 4625 0188 48       		.byte	0x48
 4626 0189 09       		.byte	0x9
 4627 018a C2       		.byte	0xc2
ARM GAS  C:\Users\jo\AppData\Local\Temp\ccCSMiNu.s 			page 85


 4628 018b 7C020000 		.4byte	0x27c
 4629 018f 07       		.uleb128 0x7
 4630 0190 F5050000 		.4byte	.LASF34
 4631 0194 09       		.byte	0x9
 4632 0195 C3       		.byte	0xc3
 4633 0196 87020000 		.4byte	0x287
 4634 019a 00       		.byte	0
 4635 019b 07       		.uleb128 0x7
 4636 019c F20C0000 		.4byte	.LASF35
 4637 01a0 09       		.byte	0x9
 4638 01a1 C5       		.byte	0xc5
 4639 01a2 87020000 		.4byte	0x287
 4640 01a6 04       		.byte	0x4
 4641 01a7 07       		.uleb128 0x7
 4642 01a8 92000000 		.4byte	.LASF36
 4643 01ac 09       		.byte	0x9
 4644 01ad C7       		.byte	0xc7
 4645 01ae 41010000 		.4byte	0x141
 4646 01b2 08       		.byte	0x8
 4647 01b3 07       		.uleb128 0x7
 4648 01b4 4B0C0000 		.4byte	.LASF37
 4649 01b8 09       		.byte	0x9
 4650 01b9 C8       		.byte	0xc8
 4651 01ba E2040000 		.4byte	0x4e2
 4652 01be 0C       		.byte	0xc
 4653 01bf 07       		.uleb128 0x7
 4654 01c0 6A050000 		.4byte	.LASF38
 4655 01c4 09       		.byte	0x9
 4656 01c5 CA       		.byte	0xca
 4657 01c6 87020000 		.4byte	0x287
 4658 01ca 10       		.byte	0x10
 4659 01cb 07       		.uleb128 0x7
 4660 01cc 18080000 		.4byte	.LASF39
 4661 01d0 09       		.byte	0x9
 4662 01d1 CB       		.byte	0xcb
 4663 01d2 87020000 		.4byte	0x287
 4664 01d6 14       		.byte	0x14
 4665 01d7 07       		.uleb128 0x7
 4666 01d8 3A070000 		.4byte	.LASF40
 4667 01dc 09       		.byte	0x9
 4668 01dd D2       		.byte	0xd2
 4669 01de F4060000 		.4byte	0x6f4
 4670 01e2 18       		.byte	0x18
 4671 01e3 07       		.uleb128 0x7
 4672 01e4 2A080000 		.4byte	.LASF41
 4673 01e8 09       		.byte	0x9
 4674 01e9 D8       		.byte	0xd8
 4675 01ea 06070000 		.4byte	0x706
 4676 01ee 1C       		.byte	0x1c
 4677 01ef 07       		.uleb128 0x7
 4678 01f0 010A0000 		.4byte	.LASF42
 4679 01f4 09       		.byte	0x9
 4680 01f5 DD       		.byte	0xdd
 4681 01f6 2B010000 		.4byte	0x12b
 4682 01fa 20       		.byte	0x20
 4683 01fb 07       		.uleb128 0x7
 4684 01fc 65090000 		.4byte	.LASF43
ARM GAS  C:\Users\jo\AppData\Local\Temp\ccCSMiNu.s 			page 86


 4685 0200 09       		.byte	0x9
 4686 0201 E1       		.byte	0xe1
 4687 0202 20010000 		.4byte	0x120
 4688 0206 21       		.byte	0x21
 4689 0207 07       		.uleb128 0x7
 4690 0208 4E0E0000 		.4byte	.LASF44
 4691 020c 09       		.byte	0x9
 4692 020d E6       		.byte	0xe6
 4693 020e 36010000 		.4byte	0x136
 4694 0212 22       		.byte	0x22
 4695 0213 08       		.uleb128 0x8
 4696 0214 705F7500 		.ascii	"p_u\000"
 4697 0218 09       		.byte	0x9
 4698 0219 3101     		.2byte	0x131
 4699 021b 2F060000 		.4byte	0x62f
 4700 021f 24       		.byte	0x24
 4701 0220 09       		.uleb128 0x9
 4702 0221 81020000 		.4byte	.LASF45
 4703 0225 09       		.byte	0x9
 4704 0226 3601     		.2byte	0x136
 4705 0228 8D020000 		.4byte	0x28d
 4706 022c 28       		.byte	0x28
 4707 022d 09       		.uleb128 0x9
 4708 022e D70F0000 		.4byte	.LASF46
 4709 0232 09       		.byte	0x9
 4710 0233 3C01     		.2byte	0x13c
 4711 0235 B1020000 		.4byte	0x2b1
 4712 0239 2C       		.byte	0x2c
 4713 023a 09       		.uleb128 0x9
 4714 023b 940A0000 		.4byte	.LASF47
 4715 023f 09       		.byte	0x9
 4716 0240 4001     		.2byte	0x140
 4717 0242 4C010000 		.4byte	0x14c
 4718 0246 34       		.byte	0x34
 4719 0247 09       		.uleb128 0x9
 4720 0248 970B0000 		.4byte	.LASF48
 4721 024c 09       		.byte	0x9
 4722 024d 4601     		.2byte	0x146
 4723 024f 57010000 		.4byte	0x157
 4724 0253 38       		.byte	0x38
 4725 0254 09       		.uleb128 0x9
 4726 0255 72080000 		.4byte	.LASF49
 4727 0259 09       		.byte	0x9
 4728 025a 4D01     		.2byte	0x14d
 4729 025c EE060000 		.4byte	0x6ee
 4730 0260 3C       		.byte	0x3c
 4731 0261 09       		.uleb128 0x9
 4732 0262 530B0000 		.4byte	.LASF50
 4733 0266 09       		.byte	0x9
 4734 0267 5101     		.2byte	0x151
 4735 0269 41010000 		.4byte	0x141
 4736 026d 40       		.byte	0x40
 4737 026e 09       		.uleb128 0x9
 4738 026f 6A080000 		.4byte	.LASF51
 4739 0273 09       		.byte	0x9
 4740 0274 5801     		.2byte	0x158
 4741 0276 64030000 		.4byte	0x364
ARM GAS  C:\Users\jo\AppData\Local\Temp\ccCSMiNu.s 			page 87


 4742 027a 44       		.byte	0x44
 4743 027b 00       		.byte	0
 4744 027c 03       		.uleb128 0x3
 4745 027d 56000000 		.4byte	.LASF52
 4746 0281 08       		.byte	0x8
 4747 0282 44       		.byte	0x44
 4748 0283 87020000 		.4byte	0x287
 4749 0287 0A       		.uleb128 0xa
 4750 0288 04       		.byte	0x4
 4751 0289 78010000 		.4byte	0x178
 4752 028d 03       		.uleb128 0x3
 4753 028e 66020000 		.4byte	.LASF53
 4754 0292 08       		.byte	0x8
 4755 0293 49       		.byte	0x49
 4756 0294 98020000 		.4byte	0x298
 4757 0298 06       		.uleb128 0x6
 4758 0299 00000000 		.4byte	.LASF55
 4759 029d 04       		.byte	0x4
 4760 029e 09       		.byte	0x9
 4761 029f B0       		.byte	0xb0
 4762 02a0 B1020000 		.4byte	0x2b1
 4763 02a4 07       		.uleb128 0x7
 4764 02a5 F5050000 		.4byte	.LASF34
 4765 02a9 09       		.byte	0x9
 4766 02aa B1       		.byte	0xb1
 4767 02ab 87020000 		.4byte	0x287
 4768 02af 00       		.byte	0
 4769 02b0 00       		.byte	0
 4770 02b1 03       		.uleb128 0x3
 4771 02b2 10000000 		.4byte	.LASF56
 4772 02b6 08       		.byte	0x8
 4773 02b7 50       		.byte	0x50
 4774 02b8 BC020000 		.4byte	0x2bc
 4775 02bc 06       		.uleb128 0x6
 4776 02bd FA080000 		.4byte	.LASF57
 4777 02c1 08       		.byte	0x8
 4778 02c2 09       		.byte	0x9
 4779 02c3 B7       		.byte	0xb7
 4780 02c4 E1020000 		.4byte	0x2e1
 4781 02c8 07       		.uleb128 0x7
 4782 02c9 F5050000 		.4byte	.LASF34
 4783 02cd 09       		.byte	0x9
 4784 02ce B8       		.byte	0xb8
 4785 02cf 87020000 		.4byte	0x287
 4786 02d3 00       		.byte	0
 4787 02d4 07       		.uleb128 0x7
 4788 02d5 F20C0000 		.4byte	.LASF35
 4789 02d9 09       		.byte	0x9
 4790 02da B9       		.byte	0xb9
 4791 02db 87020000 		.4byte	0x287
 4792 02df 04       		.byte	0x4
 4793 02e0 00       		.byte	0
 4794 02e1 03       		.uleb128 0x3
 4795 02e2 290D0000 		.4byte	.LASF58
 4796 02e6 08       		.byte	0x8
 4797 02e7 57       		.byte	0x57
 4798 02e8 EC020000 		.4byte	0x2ec
ARM GAS  C:\Users\jo\AppData\Local\Temp\ccCSMiNu.s 			page 88


 4799 02ec 0B       		.uleb128 0xb
 4800 02ed 4B030000 		.4byte	.LASF59
 4801 02f1 1C       		.byte	0x1c
 4802 02f2 09       		.byte	0x9
 4803 02f3 9001     		.2byte	0x190
 4804 02f5 48030000 		.4byte	0x348
 4805 02f9 09       		.uleb128 0x9
 4806 02fa 22090000 		.4byte	.LASF60
 4807 02fe 09       		.byte	0x9
 4808 02ff 9101     		.2byte	0x191
 4809 0301 B1020000 		.4byte	0x2b1
 4810 0305 00       		.byte	0
 4811 0306 09       		.uleb128 0x9
 4812 0307 1E040000 		.4byte	.LASF61
 4813 030b 09       		.byte	0x9
 4814 030c 9201     		.2byte	0x192
 4815 030e 41010000 		.4byte	0x141
 4816 0312 08       		.byte	0x8
 4817 0313 09       		.uleb128 0x9
 4818 0314 A30F0000 		.4byte	.LASF62
 4819 0318 09       		.byte	0x9
 4820 0319 9401     		.2byte	0x194
 4821 031b E2040000 		.4byte	0x4e2
 4822 031f 0C       		.byte	0xc
 4823 0320 09       		.uleb128 0x9
 4824 0321 AE070000 		.4byte	.LASF63
 4825 0325 09       		.byte	0x9
 4826 0326 9701     		.2byte	0x197
 4827 0328 87020000 		.4byte	0x287
 4828 032c 10       		.byte	0x10
 4829 032d 09       		.uleb128 0x9
 4830 032e 2B0A0000 		.4byte	.LASF64
 4831 0332 09       		.byte	0x9
 4832 0333 9801     		.2byte	0x198
 4833 0335 87020000 		.4byte	0x287
 4834 0339 14       		.byte	0x14
 4835 033a 09       		.uleb128 0x9
 4836 033b 8D0B0000 		.4byte	.LASF65
 4837 033f 09       		.byte	0x9
 4838 0340 9B01     		.2byte	0x19b
 4839 0342 87020000 		.4byte	0x287
 4840 0346 18       		.byte	0x18
 4841 0347 00       		.byte	0
 4842 0348 03       		.uleb128 0x3
 4843 0349 BD030000 		.4byte	.LASF66
 4844 034d 08       		.byte	0x8
 4845 034e 5C       		.byte	0x5c
 4846 034f 53030000 		.4byte	0x353
 4847 0353 0A       		.uleb128 0xa
 4848 0354 04       		.byte	0x4
 4849 0355 59030000 		.4byte	0x359
 4850 0359 0C       		.uleb128 0xc
 4851 035a 64030000 		.4byte	0x364
 4852 035e 0D       		.uleb128 0xd
 4853 035f 64030000 		.4byte	0x364
 4854 0363 00       		.byte	0
 4855 0364 0E       		.uleb128 0xe
ARM GAS  C:\Users\jo\AppData\Local\Temp\ccCSMiNu.s 			page 89


 4856 0365 04       		.byte	0x4
 4857 0366 03       		.uleb128 0x3
 4858 0367 7C090000 		.4byte	.LASF67
 4859 036b 08       		.byte	0x8
 4860 036c 61       		.byte	0x61
 4861 036d 71030000 		.4byte	0x371
 4862 0371 0B       		.uleb128 0xb
 4863 0372 66040000 		.4byte	.LASF68
 4864 0376 14       		.byte	0x14
 4865 0377 09       		.byte	0x9
 4866 0378 6B01     		.2byte	0x16b
 4867 037a C0030000 		.4byte	0x3c0
 4868 037e 09       		.uleb128 0x9
 4869 037f FA0E0000 		.4byte	.LASF69
 4870 0383 09       		.byte	0x9
 4871 0384 6C01     		.2byte	0x16c
 4872 0386 0C070000 		.4byte	0x70c
 4873 038a 00       		.byte	0
 4874 038b 09       		.uleb128 0x9
 4875 038c 2A100000 		.4byte	.LASF70
 4876 0390 09       		.byte	0x9
 4877 0391 6D01     		.2byte	0x16d
 4878 0393 0C070000 		.4byte	0x70c
 4879 0397 04       		.byte	0x4
 4880 0398 09       		.uleb128 0x9
 4881 0399 94070000 		.4byte	.LASF71
 4882 039d 09       		.byte	0x9
 4883 039e 6E01     		.2byte	0x16e
 4884 03a0 6D010000 		.4byte	0x16d
 4885 03a4 08       		.byte	0x8
 4886 03a5 09       		.uleb128 0x9
 4887 03a6 08100000 		.4byte	.LASF72
 4888 03aa 09       		.byte	0x9
 4889 03ab 6F01     		.2byte	0x16f
 4890 03ad 48030000 		.4byte	0x348
 4891 03b1 0C       		.byte	0xc
 4892 03b2 09       		.uleb128 0x9
 4893 03b3 EA0D0000 		.4byte	.LASF73
 4894 03b7 09       		.byte	0x9
 4895 03b8 7101     		.2byte	0x171
 4896 03ba 64030000 		.4byte	0x364
 4897 03be 10       		.byte	0x10
 4898 03bf 00       		.byte	0
 4899 03c0 03       		.uleb128 0x3
 4900 03c1 380E0000 		.4byte	.LASF74
 4901 03c5 08       		.byte	0x8
 4902 03c6 66       		.byte	0x66
 4903 03c7 CB030000 		.4byte	0x3cb
 4904 03cb 0B       		.uleb128 0xb
 4905 03cc 72050000 		.4byte	.LASF75
 4906 03d0 10       		.byte	0x10
 4907 03d1 09       		.byte	0x9
 4908 03d2 7B01     		.2byte	0x17b
 4909 03d4 0D040000 		.4byte	0x40d
 4910 03d8 09       		.uleb128 0x9
 4911 03d9 FA0E0000 		.4byte	.LASF69
 4912 03dd 09       		.byte	0x9
ARM GAS  C:\Users\jo\AppData\Local\Temp\ccCSMiNu.s 			page 90


 4913 03de 7C01     		.2byte	0x17c
 4914 03e0 0C070000 		.4byte	0x70c
 4915 03e4 00       		.byte	0
 4916 03e5 09       		.uleb128 0x9
 4917 03e6 2A100000 		.4byte	.LASF70
 4918 03ea 09       		.byte	0x9
 4919 03eb 7E01     		.2byte	0x17e
 4920 03ed 0C070000 		.4byte	0x70c
 4921 03f1 04       		.byte	0x4
 4922 03f2 09       		.uleb128 0x9
 4923 03f3 94070000 		.4byte	.LASF71
 4924 03f7 09       		.byte	0x9
 4925 03f8 8001     		.2byte	0x180
 4926 03fa 6D010000 		.4byte	0x16d
 4927 03fe 08       		.byte	0x8
 4928 03ff 09       		.uleb128 0x9
 4929 0400 B6070000 		.4byte	.LASF76
 4930 0404 09       		.byte	0x9
 4931 0405 8801     		.2byte	0x188
 4932 0407 6D010000 		.4byte	0x16d
 4933 040b 0C       		.byte	0xc
 4934 040c 00       		.byte	0
 4935 040d 03       		.uleb128 0x3
 4936 040e D4070000 		.4byte	.LASF77
 4937 0412 08       		.byte	0x8
 4938 0413 6B       		.byte	0x6b
 4939 0414 18040000 		.4byte	0x418
 4940 0418 0F       		.uleb128 0xf
 4941 0419 DC030000 		.4byte	.LASF78
 4942 041d 1404     		.2byte	0x414
 4943 041f 09       		.byte	0x9
 4944 0420 A201     		.2byte	0x1a2
 4945 0422 5B040000 		.4byte	0x45b
 4946 0426 09       		.uleb128 0x9
 4947 0427 600A0000 		.4byte	.LASF79
 4948 042b 09       		.byte	0x9
 4949 042c AA01     		.2byte	0x1aa
 4950 042e 12070000 		.4byte	0x712
 4951 0432 00       		.byte	0
 4952 0433 09       		.uleb128 0x9
 4953 0434 56050000 		.4byte	.LASF80
 4954 0438 09       		.byte	0x9
 4955 0439 AF01     		.2byte	0x1af
 4956 043b 62010000 		.4byte	0x162
 4957 043f 04       		.byte	0x4
 4958 0440 09       		.uleb128 0x9
 4959 0441 330B0000 		.4byte	.LASF81
 4960 0445 09       		.byte	0x9
 4961 0446 B301     		.2byte	0x1b3
 4962 0448 62010000 		.4byte	0x162
 4963 044c 08       		.byte	0x8
 4964 044d 09       		.uleb128 0x9
 4965 044e 850D0000 		.4byte	.LASF82
 4966 0452 09       		.byte	0x9
 4967 0453 B901     		.2byte	0x1b9
 4968 0455 04060000 		.4byte	0x604
 4969 0459 0C       		.byte	0xc
ARM GAS  C:\Users\jo\AppData\Local\Temp\ccCSMiNu.s 			page 91


 4970 045a 00       		.byte	0
 4971 045b 03       		.uleb128 0x3
 4972 045c 100F0000 		.4byte	.LASF83
 4973 0460 08       		.byte	0x8
 4974 0461 70       		.byte	0x70
 4975 0462 66040000 		.4byte	0x466
 4976 0466 0F       		.uleb128 0xf
 4977 0467 EC0B0000 		.4byte	.LASF84
 4978 046b 7005     		.2byte	0x570
 4979 046d 09       		.byte	0x9
 4980 046e C201     		.2byte	0x1c2
 4981 0470 C5040000 		.4byte	0x4c5
 4982 0474 09       		.uleb128 0x9
 4983 0475 510C0000 		.4byte	.LASF85
 4984 0479 09       		.byte	0x9
 4985 047a C601     		.2byte	0x1c6
 4986 047c E1020000 		.4byte	0x2e1
 4987 0480 00       		.byte	0
 4988 0481 09       		.uleb128 0x9
 4989 0482 31030000 		.4byte	.LASF86
 4990 0486 09       		.byte	0x9
 4991 0487 CA01     		.2byte	0x1ca
 4992 0489 C0030000 		.4byte	0x3c0
 4993 048d 1C       		.byte	0x1c
 4994 048e 08       		.uleb128 0x8
 4995 048f 64626700 		.ascii	"dbg\000"
 4996 0493 09       		.byte	0x9
 4997 0494 CE01     		.2byte	0x1ce
 4998 0496 0D040000 		.4byte	0x40d
 4999 049a 2C       		.byte	0x2c
 5000 049b 10       		.uleb128 0x10
 5001 049c BB0A0000 		.4byte	.LASF87
 5002 04a0 09       		.byte	0x9
 5003 04a1 D201     		.2byte	0x1d2
 5004 04a3 78010000 		.4byte	0x178
 5005 04a7 4004     		.2byte	0x440
 5006 04a9 11       		.uleb128 0x11
 5007 04aa 746D00   		.ascii	"tm\000"
 5008 04ad 09       		.byte	0x9
 5009 04ae D701     		.2byte	0x1d7
 5010 04b0 24060000 		.4byte	0x624
 5011 04b4 8804     		.2byte	0x488
 5012 04b6 10       		.uleb128 0x10
 5013 04b7 59030000 		.4byte	.LASF88
 5014 04bb 09       		.byte	0x9
 5015 04bc E301     		.2byte	0x1e3
 5016 04be 17070000 		.4byte	0x717
 5017 04c2 9004     		.2byte	0x490
 5018 04c4 00       		.byte	0
 5019 04c5 04       		.uleb128 0x4
 5020 04c6 04       		.byte	0x4
 5021 04c7 07       		.byte	0x7
 5022 04c8 420B0000 		.4byte	.LASF89
 5023 04cc 03       		.uleb128 0x3
 5024 04cd 89000000 		.4byte	.LASF90
 5025 04d1 0A       		.byte	0xa
 5026 04d2 65       		.byte	0x65
ARM GAS  C:\Users\jo\AppData\Local\Temp\ccCSMiNu.s 			page 92


 5027 04d3 64030000 		.4byte	0x364
 5028 04d7 03       		.uleb128 0x3
 5029 04d8 B60F0000 		.4byte	.LASF91
 5030 04dc 0A       		.byte	0xa
 5031 04dd 6D       		.byte	0x6d
 5032 04de 05010000 		.4byte	0x105
 5033 04e2 06       		.uleb128 0x6
 5034 04e3 740A0000 		.4byte	.LASF92
 5035 04e7 04       		.byte	0x4
 5036 04e8 0A       		.byte	0xa
 5037 04e9 89       		.byte	0x89
 5038 04ea FB040000 		.4byte	0x4fb
 5039 04ee 12       		.uleb128 0x12
 5040 04ef 72313300 		.ascii	"r13\000"
 5041 04f3 0A       		.byte	0xa
 5042 04f4 8A       		.byte	0x8a
 5043 04f5 76050000 		.4byte	0x576
 5044 04f9 00       		.byte	0
 5045 04fa 00       		.byte	0
 5046 04fb 06       		.uleb128 0x6
 5047 04fc BB0B0000 		.4byte	.LASF93
 5048 0500 24       		.byte	0x24
 5049 0501 0B       		.byte	0xb
 5050 0502 F4       		.byte	0xf4
 5051 0503 76050000 		.4byte	0x576
 5052 0507 08       		.uleb128 0x8
 5053 0508 723400   		.ascii	"r4\000"
 5054 050b 0B       		.byte	0xb
 5055 050c 0701     		.2byte	0x107
 5056 050e CC040000 		.4byte	0x4cc
 5057 0512 00       		.byte	0
 5058 0513 08       		.uleb128 0x8
 5059 0514 723500   		.ascii	"r5\000"
 5060 0517 0B       		.byte	0xb
 5061 0518 0801     		.2byte	0x108
 5062 051a CC040000 		.4byte	0x4cc
 5063 051e 04       		.byte	0x4
 5064 051f 08       		.uleb128 0x8
 5065 0520 723600   		.ascii	"r6\000"
 5066 0523 0B       		.byte	0xb
 5067 0524 0901     		.2byte	0x109
 5068 0526 CC040000 		.4byte	0x4cc
 5069 052a 08       		.byte	0x8
 5070 052b 08       		.uleb128 0x8
 5071 052c 723700   		.ascii	"r7\000"
 5072 052f 0B       		.byte	0xb
 5073 0530 0A01     		.2byte	0x10a
 5074 0532 CC040000 		.4byte	0x4cc
 5075 0536 0C       		.byte	0xc
 5076 0537 08       		.uleb128 0x8
 5077 0538 723800   		.ascii	"r8\000"
 5078 053b 0B       		.byte	0xb
 5079 053c 0B01     		.2byte	0x10b
 5080 053e CC040000 		.4byte	0x4cc
 5081 0542 10       		.byte	0x10
 5082 0543 08       		.uleb128 0x8
 5083 0544 723900   		.ascii	"r9\000"
ARM GAS  C:\Users\jo\AppData\Local\Temp\ccCSMiNu.s 			page 93


 5084 0547 0B       		.byte	0xb
 5085 0548 0C01     		.2byte	0x10c
 5086 054a CC040000 		.4byte	0x4cc
 5087 054e 14       		.byte	0x14
 5088 054f 08       		.uleb128 0x8
 5089 0550 72313000 		.ascii	"r10\000"
 5090 0554 0B       		.byte	0xb
 5091 0555 0D01     		.2byte	0x10d
 5092 0557 CC040000 		.4byte	0x4cc
 5093 055b 18       		.byte	0x18
 5094 055c 08       		.uleb128 0x8
 5095 055d 72313100 		.ascii	"r11\000"
 5096 0561 0B       		.byte	0xb
 5097 0562 0E01     		.2byte	0x10e
 5098 0564 CC040000 		.4byte	0x4cc
 5099 0568 1C       		.byte	0x1c
 5100 0569 08       		.uleb128 0x8
 5101 056a 6C7200   		.ascii	"lr\000"
 5102 056d 0B       		.byte	0xb
 5103 056e 0F01     		.2byte	0x10f
 5104 0570 CC040000 		.4byte	0x4cc
 5105 0574 20       		.byte	0x20
 5106 0575 00       		.byte	0
 5107 0576 0A       		.uleb128 0xa
 5108 0577 04       		.byte	0x4
 5109 0578 FB040000 		.4byte	0x4fb
 5110 057c 13       		.uleb128 0x13
 5111 057d 10       		.byte	0x10
 5112 057e 0C       		.byte	0xc
 5113 057f 51       		.byte	0x51
 5114 0580 B5050000 		.4byte	0x5b5
 5115 0584 07       		.uleb128 0x7
 5116 0585 D8050000 		.4byte	.LASF94
 5117 0589 0C       		.byte	0xc
 5118 058a 55       		.byte	0x55
 5119 058b 6D010000 		.4byte	0x16d
 5120 058f 00       		.byte	0
 5121 0590 07       		.uleb128 0x7
 5122 0591 EC070000 		.4byte	.LASF95
 5123 0595 0C       		.byte	0xc
 5124 0596 59       		.byte	0x59
 5125 0597 87020000 		.4byte	0x287
 5126 059b 04       		.byte	0x4
 5127 059c 07       		.uleb128 0x7
 5128 059d C2040000 		.4byte	.LASF96
 5129 05a1 0C       		.byte	0xc
 5130 05a2 5D       		.byte	0x5d
 5131 05a3 64030000 		.4byte	0x364
 5132 05a7 08       		.byte	0x8
 5133 05a8 07       		.uleb128 0x7
 5134 05a9 07020000 		.4byte	.LASF97
 5135 05ad 0C       		.byte	0xc
 5136 05ae 61       		.byte	0x61
 5137 05af CE000000 		.4byte	0xce
 5138 05b3 0C       		.byte	0xc
 5139 05b4 00       		.byte	0
 5140 05b5 03       		.uleb128 0x3
ARM GAS  C:\Users\jo\AppData\Local\Temp\ccCSMiNu.s 			page 94


 5141 05b6 BF0D0000 		.4byte	.LASF98
 5142 05ba 0C       		.byte	0xc
 5143 05bb 62       		.byte	0x62
 5144 05bc 7C050000 		.4byte	0x57c
 5145 05c0 14       		.uleb128 0x14
 5146 05c1 0804     		.2byte	0x408
 5147 05c3 0C       		.byte	0xc
 5148 05c4 67       		.byte	0x67
 5149 05c5 EE050000 		.4byte	0x5ee
 5150 05c9 07       		.uleb128 0x7
 5151 05ca 9C080000 		.4byte	.LASF99
 5152 05ce 0C       		.byte	0xc
 5153 05cf 6B       		.byte	0x6b
 5154 05d0 37000000 		.4byte	0x37
 5155 05d4 00       		.byte	0
 5156 05d5 07       		.uleb128 0x7
 5157 05d6 100A0000 		.4byte	.LASF100
 5158 05da 0C       		.byte	0xc
 5159 05db 6F       		.byte	0x6f
 5160 05dc EE050000 		.4byte	0x5ee
 5161 05e0 04       		.byte	0x4
 5162 05e1 07       		.uleb128 0x7
 5163 05e2 58080000 		.4byte	.LASF101
 5164 05e6 0C       		.byte	0xc
 5165 05e7 73       		.byte	0x73
 5166 05e8 F4050000 		.4byte	0x5f4
 5167 05ec 08       		.byte	0x8
 5168 05ed 00       		.byte	0
 5169 05ee 0A       		.uleb128 0xa
 5170 05ef 04       		.byte	0x4
 5171 05f0 B5050000 		.4byte	0x5b5
 5172 05f4 15       		.uleb128 0x15
 5173 05f5 B5050000 		.4byte	0x5b5
 5174 05f9 04060000 		.4byte	0x604
 5175 05fd 16       		.uleb128 0x16
 5176 05fe C5040000 		.4byte	0x4c5
 5177 0602 3F       		.byte	0x3f
 5178 0603 00       		.byte	0
 5179 0604 03       		.uleb128 0x3
 5180 0605 5B0F0000 		.4byte	.LASF102
 5181 0609 0C       		.byte	0xc
 5182 060a 74       		.byte	0x74
 5183 060b C0050000 		.4byte	0x5c0
 5184 060f 13       		.uleb128 0x13
 5185 0610 04       		.byte	0x4
 5186 0611 0D       		.byte	0xd
 5187 0612 38       		.byte	0x38
 5188 0613 24060000 		.4byte	0x624
 5189 0617 07       		.uleb128 0x7
 5190 0618 48060000 		.4byte	.LASF103
 5191 061c 0D       		.byte	0xd
 5192 061d 3C       		.byte	0x3c
 5193 061e 15010000 		.4byte	0x115
 5194 0622 00       		.byte	0
 5195 0623 00       		.byte	0
 5196 0624 03       		.uleb128 0x3
 5197 0625 9A0A0000 		.4byte	.LASF104
ARM GAS  C:\Users\jo\AppData\Local\Temp\ccCSMiNu.s 			page 95


 5198 0629 0D       		.byte	0xd
 5199 062a 3D       		.byte	0x3d
 5200 062b 0F060000 		.4byte	0x60f
 5201 062f 17       		.uleb128 0x17
 5202 0630 04       		.byte	0x4
 5203 0631 09       		.byte	0x9
 5204 0632 FA       		.byte	0xfa
 5205 0633 8C060000 		.4byte	0x68c
 5206 0637 18       		.uleb128 0x18
 5207 0638 39060000 		.4byte	.LASF105
 5208 063c 09       		.byte	0x9
 5209 063d 0101     		.2byte	0x101
 5210 063f 4C010000 		.4byte	0x14c
 5211 0643 18       		.uleb128 0x18
 5212 0644 8A100000 		.4byte	.LASF106
 5213 0648 09       		.byte	0x9
 5214 0649 0801     		.2byte	0x108
 5215 064b 4C010000 		.4byte	0x14c
 5216 064f 18       		.uleb128 0x18
 5217 0650 C6030000 		.4byte	.LASF107
 5218 0654 09       		.byte	0x9
 5219 0655 0F01     		.2byte	0x10f
 5220 0657 64030000 		.4byte	0x364
 5221 065b 18       		.uleb128 0x18
 5222 065c 72100000 		.4byte	.LASF108
 5223 0660 09       		.byte	0x9
 5224 0661 1601     		.2byte	0x116
 5225 0663 8C060000 		.4byte	0x68c
 5226 0667 18       		.uleb128 0x18
 5227 0668 920D0000 		.4byte	.LASF109
 5228 066c 09       		.byte	0x9
 5229 066d 1E01     		.2byte	0x11e
 5230 066f B7060000 		.4byte	0x6b7
 5231 0673 18       		.uleb128 0x18
 5232 0674 3B000000 		.4byte	.LASF110
 5233 0678 09       		.byte	0x9
 5234 0679 2701     		.2byte	0x127
 5235 067b EE060000 		.4byte	0x6ee
 5236 067f 18       		.uleb128 0x18
 5237 0680 6D030000 		.4byte	.LASF111
 5238 0684 09       		.byte	0x9
 5239 0685 2F01     		.2byte	0x12f
 5240 0687 57010000 		.4byte	0x157
 5241 068b 00       		.byte	0
 5242 068c 0A       		.uleb128 0xa
 5243 068d 04       		.byte	0x4
 5244 068e 7C020000 		.4byte	0x27c
 5245 0692 06       		.uleb128 0x6
 5246 0693 4A040000 		.4byte	.LASF112
 5247 0697 0C       		.byte	0xc
 5248 0698 0E       		.byte	0xe
 5249 0699 34       		.byte	0x34
 5250 069a B7060000 		.4byte	0x6b7
 5251 069e 07       		.uleb128 0x7
 5252 069f D7010000 		.4byte	.LASF113
 5253 06a3 0E       		.byte	0xe
 5254 06a4 35       		.byte	0x35
ARM GAS  C:\Users\jo\AppData\Local\Temp\ccCSMiNu.s 			page 96


 5255 06a5 B1020000 		.4byte	0x2b1
 5256 06a9 00       		.byte	0
 5257 06aa 07       		.uleb128 0x7
 5258 06ab D6030000 		.4byte	.LASF114
 5259 06af 0E       		.byte	0xe
 5260 06b0 37       		.byte	0x37
 5261 06b1 62010000 		.4byte	0x162
 5262 06b5 08       		.byte	0x8
 5263 06b6 00       		.byte	0
 5264 06b7 0A       		.uleb128 0xa
 5265 06b8 04       		.byte	0x4
 5266 06b9 92060000 		.4byte	0x692
 5267 06bd 06       		.uleb128 0x6
 5268 06be A1060000 		.4byte	.LASF115
 5269 06c2 10       		.byte	0x10
 5270 06c3 0F       		.byte	0xf
 5271 06c4 39       		.byte	0x39
 5272 06c5 EE060000 		.4byte	0x6ee
 5273 06c9 07       		.uleb128 0x7
 5274 06ca A20B0000 		.4byte	.LASF116
 5275 06ce 0F       		.byte	0xf
 5276 06cf 3A       		.byte	0x3a
 5277 06d0 B1020000 		.4byte	0x2b1
 5278 06d4 00       		.byte	0
 5279 06d5 07       		.uleb128 0x7
 5280 06d6 CF010000 		.4byte	.LASF117
 5281 06da 0F       		.byte	0xf
 5282 06db 3C       		.byte	0x3c
 5283 06dc 87020000 		.4byte	0x287
 5284 06e0 08       		.byte	0x8
 5285 06e1 07       		.uleb128 0x7
 5286 06e2 6D0F0000 		.4byte	.LASF118
 5287 06e6 0F       		.byte	0xf
 5288 06e7 3E       		.byte	0x3e
 5289 06e8 3D070000 		.4byte	0x73d
 5290 06ec 0C       		.byte	0xc
 5291 06ed 00       		.byte	0
 5292 06ee 0A       		.uleb128 0xa
 5293 06ef 04       		.byte	0x4
 5294 06f0 BD060000 		.4byte	0x6bd
 5295 06f4 0A       		.uleb128 0xa
 5296 06f5 04       		.byte	0x4
 5297 06f6 FA060000 		.4byte	0x6fa
 5298 06fa 19       		.uleb128 0x19
 5299 06fb FF060000 		.4byte	0x6ff
 5300 06ff 04       		.uleb128 0x4
 5301 0700 01       		.byte	0x1
 5302 0701 08       		.byte	0x8
 5303 0702 2E0F0000 		.4byte	.LASF119
 5304 0706 0A       		.uleb128 0xa
 5305 0707 04       		.byte	0x4
 5306 0708 D7040000 		.4byte	0x4d7
 5307 070c 0A       		.uleb128 0xa
 5308 070d 04       		.byte	0x4
 5309 070e 66030000 		.4byte	0x366
 5310 0712 05       		.uleb128 0x5
 5311 0713 F4060000 		.4byte	0x6f4
ARM GAS  C:\Users\jo\AppData\Local\Temp\ccCSMiNu.s 			page 97


 5312 0717 15       		.uleb128 0x15
 5313 0718 D7040000 		.4byte	0x4d7
 5314 071c 27070000 		.4byte	0x727
 5315 0720 16       		.uleb128 0x16
 5316 0721 C5040000 		.4byte	0x4c5
 5317 0725 1B       		.byte	0x1b
 5318 0726 00       		.byte	0
 5319 0727 03       		.uleb128 0x3
 5320 0728 5E050000 		.4byte	.LASF120
 5321 072c 0E       		.byte	0xe
 5322 072d 38       		.byte	0x38
 5323 072e 92060000 		.4byte	0x692
 5324 0732 03       		.uleb128 0x3
 5325 0733 D50D0000 		.4byte	.LASF121
 5326 0737 0F       		.byte	0xf
 5327 0738 34       		.byte	0x34
 5328 0739 BD060000 		.4byte	0x6bd
 5329 073d 0A       		.uleb128 0xa
 5330 073e 04       		.byte	0x4
 5331 073f 32070000 		.4byte	0x732
 5332 0743 13       		.uleb128 0x13
 5333 0744 28       		.byte	0x28
 5334 0745 10       		.byte	0x10
 5335 0746 38       		.byte	0x38
 5336 0747 94070000 		.4byte	0x794
 5337 074b 07       		.uleb128 0x7
 5338 074c 20080000 		.4byte	.LASF122
 5339 0750 10       		.byte	0x10
 5340 0751 39       		.byte	0x39
 5341 0752 94070000 		.4byte	0x794
 5342 0756 00       		.byte	0
 5343 0757 07       		.uleb128 0x7
 5344 0758 090A0000 		.4byte	.LASF123
 5345 075c 10       		.byte	0x10
 5346 075d 3B       		.byte	0x3b
 5347 075e 94070000 		.4byte	0x794
 5348 0762 04       		.byte	0x4
 5349 0763 07       		.uleb128 0x7
 5350 0764 840B0000 		.4byte	.LASF124
 5351 0768 10       		.byte	0x10
 5352 0769 3D       		.byte	0x3d
 5353 076a 94070000 		.4byte	0x794
 5354 076e 08       		.byte	0x8
 5355 076f 07       		.uleb128 0x7
 5356 0770 68060000 		.4byte	.LASF125
 5357 0774 10       		.byte	0x10
 5358 0775 3E       		.byte	0x3e
 5359 0776 94070000 		.4byte	0x794
 5360 077a 0C       		.byte	0xc
 5361 077b 07       		.uleb128 0x7
 5362 077c 4D080000 		.4byte	.LASF126
 5363 0780 10       		.byte	0x10
 5364 0781 3F       		.byte	0x3f
 5365 0782 27070000 		.4byte	0x727
 5366 0786 10       		.byte	0x10
 5367 0787 07       		.uleb128 0x7
 5368 0788 DE060000 		.4byte	.LASF127
ARM GAS  C:\Users\jo\AppData\Local\Temp\ccCSMiNu.s 			page 98


 5369 078c 10       		.byte	0x10
 5370 078d 41       		.byte	0x41
 5371 078e 27070000 		.4byte	0x727
 5372 0792 1C       		.byte	0x1c
 5373 0793 00       		.byte	0
 5374 0794 0A       		.uleb128 0xa
 5375 0795 04       		.byte	0x4
 5376 0796 4C010000 		.4byte	0x14c
 5377 079a 03       		.uleb128 0x3
 5378 079b 8F060000 		.4byte	.LASF128
 5379 079f 10       		.byte	0x10
 5380 07a0 43       		.byte	0x43
 5381 07a1 43070000 		.4byte	0x743
 5382 07a5 0A       		.uleb128 0xa
 5383 07a6 04       		.byte	0x4
 5384 07a7 CE000000 		.4byte	0xce
 5385 07ab 06       		.uleb128 0x6
 5386 07ac 9E020000 		.4byte	.LASF129
 5387 07b0 10       		.byte	0x10
 5388 07b1 11       		.byte	0x11
 5389 07b2 40       		.byte	0x40
 5390 07b3 E8070000 		.4byte	0x7e8
 5391 07b7 07       		.uleb128 0x7
 5392 07b8 CA0F0000 		.4byte	.LASF130
 5393 07bc 11       		.byte	0x11
 5394 07bd 41       		.byte	0x41
 5395 07be 0C080000 		.4byte	0x80c
 5396 07c2 00       		.byte	0
 5397 07c3 07       		.uleb128 0x7
 5398 07c4 AD0C0000 		.4byte	.LASF131
 5399 07c8 11       		.byte	0x11
 5400 07c9 41       		.byte	0x41
 5401 07ca 2B080000 		.4byte	0x82b
 5402 07ce 04       		.byte	0x4
 5403 07cf 12       		.uleb128 0x12
 5404 07d0 70757400 		.ascii	"put\000"
 5405 07d4 11       		.byte	0x11
 5406 07d5 41       		.byte	0x41
 5407 07d6 45080000 		.4byte	0x845
 5408 07da 08       		.byte	0x8
 5409 07db 12       		.uleb128 0x12
 5410 07dc 67657400 		.ascii	"get\000"
 5411 07e0 11       		.byte	0x11
 5412 07e1 41       		.byte	0x41
 5413 07e2 5A080000 		.4byte	0x85a
 5414 07e6 0C       		.byte	0xc
 5415 07e7 00       		.byte	0
 5416 07e8 1A       		.uleb128 0x1a
 5417 07e9 2C000000 		.4byte	0x2c
 5418 07ed 01080000 		.4byte	0x801
 5419 07f1 0D       		.uleb128 0xd
 5420 07f2 64030000 		.4byte	0x364
 5421 07f6 0D       		.uleb128 0xd
 5422 07f7 01080000 		.4byte	0x801
 5423 07fb 0D       		.uleb128 0xd
 5424 07fc 2C000000 		.4byte	0x2c
 5425 0800 00       		.byte	0
ARM GAS  C:\Users\jo\AppData\Local\Temp\ccCSMiNu.s 			page 99


 5426 0801 0A       		.uleb128 0xa
 5427 0802 04       		.byte	0x4
 5428 0803 07080000 		.4byte	0x807
 5429 0807 19       		.uleb128 0x19
 5430 0808 CE000000 		.4byte	0xce
 5431 080c 0A       		.uleb128 0xa
 5432 080d 04       		.byte	0x4
 5433 080e E8070000 		.4byte	0x7e8
 5434 0812 1A       		.uleb128 0x1a
 5435 0813 2C000000 		.4byte	0x2c
 5436 0817 2B080000 		.4byte	0x82b
 5437 081b 0D       		.uleb128 0xd
 5438 081c 64030000 		.4byte	0x364
 5439 0820 0D       		.uleb128 0xd
 5440 0821 A5070000 		.4byte	0x7a5
 5441 0825 0D       		.uleb128 0xd
 5442 0826 2C000000 		.4byte	0x2c
 5443 082a 00       		.byte	0
 5444 082b 0A       		.uleb128 0xa
 5445 082c 04       		.byte	0x4
 5446 082d 12080000 		.4byte	0x812
 5447 0831 1A       		.uleb128 0x1a
 5448 0832 4C010000 		.4byte	0x14c
 5449 0836 45080000 		.4byte	0x845
 5450 083a 0D       		.uleb128 0xd
 5451 083b 64030000 		.4byte	0x364
 5452 083f 0D       		.uleb128 0xd
 5453 0840 CE000000 		.4byte	0xce
 5454 0844 00       		.byte	0
 5455 0845 0A       		.uleb128 0xa
 5456 0846 04       		.byte	0x4
 5457 0847 31080000 		.4byte	0x831
 5458 084b 1A       		.uleb128 0x1a
 5459 084c 4C010000 		.4byte	0x14c
 5460 0850 5A080000 		.4byte	0x85a
 5461 0854 0D       		.uleb128 0xd
 5462 0855 64030000 		.4byte	0x364
 5463 0859 00       		.byte	0
 5464 085a 0A       		.uleb128 0xa
 5465 085b 04       		.byte	0x4
 5466 085c 4B080000 		.4byte	0x84b
 5467 0860 13       		.uleb128 0x13
 5468 0861 04       		.byte	0x4
 5469 0862 11       		.byte	0x11
 5470 0863 49       		.byte	0x49
 5471 0864 75080000 		.4byte	0x875
 5472 0868 12       		.uleb128 0x12
 5473 0869 766D7400 		.ascii	"vmt\000"
 5474 086d 11       		.byte	0x11
 5475 086e 4B       		.byte	0x4b
 5476 086f 75080000 		.4byte	0x875
 5477 0873 00       		.byte	0
 5478 0874 00       		.byte	0
 5479 0875 0A       		.uleb128 0xa
 5480 0876 04       		.byte	0x4
 5481 0877 7B080000 		.4byte	0x87b
 5482 087b 19       		.uleb128 0x19
ARM GAS  C:\Users\jo\AppData\Local\Temp\ccCSMiNu.s 			page 100


 5483 087c AB070000 		.4byte	0x7ab
 5484 0880 03       		.uleb128 0x3
 5485 0881 41070000 		.4byte	.LASF132
 5486 0885 11       		.byte	0x11
 5487 0886 4D       		.byte	0x4d
 5488 0887 60080000 		.4byte	0x860
 5489 088b 04       		.uleb128 0x4
 5490 088c 01       		.byte	0x1
 5491 088d 02       		.byte	0x2
 5492 088e 62060000 		.4byte	.LASF133
 5493 0892 06       		.uleb128 0x6
 5494 0893 98090000 		.4byte	.LASF134
 5495 0897 10       		.byte	0x10
 5496 0898 12       		.byte	0x12
 5497 0899 2E       		.byte	0x2e
 5498 089a CF080000 		.4byte	0x8cf
 5499 089e 07       		.uleb128 0x7
 5500 089f CA0F0000 		.4byte	.LASF130
 5501 08a3 12       		.byte	0x12
 5502 08a4 2F       		.byte	0x2f
 5503 08a5 0C080000 		.4byte	0x80c
 5504 08a9 00       		.byte	0
 5505 08aa 07       		.uleb128 0x7
 5506 08ab AD0C0000 		.4byte	.LASF131
 5507 08af 12       		.byte	0x12
 5508 08b0 2F       		.byte	0x2f
 5509 08b1 2B080000 		.4byte	0x82b
 5510 08b5 04       		.byte	0x4
 5511 08b6 12       		.uleb128 0x12
 5512 08b7 70757400 		.ascii	"put\000"
 5513 08bb 12       		.byte	0x12
 5514 08bc 2F       		.byte	0x2f
 5515 08bd 45080000 		.4byte	0x845
 5516 08c1 08       		.byte	0x8
 5517 08c2 12       		.uleb128 0x12
 5518 08c3 67657400 		.ascii	"get\000"
 5519 08c7 12       		.byte	0x12
 5520 08c8 2F       		.byte	0x2f
 5521 08c9 5A080000 		.4byte	0x85a
 5522 08cd 0C       		.byte	0xc
 5523 08ce 00       		.byte	0
 5524 08cf 13       		.uleb128 0x13
 5525 08d0 04       		.byte	0x4
 5526 08d1 12       		.byte	0x12
 5527 08d2 39       		.byte	0x39
 5528 08d3 E4080000 		.4byte	0x8e4
 5529 08d7 12       		.uleb128 0x12
 5530 08d8 766D7400 		.ascii	"vmt\000"
 5531 08dc 12       		.byte	0x12
 5532 08dd 3B       		.byte	0x3b
 5533 08de E4080000 		.4byte	0x8e4
 5534 08e2 00       		.byte	0
 5535 08e3 00       		.byte	0
 5536 08e4 0A       		.uleb128 0xa
 5537 08e5 04       		.byte	0x4
 5538 08e6 EA080000 		.4byte	0x8ea
 5539 08ea 19       		.uleb128 0x19
ARM GAS  C:\Users\jo\AppData\Local\Temp\ccCSMiNu.s 			page 101


 5540 08eb 92080000 		.4byte	0x892
 5541 08ef 03       		.uleb128 0x3
 5542 08f0 4E0A0000 		.4byte	.LASF135
 5543 08f4 12       		.byte	0x12
 5544 08f5 3D       		.byte	0x3d
 5545 08f6 CF080000 		.4byte	0x8cf
 5546 08fa 03       		.uleb128 0x3
 5547 08fb 0B060000 		.4byte	.LASF136
 5548 08ff 13       		.byte	0x13
 5549 0900 28       		.byte	0x28
 5550 0901 05090000 		.4byte	0x905
 5551 0905 06       		.uleb128 0x6
 5552 0906 4C0F0000 		.4byte	.LASF137
 5553 090a 04       		.byte	0x4
 5554 090b 14       		.byte	0x14
 5555 090c 00       		.byte	0
 5556 090d 1C090000 		.4byte	0x91c
 5557 0911 1B       		.uleb128 0x1b
 5558 0912 77090000 		.4byte	.LASF138
 5559 0916 64030000 		.4byte	0x364
 5560 091a 00       		.byte	0
 5561 091b 00       		.byte	0
 5562 091c 03       		.uleb128 0x3
 5563 091d C6080000 		.4byte	.LASF139
 5564 0921 13       		.byte	0x13
 5565 0922 62       		.byte	0x62
 5566 0923 FA080000 		.4byte	0x8fa
 5567 0927 03       		.uleb128 0x3
 5568 0928 52090000 		.4byte	.LASF140
 5569 092c 15       		.byte	0x15
 5570 092d 3F       		.byte	0x3f
 5571 092e CE000000 		.4byte	0xce
 5572 0932 03       		.uleb128 0x3
 5573 0933 C7060000 		.4byte	.LASF141
 5574 0937 15       		.byte	0x15
 5575 0938 40       		.byte	0x40
 5576 0939 C3000000 		.4byte	0xc3
 5577 093d 03       		.uleb128 0x3
 5578 093e BE020000 		.4byte	.LASF142
 5579 0942 15       		.byte	0x15
 5580 0943 41       		.byte	0x41
 5581 0944 E4000000 		.4byte	0xe4
 5582 0948 03       		.uleb128 0x3
 5583 0949 510D0000 		.4byte	.LASF143
 5584 094d 15       		.byte	0x15
 5585 094e 42       		.byte	0x42
 5586 094f D9000000 		.4byte	0xd9
 5587 0953 03       		.uleb128 0x3
 5588 0954 330F0000 		.4byte	.LASF144
 5589 0958 15       		.byte	0x15
 5590 0959 43       		.byte	0x43
 5591 095a FA000000 		.4byte	0xfa
 5592 095e 06       		.uleb128 0x6
 5593 095f 9C100000 		.4byte	.LASF145
 5594 0963 04       		.byte	0x4
 5595 0964 16       		.byte	0x16
 5596 0965 2C       		.byte	0x2c
ARM GAS  C:\Users\jo\AppData\Local\Temp\ccCSMiNu.s 			page 102


 5597 0966 77090000 		.4byte	0x977
 5598 096a 07       		.uleb128 0x7
 5599 096b D30E0000 		.4byte	.LASF146
 5600 096f 16       		.byte	0x16
 5601 0970 2D       		.byte	0x2d
 5602 0971 53090000 		.4byte	0x953
 5603 0975 00       		.byte	0
 5604 0976 00       		.byte	0
 5605 0977 03       		.uleb128 0x3
 5606 0978 42100000 		.4byte	.LASF147
 5607 097c 16       		.byte	0x16
 5608 097d 40       		.byte	0x40
 5609 097e 5E090000 		.4byte	0x95e
 5610 0982 03       		.uleb128 0x3
 5611 0983 75020000 		.4byte	.LASF148
 5612 0987 17       		.byte	0x17
 5613 0988 2F       		.byte	0x2f
 5614 0989 32090000 		.4byte	0x932
 5615 098d 03       		.uleb128 0x3
 5616 098e C4020000 		.4byte	.LASF149
 5617 0992 18       		.byte	0x18
 5618 0993 38       		.byte	0x38
 5619 0994 98090000 		.4byte	0x998
 5620 0998 0A       		.uleb128 0xa
 5621 0999 04       		.byte	0x4
 5622 099a 27070000 		.4byte	0x727
 5623 099e 03       		.uleb128 0x3
 5624 099f 040D0000 		.4byte	.LASF150
 5625 09a3 18       		.byte	0x18
 5626 09a4 39       		.byte	0x39
 5627 09a5 A9090000 		.4byte	0x9a9
 5628 09a9 0A       		.uleb128 0xa
 5629 09aa 04       		.byte	0x4
 5630 09ab 9A070000 		.4byte	0x79a
 5631 09af 06       		.uleb128 0x6
 5632 09b0 7E0E0000 		.4byte	.LASF151
 5633 09b4 10       		.byte	0x10
 5634 09b5 19       		.byte	0x19
 5635 09b6 4F       		.byte	0x4f
 5636 09b7 100A0000 		.4byte	0xa10
 5637 09bb 07       		.uleb128 0x7
 5638 09bc 2E020000 		.4byte	.LASF152
 5639 09c0 19       		.byte	0x19
 5640 09c1 51       		.byte	0x51
 5641 09c2 100A0000 		.4byte	0xa10
 5642 09c6 00       		.byte	0
 5643 09c7 07       		.uleb128 0x7
 5644 09c8 40060000 		.4byte	.LASF153
 5645 09cc 19       		.byte	0x19
 5646 09cd 54       		.byte	0x54
 5647 09ce 64030000 		.4byte	0x364
 5648 09d2 04       		.byte	0x4
 5649 09d3 07       		.uleb128 0x7
 5650 09d4 23060000 		.4byte	.LASF154
 5651 09d8 19       		.byte	0x19
 5652 09d9 5D       		.byte	0x5d
 5653 09da 3D090000 		.4byte	0x93d
ARM GAS  C:\Users\jo\AppData\Local\Temp\ccCSMiNu.s 			page 103


 5654 09de 08       		.byte	0x8
 5655 09df 12       		.uleb128 0x12
 5656 09e0 6C656E00 		.ascii	"len\000"
 5657 09e4 19       		.byte	0x19
 5658 09e5 60       		.byte	0x60
 5659 09e6 3D090000 		.4byte	0x93d
 5660 09ea 0A       		.byte	0xa
 5661 09eb 07       		.uleb128 0x7
 5662 09ec F10D0000 		.4byte	.LASF155
 5663 09f0 19       		.byte	0x19
 5664 09f1 63       		.byte	0x63
 5665 09f2 27090000 		.4byte	0x927
 5666 09f6 0C       		.byte	0xc
 5667 09f7 07       		.uleb128 0x7
 5668 09f8 A1010000 		.4byte	.LASF156
 5669 09fc 19       		.byte	0x19
 5670 09fd 66       		.byte	0x66
 5671 09fe 27090000 		.4byte	0x927
 5672 0a02 0D       		.byte	0xd
 5673 0a03 12       		.uleb128 0x12
 5674 0a04 72656600 		.ascii	"ref\000"
 5675 0a08 19       		.byte	0x19
 5676 0a09 6D       		.byte	0x6d
 5677 0a0a 3D090000 		.4byte	0x93d
 5678 0a0e 0E       		.byte	0xe
 5679 0a0f 00       		.byte	0
 5680 0a10 0A       		.uleb128 0xa
 5681 0a11 04       		.byte	0x4
 5682 0a12 AF090000 		.4byte	0x9af
 5683 0a16 0A       		.uleb128 0xa
 5684 0a17 04       		.byte	0x4
 5685 0a18 77090000 		.4byte	0x977
 5686 0a1c 06       		.uleb128 0x6
 5687 0a1d 8D070000 		.4byte	.LASF157
 5688 0a21 10       		.byte	0x10
 5689 0a22 1A       		.byte	0x1a
 5690 0a23 30       		.byte	0x30
 5691 0a24 570A0000 		.4byte	0xa57
 5692 0a28 12       		.uleb128 0x12
 5693 0a29 7000     		.ascii	"p\000"
 5694 0a2b 1A       		.byte	0x1a
 5695 0a2c 31       		.byte	0x31
 5696 0a2d 100A0000 		.4byte	0xa10
 5697 0a31 00       		.byte	0
 5698 0a32 12       		.uleb128 0x12
 5699 0a33 70747200 		.ascii	"ptr\000"
 5700 0a37 1A       		.byte	0x1a
 5701 0a38 31       		.byte	0x31
 5702 0a39 100A0000 		.4byte	0xa10
 5703 0a3d 04       		.byte	0x4
 5704 0a3e 07       		.uleb128 0x7
 5705 0a3f D30E0000 		.4byte	.LASF146
 5706 0a43 1A       		.byte	0x1a
 5707 0a44 32       		.byte	0x32
 5708 0a45 77090000 		.4byte	0x977
 5709 0a49 08       		.byte	0x8
 5710 0a4a 07       		.uleb128 0x7
ARM GAS  C:\Users\jo\AppData\Local\Temp\ccCSMiNu.s 			page 104


 5711 0a4b 5E070000 		.4byte	.LASF158
 5712 0a4f 1A       		.byte	0x1a
 5713 0a50 33       		.byte	0x33
 5714 0a51 3D090000 		.4byte	0x93d
 5715 0a55 0C       		.byte	0xc
 5716 0a56 00       		.byte	0
 5717 0a57 1C       		.uleb128 0x1c
 5718 0a58 A4000000 		.4byte	.LASF165
 5719 0a5c 01       		.byte	0x1
 5720 0a5d 1B       		.byte	0x1b
 5721 0a5e 53       		.byte	0x53
 5722 0a5f 890A0000 		.4byte	0xa89
 5723 0a63 1D       		.uleb128 0x1d
 5724 0a64 D5040000 		.4byte	.LASF159
 5725 0a68 00       		.sleb128 0
 5726 0a69 1D       		.uleb128 0x1d
 5727 0a6a 690E0000 		.4byte	.LASF160
 5728 0a6e 10       		.sleb128 16
 5729 0a6f 1D       		.uleb128 0x1d
 5730 0a70 E9050000 		.4byte	.LASF161
 5731 0a74 20       		.sleb128 32
 5732 0a75 1D       		.uleb128 0x1d
 5733 0a76 E20F0000 		.4byte	.LASF162
 5734 0a7a 21       		.sleb128 33
 5735 0a7b 1D       		.uleb128 0x1d
 5736 0a7c 52020000 		.4byte	.LASF163
 5737 0a80 22       		.sleb128 34
 5738 0a81 1D       		.uleb128 0x1d
 5739 0a82 0E0E0000 		.4byte	.LASF164
 5740 0a86 C000     		.sleb128 64
 5741 0a88 00       		.byte	0
 5742 0a89 1C       		.uleb128 0x1c
 5743 0a8a AF030000 		.4byte	.LASF166
 5744 0a8e 01       		.byte	0x1
 5745 0a8f 1B       		.byte	0x1b
 5746 0a90 61       		.byte	0x61
 5747 0a91 B40A0000 		.4byte	0xab4
 5748 0a95 1D       		.uleb128 0x1d
 5749 0a96 EC0A0000 		.4byte	.LASF167
 5750 0a9a 00       		.sleb128 0
 5751 0a9b 1D       		.uleb128 0x1d
 5752 0a9c 5C100000 		.4byte	.LASF168
 5753 0aa0 01       		.sleb128 1
 5754 0aa1 1D       		.uleb128 0x1d
 5755 0aa2 920E0000 		.4byte	.LASF169
 5756 0aa6 02       		.sleb128 2
 5757 0aa7 1D       		.uleb128 0x1d
 5758 0aa8 230B0000 		.4byte	.LASF170
 5759 0aac 03       		.sleb128 3
 5760 0aad 1D       		.uleb128 0x1d
 5761 0aae 0A080000 		.4byte	.LASF171
 5762 0ab2 04       		.sleb128 4
 5763 0ab3 00       		.byte	0
 5764 0ab4 1C       		.uleb128 0x1c
 5765 0ab5 990D0000 		.4byte	.LASF172
 5766 0ab9 01       		.byte	0x1
 5767 0aba 1B       		.byte	0x1b
ARM GAS  C:\Users\jo\AppData\Local\Temp\ccCSMiNu.s 			page 105


 5768 0abb 6A       		.byte	0x6a
 5769 0abc DF0A0000 		.4byte	0xadf
 5770 0ac0 1D       		.uleb128 0x1d
 5771 0ac1 C4050000 		.4byte	.LASF173
 5772 0ac5 00       		.sleb128 0
 5773 0ac6 1D       		.uleb128 0x1d
 5774 0ac7 25070000 		.4byte	.LASF174
 5775 0acb 01       		.sleb128 1
 5776 0acc 1D       		.uleb128 0x1d
 5777 0acd EA060000 		.4byte	.LASF175
 5778 0ad1 02       		.sleb128 2
 5779 0ad2 1D       		.uleb128 0x1d
 5780 0ad3 1A050000 		.4byte	.LASF176
 5781 0ad7 03       		.sleb128 3
 5782 0ad8 1D       		.uleb128 0x1d
 5783 0ad9 33020000 		.4byte	.LASF177
 5784 0add 04       		.sleb128 4
 5785 0ade 00       		.byte	0
 5786 0adf 03       		.uleb128 0x3
 5787 0ae0 AE0D0000 		.4byte	.LASF178
 5788 0ae4 1B       		.byte	0x1b
 5789 0ae5 83       		.byte	0x83
 5790 0ae6 EA0A0000 		.4byte	0xaea
 5791 0aea 0A       		.uleb128 0xa
 5792 0aeb 04       		.byte	0x4
 5793 0aec F00A0000 		.4byte	0xaf0
 5794 0af0 0C       		.uleb128 0xc
 5795 0af1 050B0000 		.4byte	0xb05
 5796 0af5 0D       		.uleb128 0xd
 5797 0af6 050B0000 		.4byte	0xb05
 5798 0afa 0D       		.uleb128 0xd
 5799 0afb B40A0000 		.4byte	0xab4
 5800 0aff 0D       		.uleb128 0xd
 5801 0b00 3D090000 		.4byte	0x93d
 5802 0b04 00       		.byte	0
 5803 0b05 0A       		.uleb128 0xa
 5804 0b06 04       		.byte	0x4
 5805 0b07 0B0B0000 		.4byte	0xb0b
 5806 0b0b 06       		.uleb128 0x6
 5807 0b0c 54100000 		.4byte	.LASF179
 5808 0b10 2C       		.byte	0x2c
 5809 0b11 1B       		.byte	0x1b
 5810 0b12 86       		.byte	0x86
 5811 0b13 A80B0000 		.4byte	0xba8
 5812 0b17 07       		.uleb128 0x7
 5813 0b18 F10D0000 		.4byte	.LASF155
 5814 0b1c 1B       		.byte	0x1b
 5815 0b1d 88       		.byte	0x88
 5816 0b1e 570A0000 		.4byte	0xa57
 5817 0b22 00       		.byte	0
 5818 0b23 07       		.uleb128 0x7
 5819 0b24 D80E0000 		.4byte	.LASF180
 5820 0b28 1B       		.byte	0x1b
 5821 0b29 8A       		.byte	0x8a
 5822 0b2a 890A0000 		.4byte	0xa89
 5823 0b2e 01       		.byte	0x1
 5824 0b2f 12       		.uleb128 0x12
ARM GAS  C:\Users\jo\AppData\Local\Temp\ccCSMiNu.s 			page 106


 5825 0b30 70636200 		.ascii	"pcb\000"
 5826 0b34 1B       		.byte	0x1b
 5827 0b35 91       		.byte	0x91
 5828 0b36 A80B0000 		.4byte	0xba8
 5829 0b3a 04       		.byte	0x4
 5830 0b3b 07       		.uleb128 0x7
 5831 0b3c AA060000 		.4byte	.LASF181
 5832 0b40 1B       		.byte	0x1b
 5833 0b41 93       		.byte	0x93
 5834 0b42 82090000 		.4byte	0x982
 5835 0b46 08       		.byte	0x8
 5836 0b47 07       		.uleb128 0x7
 5837 0b48 1D100000 		.4byte	.LASF182
 5838 0b4c 1B       		.byte	0x1b
 5839 0b4d 95       		.byte	0x95
 5840 0b4e 8D090000 		.4byte	0x98d
 5841 0b52 0C       		.byte	0xc
 5842 0b53 07       		.uleb128 0x7
 5843 0b54 EC010000 		.4byte	.LASF183
 5844 0b58 1B       		.byte	0x1b
 5845 0b59 98       		.byte	0x98
 5846 0b5a 9E090000 		.4byte	0x99e
 5847 0b5e 10       		.byte	0x10
 5848 0b5f 07       		.uleb128 0x7
 5849 0b60 87080000 		.4byte	.LASF184
 5850 0b64 1B       		.byte	0x1b
 5851 0b65 9C       		.byte	0x9c
 5852 0b66 9E090000 		.4byte	0x99e
 5853 0b6a 14       		.byte	0x14
 5854 0b6b 07       		.uleb128 0x7
 5855 0b6c 7C0C0000 		.4byte	.LASF185
 5856 0b70 1B       		.byte	0x1b
 5857 0b71 A0       		.byte	0xa0
 5858 0b72 25000000 		.4byte	0x25
 5859 0b76 18       		.byte	0x18
 5860 0b77 07       		.uleb128 0x7
 5861 0b78 A1010000 		.4byte	.LASF156
 5862 0b7c 1B       		.byte	0x1b
 5863 0b7d B6       		.byte	0xb6
 5864 0b7e 27090000 		.4byte	0x927
 5865 0b82 1C       		.byte	0x1c
 5866 0b83 07       		.uleb128 0x7
 5867 0b84 C60E0000 		.4byte	.LASF186
 5868 0b88 1B       		.byte	0x1b
 5869 0b89 BA       		.byte	0xba
 5870 0b8a 2C000000 		.4byte	0x2c
 5871 0b8e 20       		.byte	0x20
 5872 0b8f 07       		.uleb128 0x7
 5873 0b90 F60B0000 		.4byte	.LASF187
 5874 0b94 1B       		.byte	0x1b
 5875 0b95 BE       		.byte	0xbe
 5876 0b96 B60F0000 		.4byte	0xfb6
 5877 0b9a 24       		.byte	0x24
 5878 0b9b 07       		.uleb128 0x7
 5879 0b9c F10E0000 		.4byte	.LASF188
 5880 0ba0 1B       		.byte	0x1b
 5881 0ba1 C1       		.byte	0xc1
ARM GAS  C:\Users\jo\AppData\Local\Temp\ccCSMiNu.s 			page 107


 5882 0ba2 DF0A0000 		.4byte	0xadf
 5883 0ba6 28       		.byte	0x28
 5884 0ba7 00       		.byte	0
 5885 0ba8 17       		.uleb128 0x17
 5886 0ba9 04       		.byte	0x4
 5887 0baa 1B       		.byte	0x1b
 5888 0bab 8C       		.byte	0x8c
 5889 0bac DC0B0000 		.4byte	0xbdc
 5890 0bb0 1E       		.uleb128 0x1e
 5891 0bb1 697000   		.ascii	"ip\000"
 5892 0bb4 1B       		.byte	0x1b
 5893 0bb5 8D       		.byte	0x8d
 5894 0bb6 250C0000 		.4byte	0xc25
 5895 0bba 1E       		.uleb128 0x1e
 5896 0bbb 74637000 		.ascii	"tcp\000"
 5897 0bbf 1B       		.byte	0x1b
 5898 0bc0 8E       		.byte	0x8e
 5899 0bc1 DD0E0000 		.4byte	0xedd
 5900 0bc5 1E       		.uleb128 0x1e
 5901 0bc6 75647000 		.ascii	"udp\000"
 5902 0bca 1B       		.byte	0x1b
 5903 0bcb 8F       		.byte	0x8f
 5904 0bcc 740F0000 		.4byte	0xf74
 5905 0bd0 1E       		.uleb128 0x1e
 5906 0bd1 72617700 		.ascii	"raw\000"
 5907 0bd5 1B       		.byte	0x1b
 5908 0bd6 90       		.byte	0x90
 5909 0bd7 7F0F0000 		.4byte	0xf7f
 5910 0bdb 00       		.byte	0
 5911 0bdc 06       		.uleb128 0x6
 5912 0bdd 620E0000 		.4byte	.LASF189
 5913 0be1 0C       		.byte	0xc
 5914 0be2 1C       		.byte	0x1c
 5915 0be3 59       		.byte	0x59
 5916 0be4 250C0000 		.4byte	0xc25
 5917 0be8 07       		.uleb128 0x7
 5918 0be9 390C0000 		.4byte	.LASF190
 5919 0bed 1C       		.byte	0x1c
 5920 0bee 5B       		.byte	0x5b
 5921 0bef 77090000 		.4byte	0x977
 5922 0bf3 00       		.byte	0
 5923 0bf4 07       		.uleb128 0x7
 5924 0bf5 FE0F0000 		.4byte	.LASF191
 5925 0bf9 1C       		.byte	0x1c
 5926 0bfa 5B       		.byte	0x5b
 5927 0bfb 77090000 		.4byte	0x977
 5928 0bff 04       		.byte	0x4
 5929 0c00 07       		.uleb128 0x7
 5930 0c01 69000000 		.4byte	.LASF192
 5931 0c05 1C       		.byte	0x1c
 5932 0c06 5B       		.byte	0x5b
 5933 0c07 27090000 		.4byte	0x927
 5934 0c0b 08       		.byte	0x8
 5935 0c0c 12       		.uleb128 0x12
 5936 0c0d 746F7300 		.ascii	"tos\000"
 5937 0c11 1C       		.byte	0x1c
 5938 0c12 5B       		.byte	0x5b
ARM GAS  C:\Users\jo\AppData\Local\Temp\ccCSMiNu.s 			page 108


 5939 0c13 27090000 		.4byte	0x927
 5940 0c17 09       		.byte	0x9
 5941 0c18 12       		.uleb128 0x12
 5942 0c19 74746C00 		.ascii	"ttl\000"
 5943 0c1d 1C       		.byte	0x1c
 5944 0c1e 5B       		.byte	0x5b
 5945 0c1f 27090000 		.4byte	0x927
 5946 0c23 0A       		.byte	0xa
 5947 0c24 00       		.byte	0
 5948 0c25 0A       		.uleb128 0xa
 5949 0c26 04       		.byte	0x4
 5950 0c27 DC0B0000 		.4byte	0xbdc
 5951 0c2b 06       		.uleb128 0x6
 5952 0c2c 880F0000 		.4byte	.LASF193
 5953 0c30 98       		.byte	0x98
 5954 0c31 1D       		.byte	0x1d
 5955 0c32 A8       		.byte	0xa8
 5956 0c33 DD0E0000 		.4byte	0xedd
 5957 0c37 07       		.uleb128 0x7
 5958 0c38 390C0000 		.4byte	.LASF190
 5959 0c3c 1D       		.byte	0x1d
 5960 0c3d AA       		.byte	0xaa
 5961 0c3e 77090000 		.4byte	0x977
 5962 0c42 00       		.byte	0
 5963 0c43 07       		.uleb128 0x7
 5964 0c44 FE0F0000 		.4byte	.LASF191
 5965 0c48 1D       		.byte	0x1d
 5966 0c49 AA       		.byte	0xaa
 5967 0c4a 77090000 		.4byte	0x977
 5968 0c4e 04       		.byte	0x4
 5969 0c4f 07       		.uleb128 0x7
 5970 0c50 69000000 		.4byte	.LASF192
 5971 0c54 1D       		.byte	0x1d
 5972 0c55 AA       		.byte	0xaa
 5973 0c56 27090000 		.4byte	0x927
 5974 0c5a 08       		.byte	0x8
 5975 0c5b 12       		.uleb128 0x12
 5976 0c5c 746F7300 		.ascii	"tos\000"
 5977 0c60 1D       		.byte	0x1d
 5978 0c61 AA       		.byte	0xaa
 5979 0c62 27090000 		.4byte	0x927
 5980 0c66 09       		.byte	0x9
 5981 0c67 12       		.uleb128 0x12
 5982 0c68 74746C00 		.ascii	"ttl\000"
 5983 0c6c 1D       		.byte	0x1d
 5984 0c6d AA       		.byte	0xaa
 5985 0c6e 27090000 		.4byte	0x927
 5986 0c72 0A       		.byte	0xa
 5987 0c73 07       		.uleb128 0x7
 5988 0c74 2E020000 		.4byte	.LASF152
 5989 0c78 1D       		.byte	0x1d
 5990 0c79 AC       		.byte	0xac
 5991 0c7a DD0E0000 		.4byte	0xedd
 5992 0c7e 0C       		.byte	0xc
 5993 0c7f 07       		.uleb128 0x7
 5994 0c80 A90F0000 		.4byte	.LASF194
 5995 0c84 1D       		.byte	0x1d
ARM GAS  C:\Users\jo\AppData\Local\Temp\ccCSMiNu.s 			page 109


 5996 0c85 AC       		.byte	0xac
 5997 0c86 64030000 		.4byte	0x364
 5998 0c8a 10       		.byte	0x10
 5999 0c8b 07       		.uleb128 0x7
 6000 0c8c 25040000 		.4byte	.LASF195
 6001 0c90 1D       		.byte	0x1d
 6002 0c91 AC       		.byte	0xac
 6003 0c92 04110000 		.4byte	0x1104
 6004 0c96 14       		.byte	0x14
 6005 0c97 07       		.uleb128 0x7
 6006 0c98 D80E0000 		.4byte	.LASF180
 6007 0c9c 1D       		.byte	0x1d
 6008 0c9d AC       		.byte	0xac
 6009 0c9e D8110000 		.4byte	0x11d8
 6010 0ca2 18       		.byte	0x18
 6011 0ca3 07       		.uleb128 0x7
 6012 0ca4 63070000 		.4byte	.LASF196
 6013 0ca8 1D       		.byte	0x1d
 6014 0ca9 AC       		.byte	0xac
 6015 0caa 27090000 		.4byte	0x927
 6016 0cae 19       		.byte	0x19
 6017 0caf 07       		.uleb128 0x7
 6018 0cb0 3F040000 		.4byte	.LASF197
 6019 0cb4 1D       		.byte	0x1d
 6020 0cb5 AC       		.byte	0xac
 6021 0cb6 3D090000 		.4byte	0x93d
 6022 0cba 1A       		.byte	0x1a
 6023 0cbb 07       		.uleb128 0x7
 6024 0cbc E6090000 		.4byte	.LASF198
 6025 0cc0 1D       		.byte	0x1d
 6026 0cc1 AF       		.byte	0xaf
 6027 0cc2 3D090000 		.4byte	0x93d
 6028 0cc6 1C       		.byte	0x1c
 6029 0cc7 07       		.uleb128 0x7
 6030 0cc8 A1010000 		.4byte	.LASF156
 6031 0ccc 1D       		.byte	0x1d
 6032 0ccd B1       		.byte	0xb1
 6033 0cce 27090000 		.4byte	0x927
 6034 0cd2 1E       		.byte	0x1e
 6035 0cd3 07       		.uleb128 0x7
 6036 0cd4 8B010000 		.4byte	.LASF199
 6037 0cd8 1D       		.byte	0x1d
 6038 0cd9 BF       		.byte	0xbf
 6039 0cda 27090000 		.4byte	0x927
 6040 0cde 1F       		.byte	0x1f
 6041 0cdf 07       		.uleb128 0x7
 6042 0ce0 68070000 		.4byte	.LASF200
 6043 0ce4 1D       		.byte	0x1d
 6044 0ce5 BF       		.byte	0xbf
 6045 0ce6 27090000 		.4byte	0x927
 6046 0cea 20       		.byte	0x20
 6047 0ceb 07       		.uleb128 0x7
 6048 0cec 210C0000 		.4byte	.LASF201
 6049 0cf0 1D       		.byte	0x1d
 6050 0cf1 C0       		.byte	0xc0
 6051 0cf2 27090000 		.4byte	0x927
 6052 0cf6 21       		.byte	0x21
ARM GAS  C:\Users\jo\AppData\Local\Temp\ccCSMiNu.s 			page 110


 6053 0cf7 12       		.uleb128 0x12
 6054 0cf8 746D7200 		.ascii	"tmr\000"
 6055 0cfc 1D       		.byte	0x1d
 6056 0cfd C1       		.byte	0xc1
 6057 0cfe 53090000 		.4byte	0x953
 6058 0d02 24       		.byte	0x24
 6059 0d03 07       		.uleb128 0x7
 6060 0d04 89050000 		.4byte	.LASF202
 6061 0d08 1D       		.byte	0x1d
 6062 0d09 C4       		.byte	0xc4
 6063 0d0a 53090000 		.4byte	0x953
 6064 0d0e 28       		.byte	0x28
 6065 0d0f 07       		.uleb128 0x7
 6066 0d10 D80B0000 		.4byte	.LASF203
 6067 0d14 1D       		.byte	0x1d
 6068 0d15 C5       		.byte	0xc5
 6069 0d16 3D090000 		.4byte	0x93d
 6070 0d1a 2C       		.byte	0x2c
 6071 0d1b 07       		.uleb128 0x7
 6072 0d1c 1F0A0000 		.4byte	.LASF204
 6073 0d20 1D       		.byte	0x1d
 6074 0d21 C6       		.byte	0xc6
 6075 0d22 3D090000 		.4byte	0x93d
 6076 0d26 2E       		.byte	0x2e
 6077 0d27 07       		.uleb128 0x7
 6078 0d28 38030000 		.4byte	.LASF205
 6079 0d2c 1D       		.byte	0x1d
 6080 0d2d C7       		.byte	0xc7
 6081 0d2e 53090000 		.4byte	0x953
 6082 0d32 30       		.byte	0x30
 6083 0d33 07       		.uleb128 0x7
 6084 0d34 50050000 		.4byte	.LASF206
 6085 0d38 1D       		.byte	0x1d
 6086 0d39 CA       		.byte	0xca
 6087 0d3a 48090000 		.4byte	0x948
 6088 0d3e 34       		.byte	0x34
 6089 0d3f 12       		.uleb128 0x12
 6090 0d40 6D737300 		.ascii	"mss\000"
 6091 0d44 1D       		.byte	0x1d
 6092 0d45 CC       		.byte	0xcc
 6093 0d46 3D090000 		.4byte	0x93d
 6094 0d4a 36       		.byte	0x36
 6095 0d4b 07       		.uleb128 0x7
 6096 0d4c E00B0000 		.4byte	.LASF207
 6097 0d50 1D       		.byte	0x1d
 6098 0d51 CF       		.byte	0xcf
 6099 0d52 53090000 		.4byte	0x953
 6100 0d56 38       		.byte	0x38
 6101 0d57 07       		.uleb128 0x7
 6102 0d58 E5040000 		.4byte	.LASF208
 6103 0d5c 1D       		.byte	0x1d
 6104 0d5d D0       		.byte	0xd0
 6105 0d5e 53090000 		.4byte	0x953
 6106 0d62 3C       		.byte	0x3c
 6107 0d63 12       		.uleb128 0x12
 6108 0d64 736100   		.ascii	"sa\000"
 6109 0d67 1D       		.byte	0x1d
ARM GAS  C:\Users\jo\AppData\Local\Temp\ccCSMiNu.s 			page 111


 6110 0d68 D1       		.byte	0xd1
 6111 0d69 48090000 		.4byte	0x948
 6112 0d6d 40       		.byte	0x40
 6113 0d6e 12       		.uleb128 0x12
 6114 0d6f 737600   		.ascii	"sv\000"
 6115 0d72 1D       		.byte	0x1d
 6116 0d73 D1       		.byte	0xd1
 6117 0d74 48090000 		.4byte	0x948
 6118 0d78 42       		.byte	0x42
 6119 0d79 12       		.uleb128 0x12
 6120 0d7a 72746F00 		.ascii	"rto\000"
 6121 0d7e 1D       		.byte	0x1d
 6122 0d7f D3       		.byte	0xd3
 6123 0d80 48090000 		.4byte	0x948
 6124 0d84 44       		.byte	0x44
 6125 0d85 07       		.uleb128 0x7
 6126 0d86 78100000 		.4byte	.LASF209
 6127 0d8a 1D       		.byte	0x1d
 6128 0d8b D4       		.byte	0xd4
 6129 0d8c 27090000 		.4byte	0x927
 6130 0d90 46       		.byte	0x46
 6131 0d91 07       		.uleb128 0x7
 6132 0d92 56070000 		.4byte	.LASF210
 6133 0d96 1D       		.byte	0x1d
 6134 0d97 D7       		.byte	0xd7
 6135 0d98 27090000 		.4byte	0x927
 6136 0d9c 47       		.byte	0x47
 6137 0d9d 07       		.uleb128 0x7
 6138 0d9e 170A0000 		.4byte	.LASF211
 6139 0da2 1D       		.byte	0x1d
 6140 0da3 D8       		.byte	0xd8
 6141 0da4 53090000 		.4byte	0x953
 6142 0da8 48       		.byte	0x48
 6143 0da9 07       		.uleb128 0x7
 6144 0daa 0D040000 		.4byte	.LASF212
 6145 0dae 1D       		.byte	0x1d
 6146 0daf DB       		.byte	0xdb
 6147 0db0 3D090000 		.4byte	0x93d
 6148 0db4 4C       		.byte	0x4c
 6149 0db5 07       		.uleb128 0x7
 6150 0db6 CC0C0000 		.4byte	.LASF213
 6151 0dba 1D       		.byte	0x1d
 6152 0dbb DC       		.byte	0xdc
 6153 0dbc 3D090000 		.4byte	0x93d
 6154 0dc0 4E       		.byte	0x4e
 6155 0dc1 07       		.uleb128 0x7
 6156 0dc2 830C0000 		.4byte	.LASF214
 6157 0dc6 1D       		.byte	0x1d
 6158 0dc7 DF       		.byte	0xdf
 6159 0dc8 53090000 		.4byte	0x953
 6160 0dcc 50       		.byte	0x50
 6161 0dcd 07       		.uleb128 0x7
 6162 0dce A6070000 		.4byte	.LASF215
 6163 0dd2 1D       		.byte	0x1d
 6164 0dd3 E0       		.byte	0xe0
 6165 0dd4 53090000 		.4byte	0x953
 6166 0dd8 54       		.byte	0x54
ARM GAS  C:\Users\jo\AppData\Local\Temp\ccCSMiNu.s 			page 112


 6167 0dd9 07       		.uleb128 0x7
 6168 0dda 62080000 		.4byte	.LASF216
 6169 0dde 1D       		.byte	0x1d
 6170 0ddf E0       		.byte	0xe0
 6171 0de0 53090000 		.4byte	0x953
 6172 0de4 58       		.byte	0x58
 6173 0de5 07       		.uleb128 0x7
 6174 0de6 16070000 		.4byte	.LASF217
 6175 0dea 1D       		.byte	0x1d
 6176 0deb E2       		.byte	0xe2
 6177 0dec 53090000 		.4byte	0x953
 6178 0df0 5C       		.byte	0x5c
 6179 0df1 07       		.uleb128 0x7
 6180 0df2 FE0A0000 		.4byte	.LASF218
 6181 0df6 1D       		.byte	0x1d
 6182 0df7 E3       		.byte	0xe3
 6183 0df8 3D090000 		.4byte	0x93d
 6184 0dfc 60       		.byte	0x60
 6185 0dfd 07       		.uleb128 0x7
 6186 0dfe A10C0000 		.4byte	.LASF219
 6187 0e02 1D       		.byte	0x1d
 6188 0e03 E4       		.byte	0xe4
 6189 0e04 3D090000 		.4byte	0x93d
 6190 0e08 62       		.byte	0x62
 6191 0e09 07       		.uleb128 0x7
 6192 0e0a C2070000 		.4byte	.LASF220
 6193 0e0e 1D       		.byte	0x1d
 6194 0e0f E6       		.byte	0xe6
 6195 0e10 3D090000 		.4byte	0x93d
 6196 0e14 64       		.byte	0x64
 6197 0e15 07       		.uleb128 0x7
 6198 0e16 D50C0000 		.4byte	.LASF221
 6199 0e1a 1D       		.byte	0x1d
 6200 0e1b E8       		.byte	0xe8
 6201 0e1c 3D090000 		.4byte	0x93d
 6202 0e20 66       		.byte	0x66
 6203 0e21 07       		.uleb128 0x7
 6204 0e22 7D100000 		.4byte	.LASF222
 6205 0e26 1D       		.byte	0x1d
 6206 0e27 EA       		.byte	0xea
 6207 0e28 3D090000 		.4byte	0x93d
 6208 0e2c 68       		.byte	0x68
 6209 0e2d 07       		.uleb128 0x7
 6210 0e2e 570C0000 		.4byte	.LASF223
 6211 0e32 1D       		.byte	0x1d
 6212 0e33 EE       		.byte	0xee
 6213 0e34 3D090000 		.4byte	0x93d
 6214 0e38 6A       		.byte	0x6a
 6215 0e39 07       		.uleb128 0x7
 6216 0e3a D10B0000 		.4byte	.LASF224
 6217 0e3e 1D       		.byte	0x1d
 6218 0e3f F2       		.byte	0xf2
 6219 0e40 2C120000 		.4byte	0x122c
 6220 0e44 6C       		.byte	0x6c
 6221 0e45 07       		.uleb128 0x7
 6222 0e46 300E0000 		.4byte	.LASF225
 6223 0e4a 1D       		.byte	0x1d
ARM GAS  C:\Users\jo\AppData\Local\Temp\ccCSMiNu.s 			page 113


 6224 0e4b F3       		.byte	0xf3
 6225 0e4c 2C120000 		.4byte	0x122c
 6226 0e50 70       		.byte	0x70
 6227 0e51 07       		.uleb128 0x7
 6228 0e52 3C0B0000 		.4byte	.LASF226
 6229 0e56 1D       		.byte	0x1d
 6230 0e57 F5       		.byte	0xf5
 6231 0e58 2C120000 		.4byte	0x122c
 6232 0e5c 74       		.byte	0x74
 6233 0e5d 07       		.uleb128 0x7
 6234 0e5e 780D0000 		.4byte	.LASF227
 6235 0e62 1D       		.byte	0x1d
 6236 0e63 F8       		.byte	0xf8
 6237 0e64 100A0000 		.4byte	0xa10
 6238 0e68 78       		.byte	0x78
 6239 0e69 07       		.uleb128 0x7
 6240 0e6a 40080000 		.4byte	.LASF228
 6241 0e6e 1D       		.byte	0x1d
 6242 0e6f FC       		.byte	0xfc
 6243 0e70 5D110000 		.4byte	0x115d
 6244 0e74 7C       		.byte	0x7c
 6245 0e75 07       		.uleb128 0x7
 6246 0e76 560F0000 		.4byte	.LASF229
 6247 0e7a 1D       		.byte	0x1d
 6248 0e7b FE       		.byte	0xfe
 6249 0e7c 2E110000 		.4byte	0x112e
 6250 0e80 80       		.byte	0x80
 6251 0e81 09       		.uleb128 0x9
 6252 0e82 4F060000 		.4byte	.LASF230
 6253 0e86 1D       		.byte	0x1d
 6254 0e87 0001     		.2byte	0x100
 6255 0e89 CD110000 		.4byte	0x11cd
 6256 0e8d 84       		.byte	0x84
 6257 0e8e 09       		.uleb128 0x9
 6258 0e8f 7F070000 		.4byte	.LASF231
 6259 0e93 1D       		.byte	0x1d
 6260 0e94 0201     		.2byte	0x102
 6261 0e96 87110000 		.4byte	0x1187
 6262 0e9a 88       		.byte	0x88
 6263 0e9b 09       		.uleb128 0x9
 6264 0e9c F90A0000 		.4byte	.LASF232
 6265 0ea0 1D       		.byte	0x1d
 6266 0ea1 0401     		.2byte	0x104
 6267 0ea3 AC110000 		.4byte	0x11ac
 6268 0ea7 8C       		.byte	0x8c
 6269 0ea8 09       		.uleb128 0x9
 6270 0ea9 880E0000 		.4byte	.LASF233
 6271 0ead 1D       		.byte	0x1d
 6272 0eae 0D01     		.2byte	0x10d
 6273 0eb0 53090000 		.4byte	0x953
 6274 0eb4 90       		.byte	0x90
 6275 0eb5 09       		.uleb128 0x9
 6276 0eb6 F20F0000 		.4byte	.LASF234
 6277 0eba 1D       		.byte	0x1d
 6278 0ebb 1401     		.2byte	0x114
 6279 0ebd 27090000 		.4byte	0x927
 6280 0ec1 94       		.byte	0x94
ARM GAS  C:\Users\jo\AppData\Local\Temp\ccCSMiNu.s 			page 114


 6281 0ec2 09       		.uleb128 0x9
 6282 0ec3 5F0D0000 		.4byte	.LASF235
 6283 0ec7 1D       		.byte	0x1d
 6284 0ec8 1601     		.2byte	0x116
 6285 0eca 27090000 		.4byte	0x927
 6286 0ece 95       		.byte	0x95
 6287 0ecf 09       		.uleb128 0x9
 6288 0ed0 7D030000 		.4byte	.LASF236
 6289 0ed4 1D       		.byte	0x1d
 6290 0ed5 1901     		.2byte	0x119
 6291 0ed7 27090000 		.4byte	0x927
 6292 0edb 96       		.byte	0x96
 6293 0edc 00       		.byte	0
 6294 0edd 0A       		.uleb128 0xa
 6295 0ede 04       		.byte	0x4
 6296 0edf 2B0C0000 		.4byte	0xc2b
 6297 0ee3 06       		.uleb128 0x6
 6298 0ee4 4C100000 		.4byte	.LASF237
 6299 0ee8 20       		.byte	0x20
 6300 0ee9 1E       		.byte	0x1e
 6301 0eea 5B       		.byte	0x5b
 6302 0eeb 740F0000 		.4byte	0xf74
 6303 0eef 07       		.uleb128 0x7
 6304 0ef0 390C0000 		.4byte	.LASF190
 6305 0ef4 1E       		.byte	0x1e
 6306 0ef5 5D       		.byte	0x5d
 6307 0ef6 77090000 		.4byte	0x977
 6308 0efa 00       		.byte	0
 6309 0efb 07       		.uleb128 0x7
 6310 0efc FE0F0000 		.4byte	.LASF191
 6311 0f00 1E       		.byte	0x1e
 6312 0f01 5D       		.byte	0x5d
 6313 0f02 77090000 		.4byte	0x977
 6314 0f06 04       		.byte	0x4
 6315 0f07 07       		.uleb128 0x7
 6316 0f08 69000000 		.4byte	.LASF192
 6317 0f0c 1E       		.byte	0x1e
 6318 0f0d 5D       		.byte	0x5d
 6319 0f0e 27090000 		.4byte	0x927
 6320 0f12 08       		.byte	0x8
 6321 0f13 12       		.uleb128 0x12
 6322 0f14 746F7300 		.ascii	"tos\000"
 6323 0f18 1E       		.byte	0x1e
 6324 0f19 5D       		.byte	0x5d
 6325 0f1a 27090000 		.4byte	0x927
 6326 0f1e 09       		.byte	0x9
 6327 0f1f 12       		.uleb128 0x12
 6328 0f20 74746C00 		.ascii	"ttl\000"
 6329 0f24 1E       		.byte	0x1e
 6330 0f25 5D       		.byte	0x5d
 6331 0f26 27090000 		.4byte	0x927
 6332 0f2a 0A       		.byte	0xa
 6333 0f2b 07       		.uleb128 0x7
 6334 0f2c 2E020000 		.4byte	.LASF152
 6335 0f30 1E       		.byte	0x1e
 6336 0f31 61       		.byte	0x61
 6337 0f32 740F0000 		.4byte	0xf74
ARM GAS  C:\Users\jo\AppData\Local\Temp\ccCSMiNu.s 			page 115


 6338 0f36 0C       		.byte	0xc
 6339 0f37 07       		.uleb128 0x7
 6340 0f38 A1010000 		.4byte	.LASF156
 6341 0f3c 1E       		.byte	0x1e
 6342 0f3d 63       		.byte	0x63
 6343 0f3e 27090000 		.4byte	0x927
 6344 0f42 10       		.byte	0x10
 6345 0f43 07       		.uleb128 0x7
 6346 0f44 3F040000 		.4byte	.LASF197
 6347 0f48 1E       		.byte	0x1e
 6348 0f49 65       		.byte	0x65
 6349 0f4a 3D090000 		.4byte	0x93d
 6350 0f4e 12       		.byte	0x12
 6351 0f4f 07       		.uleb128 0x7
 6352 0f50 E6090000 		.4byte	.LASF198
 6353 0f54 1E       		.byte	0x1e
 6354 0f55 65       		.byte	0x65
 6355 0f56 3D090000 		.4byte	0x93d
 6356 0f5a 14       		.byte	0x14
 6357 0f5b 07       		.uleb128 0x7
 6358 0f5c 560F0000 		.4byte	.LASF229
 6359 0f60 1E       		.byte	0x1e
 6360 0f61 72       		.byte	0x72
 6361 0f62 D4100000 		.4byte	0x10d4
 6362 0f66 18       		.byte	0x18
 6363 0f67 07       		.uleb128 0x7
 6364 0f68 9A030000 		.4byte	.LASF238
 6365 0f6c 1E       		.byte	0x1e
 6366 0f6d 74       		.byte	0x74
 6367 0f6e 64030000 		.4byte	0x364
 6368 0f72 1C       		.byte	0x1c
 6369 0f73 00       		.byte	0
 6370 0f74 0A       		.uleb128 0xa
 6371 0f75 04       		.byte	0x4
 6372 0f76 E30E0000 		.4byte	0xee3
 6373 0f7a 1F       		.uleb128 0x1f
 6374 0f7b F5010000 		.4byte	.LASF266
 6375 0f7f 0A       		.uleb128 0xa
 6376 0f80 04       		.byte	0x4
 6377 0f81 7A0F0000 		.4byte	0xf7a
 6378 0f85 06       		.uleb128 0x6
 6379 0f86 0A070000 		.4byte	.LASF239
 6380 0f8a 14       		.byte	0x14
 6381 0f8b 1F       		.byte	0x1f
 6382 0f8c 3E       		.byte	0x3e
 6383 0f8d B60F0000 		.4byte	0xfb6
 6384 0f91 07       		.uleb128 0x7
 6385 0f92 7D060000 		.4byte	.LASF240
 6386 0f96 1F       		.byte	0x1f
 6387 0f97 41       		.byte	0x41
 6388 0f98 050B0000 		.4byte	0xb05
 6389 0f9c 00       		.byte	0
 6390 0f9d 12       		.uleb128 0x12
 6391 0f9e 65727200 		.ascii	"err\000"
 6392 0fa2 1F       		.byte	0x1f
 6393 0fa3 43       		.byte	0x43
 6394 0fa4 82090000 		.4byte	0x982
ARM GAS  C:\Users\jo\AppData\Local\Temp\ccCSMiNu.s 			page 116


 6395 0fa8 04       		.byte	0x4
 6396 0fa9 12       		.uleb128 0x12
 6397 0faa 6D736700 		.ascii	"msg\000"
 6398 0fae 1F       		.byte	0x1f
 6399 0faf 75       		.byte	0x75
 6400 0fb0 83100000 		.4byte	0x1083
 6401 0fb4 08       		.byte	0x8
 6402 0fb5 00       		.byte	0
 6403 0fb6 0A       		.uleb128 0xa
 6404 0fb7 04       		.byte	0x4
 6405 0fb8 850F0000 		.4byte	0xf85
 6406 0fbc 13       		.uleb128 0x13
 6407 0fbd 01       		.byte	0x1
 6408 0fbe 1F       		.byte	0x1f
 6409 0fbf 49       		.byte	0x49
 6410 0fc0 D10F0000 		.4byte	0xfd1
 6411 0fc4 07       		.uleb128 0x7
 6412 0fc5 CE070000 		.4byte	.LASF241
 6413 0fc9 1F       		.byte	0x1f
 6414 0fca 4A       		.byte	0x4a
 6415 0fcb 27090000 		.4byte	0x927
 6416 0fcf 00       		.byte	0
 6417 0fd0 00       		.byte	0
 6418 0fd1 13       		.uleb128 0x13
 6419 0fd2 08       		.byte	0x8
 6420 0fd3 1F       		.byte	0x1f
 6421 0fd4 4D       		.byte	0x4d
 6422 0fd5 F20F0000 		.4byte	0xff2
 6423 0fd9 07       		.uleb128 0x7
 6424 0fda 2B060000 		.4byte	.LASF242
 6425 0fde 1F       		.byte	0x1f
 6426 0fdf 4E       		.byte	0x4e
 6427 0fe0 160A0000 		.4byte	0xa16
 6428 0fe4 00       		.byte	0
 6429 0fe5 07       		.uleb128 0x7
 6430 0fe6 5E070000 		.4byte	.LASF158
 6431 0fea 1F       		.byte	0x1f
 6432 0feb 4F       		.byte	0x4f
 6433 0fec 3D090000 		.4byte	0x93d
 6434 0ff0 04       		.byte	0x4
 6435 0ff1 00       		.byte	0
 6436 0ff2 13       		.uleb128 0x13
 6437 0ff3 0C       		.byte	0xc
 6438 0ff4 1F       		.byte	0x1f
 6439 0ff5 52       		.byte	0x52
 6440 0ff6 1F100000 		.4byte	0x101f
 6441 0ffa 07       		.uleb128 0x7
 6442 0ffb 2B060000 		.4byte	.LASF242
 6443 0fff 1F       		.byte	0x1f
 6444 1000 53       		.byte	0x53
 6445 1001 160A0000 		.4byte	0xa16
 6446 1005 00       		.byte	0
 6447 1006 07       		.uleb128 0x7
 6448 1007 5E070000 		.4byte	.LASF158
 6449 100b 1F       		.byte	0x1f
 6450 100c 54       		.byte	0x54
 6451 100d 1F100000 		.4byte	0x101f
ARM GAS  C:\Users\jo\AppData\Local\Temp\ccCSMiNu.s 			page 117


 6452 1011 04       		.byte	0x4
 6453 1012 07       		.uleb128 0x7
 6454 1013 7B020000 		.4byte	.LASF243
 6455 1017 1F       		.byte	0x1f
 6456 1018 55       		.byte	0x55
 6457 1019 27090000 		.4byte	0x927
 6458 101d 08       		.byte	0x8
 6459 101e 00       		.byte	0
 6460 101f 0A       		.uleb128 0xa
 6461 1020 04       		.byte	0x4
 6462 1021 3D090000 		.4byte	0x93d
 6463 1025 13       		.uleb128 0x13
 6464 1026 0C       		.byte	0xc
 6465 1027 1F       		.byte	0x1f
 6466 1028 58       		.byte	0x58
 6467 1029 52100000 		.4byte	0x1052
 6468 102d 07       		.uleb128 0x7
 6469 102e AB0A0000 		.4byte	.LASF244
 6470 1032 1F       		.byte	0x1f
 6471 1033 59       		.byte	0x59
 6472 1034 52100000 		.4byte	0x1052
 6473 1038 00       		.byte	0
 6474 1039 12       		.uleb128 0x12
 6475 103a 6C656E00 		.ascii	"len\000"
 6476 103e 1F       		.byte	0x1f
 6477 103f 5A       		.byte	0x5a
 6478 1040 2C000000 		.4byte	0x2c
 6479 1044 04       		.byte	0x4
 6480 1045 07       		.uleb128 0x7
 6481 1046 6F0D0000 		.4byte	.LASF245
 6482 104a 1F       		.byte	0x1f
 6483 104b 5B       		.byte	0x5b
 6484 104c 27090000 		.4byte	0x927
 6485 1050 08       		.byte	0x8
 6486 1051 00       		.byte	0
 6487 1052 0A       		.uleb128 0xa
 6488 1053 04       		.byte	0x4
 6489 1054 58100000 		.4byte	0x1058
 6490 1058 20       		.uleb128 0x20
 6491 1059 13       		.uleb128 0x13
 6492 105a 04       		.byte	0x4
 6493 105b 1F       		.byte	0x1f
 6494 105c 61       		.byte	0x61
 6495 105d 6E100000 		.4byte	0x106e
 6496 1061 12       		.uleb128 0x12
 6497 1062 6C656E00 		.ascii	"len\000"
 6498 1066 1F       		.byte	0x1f
 6499 1067 62       		.byte	0x62
 6500 1068 53090000 		.4byte	0x953
 6501 106c 00       		.byte	0
 6502 106d 00       		.byte	0
 6503 106e 13       		.uleb128 0x13
 6504 106f 01       		.byte	0x1
 6505 1070 1F       		.byte	0x1f
 6506 1071 65       		.byte	0x65
 6507 1072 83100000 		.4byte	0x1083
 6508 1076 07       		.uleb128 0x7
ARM GAS  C:\Users\jo\AppData\Local\Temp\ccCSMiNu.s 			page 118


 6509 1077 830E0000 		.4byte	.LASF246
 6510 107b 1F       		.byte	0x1f
 6511 107c 66       		.byte	0x66
 6512 107d 27090000 		.4byte	0x927
 6513 1081 00       		.byte	0
 6514 1082 00       		.byte	0
 6515 1083 17       		.uleb128 0x17
 6516 1084 0C       		.byte	0xc
 6517 1085 1F       		.byte	0x1f
 6518 1086 45       		.byte	0x45
 6519 1087 CE100000 		.4byte	0x10ce
 6520 108b 1E       		.uleb128 0x1e
 6521 108c 6200     		.ascii	"b\000"
 6522 108e 1F       		.byte	0x1f
 6523 108f 47       		.byte	0x47
 6524 1090 CE100000 		.4byte	0x10ce
 6525 1094 1E       		.uleb128 0x1e
 6526 1095 6E00     		.ascii	"n\000"
 6527 1097 1F       		.byte	0x1f
 6528 1098 4B       		.byte	0x4b
 6529 1099 BC0F0000 		.4byte	0xfbc
 6530 109d 1E       		.uleb128 0x1e
 6531 109e 626300   		.ascii	"bc\000"
 6532 10a1 1F       		.byte	0x1f
 6533 10a2 50       		.byte	0x50
 6534 10a3 D10F0000 		.4byte	0xfd1
 6535 10a7 1E       		.uleb128 0x1e
 6536 10a8 616400   		.ascii	"ad\000"
 6537 10ab 1F       		.byte	0x1f
 6538 10ac 56       		.byte	0x56
 6539 10ad F20F0000 		.4byte	0xff2
 6540 10b1 1E       		.uleb128 0x1e
 6541 10b2 7700     		.ascii	"w\000"
 6542 10b4 1F       		.byte	0x1f
 6543 10b5 5F       		.byte	0x5f
 6544 10b6 25100000 		.4byte	0x1025
 6545 10ba 1E       		.uleb128 0x1e
 6546 10bb 7200     		.ascii	"r\000"
 6547 10bd 1F       		.byte	0x1f
 6548 10be 63       		.byte	0x63
 6549 10bf 59100000 		.4byte	0x1059
 6550 10c3 1E       		.uleb128 0x1e
 6551 10c4 736400   		.ascii	"sd\000"
 6552 10c7 1F       		.byte	0x1f
 6553 10c8 67       		.byte	0x67
 6554 10c9 6E100000 		.4byte	0x106e
 6555 10cd 00       		.byte	0
 6556 10ce 0A       		.uleb128 0xa
 6557 10cf 04       		.byte	0x4
 6558 10d0 1C0A0000 		.4byte	0xa1c
 6559 10d4 03       		.uleb128 0x3
 6560 10d5 650B0000 		.4byte	.LASF247
 6561 10d9 1E       		.byte	0x1e
 6562 10da 57       		.byte	0x57
 6563 10db DF100000 		.4byte	0x10df
 6564 10df 0A       		.uleb128 0xa
 6565 10e0 04       		.byte	0x4
ARM GAS  C:\Users\jo\AppData\Local\Temp\ccCSMiNu.s 			page 119


 6566 10e1 E5100000 		.4byte	0x10e5
 6567 10e5 0C       		.uleb128 0xc
 6568 10e6 04110000 		.4byte	0x1104
 6569 10ea 0D       		.uleb128 0xd
 6570 10eb 64030000 		.4byte	0x364
 6571 10ef 0D       		.uleb128 0xd
 6572 10f0 740F0000 		.4byte	0xf74
 6573 10f4 0D       		.uleb128 0xd
 6574 10f5 100A0000 		.4byte	0xa10
 6575 10f9 0D       		.uleb128 0xd
 6576 10fa 160A0000 		.4byte	0xa16
 6577 10fe 0D       		.uleb128 0xd
 6578 10ff 3D090000 		.4byte	0x93d
 6579 1103 00       		.byte	0
 6580 1104 03       		.uleb128 0x3
 6581 1105 93010000 		.4byte	.LASF248
 6582 1109 1D       		.byte	0x1d
 6583 110a 3C       		.byte	0x3c
 6584 110b 0F110000 		.4byte	0x110f
 6585 110f 0A       		.uleb128 0xa
 6586 1110 04       		.byte	0x4
 6587 1111 15110000 		.4byte	0x1115
 6588 1115 1A       		.uleb128 0x1a
 6589 1116 82090000 		.4byte	0x982
 6590 111a 2E110000 		.4byte	0x112e
 6591 111e 0D       		.uleb128 0xd
 6592 111f 64030000 		.4byte	0x364
 6593 1123 0D       		.uleb128 0xd
 6594 1124 DD0E0000 		.4byte	0xedd
 6595 1128 0D       		.uleb128 0xd
 6596 1129 82090000 		.4byte	0x982
 6597 112d 00       		.byte	0
 6598 112e 03       		.uleb128 0x3
 6599 112f 420A0000 		.4byte	.LASF249
 6600 1133 1D       		.byte	0x1d
 6601 1134 48       		.byte	0x48
 6602 1135 39110000 		.4byte	0x1139
 6603 1139 0A       		.uleb128 0xa
 6604 113a 04       		.byte	0x4
 6605 113b 3F110000 		.4byte	0x113f
 6606 113f 1A       		.uleb128 0x1a
 6607 1140 82090000 		.4byte	0x982
 6608 1144 5D110000 		.4byte	0x115d
 6609 1148 0D       		.uleb128 0xd
 6610 1149 64030000 		.4byte	0x364
 6611 114d 0D       		.uleb128 0xd
 6612 114e DD0E0000 		.4byte	0xedd
 6613 1152 0D       		.uleb128 0xd
 6614 1153 100A0000 		.4byte	0xa10
 6615 1157 0D       		.uleb128 0xd
 6616 1158 82090000 		.4byte	0x982
 6617 115c 00       		.byte	0
 6618 115d 03       		.uleb128 0x3
 6619 115e A3030000 		.4byte	.LASF250
 6620 1162 1D       		.byte	0x1d
 6621 1163 56       		.byte	0x56
 6622 1164 68110000 		.4byte	0x1168
ARM GAS  C:\Users\jo\AppData\Local\Temp\ccCSMiNu.s 			page 120


 6623 1168 0A       		.uleb128 0xa
 6624 1169 04       		.byte	0x4
 6625 116a 6E110000 		.4byte	0x116e
 6626 116e 1A       		.uleb128 0x1a
 6627 116f 82090000 		.4byte	0x982
 6628 1173 87110000 		.4byte	0x1187
 6629 1177 0D       		.uleb128 0xd
 6630 1178 64030000 		.4byte	0x364
 6631 117c 0D       		.uleb128 0xd
 6632 117d DD0E0000 		.4byte	0xedd
 6633 1181 0D       		.uleb128 0xd
 6634 1182 3D090000 		.4byte	0x93d
 6635 1186 00       		.byte	0
 6636 1187 03       		.uleb128 0x3
 6637 1188 C60A0000 		.4byte	.LASF251
 6638 118c 1D       		.byte	0x1d
 6639 118d 62       		.byte	0x62
 6640 118e 92110000 		.4byte	0x1192
 6641 1192 0A       		.uleb128 0xa
 6642 1193 04       		.byte	0x4
 6643 1194 98110000 		.4byte	0x1198
 6644 1198 1A       		.uleb128 0x1a
 6645 1199 82090000 		.4byte	0x982
 6646 119d AC110000 		.4byte	0x11ac
 6647 11a1 0D       		.uleb128 0xd
 6648 11a2 64030000 		.4byte	0x364
 6649 11a6 0D       		.uleb128 0xd
 6650 11a7 DD0E0000 		.4byte	0xedd
 6651 11ab 00       		.byte	0
 6652 11ac 03       		.uleb128 0x3
 6653 11ad 7C080000 		.4byte	.LASF252
 6654 11b1 1D       		.byte	0x1d
 6655 11b2 6E       		.byte	0x6e
 6656 11b3 B7110000 		.4byte	0x11b7
 6657 11b7 0A       		.uleb128 0xa
 6658 11b8 04       		.byte	0x4
 6659 11b9 BD110000 		.4byte	0x11bd
 6660 11bd 0C       		.uleb128 0xc
 6661 11be CD110000 		.4byte	0x11cd
 6662 11c2 0D       		.uleb128 0xd
 6663 11c3 64030000 		.4byte	0x364
 6664 11c7 0D       		.uleb128 0xd
 6665 11c8 82090000 		.4byte	0x982
 6666 11cc 00       		.byte	0
 6667 11cd 03       		.uleb128 0x3
 6668 11ce 1D020000 		.4byte	.LASF253
 6669 11d2 1D       		.byte	0x1d
 6670 11d3 7C       		.byte	0x7c
 6671 11d4 0F110000 		.4byte	0x110f
 6672 11d8 1C       		.uleb128 0x1c
 6673 11d9 110B0000 		.4byte	.LASF254
 6674 11dd 01       		.byte	0x1
 6675 11de 1D       		.byte	0x1d
 6676 11df 7E       		.byte	0x7e
 6677 11e0 27120000 		.4byte	0x1227
 6678 11e4 1D       		.uleb128 0x1d
 6679 11e5 5E0B0000 		.4byte	.LASF255
ARM GAS  C:\Users\jo\AppData\Local\Temp\ccCSMiNu.s 			page 121


 6680 11e9 00       		.sleb128 0
 6681 11ea 1D       		.uleb128 0x1d
 6682 11eb AF0E0000 		.4byte	.LASF256
 6683 11ef 01       		.sleb128 1
 6684 11f0 1D       		.uleb128 0x1d
 6685 11f1 750E0000 		.4byte	.LASF257
 6686 11f5 02       		.sleb128 2
 6687 11f6 1D       		.uleb128 0x1d
 6688 11f7 93100000 		.4byte	.LASF258
 6689 11fb 03       		.sleb128 3
 6690 11fc 1D       		.uleb128 0x1d
 6691 11fd 950C0000 		.4byte	.LASF259
 6692 1201 04       		.sleb128 4
 6693 1202 1D       		.uleb128 0x1d
 6694 1203 1A0E0000 		.4byte	.LASF260
 6695 1207 05       		.sleb128 5
 6696 1208 1D       		.uleb128 0x1d
 6697 1209 250E0000 		.4byte	.LASF261
 6698 120d 06       		.sleb128 6
 6699 120e 1D       		.uleb128 0x1d
 6700 120f F90C0000 		.4byte	.LASF262
 6701 1213 07       		.sleb128 7
 6702 1214 1D       		.uleb128 0x1d
 6703 1215 99060000 		.4byte	.LASF263
 6704 1219 08       		.sleb128 8
 6705 121a 1D       		.uleb128 0x1d
 6706 121b 1A060000 		.4byte	.LASF264
 6707 121f 09       		.sleb128 9
 6708 1220 1D       		.uleb128 0x1d
 6709 1221 FD010000 		.4byte	.LASF265
 6710 1225 0A       		.sleb128 10
 6711 1226 00       		.byte	0
 6712 1227 1F       		.uleb128 0x1f
 6713 1228 580A0000 		.4byte	.LASF267
 6714 122c 0A       		.uleb128 0xa
 6715 122d 04       		.byte	0x4
 6716 122e 27120000 		.4byte	0x1227
 6717 1232 21       		.uleb128 0x21
 6718 1233 01       		.byte	0x1
 6719 1234 21       		.byte	0x21
 6720 1235 2B       		.byte	0x2b
 6721 1236 8F120000 		.4byte	0x128f
 6722 123a 1D       		.uleb128 0x1d
 6723 123b 2C0C0000 		.4byte	.LASF268
 6724 123f 00       		.sleb128 0
 6725 1240 1D       		.uleb128 0x1d
 6726 1241 45090000 		.4byte	.LASF269
 6727 1245 01       		.sleb128 1
 6728 1246 1D       		.uleb128 0x1d
 6729 1247 42000000 		.4byte	.LASF270
 6730 124b 02       		.sleb128 2
 6731 124c 1D       		.uleb128 0x1d
 6732 124d 550E0000 		.4byte	.LASF271
 6733 1251 03       		.sleb128 3
 6734 1252 1D       		.uleb128 0x1d
 6735 1253 330A0000 		.4byte	.LASF272
 6736 1257 04       		.sleb128 4
ARM GAS  C:\Users\jo\AppData\Local\Temp\ccCSMiNu.s 			page 122


 6737 1258 1D       		.uleb128 0x1d
 6738 1259 B20C0000 		.4byte	.LASF273
 6739 125d 05       		.sleb128 5
 6740 125e 1D       		.uleb128 0x1d
 6741 125f EE080000 		.4byte	.LASF274
 6742 1263 06       		.sleb128 6
 6743 1264 1D       		.uleb128 0x1d
 6744 1265 00040000 		.4byte	.LASF275
 6745 1269 07       		.sleb128 7
 6746 126a 1D       		.uleb128 0x1d
 6747 126b 2C040000 		.4byte	.LASF276
 6748 126f 08       		.sleb128 8
 6749 1270 1D       		.uleb128 0x1d
 6750 1271 A0050000 		.4byte	.LASF277
 6751 1275 09       		.sleb128 9
 6752 1276 1D       		.uleb128 0x1d
 6753 1277 100C0000 		.4byte	.LASF278
 6754 127b 0A       		.sleb128 10
 6755 127c 1D       		.uleb128 0x1d
 6756 127d 75070000 		.4byte	.LASF279
 6757 1281 0B       		.sleb128 11
 6758 1282 1D       		.uleb128 0x1d
 6759 1283 8B030000 		.4byte	.LASF280
 6760 1287 0C       		.sleb128 12
 6761 1288 1D       		.uleb128 0x1d
 6762 1289 BE060000 		.4byte	.LASF281
 6763 128d 0D       		.sleb128 13
 6764 128e 00       		.byte	0
 6765 128f 0A       		.uleb128 0xa
 6766 1290 04       		.byte	0x4
 6767 1291 8D090000 		.4byte	0x98d
 6768 1295 22       		.uleb128 0x22
 6769 1296 8C090000 		.4byte	.LASF282
 6770 129a 03       		.byte	0x3
 6771 129b 9E01     		.2byte	0x19e
 6772 129d 03       		.byte	0x3
 6773 129e AF120000 		.4byte	0x12af
 6774 12a2 23       		.uleb128 0x23
 6775 12a3 CE0D0000 		.4byte	.LASF284
 6776 12a7 03       		.byte	0x3
 6777 12a8 9E01     		.2byte	0x19e
 6778 12aa F4060000 		.4byte	0x6f4
 6779 12ae 00       		.byte	0
 6780 12af 22       		.uleb128 0x22
 6781 12b0 440F0000 		.4byte	.LASF283
 6782 12b4 01       		.byte	0x1
 6783 12b5 EA01     		.2byte	0x1ea
 6784 12b7 01       		.byte	0x1
 6785 12b8 C9120000 		.4byte	0x12c9
 6786 12bc 24       		.uleb128 0x24
 6787 12bd 6D736700 		.ascii	"msg\000"
 6788 12c1 01       		.byte	0x1
 6789 12c2 EA01     		.2byte	0x1ea
 6790 12c4 B60F0000 		.4byte	0xfb6
 6791 12c8 00       		.byte	0
 6792 12c9 25       		.uleb128 0x25
 6793 12ca 28030000 		.4byte	.LASF285
ARM GAS  C:\Users\jo\AppData\Local\Temp\ccCSMiNu.s 			page 123


 6794 12ce 01       		.byte	0x1
 6795 12cf 3901     		.2byte	0x139
 6796 12d1 82090000 		.4byte	0x982
 6797 12d5 01       		.byte	0x1
 6798 12d6 0B130000 		.4byte	0x130b
 6799 12da 24       		.uleb128 0x24
 6800 12db 61726700 		.ascii	"arg\000"
 6801 12df 01       		.byte	0x1
 6802 12e0 3901     		.2byte	0x139
 6803 12e2 64030000 		.4byte	0x364
 6804 12e6 24       		.uleb128 0x24
 6805 12e7 70636200 		.ascii	"pcb\000"
 6806 12eb 01       		.byte	0x1
 6807 12ec 3901     		.2byte	0x139
 6808 12ee DD0E0000 		.4byte	0xedd
 6809 12f2 24       		.uleb128 0x24
 6810 12f3 6C656E00 		.ascii	"len\000"
 6811 12f7 01       		.byte	0x1
 6812 12f8 3901     		.2byte	0x139
 6813 12fa 3D090000 		.4byte	0x93d
 6814 12fe 26       		.uleb128 0x26
 6815 12ff 7D060000 		.4byte	.LASF240
 6816 1303 01       		.byte	0x1
 6817 1304 3B01     		.2byte	0x13b
 6818 1306 050B0000 		.4byte	0xb05
 6819 130a 00       		.byte	0
 6820 130b 27       		.uleb128 0x27
 6821 130c 84070000 		.4byte	.LASF286
 6822 1310 02       		.byte	0x2
 6823 1311 45       		.byte	0x45
 6824 1312 25000000 		.4byte	0x25
 6825 1316 03       		.byte	0x3
 6826 1317 48130000 		.4byte	0x1348
 6827 131b 28       		.uleb128 0x28
 6828 131c 63687000 		.ascii	"chp\000"
 6829 1320 02       		.byte	0x2
 6830 1321 45       		.byte	0x45
 6831 1322 48130000 		.4byte	0x1348
 6832 1326 28       		.uleb128 0x28
 6833 1327 666D7400 		.ascii	"fmt\000"
 6834 132b 02       		.byte	0x2
 6835 132c 45       		.byte	0x45
 6836 132d F4060000 		.4byte	0x6f4
 6837 1331 29       		.uleb128 0x29
 6838 1332 2A       		.uleb128 0x2a
 6839 1333 617000   		.ascii	"ap\000"
 6840 1336 02       		.byte	0x2
 6841 1337 46       		.byte	0x46
 6842 1338 1C090000 		.4byte	0x91c
 6843 133c 2B       		.uleb128 0x2b
 6844 133d 32100000 		.4byte	.LASF287
 6845 1341 02       		.byte	0x2
 6846 1342 47       		.byte	0x47
 6847 1343 25000000 		.4byte	0x25
 6848 1347 00       		.byte	0
 6849 1348 0A       		.uleb128 0xa
 6850 1349 04       		.byte	0x4
ARM GAS  C:\Users\jo\AppData\Local\Temp\ccCSMiNu.s 			page 124


 6851 134a 80080000 		.4byte	0x880
 6852 134e 2C       		.uleb128 0x2c
 6853 134f DC090000 		.4byte	.LASF288
 6854 1353 01       		.byte	0x1
 6855 1354 9D01     		.2byte	0x19d
 6856 1356 00000000 		.4byte	.LFB265
 6857 135a 44000000 		.4byte	.LFE265-.LFB265
 6858 135e 01       		.uleb128 0x1
 6859 135f 9C       		.byte	0x9c
 6860 1360 0F140000 		.4byte	0x140f
 6861 1364 2D       		.uleb128 0x2d
 6862 1365 7D060000 		.4byte	.LASF240
 6863 1369 01       		.byte	0x1
 6864 136a 9D01     		.2byte	0x19d
 6865 136c 050B0000 		.4byte	0xb05
 6866 1370 00000000 		.4byte	.LLST0
 6867 1374 2E       		.uleb128 0x2e
 6868 1375 70636200 		.ascii	"pcb\000"
 6869 1379 01       		.byte	0x1
 6870 137a 9F01     		.2byte	0x19f
 6871 137c DD0E0000 		.4byte	0xedd
 6872 1380 2C000000 		.4byte	.LLST1
 6873 1384 2F       		.uleb128 0x2f
 6874 1385 0C000000 		.4byte	.LVL3
 6875 1389 8B340000 		.4byte	0x348b
 6876 138d 9F130000 		.4byte	0x139f
 6877 1391 30       		.uleb128 0x30
 6878 1392 01       		.uleb128 0x1
 6879 1393 51       		.byte	0x51
 6880 1394 03       		.uleb128 0x3
 6881 1395 F3       		.byte	0xf3
 6882 1396 01       		.uleb128 0x1
 6883 1397 50       		.byte	0x50
 6884 1398 30       		.uleb128 0x30
 6885 1399 01       		.uleb128 0x1
 6886 139a 50       		.byte	0x50
 6887 139b 02       		.uleb128 0x2
 6888 139c 74       		.byte	0x74
 6889 139d 00       		.sleb128 0
 6890 139e 00       		.byte	0
 6891 139f 2F       		.uleb128 0x2f
 6892 13a0 14000000 		.4byte	.LVL4
 6893 13a4 A2340000 		.4byte	0x34a2
 6894 13a8 BC130000 		.4byte	0x13bc
 6895 13ac 30       		.uleb128 0x30
 6896 13ad 01       		.uleb128 0x1
 6897 13ae 51       		.byte	0x51
 6898 13af 05       		.uleb128 0x5
 6899 13b0 03       		.byte	0x3
 6900 13b1 00000000 		.4byte	recv_tcp
 6901 13b5 30       		.uleb128 0x30
 6902 13b6 01       		.uleb128 0x1
 6903 13b7 50       		.byte	0x50
 6904 13b8 02       		.uleb128 0x2
 6905 13b9 74       		.byte	0x74
 6906 13ba 00       		.sleb128 0
 6907 13bb 00       		.byte	0
ARM GAS  C:\Users\jo\AppData\Local\Temp\ccCSMiNu.s 			page 125


 6908 13bc 2F       		.uleb128 0x2f
 6909 13bd 1C000000 		.4byte	.LVL5
 6910 13c1 B9340000 		.4byte	0x34b9
 6911 13c5 D9130000 		.4byte	0x13d9
 6912 13c9 30       		.uleb128 0x30
 6913 13ca 01       		.uleb128 0x1
 6914 13cb 51       		.byte	0x51
 6915 13cc 05       		.uleb128 0x5
 6916 13cd 03       		.byte	0x3
 6917 13ce 00000000 		.4byte	sent_tcp
 6918 13d2 30       		.uleb128 0x30
 6919 13d3 01       		.uleb128 0x1
 6920 13d4 50       		.byte	0x50
 6921 13d5 02       		.uleb128 0x2
 6922 13d6 74       		.byte	0x74
 6923 13d7 00       		.sleb128 0
 6924 13d8 00       		.byte	0
 6925 13d9 2F       		.uleb128 0x2f
 6926 13da 26000000 		.4byte	.LVL6
 6927 13de D0340000 		.4byte	0x34d0
 6928 13e2 FB130000 		.4byte	0x13fb
 6929 13e6 30       		.uleb128 0x30
 6930 13e7 01       		.uleb128 0x1
 6931 13e8 52       		.byte	0x52
 6932 13e9 01       		.uleb128 0x1
 6933 13ea 34       		.byte	0x34
 6934 13eb 30       		.uleb128 0x30
 6935 13ec 01       		.uleb128 0x1
 6936 13ed 51       		.byte	0x51
 6937 13ee 05       		.uleb128 0x5
 6938 13ef 03       		.byte	0x3
 6939 13f0 00000000 		.4byte	poll_tcp
 6940 13f4 30       		.uleb128 0x30
 6941 13f5 01       		.uleb128 0x1
 6942 13f6 50       		.byte	0x50
 6943 13f7 02       		.uleb128 0x2
 6944 13f8 74       		.byte	0x74
 6945 13f9 00       		.sleb128 0
 6946 13fa 00       		.byte	0
 6947 13fb 31       		.uleb128 0x31
 6948 13fc 32000000 		.4byte	.LVL8
 6949 1400 EC340000 		.4byte	0x34ec
 6950 1404 30       		.uleb128 0x30
 6951 1405 01       		.uleb128 0x1
 6952 1406 51       		.byte	0x51
 6953 1407 05       		.uleb128 0x5
 6954 1408 03       		.byte	0x3
 6955 1409 00000000 		.4byte	err_tcp
 6956 140d 00       		.byte	0
 6957 140e 00       		.byte	0
 6958 140f 32       		.uleb128 0x32
 6959 1410 0B130000 		.4byte	0x130b
 6960 1414 00000000 		.4byte	.LFB287
 6961 1418 28000000 		.4byte	.LFE287-.LFB287
 6962 141c 01       		.uleb128 0x1
 6963 141d 9C       		.byte	0x9c
 6964 141e 6E140000 		.4byte	0x146e
ARM GAS  C:\Users\jo\AppData\Local\Temp\ccCSMiNu.s 			page 126


 6965 1422 33       		.uleb128 0x33
 6966 1423 1B130000 		.4byte	0x131b
 6967 1427 4A000000 		.4byte	.LLST2
 6968 142b 34       		.uleb128 0x34
 6969 142c 26130000 		.4byte	0x1326
 6970 1430 02       		.uleb128 0x2
 6971 1431 91       		.byte	0x91
 6972 1432 74       		.sleb128 -12
 6973 1433 29       		.uleb128 0x29
 6974 1434 35       		.uleb128 0x35
 6975 1435 32130000 		.4byte	0x1332
 6976 1439 02       		.uleb128 0x2
 6977 143a 91       		.byte	0x91
 6978 143b 6C       		.sleb128 -20
 6979 143c 35       		.uleb128 0x35
 6980 143d 3C130000 		.4byte	0x133c
 6981 1441 01       		.uleb128 0x1
 6982 1442 50       		.byte	0x50
 6983 1443 34       		.uleb128 0x34
 6984 1444 26130000 		.4byte	0x1326
 6985 1448 06       		.uleb128 0x6
 6986 1449 03       		.byte	0x3
 6987 144a 00000000 		.4byte	.LC0
 6988 144e 9F       		.byte	0x9f
 6989 144f 36       		.uleb128 0x36
 6990 1450 1B130000 		.4byte	0x131b
 6991 1454 37       		.uleb128 0x37
 6992 1455 14000000 		.4byte	.LVL11
 6993 1459 03350000 		.4byte	0x3503
 6994 145d 30       		.uleb128 0x30
 6995 145e 01       		.uleb128 0x1
 6996 145f 52       		.byte	0x52
 6997 1460 02       		.uleb128 0x2
 6998 1461 91       		.byte	0x91
 6999 1462 60       		.sleb128 -32
 7000 1463 30       		.uleb128 0x30
 7001 1464 01       		.uleb128 0x1
 7002 1465 51       		.byte	0x51
 7003 1466 05       		.uleb128 0x5
 7004 1467 03       		.byte	0x3
 7005 1468 00000000 		.4byte	.LC0
 7006 146c 00       		.byte	0
 7007 146d 00       		.byte	0
 7008 146e 38       		.uleb128 0x38
 7009 146f 59060000 		.4byte	.LASF293
 7010 1473 01       		.byte	0x1
 7011 1474 D8       		.byte	0xd8
 7012 1475 82090000 		.4byte	0x982
 7013 1479 00000000 		.4byte	.LFB261
 7014 147d E4000000 		.4byte	.LFE261-.LFB261
 7015 1481 01       		.uleb128 0x1
 7016 1482 9C       		.byte	0x9c
 7017 1483 6E160000 		.4byte	0x166e
 7018 1487 39       		.uleb128 0x39
 7019 1488 61726700 		.ascii	"arg\000"
 7020 148c 01       		.byte	0x1
 7021 148d D8       		.byte	0xd8
ARM GAS  C:\Users\jo\AppData\Local\Temp\ccCSMiNu.s 			page 127


 7022 148e 64030000 		.4byte	0x364
 7023 1492 6B000000 		.4byte	.LLST3
 7024 1496 39       		.uleb128 0x39
 7025 1497 70636200 		.ascii	"pcb\000"
 7026 149b 01       		.byte	0x1
 7027 149c D8       		.byte	0xd8
 7028 149d DD0E0000 		.4byte	0xedd
 7029 14a1 9F000000 		.4byte	.LLST4
 7030 14a5 39       		.uleb128 0x39
 7031 14a6 7000     		.ascii	"p\000"
 7032 14a8 01       		.byte	0x1
 7033 14a9 D8       		.byte	0xd8
 7034 14aa 100A0000 		.4byte	0xa10
 7035 14ae 21010000 		.4byte	.LLST5
 7036 14b2 39       		.uleb128 0x39
 7037 14b3 65727200 		.ascii	"err\000"
 7038 14b7 01       		.byte	0x1
 7039 14b8 D8       		.byte	0xd8
 7040 14b9 82090000 		.4byte	0x982
 7041 14bd 55010000 		.4byte	.LLST6
 7042 14c1 3A       		.uleb128 0x3a
 7043 14c2 7D060000 		.4byte	.LASF240
 7044 14c6 01       		.byte	0x1
 7045 14c7 DA       		.byte	0xda
 7046 14c8 050B0000 		.4byte	0xb05
 7047 14cc 8F010000 		.4byte	.LLST7
 7048 14d0 3B       		.uleb128 0x3b
 7049 14d1 6C656E00 		.ascii	"len\000"
 7050 14d5 01       		.byte	0x1
 7051 14d6 DB       		.byte	0xdb
 7052 14d7 3D090000 		.4byte	0x93d
 7053 14db B8010000 		.4byte	.LLST8
 7054 14df 3C       		.uleb128 0x3c
 7055 14e0 95120000 		.4byte	0x1295
 7056 14e4 2C000000 		.4byte	.LBB89
 7057 14e8 06000000 		.4byte	.LBE89-.LBB89
 7058 14ec 01       		.byte	0x1
 7059 14ed E1       		.byte	0xe1
 7060 14ee 0F150000 		.4byte	0x150f
 7061 14f2 33       		.uleb128 0x33
 7062 14f3 A2120000 		.4byte	0x12a2
 7063 14f7 D6010000 		.4byte	.LLST9
 7064 14fb 37       		.uleb128 0x37
 7065 14fc 32000000 		.4byte	.LVL16
 7066 1500 22350000 		.4byte	0x3522
 7067 1504 30       		.uleb128 0x30
 7068 1505 01       		.uleb128 0x1
 7069 1506 50       		.byte	0x50
 7070 1507 05       		.uleb128 0x5
 7071 1508 03       		.byte	0x3
 7072 1509 90000000 		.4byte	.LC4
 7073 150d 00       		.byte	0
 7074 150e 00       		.byte	0
 7075 150f 3C       		.uleb128 0x3c
 7076 1510 95120000 		.4byte	0x1295
 7077 1514 A4000000 		.4byte	.LBB91
 7078 1518 08000000 		.4byte	.LBE91-.LBB91
ARM GAS  C:\Users\jo\AppData\Local\Temp\ccCSMiNu.s 			page 128


 7079 151c 01       		.byte	0x1
 7080 151d DE       		.byte	0xde
 7081 151e 3F150000 		.4byte	0x153f
 7082 1522 33       		.uleb128 0x33
 7083 1523 A2120000 		.4byte	0x12a2
 7084 1527 EE010000 		.4byte	.LLST10
 7085 152b 37       		.uleb128 0x37
 7086 152c AA000000 		.4byte	.LVL31
 7087 1530 22350000 		.4byte	0x3522
 7088 1534 30       		.uleb128 0x30
 7089 1535 01       		.uleb128 0x1
 7090 1536 50       		.byte	0x50
 7091 1537 05       		.uleb128 0x5
 7092 1538 03       		.byte	0x3
 7093 1539 28000000 		.4byte	.LC1
 7094 153d 00       		.byte	0
 7095 153e 00       		.byte	0
 7096 153f 3C       		.uleb128 0x3c
 7097 1540 95120000 		.4byte	0x1295
 7098 1544 C0000000 		.4byte	.LBB93
 7099 1548 08000000 		.4byte	.LBE93-.LBB93
 7100 154c 01       		.byte	0x1
 7101 154d DF       		.byte	0xdf
 7102 154e 6F150000 		.4byte	0x156f
 7103 1552 33       		.uleb128 0x33
 7104 1553 A2120000 		.4byte	0x12a2
 7105 1557 06020000 		.4byte	.LLST11
 7106 155b 37       		.uleb128 0x37
 7107 155c C6000000 		.4byte	.LVL36
 7108 1560 22350000 		.4byte	0x3522
 7109 1564 30       		.uleb128 0x30
 7110 1565 01       		.uleb128 0x1
 7111 1566 50       		.byte	0x50
 7112 1567 05       		.uleb128 0x5
 7113 1568 03       		.byte	0x3
 7114 1569 70000000 		.4byte	.LC3
 7115 156d 00       		.byte	0
 7116 156e 00       		.byte	0
 7117 156f 2F       		.uleb128 0x2f
 7118 1570 2C000000 		.4byte	.LVL15
 7119 1574 0F140000 		.4byte	0x140f
 7120 1578 9F150000 		.4byte	0x159f
 7121 157c 30       		.uleb128 0x30
 7122 157d 01       		.uleb128 0x1
 7123 157e 53       		.byte	0x53
 7124 157f 02       		.uleb128 0x2
 7125 1580 08       		.byte	0x8
 7126 1581 E1       		.byte	0xe1
 7127 1582 30       		.uleb128 0x30
 7128 1583 01       		.uleb128 0x1
 7129 1584 52       		.byte	0x52
 7130 1585 05       		.uleb128 0x5
 7131 1586 03       		.byte	0x3
 7132 1587 90000000 		.4byte	.LC4
 7133 158b 30       		.uleb128 0x30
 7134 158c 01       		.uleb128 0x1
 7135 158d 51       		.byte	0x51
ARM GAS  C:\Users\jo\AppData\Local\Temp\ccCSMiNu.s 			page 129


 7136 158e 05       		.uleb128 0x5
 7137 158f 03       		.byte	0x3
 7138 1590 00000000 		.4byte	.LC0
 7139 1594 30       		.uleb128 0x30
 7140 1595 02       		.uleb128 0x2
 7141 1596 7D       		.byte	0x7d
 7142 1597 00       		.sleb128 0
 7143 1598 05       		.uleb128 0x5
 7144 1599 03       		.byte	0x3
 7145 159a 4C000000 		.4byte	.LC2
 7146 159e 00       		.byte	0
 7147 159f 2F       		.uleb128 0x2f
 7148 15a0 3C000000 		.4byte	.LVL17
 7149 15a4 34350000 		.4byte	0x3534
 7150 15a8 B3150000 		.4byte	0x15b3
 7151 15ac 30       		.uleb128 0x30
 7152 15ad 01       		.uleb128 0x1
 7153 15ae 50       		.byte	0x50
 7154 15af 02       		.uleb128 0x2
 7155 15b0 78       		.byte	0x78
 7156 15b1 00       		.sleb128 0
 7157 15b2 00       		.byte	0
 7158 15b3 2F       		.uleb128 0x2f
 7159 15b4 4A000000 		.4byte	.LVL18
 7160 15b8 4F350000 		.4byte	0x354f
 7161 15bc C7150000 		.4byte	0x15c7
 7162 15c0 30       		.uleb128 0x30
 7163 15c1 01       		.uleb128 0x1
 7164 15c2 50       		.byte	0x50
 7165 15c3 02       		.uleb128 0x2
 7166 15c4 77       		.byte	0x77
 7167 15c5 00       		.sleb128 0
 7168 15c6 00       		.byte	0
 7169 15c7 2F       		.uleb128 0x2f
 7170 15c8 50000000 		.4byte	.LVL19
 7171 15cc 66350000 		.4byte	0x3566
 7172 15d0 DB150000 		.4byte	0x15db
 7173 15d4 30       		.uleb128 0x30
 7174 15d5 01       		.uleb128 0x1
 7175 15d6 50       		.byte	0x50
 7176 15d7 02       		.uleb128 0x2
 7177 15d8 76       		.byte	0x76
 7178 15d9 00       		.sleb128 0
 7179 15da 00       		.byte	0
 7180 15db 2F       		.uleb128 0x2f
 7181 15dc 7A000000 		.4byte	.LVL23
 7182 15e0 7B350000 		.4byte	0x357b
 7183 15e4 F5150000 		.4byte	0x15f5
 7184 15e8 30       		.uleb128 0x30
 7185 15e9 01       		.uleb128 0x1
 7186 15ea 51       		.byte	0x51
 7187 15eb 02       		.uleb128 0x2
 7188 15ec 76       		.byte	0x76
 7189 15ed 00       		.sleb128 0
 7190 15ee 30       		.uleb128 0x30
 7191 15ef 01       		.uleb128 0x1
 7192 15f0 50       		.byte	0x50
ARM GAS  C:\Users\jo\AppData\Local\Temp\ccCSMiNu.s 			page 130


 7193 15f1 02       		.uleb128 0x2
 7194 15f2 78       		.byte	0x78
 7195 15f3 00       		.sleb128 0
 7196 15f4 00       		.byte	0
 7197 15f5 3D       		.uleb128 0x3d
 7198 15f6 8C000000 		.4byte	.LVL24
 7199 15fa 11160000 		.4byte	0x1611
 7200 15fe 30       		.uleb128 0x30
 7201 15ff 01       		.uleb128 0x1
 7202 1600 52       		.byte	0x52
 7203 1601 02       		.uleb128 0x2
 7204 1602 77       		.byte	0x77
 7205 1603 00       		.sleb128 0
 7206 1604 30       		.uleb128 0x30
 7207 1605 01       		.uleb128 0x1
 7208 1606 51       		.byte	0x51
 7209 1607 02       		.uleb128 0x2
 7210 1608 75       		.byte	0x75
 7211 1609 00       		.sleb128 0
 7212 160a 30       		.uleb128 0x30
 7213 160b 01       		.uleb128 0x1
 7214 160c 50       		.byte	0x50
 7215 160d 02       		.uleb128 0x2
 7216 160e 74       		.byte	0x74
 7217 160f 00       		.sleb128 0
 7218 1610 00       		.byte	0
 7219 1611 2F       		.uleb128 0x2f
 7220 1612 A4000000 		.4byte	.LVL30
 7221 1616 0F140000 		.4byte	0x140f
 7222 161a 41160000 		.4byte	0x1641
 7223 161e 30       		.uleb128 0x30
 7224 161f 01       		.uleb128 0x1
 7225 1620 53       		.byte	0x53
 7226 1621 02       		.uleb128 0x2
 7227 1622 08       		.byte	0x8
 7228 1623 DE       		.byte	0xde
 7229 1624 30       		.uleb128 0x30
 7230 1625 01       		.uleb128 0x1
 7231 1626 52       		.byte	0x52
 7232 1627 05       		.uleb128 0x5
 7233 1628 03       		.byte	0x3
 7234 1629 28000000 		.4byte	.LC1
 7235 162d 30       		.uleb128 0x30
 7236 162e 01       		.uleb128 0x1
 7237 162f 51       		.byte	0x51
 7238 1630 05       		.uleb128 0x5
 7239 1631 03       		.byte	0x3
 7240 1632 00000000 		.4byte	.LC0
 7241 1636 30       		.uleb128 0x30
 7242 1637 02       		.uleb128 0x2
 7243 1638 7D       		.byte	0x7d
 7244 1639 00       		.sleb128 0
 7245 163a 05       		.uleb128 0x5
 7246 163b 03       		.byte	0x3
 7247 163c 4C000000 		.4byte	.LC2
 7248 1640 00       		.byte	0
 7249 1641 37       		.uleb128 0x37
ARM GAS  C:\Users\jo\AppData\Local\Temp\ccCSMiNu.s 			page 131


 7250 1642 C0000000 		.4byte	.LVL35
 7251 1646 0F140000 		.4byte	0x140f
 7252 164a 30       		.uleb128 0x30
 7253 164b 01       		.uleb128 0x1
 7254 164c 53       		.byte	0x53
 7255 164d 02       		.uleb128 0x2
 7256 164e 08       		.byte	0x8
 7257 164f DF       		.byte	0xdf
 7258 1650 30       		.uleb128 0x30
 7259 1651 01       		.uleb128 0x1
 7260 1652 52       		.byte	0x52
 7261 1653 05       		.uleb128 0x5
 7262 1654 03       		.byte	0x3
 7263 1655 70000000 		.4byte	.LC3
 7264 1659 30       		.uleb128 0x30
 7265 165a 01       		.uleb128 0x1
 7266 165b 51       		.byte	0x51
 7267 165c 05       		.uleb128 0x5
 7268 165d 03       		.byte	0x3
 7269 165e 00000000 		.4byte	.LC0
 7270 1662 30       		.uleb128 0x30
 7271 1663 02       		.uleb128 0x2
 7272 1664 7D       		.byte	0x7d
 7273 1665 00       		.sleb128 0
 7274 1666 05       		.uleb128 0x5
 7275 1667 03       		.byte	0x3
 7276 1668 4C000000 		.4byte	.LC2
 7277 166c 00       		.byte	0
 7278 166d 00       		.byte	0
 7279 166e 2C       		.uleb128 0x2c
 7280 166f 360D0000 		.4byte	.LASF289
 7281 1673 01       		.byte	0x1
 7282 1674 EB02     		.2byte	0x2eb
 7283 1676 00000000 		.4byte	.LFB272
 7284 167a 04020000 		.4byte	.LFE272-.LFB272
 7285 167e 01       		.uleb128 0x1
 7286 167f 9C       		.byte	0x9c
 7287 1680 AD1A0000 		.4byte	0x1aad
 7288 1684 2D       		.uleb128 0x2d
 7289 1685 7D060000 		.4byte	.LASF240
 7290 1689 01       		.byte	0x1
 7291 168a EB02     		.2byte	0x2eb
 7292 168c 050B0000 		.4byte	0xb05
 7293 1690 1E020000 		.4byte	.LLST12
 7294 1694 2E       		.uleb128 0x2e
 7295 1695 65727200 		.ascii	"err\000"
 7296 1699 01       		.byte	0x1
 7297 169a ED02     		.2byte	0x2ed
 7298 169c 82090000 		.4byte	0x982
 7299 16a0 9C020000 		.4byte	.LLST13
 7300 16a4 3E       		.uleb128 0x3e
 7301 16a5 830E0000 		.4byte	.LASF246
 7302 16a9 01       		.byte	0x1
 7303 16aa EE02     		.2byte	0x2ee
 7304 16ac 27090000 		.4byte	0x927
 7305 16b0 D1020000 		.4byte	.LLST14
 7306 16b4 3E       		.uleb128 0x3e
ARM GAS  C:\Users\jo\AppData\Local\Temp\ccCSMiNu.s 			page 132


 7307 16b5 6A100000 		.4byte	.LASF290
 7308 16b9 01       		.byte	0x1
 7309 16ba EE02     		.2byte	0x2ee
 7310 16bc 27090000 		.4byte	0x927
 7311 16c0 06030000 		.4byte	.LLST15
 7312 16c4 3E       		.uleb128 0x3e
 7313 16c5 B6020000 		.4byte	.LASF291
 7314 16c9 01       		.byte	0x1
 7315 16ca EE02     		.2byte	0x2ee
 7316 16cc 27090000 		.4byte	0x927
 7317 16d0 3A030000 		.4byte	.LLST16
 7318 16d4 3E       		.uleb128 0x3e
 7319 16d5 C8070000 		.4byte	.LASF292
 7320 16d9 01       		.byte	0x1
 7321 16da EE02     		.2byte	0x2ee
 7322 16dc 27090000 		.4byte	0x927
 7323 16e0 6E030000 		.4byte	.LLST17
 7324 16e4 3F       		.uleb128 0x3f
 7325 16e5 95120000 		.4byte	0x1295
 7326 16e9 24000000 		.4byte	.LBB95
 7327 16ed 06000000 		.4byte	.LBE95-.LBB95
 7328 16f1 01       		.byte	0x1
 7329 16f2 F102     		.2byte	0x2f1
 7330 16f4 15170000 		.4byte	0x1715
 7331 16f8 33       		.uleb128 0x33
 7332 16f9 A2120000 		.4byte	0x12a2
 7333 16fd A2030000 		.4byte	.LLST18
 7334 1701 37       		.uleb128 0x37
 7335 1702 2A000000 		.4byte	.LVL41
 7336 1706 22350000 		.4byte	0x3522
 7337 170a 30       		.uleb128 0x30
 7338 170b 01       		.uleb128 0x1
 7339 170c 50       		.byte	0x50
 7340 170d 05       		.uleb128 0x5
 7341 170e 03       		.byte	0x3
 7342 170f C0000000 		.4byte	.LC6
 7343 1713 00       		.byte	0
 7344 1714 00       		.byte	0
 7345 1715 3F       		.uleb128 0x3f
 7346 1716 95120000 		.4byte	0x1295
 7347 171a 42000000 		.4byte	.LBB97
 7348 171e 06000000 		.4byte	.LBE97-.LBB97
 7349 1722 01       		.byte	0x1
 7350 1723 F202     		.2byte	0x2f2
 7351 1725 46170000 		.4byte	0x1746
 7352 1729 33       		.uleb128 0x33
 7353 172a A2120000 		.4byte	0x12a2
 7354 172e BA030000 		.4byte	.LLST19
 7355 1732 37       		.uleb128 0x37
 7356 1733 48000000 		.4byte	.LVL43
 7357 1737 22350000 		.4byte	0x3522
 7358 173b 30       		.uleb128 0x30
 7359 173c 01       		.uleb128 0x1
 7360 173d 50       		.byte	0x50
 7361 173e 05       		.uleb128 0x5
 7362 173f 03       		.byte	0x3
 7363 1740 E0000000 		.4byte	.LC7
ARM GAS  C:\Users\jo\AppData\Local\Temp\ccCSMiNu.s 			page 133


 7364 1744 00       		.byte	0
 7365 1745 00       		.byte	0
 7366 1746 3F       		.uleb128 0x3f
 7367 1747 95120000 		.4byte	0x1295
 7368 174b 70010000 		.4byte	.LBB99
 7369 174f 0A000000 		.4byte	.LBE99-.LBB99
 7370 1753 01       		.byte	0x1
 7371 1754 2D03     		.2byte	0x32d
 7372 1756 77170000 		.4byte	0x1777
 7373 175a 33       		.uleb128 0x33
 7374 175b A2120000 		.4byte	0x12a2
 7375 175f D2030000 		.4byte	.LLST20
 7376 1763 37       		.uleb128 0x37
 7377 1764 76010000 		.4byte	.LVL72
 7378 1768 22350000 		.4byte	0x3522
 7379 176c 30       		.uleb128 0x30
 7380 176d 01       		.uleb128 0x1
 7381 176e 50       		.byte	0x50
 7382 176f 05       		.uleb128 0x5
 7383 1770 03       		.byte	0x3
 7384 1771 34010000 		.4byte	.LC10
 7385 1775 00       		.byte	0
 7386 1776 00       		.byte	0
 7387 1777 3F       		.uleb128 0x3f
 7388 1778 95120000 		.4byte	0x1295
 7389 177c 8C010000 		.4byte	.LBB101
 7390 1780 08000000 		.4byte	.LBE101-.LBB101
 7391 1784 01       		.byte	0x1
 7392 1785 F302     		.2byte	0x2f3
 7393 1787 A8170000 		.4byte	0x17a8
 7394 178b 33       		.uleb128 0x33
 7395 178c A2120000 		.4byte	0x12a2
 7396 1790 EA030000 		.4byte	.LLST21
 7397 1794 37       		.uleb128 0x37
 7398 1795 92010000 		.4byte	.LVL75
 7399 1799 22350000 		.4byte	0x3522
 7400 179d 30       		.uleb128 0x30
 7401 179e 01       		.uleb128 0x1
 7402 179f 50       		.byte	0x50
 7403 17a0 05       		.uleb128 0x5
 7404 17a1 03       		.byte	0x3
 7405 17a2 04010000 		.4byte	.LC8
 7406 17a6 00       		.byte	0
 7407 17a7 00       		.byte	0
 7408 17a8 3F       		.uleb128 0x3f
 7409 17a9 95120000 		.4byte	0x1295
 7410 17ad A6010000 		.4byte	.LBB103
 7411 17b1 0A000000 		.4byte	.LBE103-.LBB103
 7412 17b5 01       		.byte	0x1
 7413 17b6 F402     		.2byte	0x2f4
 7414 17b8 D9170000 		.4byte	0x17d9
 7415 17bc 33       		.uleb128 0x33
 7416 17bd A2120000 		.4byte	0x12a2
 7417 17c1 02040000 		.4byte	.LLST22
 7418 17c5 37       		.uleb128 0x37
 7419 17c6 AC010000 		.4byte	.LVL78
 7420 17ca 22350000 		.4byte	0x3522
ARM GAS  C:\Users\jo\AppData\Local\Temp\ccCSMiNu.s 			page 134


 7421 17ce 30       		.uleb128 0x30
 7422 17cf 01       		.uleb128 0x1
 7423 17d0 50       		.byte	0x50
 7424 17d1 05       		.uleb128 0x5
 7425 17d2 03       		.byte	0x3
 7426 17d3 18010000 		.4byte	.LC9
 7427 17d7 00       		.byte	0
 7428 17d8 00       		.byte	0
 7429 17d9 3F       		.uleb128 0x3f
 7430 17da 95120000 		.4byte	0x1295
 7431 17de C2010000 		.4byte	.LBB105
 7432 17e2 08000000 		.4byte	.LBE105-.LBB105
 7433 17e6 01       		.byte	0x1
 7434 17e7 F002     		.2byte	0x2f0
 7435 17e9 0A180000 		.4byte	0x180a
 7436 17ed 33       		.uleb128 0x33
 7437 17ee A2120000 		.4byte	0x12a2
 7438 17f2 1A040000 		.4byte	.LLST23
 7439 17f6 37       		.uleb128 0x37
 7440 17f7 C8010000 		.4byte	.LVL82
 7441 17fb 22350000 		.4byte	0x3522
 7442 17ff 30       		.uleb128 0x30
 7443 1800 01       		.uleb128 0x1
 7444 1801 50       		.byte	0x50
 7445 1802 05       		.uleb128 0x5
 7446 1803 03       		.byte	0x3
 7447 1804 B0000000 		.4byte	.LC5
 7448 1808 00       		.byte	0
 7449 1809 00       		.byte	0
 7450 180a 2F       		.uleb128 0x2f
 7451 180b 24000000 		.4byte	.LVL40
 7452 180f 0F140000 		.4byte	0x140f
 7453 1813 3B180000 		.4byte	0x183b
 7454 1817 30       		.uleb128 0x30
 7455 1818 01       		.uleb128 0x1
 7456 1819 53       		.byte	0x53
 7457 181a 03       		.uleb128 0x3
 7458 181b 0A       		.byte	0xa
 7459 181c F102     		.2byte	0x2f1
 7460 181e 30       		.uleb128 0x30
 7461 181f 01       		.uleb128 0x1
 7462 1820 52       		.byte	0x52
 7463 1821 05       		.uleb128 0x5
 7464 1822 03       		.byte	0x3
 7465 1823 C0000000 		.4byte	.LC6
 7466 1827 30       		.uleb128 0x30
 7467 1828 01       		.uleb128 0x1
 7468 1829 51       		.byte	0x51
 7469 182a 05       		.uleb128 0x5
 7470 182b 03       		.byte	0x3
 7471 182c 00000000 		.4byte	.LC0
 7472 1830 30       		.uleb128 0x30
 7473 1831 02       		.uleb128 0x2
 7474 1832 7D       		.byte	0x7d
 7475 1833 00       		.sleb128 0
 7476 1834 05       		.uleb128 0x5
 7477 1835 03       		.byte	0x3
ARM GAS  C:\Users\jo\AppData\Local\Temp\ccCSMiNu.s 			page 135


 7478 1836 4C000000 		.4byte	.LC2
 7479 183a 00       		.byte	0
 7480 183b 2F       		.uleb128 0x2f
 7481 183c 42000000 		.4byte	.LVL42
 7482 1840 0F140000 		.4byte	0x140f
 7483 1844 6C180000 		.4byte	0x186c
 7484 1848 30       		.uleb128 0x30
 7485 1849 01       		.uleb128 0x1
 7486 184a 53       		.byte	0x53
 7487 184b 03       		.uleb128 0x3
 7488 184c 0A       		.byte	0xa
 7489 184d F202     		.2byte	0x2f2
 7490 184f 30       		.uleb128 0x30
 7491 1850 01       		.uleb128 0x1
 7492 1851 52       		.byte	0x52
 7493 1852 05       		.uleb128 0x5
 7494 1853 03       		.byte	0x3
 7495 1854 E0000000 		.4byte	.LC7
 7496 1858 30       		.uleb128 0x30
 7497 1859 01       		.uleb128 0x1
 7498 185a 51       		.byte	0x51
 7499 185b 05       		.uleb128 0x5
 7500 185c 03       		.byte	0x3
 7501 185d 00000000 		.4byte	.LC0
 7502 1861 30       		.uleb128 0x30
 7503 1862 02       		.uleb128 0x2
 7504 1863 7D       		.byte	0x7d
 7505 1864 00       		.sleb128 0
 7506 1865 05       		.uleb128 0x5
 7507 1866 03       		.byte	0x3
 7508 1867 4C000000 		.4byte	.LC2
 7509 186b 00       		.byte	0
 7510 186c 2F       		.uleb128 0x2f
 7511 186d 90000000 		.4byte	.LVL47
 7512 1871 95350000 		.4byte	0x3595
 7513 1875 86180000 		.4byte	0x1886
 7514 1879 30       		.uleb128 0x30
 7515 187a 01       		.uleb128 0x1
 7516 187b 52       		.byte	0x52
 7517 187c 02       		.uleb128 0x2
 7518 187d 76       		.byte	0x76
 7519 187e 00       		.sleb128 0
 7520 187f 30       		.uleb128 0x30
 7521 1880 01       		.uleb128 0x1
 7522 1881 51       		.byte	0x51
 7523 1882 02       		.uleb128 0x2
 7524 1883 75       		.byte	0x75
 7525 1884 00       		.sleb128 0
 7526 1885 00       		.byte	0
 7527 1886 3D       		.uleb128 0x3d
 7528 1887 A8000000 		.4byte	.LVL49
 7529 188b A0180000 		.4byte	0x18a0
 7530 188f 30       		.uleb128 0x30
 7531 1890 01       		.uleb128 0x1
 7532 1891 52       		.byte	0x52
 7533 1892 01       		.uleb128 0x1
 7534 1893 30       		.byte	0x30
ARM GAS  C:\Users\jo\AppData\Local\Temp\ccCSMiNu.s 			page 136


 7535 1894 30       		.uleb128 0x30
 7536 1895 01       		.uleb128 0x1
 7537 1896 51       		.byte	0x51
 7538 1897 01       		.uleb128 0x1
 7539 1898 30       		.byte	0x30
 7540 1899 30       		.uleb128 0x30
 7541 189a 01       		.uleb128 0x1
 7542 189b 50       		.byte	0x50
 7543 189c 02       		.uleb128 0x2
 7544 189d 74       		.byte	0x74
 7545 189e 00       		.sleb128 0
 7546 189f 00       		.byte	0
 7547 18a0 3D       		.uleb128 0x3d
 7548 18a1 B6000000 		.4byte	.LVL50
 7549 18a5 BA180000 		.4byte	0x18ba
 7550 18a9 30       		.uleb128 0x30
 7551 18aa 01       		.uleb128 0x1
 7552 18ab 52       		.byte	0x52
 7553 18ac 01       		.uleb128 0x1
 7554 18ad 30       		.byte	0x30
 7555 18ae 30       		.uleb128 0x30
 7556 18af 01       		.uleb128 0x1
 7557 18b0 51       		.byte	0x51
 7558 18b1 01       		.uleb128 0x1
 7559 18b2 32       		.byte	0x32
 7560 18b3 30       		.uleb128 0x30
 7561 18b4 01       		.uleb128 0x1
 7562 18b5 50       		.byte	0x50
 7563 18b6 02       		.uleb128 0x2
 7564 18b7 74       		.byte	0x74
 7565 18b8 00       		.sleb128 0
 7566 18b9 00       		.byte	0
 7567 18ba 40       		.uleb128 0x40
 7568 18bb C4000000 		.4byte	.LVL52
 7569 18bf B5350000 		.4byte	0x35b5
 7570 18c3 D1180000 		.4byte	0x18d1
 7571 18c7 30       		.uleb128 0x30
 7572 18c8 01       		.uleb128 0x1
 7573 18c9 50       		.byte	0x50
 7574 18ca 05       		.uleb128 0x5
 7575 18cb F3       		.byte	0xf3
 7576 18cc 01       		.uleb128 0x1
 7577 18cd 50       		.byte	0x50
 7578 18ce 23       		.byte	0x23
 7579 18cf 0C       		.uleb128 0xc
 7580 18d0 00       		.byte	0
 7581 18d1 2F       		.uleb128 0x2f
 7582 18d2 D2000000 		.4byte	.LVL54
 7583 18d6 B9340000 		.4byte	0x34b9
 7584 18da E8180000 		.4byte	0x18e8
 7585 18de 30       		.uleb128 0x30
 7586 18df 01       		.uleb128 0x1
 7587 18e0 51       		.byte	0x51
 7588 18e1 05       		.uleb128 0x5
 7589 18e2 03       		.byte	0x3
 7590 18e3 00000000 		.4byte	sent_tcp
 7591 18e7 00       		.byte	0
ARM GAS  C:\Users\jo\AppData\Local\Temp\ccCSMiNu.s 			page 137


 7592 18e8 2F       		.uleb128 0x2f
 7593 18e9 DC000000 		.4byte	.LVL55
 7594 18ed D0340000 		.4byte	0x34d0
 7595 18f1 04190000 		.4byte	0x1904
 7596 18f5 30       		.uleb128 0x30
 7597 18f6 01       		.uleb128 0x1
 7598 18f7 52       		.byte	0x52
 7599 18f8 01       		.uleb128 0x1
 7600 18f9 34       		.byte	0x34
 7601 18fa 30       		.uleb128 0x30
 7602 18fb 01       		.uleb128 0x1
 7603 18fc 51       		.byte	0x51
 7604 18fd 05       		.uleb128 0x5
 7605 18fe 03       		.byte	0x3
 7606 18ff 00000000 		.4byte	poll_tcp
 7607 1903 00       		.byte	0
 7608 1904 2F       		.uleb128 0x2f
 7609 1905 E4000000 		.4byte	.LVL56
 7610 1909 EC340000 		.4byte	0x34ec
 7611 190d 1B190000 		.4byte	0x191b
 7612 1911 30       		.uleb128 0x30
 7613 1912 01       		.uleb128 0x1
 7614 1913 51       		.byte	0x51
 7615 1914 05       		.uleb128 0x5
 7616 1915 03       		.byte	0x3
 7617 1916 00000000 		.4byte	err_tcp
 7618 191a 00       		.byte	0
 7619 191b 40       		.uleb128 0x40
 7620 191c F2000000 		.4byte	.LVL58
 7621 1920 8B340000 		.4byte	0x348b
 7622 1924 30190000 		.4byte	0x1930
 7623 1928 30       		.uleb128 0x30
 7624 1929 01       		.uleb128 0x1
 7625 192a 51       		.byte	0x51
 7626 192b 03       		.uleb128 0x3
 7627 192c F3       		.byte	0xf3
 7628 192d 01       		.uleb128 0x1
 7629 192e 50       		.byte	0x50
 7630 192f 00       		.byte	0
 7631 1930 2F       		.uleb128 0x2f
 7632 1931 F8000000 		.4byte	.LVL59
 7633 1935 B9340000 		.4byte	0x34b9
 7634 1939 43190000 		.4byte	0x1943
 7635 193d 30       		.uleb128 0x30
 7636 193e 01       		.uleb128 0x1
 7637 193f 51       		.byte	0x51
 7638 1940 01       		.uleb128 0x1
 7639 1941 30       		.byte	0x30
 7640 1942 00       		.byte	0
 7641 1943 2F       		.uleb128 0x2f
 7642 1944 06010000 		.4byte	.LVL60
 7643 1948 D0340000 		.4byte	0x34d0
 7644 194c 5B190000 		.4byte	0x195b
 7645 1950 30       		.uleb128 0x30
 7646 1951 01       		.uleb128 0x1
 7647 1952 52       		.byte	0x52
 7648 1953 01       		.uleb128 0x1
ARM GAS  C:\Users\jo\AppData\Local\Temp\ccCSMiNu.s 			page 138


 7649 1954 34       		.byte	0x34
 7650 1955 30       		.uleb128 0x30
 7651 1956 01       		.uleb128 0x1
 7652 1957 51       		.byte	0x51
 7653 1958 01       		.uleb128 0x1
 7654 1959 30       		.byte	0x30
 7655 195a 00       		.byte	0
 7656 195b 2F       		.uleb128 0x2f
 7657 195c 0E010000 		.4byte	.LVL61
 7658 1960 EC340000 		.4byte	0x34ec
 7659 1964 6E190000 		.4byte	0x196e
 7660 1968 30       		.uleb128 0x30
 7661 1969 01       		.uleb128 0x1
 7662 196a 51       		.byte	0x51
 7663 196b 01       		.uleb128 0x1
 7664 196c 30       		.byte	0x30
 7665 196d 00       		.byte	0
 7666 196e 41       		.uleb128 0x41
 7667 196f 14010000 		.4byte	.LVL62
 7668 1973 C6350000 		.4byte	0x35c6
 7669 1977 3D       		.uleb128 0x3d
 7670 1978 30010000 		.4byte	.LVL64
 7671 197c 8C190000 		.4byte	0x198c
 7672 1980 30       		.uleb128 0x30
 7673 1981 01       		.uleb128 0x1
 7674 1982 51       		.byte	0x51
 7675 1983 01       		.uleb128 0x1
 7676 1984 34       		.byte	0x34
 7677 1985 30       		.uleb128 0x30
 7678 1986 01       		.uleb128 0x1
 7679 1987 50       		.byte	0x50
 7680 1988 02       		.uleb128 0x2
 7681 1989 74       		.byte	0x74
 7682 198a 00       		.sleb128 0
 7683 198b 00       		.byte	0
 7684 198c 2F       		.uleb128 0x2f
 7685 198d 38010000 		.4byte	.LVL65
 7686 1991 A2340000 		.4byte	0x34a2
 7687 1995 9F190000 		.4byte	0x199f
 7688 1999 30       		.uleb128 0x30
 7689 199a 01       		.uleb128 0x1
 7690 199b 51       		.byte	0x51
 7691 199c 01       		.uleb128 0x1
 7692 199d 30       		.byte	0x30
 7693 199e 00       		.byte	0
 7694 199f 2F       		.uleb128 0x2f
 7695 19a0 40010000 		.4byte	.LVL66
 7696 19a4 DC350000 		.4byte	0x35dc
 7697 19a8 B2190000 		.4byte	0x19b2
 7698 19ac 30       		.uleb128 0x30
 7699 19ad 01       		.uleb128 0x1
 7700 19ae 51       		.byte	0x51
 7701 19af 01       		.uleb128 0x1
 7702 19b0 30       		.byte	0x30
 7703 19b1 00       		.byte	0
 7704 19b2 2F       		.uleb128 0x2f
 7705 19b3 4E010000 		.4byte	.LVL69
ARM GAS  C:\Users\jo\AppData\Local\Temp\ccCSMiNu.s 			page 139


 7706 19b7 8B340000 		.4byte	0x348b
 7707 19bb C5190000 		.4byte	0x19c5
 7708 19bf 30       		.uleb128 0x30
 7709 19c0 01       		.uleb128 0x1
 7710 19c1 51       		.byte	0x51
 7711 19c2 01       		.uleb128 0x1
 7712 19c3 30       		.byte	0x30
 7713 19c4 00       		.byte	0
 7714 19c5 2F       		.uleb128 0x2f
 7715 19c6 5C010000 		.4byte	.LVL70
 7716 19ca DC350000 		.4byte	0x35dc
 7717 19ce D8190000 		.4byte	0x19d8
 7718 19d2 30       		.uleb128 0x30
 7719 19d3 01       		.uleb128 0x1
 7720 19d4 51       		.byte	0x51
 7721 19d5 01       		.uleb128 0x1
 7722 19d6 30       		.byte	0x30
 7723 19d7 00       		.byte	0
 7724 19d8 2F       		.uleb128 0x2f
 7725 19d9 70010000 		.4byte	.LVL71
 7726 19dd 0F140000 		.4byte	0x140f
 7727 19e1 091A0000 		.4byte	0x1a09
 7728 19e5 30       		.uleb128 0x30
 7729 19e6 01       		.uleb128 0x1
 7730 19e7 53       		.byte	0x53
 7731 19e8 03       		.uleb128 0x3
 7732 19e9 0A       		.byte	0xa
 7733 19ea 2D03     		.2byte	0x32d
 7734 19ec 30       		.uleb128 0x30
 7735 19ed 01       		.uleb128 0x1
 7736 19ee 52       		.byte	0x52
 7737 19ef 05       		.uleb128 0x5
 7738 19f0 03       		.byte	0x3
 7739 19f1 34010000 		.4byte	.LC10
 7740 19f5 30       		.uleb128 0x30
 7741 19f6 01       		.uleb128 0x1
 7742 19f7 51       		.byte	0x51
 7743 19f8 05       		.uleb128 0x5
 7744 19f9 03       		.byte	0x3
 7745 19fa 00000000 		.4byte	.LC0
 7746 19fe 30       		.uleb128 0x30
 7747 19ff 02       		.uleb128 0x2
 7748 1a00 7D       		.byte	0x7d
 7749 1a01 00       		.sleb128 0
 7750 1a02 05       		.uleb128 0x5
 7751 1a03 03       		.byte	0x3
 7752 1a04 4C000000 		.4byte	.LC2
 7753 1a08 00       		.byte	0
 7754 1a09 2F       		.uleb128 0x2f
 7755 1a0a 8C010000 		.4byte	.LVL74
 7756 1a0e 0F140000 		.4byte	0x140f
 7757 1a12 3A1A0000 		.4byte	0x1a3a
 7758 1a16 30       		.uleb128 0x30
 7759 1a17 01       		.uleb128 0x1
 7760 1a18 53       		.byte	0x53
 7761 1a19 03       		.uleb128 0x3
 7762 1a1a 0A       		.byte	0xa
ARM GAS  C:\Users\jo\AppData\Local\Temp\ccCSMiNu.s 			page 140


 7763 1a1b F302     		.2byte	0x2f3
 7764 1a1d 30       		.uleb128 0x30
 7765 1a1e 01       		.uleb128 0x1
 7766 1a1f 52       		.byte	0x52
 7767 1a20 05       		.uleb128 0x5
 7768 1a21 03       		.byte	0x3
 7769 1a22 04010000 		.4byte	.LC8
 7770 1a26 30       		.uleb128 0x30
 7771 1a27 01       		.uleb128 0x1
 7772 1a28 51       		.byte	0x51
 7773 1a29 05       		.uleb128 0x5
 7774 1a2a 03       		.byte	0x3
 7775 1a2b 00000000 		.4byte	.LC0
 7776 1a2f 30       		.uleb128 0x30
 7777 1a30 02       		.uleb128 0x2
 7778 1a31 7D       		.byte	0x7d
 7779 1a32 00       		.sleb128 0
 7780 1a33 05       		.uleb128 0x5
 7781 1a34 03       		.byte	0x3
 7782 1a35 4C000000 		.4byte	.LC2
 7783 1a39 00       		.byte	0
 7784 1a3a 2F       		.uleb128 0x2f
 7785 1a3b A6010000 		.4byte	.LVL77
 7786 1a3f 0F140000 		.4byte	0x140f
 7787 1a43 6B1A0000 		.4byte	0x1a6b
 7788 1a47 30       		.uleb128 0x30
 7789 1a48 01       		.uleb128 0x1
 7790 1a49 53       		.byte	0x53
 7791 1a4a 03       		.uleb128 0x3
 7792 1a4b 0A       		.byte	0xa
 7793 1a4c F402     		.2byte	0x2f4
 7794 1a4e 30       		.uleb128 0x30
 7795 1a4f 01       		.uleb128 0x1
 7796 1a50 52       		.byte	0x52
 7797 1a51 05       		.uleb128 0x5
 7798 1a52 03       		.byte	0x3
 7799 1a53 18010000 		.4byte	.LC9
 7800 1a57 30       		.uleb128 0x30
 7801 1a58 01       		.uleb128 0x1
 7802 1a59 51       		.byte	0x51
 7803 1a5a 05       		.uleb128 0x5
 7804 1a5b 03       		.byte	0x3
 7805 1a5c 00000000 		.4byte	.LC0
 7806 1a60 30       		.uleb128 0x30
 7807 1a61 02       		.uleb128 0x2
 7808 1a62 7D       		.byte	0x7d
 7809 1a63 00       		.sleb128 0
 7810 1a64 05       		.uleb128 0x5
 7811 1a65 03       		.byte	0x3
 7812 1a66 4C000000 		.4byte	.LC2
 7813 1a6a 00       		.byte	0
 7814 1a6b 2F       		.uleb128 0x2f
 7815 1a6c C2010000 		.4byte	.LVL81
 7816 1a70 0F140000 		.4byte	0x140f
 7817 1a74 9C1A0000 		.4byte	0x1a9c
 7818 1a78 30       		.uleb128 0x30
 7819 1a79 01       		.uleb128 0x1
ARM GAS  C:\Users\jo\AppData\Local\Temp\ccCSMiNu.s 			page 141


 7820 1a7a 53       		.byte	0x53
 7821 1a7b 03       		.uleb128 0x3
 7822 1a7c 0A       		.byte	0xa
 7823 1a7d F002     		.2byte	0x2f0
 7824 1a7f 30       		.uleb128 0x30
 7825 1a80 01       		.uleb128 0x1
 7826 1a81 52       		.byte	0x52
 7827 1a82 05       		.uleb128 0x5
 7828 1a83 03       		.byte	0x3
 7829 1a84 B0000000 		.4byte	.LC5
 7830 1a88 30       		.uleb128 0x30
 7831 1a89 01       		.uleb128 0x1
 7832 1a8a 51       		.byte	0x51
 7833 1a8b 05       		.uleb128 0x5
 7834 1a8c 03       		.byte	0x3
 7835 1a8d 00000000 		.4byte	.LC0
 7836 1a91 30       		.uleb128 0x30
 7837 1a92 02       		.uleb128 0x2
 7838 1a93 7D       		.byte	0x7d
 7839 1a94 00       		.sleb128 0
 7840 1a95 05       		.uleb128 0x5
 7841 1a96 03       		.byte	0x3
 7842 1a97 4C000000 		.4byte	.LC2
 7843 1a9b 00       		.byte	0
 7844 1a9c 37       		.uleb128 0x37
 7845 1a9d D0010000 		.4byte	.LVL85
 7846 1aa1 DC350000 		.4byte	0x35dc
 7847 1aa5 30       		.uleb128 0x30
 7848 1aa6 01       		.uleb128 0x1
 7849 1aa7 51       		.byte	0x51
 7850 1aa8 02       		.uleb128 0x2
 7851 1aa9 77       		.byte	0x77
 7852 1aaa 00       		.sleb128 0
 7853 1aab 00       		.byte	0
 7854 1aac 00       		.byte	0
 7855 1aad 42       		.uleb128 0x42
 7856 1aae 82060000 		.4byte	.LASF294
 7857 1ab2 01       		.byte	0x1
 7858 1ab3 B804     		.2byte	0x4b8
 7859 1ab5 82090000 		.4byte	0x982
 7860 1ab9 00000000 		.4byte	.LFB281
 7861 1abd 00020000 		.4byte	.LFE281-.LFB281
 7862 1ac1 01       		.uleb128 0x1
 7863 1ac2 9C       		.byte	0x9c
 7864 1ac3 D71D0000 		.4byte	0x1dd7
 7865 1ac7 2D       		.uleb128 0x2d
 7866 1ac8 7D060000 		.4byte	.LASF240
 7867 1acc 01       		.byte	0x1
 7868 1acd B804     		.2byte	0x4b8
 7869 1acf 050B0000 		.4byte	0xb05
 7870 1ad3 32040000 		.4byte	.LLST24
 7871 1ad7 2E       		.uleb128 0x2e
 7872 1ad8 65727200 		.ascii	"err\000"
 7873 1adc 01       		.byte	0x1
 7874 1add BA04     		.2byte	0x4ba
 7875 1adf 82090000 		.4byte	0x982
 7876 1ae3 50040000 		.4byte	.LLST25
ARM GAS  C:\Users\jo\AppData\Local\Temp\ccCSMiNu.s 			page 142


 7877 1ae7 3E       		.uleb128 0x3e
 7878 1ae8 AB0A0000 		.4byte	.LASF244
 7879 1aec 01       		.byte	0x1
 7880 1aed BB04     		.2byte	0x4bb
 7881 1aef 64030000 		.4byte	0x364
 7882 1af3 9E040000 		.4byte	.LLST26
 7883 1af7 2E       		.uleb128 0x2e
 7884 1af8 6C656E00 		.ascii	"len\000"
 7885 1afc 01       		.byte	0x1
 7886 1afd BC04     		.2byte	0x4bc
 7887 1aff 3D090000 		.4byte	0x93d
 7888 1b03 D2040000 		.4byte	.LLST27
 7889 1b07 3E       		.uleb128 0x3e
 7890 1b08 C70B0000 		.4byte	.LASF295
 7891 1b0c 01       		.byte	0x1
 7892 1b0d BC04     		.2byte	0x4bc
 7893 1b0f 3D090000 		.4byte	0x93d
 7894 1b13 4A050000 		.4byte	.LLST28
 7895 1b17 3E       		.uleb128 0x3e
 7896 1b18 B7080000 		.4byte	.LASF296
 7897 1b1c 01       		.byte	0x1
 7898 1b1d BD04     		.2byte	0x4bd
 7899 1b1f 27090000 		.4byte	0x927
 7900 1b23 94050000 		.4byte	.LLST29
 7901 1b27 43       		.uleb128 0x43
 7902 1b28 E70B0000 		.4byte	.LASF297
 7903 1b2c 01       		.byte	0x1
 7904 1b2d BE04     		.2byte	0x4be
 7905 1b2f 2C000000 		.4byte	0x2c
 7906 1b33 01       		.uleb128 0x1
 7907 1b34 55       		.byte	0x55
 7908 1b35 43       		.uleb128 0x43
 7909 1b36 CC060000 		.4byte	.LASF298
 7910 1b3a 01       		.byte	0x1
 7911 1b3b BF04     		.2byte	0x4bf
 7912 1b3d 27090000 		.4byte	0x927
 7913 1b41 01       		.uleb128 0x1
 7914 1b42 58       		.byte	0x58
 7915 1b43 3E       		.uleb128 0x3e
 7916 1b44 6F0D0000 		.4byte	.LASF245
 7917 1b48 01       		.byte	0x1
 7918 1b49 C104     		.2byte	0x4c1
 7919 1b4b 27090000 		.4byte	0x927
 7920 1b4f D8050000 		.4byte	.LLST30
 7921 1b53 44       		.uleb128 0x44
 7922 1b54 BE0E0000 		.4byte	.LASF307
 7923 1b58 01       		.byte	0x1
 7924 1b59 F904     		.2byte	0x4f9
 7925 1b5b 3E010000 		.4byte	.L103
 7926 1b5f 3F       		.uleb128 0x3f
 7927 1b60 95120000 		.4byte	0x1295
 7928 1b64 38000000 		.4byte	.LBB107
 7929 1b68 06000000 		.4byte	.LBE107-.LBB107
 7930 1b6c 01       		.byte	0x1
 7931 1b6d C404     		.2byte	0x4c4
 7932 1b6f 901B0000 		.4byte	0x1b90
 7933 1b73 33       		.uleb128 0x33
ARM GAS  C:\Users\jo\AppData\Local\Temp\ccCSMiNu.s 			page 143


 7934 1b74 A2120000 		.4byte	0x12a2
 7935 1b78 22060000 		.4byte	.LLST31
 7936 1b7c 37       		.uleb128 0x37
 7937 1b7d 3E000000 		.4byte	.LVL90
 7938 1b81 22350000 		.4byte	0x3522
 7939 1b85 30       		.uleb128 0x30
 7940 1b86 01       		.uleb128 0x1
 7941 1b87 50       		.byte	0x50
 7942 1b88 05       		.uleb128 0x5
 7943 1b89 03       		.byte	0x3
 7944 1b8a 58010000 		.4byte	.LC11
 7945 1b8e 00       		.byte	0
 7946 1b8f 00       		.byte	0
 7947 1b90 3F       		.uleb128 0x3f
 7948 1b91 95120000 		.4byte	0x1295
 7949 1b95 14010000 		.4byte	.LBB109
 7950 1b99 0E000000 		.4byte	.LBE109-.LBB109
 7951 1b9d 01       		.byte	0x1
 7952 1b9e C704     		.2byte	0x4c7
 7953 1ba0 C11B0000 		.4byte	0x1bc1
 7954 1ba4 33       		.uleb128 0x33
 7955 1ba5 A2120000 		.4byte	0x12a2
 7956 1ba9 4A060000 		.4byte	.LLST32
 7957 1bad 37       		.uleb128 0x37
 7958 1bae 1A010000 		.4byte	.LVL110
 7959 1bb2 22350000 		.4byte	0x3522
 7960 1bb6 30       		.uleb128 0x30
 7961 1bb7 01       		.uleb128 0x1
 7962 1bb8 50       		.byte	0x50
 7963 1bb9 05       		.uleb128 0x5
 7964 1bba 03       		.byte	0x3
 7965 1bbb 90010000 		.4byte	.LC13
 7966 1bbf 00       		.byte	0
 7967 1bc0 00       		.byte	0
 7968 1bc1 3F       		.uleb128 0x3f
 7969 1bc2 95120000 		.4byte	0x1295
 7970 1bc6 34010000 		.4byte	.LBB111
 7971 1bca 0A000000 		.4byte	.LBE111-.LBB111
 7972 1bce 01       		.byte	0x1
 7973 1bcf F504     		.2byte	0x4f5
 7974 1bd1 F21B0000 		.4byte	0x1bf2
 7975 1bd5 33       		.uleb128 0x33
 7976 1bd6 A2120000 		.4byte	0x12a2
 7977 1bda 62060000 		.4byte	.LLST33
 7978 1bde 37       		.uleb128 0x37
 7979 1bdf 3A010000 		.4byte	.LVL113
 7980 1be3 22350000 		.4byte	0x3522
 7981 1be7 30       		.uleb128 0x30
 7982 1be8 01       		.uleb128 0x1
 7983 1be9 50       		.byte	0x50
 7984 1bea 05       		.uleb128 0x5
 7985 1beb 03       		.byte	0x3
 7986 1bec C4010000 		.4byte	.LC14
 7987 1bf0 00       		.byte	0
 7988 1bf1 00       		.byte	0
 7989 1bf2 3F       		.uleb128 0x3f
 7990 1bf3 95120000 		.4byte	0x1295
ARM GAS  C:\Users\jo\AppData\Local\Temp\ccCSMiNu.s 			page 144


 7991 1bf7 96010000 		.4byte	.LBB113
 7992 1bfb 0A000000 		.4byte	.LBE113-.LBB113
 7993 1bff 01       		.byte	0x1
 7994 1c00 C504     		.2byte	0x4c5
 7995 1c02 231C0000 		.4byte	0x1c23
 7996 1c06 33       		.uleb128 0x33
 7997 1c07 A2120000 		.4byte	0x12a2
 7998 1c0b 7A060000 		.4byte	.LLST34
 7999 1c0f 37       		.uleb128 0x37
 8000 1c10 9C010000 		.4byte	.LVL121
 8001 1c14 22350000 		.4byte	0x3522
 8002 1c18 30       		.uleb128 0x30
 8003 1c19 01       		.uleb128 0x1
 8004 1c1a 50       		.byte	0x50
 8005 1c1b 05       		.uleb128 0x5
 8006 1c1c 03       		.byte	0x3
 8007 1c1d 18010000 		.4byte	.LC9
 8008 1c21 00       		.byte	0
 8009 1c22 00       		.byte	0
 8010 1c23 3F       		.uleb128 0x3f
 8011 1c24 95120000 		.4byte	0x1295
 8012 1c28 BC010000 		.4byte	.LBB115
 8013 1c2c 08000000 		.4byte	.LBE115-.LBB115
 8014 1c30 01       		.byte	0x1
 8015 1c31 C604     		.2byte	0x4c6
 8016 1c33 541C0000 		.4byte	0x1c54
 8017 1c37 33       		.uleb128 0x33
 8018 1c38 A2120000 		.4byte	0x12a2
 8019 1c3c 92060000 		.4byte	.LLST35
 8020 1c40 37       		.uleb128 0x37
 8021 1c41 C2010000 		.4byte	.LVL126
 8022 1c45 22350000 		.4byte	0x3522
 8023 1c49 30       		.uleb128 0x30
 8024 1c4a 01       		.uleb128 0x1
 8025 1c4b 50       		.byte	0x50
 8026 1c4c 05       		.uleb128 0x5
 8027 1c4d 03       		.byte	0x3
 8028 1c4e 78010000 		.4byte	.LC12
 8029 1c52 00       		.byte	0
 8030 1c53 00       		.byte	0
 8031 1c54 2F       		.uleb128 0x2f
 8032 1c55 38000000 		.4byte	.LVL89
 8033 1c59 0F140000 		.4byte	0x140f
 8034 1c5d 821C0000 		.4byte	0x1c82
 8035 1c61 30       		.uleb128 0x30
 8036 1c62 01       		.uleb128 0x1
 8037 1c63 53       		.byte	0x53
 8038 1c64 03       		.uleb128 0x3
 8039 1c65 0A       		.byte	0xa
 8040 1c66 C404     		.2byte	0x4c4
 8041 1c68 30       		.uleb128 0x30
 8042 1c69 01       		.uleb128 0x1
 8043 1c6a 52       		.byte	0x52
 8044 1c6b 05       		.uleb128 0x5
 8045 1c6c 03       		.byte	0x3
 8046 1c6d 58010000 		.4byte	.LC11
 8047 1c71 30       		.uleb128 0x30
ARM GAS  C:\Users\jo\AppData\Local\Temp\ccCSMiNu.s 			page 145


 8048 1c72 01       		.uleb128 0x1
 8049 1c73 51       		.byte	0x51
 8050 1c74 05       		.uleb128 0x5
 8051 1c75 03       		.byte	0x3
 8052 1c76 00000000 		.4byte	.LC0
 8053 1c7a 30       		.uleb128 0x30
 8054 1c7b 02       		.uleb128 0x2
 8055 1c7c 7D       		.byte	0x7d
 8056 1c7d 00       		.sleb128 0
 8057 1c7e 02       		.uleb128 0x2
 8058 1c7f 75       		.byte	0x75
 8059 1c80 00       		.sleb128 0
 8060 1c81 00       		.byte	0
 8061 1c82 3D       		.uleb128 0x3d
 8062 1c83 9C000000 		.4byte	.LVL97
 8063 1c87 9D1C0000 		.4byte	0x1c9d
 8064 1c8b 30       		.uleb128 0x30
 8065 1c8c 01       		.uleb128 0x1
 8066 1c8d 52       		.byte	0x52
 8067 1c8e 02       		.uleb128 0x2
 8068 1c8f 75       		.byte	0x75
 8069 1c90 00       		.sleb128 0
 8070 1c91 30       		.uleb128 0x30
 8071 1c92 01       		.uleb128 0x1
 8072 1c93 51       		.byte	0x51
 8073 1c94 01       		.uleb128 0x1
 8074 1c95 33       		.byte	0x33
 8075 1c96 30       		.uleb128 0x30
 8076 1c97 01       		.uleb128 0x1
 8077 1c98 50       		.byte	0x50
 8078 1c99 02       		.uleb128 0x2
 8079 1c9a 74       		.byte	0x74
 8080 1c9b 00       		.sleb128 0
 8081 1c9c 00       		.byte	0
 8082 1c9d 41       		.uleb128 0x41
 8083 1c9e C0000000 		.4byte	.LVL100
 8084 1ca2 F3350000 		.4byte	0x35f3
 8085 1ca6 2F       		.uleb128 0x2f
 8086 1ca7 D2000000 		.4byte	.LVL101
 8087 1cab B5350000 		.4byte	0x35b5
 8088 1caf BA1C0000 		.4byte	0x1cba
 8089 1cb3 30       		.uleb128 0x30
 8090 1cb4 01       		.uleb128 0x1
 8091 1cb5 50       		.byte	0x50
 8092 1cb6 02       		.uleb128 0x2
 8093 1cb7 74       		.byte	0x74
 8094 1cb8 0C       		.sleb128 12
 8095 1cb9 00       		.byte	0
 8096 1cba 2F       		.uleb128 0x2f
 8097 1cbb F0000000 		.4byte	.LVL105
 8098 1cbf 09360000 		.4byte	0x3609
 8099 1cc3 DA1C0000 		.4byte	0x1cda
 8100 1cc7 30       		.uleb128 0x30
 8101 1cc8 01       		.uleb128 0x1
 8102 1cc9 53       		.byte	0x53
 8103 1cca 02       		.uleb128 0x2
 8104 1ccb 76       		.byte	0x76
ARM GAS  C:\Users\jo\AppData\Local\Temp\ccCSMiNu.s 			page 146


 8105 1ccc 00       		.sleb128 0
 8106 1ccd 30       		.uleb128 0x30
 8107 1cce 01       		.uleb128 0x1
 8108 1ccf 52       		.byte	0x52
 8109 1cd0 02       		.uleb128 0x2
 8110 1cd1 75       		.byte	0x75
 8111 1cd2 00       		.sleb128 0
 8112 1cd3 30       		.uleb128 0x30
 8113 1cd4 01       		.uleb128 0x1
 8114 1cd5 51       		.byte	0x51
 8115 1cd6 02       		.uleb128 0x2
 8116 1cd7 77       		.byte	0x77
 8117 1cd8 00       		.sleb128 0
 8118 1cd9 00       		.byte	0
 8119 1cda 2F       		.uleb128 0x2f
 8120 1cdb 14010000 		.4byte	.LVL109
 8121 1cdf 0F140000 		.4byte	0x140f
 8122 1ce3 0B1D0000 		.4byte	0x1d0b
 8123 1ce7 30       		.uleb128 0x30
 8124 1ce8 01       		.uleb128 0x1
 8125 1ce9 53       		.byte	0x53
 8126 1cea 03       		.uleb128 0x3
 8127 1ceb 0A       		.byte	0xa
 8128 1cec C804     		.2byte	0x4c8
 8129 1cee 30       		.uleb128 0x30
 8130 1cef 01       		.uleb128 0x1
 8131 1cf0 52       		.byte	0x52
 8132 1cf1 05       		.uleb128 0x5
 8133 1cf2 03       		.byte	0x3
 8134 1cf3 90010000 		.4byte	.LC13
 8135 1cf7 30       		.uleb128 0x30
 8136 1cf8 01       		.uleb128 0x1
 8137 1cf9 51       		.byte	0x51
 8138 1cfa 05       		.uleb128 0x5
 8139 1cfb 03       		.byte	0x3
 8140 1cfc 00000000 		.4byte	.LC0
 8141 1d00 30       		.uleb128 0x30
 8142 1d01 02       		.uleb128 0x2
 8143 1d02 7D       		.byte	0x7d
 8144 1d03 00       		.sleb128 0
 8145 1d04 05       		.uleb128 0x5
 8146 1d05 03       		.byte	0x3
 8147 1d06 4C000000 		.4byte	.LC2
 8148 1d0a 00       		.byte	0
 8149 1d0b 2F       		.uleb128 0x2f
 8150 1d0c 34010000 		.4byte	.LVL112
 8151 1d10 0F140000 		.4byte	0x140f
 8152 1d14 3C1D0000 		.4byte	0x1d3c
 8153 1d18 30       		.uleb128 0x30
 8154 1d19 01       		.uleb128 0x1
 8155 1d1a 53       		.byte	0x53
 8156 1d1b 03       		.uleb128 0x3
 8157 1d1c 0A       		.byte	0xa
 8158 1d1d F504     		.2byte	0x4f5
 8159 1d1f 30       		.uleb128 0x30
 8160 1d20 01       		.uleb128 0x1
 8161 1d21 52       		.byte	0x52
ARM GAS  C:\Users\jo\AppData\Local\Temp\ccCSMiNu.s 			page 147


 8162 1d22 05       		.uleb128 0x5
 8163 1d23 03       		.byte	0x3
 8164 1d24 C4010000 		.4byte	.LC14
 8165 1d28 30       		.uleb128 0x30
 8166 1d29 01       		.uleb128 0x1
 8167 1d2a 51       		.byte	0x51
 8168 1d2b 05       		.uleb128 0x5
 8169 1d2c 03       		.byte	0x3
 8170 1d2d 00000000 		.4byte	.LC0
 8171 1d31 30       		.uleb128 0x30
 8172 1d32 02       		.uleb128 0x2
 8173 1d33 7D       		.byte	0x7d
 8174 1d34 00       		.sleb128 0
 8175 1d35 05       		.uleb128 0x5
 8176 1d36 03       		.byte	0x3
 8177 1d37 4C000000 		.4byte	.LC2
 8178 1d3b 00       		.byte	0
 8179 1d3c 3D       		.uleb128 0x3d
 8180 1d3d 60010000 		.4byte	.LVL115
 8181 1d41 571D0000 		.4byte	0x1d57
 8182 1d45 30       		.uleb128 0x30
 8183 1d46 01       		.uleb128 0x1
 8184 1d47 52       		.byte	0x52
 8185 1d48 02       		.uleb128 0x2
 8186 1d49 75       		.byte	0x75
 8187 1d4a 00       		.sleb128 0
 8188 1d4b 30       		.uleb128 0x30
 8189 1d4c 01       		.uleb128 0x1
 8190 1d4d 51       		.byte	0x51
 8191 1d4e 01       		.uleb128 0x1
 8192 1d4f 33       		.byte	0x33
 8193 1d50 30       		.uleb128 0x30
 8194 1d51 01       		.uleb128 0x1
 8195 1d52 50       		.byte	0x50
 8196 1d53 02       		.uleb128 0x2
 8197 1d54 74       		.byte	0x74
 8198 1d55 00       		.sleb128 0
 8199 1d56 00       		.byte	0
 8200 1d57 41       		.uleb128 0x41
 8201 1d58 74010000 		.4byte	.LVL117
 8202 1d5c F3350000 		.4byte	0x35f3
 8203 1d60 2F       		.uleb128 0x2f
 8204 1d61 96010000 		.4byte	.LVL120
 8205 1d65 0F140000 		.4byte	0x140f
 8206 1d69 8E1D0000 		.4byte	0x1d8e
 8207 1d6d 30       		.uleb128 0x30
 8208 1d6e 01       		.uleb128 0x1
 8209 1d6f 53       		.byte	0x53
 8210 1d70 03       		.uleb128 0x3
 8211 1d71 0A       		.byte	0xa
 8212 1d72 C504     		.2byte	0x4c5
 8213 1d74 30       		.uleb128 0x30
 8214 1d75 01       		.uleb128 0x1
 8215 1d76 52       		.byte	0x52
 8216 1d77 05       		.uleb128 0x5
 8217 1d78 03       		.byte	0x3
 8218 1d79 18010000 		.4byte	.LC9
ARM GAS  C:\Users\jo\AppData\Local\Temp\ccCSMiNu.s 			page 148


 8219 1d7d 30       		.uleb128 0x30
 8220 1d7e 01       		.uleb128 0x1
 8221 1d7f 51       		.byte	0x51
 8222 1d80 05       		.uleb128 0x5
 8223 1d81 03       		.byte	0x3
 8224 1d82 00000000 		.4byte	.LC0
 8225 1d86 30       		.uleb128 0x30
 8226 1d87 02       		.uleb128 0x2
 8227 1d88 7D       		.byte	0x7d
 8228 1d89 00       		.sleb128 0
 8229 1d8a 02       		.uleb128 0x2
 8230 1d8b 75       		.byte	0x75
 8231 1d8c 00       		.sleb128 0
 8232 1d8d 00       		.byte	0
 8233 1d8e 2F       		.uleb128 0x2f
 8234 1d8f BC010000 		.4byte	.LVL125
 8235 1d93 0F140000 		.4byte	0x140f
 8236 1d97 BF1D0000 		.4byte	0x1dbf
 8237 1d9b 30       		.uleb128 0x30
 8238 1d9c 01       		.uleb128 0x1
 8239 1d9d 53       		.byte	0x53
 8240 1d9e 03       		.uleb128 0x3
 8241 1d9f 0A       		.byte	0xa
 8242 1da0 C604     		.2byte	0x4c6
 8243 1da2 30       		.uleb128 0x30
 8244 1da3 01       		.uleb128 0x1
 8245 1da4 52       		.byte	0x52
 8246 1da5 05       		.uleb128 0x5
 8247 1da6 03       		.byte	0x3
 8248 1da7 78010000 		.4byte	.LC12
 8249 1dab 30       		.uleb128 0x30
 8250 1dac 01       		.uleb128 0x1
 8251 1dad 51       		.byte	0x51
 8252 1dae 05       		.uleb128 0x5
 8253 1daf 03       		.byte	0x3
 8254 1db0 00000000 		.4byte	.LC0
 8255 1db4 30       		.uleb128 0x30
 8256 1db5 02       		.uleb128 0x2
 8257 1db6 7D       		.byte	0x7d
 8258 1db7 00       		.sleb128 0
 8259 1db8 05       		.uleb128 0x5
 8260 1db9 03       		.byte	0x3
 8261 1dba 4C000000 		.4byte	.LC2
 8262 1dbe 00       		.byte	0
 8263 1dbf 45       		.uleb128 0x45
 8264 1dc0 D2010000 		.4byte	.LVL129
 8265 1dc4 30       		.uleb128 0x30
 8266 1dc5 01       		.uleb128 0x1
 8267 1dc6 52       		.byte	0x52
 8268 1dc7 02       		.uleb128 0x2
 8269 1dc8 79       		.byte	0x79
 8270 1dc9 00       		.sleb128 0
 8271 1dca 30       		.uleb128 0x30
 8272 1dcb 01       		.uleb128 0x1
 8273 1dcc 51       		.byte	0x51
 8274 1dcd 01       		.uleb128 0x1
 8275 1dce 33       		.byte	0x33
ARM GAS  C:\Users\jo\AppData\Local\Temp\ccCSMiNu.s 			page 149


 8276 1dcf 30       		.uleb128 0x30
 8277 1dd0 01       		.uleb128 0x1
 8278 1dd1 50       		.byte	0x50
 8279 1dd2 02       		.uleb128 0x2
 8280 1dd3 74       		.byte	0x74
 8281 1dd4 00       		.sleb128 0
 8282 1dd5 00       		.byte	0
 8283 1dd6 00       		.byte	0
 8284 1dd7 42       		.uleb128 0x42
 8285 1dd8 74030000 		.4byte	.LASF299
 8286 1ddc 01       		.byte	0x1
 8287 1ddd 1501     		.2byte	0x115
 8288 1ddf 82090000 		.4byte	0x982
 8289 1de3 00000000 		.4byte	.LFB262
 8290 1de7 84000000 		.4byte	.LFE262-.LFB262
 8291 1deb 01       		.uleb128 0x1
 8292 1dec 9C       		.byte	0x9c
 8293 1ded C81E0000 		.4byte	0x1ec8
 8294 1df1 46       		.uleb128 0x46
 8295 1df2 61726700 		.ascii	"arg\000"
 8296 1df6 01       		.byte	0x1
 8297 1df7 1501     		.2byte	0x115
 8298 1df9 64030000 		.4byte	0x364
 8299 1dfd AA060000 		.4byte	.LLST36
 8300 1e01 46       		.uleb128 0x46
 8301 1e02 70636200 		.ascii	"pcb\000"
 8302 1e06 01       		.byte	0x1
 8303 1e07 1501     		.2byte	0x115
 8304 1e09 DD0E0000 		.4byte	0xedd
 8305 1e0d DE060000 		.4byte	.LLST37
 8306 1e11 3E       		.uleb128 0x3e
 8307 1e12 7D060000 		.4byte	.LASF240
 8308 1e16 01       		.byte	0x1
 8309 1e17 1701     		.2byte	0x117
 8310 1e19 050B0000 		.4byte	0xb05
 8311 1e1d AA060000 		.4byte	.LLST36
 8312 1e21 3F       		.uleb128 0x3f
 8313 1e22 95120000 		.4byte	0x1295
 8314 1e26 6A000000 		.4byte	.LBB117
 8315 1e2a 1A000000 		.4byte	.LBE117-.LBB117
 8316 1e2e 01       		.byte	0x1
 8317 1e2f 1A01     		.2byte	0x11a
 8318 1e31 551E0000 		.4byte	0x1e55
 8319 1e35 34       		.uleb128 0x34
 8320 1e36 A2120000 		.4byte	0x12a2
 8321 1e3a 06       		.uleb128 0x6
 8322 1e3b 03       		.byte	0x3
 8323 1e3c E4010000 		.4byte	.LC15
 8324 1e40 9F       		.byte	0x9f
 8325 1e41 37       		.uleb128 0x37
 8326 1e42 70000000 		.4byte	.LVL140
 8327 1e46 22350000 		.4byte	0x3522
 8328 1e4a 30       		.uleb128 0x30
 8329 1e4b 01       		.uleb128 0x1
 8330 1e4c 50       		.byte	0x50
 8331 1e4d 05       		.uleb128 0x5
 8332 1e4e 03       		.byte	0x3
ARM GAS  C:\Users\jo\AppData\Local\Temp\ccCSMiNu.s 			page 150


 8333 1e4f E4010000 		.4byte	.LC15
 8334 1e53 00       		.byte	0
 8335 1e54 00       		.byte	0
 8336 1e55 47       		.uleb128 0x47
 8337 1e56 42000000 		.4byte	.LVL132
 8338 1e5a 02       		.uleb128 0x2
 8339 1e5b 75       		.byte	0x75
 8340 1e5c 00       		.sleb128 0
 8341 1e5d 721E0000 		.4byte	0x1e72
 8342 1e61 30       		.uleb128 0x30
 8343 1e62 01       		.uleb128 0x1
 8344 1e63 52       		.byte	0x52
 8345 1e64 01       		.uleb128 0x1
 8346 1e65 30       		.byte	0x30
 8347 1e66 30       		.uleb128 0x30
 8348 1e67 01       		.uleb128 0x1
 8349 1e68 51       		.byte	0x51
 8350 1e69 01       		.uleb128 0x1
 8351 1e6a 32       		.byte	0x32
 8352 1e6b 30       		.uleb128 0x30
 8353 1e6c 01       		.uleb128 0x1
 8354 1e6d 50       		.byte	0x50
 8355 1e6e 02       		.uleb128 0x2
 8356 1e6f 74       		.byte	0x74
 8357 1e70 00       		.sleb128 0
 8358 1e71 00       		.byte	0
 8359 1e72 2F       		.uleb128 0x2f
 8360 1e73 4E000000 		.4byte	.LVL134
 8361 1e77 AD1A0000 		.4byte	0x1aad
 8362 1e7b 861E0000 		.4byte	0x1e86
 8363 1e7f 30       		.uleb128 0x30
 8364 1e80 01       		.uleb128 0x1
 8365 1e81 50       		.byte	0x50
 8366 1e82 02       		.uleb128 0x2
 8367 1e83 74       		.byte	0x74
 8368 1e84 00       		.sleb128 0
 8369 1e85 00       		.byte	0
 8370 1e86 2F       		.uleb128 0x2f
 8371 1e87 56000000 		.4byte	.LVL135
 8372 1e8b 6E160000 		.4byte	0x166e
 8373 1e8f 9A1E0000 		.4byte	0x1e9a
 8374 1e93 30       		.uleb128 0x30
 8375 1e94 01       		.uleb128 0x1
 8376 1e95 50       		.byte	0x50
 8377 1e96 02       		.uleb128 0x2
 8378 1e97 74       		.byte	0x74
 8379 1e98 00       		.sleb128 0
 8380 1e99 00       		.byte	0
 8381 1e9a 37       		.uleb128 0x37
 8382 1e9b 6A000000 		.4byte	.LVL139
 8383 1e9f 0F140000 		.4byte	0x140f
 8384 1ea3 30       		.uleb128 0x30
 8385 1ea4 01       		.uleb128 0x1
 8386 1ea5 53       		.byte	0x53
 8387 1ea6 03       		.uleb128 0x3
 8388 1ea7 0A       		.byte	0xa
 8389 1ea8 1A01     		.2byte	0x11a
ARM GAS  C:\Users\jo\AppData\Local\Temp\ccCSMiNu.s 			page 151


 8390 1eaa 30       		.uleb128 0x30
 8391 1eab 01       		.uleb128 0x1
 8392 1eac 52       		.byte	0x52
 8393 1ead 05       		.uleb128 0x5
 8394 1eae 03       		.byte	0x3
 8395 1eaf E4010000 		.4byte	.LC15
 8396 1eb3 30       		.uleb128 0x30
 8397 1eb4 01       		.uleb128 0x1
 8398 1eb5 51       		.byte	0x51
 8399 1eb6 05       		.uleb128 0x5
 8400 1eb7 03       		.byte	0x3
 8401 1eb8 00000000 		.4byte	.LC0
 8402 1ebc 30       		.uleb128 0x30
 8403 1ebd 02       		.uleb128 0x2
 8404 1ebe 7D       		.byte	0x7d
 8405 1ebf 00       		.sleb128 0
 8406 1ec0 05       		.uleb128 0x5
 8407 1ec1 03       		.byte	0x3
 8408 1ec2 4C000000 		.4byte	.LC2
 8409 1ec6 00       		.byte	0
 8410 1ec7 00       		.byte	0
 8411 1ec8 32       		.uleb128 0x32
 8412 1ec9 C9120000 		.4byte	0x12c9
 8413 1ecd 00000000 		.4byte	.LFB263
 8414 1ed1 80000000 		.4byte	.LFE263-.LFB263
 8415 1ed5 01       		.uleb128 0x1
 8416 1ed6 9C       		.byte	0x9c
 8417 1ed7 DB1F0000 		.4byte	0x1fdb
 8418 1edb 33       		.uleb128 0x33
 8419 1edc DA120000 		.4byte	0x12da
 8420 1ee0 18070000 		.4byte	.LLST39
 8421 1ee4 33       		.uleb128 0x33
 8422 1ee5 E6120000 		.4byte	0x12e6
 8423 1ee9 4C070000 		.4byte	.LLST40
 8424 1eed 33       		.uleb128 0x33
 8425 1eee F2120000 		.4byte	0x12f2
 8426 1ef2 86070000 		.4byte	.LLST41
 8427 1ef6 48       		.uleb128 0x48
 8428 1ef7 FE120000 		.4byte	0x12fe
 8429 1efb 18070000 		.4byte	.LLST39
 8430 1eff 49       		.uleb128 0x49
 8431 1f00 2C000000 		.4byte	.LBB125
 8432 1f04 14000000 		.4byte	.LBE125-.LBB125
 8433 1f08 511F0000 		.4byte	0x1f51
 8434 1f0c 33       		.uleb128 0x33
 8435 1f0d E6120000 		.4byte	0x12e6
 8436 1f11 C0070000 		.4byte	.LLST43
 8437 1f15 33       		.uleb128 0x33
 8438 1f16 F2120000 		.4byte	0x12f2
 8439 1f1a D6070000 		.4byte	.LLST44
 8440 1f1e 33       		.uleb128 0x33
 8441 1f1f DA120000 		.4byte	0x12da
 8442 1f23 E9070000 		.4byte	.LLST45
 8443 1f27 4A       		.uleb128 0x4a
 8444 1f28 2C000000 		.4byte	.LBB126
 8445 1f2c 14000000 		.4byte	.LBE126-.LBB126
 8446 1f30 4B       		.uleb128 0x4b
ARM GAS  C:\Users\jo\AppData\Local\Temp\ccCSMiNu.s 			page 152


 8447 1f31 FE120000 		.4byte	0x12fe
 8448 1f35 4C       		.uleb128 0x4c
 8449 1f36 40000000 		.4byte	.LVL144
 8450 1f3a 02       		.uleb128 0x2
 8451 1f3b 76       		.byte	0x76
 8452 1f3c 00       		.sleb128 0
 8453 1f3d 30       		.uleb128 0x30
 8454 1f3e 01       		.uleb128 0x1
 8455 1f3f 52       		.byte	0x52
 8456 1f40 02       		.uleb128 0x2
 8457 1f41 75       		.byte	0x75
 8458 1f42 00       		.sleb128 0
 8459 1f43 30       		.uleb128 0x30
 8460 1f44 01       		.uleb128 0x1
 8461 1f45 51       		.byte	0x51
 8462 1f46 01       		.uleb128 0x1
 8463 1f47 32       		.byte	0x32
 8464 1f48 30       		.uleb128 0x30
 8465 1f49 01       		.uleb128 0x1
 8466 1f4a 50       		.byte	0x50
 8467 1f4b 02       		.uleb128 0x2
 8468 1f4c 74       		.byte	0x74
 8469 1f4d 00       		.sleb128 0
 8470 1f4e 00       		.byte	0
 8471 1f4f 00       		.byte	0
 8472 1f50 00       		.byte	0
 8473 1f51 3F       		.uleb128 0x3f
 8474 1f52 95120000 		.4byte	0x1295
 8475 1f56 68000000 		.4byte	.LBB127
 8476 1f5a 18000000 		.4byte	.LBE127-.LBB127
 8477 1f5e 01       		.byte	0x1
 8478 1f5f 3E01     		.2byte	0x13e
 8479 1f61 851F0000 		.4byte	0x1f85
 8480 1f65 34       		.uleb128 0x34
 8481 1f66 A2120000 		.4byte	0x12a2
 8482 1f6a 06       		.uleb128 0x6
 8483 1f6b 03       		.byte	0x3
 8484 1f6c E4010000 		.4byte	.LC15
 8485 1f70 9F       		.byte	0x9f
 8486 1f71 37       		.uleb128 0x37
 8487 1f72 6E000000 		.4byte	.LVL153
 8488 1f76 22350000 		.4byte	0x3522
 8489 1f7a 30       		.uleb128 0x30
 8490 1f7b 01       		.uleb128 0x1
 8491 1f7c 50       		.byte	0x50
 8492 1f7d 05       		.uleb128 0x5
 8493 1f7e 03       		.byte	0x3
 8494 1f7f E4010000 		.4byte	.LC15
 8495 1f83 00       		.byte	0
 8496 1f84 00       		.byte	0
 8497 1f85 2F       		.uleb128 0x2f
 8498 1f86 4C000000 		.4byte	.LVL146
 8499 1f8a AD1A0000 		.4byte	0x1aad
 8500 1f8e 991F0000 		.4byte	0x1f99
 8501 1f92 30       		.uleb128 0x30
 8502 1f93 01       		.uleb128 0x1
 8503 1f94 50       		.byte	0x50
ARM GAS  C:\Users\jo\AppData\Local\Temp\ccCSMiNu.s 			page 153


 8504 1f95 02       		.uleb128 0x2
 8505 1f96 74       		.byte	0x74
 8506 1f97 00       		.sleb128 0
 8507 1f98 00       		.byte	0
 8508 1f99 2F       		.uleb128 0x2f
 8509 1f9a 54000000 		.4byte	.LVL147
 8510 1f9e 6E160000 		.4byte	0x166e
 8511 1fa2 AD1F0000 		.4byte	0x1fad
 8512 1fa6 30       		.uleb128 0x30
 8513 1fa7 01       		.uleb128 0x1
 8514 1fa8 50       		.byte	0x50
 8515 1fa9 02       		.uleb128 0x2
 8516 1faa 74       		.byte	0x74
 8517 1fab 00       		.sleb128 0
 8518 1fac 00       		.byte	0
 8519 1fad 37       		.uleb128 0x37
 8520 1fae 68000000 		.4byte	.LVL152
 8521 1fb2 0F140000 		.4byte	0x140f
 8522 1fb6 30       		.uleb128 0x30
 8523 1fb7 01       		.uleb128 0x1
 8524 1fb8 53       		.byte	0x53
 8525 1fb9 03       		.uleb128 0x3
 8526 1fba 0A       		.byte	0xa
 8527 1fbb 3E01     		.2byte	0x13e
 8528 1fbd 30       		.uleb128 0x30
 8529 1fbe 01       		.uleb128 0x1
 8530 1fbf 52       		.byte	0x52
 8531 1fc0 05       		.uleb128 0x5
 8532 1fc1 03       		.byte	0x3
 8533 1fc2 E4010000 		.4byte	.LC15
 8534 1fc6 30       		.uleb128 0x30
 8535 1fc7 01       		.uleb128 0x1
 8536 1fc8 51       		.byte	0x51
 8537 1fc9 05       		.uleb128 0x5
 8538 1fca 03       		.byte	0x3
 8539 1fcb 00000000 		.4byte	.LC0
 8540 1fcf 30       		.uleb128 0x30
 8541 1fd0 02       		.uleb128 0x2
 8542 1fd1 7D       		.byte	0x7d
 8543 1fd2 00       		.sleb128 0
 8544 1fd3 05       		.uleb128 0x5
 8545 1fd4 03       		.byte	0x3
 8546 1fd5 4C000000 		.4byte	.LC2
 8547 1fd9 00       		.byte	0
 8548 1fda 00       		.byte	0
 8549 1fdb 42       		.uleb128 0x42
 8550 1fdc DD0D0000 		.4byte	.LASF300
 8551 1fe0 01       		.byte	0x1
 8552 1fe1 A903     		.2byte	0x3a9
 8553 1fe3 82090000 		.4byte	0x982
 8554 1fe7 00000000 		.4byte	.LFB275
 8555 1feb CC000000 		.4byte	.LFE275-.LFB275
 8556 1fef 01       		.uleb128 0x1
 8557 1ff0 9C       		.byte	0x9c
 8558 1ff1 5D210000 		.4byte	0x215d
 8559 1ff5 46       		.uleb128 0x46
 8560 1ff6 61726700 		.ascii	"arg\000"
ARM GAS  C:\Users\jo\AppData\Local\Temp\ccCSMiNu.s 			page 154


 8561 1ffa 01       		.byte	0x1
 8562 1ffb A903     		.2byte	0x3a9
 8563 1ffd 64030000 		.4byte	0x364
 8564 2001 FC070000 		.4byte	.LLST46
 8565 2005 46       		.uleb128 0x46
 8566 2006 70636200 		.ascii	"pcb\000"
 8567 200a 01       		.byte	0x1
 8568 200b A903     		.2byte	0x3a9
 8569 200d DD0E0000 		.4byte	0xedd
 8570 2011 30080000 		.4byte	.LLST47
 8571 2015 46       		.uleb128 0x46
 8572 2016 65727200 		.ascii	"err\000"
 8573 201a 01       		.byte	0x1
 8574 201b A903     		.2byte	0x3a9
 8575 201d 82090000 		.4byte	0x982
 8576 2021 5C080000 		.4byte	.LLST48
 8577 2025 3E       		.uleb128 0x3e
 8578 2026 7D060000 		.4byte	.LASF240
 8579 202a 01       		.byte	0x1
 8580 202b AB03     		.2byte	0x3ab
 8581 202d 050B0000 		.4byte	0xb05
 8582 2031 FC070000 		.4byte	.LLST46
 8583 2035 3E       		.uleb128 0x3e
 8584 2036 210F0000 		.4byte	.LASF301
 8585 203a 01       		.byte	0x1
 8586 203b AC03     		.2byte	0x3ac
 8587 203d 25000000 		.4byte	0x25
 8588 2041 88080000 		.4byte	.LLST50
 8589 2045 3F       		.uleb128 0x3f
 8590 2046 95120000 		.4byte	0x1295
 8591 204a 24000000 		.4byte	.LBB129
 8592 204e 06000000 		.4byte	.LBE129-.LBB129
 8593 2052 01       		.byte	0x1
 8594 2053 B603     		.2byte	0x3b6
 8595 2055 76200000 		.4byte	0x2076
 8596 2059 33       		.uleb128 0x33
 8597 205a A2120000 		.4byte	0x12a2
 8598 205e BE080000 		.4byte	.LLST51
 8599 2062 37       		.uleb128 0x37
 8600 2063 2A000000 		.4byte	.LVL159
 8601 2067 22350000 		.4byte	0x3522
 8602 206b 30       		.uleb128 0x30
 8603 206c 01       		.uleb128 0x1
 8604 206d 50       		.byte	0x50
 8605 206e 05       		.uleb128 0x5
 8606 206f 03       		.byte	0x3
 8607 2070 F4010000 		.4byte	.LC16
 8608 2074 00       		.byte	0
 8609 2075 00       		.byte	0
 8610 2076 3F       		.uleb128 0x3f
 8611 2077 95120000 		.4byte	0x1295
 8612 207b A6000000 		.4byte	.LBB131
 8613 207f 06000000 		.4byte	.LBE131-.LBB131
 8614 2083 01       		.byte	0x1
 8615 2084 B703     		.2byte	0x3b7
 8616 2086 A7200000 		.4byte	0x20a7
 8617 208a 33       		.uleb128 0x33
ARM GAS  C:\Users\jo\AppData\Local\Temp\ccCSMiNu.s 			page 155


 8618 208b A2120000 		.4byte	0x12a2
 8619 208f D6080000 		.4byte	.LLST52
 8620 2093 37       		.uleb128 0x37
 8621 2094 AC000000 		.4byte	.LVL169
 8622 2098 22350000 		.4byte	0x3522
 8623 209c 30       		.uleb128 0x30
 8624 209d 01       		.uleb128 0x1
 8625 209e 50       		.byte	0x50
 8626 209f 05       		.uleb128 0x5
 8627 20a0 03       		.byte	0x3
 8628 20a1 14020000 		.4byte	.LC17
 8629 20a5 00       		.byte	0
 8630 20a6 00       		.byte	0
 8631 20a7 2F       		.uleb128 0x2f
 8632 20a8 24000000 		.4byte	.LVL158
 8633 20ac 0F140000 		.4byte	0x140f
 8634 20b0 D8200000 		.4byte	0x20d8
 8635 20b4 30       		.uleb128 0x30
 8636 20b5 01       		.uleb128 0x1
 8637 20b6 53       		.byte	0x53
 8638 20b7 03       		.uleb128 0x3
 8639 20b8 0A       		.byte	0xa
 8640 20b9 B603     		.2byte	0x3b6
 8641 20bb 30       		.uleb128 0x30
 8642 20bc 01       		.uleb128 0x1
 8643 20bd 52       		.byte	0x52
 8644 20be 05       		.uleb128 0x5
 8645 20bf 03       		.byte	0x3
 8646 20c0 F4010000 		.4byte	.LC16
 8647 20c4 30       		.uleb128 0x30
 8648 20c5 01       		.uleb128 0x1
 8649 20c6 51       		.byte	0x51
 8650 20c7 05       		.uleb128 0x5
 8651 20c8 03       		.byte	0x3
 8652 20c9 00000000 		.4byte	.LC0
 8653 20cd 30       		.uleb128 0x30
 8654 20ce 02       		.uleb128 0x2
 8655 20cf 7D       		.byte	0x7d
 8656 20d0 00       		.sleb128 0
 8657 20d1 05       		.uleb128 0x5
 8658 20d2 03       		.byte	0x3
 8659 20d3 4C000000 		.4byte	.LC2
 8660 20d7 00       		.byte	0
 8661 20d8 3D       		.uleb128 0x3d
 8662 20d9 58000000 		.4byte	.LVL163
 8663 20dd ED200000 		.4byte	0x20ed
 8664 20e1 30       		.uleb128 0x30
 8665 20e2 01       		.uleb128 0x1
 8666 20e3 51       		.byte	0x51
 8667 20e4 01       		.uleb128 0x1
 8668 20e5 32       		.byte	0x32
 8669 20e6 30       		.uleb128 0x30
 8670 20e7 01       		.uleb128 0x1
 8671 20e8 50       		.byte	0x50
 8672 20e9 02       		.uleb128 0x2
 8673 20ea 74       		.byte	0x74
 8674 20eb 00       		.sleb128 0
ARM GAS  C:\Users\jo\AppData\Local\Temp\ccCSMiNu.s 			page 156


 8675 20ec 00       		.byte	0
 8676 20ed 2F       		.uleb128 0x2f
 8677 20ee 60000000 		.4byte	.LVL164
 8678 20f2 B5350000 		.4byte	0x35b5
 8679 20f6 01210000 		.4byte	0x2101
 8680 20fa 30       		.uleb128 0x30
 8681 20fb 01       		.uleb128 0x1
 8682 20fc 50       		.byte	0x50
 8683 20fd 02       		.uleb128 0x2
 8684 20fe 74       		.byte	0x74
 8685 20ff 0C       		.sleb128 12
 8686 2100 00       		.byte	0
 8687 2101 3D       		.uleb128 0x3d
 8688 2102 80000000 		.4byte	.LVL166
 8689 2106 1B210000 		.4byte	0x211b
 8690 210a 30       		.uleb128 0x30
 8691 210b 01       		.uleb128 0x1
 8692 210c 52       		.byte	0x52
 8693 210d 01       		.uleb128 0x1
 8694 210e 30       		.byte	0x30
 8695 210f 30       		.uleb128 0x30
 8696 2110 01       		.uleb128 0x1
 8697 2111 51       		.byte	0x51
 8698 2112 01       		.uleb128 0x1
 8699 2113 32       		.byte	0x32
 8700 2114 30       		.uleb128 0x30
 8701 2115 01       		.uleb128 0x1
 8702 2116 50       		.byte	0x50
 8703 2117 02       		.uleb128 0x2
 8704 2118 74       		.byte	0x74
 8705 2119 00       		.sleb128 0
 8706 211a 00       		.byte	0
 8707 211b 2F       		.uleb128 0x2f
 8708 211c 8C000000 		.4byte	.LVL167
 8709 2120 4E130000 		.4byte	0x134e
 8710 2124 2F210000 		.4byte	0x212f
 8711 2128 30       		.uleb128 0x30
 8712 2129 01       		.uleb128 0x1
 8713 212a 50       		.byte	0x50
 8714 212b 02       		.uleb128 0x2
 8715 212c 74       		.byte	0x74
 8716 212d 00       		.sleb128 0
 8717 212e 00       		.byte	0
 8718 212f 37       		.uleb128 0x37
 8719 2130 A6000000 		.4byte	.LVL168
 8720 2134 0F140000 		.4byte	0x140f
 8721 2138 30       		.uleb128 0x30
 8722 2139 01       		.uleb128 0x1
 8723 213a 53       		.byte	0x53
 8724 213b 03       		.uleb128 0x3
 8725 213c 0A       		.byte	0xa
 8726 213d B803     		.2byte	0x3b8
 8727 213f 30       		.uleb128 0x30
 8728 2140 01       		.uleb128 0x1
 8729 2141 52       		.byte	0x52
 8730 2142 05       		.uleb128 0x5
 8731 2143 03       		.byte	0x3
ARM GAS  C:\Users\jo\AppData\Local\Temp\ccCSMiNu.s 			page 157


 8732 2144 14020000 		.4byte	.LC17
 8733 2148 30       		.uleb128 0x30
 8734 2149 01       		.uleb128 0x1
 8735 214a 51       		.byte	0x51
 8736 214b 05       		.uleb128 0x5
 8737 214c 03       		.byte	0x3
 8738 214d 00000000 		.4byte	.LC0
 8739 2151 30       		.uleb128 0x30
 8740 2152 02       		.uleb128 0x2
 8741 2153 7D       		.byte	0x7d
 8742 2154 00       		.sleb128 0
 8743 2155 05       		.uleb128 0x5
 8744 2156 03       		.byte	0x3
 8745 2157 4C000000 		.4byte	.LC2
 8746 215b 00       		.byte	0
 8747 215c 00       		.byte	0
 8748 215d 2C       		.uleb128 0x2c
 8749 215e 3D090000 		.4byte	.LASF302
 8750 2162 01       		.byte	0x1
 8751 2163 5B01     		.2byte	0x15b
 8752 2165 00000000 		.4byte	.LFB264
 8753 2169 0C010000 		.4byte	.LFE264-.LFB264
 8754 216d 01       		.uleb128 0x1
 8755 216e 9C       		.byte	0x9c
 8756 216f B2230000 		.4byte	0x23b2
 8757 2173 46       		.uleb128 0x46
 8758 2174 61726700 		.ascii	"arg\000"
 8759 2178 01       		.byte	0x1
 8760 2179 5B01     		.2byte	0x15b
 8761 217b 64030000 		.4byte	0x364
 8762 217f EE080000 		.4byte	.LLST53
 8763 2183 46       		.uleb128 0x46
 8764 2184 65727200 		.ascii	"err\000"
 8765 2188 01       		.byte	0x1
 8766 2189 5B01     		.2byte	0x15b
 8767 218b 82090000 		.4byte	0x982
 8768 218f 61090000 		.4byte	.LLST54
 8769 2193 3E       		.uleb128 0x3e
 8770 2194 7D060000 		.4byte	.LASF240
 8771 2198 01       		.byte	0x1
 8772 2199 5D01     		.2byte	0x15d
 8773 219b 050B0000 		.4byte	0xb05
 8774 219f EE080000 		.4byte	.LLST53
 8775 21a3 3E       		.uleb128 0x3e
 8776 21a4 F2070000 		.4byte	.LASF303
 8777 21a8 01       		.byte	0x1
 8778 21a9 5E01     		.2byte	0x15e
 8779 21ab 890A0000 		.4byte	0xa89
 8780 21af 9B090000 		.4byte	.LLST56
 8781 21b3 4D       		.uleb128 0x4d
 8782 21b4 95120000 		.4byte	0x1295
 8783 21b8 74000000 		.4byte	.LBB133
 8784 21bc 00000000 		.4byte	.Ldebug_ranges0+0
 8785 21c0 01       		.byte	0x1
 8786 21c1 9201     		.2byte	0x192
 8787 21c3 E4210000 		.4byte	0x21e4
 8788 21c7 33       		.uleb128 0x33
ARM GAS  C:\Users\jo\AppData\Local\Temp\ccCSMiNu.s 			page 158


 8789 21c8 A2120000 		.4byte	0x12a2
 8790 21cc C6090000 		.4byte	.LLST57
 8791 21d0 31       		.uleb128 0x31
 8792 21d1 80000000 		.4byte	.LVL183
 8793 21d5 22350000 		.4byte	0x3522
 8794 21d9 30       		.uleb128 0x30
 8795 21da 01       		.uleb128 0x1
 8796 21db 50       		.byte	0x50
 8797 21dc 05       		.uleb128 0x5
 8798 21dd 03       		.byte	0x3
 8799 21de 54020000 		.4byte	.LC18
 8800 21e2 00       		.byte	0
 8801 21e3 00       		.byte	0
 8802 21e4 4E       		.uleb128 0x4e
 8803 21e5 18000000 		.4byte	.Ldebug_ranges0+0x18
 8804 21e9 76220000 		.4byte	0x2276
 8805 21ed 3E       		.uleb128 0x3e
 8806 21ee 7C0A0000 		.4byte	.LASF304
 8807 21f2 01       		.byte	0x1
 8808 21f3 8601     		.2byte	0x186
 8809 21f5 25000000 		.4byte	0x25
 8810 21f9 DE090000 		.4byte	.LLST58
 8811 21fd 3F       		.uleb128 0x3f
 8812 21fe 95120000 		.4byte	0x1295
 8813 2202 E8000000 		.4byte	.LBB138
 8814 2206 24000000 		.4byte	.LBE138-.LBB138
 8815 220a 01       		.byte	0x1
 8816 220b 8B01     		.2byte	0x18b
 8817 220d 31220000 		.4byte	0x2231
 8818 2211 34       		.uleb128 0x34
 8819 2212 A2120000 		.4byte	0x12a2
 8820 2216 06       		.uleb128 0x6
 8821 2217 03       		.byte	0x3
 8822 2218 18010000 		.4byte	.LC9
 8823 221c 9F       		.byte	0x9f
 8824 221d 37       		.uleb128 0x37
 8825 221e EE000000 		.4byte	.LVL199
 8826 2222 22350000 		.4byte	0x3522
 8827 2226 30       		.uleb128 0x30
 8828 2227 01       		.uleb128 0x1
 8829 2228 50       		.byte	0x50
 8830 2229 05       		.uleb128 0x5
 8831 222a 03       		.byte	0x3
 8832 222b 18010000 		.4byte	.LC9
 8833 222f 00       		.byte	0
 8834 2230 00       		.byte	0
 8835 2231 40       		.uleb128 0x40
 8836 2232 A4000000 		.4byte	.LVL188
 8837 2236 B5350000 		.4byte	0x35b5
 8838 223a 48220000 		.4byte	0x2248
 8839 223e 30       		.uleb128 0x30
 8840 223f 01       		.uleb128 0x1
 8841 2240 50       		.byte	0x50
 8842 2241 05       		.uleb128 0x5
 8843 2242 F3       		.byte	0xf3
 8844 2243 01       		.uleb128 0x1
 8845 2244 50       		.byte	0x50
ARM GAS  C:\Users\jo\AppData\Local\Temp\ccCSMiNu.s 			page 159


 8846 2245 23       		.byte	0x23
 8847 2246 0C       		.uleb128 0xc
 8848 2247 00       		.byte	0
 8849 2248 37       		.uleb128 0x37
 8850 2249 E8000000 		.4byte	.LVL198
 8851 224d 0F140000 		.4byte	0x140f
 8852 2251 30       		.uleb128 0x30
 8853 2252 01       		.uleb128 0x1
 8854 2253 53       		.byte	0x53
 8855 2254 03       		.uleb128 0x3
 8856 2255 0A       		.byte	0xa
 8857 2256 8B01     		.2byte	0x18b
 8858 2258 30       		.uleb128 0x30
 8859 2259 01       		.uleb128 0x1
 8860 225a 52       		.byte	0x52
 8861 225b 05       		.uleb128 0x5
 8862 225c 03       		.byte	0x3
 8863 225d 18010000 		.4byte	.LC9
 8864 2261 30       		.uleb128 0x30
 8865 2262 01       		.uleb128 0x1
 8866 2263 51       		.byte	0x51
 8867 2264 05       		.uleb128 0x5
 8868 2265 03       		.byte	0x3
 8869 2266 00000000 		.4byte	.LC0
 8870 226a 30       		.uleb128 0x30
 8871 226b 02       		.uleb128 0x2
 8872 226c 7D       		.byte	0x7d
 8873 226d 00       		.sleb128 0
 8874 226e 05       		.uleb128 0x5
 8875 226f 03       		.byte	0x3
 8876 2270 4C000000 		.4byte	.LC2
 8877 2274 00       		.byte	0
 8878 2275 00       		.byte	0
 8879 2276 3F       		.uleb128 0x3f
 8880 2277 95120000 		.4byte	0x1295
 8881 227b CE000000 		.4byte	.LBB141
 8882 227f 08000000 		.4byte	.LBE141-.LBB141
 8883 2283 01       		.byte	0x1
 8884 2284 6201     		.2byte	0x162
 8885 2286 A7220000 		.4byte	0x22a7
 8886 228a 33       		.uleb128 0x33
 8887 228b A2120000 		.4byte	0x12a2
 8888 228f 140A0000 		.4byte	.LLST59
 8889 2293 37       		.uleb128 0x37
 8890 2294 D4000000 		.4byte	.LVL196
 8891 2298 22350000 		.4byte	0x3522
 8892 229c 30       		.uleb128 0x30
 8893 229d 01       		.uleb128 0x1
 8894 229e 50       		.byte	0x50
 8895 229f 05       		.uleb128 0x5
 8896 22a0 03       		.byte	0x3
 8897 22a1 E4010000 		.4byte	.LC15
 8898 22a5 00       		.byte	0
 8899 22a6 00       		.byte	0
 8900 22a7 3D       		.uleb128 0x3d
 8901 22a8 22000000 		.4byte	.LVL175
 8902 22ac C2220000 		.4byte	0x22c2
ARM GAS  C:\Users\jo\AppData\Local\Temp\ccCSMiNu.s 			page 160


 8903 22b0 30       		.uleb128 0x30
 8904 22b1 01       		.uleb128 0x1
 8905 22b2 52       		.byte	0x52
 8906 22b3 02       		.uleb128 0x2
 8907 22b4 75       		.byte	0x75
 8908 22b5 00       		.sleb128 0
 8909 22b6 30       		.uleb128 0x30
 8910 22b7 01       		.uleb128 0x1
 8911 22b8 51       		.byte	0x51
 8912 22b9 01       		.uleb128 0x1
 8913 22ba 34       		.byte	0x34
 8914 22bb 30       		.uleb128 0x30
 8915 22bc 01       		.uleb128 0x1
 8916 22bd 50       		.byte	0x50
 8917 22be 02       		.uleb128 0x2
 8918 22bf 74       		.byte	0x74
 8919 22c0 00       		.sleb128 0
 8920 22c1 00       		.byte	0
 8921 22c2 3D       		.uleb128 0x3d
 8922 22c3 2E000000 		.4byte	.LVL176
 8923 22c7 DE220000 		.4byte	0x22de
 8924 22cb 30       		.uleb128 0x30
 8925 22cc 01       		.uleb128 0x1
 8926 22cd 52       		.byte	0x52
 8927 22ce 02       		.uleb128 0x2
 8928 22cf 75       		.byte	0x75
 8929 22d0 00       		.sleb128 0
 8930 22d1 30       		.uleb128 0x30
 8931 22d2 01       		.uleb128 0x1
 8932 22d3 51       		.byte	0x51
 8933 22d4 02       		.uleb128 0x2
 8934 22d5 75       		.byte	0x75
 8935 22d6 00       		.sleb128 0
 8936 22d7 30       		.uleb128 0x30
 8937 22d8 01       		.uleb128 0x1
 8938 22d9 50       		.byte	0x50
 8939 22da 02       		.uleb128 0x2
 8940 22db 74       		.byte	0x74
 8941 22dc 00       		.sleb128 0
 8942 22dd 00       		.byte	0
 8943 22de 3D       		.uleb128 0x3d
 8944 22df 3A000000 		.4byte	.LVL177
 8945 22e3 F9220000 		.4byte	0x22f9
 8946 22e7 30       		.uleb128 0x30
 8947 22e8 01       		.uleb128 0x1
 8948 22e9 52       		.byte	0x52
 8949 22ea 02       		.uleb128 0x2
 8950 22eb 75       		.byte	0x75
 8951 22ec 00       		.sleb128 0
 8952 22ed 30       		.uleb128 0x30
 8953 22ee 01       		.uleb128 0x1
 8954 22ef 51       		.byte	0x51
 8955 22f0 01       		.uleb128 0x1
 8956 22f1 32       		.byte	0x32
 8957 22f2 30       		.uleb128 0x30
 8958 22f3 01       		.uleb128 0x1
 8959 22f4 50       		.byte	0x50
ARM GAS  C:\Users\jo\AppData\Local\Temp\ccCSMiNu.s 			page 161


 8960 22f5 02       		.uleb128 0x2
 8961 22f6 74       		.byte	0x74
 8962 22f7 00       		.sleb128 0
 8963 22f8 00       		.byte	0
 8964 22f9 2F       		.uleb128 0x2f
 8965 22fa 44000000 		.4byte	.LVL178
 8966 22fe 34350000 		.4byte	0x3534
 8967 2302 0D230000 		.4byte	0x230d
 8968 2306 30       		.uleb128 0x30
 8969 2307 01       		.uleb128 0x1
 8970 2308 50       		.byte	0x50
 8971 2309 02       		.uleb128 0x2
 8972 230a 75       		.byte	0x75
 8973 230b 00       		.sleb128 0
 8974 230c 00       		.byte	0
 8975 230d 2F       		.uleb128 0x2f
 8976 230e 52000000 		.4byte	.LVL179
 8977 2312 34350000 		.4byte	0x3534
 8978 2316 21230000 		.4byte	0x2321
 8979 231a 30       		.uleb128 0x30
 8980 231b 01       		.uleb128 0x1
 8981 231c 50       		.byte	0x50
 8982 231d 02       		.uleb128 0x2
 8983 231e 75       		.byte	0x75
 8984 231f 00       		.sleb128 0
 8985 2320 00       		.byte	0
 8986 2321 2F       		.uleb128 0x2f
 8987 2322 74000000 		.4byte	.LVL181
 8988 2326 0F140000 		.4byte	0x140f
 8989 232a 52230000 		.4byte	0x2352
 8990 232e 30       		.uleb128 0x30
 8991 232f 01       		.uleb128 0x1
 8992 2330 53       		.byte	0x53
 8993 2331 03       		.uleb128 0x3
 8994 2332 0A       		.byte	0xa
 8995 2333 9201     		.2byte	0x192
 8996 2335 30       		.uleb128 0x30
 8997 2336 01       		.uleb128 0x1
 8998 2337 52       		.byte	0x52
 8999 2338 05       		.uleb128 0x5
 9000 2339 03       		.byte	0x3
 9001 233a 54020000 		.4byte	.LC18
 9002 233e 30       		.uleb128 0x30
 9003 233f 01       		.uleb128 0x1
 9004 2340 51       		.byte	0x51
 9005 2341 05       		.uleb128 0x5
 9006 2342 03       		.byte	0x3
 9007 2343 00000000 		.4byte	.LC0
 9008 2347 30       		.uleb128 0x30
 9009 2348 02       		.uleb128 0x2
 9010 2349 7D       		.byte	0x7d
 9011 234a 00       		.sleb128 0
 9012 234b 05       		.uleb128 0x5
 9013 234c 03       		.byte	0x3
 9014 234d 4C000000 		.4byte	.LC2
 9015 2351 00       		.byte	0
 9016 2352 2F       		.uleb128 0x2f
ARM GAS  C:\Users\jo\AppData\Local\Temp\ccCSMiNu.s 			page 162


 9017 2353 B0000000 		.4byte	.LVL190
 9018 2357 7B350000 		.4byte	0x357b
 9019 235b 6B230000 		.4byte	0x236b
 9020 235f 30       		.uleb128 0x30
 9021 2360 01       		.uleb128 0x1
 9022 2361 51       		.byte	0x51
 9023 2362 01       		.uleb128 0x1
 9024 2363 30       		.byte	0x30
 9025 2364 30       		.uleb128 0x30
 9026 2365 01       		.uleb128 0x1
 9027 2366 50       		.byte	0x50
 9028 2367 02       		.uleb128 0x2
 9029 2368 75       		.byte	0x75
 9030 2369 00       		.sleb128 0
 9031 236a 00       		.byte	0
 9032 236b 2F       		.uleb128 0x2f
 9033 236c BA000000 		.4byte	.LVL191
 9034 2370 7B350000 		.4byte	0x357b
 9035 2374 84230000 		.4byte	0x2384
 9036 2378 30       		.uleb128 0x30
 9037 2379 01       		.uleb128 0x1
 9038 237a 51       		.byte	0x51
 9039 237b 01       		.uleb128 0x1
 9040 237c 30       		.byte	0x30
 9041 237d 30       		.uleb128 0x30
 9042 237e 01       		.uleb128 0x1
 9043 237f 50       		.byte	0x50
 9044 2380 02       		.uleb128 0x2
 9045 2381 75       		.byte	0x75
 9046 2382 00       		.sleb128 0
 9047 2383 00       		.byte	0
 9048 2384 37       		.uleb128 0x37
 9049 2385 CE000000 		.4byte	.LVL195
 9050 2389 0F140000 		.4byte	0x140f
 9051 238d 30       		.uleb128 0x30
 9052 238e 01       		.uleb128 0x1
 9053 238f 53       		.byte	0x53
 9054 2390 03       		.uleb128 0x3
 9055 2391 0A       		.byte	0xa
 9056 2392 6201     		.2byte	0x162
 9057 2394 30       		.uleb128 0x30
 9058 2395 01       		.uleb128 0x1
 9059 2396 52       		.byte	0x52
 9060 2397 05       		.uleb128 0x5
 9061 2398 03       		.byte	0x3
 9062 2399 E4010000 		.4byte	.LC15
 9063 239d 30       		.uleb128 0x30
 9064 239e 01       		.uleb128 0x1
 9065 239f 51       		.byte	0x51
 9066 23a0 05       		.uleb128 0x5
 9067 23a1 03       		.byte	0x3
 9068 23a2 00000000 		.4byte	.LC0
 9069 23a6 30       		.uleb128 0x30
 9070 23a7 02       		.uleb128 0x2
 9071 23a8 7D       		.byte	0x7d
 9072 23a9 00       		.sleb128 0
 9073 23aa 05       		.uleb128 0x5
ARM GAS  C:\Users\jo\AppData\Local\Temp\ccCSMiNu.s 			page 163


 9074 23ab 03       		.byte	0x3
 9075 23ac 4C000000 		.4byte	.LC2
 9076 23b0 00       		.byte	0
 9077 23b1 00       		.byte	0
 9078 23b2 4F       		.uleb128 0x4f
 9079 23b3 480D0000 		.4byte	.LASF305
 9080 23b7 01       		.byte	0x1
 9081 23b8 90       		.byte	0x90
 9082 23b9 00000000 		.4byte	.LFB260
 9083 23bd E8000000 		.4byte	.LFE260-.LFB260
 9084 23c1 01       		.uleb128 0x1
 9085 23c2 9C       		.byte	0x9c
 9086 23c3 C0250000 		.4byte	0x25c0
 9087 23c7 39       		.uleb128 0x39
 9088 23c8 61726700 		.ascii	"arg\000"
 9089 23cc 01       		.byte	0x1
 9090 23cd 90       		.byte	0x90
 9091 23ce 64030000 		.4byte	0x364
 9092 23d2 2C0A0000 		.4byte	.LLST60
 9093 23d6 39       		.uleb128 0x39
 9094 23d7 70636200 		.ascii	"pcb\000"
 9095 23db 01       		.byte	0x1
 9096 23dc 90       		.byte	0x90
 9097 23dd 740F0000 		.4byte	0xf74
 9098 23e1 B90A0000 		.4byte	.LLST61
 9099 23e5 39       		.uleb128 0x39
 9100 23e6 7000     		.ascii	"p\000"
 9101 23e8 01       		.byte	0x1
 9102 23e9 90       		.byte	0x90
 9103 23ea 100A0000 		.4byte	0xa10
 9104 23ee 3B0B0000 		.4byte	.LLST62
 9105 23f2 50       		.uleb128 0x50
 9106 23f3 D30E0000 		.4byte	.LASF146
 9107 23f7 01       		.byte	0x1
 9108 23f8 91       		.byte	0x91
 9109 23f9 160A0000 		.4byte	0xa16
 9110 23fd D40B0000 		.4byte	.LLST63
 9111 2401 50       		.uleb128 0x50
 9112 2402 5E070000 		.4byte	.LASF158
 9113 2406 01       		.byte	0x1
 9114 2407 91       		.byte	0x91
 9115 2408 3D090000 		.4byte	0x93d
 9116 240c 560C0000 		.4byte	.LLST64
 9117 2410 3B       		.uleb128 0x3b
 9118 2411 62756600 		.ascii	"buf\000"
 9119 2415 01       		.byte	0x1
 9120 2416 93       		.byte	0x93
 9121 2417 CE100000 		.4byte	0x10ce
 9122 241b BE0C0000 		.4byte	.LLST65
 9123 241f 3A       		.uleb128 0x3a
 9124 2420 7D060000 		.4byte	.LASF240
 9125 2424 01       		.byte	0x1
 9126 2425 94       		.byte	0x94
 9127 2426 050B0000 		.4byte	0xb05
 9128 242a FD0C0000 		.4byte	.LLST66
 9129 242e 3B       		.uleb128 0x3b
 9130 242f 6C656E00 		.ascii	"len\000"
ARM GAS  C:\Users\jo\AppData\Local\Temp\ccCSMiNu.s 			page 164


 9131 2433 01       		.byte	0x1
 9132 2434 95       		.byte	0x95
 9133 2435 3D090000 		.4byte	0x93d
 9134 2439 740D0000 		.4byte	.LLST67
 9135 243d 3C       		.uleb128 0x3c
 9136 243e 95120000 		.4byte	0x1295
 9137 2442 30000000 		.4byte	.LBB144
 9138 2446 06000000 		.4byte	.LBE144-.LBB144
 9139 244a 01       		.byte	0x1
 9140 244b 9E       		.byte	0x9e
 9141 244c 6D240000 		.4byte	0x246d
 9142 2450 33       		.uleb128 0x33
 9143 2451 A2120000 		.4byte	0x12a2
 9144 2455 A80D0000 		.4byte	.LLST68
 9145 2459 37       		.uleb128 0x37
 9146 245a 36000000 		.4byte	.LVL204
 9147 245e 22350000 		.4byte	0x3522
 9148 2462 30       		.uleb128 0x30
 9149 2463 01       		.uleb128 0x1
 9150 2464 50       		.byte	0x50
 9151 2465 05       		.uleb128 0x5
 9152 2466 03       		.byte	0x3
 9153 2467 B4020000 		.4byte	.LC21
 9154 246b 00       		.byte	0
 9155 246c 00       		.byte	0
 9156 246d 3C       		.uleb128 0x3c
 9157 246e 95120000 		.4byte	0x1295
 9158 2472 98000000 		.4byte	.LBB146
 9159 2476 08000000 		.4byte	.LBE146-.LBB146
 9160 247a 01       		.byte	0x1
 9161 247b 9B       		.byte	0x9b
 9162 247c 9D240000 		.4byte	0x249d
 9163 2480 33       		.uleb128 0x33
 9164 2481 A2120000 		.4byte	0x12a2
 9165 2485 C00D0000 		.4byte	.LLST69
 9166 2489 37       		.uleb128 0x37
 9167 248a 9E000000 		.4byte	.LVL222
 9168 248e 22350000 		.4byte	0x3522
 9169 2492 30       		.uleb128 0x30
 9170 2493 01       		.uleb128 0x1
 9171 2494 50       		.byte	0x50
 9172 2495 05       		.uleb128 0x5
 9173 2496 03       		.byte	0x3
 9174 2497 70020000 		.4byte	.LC19
 9175 249b 00       		.byte	0
 9176 249c 00       		.byte	0
 9177 249d 3C       		.uleb128 0x3c
 9178 249e 95120000 		.4byte	0x1295
 9179 24a2 BC000000 		.4byte	.LBB148
 9180 24a6 08000000 		.4byte	.LBE148-.LBB148
 9181 24aa 01       		.byte	0x1
 9182 24ab 9C       		.byte	0x9c
 9183 24ac CD240000 		.4byte	0x24cd
 9184 24b0 33       		.uleb128 0x33
 9185 24b1 A2120000 		.4byte	0x12a2
 9186 24b5 D80D0000 		.4byte	.LLST70
 9187 24b9 37       		.uleb128 0x37
ARM GAS  C:\Users\jo\AppData\Local\Temp\ccCSMiNu.s 			page 165


 9188 24ba C2000000 		.4byte	.LVL227
 9189 24be 22350000 		.4byte	0x3522
 9190 24c2 30       		.uleb128 0x30
 9191 24c3 01       		.uleb128 0x1
 9192 24c4 50       		.byte	0x50
 9193 24c5 05       		.uleb128 0x5
 9194 24c6 03       		.byte	0x3
 9195 24c7 94020000 		.4byte	.LC20
 9196 24cb 00       		.byte	0
 9197 24cc 00       		.byte	0
 9198 24cd 2F       		.uleb128 0x2f
 9199 24ce 30000000 		.4byte	.LVL203
 9200 24d2 0F140000 		.4byte	0x140f
 9201 24d6 FD240000 		.4byte	0x24fd
 9202 24da 30       		.uleb128 0x30
 9203 24db 01       		.uleb128 0x1
 9204 24dc 53       		.byte	0x53
 9205 24dd 02       		.uleb128 0x2
 9206 24de 08       		.byte	0x8
 9207 24df 9E       		.byte	0x9e
 9208 24e0 30       		.uleb128 0x30
 9209 24e1 01       		.uleb128 0x1
 9210 24e2 52       		.byte	0x52
 9211 24e3 05       		.uleb128 0x5
 9212 24e4 03       		.byte	0x3
 9213 24e5 B4020000 		.4byte	.LC21
 9214 24e9 30       		.uleb128 0x30
 9215 24ea 01       		.uleb128 0x1
 9216 24eb 51       		.byte	0x51
 9217 24ec 05       		.uleb128 0x5
 9218 24ed 03       		.byte	0x3
 9219 24ee 00000000 		.4byte	.LC0
 9220 24f2 30       		.uleb128 0x30
 9221 24f3 02       		.uleb128 0x2
 9222 24f4 7D       		.byte	0x7d
 9223 24f5 00       		.sleb128 0
 9224 24f6 05       		.uleb128 0x5
 9225 24f7 03       		.byte	0x3
 9226 24f8 4C000000 		.4byte	.LC2
 9227 24fc 00       		.byte	0
 9228 24fd 2F       		.uleb128 0x2f
 9229 24fe 40000000 		.4byte	.LVL205
 9230 2502 34350000 		.4byte	0x3534
 9231 2506 11250000 		.4byte	0x2511
 9232 250a 30       		.uleb128 0x30
 9233 250b 01       		.uleb128 0x1
 9234 250c 50       		.byte	0x50
 9235 250d 02       		.uleb128 0x2
 9236 250e 78       		.byte	0x78
 9237 250f 00       		.sleb128 0
 9238 2510 00       		.byte	0
 9239 2511 40       		.uleb128 0x40
 9240 2512 4E000000 		.4byte	.LVL208
 9241 2516 66350000 		.4byte	0x3566
 9242 251a 26250000 		.4byte	0x2526
 9243 251e 30       		.uleb128 0x30
 9244 251f 01       		.uleb128 0x1
ARM GAS  C:\Users\jo\AppData\Local\Temp\ccCSMiNu.s 			page 166


 9245 2520 50       		.byte	0x50
 9246 2521 03       		.uleb128 0x3
 9247 2522 F3       		.byte	0xf3
 9248 2523 01       		.uleb128 0x1
 9249 2524 52       		.byte	0x52
 9250 2525 00       		.byte	0
 9251 2526 41       		.uleb128 0x41
 9252 2527 56000000 		.4byte	.LVL209
 9253 252b 2E360000 		.4byte	0x362e
 9254 252f 2F       		.uleb128 0x2f
 9255 2530 74000000 		.4byte	.LVL214
 9256 2534 7B350000 		.4byte	0x357b
 9257 2538 49250000 		.4byte	0x2549
 9258 253c 30       		.uleb128 0x30
 9259 253d 01       		.uleb128 0x1
 9260 253e 51       		.byte	0x51
 9261 253f 02       		.uleb128 0x2
 9262 2540 75       		.byte	0x75
 9263 2541 00       		.sleb128 0
 9264 2542 30       		.uleb128 0x30
 9265 2543 01       		.uleb128 0x1
 9266 2544 50       		.byte	0x50
 9267 2545 02       		.uleb128 0x2
 9268 2546 78       		.byte	0x78
 9269 2547 00       		.sleb128 0
 9270 2548 00       		.byte	0
 9271 2549 51       		.uleb128 0x51
 9272 254a 88000000 		.4byte	.LVL216
 9273 254e 5A250000 		.4byte	0x255a
 9274 2552 30       		.uleb128 0x30
 9275 2553 01       		.uleb128 0x1
 9276 2554 50       		.byte	0x50
 9277 2555 03       		.uleb128 0x3
 9278 2556 F3       		.byte	0xf3
 9279 2557 01       		.uleb128 0x1
 9280 2558 50       		.byte	0x50
 9281 2559 00       		.byte	0
 9282 255a 2F       		.uleb128 0x2f
 9283 255b 98000000 		.4byte	.LVL221
 9284 255f 0F140000 		.4byte	0x140f
 9285 2563 8A250000 		.4byte	0x258a
 9286 2567 30       		.uleb128 0x30
 9287 2568 01       		.uleb128 0x1
 9288 2569 53       		.byte	0x53
 9289 256a 02       		.uleb128 0x2
 9290 256b 08       		.byte	0x8
 9291 256c 9B       		.byte	0x9b
 9292 256d 30       		.uleb128 0x30
 9293 256e 01       		.uleb128 0x1
 9294 256f 52       		.byte	0x52
 9295 2570 05       		.uleb128 0x5
 9296 2571 03       		.byte	0x3
 9297 2572 70020000 		.4byte	.LC19
 9298 2576 30       		.uleb128 0x30
 9299 2577 01       		.uleb128 0x1
 9300 2578 51       		.byte	0x51
 9301 2579 05       		.uleb128 0x5
ARM GAS  C:\Users\jo\AppData\Local\Temp\ccCSMiNu.s 			page 167


 9302 257a 03       		.byte	0x3
 9303 257b 00000000 		.4byte	.LC0
 9304 257f 30       		.uleb128 0x30
 9305 2580 02       		.uleb128 0x2
 9306 2581 7D       		.byte	0x7d
 9307 2582 00       		.sleb128 0
 9308 2583 05       		.uleb128 0x5
 9309 2584 03       		.byte	0x3
 9310 2585 4C000000 		.4byte	.LC2
 9311 2589 00       		.byte	0
 9312 258a 52       		.uleb128 0x52
 9313 258b AC000000 		.4byte	.LVL225
 9314 258f 43360000 		.4byte	0x3643
 9315 2593 37       		.uleb128 0x37
 9316 2594 BC000000 		.4byte	.LVL226
 9317 2598 0F140000 		.4byte	0x140f
 9318 259c 30       		.uleb128 0x30
 9319 259d 01       		.uleb128 0x1
 9320 259e 53       		.byte	0x53
 9321 259f 02       		.uleb128 0x2
 9322 25a0 08       		.byte	0x8
 9323 25a1 9C       		.byte	0x9c
 9324 25a2 30       		.uleb128 0x30
 9325 25a3 01       		.uleb128 0x1
 9326 25a4 52       		.byte	0x52
 9327 25a5 05       		.uleb128 0x5
 9328 25a6 03       		.byte	0x3
 9329 25a7 94020000 		.4byte	.LC20
 9330 25ab 30       		.uleb128 0x30
 9331 25ac 01       		.uleb128 0x1
 9332 25ad 51       		.byte	0x51
 9333 25ae 05       		.uleb128 0x5
 9334 25af 03       		.byte	0x3
 9335 25b0 00000000 		.4byte	.LC0
 9336 25b4 30       		.uleb128 0x30
 9337 25b5 02       		.uleb128 0x2
 9338 25b6 7D       		.byte	0x7d
 9339 25b7 00       		.sleb128 0
 9340 25b8 05       		.uleb128 0x5
 9341 25b9 03       		.byte	0x3
 9342 25ba 4C000000 		.4byte	.LC2
 9343 25be 00       		.byte	0
 9344 25bf 00       		.byte	0
 9345 25c0 53       		.uleb128 0x53
 9346 25c1 710C0000 		.4byte	.LASF309
 9347 25c5 01       		.byte	0x1
 9348 25c6 2402     		.2byte	0x224
 9349 25c8 00000000 		.4byte	.LFB268
 9350 25cc 74000000 		.4byte	.LFE268-.LFB268
 9351 25d0 01       		.uleb128 0x1
 9352 25d1 9C       		.byte	0x9c
 9353 25d2 56260000 		.4byte	0x2656
 9354 25d6 46       		.uleb128 0x46
 9355 25d7 6D736700 		.ascii	"msg\000"
 9356 25db 01       		.byte	0x1
 9357 25dc 2402     		.2byte	0x224
 9358 25de B60F0000 		.4byte	0xfb6
ARM GAS  C:\Users\jo\AppData\Local\Temp\ccCSMiNu.s 			page 168


 9359 25e2 F00D0000 		.4byte	.LLST71
 9360 25e6 3F       		.uleb128 0x3f
 9361 25e7 AF120000 		.4byte	0x12af
 9362 25eb 18000000 		.4byte	.LBB154
 9363 25ef 5C000000 		.4byte	.LBE154-.LBB154
 9364 25f3 01       		.byte	0x1
 9365 25f4 2802     		.2byte	0x228
 9366 25f6 4C260000 		.4byte	0x264c
 9367 25fa 33       		.uleb128 0x33
 9368 25fb BC120000 		.4byte	0x12bc
 9369 25ff 3D0E0000 		.4byte	.LLST72
 9370 2603 33       		.uleb128 0x33
 9371 2604 BC120000 		.4byte	0x12bc
 9372 2608 3D0E0000 		.4byte	.LLST72
 9373 260c 41       		.uleb128 0x41
 9374 260d 2C000000 		.4byte	.LVL233
 9375 2611 54360000 		.4byte	0x3654
 9376 2615 2F       		.uleb128 0x2f
 9377 2616 4A000000 		.4byte	.LVL234
 9378 261a 5F360000 		.4byte	0x365f
 9379 261e 32260000 		.4byte	0x2632
 9380 2622 30       		.uleb128 0x30
 9381 2623 01       		.uleb128 0x1
 9382 2624 52       		.byte	0x52
 9383 2625 02       		.uleb128 0x2
 9384 2626 74       		.byte	0x74
 9385 2627 00       		.sleb128 0
 9386 2628 30       		.uleb128 0x30
 9387 2629 01       		.uleb128 0x1
 9388 262a 51       		.byte	0x51
 9389 262b 05       		.uleb128 0x5
 9390 262c 03       		.byte	0x3
 9391 262d 00000000 		.4byte	recv_udp
 9392 2631 00       		.byte	0
 9393 2632 41       		.uleb128 0x41
 9394 2633 58000000 		.4byte	.LVL236
 9395 2637 7A360000 		.4byte	0x367a
 9396 263b 37       		.uleb128 0x37
 9397 263c 66000000 		.4byte	.LVL237
 9398 2640 4E130000 		.4byte	0x134e
 9399 2644 30       		.uleb128 0x30
 9400 2645 01       		.uleb128 0x1
 9401 2646 50       		.byte	0x50
 9402 2647 02       		.uleb128 0x2
 9403 2648 74       		.byte	0x74
 9404 2649 00       		.sleb128 0
 9405 264a 00       		.byte	0
 9406 264b 00       		.byte	0
 9407 264c 52       		.uleb128 0x52
 9408 264d 18000000 		.4byte	.LVL232
 9409 2651 B5350000 		.4byte	0x35b5
 9410 2655 00       		.byte	0
 9411 2656 54       		.uleb128 0x54
 9412 2657 A10E0000 		.4byte	.LASF376
 9413 265b 01       		.byte	0x1
 9414 265c 3C02     		.2byte	0x23c
 9415 265e 050B0000 		.4byte	0xb05
ARM GAS  C:\Users\jo\AppData\Local\Temp\ccCSMiNu.s 			page 169


 9416 2662 00000000 		.4byte	.LFB269
 9417 2666 A8000000 		.4byte	.LFE269-.LFB269
 9418 266a 01       		.uleb128 0x1
 9419 266b 9C       		.byte	0x9c
 9420 266c 91270000 		.4byte	0x2791
 9421 2670 46       		.uleb128 0x46
 9422 2671 7400     		.ascii	"t\000"
 9423 2673 01       		.byte	0x1
 9424 2674 3C02     		.2byte	0x23c
 9425 2676 570A0000 		.4byte	0xa57
 9426 267a 710E0000 		.4byte	.LLST74
 9427 267e 2D       		.uleb128 0x2d
 9428 267f F10E0000 		.4byte	.LASF188
 9429 2683 01       		.byte	0x1
 9430 2684 3C02     		.2byte	0x23c
 9431 2686 DF0A0000 		.4byte	0xadf
 9432 268a 920E0000 		.4byte	.LLST75
 9433 268e 3E       		.uleb128 0x3e
 9434 268f 7D060000 		.4byte	.LASF240
 9435 2693 01       		.byte	0x1
 9436 2694 3E02     		.2byte	0x23e
 9437 2696 050B0000 		.4byte	0xb05
 9438 269a B00E0000 		.4byte	.LLST76
 9439 269e 3E       		.uleb128 0x3e
 9440 269f FC090000 		.4byte	.LASF306
 9441 26a3 01       		.byte	0x1
 9442 26a4 3F02     		.2byte	0x23f
 9443 26a6 25000000 		.4byte	0x25
 9444 26aa FA0E0000 		.4byte	.LLST77
 9445 26ae 44       		.uleb128 0x44
 9446 26af DE080000 		.4byte	.LASF308
 9447 26b3 01       		.byte	0x1
 9448 26b4 8502     		.2byte	0x285
 9449 26b6 7C000000 		.4byte	.L288
 9450 26ba 3F       		.uleb128 0x3f
 9451 26bb 95120000 		.4byte	0x1295
 9452 26bf 76000000 		.4byte	.LBB156
 9453 26c3 06000000 		.4byte	.LBE156-.LBB156
 9454 26c7 01       		.byte	0x1
 9455 26c8 5F02     		.2byte	0x25f
 9456 26ca EB260000 		.4byte	0x26eb
 9457 26ce 33       		.uleb128 0x33
 9458 26cf A2120000 		.4byte	0x12a2
 9459 26d3 0D0F0000 		.4byte	.LLST78
 9460 26d7 37       		.uleb128 0x37
 9461 26d8 7C000000 		.4byte	.LVL251
 9462 26dc 22350000 		.4byte	0x3522
 9463 26e0 30       		.uleb128 0x30
 9464 26e1 01       		.uleb128 0x1
 9465 26e2 50       		.byte	0x50
 9466 26e3 05       		.uleb128 0x5
 9467 26e4 03       		.byte	0x3
 9468 26e5 D4020000 		.4byte	.LC22
 9469 26e9 00       		.byte	0
 9470 26ea 00       		.byte	0
 9471 26eb 41       		.uleb128 0x41
 9472 26ec 10000000 		.4byte	.LVL240
ARM GAS  C:\Users\jo\AppData\Local\Temp\ccCSMiNu.s 			page 170


 9473 26f0 2E360000 		.4byte	0x362e
 9474 26f4 2F       		.uleb128 0x2f
 9475 26f5 36000000 		.4byte	.LVL243
 9476 26f9 86360000 		.4byte	0x3686
 9477 26fd 0D270000 		.4byte	0x270d
 9478 2701 30       		.uleb128 0x30
 9479 2702 01       		.uleb128 0x1
 9480 2703 51       		.byte	0x51
 9481 2704 01       		.uleb128 0x1
 9482 2705 30       		.byte	0x30
 9483 2706 30       		.uleb128 0x30
 9484 2707 01       		.uleb128 0x1
 9485 2708 50       		.byte	0x50
 9486 2709 02       		.uleb128 0x2
 9487 270a 77       		.byte	0x77
 9488 270b 00       		.sleb128 0
 9489 270c 00       		.byte	0
 9490 270d 2F       		.uleb128 0x2f
 9491 270e 42000000 		.4byte	.LVL244
 9492 2712 A0360000 		.4byte	0x36a0
 9493 2716 27270000 		.4byte	0x2727
 9494 271a 30       		.uleb128 0x30
 9495 271b 01       		.uleb128 0x1
 9496 271c 51       		.byte	0x51
 9497 271d 02       		.uleb128 0x2
 9498 271e 75       		.byte	0x75
 9499 271f 00       		.sleb128 0
 9500 2720 30       		.uleb128 0x30
 9501 2721 01       		.uleb128 0x1
 9502 2722 50       		.byte	0x50
 9503 2723 02       		.uleb128 0x2
 9504 2724 74       		.byte	0x74
 9505 2725 10       		.sleb128 16
 9506 2726 00       		.byte	0
 9507 2727 2F       		.uleb128 0x2f
 9508 2728 4E000000 		.4byte	.LVL246
 9509 272c BA360000 		.4byte	0x36ba
 9510 2730 3B270000 		.4byte	0x273b
 9511 2734 30       		.uleb128 0x30
 9512 2735 01       		.uleb128 0x1
 9513 2736 50       		.byte	0x50
 9514 2737 02       		.uleb128 0x2
 9515 2738 74       		.byte	0x74
 9516 2739 14       		.sleb128 20
 9517 273a 00       		.byte	0
 9518 273b 2F       		.uleb128 0x2f
 9519 273c 76000000 		.4byte	.LVL250
 9520 2740 0F140000 		.4byte	0x140f
 9521 2744 6C270000 		.4byte	0x276c
 9522 2748 30       		.uleb128 0x30
 9523 2749 01       		.uleb128 0x1
 9524 274a 53       		.byte	0x53
 9525 274b 03       		.uleb128 0x3
 9526 274c 0A       		.byte	0xa
 9527 274d 5F02     		.2byte	0x25f
 9528 274f 30       		.uleb128 0x30
 9529 2750 01       		.uleb128 0x1
ARM GAS  C:\Users\jo\AppData\Local\Temp\ccCSMiNu.s 			page 171


 9530 2751 52       		.byte	0x52
 9531 2752 05       		.uleb128 0x5
 9532 2753 03       		.byte	0x3
 9533 2754 D4020000 		.4byte	.LC22
 9534 2758 30       		.uleb128 0x30
 9535 2759 01       		.uleb128 0x1
 9536 275a 51       		.byte	0x51
 9537 275b 05       		.uleb128 0x5
 9538 275c 03       		.byte	0x3
 9539 275d 00000000 		.4byte	.LC0
 9540 2761 30       		.uleb128 0x30
 9541 2762 02       		.uleb128 0x2
 9542 2763 7D       		.byte	0x7d
 9543 2764 00       		.sleb128 0
 9544 2765 05       		.uleb128 0x5
 9545 2766 03       		.byte	0x3
 9546 2767 4C000000 		.4byte	.LC2
 9547 276b 00       		.byte	0
 9548 276c 2F       		.uleb128 0x2f
 9549 276d 82000000 		.4byte	.LVL252
 9550 2771 CB360000 		.4byte	0x36cb
 9551 2775 80270000 		.4byte	0x2780
 9552 2779 30       		.uleb128 0x30
 9553 277a 01       		.uleb128 0x1
 9554 277b 50       		.byte	0x50
 9555 277c 02       		.uleb128 0x2
 9556 277d 74       		.byte	0x74
 9557 277e 00       		.sleb128 0
 9558 277f 00       		.byte	0
 9559 2780 37       		.uleb128 0x37
 9560 2781 92000000 		.4byte	.LVL255
 9561 2785 DC360000 		.4byte	0x36dc
 9562 2789 30       		.uleb128 0x30
 9563 278a 01       		.uleb128 0x1
 9564 278b 50       		.byte	0x50
 9565 278c 02       		.uleb128 0x2
 9566 278d 77       		.byte	0x77
 9567 278e 00       		.sleb128 0
 9568 278f 00       		.byte	0
 9569 2790 00       		.byte	0
 9570 2791 53       		.uleb128 0x53
 9571 2792 DF010000 		.4byte	.LASF310
 9572 2796 01       		.byte	0x1
 9573 2797 9102     		.2byte	0x291
 9574 2799 00000000 		.4byte	.LFB270
 9575 279d 9C000000 		.4byte	.LFE270-.LFB270
 9576 27a1 01       		.uleb128 0x1
 9577 27a2 9C       		.byte	0x9c
 9578 27a3 42290000 		.4byte	0x2942
 9579 27a7 2D       		.uleb128 0x2d
 9580 27a8 7D060000 		.4byte	.LASF240
 9581 27ac 01       		.byte	0x1
 9582 27ad 9102     		.2byte	0x291
 9583 27af 050B0000 		.4byte	0xb05
 9584 27b3 250F0000 		.4byte	.LLST79
 9585 27b7 3F       		.uleb128 0x3f
 9586 27b8 95120000 		.4byte	0x1295
ARM GAS  C:\Users\jo\AppData\Local\Temp\ccCSMiNu.s 			page 172


 9587 27bc 1C000000 		.4byte	.LBB158
 9588 27c0 06000000 		.4byte	.LBE158-.LBB158
 9589 27c4 01       		.byte	0x1
 9590 27c5 9302     		.2byte	0x293
 9591 27c7 E8270000 		.4byte	0x27e8
 9592 27cb 33       		.uleb128 0x33
 9593 27cc A2120000 		.4byte	0x12a2
 9594 27d0 670F0000 		.4byte	.LLST80
 9595 27d4 37       		.uleb128 0x37
 9596 27d5 22000000 		.4byte	.LVL259
 9597 27d9 22350000 		.4byte	0x3522
 9598 27dd 30       		.uleb128 0x30
 9599 27de 01       		.uleb128 0x1
 9600 27df 50       		.byte	0x50
 9601 27e0 05       		.uleb128 0x5
 9602 27e1 03       		.byte	0x3
 9603 27e2 FC020000 		.4byte	.LC23
 9604 27e6 00       		.byte	0
 9605 27e7 00       		.byte	0
 9606 27e8 3F       		.uleb128 0x3f
 9607 27e9 95120000 		.4byte	0x1295
 9608 27ed 48000000 		.4byte	.LBB160
 9609 27f1 06000000 		.4byte	.LBE160-.LBB160
 9610 27f5 01       		.byte	0x1
 9611 27f6 9702     		.2byte	0x297
 9612 27f8 19280000 		.4byte	0x2819
 9613 27fc 33       		.uleb128 0x33
 9614 27fd A2120000 		.4byte	0x12a2
 9615 2801 7F0F0000 		.4byte	.LLST81
 9616 2805 37       		.uleb128 0x37
 9617 2806 4E000000 		.4byte	.LVL263
 9618 280a 22350000 		.4byte	0x3522
 9619 280e 30       		.uleb128 0x30
 9620 280f 01       		.uleb128 0x1
 9621 2810 50       		.byte	0x50
 9622 2811 05       		.uleb128 0x5
 9623 2812 03       		.byte	0x3
 9624 2813 68030000 		.4byte	.LC25
 9625 2817 00       		.byte	0
 9626 2818 00       		.byte	0
 9627 2819 3F       		.uleb128 0x3f
 9628 281a 95120000 		.4byte	0x1295
 9629 281e 7C000000 		.4byte	.LBB162
 9630 2822 20000000 		.4byte	.LBE162-.LBB162
 9631 2826 01       		.byte	0x1
 9632 2827 9402     		.2byte	0x294
 9633 2829 4D280000 		.4byte	0x284d
 9634 282d 34       		.uleb128 0x34
 9635 282e A2120000 		.4byte	0x12a2
 9636 2832 06       		.uleb128 0x6
 9637 2833 03       		.byte	0x3
 9638 2834 2C030000 		.4byte	.LC24
 9639 2838 9F       		.byte	0x9f
 9640 2839 37       		.uleb128 0x37
 9641 283a 82000000 		.4byte	.LVL269
 9642 283e 22350000 		.4byte	0x3522
 9643 2842 30       		.uleb128 0x30
ARM GAS  C:\Users\jo\AppData\Local\Temp\ccCSMiNu.s 			page 173


 9644 2843 01       		.uleb128 0x1
 9645 2844 50       		.byte	0x50
 9646 2845 05       		.uleb128 0x5
 9647 2846 03       		.byte	0x3
 9648 2847 2C030000 		.4byte	.LC24
 9649 284b 00       		.byte	0
 9650 284c 00       		.byte	0
 9651 284d 2F       		.uleb128 0x2f
 9652 284e 1C000000 		.4byte	.LVL258
 9653 2852 0F140000 		.4byte	0x140f
 9654 2856 7E280000 		.4byte	0x287e
 9655 285a 30       		.uleb128 0x30
 9656 285b 01       		.uleb128 0x1
 9657 285c 53       		.byte	0x53
 9658 285d 03       		.uleb128 0x3
 9659 285e 0A       		.byte	0xa
 9660 285f 9302     		.2byte	0x293
 9661 2861 30       		.uleb128 0x30
 9662 2862 01       		.uleb128 0x1
 9663 2863 52       		.byte	0x52
 9664 2864 05       		.uleb128 0x5
 9665 2865 03       		.byte	0x3
 9666 2866 FC020000 		.4byte	.LC23
 9667 286a 30       		.uleb128 0x30
 9668 286b 01       		.uleb128 0x1
 9669 286c 51       		.byte	0x51
 9670 286d 05       		.uleb128 0x5
 9671 286e 03       		.byte	0x3
 9672 286f 00000000 		.4byte	.LC0
 9673 2873 30       		.uleb128 0x30
 9674 2874 02       		.uleb128 0x2
 9675 2875 7D       		.byte	0x7d
 9676 2876 00       		.sleb128 0
 9677 2877 05       		.uleb128 0x5
 9678 2878 03       		.byte	0x3
 9679 2879 4C000000 		.4byte	.LC2
 9680 287d 00       		.byte	0
 9681 287e 2F       		.uleb128 0x2f
 9682 287f 2A000000 		.4byte	.LVL260
 9683 2883 34350000 		.4byte	0x3534
 9684 2887 92280000 		.4byte	0x2892
 9685 288b 30       		.uleb128 0x30
 9686 288c 01       		.uleb128 0x1
 9687 288d 50       		.byte	0x50
 9688 288e 02       		.uleb128 0x2
 9689 288f 74       		.byte	0x74
 9690 2890 10       		.sleb128 16
 9691 2891 00       		.byte	0
 9692 2892 2F       		.uleb128 0x2f
 9693 2893 34000000 		.4byte	.LVL261
 9694 2897 34350000 		.4byte	0x3534
 9695 289b A6280000 		.4byte	0x28a6
 9696 289f 30       		.uleb128 0x30
 9697 28a0 01       		.uleb128 0x1
 9698 28a1 50       		.byte	0x50
 9699 28a2 02       		.uleb128 0x2
 9700 28a3 74       		.byte	0x74
ARM GAS  C:\Users\jo\AppData\Local\Temp\ccCSMiNu.s 			page 174


 9701 28a4 14       		.sleb128 20
 9702 28a5 00       		.byte	0
 9703 28a6 2F       		.uleb128 0x2f
 9704 28a7 48000000 		.4byte	.LVL262
 9705 28ab 0F140000 		.4byte	0x140f
 9706 28af D7280000 		.4byte	0x28d7
 9707 28b3 30       		.uleb128 0x30
 9708 28b4 01       		.uleb128 0x1
 9709 28b5 53       		.byte	0x53
 9710 28b6 03       		.uleb128 0x3
 9711 28b7 0A       		.byte	0xa
 9712 28b8 9802     		.2byte	0x298
 9713 28ba 30       		.uleb128 0x30
 9714 28bb 01       		.uleb128 0x1
 9715 28bc 52       		.byte	0x52
 9716 28bd 05       		.uleb128 0x5
 9717 28be 03       		.byte	0x3
 9718 28bf 68030000 		.4byte	.LC25
 9719 28c3 30       		.uleb128 0x30
 9720 28c4 01       		.uleb128 0x1
 9721 28c5 51       		.byte	0x51
 9722 28c6 05       		.uleb128 0x5
 9723 28c7 03       		.byte	0x3
 9724 28c8 00000000 		.4byte	.LC0
 9725 28cc 30       		.uleb128 0x30
 9726 28cd 02       		.uleb128 0x2
 9727 28ce 7D       		.byte	0x7d
 9728 28cf 00       		.sleb128 0
 9729 28d0 05       		.uleb128 0x5
 9730 28d1 03       		.byte	0x3
 9731 28d2 4C000000 		.4byte	.LC2
 9732 28d6 00       		.byte	0
 9733 28d7 2F       		.uleb128 0x2f
 9734 28d8 58000000 		.4byte	.LVL264
 9735 28dc DC360000 		.4byte	0x36dc
 9736 28e0 EB280000 		.4byte	0x28eb
 9737 28e4 30       		.uleb128 0x30
 9738 28e5 01       		.uleb128 0x1
 9739 28e6 50       		.byte	0x50
 9740 28e7 02       		.uleb128 0x2
 9741 28e8 75       		.byte	0x75
 9742 28e9 00       		.sleb128 0
 9743 28ea 00       		.byte	0
 9744 28eb 2F       		.uleb128 0x2f
 9745 28ec 5E000000 		.4byte	.LVL265
 9746 28f0 ED360000 		.4byte	0x36ed
 9747 28f4 FF280000 		.4byte	0x28ff
 9748 28f8 30       		.uleb128 0x30
 9749 28f9 01       		.uleb128 0x1
 9750 28fa 50       		.byte	0x50
 9751 28fb 02       		.uleb128 0x2
 9752 28fc 75       		.byte	0x75
 9753 28fd 00       		.sleb128 0
 9754 28fe 00       		.byte	0
 9755 28ff 40       		.uleb128 0x40
 9756 2900 6A000000 		.4byte	.LVL267
 9757 2904 CB360000 		.4byte	0x36cb
ARM GAS  C:\Users\jo\AppData\Local\Temp\ccCSMiNu.s 			page 175


 9758 2908 14290000 		.4byte	0x2914
 9759 290c 30       		.uleb128 0x30
 9760 290d 01       		.uleb128 0x1
 9761 290e 50       		.byte	0x50
 9762 290f 03       		.uleb128 0x3
 9763 2910 F3       		.byte	0xf3
 9764 2911 01       		.uleb128 0x1
 9765 2912 50       		.byte	0x50
 9766 2913 00       		.byte	0
 9767 2914 37       		.uleb128 0x37
 9768 2915 7C000000 		.4byte	.LVL268
 9769 2919 0F140000 		.4byte	0x140f
 9770 291d 30       		.uleb128 0x30
 9771 291e 01       		.uleb128 0x1
 9772 291f 53       		.byte	0x53
 9773 2920 03       		.uleb128 0x3
 9774 2921 0A       		.byte	0xa
 9775 2922 9502     		.2byte	0x295
 9776 2924 30       		.uleb128 0x30
 9777 2925 01       		.uleb128 0x1
 9778 2926 52       		.byte	0x52
 9779 2927 05       		.uleb128 0x5
 9780 2928 03       		.byte	0x3
 9781 2929 2C030000 		.4byte	.LC24
 9782 292d 30       		.uleb128 0x30
 9783 292e 01       		.uleb128 0x1
 9784 292f 51       		.byte	0x51
 9785 2930 05       		.uleb128 0x5
 9786 2931 03       		.byte	0x3
 9787 2932 00000000 		.4byte	.LC0
 9788 2936 30       		.uleb128 0x30
 9789 2937 02       		.uleb128 0x2
 9790 2938 7D       		.byte	0x7d
 9791 2939 00       		.sleb128 0
 9792 293a 05       		.uleb128 0x5
 9793 293b 03       		.byte	0x3
 9794 293c 4C000000 		.4byte	.LC2
 9795 2940 00       		.byte	0
 9796 2941 00       		.byte	0
 9797 2942 2C       		.uleb128 0x2c
 9798 2943 57090000 		.4byte	.LASF311
 9799 2947 01       		.byte	0x1
 9800 2948 AA02     		.2byte	0x2aa
 9801 294a 00000000 		.4byte	.LFB271
 9802 294e E0000000 		.4byte	.LFE271-.LFB271
 9803 2952 01       		.uleb128 0x1
 9804 2953 9C       		.byte	0x9c
 9805 2954 1C2B0000 		.4byte	0x2b1c
 9806 2958 2D       		.uleb128 0x2d
 9807 2959 7D060000 		.4byte	.LASF240
 9808 295d 01       		.byte	0x1
 9809 295e AA02     		.2byte	0x2aa
 9810 2960 050B0000 		.4byte	0xb05
 9811 2964 970F0000 		.4byte	.LLST82
 9812 2968 55       		.uleb128 0x55
 9813 2969 6D656D00 		.ascii	"mem\000"
 9814 296d 01       		.byte	0x1
ARM GAS  C:\Users\jo\AppData\Local\Temp\ccCSMiNu.s 			page 176


 9815 296e AC02     		.2byte	0x2ac
 9816 2970 64030000 		.4byte	0x364
 9817 2974 02       		.uleb128 0x2
 9818 2975 91       		.byte	0x91
 9819 2976 5C       		.sleb128 -36
 9820 2977 2E       		.uleb128 0x2e
 9821 2978 7000     		.ascii	"p\000"
 9822 297a 01       		.byte	0x1
 9823 297b AE02     		.2byte	0x2ae
 9824 297d 100A0000 		.4byte	0xa10
 9825 2981 B50F0000 		.4byte	.LLST83
 9826 2985 49       		.uleb128 0x49
 9827 2986 66000000 		.4byte	.LBB164
 9828 298a 42000000 		.4byte	.LBE164-.LBB164
 9829 298e 2F2A0000 		.4byte	0x2a2f
 9830 2992 3E       		.uleb128 0x3e
 9831 2993 740F0000 		.4byte	.LASF312
 9832 2997 01       		.byte	0x1
 9833 2998 CE02     		.2byte	0x2ce
 9834 299a 050B0000 		.4byte	0xb05
 9835 299e C80F0000 		.4byte	.LLST84
 9836 29a2 3F       		.uleb128 0x3f
 9837 29a3 95120000 		.4byte	0x1295
 9838 29a7 8A000000 		.4byte	.LBB165
 9839 29ab 06000000 		.4byte	.LBE165-.LBB165
 9840 29af 01       		.byte	0x1
 9841 29b0 D202     		.2byte	0x2d2
 9842 29b2 D3290000 		.4byte	0x29d3
 9843 29b6 33       		.uleb128 0x33
 9844 29b7 A2120000 		.4byte	0x12a2
 9845 29bb DB0F0000 		.4byte	.LLST85
 9846 29bf 37       		.uleb128 0x37
 9847 29c0 90000000 		.4byte	.LVL284
 9848 29c4 22350000 		.4byte	0x3522
 9849 29c8 30       		.uleb128 0x30
 9850 29c9 01       		.uleb128 0x1
 9851 29ca 50       		.byte	0x50
 9852 29cb 05       		.uleb128 0x5
 9853 29cc 03       		.byte	0x3
 9854 29cd A4030000 		.4byte	.LC26
 9855 29d1 00       		.byte	0
 9856 29d2 00       		.byte	0
 9857 29d3 2F       		.uleb128 0x2f
 9858 29d4 8A000000 		.4byte	.LVL283
 9859 29d8 0F140000 		.4byte	0x140f
 9860 29dc 012A0000 		.4byte	0x2a01
 9861 29e0 30       		.uleb128 0x30
 9862 29e1 01       		.uleb128 0x1
 9863 29e2 53       		.byte	0x53
 9864 29e3 03       		.uleb128 0x3
 9865 29e4 0A       		.byte	0xa
 9866 29e5 D202     		.2byte	0x2d2
 9867 29e7 30       		.uleb128 0x30
 9868 29e8 01       		.uleb128 0x1
 9869 29e9 52       		.byte	0x52
 9870 29ea 05       		.uleb128 0x5
 9871 29eb 03       		.byte	0x3
ARM GAS  C:\Users\jo\AppData\Local\Temp\ccCSMiNu.s 			page 177


 9872 29ec A4030000 		.4byte	.LC26
 9873 29f0 30       		.uleb128 0x30
 9874 29f1 01       		.uleb128 0x1
 9875 29f2 51       		.byte	0x51
 9876 29f3 05       		.uleb128 0x5
 9877 29f4 03       		.byte	0x3
 9878 29f5 00000000 		.4byte	.LC0
 9879 29f9 30       		.uleb128 0x30
 9880 29fa 02       		.uleb128 0x2
 9881 29fb 7D       		.byte	0x7d
 9882 29fc 00       		.sleb128 0
 9883 29fd 02       		.uleb128 0x2
 9884 29fe 79       		.byte	0x79
 9885 29ff 00       		.sleb128 0
 9886 2a00 00       		.byte	0
 9887 2a01 2F       		.uleb128 0x2f
 9888 2a02 96000000 		.4byte	.LVL285
 9889 2a06 42290000 		.4byte	0x2942
 9890 2a0a 152A0000 		.4byte	0x2a15
 9891 2a0e 30       		.uleb128 0x30
 9892 2a0f 01       		.uleb128 0x1
 9893 2a10 50       		.byte	0x50
 9894 2a11 02       		.uleb128 0x2
 9895 2a12 74       		.byte	0x74
 9896 2a13 00       		.sleb128 0
 9897 2a14 00       		.byte	0
 9898 2a15 41       		.uleb128 0x41
 9899 2a16 9E000000 		.4byte	.LVL286
 9900 2a1a FE360000 		.4byte	0x36fe
 9901 2a1e 37       		.uleb128 0x37
 9902 2a1f A8000000 		.4byte	.LVL287
 9903 2a23 91270000 		.4byte	0x2791
 9904 2a27 30       		.uleb128 0x30
 9905 2a28 01       		.uleb128 0x1
 9906 2a29 50       		.byte	0x50
 9907 2a2a 02       		.uleb128 0x2
 9908 2a2b 74       		.byte	0x74
 9909 2a2c 00       		.sleb128 0
 9910 2a2d 00       		.byte	0
 9911 2a2e 00       		.byte	0
 9912 2a2f 2F       		.uleb128 0x2f
 9913 2a30 12000000 		.4byte	.LVL272
 9914 2a34 34350000 		.4byte	0x3534
 9915 2a38 432A0000 		.4byte	0x2a43
 9916 2a3c 30       		.uleb128 0x30
 9917 2a3d 01       		.uleb128 0x1
 9918 2a3e 50       		.byte	0x50
 9919 2a3f 02       		.uleb128 0x2
 9920 2a40 74       		.byte	0x74
 9921 2a41 00       		.sleb128 0
 9922 2a42 00       		.byte	0
 9923 2a43 2F       		.uleb128 0x2f
 9924 2a44 1E000000 		.4byte	.LVL273
 9925 2a48 10370000 		.4byte	0x3710
 9926 2a4c 5D2A0000 		.4byte	0x2a5d
 9927 2a50 30       		.uleb128 0x30
 9928 2a51 01       		.uleb128 0x1
ARM GAS  C:\Users\jo\AppData\Local\Temp\ccCSMiNu.s 			page 178


 9929 2a52 51       		.byte	0x51
 9930 2a53 02       		.uleb128 0x2
 9931 2a54 77       		.byte	0x77
 9932 2a55 00       		.sleb128 0
 9933 2a56 30       		.uleb128 0x30
 9934 2a57 01       		.uleb128 0x1
 9935 2a58 50       		.byte	0x50
 9936 2a59 02       		.uleb128 0x2
 9937 2a5a 74       		.byte	0x74
 9938 2a5b 00       		.sleb128 0
 9939 2a5c 00       		.byte	0
 9940 2a5d 41       		.uleb128 0x41
 9941 2a5e 3A000000 		.4byte	.LVL275
 9942 2a62 4F350000 		.4byte	0x354f
 9943 2a66 2F       		.uleb128 0x2f
 9944 2a67 40000000 		.4byte	.LVL276
 9945 2a6b 66350000 		.4byte	0x3566
 9946 2a6f 7A2A0000 		.4byte	0x2a7a
 9947 2a73 30       		.uleb128 0x30
 9948 2a74 01       		.uleb128 0x1
 9949 2a75 50       		.byte	0x50
 9950 2a76 02       		.uleb128 0x2
 9951 2a77 75       		.byte	0x75
 9952 2a78 00       		.sleb128 0
 9953 2a79 00       		.byte	0
 9954 2a7a 2F       		.uleb128 0x2f
 9955 2a7b 48000000 		.4byte	.LVL277
 9956 2a7f 10370000 		.4byte	0x3710
 9957 2a83 942A0000 		.4byte	0x2a94
 9958 2a87 30       		.uleb128 0x30
 9959 2a88 01       		.uleb128 0x1
 9960 2a89 51       		.byte	0x51
 9961 2a8a 02       		.uleb128 0x2
 9962 2a8b 77       		.byte	0x77
 9963 2a8c 00       		.sleb128 0
 9964 2a8d 30       		.uleb128 0x30
 9965 2a8e 01       		.uleb128 0x1
 9966 2a8f 50       		.byte	0x50
 9967 2a90 02       		.uleb128 0x2
 9968 2a91 74       		.byte	0x74
 9969 2a92 00       		.sleb128 0
 9970 2a93 00       		.byte	0
 9971 2a94 2F       		.uleb128 0x2f
 9972 2a95 52000000 		.4byte	.LVL279
 9973 2a99 30370000 		.4byte	0x3730
 9974 2a9d A82A0000 		.4byte	0x2aa8
 9975 2aa1 30       		.uleb128 0x30
 9976 2aa2 01       		.uleb128 0x1
 9977 2aa3 50       		.byte	0x50
 9978 2aa4 02       		.uleb128 0x2
 9979 2aa5 74       		.byte	0x74
 9980 2aa6 00       		.sleb128 0
 9981 2aa7 00       		.byte	0
 9982 2aa8 2F       		.uleb128 0x2f
 9983 2aa9 58000000 		.4byte	.LVL280
 9984 2aad BA360000 		.4byte	0x36ba
 9985 2ab1 BC2A0000 		.4byte	0x2abc
ARM GAS  C:\Users\jo\AppData\Local\Temp\ccCSMiNu.s 			page 179


 9986 2ab5 30       		.uleb128 0x30
 9987 2ab6 01       		.uleb128 0x1
 9988 2ab7 50       		.byte	0x50
 9989 2ab8 02       		.uleb128 0x2
 9990 2ab9 74       		.byte	0x74
 9991 2aba 00       		.sleb128 0
 9992 2abb 00       		.byte	0
 9993 2abc 2F       		.uleb128 0x2f
 9994 2abd 62000000 		.4byte	.LVL281
 9995 2ac1 34350000 		.4byte	0x3534
 9996 2ac5 D02A0000 		.4byte	0x2ad0
 9997 2ac9 30       		.uleb128 0x30
 9998 2aca 01       		.uleb128 0x1
 9999 2acb 50       		.byte	0x50
 10000 2acc 02       		.uleb128 0x2
 10001 2acd 78       		.byte	0x78
 10002 2ace 00       		.sleb128 0
 10003 2acf 00       		.byte	0
 10004 2ad0 2F       		.uleb128 0x2f
 10005 2ad1 B0000000 		.4byte	.LVL288
 10006 2ad5 10370000 		.4byte	0x3710
 10007 2ad9 EA2A0000 		.4byte	0x2aea
 10008 2add 30       		.uleb128 0x30
 10009 2ade 01       		.uleb128 0x1
 10010 2adf 51       		.byte	0x51
 10011 2ae0 02       		.uleb128 0x2
 10012 2ae1 77       		.byte	0x77
 10013 2ae2 00       		.sleb128 0
 10014 2ae3 30       		.uleb128 0x30
 10015 2ae4 01       		.uleb128 0x1
 10016 2ae5 50       		.byte	0x50
 10017 2ae6 02       		.uleb128 0x2
 10018 2ae7 78       		.byte	0x78
 10019 2ae8 00       		.sleb128 0
 10020 2ae9 00       		.byte	0
 10021 2aea 2F       		.uleb128 0x2f
 10022 2aeb BA000000 		.4byte	.LVL289
 10023 2aef 30370000 		.4byte	0x3730
 10024 2af3 FE2A0000 		.4byte	0x2afe
 10025 2af7 30       		.uleb128 0x30
 10026 2af8 01       		.uleb128 0x1
 10027 2af9 50       		.byte	0x50
 10028 2afa 02       		.uleb128 0x2
 10029 2afb 78       		.byte	0x78
 10030 2afc 00       		.sleb128 0
 10031 2afd 00       		.byte	0
 10032 2afe 2F       		.uleb128 0x2f
 10033 2aff C0000000 		.4byte	.LVL290
 10034 2b03 BA360000 		.4byte	0x36ba
 10035 2b07 122B0000 		.4byte	0x2b12
 10036 2b0b 30       		.uleb128 0x30
 10037 2b0c 01       		.uleb128 0x1
 10038 2b0d 50       		.byte	0x50
 10039 2b0e 02       		.uleb128 0x2
 10040 2b0f 78       		.byte	0x78
 10041 2b10 00       		.sleb128 0
 10042 2b11 00       		.byte	0
ARM GAS  C:\Users\jo\AppData\Local\Temp\ccCSMiNu.s 			page 180


 10043 2b12 41       		.uleb128 0x41
 10044 2b13 CC000000 		.4byte	.LVL292
 10045 2b17 43360000 		.4byte	0x3643
 10046 2b1b 00       		.byte	0
 10047 2b1c 42       		.uleb128 0x42
 10048 2b1d CE080000 		.4byte	.LASF313
 10049 2b21 01       		.byte	0x1
 10050 2b22 B001     		.2byte	0x1b0
 10051 2b24 82090000 		.4byte	0x982
 10052 2b28 00000000 		.4byte	.LFB266
 10053 2b2c 9C000000 		.4byte	.LFE266-.LFB266
 10054 2b30 01       		.uleb128 0x1
 10055 2b31 9C       		.byte	0x9c
 10056 2b32 C22C0000 		.4byte	0x2cc2
 10057 2b36 46       		.uleb128 0x46
 10058 2b37 61726700 		.ascii	"arg\000"
 10059 2b3b 01       		.byte	0x1
 10060 2b3c B001     		.2byte	0x1b0
 10061 2b3e 64030000 		.4byte	0x364
 10062 2b42 F30F0000 		.4byte	.LLST86
 10063 2b46 2D       		.uleb128 0x2d
 10064 2b47 2A090000 		.4byte	.LASF314
 10065 2b4b 01       		.byte	0x1
 10066 2b4c B001     		.2byte	0x1b0
 10067 2b4e DD0E0000 		.4byte	0xedd
 10068 2b52 38100000 		.4byte	.LLST87
 10069 2b56 46       		.uleb128 0x46
 10070 2b57 65727200 		.ascii	"err\000"
 10071 2b5b 01       		.byte	0x1
 10072 2b5c B001     		.2byte	0x1b0
 10073 2b5e 82090000 		.4byte	0x982
 10074 2b62 56100000 		.4byte	.LLST88
 10075 2b66 3E       		.uleb128 0x3e
 10076 2b67 740F0000 		.4byte	.LASF312
 10077 2b6b 01       		.byte	0x1
 10078 2b6c B201     		.2byte	0x1b2
 10079 2b6e 050B0000 		.4byte	0xb05
 10080 2b72 77100000 		.4byte	.LLST89
 10081 2b76 3E       		.uleb128 0x3e
 10082 2b77 7D060000 		.4byte	.LASF240
 10083 2b7b 01       		.byte	0x1
 10084 2b7c B301     		.2byte	0x1b3
 10085 2b7e 050B0000 		.4byte	0xb05
 10086 2b82 AB100000 		.4byte	.LLST90
 10087 2b86 49       		.uleb128 0x49
 10088 2b87 52000000 		.4byte	.LBB167
 10089 2b8b 4A000000 		.4byte	.LBE167-.LBB167
 10090 2b8f 5E2C0000 		.4byte	0x2c5e
 10091 2b93 2E       		.uleb128 0x2e
 10092 2b94 70636200 		.ascii	"pcb\000"
 10093 2b98 01       		.byte	0x1
 10094 2b99 CC01     		.2byte	0x1cc
 10095 2b9b DD0E0000 		.4byte	0xedd
 10096 2b9f F0100000 		.4byte	.LLST91
 10097 2ba3 2F       		.uleb128 0x2f
 10098 2ba4 5C000000 		.4byte	.LVL305
 10099 2ba8 8B340000 		.4byte	0x348b
ARM GAS  C:\Users\jo\AppData\Local\Temp\ccCSMiNu.s 			page 181


 10100 2bac BC2B0000 		.4byte	0x2bbc
 10101 2bb0 30       		.uleb128 0x30
 10102 2bb1 01       		.uleb128 0x1
 10103 2bb2 51       		.byte	0x51
 10104 2bb3 01       		.uleb128 0x1
 10105 2bb4 30       		.byte	0x30
 10106 2bb5 30       		.uleb128 0x30
 10107 2bb6 01       		.uleb128 0x1
 10108 2bb7 50       		.byte	0x50
 10109 2bb8 02       		.uleb128 0x2
 10110 2bb9 74       		.byte	0x74
 10111 2bba 00       		.sleb128 0
 10112 2bbb 00       		.byte	0
 10113 2bbc 2F       		.uleb128 0x2f
 10114 2bbd 64000000 		.4byte	.LVL306
 10115 2bc1 A2340000 		.4byte	0x34a2
 10116 2bc5 D52B0000 		.4byte	0x2bd5
 10117 2bc9 30       		.uleb128 0x30
 10118 2bca 01       		.uleb128 0x1
 10119 2bcb 51       		.byte	0x51
 10120 2bcc 01       		.uleb128 0x1
 10121 2bcd 30       		.byte	0x30
 10122 2bce 30       		.uleb128 0x30
 10123 2bcf 01       		.uleb128 0x1
 10124 2bd0 50       		.byte	0x50
 10125 2bd1 02       		.uleb128 0x2
 10126 2bd2 74       		.byte	0x74
 10127 2bd3 00       		.sleb128 0
 10128 2bd4 00       		.byte	0
 10129 2bd5 2F       		.uleb128 0x2f
 10130 2bd6 6C000000 		.4byte	.LVL307
 10131 2bda B9340000 		.4byte	0x34b9
 10132 2bde EE2B0000 		.4byte	0x2bee
 10133 2be2 30       		.uleb128 0x30
 10134 2be3 01       		.uleb128 0x1
 10135 2be4 51       		.byte	0x51
 10136 2be5 01       		.uleb128 0x1
 10137 2be6 30       		.byte	0x30
 10138 2be7 30       		.uleb128 0x30
 10139 2be8 01       		.uleb128 0x1
 10140 2be9 50       		.byte	0x50
 10141 2bea 02       		.uleb128 0x2
 10142 2beb 74       		.byte	0x74
 10143 2bec 00       		.sleb128 0
 10144 2bed 00       		.byte	0
 10145 2bee 2F       		.uleb128 0x2f
 10146 2bef 76000000 		.4byte	.LVL308
 10147 2bf3 D0340000 		.4byte	0x34d0
 10148 2bf7 0C2C0000 		.4byte	0x2c0c
 10149 2bfb 30       		.uleb128 0x30
 10150 2bfc 01       		.uleb128 0x1
 10151 2bfd 52       		.byte	0x52
 10152 2bfe 01       		.uleb128 0x1
 10153 2bff 34       		.byte	0x34
 10154 2c00 30       		.uleb128 0x30
 10155 2c01 01       		.uleb128 0x1
 10156 2c02 51       		.byte	0x51
ARM GAS  C:\Users\jo\AppData\Local\Temp\ccCSMiNu.s 			page 182


 10157 2c03 01       		.uleb128 0x1
 10158 2c04 30       		.byte	0x30
 10159 2c05 30       		.uleb128 0x30
 10160 2c06 01       		.uleb128 0x1
 10161 2c07 50       		.byte	0x50
 10162 2c08 02       		.uleb128 0x2
 10163 2c09 74       		.byte	0x74
 10164 2c0a 00       		.sleb128 0
 10165 2c0b 00       		.byte	0
 10166 2c0c 2F       		.uleb128 0x2f
 10167 2c0d 7E000000 		.4byte	.LVL309
 10168 2c11 EC340000 		.4byte	0x34ec
 10169 2c15 252C0000 		.4byte	0x2c25
 10170 2c19 30       		.uleb128 0x30
 10171 2c1a 01       		.uleb128 0x1
 10172 2c1b 51       		.byte	0x51
 10173 2c1c 01       		.uleb128 0x1
 10174 2c1d 30       		.byte	0x30
 10175 2c1e 30       		.uleb128 0x30
 10176 2c1f 01       		.uleb128 0x1
 10177 2c20 50       		.byte	0x50
 10178 2c21 02       		.uleb128 0x2
 10179 2c22 74       		.byte	0x74
 10180 2c23 00       		.sleb128 0
 10181 2c24 00       		.byte	0
 10182 2c25 2F       		.uleb128 0x2f
 10183 2c26 8C000000 		.4byte	.LVL311
 10184 2c2a 30370000 		.4byte	0x3730
 10185 2c2e 392C0000 		.4byte	0x2c39
 10186 2c32 30       		.uleb128 0x30
 10187 2c33 01       		.uleb128 0x1
 10188 2c34 50       		.byte	0x50
 10189 2c35 02       		.uleb128 0x2
 10190 2c36 74       		.byte	0x74
 10191 2c37 00       		.sleb128 0
 10192 2c38 00       		.byte	0
 10193 2c39 2F       		.uleb128 0x2f
 10194 2c3a 92000000 		.4byte	.LVL312
 10195 2c3e BA360000 		.4byte	0x36ba
 10196 2c42 4D2C0000 		.4byte	0x2c4d
 10197 2c46 30       		.uleb128 0x30
 10198 2c47 01       		.uleb128 0x1
 10199 2c48 50       		.byte	0x50
 10200 2c49 02       		.uleb128 0x2
 10201 2c4a 74       		.byte	0x74
 10202 2c4b 00       		.sleb128 0
 10203 2c4c 00       		.byte	0
 10204 2c4d 37       		.uleb128 0x37
 10205 2c4e 98000000 		.4byte	.LVL313
 10206 2c52 91270000 		.4byte	0x2791
 10207 2c56 30       		.uleb128 0x30
 10208 2c57 01       		.uleb128 0x1
 10209 2c58 50       		.byte	0x50
 10210 2c59 02       		.uleb128 0x2
 10211 2c5a 76       		.byte	0x76
 10212 2c5b 00       		.sleb128 0
 10213 2c5c 00       		.byte	0
ARM GAS  C:\Users\jo\AppData\Local\Temp\ccCSMiNu.s 			page 183


 10214 2c5d 00       		.byte	0
 10215 2c5e 2F       		.uleb128 0x2f
 10216 2c5f 14000000 		.4byte	.LVL296
 10217 2c63 34350000 		.4byte	0x3534
 10218 2c67 722C0000 		.4byte	0x2c72
 10219 2c6b 30       		.uleb128 0x30
 10220 2c6c 01       		.uleb128 0x1
 10221 2c6d 50       		.byte	0x50
 10222 2c6e 02       		.uleb128 0x2
 10223 2c6f 75       		.byte	0x75
 10224 2c70 00       		.sleb128 0
 10225 2c71 00       		.byte	0
 10226 2c72 41       		.uleb128 0x41
 10227 2c73 1E000000 		.4byte	.LVL297
 10228 2c77 56260000 		.4byte	0x2656
 10229 2c7b 2F       		.uleb128 0x2f
 10230 2c7c 2A000000 		.4byte	.LVL298
 10231 2c80 4E130000 		.4byte	0x134e
 10232 2c84 8F2C0000 		.4byte	0x2c8f
 10233 2c88 30       		.uleb128 0x30
 10234 2c89 01       		.uleb128 0x1
 10235 2c8a 50       		.byte	0x50
 10236 2c8b 02       		.uleb128 0x2
 10237 2c8c 76       		.byte	0x76
 10238 2c8d 00       		.sleb128 0
 10239 2c8e 00       		.byte	0
 10240 2c8f 2F       		.uleb128 0x2f
 10241 2c90 34000000 		.4byte	.LVL299
 10242 2c94 7B350000 		.4byte	0x357b
 10243 2c98 A92C0000 		.4byte	0x2ca9
 10244 2c9c 30       		.uleb128 0x30
 10245 2c9d 01       		.uleb128 0x1
 10246 2c9e 51       		.byte	0x51
 10247 2c9f 02       		.uleb128 0x2
 10248 2ca0 76       		.byte	0x76
 10249 2ca1 00       		.sleb128 0
 10250 2ca2 30       		.uleb128 0x30
 10251 2ca3 01       		.uleb128 0x1
 10252 2ca4 50       		.byte	0x50
 10253 2ca5 02       		.uleb128 0x2
 10254 2ca6 75       		.byte	0x75
 10255 2ca7 00       		.sleb128 0
 10256 2ca8 00       		.byte	0
 10257 2ca9 45       		.uleb128 0x45
 10258 2caa 44000000 		.4byte	.LVL300
 10259 2cae 30       		.uleb128 0x30
 10260 2caf 01       		.uleb128 0x1
 10261 2cb0 52       		.byte	0x52
 10262 2cb1 02       		.uleb128 0x2
 10263 2cb2 75       		.byte	0x75
 10264 2cb3 00       		.sleb128 0
 10265 2cb4 30       		.uleb128 0x30
 10266 2cb5 01       		.uleb128 0x1
 10267 2cb6 51       		.byte	0x51
 10268 2cb7 02       		.uleb128 0x2
 10269 2cb8 75       		.byte	0x75
 10270 2cb9 00       		.sleb128 0
ARM GAS  C:\Users\jo\AppData\Local\Temp\ccCSMiNu.s 			page 184


 10271 2cba 30       		.uleb128 0x30
 10272 2cbb 01       		.uleb128 0x1
 10273 2cbc 50       		.byte	0x50
 10274 2cbd 02       		.uleb128 0x2
 10275 2cbe 74       		.byte	0x74
 10276 2cbf 00       		.sleb128 0
 10277 2cc0 00       		.byte	0
 10278 2cc1 00       		.byte	0
 10279 2cc2 53       		.uleb128 0x53
 10280 2cc3 74000000 		.4byte	.LASF315
 10281 2cc7 01       		.byte	0x1
 10282 2cc8 4003     		.2byte	0x340
 10283 2cca 00000000 		.4byte	.LFB273
 10284 2cce 24010000 		.4byte	.LFE273-.LFB273
 10285 2cd2 01       		.uleb128 0x1
 10286 2cd3 9C       		.byte	0x9c
 10287 2cd4 732E0000 		.4byte	0x2e73
 10288 2cd8 46       		.uleb128 0x46
 10289 2cd9 6D736700 		.ascii	"msg\000"
 10290 2cdd 01       		.byte	0x1
 10291 2cde 4003     		.2byte	0x340
 10292 2ce0 B60F0000 		.4byte	0xfb6
 10293 2ce4 03110000 		.4byte	.LLST92
 10294 2ce8 3F       		.uleb128 0x3f
 10295 2ce9 95120000 		.4byte	0x1295
 10296 2ced 2C000000 		.4byte	.LBB168
 10297 2cf1 08000000 		.4byte	.LBE168-.LBB168
 10298 2cf5 01       		.byte	0x1
 10299 2cf6 4703     		.2byte	0x347
 10300 2cf8 192D0000 		.4byte	0x2d19
 10301 2cfc 33       		.uleb128 0x33
 10302 2cfd A2120000 		.4byte	0x12a2
 10303 2d01 75110000 		.4byte	.LLST93
 10304 2d05 37       		.uleb128 0x37
 10305 2d06 32000000 		.4byte	.LVL317
 10306 2d0a 22350000 		.4byte	0x3522
 10307 2d0e 30       		.uleb128 0x30
 10308 2d0f 01       		.uleb128 0x1
 10309 2d10 50       		.byte	0x50
 10310 2d11 05       		.uleb128 0x5
 10311 2d12 03       		.byte	0x3
 10312 2d13 D4030000 		.4byte	.LC27
 10313 2d17 00       		.byte	0
 10314 2d18 00       		.byte	0
 10315 2d19 3F       		.uleb128 0x3f
 10316 2d1a 95120000 		.4byte	0x1295
 10317 2d1e 60000000 		.4byte	.LBB170
 10318 2d22 08000000 		.4byte	.LBE170-.LBB170
 10319 2d26 01       		.byte	0x1
 10320 2d27 4A03     		.2byte	0x34a
 10321 2d29 4A2D0000 		.4byte	0x2d4a
 10322 2d2d 33       		.uleb128 0x33
 10323 2d2e A2120000 		.4byte	0x12a2
 10324 2d32 8D110000 		.4byte	.LLST94
 10325 2d36 37       		.uleb128 0x37
 10326 2d37 66000000 		.4byte	.LVL323
 10327 2d3b 22350000 		.4byte	0x3522
ARM GAS  C:\Users\jo\AppData\Local\Temp\ccCSMiNu.s 			page 185


 10328 2d3f 30       		.uleb128 0x30
 10329 2d40 01       		.uleb128 0x1
 10330 2d41 50       		.byte	0x50
 10331 2d42 05       		.uleb128 0x5
 10332 2d43 03       		.byte	0x3
 10333 2d44 F4030000 		.4byte	.LC28
 10334 2d48 00       		.byte	0
 10335 2d49 00       		.byte	0
 10336 2d4a 3F       		.uleb128 0x3f
 10337 2d4b 95120000 		.4byte	0x1295
 10338 2d4f E4000000 		.4byte	.LBB172
 10339 2d53 08000000 		.4byte	.LBE172-.LBB172
 10340 2d57 01       		.byte	0x1
 10341 2d58 5F03     		.2byte	0x35f
 10342 2d5a 7B2D0000 		.4byte	0x2d7b
 10343 2d5e 33       		.uleb128 0x33
 10344 2d5f A2120000 		.4byte	0x12a2
 10345 2d63 A5110000 		.4byte	.LLST95
 10346 2d67 37       		.uleb128 0x37
 10347 2d68 EA000000 		.4byte	.LVL333
 10348 2d6c 22350000 		.4byte	0x3522
 10349 2d70 30       		.uleb128 0x30
 10350 2d71 01       		.uleb128 0x1
 10351 2d72 50       		.byte	0x50
 10352 2d73 05       		.uleb128 0x5
 10353 2d74 03       		.byte	0x3
 10354 2d75 14040000 		.4byte	.LC29
 10355 2d79 00       		.byte	0
 10356 2d7a 00       		.byte	0
 10357 2d7b 2F       		.uleb128 0x2f
 10358 2d7c 2C000000 		.4byte	.LVL316
 10359 2d80 0F140000 		.4byte	0x140f
 10360 2d84 AC2D0000 		.4byte	0x2dac
 10361 2d88 30       		.uleb128 0x30
 10362 2d89 01       		.uleb128 0x1
 10363 2d8a 53       		.byte	0x53
 10364 2d8b 03       		.uleb128 0x3
 10365 2d8c 0A       		.byte	0xa
 10366 2d8d 4703     		.2byte	0x347
 10367 2d8f 30       		.uleb128 0x30
 10368 2d90 01       		.uleb128 0x1
 10369 2d91 52       		.byte	0x52
 10370 2d92 05       		.uleb128 0x5
 10371 2d93 03       		.byte	0x3
 10372 2d94 D4030000 		.4byte	.LC27
 10373 2d98 30       		.uleb128 0x30
 10374 2d99 01       		.uleb128 0x1
 10375 2d9a 51       		.byte	0x51
 10376 2d9b 05       		.uleb128 0x5
 10377 2d9c 03       		.byte	0x3
 10378 2d9d 00000000 		.4byte	.LC0
 10379 2da1 30       		.uleb128 0x30
 10380 2da2 02       		.uleb128 0x2
 10381 2da3 7D       		.byte	0x7d
 10382 2da4 00       		.sleb128 0
 10383 2da5 05       		.uleb128 0x5
 10384 2da6 03       		.byte	0x3
ARM GAS  C:\Users\jo\AppData\Local\Temp\ccCSMiNu.s 			page 186


 10385 2da7 4C000000 		.4byte	.LC2
 10386 2dab 00       		.byte	0
 10387 2dac 41       		.uleb128 0x41
 10388 2dad 40000000 		.4byte	.LVL319
 10389 2db1 41370000 		.4byte	0x3741
 10390 2db5 2F       		.uleb128 0x2f
 10391 2db6 60000000 		.4byte	.LVL322
 10392 2dba 0F140000 		.4byte	0x140f
 10393 2dbe E62D0000 		.4byte	0x2de6
 10394 2dc2 30       		.uleb128 0x30
 10395 2dc3 01       		.uleb128 0x1
 10396 2dc4 53       		.byte	0x53
 10397 2dc5 03       		.uleb128 0x3
 10398 2dc6 0A       		.byte	0xa
 10399 2dc7 4B03     		.2byte	0x34b
 10400 2dc9 30       		.uleb128 0x30
 10401 2dca 01       		.uleb128 0x1
 10402 2dcb 52       		.byte	0x52
 10403 2dcc 05       		.uleb128 0x5
 10404 2dcd 03       		.byte	0x3
 10405 2dce F4030000 		.4byte	.LC28
 10406 2dd2 30       		.uleb128 0x30
 10407 2dd3 01       		.uleb128 0x1
 10408 2dd4 51       		.byte	0x51
 10409 2dd5 05       		.uleb128 0x5
 10410 2dd6 03       		.byte	0x3
 10411 2dd7 00000000 		.4byte	.LC0
 10412 2ddb 30       		.uleb128 0x30
 10413 2ddc 02       		.uleb128 0x2
 10414 2ddd 7D       		.byte	0x7d
 10415 2dde 00       		.sleb128 0
 10416 2ddf 05       		.uleb128 0x5
 10417 2de0 03       		.byte	0x3
 10418 2de1 4C000000 		.4byte	.LC2
 10419 2de5 00       		.byte	0
 10420 2de6 41       		.uleb128 0x41
 10421 2de7 6E000000 		.4byte	.LVL325
 10422 2deb 42290000 		.4byte	0x2942
 10423 2def 41       		.uleb128 0x41
 10424 2df0 8C000000 		.4byte	.LVL326
 10425 2df4 56370000 		.4byte	0x3756
 10426 2df8 47       		.uleb128 0x47
 10427 2df9 A2000000 		.4byte	.LVL327
 10428 2dfd 02       		.uleb128 0x2
 10429 2dfe 75       		.byte	0x75
 10430 2dff 00       		.sleb128 0
 10431 2e00 0F2E0000 		.4byte	0x2e0f
 10432 2e04 30       		.uleb128 0x30
 10433 2e05 01       		.uleb128 0x1
 10434 2e06 52       		.byte	0x52
 10435 2e07 01       		.uleb128 0x1
 10436 2e08 30       		.byte	0x30
 10437 2e09 30       		.uleb128 0x30
 10438 2e0a 01       		.uleb128 0x1
 10439 2e0b 51       		.byte	0x51
 10440 2e0c 01       		.uleb128 0x1
 10441 2e0d 30       		.byte	0x30
ARM GAS  C:\Users\jo\AppData\Local\Temp\ccCSMiNu.s 			page 187


 10442 2e0e 00       		.byte	0
 10443 2e0f 47       		.uleb128 0x47
 10444 2e10 B2000000 		.4byte	.LVL328
 10445 2e14 02       		.uleb128 0x2
 10446 2e15 75       		.byte	0x75
 10447 2e16 00       		.sleb128 0
 10448 2e17 262E0000 		.4byte	0x2e26
 10449 2e1b 30       		.uleb128 0x30
 10450 2e1c 01       		.uleb128 0x1
 10451 2e1d 52       		.byte	0x52
 10452 2e1e 01       		.uleb128 0x1
 10453 2e1f 30       		.byte	0x30
 10454 2e20 30       		.uleb128 0x30
 10455 2e21 01       		.uleb128 0x1
 10456 2e22 51       		.byte	0x51
 10457 2e23 01       		.uleb128 0x1
 10458 2e24 32       		.byte	0x32
 10459 2e25 00       		.byte	0
 10460 2e26 41       		.uleb128 0x41
 10461 2e27 BC000000 		.4byte	.LVL329
 10462 2e2b 41370000 		.4byte	0x3741
 10463 2e2f 52       		.uleb128 0x52
 10464 2e30 CE000000 		.4byte	.LVL331
 10465 2e34 B5350000 		.4byte	0x35b5
 10466 2e38 2F       		.uleb128 0x2f
 10467 2e39 E4000000 		.4byte	.LVL332
 10468 2e3d 0F140000 		.4byte	0x140f
 10469 2e41 692E0000 		.4byte	0x2e69
 10470 2e45 30       		.uleb128 0x30
 10471 2e46 01       		.uleb128 0x1
 10472 2e47 53       		.byte	0x53
 10473 2e48 03       		.uleb128 0x3
 10474 2e49 0A       		.byte	0xa
 10475 2e4a 6003     		.2byte	0x360
 10476 2e4c 30       		.uleb128 0x30
 10477 2e4d 01       		.uleb128 0x1
 10478 2e4e 52       		.byte	0x52
 10479 2e4f 05       		.uleb128 0x5
 10480 2e50 03       		.byte	0x3
 10481 2e51 14040000 		.4byte	.LC29
 10482 2e55 30       		.uleb128 0x30
 10483 2e56 01       		.uleb128 0x1
 10484 2e57 51       		.byte	0x51
 10485 2e58 05       		.uleb128 0x5
 10486 2e59 03       		.byte	0x3
 10487 2e5a 00000000 		.4byte	.LC0
 10488 2e5e 30       		.uleb128 0x30
 10489 2e5f 02       		.uleb128 0x2
 10490 2e60 7D       		.byte	0x7d
 10491 2e61 00       		.sleb128 0
 10492 2e62 05       		.uleb128 0x5
 10493 2e63 03       		.byte	0x3
 10494 2e64 4C000000 		.4byte	.LC2
 10495 2e68 00       		.byte	0
 10496 2e69 52       		.uleb128 0x52
 10497 2e6a 02010000 		.4byte	.LVL336
 10498 2e6e 6E160000 		.4byte	0x166e
ARM GAS  C:\Users\jo\AppData\Local\Temp\ccCSMiNu.s 			page 188


 10499 2e72 00       		.byte	0
 10500 2e73 53       		.uleb128 0x53
 10501 2e74 4B0B0000 		.4byte	.LASF316
 10502 2e78 01       		.byte	0x1
 10503 2e79 8203     		.2byte	0x382
 10504 2e7b 00000000 		.4byte	.LFB274
 10505 2e7f 62000000 		.4byte	.LFE274-.LFB274
 10506 2e83 01       		.uleb128 0x1
 10507 2e84 9C       		.byte	0x9c
 10508 2e85 C72E0000 		.4byte	0x2ec7
 10509 2e89 46       		.uleb128 0x46
 10510 2e8a 6D736700 		.ascii	"msg\000"
 10511 2e8e 01       		.byte	0x1
 10512 2e8f 8203     		.2byte	0x382
 10513 2e91 B60F0000 		.4byte	0xfb6
 10514 2e95 BD110000 		.4byte	.LLST96
 10515 2e99 41       		.uleb128 0x41
 10516 2e9a 2E000000 		.4byte	.LVL339
 10517 2e9e 67370000 		.4byte	0x3767
 10518 2ea2 52       		.uleb128 0x52
 10519 2ea3 3E000000 		.4byte	.LVL341
 10520 2ea7 B5350000 		.4byte	0x35b5
 10521 2eab 52       		.uleb128 0x52
 10522 2eac 48000000 		.4byte	.LVL343
 10523 2eb0 B5350000 		.4byte	0x35b5
 10524 2eb4 41       		.uleb128 0x41
 10525 2eb5 52000000 		.4byte	.LVL345
 10526 2eb9 86370000 		.4byte	0x3786
 10527 2ebd 52       		.uleb128 0x52
 10528 2ebe 62000000 		.4byte	.LVL347
 10529 2ec2 B5350000 		.4byte	0x35b5
 10530 2ec6 00       		.byte	0
 10531 2ec7 53       		.uleb128 0x53
 10532 2ec8 17090000 		.4byte	.LASF317
 10533 2ecc 01       		.byte	0x1
 10534 2ecd D803     		.2byte	0x3d8
 10535 2ecf 00000000 		.4byte	.LFB276
 10536 2ed3 E0000000 		.4byte	.LFE276-.LFB276
 10537 2ed7 01       		.uleb128 0x1
 10538 2ed8 9C       		.byte	0x9c
 10539 2ed9 B72F0000 		.4byte	0x2fb7
 10540 2edd 46       		.uleb128 0x46
 10541 2ede 6D736700 		.ascii	"msg\000"
 10542 2ee2 01       		.byte	0x1
 10543 2ee3 D803     		.2byte	0x3d8
 10544 2ee5 B60F0000 		.4byte	0xfb6
 10545 2ee9 26120000 		.4byte	.LLST97
 10546 2eed 3F       		.uleb128 0x3f
 10547 2eee 95120000 		.4byte	0x1295
 10548 2ef2 2E000000 		.4byte	.LBB174
 10549 2ef6 06000000 		.4byte	.LBE174-.LBB174
 10550 2efa 01       		.byte	0x1
 10551 2efb 0304     		.2byte	0x403
 10552 2efd 1E2F0000 		.4byte	0x2f1e
 10553 2f01 33       		.uleb128 0x33
 10554 2f02 A2120000 		.4byte	0x12a2
 10555 2f06 D5120000 		.4byte	.LLST98
ARM GAS  C:\Users\jo\AppData\Local\Temp\ccCSMiNu.s 			page 189


 10556 2f0a 37       		.uleb128 0x37
 10557 2f0b 34000000 		.4byte	.LVL351
 10558 2f0f 22350000 		.4byte	0x3522
 10559 2f13 30       		.uleb128 0x30
 10560 2f14 01       		.uleb128 0x1
 10561 2f15 50       		.byte	0x50
 10562 2f16 05       		.uleb128 0x5
 10563 2f17 03       		.byte	0x3
 10564 2f18 30040000 		.4byte	.LC30
 10565 2f1c 00       		.byte	0
 10566 2f1d 00       		.byte	0
 10567 2f1e 49       		.uleb128 0x49
 10568 2f1f 9E000000 		.4byte	.LBB176
 10569 2f23 28000000 		.4byte	.LBE176-.LBB176
 10570 2f27 3C2F0000 		.4byte	0x2f3c
 10571 2f2b 3E       		.uleb128 0x3e
 10572 2f2c 45020000 		.4byte	.LASF318
 10573 2f30 01       		.byte	0x1
 10574 2f31 F303     		.2byte	0x3f3
 10575 2f33 27090000 		.4byte	0x927
 10576 2f37 ED120000 		.4byte	.LLST99
 10577 2f3b 00       		.byte	0
 10578 2f3c 2F       		.uleb128 0x2f
 10579 2f3d 2E000000 		.4byte	.LVL350
 10580 2f41 0F140000 		.4byte	0x140f
 10581 2f45 6D2F0000 		.4byte	0x2f6d
 10582 2f49 30       		.uleb128 0x30
 10583 2f4a 01       		.uleb128 0x1
 10584 2f4b 53       		.byte	0x53
 10585 2f4c 03       		.uleb128 0x3
 10586 2f4d 0A       		.byte	0xa
 10587 2f4e 0304     		.2byte	0x403
 10588 2f50 30       		.uleb128 0x30
 10589 2f51 01       		.uleb128 0x1
 10590 2f52 52       		.byte	0x52
 10591 2f53 05       		.uleb128 0x5
 10592 2f54 03       		.byte	0x3
 10593 2f55 30040000 		.4byte	.LC30
 10594 2f59 30       		.uleb128 0x30
 10595 2f5a 01       		.uleb128 0x1
 10596 2f5b 51       		.byte	0x51
 10597 2f5c 05       		.uleb128 0x5
 10598 2f5d 03       		.byte	0x3
 10599 2f5e 00000000 		.4byte	.LC0
 10600 2f62 30       		.uleb128 0x30
 10601 2f63 02       		.uleb128 0x2
 10602 2f64 7D       		.byte	0x7d
 10603 2f65 00       		.sleb128 0
 10604 2f66 05       		.uleb128 0x5
 10605 2f67 03       		.byte	0x3
 10606 2f68 4C000000 		.4byte	.LC2
 10607 2f6c 00       		.byte	0
 10608 2f6d 52       		.uleb128 0x52
 10609 2f6e 48000000 		.4byte	.LVL354
 10610 2f72 B5350000 		.4byte	0x35b5
 10611 2f76 41       		.uleb128 0x41
 10612 2f77 52000000 		.4byte	.LVL356
ARM GAS  C:\Users\jo\AppData\Local\Temp\ccCSMiNu.s 			page 190


 10613 2f7b A6370000 		.4byte	0x37a6
 10614 2f7f 52       		.uleb128 0x52
 10615 2f80 64000000 		.4byte	.LVL358
 10616 2f84 B5350000 		.4byte	0x35b5
 10617 2f88 52       		.uleb128 0x52
 10618 2f89 7A000000 		.4byte	.LVL361
 10619 2f8d B5350000 		.4byte	0x35b5
 10620 2f91 52       		.uleb128 0x52
 10621 2f92 86000000 		.4byte	.LVL363
 10622 2f96 B5350000 		.4byte	0x35b5
 10623 2f9a 41       		.uleb128 0x41
 10624 2f9b 8C000000 		.4byte	.LVL365
 10625 2f9f 4E130000 		.4byte	0x134e
 10626 2fa3 37       		.uleb128 0x37
 10627 2fa4 9A000000 		.4byte	.LVL366
 10628 2fa8 C5370000 		.4byte	0x37c5
 10629 2fac 30       		.uleb128 0x30
 10630 2fad 01       		.uleb128 0x1
 10631 2fae 53       		.byte	0x53
 10632 2faf 05       		.uleb128 0x5
 10633 2fb0 03       		.byte	0x3
 10634 2fb1 00000000 		.4byte	do_connected
 10635 2fb5 00       		.byte	0
 10636 2fb6 00       		.byte	0
 10637 2fb7 53       		.uleb128 0x53
 10638 2fb8 20000000 		.4byte	.LASF319
 10639 2fbc 01       		.byte	0x1
 10640 2fbd 1204     		.2byte	0x412
 10641 2fbf 00000000 		.4byte	.LFB277
 10642 2fc3 34000000 		.4byte	.LFE277-.LFB277
 10643 2fc7 01       		.uleb128 0x1
 10644 2fc8 9C       		.byte	0x9c
 10645 2fc9 F92F0000 		.4byte	0x2ff9
 10646 2fcd 46       		.uleb128 0x46
 10647 2fce 6D736700 		.ascii	"msg\000"
 10648 2fd2 01       		.byte	0x1
 10649 2fd3 1204     		.2byte	0x412
 10650 2fd5 B60F0000 		.4byte	0xfb6
 10651 2fd9 45130000 		.4byte	.LLST100
 10652 2fdd 52       		.uleb128 0x52
 10653 2fde 18000000 		.4byte	.LVL376
 10654 2fe2 B5350000 		.4byte	0x35b5
 10655 2fe6 41       		.uleb128 0x41
 10656 2fe7 22000000 		.4byte	.LVL378
 10657 2feb EA370000 		.4byte	0x37ea
 10658 2fef 52       		.uleb128 0x52
 10659 2ff0 34000000 		.4byte	.LVL380
 10660 2ff4 B5350000 		.4byte	0x35b5
 10661 2ff8 00       		.byte	0
 10662 2ff9 53       		.uleb128 0x53
 10663 2ffa 040E0000 		.4byte	.LASF320
 10664 2ffe 01       		.byte	0x1
 10665 2fff 2804     		.2byte	0x428
 10666 3001 00000000 		.4byte	.LFB278
 10667 3005 B4000000 		.4byte	.LFE278-.LFB278
 10668 3009 01       		.uleb128 0x1
 10669 300a 9C       		.byte	0x9c
ARM GAS  C:\Users\jo\AppData\Local\Temp\ccCSMiNu.s 			page 191


 10670 300b C6300000 		.4byte	0x30c6
 10671 300f 46       		.uleb128 0x46
 10672 3010 6D736700 		.ascii	"msg\000"
 10673 3014 01       		.byte	0x1
 10674 3015 2804     		.2byte	0x428
 10675 3017 B60F0000 		.4byte	0xfb6
 10676 301b 8A130000 		.4byte	.LLST101
 10677 301f 49       		.uleb128 0x49
 10678 3020 32000000 		.4byte	.LBB177
 10679 3024 82000000 		.4byte	.LBE177-.LBB177
 10680 3028 BC300000 		.4byte	0x30bc
 10681 302c 3E       		.uleb128 0x3e
 10682 302d 1C0F0000 		.4byte	.LASF321
 10683 3031 01       		.byte	0x1
 10684 3032 3404     		.2byte	0x434
 10685 3034 DD0E0000 		.4byte	0xedd
 10686 3038 C1130000 		.4byte	.LLST102
 10687 303c 2F       		.uleb128 0x2f
 10688 303d 3A000000 		.4byte	.LVL385
 10689 3041 FB370000 		.4byte	0x37fb
 10690 3045 50300000 		.4byte	0x3050
 10691 3049 30       		.uleb128 0x30
 10692 304a 01       		.uleb128 0x1
 10693 304b 51       		.byte	0x51
 10694 304c 02       		.uleb128 0x2
 10695 304d 09       		.byte	0x9
 10696 304e FF       		.byte	0xff
 10697 304f 00       		.byte	0
 10698 3050 41       		.uleb128 0x41
 10699 3051 46000000 		.4byte	.LVL387
 10700 3055 34350000 		.4byte	0x3534
 10701 3059 41       		.uleb128 0x41
 10702 305a 54000000 		.4byte	.LVL388
 10703 305e 34350000 		.4byte	0x3534
 10704 3062 41       		.uleb128 0x41
 10705 3063 6A000000 		.4byte	.LVL389
 10706 3067 8B340000 		.4byte	0x348b
 10707 306b 2F       		.uleb128 0x2f
 10708 306c 74000000 		.4byte	.LVL390
 10709 3070 DC350000 		.4byte	0x35dc
 10710 3074 82300000 		.4byte	0x3082
 10711 3078 30       		.uleb128 0x30
 10712 3079 01       		.uleb128 0x1
 10713 307a 51       		.byte	0x51
 10714 307b 05       		.uleb128 0x5
 10715 307c 03       		.byte	0x3
 10716 307d 00000000 		.4byte	accept_function
 10717 3081 00       		.byte	0
 10718 3082 2F       		.uleb128 0x2f
 10719 3083 86000000 		.4byte	.LVL393
 10720 3087 C6350000 		.4byte	0x35c6
 10721 308b 96300000 		.4byte	0x3096
 10722 308f 30       		.uleb128 0x30
 10723 3090 01       		.uleb128 0x1
 10724 3091 50       		.byte	0x50
 10725 3092 02       		.uleb128 0x2
 10726 3093 75       		.byte	0x75
ARM GAS  C:\Users\jo\AppData\Local\Temp\ccCSMiNu.s 			page 192


 10727 3094 00       		.sleb128 0
 10728 3095 00       		.byte	0
 10729 3096 2F       		.uleb128 0x2f
 10730 3097 9A000000 		.4byte	.LVL394
 10731 309b A0360000 		.4byte	0x36a0
 10732 309f A9300000 		.4byte	0x30a9
 10733 30a3 30       		.uleb128 0x30
 10734 30a4 01       		.uleb128 0x1
 10735 30a5 51       		.byte	0x51
 10736 30a6 01       		.uleb128 0x1
 10737 30a7 34       		.byte	0x34
 10738 30a8 00       		.byte	0
 10739 30a9 41       		.uleb128 0x41
 10740 30aa A6000000 		.4byte	.LVL395
 10741 30ae 30370000 		.4byte	0x3730
 10742 30b2 41       		.uleb128 0x41
 10743 30b3 AE000000 		.4byte	.LVL396
 10744 30b7 BA360000 		.4byte	0x36ba
 10745 30bb 00       		.byte	0
 10746 30bc 52       		.uleb128 0x52
 10747 30bd 2A000000 		.4byte	.LVL383
 10748 30c1 B5350000 		.4byte	0x35b5
 10749 30c5 00       		.byte	0
 10750 30c6 53       		.uleb128 0x53
 10751 30c7 AA0B0000 		.4byte	.LASF322
 10752 30cb 01       		.byte	0x1
 10753 30cc 6004     		.2byte	0x460
 10754 30ce 00000000 		.4byte	.LFB279
 10755 30d2 68000000 		.4byte	.LFE279-.LFB279
 10756 30d6 01       		.uleb128 0x1
 10757 30d7 9C       		.byte	0x9c
 10758 30d8 1A310000 		.4byte	0x311a
 10759 30dc 46       		.uleb128 0x46
 10760 30dd 6D736700 		.ascii	"msg\000"
 10761 30e1 01       		.byte	0x1
 10762 30e2 6004     		.2byte	0x460
 10763 30e4 B60F0000 		.4byte	0xfb6
 10764 30e8 F5130000 		.4byte	.LLST103
 10765 30ec 41       		.uleb128 0x41
 10766 30ed 34000000 		.4byte	.LVL399
 10767 30f1 16380000 		.4byte	0x3816
 10768 30f5 52       		.uleb128 0x52
 10769 30f6 44000000 		.4byte	.LVL401
 10770 30fa B5350000 		.4byte	0x35b5
 10771 30fe 52       		.uleb128 0x52
 10772 30ff 4E000000 		.4byte	.LVL403
 10773 3103 B5350000 		.4byte	0x35b5
 10774 3107 41       		.uleb128 0x41
 10775 3108 58000000 		.4byte	.LVL404
 10776 310c 30380000 		.4byte	0x3830
 10777 3110 52       		.uleb128 0x52
 10778 3111 68000000 		.4byte	.LVL406
 10779 3115 B5350000 		.4byte	0x35b5
 10780 3119 00       		.byte	0
 10781 311a 53       		.uleb128 0x53
 10782 311b EA0C0000 		.4byte	.LASF323
 10783 311f 01       		.byte	0x1
ARM GAS  C:\Users\jo\AppData\Local\Temp\ccCSMiNu.s 			page 193


 10784 3120 9504     		.2byte	0x495
 10785 3122 00000000 		.4byte	.LFB280
 10786 3126 4C000000 		.4byte	.LFE280-.LFB280
 10787 312a 01       		.uleb128 0x1
 10788 312b 9C       		.byte	0x9c
 10789 312c 94310000 		.4byte	0x3194
 10790 3130 46       		.uleb128 0x46
 10791 3131 6D736700 		.ascii	"msg\000"
 10792 3135 01       		.byte	0x1
 10793 3136 9504     		.2byte	0x495
 10794 3138 B60F0000 		.4byte	0xfb6
 10795 313c 53140000 		.4byte	.LLST104
 10796 3140 49       		.uleb128 0x49
 10797 3141 20000000 		.4byte	.LBB178
 10798 3145 20000000 		.4byte	.LBE178-.LBB178
 10799 3149 81310000 		.4byte	0x3181
 10800 314d 3E       		.uleb128 0x3e
 10801 314e 670C0000 		.4byte	.LASF324
 10802 3152 01       		.byte	0x1
 10803 3153 A004     		.2byte	0x4a0
 10804 3155 53090000 		.4byte	0x953
 10805 3159 98140000 		.4byte	.LLST105
 10806 315d 4A       		.uleb128 0x4a
 10807 315e 26000000 		.4byte	.LBB179
 10808 3162 14000000 		.4byte	.LBE179-.LBB179
 10809 3166 3E       		.uleb128 0x3e
 10810 3167 D00F0000 		.4byte	.LASF325
 10811 316b 01       		.byte	0x1
 10812 316c A204     		.2byte	0x4a2
 10813 316e 3D090000 		.4byte	0x93d
 10814 3172 C6140000 		.4byte	.LLST106
 10815 3176 41       		.uleb128 0x41
 10816 3177 3A000000 		.4byte	.LVL414
 10817 317b 4F350000 		.4byte	0x354f
 10818 317f 00       		.byte	0
 10819 3180 00       		.byte	0
 10820 3181 52       		.uleb128 0x52
 10821 3182 20000000 		.4byte	.LVL410
 10822 3186 B5350000 		.4byte	0x35b5
 10823 318a 52       		.uleb128 0x52
 10824 318b 4C000000 		.4byte	.LVL417
 10825 318f B5350000 		.4byte	0x35b5
 10826 3193 00       		.byte	0
 10827 3194 53       		.uleb128 0x53
 10828 3195 9D070000 		.4byte	.LASF326
 10829 3199 01       		.byte	0x1
 10830 319a 3F05     		.2byte	0x53f
 10831 319c 00000000 		.4byte	.LFB282
 10832 31a0 A4000000 		.4byte	.LFE282-.LFB282
 10833 31a4 01       		.uleb128 0x1
 10834 31a5 9C       		.byte	0x9c
 10835 31a6 8D320000 		.4byte	0x328d
 10836 31aa 46       		.uleb128 0x46
 10837 31ab 6D736700 		.ascii	"msg\000"
 10838 31af 01       		.byte	0x1
 10839 31b0 3F05     		.2byte	0x53f
 10840 31b2 B60F0000 		.4byte	0xfb6
ARM GAS  C:\Users\jo\AppData\Local\Temp\ccCSMiNu.s 			page 194


 10841 31b6 D9140000 		.4byte	.LLST107
 10842 31ba 3F       		.uleb128 0x3f
 10843 31bb 95120000 		.4byte	0x1295
 10844 31bf 4C000000 		.4byte	.LBB180
 10845 31c3 06000000 		.4byte	.LBE180-.LBB180
 10846 31c7 01       		.byte	0x1
 10847 31c8 4C05     		.2byte	0x54c
 10848 31ca EB310000 		.4byte	0x31eb
 10849 31ce 33       		.uleb128 0x33
 10850 31cf A2120000 		.4byte	0x12a2
 10851 31d3 40150000 		.4byte	.LLST108
 10852 31d7 37       		.uleb128 0x37
 10853 31d8 52000000 		.4byte	.LVL423
 10854 31dc 22350000 		.4byte	0x3522
 10855 31e0 30       		.uleb128 0x30
 10856 31e1 01       		.uleb128 0x1
 10857 31e2 50       		.byte	0x50
 10858 31e3 05       		.uleb128 0x5
 10859 31e4 03       		.byte	0x3
 10860 31e5 14040000 		.4byte	.LC29
 10861 31e9 00       		.byte	0
 10862 31ea 00       		.byte	0
 10863 31eb 3F       		.uleb128 0x3f
 10864 31ec 95120000 		.4byte	0x1295
 10865 31f0 7A000000 		.4byte	.LBB182
 10866 31f4 08000000 		.4byte	.LBE182-.LBB182
 10867 31f8 01       		.byte	0x1
 10868 31f9 4E05     		.2byte	0x54e
 10869 31fb 1C320000 		.4byte	0x321c
 10870 31ff 33       		.uleb128 0x33
 10871 3200 A2120000 		.4byte	0x12a2
 10872 3204 58150000 		.4byte	.LLST109
 10873 3208 37       		.uleb128 0x37
 10874 3209 80000000 		.4byte	.LVL427
 10875 320d 22350000 		.4byte	0x3522
 10876 3211 30       		.uleb128 0x30
 10877 3212 01       		.uleb128 0x1
 10878 3213 50       		.byte	0x50
 10879 3214 05       		.uleb128 0x5
 10880 3215 03       		.byte	0x3
 10881 3216 48040000 		.4byte	.LC31
 10882 321a 00       		.byte	0
 10883 321b 00       		.byte	0
 10884 321c 52       		.uleb128 0x52
 10885 321d 1C000000 		.4byte	.LVL420
 10886 3221 B5350000 		.4byte	0x35b5
 10887 3225 2F       		.uleb128 0x2f
 10888 3226 4C000000 		.4byte	.LVL422
 10889 322a 0F140000 		.4byte	0x140f
 10890 322e 56320000 		.4byte	0x3256
 10891 3232 30       		.uleb128 0x30
 10892 3233 01       		.uleb128 0x1
 10893 3234 53       		.byte	0x53
 10894 3235 03       		.uleb128 0x3
 10895 3236 0A       		.byte	0xa
 10896 3237 4D05     		.2byte	0x54d
 10897 3239 30       		.uleb128 0x30
ARM GAS  C:\Users\jo\AppData\Local\Temp\ccCSMiNu.s 			page 195


 10898 323a 01       		.uleb128 0x1
 10899 323b 52       		.byte	0x52
 10900 323c 05       		.uleb128 0x5
 10901 323d 03       		.byte	0x3
 10902 323e 14040000 		.4byte	.LC29
 10903 3242 30       		.uleb128 0x30
 10904 3243 01       		.uleb128 0x1
 10905 3244 51       		.byte	0x51
 10906 3245 05       		.uleb128 0x5
 10907 3246 03       		.byte	0x3
 10908 3247 00000000 		.4byte	.LC0
 10909 324b 30       		.uleb128 0x30
 10910 324c 02       		.uleb128 0x2
 10911 324d 7D       		.byte	0x7d
 10912 324e 00       		.sleb128 0
 10913 324f 05       		.uleb128 0x5
 10914 3250 03       		.byte	0x3
 10915 3251 4C000000 		.4byte	.LC2
 10916 3255 00       		.byte	0
 10917 3256 52       		.uleb128 0x52
 10918 3257 68000000 		.4byte	.LVL425
 10919 325b AD1A0000 		.4byte	0x1aad
 10920 325f 37       		.uleb128 0x37
 10921 3260 7A000000 		.4byte	.LVL426
 10922 3264 0F140000 		.4byte	0x140f
 10923 3268 30       		.uleb128 0x30
 10924 3269 01       		.uleb128 0x1
 10925 326a 53       		.byte	0x53
 10926 326b 03       		.uleb128 0x3
 10927 326c 0A       		.byte	0xa
 10928 326d 4E05     		.2byte	0x54e
 10929 326f 30       		.uleb128 0x30
 10930 3270 01       		.uleb128 0x1
 10931 3271 52       		.byte	0x52
 10932 3272 05       		.uleb128 0x5
 10933 3273 03       		.byte	0x3
 10934 3274 48040000 		.4byte	.LC31
 10935 3278 30       		.uleb128 0x30
 10936 3279 01       		.uleb128 0x1
 10937 327a 51       		.byte	0x51
 10938 327b 05       		.uleb128 0x5
 10939 327c 03       		.byte	0x3
 10940 327d 00000000 		.4byte	.LC0
 10941 3281 30       		.uleb128 0x30
 10942 3282 02       		.uleb128 0x2
 10943 3283 7D       		.byte	0x7d
 10944 3284 00       		.sleb128 0
 10945 3285 05       		.uleb128 0x5
 10946 3286 03       		.byte	0x3
 10947 3287 4C000000 		.4byte	.LC2
 10948 328b 00       		.byte	0
 10949 328c 00       		.byte	0
 10950 328d 53       		.uleb128 0x53
 10951 328e C10C0000 		.4byte	.LASF327
 10952 3292 01       		.byte	0x1
 10953 3293 7605     		.2byte	0x576
 10954 3295 00000000 		.4byte	.LFB283
ARM GAS  C:\Users\jo\AppData\Local\Temp\ccCSMiNu.s 			page 196


 10955 3299 C8000000 		.4byte	.LFE283-.LFB283
 10956 329d 01       		.uleb128 0x1
 10957 329e 9C       		.byte	0x9c
 10958 329f 3A330000 		.4byte	0x333a
 10959 32a3 46       		.uleb128 0x46
 10960 32a4 6D736700 		.ascii	"msg\000"
 10961 32a8 01       		.byte	0x1
 10962 32a9 7605     		.2byte	0x576
 10963 32ab B60F0000 		.4byte	0xfb6
 10964 32af 70150000 		.4byte	.LLST110
 10965 32b3 3F       		.uleb128 0x3f
 10966 32b4 95120000 		.4byte	0x1295
 10967 32b8 58000000 		.4byte	.LBB184
 10968 32bc 08000000 		.4byte	.LBE184-.LBB184
 10969 32c0 01       		.byte	0x1
 10970 32c1 9B05     		.2byte	0x59b
 10971 32c3 E4320000 		.4byte	0x32e4
 10972 32c7 33       		.uleb128 0x33
 10973 32c8 A2120000 		.4byte	0x12a2
 10974 32cc E7150000 		.4byte	.LLST111
 10975 32d0 37       		.uleb128 0x37
 10976 32d1 5E000000 		.4byte	.LVL432
 10977 32d5 22350000 		.4byte	0x3522
 10978 32d9 30       		.uleb128 0x30
 10979 32da 01       		.uleb128 0x1
 10980 32db 50       		.byte	0x50
 10981 32dc 05       		.uleb128 0x5
 10982 32dd 03       		.byte	0x3
 10983 32de 5C040000 		.4byte	.LC32
 10984 32e2 00       		.byte	0
 10985 32e3 00       		.byte	0
 10986 32e4 2F       		.uleb128 0x2f
 10987 32e5 58000000 		.4byte	.LVL431
 10988 32e9 0F140000 		.4byte	0x140f
 10989 32ed 15330000 		.4byte	0x3315
 10990 32f1 30       		.uleb128 0x30
 10991 32f2 01       		.uleb128 0x1
 10992 32f3 53       		.byte	0x53
 10993 32f4 03       		.uleb128 0x3
 10994 32f5 0A       		.byte	0xa
 10995 32f6 9B05     		.2byte	0x59b
 10996 32f8 30       		.uleb128 0x30
 10997 32f9 01       		.uleb128 0x1
 10998 32fa 52       		.byte	0x52
 10999 32fb 05       		.uleb128 0x5
 11000 32fc 03       		.byte	0x3
 11001 32fd 5C040000 		.4byte	.LC32
 11002 3301 30       		.uleb128 0x30
 11003 3302 01       		.uleb128 0x1
 11004 3303 51       		.byte	0x51
 11005 3304 05       		.uleb128 0x5
 11006 3305 03       		.byte	0x3
 11007 3306 00000000 		.4byte	.LC0
 11008 330a 30       		.uleb128 0x30
 11009 330b 02       		.uleb128 0x2
 11010 330c 7D       		.byte	0x7d
 11011 330d 00       		.sleb128 0
ARM GAS  C:\Users\jo\AppData\Local\Temp\ccCSMiNu.s 			page 197


 11012 330e 05       		.uleb128 0x5
 11013 330f 03       		.byte	0x3
 11014 3310 4C000000 		.4byte	.LC2
 11015 3314 00       		.byte	0
 11016 3315 52       		.uleb128 0x52
 11017 3316 6E000000 		.4byte	.LVL434
 11018 331a B5350000 		.4byte	0x35b5
 11019 331e 52       		.uleb128 0x52
 11020 331f 88000000 		.4byte	.LVL436
 11021 3323 B5350000 		.4byte	0x35b5
 11022 3327 52       		.uleb128 0x52
 11023 3328 9A000000 		.4byte	.LVL438
 11024 332c B5350000 		.4byte	0x35b5
 11025 3330 52       		.uleb128 0x52
 11026 3331 B6000000 		.4byte	.LVL440
 11027 3335 B5350000 		.4byte	0x35b5
 11028 3339 00       		.byte	0
 11029 333a 53       		.uleb128 0x53
 11030 333b 710B0000 		.4byte	.LASF328
 11031 333f 01       		.byte	0x1
 11032 3340 AB05     		.2byte	0x5ab
 11033 3342 00000000 		.4byte	.LFB284
 11034 3346 C0000000 		.4byte	.LFE284-.LFB284
 11035 334a 01       		.uleb128 0x1
 11036 334b 9C       		.byte	0x9c
 11037 334c 49340000 		.4byte	0x3449
 11038 3350 46       		.uleb128 0x46
 11039 3351 6D736700 		.ascii	"msg\000"
 11040 3355 01       		.byte	0x1
 11041 3356 AB05     		.2byte	0x5ab
 11042 3358 B60F0000 		.4byte	0xfb6
 11043 335c FF150000 		.4byte	.LLST112
 11044 3360 3F       		.uleb128 0x3f
 11045 3361 95120000 		.4byte	0x1295
 11046 3365 28000000 		.4byte	.LBB186
 11047 3369 08000000 		.4byte	.LBE186-.LBB186
 11048 336d 01       		.byte	0x1
 11049 336e B105     		.2byte	0x5b1
 11050 3370 91330000 		.4byte	0x3391
 11051 3374 33       		.uleb128 0x33
 11052 3375 A2120000 		.4byte	0x12a2
 11053 3379 74160000 		.4byte	.LLST113
 11054 337d 37       		.uleb128 0x37
 11055 337e 2E000000 		.4byte	.LVL444
 11056 3382 22350000 		.4byte	0x3522
 11057 3386 30       		.uleb128 0x30
 11058 3387 01       		.uleb128 0x1
 11059 3388 50       		.byte	0x50
 11060 3389 05       		.uleb128 0x5
 11061 338a 03       		.byte	0x3
 11062 338b D4030000 		.4byte	.LC27
 11063 338f 00       		.byte	0
 11064 3390 00       		.byte	0
 11065 3391 3F       		.uleb128 0x3f
 11066 3392 95120000 		.4byte	0x1295
 11067 3396 7E000000 		.4byte	.LBB188
 11068 339a 08000000 		.4byte	.LBE188-.LBB188
ARM GAS  C:\Users\jo\AppData\Local\Temp\ccCSMiNu.s 			page 198


 11069 339e 01       		.byte	0x1
 11070 339f BC05     		.2byte	0x5bc
 11071 33a1 C2330000 		.4byte	0x33c2
 11072 33a5 33       		.uleb128 0x33
 11073 33a6 A2120000 		.4byte	0x12a2
 11074 33aa 8C160000 		.4byte	.LLST114
 11075 33ae 37       		.uleb128 0x37
 11076 33af 84000000 		.4byte	.LVL451
 11077 33b3 22350000 		.4byte	0x3522
 11078 33b7 30       		.uleb128 0x30
 11079 33b8 01       		.uleb128 0x1
 11080 33b9 50       		.byte	0x50
 11081 33ba 05       		.uleb128 0x5
 11082 33bb 03       		.byte	0x3
 11083 33bc 14040000 		.4byte	.LC29
 11084 33c0 00       		.byte	0
 11085 33c1 00       		.byte	0
 11086 33c2 2F       		.uleb128 0x2f
 11087 33c3 28000000 		.4byte	.LVL443
 11088 33c7 0F140000 		.4byte	0x140f
 11089 33cb F3330000 		.4byte	0x33f3
 11090 33cf 30       		.uleb128 0x30
 11091 33d0 01       		.uleb128 0x1
 11092 33d1 53       		.byte	0x53
 11093 33d2 03       		.uleb128 0x3
 11094 33d3 0A       		.byte	0xa
 11095 33d4 B105     		.2byte	0x5b1
 11096 33d6 30       		.uleb128 0x30
 11097 33d7 01       		.uleb128 0x1
 11098 33d8 52       		.byte	0x52
 11099 33d9 05       		.uleb128 0x5
 11100 33da 03       		.byte	0x3
 11101 33db D4030000 		.4byte	.LC27
 11102 33df 30       		.uleb128 0x30
 11103 33e0 01       		.uleb128 0x1
 11104 33e1 51       		.byte	0x51
 11105 33e2 05       		.uleb128 0x5
 11106 33e3 03       		.byte	0x3
 11107 33e4 00000000 		.4byte	.LC0
 11108 33e8 30       		.uleb128 0x30
 11109 33e9 02       		.uleb128 0x2
 11110 33ea 7D       		.byte	0x7d
 11111 33eb 00       		.sleb128 0
 11112 33ec 05       		.uleb128 0x5
 11113 33ed 03       		.byte	0x3
 11114 33ee 4C000000 		.4byte	.LC2
 11115 33f2 00       		.byte	0
 11116 33f3 52       		.uleb128 0x52
 11117 33f4 40000000 		.4byte	.LVL447
 11118 33f8 B5350000 		.4byte	0x35b5
 11119 33fc 52       		.uleb128 0x52
 11120 33fd 5A000000 		.4byte	.LVL449
 11121 3401 B5350000 		.4byte	0x35b5
 11122 3405 2F       		.uleb128 0x2f
 11123 3406 7E000000 		.4byte	.LVL450
 11124 340a 0F140000 		.4byte	0x140f
 11125 340e 36340000 		.4byte	0x3436
ARM GAS  C:\Users\jo\AppData\Local\Temp\ccCSMiNu.s 			page 199


 11126 3412 30       		.uleb128 0x30
 11127 3413 01       		.uleb128 0x1
 11128 3414 53       		.byte	0x53
 11129 3415 03       		.uleb128 0x3
 11130 3416 0A       		.byte	0xa
 11131 3417 BD05     		.2byte	0x5bd
 11132 3419 30       		.uleb128 0x30
 11133 341a 01       		.uleb128 0x1
 11134 341b 52       		.byte	0x52
 11135 341c 05       		.uleb128 0x5
 11136 341d 03       		.byte	0x3
 11137 341e 14040000 		.4byte	.LC29
 11138 3422 30       		.uleb128 0x30
 11139 3423 01       		.uleb128 0x1
 11140 3424 51       		.byte	0x51
 11141 3425 05       		.uleb128 0x5
 11142 3426 03       		.byte	0x3
 11143 3427 00000000 		.4byte	.LC0
 11144 342b 30       		.uleb128 0x30
 11145 342c 02       		.uleb128 0x2
 11146 342d 7D       		.byte	0x7d
 11147 342e 00       		.sleb128 0
 11148 342f 05       		.uleb128 0x5
 11149 3430 03       		.byte	0x3
 11150 3431 4C000000 		.4byte	.LC2
 11151 3435 00       		.byte	0
 11152 3436 52       		.uleb128 0x52
 11153 3437 96000000 		.4byte	.LVL454
 11154 343b 6E160000 		.4byte	0x166e
 11155 343f 41       		.uleb128 0x41
 11156 3440 A2000000 		.4byte	.LVL455
 11157 3444 42290000 		.4byte	0x2942
 11158 3448 00       		.byte	0
 11159 3449 56       		.uleb128 0x56
 11160 344a 2E000000 		.4byte	.LASF329
 11161 344e 20       		.byte	0x20
 11162 344f A706     		.2byte	0x6a7
 11163 3451 10010000 		.4byte	0x110
 11164 3455 57       		.uleb128 0x57
 11165 3456 636800   		.ascii	"ch\000"
 11166 3459 09       		.byte	0x9
 11167 345a 0902     		.2byte	0x209
 11168 345c 5B040000 		.4byte	0x45b
 11169 3460 58       		.uleb128 0x58
 11170 3461 A4100000 		.4byte	.LASF330
 11171 3465 15       		.byte	0x15
 11172 3466 3D       		.byte	0x3d
 11173 3467 EF080000 		.4byte	0x8ef
 11174 346b 15       		.uleb128 0x15
 11175 346c 3D090000 		.4byte	0x93d
 11176 3470 7B340000 		.4byte	0x347b
 11177 3474 16       		.uleb128 0x16
 11178 3475 C5040000 		.4byte	0x4c5
 11179 3479 0C       		.byte	0xc
 11180 347a 00       		.byte	0
 11181 347b 58       		.uleb128 0x58
 11182 347c EC030000 		.4byte	.LASF331
ARM GAS  C:\Users\jo\AppData\Local\Temp\ccCSMiNu.s 			page 200


 11183 3480 21       		.byte	0x21
 11184 3481 4F       		.byte	0x4f
 11185 3482 86340000 		.4byte	0x3486
 11186 3486 19       		.uleb128 0x19
 11187 3487 6B340000 		.4byte	0x346b
 11188 348b 59       		.uleb128 0x59
 11189 348c B60E0000 		.4byte	.LASF332
 11190 3490 1D       		.byte	0x1d
 11191 3491 3E01     		.2byte	0x13e
 11192 3493 A2340000 		.4byte	0x34a2
 11193 3497 0D       		.uleb128 0xd
 11194 3498 DD0E0000 		.4byte	0xedd
 11195 349c 0D       		.uleb128 0xd
 11196 349d 64030000 		.4byte	0x364
 11197 34a1 00       		.byte	0
 11198 34a2 59       		.uleb128 0x59
 11199 34a3 DE0E0000 		.4byte	.LASF333
 11200 34a7 1D       		.byte	0x1d
 11201 34a8 4001     		.2byte	0x140
 11202 34aa B9340000 		.4byte	0x34b9
 11203 34ae 0D       		.uleb128 0xd
 11204 34af DD0E0000 		.4byte	0xedd
 11205 34b3 0D       		.uleb128 0xd
 11206 34b4 2E110000 		.4byte	0x112e
 11207 34b8 00       		.byte	0
 11208 34b9 59       		.uleb128 0x59
 11209 34ba CD030000 		.4byte	.LASF334
 11210 34be 1D       		.byte	0x1d
 11211 34bf 4101     		.2byte	0x141
 11212 34c1 D0340000 		.4byte	0x34d0
 11213 34c5 0D       		.uleb128 0xd
 11214 34c6 DD0E0000 		.4byte	0xedd
 11215 34ca 0D       		.uleb128 0xd
 11216 34cb 5D110000 		.4byte	0x115d
 11217 34cf 00       		.byte	0
 11218 34d0 59       		.uleb128 0x59
 11219 34d1 A4080000 		.4byte	.LASF335
 11220 34d5 1D       		.byte	0x1d
 11221 34d6 4201     		.2byte	0x142
 11222 34d8 EC340000 		.4byte	0x34ec
 11223 34dc 0D       		.uleb128 0xd
 11224 34dd DD0E0000 		.4byte	0xedd
 11225 34e1 0D       		.uleb128 0xd
 11226 34e2 87110000 		.4byte	0x1187
 11227 34e6 0D       		.uleb128 0xd
 11228 34e7 27090000 		.4byte	0x927
 11229 34eb 00       		.byte	0
 11230 34ec 59       		.uleb128 0x59
 11231 34ed D4090000 		.4byte	.LASF336
 11232 34f1 1D       		.byte	0x1d
 11233 34f2 4301     		.2byte	0x143
 11234 34f4 03350000 		.4byte	0x3503
 11235 34f8 0D       		.uleb128 0xd
 11236 34f9 DD0E0000 		.4byte	0xedd
 11237 34fd 0D       		.uleb128 0xd
 11238 34fe AC110000 		.4byte	0x11ac
 11239 3502 00       		.byte	0
ARM GAS  C:\Users\jo\AppData\Local\Temp\ccCSMiNu.s 			page 201


 11240 3503 5A       		.uleb128 0x5a
 11241 3504 7F000000 		.4byte	.LASF338
 11242 3508 02       		.byte	0x2
 11243 3509 28       		.byte	0x28
 11244 350a 25000000 		.4byte	0x25
 11245 350e 22350000 		.4byte	0x3522
 11246 3512 0D       		.uleb128 0xd
 11247 3513 48130000 		.4byte	0x1348
 11248 3517 0D       		.uleb128 0xd
 11249 3518 F4060000 		.4byte	0x6f4
 11250 351c 0D       		.uleb128 0xd
 11251 351d 1C090000 		.4byte	0x91c
 11252 3521 00       		.byte	0
 11253 3522 59       		.uleb128 0x59
 11254 3523 E70E0000 		.4byte	.LASF337
 11255 3527 22       		.byte	0x22
 11256 3528 1601     		.2byte	0x116
 11257 352a 34350000 		.4byte	0x3534
 11258 352e 0D       		.uleb128 0xd
 11259 352f F4060000 		.4byte	0x6f4
 11260 3533 00       		.byte	0
 11261 3534 5A       		.uleb128 0x5a
 11262 3535 FC050000 		.4byte	.LASF339
 11263 3539 23       		.byte	0x23
 11264 353a D5       		.byte	0xd5
 11265 353b 25000000 		.4byte	0x25
 11266 353f 49350000 		.4byte	0x3549
 11267 3543 0D       		.uleb128 0xd
 11268 3544 49350000 		.4byte	0x3549
 11269 3548 00       		.byte	0
 11270 3549 0A       		.uleb128 0xa
 11271 354a 04       		.byte	0x4
 11272 354b 9E090000 		.4byte	0x99e
 11273 354f 59       		.uleb128 0x59
 11274 3550 45050000 		.4byte	.LASF340
 11275 3554 1D       		.byte	0x1d
 11276 3555 5501     		.2byte	0x155
 11277 3557 66350000 		.4byte	0x3566
 11278 355b 0D       		.uleb128 0xd
 11279 355c DD0E0000 		.4byte	0xedd
 11280 3560 0D       		.uleb128 0xd
 11281 3561 3D090000 		.4byte	0x93d
 11282 3565 00       		.byte	0
 11283 3566 5A       		.uleb128 0x5a
 11284 3567 AD080000 		.4byte	.LASF341
 11285 356b 19       		.byte	0x19
 11286 356c 9B       		.byte	0x9b
 11287 356d 27090000 		.4byte	0x927
 11288 3571 7B350000 		.4byte	0x357b
 11289 3575 0D       		.uleb128 0xd
 11290 3576 100A0000 		.4byte	0xa10
 11291 357a 00       		.byte	0
 11292 357b 5A       		.uleb128 0x5a
 11293 357c D20A0000 		.4byte	.LASF342
 11294 3580 23       		.byte	0x23
 11295 3581 BA       		.byte	0xba
 11296 3582 82090000 		.4byte	0x982
ARM GAS  C:\Users\jo\AppData\Local\Temp\ccCSMiNu.s 			page 202


 11297 3586 95350000 		.4byte	0x3595
 11298 358a 0D       		.uleb128 0xd
 11299 358b 49350000 		.4byte	0x3549
 11300 358f 0D       		.uleb128 0xd
 11301 3590 64030000 		.4byte	0x364
 11302 3594 00       		.byte	0
 11303 3595 5B       		.uleb128 0x5b
 11304 3596 30050000 		.4byte	.LASF343
 11305 359a 1D       		.byte	0x1d
 11306 359b 6001     		.2byte	0x160
 11307 359d 82090000 		.4byte	0x982
 11308 35a1 B5350000 		.4byte	0x35b5
 11309 35a5 0D       		.uleb128 0xd
 11310 35a6 DD0E0000 		.4byte	0xedd
 11311 35aa 0D       		.uleb128 0xd
 11312 35ab 25000000 		.4byte	0x25
 11313 35af 0D       		.uleb128 0xd
 11314 35b0 25000000 		.4byte	0x25
 11315 35b4 00       		.byte	0
 11316 35b5 5C       		.uleb128 0x5c
 11317 35b6 91050000 		.4byte	.LASF344
 11318 35ba 23       		.byte	0x23
 11319 35bb 8E       		.byte	0x8e
 11320 35bc C6350000 		.4byte	0x35c6
 11321 35c0 0D       		.uleb128 0xd
 11322 35c1 8F120000 		.4byte	0x128f
 11323 35c5 00       		.byte	0
 11324 35c6 5B       		.uleb128 0x5b
 11325 35c7 F2090000 		.4byte	.LASF345
 11326 35cb 1D       		.byte	0x1d
 11327 35cc 5F01     		.2byte	0x15f
 11328 35ce 82090000 		.4byte	0x982
 11329 35d2 DC350000 		.4byte	0x35dc
 11330 35d6 0D       		.uleb128 0xd
 11331 35d7 DD0E0000 		.4byte	0xedd
 11332 35db 00       		.byte	0
 11333 35dc 59       		.uleb128 0x59
 11334 35dd 060B0000 		.4byte	.LASF346
 11335 35e1 1D       		.byte	0x1d
 11336 35e2 3F01     		.2byte	0x13f
 11337 35e4 F3350000 		.4byte	0x35f3
 11338 35e8 0D       		.uleb128 0xd
 11339 35e9 DD0E0000 		.4byte	0xedd
 11340 35ed 0D       		.uleb128 0xd
 11341 35ee 04110000 		.4byte	0x1104
 11342 35f2 00       		.byte	0
 11343 35f3 5B       		.uleb128 0x5b
 11344 35f4 FF060000 		.4byte	.LASF347
 11345 35f8 1D       		.byte	0x1d
 11346 35f9 6F01     		.2byte	0x16f
 11347 35fb 82090000 		.4byte	0x982
 11348 35ff 09360000 		.4byte	0x3609
 11349 3603 0D       		.uleb128 0xd
 11350 3604 DD0E0000 		.4byte	0xedd
 11351 3608 00       		.byte	0
 11352 3609 5B       		.uleb128 0x5b
 11353 360a A1040000 		.4byte	.LASF348
ARM GAS  C:\Users\jo\AppData\Local\Temp\ccCSMiNu.s 			page 203


 11354 360e 1D       		.byte	0x1d
 11355 360f 6601     		.2byte	0x166
 11356 3611 82090000 		.4byte	0x982
 11357 3615 2E360000 		.4byte	0x362e
 11358 3619 0D       		.uleb128 0xd
 11359 361a DD0E0000 		.4byte	0xedd
 11360 361e 0D       		.uleb128 0xd
 11361 361f 52100000 		.4byte	0x1052
 11362 3623 0D       		.uleb128 0xd
 11363 3624 3D090000 		.4byte	0x93d
 11364 3628 0D       		.uleb128 0xd
 11365 3629 27090000 		.4byte	0x927
 11366 362d 00       		.byte	0
 11367 362e 5A       		.uleb128 0x5a
 11368 362f 57040000 		.4byte	.LASF349
 11369 3633 24       		.byte	0x24
 11370 3634 60       		.byte	0x60
 11371 3635 64030000 		.4byte	0x364
 11372 3639 43360000 		.4byte	0x3643
 11373 363d 0D       		.uleb128 0xd
 11374 363e 2C000000 		.4byte	0x2c
 11375 3642 00       		.byte	0
 11376 3643 5C       		.uleb128 0x5c
 11377 3644 7F040000 		.4byte	.LASF350
 11378 3648 1A       		.byte	0x1a
 11379 3649 41       		.byte	0x41
 11380 364a 54360000 		.4byte	0x3654
 11381 364e 0D       		.uleb128 0xd
 11382 364f CE100000 		.4byte	0x10ce
 11383 3653 00       		.byte	0
 11384 3654 5D       		.uleb128 0x5d
 11385 3655 D6060000 		.4byte	.LASF352
 11386 3659 1E       		.byte	0x1e
 11387 365a 7B       		.byte	0x7b
 11388 365b 740F0000 		.4byte	0xf74
 11389 365f 5C       		.uleb128 0x5c
 11390 3660 A50D0000 		.4byte	.LASF351
 11391 3664 1E       		.byte	0x1e
 11392 3665 82       		.byte	0x82
 11393 3666 7A360000 		.4byte	0x367a
 11394 366a 0D       		.uleb128 0xd
 11395 366b 740F0000 		.4byte	0xf74
 11396 366f 0D       		.uleb128 0xd
 11397 3670 D4100000 		.4byte	0x10d4
 11398 3674 0D       		.uleb128 0xd
 11399 3675 64030000 		.4byte	0x364
 11400 3679 00       		.byte	0
 11401 367a 5E       		.uleb128 0x5e
 11402 367b 3D050000 		.4byte	.LASF353
 11403 367f 1D       		.byte	0x1d
 11404 3680 3C01     		.2byte	0x13c
 11405 3682 DD0E0000 		.4byte	0xedd
 11406 3686 5A       		.uleb128 0x5a
 11407 3687 0B090000 		.4byte	.LASF354
 11408 368b 23       		.byte	0x23
 11409 368c 8B       		.byte	0x8b
 11410 368d 82090000 		.4byte	0x982
ARM GAS  C:\Users\jo\AppData\Local\Temp\ccCSMiNu.s 			page 204


 11411 3691 A0360000 		.4byte	0x36a0
 11412 3695 0D       		.uleb128 0xd
 11413 3696 8F120000 		.4byte	0x128f
 11414 369a 0D       		.uleb128 0xd
 11415 369b 27090000 		.4byte	0x927
 11416 369f 00       		.byte	0
 11417 36a0 5A       		.uleb128 0x5a
 11418 36a1 10100000 		.4byte	.LASF355
 11419 36a5 23       		.byte	0x23
 11420 36a6 B1       		.byte	0xb1
 11421 36a7 82090000 		.4byte	0x982
 11422 36ab BA360000 		.4byte	0x36ba
 11423 36af 0D       		.uleb128 0xd
 11424 36b0 49350000 		.4byte	0x3549
 11425 36b4 0D       		.uleb128 0xd
 11426 36b5 25000000 		.4byte	0x25
 11427 36b9 00       		.byte	0
 11428 36ba 5C       		.uleb128 0x5c
 11429 36bb BA010000 		.4byte	.LASF356
 11430 36bf 23       		.byte	0x23
 11431 36c0 D9       		.byte	0xd9
 11432 36c1 CB360000 		.4byte	0x36cb
 11433 36c5 0D       		.uleb128 0xd
 11434 36c6 49350000 		.4byte	0x3549
 11435 36ca 00       		.byte	0
 11436 36cb 5C       		.uleb128 0x5c
 11437 36cc 68030000 		.4byte	.LASF357
 11438 36d0 24       		.byte	0x24
 11439 36d1 55       		.byte	0x55
 11440 36d2 DC360000 		.4byte	0x36dc
 11441 36d6 0D       		.uleb128 0xd
 11442 36d7 64030000 		.4byte	0x364
 11443 36db 00       		.byte	0
 11444 36dc 5C       		.uleb128 0x5c
 11445 36dd DD0C0000 		.4byte	.LASF358
 11446 36e1 23       		.byte	0x23
 11447 36e2 9A       		.byte	0x9a
 11448 36e3 ED360000 		.4byte	0x36ed
 11449 36e7 0D       		.uleb128 0xd
 11450 36e8 8F120000 		.4byte	0x128f
 11451 36ec 00       		.byte	0
 11452 36ed 5C       		.uleb128 0x5c
 11453 36ee 8D040000 		.4byte	.LASF359
 11454 36f2 23       		.byte	0x23
 11455 36f3 A3       		.byte	0xa3
 11456 36f4 FE360000 		.4byte	0x36fe
 11457 36f8 0D       		.uleb128 0xd
 11458 36f9 8F120000 		.4byte	0x128f
 11459 36fd 00       		.byte	0
 11460 36fe 59       		.uleb128 0x59
 11461 36ff 6A0A0000 		.4byte	.LASF360
 11462 3703 1D       		.byte	0x1d
 11463 3704 5E01     		.2byte	0x15e
 11464 3706 10370000 		.4byte	0x3710
 11465 370a 0D       		.uleb128 0xd
 11466 370b DD0E0000 		.4byte	0xedd
 11467 370f 00       		.byte	0
ARM GAS  C:\Users\jo\AppData\Local\Temp\ccCSMiNu.s 			page 205


 11468 3710 5A       		.uleb128 0x5a
 11469 3711 A5090000 		.4byte	.LASF361
 11470 3715 23       		.byte	0x23
 11471 3716 CB       		.byte	0xcb
 11472 3717 53090000 		.4byte	0x953
 11473 371b 2A370000 		.4byte	0x372a
 11474 371f 0D       		.uleb128 0xd
 11475 3720 49350000 		.4byte	0x3549
 11476 3724 0D       		.uleb128 0xd
 11477 3725 2A370000 		.4byte	0x372a
 11478 3729 00       		.byte	0
 11479 372a 0A       		.uleb128 0xa
 11480 372b 04       		.byte	0x4
 11481 372c 64030000 		.4byte	0x364
 11482 3730 5C       		.uleb128 0x5c
 11483 3731 020C0000 		.4byte	.LASF362
 11484 3735 23       		.byte	0x23
 11485 3736 D1       		.byte	0xd1
 11486 3737 41370000 		.4byte	0x3741
 11487 373b 0D       		.uleb128 0xd
 11488 373c 49350000 		.4byte	0x3549
 11489 3740 00       		.byte	0
 11490 3741 5A       		.uleb128 0x5a
 11491 3742 020F0000 		.4byte	.LASF363
 11492 3746 23       		.byte	0x23
 11493 3747 9F       		.byte	0x9f
 11494 3748 25000000 		.4byte	0x25
 11495 374c 56370000 		.4byte	0x3756
 11496 3750 0D       		.uleb128 0xd
 11497 3751 8F120000 		.4byte	0x128f
 11498 3755 00       		.byte	0
 11499 3756 5C       		.uleb128 0x5c
 11500 3757 390F0000 		.4byte	.LASF364
 11501 375b 1E       		.byte	0x1e
 11502 375c 7C       		.byte	0x7c
 11503 375d 67370000 		.4byte	0x3767
 11504 3761 0D       		.uleb128 0xd
 11505 3762 740F0000 		.4byte	0xf74
 11506 3766 00       		.byte	0
 11507 3767 5A       		.uleb128 0x5a
 11508 3768 CC040000 		.4byte	.LASF365
 11509 376c 1E       		.byte	0x1e
 11510 376d 7D       		.byte	0x7d
 11511 376e 82090000 		.4byte	0x982
 11512 3772 86370000 		.4byte	0x3786
 11513 3776 0D       		.uleb128 0xd
 11514 3777 740F0000 		.4byte	0xf74
 11515 377b 0D       		.uleb128 0xd
 11516 377c 160A0000 		.4byte	0xa16
 11517 3780 0D       		.uleb128 0xd
 11518 3781 3D090000 		.4byte	0x93d
 11519 3785 00       		.byte	0
 11520 3786 5B       		.uleb128 0x5b
 11521 3787 B1010000 		.4byte	.LASF366
 11522 378b 1D       		.byte	0x1d
 11523 378c 5601     		.2byte	0x156
 11524 378e 82090000 		.4byte	0x982
ARM GAS  C:\Users\jo\AppData\Local\Temp\ccCSMiNu.s 			page 206


 11525 3792 A6370000 		.4byte	0x37a6
 11526 3796 0D       		.uleb128 0xd
 11527 3797 DD0E0000 		.4byte	0xedd
 11528 379b 0D       		.uleb128 0xd
 11529 379c 160A0000 		.4byte	0xa16
 11530 37a0 0D       		.uleb128 0xd
 11531 37a1 3D090000 		.4byte	0x93d
 11532 37a5 00       		.byte	0
 11533 37a6 5A       		.uleb128 0x5a
 11534 37a7 1C030000 		.4byte	.LASF367
 11535 37ab 1E       		.byte	0x1e
 11536 37ac 7F       		.byte	0x7f
 11537 37ad 82090000 		.4byte	0x982
 11538 37b1 C5370000 		.4byte	0x37c5
 11539 37b5 0D       		.uleb128 0xd
 11540 37b6 740F0000 		.4byte	0xf74
 11541 37ba 0D       		.uleb128 0xd
 11542 37bb 160A0000 		.4byte	0xa16
 11543 37bf 0D       		.uleb128 0xd
 11544 37c0 3D090000 		.4byte	0x93d
 11545 37c4 00       		.byte	0
 11546 37c5 5B       		.uleb128 0x5b
 11547 37c6 71060000 		.4byte	.LASF368
 11548 37ca 1D       		.byte	0x1d
 11549 37cb 5801     		.2byte	0x158
 11550 37cd 82090000 		.4byte	0x982
 11551 37d1 EA370000 		.4byte	0x37ea
 11552 37d5 0D       		.uleb128 0xd
 11553 37d6 DD0E0000 		.4byte	0xedd
 11554 37da 0D       		.uleb128 0xd
 11555 37db 160A0000 		.4byte	0xa16
 11556 37df 0D       		.uleb128 0xd
 11557 37e0 3D090000 		.4byte	0x93d
 11558 37e4 0D       		.uleb128 0xd
 11559 37e5 CD110000 		.4byte	0x11cd
 11560 37e9 00       		.byte	0
 11561 37ea 5C       		.uleb128 0x5c
 11562 37eb B5050000 		.4byte	.LASF369
 11563 37ef 1E       		.byte	0x1e
 11564 37f0 81       		.byte	0x81
 11565 37f1 FB370000 		.4byte	0x37fb
 11566 37f5 0D       		.uleb128 0xd
 11567 37f6 740F0000 		.4byte	0xf74
 11568 37fa 00       		.byte	0
 11569 37fb 5B       		.uleb128 0x5b
 11570 37fc BC090000 		.4byte	.LASF370
 11571 3800 1D       		.byte	0x1d
 11572 3801 5B01     		.2byte	0x15b
 11573 3803 DD0E0000 		.4byte	0xedd
 11574 3807 16380000 		.4byte	0x3816
 11575 380b 0D       		.uleb128 0xd
 11576 380c DD0E0000 		.4byte	0xedd
 11577 3810 0D       		.uleb128 0xd
 11578 3811 27090000 		.4byte	0x927
 11579 3815 00       		.byte	0
 11580 3816 5A       		.uleb128 0x5a
 11581 3817 8B020000 		.4byte	.LASF371
ARM GAS  C:\Users\jo\AppData\Local\Temp\ccCSMiNu.s 			page 207


 11582 381b 1E       		.byte	0x1e
 11583 381c 89       		.byte	0x89
 11584 381d 82090000 		.4byte	0x982
 11585 3821 30380000 		.4byte	0x3830
 11586 3825 0D       		.uleb128 0xd
 11587 3826 740F0000 		.4byte	0xf74
 11588 382a 0D       		.uleb128 0xd
 11589 382b 100A0000 		.4byte	0xa10
 11590 382f 00       		.byte	0
 11591 3830 5F       		.uleb128 0x5f
 11592 3831 99000000 		.4byte	.LASF372
 11593 3835 1E       		.byte	0x1e
 11594 3836 87       		.byte	0x87
 11595 3837 82090000 		.4byte	0x982
 11596 383b 0D       		.uleb128 0xd
 11597 383c 740F0000 		.4byte	0xf74
 11598 3840 0D       		.uleb128 0xd
 11599 3841 100A0000 		.4byte	0xa10
 11600 3845 0D       		.uleb128 0xd
 11601 3846 160A0000 		.4byte	0xa16
 11602 384a 0D       		.uleb128 0xd
 11603 384b 3D090000 		.4byte	0x93d
 11604 384f 00       		.byte	0
 11605 3850 00       		.byte	0
 11606              		.section	.debug_abbrev,"",%progbits
 11607              	.Ldebug_abbrev0:
 11608 0000 01       		.uleb128 0x1
 11609 0001 11       		.uleb128 0x11
 11610 0002 01       		.byte	0x1
 11611 0003 25       		.uleb128 0x25
 11612 0004 0E       		.uleb128 0xe
 11613 0005 13       		.uleb128 0x13
 11614 0006 0B       		.uleb128 0xb
 11615 0007 03       		.uleb128 0x3
 11616 0008 0E       		.uleb128 0xe
 11617 0009 1B       		.uleb128 0x1b
 11618 000a 0E       		.uleb128 0xe
 11619 000b 55       		.uleb128 0x55
 11620 000c 17       		.uleb128 0x17
 11621 000d 11       		.uleb128 0x11
 11622 000e 01       		.uleb128 0x1
 11623 000f 10       		.uleb128 0x10
 11624 0010 17       		.uleb128 0x17
 11625 0011 00       		.byte	0
 11626 0012 00       		.byte	0
 11627 0013 02       		.uleb128 0x2
 11628 0014 24       		.uleb128 0x24
 11629 0015 00       		.byte	0
 11630 0016 0B       		.uleb128 0xb
 11631 0017 0B       		.uleb128 0xb
 11632 0018 3E       		.uleb128 0x3e
 11633 0019 0B       		.uleb128 0xb
 11634 001a 03       		.uleb128 0x3
 11635 001b 08       		.uleb128 0x8
 11636 001c 00       		.byte	0
 11637 001d 00       		.byte	0
 11638 001e 03       		.uleb128 0x3
ARM GAS  C:\Users\jo\AppData\Local\Temp\ccCSMiNu.s 			page 208


 11639 001f 16       		.uleb128 0x16
 11640 0020 00       		.byte	0
 11641 0021 03       		.uleb128 0x3
 11642 0022 0E       		.uleb128 0xe
 11643 0023 3A       		.uleb128 0x3a
 11644 0024 0B       		.uleb128 0xb
 11645 0025 3B       		.uleb128 0x3b
 11646 0026 0B       		.uleb128 0xb
 11647 0027 49       		.uleb128 0x49
 11648 0028 13       		.uleb128 0x13
 11649 0029 00       		.byte	0
 11650 002a 00       		.byte	0
 11651 002b 04       		.uleb128 0x4
 11652 002c 24       		.uleb128 0x24
 11653 002d 00       		.byte	0
 11654 002e 0B       		.uleb128 0xb
 11655 002f 0B       		.uleb128 0xb
 11656 0030 3E       		.uleb128 0x3e
 11657 0031 0B       		.uleb128 0xb
 11658 0032 03       		.uleb128 0x3
 11659 0033 0E       		.uleb128 0xe
 11660 0034 00       		.byte	0
 11661 0035 00       		.byte	0
 11662 0036 05       		.uleb128 0x5
 11663 0037 35       		.uleb128 0x35
 11664 0038 00       		.byte	0
 11665 0039 49       		.uleb128 0x49
 11666 003a 13       		.uleb128 0x13
 11667 003b 00       		.byte	0
 11668 003c 00       		.byte	0
 11669 003d 06       		.uleb128 0x6
 11670 003e 13       		.uleb128 0x13
 11671 003f 01       		.byte	0x1
 11672 0040 03       		.uleb128 0x3
 11673 0041 0E       		.uleb128 0xe
 11674 0042 0B       		.uleb128 0xb
 11675 0043 0B       		.uleb128 0xb
 11676 0044 3A       		.uleb128 0x3a
 11677 0045 0B       		.uleb128 0xb
 11678 0046 3B       		.uleb128 0x3b
 11679 0047 0B       		.uleb128 0xb
 11680 0048 01       		.uleb128 0x1
 11681 0049 13       		.uleb128 0x13
 11682 004a 00       		.byte	0
 11683 004b 00       		.byte	0
 11684 004c 07       		.uleb128 0x7
 11685 004d 0D       		.uleb128 0xd
 11686 004e 00       		.byte	0
 11687 004f 03       		.uleb128 0x3
 11688 0050 0E       		.uleb128 0xe
 11689 0051 3A       		.uleb128 0x3a
 11690 0052 0B       		.uleb128 0xb
 11691 0053 3B       		.uleb128 0x3b
 11692 0054 0B       		.uleb128 0xb
 11693 0055 49       		.uleb128 0x49
 11694 0056 13       		.uleb128 0x13
 11695 0057 38       		.uleb128 0x38
ARM GAS  C:\Users\jo\AppData\Local\Temp\ccCSMiNu.s 			page 209


 11696 0058 0B       		.uleb128 0xb
 11697 0059 00       		.byte	0
 11698 005a 00       		.byte	0
 11699 005b 08       		.uleb128 0x8
 11700 005c 0D       		.uleb128 0xd
 11701 005d 00       		.byte	0
 11702 005e 03       		.uleb128 0x3
 11703 005f 08       		.uleb128 0x8
 11704 0060 3A       		.uleb128 0x3a
 11705 0061 0B       		.uleb128 0xb
 11706 0062 3B       		.uleb128 0x3b
 11707 0063 05       		.uleb128 0x5
 11708 0064 49       		.uleb128 0x49
 11709 0065 13       		.uleb128 0x13
 11710 0066 38       		.uleb128 0x38
 11711 0067 0B       		.uleb128 0xb
 11712 0068 00       		.byte	0
 11713 0069 00       		.byte	0
 11714 006a 09       		.uleb128 0x9
 11715 006b 0D       		.uleb128 0xd
 11716 006c 00       		.byte	0
 11717 006d 03       		.uleb128 0x3
 11718 006e 0E       		.uleb128 0xe
 11719 006f 3A       		.uleb128 0x3a
 11720 0070 0B       		.uleb128 0xb
 11721 0071 3B       		.uleb128 0x3b
 11722 0072 05       		.uleb128 0x5
 11723 0073 49       		.uleb128 0x49
 11724 0074 13       		.uleb128 0x13
 11725 0075 38       		.uleb128 0x38
 11726 0076 0B       		.uleb128 0xb
 11727 0077 00       		.byte	0
 11728 0078 00       		.byte	0
 11729 0079 0A       		.uleb128 0xa
 11730 007a 0F       		.uleb128 0xf
 11731 007b 00       		.byte	0
 11732 007c 0B       		.uleb128 0xb
 11733 007d 0B       		.uleb128 0xb
 11734 007e 49       		.uleb128 0x49
 11735 007f 13       		.uleb128 0x13
 11736 0080 00       		.byte	0
 11737 0081 00       		.byte	0
 11738 0082 0B       		.uleb128 0xb
 11739 0083 13       		.uleb128 0x13
 11740 0084 01       		.byte	0x1
 11741 0085 03       		.uleb128 0x3
 11742 0086 0E       		.uleb128 0xe
 11743 0087 0B       		.uleb128 0xb
 11744 0088 0B       		.uleb128 0xb
 11745 0089 3A       		.uleb128 0x3a
 11746 008a 0B       		.uleb128 0xb
 11747 008b 3B       		.uleb128 0x3b
 11748 008c 05       		.uleb128 0x5
 11749 008d 01       		.uleb128 0x1
 11750 008e 13       		.uleb128 0x13
 11751 008f 00       		.byte	0
 11752 0090 00       		.byte	0
ARM GAS  C:\Users\jo\AppData\Local\Temp\ccCSMiNu.s 			page 210


 11753 0091 0C       		.uleb128 0xc
 11754 0092 15       		.uleb128 0x15
 11755 0093 01       		.byte	0x1
 11756 0094 27       		.uleb128 0x27
 11757 0095 19       		.uleb128 0x19
 11758 0096 01       		.uleb128 0x1
 11759 0097 13       		.uleb128 0x13
 11760 0098 00       		.byte	0
 11761 0099 00       		.byte	0
 11762 009a 0D       		.uleb128 0xd
 11763 009b 05       		.uleb128 0x5
 11764 009c 00       		.byte	0
 11765 009d 49       		.uleb128 0x49
 11766 009e 13       		.uleb128 0x13
 11767 009f 00       		.byte	0
 11768 00a0 00       		.byte	0
 11769 00a1 0E       		.uleb128 0xe
 11770 00a2 0F       		.uleb128 0xf
 11771 00a3 00       		.byte	0
 11772 00a4 0B       		.uleb128 0xb
 11773 00a5 0B       		.uleb128 0xb
 11774 00a6 00       		.byte	0
 11775 00a7 00       		.byte	0
 11776 00a8 0F       		.uleb128 0xf
 11777 00a9 13       		.uleb128 0x13
 11778 00aa 01       		.byte	0x1
 11779 00ab 03       		.uleb128 0x3
 11780 00ac 0E       		.uleb128 0xe
 11781 00ad 0B       		.uleb128 0xb
 11782 00ae 05       		.uleb128 0x5
 11783 00af 3A       		.uleb128 0x3a
 11784 00b0 0B       		.uleb128 0xb
 11785 00b1 3B       		.uleb128 0x3b
 11786 00b2 05       		.uleb128 0x5
 11787 00b3 01       		.uleb128 0x1
 11788 00b4 13       		.uleb128 0x13
 11789 00b5 00       		.byte	0
 11790 00b6 00       		.byte	0
 11791 00b7 10       		.uleb128 0x10
 11792 00b8 0D       		.uleb128 0xd
 11793 00b9 00       		.byte	0
 11794 00ba 03       		.uleb128 0x3
 11795 00bb 0E       		.uleb128 0xe
 11796 00bc 3A       		.uleb128 0x3a
 11797 00bd 0B       		.uleb128 0xb
 11798 00be 3B       		.uleb128 0x3b
 11799 00bf 05       		.uleb128 0x5
 11800 00c0 49       		.uleb128 0x49
 11801 00c1 13       		.uleb128 0x13
 11802 00c2 38       		.uleb128 0x38
 11803 00c3 05       		.uleb128 0x5
 11804 00c4 00       		.byte	0
 11805 00c5 00       		.byte	0
 11806 00c6 11       		.uleb128 0x11
 11807 00c7 0D       		.uleb128 0xd
 11808 00c8 00       		.byte	0
 11809 00c9 03       		.uleb128 0x3
ARM GAS  C:\Users\jo\AppData\Local\Temp\ccCSMiNu.s 			page 211


 11810 00ca 08       		.uleb128 0x8
 11811 00cb 3A       		.uleb128 0x3a
 11812 00cc 0B       		.uleb128 0xb
 11813 00cd 3B       		.uleb128 0x3b
 11814 00ce 05       		.uleb128 0x5
 11815 00cf 49       		.uleb128 0x49
 11816 00d0 13       		.uleb128 0x13
 11817 00d1 38       		.uleb128 0x38
 11818 00d2 05       		.uleb128 0x5
 11819 00d3 00       		.byte	0
 11820 00d4 00       		.byte	0
 11821 00d5 12       		.uleb128 0x12
 11822 00d6 0D       		.uleb128 0xd
 11823 00d7 00       		.byte	0
 11824 00d8 03       		.uleb128 0x3
 11825 00d9 08       		.uleb128 0x8
 11826 00da 3A       		.uleb128 0x3a
 11827 00db 0B       		.uleb128 0xb
 11828 00dc 3B       		.uleb128 0x3b
 11829 00dd 0B       		.uleb128 0xb
 11830 00de 49       		.uleb128 0x49
 11831 00df 13       		.uleb128 0x13
 11832 00e0 38       		.uleb128 0x38
 11833 00e1 0B       		.uleb128 0xb
 11834 00e2 00       		.byte	0
 11835 00e3 00       		.byte	0
 11836 00e4 13       		.uleb128 0x13
 11837 00e5 13       		.uleb128 0x13
 11838 00e6 01       		.byte	0x1
 11839 00e7 0B       		.uleb128 0xb
 11840 00e8 0B       		.uleb128 0xb
 11841 00e9 3A       		.uleb128 0x3a
 11842 00ea 0B       		.uleb128 0xb
 11843 00eb 3B       		.uleb128 0x3b
 11844 00ec 0B       		.uleb128 0xb
 11845 00ed 01       		.uleb128 0x1
 11846 00ee 13       		.uleb128 0x13
 11847 00ef 00       		.byte	0
 11848 00f0 00       		.byte	0
 11849 00f1 14       		.uleb128 0x14
 11850 00f2 13       		.uleb128 0x13
 11851 00f3 01       		.byte	0x1
 11852 00f4 0B       		.uleb128 0xb
 11853 00f5 05       		.uleb128 0x5
 11854 00f6 3A       		.uleb128 0x3a
 11855 00f7 0B       		.uleb128 0xb
 11856 00f8 3B       		.uleb128 0x3b
 11857 00f9 0B       		.uleb128 0xb
 11858 00fa 01       		.uleb128 0x1
 11859 00fb 13       		.uleb128 0x13
 11860 00fc 00       		.byte	0
 11861 00fd 00       		.byte	0
 11862 00fe 15       		.uleb128 0x15
 11863 00ff 01       		.uleb128 0x1
 11864 0100 01       		.byte	0x1
 11865 0101 49       		.uleb128 0x49
 11866 0102 13       		.uleb128 0x13
ARM GAS  C:\Users\jo\AppData\Local\Temp\ccCSMiNu.s 			page 212


 11867 0103 01       		.uleb128 0x1
 11868 0104 13       		.uleb128 0x13
 11869 0105 00       		.byte	0
 11870 0106 00       		.byte	0
 11871 0107 16       		.uleb128 0x16
 11872 0108 21       		.uleb128 0x21
 11873 0109 00       		.byte	0
 11874 010a 49       		.uleb128 0x49
 11875 010b 13       		.uleb128 0x13
 11876 010c 2F       		.uleb128 0x2f
 11877 010d 0B       		.uleb128 0xb
 11878 010e 00       		.byte	0
 11879 010f 00       		.byte	0
 11880 0110 17       		.uleb128 0x17
 11881 0111 17       		.uleb128 0x17
 11882 0112 01       		.byte	0x1
 11883 0113 0B       		.uleb128 0xb
 11884 0114 0B       		.uleb128 0xb
 11885 0115 3A       		.uleb128 0x3a
 11886 0116 0B       		.uleb128 0xb
 11887 0117 3B       		.uleb128 0x3b
 11888 0118 0B       		.uleb128 0xb
 11889 0119 01       		.uleb128 0x1
 11890 011a 13       		.uleb128 0x13
 11891 011b 00       		.byte	0
 11892 011c 00       		.byte	0
 11893 011d 18       		.uleb128 0x18
 11894 011e 0D       		.uleb128 0xd
 11895 011f 00       		.byte	0
 11896 0120 03       		.uleb128 0x3
 11897 0121 0E       		.uleb128 0xe
 11898 0122 3A       		.uleb128 0x3a
 11899 0123 0B       		.uleb128 0xb
 11900 0124 3B       		.uleb128 0x3b
 11901 0125 05       		.uleb128 0x5
 11902 0126 49       		.uleb128 0x49
 11903 0127 13       		.uleb128 0x13
 11904 0128 00       		.byte	0
 11905 0129 00       		.byte	0
 11906 012a 19       		.uleb128 0x19
 11907 012b 26       		.uleb128 0x26
 11908 012c 00       		.byte	0
 11909 012d 49       		.uleb128 0x49
 11910 012e 13       		.uleb128 0x13
 11911 012f 00       		.byte	0
 11912 0130 00       		.byte	0
 11913 0131 1A       		.uleb128 0x1a
 11914 0132 15       		.uleb128 0x15
 11915 0133 01       		.byte	0x1
 11916 0134 27       		.uleb128 0x27
 11917 0135 19       		.uleb128 0x19
 11918 0136 49       		.uleb128 0x49
 11919 0137 13       		.uleb128 0x13
 11920 0138 01       		.uleb128 0x1
 11921 0139 13       		.uleb128 0x13
 11922 013a 00       		.byte	0
 11923 013b 00       		.byte	0
ARM GAS  C:\Users\jo\AppData\Local\Temp\ccCSMiNu.s 			page 213


 11924 013c 1B       		.uleb128 0x1b
 11925 013d 0D       		.uleb128 0xd
 11926 013e 00       		.byte	0
 11927 013f 03       		.uleb128 0x3
 11928 0140 0E       		.uleb128 0xe
 11929 0141 49       		.uleb128 0x49
 11930 0142 13       		.uleb128 0x13
 11931 0143 38       		.uleb128 0x38
 11932 0144 0B       		.uleb128 0xb
 11933 0145 34       		.uleb128 0x34
 11934 0146 19       		.uleb128 0x19
 11935 0147 00       		.byte	0
 11936 0148 00       		.byte	0
 11937 0149 1C       		.uleb128 0x1c
 11938 014a 04       		.uleb128 0x4
 11939 014b 01       		.byte	0x1
 11940 014c 03       		.uleb128 0x3
 11941 014d 0E       		.uleb128 0xe
 11942 014e 0B       		.uleb128 0xb
 11943 014f 0B       		.uleb128 0xb
 11944 0150 3A       		.uleb128 0x3a
 11945 0151 0B       		.uleb128 0xb
 11946 0152 3B       		.uleb128 0x3b
 11947 0153 0B       		.uleb128 0xb
 11948 0154 01       		.uleb128 0x1
 11949 0155 13       		.uleb128 0x13
 11950 0156 00       		.byte	0
 11951 0157 00       		.byte	0
 11952 0158 1D       		.uleb128 0x1d
 11953 0159 28       		.uleb128 0x28
 11954 015a 00       		.byte	0
 11955 015b 03       		.uleb128 0x3
 11956 015c 0E       		.uleb128 0xe
 11957 015d 1C       		.uleb128 0x1c
 11958 015e 0D       		.uleb128 0xd
 11959 015f 00       		.byte	0
 11960 0160 00       		.byte	0
 11961 0161 1E       		.uleb128 0x1e
 11962 0162 0D       		.uleb128 0xd
 11963 0163 00       		.byte	0
 11964 0164 03       		.uleb128 0x3
 11965 0165 08       		.uleb128 0x8
 11966 0166 3A       		.uleb128 0x3a
 11967 0167 0B       		.uleb128 0xb
 11968 0168 3B       		.uleb128 0x3b
 11969 0169 0B       		.uleb128 0xb
 11970 016a 49       		.uleb128 0x49
 11971 016b 13       		.uleb128 0x13
 11972 016c 00       		.byte	0
 11973 016d 00       		.byte	0
 11974 016e 1F       		.uleb128 0x1f
 11975 016f 13       		.uleb128 0x13
 11976 0170 00       		.byte	0
 11977 0171 03       		.uleb128 0x3
 11978 0172 0E       		.uleb128 0xe
 11979 0173 3C       		.uleb128 0x3c
 11980 0174 19       		.uleb128 0x19
ARM GAS  C:\Users\jo\AppData\Local\Temp\ccCSMiNu.s 			page 214


 11981 0175 00       		.byte	0
 11982 0176 00       		.byte	0
 11983 0177 20       		.uleb128 0x20
 11984 0178 26       		.uleb128 0x26
 11985 0179 00       		.byte	0
 11986 017a 00       		.byte	0
 11987 017b 00       		.byte	0
 11988 017c 21       		.uleb128 0x21
 11989 017d 04       		.uleb128 0x4
 11990 017e 01       		.byte	0x1
 11991 017f 0B       		.uleb128 0xb
 11992 0180 0B       		.uleb128 0xb
 11993 0181 3A       		.uleb128 0x3a
 11994 0182 0B       		.uleb128 0xb
 11995 0183 3B       		.uleb128 0x3b
 11996 0184 0B       		.uleb128 0xb
 11997 0185 01       		.uleb128 0x1
 11998 0186 13       		.uleb128 0x13
 11999 0187 00       		.byte	0
 12000 0188 00       		.byte	0
 12001 0189 22       		.uleb128 0x22
 12002 018a 2E       		.uleb128 0x2e
 12003 018b 01       		.byte	0x1
 12004 018c 03       		.uleb128 0x3
 12005 018d 0E       		.uleb128 0xe
 12006 018e 3A       		.uleb128 0x3a
 12007 018f 0B       		.uleb128 0xb
 12008 0190 3B       		.uleb128 0x3b
 12009 0191 05       		.uleb128 0x5
 12010 0192 27       		.uleb128 0x27
 12011 0193 19       		.uleb128 0x19
 12012 0194 20       		.uleb128 0x20
 12013 0195 0B       		.uleb128 0xb
 12014 0196 01       		.uleb128 0x1
 12015 0197 13       		.uleb128 0x13
 12016 0198 00       		.byte	0
 12017 0199 00       		.byte	0
 12018 019a 23       		.uleb128 0x23
 12019 019b 05       		.uleb128 0x5
 12020 019c 00       		.byte	0
 12021 019d 03       		.uleb128 0x3
 12022 019e 0E       		.uleb128 0xe
 12023 019f 3A       		.uleb128 0x3a
 12024 01a0 0B       		.uleb128 0xb
 12025 01a1 3B       		.uleb128 0x3b
 12026 01a2 05       		.uleb128 0x5
 12027 01a3 49       		.uleb128 0x49
 12028 01a4 13       		.uleb128 0x13
 12029 01a5 00       		.byte	0
 12030 01a6 00       		.byte	0
 12031 01a7 24       		.uleb128 0x24
 12032 01a8 05       		.uleb128 0x5
 12033 01a9 00       		.byte	0
 12034 01aa 03       		.uleb128 0x3
 12035 01ab 08       		.uleb128 0x8
 12036 01ac 3A       		.uleb128 0x3a
 12037 01ad 0B       		.uleb128 0xb
ARM GAS  C:\Users\jo\AppData\Local\Temp\ccCSMiNu.s 			page 215


 12038 01ae 3B       		.uleb128 0x3b
 12039 01af 05       		.uleb128 0x5
 12040 01b0 49       		.uleb128 0x49
 12041 01b1 13       		.uleb128 0x13
 12042 01b2 00       		.byte	0
 12043 01b3 00       		.byte	0
 12044 01b4 25       		.uleb128 0x25
 12045 01b5 2E       		.uleb128 0x2e
 12046 01b6 01       		.byte	0x1
 12047 01b7 03       		.uleb128 0x3
 12048 01b8 0E       		.uleb128 0xe
 12049 01b9 3A       		.uleb128 0x3a
 12050 01ba 0B       		.uleb128 0xb
 12051 01bb 3B       		.uleb128 0x3b
 12052 01bc 05       		.uleb128 0x5
 12053 01bd 27       		.uleb128 0x27
 12054 01be 19       		.uleb128 0x19
 12055 01bf 49       		.uleb128 0x49
 12056 01c0 13       		.uleb128 0x13
 12057 01c1 20       		.uleb128 0x20
 12058 01c2 0B       		.uleb128 0xb
 12059 01c3 01       		.uleb128 0x1
 12060 01c4 13       		.uleb128 0x13
 12061 01c5 00       		.byte	0
 12062 01c6 00       		.byte	0
 12063 01c7 26       		.uleb128 0x26
 12064 01c8 34       		.uleb128 0x34
 12065 01c9 00       		.byte	0
 12066 01ca 03       		.uleb128 0x3
 12067 01cb 0E       		.uleb128 0xe
 12068 01cc 3A       		.uleb128 0x3a
 12069 01cd 0B       		.uleb128 0xb
 12070 01ce 3B       		.uleb128 0x3b
 12071 01cf 05       		.uleb128 0x5
 12072 01d0 49       		.uleb128 0x49
 12073 01d1 13       		.uleb128 0x13
 12074 01d2 00       		.byte	0
 12075 01d3 00       		.byte	0
 12076 01d4 27       		.uleb128 0x27
 12077 01d5 2E       		.uleb128 0x2e
 12078 01d6 01       		.byte	0x1
 12079 01d7 03       		.uleb128 0x3
 12080 01d8 0E       		.uleb128 0xe
 12081 01d9 3A       		.uleb128 0x3a
 12082 01da 0B       		.uleb128 0xb
 12083 01db 3B       		.uleb128 0x3b
 12084 01dc 0B       		.uleb128 0xb
 12085 01dd 27       		.uleb128 0x27
 12086 01de 19       		.uleb128 0x19
 12087 01df 49       		.uleb128 0x49
 12088 01e0 13       		.uleb128 0x13
 12089 01e1 20       		.uleb128 0x20
 12090 01e2 0B       		.uleb128 0xb
 12091 01e3 01       		.uleb128 0x1
 12092 01e4 13       		.uleb128 0x13
 12093 01e5 00       		.byte	0
 12094 01e6 00       		.byte	0
ARM GAS  C:\Users\jo\AppData\Local\Temp\ccCSMiNu.s 			page 216


 12095 01e7 28       		.uleb128 0x28
 12096 01e8 05       		.uleb128 0x5
 12097 01e9 00       		.byte	0
 12098 01ea 03       		.uleb128 0x3
 12099 01eb 08       		.uleb128 0x8
 12100 01ec 3A       		.uleb128 0x3a
 12101 01ed 0B       		.uleb128 0xb
 12102 01ee 3B       		.uleb128 0x3b
 12103 01ef 0B       		.uleb128 0xb
 12104 01f0 49       		.uleb128 0x49
 12105 01f1 13       		.uleb128 0x13
 12106 01f2 00       		.byte	0
 12107 01f3 00       		.byte	0
 12108 01f4 29       		.uleb128 0x29
 12109 01f5 18       		.uleb128 0x18
 12110 01f6 00       		.byte	0
 12111 01f7 00       		.byte	0
 12112 01f8 00       		.byte	0
 12113 01f9 2A       		.uleb128 0x2a
 12114 01fa 34       		.uleb128 0x34
 12115 01fb 00       		.byte	0
 12116 01fc 03       		.uleb128 0x3
 12117 01fd 08       		.uleb128 0x8
 12118 01fe 3A       		.uleb128 0x3a
 12119 01ff 0B       		.uleb128 0xb
 12120 0200 3B       		.uleb128 0x3b
 12121 0201 0B       		.uleb128 0xb
 12122 0202 49       		.uleb128 0x49
 12123 0203 13       		.uleb128 0x13
 12124 0204 00       		.byte	0
 12125 0205 00       		.byte	0
 12126 0206 2B       		.uleb128 0x2b
 12127 0207 34       		.uleb128 0x34
 12128 0208 00       		.byte	0
 12129 0209 03       		.uleb128 0x3
 12130 020a 0E       		.uleb128 0xe
 12131 020b 3A       		.uleb128 0x3a
 12132 020c 0B       		.uleb128 0xb
 12133 020d 3B       		.uleb128 0x3b
 12134 020e 0B       		.uleb128 0xb
 12135 020f 49       		.uleb128 0x49
 12136 0210 13       		.uleb128 0x13
 12137 0211 00       		.byte	0
 12138 0212 00       		.byte	0
 12139 0213 2C       		.uleb128 0x2c
 12140 0214 2E       		.uleb128 0x2e
 12141 0215 01       		.byte	0x1
 12142 0216 03       		.uleb128 0x3
 12143 0217 0E       		.uleb128 0xe
 12144 0218 3A       		.uleb128 0x3a
 12145 0219 0B       		.uleb128 0xb
 12146 021a 3B       		.uleb128 0x3b
 12147 021b 05       		.uleb128 0x5
 12148 021c 27       		.uleb128 0x27
 12149 021d 19       		.uleb128 0x19
 12150 021e 11       		.uleb128 0x11
 12151 021f 01       		.uleb128 0x1
ARM GAS  C:\Users\jo\AppData\Local\Temp\ccCSMiNu.s 			page 217


 12152 0220 12       		.uleb128 0x12
 12153 0221 06       		.uleb128 0x6
 12154 0222 40       		.uleb128 0x40
 12155 0223 18       		.uleb128 0x18
 12156 0224 9742     		.uleb128 0x2117
 12157 0226 19       		.uleb128 0x19
 12158 0227 01       		.uleb128 0x1
 12159 0228 13       		.uleb128 0x13
 12160 0229 00       		.byte	0
 12161 022a 00       		.byte	0
 12162 022b 2D       		.uleb128 0x2d
 12163 022c 05       		.uleb128 0x5
 12164 022d 00       		.byte	0
 12165 022e 03       		.uleb128 0x3
 12166 022f 0E       		.uleb128 0xe
 12167 0230 3A       		.uleb128 0x3a
 12168 0231 0B       		.uleb128 0xb
 12169 0232 3B       		.uleb128 0x3b
 12170 0233 05       		.uleb128 0x5
 12171 0234 49       		.uleb128 0x49
 12172 0235 13       		.uleb128 0x13
 12173 0236 02       		.uleb128 0x2
 12174 0237 17       		.uleb128 0x17
 12175 0238 00       		.byte	0
 12176 0239 00       		.byte	0
 12177 023a 2E       		.uleb128 0x2e
 12178 023b 34       		.uleb128 0x34
 12179 023c 00       		.byte	0
 12180 023d 03       		.uleb128 0x3
 12181 023e 08       		.uleb128 0x8
 12182 023f 3A       		.uleb128 0x3a
 12183 0240 0B       		.uleb128 0xb
 12184 0241 3B       		.uleb128 0x3b
 12185 0242 05       		.uleb128 0x5
 12186 0243 49       		.uleb128 0x49
 12187 0244 13       		.uleb128 0x13
 12188 0245 02       		.uleb128 0x2
 12189 0246 17       		.uleb128 0x17
 12190 0247 00       		.byte	0
 12191 0248 00       		.byte	0
 12192 0249 2F       		.uleb128 0x2f
 12193 024a 898201   		.uleb128 0x4109
 12194 024d 01       		.byte	0x1
 12195 024e 11       		.uleb128 0x11
 12196 024f 01       		.uleb128 0x1
 12197 0250 31       		.uleb128 0x31
 12198 0251 13       		.uleb128 0x13
 12199 0252 01       		.uleb128 0x1
 12200 0253 13       		.uleb128 0x13
 12201 0254 00       		.byte	0
 12202 0255 00       		.byte	0
 12203 0256 30       		.uleb128 0x30
 12204 0257 8A8201   		.uleb128 0x410a
 12205 025a 00       		.byte	0
 12206 025b 02       		.uleb128 0x2
 12207 025c 18       		.uleb128 0x18
 12208 025d 9142     		.uleb128 0x2111
ARM GAS  C:\Users\jo\AppData\Local\Temp\ccCSMiNu.s 			page 218


 12209 025f 18       		.uleb128 0x18
 12210 0260 00       		.byte	0
 12211 0261 00       		.byte	0
 12212 0262 31       		.uleb128 0x31
 12213 0263 898201   		.uleb128 0x4109
 12214 0266 01       		.byte	0x1
 12215 0267 11       		.uleb128 0x11
 12216 0268 01       		.uleb128 0x1
 12217 0269 9542     		.uleb128 0x2115
 12218 026b 19       		.uleb128 0x19
 12219 026c 31       		.uleb128 0x31
 12220 026d 13       		.uleb128 0x13
 12221 026e 00       		.byte	0
 12222 026f 00       		.byte	0
 12223 0270 32       		.uleb128 0x32
 12224 0271 2E       		.uleb128 0x2e
 12225 0272 01       		.byte	0x1
 12226 0273 31       		.uleb128 0x31
 12227 0274 13       		.uleb128 0x13
 12228 0275 11       		.uleb128 0x11
 12229 0276 01       		.uleb128 0x1
 12230 0277 12       		.uleb128 0x12
 12231 0278 06       		.uleb128 0x6
 12232 0279 40       		.uleb128 0x40
 12233 027a 18       		.uleb128 0x18
 12234 027b 9742     		.uleb128 0x2117
 12235 027d 19       		.uleb128 0x19
 12236 027e 01       		.uleb128 0x1
 12237 027f 13       		.uleb128 0x13
 12238 0280 00       		.byte	0
 12239 0281 00       		.byte	0
 12240 0282 33       		.uleb128 0x33
 12241 0283 05       		.uleb128 0x5
 12242 0284 00       		.byte	0
 12243 0285 31       		.uleb128 0x31
 12244 0286 13       		.uleb128 0x13
 12245 0287 02       		.uleb128 0x2
 12246 0288 17       		.uleb128 0x17
 12247 0289 00       		.byte	0
 12248 028a 00       		.byte	0
 12249 028b 34       		.uleb128 0x34
 12250 028c 05       		.uleb128 0x5
 12251 028d 00       		.byte	0
 12252 028e 31       		.uleb128 0x31
 12253 028f 13       		.uleb128 0x13
 12254 0290 02       		.uleb128 0x2
 12255 0291 18       		.uleb128 0x18
 12256 0292 00       		.byte	0
 12257 0293 00       		.byte	0
 12258 0294 35       		.uleb128 0x35
 12259 0295 34       		.uleb128 0x34
 12260 0296 00       		.byte	0
 12261 0297 31       		.uleb128 0x31
 12262 0298 13       		.uleb128 0x13
 12263 0299 02       		.uleb128 0x2
 12264 029a 18       		.uleb128 0x18
 12265 029b 00       		.byte	0
ARM GAS  C:\Users\jo\AppData\Local\Temp\ccCSMiNu.s 			page 219


 12266 029c 00       		.byte	0
 12267 029d 36       		.uleb128 0x36
 12268 029e 05       		.uleb128 0x5
 12269 029f 00       		.byte	0
 12270 02a0 31       		.uleb128 0x31
 12271 02a1 13       		.uleb128 0x13
 12272 02a2 00       		.byte	0
 12273 02a3 00       		.byte	0
 12274 02a4 37       		.uleb128 0x37
 12275 02a5 898201   		.uleb128 0x4109
 12276 02a8 01       		.byte	0x1
 12277 02a9 11       		.uleb128 0x11
 12278 02aa 01       		.uleb128 0x1
 12279 02ab 31       		.uleb128 0x31
 12280 02ac 13       		.uleb128 0x13
 12281 02ad 00       		.byte	0
 12282 02ae 00       		.byte	0
 12283 02af 38       		.uleb128 0x38
 12284 02b0 2E       		.uleb128 0x2e
 12285 02b1 01       		.byte	0x1
 12286 02b2 03       		.uleb128 0x3
 12287 02b3 0E       		.uleb128 0xe
 12288 02b4 3A       		.uleb128 0x3a
 12289 02b5 0B       		.uleb128 0xb
 12290 02b6 3B       		.uleb128 0x3b
 12291 02b7 0B       		.uleb128 0xb
 12292 02b8 27       		.uleb128 0x27
 12293 02b9 19       		.uleb128 0x19
 12294 02ba 49       		.uleb128 0x49
 12295 02bb 13       		.uleb128 0x13
 12296 02bc 11       		.uleb128 0x11
 12297 02bd 01       		.uleb128 0x1
 12298 02be 12       		.uleb128 0x12
 12299 02bf 06       		.uleb128 0x6
 12300 02c0 40       		.uleb128 0x40
 12301 02c1 18       		.uleb128 0x18
 12302 02c2 9742     		.uleb128 0x2117
 12303 02c4 19       		.uleb128 0x19
 12304 02c5 01       		.uleb128 0x1
 12305 02c6 13       		.uleb128 0x13
 12306 02c7 00       		.byte	0
 12307 02c8 00       		.byte	0
 12308 02c9 39       		.uleb128 0x39
 12309 02ca 05       		.uleb128 0x5
 12310 02cb 00       		.byte	0
 12311 02cc 03       		.uleb128 0x3
 12312 02cd 08       		.uleb128 0x8
 12313 02ce 3A       		.uleb128 0x3a
 12314 02cf 0B       		.uleb128 0xb
 12315 02d0 3B       		.uleb128 0x3b
 12316 02d1 0B       		.uleb128 0xb
 12317 02d2 49       		.uleb128 0x49
 12318 02d3 13       		.uleb128 0x13
 12319 02d4 02       		.uleb128 0x2
 12320 02d5 17       		.uleb128 0x17
 12321 02d6 00       		.byte	0
 12322 02d7 00       		.byte	0
ARM GAS  C:\Users\jo\AppData\Local\Temp\ccCSMiNu.s 			page 220


 12323 02d8 3A       		.uleb128 0x3a
 12324 02d9 34       		.uleb128 0x34
 12325 02da 00       		.byte	0
 12326 02db 03       		.uleb128 0x3
 12327 02dc 0E       		.uleb128 0xe
 12328 02dd 3A       		.uleb128 0x3a
 12329 02de 0B       		.uleb128 0xb
 12330 02df 3B       		.uleb128 0x3b
 12331 02e0 0B       		.uleb128 0xb
 12332 02e1 49       		.uleb128 0x49
 12333 02e2 13       		.uleb128 0x13
 12334 02e3 02       		.uleb128 0x2
 12335 02e4 17       		.uleb128 0x17
 12336 02e5 00       		.byte	0
 12337 02e6 00       		.byte	0
 12338 02e7 3B       		.uleb128 0x3b
 12339 02e8 34       		.uleb128 0x34
 12340 02e9 00       		.byte	0
 12341 02ea 03       		.uleb128 0x3
 12342 02eb 08       		.uleb128 0x8
 12343 02ec 3A       		.uleb128 0x3a
 12344 02ed 0B       		.uleb128 0xb
 12345 02ee 3B       		.uleb128 0x3b
 12346 02ef 0B       		.uleb128 0xb
 12347 02f0 49       		.uleb128 0x49
 12348 02f1 13       		.uleb128 0x13
 12349 02f2 02       		.uleb128 0x2
 12350 02f3 17       		.uleb128 0x17
 12351 02f4 00       		.byte	0
 12352 02f5 00       		.byte	0
 12353 02f6 3C       		.uleb128 0x3c
 12354 02f7 1D       		.uleb128 0x1d
 12355 02f8 01       		.byte	0x1
 12356 02f9 31       		.uleb128 0x31
 12357 02fa 13       		.uleb128 0x13
 12358 02fb 11       		.uleb128 0x11
 12359 02fc 01       		.uleb128 0x1
 12360 02fd 12       		.uleb128 0x12
 12361 02fe 06       		.uleb128 0x6
 12362 02ff 58       		.uleb128 0x58
 12363 0300 0B       		.uleb128 0xb
 12364 0301 59       		.uleb128 0x59
 12365 0302 0B       		.uleb128 0xb
 12366 0303 01       		.uleb128 0x1
 12367 0304 13       		.uleb128 0x13
 12368 0305 00       		.byte	0
 12369 0306 00       		.byte	0
 12370 0307 3D       		.uleb128 0x3d
 12371 0308 898201   		.uleb128 0x4109
 12372 030b 01       		.byte	0x1
 12373 030c 11       		.uleb128 0x11
 12374 030d 01       		.uleb128 0x1
 12375 030e 01       		.uleb128 0x1
 12376 030f 13       		.uleb128 0x13
 12377 0310 00       		.byte	0
 12378 0311 00       		.byte	0
 12379 0312 3E       		.uleb128 0x3e
ARM GAS  C:\Users\jo\AppData\Local\Temp\ccCSMiNu.s 			page 221


 12380 0313 34       		.uleb128 0x34
 12381 0314 00       		.byte	0
 12382 0315 03       		.uleb128 0x3
 12383 0316 0E       		.uleb128 0xe
 12384 0317 3A       		.uleb128 0x3a
 12385 0318 0B       		.uleb128 0xb
 12386 0319 3B       		.uleb128 0x3b
 12387 031a 05       		.uleb128 0x5
 12388 031b 49       		.uleb128 0x49
 12389 031c 13       		.uleb128 0x13
 12390 031d 02       		.uleb128 0x2
 12391 031e 17       		.uleb128 0x17
 12392 031f 00       		.byte	0
 12393 0320 00       		.byte	0
 12394 0321 3F       		.uleb128 0x3f
 12395 0322 1D       		.uleb128 0x1d
 12396 0323 01       		.byte	0x1
 12397 0324 31       		.uleb128 0x31
 12398 0325 13       		.uleb128 0x13
 12399 0326 11       		.uleb128 0x11
 12400 0327 01       		.uleb128 0x1
 12401 0328 12       		.uleb128 0x12
 12402 0329 06       		.uleb128 0x6
 12403 032a 58       		.uleb128 0x58
 12404 032b 0B       		.uleb128 0xb
 12405 032c 59       		.uleb128 0x59
 12406 032d 05       		.uleb128 0x5
 12407 032e 01       		.uleb128 0x1
 12408 032f 13       		.uleb128 0x13
 12409 0330 00       		.byte	0
 12410 0331 00       		.byte	0
 12411 0332 40       		.uleb128 0x40
 12412 0333 898201   		.uleb128 0x4109
 12413 0336 01       		.byte	0x1
 12414 0337 11       		.uleb128 0x11
 12415 0338 01       		.uleb128 0x1
 12416 0339 9542     		.uleb128 0x2115
 12417 033b 19       		.uleb128 0x19
 12418 033c 31       		.uleb128 0x31
 12419 033d 13       		.uleb128 0x13
 12420 033e 01       		.uleb128 0x1
 12421 033f 13       		.uleb128 0x13
 12422 0340 00       		.byte	0
 12423 0341 00       		.byte	0
 12424 0342 41       		.uleb128 0x41
 12425 0343 898201   		.uleb128 0x4109
 12426 0346 00       		.byte	0
 12427 0347 11       		.uleb128 0x11
 12428 0348 01       		.uleb128 0x1
 12429 0349 31       		.uleb128 0x31
 12430 034a 13       		.uleb128 0x13
 12431 034b 00       		.byte	0
 12432 034c 00       		.byte	0
 12433 034d 42       		.uleb128 0x42
 12434 034e 2E       		.uleb128 0x2e
 12435 034f 01       		.byte	0x1
 12436 0350 03       		.uleb128 0x3
ARM GAS  C:\Users\jo\AppData\Local\Temp\ccCSMiNu.s 			page 222


 12437 0351 0E       		.uleb128 0xe
 12438 0352 3A       		.uleb128 0x3a
 12439 0353 0B       		.uleb128 0xb
 12440 0354 3B       		.uleb128 0x3b
 12441 0355 05       		.uleb128 0x5
 12442 0356 27       		.uleb128 0x27
 12443 0357 19       		.uleb128 0x19
 12444 0358 49       		.uleb128 0x49
 12445 0359 13       		.uleb128 0x13
 12446 035a 11       		.uleb128 0x11
 12447 035b 01       		.uleb128 0x1
 12448 035c 12       		.uleb128 0x12
 12449 035d 06       		.uleb128 0x6
 12450 035e 40       		.uleb128 0x40
 12451 035f 18       		.uleb128 0x18
 12452 0360 9742     		.uleb128 0x2117
 12453 0362 19       		.uleb128 0x19
 12454 0363 01       		.uleb128 0x1
 12455 0364 13       		.uleb128 0x13
 12456 0365 00       		.byte	0
 12457 0366 00       		.byte	0
 12458 0367 43       		.uleb128 0x43
 12459 0368 34       		.uleb128 0x34
 12460 0369 00       		.byte	0
 12461 036a 03       		.uleb128 0x3
 12462 036b 0E       		.uleb128 0xe
 12463 036c 3A       		.uleb128 0x3a
 12464 036d 0B       		.uleb128 0xb
 12465 036e 3B       		.uleb128 0x3b
 12466 036f 05       		.uleb128 0x5
 12467 0370 49       		.uleb128 0x49
 12468 0371 13       		.uleb128 0x13
 12469 0372 02       		.uleb128 0x2
 12470 0373 18       		.uleb128 0x18
 12471 0374 00       		.byte	0
 12472 0375 00       		.byte	0
 12473 0376 44       		.uleb128 0x44
 12474 0377 0A       		.uleb128 0xa
 12475 0378 00       		.byte	0
 12476 0379 03       		.uleb128 0x3
 12477 037a 0E       		.uleb128 0xe
 12478 037b 3A       		.uleb128 0x3a
 12479 037c 0B       		.uleb128 0xb
 12480 037d 3B       		.uleb128 0x3b
 12481 037e 05       		.uleb128 0x5
 12482 037f 11       		.uleb128 0x11
 12483 0380 01       		.uleb128 0x1
 12484 0381 00       		.byte	0
 12485 0382 00       		.byte	0
 12486 0383 45       		.uleb128 0x45
 12487 0384 898201   		.uleb128 0x4109
 12488 0387 01       		.byte	0x1
 12489 0388 11       		.uleb128 0x11
 12490 0389 01       		.uleb128 0x1
 12491 038a 00       		.byte	0
 12492 038b 00       		.byte	0
 12493 038c 46       		.uleb128 0x46
ARM GAS  C:\Users\jo\AppData\Local\Temp\ccCSMiNu.s 			page 223


 12494 038d 05       		.uleb128 0x5
 12495 038e 00       		.byte	0
 12496 038f 03       		.uleb128 0x3
 12497 0390 08       		.uleb128 0x8
 12498 0391 3A       		.uleb128 0x3a
 12499 0392 0B       		.uleb128 0xb
 12500 0393 3B       		.uleb128 0x3b
 12501 0394 05       		.uleb128 0x5
 12502 0395 49       		.uleb128 0x49
 12503 0396 13       		.uleb128 0x13
 12504 0397 02       		.uleb128 0x2
 12505 0398 17       		.uleb128 0x17
 12506 0399 00       		.byte	0
 12507 039a 00       		.byte	0
 12508 039b 47       		.uleb128 0x47
 12509 039c 898201   		.uleb128 0x4109
 12510 039f 01       		.byte	0x1
 12511 03a0 11       		.uleb128 0x11
 12512 03a1 01       		.uleb128 0x1
 12513 03a2 9342     		.uleb128 0x2113
 12514 03a4 18       		.uleb128 0x18
 12515 03a5 01       		.uleb128 0x1
 12516 03a6 13       		.uleb128 0x13
 12517 03a7 00       		.byte	0
 12518 03a8 00       		.byte	0
 12519 03a9 48       		.uleb128 0x48
 12520 03aa 34       		.uleb128 0x34
 12521 03ab 00       		.byte	0
 12522 03ac 31       		.uleb128 0x31
 12523 03ad 13       		.uleb128 0x13
 12524 03ae 02       		.uleb128 0x2
 12525 03af 17       		.uleb128 0x17
 12526 03b0 00       		.byte	0
 12527 03b1 00       		.byte	0
 12528 03b2 49       		.uleb128 0x49
 12529 03b3 0B       		.uleb128 0xb
 12530 03b4 01       		.byte	0x1
 12531 03b5 11       		.uleb128 0x11
 12532 03b6 01       		.uleb128 0x1
 12533 03b7 12       		.uleb128 0x12
 12534 03b8 06       		.uleb128 0x6
 12535 03b9 01       		.uleb128 0x1
 12536 03ba 13       		.uleb128 0x13
 12537 03bb 00       		.byte	0
 12538 03bc 00       		.byte	0
 12539 03bd 4A       		.uleb128 0x4a
 12540 03be 0B       		.uleb128 0xb
 12541 03bf 01       		.byte	0x1
 12542 03c0 11       		.uleb128 0x11
 12543 03c1 01       		.uleb128 0x1
 12544 03c2 12       		.uleb128 0x12
 12545 03c3 06       		.uleb128 0x6
 12546 03c4 00       		.byte	0
 12547 03c5 00       		.byte	0
 12548 03c6 4B       		.uleb128 0x4b
 12549 03c7 34       		.uleb128 0x34
 12550 03c8 00       		.byte	0
ARM GAS  C:\Users\jo\AppData\Local\Temp\ccCSMiNu.s 			page 224


 12551 03c9 31       		.uleb128 0x31
 12552 03ca 13       		.uleb128 0x13
 12553 03cb 00       		.byte	0
 12554 03cc 00       		.byte	0
 12555 03cd 4C       		.uleb128 0x4c
 12556 03ce 898201   		.uleb128 0x4109
 12557 03d1 01       		.byte	0x1
 12558 03d2 11       		.uleb128 0x11
 12559 03d3 01       		.uleb128 0x1
 12560 03d4 9342     		.uleb128 0x2113
 12561 03d6 18       		.uleb128 0x18
 12562 03d7 00       		.byte	0
 12563 03d8 00       		.byte	0
 12564 03d9 4D       		.uleb128 0x4d
 12565 03da 1D       		.uleb128 0x1d
 12566 03db 01       		.byte	0x1
 12567 03dc 31       		.uleb128 0x31
 12568 03dd 13       		.uleb128 0x13
 12569 03de 52       		.uleb128 0x52
 12570 03df 01       		.uleb128 0x1
 12571 03e0 55       		.uleb128 0x55
 12572 03e1 17       		.uleb128 0x17
 12573 03e2 58       		.uleb128 0x58
 12574 03e3 0B       		.uleb128 0xb
 12575 03e4 59       		.uleb128 0x59
 12576 03e5 05       		.uleb128 0x5
 12577 03e6 01       		.uleb128 0x1
 12578 03e7 13       		.uleb128 0x13
 12579 03e8 00       		.byte	0
 12580 03e9 00       		.byte	0
 12581 03ea 4E       		.uleb128 0x4e
 12582 03eb 0B       		.uleb128 0xb
 12583 03ec 01       		.byte	0x1
 12584 03ed 55       		.uleb128 0x55
 12585 03ee 17       		.uleb128 0x17
 12586 03ef 01       		.uleb128 0x1
 12587 03f0 13       		.uleb128 0x13
 12588 03f1 00       		.byte	0
 12589 03f2 00       		.byte	0
 12590 03f3 4F       		.uleb128 0x4f
 12591 03f4 2E       		.uleb128 0x2e
 12592 03f5 01       		.byte	0x1
 12593 03f6 03       		.uleb128 0x3
 12594 03f7 0E       		.uleb128 0xe
 12595 03f8 3A       		.uleb128 0x3a
 12596 03f9 0B       		.uleb128 0xb
 12597 03fa 3B       		.uleb128 0x3b
 12598 03fb 0B       		.uleb128 0xb
 12599 03fc 27       		.uleb128 0x27
 12600 03fd 19       		.uleb128 0x19
 12601 03fe 11       		.uleb128 0x11
 12602 03ff 01       		.uleb128 0x1
 12603 0400 12       		.uleb128 0x12
 12604 0401 06       		.uleb128 0x6
 12605 0402 40       		.uleb128 0x40
 12606 0403 18       		.uleb128 0x18
 12607 0404 9742     		.uleb128 0x2117
ARM GAS  C:\Users\jo\AppData\Local\Temp\ccCSMiNu.s 			page 225


 12608 0406 19       		.uleb128 0x19
 12609 0407 01       		.uleb128 0x1
 12610 0408 13       		.uleb128 0x13
 12611 0409 00       		.byte	0
 12612 040a 00       		.byte	0
 12613 040b 50       		.uleb128 0x50
 12614 040c 05       		.uleb128 0x5
 12615 040d 00       		.byte	0
 12616 040e 03       		.uleb128 0x3
 12617 040f 0E       		.uleb128 0xe
 12618 0410 3A       		.uleb128 0x3a
 12619 0411 0B       		.uleb128 0xb
 12620 0412 3B       		.uleb128 0x3b
 12621 0413 0B       		.uleb128 0xb
 12622 0414 49       		.uleb128 0x49
 12623 0415 13       		.uleb128 0x13
 12624 0416 02       		.uleb128 0x2
 12625 0417 17       		.uleb128 0x17
 12626 0418 00       		.byte	0
 12627 0419 00       		.byte	0
 12628 041a 51       		.uleb128 0x51
 12629 041b 898201   		.uleb128 0x4109
 12630 041e 01       		.byte	0x1
 12631 041f 11       		.uleb128 0x11
 12632 0420 01       		.uleb128 0x1
 12633 0421 9542     		.uleb128 0x2115
 12634 0423 19       		.uleb128 0x19
 12635 0424 01       		.uleb128 0x1
 12636 0425 13       		.uleb128 0x13
 12637 0426 00       		.byte	0
 12638 0427 00       		.byte	0
 12639 0428 52       		.uleb128 0x52
 12640 0429 898201   		.uleb128 0x4109
 12641 042c 00       		.byte	0
 12642 042d 11       		.uleb128 0x11
 12643 042e 01       		.uleb128 0x1
 12644 042f 9542     		.uleb128 0x2115
 12645 0431 19       		.uleb128 0x19
 12646 0432 31       		.uleb128 0x31
 12647 0433 13       		.uleb128 0x13
 12648 0434 00       		.byte	0
 12649 0435 00       		.byte	0
 12650 0436 53       		.uleb128 0x53
 12651 0437 2E       		.uleb128 0x2e
 12652 0438 01       		.byte	0x1
 12653 0439 3F       		.uleb128 0x3f
 12654 043a 19       		.uleb128 0x19
 12655 043b 03       		.uleb128 0x3
 12656 043c 0E       		.uleb128 0xe
 12657 043d 3A       		.uleb128 0x3a
 12658 043e 0B       		.uleb128 0xb
 12659 043f 3B       		.uleb128 0x3b
 12660 0440 05       		.uleb128 0x5
 12661 0441 27       		.uleb128 0x27
 12662 0442 19       		.uleb128 0x19
 12663 0443 11       		.uleb128 0x11
 12664 0444 01       		.uleb128 0x1
ARM GAS  C:\Users\jo\AppData\Local\Temp\ccCSMiNu.s 			page 226


 12665 0445 12       		.uleb128 0x12
 12666 0446 06       		.uleb128 0x6
 12667 0447 40       		.uleb128 0x40
 12668 0448 18       		.uleb128 0x18
 12669 0449 9742     		.uleb128 0x2117
 12670 044b 19       		.uleb128 0x19
 12671 044c 01       		.uleb128 0x1
 12672 044d 13       		.uleb128 0x13
 12673 044e 00       		.byte	0
 12674 044f 00       		.byte	0
 12675 0450 54       		.uleb128 0x54
 12676 0451 2E       		.uleb128 0x2e
 12677 0452 01       		.byte	0x1
 12678 0453 3F       		.uleb128 0x3f
 12679 0454 19       		.uleb128 0x19
 12680 0455 03       		.uleb128 0x3
 12681 0456 0E       		.uleb128 0xe
 12682 0457 3A       		.uleb128 0x3a
 12683 0458 0B       		.uleb128 0xb
 12684 0459 3B       		.uleb128 0x3b
 12685 045a 05       		.uleb128 0x5
 12686 045b 27       		.uleb128 0x27
 12687 045c 19       		.uleb128 0x19
 12688 045d 49       		.uleb128 0x49
 12689 045e 13       		.uleb128 0x13
 12690 045f 11       		.uleb128 0x11
 12691 0460 01       		.uleb128 0x1
 12692 0461 12       		.uleb128 0x12
 12693 0462 06       		.uleb128 0x6
 12694 0463 40       		.uleb128 0x40
 12695 0464 18       		.uleb128 0x18
 12696 0465 9742     		.uleb128 0x2117
 12697 0467 19       		.uleb128 0x19
 12698 0468 01       		.uleb128 0x1
 12699 0469 13       		.uleb128 0x13
 12700 046a 00       		.byte	0
 12701 046b 00       		.byte	0
 12702 046c 55       		.uleb128 0x55
 12703 046d 34       		.uleb128 0x34
 12704 046e 00       		.byte	0
 12705 046f 03       		.uleb128 0x3
 12706 0470 08       		.uleb128 0x8
 12707 0471 3A       		.uleb128 0x3a
 12708 0472 0B       		.uleb128 0xb
 12709 0473 3B       		.uleb128 0x3b
 12710 0474 05       		.uleb128 0x5
 12711 0475 49       		.uleb128 0x49
 12712 0476 13       		.uleb128 0x13
 12713 0477 02       		.uleb128 0x2
 12714 0478 18       		.uleb128 0x18
 12715 0479 00       		.byte	0
 12716 047a 00       		.byte	0
 12717 047b 56       		.uleb128 0x56
 12718 047c 34       		.uleb128 0x34
 12719 047d 00       		.byte	0
 12720 047e 03       		.uleb128 0x3
 12721 047f 0E       		.uleb128 0xe
ARM GAS  C:\Users\jo\AppData\Local\Temp\ccCSMiNu.s 			page 227


 12722 0480 3A       		.uleb128 0x3a
 12723 0481 0B       		.uleb128 0xb
 12724 0482 3B       		.uleb128 0x3b
 12725 0483 05       		.uleb128 0x5
 12726 0484 49       		.uleb128 0x49
 12727 0485 13       		.uleb128 0x13
 12728 0486 3F       		.uleb128 0x3f
 12729 0487 19       		.uleb128 0x19
 12730 0488 3C       		.uleb128 0x3c
 12731 0489 19       		.uleb128 0x19
 12732 048a 00       		.byte	0
 12733 048b 00       		.byte	0
 12734 048c 57       		.uleb128 0x57
 12735 048d 34       		.uleb128 0x34
 12736 048e 00       		.byte	0
 12737 048f 03       		.uleb128 0x3
 12738 0490 08       		.uleb128 0x8
 12739 0491 3A       		.uleb128 0x3a
 12740 0492 0B       		.uleb128 0xb
 12741 0493 3B       		.uleb128 0x3b
 12742 0494 05       		.uleb128 0x5
 12743 0495 49       		.uleb128 0x49
 12744 0496 13       		.uleb128 0x13
 12745 0497 3F       		.uleb128 0x3f
 12746 0498 19       		.uleb128 0x19
 12747 0499 3C       		.uleb128 0x3c
 12748 049a 19       		.uleb128 0x19
 12749 049b 00       		.byte	0
 12750 049c 00       		.byte	0
 12751 049d 58       		.uleb128 0x58
 12752 049e 34       		.uleb128 0x34
 12753 049f 00       		.byte	0
 12754 04a0 03       		.uleb128 0x3
 12755 04a1 0E       		.uleb128 0xe
 12756 04a2 3A       		.uleb128 0x3a
 12757 04a3 0B       		.uleb128 0xb
 12758 04a4 3B       		.uleb128 0x3b
 12759 04a5 0B       		.uleb128 0xb
 12760 04a6 49       		.uleb128 0x49
 12761 04a7 13       		.uleb128 0x13
 12762 04a8 3F       		.uleb128 0x3f
 12763 04a9 19       		.uleb128 0x19
 12764 04aa 3C       		.uleb128 0x3c
 12765 04ab 19       		.uleb128 0x19
 12766 04ac 00       		.byte	0
 12767 04ad 00       		.byte	0
 12768 04ae 59       		.uleb128 0x59
 12769 04af 2E       		.uleb128 0x2e
 12770 04b0 01       		.byte	0x1
 12771 04b1 3F       		.uleb128 0x3f
 12772 04b2 19       		.uleb128 0x19
 12773 04b3 03       		.uleb128 0x3
 12774 04b4 0E       		.uleb128 0xe
 12775 04b5 3A       		.uleb128 0x3a
 12776 04b6 0B       		.uleb128 0xb
 12777 04b7 3B       		.uleb128 0x3b
 12778 04b8 05       		.uleb128 0x5
ARM GAS  C:\Users\jo\AppData\Local\Temp\ccCSMiNu.s 			page 228


 12779 04b9 27       		.uleb128 0x27
 12780 04ba 19       		.uleb128 0x19
 12781 04bb 3C       		.uleb128 0x3c
 12782 04bc 19       		.uleb128 0x19
 12783 04bd 01       		.uleb128 0x1
 12784 04be 13       		.uleb128 0x13
 12785 04bf 00       		.byte	0
 12786 04c0 00       		.byte	0
 12787 04c1 5A       		.uleb128 0x5a
 12788 04c2 2E       		.uleb128 0x2e
 12789 04c3 01       		.byte	0x1
 12790 04c4 3F       		.uleb128 0x3f
 12791 04c5 19       		.uleb128 0x19
 12792 04c6 03       		.uleb128 0x3
 12793 04c7 0E       		.uleb128 0xe
 12794 04c8 3A       		.uleb128 0x3a
 12795 04c9 0B       		.uleb128 0xb
 12796 04ca 3B       		.uleb128 0x3b
 12797 04cb 0B       		.uleb128 0xb
 12798 04cc 27       		.uleb128 0x27
 12799 04cd 19       		.uleb128 0x19
 12800 04ce 49       		.uleb128 0x49
 12801 04cf 13       		.uleb128 0x13
 12802 04d0 3C       		.uleb128 0x3c
 12803 04d1 19       		.uleb128 0x19
 12804 04d2 01       		.uleb128 0x1
 12805 04d3 13       		.uleb128 0x13
 12806 04d4 00       		.byte	0
 12807 04d5 00       		.byte	0
 12808 04d6 5B       		.uleb128 0x5b
 12809 04d7 2E       		.uleb128 0x2e
 12810 04d8 01       		.byte	0x1
 12811 04d9 3F       		.uleb128 0x3f
 12812 04da 19       		.uleb128 0x19
 12813 04db 03       		.uleb128 0x3
 12814 04dc 0E       		.uleb128 0xe
 12815 04dd 3A       		.uleb128 0x3a
 12816 04de 0B       		.uleb128 0xb
 12817 04df 3B       		.uleb128 0x3b
 12818 04e0 05       		.uleb128 0x5
 12819 04e1 27       		.uleb128 0x27
 12820 04e2 19       		.uleb128 0x19
 12821 04e3 49       		.uleb128 0x49
 12822 04e4 13       		.uleb128 0x13
 12823 04e5 3C       		.uleb128 0x3c
 12824 04e6 19       		.uleb128 0x19
 12825 04e7 01       		.uleb128 0x1
 12826 04e8 13       		.uleb128 0x13
 12827 04e9 00       		.byte	0
 12828 04ea 00       		.byte	0
 12829 04eb 5C       		.uleb128 0x5c
 12830 04ec 2E       		.uleb128 0x2e
 12831 04ed 01       		.byte	0x1
 12832 04ee 3F       		.uleb128 0x3f
 12833 04ef 19       		.uleb128 0x19
 12834 04f0 03       		.uleb128 0x3
 12835 04f1 0E       		.uleb128 0xe
ARM GAS  C:\Users\jo\AppData\Local\Temp\ccCSMiNu.s 			page 229


 12836 04f2 3A       		.uleb128 0x3a
 12837 04f3 0B       		.uleb128 0xb
 12838 04f4 3B       		.uleb128 0x3b
 12839 04f5 0B       		.uleb128 0xb
 12840 04f6 27       		.uleb128 0x27
 12841 04f7 19       		.uleb128 0x19
 12842 04f8 3C       		.uleb128 0x3c
 12843 04f9 19       		.uleb128 0x19
 12844 04fa 01       		.uleb128 0x1
 12845 04fb 13       		.uleb128 0x13
 12846 04fc 00       		.byte	0
 12847 04fd 00       		.byte	0
 12848 04fe 5D       		.uleb128 0x5d
 12849 04ff 2E       		.uleb128 0x2e
 12850 0500 00       		.byte	0
 12851 0501 3F       		.uleb128 0x3f
 12852 0502 19       		.uleb128 0x19
 12853 0503 03       		.uleb128 0x3
 12854 0504 0E       		.uleb128 0xe
 12855 0505 3A       		.uleb128 0x3a
 12856 0506 0B       		.uleb128 0xb
 12857 0507 3B       		.uleb128 0x3b
 12858 0508 0B       		.uleb128 0xb
 12859 0509 27       		.uleb128 0x27
 12860 050a 19       		.uleb128 0x19
 12861 050b 49       		.uleb128 0x49
 12862 050c 13       		.uleb128 0x13
 12863 050d 3C       		.uleb128 0x3c
 12864 050e 19       		.uleb128 0x19
 12865 050f 00       		.byte	0
 12866 0510 00       		.byte	0
 12867 0511 5E       		.uleb128 0x5e
 12868 0512 2E       		.uleb128 0x2e
 12869 0513 00       		.byte	0
 12870 0514 3F       		.uleb128 0x3f
 12871 0515 19       		.uleb128 0x19
 12872 0516 03       		.uleb128 0x3
 12873 0517 0E       		.uleb128 0xe
 12874 0518 3A       		.uleb128 0x3a
 12875 0519 0B       		.uleb128 0xb
 12876 051a 3B       		.uleb128 0x3b
 12877 051b 05       		.uleb128 0x5
 12878 051c 27       		.uleb128 0x27
 12879 051d 19       		.uleb128 0x19
 12880 051e 49       		.uleb128 0x49
 12881 051f 13       		.uleb128 0x13
 12882 0520 3C       		.uleb128 0x3c
 12883 0521 19       		.uleb128 0x19
 12884 0522 00       		.byte	0
 12885 0523 00       		.byte	0
 12886 0524 5F       		.uleb128 0x5f
 12887 0525 2E       		.uleb128 0x2e
 12888 0526 01       		.byte	0x1
 12889 0527 3F       		.uleb128 0x3f
 12890 0528 19       		.uleb128 0x19
 12891 0529 03       		.uleb128 0x3
 12892 052a 0E       		.uleb128 0xe
ARM GAS  C:\Users\jo\AppData\Local\Temp\ccCSMiNu.s 			page 230


 12893 052b 3A       		.uleb128 0x3a
 12894 052c 0B       		.uleb128 0xb
 12895 052d 3B       		.uleb128 0x3b
 12896 052e 0B       		.uleb128 0xb
 12897 052f 27       		.uleb128 0x27
 12898 0530 19       		.uleb128 0x19
 12899 0531 49       		.uleb128 0x49
 12900 0532 13       		.uleb128 0x13
 12901 0533 3C       		.uleb128 0x3c
 12902 0534 19       		.uleb128 0x19
 12903 0535 00       		.byte	0
 12904 0536 00       		.byte	0
 12905 0537 00       		.byte	0
 12906              		.section	.debug_loc,"",%progbits
 12907              	.Ldebug_loc0:
 12908              	.LLST0:
 12909 0000 00000000 		.4byte	.LVL0
 12910 0004 08000000 		.4byte	.LVL2
 12911 0008 0100     		.2byte	0x1
 12912 000a 50       		.byte	0x50
 12913 000b 08000000 		.4byte	.LVL2
 12914 000f 0B000000 		.4byte	.LVL3-1
 12915 0013 0100     		.2byte	0x1
 12916 0015 51       		.byte	0x51
 12917 0016 0B000000 		.4byte	.LVL3-1
 12918 001a 44000000 		.4byte	.LFE265
 12919 001e 0400     		.2byte	0x4
 12920 0020 F3       		.byte	0xf3
 12921 0021 01       		.uleb128 0x1
 12922 0022 50       		.byte	0x50
 12923 0023 9F       		.byte	0x9f
 12924 0024 00000000 		.4byte	0
 12925 0028 00000000 		.4byte	0
 12926              	.LLST1:
 12927 002c 04000000 		.4byte	.LVL1
 12928 0030 2E000000 		.4byte	.LVL7
 12929 0034 0100     		.2byte	0x1
 12930 0036 54       		.byte	0x54
 12931 0037 2E000000 		.4byte	.LVL7
 12932 003b 31000000 		.4byte	.LVL8-1
 12933 003f 0100     		.2byte	0x1
 12934 0041 50       		.byte	0x50
 12935 0042 00000000 		.4byte	0
 12936 0046 00000000 		.4byte	0
 12937              	.LLST2:
 12938 004a 00000000 		.4byte	.LVL9
 12939 004e 0E000000 		.4byte	.LVL10
 12940 0052 0100     		.2byte	0x1
 12941 0054 50       		.byte	0x50
 12942 0055 0E000000 		.4byte	.LVL10
 12943 0059 28000000 		.4byte	.LFE287
 12944 005d 0400     		.2byte	0x4
 12945 005f F3       		.byte	0xf3
 12946 0060 01       		.uleb128 0x1
 12947 0061 50       		.byte	0x50
 12948 0062 9F       		.byte	0x9f
 12949 0063 00000000 		.4byte	0
ARM GAS  C:\Users\jo\AppData\Local\Temp\ccCSMiNu.s 			page 231


 12950 0067 00000000 		.4byte	0
 12951              	.LLST3:
 12952 006b 00000000 		.4byte	.LVL12
 12953 006f 12000000 		.4byte	.LVL13
 12954 0073 0100     		.2byte	0x1
 12955 0075 50       		.byte	0x50
 12956 0076 12000000 		.4byte	.LVL13
 12957 007a 94000000 		.4byte	.LVL25
 12958 007e 0100     		.2byte	0x1
 12959 0080 54       		.byte	0x54
 12960 0081 94000000 		.4byte	.LVL25
 12961 0085 9E000000 		.4byte	.LVL29
 12962 0089 0100     		.2byte	0x1
 12963 008b 50       		.byte	0x50
 12964 008c 9E000000 		.4byte	.LVL29
 12965 0090 E4000000 		.4byte	.LFE261
 12966 0094 0100     		.2byte	0x1
 12967 0096 54       		.byte	0x54
 12968 0097 00000000 		.4byte	0
 12969 009b 00000000 		.4byte	0
 12970              	.LLST4:
 12971 009f 00000000 		.4byte	.LVL12
 12972 00a3 12000000 		.4byte	.LVL13
 12973 00a7 0100     		.2byte	0x1
 12974 00a9 51       		.byte	0x51
 12975 00aa 12000000 		.4byte	.LVL13
 12976 00ae 50000000 		.4byte	.LVL19
 12977 00b2 0100     		.2byte	0x1
 12978 00b4 57       		.byte	0x57
 12979 00b5 50000000 		.4byte	.LVL19
 12980 00b9 62000000 		.4byte	.LVL21
 12981 00bd 0400     		.2byte	0x4
 12982 00bf F3       		.byte	0xf3
 12983 00c0 01       		.uleb128 0x1
 12984 00c1 51       		.byte	0x51
 12985 00c2 9F       		.byte	0x9f
 12986 00c3 62000000 		.4byte	.LVL21
 12987 00c7 72000000 		.4byte	.LVL22
 12988 00cb 0100     		.2byte	0x1
 12989 00cd 57       		.byte	0x57
 12990 00ce 72000000 		.4byte	.LVL22
 12991 00d2 94000000 		.4byte	.LVL25
 12992 00d6 0400     		.2byte	0x4
 12993 00d8 F3       		.byte	0xf3
 12994 00d9 01       		.uleb128 0x1
 12995 00da 51       		.byte	0x51
 12996 00db 9F       		.byte	0x9f
 12997 00dc 94000000 		.4byte	.LVL25
 12998 00e0 9A000000 		.4byte	.LVL27
 12999 00e4 0100     		.2byte	0x1
 13000 00e6 51       		.byte	0x51
 13001 00e7 9A000000 		.4byte	.LVL27
 13002 00eb AE000000 		.4byte	.LVL33
 13003 00ef 0100     		.2byte	0x1
 13004 00f1 57       		.byte	0x57
 13005 00f2 AE000000 		.4byte	.LVL33
 13006 00f6 B0000000 		.4byte	.LVL34
ARM GAS  C:\Users\jo\AppData\Local\Temp\ccCSMiNu.s 			page 232


 13007 00fa 0400     		.2byte	0x4
 13008 00fc F3       		.byte	0xf3
 13009 00fd 01       		.uleb128 0x1
 13010 00fe 51       		.byte	0x51
 13011 00ff 9F       		.byte	0x9f
 13012 0100 B0000000 		.4byte	.LVL34
 13013 0104 C8000000 		.4byte	.LVL37
 13014 0108 0100     		.2byte	0x1
 13015 010a 57       		.byte	0x57
 13016 010b C8000000 		.4byte	.LVL37
 13017 010f E4000000 		.4byte	.LFE261
 13018 0113 0400     		.2byte	0x4
 13019 0115 F3       		.byte	0xf3
 13020 0116 01       		.uleb128 0x1
 13021 0117 51       		.byte	0x51
 13022 0118 9F       		.byte	0x9f
 13023 0119 00000000 		.4byte	0
 13024 011d 00000000 		.4byte	0
 13025              	.LLST5:
 13026 0121 00000000 		.4byte	.LVL12
 13027 0125 12000000 		.4byte	.LVL13
 13028 0129 0100     		.2byte	0x1
 13029 012b 52       		.byte	0x52
 13030 012c 12000000 		.4byte	.LVL13
 13031 0130 94000000 		.4byte	.LVL25
 13032 0134 0100     		.2byte	0x1
 13033 0136 56       		.byte	0x56
 13034 0137 94000000 		.4byte	.LVL25
 13035 013b 9C000000 		.4byte	.LVL28
 13036 013f 0100     		.2byte	0x1
 13037 0141 52       		.byte	0x52
 13038 0142 9C000000 		.4byte	.LVL28
 13039 0146 E4000000 		.4byte	.LFE261
 13040 014a 0100     		.2byte	0x1
 13041 014c 56       		.byte	0x56
 13042 014d 00000000 		.4byte	0
 13043 0151 00000000 		.4byte	0
 13044              	.LLST6:
 13045 0155 00000000 		.4byte	.LVL12
 13046 0159 12000000 		.4byte	.LVL13
 13047 015d 0100     		.2byte	0x1
 13048 015f 53       		.byte	0x53
 13049 0160 12000000 		.4byte	.LVL13
 13050 0164 94000000 		.4byte	.LVL25
 13051 0168 0400     		.2byte	0x4
 13052 016a F3       		.byte	0xf3
 13053 016b 01       		.uleb128 0x1
 13054 016c 53       		.byte	0x53
 13055 016d 9F       		.byte	0x9f
 13056 016e 94000000 		.4byte	.LVL25
 13057 0172 96000000 		.4byte	.LVL26
 13058 0176 0100     		.2byte	0x1
 13059 0178 53       		.byte	0x53
 13060 0179 96000000 		.4byte	.LVL26
 13061 017d E4000000 		.4byte	.LFE261
 13062 0181 0400     		.2byte	0x4
 13063 0183 F3       		.byte	0xf3
ARM GAS  C:\Users\jo\AppData\Local\Temp\ccCSMiNu.s 			page 233


 13064 0184 01       		.uleb128 0x1
 13065 0185 53       		.byte	0x53
 13066 0186 9F       		.byte	0x9f
 13067 0187 00000000 		.4byte	0
 13068 018b 00000000 		.4byte	0
 13069              	.LLST7:
 13070 018f 16000000 		.4byte	.LVL14
 13071 0193 94000000 		.4byte	.LVL25
 13072 0197 0100     		.2byte	0x1
 13073 0199 54       		.byte	0x54
 13074 019a AC000000 		.4byte	.LVL32
 13075 019e B0000000 		.4byte	.LVL34
 13076 01a2 0100     		.2byte	0x1
 13077 01a4 54       		.byte	0x54
 13078 01a5 C8000000 		.4byte	.LVL37
 13079 01a9 E4000000 		.4byte	.LFE261
 13080 01ad 0100     		.2byte	0x1
 13081 01af 54       		.byte	0x54
 13082 01b0 00000000 		.4byte	0
 13083 01b4 00000000 		.4byte	0
 13084              	.LLST8:
 13085 01b8 72000000 		.4byte	.LVL22
 13086 01bc 94000000 		.4byte	.LVL25
 13087 01c0 0100     		.2byte	0x1
 13088 01c2 57       		.byte	0x57
 13089 01c3 C8000000 		.4byte	.LVL37
 13090 01c7 E4000000 		.4byte	.LFE261
 13091 01cb 0100     		.2byte	0x1
 13092 01cd 57       		.byte	0x57
 13093 01ce 00000000 		.4byte	0
 13094 01d2 00000000 		.4byte	0
 13095              	.LLST9:
 13096 01d6 2C000000 		.4byte	.LVL15
 13097 01da 32000000 		.4byte	.LVL16
 13098 01de 0600     		.2byte	0x6
 13099 01e0 03       		.byte	0x3
 13100 01e1 90000000 		.4byte	.LC4
 13101 01e5 9F       		.byte	0x9f
 13102 01e6 00000000 		.4byte	0
 13103 01ea 00000000 		.4byte	0
 13104              	.LLST10:
 13105 01ee A4000000 		.4byte	.LVL30
 13106 01f2 AC000000 		.4byte	.LVL32
 13107 01f6 0600     		.2byte	0x6
 13108 01f8 03       		.byte	0x3
 13109 01f9 28000000 		.4byte	.LC1
 13110 01fd 9F       		.byte	0x9f
 13111 01fe 00000000 		.4byte	0
 13112 0202 00000000 		.4byte	0
 13113              	.LLST11:
 13114 0206 C0000000 		.4byte	.LVL35
 13115 020a C8000000 		.4byte	.LVL37
 13116 020e 0600     		.2byte	0x6
 13117 0210 03       		.byte	0x3
 13118 0211 70000000 		.4byte	.LC3
 13119 0215 9F       		.byte	0x9f
 13120 0216 00000000 		.4byte	0
ARM GAS  C:\Users\jo\AppData\Local\Temp\ccCSMiNu.s 			page 234


 13121 021a 00000000 		.4byte	0
 13122              	.LLST12:
 13123 021e 00000000 		.4byte	.LVL38
 13124 0222 0C000000 		.4byte	.LVL39
 13125 0226 0100     		.2byte	0x1
 13126 0228 50       		.byte	0x50
 13127 0229 0C000000 		.4byte	.LVL39
 13128 022d C0000000 		.4byte	.LVL51
 13129 0231 0100     		.2byte	0x1
 13130 0233 54       		.byte	0x54
 13131 0234 C0000000 		.4byte	.LVL51
 13132 0238 C3000000 		.4byte	.LVL52-1
 13133 023c 0300     		.2byte	0x3
 13134 023e 70       		.byte	0x70
 13135 023f 74       		.sleb128 -12
 13136 0240 9F       		.byte	0x9f
 13137 0241 C3000000 		.4byte	.LVL52-1
 13138 0245 C4000000 		.4byte	.LVL52
 13139 0249 0400     		.2byte	0x4
 13140 024b F3       		.byte	0xf3
 13141 024c 01       		.uleb128 0x1
 13142 024d 50       		.byte	0x50
 13143 024e 9F       		.byte	0x9f
 13144 024f C4000000 		.4byte	.LVL52
 13145 0253 EE000000 		.4byte	.LVL57
 13146 0257 0100     		.2byte	0x1
 13147 0259 54       		.byte	0x54
 13148 025a EE000000 		.4byte	.LVL57
 13149 025e F1000000 		.4byte	.LVL58-1
 13150 0262 0100     		.2byte	0x1
 13151 0264 51       		.byte	0x51
 13152 0265 F1000000 		.4byte	.LVL58-1
 13153 0269 F2000000 		.4byte	.LVL58
 13154 026d 0400     		.2byte	0x4
 13155 026f F3       		.byte	0xf3
 13156 0270 01       		.uleb128 0x1
 13157 0271 50       		.byte	0x50
 13158 0272 9F       		.byte	0x9f
 13159 0273 F2000000 		.4byte	.LVL58
 13160 0277 B0010000 		.4byte	.LVL79
 13161 027b 0100     		.2byte	0x1
 13162 027d 54       		.byte	0x54
 13163 027e B0010000 		.4byte	.LVL79
 13164 0282 BA010000 		.4byte	.LVL80
 13165 0286 0100     		.2byte	0x1
 13166 0288 50       		.byte	0x50
 13167 0289 BA010000 		.4byte	.LVL80
 13168 028d 04020000 		.4byte	.LFE272
 13169 0291 0100     		.2byte	0x1
 13170 0293 54       		.byte	0x54
 13171 0294 00000000 		.4byte	0
 13172 0298 00000000 		.4byte	0
 13173              	.LLST13:
 13174 029c 90000000 		.4byte	.LVL47
 13175 02a0 9A000000 		.4byte	.LVL48
 13176 02a4 0100     		.2byte	0x1
 13177 02a6 50       		.byte	0x50
ARM GAS  C:\Users\jo\AppData\Local\Temp\ccCSMiNu.s 			page 235


 13178 02a7 C4000000 		.4byte	.LVL52
 13179 02ab C6000000 		.4byte	.LVL53
 13180 02af 0100     		.2byte	0x1
 13181 02b1 50       		.byte	0x50
 13182 02b2 14010000 		.4byte	.LVL62
 13183 02b6 2E010000 		.4byte	.LVL63
 13184 02ba 0100     		.2byte	0x1
 13185 02bc 50       		.byte	0x50
 13186 02bd 2E010000 		.4byte	.LVL63
 13187 02c1 2F010000 		.4byte	.LVL64-1
 13188 02c5 0200     		.2byte	0x2
 13189 02c7 70       		.byte	0x70
 13190 02c8 01       		.sleb128 1
 13191 02c9 00000000 		.4byte	0
 13192 02cd 00000000 		.4byte	0
 13193              	.LLST14:
 13194 02d1 5A000000 		.4byte	.LVL44
 13195 02d5 7C000000 		.4byte	.LVL46
 13196 02d9 0100     		.2byte	0x1
 13197 02db 51       		.byte	0x51
 13198 02dc 48010000 		.4byte	.LVL67
 13199 02e0 4A010000 		.4byte	.LVL68
 13200 02e4 0100     		.2byte	0x1
 13201 02e6 51       		.byte	0x51
 13202 02e7 4A010000 		.4byte	.LVL68
 13203 02eb 4D010000 		.4byte	.LVL69-1
 13204 02ef 0200     		.2byte	0x2
 13205 02f1 73       		.byte	0x73
 13206 02f2 08       		.sleb128 8
 13207 02f3 CA010000 		.4byte	.LVL83
 13208 02f7 CC010000 		.4byte	.LVL84
 13209 02fb 0100     		.2byte	0x1
 13210 02fd 51       		.byte	0x51
 13211 02fe 00000000 		.4byte	0
 13212 0302 00000000 		.4byte	0
 13213              	.LLST15:
 13214 0306 70000000 		.4byte	.LVL45
 13215 030a C0000000 		.4byte	.LVL51
 13216 030e 0100     		.2byte	0x1
 13217 0310 55       		.byte	0x55
 13218 0311 C4000000 		.4byte	.LVL52
 13219 0315 EE000000 		.4byte	.LVL57
 13220 0319 0100     		.2byte	0x1
 13221 031b 55       		.byte	0x55
 13222 031c F2000000 		.4byte	.LVL58
 13223 0320 7A010000 		.4byte	.LVL73
 13224 0324 0100     		.2byte	0x1
 13225 0326 55       		.byte	0x55
 13226 0327 CA010000 		.4byte	.LVL83
 13227 032b 04020000 		.4byte	.LFE272
 13228 032f 0100     		.2byte	0x1
 13229 0331 55       		.byte	0x55
 13230 0332 00000000 		.4byte	0
 13231 0336 00000000 		.4byte	0
 13232              	.LLST16:
 13233 033a 70000000 		.4byte	.LVL45
 13234 033e C0000000 		.4byte	.LVL51
ARM GAS  C:\Users\jo\AppData\Local\Temp\ccCSMiNu.s 			page 236


 13235 0342 0100     		.2byte	0x1
 13236 0344 56       		.byte	0x56
 13237 0345 C4000000 		.4byte	.LVL52
 13238 0349 EE000000 		.4byte	.LVL57
 13239 034d 0100     		.2byte	0x1
 13240 034f 56       		.byte	0x56
 13241 0350 F2000000 		.4byte	.LVL58
 13242 0354 7A010000 		.4byte	.LVL73
 13243 0358 0100     		.2byte	0x1
 13244 035a 56       		.byte	0x56
 13245 035b CA010000 		.4byte	.LVL83
 13246 035f 04020000 		.4byte	.LFE272
 13247 0363 0100     		.2byte	0x1
 13248 0365 56       		.byte	0x56
 13249 0366 00000000 		.4byte	0
 13250 036a 00000000 		.4byte	0
 13251              	.LLST17:
 13252 036e 70000000 		.4byte	.LVL45
 13253 0372 C0000000 		.4byte	.LVL51
 13254 0376 0100     		.2byte	0x1
 13255 0378 57       		.byte	0x57
 13256 0379 C4000000 		.4byte	.LVL52
 13257 037d EE000000 		.4byte	.LVL57
 13258 0381 0100     		.2byte	0x1
 13259 0383 57       		.byte	0x57
 13260 0384 F2000000 		.4byte	.LVL58
 13261 0388 7A010000 		.4byte	.LVL73
 13262 038c 0100     		.2byte	0x1
 13263 038e 57       		.byte	0x57
 13264 038f CA010000 		.4byte	.LVL83
 13265 0393 04020000 		.4byte	.LFE272
 13266 0397 0100     		.2byte	0x1
 13267 0399 57       		.byte	0x57
 13268 039a 00000000 		.4byte	0
 13269 039e 00000000 		.4byte	0
 13270              	.LLST18:
 13271 03a2 24000000 		.4byte	.LVL40
 13272 03a6 2A000000 		.4byte	.LVL41
 13273 03aa 0600     		.2byte	0x6
 13274 03ac 03       		.byte	0x3
 13275 03ad C0000000 		.4byte	.LC6
 13276 03b1 9F       		.byte	0x9f
 13277 03b2 00000000 		.4byte	0
 13278 03b6 00000000 		.4byte	0
 13279              	.LLST19:
 13280 03ba 42000000 		.4byte	.LVL42
 13281 03be 48000000 		.4byte	.LVL43
 13282 03c2 0600     		.2byte	0x6
 13283 03c4 03       		.byte	0x3
 13284 03c5 E0000000 		.4byte	.LC7
 13285 03c9 9F       		.byte	0x9f
 13286 03ca 00000000 		.4byte	0
 13287 03ce 00000000 		.4byte	0
 13288              	.LLST20:
 13289 03d2 70010000 		.4byte	.LVL71
 13290 03d6 7A010000 		.4byte	.LVL73
 13291 03da 0600     		.2byte	0x6
ARM GAS  C:\Users\jo\AppData\Local\Temp\ccCSMiNu.s 			page 237


 13292 03dc 03       		.byte	0x3
 13293 03dd 34010000 		.4byte	.LC10
 13294 03e1 9F       		.byte	0x9f
 13295 03e2 00000000 		.4byte	0
 13296 03e6 00000000 		.4byte	0
 13297              	.LLST21:
 13298 03ea 8C010000 		.4byte	.LVL74
 13299 03ee 94010000 		.4byte	.LVL76
 13300 03f2 0600     		.2byte	0x6
 13301 03f4 03       		.byte	0x3
 13302 03f5 04010000 		.4byte	.LC8
 13303 03f9 9F       		.byte	0x9f
 13304 03fa 00000000 		.4byte	0
 13305 03fe 00000000 		.4byte	0
 13306              	.LLST22:
 13307 0402 A6010000 		.4byte	.LVL77
 13308 0406 B0010000 		.4byte	.LVL79
 13309 040a 0600     		.2byte	0x6
 13310 040c 03       		.byte	0x3
 13311 040d 18010000 		.4byte	.LC9
 13312 0411 9F       		.byte	0x9f
 13313 0412 00000000 		.4byte	0
 13314 0416 00000000 		.4byte	0
 13315              	.LLST23:
 13316 041a C2010000 		.4byte	.LVL81
 13317 041e CA010000 		.4byte	.LVL83
 13318 0422 0600     		.2byte	0x6
 13319 0424 03       		.byte	0x3
 13320 0425 B0000000 		.4byte	.LC5
 13321 0429 9F       		.byte	0x9f
 13322 042a 00000000 		.4byte	0
 13323 042e 00000000 		.4byte	0
 13324              	.LLST24:
 13325 0432 00000000 		.4byte	.LVL86
 13326 0436 34000000 		.4byte	.LVL88
 13327 043a 0100     		.2byte	0x1
 13328 043c 50       		.byte	0x50
 13329 043d 34000000 		.4byte	.LVL88
 13330 0441 00020000 		.4byte	.LFE281
 13331 0445 0100     		.2byte	0x1
 13332 0447 54       		.byte	0x54
 13333 0448 00000000 		.4byte	0
 13334 044c 00000000 		.4byte	0
 13335              	.LLST25:
 13336 0450 84000000 		.4byte	.LVL95
 13337 0454 9C000000 		.4byte	.LVL97
 13338 0458 0300     		.2byte	0x3
 13339 045a 09       		.byte	0x9
 13340 045b F9       		.byte	0xf9
 13341 045c 9F       		.byte	0x9f
 13342 045d 9C000000 		.4byte	.LVL97
 13343 0461 C0000000 		.4byte	.LVL100
 13344 0465 0100     		.2byte	0x1
 13345 0467 56       		.byte	0x56
 13346 0468 F8000000 		.4byte	.LVL106
 13347 046c FA000000 		.4byte	.LVL107
 13348 0470 0100     		.2byte	0x1
ARM GAS  C:\Users\jo\AppData\Local\Temp\ccCSMiNu.s 			page 238


 13349 0472 50       		.byte	0x50
 13350 0473 3E010000 		.4byte	.LVL114
 13351 0477 86010000 		.4byte	.LVL119
 13352 047b 0100     		.2byte	0x1
 13353 047d 56       		.byte	0x56
 13354 047e 9E010000 		.4byte	.LVL122
 13355 0482 AA010000 		.4byte	.LVL124
 13356 0486 0100     		.2byte	0x1
 13357 0488 56       		.byte	0x56
 13358 0489 C4010000 		.4byte	.LVL127
 13359 048d C6010000 		.4byte	.LVL128
 13360 0491 0300     		.2byte	0x3
 13361 0493 09       		.byte	0x9
 13362 0494 F9       		.byte	0xf9
 13363 0495 9F       		.byte	0x9f
 13364 0496 00000000 		.4byte	0
 13365 049a 00000000 		.4byte	0
 13366              	.LLST26:
 13367 049e 76000000 		.4byte	.LVL93
 13368 04a2 02010000 		.4byte	.LVL108
 13369 04a6 0100     		.2byte	0x1
 13370 04a8 57       		.byte	0x57
 13371 04a9 22010000 		.4byte	.LVL111
 13372 04ad 86010000 		.4byte	.LVL119
 13373 04b1 0100     		.2byte	0x1
 13374 04b3 57       		.byte	0x57
 13375 04b4 9E010000 		.4byte	.LVL122
 13376 04b8 AA010000 		.4byte	.LVL124
 13377 04bc 0100     		.2byte	0x1
 13378 04be 57       		.byte	0x57
 13379 04bf C4010000 		.4byte	.LVL127
 13380 04c3 00020000 		.4byte	.LFE281
 13381 04c7 0100     		.2byte	0x1
 13382 04c9 57       		.byte	0x57
 13383 04ca 00000000 		.4byte	0
 13384 04ce 00000000 		.4byte	0
 13385              	.LLST27:
 13386 04d2 76000000 		.4byte	.LVL93
 13387 04d6 78000000 		.4byte	.LVL94
 13388 04da 0100     		.2byte	0x1
 13389 04dc 55       		.byte	0x55
 13390 04dd 78000000 		.4byte	.LVL94
 13391 04e1 84000000 		.4byte	.LVL95
 13392 04e5 0100     		.2byte	0x1
 13393 04e7 59       		.byte	0x59
 13394 04e8 84000000 		.4byte	.LVL95
 13395 04ec 9C000000 		.4byte	.LVL97
 13396 04f0 0200     		.2byte	0x2
 13397 04f2 30       		.byte	0x30
 13398 04f3 9F       		.byte	0x9f
 13399 04f4 9C000000 		.4byte	.LVL97
 13400 04f8 A6000000 		.4byte	.LVL98
 13401 04fc 0100     		.2byte	0x1
 13402 04fe 55       		.byte	0x55
 13403 04ff DA000000 		.4byte	.LVL102
 13404 0503 E0000000 		.4byte	.LVL104
 13405 0507 0100     		.2byte	0x1
ARM GAS  C:\Users\jo\AppData\Local\Temp\ccCSMiNu.s 			page 239


 13406 0509 59       		.byte	0x59
 13407 050a E0000000 		.4byte	.LVL104
 13408 050e FA000000 		.4byte	.LVL107
 13409 0512 0100     		.2byte	0x1
 13410 0514 55       		.byte	0x55
 13411 0515 22010000 		.4byte	.LVL111
 13412 0519 62010000 		.4byte	.LVL116
 13413 051d 0100     		.2byte	0x1
 13414 051f 55       		.byte	0x55
 13415 0520 7C010000 		.4byte	.LVL118
 13416 0524 86010000 		.4byte	.LVL119
 13417 0528 0100     		.2byte	0x1
 13418 052a 55       		.byte	0x55
 13419 052b 9E010000 		.4byte	.LVL122
 13420 052f AA010000 		.4byte	.LVL124
 13421 0533 0100     		.2byte	0x1
 13422 0535 55       		.byte	0x55
 13423 0536 C4010000 		.4byte	.LVL127
 13424 053a C6010000 		.4byte	.LVL128
 13425 053e 0200     		.2byte	0x2
 13426 0540 30       		.byte	0x30
 13427 0541 9F       		.byte	0x9f
 13428 0542 00000000 		.4byte	0
 13429 0546 00000000 		.4byte	0
 13430              	.LLST28:
 13431 054a 76000000 		.4byte	.LVL93
 13432 054e 9C000000 		.4byte	.LVL97
 13433 0552 0100     		.2byte	0x1
 13434 0554 59       		.byte	0x59
 13435 0555 DA000000 		.4byte	.LVL102
 13436 0559 FA000000 		.4byte	.LVL107
 13437 055d 0100     		.2byte	0x1
 13438 055f 59       		.byte	0x59
 13439 0560 22010000 		.4byte	.LVL111
 13440 0564 62010000 		.4byte	.LVL116
 13441 0568 0100     		.2byte	0x1
 13442 056a 59       		.byte	0x59
 13443 056b 7C010000 		.4byte	.LVL118
 13444 056f 86010000 		.4byte	.LVL119
 13445 0573 0100     		.2byte	0x1
 13446 0575 59       		.byte	0x59
 13447 0576 9E010000 		.4byte	.LVL122
 13448 057a A8010000 		.4byte	.LVL123
 13449 057e 0100     		.2byte	0x1
 13450 0580 59       		.byte	0x59
 13451 0581 C4010000 		.4byte	.LVL127
 13452 0585 C6010000 		.4byte	.LVL128
 13453 0589 0100     		.2byte	0x1
 13454 058b 59       		.byte	0x59
 13455 058c 00000000 		.4byte	0
 13456 0590 00000000 		.4byte	0
 13457              	.LLST29:
 13458 0594 00000000 		.4byte	.LVL86
 13459 0598 B6000000 		.4byte	.LVL99
 13460 059c 0200     		.2byte	0x2
 13461 059e 30       		.byte	0x30
 13462 059f 9F       		.byte	0x9f
ARM GAS  C:\Users\jo\AppData\Local\Temp\ccCSMiNu.s 			page 240


 13463 05a0 B6000000 		.4byte	.LVL99
 13464 05a4 C0000000 		.4byte	.LVL100
 13465 05a8 0200     		.2byte	0x2
 13466 05aa 31       		.byte	0x31
 13467 05ab 9F       		.byte	0x9f
 13468 05ac DA000000 		.4byte	.LVL102
 13469 05b0 FA000000 		.4byte	.LVL107
 13470 05b4 0200     		.2byte	0x2
 13471 05b6 30       		.byte	0x30
 13472 05b7 9F       		.byte	0x9f
 13473 05b8 FA000000 		.4byte	.LVL107
 13474 05bc 02010000 		.4byte	.LVL108
 13475 05c0 0200     		.2byte	0x2
 13476 05c2 31       		.byte	0x31
 13477 05c3 9F       		.byte	0x9f
 13478 05c4 02010000 		.4byte	.LVL108
 13479 05c8 00020000 		.4byte	.LFE281
 13480 05cc 0200     		.2byte	0x2
 13481 05ce 30       		.byte	0x30
 13482 05cf 9F       		.byte	0x9f
 13483 05d0 00000000 		.4byte	0
 13484 05d4 00000000 		.4byte	0
 13485              	.LLST30:
 13486 05d8 1E000000 		.4byte	.LVL87
 13487 05dc 72000000 		.4byte	.LVL92
 13488 05e0 0100     		.2byte	0x1
 13489 05e2 56       		.byte	0x56
 13490 05e3 76000000 		.4byte	.LVL93
 13491 05e7 8E000000 		.4byte	.LVL96
 13492 05eb 0100     		.2byte	0x1
 13493 05ed 56       		.byte	0x56
 13494 05ee DA000000 		.4byte	.LVL102
 13495 05f2 F8000000 		.4byte	.LVL106
 13496 05f6 0100     		.2byte	0x1
 13497 05f8 56       		.byte	0x56
 13498 05f9 02010000 		.4byte	.LVL108
 13499 05fd 3E010000 		.4byte	.LVL114
 13500 0601 0100     		.2byte	0x1
 13501 0603 56       		.byte	0x56
 13502 0604 86010000 		.4byte	.LVL119
 13503 0608 9E010000 		.4byte	.LVL122
 13504 060c 0100     		.2byte	0x1
 13505 060e 56       		.byte	0x56
 13506 060f AA010000 		.4byte	.LVL124
 13507 0613 C6010000 		.4byte	.LVL128
 13508 0617 0100     		.2byte	0x1
 13509 0619 56       		.byte	0x56
 13510 061a 00000000 		.4byte	0
 13511 061e 00000000 		.4byte	0
 13512              	.LLST31:
 13513 0622 38000000 		.4byte	.LVL89
 13514 0626 46000000 		.4byte	.LVL91
 13515 062a 0600     		.2byte	0x6
 13516 062c 03       		.byte	0x3
 13517 062d 58010000 		.4byte	.LC11
 13518 0631 9F       		.byte	0x9f
 13519 0632 86010000 		.4byte	.LVL119
ARM GAS  C:\Users\jo\AppData\Local\Temp\ccCSMiNu.s 			page 241


 13520 0636 9E010000 		.4byte	.LVL122
 13521 063a 0600     		.2byte	0x6
 13522 063c 03       		.byte	0x3
 13523 063d 58010000 		.4byte	.LC11
 13524 0641 9F       		.byte	0x9f
 13525 0642 00000000 		.4byte	0
 13526 0646 00000000 		.4byte	0
 13527              	.LLST32:
 13528 064a 14010000 		.4byte	.LVL109
 13529 064e 22010000 		.4byte	.LVL111
 13530 0652 0600     		.2byte	0x6
 13531 0654 03       		.byte	0x3
 13532 0655 90010000 		.4byte	.LC13
 13533 0659 9F       		.byte	0x9f
 13534 065a 00000000 		.4byte	0
 13535 065e 00000000 		.4byte	0
 13536              	.LLST33:
 13537 0662 34010000 		.4byte	.LVL112
 13538 0666 3E010000 		.4byte	.LVL114
 13539 066a 0600     		.2byte	0x6
 13540 066c 03       		.byte	0x3
 13541 066d C4010000 		.4byte	.LC14
 13542 0671 9F       		.byte	0x9f
 13543 0672 00000000 		.4byte	0
 13544 0676 00000000 		.4byte	0
 13545              	.LLST34:
 13546 067a 96010000 		.4byte	.LVL120
 13547 067e 9E010000 		.4byte	.LVL122
 13548 0682 0600     		.2byte	0x6
 13549 0684 03       		.byte	0x3
 13550 0685 18010000 		.4byte	.LC9
 13551 0689 9F       		.byte	0x9f
 13552 068a 00000000 		.4byte	0
 13553 068e 00000000 		.4byte	0
 13554              	.LLST35:
 13555 0692 BC010000 		.4byte	.LVL125
 13556 0696 C4010000 		.4byte	.LVL127
 13557 069a 0600     		.2byte	0x6
 13558 069c 03       		.byte	0x3
 13559 069d 78010000 		.4byte	.LC12
 13560 06a1 9F       		.byte	0x9f
 13561 06a2 00000000 		.4byte	0
 13562 06a6 00000000 		.4byte	0
 13563              	.LLST36:
 13564 06aa 00000000 		.4byte	.LVL130
 13565 06ae 08000000 		.4byte	.LVL131
 13566 06b2 0100     		.2byte	0x1
 13567 06b4 50       		.byte	0x50
 13568 06b5 08000000 		.4byte	.LVL131
 13569 06b9 58000000 		.4byte	.LVL136
 13570 06bd 0100     		.2byte	0x1
 13571 06bf 54       		.byte	0x54
 13572 06c0 58000000 		.4byte	.LVL136
 13573 06c4 62000000 		.4byte	.LVL138
 13574 06c8 0100     		.2byte	0x1
 13575 06ca 50       		.byte	0x50
 13576 06cb 62000000 		.4byte	.LVL138
ARM GAS  C:\Users\jo\AppData\Local\Temp\ccCSMiNu.s 			page 242


 13577 06cf 84000000 		.4byte	.LFE262
 13578 06d3 0100     		.2byte	0x1
 13579 06d5 54       		.byte	0x54
 13580 06d6 00000000 		.4byte	0
 13581 06da 00000000 		.4byte	0
 13582              	.LLST37:
 13583 06de 00000000 		.4byte	.LVL130
 13584 06e2 08000000 		.4byte	.LVL131
 13585 06e6 0100     		.2byte	0x1
 13586 06e8 51       		.byte	0x51
 13587 06e9 08000000 		.4byte	.LVL131
 13588 06ed 58000000 		.4byte	.LVL136
 13589 06f1 0400     		.2byte	0x4
 13590 06f3 F3       		.byte	0xf3
 13591 06f4 01       		.uleb128 0x1
 13592 06f5 51       		.byte	0x51
 13593 06f6 9F       		.byte	0x9f
 13594 06f7 58000000 		.4byte	.LVL136
 13595 06fb 5E000000 		.4byte	.LVL137
 13596 06ff 0100     		.2byte	0x1
 13597 0701 51       		.byte	0x51
 13598 0702 5E000000 		.4byte	.LVL137
 13599 0706 84000000 		.4byte	.LFE262
 13600 070a 0400     		.2byte	0x4
 13601 070c F3       		.byte	0xf3
 13602 070d 01       		.uleb128 0x1
 13603 070e 51       		.byte	0x51
 13604 070f 9F       		.byte	0x9f
 13605 0710 00000000 		.4byte	0
 13606 0714 00000000 		.4byte	0
 13607              	.LLST39:
 13608 0718 00000000 		.4byte	.LVL141
 13609 071c 0A000000 		.4byte	.LVL142
 13610 0720 0100     		.2byte	0x1
 13611 0722 50       		.byte	0x50
 13612 0723 0A000000 		.4byte	.LVL142
 13613 0727 56000000 		.4byte	.LVL148
 13614 072b 0100     		.2byte	0x1
 13615 072d 54       		.byte	0x54
 13616 072e 56000000 		.4byte	.LVL148
 13617 0732 60000000 		.4byte	.LVL151
 13618 0736 0100     		.2byte	0x1
 13619 0738 50       		.byte	0x50
 13620 0739 60000000 		.4byte	.LVL151
 13621 073d 80000000 		.4byte	.LFE263
 13622 0741 0100     		.2byte	0x1
 13623 0743 54       		.byte	0x54
 13624 0744 00000000 		.4byte	0
 13625 0748 00000000 		.4byte	0
 13626              	.LLST40:
 13627 074c 00000000 		.4byte	.LVL141
 13628 0750 0A000000 		.4byte	.LVL142
 13629 0754 0100     		.2byte	0x1
 13630 0756 51       		.byte	0x51
 13631 0757 0A000000 		.4byte	.LVL142
 13632 075b 56000000 		.4byte	.LVL148
 13633 075f 0400     		.2byte	0x4
ARM GAS  C:\Users\jo\AppData\Local\Temp\ccCSMiNu.s 			page 243


 13634 0761 F3       		.byte	0xf3
 13635 0762 01       		.uleb128 0x1
 13636 0763 51       		.byte	0x51
 13637 0764 9F       		.byte	0x9f
 13638 0765 56000000 		.4byte	.LVL148
 13639 0769 5C000000 		.4byte	.LVL149
 13640 076d 0100     		.2byte	0x1
 13641 076f 51       		.byte	0x51
 13642 0770 5C000000 		.4byte	.LVL149
 13643 0774 80000000 		.4byte	.LFE263
 13644 0778 0400     		.2byte	0x4
 13645 077a F3       		.byte	0xf3
 13646 077b 01       		.uleb128 0x1
 13647 077c 51       		.byte	0x51
 13648 077d 9F       		.byte	0x9f
 13649 077e 00000000 		.4byte	0
 13650 0782 00000000 		.4byte	0
 13651              	.LLST41:
 13652 0786 00000000 		.4byte	.LVL141
 13653 078a 0A000000 		.4byte	.LVL142
 13654 078e 0100     		.2byte	0x1
 13655 0790 52       		.byte	0x52
 13656 0791 0A000000 		.4byte	.LVL142
 13657 0795 56000000 		.4byte	.LVL148
 13658 0799 0400     		.2byte	0x4
 13659 079b F3       		.byte	0xf3
 13660 079c 01       		.uleb128 0x1
 13661 079d 52       		.byte	0x52
 13662 079e 9F       		.byte	0x9f
 13663 079f 56000000 		.4byte	.LVL148
 13664 07a3 5E000000 		.4byte	.LVL150
 13665 07a7 0100     		.2byte	0x1
 13666 07a9 52       		.byte	0x52
 13667 07aa 5E000000 		.4byte	.LVL150
 13668 07ae 80000000 		.4byte	.LFE263
 13669 07b2 0400     		.2byte	0x4
 13670 07b4 F3       		.byte	0xf3
 13671 07b5 01       		.uleb128 0x1
 13672 07b6 52       		.byte	0x52
 13673 07b7 9F       		.byte	0x9f
 13674 07b8 00000000 		.4byte	0
 13675 07bc 00000000 		.4byte	0
 13676              	.LLST43:
 13677 07c0 2C000000 		.4byte	.LVL143
 13678 07c4 40000000 		.4byte	.LVL144
 13679 07c8 0400     		.2byte	0x4
 13680 07ca F3       		.byte	0xf3
 13681 07cb 01       		.uleb128 0x1
 13682 07cc 51       		.byte	0x51
 13683 07cd 9F       		.byte	0x9f
 13684 07ce 00000000 		.4byte	0
 13685 07d2 00000000 		.4byte	0
 13686              	.LLST44:
 13687 07d6 2C000000 		.4byte	.LVL143
 13688 07da 40000000 		.4byte	.LVL144
 13689 07de 0100     		.2byte	0x1
 13690 07e0 55       		.byte	0x55
ARM GAS  C:\Users\jo\AppData\Local\Temp\ccCSMiNu.s 			page 244


 13691 07e1 00000000 		.4byte	0
 13692 07e5 00000000 		.4byte	0
 13693              	.LLST45:
 13694 07e9 2C000000 		.4byte	.LVL143
 13695 07ed 40000000 		.4byte	.LVL144
 13696 07f1 0100     		.2byte	0x1
 13697 07f3 54       		.byte	0x54
 13698 07f4 00000000 		.4byte	0
 13699 07f8 00000000 		.4byte	0
 13700              	.LLST46:
 13701 07fc 00000000 		.4byte	.LVL154
 13702 0800 18000000 		.4byte	.LVL155
 13703 0804 0100     		.2byte	0x1
 13704 0806 50       		.byte	0x50
 13705 0807 18000000 		.4byte	.LVL155
 13706 080b B4000000 		.4byte	.LVL170
 13707 080f 0100     		.2byte	0x1
 13708 0811 54       		.byte	0x54
 13709 0812 B4000000 		.4byte	.LVL170
 13710 0816 B6000000 		.4byte	.LVL171
 13711 081a 0100     		.2byte	0x1
 13712 081c 50       		.byte	0x50
 13713 081d B6000000 		.4byte	.LVL171
 13714 0821 CC000000 		.4byte	.LFE275
 13715 0825 0100     		.2byte	0x1
 13716 0827 54       		.byte	0x54
 13717 0828 00000000 		.4byte	0
 13718 082c 00000000 		.4byte	0
 13719              	.LLST47:
 13720 0830 00000000 		.4byte	.LVL154
 13721 0834 1A000000 		.4byte	.LVL156
 13722 0838 0100     		.2byte	0x1
 13723 083a 51       		.byte	0x51
 13724 083b 1A000000 		.4byte	.LVL156
 13725 083f B4000000 		.4byte	.LVL170
 13726 0843 0400     		.2byte	0x4
 13727 0845 F3       		.byte	0xf3
 13728 0846 01       		.uleb128 0x1
 13729 0847 51       		.byte	0x51
 13730 0848 9F       		.byte	0x9f
 13731 0849 B4000000 		.4byte	.LVL170
 13732 084d CC000000 		.4byte	.LFE275
 13733 0851 0100     		.2byte	0x1
 13734 0853 51       		.byte	0x51
 13735 0854 00000000 		.4byte	0
 13736 0858 00000000 		.4byte	0
 13737              	.LLST48:
 13738 085c 00000000 		.4byte	.LVL154
 13739 0860 1C000000 		.4byte	.LVL157
 13740 0864 0100     		.2byte	0x1
 13741 0866 52       		.byte	0x52
 13742 0867 1C000000 		.4byte	.LVL157
 13743 086b B4000000 		.4byte	.LVL170
 13744 086f 0400     		.2byte	0x4
 13745 0871 F3       		.byte	0xf3
 13746 0872 01       		.uleb128 0x1
 13747 0873 52       		.byte	0x52
ARM GAS  C:\Users\jo\AppData\Local\Temp\ccCSMiNu.s 			page 245


 13748 0874 9F       		.byte	0x9f
 13749 0875 B4000000 		.4byte	.LVL170
 13750 0879 CC000000 		.4byte	.LFE275
 13751 087d 0100     		.2byte	0x1
 13752 087f 52       		.byte	0x52
 13753 0880 00000000 		.4byte	0
 13754 0884 00000000 		.4byte	0
 13755              	.LLST50:
 13756 0888 38000000 		.4byte	.LVL160
 13757 088c 42000000 		.4byte	.LVL161
 13758 0890 0C00     		.2byte	0xc
 13759 0892 73       		.byte	0x73
 13760 0893 00       		.sleb128 0
 13761 0894 34       		.byte	0x34
 13762 0895 1A       		.byte	0x1a
 13763 0896 48       		.byte	0x48
 13764 0897 24       		.byte	0x24
 13765 0898 30       		.byte	0x30
 13766 0899 29       		.byte	0x29
 13767 089a 08       		.byte	0x8
 13768 089b FF       		.byte	0xff
 13769 089c 1A       		.byte	0x1a
 13770 089d 9F       		.byte	0x9f
 13771 089e 42000000 		.4byte	.LVL161
 13772 08a2 44000000 		.4byte	.LVL162
 13773 08a6 0E00     		.2byte	0xe
 13774 08a8 74       		.byte	0x74
 13775 08a9 1C       		.sleb128 28
 13776 08aa 94       		.byte	0x94
 13777 08ab 01       		.byte	0x1
 13778 08ac 34       		.byte	0x34
 13779 08ad 1A       		.byte	0x1a
 13780 08ae 48       		.byte	0x48
 13781 08af 24       		.byte	0x24
 13782 08b0 30       		.byte	0x30
 13783 08b1 29       		.byte	0x29
 13784 08b2 08       		.byte	0x8
 13785 08b3 FF       		.byte	0xff
 13786 08b4 1A       		.byte	0x1a
 13787 08b5 9F       		.byte	0x9f
 13788 08b6 00000000 		.4byte	0
 13789 08ba 00000000 		.4byte	0
 13790              	.LLST51:
 13791 08be 24000000 		.4byte	.LVL158
 13792 08c2 2A000000 		.4byte	.LVL159
 13793 08c6 0600     		.2byte	0x6
 13794 08c8 03       		.byte	0x3
 13795 08c9 F4010000 		.4byte	.LC16
 13796 08cd 9F       		.byte	0x9f
 13797 08ce 00000000 		.4byte	0
 13798 08d2 00000000 		.4byte	0
 13799              	.LLST52:
 13800 08d6 A6000000 		.4byte	.LVL168
 13801 08da B4000000 		.4byte	.LVL170
 13802 08de 0600     		.2byte	0x6
 13803 08e0 03       		.byte	0x3
 13804 08e1 14020000 		.4byte	.LC17
ARM GAS  C:\Users\jo\AppData\Local\Temp\ccCSMiNu.s 			page 246


 13805 08e5 9F       		.byte	0x9f
 13806 08e6 00000000 		.4byte	0
 13807 08ea 00000000 		.4byte	0
 13808              	.LLST53:
 13809 08ee 00000000 		.4byte	.LVL172
 13810 08f2 0C000000 		.4byte	.LVL173
 13811 08f6 0100     		.2byte	0x1
 13812 08f8 50       		.byte	0x50
 13813 08f9 0C000000 		.4byte	.LVL173
 13814 08fd 7C000000 		.4byte	.LVL182
 13815 0901 0100     		.2byte	0x1
 13816 0903 54       		.byte	0x54
 13817 0904 7C000000 		.4byte	.LVL182
 13818 0908 80000000 		.4byte	.LVL183
 13819 090c 0400     		.2byte	0x4
 13820 090e F3       		.byte	0xf3
 13821 090f 01       		.uleb128 0x1
 13822 0910 50       		.byte	0x50
 13823 0911 9F       		.byte	0x9f
 13824 0912 80000000 		.4byte	.LVL183
 13825 0916 A0000000 		.4byte	.LVL187
 13826 091a 0100     		.2byte	0x1
 13827 091c 54       		.byte	0x54
 13828 091d A0000000 		.4byte	.LVL187
 13829 0921 A3000000 		.4byte	.LVL188-1
 13830 0925 0300     		.2byte	0x3
 13831 0927 70       		.byte	0x70
 13832 0928 74       		.sleb128 -12
 13833 0929 9F       		.byte	0x9f
 13834 092a A3000000 		.4byte	.LVL188-1
 13835 092e A4000000 		.4byte	.LVL188
 13836 0932 0400     		.2byte	0x4
 13837 0934 F3       		.byte	0xf3
 13838 0935 01       		.uleb128 0x1
 13839 0936 50       		.byte	0x50
 13840 0937 9F       		.byte	0x9f
 13841 0938 A4000000 		.4byte	.LVL188
 13842 093c BC000000 		.4byte	.LVL192
 13843 0940 0100     		.2byte	0x1
 13844 0942 54       		.byte	0x54
 13845 0943 BC000000 		.4byte	.LVL192
 13846 0947 C6000000 		.4byte	.LVL194
 13847 094b 0100     		.2byte	0x1
 13848 094d 50       		.byte	0x50
 13849 094e C6000000 		.4byte	.LVL194
 13850 0952 0C010000 		.4byte	.LFE264
 13851 0956 0100     		.2byte	0x1
 13852 0958 54       		.byte	0x54
 13853 0959 00000000 		.4byte	0
 13854 095d 00000000 		.4byte	0
 13855              	.LLST54:
 13856 0961 00000000 		.4byte	.LVL172
 13857 0965 0C000000 		.4byte	.LVL173
 13858 0969 0100     		.2byte	0x1
 13859 096b 51       		.byte	0x51
 13860 096c 0C000000 		.4byte	.LVL173
 13861 0970 BC000000 		.4byte	.LVL192
ARM GAS  C:\Users\jo\AppData\Local\Temp\ccCSMiNu.s 			page 247


 13862 0974 0400     		.2byte	0x4
 13863 0976 F3       		.byte	0xf3
 13864 0977 01       		.uleb128 0x1
 13865 0978 51       		.byte	0x51
 13866 0979 9F       		.byte	0x9f
 13867 097a BC000000 		.4byte	.LVL192
 13868 097e C2000000 		.4byte	.LVL193
 13869 0982 0100     		.2byte	0x1
 13870 0984 51       		.byte	0x51
 13871 0985 C2000000 		.4byte	.LVL193
 13872 0989 0C010000 		.4byte	.LFE264
 13873 098d 0400     		.2byte	0x4
 13874 098f F3       		.byte	0xf3
 13875 0990 01       		.uleb128 0x1
 13876 0991 51       		.byte	0x51
 13877 0992 9F       		.byte	0x9f
 13878 0993 00000000 		.4byte	0
 13879 0997 00000000 		.4byte	0
 13880              	.LLST56:
 13881 099b 10000000 		.4byte	.LVL174
 13882 099f 5A000000 		.4byte	.LVL180
 13883 09a3 0100     		.2byte	0x1
 13884 09a5 56       		.byte	0x56
 13885 09a6 5A000000 		.4byte	.LVL180
 13886 09aa 7C000000 		.4byte	.LVL182
 13887 09ae 0300     		.2byte	0x3
 13888 09b0 76       		.byte	0x76
 13889 09b1 03       		.sleb128 3
 13890 09b2 9F       		.byte	0x9f
 13891 09b3 A8000000 		.4byte	.LVL189
 13892 09b7 BC000000 		.4byte	.LVL192
 13893 09bb 0100     		.2byte	0x1
 13894 09bd 56       		.byte	0x56
 13895 09be 00000000 		.4byte	0
 13896 09c2 00000000 		.4byte	0
 13897              	.LLST57:
 13898 09c6 74000000 		.4byte	.LVL181
 13899 09ca 80000000 		.4byte	.LVL183
 13900 09ce 0600     		.2byte	0x6
 13901 09d0 03       		.byte	0x3
 13902 09d1 54020000 		.4byte	.LC18
 13903 09d5 9F       		.byte	0x9f
 13904 09d6 00000000 		.4byte	0
 13905 09da 00000000 		.4byte	0
 13906              	.LLST58:
 13907 09de 82000000 		.4byte	.LVL184
 13908 09e2 88000000 		.4byte	.LVL185
 13909 09e6 0C00     		.2byte	0xc
 13910 09e8 73       		.byte	0x73
 13911 09e9 00       		.sleb128 0
 13912 09ea 34       		.byte	0x34
 13913 09eb 1A       		.byte	0x1a
 13914 09ec 48       		.byte	0x48
 13915 09ed 24       		.byte	0x24
 13916 09ee 30       		.byte	0x30
 13917 09ef 2E       		.byte	0x2e
 13918 09f0 08       		.byte	0x8
ARM GAS  C:\Users\jo\AppData\Local\Temp\ccCSMiNu.s 			page 248


 13919 09f1 FF       		.byte	0xff
 13920 09f2 1A       		.byte	0x1a
 13921 09f3 9F       		.byte	0x9f
 13922 09f4 88000000 		.4byte	.LVL185
 13923 09f8 8A000000 		.4byte	.LVL186
 13924 09fc 0E00     		.2byte	0xe
 13925 09fe 74       		.byte	0x74
 13926 09ff 1C       		.sleb128 28
 13927 0a00 94       		.byte	0x94
 13928 0a01 01       		.byte	0x1
 13929 0a02 34       		.byte	0x34
 13930 0a03 1A       		.byte	0x1a
 13931 0a04 48       		.byte	0x48
 13932 0a05 24       		.byte	0x24
 13933 0a06 30       		.byte	0x30
 13934 0a07 2E       		.byte	0x2e
 13935 0a08 08       		.byte	0x8
 13936 0a09 FF       		.byte	0xff
 13937 0a0a 1A       		.byte	0x1a
 13938 0a0b 9F       		.byte	0x9f
 13939 0a0c 00000000 		.4byte	0
 13940 0a10 00000000 		.4byte	0
 13941              	.LLST59:
 13942 0a14 CE000000 		.4byte	.LVL195
 13943 0a18 D6000000 		.4byte	.LVL197
 13944 0a1c 0600     		.2byte	0x6
 13945 0a1e 03       		.byte	0x3
 13946 0a1f E4010000 		.4byte	.LC15
 13947 0a23 9F       		.byte	0x9f
 13948 0a24 00000000 		.4byte	0
 13949 0a28 00000000 		.4byte	0
 13950              	.LLST60:
 13951 0a2c 00000000 		.4byte	.LVL200
 13952 0a30 16000000 		.4byte	.LVL201
 13953 0a34 0100     		.2byte	0x1
 13954 0a36 50       		.byte	0x50
 13955 0a37 16000000 		.4byte	.LVL201
 13956 0a3b 4A000000 		.4byte	.LVL207
 13957 0a3f 0100     		.2byte	0x1
 13958 0a41 54       		.byte	0x54
 13959 0a42 4A000000 		.4byte	.LVL207
 13960 0a46 4E000000 		.4byte	.LVL208
 13961 0a4a 0400     		.2byte	0x4
 13962 0a4c F3       		.byte	0xf3
 13963 0a4d 01       		.uleb128 0x1
 13964 0a4e 50       		.byte	0x50
 13965 0a4f 9F       		.byte	0x9f
 13966 0a50 4E000000 		.4byte	.LVL208
 13967 0a54 86000000 		.4byte	.LVL215
 13968 0a58 0100     		.2byte	0x1
 13969 0a5a 54       		.byte	0x54
 13970 0a5b 86000000 		.4byte	.LVL215
 13971 0a5f 87000000 		.4byte	.LVL216-1
 13972 0a63 0100     		.2byte	0x1
 13973 0a65 50       		.byte	0x50
 13974 0a66 87000000 		.4byte	.LVL216-1
 13975 0a6a 88000000 		.4byte	.LVL216
ARM GAS  C:\Users\jo\AppData\Local\Temp\ccCSMiNu.s 			page 249


 13976 0a6e 0400     		.2byte	0x4
 13977 0a70 F3       		.byte	0xf3
 13978 0a71 01       		.uleb128 0x1
 13979 0a72 50       		.byte	0x50
 13980 0a73 9F       		.byte	0x9f
 13981 0a74 88000000 		.4byte	.LVL216
 13982 0a78 92000000 		.4byte	.LVL220
 13983 0a7c 0100     		.2byte	0x1
 13984 0a7e 50       		.byte	0x50
 13985 0a7f 92000000 		.4byte	.LVL220
 13986 0a83 A8000000 		.4byte	.LVL224
 13987 0a87 0100     		.2byte	0x1
 13988 0a89 54       		.byte	0x54
 13989 0a8a A8000000 		.4byte	.LVL224
 13990 0a8e AC000000 		.4byte	.LVL225
 13991 0a92 0400     		.2byte	0x4
 13992 0a94 F3       		.byte	0xf3
 13993 0a95 01       		.uleb128 0x1
 13994 0a96 50       		.byte	0x50
 13995 0a97 9F       		.byte	0x9f
 13996 0a98 AC000000 		.4byte	.LVL225
 13997 0a9c CA000000 		.4byte	.LVL229
 13998 0aa0 0100     		.2byte	0x1
 13999 0aa2 54       		.byte	0x54
 14000 0aa3 CA000000 		.4byte	.LVL229
 14001 0aa7 E8000000 		.4byte	.LFE260
 14002 0aab 0400     		.2byte	0x4
 14003 0aad F3       		.byte	0xf3
 14004 0aae 01       		.uleb128 0x1
 14005 0aaf 50       		.byte	0x50
 14006 0ab0 9F       		.byte	0x9f
 14007 0ab1 00000000 		.4byte	0
 14008 0ab5 00000000 		.4byte	0
 14009              	.LLST61:
 14010 0ab9 00000000 		.4byte	.LVL200
 14011 0abd 16000000 		.4byte	.LVL201
 14012 0ac1 0100     		.2byte	0x1
 14013 0ac3 51       		.byte	0x51
 14014 0ac4 16000000 		.4byte	.LVL201
 14015 0ac8 42000000 		.4byte	.LVL206
 14016 0acc 0100     		.2byte	0x1
 14017 0ace 55       		.byte	0x55
 14018 0acf 42000000 		.4byte	.LVL206
 14019 0ad3 4E000000 		.4byte	.LVL208
 14020 0ad7 0400     		.2byte	0x4
 14021 0ad9 F3       		.byte	0xf3
 14022 0ada 01       		.uleb128 0x1
 14023 0adb 51       		.byte	0x51
 14024 0adc 9F       		.byte	0x9f
 14025 0add 4E000000 		.4byte	.LVL208
 14026 0ae1 58000000 		.4byte	.LVL210
 14027 0ae5 0100     		.2byte	0x1
 14028 0ae7 55       		.byte	0x55
 14029 0ae8 58000000 		.4byte	.LVL210
 14030 0aec 88000000 		.4byte	.LVL216
 14031 0af0 0400     		.2byte	0x4
 14032 0af2 F3       		.byte	0xf3
ARM GAS  C:\Users\jo\AppData\Local\Temp\ccCSMiNu.s 			page 250


 14033 0af3 01       		.uleb128 0x1
 14034 0af4 51       		.byte	0x51
 14035 0af5 9F       		.byte	0x9f
 14036 0af6 88000000 		.4byte	.LVL216
 14037 0afa 8E000000 		.4byte	.LVL218
 14038 0afe 0100     		.2byte	0x1
 14039 0b00 51       		.byte	0x51
 14040 0b01 8E000000 		.4byte	.LVL218
 14041 0b05 A0000000 		.4byte	.LVL223
 14042 0b09 0100     		.2byte	0x1
 14043 0b0b 55       		.byte	0x55
 14044 0b0c A0000000 		.4byte	.LVL223
 14045 0b10 AC000000 		.4byte	.LVL225
 14046 0b14 0400     		.2byte	0x4
 14047 0b16 F3       		.byte	0xf3
 14048 0b17 01       		.uleb128 0x1
 14049 0b18 51       		.byte	0x51
 14050 0b19 9F       		.byte	0x9f
 14051 0b1a AC000000 		.4byte	.LVL225
 14052 0b1e C4000000 		.4byte	.LVL228
 14053 0b22 0100     		.2byte	0x1
 14054 0b24 55       		.byte	0x55
 14055 0b25 C4000000 		.4byte	.LVL228
 14056 0b29 E8000000 		.4byte	.LFE260
 14057 0b2d 0400     		.2byte	0x4
 14058 0b2f F3       		.byte	0xf3
 14059 0b30 01       		.uleb128 0x1
 14060 0b31 51       		.byte	0x51
 14061 0b32 9F       		.byte	0x9f
 14062 0b33 00000000 		.4byte	0
 14063 0b37 00000000 		.4byte	0
 14064              	.LLST62:
 14065 0b3b 00000000 		.4byte	.LVL200
 14066 0b3f 16000000 		.4byte	.LVL201
 14067 0b43 0100     		.2byte	0x1
 14068 0b45 52       		.byte	0x52
 14069 0b46 16000000 		.4byte	.LVL201
 14070 0b4a 4A000000 		.4byte	.LVL207
 14071 0b4e 0100     		.2byte	0x1
 14072 0b50 56       		.byte	0x56
 14073 0b51 4A000000 		.4byte	.LVL207
 14074 0b55 4D000000 		.4byte	.LVL208-1
 14075 0b59 0100     		.2byte	0x1
 14076 0b5b 50       		.byte	0x50
 14077 0b5c 4D000000 		.4byte	.LVL208-1
 14078 0b60 4E000000 		.4byte	.LVL208
 14079 0b64 0400     		.2byte	0x4
 14080 0b66 F3       		.byte	0xf3
 14081 0b67 01       		.uleb128 0x1
 14082 0b68 52       		.byte	0x52
 14083 0b69 9F       		.byte	0x9f
 14084 0b6a 4E000000 		.4byte	.LVL208
 14085 0b6e 70000000 		.4byte	.LVL213
 14086 0b72 0100     		.2byte	0x1
 14087 0b74 56       		.byte	0x56
 14088 0b75 70000000 		.4byte	.LVL213
 14089 0b79 73000000 		.4byte	.LVL214-1
ARM GAS  C:\Users\jo\AppData\Local\Temp\ccCSMiNu.s 			page 251


 14090 0b7d 0200     		.2byte	0x2
 14091 0b7f 75       		.byte	0x75
 14092 0b80 00       		.sleb128 0
 14093 0b81 73000000 		.4byte	.LVL214-1
 14094 0b85 88000000 		.4byte	.LVL216
 14095 0b89 0400     		.2byte	0x4
 14096 0b8b F3       		.byte	0xf3
 14097 0b8c 01       		.uleb128 0x1
 14098 0b8d 52       		.byte	0x52
 14099 0b8e 9F       		.byte	0x9f
 14100 0b8f 88000000 		.4byte	.LVL216
 14101 0b93 90000000 		.4byte	.LVL219
 14102 0b97 0100     		.2byte	0x1
 14103 0b99 52       		.byte	0x52
 14104 0b9a 90000000 		.4byte	.LVL219
 14105 0b9e A0000000 		.4byte	.LVL223
 14106 0ba2 0100     		.2byte	0x1
 14107 0ba4 56       		.byte	0x56
 14108 0ba5 A0000000 		.4byte	.LVL223
 14109 0ba9 AC000000 		.4byte	.LVL225
 14110 0bad 0400     		.2byte	0x4
 14111 0baf F3       		.byte	0xf3
 14112 0bb0 01       		.uleb128 0x1
 14113 0bb1 52       		.byte	0x52
 14114 0bb2 9F       		.byte	0x9f
 14115 0bb3 AC000000 		.4byte	.LVL225
 14116 0bb7 C4000000 		.4byte	.LVL228
 14117 0bbb 0100     		.2byte	0x1
 14118 0bbd 56       		.byte	0x56
 14119 0bbe C4000000 		.4byte	.LVL228
 14120 0bc2 E8000000 		.4byte	.LFE260
 14121 0bc6 0400     		.2byte	0x4
 14122 0bc8 F3       		.byte	0xf3
 14123 0bc9 01       		.uleb128 0x1
 14124 0bca 52       		.byte	0x52
 14125 0bcb 9F       		.byte	0x9f
 14126 0bcc 00000000 		.4byte	0
 14127 0bd0 00000000 		.4byte	0
 14128              	.LLST63:
 14129 0bd4 00000000 		.4byte	.LVL200
 14130 0bd8 16000000 		.4byte	.LVL201
 14131 0bdc 0100     		.2byte	0x1
 14132 0bde 53       		.byte	0x53
 14133 0bdf 16000000 		.4byte	.LVL201
 14134 0be3 4A000000 		.4byte	.LVL207
 14135 0be7 0100     		.2byte	0x1
 14136 0be9 57       		.byte	0x57
 14137 0bea 4A000000 		.4byte	.LVL207
 14138 0bee 4E000000 		.4byte	.LVL208
 14139 0bf2 0400     		.2byte	0x4
 14140 0bf4 F3       		.byte	0xf3
 14141 0bf5 01       		.uleb128 0x1
 14142 0bf6 53       		.byte	0x53
 14143 0bf7 9F       		.byte	0x9f
 14144 0bf8 4E000000 		.4byte	.LVL208
 14145 0bfc 64000000 		.4byte	.LVL211
 14146 0c00 0100     		.2byte	0x1
ARM GAS  C:\Users\jo\AppData\Local\Temp\ccCSMiNu.s 			page 252


 14147 0c02 57       		.byte	0x57
 14148 0c03 64000000 		.4byte	.LVL211
 14149 0c07 88000000 		.4byte	.LVL216
 14150 0c0b 0400     		.2byte	0x4
 14151 0c0d F3       		.byte	0xf3
 14152 0c0e 01       		.uleb128 0x1
 14153 0c0f 53       		.byte	0x53
 14154 0c10 9F       		.byte	0x9f
 14155 0c11 88000000 		.4byte	.LVL216
 14156 0c15 8A000000 		.4byte	.LVL217
 14157 0c19 0100     		.2byte	0x1
 14158 0c1b 53       		.byte	0x53
 14159 0c1c 8A000000 		.4byte	.LVL217
 14160 0c20 A0000000 		.4byte	.LVL223
 14161 0c24 0100     		.2byte	0x1
 14162 0c26 57       		.byte	0x57
 14163 0c27 A0000000 		.4byte	.LVL223
 14164 0c2b AC000000 		.4byte	.LVL225
 14165 0c2f 0400     		.2byte	0x4
 14166 0c31 F3       		.byte	0xf3
 14167 0c32 01       		.uleb128 0x1
 14168 0c33 53       		.byte	0x53
 14169 0c34 9F       		.byte	0x9f
 14170 0c35 AC000000 		.4byte	.LVL225
 14171 0c39 C4000000 		.4byte	.LVL228
 14172 0c3d 0100     		.2byte	0x1
 14173 0c3f 57       		.byte	0x57
 14174 0c40 C4000000 		.4byte	.LVL228
 14175 0c44 E8000000 		.4byte	.LFE260
 14176 0c48 0400     		.2byte	0x4
 14177 0c4a F3       		.byte	0xf3
 14178 0c4b 01       		.uleb128 0x1
 14179 0c4c 53       		.byte	0x53
 14180 0c4d 9F       		.byte	0x9f
 14181 0c4e 00000000 		.4byte	0
 14182 0c52 00000000 		.4byte	0
 14183              	.LLST64:
 14184 0c56 00000000 		.4byte	.LVL200
 14185 0c5a 4A000000 		.4byte	.LVL207
 14186 0c5e 0200     		.2byte	0x2
 14187 0c60 91       		.byte	0x91
 14188 0c61 00       		.sleb128 0
 14189 0c62 4A000000 		.4byte	.LVL207
 14190 0c66 4E000000 		.4byte	.LVL208
 14191 0c6a 0200     		.2byte	0x2
 14192 0c6c 7D       		.byte	0x7d
 14193 0c6d 00       		.sleb128 0
 14194 0c6e 4E000000 		.4byte	.LVL208
 14195 0c72 86000000 		.4byte	.LVL215
 14196 0c76 0200     		.2byte	0x2
 14197 0c78 91       		.byte	0x91
 14198 0c79 00       		.sleb128 0
 14199 0c7a 86000000 		.4byte	.LVL215
 14200 0c7e 88000000 		.4byte	.LVL216
 14201 0c82 0200     		.2byte	0x2
 14202 0c84 7D       		.byte	0x7d
 14203 0c85 00       		.sleb128 0
ARM GAS  C:\Users\jo\AppData\Local\Temp\ccCSMiNu.s 			page 253


 14204 0c86 88000000 		.4byte	.LVL216
 14205 0c8a A8000000 		.4byte	.LVL224
 14206 0c8e 0200     		.2byte	0x2
 14207 0c90 91       		.byte	0x91
 14208 0c91 00       		.sleb128 0
 14209 0c92 A8000000 		.4byte	.LVL224
 14210 0c96 AC000000 		.4byte	.LVL225
 14211 0c9a 0200     		.2byte	0x2
 14212 0c9c 7D       		.byte	0x7d
 14213 0c9d 00       		.sleb128 0
 14214 0c9e AC000000 		.4byte	.LVL225
 14215 0ca2 CA000000 		.4byte	.LVL229
 14216 0ca6 0200     		.2byte	0x2
 14217 0ca8 91       		.byte	0x91
 14218 0ca9 00       		.sleb128 0
 14219 0caa CA000000 		.4byte	.LVL229
 14220 0cae E8000000 		.4byte	.LFE260
 14221 0cb2 0200     		.2byte	0x2
 14222 0cb4 7D       		.byte	0x7d
 14223 0cb5 00       		.sleb128 0
 14224 0cb6 00000000 		.4byte	0
 14225 0cba 00000000 		.4byte	0
 14226              	.LLST65:
 14227 0cbe 56000000 		.4byte	.LVL209
 14228 0cc2 6E000000 		.4byte	.LVL212
 14229 0cc6 0100     		.2byte	0x1
 14230 0cc8 50       		.byte	0x50
 14231 0cc9 6E000000 		.4byte	.LVL212
 14232 0ccd 86000000 		.4byte	.LVL215
 14233 0cd1 0100     		.2byte	0x1
 14234 0cd3 55       		.byte	0x55
 14235 0cd4 A0000000 		.4byte	.LVL223
 14236 0cd8 A8000000 		.4byte	.LVL224
 14237 0cdc 0100     		.2byte	0x1
 14238 0cde 55       		.byte	0x55
 14239 0cdf A8000000 		.4byte	.LVL224
 14240 0ce3 AB000000 		.4byte	.LVL225-1
 14241 0ce7 0100     		.2byte	0x1
 14242 0ce9 50       		.byte	0x50
 14243 0cea C4000000 		.4byte	.LVL228
 14244 0cee CA000000 		.4byte	.LVL229
 14245 0cf2 0100     		.2byte	0x1
 14246 0cf4 55       		.byte	0x55
 14247 0cf5 00000000 		.4byte	0
 14248 0cf9 00000000 		.4byte	0
 14249              	.LLST66:
 14250 0cfd 1A000000 		.4byte	.LVL202
 14251 0d01 4A000000 		.4byte	.LVL207
 14252 0d05 0100     		.2byte	0x1
 14253 0d07 54       		.byte	0x54
 14254 0d08 4A000000 		.4byte	.LVL207
 14255 0d0c 4E000000 		.4byte	.LVL208
 14256 0d10 0400     		.2byte	0x4
 14257 0d12 F3       		.byte	0xf3
 14258 0d13 01       		.uleb128 0x1
 14259 0d14 50       		.byte	0x50
 14260 0d15 9F       		.byte	0x9f
ARM GAS  C:\Users\jo\AppData\Local\Temp\ccCSMiNu.s 			page 254


 14261 0d16 4E000000 		.4byte	.LVL208
 14262 0d1a 86000000 		.4byte	.LVL215
 14263 0d1e 0100     		.2byte	0x1
 14264 0d20 54       		.byte	0x54
 14265 0d21 86000000 		.4byte	.LVL215
 14266 0d25 87000000 		.4byte	.LVL216-1
 14267 0d29 0100     		.2byte	0x1
 14268 0d2b 50       		.byte	0x50
 14269 0d2c 87000000 		.4byte	.LVL216-1
 14270 0d30 88000000 		.4byte	.LVL216
 14271 0d34 0400     		.2byte	0x4
 14272 0d36 F3       		.byte	0xf3
 14273 0d37 01       		.uleb128 0x1
 14274 0d38 50       		.byte	0x50
 14275 0d39 9F       		.byte	0x9f
 14276 0d3a A0000000 		.4byte	.LVL223
 14277 0d3e A8000000 		.4byte	.LVL224
 14278 0d42 0100     		.2byte	0x1
 14279 0d44 54       		.byte	0x54
 14280 0d45 A8000000 		.4byte	.LVL224
 14281 0d49 AC000000 		.4byte	.LVL225
 14282 0d4d 0400     		.2byte	0x4
 14283 0d4f F3       		.byte	0xf3
 14284 0d50 01       		.uleb128 0x1
 14285 0d51 50       		.byte	0x50
 14286 0d52 9F       		.byte	0x9f
 14287 0d53 C4000000 		.4byte	.LVL228
 14288 0d57 CA000000 		.4byte	.LVL229
 14289 0d5b 0100     		.2byte	0x1
 14290 0d5d 54       		.byte	0x54
 14291 0d5e CA000000 		.4byte	.LVL229
 14292 0d62 E8000000 		.4byte	.LFE260
 14293 0d66 0400     		.2byte	0x4
 14294 0d68 F3       		.byte	0xf3
 14295 0d69 01       		.uleb128 0x1
 14296 0d6a 50       		.byte	0x50
 14297 0d6b 9F       		.byte	0x9f
 14298 0d6c 00000000 		.4byte	0
 14299 0d70 00000000 		.4byte	0
 14300              	.LLST67:
 14301 0d74 70000000 		.4byte	.LVL213
 14302 0d78 86000000 		.4byte	.LVL215
 14303 0d7c 0100     		.2byte	0x1
 14304 0d7e 56       		.byte	0x56
 14305 0d7f 86000000 		.4byte	.LVL215
 14306 0d83 87000000 		.4byte	.LVL216-1
 14307 0d87 0100     		.2byte	0x1
 14308 0d89 52       		.byte	0x52
 14309 0d8a A0000000 		.4byte	.LVL223
 14310 0d8e A8000000 		.4byte	.LVL224
 14311 0d92 0100     		.2byte	0x1
 14312 0d94 56       		.byte	0x56
 14313 0d95 C4000000 		.4byte	.LVL228
 14314 0d99 CA000000 		.4byte	.LVL229
 14315 0d9d 0100     		.2byte	0x1
 14316 0d9f 56       		.byte	0x56
 14317 0da0 00000000 		.4byte	0
ARM GAS  C:\Users\jo\AppData\Local\Temp\ccCSMiNu.s 			page 255


 14318 0da4 00000000 		.4byte	0
 14319              	.LLST68:
 14320 0da8 30000000 		.4byte	.LVL203
 14321 0dac 36000000 		.4byte	.LVL204
 14322 0db0 0600     		.2byte	0x6
 14323 0db2 03       		.byte	0x3
 14324 0db3 B4020000 		.4byte	.LC21
 14325 0db7 9F       		.byte	0x9f
 14326 0db8 00000000 		.4byte	0
 14327 0dbc 00000000 		.4byte	0
 14328              	.LLST69:
 14329 0dc0 98000000 		.4byte	.LVL221
 14330 0dc4 A0000000 		.4byte	.LVL223
 14331 0dc8 0600     		.2byte	0x6
 14332 0dca 03       		.byte	0x3
 14333 0dcb 70020000 		.4byte	.LC19
 14334 0dcf 9F       		.byte	0x9f
 14335 0dd0 00000000 		.4byte	0
 14336 0dd4 00000000 		.4byte	0
 14337              	.LLST70:
 14338 0dd8 BC000000 		.4byte	.LVL226
 14339 0ddc C4000000 		.4byte	.LVL228
 14340 0de0 0600     		.2byte	0x6
 14341 0de2 03       		.byte	0x3
 14342 0de3 94020000 		.4byte	.LC20
 14343 0de7 9F       		.byte	0x9f
 14344 0de8 00000000 		.4byte	0
 14345 0dec 00000000 		.4byte	0
 14346              	.LLST71:
 14347 0df0 00000000 		.4byte	.LVL230
 14348 0df4 0C000000 		.4byte	.LVL231
 14349 0df8 0100     		.2byte	0x1
 14350 0dfa 50       		.byte	0x50
 14351 0dfb 0C000000 		.4byte	.LVL231
 14352 0dff 18000000 		.4byte	.LVL232
 14353 0e03 0400     		.2byte	0x4
 14354 0e05 F3       		.byte	0xf3
 14355 0e06 01       		.uleb128 0x1
 14356 0e07 50       		.byte	0x50
 14357 0e08 9F       		.byte	0x9f
 14358 0e09 18000000 		.4byte	.LVL232
 14359 0e0d 2B000000 		.4byte	.LVL233-1
 14360 0e11 0100     		.2byte	0x1
 14361 0e13 50       		.byte	0x50
 14362 0e14 2B000000 		.4byte	.LVL233-1
 14363 0e18 4E000000 		.4byte	.LVL235
 14364 0e1c 0100     		.2byte	0x1
 14365 0e1e 55       		.byte	0x55
 14366 0e1f 4E000000 		.4byte	.LVL235
 14367 0e23 57000000 		.4byte	.LVL236-1
 14368 0e27 0100     		.2byte	0x1
 14369 0e29 50       		.byte	0x50
 14370 0e2a 57000000 		.4byte	.LVL236-1
 14371 0e2e 74000000 		.4byte	.LFE268
 14372 0e32 0100     		.2byte	0x1
 14373 0e34 55       		.byte	0x55
 14374 0e35 00000000 		.4byte	0
ARM GAS  C:\Users\jo\AppData\Local\Temp\ccCSMiNu.s 			page 256


 14375 0e39 00000000 		.4byte	0
 14376              	.LLST72:
 14377 0e3d 18000000 		.4byte	.LVL232
 14378 0e41 2B000000 		.4byte	.LVL233-1
 14379 0e45 0100     		.2byte	0x1
 14380 0e47 50       		.byte	0x50
 14381 0e48 2B000000 		.4byte	.LVL233-1
 14382 0e4c 4E000000 		.4byte	.LVL235
 14383 0e50 0100     		.2byte	0x1
 14384 0e52 55       		.byte	0x55
 14385 0e53 4E000000 		.4byte	.LVL235
 14386 0e57 57000000 		.4byte	.LVL236-1
 14387 0e5b 0100     		.2byte	0x1
 14388 0e5d 50       		.byte	0x50
 14389 0e5e 57000000 		.4byte	.LVL236-1
 14390 0e62 74000000 		.4byte	.LFE268
 14391 0e66 0100     		.2byte	0x1
 14392 0e68 55       		.byte	0x55
 14393 0e69 00000000 		.4byte	0
 14394 0e6d 00000000 		.4byte	0
 14395              	.LLST74:
 14396 0e71 00000000 		.4byte	.LVL238
 14397 0e75 0A000000 		.4byte	.LVL239
 14398 0e79 0100     		.2byte	0x1
 14399 0e7b 50       		.byte	0x50
 14400 0e7c 0A000000 		.4byte	.LVL239
 14401 0e80 A8000000 		.4byte	.LFE269
 14402 0e84 0400     		.2byte	0x4
 14403 0e86 F3       		.byte	0xf3
 14404 0e87 01       		.uleb128 0x1
 14405 0e88 50       		.byte	0x50
 14406 0e89 9F       		.byte	0x9f
 14407 0e8a 00000000 		.4byte	0
 14408 0e8e 00000000 		.4byte	0
 14409              	.LLST75:
 14410 0e92 00000000 		.4byte	.LVL238
 14411 0e96 0F000000 		.4byte	.LVL240-1
 14412 0e9a 0100     		.2byte	0x1
 14413 0e9c 51       		.byte	0x51
 14414 0e9d 0F000000 		.4byte	.LVL240-1
 14415 0ea1 A8000000 		.4byte	.LFE269
 14416 0ea5 0100     		.2byte	0x1
 14417 0ea7 56       		.byte	0x56
 14418 0ea8 00000000 		.4byte	0
 14419 0eac 00000000 		.4byte	0
 14420              	.LLST76:
 14421 0eb0 10000000 		.4byte	.LVL240
 14422 0eb4 30000000 		.4byte	.LVL242
 14423 0eb8 0100     		.2byte	0x1
 14424 0eba 50       		.byte	0x50
 14425 0ebb 30000000 		.4byte	.LVL242
 14426 0ebf 60000000 		.4byte	.LVL247
 14427 0ec3 0100     		.2byte	0x1
 14428 0ec5 54       		.byte	0x54
 14429 0ec6 60000000 		.4byte	.LVL247
 14430 0eca 6A000000 		.4byte	.LVL249
 14431 0ece 0100     		.2byte	0x1
ARM GAS  C:\Users\jo\AppData\Local\Temp\ccCSMiNu.s 			page 257


 14432 0ed0 50       		.byte	0x50
 14433 0ed1 6A000000 		.4byte	.LVL249
 14434 0ed5 88000000 		.4byte	.LVL253
 14435 0ed9 0100     		.2byte	0x1
 14436 0edb 54       		.byte	0x54
 14437 0edc 88000000 		.4byte	.LVL253
 14438 0ee0 8C000000 		.4byte	.LVL254
 14439 0ee4 0100     		.2byte	0x1
 14440 0ee6 50       		.byte	0x50
 14441 0ee7 8C000000 		.4byte	.LVL254
 14442 0eeb A8000000 		.4byte	.LFE269
 14443 0eef 0100     		.2byte	0x1
 14444 0ef1 54       		.byte	0x54
 14445 0ef2 00000000 		.4byte	0
 14446 0ef6 00000000 		.4byte	0
 14447              	.LLST77:
 14448 0efa 2A000000 		.4byte	.LVL241
 14449 0efe 44000000 		.4byte	.LVL245
 14450 0f02 0100     		.2byte	0x1
 14451 0f04 55       		.byte	0x55
 14452 0f05 00000000 		.4byte	0
 14453 0f09 00000000 		.4byte	0
 14454              	.LLST78:
 14455 0f0d 76000000 		.4byte	.LVL250
 14456 0f11 7C000000 		.4byte	.LVL251
 14457 0f15 0600     		.2byte	0x6
 14458 0f17 03       		.byte	0x3
 14459 0f18 D4020000 		.4byte	.LC22
 14460 0f1c 9F       		.byte	0x9f
 14461 0f1d 00000000 		.4byte	0
 14462 0f21 00000000 		.4byte	0
 14463              	.LLST79:
 14464 0f25 00000000 		.4byte	.LVL256
 14465 0f29 10000000 		.4byte	.LVL257
 14466 0f2d 0100     		.2byte	0x1
 14467 0f2f 50       		.byte	0x50
 14468 0f30 10000000 		.4byte	.LVL257
 14469 0f34 66000000 		.4byte	.LVL266
 14470 0f38 0100     		.2byte	0x1
 14471 0f3a 54       		.byte	0x54
 14472 0f3b 66000000 		.4byte	.LVL266
 14473 0f3f 69000000 		.4byte	.LVL267-1
 14474 0f43 0100     		.2byte	0x1
 14475 0f45 50       		.byte	0x50
 14476 0f46 69000000 		.4byte	.LVL267-1
 14477 0f4a 6A000000 		.4byte	.LVL267
 14478 0f4e 0400     		.2byte	0x4
 14479 0f50 F3       		.byte	0xf3
 14480 0f51 01       		.uleb128 0x1
 14481 0f52 50       		.byte	0x50
 14482 0f53 9F       		.byte	0x9f
 14483 0f54 6A000000 		.4byte	.LVL267
 14484 0f58 9C000000 		.4byte	.LFE270
 14485 0f5c 0100     		.2byte	0x1
 14486 0f5e 54       		.byte	0x54
 14487 0f5f 00000000 		.4byte	0
 14488 0f63 00000000 		.4byte	0
ARM GAS  C:\Users\jo\AppData\Local\Temp\ccCSMiNu.s 			page 258


 14489              	.LLST80:
 14490 0f67 1C000000 		.4byte	.LVL258
 14491 0f6b 22000000 		.4byte	.LVL259
 14492 0f6f 0600     		.2byte	0x6
 14493 0f71 03       		.byte	0x3
 14494 0f72 FC020000 		.4byte	.LC23
 14495 0f76 9F       		.byte	0x9f
 14496 0f77 00000000 		.4byte	0
 14497 0f7b 00000000 		.4byte	0
 14498              	.LLST81:
 14499 0f7f 48000000 		.4byte	.LVL262
 14500 0f83 4E000000 		.4byte	.LVL263
 14501 0f87 0600     		.2byte	0x6
 14502 0f89 03       		.byte	0x3
 14503 0f8a 68030000 		.4byte	.LC25
 14504 0f8e 9F       		.byte	0x9f
 14505 0f8f 00000000 		.4byte	0
 14506 0f93 00000000 		.4byte	0
 14507              	.LLST82:
 14508 0f97 00000000 		.4byte	.LVL270
 14509 0f9b 0E000000 		.4byte	.LVL271
 14510 0f9f 0100     		.2byte	0x1
 14511 0fa1 50       		.byte	0x50
 14512 0fa2 0E000000 		.4byte	.LVL271
 14513 0fa6 E0000000 		.4byte	.LFE271
 14514 0faa 0100     		.2byte	0x1
 14515 0fac 56       		.byte	0x56
 14516 0fad 00000000 		.4byte	0
 14517 0fb1 00000000 		.4byte	0
 14518              	.LLST83:
 14519 0fb5 2A000000 		.4byte	.LVL274
 14520 0fb9 4C000000 		.4byte	.LVL278
 14521 0fbd 0100     		.2byte	0x1
 14522 0fbf 55       		.byte	0x55
 14523 0fc0 00000000 		.4byte	0
 14524 0fc4 00000000 		.4byte	0
 14525              	.LLST84:
 14526 0fc8 76000000 		.4byte	.LVL282
 14527 0fcc A8000000 		.4byte	.LVL287
 14528 0fd0 0100     		.2byte	0x1
 14529 0fd2 54       		.byte	0x54
 14530 0fd3 00000000 		.4byte	0
 14531 0fd7 00000000 		.4byte	0
 14532              	.LLST85:
 14533 0fdb 8A000000 		.4byte	.LVL283
 14534 0fdf 90000000 		.4byte	.LVL284
 14535 0fe3 0600     		.2byte	0x6
 14536 0fe5 03       		.byte	0x3
 14537 0fe6 A4030000 		.4byte	.LC26
 14538 0fea 9F       		.byte	0x9f
 14539 0feb 00000000 		.4byte	0
 14540 0fef 00000000 		.4byte	0
 14541              	.LLST86:
 14542 0ff3 00000000 		.4byte	.LVL293
 14543 0ff7 0C000000 		.4byte	.LVL295
 14544 0ffb 0100     		.2byte	0x1
 14545 0ffd 50       		.byte	0x50
ARM GAS  C:\Users\jo\AppData\Local\Temp\ccCSMiNu.s 			page 259


 14546 0ffe 0C000000 		.4byte	.LVL295
 14547 1002 44000000 		.4byte	.LVL300
 14548 1006 0100     		.2byte	0x1
 14549 1008 54       		.byte	0x54
 14550 1009 44000000 		.4byte	.LVL300
 14551 100d 4A000000 		.4byte	.LVL301
 14552 1011 0400     		.2byte	0x4
 14553 1013 F3       		.byte	0xf3
 14554 1014 01       		.uleb128 0x1
 14555 1015 50       		.byte	0x50
 14556 1016 9F       		.byte	0x9f
 14557 1017 4A000000 		.4byte	.LVL301
 14558 101b 54000000 		.4byte	.LVL304
 14559 101f 0100     		.2byte	0x1
 14560 1021 54       		.byte	0x54
 14561 1022 54000000 		.4byte	.LVL304
 14562 1026 9C000000 		.4byte	.LFE266
 14563 102a 0400     		.2byte	0x4
 14564 102c F3       		.byte	0xf3
 14565 102d 01       		.uleb128 0x1
 14566 102e 50       		.byte	0x50
 14567 102f 9F       		.byte	0x9f
 14568 1030 00000000 		.4byte	0
 14569 1034 00000000 		.4byte	0
 14570              	.LLST87:
 14571 1038 00000000 		.4byte	.LVL293
 14572 103c 13000000 		.4byte	.LVL296-1
 14573 1040 0100     		.2byte	0x1
 14574 1042 51       		.byte	0x51
 14575 1043 13000000 		.4byte	.LVL296-1
 14576 1047 9C000000 		.4byte	.LFE266
 14577 104b 0100     		.2byte	0x1
 14578 104d 58       		.byte	0x58
 14579 104e 00000000 		.4byte	0
 14580 1052 00000000 		.4byte	0
 14581              	.LLST88:
 14582 1056 00000000 		.4byte	.LVL293
 14583 105a 13000000 		.4byte	.LVL296-1
 14584 105e 0100     		.2byte	0x1
 14585 1060 52       		.byte	0x52
 14586 1061 13000000 		.4byte	.LVL296-1
 14587 1065 9C000000 		.4byte	.LFE266
 14588 1069 0400     		.2byte	0x4
 14589 106b F3       		.byte	0xf3
 14590 106c 01       		.uleb128 0x1
 14591 106d 52       		.byte	0x52
 14592 106e 9F       		.byte	0x9f
 14593 106f 00000000 		.4byte	0
 14594 1073 00000000 		.4byte	0
 14595              	.LLST89:
 14596 1077 1E000000 		.4byte	.LVL297
 14597 107b 29000000 		.4byte	.LVL298-1
 14598 107f 0100     		.2byte	0x1
 14599 1081 50       		.byte	0x50
 14600 1082 29000000 		.4byte	.LVL298-1
 14601 1086 44000000 		.4byte	.LVL300
 14602 108a 0100     		.2byte	0x1
ARM GAS  C:\Users\jo\AppData\Local\Temp\ccCSMiNu.s 			page 260


 14603 108c 56       		.byte	0x56
 14604 108d 4E000000 		.4byte	.LVL302
 14605 1091 52000000 		.4byte	.LVL303
 14606 1095 0100     		.2byte	0x1
 14607 1097 50       		.byte	0x50
 14608 1098 52000000 		.4byte	.LVL303
 14609 109c 9C000000 		.4byte	.LFE266
 14610 10a0 0100     		.2byte	0x1
 14611 10a2 56       		.byte	0x56
 14612 10a3 00000000 		.4byte	0
 14613 10a7 00000000 		.4byte	0
 14614              	.LLST90:
 14615 10ab 0A000000 		.4byte	.LVL294
 14616 10af 0C000000 		.4byte	.LVL295
 14617 10b3 0100     		.2byte	0x1
 14618 10b5 50       		.byte	0x50
 14619 10b6 0C000000 		.4byte	.LVL295
 14620 10ba 44000000 		.4byte	.LVL300
 14621 10be 0100     		.2byte	0x1
 14622 10c0 54       		.byte	0x54
 14623 10c1 44000000 		.4byte	.LVL300
 14624 10c5 4A000000 		.4byte	.LVL301
 14625 10c9 0400     		.2byte	0x4
 14626 10cb F3       		.byte	0xf3
 14627 10cc 01       		.uleb128 0x1
 14628 10cd 50       		.byte	0x50
 14629 10ce 9F       		.byte	0x9f
 14630 10cf 4A000000 		.4byte	.LVL301
 14631 10d3 54000000 		.4byte	.LVL304
 14632 10d7 0100     		.2byte	0x1
 14633 10d9 54       		.byte	0x54
 14634 10da 54000000 		.4byte	.LVL304
 14635 10de 9C000000 		.4byte	.LFE266
 14636 10e2 0400     		.2byte	0x4
 14637 10e4 F3       		.byte	0xf3
 14638 10e5 01       		.uleb128 0x1
 14639 10e6 50       		.byte	0x50
 14640 10e7 9F       		.byte	0x9f
 14641 10e8 00000000 		.4byte	0
 14642 10ec 00000000 		.4byte	0
 14643              	.LLST91:
 14644 10f0 54000000 		.4byte	.LVL304
 14645 10f4 82000000 		.4byte	.LVL310
 14646 10f8 0100     		.2byte	0x1
 14647 10fa 54       		.byte	0x54
 14648 10fb 00000000 		.4byte	0
 14649 10ff 00000000 		.4byte	0
 14650              	.LLST92:
 14651 1103 00000000 		.4byte	.LVL314
 14652 1107 24000000 		.4byte	.LVL315
 14653 110b 0100     		.2byte	0x1
 14654 110d 50       		.byte	0x50
 14655 110e 24000000 		.4byte	.LVL315
 14656 1112 48000000 		.4byte	.LVL320
 14657 1116 0100     		.2byte	0x1
 14658 1118 54       		.byte	0x54
 14659 1119 48000000 		.4byte	.LVL320
ARM GAS  C:\Users\jo\AppData\Local\Temp\ccCSMiNu.s 			page 261


 14660 111d 58000000 		.4byte	.LVL321
 14661 1121 0100     		.2byte	0x1
 14662 1123 50       		.byte	0x50
 14663 1124 58000000 		.4byte	.LVL321
 14664 1128 CA000000 		.4byte	.LVL330
 14665 112c 0100     		.2byte	0x1
 14666 112e 54       		.byte	0x54
 14667 112f CA000000 		.4byte	.LVL330
 14668 1133 CE000000 		.4byte	.LVL331
 14669 1137 0400     		.2byte	0x4
 14670 1139 F3       		.byte	0xf3
 14671 113a 01       		.uleb128 0x1
 14672 113b 50       		.byte	0x50
 14673 113c 9F       		.byte	0x9f
 14674 113d CE000000 		.4byte	.LVL331
 14675 1141 FE000000 		.4byte	.LVL335
 14676 1145 0100     		.2byte	0x1
 14677 1147 54       		.byte	0x54
 14678 1148 FE000000 		.4byte	.LVL335
 14679 114c 01010000 		.4byte	.LVL336-1
 14680 1150 0200     		.2byte	0x2
 14681 1152 70       		.byte	0x70
 14682 1153 24       		.sleb128 36
 14683 1154 01010000 		.4byte	.LVL336-1
 14684 1158 02010000 		.4byte	.LVL336
 14685 115c 0400     		.2byte	0x4
 14686 115e F3       		.byte	0xf3
 14687 115f 01       		.uleb128 0x1
 14688 1160 50       		.byte	0x50
 14689 1161 9F       		.byte	0x9f
 14690 1162 02010000 		.4byte	.LVL336
 14691 1166 24010000 		.4byte	.LFE273
 14692 116a 0100     		.2byte	0x1
 14693 116c 54       		.byte	0x54
 14694 116d 00000000 		.4byte	0
 14695 1171 00000000 		.4byte	0
 14696              	.LLST93:
 14697 1175 2C000000 		.4byte	.LVL316
 14698 1179 34000000 		.4byte	.LVL318
 14699 117d 0600     		.2byte	0x6
 14700 117f 03       		.byte	0x3
 14701 1180 D4030000 		.4byte	.LC27
 14702 1184 9F       		.byte	0x9f
 14703 1185 00000000 		.4byte	0
 14704 1189 00000000 		.4byte	0
 14705              	.LLST94:
 14706 118d 60000000 		.4byte	.LVL322
 14707 1191 68000000 		.4byte	.LVL324
 14708 1195 0600     		.2byte	0x6
 14709 1197 03       		.byte	0x3
 14710 1198 F4030000 		.4byte	.LC28
 14711 119c 9F       		.byte	0x9f
 14712 119d 00000000 		.4byte	0
 14713 11a1 00000000 		.4byte	0
 14714              	.LLST95:
 14715 11a5 E4000000 		.4byte	.LVL332
 14716 11a9 EC000000 		.4byte	.LVL334
ARM GAS  C:\Users\jo\AppData\Local\Temp\ccCSMiNu.s 			page 262


 14717 11ad 0600     		.2byte	0x6
 14718 11af 03       		.byte	0x3
 14719 11b0 14040000 		.4byte	.LC29
 14720 11b4 9F       		.byte	0x9f
 14721 11b5 00000000 		.4byte	0
 14722 11b9 00000000 		.4byte	0
 14723              	.LLST96:
 14724 11bd 00000000 		.4byte	.LVL337
 14725 11c1 26000000 		.4byte	.LVL338
 14726 11c5 0100     		.2byte	0x1
 14727 11c7 50       		.byte	0x50
 14728 11c8 26000000 		.4byte	.LVL338
 14729 11cc 3A000000 		.4byte	.LVL340
 14730 11d0 0100     		.2byte	0x1
 14731 11d2 54       		.byte	0x54
 14732 11d3 3A000000 		.4byte	.LVL340
 14733 11d7 3E000000 		.4byte	.LVL341
 14734 11db 0400     		.2byte	0x4
 14735 11dd F3       		.byte	0xf3
 14736 11de 01       		.uleb128 0x1
 14737 11df 50       		.byte	0x50
 14738 11e0 9F       		.byte	0x9f
 14739 11e1 3E000000 		.4byte	.LVL341
 14740 11e5 44000000 		.4byte	.LVL342
 14741 11e9 0100     		.2byte	0x1
 14742 11eb 50       		.byte	0x50
 14743 11ec 44000000 		.4byte	.LVL342
 14744 11f0 48000000 		.4byte	.LVL343
 14745 11f4 0400     		.2byte	0x4
 14746 11f6 F3       		.byte	0xf3
 14747 11f7 01       		.uleb128 0x1
 14748 11f8 50       		.byte	0x50
 14749 11f9 9F       		.byte	0x9f
 14750 11fa 48000000 		.4byte	.LVL343
 14751 11fe 4A000000 		.4byte	.LVL344
 14752 1202 0100     		.2byte	0x1
 14753 1204 50       		.byte	0x50
 14754 1205 4A000000 		.4byte	.LVL344
 14755 1209 5A000000 		.4byte	.LVL346
 14756 120d 0100     		.2byte	0x1
 14757 120f 54       		.byte	0x54
 14758 1210 5A000000 		.4byte	.LVL346
 14759 1214 62000000 		.4byte	.LFE274
 14760 1218 0400     		.2byte	0x4
 14761 121a F3       		.byte	0xf3
 14762 121b 01       		.uleb128 0x1
 14763 121c 50       		.byte	0x50
 14764 121d 9F       		.byte	0x9f
 14765 121e 00000000 		.4byte	0
 14766 1222 00000000 		.4byte	0
 14767              	.LLST97:
 14768 1226 00000000 		.4byte	.LVL348
 14769 122a 26000000 		.4byte	.LVL349
 14770 122e 0100     		.2byte	0x1
 14771 1230 50       		.byte	0x50
 14772 1231 26000000 		.4byte	.LVL349
 14773 1235 44000000 		.4byte	.LVL353
ARM GAS  C:\Users\jo\AppData\Local\Temp\ccCSMiNu.s 			page 263


 14774 1239 0100     		.2byte	0x1
 14775 123b 54       		.byte	0x54
 14776 123c 44000000 		.4byte	.LVL353
 14777 1240 48000000 		.4byte	.LVL354
 14778 1244 0400     		.2byte	0x4
 14779 1246 F3       		.byte	0xf3
 14780 1247 01       		.uleb128 0x1
 14781 1248 50       		.byte	0x50
 14782 1249 9F       		.byte	0x9f
 14783 124a 48000000 		.4byte	.LVL354
 14784 124e 4A000000 		.4byte	.LVL355
 14785 1252 0100     		.2byte	0x1
 14786 1254 50       		.byte	0x50
 14787 1255 4A000000 		.4byte	.LVL355
 14788 1259 60000000 		.4byte	.LVL357
 14789 125d 0100     		.2byte	0x1
 14790 125f 54       		.byte	0x54
 14791 1260 60000000 		.4byte	.LVL357
 14792 1264 64000000 		.4byte	.LVL358
 14793 1268 0400     		.2byte	0x4
 14794 126a F3       		.byte	0xf3
 14795 126b 01       		.uleb128 0x1
 14796 126c 50       		.byte	0x50
 14797 126d 9F       		.byte	0x9f
 14798 126e 64000000 		.4byte	.LVL358
 14799 1272 70000000 		.4byte	.LVL359
 14800 1276 0100     		.2byte	0x1
 14801 1278 50       		.byte	0x50
 14802 1279 70000000 		.4byte	.LVL359
 14803 127d 76000000 		.4byte	.LVL360
 14804 1281 0100     		.2byte	0x1
 14805 1283 54       		.byte	0x54
 14806 1284 76000000 		.4byte	.LVL360
 14807 1288 7A000000 		.4byte	.LVL361
 14808 128c 0400     		.2byte	0x4
 14809 128e F3       		.byte	0xf3
 14810 128f 01       		.uleb128 0x1
 14811 1290 50       		.byte	0x50
 14812 1291 9F       		.byte	0x9f
 14813 1292 7A000000 		.4byte	.LVL361
 14814 1296 82000000 		.4byte	.LVL362
 14815 129a 0100     		.2byte	0x1
 14816 129c 50       		.byte	0x50
 14817 129d 82000000 		.4byte	.LVL362
 14818 12a1 86000000 		.4byte	.LVL363
 14819 12a5 0400     		.2byte	0x4
 14820 12a7 F3       		.byte	0xf3
 14821 12a8 01       		.uleb128 0x1
 14822 12a9 50       		.byte	0x50
 14823 12aa 9F       		.byte	0x9f
 14824 12ab 86000000 		.4byte	.LVL363
 14825 12af 88000000 		.4byte	.LVL364
 14826 12b3 0100     		.2byte	0x1
 14827 12b5 50       		.byte	0x50
 14828 12b6 88000000 		.4byte	.LVL364
 14829 12ba CA000000 		.4byte	.LVL373
 14830 12be 0100     		.2byte	0x1
ARM GAS  C:\Users\jo\AppData\Local\Temp\ccCSMiNu.s 			page 264


 14831 12c0 54       		.byte	0x54
 14832 12c1 CA000000 		.4byte	.LVL373
 14833 12c5 E0000000 		.4byte	.LFE276
 14834 12c9 0200     		.2byte	0x2
 14835 12cb 73       		.byte	0x73
 14836 12cc 24       		.sleb128 36
 14837 12cd 00000000 		.4byte	0
 14838 12d1 00000000 		.4byte	0
 14839              	.LLST98:
 14840 12d5 2E000000 		.4byte	.LVL350
 14841 12d9 3A000000 		.4byte	.LVL352
 14842 12dd 0600     		.2byte	0x6
 14843 12df 03       		.byte	0x3
 14844 12e0 30040000 		.4byte	.LC30
 14845 12e4 9F       		.byte	0x9f
 14846 12e5 00000000 		.4byte	0
 14847 12e9 00000000 		.4byte	0
 14848              	.LLST99:
 14849 12ed A2000000 		.4byte	.LVL367
 14850 12f1 AE000000 		.4byte	.LVL368
 14851 12f5 0900     		.2byte	0x9
 14852 12f7 73       		.byte	0x73
 14853 12f8 00       		.sleb128 0
 14854 12f9 32       		.byte	0x32
 14855 12fa 1A       		.byte	0x1a
 14856 12fb 48       		.byte	0x48
 14857 12fc 24       		.byte	0x24
 14858 12fd 30       		.byte	0x30
 14859 12fe 2E       		.byte	0x2e
 14860 12ff 9F       		.byte	0x9f
 14861 1300 AE000000 		.4byte	.LVL368
 14862 1304 B0000000 		.4byte	.LVL369
 14863 1308 0B00     		.2byte	0xb
 14864 130a 72       		.byte	0x72
 14865 130b 1C       		.sleb128 28
 14866 130c 94       		.byte	0x94
 14867 130d 01       		.byte	0x1
 14868 130e 32       		.byte	0x32
 14869 130f 1A       		.byte	0x1a
 14870 1310 48       		.byte	0x48
 14871 1311 24       		.byte	0x24
 14872 1312 30       		.byte	0x30
 14873 1313 2E       		.byte	0x2e
 14874 1314 9F       		.byte	0x9f
 14875 1315 BC000000 		.4byte	.LVL370
 14876 1319 C0000000 		.4byte	.LVL371
 14877 131d 0900     		.2byte	0x9
 14878 131f 73       		.byte	0x73
 14879 1320 00       		.sleb128 0
 14880 1321 32       		.byte	0x32
 14881 1322 1A       		.byte	0x1a
 14882 1323 48       		.byte	0x48
 14883 1324 24       		.byte	0x24
 14884 1325 30       		.byte	0x30
 14885 1326 2E       		.byte	0x2e
 14886 1327 9F       		.byte	0x9f
 14887 1328 C0000000 		.4byte	.LVL371
ARM GAS  C:\Users\jo\AppData\Local\Temp\ccCSMiNu.s 			page 265


 14888 132c C2000000 		.4byte	.LVL372
 14889 1330 0B00     		.2byte	0xb
 14890 1332 72       		.byte	0x72
 14891 1333 1C       		.sleb128 28
 14892 1334 94       		.byte	0x94
 14893 1335 01       		.byte	0x1
 14894 1336 32       		.byte	0x32
 14895 1337 1A       		.byte	0x1a
 14896 1338 48       		.byte	0x48
 14897 1339 24       		.byte	0x24
 14898 133a 30       		.byte	0x30
 14899 133b 2E       		.byte	0x2e
 14900 133c 9F       		.byte	0x9f
 14901 133d 00000000 		.4byte	0
 14902 1341 00000000 		.4byte	0
 14903              	.LLST100:
 14904 1345 00000000 		.4byte	.LVL374
 14905 1349 14000000 		.4byte	.LVL375
 14906 134d 0100     		.2byte	0x1
 14907 134f 50       		.byte	0x50
 14908 1350 14000000 		.4byte	.LVL375
 14909 1354 18000000 		.4byte	.LVL376
 14910 1358 0400     		.2byte	0x4
 14911 135a F3       		.byte	0xf3
 14912 135b 01       		.uleb128 0x1
 14913 135c 50       		.byte	0x50
 14914 135d 9F       		.byte	0x9f
 14915 135e 18000000 		.4byte	.LVL376
 14916 1362 1E000000 		.4byte	.LVL377
 14917 1366 0100     		.2byte	0x1
 14918 1368 50       		.byte	0x50
 14919 1369 1E000000 		.4byte	.LVL377
 14920 136d 30000000 		.4byte	.LVL379
 14921 1371 0100     		.2byte	0x1
 14922 1373 54       		.byte	0x54
 14923 1374 30000000 		.4byte	.LVL379
 14924 1378 34000000 		.4byte	.LFE277
 14925 137c 0400     		.2byte	0x4
 14926 137e F3       		.byte	0xf3
 14927 137f 01       		.uleb128 0x1
 14928 1380 50       		.byte	0x50
 14929 1381 9F       		.byte	0x9f
 14930 1382 00000000 		.4byte	0
 14931 1386 00000000 		.4byte	0
 14932              	.LLST101:
 14933 138a 00000000 		.4byte	.LVL381
 14934 138e 1E000000 		.4byte	.LVL382
 14935 1392 0100     		.2byte	0x1
 14936 1394 50       		.byte	0x50
 14937 1395 1E000000 		.4byte	.LVL382
 14938 1399 2A000000 		.4byte	.LVL383
 14939 139d 0400     		.2byte	0x4
 14940 139f F3       		.byte	0xf3
 14941 13a0 01       		.uleb128 0x1
 14942 13a1 50       		.byte	0x50
 14943 13a2 9F       		.byte	0x9f
 14944 13a3 2A000000 		.4byte	.LVL383
ARM GAS  C:\Users\jo\AppData\Local\Temp\ccCSMiNu.s 			page 266


 14945 13a7 36000000 		.4byte	.LVL384
 14946 13ab 0100     		.2byte	0x1
 14947 13ad 50       		.byte	0x50
 14948 13ae 36000000 		.4byte	.LVL384
 14949 13b2 B4000000 		.4byte	.LFE278
 14950 13b6 0100     		.2byte	0x1
 14951 13b8 54       		.byte	0x54
 14952 13b9 00000000 		.4byte	0
 14953 13bd 00000000 		.4byte	0
 14954              	.LLST102:
 14955 13c1 3A000000 		.4byte	.LVL385
 14956 13c5 40000000 		.4byte	.LVL386
 14957 13c9 0100     		.2byte	0x1
 14958 13cb 50       		.byte	0x50
 14959 13cc 40000000 		.4byte	.LVL386
 14960 13d0 78000000 		.4byte	.LVL391
 14961 13d4 0100     		.2byte	0x1
 14962 13d6 55       		.byte	0x55
 14963 13d7 78000000 		.4byte	.LVL391
 14964 13db 80000000 		.4byte	.LVL392
 14965 13df 0100     		.2byte	0x1
 14966 13e1 50       		.byte	0x50
 14967 13e2 80000000 		.4byte	.LVL392
 14968 13e6 B4000000 		.4byte	.LFE278
 14969 13ea 0100     		.2byte	0x1
 14970 13ec 55       		.byte	0x55
 14971 13ed 00000000 		.4byte	0
 14972 13f1 00000000 		.4byte	0
 14973              	.LLST103:
 14974 13f5 00000000 		.4byte	.LVL397
 14975 13f9 2A000000 		.4byte	.LVL398
 14976 13fd 0100     		.2byte	0x1
 14977 13ff 50       		.byte	0x50
 14978 1400 2A000000 		.4byte	.LVL398
 14979 1404 3C000000 		.4byte	.LVL400
 14980 1408 0100     		.2byte	0x1
 14981 140a 54       		.byte	0x54
 14982 140b 3C000000 		.4byte	.LVL400
 14983 140f 44000000 		.4byte	.LVL401
 14984 1413 0400     		.2byte	0x4
 14985 1415 F3       		.byte	0xf3
 14986 1416 01       		.uleb128 0x1
 14987 1417 50       		.byte	0x50
 14988 1418 9F       		.byte	0x9f
 14989 1419 44000000 		.4byte	.LVL401
 14990 141d 4A000000 		.4byte	.LVL402
 14991 1421 0100     		.2byte	0x1
 14992 1423 50       		.byte	0x50
 14993 1424 4A000000 		.4byte	.LVL402
 14994 1428 4E000000 		.4byte	.LVL403
 14995 142c 0400     		.2byte	0x4
 14996 142e F3       		.byte	0xf3
 14997 142f 01       		.uleb128 0x1
 14998 1430 50       		.byte	0x50
 14999 1431 9F       		.byte	0x9f
 15000 1432 4E000000 		.4byte	.LVL403
 15001 1436 60000000 		.4byte	.LVL405
ARM GAS  C:\Users\jo\AppData\Local\Temp\ccCSMiNu.s 			page 267


 15002 143a 0100     		.2byte	0x1
 15003 143c 54       		.byte	0x54
 15004 143d 60000000 		.4byte	.LVL405
 15005 1441 68000000 		.4byte	.LFE279
 15006 1445 0400     		.2byte	0x4
 15007 1447 F3       		.byte	0xf3
 15008 1448 01       		.uleb128 0x1
 15009 1449 50       		.byte	0x50
 15010 144a 9F       		.byte	0x9f
 15011 144b 00000000 		.4byte	0
 15012 144f 00000000 		.4byte	0
 15013              	.LLST104:
 15014 1453 00000000 		.4byte	.LVL407
 15015 1457 0C000000 		.4byte	.LVL408
 15016 145b 0100     		.2byte	0x1
 15017 145d 50       		.byte	0x50
 15018 145e 0C000000 		.4byte	.LVL408
 15019 1462 1C000000 		.4byte	.LVL409
 15020 1466 0100     		.2byte	0x1
 15021 1468 56       		.byte	0x56
 15022 1469 1C000000 		.4byte	.LVL409
 15023 146d 20000000 		.4byte	.LVL410
 15024 1471 0400     		.2byte	0x4
 15025 1473 F3       		.byte	0xf3
 15026 1474 01       		.uleb128 0x1
 15027 1475 50       		.byte	0x50
 15028 1476 9F       		.byte	0x9f
 15029 1477 20000000 		.4byte	.LVL410
 15030 147b 48000000 		.4byte	.LVL416
 15031 147f 0100     		.2byte	0x1
 15032 1481 56       		.byte	0x56
 15033 1482 48000000 		.4byte	.LVL416
 15034 1486 4C000000 		.4byte	.LFE280
 15035 148a 0400     		.2byte	0x4
 15036 148c F3       		.byte	0xf3
 15037 148d 01       		.uleb128 0x1
 15038 148e 50       		.byte	0x50
 15039 148f 9F       		.byte	0x9f
 15040 1490 00000000 		.4byte	0
 15041 1494 00000000 		.4byte	0
 15042              	.LLST105:
 15043 1498 22000000 		.4byte	.LVL411
 15044 149c 3A000000 		.4byte	.LVL414
 15045 14a0 0100     		.2byte	0x1
 15046 14a2 54       		.byte	0x54
 15047 14a3 3A000000 		.4byte	.LVL414
 15048 14a7 3C000000 		.4byte	.LVL415
 15049 14ab 0600     		.2byte	0x6
 15050 14ad 74       		.byte	0x74
 15051 14ae 00       		.sleb128 0
 15052 14af 75       		.byte	0x75
 15053 14b0 00       		.sleb128 0
 15054 14b1 1C       		.byte	0x1c
 15055 14b2 9F       		.byte	0x9f
 15056 14b3 3C000000 		.4byte	.LVL415
 15057 14b7 48000000 		.4byte	.LVL416
 15058 14bb 0100     		.2byte	0x1
ARM GAS  C:\Users\jo\AppData\Local\Temp\ccCSMiNu.s 			page 268


 15059 14bd 54       		.byte	0x54
 15060 14be 00000000 		.4byte	0
 15061 14c2 00000000 		.4byte	0
 15062              	.LLST106:
 15063 14c6 36000000 		.4byte	.LVL413
 15064 14ca 39000000 		.4byte	.LVL414-1
 15065 14ce 0100     		.2byte	0x1
 15066 14d0 51       		.byte	0x51
 15067 14d1 00000000 		.4byte	0
 15068 14d5 00000000 		.4byte	0
 15069              	.LLST107:
 15070 14d9 00000000 		.4byte	.LVL418
 15071 14dd 18000000 		.4byte	.LVL419
 15072 14e1 0100     		.2byte	0x1
 15073 14e3 50       		.byte	0x50
 15074 14e4 18000000 		.4byte	.LVL419
 15075 14e8 1C000000 		.4byte	.LVL420
 15076 14ec 0400     		.2byte	0x4
 15077 14ee F3       		.byte	0xf3
 15078 14ef 01       		.uleb128 0x1
 15079 14f0 50       		.byte	0x50
 15080 14f1 9F       		.byte	0x9f
 15081 14f2 1C000000 		.4byte	.LVL420
 15082 14f6 40000000 		.4byte	.LVL421
 15083 14fa 0100     		.2byte	0x1
 15084 14fc 50       		.byte	0x50
 15085 14fd 40000000 		.4byte	.LVL421
 15086 1501 64000000 		.4byte	.LVL424
 15087 1505 0100     		.2byte	0x1
 15088 1507 54       		.byte	0x54
 15089 1508 64000000 		.4byte	.LVL424
 15090 150c 67000000 		.4byte	.LVL425-1
 15091 1510 0200     		.2byte	0x2
 15092 1512 70       		.byte	0x70
 15093 1513 24       		.sleb128 36
 15094 1514 67000000 		.4byte	.LVL425-1
 15095 1518 68000000 		.4byte	.LVL425
 15096 151c 0400     		.2byte	0x4
 15097 151e F3       		.byte	0xf3
 15098 151f 01       		.uleb128 0x1
 15099 1520 50       		.byte	0x50
 15100 1521 9F       		.byte	0x9f
 15101 1522 68000000 		.4byte	.LVL425
 15102 1526 82000000 		.4byte	.LVL428
 15103 152a 0100     		.2byte	0x1
 15104 152c 54       		.byte	0x54
 15105 152d 82000000 		.4byte	.LVL428
 15106 1531 A4000000 		.4byte	.LFE282
 15107 1535 0100     		.2byte	0x1
 15108 1537 50       		.byte	0x50
 15109 1538 00000000 		.4byte	0
 15110 153c 00000000 		.4byte	0
 15111              	.LLST108:
 15112 1540 4C000000 		.4byte	.LVL422
 15113 1544 52000000 		.4byte	.LVL423
 15114 1548 0600     		.2byte	0x6
 15115 154a 03       		.byte	0x3
ARM GAS  C:\Users\jo\AppData\Local\Temp\ccCSMiNu.s 			page 269


 15116 154b 14040000 		.4byte	.LC29
 15117 154f 9F       		.byte	0x9f
 15118 1550 00000000 		.4byte	0
 15119 1554 00000000 		.4byte	0
 15120              	.LLST109:
 15121 1558 7A000000 		.4byte	.LVL426
 15122 155c 82000000 		.4byte	.LVL428
 15123 1560 0600     		.2byte	0x6
 15124 1562 03       		.byte	0x3
 15125 1563 48040000 		.4byte	.LC31
 15126 1567 9F       		.byte	0x9f
 15127 1568 00000000 		.4byte	0
 15128 156c 00000000 		.4byte	0
 15129              	.LLST110:
 15130 1570 00000000 		.4byte	.LVL429
 15131 1574 50000000 		.4byte	.LVL430
 15132 1578 0100     		.2byte	0x1
 15133 157a 50       		.byte	0x50
 15134 157b 50000000 		.4byte	.LVL430
 15135 157f 60000000 		.4byte	.LVL433
 15136 1583 0100     		.2byte	0x1
 15137 1585 54       		.byte	0x54
 15138 1586 60000000 		.4byte	.LVL433
 15139 158a 6E000000 		.4byte	.LVL434
 15140 158e 0400     		.2byte	0x4
 15141 1590 F3       		.byte	0xf3
 15142 1591 01       		.uleb128 0x1
 15143 1592 50       		.byte	0x50
 15144 1593 9F       		.byte	0x9f
 15145 1594 6E000000 		.4byte	.LVL434
 15146 1598 7E000000 		.4byte	.LVL435
 15147 159c 0100     		.2byte	0x1
 15148 159e 50       		.byte	0x50
 15149 159f 7E000000 		.4byte	.LVL435
 15150 15a3 88000000 		.4byte	.LVL436
 15151 15a7 0400     		.2byte	0x4
 15152 15a9 F3       		.byte	0xf3
 15153 15aa 01       		.uleb128 0x1
 15154 15ab 50       		.byte	0x50
 15155 15ac 9F       		.byte	0x9f
 15156 15ad 88000000 		.4byte	.LVL436
 15157 15b1 90000000 		.4byte	.LVL437
 15158 15b5 0100     		.2byte	0x1
 15159 15b7 50       		.byte	0x50
 15160 15b8 90000000 		.4byte	.LVL437
 15161 15bc 9A000000 		.4byte	.LVL438
 15162 15c0 0400     		.2byte	0x4
 15163 15c2 F3       		.byte	0xf3
 15164 15c3 01       		.uleb128 0x1
 15165 15c4 50       		.byte	0x50
 15166 15c5 9F       		.byte	0x9f
 15167 15c6 9A000000 		.4byte	.LVL438
 15168 15ca AC000000 		.4byte	.LVL439
 15169 15ce 0100     		.2byte	0x1
 15170 15d0 50       		.byte	0x50
 15171 15d1 AC000000 		.4byte	.LVL439
 15172 15d5 C8000000 		.4byte	.LFE283
ARM GAS  C:\Users\jo\AppData\Local\Temp\ccCSMiNu.s 			page 270


 15173 15d9 0400     		.2byte	0x4
 15174 15db F3       		.byte	0xf3
 15175 15dc 01       		.uleb128 0x1
 15176 15dd 50       		.byte	0x50
 15177 15de 9F       		.byte	0x9f
 15178 15df 00000000 		.4byte	0
 15179 15e3 00000000 		.4byte	0
 15180              	.LLST111:
 15181 15e7 58000000 		.4byte	.LVL431
 15182 15eb 60000000 		.4byte	.LVL433
 15183 15ef 0600     		.2byte	0x6
 15184 15f1 03       		.byte	0x3
 15185 15f2 5C040000 		.4byte	.LC32
 15186 15f6 9F       		.byte	0x9f
 15187 15f7 00000000 		.4byte	0
 15188 15fb 00000000 		.4byte	0
 15189              	.LLST112:
 15190 15ff 00000000 		.4byte	.LVL441
 15191 1603 06000000 		.4byte	.LVL442
 15192 1607 0100     		.2byte	0x1
 15193 1609 50       		.byte	0x50
 15194 160a 06000000 		.4byte	.LVL442
 15195 160e 3C000000 		.4byte	.LVL446
 15196 1612 0100     		.2byte	0x1
 15197 1614 54       		.byte	0x54
 15198 1615 3C000000 		.4byte	.LVL446
 15199 1619 40000000 		.4byte	.LVL447
 15200 161d 0400     		.2byte	0x4
 15201 161f F3       		.byte	0xf3
 15202 1620 01       		.uleb128 0x1
 15203 1621 50       		.byte	0x50
 15204 1622 9F       		.byte	0x9f
 15205 1623 40000000 		.4byte	.LVL447
 15206 1627 56000000 		.4byte	.LVL448
 15207 162b 0100     		.2byte	0x1
 15208 162d 54       		.byte	0x54
 15209 162e 56000000 		.4byte	.LVL448
 15210 1632 5A000000 		.4byte	.LVL449
 15211 1636 0400     		.2byte	0x4
 15212 1638 F3       		.byte	0xf3
 15213 1639 01       		.uleb128 0x1
 15214 163a 50       		.byte	0x50
 15215 163b 9F       		.byte	0x9f
 15216 163c 5A000000 		.4byte	.LVL449
 15217 1640 92000000 		.4byte	.LVL453
 15218 1644 0100     		.2byte	0x1
 15219 1646 54       		.byte	0x54
 15220 1647 92000000 		.4byte	.LVL453
 15221 164b 95000000 		.4byte	.LVL454-1
 15222 164f 0200     		.2byte	0x2
 15223 1651 70       		.byte	0x70
 15224 1652 24       		.sleb128 36
 15225 1653 95000000 		.4byte	.LVL454-1
 15226 1657 96000000 		.4byte	.LVL454
 15227 165b 0400     		.2byte	0x4
 15228 165d F3       		.byte	0xf3
 15229 165e 01       		.uleb128 0x1
ARM GAS  C:\Users\jo\AppData\Local\Temp\ccCSMiNu.s 			page 271


 15230 165f 50       		.byte	0x50
 15231 1660 9F       		.byte	0x9f
 15232 1661 96000000 		.4byte	.LVL454
 15233 1665 C0000000 		.4byte	.LFE284
 15234 1669 0100     		.2byte	0x1
 15235 166b 54       		.byte	0x54
 15236 166c 00000000 		.4byte	0
 15237 1670 00000000 		.4byte	0
 15238              	.LLST113:
 15239 1674 28000000 		.4byte	.LVL443
 15240 1678 30000000 		.4byte	.LVL445
 15241 167c 0600     		.2byte	0x6
 15242 167e 03       		.byte	0x3
 15243 167f D4030000 		.4byte	.LC27
 15244 1683 9F       		.byte	0x9f
 15245 1684 00000000 		.4byte	0
 15246 1688 00000000 		.4byte	0
 15247              	.LLST114:
 15248 168c 7E000000 		.4byte	.LVL450
 15249 1690 86000000 		.4byte	.LVL452
 15250 1694 0600     		.2byte	0x6
 15251 1696 03       		.byte	0x3
 15252 1697 14040000 		.4byte	.LC29
 15253 169b 9F       		.byte	0x9f
 15254 169c 00000000 		.4byte	0
 15255 16a0 00000000 		.4byte	0
 15256              		.section	.debug_aranges,"",%progbits
 15257 0000 DC000000 		.4byte	0xdc
 15258 0004 0200     		.2byte	0x2
 15259 0006 00000000 		.4byte	.Ldebug_info0
 15260 000a 04       		.byte	0x4
 15261 000b 00       		.byte	0
 15262 000c 0000     		.2byte	0
 15263 000e 0000     		.2byte	0
 15264 0010 00000000 		.4byte	.LFB265
 15265 0014 44000000 		.4byte	.LFE265-.LFB265
 15266 0018 00000000 		.4byte	.LFB287
 15267 001c 28000000 		.4byte	.LFE287-.LFB287
 15268 0020 00000000 		.4byte	.LFB261
 15269 0024 E4000000 		.4byte	.LFE261-.LFB261
 15270 0028 00000000 		.4byte	.LFB272
 15271 002c 04020000 		.4byte	.LFE272-.LFB272
 15272 0030 00000000 		.4byte	.LFB281
 15273 0034 00020000 		.4byte	.LFE281-.LFB281
 15274 0038 00000000 		.4byte	.LFB262
 15275 003c 84000000 		.4byte	.LFE262-.LFB262
 15276 0040 00000000 		.4byte	.LFB263
 15277 0044 80000000 		.4byte	.LFE263-.LFB263
 15278 0048 00000000 		.4byte	.LFB275
 15279 004c CC000000 		.4byte	.LFE275-.LFB275
 15280 0050 00000000 		.4byte	.LFB264
 15281 0054 0C010000 		.4byte	.LFE264-.LFB264
 15282 0058 00000000 		.4byte	.LFB260
 15283 005c E8000000 		.4byte	.LFE260-.LFB260
 15284 0060 00000000 		.4byte	.LFB268
 15285 0064 74000000 		.4byte	.LFE268-.LFB268
 15286 0068 00000000 		.4byte	.LFB269
ARM GAS  C:\Users\jo\AppData\Local\Temp\ccCSMiNu.s 			page 272


 15287 006c A8000000 		.4byte	.LFE269-.LFB269
 15288 0070 00000000 		.4byte	.LFB270
 15289 0074 9C000000 		.4byte	.LFE270-.LFB270
 15290 0078 00000000 		.4byte	.LFB271
 15291 007c E0000000 		.4byte	.LFE271-.LFB271
 15292 0080 00000000 		.4byte	.LFB266
 15293 0084 9C000000 		.4byte	.LFE266-.LFB266
 15294 0088 00000000 		.4byte	.LFB273
 15295 008c 24010000 		.4byte	.LFE273-.LFB273
 15296 0090 00000000 		.4byte	.LFB274
 15297 0094 62000000 		.4byte	.LFE274-.LFB274
 15298 0098 00000000 		.4byte	.LFB276
 15299 009c E0000000 		.4byte	.LFE276-.LFB276
 15300 00a0 00000000 		.4byte	.LFB277
 15301 00a4 34000000 		.4byte	.LFE277-.LFB277
 15302 00a8 00000000 		.4byte	.LFB278
 15303 00ac B4000000 		.4byte	.LFE278-.LFB278
 15304 00b0 00000000 		.4byte	.LFB279
 15305 00b4 68000000 		.4byte	.LFE279-.LFB279
 15306 00b8 00000000 		.4byte	.LFB280
 15307 00bc 4C000000 		.4byte	.LFE280-.LFB280
 15308 00c0 00000000 		.4byte	.LFB282
 15309 00c4 A4000000 		.4byte	.LFE282-.LFB282
 15310 00c8 00000000 		.4byte	.LFB283
 15311 00cc C8000000 		.4byte	.LFE283-.LFB283
 15312 00d0 00000000 		.4byte	.LFB284
 15313 00d4 C0000000 		.4byte	.LFE284-.LFB284
 15314 00d8 00000000 		.4byte	0
 15315 00dc 00000000 		.4byte	0
 15316              		.section	.debug_ranges,"",%progbits
 15317              	.Ldebug_ranges0:
 15318 0000 74000000 		.4byte	.LBB133
 15319 0004 76000000 		.4byte	.LBE133
 15320 0008 7C000000 		.4byte	.LBB136
 15321 000c 80000000 		.4byte	.LBE136
 15322 0010 00000000 		.4byte	0
 15323 0014 00000000 		.4byte	0
 15324 0018 80000000 		.4byte	.LBB137
 15325 001c 9A000000 		.4byte	.LBE137
 15326 0020 A0000000 		.4byte	.LBB140
 15327 0024 A4000000 		.4byte	.LBE140
 15328 0028 D6000000 		.4byte	.LBB143
 15329 002c 0C010000 		.4byte	.LBE143
 15330 0030 00000000 		.4byte	0
 15331 0034 00000000 		.4byte	0
 15332 0038 00000000 		.4byte	.LFB265
 15333 003c 44000000 		.4byte	.LFE265
 15334 0040 00000000 		.4byte	.LFB287
 15335 0044 28000000 		.4byte	.LFE287
 15336 0048 00000000 		.4byte	.LFB261
 15337 004c E4000000 		.4byte	.LFE261
 15338 0050 00000000 		.4byte	.LFB272
 15339 0054 04020000 		.4byte	.LFE272
 15340 0058 00000000 		.4byte	.LFB281
 15341 005c 00020000 		.4byte	.LFE281
 15342 0060 00000000 		.4byte	.LFB262
 15343 0064 84000000 		.4byte	.LFE262
ARM GAS  C:\Users\jo\AppData\Local\Temp\ccCSMiNu.s 			page 273


 15344 0068 00000000 		.4byte	.LFB263
 15345 006c 80000000 		.4byte	.LFE263
 15346 0070 00000000 		.4byte	.LFB275
 15347 0074 CC000000 		.4byte	.LFE275
 15348 0078 00000000 		.4byte	.LFB264
 15349 007c 0C010000 		.4byte	.LFE264
 15350 0080 00000000 		.4byte	.LFB260
 15351 0084 E8000000 		.4byte	.LFE260
 15352 0088 00000000 		.4byte	.LFB268
 15353 008c 74000000 		.4byte	.LFE268
 15354 0090 00000000 		.4byte	.LFB269
 15355 0094 A8000000 		.4byte	.LFE269
 15356 0098 00000000 		.4byte	.LFB270
 15357 009c 9C000000 		.4byte	.LFE270
 15358 00a0 00000000 		.4byte	.LFB271
 15359 00a4 E0000000 		.4byte	.LFE271
 15360 00a8 00000000 		.4byte	.LFB266
 15361 00ac 9C000000 		.4byte	.LFE266
 15362 00b0 00000000 		.4byte	.LFB273
 15363 00b4 24010000 		.4byte	.LFE273
 15364 00b8 00000000 		.4byte	.LFB274
 15365 00bc 62000000 		.4byte	.LFE274
 15366 00c0 00000000 		.4byte	.LFB276
 15367 00c4 E0000000 		.4byte	.LFE276
 15368 00c8 00000000 		.4byte	.LFB277
 15369 00cc 34000000 		.4byte	.LFE277
 15370 00d0 00000000 		.4byte	.LFB278
 15371 00d4 B4000000 		.4byte	.LFE278
 15372 00d8 00000000 		.4byte	.LFB279
 15373 00dc 68000000 		.4byte	.LFE279
 15374 00e0 00000000 		.4byte	.LFB280
 15375 00e4 4C000000 		.4byte	.LFE280
 15376 00e8 00000000 		.4byte	.LFB282
 15377 00ec A4000000 		.4byte	.LFE282
 15378 00f0 00000000 		.4byte	.LFB283
 15379 00f4 C8000000 		.4byte	.LFE283
 15380 00f8 00000000 		.4byte	.LFB284
 15381 00fc C0000000 		.4byte	.LFE284
 15382 0100 00000000 		.4byte	0
 15383 0104 00000000 		.4byte	0
 15384              		.section	.debug_line,"",%progbits
 15385              	.Ldebug_line0:
 15386 0000 580D0000 		.section	.debug_str,"MS",%progbits,1
 15386      0200F403 
 15386      00000201 
 15386      FB0E0D00 
 15386      01010101 
 15387              	.LASF55:
 15388 0000 63685F74 		.ascii	"ch_threads_list\000"
 15388      68726561 
 15388      64735F6C 
 15388      69737400 
 15389              	.LASF56:
 15390 0010 74687265 		.ascii	"threads_queue_t\000"
 15390      6164735F 
 15390      71756575 
 15390      655F7400 
ARM GAS  C:\Users\jo\AppData\Local\Temp\ccCSMiNu.s 			page 274


 15391              	.LASF319:
 15392 0020 646F5F64 		.ascii	"do_disconnect\000"
 15392      6973636F 
 15392      6E6E6563 
 15392      7400
 15393              	.LASF329:
 15394 002e 49544D5F 		.ascii	"ITM_RxBuffer\000"
 15394      52784275 
 15394      66666572 
 15394      00
 15395              	.LASF110:
 15396 003b 77746D74 		.ascii	"wtmtxp\000"
 15396      787000
 15397              	.LASF270:
 15398 0042 4D454D50 		.ascii	"MEMP_TCP_PCB_LISTEN\000"
 15398      5F544350 
 15398      5F504342 
 15398      5F4C4953 
 15398      54454E00 
 15399              	.LASF52:
 15400 0056 74687265 		.ascii	"thread_reference_t\000"
 15400      61645F72 
 15400      65666572 
 15400      656E6365 
 15400      5F7400
 15401              	.LASF192:
 15402 0069 736F5F6F 		.ascii	"so_options\000"
 15402      7074696F 
 15402      6E7300
 15403              	.LASF315:
 15404 0074 646F5F64 		.ascii	"do_delconn\000"
 15404      656C636F 
 15404      6E6E00
 15405              	.LASF338:
 15406 007f 63687670 		.ascii	"chvprintf\000"
 15406      72696E74 
 15406      6600
 15407              	.LASF90:
 15408 0089 72656761 		.ascii	"regarm_t\000"
 15408      726D5F74 
 15408      00
 15409              	.LASF36:
 15410 0092 705F7072 		.ascii	"p_prio\000"
 15410      696F00
 15411              	.LASF372:
 15412 0099 7564705F 		.ascii	"udp_sendto\000"
 15412      73656E64 
 15412      746F00
 15413              	.LASF165:
 15414 00a4 6E657463 		.ascii	"netconn_type\000"
 15414      6F6E6E5F 
 15414      74797065 
 15414      00
 15415              	.LASF373:
 15416 00b1 474E5520 		.ascii	"GNU C 4.9.3 20141119 (release) [ARM/embedded-4_9-br"
 15416      4320342E 
 15416      392E3320 
ARM GAS  C:\Users\jo\AppData\Local\Temp\ccCSMiNu.s 			page 275


 15416      32303134 
 15416      31313139 
 15417 00e4 616E6368 		.ascii	"anch revision 218278] -mcpu=cortex-m4 -mno-thumb-in"
 15417      20726576 
 15417      6973696F 
 15417      6E203231 
 15417      38323738 
 15418 0117 74657277 		.ascii	"terwork -mthumb -ggdb -O2 -fomit-frame-pointer -fal"
 15418      6F726B20 
 15418      2D6D7468 
 15418      756D6220 
 15418      2D676764 
 15419 014a 69676E2D 		.ascii	"ign-functions=16 -ffunction-sections -fdata-section"
 15419      66756E63 
 15419      74696F6E 
 15419      733D3136 
 15419      202D6666 
 15420 017d 73202D66 		.ascii	"s -fno-common\000"
 15420      6E6F2D63 
 15420      6F6D6D6F 
 15420      6E00
 15421              	.LASF199:
 15422 018b 706F6C6C 		.ascii	"polltmr\000"
 15422      746D7200 
 15423              	.LASF248:
 15424 0193 7463705F 		.ascii	"tcp_accept_fn\000"
 15424      61636365 
 15424      70745F66 
 15424      6E00
 15425              	.LASF156:
 15426 01a1 666C6167 		.ascii	"flags\000"
 15426      7300
 15427              	.LASF32:
 15428 01a7 73797374 		.ascii	"systime_t\000"
 15428      696D655F 
 15428      7400
 15429              	.LASF366:
 15430 01b1 7463705F 		.ascii	"tcp_bind\000"
 15430      62696E64 
 15430      00
 15431              	.LASF356:
 15432 01ba 7379735F 		.ascii	"sys_mbox_set_invalid\000"
 15432      6D626F78 
 15432      5F736574 
 15432      5F696E76 
 15432      616C6964 
 15433              	.LASF117:
 15434 01cf 6D5F6F77 		.ascii	"m_owner\000"
 15434      6E657200 
 15435              	.LASF113:
 15436 01d7 735F7175 		.ascii	"s_queue\000"
 15436      65756500 
 15437              	.LASF310:
 15438 01df 6E657463 		.ascii	"netconn_free\000"
 15438      6F6E6E5F 
 15438      66726565 
 15438      00
ARM GAS  C:\Users\jo\AppData\Local\Temp\ccCSMiNu.s 			page 276


 15439              	.LASF183:
 15440 01ec 72656376 		.ascii	"recvmbox\000"
 15440      6D626F78 
 15440      00
 15441              	.LASF266:
 15442 01f5 7261775F 		.ascii	"raw_pcb\000"
 15442      70636200 
 15443              	.LASF265:
 15444 01fd 54494D45 		.ascii	"TIME_WAIT\000"
 15444      5F574149 
 15444      5400
 15445              	.LASF97:
 15446 0207 73655F73 		.ascii	"se_state\000"
 15446      74617465 
 15446      00
 15447              	.LASF0:
 15448 0210 756E7369 		.ascii	"unsigned int\000"
 15448      676E6564 
 15448      20696E74 
 15448      00
 15449              	.LASF253:
 15450 021d 7463705F 		.ascii	"tcp_connected_fn\000"
 15450      636F6E6E 
 15450      65637465 
 15450      645F666E 
 15450      00
 15451              	.LASF152:
 15452 022e 6E657874 		.ascii	"next\000"
 15452      00
 15453              	.LASF177:
 15454 0233 4E455443 		.ascii	"NETCONN_EVT_ERROR\000"
 15454      4F4E4E5F 
 15454      4556545F 
 15454      4552524F 
 15454      5200
 15455              	.LASF318:
 15456 0245 6E6F6E5F 		.ascii	"non_blocking\000"
 15456      626C6F63 
 15456      6B696E67 
 15456      00
 15457              	.LASF163:
 15458 0252 4E455443 		.ascii	"NETCONN_UDPNOCHKSUM\000"
 15458      4F4E4E5F 
 15458      5544504E 
 15458      4F43484B 
 15458      53554D00 
 15459              	.LASF53:
 15460 0266 74687265 		.ascii	"threads_list_t\000"
 15460      6164735F 
 15460      6C697374 
 15460      5F7400
 15461              	.LASF148:
 15462 0275 6572725F 		.ascii	"err_t\000"
 15462      7400
 15463              	.LASF243:
 15464 027b 6C6F6361 		.ascii	"local\000"
 15464      6C00
ARM GAS  C:\Users\jo\AppData\Local\Temp\ccCSMiNu.s 			page 277


 15465              	.LASF45:
 15466 0281 705F7761 		.ascii	"p_waiting\000"
 15466      6974696E 
 15466      6700
 15467              	.LASF371:
 15468 028b 7564705F 		.ascii	"udp_send\000"
 15468      73656E64 
 15468      00
 15469              	.LASF10:
 15470 0294 5F5F696E 		.ascii	"__int32_t\000"
 15470      7433325F 
 15470      7400
 15471              	.LASF129:
 15472 029e 42617365 		.ascii	"BaseSequentialStreamVMT\000"
 15472      53657175 
 15472      656E7469 
 15472      616C5374 
 15472      7265616D 
 15473              	.LASF291:
 15474 02b6 73687574 		.ascii	"shut_tx\000"
 15474      5F747800 
 15475              	.LASF142:
 15476 02be 7531365F 		.ascii	"u16_t\000"
 15476      7400
 15477              	.LASF149:
 15478 02c4 7379735F 		.ascii	"sys_sem_t\000"
 15478      73656D5F 
 15478      7400
 15479              	.LASF375:
 15480 02ce 433A5C55 		.ascii	"C:\\Users\\jo\\Documents\\GitHub\\ChibiOS\\demos\\S"
 15480      73657273 
 15480      5C6A6F5C 
 15480      446F6375 
 15480      6D656E74 
 15481 02fa 544D3332 		.ascii	"TM32\\RT-STM32F407-DISCOVERY-uHttp\000"
 15481      5C52542D 
 15481      53544D33 
 15481      32463430 
 15481      372D4449 
 15482              	.LASF367:
 15483 031c 7564705F 		.ascii	"udp_connect\000"
 15483      636F6E6E 
 15483      65637400 
 15484              	.LASF285:
 15485 0328 73656E74 		.ascii	"sent_tcp\000"
 15485      5F746370 
 15485      00
 15486              	.LASF86:
 15487 0331 76746C69 		.ascii	"vtlist\000"
 15487      737400
 15488              	.LASF205:
 15489 0338 7263765F 		.ascii	"rcv_ann_right_edge\000"
 15489      616E6E5F 
 15489      72696768 
 15489      745F6564 
 15489      676500
 15490              	.LASF59:
ARM GAS  C:\Users\jo\AppData\Local\Temp\ccCSMiNu.s 			page 278


 15491 034b 63685F72 		.ascii	"ch_ready_list\000"
 15491      65616479 
 15491      5F6C6973 
 15491      7400
 15492              	.LASF88:
 15493 0359 69646C65 		.ascii	"idle_thread_wa\000"
 15493      5F746872 
 15493      6561645F 
 15493      776100
 15494              	.LASF357:
 15495 0368 66726565 		.ascii	"free\000"
 15495      00
 15496              	.LASF111:
 15497 036d 65776D61 		.ascii	"ewmask\000"
 15497      736B00
 15498              	.LASF299:
 15499 0374 706F6C6C 		.ascii	"poll_tcp\000"
 15499      5F746370 
 15499      00
 15500              	.LASF236:
 15501 037d 6B656570 		.ascii	"keep_cnt_sent\000"
 15501      5F636E74 
 15501      5F73656E 
 15501      7400
 15502              	.LASF280:
 15503 038b 4D454D50 		.ascii	"MEMP_PBUF_POOL\000"
 15503      5F504255 
 15503      465F504F 
 15503      4F4C00
 15504              	.LASF238:
 15505 039a 72656376 		.ascii	"recv_arg\000"
 15505      5F617267 
 15505      00
 15506              	.LASF250:
 15507 03a3 7463705F 		.ascii	"tcp_sent_fn\000"
 15507      73656E74 
 15507      5F666E00 
 15508              	.LASF166:
 15509 03af 6E657463 		.ascii	"netconn_state\000"
 15509      6F6E6E5F 
 15509      73746174 
 15509      6500
 15510              	.LASF66:
 15511 03bd 76746675 		.ascii	"vtfunc_t\000"
 15511      6E635F74 
 15511      00
 15512              	.LASF107:
 15513 03c6 77746F62 		.ascii	"wtobjp\000"
 15513      6A7000
 15514              	.LASF334:
 15515 03cd 7463705F 		.ascii	"tcp_sent\000"
 15515      73656E74 
 15515      00
 15516              	.LASF114:
 15517 03d6 735F636E 		.ascii	"s_cnt\000"
 15517      7400
 15518              	.LASF78:
ARM GAS  C:\Users\jo\AppData\Local\Temp\ccCSMiNu.s 			page 279


 15519 03dc 63685F73 		.ascii	"ch_system_debug\000"
 15519      79737465 
 15519      6D5F6465 
 15519      62756700 
 15520              	.LASF331:
 15521 03ec 6D656D70 		.ascii	"memp_sizes\000"
 15521      5F73697A 
 15521      657300
 15522              	.LASF22:
 15523 03f7 75696E74 		.ascii	"uint32_t\000"
 15523      33325F74 
 15523      00
 15524              	.LASF275:
 15525 0400 4D454D50 		.ascii	"MEMP_NETCONN\000"
 15525      5F4E4554 
 15525      434F4E4E 
 15525      00
 15526              	.LASF212:
 15527 040d 63776E64 		.ascii	"cwnd\000"
 15527      00
 15528              	.LASF30:
 15529 0412 6576656E 		.ascii	"eventmask_t\000"
 15529      746D6173 
 15529      6B5F7400 
 15530              	.LASF61:
 15531 041e 725F7072 		.ascii	"r_prio\000"
 15531      696F00
 15532              	.LASF195:
 15533 0425 61636365 		.ascii	"accept\000"
 15533      707400
 15534              	.LASF276:
 15535 042c 4D454D50 		.ascii	"MEMP_TCPIP_MSG_API\000"
 15535      5F544350 
 15535      49505F4D 
 15535      53475F41 
 15535      504900
 15536              	.LASF197:
 15537 043f 6C6F6361 		.ascii	"local_port\000"
 15537      6C5F706F 
 15537      727400
 15538              	.LASF112:
 15539 044a 63685F73 		.ascii	"ch_semaphore\000"
 15539      656D6170 
 15539      686F7265 
 15539      00
 15540              	.LASF349:
 15541 0457 6D616C6C 		.ascii	"malloc\000"
 15541      6F6300
 15542              	.LASF28:
 15543 045e 74707269 		.ascii	"tprio_t\000"
 15543      6F5F7400 
 15544              	.LASF68:
 15545 0466 63685F76 		.ascii	"ch_virtual_timer\000"
 15545      69727475 
 15545      616C5F74 
 15545      696D6572 
 15545      00
ARM GAS  C:\Users\jo\AppData\Local\Temp\ccCSMiNu.s 			page 280


 15546              	.LASF19:
 15547 0477 696E7431 		.ascii	"int16_t\000"
 15547      365F7400 
 15548              	.LASF350:
 15549 047f 6E657462 		.ascii	"netbuf_delete\000"
 15549      75665F64 
 15549      656C6574 
 15549      6500
 15550              	.LASF359:
 15551 048d 7379735F 		.ascii	"sys_sem_set_invalid\000"
 15551      73656D5F 
 15551      7365745F 
 15551      696E7661 
 15551      6C696400 
 15552              	.LASF348:
 15553 04a1 7463705F 		.ascii	"tcp_write\000"
 15553      77726974 
 15553      6500
 15554              	.LASF16:
 15555 04ab 6C6F6E67 		.ascii	"long long unsigned int\000"
 15555      206C6F6E 
 15555      6720756E 
 15555      7369676E 
 15555      65642069 
 15556              	.LASF96:
 15557 04c2 73655F77 		.ascii	"se_wtobjp\000"
 15557      746F626A 
 15557      7000
 15558              	.LASF365:
 15559 04cc 7564705F 		.ascii	"udp_bind\000"
 15559      62696E64 
 15559      00
 15560              	.LASF159:
 15561 04d5 4E455443 		.ascii	"NETCONN_INVALID\000"
 15561      4F4E4E5F 
 15561      494E5641 
 15561      4C494400 
 15562              	.LASF208:
 15563 04e5 72747365 		.ascii	"rtseq\000"
 15563      7100
 15564              	.LASF374:
 15565 04eb 2E2E2F2E 		.ascii	"../../../ext/lwip/src/api/api_msg.c\000"
 15565      2E2F2E2E 
 15565      2F657874 
 15565      2F6C7769 
 15565      702F7372 
 15566              	.LASF8:
 15567 050f 5F5F7569 		.ascii	"__uint16_t\000"
 15567      6E743136 
 15567      5F7400
 15568              	.LASF176:
 15569 051a 4E455443 		.ascii	"NETCONN_EVT_SENDMINUS\000"
 15569      4F4E4E5F 
 15569      4556545F 
 15569      53454E44 
 15569      4D494E55 
 15570              	.LASF343:
ARM GAS  C:\Users\jo\AppData\Local\Temp\ccCSMiNu.s 			page 281


 15571 0530 7463705F 		.ascii	"tcp_shutdown\000"
 15571      73687574 
 15571      646F776E 
 15571      00
 15572              	.LASF353:
 15573 053d 7463705F 		.ascii	"tcp_new\000"
 15573      6E657700 
 15574              	.LASF340:
 15575 0545 7463705F 		.ascii	"tcp_recved\000"
 15575      72656376 
 15575      656400
 15576              	.LASF206:
 15577 0550 7274696D 		.ascii	"rtime\000"
 15577      6500
 15578              	.LASF80:
 15579 0556 6973725F 		.ascii	"isr_cnt\000"
 15579      636E7400 
 15580              	.LASF120:
 15581 055e 73656D61 		.ascii	"semaphore_t\000"
 15581      70686F72 
 15581      655F7400 
 15582              	.LASF38:
 15583 056a 705F6E65 		.ascii	"p_newer\000"
 15583      77657200 
 15584              	.LASF75:
 15585 0572 63685F76 		.ascii	"ch_virtual_timers_list\000"
 15585      69727475 
 15585      616C5F74 
 15585      696D6572 
 15585      735F6C69 
 15586              	.LASF202:
 15587 0589 7263765F 		.ascii	"rcv_nxt\000"
 15587      6E787400 
 15588              	.LASF344:
 15589 0591 7379735F 		.ascii	"sys_sem_signal\000"
 15589      73656D5F 
 15589      7369676E 
 15589      616C00
 15590              	.LASF277:
 15591 05a0 4D454D50 		.ascii	"MEMP_TCPIP_MSG_INPKT\000"
 15591      5F544350 
 15591      49505F4D 
 15591      53475F49 
 15591      4E504B54 
 15592              	.LASF369:
 15593 05b5 7564705F 		.ascii	"udp_disconnect\000"
 15593      64697363 
 15593      6F6E6E65 
 15593      637400
 15594              	.LASF173:
 15595 05c4 4E455443 		.ascii	"NETCONN_EVT_RCVPLUS\000"
 15595      4F4E4E5F 
 15595      4556545F 
 15595      52435650 
 15595      4C555300 
 15596              	.LASF94:
 15597 05d8 73655F74 		.ascii	"se_time\000"
ARM GAS  C:\Users\jo\AppData\Local\Temp\ccCSMiNu.s 			page 282


 15597      696D6500 
 15598              	.LASF33:
 15599 05e0 74687265 		.ascii	"thread_t\000"
 15599      61645F74 
 15599      00
 15600              	.LASF161:
 15601 05e9 4E455443 		.ascii	"NETCONN_UDP\000"
 15601      4F4E4E5F 
 15601      55445000 
 15602              	.LASF34:
 15603 05f5 705F6E65 		.ascii	"p_next\000"
 15603      787400
 15604              	.LASF339:
 15605 05fc 7379735F 		.ascii	"sys_mbox_valid\000"
 15605      6D626F78 
 15605      5F76616C 
 15605      696400
 15606              	.LASF136:
 15607 060b 5F5F676E 		.ascii	"__gnuc_va_list\000"
 15607      75635F76 
 15607      615F6C69 
 15607      737400
 15608              	.LASF264:
 15609 061a 4C415354 		.ascii	"LAST_ACK\000"
 15609      5F41434B 
 15609      00
 15610              	.LASF154:
 15611 0623 746F745F 		.ascii	"tot_len\000"
 15611      6C656E00 
 15612              	.LASF242:
 15613 062b 69706164 		.ascii	"ipaddr\000"
 15613      647200
 15614              	.LASF1:
 15615 0632 73697A65 		.ascii	"size_t\000"
 15615      5F7400
 15616              	.LASF105:
 15617 0639 7264796D 		.ascii	"rdymsg\000"
 15617      736700
 15618              	.LASF153:
 15619 0640 7061796C 		.ascii	"payload\000"
 15619      6F616400 
 15620              	.LASF103:
 15621 0648 6F666673 		.ascii	"offset\000"
 15621      657400
 15622              	.LASF230:
 15623 064f 636F6E6E 		.ascii	"connected\000"
 15623      65637465 
 15623      6400
 15624              	.LASF293:
 15625 0659 72656376 		.ascii	"recv_tcp\000"
 15625      5F746370 
 15625      00
 15626              	.LASF133:
 15627 0662 5F426F6F 		.ascii	"_Bool\000"
 15627      6C00
 15628              	.LASF125:
 15629 0668 6D625F72 		.ascii	"mb_rdptr\000"
ARM GAS  C:\Users\jo\AppData\Local\Temp\ccCSMiNu.s 			page 283


 15629      64707472 
 15629      00
 15630              	.LASF368:
 15631 0671 7463705F 		.ascii	"tcp_connect\000"
 15631      636F6E6E 
 15631      65637400 
 15632              	.LASF240:
 15633 067d 636F6E6E 		.ascii	"conn\000"
 15633      00
 15634              	.LASF294:
 15635 0682 646F5F77 		.ascii	"do_writemore\000"
 15635      72697465 
 15635      6D6F7265 
 15635      00
 15636              	.LASF128:
 15637 068f 6D61696C 		.ascii	"mailbox_t\000"
 15637      626F785F 
 15637      7400
 15638              	.LASF263:
 15639 0699 434C4F53 		.ascii	"CLOSING\000"
 15639      494E4700 
 15640              	.LASF115:
 15641 06a1 63685F6D 		.ascii	"ch_mutex\000"
 15641      75746578 
 15641      00
 15642              	.LASF181:
 15643 06aa 6C617374 		.ascii	"last_err\000"
 15643      5F657272 
 15643      00
 15644              	.LASF15:
 15645 06b3 5F5F7569 		.ascii	"__uint64_t\000"
 15645      6E743634 
 15645      5F7400
 15646              	.LASF281:
 15647 06be 4D454D50 		.ascii	"MEMP_MAX\000"
 15647      5F4D4158 
 15647      00
 15648              	.LASF141:
 15649 06c7 73385F74 		.ascii	"s8_t\000"
 15649      00
 15650              	.LASF298:
 15651 06cc 646F6E74 		.ascii	"dontblock\000"
 15651      626C6F63 
 15651      6B00
 15652              	.LASF352:
 15653 06d6 7564705F 		.ascii	"udp_new\000"
 15653      6E657700 
 15654              	.LASF127:
 15655 06de 6D625F65 		.ascii	"mb_emptysem\000"
 15655      6D707479 
 15655      73656D00 
 15656              	.LASF175:
 15657 06ea 4E455443 		.ascii	"NETCONN_EVT_SENDPLUS\000"
 15657      4F4E4E5F 
 15657      4556545F 
 15657      53454E44 
 15657      504C5553 
ARM GAS  C:\Users\jo\AppData\Local\Temp\ccCSMiNu.s 			page 284


 15658              	.LASF347:
 15659 06ff 7463705F 		.ascii	"tcp_output\000"
 15659      6F757470 
 15659      757400
 15660              	.LASF239:
 15661 070a 6170695F 		.ascii	"api_msg_msg\000"
 15661      6D73675F 
 15661      6D736700 
 15662              	.LASF217:
 15663 0716 736E645F 		.ascii	"snd_lbb\000"
 15663      6C626200 
 15664              	.LASF17:
 15665 071e 696E7438 		.ascii	"int8_t\000"
 15665      5F7400
 15666              	.LASF174:
 15667 0725 4E455443 		.ascii	"NETCONN_EVT_RCVMINUS\000"
 15667      4F4E4E5F 
 15667      4556545F 
 15667      5243564D 
 15667      494E5553 
 15668              	.LASF40:
 15669 073a 705F6E61 		.ascii	"p_name\000"
 15669      6D6500
 15670              	.LASF132:
 15671 0741 42617365 		.ascii	"BaseSequentialStream\000"
 15671      53657175 
 15671      656E7469 
 15671      616C5374 
 15671      7265616D 
 15672              	.LASF210:
 15673 0756 64757061 		.ascii	"dupacks\000"
 15673      636B7300 
 15674              	.LASF158:
 15675 075e 706F7274 		.ascii	"port\000"
 15675      00
 15676              	.LASF196:
 15677 0763 7072696F 		.ascii	"prio\000"
 15677      00
 15678              	.LASF200:
 15679 0768 706F6C6C 		.ascii	"pollinterval\000"
 15679      696E7465 
 15679      7276616C 
 15679      00
 15680              	.LASF279:
 15681 0775 4D454D50 		.ascii	"MEMP_PBUF\000"
 15681      5F504255 
 15681      4600
 15682              	.LASF231:
 15683 077f 706F6C6C 		.ascii	"poll\000"
 15683      00
 15684              	.LASF286:
 15685 0784 63687072 		.ascii	"chprintf\000"
 15685      696E7466 
 15685      00
 15686              	.LASF157:
 15687 078d 6E657462 		.ascii	"netbuf\000"
 15687      756600
ARM GAS  C:\Users\jo\AppData\Local\Temp\ccCSMiNu.s 			page 285


 15688              	.LASF71:
 15689 0794 76745F64 		.ascii	"vt_delta\000"
 15689      656C7461 
 15689      00
 15690              	.LASF326:
 15691 079d 646F5F77 		.ascii	"do_write\000"
 15691      72697465 
 15691      00
 15692              	.LASF215:
 15693 07a6 736E645F 		.ascii	"snd_wl1\000"
 15693      776C3100 
 15694              	.LASF63:
 15695 07ae 725F6E65 		.ascii	"r_newer\000"
 15695      77657200 
 15696              	.LASF76:
 15697 07b6 76745F6C 		.ascii	"vt_lasttime\000"
 15697      61737474 
 15697      696D6500 
 15698              	.LASF220:
 15699 07c2 61636B65 		.ascii	"acked\000"
 15699      6400
 15700              	.LASF292:
 15701 07c8 636C6F73 		.ascii	"close\000"
 15701      6500
 15702              	.LASF241:
 15703 07ce 70726F74 		.ascii	"proto\000"
 15703      6F00
 15704              	.LASF77:
 15705 07d4 73797374 		.ascii	"system_debug_t\000"
 15705      656D5F64 
 15705      65627567 
 15705      5F7400
 15706              	.LASF26:
 15707 07e3 74737461 		.ascii	"tstate_t\000"
 15707      74655F74 
 15707      00
 15708              	.LASF95:
 15709 07ec 73655F74 		.ascii	"se_tp\000"
 15709      7000
 15710              	.LASF303:
 15711 07f2 6F6C645F 		.ascii	"old_state\000"
 15711      73746174 
 15711      6500
 15712              	.LASF14:
 15713 07fc 6C6F6E67 		.ascii	"long long int\000"
 15713      206C6F6E 
 15713      6720696E 
 15713      7400
 15714              	.LASF171:
 15715 080a 4E455443 		.ascii	"NETCONN_CLOSE\000"
 15715      4F4E4E5F 
 15715      434C4F53 
 15715      4500
 15716              	.LASF39:
 15717 0818 705F6F6C 		.ascii	"p_older\000"
 15717      64657200 
 15718              	.LASF122:
ARM GAS  C:\Users\jo\AppData\Local\Temp\ccCSMiNu.s 			page 286


 15719 0820 6D625F62 		.ascii	"mb_buffer\000"
 15719      75666665 
 15719      7200
 15720              	.LASF41:
 15721 082a 705F7374 		.ascii	"p_stklimit\000"
 15721      6B6C696D 
 15721      697400
 15722              	.LASF12:
 15723 0835 5F5F7569 		.ascii	"__uint32_t\000"
 15723      6E743332 
 15723      5F7400
 15724              	.LASF228:
 15725 0840 73656E74 		.ascii	"sent\000"
 15725      00
 15726              	.LASF18:
 15727 0845 75696E74 		.ascii	"uint8_t\000"
 15727      385F7400 
 15728              	.LASF126:
 15729 084d 6D625F66 		.ascii	"mb_fullsem\000"
 15729      756C6C73 
 15729      656D00
 15730              	.LASF101:
 15731 0858 74625F62 		.ascii	"tb_buffer\000"
 15731      75666665 
 15731      7200
 15732              	.LASF216:
 15733 0862 736E645F 		.ascii	"snd_wl2\000"
 15733      776C3200 
 15734              	.LASF51:
 15735 086a 705F6D70 		.ascii	"p_mpool\000"
 15735      6F6F6C00 
 15736              	.LASF49:
 15737 0872 705F6D74 		.ascii	"p_mtxlist\000"
 15737      786C6973 
 15737      7400
 15738              	.LASF252:
 15739 087c 7463705F 		.ascii	"tcp_err_fn\000"
 15739      6572725F 
 15739      666E00
 15740              	.LASF184:
 15741 0887 61636365 		.ascii	"acceptmbox\000"
 15741      70746D62 
 15741      6F7800
 15742              	.LASF54:
 15743 0892 63685F74 		.ascii	"ch_thread\000"
 15743      68726561 
 15743      6400
 15744              	.LASF99:
 15745 089c 74625F73 		.ascii	"tb_size\000"
 15745      697A6500 
 15746              	.LASF335:
 15747 08a4 7463705F 		.ascii	"tcp_poll\000"
 15747      706F6C6C 
 15747      00
 15748              	.LASF341:
 15749 08ad 70627566 		.ascii	"pbuf_free\000"
 15749      5F667265 
ARM GAS  C:\Users\jo\AppData\Local\Temp\ccCSMiNu.s 			page 287


 15749      6500
 15750              	.LASF296:
 15751 08b7 77726974 		.ascii	"write_finished\000"
 15751      655F6669 
 15751      6E697368 
 15751      656400
 15752              	.LASF139:
 15753 08c6 76615F6C 		.ascii	"va_list\000"
 15753      69737400 
 15754              	.LASF313:
 15755 08ce 61636365 		.ascii	"accept_function\000"
 15755      70745F66 
 15755      756E6374 
 15755      696F6E00 
 15756              	.LASF308:
 15757 08de 66726565 		.ascii	"free_and_return\000"
 15757      5F616E64 
 15757      5F726574 
 15757      75726E00 
 15758              	.LASF274:
 15759 08ee 4D454D50 		.ascii	"MEMP_NETBUF\000"
 15759      5F4E4554 
 15759      42554600 
 15760              	.LASF57:
 15761 08fa 63685F74 		.ascii	"ch_threads_queue\000"
 15761      68726561 
 15761      64735F71 
 15761      75657565 
 15761      00
 15762              	.LASF354:
 15763 090b 7379735F 		.ascii	"sys_sem_new\000"
 15763      73656D5F 
 15763      6E657700 
 15764              	.LASF317:
 15765 0917 646F5F63 		.ascii	"do_connect\000"
 15765      6F6E6E65 
 15765      637400
 15766              	.LASF60:
 15767 0922 725F7175 		.ascii	"r_queue\000"
 15767      65756500 
 15768              	.LASF314:
 15769 092a 6E657770 		.ascii	"newpcb\000"
 15769      636200
 15770              	.LASF31:
 15771 0931 636E745F 		.ascii	"cnt_t\000"
 15771      7400
 15772              	.LASF29:
 15773 0937 6D73675F 		.ascii	"msg_t\000"
 15773      7400
 15774              	.LASF302:
 15775 093d 6572725F 		.ascii	"err_tcp\000"
 15775      74637000 
 15776              	.LASF269:
 15777 0945 4D454D50 		.ascii	"MEMP_TCP_PCB\000"
 15777      5F544350 
 15777      5F504342 
 15777      00
ARM GAS  C:\Users\jo\AppData\Local\Temp\ccCSMiNu.s 			page 288


 15778              	.LASF140:
 15779 0952 75385F74 		.ascii	"u8_t\000"
 15779      00
 15780              	.LASF311:
 15781 0957 6E657463 		.ascii	"netconn_drain\000"
 15781      6F6E6E5F 
 15781      64726169 
 15781      6E00
 15782              	.LASF43:
 15783 0965 705F666C 		.ascii	"p_flags\000"
 15783      61677300 
 15784              	.LASF6:
 15785 096d 5F5F696E 		.ascii	"__int16_t\000"
 15785      7431365F 
 15785      7400
 15786              	.LASF138:
 15787 0977 5F5F6170 		.ascii	"__ap\000"
 15787      00
 15788              	.LASF67:
 15789 097c 76697274 		.ascii	"virtual_timer_t\000"
 15789      75616C5F 
 15789      74696D65 
 15789      725F7400 
 15790              	.LASF282:
 15791 098c 6F73616C 		.ascii	"osalSysHalt\000"
 15791      53797348 
 15791      616C7400 
 15792              	.LASF134:
 15793 0998 49544D53 		.ascii	"ITMStreamVMT\000"
 15793      74726561 
 15793      6D564D54 
 15793      00
 15794              	.LASF361:
 15795 09a5 7379735F 		.ascii	"sys_arch_mbox_tryfetch\000"
 15795      61726368 
 15795      5F6D626F 
 15795      785F7472 
 15795      79666574 
 15796              	.LASF370:
 15797 09bc 7463705F 		.ascii	"tcp_listen_with_backlog\000"
 15797      6C697374 
 15797      656E5F77 
 15797      6974685F 
 15797      6261636B 
 15798              	.LASF336:
 15799 09d4 7463705F 		.ascii	"tcp_err\000"
 15799      65727200 
 15800              	.LASF288:
 15801 09dc 73657475 		.ascii	"setup_tcp\000"
 15801      705F7463 
 15801      7000
 15802              	.LASF198:
 15803 09e6 72656D6F 		.ascii	"remote_port\000"
 15803      74655F70 
 15803      6F727400 
 15804              	.LASF345:
 15805 09f2 7463705F 		.ascii	"tcp_close\000"
ARM GAS  C:\Users\jo\AppData\Local\Temp\ccCSMiNu.s 			page 289


 15805      636C6F73 
 15805      6500
 15806              	.LASF306:
 15807 09fc 73697A65 		.ascii	"size\000"
 15807      00
 15808              	.LASF42:
 15809 0a01 705F7374 		.ascii	"p_state\000"
 15809      61746500 
 15810              	.LASF123:
 15811 0a09 6D625F74 		.ascii	"mb_top\000"
 15811      6F7000
 15812              	.LASF100:
 15813 0a10 74625F70 		.ascii	"tb_ptr\000"
 15813      747200
 15814              	.LASF211:
 15815 0a17 6C617374 		.ascii	"lastack\000"
 15815      61636B00 
 15816              	.LASF204:
 15817 0a1f 7263765F 		.ascii	"rcv_ann_wnd\000"
 15817      616E6E5F 
 15817      776E6400 
 15818              	.LASF64:
 15819 0a2b 725F6F6C 		.ascii	"r_older\000"
 15819      64657200 
 15820              	.LASF272:
 15821 0a33 4D454D50 		.ascii	"MEMP_REASSDATA\000"
 15821      5F524541 
 15821      53534441 
 15821      544100
 15822              	.LASF249:
 15823 0a42 7463705F 		.ascii	"tcp_recv_fn\000"
 15823      72656376 
 15823      5F666E00 
 15824              	.LASF135:
 15825 0a4e 49544D53 		.ascii	"ITMStream\000"
 15825      74726561 
 15825      6D00
 15826              	.LASF267:
 15827 0a58 7463705F 		.ascii	"tcp_seg\000"
 15827      73656700 
 15828              	.LASF79:
 15829 0a60 70616E69 		.ascii	"panic_msg\000"
 15829      635F6D73 
 15829      6700
 15830              	.LASF360:
 15831 0a6a 7463705F 		.ascii	"tcp_abort\000"
 15831      61626F72 
 15831      7400
 15832              	.LASF92:
 15833 0a74 636F6E74 		.ascii	"context\000"
 15833      65787400 
 15834              	.LASF304:
 15835 0a7c 7761735F 		.ascii	"was_nonblocking_connect\000"
 15835      6E6F6E62 
 15835      6C6F636B 
 15835      696E675F 
 15835      636F6E6E 
ARM GAS  C:\Users\jo\AppData\Local\Temp\ccCSMiNu.s 			page 290


 15836              	.LASF47:
 15837 0a94 705F6D73 		.ascii	"p_msg\000"
 15837      6700
 15838              	.LASF104:
 15839 0a9a 746D5F63 		.ascii	"tm_calibration_t\000"
 15839      616C6962 
 15839      72617469 
 15839      6F6E5F74 
 15839      00
 15840              	.LASF244:
 15841 0aab 64617461 		.ascii	"dataptr\000"
 15841      70747200 
 15842              	.LASF25:
 15843 0ab3 746D6F64 		.ascii	"tmode_t\000"
 15843      655F7400 
 15844              	.LASF87:
 15845 0abb 6D61696E 		.ascii	"mainthread\000"
 15845      74687265 
 15845      616400
 15846              	.LASF251:
 15847 0ac6 7463705F 		.ascii	"tcp_poll_fn\000"
 15847      706F6C6C 
 15847      5F666E00 
 15848              	.LASF342:
 15849 0ad2 7379735F 		.ascii	"sys_mbox_trypost\000"
 15849      6D626F78 
 15849      5F747279 
 15849      706F7374 
 15849      00
 15850              	.LASF20:
 15851 0ae3 75696E74 		.ascii	"uint16_t\000"
 15851      31365F74 
 15851      00
 15852              	.LASF167:
 15853 0aec 4E455443 		.ascii	"NETCONN_NONE\000"
 15853      4F4E4E5F 
 15853      4E4F4E45 
 15853      00
 15854              	.LASF232:
 15855 0af9 65727266 		.ascii	"errf\000"
 15855      00
 15856              	.LASF218:
 15857 0afe 736E645F 		.ascii	"snd_wnd\000"
 15857      776E6400 
 15858              	.LASF346:
 15859 0b06 7463705F 		.ascii	"tcp_accept\000"
 15859      61636365 
 15859      707400
 15860              	.LASF254:
 15861 0b11 7463705F 		.ascii	"tcp_state\000"
 15861      73746174 
 15861      6500
 15862              	.LASF24:
 15863 0b1b 7274636E 		.ascii	"rtcnt_t\000"
 15863      745F7400 
 15864              	.LASF170:
 15865 0b23 4E455443 		.ascii	"NETCONN_CONNECT\000"
ARM GAS  C:\Users\jo\AppData\Local\Temp\ccCSMiNu.s 			page 291


 15865      4F4E4E5F 
 15865      434F4E4E 
 15865      45435400 
 15866              	.LASF81:
 15867 0b33 6C6F636B 		.ascii	"lock_cnt\000"
 15867      5F636E74 
 15867      00
 15868              	.LASF226:
 15869 0b3c 6F6F7365 		.ascii	"ooseq\000"
 15869      7100
 15870              	.LASF89:
 15871 0b42 73697A65 		.ascii	"sizetype\000"
 15871      74797065 
 15871      00
 15872              	.LASF316:
 15873 0b4b 646F5F62 		.ascii	"do_bind\000"
 15873      696E6400 
 15874              	.LASF50:
 15875 0b53 705F7265 		.ascii	"p_realprio\000"
 15875      616C7072 
 15875      696F00
 15876              	.LASF255:
 15877 0b5e 434C4F53 		.ascii	"CLOSED\000"
 15877      454400
 15878              	.LASF247:
 15879 0b65 7564705F 		.ascii	"udp_recv_fn\000"
 15879      72656376 
 15879      5F666E00 
 15880              	.LASF328:
 15881 0b71 646F5F63 		.ascii	"do_close\000"
 15881      6C6F7365 
 15881      00
 15882              	.LASF7:
 15883 0b7a 73686F72 		.ascii	"short int\000"
 15883      7420696E 
 15883      7400
 15884              	.LASF124:
 15885 0b84 6D625F77 		.ascii	"mb_wrptr\000"
 15885      72707472 
 15885      00
 15886              	.LASF65:
 15887 0b8d 725F6375 		.ascii	"r_current\000"
 15887      7272656E 
 15887      7400
 15888              	.LASF48:
 15889 0b97 705F6570 		.ascii	"p_epending\000"
 15889      656E6469 
 15889      6E6700
 15890              	.LASF116:
 15891 0ba2 6D5F7175 		.ascii	"m_queue\000"
 15891      65756500 
 15892              	.LASF322:
 15893 0baa 646F5F73 		.ascii	"do_send\000"
 15893      656E6400 
 15894              	.LASF11:
 15895 0bb2 6C6F6E67 		.ascii	"long int\000"
 15895      20696E74 
ARM GAS  C:\Users\jo\AppData\Local\Temp\ccCSMiNu.s 			page 292


 15895      00
 15896              	.LASF93:
 15897 0bbb 706F7274 		.ascii	"port_intctx\000"
 15897      5F696E74 
 15897      63747800 
 15898              	.LASF295:
 15899 0bc7 61766169 		.ascii	"available\000"
 15899      6C61626C 
 15899      6500
 15900              	.LASF224:
 15901 0bd1 756E7365 		.ascii	"unsent\000"
 15901      6E7400
 15902              	.LASF203:
 15903 0bd8 7263765F 		.ascii	"rcv_wnd\000"
 15903      776E6400 
 15904              	.LASF207:
 15905 0be0 72747465 		.ascii	"rttest\000"
 15905      737400
 15906              	.LASF297:
 15907 0be7 64696666 		.ascii	"diff\000"
 15907      00
 15908              	.LASF84:
 15909 0bec 63685F73 		.ascii	"ch_system\000"
 15909      79737465 
 15909      6D00
 15910              	.LASF187:
 15911 0bf6 63757272 		.ascii	"current_msg\000"
 15911      656E745F 
 15911      6D736700 
 15912              	.LASF362:
 15913 0c02 7379735F 		.ascii	"sys_mbox_free\000"
 15913      6D626F78 
 15913      5F667265 
 15913      6500
 15914              	.LASF278:
 15915 0c10 4D454D50 		.ascii	"MEMP_SYS_TIMEOUT\000"
 15915      5F535953 
 15915      5F54494D 
 15915      454F5554 
 15915      00
 15916              	.LASF201:
 15917 0c21 6C617374 		.ascii	"last_timer\000"
 15917      5F74696D 
 15917      657200
 15918              	.LASF268:
 15919 0c2c 4D454D50 		.ascii	"MEMP_UDP_PCB\000"
 15919      5F554450 
 15919      5F504342 
 15919      00
 15920              	.LASF190:
 15921 0c39 6C6F6361 		.ascii	"local_ip\000"
 15921      6C5F6970 
 15921      00
 15922              	.LASF23:
 15923 0c42 75696E74 		.ascii	"uint64_t\000"
 15923      36345F74 
 15923      00
ARM GAS  C:\Users\jo\AppData\Local\Temp\ccCSMiNu.s 			page 293


 15924              	.LASF37:
 15925 0c4b 705F6374 		.ascii	"p_ctx\000"
 15925      7800
 15926              	.LASF85:
 15927 0c51 726C6973 		.ascii	"rlist\000"
 15927      7400
 15928              	.LASF223:
 15929 0c57 756E7365 		.ascii	"unsent_oversize\000"
 15929      6E745F6F 
 15929      76657273 
 15929      697A6500 
 15930              	.LASF324:
 15931 0c67 72656D61 		.ascii	"remaining\000"
 15931      696E696E 
 15931      6700
 15932              	.LASF309:
 15933 0c71 646F5F6E 		.ascii	"do_newconn\000"
 15933      6577636F 
 15933      6E6E00
 15934              	.LASF185:
 15935 0c7c 736F636B 		.ascii	"socket\000"
 15935      657400
 15936              	.LASF214:
 15937 0c83 736E645F 		.ascii	"snd_nxt\000"
 15937      6E787400 
 15938              	.LASF4:
 15939 0c8b 5F5F7569 		.ascii	"__uint8_t\000"
 15939      6E74385F 
 15939      7400
 15940              	.LASF259:
 15941 0c95 45535441 		.ascii	"ESTABLISHED\000"
 15941      424C4953 
 15941      48454400 
 15942              	.LASF219:
 15943 0ca1 736E645F 		.ascii	"snd_wnd_max\000"
 15943      776E645F 
 15943      6D617800 
 15944              	.LASF131:
 15945 0cad 72656164 		.ascii	"read\000"
 15945      00
 15946              	.LASF273:
 15947 0cb2 4D454D50 		.ascii	"MEMP_FRAG_PBUF\000"
 15947      5F465241 
 15947      475F5042 
 15947      554600
 15948              	.LASF327:
 15949 0cc1 646F5F67 		.ascii	"do_getaddr\000"
 15949      65746164 
 15949      647200
 15950              	.LASF213:
 15951 0ccc 73737468 		.ascii	"ssthresh\000"
 15951      72657368 
 15951      00
 15952              	.LASF221:
 15953 0cd5 736E645F 		.ascii	"snd_buf\000"
 15953      62756600 
 15954              	.LASF358:
ARM GAS  C:\Users\jo\AppData\Local\Temp\ccCSMiNu.s 			page 294


 15955 0cdd 7379735F 		.ascii	"sys_sem_free\000"
 15955      73656D5F 
 15955      66726565 
 15955      00
 15956              	.LASF323:
 15957 0cea 646F5F72 		.ascii	"do_recv\000"
 15957      65637600 
 15958              	.LASF35:
 15959 0cf2 705F7072 		.ascii	"p_prev\000"
 15959      657600
 15960              	.LASF262:
 15961 0cf9 434C4F53 		.ascii	"CLOSE_WAIT\000"
 15961      455F5741 
 15961      495400
 15962              	.LASF150:
 15963 0d04 7379735F 		.ascii	"sys_mbox_t\000"
 15963      6D626F78 
 15963      5F7400
 15964              	.LASF27:
 15965 0d0f 74726566 		.ascii	"trefs_t\000"
 15965      735F7400 
 15966              	.LASF13:
 15967 0d17 6C6F6E67 		.ascii	"long unsigned int\000"
 15967      20756E73 
 15967      69676E65 
 15967      6420696E 
 15967      7400
 15968              	.LASF58:
 15969 0d29 72656164 		.ascii	"ready_list_t\000"
 15969      795F6C69 
 15969      73745F74 
 15969      00
 15970              	.LASF289:
 15971 0d36 646F5F63 		.ascii	"do_close_internal\000"
 15971      6C6F7365 
 15971      5F696E74 
 15971      65726E61 
 15971      6C00
 15972              	.LASF305:
 15973 0d48 72656376 		.ascii	"recv_udp\000"
 15973      5F756470 
 15973      00
 15974              	.LASF143:
 15975 0d51 7331365F 		.ascii	"s16_t\000"
 15975      7400
 15976              	.LASF21:
 15977 0d57 696E7433 		.ascii	"int32_t\000"
 15977      325F7400 
 15978              	.LASF235:
 15979 0d5f 70657273 		.ascii	"persist_backoff\000"
 15979      6973745F 
 15979      6261636B 
 15979      6F666600 
 15980              	.LASF245:
 15981 0d6f 61706966 		.ascii	"apiflags\000"
 15981      6C616773 
 15981      00
ARM GAS  C:\Users\jo\AppData\Local\Temp\ccCSMiNu.s 			page 295


 15982              	.LASF227:
 15983 0d78 72656675 		.ascii	"refused_data\000"
 15983      7365645F 
 15983      64617461 
 15983      00
 15984              	.LASF82:
 15985 0d85 74726163 		.ascii	"trace_buffer\000"
 15985      655F6275 
 15985      66666572 
 15985      00
 15986              	.LASF109:
 15987 0d92 77747365 		.ascii	"wtsemp\000"
 15987      6D7000
 15988              	.LASF172:
 15989 0d99 6E657463 		.ascii	"netconn_evt\000"
 15989      6F6E6E5F 
 15989      65767400 
 15990              	.LASF351:
 15991 0da5 7564705F 		.ascii	"udp_recv\000"
 15991      72656376 
 15991      00
 15992              	.LASF178:
 15993 0dae 6E657463 		.ascii	"netconn_callback\000"
 15993      6F6E6E5F 
 15993      63616C6C 
 15993      6261636B 
 15993      00
 15994              	.LASF98:
 15995 0dbf 63685F73 		.ascii	"ch_swc_event_t\000"
 15995      77635F65 
 15995      76656E74 
 15995      5F7400
 15996              	.LASF284:
 15997 0dce 72656173 		.ascii	"reason\000"
 15997      6F6E00
 15998              	.LASF121:
 15999 0dd5 6D757465 		.ascii	"mutex_t\000"
 15999      785F7400 
 16000              	.LASF300:
 16001 0ddd 646F5F63 		.ascii	"do_connected\000"
 16001      6F6E6E65 
 16001      63746564 
 16001      00
 16002              	.LASF73:
 16003 0dea 76745F70 		.ascii	"vt_par\000"
 16003      617200
 16004              	.LASF155:
 16005 0df1 74797065 		.ascii	"type\000"
 16005      00
 16006              	.LASF5:
 16007 0df6 756E7369 		.ascii	"unsigned char\000"
 16007      676E6564 
 16007      20636861 
 16007      7200
 16008              	.LASF320:
 16009 0e04 646F5F6C 		.ascii	"do_listen\000"
 16009      69737465 
ARM GAS  C:\Users\jo\AppData\Local\Temp\ccCSMiNu.s 			page 296


 16009      6E00
 16010              	.LASF164:
 16011 0e0e 4E455443 		.ascii	"NETCONN_RAW\000"
 16011      4F4E4E5F 
 16011      52415700 
 16012              	.LASF260:
 16013 0e1a 46494E5F 		.ascii	"FIN_WAIT_1\000"
 16013      57414954 
 16013      5F3100
 16014              	.LASF261:
 16015 0e25 46494E5F 		.ascii	"FIN_WAIT_2\000"
 16015      57414954 
 16015      5F3200
 16016              	.LASF225:
 16017 0e30 756E6163 		.ascii	"unacked\000"
 16017      6B656400 
 16018              	.LASF74:
 16019 0e38 76697274 		.ascii	"virtual_timers_list_t\000"
 16019      75616C5F 
 16019      74696D65 
 16019      72735F6C 
 16019      6973745F 
 16020              	.LASF44:
 16021 0e4e 705F7265 		.ascii	"p_refs\000"
 16021      667300
 16022              	.LASF271:
 16023 0e55 4D454D50 		.ascii	"MEMP_TCP_SEG\000"
 16023      5F544350 
 16023      5F534547 
 16023      00
 16024              	.LASF189:
 16025 0e62 69705F70 		.ascii	"ip_pcb\000"
 16025      636200
 16026              	.LASF160:
 16027 0e69 4E455443 		.ascii	"NETCONN_TCP\000"
 16027      4F4E4E5F 
 16027      54435000 
 16028              	.LASF257:
 16029 0e75 53594E5F 		.ascii	"SYN_SENT\000"
 16029      53454E54 
 16029      00
 16030              	.LASF151:
 16031 0e7e 70627566 		.ascii	"pbuf\000"
 16031      00
 16032              	.LASF246:
 16033 0e83 73687574 		.ascii	"shut\000"
 16033      00
 16034              	.LASF233:
 16035 0e88 6B656570 		.ascii	"keep_idle\000"
 16035      5F69646C 
 16035      6500
 16036              	.LASF169:
 16037 0e92 4E455443 		.ascii	"NETCONN_LISTEN\000"
 16037      4F4E4E5F 
 16037      4C495354 
 16037      454E00
 16038              	.LASF376:
ARM GAS  C:\Users\jo\AppData\Local\Temp\ccCSMiNu.s 			page 297


 16039 0ea1 6E657463 		.ascii	"netconn_alloc\000"
 16039      6F6E6E5F 
 16039      616C6C6F 
 16039      6300
 16040              	.LASF256:
 16041 0eaf 4C495354 		.ascii	"LISTEN\000"
 16041      454E00
 16042              	.LASF332:
 16043 0eb6 7463705F 		.ascii	"tcp_arg\000"
 16043      61726700 
 16044              	.LASF307:
 16045 0ebe 6572725F 		.ascii	"err_mem\000"
 16045      6D656D00 
 16046              	.LASF186:
 16047 0ec6 77726974 		.ascii	"write_offset\000"
 16047      655F6F66 
 16047      66736574 
 16047      00
 16048              	.LASF146:
 16049 0ed3 61646472 		.ascii	"addr\000"
 16049      00
 16050              	.LASF180:
 16051 0ed8 73746174 		.ascii	"state\000"
 16051      6500
 16052              	.LASF333:
 16053 0ede 7463705F 		.ascii	"tcp_recv\000"
 16053      72656376 
 16053      00
 16054              	.LASF337:
 16055 0ee7 63685379 		.ascii	"chSysHalt\000"
 16055      7348616C 
 16055      7400
 16056              	.LASF188:
 16057 0ef1 63616C6C 		.ascii	"callback\000"
 16057      6261636B 
 16057      00
 16058              	.LASF69:
 16059 0efa 76745F6E 		.ascii	"vt_next\000"
 16059      65787400 
 16060              	.LASF363:
 16061 0f02 7379735F 		.ascii	"sys_sem_valid\000"
 16061      73656D5F 
 16061      76616C69 
 16061      6400
 16062              	.LASF83:
 16063 0f10 63685F73 		.ascii	"ch_system_t\000"
 16063      79737465 
 16063      6D5F7400 
 16064              	.LASF321:
 16065 0f1c 6C706362 		.ascii	"lpcb\000"
 16065      00
 16066              	.LASF301:
 16067 0f21 7761735F 		.ascii	"was_blocking\000"
 16067      626C6F63 
 16067      6B696E67 
 16067      00
 16068              	.LASF119:
ARM GAS  C:\Users\jo\AppData\Local\Temp\ccCSMiNu.s 			page 298


 16069 0f2e 63686172 		.ascii	"char\000"
 16069      00
 16070              	.LASF144:
 16071 0f33 7533325F 		.ascii	"u32_t\000"
 16071      7400
 16072              	.LASF364:
 16073 0f39 7564705F 		.ascii	"udp_remove\000"
 16073      72656D6F 
 16073      766500
 16074              	.LASF283:
 16075 0f44 7063625F 		.ascii	"pcb_new\000"
 16075      6E657700 
 16076              	.LASF137:
 16077 0f4c 5F5F7661 		.ascii	"__va_list\000"
 16077      5F6C6973 
 16077      7400
 16078              	.LASF229:
 16079 0f56 72656376 		.ascii	"recv\000"
 16079      00
 16080              	.LASF102:
 16081 0f5b 63685F74 		.ascii	"ch_trace_buffer_t\000"
 16081      72616365 
 16081      5F627566 
 16081      6665725F 
 16081      7400
 16082              	.LASF118:
 16083 0f6d 6D5F6E65 		.ascii	"m_next\000"
 16083      787400
 16084              	.LASF312:
 16085 0f74 6E657763 		.ascii	"newconn\000"
 16085      6F6E6E00 
 16086              	.LASF3:
 16087 0f7c 7369676E 		.ascii	"signed char\000"
 16087      65642063 
 16087      68617200 
 16088              	.LASF193:
 16089 0f88 7463705F 		.ascii	"tcp_pcb\000"
 16089      70636200 
 16090              	.LASF9:
 16091 0f90 73686F72 		.ascii	"short unsigned int\000"
 16091      7420756E 
 16091      7369676E 
 16091      65642069 
 16091      6E7400
 16092              	.LASF62:
 16093 0fa3 725F6374 		.ascii	"r_ctx\000"
 16093      7800
 16094              	.LASF194:
 16095 0fa9 63616C6C 		.ascii	"callback_arg\000"
 16095      6261636B 
 16095      5F617267 
 16095      00
 16096              	.LASF91:
 16097 0fb6 73746B61 		.ascii	"stkalign_t\000"
 16097      6C69676E 
 16097      5F7400
 16098              	.LASF2:
ARM GAS  C:\Users\jo\AppData\Local\Temp\ccCSMiNu.s 			page 299


 16099 0fc1 5F5F696E 		.ascii	"__int8_t\000"
 16099      74385F74 
 16099      00
 16100              	.LASF130:
 16101 0fca 77726974 		.ascii	"write\000"
 16101      6500
 16102              	.LASF325:
 16103 0fd0 72656376 		.ascii	"recved\000"
 16103      656400
 16104              	.LASF46:
 16105 0fd7 705F6D73 		.ascii	"p_msgqueue\000"
 16105      67717565 
 16105      756500
 16106              	.LASF162:
 16107 0fe2 4E455443 		.ascii	"NETCONN_UDPLITE\000"
 16107      4F4E4E5F 
 16107      5544504C 
 16107      49544500 
 16108              	.LASF234:
 16109 0ff2 70657273 		.ascii	"persist_cnt\000"
 16109      6973745F 
 16109      636E7400 
 16110              	.LASF191:
 16111 0ffe 72656D6F 		.ascii	"remote_ip\000"
 16111      74655F69 
 16111      7000
 16112              	.LASF72:
 16113 1008 76745F66 		.ascii	"vt_func\000"
 16113      756E6300 
 16114              	.LASF355:
 16115 1010 7379735F 		.ascii	"sys_mbox_new\000"
 16115      6D626F78 
 16115      5F6E6577 
 16115      00
 16116              	.LASF182:
 16117 101d 6F705F63 		.ascii	"op_completed\000"
 16117      6F6D706C 
 16117      65746564 
 16117      00
 16118              	.LASF70:
 16119 102a 76745F70 		.ascii	"vt_prev\000"
 16119      72657600 
 16120              	.LASF287:
 16121 1032 666F726D 		.ascii	"formatted_bytes\000"
 16121      61747465 
 16121      645F6279 
 16121      74657300 
 16122              	.LASF147:
 16123 1042 69705F61 		.ascii	"ip_addr_t\000"
 16123      6464725F 
 16123      7400
 16124              	.LASF237:
 16125 104c 7564705F 		.ascii	"udp_pcb\000"
 16125      70636200 
 16126              	.LASF179:
 16127 1054 6E657463 		.ascii	"netconn\000"
 16127      6F6E6E00 
ARM GAS  C:\Users\jo\AppData\Local\Temp\ccCSMiNu.s 			page 300


 16128              	.LASF168:
 16129 105c 4E455443 		.ascii	"NETCONN_WRITE\000"
 16129      4F4E4E5F 
 16129      57524954 
 16129      4500
 16130              	.LASF290:
 16131 106a 73687574 		.ascii	"shut_rx\000"
 16131      5F727800 
 16132              	.LASF108:
 16133 1072 77747472 		.ascii	"wttrp\000"
 16133      7000
 16134              	.LASF209:
 16135 1078 6E727478 		.ascii	"nrtx\000"
 16135      00
 16136              	.LASF222:
 16137 107d 736E645F 		.ascii	"snd_queuelen\000"
 16137      71756575 
 16137      656C656E 
 16137      00
 16138              	.LASF106:
 16139 108a 65786974 		.ascii	"exitcode\000"
 16139      636F6465 
 16139      00
 16140              	.LASF258:
 16141 1093 53594E5F 		.ascii	"SYN_RCVD\000"
 16141      52435644 
 16141      00
 16142              	.LASF145:
 16143 109c 69705F61 		.ascii	"ip_addr\000"
 16143      64647200 
 16144              	.LASF330:
 16145 10a4 69746D5F 		.ascii	"itm_port\000"
 16145      706F7274 
 16145      00
 16146              		.ident	"GCC: (GNU Tools for ARM Embedded Processors) 4.9.3 20141119 (release) [ARM/embedded-4_9-br
ARM GAS  C:\Users\jo\AppData\Local\Temp\ccCSMiNu.s 			page 301


DEFINED SYMBOLS
                            *ABS*:00000000 api_msg.c
C:\Users\jo\AppData\Local\Temp\ccCSMiNu.s:19     .text.setup_tcp:00000000 $t
C:\Users\jo\AppData\Local\Temp\ccCSMiNu.s:24     .text.setup_tcp:00000000 setup_tcp
C:\Users\jo\AppData\Local\Temp\ccCSMiNu.s:76     .text.setup_tcp:00000034 $d
C:\Users\jo\AppData\Local\Temp\ccCSMiNu.s:146    .text.recv_tcp:00000000 recv_tcp
C:\Users\jo\AppData\Local\Temp\ccCSMiNu.s:1289   .text.sent_tcp:00000000 sent_tcp
C:\Users\jo\AppData\Local\Temp\ccCSMiNu.s:1171   .text.poll_tcp:00000000 poll_tcp
C:\Users\jo\AppData\Local\Temp\ccCSMiNu.s:1591   .text.err_tcp:00000000 err_tcp
C:\Users\jo\AppData\Local\Temp\ccCSMiNu.s:84     .text.chprintf.constprop.2:00000000 $t
C:\Users\jo\AppData\Local\Temp\ccCSMiNu.s:89     .text.chprintf.constprop.2:00000000 chprintf.constprop.2
C:\Users\jo\AppData\Local\Temp\ccCSMiNu.s:135    .text.chprintf.constprop.2:00000020 $d
C:\Users\jo\AppData\Local\Temp\ccCSMiNu.s:141    .text.recv_tcp:00000000 $t
C:\Users\jo\AppData\Local\Temp\ccCSMiNu.s:337    .text.recv_tcp:000000cc $d
C:\Users\jo\AppData\Local\Temp\ccCSMiNu.s:347    .text.do_close_internal:00000000 $t
C:\Users\jo\AppData\Local\Temp\ccCSMiNu.s:352    .text.do_close_internal:00000000 do_close_internal
C:\Users\jo\AppData\Local\Temp\ccCSMiNu.s:744    .text.do_close_internal:000001d4 $d
C:\Users\jo\AppData\Local\Temp\ccCSMiNu.s:760    .text.do_writemore:00000000 $t
C:\Users\jo\AppData\Local\Temp\ccCSMiNu.s:765    .text.do_writemore:00000000 do_writemore
C:\Users\jo\AppData\Local\Temp\ccCSMiNu.s:1154   .text.do_writemore:000001e0 $d
C:\Users\jo\AppData\Local\Temp\ccCSMiNu.s:1166   .text.poll_tcp:00000000 $t
C:\Users\jo\AppData\Local\Temp\ccCSMiNu.s:1274   .text.poll_tcp:00000074 $d
C:\Users\jo\AppData\Local\Temp\ccCSMiNu.s:1284   .text.sent_tcp:00000000 $t
C:\Users\jo\AppData\Local\Temp\ccCSMiNu.s:1395   .text.sent_tcp:00000070 $d
C:\Users\jo\AppData\Local\Temp\ccCSMiNu.s:1405   .text.do_connected:00000000 $t
C:\Users\jo\AppData\Local\Temp\ccCSMiNu.s:1410   .text.do_connected:00000000 do_connected
C:\Users\jo\AppData\Local\Temp\ccCSMiNu.s:1577   .text.do_connected:000000b8 $d
C:\Users\jo\AppData\Local\Temp\ccCSMiNu.s:1586   .text.err_tcp:00000000 $t
C:\Users\jo\AppData\Local\Temp\ccCSMiNu.s:1827   .text.err_tcp:000000f4 $d
C:\Users\jo\AppData\Local\Temp\ccCSMiNu.s:1840   .text.recv_udp:00000000 $t
C:\Users\jo\AppData\Local\Temp\ccCSMiNu.s:1845   .text.recv_udp:00000000 recv_udp
C:\Users\jo\AppData\Local\Temp\ccCSMiNu.s:2069   .text.recv_udp:000000cc $d
C:\Users\jo\AppData\Local\Temp\ccCSMiNu.s:2080   .text.do_newconn:00000000 $t
C:\Users\jo\AppData\Local\Temp\ccCSMiNu.s:2086   .text.do_newconn:00000000 do_newconn
C:\Users\jo\AppData\Local\Temp\ccCSMiNu.s:2189   .text.do_newconn:00000070 $d
C:\Users\jo\AppData\Local\Temp\ccCSMiNu.s:2196   .text.netconn_alloc:00000000 $t
C:\Users\jo\AppData\Local\Temp\ccCSMiNu.s:2202   .text.netconn_alloc:00000000 netconn_alloc
C:\Users\jo\AppData\Local\Temp\ccCSMiNu.s:2349   .text.netconn_alloc:00000094 $d
C:\Users\jo\AppData\Local\Temp\ccCSMiNu.s:2358   .text.netconn_free:00000000 $t
C:\Users\jo\AppData\Local\Temp\ccCSMiNu.s:2364   .text.netconn_free:00000000 netconn_free
C:\Users\jo\AppData\Local\Temp\ccCSMiNu.s:2479   .text.netconn_free:00000084 $d
C:\Users\jo\AppData\Local\Temp\ccCSMiNu.s:2491   .text.netconn_drain:00000000 $t
C:\Users\jo\AppData\Local\Temp\ccCSMiNu.s:2496   .text.netconn_drain:00000000 netconn_drain
C:\Users\jo\AppData\Local\Temp\ccCSMiNu.s:2672   .text.netconn_drain:000000d0 $d
C:\Users\jo\AppData\Local\Temp\ccCSMiNu.s:2680   .text.accept_function:00000000 $t
C:\Users\jo\AppData\Local\Temp\ccCSMiNu.s:2685   .text.accept_function:00000000 accept_function
C:\Users\jo\AppData\Local\Temp\ccCSMiNu.s:2819   .text.do_delconn:00000000 $t
C:\Users\jo\AppData\Local\Temp\ccCSMiNu.s:2825   .text.do_delconn:00000000 do_delconn
C:\Users\jo\AppData\Local\Temp\ccCSMiNu.s:3057   .text.do_delconn:0000010c $d
C:\Users\jo\AppData\Local\Temp\ccCSMiNu.s:3067   .text.do_bind:00000000 $t
C:\Users\jo\AppData\Local\Temp\ccCSMiNu.s:3073   .text.do_bind:00000000 do_bind
C:\Users\jo\AppData\Local\Temp\ccCSMiNu.s:3163   .text.do_connect:00000000 $t
C:\Users\jo\AppData\Local\Temp\ccCSMiNu.s:3169   .text.do_connect:00000000 do_connect
C:\Users\jo\AppData\Local\Temp\ccCSMiNu.s:3359   .text.do_connect:000000cc $d
C:\Users\jo\AppData\Local\Temp\ccCSMiNu.s:3368   .text.do_disconnect:00000000 $t
C:\Users\jo\AppData\Local\Temp\ccCSMiNu.s:3374   .text.do_disconnect:00000000 do_disconnect
C:\Users\jo\AppData\Local\Temp\ccCSMiNu.s:3426   .text.do_listen:00000000 $t
ARM GAS  C:\Users\jo\AppData\Local\Temp\ccCSMiNu.s 			page 302


C:\Users\jo\AppData\Local\Temp\ccCSMiNu.s:3432   .text.do_listen:00000000 do_listen
C:\Users\jo\AppData\Local\Temp\ccCSMiNu.s:3585   .text.do_listen:000000b0 $d
C:\Users\jo\AppData\Local\Temp\ccCSMiNu.s:3591   .text.do_send:00000000 $t
C:\Users\jo\AppData\Local\Temp\ccCSMiNu.s:3597   .text.do_send:00000000 do_send
C:\Users\jo\AppData\Local\Temp\ccCSMiNu.s:3688   .text.do_recv:00000000 $t
C:\Users\jo\AppData\Local\Temp\ccCSMiNu.s:3694   .text.do_recv:00000000 do_recv
C:\Users\jo\AppData\Local\Temp\ccCSMiNu.s:3785   .text.do_write:00000000 $t
C:\Users\jo\AppData\Local\Temp\ccCSMiNu.s:3791   .text.do_write:00000000 do_write
C:\Users\jo\AppData\Local\Temp\ccCSMiNu.s:3931   .text.do_write:00000090 $d
C:\Users\jo\AppData\Local\Temp\ccCSMiNu.s:3940   .text.do_getaddr:00000000 $t
C:\Users\jo\AppData\Local\Temp\ccCSMiNu.s:3946   .text.do_getaddr:00000000 do_getaddr
C:\Users\jo\AppData\Local\Temp\ccCSMiNu.s:4116   .text.do_getaddr:000000b8 $d
C:\Users\jo\AppData\Local\Temp\ccCSMiNu.s:4124   .text.do_close:00000000 $t
C:\Users\jo\AppData\Local\Temp\ccCSMiNu.s:4130   .text.do_close:00000000 do_close
C:\Users\jo\AppData\Local\Temp\ccCSMiNu.s:4301   .text.do_close:000000ac $d
C:\Users\jo\AppData\Local\Temp\ccCSMiNu.s:4310   .rodata.str1.4:00000000 $d
                     .debug_frame:00000010 $d
C:\Users\jo\AppData\Local\Temp\ccCSMiNu.s:83     .text.setup_tcp:00000044 $t
C:\Users\jo\AppData\Local\Temp\ccCSMiNu.s:140    .text.chprintf.constprop.2:00000028 $t
C:\Users\jo\AppData\Local\Temp\ccCSMiNu.s:346    .text.recv_tcp:000000e4 $t
C:\Users\jo\AppData\Local\Temp\ccCSMiNu.s:759    .text.do_close_internal:00000204 $t
C:\Users\jo\AppData\Local\Temp\ccCSMiNu.s:1283   .text.poll_tcp:00000084 $t
C:\Users\jo\AppData\Local\Temp\ccCSMiNu.s:1585   .text.do_connected:000000cc $t
C:\Users\jo\AppData\Local\Temp\ccCSMiNu.s:1839   .text.err_tcp:0000010c $t
C:\Users\jo\AppData\Local\Temp\ccCSMiNu.s:2079   .text.recv_udp:000000e8 $t
C:\Users\jo\AppData\Local\Temp\ccCSMiNu.s:2195   .text.do_newconn:00000074 $t
C:\Users\jo\AppData\Local\Temp\ccCSMiNu.s:2357   .text.netconn_alloc:000000a8 $t
C:\Users\jo\AppData\Local\Temp\ccCSMiNu.s:2490   .text.netconn_free:0000009c $t
C:\Users\jo\AppData\Local\Temp\ccCSMiNu.s:3066   .text.do_delconn:00000124 $t
C:\Users\jo\AppData\Local\Temp\ccCSMiNu.s:3590   .text.do_listen:000000b4 $t
C:\Users\jo\AppData\Local\Temp\ccCSMiNu.s:3939   .text.do_write:000000a4 $t
C:\Users\jo\AppData\Local\Temp\ccCSMiNu.s:4123   .text.do_getaddr:000000c8 $t

UNDEFINED SYMBOLS
tcp_arg
tcp_recv
tcp_sent
tcp_poll
tcp_err
chvprintf
itm_port
chSysHalt
sys_mbox_valid
tcp_recved
pbuf_free
sys_mbox_trypost
tcp_shutdown
sys_sem_signal
tcp_close
tcp_accept
tcp_output
tcp_write
malloc
netbuf_delete
memp_sizes
udp_new
udp_recv
ARM GAS  C:\Users\jo\AppData\Local\Temp\ccCSMiNu.s 			page 303


tcp_new
sys_sem_new
sys_mbox_new
sys_mbox_set_invalid
free
sys_sem_free
sys_sem_set_invalid
sys_arch_mbox_tryfetch
sys_mbox_free
tcp_abort
sys_sem_valid
udp_remove
udp_bind
tcp_bind
udp_connect
tcp_connect
udp_disconnect
tcp_listen_with_backlog
udp_send
udp_sendto
