ARM GAS  C:\Users\jo\AppData\Local\Temp\ccQ6q6fX.s 			page 1


   1              		.syntax unified
   2              		.cpu cortex-m4
   3              		.fpu softvfp
   4              		.eabi_attribute 20, 1
   5              		.eabi_attribute 21, 1
   6              		.eabi_attribute 23, 3
   7              		.eabi_attribute 24, 1
   8              		.eabi_attribute 25, 1
   9              		.eabi_attribute 26, 1
  10              		.eabi_attribute 30, 2
  11              		.eabi_attribute 34, 1
  12              		.eabi_attribute 18, 4
  13              		.thumb
  14              		.file	"asn1write.c"
  15              		.text
  16              	.Ltext0:
  17              		.cfi_sections	.debug_frame
  18              		.section	.text.asn1_write_len,"ax",%progbits
  19              		.align	2
  20              		.p2align 4,,15
  21              		.global	asn1_write_len
  22              		.thumb
  23              		.thumb_func
  24              		.type	asn1_write_len, %function
  25              	asn1_write_len:
  26              	.LFB0:
  27              		.file 1 "../../../ext/mbedtls-1.3.11/library/asn1write.c"
  28              		.loc 1 44 0
  29              		.cfi_startproc
  30              		@ args = 0, pretend = 0, frame = 0
  31              		@ frame_needed = 0, uses_anonymous_args = 0
  32              		@ link register save eliminated.
  33              	.LVL0:
  34              		.loc 1 47 0
  35 0000 0368     		ldr	r3, [r0]
  36              		.loc 1 45 0
  37 0002 7F2A     		cmp	r2, #127
  38              		.loc 1 47 0
  39 0004 A3EB0101 		sub	r1, r3, r1
  40              	.LVL1:
  41              		.loc 1 45 0
  42 0008 07D8     		bhi	.L2
  43              		.loc 1 47 0
  44 000a 0029     		cmp	r1, #0
  45 000c 29DD     		ble	.L7
  46              		.loc 1 50 0
  47 000e 591E     		subs	r1, r3, #1
  48 0010 0160     		str	r1, [r0]
  49              		.loc 1 51 0
  50 0012 0120     		movs	r0, #1
  51              	.LVL2:
  52              		.loc 1 50 0
  53 0014 03F8012C 		strb	r2, [r3, #-1]
  54              		.loc 1 51 0
  55 0018 7047     		bx	lr
  56              	.LVL3:
  57              	.L2:
ARM GAS  C:\Users\jo\AppData\Local\Temp\ccQ6q6fX.s 			page 2


  58              		.loc 1 54 0
  59 001a FF2A     		cmp	r2, #255
  60 001c 0DD8     		bhi	.L4
  61              		.loc 1 56 0
  62 001e 0129     		cmp	r1, #1
  63 0020 1FDD     		ble	.L7
  64              		.loc 1 59 0
  65 0022 591E     		subs	r1, r3, #1
  66 0024 0160     		str	r1, [r0]
  67 0026 03F8012C 		strb	r2, [r3, #-1]
  68              		.loc 1 60 0
  69 002a 0368     		ldr	r3, [r0]
  70 002c 8122     		movs	r2, #129
  71              	.LVL4:
  72 002e 591E     		subs	r1, r3, #1
  73 0030 0160     		str	r1, [r0]
  74              		.loc 1 61 0
  75 0032 0220     		movs	r0, #2
  76              	.LVL5:
  77              		.loc 1 60 0
  78 0034 03F8012C 		strb	r2, [r3, #-1]
  79              		.loc 1 61 0
  80 0038 7047     		bx	lr
  81              	.LVL6:
  82              	.L4:
  83              	.LBB32:
  84              	.LBB33:
  85              		.loc 1 64 0
  86 003a 0229     		cmp	r1, #2
  87 003c 11DD     		ble	.L7
  88              		.loc 1 69 0
  89 003e 591E     		subs	r1, r3, #1
  90              	.LVL7:
  91 0040 0160     		str	r1, [r0]
  92 0042 03F8012C 		strb	r2, [r3, #-1]
  93              		.loc 1 70 0
  94 0046 0368     		ldr	r3, [r0]
  95              	.LVL8:
  96 0048 120A     		lsrs	r2, r2, #8
  97              	.LVL9:
  98 004a 591E     		subs	r1, r3, #1
  99              	.LVL10:
 100 004c 0160     		str	r1, [r0]
 101 004e 03F8012C 		strb	r2, [r3, #-1]
 102              		.loc 1 71 0
 103 0052 0368     		ldr	r3, [r0]
 104 0054 8222     		movs	r2, #130
 105 0056 591E     		subs	r1, r3, #1
 106 0058 0160     		str	r1, [r0]
 107              		.loc 1 73 0
 108 005a 0320     		movs	r0, #3
 109              	.LVL11:
 110              		.loc 1 71 0
 111 005c 03F8012C 		strb	r2, [r3, #-1]
 112 0060 7047     		bx	lr
 113              	.LVL12:
 114              	.L7:
ARM GAS  C:\Users\jo\AppData\Local\Temp\ccQ6q6fX.s 			page 3


 115              	.LBE33:
 116              	.LBE32:
 117              		.loc 1 48 0
 118 0062 6FF06B00 		mvn	r0, #107
 119              	.LVL13:
 120              		.loc 1 74 0
 121 0066 7047     		bx	lr
 122              		.cfi_endproc
 123              	.LFE0:
 124              		.size	asn1_write_len, .-asn1_write_len
 125 0068 AFF30080 		.section	.text.asn1_write_tag,"ax",%progbits
 125      AFF30080 
 126              		.align	2
 127              		.p2align 4,,15
 128              		.global	asn1_write_tag
 129              		.thumb
 130              		.thumb_func
 131              		.type	asn1_write_tag, %function
 132              	asn1_write_tag:
 133              	.LFB1:
 134              		.loc 1 77 0
 135              		.cfi_startproc
 136              		@ args = 0, pretend = 0, frame = 0
 137              		@ frame_needed = 0, uses_anonymous_args = 0
 138              		@ link register save eliminated.
 139              	.LVL14:
 140              		.loc 1 78 0
 141 0000 0368     		ldr	r3, [r0]
 142 0002 591A     		subs	r1, r3, r1
 143              	.LVL15:
 144 0004 0029     		cmp	r1, #0
 145 0006 05DD     		ble	.L11
 146              		.loc 1 81 0
 147 0008 591E     		subs	r1, r3, #1
 148 000a 0160     		str	r1, [r0]
 149              		.loc 1 83 0
 150 000c 0120     		movs	r0, #1
 151              	.LVL16:
 152              		.loc 1 81 0
 153 000e 03F8012C 		strb	r2, [r3, #-1]
 154              		.loc 1 83 0
 155 0012 7047     		bx	lr
 156              	.LVL17:
 157              	.L11:
 158              		.loc 1 79 0
 159 0014 6FF06B00 		mvn	r0, #107
 160              	.LVL18:
 161              		.loc 1 84 0
 162 0018 7047     		bx	lr
 163              		.cfi_endproc
 164              	.LFE1:
 165              		.size	asn1_write_tag, .-asn1_write_tag
 166 001a 00BFAFF3 		.section	.text.asn1_write_raw_buffer,"ax",%progbits
 166      0080
 167              		.align	2
 168              		.p2align 4,,15
 169              		.global	asn1_write_raw_buffer
ARM GAS  C:\Users\jo\AppData\Local\Temp\ccQ6q6fX.s 			page 4


 170              		.thumb
 171              		.thumb_func
 172              		.type	asn1_write_raw_buffer, %function
 173              	asn1_write_raw_buffer:
 174              	.LFB2:
 175              		.loc 1 88 0
 176              		.cfi_startproc
 177              		@ args = 0, pretend = 0, frame = 0
 178              		@ frame_needed = 0, uses_anonymous_args = 0
 179              	.LVL19:
 180 0000 38B5     		push	{r3, r4, r5, lr}
 181              		.cfi_def_cfa_offset 16
 182              		.cfi_offset 3, -16
 183              		.cfi_offset 4, -12
 184              		.cfi_offset 5, -8
 185              		.cfi_offset 14, -4
 186              		.loc 1 91 0
 187 0002 0468     		ldr	r4, [r0]
 188 0004 611A     		subs	r1, r4, r1
 189              	.LVL20:
 190 0006 9942     		cmp	r1, r3
 191 0008 1D46     		mov	r5, r3
 192 000a 08DB     		blt	.L14
 193              	.LVL21:
 194              		.loc 1 95 0
 195 000c E41A     		subs	r4, r4, r3
 196 000e 0460     		str	r4, [r0]
 197              		.loc 1 96 0
 198 0010 1146     		mov	r1, r2
 199 0012 2046     		mov	r0, r4
 200              	.LVL22:
 201 0014 1A46     		mov	r2, r3
 202              	.LVL23:
 203 0016 FFF7FEFF 		bl	memcpy
 204              	.LVL24:
 205              	.L13:
 206              		.loc 1 99 0
 207 001a 2846     		mov	r0, r5
 208 001c 38BD     		pop	{r3, r4, r5, pc}
 209              	.LVL25:
 210              	.L14:
 211              		.loc 1 92 0
 212 001e 6FF06B05 		mvn	r5, #107
 213 0022 FAE7     		b	.L13
 214              		.cfi_endproc
 215              	.LFE2:
 216              		.size	asn1_write_raw_buffer, .-asn1_write_raw_buffer
 217 0024 AFF30080 		.section	.text.asn1_write_mpi,"ax",%progbits
 217      AFF30080 
 217      AFF30080 
 218              		.align	2
 219              		.p2align 4,,15
 220              		.global	asn1_write_mpi
 221              		.thumb
 222              		.thumb_func
 223              		.type	asn1_write_mpi, %function
 224              	asn1_write_mpi:
ARM GAS  C:\Users\jo\AppData\Local\Temp\ccQ6q6fX.s 			page 5


 225              	.LFB3:
 226              		.loc 1 103 0
 227              		.cfi_startproc
 228              		@ args = 0, pretend = 0, frame = 0
 229              		@ frame_needed = 0, uses_anonymous_args = 0
 230              	.LVL26:
 231 0000 F8B5     		push	{r3, r4, r5, r6, r7, lr}
 232              		.cfi_def_cfa_offset 24
 233              		.cfi_offset 3, -24
 234              		.cfi_offset 4, -20
 235              		.cfi_offset 5, -16
 236              		.cfi_offset 6, -12
 237              		.cfi_offset 7, -8
 238              		.cfi_offset 14, -4
 239              		.loc 1 103 0
 240 0002 0546     		mov	r5, r0
 241              	.LVL27:
 242              		.loc 1 109 0
 243 0004 1046     		mov	r0, r2
 244              	.LVL28:
 245              		.loc 1 103 0
 246 0006 0E46     		mov	r6, r1
 247 0008 1746     		mov	r7, r2
 248              		.loc 1 109 0
 249 000a FFF7FEFF 		bl	mpi_size
 250              	.LVL29:
 251              		.loc 1 111 0
 252 000e 2968     		ldr	r1, [r5]
 253 0010 8B1B     		subs	r3, r1, r6
 254 0012 8342     		cmp	r3, r0
 255              		.loc 1 109 0
 256 0014 0446     		mov	r4, r0
 257              	.LVL30:
 258              		.loc 1 111 0
 259 0016 2ADB     		blt	.L20
 260              		.loc 1 114 0
 261 0018 091A     		subs	r1, r1, r0
 262 001a 2960     		str	r1, [r5]
 263              		.loc 1 115 0
 264 001c 3846     		mov	r0, r7
 265              	.LVL31:
 266 001e 2246     		mov	r2, r4
 267 0020 FFF7FEFF 		bl	mpi_write_binary
 268              	.LVL32:
 269 0024 C8B9     		cbnz	r0, .L18
 270              		.loc 1 120 0
 271 0026 3B68     		ldr	r3, [r7]
 272 0028 012B     		cmp	r3, #1
 273 002a 04D1     		bne	.L19
 274              		.loc 1 120 0 is_stmt 0 discriminator 1
 275 002c 2B68     		ldr	r3, [r5]
 276 002e 93F90020 		ldrsb	r2, [r3]
 277 0032 002A     		cmp	r2, #0
 278 0034 12DB     		blt	.L24
 279              	.L19:
 280              		.loc 1 129 0 is_stmt 1
 281 0036 2846     		mov	r0, r5
ARM GAS  C:\Users\jo\AppData\Local\Temp\ccQ6q6fX.s 			page 6


 282              	.LVL33:
 283 0038 3146     		mov	r1, r6
 284 003a 2246     		mov	r2, r4
 285 003c FFF7FEFF 		bl	asn1_write_len
 286              	.LVL34:
 287 0040 0028     		cmp	r0, #0
 288 0042 0ADB     		blt	.L18
 289              	.LVL35:
 290              	.LBB34:
 291              	.LBB35:
 292              		.loc 1 78 0 discriminator 2
 293 0044 2B68     		ldr	r3, [r5]
 294 0046 9E1B     		subs	r6, r3, r6
 295              	.LVL36:
 296 0048 002E     		cmp	r6, #0
 297 004a 10DD     		ble	.L20
 298 004c 0134     		adds	r4, r4, #1
 299              	.LVL37:
 300              		.loc 1 81 0
 301 004e 591E     		subs	r1, r3, #1
 302 0050 0222     		movs	r2, #2
 303 0052 2960     		str	r1, [r5]
 304              	.LBE35:
 305              	.LBE34:
 306              		.loc 1 130 0
 307 0054 2044     		add	r0, r0, r4
 308              	.LVL38:
 309              	.LBB37:
 310              	.LBB36:
 311              		.loc 1 81 0
 312 0056 03F8012C 		strb	r2, [r3, #-1]
 313              	.LVL39:
 314              	.L18:
 315              	.LBE36:
 316              	.LBE37:
 317              		.loc 1 136 0
 318 005a F8BD     		pop	{r3, r4, r5, r6, r7, pc}
 319              	.LVL40:
 320              	.L24:
 321              		.loc 1 122 0
 322 005c 9A1B     		subs	r2, r3, r6
 323 005e 002A     		cmp	r2, #0
 324 0060 05DD     		ble	.L20
 325              		.loc 1 125 0
 326 0062 5A1E     		subs	r2, r3, #1
 327 0064 2A60     		str	r2, [r5]
 328              		.loc 1 126 0
 329 0066 0134     		adds	r4, r4, #1
 330              	.LVL41:
 331              		.loc 1 125 0
 332 0068 03F8010C 		strb	r0, [r3, #-1]
 333 006c E3E7     		b	.L19
 334              	.LVL42:
 335              	.L20:
 336              		.loc 1 112 0
 337 006e 6FF06B00 		mvn	r0, #107
 338 0072 F8BD     		pop	{r3, r4, r5, r6, r7, pc}
ARM GAS  C:\Users\jo\AppData\Local\Temp\ccQ6q6fX.s 			page 7


 339              		.cfi_endproc
 340              	.LFE3:
 341              		.size	asn1_write_mpi, .-asn1_write_mpi
 342 0074 AFF30080 		.section	.text.asn1_write_null,"ax",%progbits
 342      AFF30080 
 342      AFF30080 
 343              		.align	2
 344              		.p2align 4,,15
 345              		.global	asn1_write_null
 346              		.thumb
 347              		.thumb_func
 348              		.type	asn1_write_null, %function
 349              	asn1_write_null:
 350              	.LFB4:
 351              		.loc 1 140 0
 352              		.cfi_startproc
 353              		@ args = 0, pretend = 0, frame = 0
 354              		@ frame_needed = 0, uses_anonymous_args = 0
 355              	.LVL43:
 356 0000 38B5     		push	{r3, r4, r5, lr}
 357              		.cfi_def_cfa_offset 16
 358              		.cfi_offset 3, -16
 359              		.cfi_offset 4, -12
 360              		.cfi_offset 5, -8
 361              		.cfi_offset 14, -4
 362              		.loc 1 146 0
 363 0002 0022     		movs	r2, #0
 364              		.loc 1 140 0
 365 0004 0546     		mov	r5, r0
 366 0006 0C46     		mov	r4, r1
 367              		.loc 1 146 0
 368 0008 FFF7FEFF 		bl	asn1_write_len
 369              	.LVL44:
 370 000c 0028     		cmp	r0, #0
 371 000e 0CDB     		blt	.L26
 372              	.LVL45:
 373              	.LBB38:
 374              	.LBB39:
 375              		.loc 1 78 0 discriminator 2
 376 0010 2B68     		ldr	r3, [r5]
 377 0012 1C1B     		subs	r4, r3, r4
 378              	.LVL46:
 379 0014 002C     		cmp	r4, #0
 380 0016 06DD     		ble	.L28
 381              		.loc 1 81 0
 382 0018 591E     		subs	r1, r3, #1
 383 001a 0522     		movs	r2, #5
 384 001c 2960     		str	r1, [r5]
 385 001e 03F8012C 		strb	r2, [r3, #-1]
 386              	.LVL47:
 387              	.LBE39:
 388              	.LBE38:
 389              		.loc 1 147 0
 390 0022 0130     		adds	r0, r0, #1
 391              	.LVL48:
 392              		.loc 1 149 0
 393 0024 38BD     		pop	{r3, r4, r5, pc}
ARM GAS  C:\Users\jo\AppData\Local\Temp\ccQ6q6fX.s 			page 8


 394              	.LVL49:
 395              	.L28:
 396              	.LBB41:
 397              	.LBB40:
 398              		.loc 1 79 0
 399 0026 6FF06B00 		mvn	r0, #107
 400              	.LVL50:
 401              	.L26:
 402              	.LBE40:
 403              	.LBE41:
 404              		.loc 1 150 0
 405 002a 38BD     		pop	{r3, r4, r5, pc}
 406              		.cfi_endproc
 407              	.LFE4:
 408              		.size	asn1_write_null, .-asn1_write_null
 409 002c AFF30080 		.section	.text.asn1_write_oid,"ax",%progbits
 410              		.align	2
 411              		.p2align 4,,15
 412              		.global	asn1_write_oid
 413              		.thumb
 414              		.thumb_func
 415              		.type	asn1_write_oid, %function
 416              	asn1_write_oid:
 417              	.LFB5:
 418              		.loc 1 154 0
 419              		.cfi_startproc
 420              		@ args = 0, pretend = 0, frame = 0
 421              		@ frame_needed = 0, uses_anonymous_args = 0
 422              	.LVL51:
 423 0000 70B5     		push	{r4, r5, r6, lr}
 424              		.cfi_def_cfa_offset 16
 425              		.cfi_offset 4, -16
 426              		.cfi_offset 5, -12
 427              		.cfi_offset 6, -8
 428              		.cfi_offset 14, -4
 429              		.loc 1 154 0
 430 0002 0646     		mov	r6, r0
 431              	.LVL52:
 432              	.LBB42:
 433              	.LBB43:
 434              		.loc 1 91 0
 435 0004 0068     		ldr	r0, [r0]
 436              	.LVL53:
 437 0006 1C46     		mov	r4, r3
 438 0008 431A     		subs	r3, r0, r1
 439              	.LVL54:
 440 000a A342     		cmp	r3, r4
 441              	.LBE43:
 442              	.LBE42:
 443              		.loc 1 154 0
 444 000c 0D46     		mov	r5, r1
 445              	.LBB46:
 446              	.LBB44:
 447              		.loc 1 91 0
 448 000e 03DA     		bge	.L31
 449              	.LVL55:
 450              	.L33:
ARM GAS  C:\Users\jo\AppData\Local\Temp\ccQ6q6fX.s 			page 9


 451              		.loc 1 92 0
 452 0010 6FF06B04 		mvn	r4, #107
 453              	.LVL56:
 454              	.L32:
 455              	.LBE44:
 456              	.LBE46:
 457              		.loc 1 164 0
 458 0014 2046     		mov	r0, r4
 459 0016 70BD     		pop	{r4, r5, r6, pc}
 460              	.LVL57:
 461              	.L31:
 462              	.LBB47:
 463              	.LBB45:
 464              		.loc 1 95 0
 465 0018 001B     		subs	r0, r0, r4
 466              		.loc 1 96 0
 467 001a 1146     		mov	r1, r2
 468              	.LVL58:
 469              		.loc 1 95 0
 470 001c 3060     		str	r0, [r6]
 471              		.loc 1 96 0
 472 001e 2246     		mov	r2, r4
 473              	.LVL59:
 474 0020 FFF7FEFF 		bl	memcpy
 475              	.LVL60:
 476              	.LBE45:
 477              	.LBE47:
 478              		.loc 1 158 0
 479 0024 002C     		cmp	r4, #0
 480 0026 F5DB     		blt	.L32
 481              	.LVL61:
 482              		.loc 1 160 0 discriminator 2
 483 0028 3046     		mov	r0, r6
 484 002a 2946     		mov	r1, r5
 485 002c 2246     		mov	r2, r4
 486 002e FFF7FEFF 		bl	asn1_write_len
 487              	.LVL62:
 488 0032 0028     		cmp	r0, #0
 489 0034 0CDB     		blt	.L34
 490              	.LVL63:
 491              	.LBB48:
 492              	.LBB49:
 493              		.loc 1 78 0 discriminator 2
 494 0036 3268     		ldr	r2, [r6]
 495 0038 551B     		subs	r5, r2, r5
 496              	.LVL64:
 497 003a 002D     		cmp	r5, #0
 498 003c E8DD     		ble	.L33
 499              		.loc 1 81 0
 500 003e 551E     		subs	r5, r2, #1
 501 0040 0621     		movs	r1, #6
 502 0042 0134     		adds	r4, r4, #1
 503              	.LVL65:
 504              	.LBE49:
 505              	.LBE48:
 506              		.loc 1 161 0
 507 0044 0444     		add	r4, r4, r0
ARM GAS  C:\Users\jo\AppData\Local\Temp\ccQ6q6fX.s 			page 10


 508              	.LVL66:
 509              	.LBB51:
 510              	.LBB50:
 511              		.loc 1 81 0
 512 0046 3560     		str	r5, [r6]
 513 0048 02F8011C 		strb	r1, [r2, #-1]
 514              	.LVL67:
 515              	.LBE50:
 516              	.LBE51:
 517              		.loc 1 164 0
 518 004c 2046     		mov	r0, r4
 519 004e 70BD     		pop	{r4, r5, r6, pc}
 520              	.LVL68:
 521              	.L34:
 522 0050 0446     		mov	r4, r0
 523              	.LVL69:
 524 0052 2046     		mov	r0, r4
 525 0054 70BD     		pop	{r4, r5, r6, pc}
 526              		.cfi_endproc
 527              	.LFE5:
 528              		.size	asn1_write_oid, .-asn1_write_oid
 529 0056 00BFAFF3 		.section	.text.asn1_write_algorithm_identifier,"ax",%progbits
 529      0080AFF3 
 529      0080
 530              		.align	2
 531              		.p2align 4,,15
 532              		.global	asn1_write_algorithm_identifier
 533              		.thumb
 534              		.thumb_func
 535              		.type	asn1_write_algorithm_identifier, %function
 536              	asn1_write_algorithm_identifier:
 537              	.LFB6:
 538              		.loc 1 169 0
 539              		.cfi_startproc
 540              		@ args = 4, pretend = 0, frame = 0
 541              		@ frame_needed = 0, uses_anonymous_args = 0
 542              	.LVL70:
 543 0000 2DE9F041 		push	{r4, r5, r6, r7, r8, lr}
 544              		.cfi_def_cfa_offset 24
 545              		.cfi_offset 4, -24
 546              		.cfi_offset 5, -20
 547              		.cfi_offset 6, -16
 548              		.cfi_offset 7, -12
 549              		.cfi_offset 8, -8
 550              		.cfi_offset 14, -4
 551              		.loc 1 169 0
 552 0004 069C     		ldr	r4, [sp, #24]
 553 0006 9046     		mov	r8, r2
 554 0008 1F46     		mov	r7, r3
 555 000a 0546     		mov	r5, r0
 556 000c 0E46     		mov	r6, r1
 557              		.loc 1 173 0
 558 000e 24B9     		cbnz	r4, .L37
 559              		.loc 1 174 0
 560 0010 FFF7FEFF 		bl	asn1_write_null
 561              	.LVL71:
 562 0014 0028     		cmp	r0, #0
ARM GAS  C:\Users\jo\AppData\Local\Temp\ccQ6q6fX.s 			page 11


 563 0016 1FDB     		blt	.L38
 564              		.loc 1 174 0 is_stmt 0 discriminator 2
 565 0018 0446     		mov	r4, r0
 566              	.LVL72:
 567              	.L37:
 568              		.loc 1 178 0 is_stmt 1
 569 001a 4246     		mov	r2, r8
 570 001c 3B46     		mov	r3, r7
 571 001e 2846     		mov	r0, r5
 572 0020 3146     		mov	r1, r6
 573 0022 FFF7FEFF 		bl	asn1_write_oid
 574              	.LVL73:
 575 0026 0028     		cmp	r0, #0
 576 0028 16DB     		blt	.L38
 577              		.loc 1 178 0 is_stmt 0 discriminator 2
 578 002a 0444     		add	r4, r4, r0
 579              	.LVL74:
 580              		.loc 1 180 0 is_stmt 1 discriminator 2
 581 002c 2246     		mov	r2, r4
 582 002e 2846     		mov	r0, r5
 583              	.LVL75:
 584 0030 3146     		mov	r1, r6
 585 0032 FFF7FEFF 		bl	asn1_write_len
 586              	.LVL76:
 587 0036 0028     		cmp	r0, #0
 588 0038 0EDB     		blt	.L38
 589              	.LVL77:
 590              	.LBB52:
 591              	.LBB53:
 592              		.loc 1 78 0 discriminator 2
 593 003a 2B68     		ldr	r3, [r5]
 594 003c 9E1B     		subs	r6, r3, r6
 595              	.LVL78:
 596 003e 002E     		cmp	r6, #0
 597 0040 08DD     		ble	.L42
 598              		.loc 1 81 0
 599 0042 591E     		subs	r1, r3, #1
 600 0044 3022     		movs	r2, #48
 601 0046 0134     		adds	r4, r4, #1
 602              	.LVL79:
 603 0048 2960     		str	r1, [r5]
 604 004a 03F8012C 		strb	r2, [r3, #-1]
 605              	.LVL80:
 606              	.LBE53:
 607              	.LBE52:
 608              		.loc 1 181 0
 609 004e 2044     		add	r0, r0, r4
 610              	.LVL81:
 611              		.loc 1 184 0
 612 0050 BDE8F081 		pop	{r4, r5, r6, r7, r8, pc}
 613              	.LVL82:
 614              	.L42:
 615              	.LBB55:
 616              	.LBB54:
 617              		.loc 1 79 0
 618 0054 6FF06B00 		mvn	r0, #107
 619              	.LVL83:
ARM GAS  C:\Users\jo\AppData\Local\Temp\ccQ6q6fX.s 			page 12


 620              	.L38:
 621              	.LBE54:
 622              	.LBE55:
 623              		.loc 1 185 0
 624 0058 BDE8F081 		pop	{r4, r5, r6, r7, r8, pc}
 625              		.cfi_endproc
 626              	.LFE6:
 627              		.size	asn1_write_algorithm_identifier, .-asn1_write_algorithm_identifier
 628 005c AFF30080 		.section	.text.asn1_write_bool,"ax",%progbits
 629              		.align	2
 630              		.p2align 4,,15
 631              		.global	asn1_write_bool
 632              		.thumb
 633              		.thumb_func
 634              		.type	asn1_write_bool, %function
 635              	asn1_write_bool:
 636              	.LFB7:
 637              		.loc 1 188 0
 638              		.cfi_startproc
 639              		@ args = 0, pretend = 0, frame = 0
 640              		@ frame_needed = 0, uses_anonymous_args = 0
 641              	.LVL84:
 642 0000 70B5     		push	{r4, r5, r6, lr}
 643              		.cfi_def_cfa_offset 16
 644              		.cfi_offset 4, -16
 645              		.cfi_offset 5, -12
 646              		.cfi_offset 6, -8
 647              		.cfi_offset 14, -4
 648              		.loc 1 192 0
 649 0002 0568     		ldr	r5, [r0]
 650 0004 6E1A     		subs	r6, r5, r1
 651 0006 002E     		cmp	r6, #0
 652              		.loc 1 188 0
 653 0008 0446     		mov	r4, r0
 654              	.LVL85:
 655              		.loc 1 192 0
 656 000a 17DD     		ble	.L47
 657              		.loc 1 195 0
 658 000c 131C     		adds	r3, r2, #0
 659 000e 18BF     		it	ne
 660 0010 0123     		movne	r3, #1
 661 0012 6A1E     		subs	r2, r5, #1
 662              	.LVL86:
 663 0014 0260     		str	r2, [r0]
 664              		.loc 1 198 0
 665 0016 0122     		movs	r2, #1
 666              		.loc 1 195 0
 667 0018 05F8013C 		strb	r3, [r5, #-1]
 668              	.LVL87:
 669 001c 0E46     		mov	r6, r1
 670              		.loc 1 198 0
 671 001e FFF7FEFF 		bl	asn1_write_len
 672              	.LVL88:
 673 0022 0028     		cmp	r0, #0
 674 0024 09DB     		blt	.L46
 675              	.LVL89:
 676              	.LBB56:
ARM GAS  C:\Users\jo\AppData\Local\Temp\ccQ6q6fX.s 			page 13


 677              	.LBB57:
 678              		.loc 1 78 0 discriminator 2
 679 0026 2368     		ldr	r3, [r4]
 680 0028 991B     		subs	r1, r3, r6
 681 002a 0029     		cmp	r1, #0
 682 002c 06DD     		ble	.L47
 683              		.loc 1 81 0
 684 002e 591E     		subs	r1, r3, #1
 685 0030 0122     		movs	r2, #1
 686 0032 2160     		str	r1, [r4]
 687              	.LBE57:
 688              	.LBE56:
 689              		.loc 1 199 0
 690 0034 0230     		adds	r0, r0, #2
 691              	.LVL90:
 692              	.LBB59:
 693              	.LBB58:
 694              		.loc 1 81 0
 695 0036 03F8012C 		strb	r2, [r3, #-1]
 696              	.LVL91:
 697              	.L46:
 698              	.LBE58:
 699              	.LBE59:
 700              		.loc 1 202 0
 701 003a 70BD     		pop	{r4, r5, r6, pc}
 702              	.LVL92:
 703              	.L47:
 704              		.loc 1 193 0
 705 003c 6FF06B00 		mvn	r0, #107
 706 0040 70BD     		pop	{r4, r5, r6, pc}
 707              		.cfi_endproc
 708              	.LFE7:
 709              		.size	asn1_write_bool, .-asn1_write_bool
 710 0042 00BFAFF3 		.section	.text.asn1_write_int,"ax",%progbits
 710      0080AFF3 
 710      0080AFF3 
 710      0080
 711              		.align	2
 712              		.p2align 4,,15
 713              		.global	asn1_write_int
 714              		.thumb
 715              		.thumb_func
 716              		.type	asn1_write_int, %function
 717              	asn1_write_int:
 718              	.LFB8:
 719              		.loc 1 205 0
 720              		.cfi_startproc
 721              		@ args = 0, pretend = 0, frame = 0
 722              		@ frame_needed = 0, uses_anonymous_args = 0
 723              	.LVL93:
 724              		.loc 1 213 0
 725 0000 0368     		ldr	r3, [r0]
 726              		.loc 1 205 0
 727 0002 70B5     		push	{r4, r5, r6, lr}
 728              		.cfi_def_cfa_offset 16
 729              		.cfi_offset 4, -16
 730              		.cfi_offset 5, -12
ARM GAS  C:\Users\jo\AppData\Local\Temp\ccQ6q6fX.s 			page 14


 731              		.cfi_offset 6, -8
 732              		.cfi_offset 14, -4
 733              		.loc 1 205 0
 734 0004 0D46     		mov	r5, r1
 735              		.loc 1 213 0
 736 0006 591A     		subs	r1, r3, r1
 737              	.LVL94:
 738 0008 0029     		cmp	r1, #0
 739              		.loc 1 205 0
 740 000a 0446     		mov	r4, r0
 741              	.LVL95:
 742              		.loc 1 213 0
 743 000c 1EDD     		ble	.L54
 744              	.LVL96:
 745              		.loc 1 217 0
 746 000e 591E     		subs	r1, r3, #1
 747              		.loc 1 219 0
 748 0010 002A     		cmp	r2, #0
 749              		.loc 1 217 0
 750 0012 0160     		str	r1, [r0]
 751 0014 03F8012C 		strb	r2, [r3, #-1]
 752              		.loc 1 219 0
 753 0018 04DD     		ble	.L56
 754              		.loc 1 219 0 is_stmt 0 discriminator 1
 755 001a 0368     		ldr	r3, [r0]
 756 001c 93F90020 		ldrsb	r2, [r3]
 757              	.LVL97:
 758 0020 002A     		cmp	r2, #0
 759 0022 16DB     		blt	.L59
 760              	.L56:
 761              		.loc 1 216 0 is_stmt 1
 762 0024 0126     		movs	r6, #1
 763              	.LVL98:
 764              	.L53:
 765              		.loc 1 228 0
 766 0026 2046     		mov	r0, r4
 767              	.LVL99:
 768 0028 2946     		mov	r1, r5
 769 002a 3246     		mov	r2, r6
 770 002c FFF7FEFF 		bl	asn1_write_len
 771              	.LVL100:
 772 0030 0028     		cmp	r0, #0
 773 0032 0ADB     		blt	.L52
 774              	.LVL101:
 775              	.LBB60:
 776              	.LBB61:
 777              		.loc 1 78 0 discriminator 2
 778 0034 2368     		ldr	r3, [r4]
 779 0036 5D1B     		subs	r5, r3, r5
 780              	.LVL102:
 781 0038 002D     		cmp	r5, #0
 782 003a 07DD     		ble	.L54
 783 003c 0136     		adds	r6, r6, #1
 784              	.LVL103:
 785              		.loc 1 81 0
 786 003e 591E     		subs	r1, r3, #1
 787 0040 0222     		movs	r2, #2
ARM GAS  C:\Users\jo\AppData\Local\Temp\ccQ6q6fX.s 			page 15


 788 0042 2160     		str	r1, [r4]
 789              	.LBE61:
 790              	.LBE60:
 791              		.loc 1 229 0
 792 0044 3044     		add	r0, r0, r6
 793              	.LVL104:
 794              	.LBB63:
 795              	.LBB62:
 796              		.loc 1 81 0
 797 0046 03F8012C 		strb	r2, [r3, #-1]
 798              	.LVL105:
 799              	.L52:
 800              	.LBE62:
 801              	.LBE63:
 802              		.loc 1 232 0
 803 004a 70BD     		pop	{r4, r5, r6, pc}
 804              	.LVL106:
 805              	.L54:
 806              		.loc 1 214 0
 807 004c 6FF06B00 		mvn	r0, #107
 808 0050 70BD     		pop	{r4, r5, r6, pc}
 809              	.LVL107:
 810              	.L59:
 811              		.loc 1 221 0
 812 0052 5A1B     		subs	r2, r3, r5
 813 0054 002A     		cmp	r2, #0
 814 0056 F9DD     		ble	.L54
 815              		.loc 1 224 0
 816 0058 591E     		subs	r1, r3, #1
 817 005a 0022     		movs	r2, #0
 818 005c 0160     		str	r1, [r0]
 819              		.loc 1 225 0
 820 005e 0226     		movs	r6, #2
 821              		.loc 1 224 0
 822 0060 03F8012C 		strb	r2, [r3, #-1]
 823              	.LVL108:
 824 0064 DFE7     		b	.L53
 825              		.cfi_endproc
 826              	.LFE8:
 827              		.size	asn1_write_int, .-asn1_write_int
 828 0066 00BFAFF3 		.section	.text.asn1_write_printable_string,"ax",%progbits
 828      0080AFF3 
 828      0080
 829              		.align	2
 830              		.p2align 4,,15
 831              		.global	asn1_write_printable_string
 832              		.thumb
 833              		.thumb_func
 834              		.type	asn1_write_printable_string, %function
 835              	asn1_write_printable_string:
 836              	.LFB9:
 837              		.loc 1 236 0
 838              		.cfi_startproc
 839              		@ args = 0, pretend = 0, frame = 0
 840              		@ frame_needed = 0, uses_anonymous_args = 0
 841              	.LVL109:
 842 0000 70B5     		push	{r4, r5, r6, lr}
ARM GAS  C:\Users\jo\AppData\Local\Temp\ccQ6q6fX.s 			page 16


 843              		.cfi_def_cfa_offset 16
 844              		.cfi_offset 4, -16
 845              		.cfi_offset 5, -12
 846              		.cfi_offset 6, -8
 847              		.cfi_offset 14, -4
 848              		.loc 1 236 0
 849 0002 0646     		mov	r6, r0
 850              	.LVL110:
 851              	.LBB64:
 852              	.LBB65:
 853              		.loc 1 91 0
 854 0004 0068     		ldr	r0, [r0]
 855              	.LVL111:
 856 0006 1C46     		mov	r4, r3
 857 0008 431A     		subs	r3, r0, r1
 858              	.LVL112:
 859 000a A342     		cmp	r3, r4
 860              	.LBE65:
 861              	.LBE64:
 862              		.loc 1 236 0
 863 000c 0D46     		mov	r5, r1
 864              	.LBB68:
 865              	.LBB66:
 866              		.loc 1 91 0
 867 000e 03DA     		bge	.L61
 868              	.LVL113:
 869              	.L63:
 870              		.loc 1 92 0
 871 0010 6FF06B04 		mvn	r4, #107
 872              	.LVL114:
 873              	.L62:
 874              	.LBE66:
 875              	.LBE68:
 876              		.loc 1 247 0
 877 0014 2046     		mov	r0, r4
 878 0016 70BD     		pop	{r4, r5, r6, pc}
 879              	.LVL115:
 880              	.L61:
 881              	.LBB69:
 882              	.LBB67:
 883              		.loc 1 95 0
 884 0018 001B     		subs	r0, r0, r4
 885              		.loc 1 96 0
 886 001a 1146     		mov	r1, r2
 887              	.LVL116:
 888              		.loc 1 95 0
 889 001c 3060     		str	r0, [r6]
 890              		.loc 1 96 0
 891 001e 2246     		mov	r2, r4
 892              	.LVL117:
 893 0020 FFF7FEFF 		bl	memcpy
 894              	.LVL118:
 895              	.LBE67:
 896              	.LBE69:
 897              		.loc 1 240 0
 898 0024 002C     		cmp	r4, #0
 899 0026 F5DB     		blt	.L62
ARM GAS  C:\Users\jo\AppData\Local\Temp\ccQ6q6fX.s 			page 17


 900              	.LVL119:
 901              		.loc 1 243 0 discriminator 2
 902 0028 3046     		mov	r0, r6
 903 002a 2946     		mov	r1, r5
 904 002c 2246     		mov	r2, r4
 905 002e FFF7FEFF 		bl	asn1_write_len
 906              	.LVL120:
 907 0032 0028     		cmp	r0, #0
 908 0034 0CDB     		blt	.L64
 909              	.LVL121:
 910              	.LBB70:
 911              	.LBB71:
 912              		.loc 1 78 0 discriminator 2
 913 0036 3268     		ldr	r2, [r6]
 914 0038 551B     		subs	r5, r2, r5
 915              	.LVL122:
 916 003a 002D     		cmp	r5, #0
 917 003c E8DD     		ble	.L63
 918              		.loc 1 81 0
 919 003e 551E     		subs	r5, r2, #1
 920 0040 1321     		movs	r1, #19
 921 0042 0134     		adds	r4, r4, #1
 922              	.LVL123:
 923              	.LBE71:
 924              	.LBE70:
 925              		.loc 1 244 0
 926 0044 0444     		add	r4, r4, r0
 927              	.LVL124:
 928              	.LBB73:
 929              	.LBB72:
 930              		.loc 1 81 0
 931 0046 3560     		str	r5, [r6]
 932 0048 02F8011C 		strb	r1, [r2, #-1]
 933              	.LVL125:
 934              	.LBE72:
 935              	.LBE73:
 936              		.loc 1 247 0
 937 004c 2046     		mov	r0, r4
 938 004e 70BD     		pop	{r4, r5, r6, pc}
 939              	.LVL126:
 940              	.L64:
 941 0050 0446     		mov	r4, r0
 942              	.LVL127:
 943 0052 2046     		mov	r0, r4
 944 0054 70BD     		pop	{r4, r5, r6, pc}
 945              		.cfi_endproc
 946              	.LFE9:
 947              		.size	asn1_write_printable_string, .-asn1_write_printable_string
 948 0056 00BFAFF3 		.section	.text.asn1_write_ia5_string,"ax",%progbits
 948      0080AFF3 
 948      0080
 949              		.align	2
 950              		.p2align 4,,15
 951              		.global	asn1_write_ia5_string
 952              		.thumb
 953              		.thumb_func
 954              		.type	asn1_write_ia5_string, %function
ARM GAS  C:\Users\jo\AppData\Local\Temp\ccQ6q6fX.s 			page 18


 955              	asn1_write_ia5_string:
 956              	.LFB10:
 957              		.loc 1 251 0
 958              		.cfi_startproc
 959              		@ args = 0, pretend = 0, frame = 0
 960              		@ frame_needed = 0, uses_anonymous_args = 0
 961              	.LVL128:
 962 0000 70B5     		push	{r4, r5, r6, lr}
 963              		.cfi_def_cfa_offset 16
 964              		.cfi_offset 4, -16
 965              		.cfi_offset 5, -12
 966              		.cfi_offset 6, -8
 967              		.cfi_offset 14, -4
 968              		.loc 1 251 0
 969 0002 0646     		mov	r6, r0
 970              	.LVL129:
 971              	.LBB74:
 972              	.LBB75:
 973              		.loc 1 91 0
 974 0004 0068     		ldr	r0, [r0]
 975              	.LVL130:
 976 0006 1C46     		mov	r4, r3
 977 0008 431A     		subs	r3, r0, r1
 978              	.LVL131:
 979 000a A342     		cmp	r3, r4
 980              	.LBE75:
 981              	.LBE74:
 982              		.loc 1 251 0
 983 000c 0D46     		mov	r5, r1
 984              	.LBB78:
 985              	.LBB76:
 986              		.loc 1 91 0
 987 000e 03DA     		bge	.L67
 988              	.LVL132:
 989              	.L69:
 990              		.loc 1 92 0
 991 0010 6FF06B04 		mvn	r4, #107
 992              	.LVL133:
 993              	.L68:
 994              	.LBE76:
 995              	.LBE78:
 996              		.loc 1 262 0
 997 0014 2046     		mov	r0, r4
 998 0016 70BD     		pop	{r4, r5, r6, pc}
 999              	.LVL134:
 1000              	.L67:
 1001              	.LBB79:
 1002              	.LBB77:
 1003              		.loc 1 95 0
 1004 0018 001B     		subs	r0, r0, r4
 1005              		.loc 1 96 0
 1006 001a 1146     		mov	r1, r2
 1007              	.LVL135:
 1008              		.loc 1 95 0
 1009 001c 3060     		str	r0, [r6]
 1010              		.loc 1 96 0
 1011 001e 2246     		mov	r2, r4
ARM GAS  C:\Users\jo\AppData\Local\Temp\ccQ6q6fX.s 			page 19


 1012              	.LVL136:
 1013 0020 FFF7FEFF 		bl	memcpy
 1014              	.LVL137:
 1015              	.LBE77:
 1016              	.LBE79:
 1017              		.loc 1 255 0
 1018 0024 002C     		cmp	r4, #0
 1019 0026 F5DB     		blt	.L68
 1020              	.LVL138:
 1021              		.loc 1 258 0 discriminator 2
 1022 0028 3046     		mov	r0, r6
 1023 002a 2946     		mov	r1, r5
 1024 002c 2246     		mov	r2, r4
 1025 002e FFF7FEFF 		bl	asn1_write_len
 1026              	.LVL139:
 1027 0032 0028     		cmp	r0, #0
 1028 0034 0CDB     		blt	.L70
 1029              	.LVL140:
 1030              	.LBB80:
 1031              	.LBB81:
 1032              		.loc 1 78 0 discriminator 2
 1033 0036 3268     		ldr	r2, [r6]
 1034 0038 551B     		subs	r5, r2, r5
 1035              	.LVL141:
 1036 003a 002D     		cmp	r5, #0
 1037 003c E8DD     		ble	.L69
 1038              		.loc 1 81 0
 1039 003e 551E     		subs	r5, r2, #1
 1040 0040 1621     		movs	r1, #22
 1041 0042 0134     		adds	r4, r4, #1
 1042              	.LVL142:
 1043              	.LBE81:
 1044              	.LBE80:
 1045              		.loc 1 259 0
 1046 0044 0444     		add	r4, r4, r0
 1047              	.LVL143:
 1048              	.LBB83:
 1049              	.LBB82:
 1050              		.loc 1 81 0
 1051 0046 3560     		str	r5, [r6]
 1052 0048 02F8011C 		strb	r1, [r2, #-1]
 1053              	.LVL144:
 1054              	.LBE82:
 1055              	.LBE83:
 1056              		.loc 1 262 0
 1057 004c 2046     		mov	r0, r4
 1058 004e 70BD     		pop	{r4, r5, r6, pc}
 1059              	.LVL145:
 1060              	.L70:
 1061 0050 0446     		mov	r4, r0
 1062              	.LVL146:
 1063 0052 2046     		mov	r0, r4
 1064 0054 70BD     		pop	{r4, r5, r6, pc}
 1065              		.cfi_endproc
 1066              	.LFE10:
 1067              		.size	asn1_write_ia5_string, .-asn1_write_ia5_string
 1068 0056 00BFAFF3 		.section	.text.asn1_write_bitstring,"ax",%progbits
ARM GAS  C:\Users\jo\AppData\Local\Temp\ccQ6q6fX.s 			page 20


 1068      0080AFF3 
 1068      0080
 1069              		.align	2
 1070              		.p2align 4,,15
 1071              		.global	asn1_write_bitstring
 1072              		.thumb
 1073              		.thumb_func
 1074              		.type	asn1_write_bitstring, %function
 1075              	asn1_write_bitstring:
 1076              	.LFB11:
 1077              		.loc 1 266 0
 1078              		.cfi_startproc
 1079              		@ args = 0, pretend = 0, frame = 0
 1080              		@ frame_needed = 0, uses_anonymous_args = 0
 1081              	.LVL147:
 1082 0000 2DE9F041 		push	{r4, r5, r6, r7, r8, lr}
 1083              		.cfi_def_cfa_offset 24
 1084              		.cfi_offset 4, -24
 1085              		.cfi_offset 5, -20
 1086              		.cfi_offset 6, -16
 1087              		.cfi_offset 7, -12
 1088              		.cfi_offset 8, -8
 1089              		.cfi_offset 14, -4
 1090              		.loc 1 270 0
 1091 0004 13F00704 		ands	r4, r3, #7
 1092              		.loc 1 274 0
 1093 0008 0768     		ldr	r7, [r0]
 1094              		.loc 1 270 0
 1095 000a 18BF     		it	ne
 1096 000c 0124     		movne	r4, #1
 1097 000e 04EBD304 		add	r4, r4, r3, lsr #3
 1098              	.LVL148:
 1099              		.loc 1 274 0
 1100 0012 7D1A     		subs	r5, r7, r1
 1101 0014 AC42     		cmp	r4, r5
 1102 0016 24DA     		bge	.L75
 1103              	.LVL149:
 1104 0018 0546     		mov	r5, r0
 1105              		.loc 1 278 0
 1106 001a 381B     		subs	r0, r7, r4
 1107              	.LVL150:
 1108 001c 8846     		mov	r8, r1
 1109 001e 2860     		str	r0, [r5]
 1110              		.loc 1 279 0
 1111 0020 1146     		mov	r1, r2
 1112              	.LVL151:
 1113 0022 2246     		mov	r2, r4
 1114              	.LVL152:
 1115 0024 1E46     		mov	r6, r3
 1116 0026 FFF7FEFF 		bl	memcpy
 1117              	.LVL153:
 1118              		.loc 1 283 0
 1119 002a 2A68     		ldr	r2, [r5]
 1120 002c C6EBC403 		rsb	r3, r6, r4, lsl #3
 1121 0030 511E     		subs	r1, r2, #1
 1122 0032 2960     		str	r1, [r5]
 1123              		.loc 1 285 0
ARM GAS  C:\Users\jo\AppData\Local\Temp\ccQ6q6fX.s 			page 21


 1124 0034 2846     		mov	r0, r5
 1125              		.loc 1 283 0
 1126 0036 02F8013C 		strb	r3, [r2, #-1]
 1127              		.loc 1 285 0
 1128 003a 4146     		mov	r1, r8
 1129 003c 621C     		adds	r2, r4, #1
 1130              	.LVL154:
 1131 003e FFF7FEFF 		bl	asn1_write_len
 1132              	.LVL155:
 1133 0042 0028     		cmp	r0, #0
 1134 0044 0BDB     		blt	.L74
 1135              	.LVL156:
 1136              	.LBB84:
 1137              	.LBB85:
 1138              		.loc 1 78 0 discriminator 2
 1139 0046 2B68     		ldr	r3, [r5]
 1140 0048 C8EB0301 		rsb	r1, r8, r3
 1141 004c 0029     		cmp	r1, #0
 1142 004e 08DD     		ble	.L75
 1143 0050 0234     		adds	r4, r4, #2
 1144              	.LVL157:
 1145              		.loc 1 81 0
 1146 0052 591E     		subs	r1, r3, #1
 1147 0054 0322     		movs	r2, #3
 1148 0056 2960     		str	r1, [r5]
 1149              	.LBE85:
 1150              	.LBE84:
 1151              		.loc 1 286 0
 1152 0058 2044     		add	r0, r0, r4
 1153              	.LVL158:
 1154              	.LBB87:
 1155              	.LBB86:
 1156              		.loc 1 81 0
 1157 005a 03F8012C 		strb	r2, [r3, #-1]
 1158              	.LVL159:
 1159              	.L74:
 1160              	.LBE86:
 1161              	.LBE87:
 1162              		.loc 1 289 0
 1163 005e BDE8F081 		pop	{r4, r5, r6, r7, r8, pc}
 1164              	.LVL160:
 1165              	.L75:
 1166              		.loc 1 275 0
 1167 0062 6FF06B00 		mvn	r0, #107
 1168 0066 BDE8F081 		pop	{r4, r5, r6, r7, r8, pc}
 1169              		.cfi_endproc
 1170              	.LFE11:
 1171              		.size	asn1_write_bitstring, .-asn1_write_bitstring
 1172 006a 00BFAFF3 		.section	.text.asn1_write_octet_string,"ax",%progbits
 1172      0080
 1173              		.align	2
 1174              		.p2align 4,,15
 1175              		.global	asn1_write_octet_string
 1176              		.thumb
 1177              		.thumb_func
 1178              		.type	asn1_write_octet_string, %function
 1179              	asn1_write_octet_string:
ARM GAS  C:\Users\jo\AppData\Local\Temp\ccQ6q6fX.s 			page 22


 1180              	.LFB12:
 1181              		.loc 1 293 0
 1182              		.cfi_startproc
 1183              		@ args = 0, pretend = 0, frame = 0
 1184              		@ frame_needed = 0, uses_anonymous_args = 0
 1185              	.LVL161:
 1186 0000 70B5     		push	{r4, r5, r6, lr}
 1187              		.cfi_def_cfa_offset 16
 1188              		.cfi_offset 4, -16
 1189              		.cfi_offset 5, -12
 1190              		.cfi_offset 6, -8
 1191              		.cfi_offset 14, -4
 1192              		.loc 1 293 0
 1193 0002 0646     		mov	r6, r0
 1194              	.LVL162:
 1195              	.LBB88:
 1196              	.LBB89:
 1197              		.loc 1 91 0
 1198 0004 0068     		ldr	r0, [r0]
 1199              	.LVL163:
 1200 0006 1C46     		mov	r4, r3
 1201 0008 431A     		subs	r3, r0, r1
 1202              	.LVL164:
 1203 000a A342     		cmp	r3, r4
 1204              	.LBE89:
 1205              	.LBE88:
 1206              		.loc 1 293 0
 1207 000c 0D46     		mov	r5, r1
 1208              	.LBB92:
 1209              	.LBB90:
 1210              		.loc 1 91 0
 1211 000e 03DA     		bge	.L79
 1212              	.LVL165:
 1213              	.L81:
 1214              		.loc 1 92 0
 1215 0010 6FF06B04 		mvn	r4, #107
 1216              	.LVL166:
 1217              	.L80:
 1218              	.LBE90:
 1219              	.LBE92:
 1220              		.loc 1 303 0
 1221 0014 2046     		mov	r0, r4
 1222 0016 70BD     		pop	{r4, r5, r6, pc}
 1223              	.LVL167:
 1224              	.L79:
 1225              	.LBB93:
 1226              	.LBB91:
 1227              		.loc 1 95 0
 1228 0018 001B     		subs	r0, r0, r4
 1229              		.loc 1 96 0
 1230 001a 1146     		mov	r1, r2
 1231              	.LVL168:
 1232              		.loc 1 95 0
 1233 001c 3060     		str	r0, [r6]
 1234              		.loc 1 96 0
 1235 001e 2246     		mov	r2, r4
 1236              	.LVL169:
ARM GAS  C:\Users\jo\AppData\Local\Temp\ccQ6q6fX.s 			page 23


 1237 0020 FFF7FEFF 		bl	memcpy
 1238              	.LVL170:
 1239              	.LBE91:
 1240              	.LBE93:
 1241              		.loc 1 297 0
 1242 0024 002C     		cmp	r4, #0
 1243 0026 F5DB     		blt	.L80
 1244              	.LVL171:
 1245              		.loc 1 299 0 discriminator 2
 1246 0028 3046     		mov	r0, r6
 1247 002a 2946     		mov	r1, r5
 1248 002c 2246     		mov	r2, r4
 1249 002e FFF7FEFF 		bl	asn1_write_len
 1250              	.LVL172:
 1251 0032 0028     		cmp	r0, #0
 1252 0034 0CDB     		blt	.L82
 1253              	.LVL173:
 1254              	.LBB94:
 1255              	.LBB95:
 1256              		.loc 1 78 0 discriminator 2
 1257 0036 3268     		ldr	r2, [r6]
 1258 0038 551B     		subs	r5, r2, r5
 1259              	.LVL174:
 1260 003a 002D     		cmp	r5, #0
 1261 003c E8DD     		ble	.L81
 1262              		.loc 1 81 0
 1263 003e 551E     		subs	r5, r2, #1
 1264 0040 0421     		movs	r1, #4
 1265 0042 0134     		adds	r4, r4, #1
 1266              	.LVL175:
 1267              	.LBE95:
 1268              	.LBE94:
 1269              		.loc 1 300 0
 1270 0044 0444     		add	r4, r4, r0
 1271              	.LVL176:
 1272              	.LBB97:
 1273              	.LBB96:
 1274              		.loc 1 81 0
 1275 0046 3560     		str	r5, [r6]
 1276 0048 02F8011C 		strb	r1, [r2, #-1]
 1277              	.LVL177:
 1278              	.LBE96:
 1279              	.LBE97:
 1280              		.loc 1 303 0
 1281 004c 2046     		mov	r0, r4
 1282 004e 70BD     		pop	{r4, r5, r6, pc}
 1283              	.LVL178:
 1284              	.L82:
 1285 0050 0446     		mov	r4, r0
 1286              	.LVL179:
 1287 0052 2046     		mov	r0, r4
 1288 0054 70BD     		pop	{r4, r5, r6, pc}
 1289              		.cfi_endproc
 1290              	.LFE12:
 1291              		.size	asn1_write_octet_string, .-asn1_write_octet_string
 1292 0056 00BFAFF3 		.section	.text.asn1_store_named_data,"ax",%progbits
 1292      0080AFF3 
ARM GAS  C:\Users\jo\AppData\Local\Temp\ccQ6q6fX.s 			page 24


 1292      0080
 1293              		.align	2
 1294              		.p2align 4,,15
 1295              		.global	asn1_store_named_data
 1296              		.thumb
 1297              		.thumb_func
 1298              		.type	asn1_store_named_data, %function
 1299              	asn1_store_named_data:
 1300              	.LFB13:
 1301              		.loc 1 309 0
 1302              		.cfi_startproc
 1303              		@ args = 4, pretend = 0, frame = 8
 1304              		@ frame_needed = 0, uses_anonymous_args = 0
 1305              	.LVL180:
 1306 0000 2DE9F047 		push	{r4, r5, r6, r7, r8, r9, r10, lr}
 1307              		.cfi_def_cfa_offset 32
 1308              		.cfi_offset 4, -32
 1309              		.cfi_offset 5, -28
 1310              		.cfi_offset 6, -24
 1311              		.cfi_offset 7, -20
 1312              		.cfi_offset 8, -16
 1313              		.cfi_offset 9, -12
 1314              		.cfi_offset 10, -8
 1315              		.cfi_offset 14, -4
 1316 0004 82B0     		sub	sp, sp, #8
 1317              		.cfi_def_cfa_offset 40
 1318              		.loc 1 309 0
 1319 0006 0746     		mov	r7, r0
 1320              		.loc 1 312 0
 1321 0008 0068     		ldr	r0, [r0]
 1322              	.LVL181:
 1323              		.loc 1 309 0
 1324 000a 0A9D     		ldr	r5, [sp, #40]
 1325 000c 1E46     		mov	r6, r3
 1326 000e 8946     		mov	r9, r1
 1327 0010 9046     		mov	r8, r2
 1328              		.loc 1 312 0
 1329 0012 FFF7FEFF 		bl	asn1_find_named_data
 1330              	.LVL182:
 1331 0016 0446     		mov	r4, r0
 1332 0018 18B3     		cbz	r0, .L93
 1333              		.loc 1 343 0
 1334 001a 0369     		ldr	r3, [r0, #16]
 1335 001c 9D42     		cmp	r5, r3
 1336 001e 09D8     		bhi	.L94
 1337              	.LVL183:
 1338              	.L89:
 1339              		.loc 1 360 0
 1340 0020 DEB1     		cbz	r6, .L91
 1341              		.loc 1 361 0
 1342 0022 3146     		mov	r1, r6
 1343 0024 2A46     		mov	r2, r5
 1344 0026 6069     		ldr	r0, [r4, #20]
 1345 0028 FFF7FEFF 		bl	memcpy
 1346              	.LVL184:
 1347 002c 2046     		mov	r0, r4
 1348              	.L86:
ARM GAS  C:\Users\jo\AppData\Local\Temp\ccQ6q6fX.s 			page 25


 1349              		.loc 1 364 0
 1350 002e 02B0     		add	sp, sp, #8
 1351              		.cfi_remember_state
 1352              		.cfi_def_cfa_offset 32
 1353              		@ sp needed
 1354 0030 BDE8F087 		pop	{r4, r5, r6, r7, r8, r9, r10, pc}
 1355              	.LVL185:
 1356              	.L94:
 1357              		.cfi_restore_state
 1358              		.loc 1 347 0
 1359 0034 4069     		ldr	r0, [r0, #20]
 1360              	.LVL186:
 1361 0036 FFF7FEFF 		bl	free
 1362              	.LVL187:
 1363              		.loc 1 350 0
 1364 003a 2561     		str	r5, [r4, #16]
 1365              		.loc 1 351 0
 1366 003c 2846     		mov	r0, r5
 1367 003e FFF7FEFF 		bl	malloc
 1368              	.LVL188:
 1369 0042 0746     		mov	r7, r0
 1370              	.LVL189:
 1371 0044 6061     		str	r0, [r4, #20]
 1372              		.loc 1 352 0
 1373 0046 0028     		cmp	r0, #0
 1374 0048 EAD1     		bne	.L89
 1375              		.loc 1 354 0
 1376 004a A068     		ldr	r0, [r4, #8]
 1377 004c FFF7FEFF 		bl	free
 1378              	.LVL190:
 1379              		.loc 1 355 0
 1380 0050 2046     		mov	r0, r4
 1381 0052 FFF7FEFF 		bl	free
 1382              	.LVL191:
 1383              		.loc 1 356 0
 1384 0056 3846     		mov	r0, r7
 1385 0058 E9E7     		b	.L86
 1386              	.L91:
 1387 005a 2046     		mov	r0, r4
 1388              		.loc 1 364 0
 1389 005c 02B0     		add	sp, sp, #8
 1390              		.cfi_remember_state
 1391              		.cfi_def_cfa_offset 32
 1392              		@ sp needed
 1393 005e BDE8F087 		pop	{r4, r5, r6, r7, r8, r9, r10, pc}
 1394              	.LVL192:
 1395              	.L93:
 1396              		.cfi_restore_state
 1397              		.loc 1 316 0
 1398 0062 2020     		movs	r0, #32
 1399              	.LVL193:
 1400 0064 FFF7FEFF 		bl	malloc
 1401              	.LVL194:
 1402 0068 0446     		mov	r4, r0
 1403 006a 0028     		cmp	r0, #0
 1404 006c F5D0     		beq	.L91
 1405              		.loc 1 319 0
ARM GAS  C:\Users\jo\AppData\Local\Temp\ccQ6q6fX.s 			page 26


 1406 006e 0346     		mov	r3, r0
 1407 0070 0022     		movs	r2, #0
 1408 0072 43F8042B 		str	r2, [r3], #4
 1409 0076 0433     		adds	r3, r3, #4
 1410              		.loc 1 322 0
 1411 0078 4046     		mov	r0, r8
 1412              	.LVL195:
 1413              		.loc 1 319 0
 1414 007a 43F8042B 		str	r2, [r3], #4
 1415 007e 43F8042B 		str	r2, [r3], #4
 1416 0082 43F8042B 		str	r2, [r3], #4
 1417 0086 43F8042B 		str	r2, [r3], #4
 1418 008a 43F8042B 		str	r2, [r3], #4
 1419 008e 1A60     		str	r2, [r3]
 1420              		.loc 1 321 0
 1421 0090 C4F80480 		str	r8, [r4, #4]
 1422              		.loc 1 322 0
 1423 0094 FFF7FEFF 		bl	malloc
 1424              	.LVL196:
 1425 0098 8246     		mov	r10, r0
 1426 009a A060     		str	r0, [r4, #8]
 1427              		.loc 1 323 0
 1428 009c 68B1     		cbz	r0, .L95
 1429              		.loc 1 329 0
 1430 009e 4946     		mov	r1, r9
 1431 00a0 4246     		mov	r2, r8
 1432 00a2 FFF7FEFF 		bl	memcpy
 1433              	.LVL197:
 1434              		.loc 1 331 0
 1435 00a6 2561     		str	r5, [r4, #16]
 1436              		.loc 1 332 0
 1437 00a8 2846     		mov	r0, r5
 1438 00aa FFF7FEFF 		bl	malloc
 1439              	.LVL198:
 1440 00ae 6061     		str	r0, [r4, #20]
 1441              		.loc 1 333 0
 1442 00b0 40B1     		cbz	r0, .L96
 1443              		.loc 1 340 0
 1444 00b2 3B68     		ldr	r3, [r7]
 1445 00b4 A361     		str	r3, [r4, #24]
 1446              		.loc 1 341 0
 1447 00b6 3C60     		str	r4, [r7]
 1448 00b8 B2E7     		b	.L89
 1449              	.L95:
 1450              		.loc 1 325 0
 1451 00ba 2046     		mov	r0, r4
 1452 00bc FFF7FEFF 		bl	free
 1453              	.LVL199:
 1454              		.loc 1 326 0
 1455 00c0 5046     		mov	r0, r10
 1456 00c2 B4E7     		b	.L86
 1457              	.L96:
 1458 00c4 0190     		str	r0, [sp, #4]
 1459              		.loc 1 335 0
 1460 00c6 5046     		mov	r0, r10
 1461 00c8 FFF7FEFF 		bl	free
 1462              	.LVL200:
ARM GAS  C:\Users\jo\AppData\Local\Temp\ccQ6q6fX.s 			page 27


 1463              		.loc 1 336 0
 1464 00cc 2046     		mov	r0, r4
 1465 00ce FFF7FEFF 		bl	free
 1466              	.LVL201:
 1467              		.loc 1 337 0
 1468 00d2 019B     		ldr	r3, [sp, #4]
 1469 00d4 1846     		mov	r0, r3
 1470 00d6 AAE7     		b	.L86
 1471              		.cfi_endproc
 1472              	.LFE13:
 1473              		.size	asn1_store_named_data, .-asn1_store_named_data
 1474              		.text
 1475              	.Letext0:
 1476              		.file 2 "c:\\program files\\gnu tools arm embedded\\4.9 2014q4\\lib\\gcc\\arm-none-eabi\\4.9.3\\in
 1477              		.file 3 "c:\\program files\\gnu tools arm embedded\\4.9 2014q4\\arm-none-eabi\\include\\machine\\_
 1478              		.file 4 "c:\\program files\\gnu tools arm embedded\\4.9 2014q4\\arm-none-eabi\\include\\stdint.h"
 1479              		.file 5 "../../../ext/mbedtls-1.3.11/library/../include/polarssl/bignum.h"
 1480              		.file 6 "../../../ext/mbedtls-1.3.11/library/../include/polarssl/asn1.h"
 1481              		.file 7 "c:\\program files\\gnu tools arm embedded\\4.9 2014q4\\arm-none-eabi\\include\\stdlib.h"