ARM GAS  C:\Users\jo\AppData\Local\Temp\ccy5LuWv.s 			page 1


   1              		.syntax unified
   2              		.cpu cortex-m4
   3              		.fpu softvfp
   4              		.eabi_attribute 20, 1
   5              		.eabi_attribute 21, 1
   6              		.eabi_attribute 23, 3
   7              		.eabi_attribute 24, 1
   8              		.eabi_attribute 25, 1
   9              		.eabi_attribute 26, 1
  10              		.eabi_attribute 30, 2
  11              		.eabi_attribute 34, 1
  12              		.eabi_attribute 18, 4
  13              		.thumb
  14              		.file	"asn1parse.c"
  15              		.text
  16              	.Ltext0:
  17              		.cfi_sections	.debug_frame
  18              		.section	.text.asn1_get_len,"ax",%progbits
  19              		.align	2
  20              		.p2align 4,,15
  21              		.global	asn1_get_len
  22              		.thumb
  23              		.thumb_func
  24              		.type	asn1_get_len, %function
  25              	asn1_get_len:
  26              	.LFB1:
  27              		.file 1 "../../../ext/mbedtls-1.3.11/library/asn1parse.c"
  28              		.loc 1 58 0
  29              		.cfi_startproc
  30              		@ args = 0, pretend = 0, frame = 0
  31              		@ frame_needed = 0, uses_anonymous_args = 0
  32              		@ link register save eliminated.
  33              	.LVL0:
  34              		.loc 1 59 0
  35 0000 0368     		ldr	r3, [r0]
  36              		.loc 1 58 0
  37 0002 F0B4     		push	{r4, r5, r6, r7}
  38              		.cfi_def_cfa_offset 16
  39              		.cfi_offset 4, -16
  40              		.cfi_offset 5, -12
  41              		.cfi_offset 6, -8
  42              		.cfi_offset 7, -4
  43              		.loc 1 59 0
  44 0004 CD1A     		subs	r5, r1, r3
  45 0006 002D     		cmp	r5, #0
  46 0008 43DD     		ble	.L11
  47              		.loc 1 62 0
  48 000a 1C78     		ldrb	r4, [r3]	@ zero_extendqisi2
  49 000c 2606     		lsls	r6, r4, #24
  50 000e 09D4     		bmi	.L4
  51              		.loc 1 63 0
  52 0010 5D1C     		adds	r5, r3, #1
  53 0012 0560     		str	r5, [r0]
  54 0014 1C78     		ldrb	r4, [r3]	@ zero_extendqisi2
  55 0016 1460     		str	r4, [r2]
  56              	.L5:
  57              		.loc 1 107 0
ARM GAS  C:\Users\jo\AppData\Local\Temp\ccy5LuWv.s 			page 2


  58 0018 491B     		subs	r1, r1, r5
  59              	.LVL1:
  60 001a A142     		cmp	r1, r4
  61 001c 39D3     		bcc	.L11
  62              		.loc 1 110 0
  63 001e 0020     		movs	r0, #0
  64              	.LVL2:
  65              	.L3:
  66              		.loc 1 111 0
  67 0020 F0BC     		pop	{r4, r5, r6, r7}
  68              		.cfi_remember_state
  69              		.cfi_restore 7
  70              		.cfi_restore 6
  71              		.cfi_restore 5
  72              		.cfi_restore 4
  73              		.cfi_def_cfa_offset 0
  74 0022 7047     		bx	lr
  75              	.LVL3:
  76              	.L4:
  77              		.cfi_restore_state
  78              		.loc 1 66 0
  79 0024 04F07F04 		and	r4, r4, #127
  80 0028 013C     		subs	r4, r4, #1
  81 002a 032C     		cmp	r4, #3
  82 002c 34D8     		bhi	.L12
  83 002e DFE804F0 		tbb	[pc, r4]
  84              	.L7:
  85 0032 29       		.byte	(.L6-.L7)/2
  86 0033 1F       		.byte	(.L8-.L7)/2
  87 0034 12       		.byte	(.L9-.L7)/2
  88 0035 02       		.byte	(.L10-.L7)/2
  89              		.p2align 1
  90              	.L10:
  91              		.loc 1 94 0
  92 0036 042D     		cmp	r5, #4
  93 0038 2BDD     		ble	.L11
  94              		.loc 1 97 0
  95 003a 9E78     		ldrb	r6, [r3, #2]	@ zero_extendqisi2
  96 003c 5C78     		ldrb	r4, [r3, #1]	@ zero_extendqisi2
  97              		.loc 1 98 0
  98 003e 1D79     		ldrb	r5, [r3, #4]	@ zero_extendqisi2
  99 0040 DF78     		ldrb	r7, [r3, #3]	@ zero_extendqisi2
 100              		.loc 1 97 0
 101 0042 3604     		lsls	r6, r6, #16
 102 0044 46EA0464 		orr	r4, r6, r4, lsl #24
 103 0048 2C43     		orrs	r4, r4, r5
 104              		.loc 1 98 0
 105 004a 44EA0724 		orr	r4, r4, r7, lsl #8
 106              		.loc 1 99 0
 107 004e 5D1D     		adds	r5, r3, #5
 108              		.loc 1 97 0
 109 0050 1460     		str	r4, [r2]
 110              		.loc 1 99 0
 111 0052 0560     		str	r5, [r0]
 112              		.loc 1 100 0
 113 0054 E0E7     		b	.L5
 114              	.L9:
ARM GAS  C:\Users\jo\AppData\Local\Temp\ccy5LuWv.s 			page 3


 115              		.loc 1 85 0
 116 0056 032D     		cmp	r5, #3
 117 0058 1BDD     		ble	.L11
 118              		.loc 1 89 0
 119 005a 9C78     		ldrb	r4, [r3, #2]	@ zero_extendqisi2
 120              		.loc 1 88 0
 121 005c 5E78     		ldrb	r6, [r3, #1]	@ zero_extendqisi2
 122              		.loc 1 89 0
 123 005e DD78     		ldrb	r5, [r3, #3]	@ zero_extendqisi2
 124 0060 2402     		lsls	r4, r4, #8
 125              		.loc 1 88 0
 126 0062 44EA0644 		orr	r4, r4, r6, lsl #16
 127              		.loc 1 89 0
 128 0066 2C43     		orrs	r4, r4, r5
 129              		.loc 1 90 0
 130 0068 1D1D     		adds	r5, r3, #4
 131              		.loc 1 88 0
 132 006a 1460     		str	r4, [r2]
 133              		.loc 1 90 0
 134 006c 0560     		str	r5, [r0]
 135              		.loc 1 91 0
 136 006e D3E7     		b	.L5
 137              	.L8:
 138              		.loc 1 77 0
 139 0070 022D     		cmp	r5, #2
 140 0072 0EDD     		ble	.L11
 141              		.loc 1 80 0
 142 0074 5E78     		ldrb	r6, [r3, #1]	@ zero_extendqisi2
 143 0076 9C78     		ldrb	r4, [r3, #2]	@ zero_extendqisi2
 144              		.loc 1 81 0
 145 0078 DD1C     		adds	r5, r3, #3
 146              		.loc 1 80 0
 147 007a 44EA0624 		orr	r4, r4, r6, lsl #8
 148 007e 1460     		str	r4, [r2]
 149              		.loc 1 81 0
 150 0080 0560     		str	r5, [r0]
 151              		.loc 1 82 0
 152 0082 C9E7     		b	.L5
 153              	.L6:
 154              		.loc 1 69 0
 155 0084 012D     		cmp	r5, #1
 156 0086 04D0     		beq	.L11
 157              		.loc 1 72 0
 158 0088 5C78     		ldrb	r4, [r3, #1]	@ zero_extendqisi2
 159 008a 1460     		str	r4, [r2]
 160              		.loc 1 73 0
 161 008c 9D1C     		adds	r5, r3, #2
 162 008e 0560     		str	r5, [r0]
 163              		.loc 1 74 0
 164 0090 C2E7     		b	.L5
 165              	.LVL4:
 166              	.L11:
 167              		.loc 1 60 0
 168 0092 6FF05F00 		mvn	r0, #95
 169              	.LVL5:
 170 0096 C3E7     		b	.L3
 171              	.LVL6:
ARM GAS  C:\Users\jo\AppData\Local\Temp\ccy5LuWv.s 			page 4


 172              	.L12:
 173              		.loc 1 103 0
 174 0098 6FF06300 		mvn	r0, #99
 175              	.LVL7:
 176 009c C0E7     		b	.L3
 177              		.cfi_endproc
 178              	.LFE1:
 179              		.size	asn1_get_len, .-asn1_get_len
 180 009e 00BF     		.section	.text.asn1_get_tag,"ax",%progbits
 181              		.align	2
 182              		.p2align 4,,15
 183              		.global	asn1_get_tag
 184              		.thumb
 185              		.thumb_func
 186              		.type	asn1_get_tag, %function
 187              	asn1_get_tag:
 188              	.LFB2:
 189              		.loc 1 116 0
 190              		.cfi_startproc
 191              		@ args = 0, pretend = 0, frame = 0
 192              		@ frame_needed = 0, uses_anonymous_args = 0
 193              		@ link register save eliminated.
 194              	.LVL8:
 195 0000 70B4     		push	{r4, r5, r6}
 196              		.cfi_def_cfa_offset 12
 197              		.cfi_offset 4, -12
 198              		.cfi_offset 5, -8
 199              		.cfi_offset 6, -4
 200              		.loc 1 117 0
 201 0002 0468     		ldr	r4, [r0]
 202 0004 0E1B     		subs	r6, r1, r4
 203 0006 002E     		cmp	r6, #0
 204 0008 0BDD     		ble	.L20
 205              		.loc 1 120 0
 206 000a 2678     		ldrb	r6, [r4]	@ zero_extendqisi2
 207 000c 9E42     		cmp	r6, r3
 208 000e 04D1     		bne	.L21
 209              		.loc 1 123 0
 210 0010 0134     		adds	r4, r4, #1
 211 0012 0460     		str	r4, [r0]
 212              		.loc 1 126 0
 213 0014 70BC     		pop	{r4, r5, r6}
 214              		.cfi_remember_state
 215              		.cfi_restore 6
 216              		.cfi_restore 5
 217              		.cfi_restore 4
 218              		.cfi_def_cfa_offset 0
 219              		.loc 1 125 0
 220 0016 FFF7FEBF 		b	asn1_get_len
 221              	.LVL9:
 222              	.L21:
 223              		.cfi_restore_state
 224              		.loc 1 121 0
 225 001a 6FF06100 		mvn	r0, #97
 226              	.LVL10:
 227              	.L19:
 228              		.loc 1 126 0
ARM GAS  C:\Users\jo\AppData\Local\Temp\ccy5LuWv.s 			page 5


 229 001e 70BC     		pop	{r4, r5, r6}
 230              		.cfi_remember_state
 231              		.cfi_restore 6
 232              		.cfi_restore 5
 233              		.cfi_restore 4
 234              		.cfi_def_cfa_offset 0
 235 0020 7047     		bx	lr
 236              	.LVL11:
 237              	.L20:
 238              		.cfi_restore_state
 239              		.loc 1 118 0
 240 0022 6FF05F00 		mvn	r0, #95
 241              	.LVL12:
 242 0026 FAE7     		b	.L19
 243              		.cfi_endproc
 244              	.LFE2:
 245              		.size	asn1_get_tag, .-asn1_get_tag
 246 0028 AFF30080 		.section	.text.asn1_get_bool,"ax",%progbits
 246      AFF30080 
 247              		.align	2
 248              		.p2align 4,,15
 249              		.global	asn1_get_bool
 250              		.thumb
 251              		.thumb_func
 252              		.type	asn1_get_bool, %function
 253              	asn1_get_bool:
 254              	.LFB3:
 255              		.loc 1 131 0
 256              		.cfi_startproc
 257              		@ args = 0, pretend = 0, frame = 8
 258              		@ frame_needed = 0, uses_anonymous_args = 0
 259              	.LVL13:
 260 0000 30B5     		push	{r4, r5, lr}
 261              		.cfi_def_cfa_offset 12
 262              		.cfi_offset 4, -12
 263              		.cfi_offset 5, -8
 264              		.cfi_offset 14, -4
 265 0002 83B0     		sub	sp, sp, #12
 266              		.cfi_def_cfa_offset 24
 267              		.loc 1 131 0
 268 0004 1546     		mov	r5, r2
 269              		.loc 1 135 0
 270 0006 0123     		movs	r3, #1
 271 0008 01AA     		add	r2, sp, #4
 272              	.LVL14:
 273              		.loc 1 131 0
 274 000a 0446     		mov	r4, r0
 275              		.loc 1 135 0
 276 000c FFF7FEFF 		bl	asn1_get_tag
 277              	.LVL15:
 278 0010 50B9     		cbnz	r0, .L24
 279              		.loc 1 138 0
 280 0012 019B     		ldr	r3, [sp, #4]
 281 0014 012B     		cmp	r3, #1
 282 0016 09D1     		bne	.L26
 283              		.loc 1 141 0
 284 0018 2368     		ldr	r3, [r4]
ARM GAS  C:\Users\jo\AppData\Local\Temp\ccy5LuWv.s 			page 6


 285 001a 13F8012B 		ldrb	r2, [r3], #1	@ zero_extendqisi2
 286 001e 0032     		adds	r2, r2, #0
 287 0020 18BF     		it	ne
 288 0022 0122     		movne	r2, #1
 289 0024 2A60     		str	r2, [r5]
 290              		.loc 1 142 0
 291 0026 2360     		str	r3, [r4]
 292              	.LVL16:
 293              	.L24:
 294              		.loc 1 145 0
 295 0028 03B0     		add	sp, sp, #12
 296              		.cfi_remember_state
 297              		.cfi_def_cfa_offset 12
 298              		@ sp needed
 299 002a 30BD     		pop	{r4, r5, pc}
 300              	.LVL17:
 301              	.L26:
 302              		.cfi_restore_state
 303              		.loc 1 139 0
 304 002c 6FF06300 		mvn	r0, #99
 305              	.LVL18:
 306 0030 FAE7     		b	.L24
 307              		.cfi_endproc
 308              	.LFE3:
 309              		.size	asn1_get_bool, .-asn1_get_bool
 310 0032 00BFAFF3 		.section	.text.asn1_get_int,"ax",%progbits
 310      0080AFF3 
 310      0080AFF3 
 310      0080
 311              		.align	2
 312              		.p2align 4,,15
 313              		.global	asn1_get_int
 314              		.thumb
 315              		.thumb_func
 316              		.type	asn1_get_int, %function
 317              	asn1_get_int:
 318              	.LFB4:
 319              		.loc 1 150 0
 320              		.cfi_startproc
 321              		@ args = 0, pretend = 0, frame = 8
 322              		@ frame_needed = 0, uses_anonymous_args = 0
 323              	.LVL19:
 324 0000 30B5     		push	{r4, r5, lr}
 325              		.cfi_def_cfa_offset 12
 326              		.cfi_offset 4, -12
 327              		.cfi_offset 5, -8
 328              		.cfi_offset 14, -4
 329 0002 83B0     		sub	sp, sp, #12
 330              		.cfi_def_cfa_offset 24
 331              		.loc 1 150 0
 332 0004 1546     		mov	r5, r2
 333              		.loc 1 154 0
 334 0006 0223     		movs	r3, #2
 335 0008 01AA     		add	r2, sp, #4
 336              	.LVL20:
 337              		.loc 1 150 0
 338 000a 0446     		mov	r4, r0
ARM GAS  C:\Users\jo\AppData\Local\Temp\ccy5LuWv.s 			page 7


 339              		.loc 1 154 0
 340 000c FFF7FEFF 		bl	asn1_get_tag
 341              	.LVL21:
 342 0010 B0B9     		cbnz	r0, .L29
 343              		.loc 1 157 0
 344 0012 0199     		ldr	r1, [sp, #4]
 345 0014 0429     		cmp	r1, #4
 346 0016 15D8     		bhi	.L35
 347              		.loc 1 157 0 is_stmt 0 discriminator 1
 348 0018 2268     		ldr	r2, [r4]
 349 001a 92F90030 		ldrsb	r3, [r2]
 350 001e 002B     		cmp	r3, #0
 351 0020 10DB     		blt	.L35
 352              		.loc 1 162 0 is_stmt 1
 353 0022 4B1E     		subs	r3, r1, #1
 354              		.loc 1 160 0
 355 0024 2860     		str	r0, [r5]
 356              		.loc 1 162 0
 357 0026 0193     		str	r3, [sp, #4]
 358 0028 49B1     		cbz	r1, .L32
 359              	.LVL22:
 360              	.L31:
 361              		.loc 1 164 0
 362 002a 12F8011B 		ldrb	r1, [r2], #1	@ zero_extendqisi2
 363              		.loc 1 162 0
 364 002e 013B     		subs	r3, r3, #1
 365              		.loc 1 164 0
 366 0030 41EA0020 		orr	r0, r1, r0, lsl #8
 367              		.loc 1 162 0
 368 0034 591C     		adds	r1, r3, #1
 369              		.loc 1 164 0
 370 0036 2860     		str	r0, [r5]
 371              		.loc 1 162 0
 372 0038 0193     		str	r3, [sp, #4]
 373              		.loc 1 165 0
 374 003a 2260     		str	r2, [r4]
 375              		.loc 1 162 0
 376 003c F5D1     		bne	.L31
 377              	.L32:
 378              		.loc 1 168 0
 379 003e 0020     		movs	r0, #0
 380              	.L29:
 381              		.loc 1 169 0
 382 0040 03B0     		add	sp, sp, #12
 383              		.cfi_remember_state
 384              		.cfi_def_cfa_offset 12
 385              		@ sp needed
 386 0042 30BD     		pop	{r4, r5, pc}
 387              	.LVL23:
 388              	.L35:
 389              		.cfi_restore_state
 390              		.loc 1 158 0
 391 0044 6FF06300 		mvn	r0, #99
 392              	.LVL24:
 393 0048 FAE7     		b	.L29
 394              		.cfi_endproc
 395              	.LFE4:
ARM GAS  C:\Users\jo\AppData\Local\Temp\ccy5LuWv.s 			page 8


 396              		.size	asn1_get_int, .-asn1_get_int
 397 004a 00BFAFF3 		.section	.text.asn1_get_mpi,"ax",%progbits
 397      0080
 398              		.align	2
 399              		.p2align 4,,15
 400              		.global	asn1_get_mpi
 401              		.thumb
 402              		.thumb_func
 403              		.type	asn1_get_mpi, %function
 404              	asn1_get_mpi:
 405              	.LFB5:
 406              		.loc 1 175 0
 407              		.cfi_startproc
 408              		@ args = 0, pretend = 0, frame = 8
 409              		@ frame_needed = 0, uses_anonymous_args = 0
 410              	.LVL25:
 411 0000 30B5     		push	{r4, r5, lr}
 412              		.cfi_def_cfa_offset 12
 413              		.cfi_offset 4, -12
 414              		.cfi_offset 5, -8
 415              		.cfi_offset 14, -4
 416 0002 83B0     		sub	sp, sp, #12
 417              		.cfi_def_cfa_offset 24
 418              		.loc 1 175 0
 419 0004 1546     		mov	r5, r2
 420              		.loc 1 179 0
 421 0006 0223     		movs	r3, #2
 422 0008 01AA     		add	r2, sp, #4
 423              	.LVL26:
 424              		.loc 1 175 0
 425 000a 0446     		mov	r4, r0
 426              		.loc 1 179 0
 427 000c FFF7FEFF 		bl	asn1_get_tag
 428              	.LVL27:
 429 0010 40B9     		cbnz	r0, .L39
 430              		.loc 1 182 0
 431 0012 019A     		ldr	r2, [sp, #4]
 432 0014 2168     		ldr	r1, [r4]
 433 0016 2846     		mov	r0, r5
 434              	.LVL28:
 435 0018 FFF7FEFF 		bl	mpi_read_binary
 436              	.LVL29:
 437              		.loc 1 184 0
 438 001c 2268     		ldr	r2, [r4]
 439 001e 019B     		ldr	r3, [sp, #4]
 440 0020 1344     		add	r3, r3, r2
 441 0022 2360     		str	r3, [r4]
 442              	.L39:
 443              		.loc 1 187 0
 444 0024 03B0     		add	sp, sp, #12
 445              		.cfi_def_cfa_offset 12
 446              		@ sp needed
 447 0026 30BD     		pop	{r4, r5, pc}
 448              		.cfi_endproc
 449              	.LFE5:
 450              		.size	asn1_get_mpi, .-asn1_get_mpi
 451 0028 AFF30080 		.section	.text.asn1_get_bitstring,"ax",%progbits
ARM GAS  C:\Users\jo\AppData\Local\Temp\ccy5LuWv.s 			page 9


 451      AFF30080 
 452              		.align	2
 453              		.p2align 4,,15
 454              		.global	asn1_get_bitstring
 455              		.thumb
 456              		.thumb_func
 457              		.type	asn1_get_bitstring, %function
 458              	asn1_get_bitstring:
 459              	.LFB6:
 460              		.loc 1 192 0
 461              		.cfi_startproc
 462              		@ args = 0, pretend = 0, frame = 0
 463              		@ frame_needed = 0, uses_anonymous_args = 0
 464              	.LVL30:
 465 0000 70B5     		push	{r4, r5, r6, lr}
 466              		.cfi_def_cfa_offset 16
 467              		.cfi_offset 4, -16
 468              		.cfi_offset 5, -12
 469              		.cfi_offset 6, -8
 470              		.cfi_offset 14, -4
 471              		.loc 1 196 0
 472 0002 0323     		movs	r3, #3
 473              		.loc 1 192 0
 474 0004 0446     		mov	r4, r0
 475 0006 0E46     		mov	r6, r1
 476 0008 1546     		mov	r5, r2
 477              		.loc 1 196 0
 478 000a FFF7FEFF 		bl	asn1_get_tag
 479              	.LVL31:
 480 000e B8B9     		cbnz	r0, .L43
 481              		.loc 1 200 0
 482 0010 2B68     		ldr	r3, [r5]
 483 0012 B3B1     		cbz	r3, .L45
 484              		.loc 1 205 0
 485 0014 2268     		ldr	r2, [r4]
 486              		.loc 1 202 0
 487 0016 013B     		subs	r3, r3, #1
 488 0018 2B60     		str	r3, [r5]
 489              		.loc 1 205 0
 490 001a 1278     		ldrb	r2, [r2]	@ zero_extendqisi2
 491 001c 2A71     		strb	r2, [r5, #4]
 492              		.loc 1 206 0
 493 001e 072A     		cmp	r2, #7
 494 0020 0CD8     		bhi	.L46
 495              		.loc 1 208 0
 496 0022 2268     		ldr	r2, [r4]
 497 0024 0132     		adds	r2, r2, #1
 498 0026 2260     		str	r2, [r4]
 499              		.loc 1 211 0
 500 0028 AA60     		str	r2, [r5, #8]
 501              		.loc 1 212 0
 502 002a 2268     		ldr	r2, [r4]
 503 002c 1344     		add	r3, r3, r2
 504              		.loc 1 214 0
 505 002e 9E42     		cmp	r6, r3
 506              		.loc 1 212 0
 507 0030 2360     		str	r3, [r4]
ARM GAS  C:\Users\jo\AppData\Local\Temp\ccy5LuWv.s 			page 10


 508              		.loc 1 217 0
 509 0032 14BF     		ite	ne
 510 0034 6FF06500 		mvnne	r0, #101
 511              	.LVL32:
 512 0038 0020     		moveq	r0, #0
 513 003a 70BD     		pop	{r4, r5, r6, pc}
 514              	.LVL33:
 515              	.L46:
 516              		.loc 1 207 0
 517 003c 6FF06300 		mvn	r0, #99
 518              	.LVL34:
 519              	.L43:
 520              		.loc 1 218 0
 521 0040 70BD     		pop	{r4, r5, r6, pc}
 522              	.LVL35:
 523              	.L45:
 524              		.loc 1 201 0
 525 0042 6FF05F00 		mvn	r0, #95
 526              	.LVL36:
 527 0046 70BD     		pop	{r4, r5, r6, pc}
 528              		.cfi_endproc
 529              	.LFE6:
 530              		.size	asn1_get_bitstring, .-asn1_get_bitstring
 531 0048 AFF30080 		.section	.text.asn1_get_bitstring_null,"ax",%progbits
 531      AFF30080 
 532              		.align	2
 533              		.p2align 4,,15
 534              		.global	asn1_get_bitstring_null
 535              		.thumb
 536              		.thumb_func
 537              		.type	asn1_get_bitstring_null, %function
 538              	asn1_get_bitstring_null:
 539              	.LFB7:
 540              		.loc 1 225 0
 541              		.cfi_startproc
 542              		@ args = 0, pretend = 0, frame = 0
 543              		@ frame_needed = 0, uses_anonymous_args = 0
 544              	.LVL37:
 545 0000 38B5     		push	{r3, r4, r5, lr}
 546              		.cfi_def_cfa_offset 16
 547              		.cfi_offset 3, -16
 548              		.cfi_offset 4, -12
 549              		.cfi_offset 5, -8
 550              		.cfi_offset 14, -4
 551              		.loc 1 228 0
 552 0002 0323     		movs	r3, #3
 553              		.loc 1 225 0
 554 0004 0546     		mov	r5, r0
 555 0006 1446     		mov	r4, r2
 556              		.loc 1 228 0
 557 0008 FFF7FEFF 		bl	asn1_get_tag
 558              	.LVL38:
 559 000c 80B9     		cbnz	r0, .L50
 560              		.loc 1 231 0
 561 000e 2368     		ldr	r3, [r4]
 562 0010 5A1E     		subs	r2, r3, #1
 563 0012 012B     		cmp	r3, #1
ARM GAS  C:\Users\jo\AppData\Local\Temp\ccy5LuWv.s 			page 11


 564 0014 2260     		str	r2, [r4]
 565 0016 09D9     		bls	.L52
 566              		.loc 1 231 0 is_stmt 0 discriminator 1
 567 0018 2B68     		ldr	r3, [r5]
 568 001a 5A1C     		adds	r2, r3, #1
 569 001c 2A60     		str	r2, [r5]
 570 001e 1B78     		ldrb	r3, [r3]	@ zero_extendqisi2
 571 0020 002B     		cmp	r3, #0
 572              		.loc 1 232 0 is_stmt 1 discriminator 1
 573 0022 0CBF     		ite	eq
 574 0024 0020     		moveq	r0, #0
 575              	.LVL39:
 576 0026 6FF06700 		mvnne	r0, #103
 577 002a 38BD     		pop	{r3, r4, r5, pc}
 578              	.LVL40:
 579              	.L52:
 580              		.loc 1 232 0 is_stmt 0
 581 002c 6FF06700 		mvn	r0, #103
 582              	.LVL41:
 583              	.L50:
 584              		.loc 1 235 0 is_stmt 1
 585 0030 38BD     		pop	{r3, r4, r5, pc}
 586              		.cfi_endproc
 587              	.LFE7:
 588              		.size	asn1_get_bitstring_null, .-asn1_get_bitstring_null
 589 0032 00BFAFF3 		.section	.text.asn1_get_sequence_of,"ax",%progbits
 589      0080AFF3 
 589      0080AFF3 
 589      0080
 590              		.align	2
 591              		.p2align 4,,15
 592              		.global	asn1_get_sequence_of
 593              		.thumb
 594              		.thumb_func
 595              		.type	asn1_get_sequence_of, %function
 596              	asn1_get_sequence_of:
 597              	.LFB8:
 598              		.loc 1 246 0
 599              		.cfi_startproc
 600              		@ args = 0, pretend = 0, frame = 8
 601              		@ frame_needed = 0, uses_anonymous_args = 0
 602              	.LVL42:
 603 0000 2DE9F043 		push	{r4, r5, r6, r7, r8, r9, lr}
 604              		.cfi_def_cfa_offset 28
 605              		.cfi_offset 4, -28
 606              		.cfi_offset 5, -24
 607              		.cfi_offset 6, -20
 608              		.cfi_offset 7, -16
 609              		.cfi_offset 8, -12
 610              		.cfi_offset 9, -8
 611              		.cfi_offset 14, -4
 612 0004 83B0     		sub	sp, sp, #12
 613              		.cfi_def_cfa_offset 40
 614              		.loc 1 246 0
 615 0006 1746     		mov	r7, r2
 616 0008 9846     		mov	r8, r3
 617              		.loc 1 252 0
ARM GAS  C:\Users\jo\AppData\Local\Temp\ccy5LuWv.s 			page 12


 618 000a 01AA     		add	r2, sp, #4
 619              	.LVL43:
 620 000c 3023     		movs	r3, #48
 621              	.LVL44:
 622              		.loc 1 246 0
 623 000e 0546     		mov	r5, r0
 624 0010 0E46     		mov	r6, r1
 625              		.loc 1 252 0
 626 0012 FFF7FEFF 		bl	asn1_get_tag
 627              	.LVL45:
 628 0016 F8B9     		cbnz	r0, .L56
 629              		.loc 1 256 0
 630 0018 2C68     		ldr	r4, [r5]
 631 001a 019B     		ldr	r3, [sp, #4]
 632 001c 04EB0309 		add	r9, r4, r3
 633 0020 B145     		cmp	r9, r6
 634 0022 2CD1     		bne	.L57
 635              	.LVL46:
 636              	.L58:
 637              		.loc 1 259 0
 638 0024 A145     		cmp	r9, r4
 639              		.loc 1 262 0
 640 0026 3A46     		mov	r2, r7
 641              		.loc 1 264 0
 642 0028 4946     		mov	r1, r9
 643 002a 4346     		mov	r3, r8
 644 002c 2846     		mov	r0, r5
 645              		.loc 1 259 0
 646 002e 0ED9     		bls	.L64
 647              	.LVL47:
 648              		.loc 1 262 0
 649 0030 2478     		ldrb	r4, [r4]	@ zero_extendqisi2
 650 0032 42F8044B 		str	r4, [r2], #4
 651              	.LVL48:
 652              		.loc 1 264 0
 653 0036 FFF7FEFF 		bl	asn1_get_tag
 654              	.LVL49:
 655 003a 0646     		mov	r6, r0
 656 003c 60B9     		cbnz	r0, .L56
 657              		.loc 1 267 0
 658 003e 2B68     		ldr	r3, [r5]
 659 0040 BB60     		str	r3, [r7, #8]
 660              		.loc 1 268 0
 661 0042 2C68     		ldr	r4, [r5]
 662 0044 7B68     		ldr	r3, [r7, #4]
 663 0046 1C44     		add	r4, r4, r3
 664              		.loc 1 271 0
 665 0048 A145     		cmp	r9, r4
 666              		.loc 1 268 0
 667 004a 2C60     		str	r4, [r5]
 668              		.loc 1 271 0
 669 004c 07D8     		bhi	.L66
 670              	.LVL50:
 671              	.L64:
 672              		.loc 1 285 0
 673 004e 0020     		movs	r0, #0
 674 0050 F860     		str	r0, [r7, #12]
ARM GAS  C:\Users\jo\AppData\Local\Temp\ccy5LuWv.s 			page 13


 675              		.loc 1 287 0
 676 0052 2B68     		ldr	r3, [r5]
 677 0054 9945     		cmp	r9, r3
 678 0056 12D1     		bne	.L57
 679              	.LVL51:
 680              	.L56:
 681              		.loc 1 291 0
 682 0058 03B0     		add	sp, sp, #12
 683              		.cfi_remember_state
 684              		.cfi_def_cfa_offset 28
 685              		@ sp needed
 686 005a BDE8F083 		pop	{r4, r5, r6, r7, r8, r9, pc}
 687              	.LVL52:
 688              	.L66:
 689              		.cfi_restore_state
 690              		.loc 1 273 0
 691 005e 1020     		movs	r0, #16
 692              	.LVL53:
 693 0060 FFF7FEFF 		bl	malloc
 694              	.LVL54:
 695              		.loc 1 278 0
 696 0064 0346     		mov	r3, r0
 697              		.loc 1 273 0
 698 0066 F860     		str	r0, [r7, #12]
 699              		.loc 1 275 0
 700 0068 70B1     		cbz	r0, .L63
 701              		.loc 1 278 0
 702 006a 43F8046B 		str	r6, [r3], #4
 703 006e 0433     		adds	r3, r3, #4
 704 0070 4660     		str	r6, [r0, #4]
 705 0072 43F8046B 		str	r6, [r3], #4
 706 0076 1E60     		str	r6, [r3]
 707              		.loc 1 280 0
 708 0078 FF68     		ldr	r7, [r7, #12]
 709              	.LVL55:
 710 007a 2C68     		ldr	r4, [r5]
 711 007c D2E7     		b	.L58
 712              	.LVL56:
 713              	.L57:
 714              		.loc 1 257 0
 715 007e 6FF06500 		mvn	r0, #101
 716              		.loc 1 291 0
 717 0082 03B0     		add	sp, sp, #12
 718              		.cfi_remember_state
 719              		.cfi_def_cfa_offset 28
 720              		@ sp needed
 721 0084 BDE8F083 		pop	{r4, r5, r6, r7, r8, r9, pc}
 722              	.LVL57:
 723              	.L63:
 724              		.cfi_restore_state
 725              		.loc 1 276 0
 726 0088 6FF06900 		mvn	r0, #105
 727 008c E4E7     		b	.L56
 728              		.cfi_endproc
 729              	.LFE8:
 730              		.size	asn1_get_sequence_of, .-asn1_get_sequence_of
 731 008e 00BF     		.section	.text.asn1_get_alg,"ax",%progbits
ARM GAS  C:\Users\jo\AppData\Local\Temp\ccy5LuWv.s 			page 14


 732              		.align	2
 733              		.p2align 4,,15
 734              		.global	asn1_get_alg
 735              		.thumb
 736              		.thumb_func
 737              		.type	asn1_get_alg, %function
 738              	asn1_get_alg:
 739              	.LFB9:
 740              		.loc 1 296 0
 741              		.cfi_startproc
 742              		@ args = 0, pretend = 0, frame = 8
 743              		@ frame_needed = 0, uses_anonymous_args = 0
 744              	.LVL58:
 745 0000 2DE9F041 		push	{r4, r5, r6, r7, r8, lr}
 746              		.cfi_def_cfa_offset 24
 747              		.cfi_offset 4, -24
 748              		.cfi_offset 5, -20
 749              		.cfi_offset 6, -16
 750              		.cfi_offset 7, -12
 751              		.cfi_offset 8, -8
 752              		.cfi_offset 14, -4
 753 0004 82B0     		sub	sp, sp, #8
 754              		.cfi_def_cfa_offset 32
 755              		.loc 1 296 0
 756 0006 9046     		mov	r8, r2
 757 0008 1C46     		mov	r4, r3
 758              		.loc 1 300 0
 759 000a 01AA     		add	r2, sp, #4
 760              	.LVL59:
 761 000c 3023     		movs	r3, #48
 762              	.LVL60:
 763              		.loc 1 296 0
 764 000e 0546     		mov	r5, r0
 765 0010 0F46     		mov	r7, r1
 766              		.loc 1 300 0
 767 0012 FFF7FEFF 		bl	asn1_get_tag
 768              	.LVL61:
 769 0016 78BB     		cbnz	r0, .L68
 770              		.loc 1 304 0
 771 0018 2B68     		ldr	r3, [r5]
 772 001a FF1A     		subs	r7, r7, r3
 773              	.LVL62:
 774 001c 002F     		cmp	r7, #0
 775 001e 38DD     		ble	.L72
 776              		.loc 1 308 0
 777 0020 019E     		ldr	r6, [sp, #4]
 778              		.loc 1 307 0
 779 0022 1978     		ldrb	r1, [r3]	@ zero_extendqisi2
 780 0024 4246     		mov	r2, r8
 781              		.loc 1 308 0
 782 0026 1E44     		add	r6, r6, r3
 783              	.LVL63:
 784              		.loc 1 307 0
 785 0028 42F8041B 		str	r1, [r2], #4
 786              		.loc 1 310 0
 787 002c 2846     		mov	r0, r5
 788              	.LVL64:
ARM GAS  C:\Users\jo\AppData\Local\Temp\ccy5LuWv.s 			page 15


 789 002e 3146     		mov	r1, r6
 790 0030 0623     		movs	r3, #6
 791 0032 FFF7FEFF 		bl	asn1_get_tag
 792              	.LVL65:
 793 0036 F8B9     		cbnz	r0, .L68
 794              		.loc 1 313 0
 795 0038 2B68     		ldr	r3, [r5]
 796 003a C8F80830 		str	r3, [r8, #8]
 797              		.loc 1 314 0
 798 003e D8F80410 		ldr	r1, [r8, #4]
 799 0042 2F68     		ldr	r7, [r5]
 800 0044 7B18     		adds	r3, r7, r1
 801              		.loc 1 316 0
 802 0046 9E42     		cmp	r6, r3
 803              		.loc 1 314 0
 804 0048 2B60     		str	r3, [r5]
 805              		.loc 1 316 0
 806 004a 18D0     		beq	.L78
 807              		.loc 1 322 0
 808 004c 2246     		mov	r2, r4
 809 004e 795C     		ldrb	r1, [r7, r1]	@ zero_extendqisi2
 810 0050 42F8041B 		str	r1, [r2], #4
 811              		.loc 1 323 0
 812 0054 0133     		adds	r3, r3, #1
 813 0056 2B60     		str	r3, [r5]
 814              		.loc 1 325 0
 815 0058 2846     		mov	r0, r5
 816              	.LVL66:
 817 005a 3146     		mov	r1, r6
 818 005c FFF7FEFF 		bl	asn1_get_len
 819              	.LVL67:
 820 0060 50B9     		cbnz	r0, .L68
 821              		.loc 1 328 0
 822 0062 2B68     		ldr	r3, [r5]
 823 0064 A360     		str	r3, [r4, #8]
 824              		.loc 1 329 0
 825 0066 2A68     		ldr	r2, [r5]
 826 0068 6368     		ldr	r3, [r4, #4]
 827 006a 1344     		add	r3, r3, r2
 828              		.loc 1 334 0
 829 006c 9E42     		cmp	r6, r3
 830              		.loc 1 329 0
 831 006e 2B60     		str	r3, [r5]
 832              		.loc 1 334 0
 833 0070 14BF     		ite	ne
 834 0072 6FF06500 		mvnne	r0, #101
 835              	.LVL68:
 836 0076 0020     		moveq	r0, #0
 837              	.LVL69:
 838              	.L68:
 839              		.loc 1 335 0
 840 0078 02B0     		add	sp, sp, #8
 841              		.cfi_remember_state
 842              		.cfi_def_cfa_offset 24
 843              		@ sp needed
 844 007a BDE8F081 		pop	{r4, r5, r6, r7, r8, pc}
 845              	.LVL70:
ARM GAS  C:\Users\jo\AppData\Local\Temp\ccy5LuWv.s 			page 16


 846              	.L78:
 847              		.cfi_restore_state
 848 007e 04F10C03 		add	r3, r4, #12
 849              	.LVL71:
 850              	.L70:
 851              	.LBB8:
 852              	.LBB9:
 853              		.loc 1 49 0
 854 0082 2070     		strb	r0, [r4]
 855              	.LVL72:
 856 0084 0134     		adds	r4, r4, #1
 857              	.LVL73:
 858 0086 9C42     		cmp	r4, r3
 859 0088 FBD1     		bne	.L70
 860              	.LBE9:
 861              	.LBE8:
 862              		.loc 1 319 0
 863 008a 0020     		movs	r0, #0
 864              	.LVL74:
 865              		.loc 1 335 0
 866 008c 02B0     		add	sp, sp, #8
 867              		.cfi_remember_state
 868              		.cfi_def_cfa_offset 24
 869              		@ sp needed
 870 008e BDE8F081 		pop	{r4, r5, r6, r7, r8, pc}
 871              	.LVL75:
 872              	.L72:
 873              		.cfi_restore_state
 874              		.loc 1 305 0
 875 0092 6FF05F00 		mvn	r0, #95
 876              	.LVL76:
 877 0096 EFE7     		b	.L68
 878              		.cfi_endproc
 879              	.LFE9:
 880              		.size	asn1_get_alg, .-asn1_get_alg
 881 0098 AFF30080 		.section	.text.asn1_get_alg_null,"ax",%progbits
 881      AFF30080 
 882              		.align	2
 883              		.p2align 4,,15
 884              		.global	asn1_get_alg_null
 885              		.thumb
 886              		.thumb_func
 887              		.type	asn1_get_alg_null, %function
 888              	asn1_get_alg_null:
 889              	.LFB10:
 890              		.loc 1 340 0
 891              		.cfi_startproc
 892              		@ args = 0, pretend = 0, frame = 16
 893              		@ frame_needed = 0, uses_anonymous_args = 0
 894              	.LVL77:
 895 0000 10B5     		push	{r4, lr}
 896              		.cfi_def_cfa_offset 8
 897              		.cfi_offset 4, -8
 898              		.cfi_offset 14, -4
 899 0002 84B0     		sub	sp, sp, #16
 900              		.cfi_def_cfa_offset 24
 901              		.loc 1 344 0
ARM GAS  C:\Users\jo\AppData\Local\Temp\ccy5LuWv.s 			page 17


 902 0004 0024     		movs	r4, #0
 903              		.loc 1 346 0
 904 0006 01AB     		add	r3, sp, #4
 905              		.loc 1 344 0
 906 0008 0194     		str	r4, [sp, #4]
 907 000a 0294     		str	r4, [sp, #8]
 908 000c 0394     		str	r4, [sp, #12]
 909              		.loc 1 346 0
 910 000e FFF7FEFF 		bl	asn1_get_alg
 911              	.LVL78:
 912 0012 48B9     		cbnz	r0, .L80
 913              		.loc 1 349 0
 914 0014 019B     		ldr	r3, [sp, #4]
 915 0016 052B     		cmp	r3, #5
 916 0018 00D0     		beq	.L81
 917              		.loc 1 349 0 is_stmt 0 discriminator 1
 918 001a 3BB9     		cbnz	r3, .L83
 919              	.L81:
 920              		.loc 1 349 0 discriminator 3
 921 001c 029B     		ldr	r3, [sp, #8]
 922              		.loc 1 352 0 is_stmt 1 discriminator 3
 923 001e 002B     		cmp	r3, #0
 924 0020 14BF     		ite	ne
 925 0022 6FF06700 		mvnne	r0, #103
 926              	.LVL79:
 927 0026 0020     		moveq	r0, #0
 928              	.L80:
 929              		.loc 1 353 0
 930 0028 04B0     		add	sp, sp, #16
 931              		.cfi_remember_state
 932              		.cfi_def_cfa_offset 8
 933              		@ sp needed
 934 002a 10BD     		pop	{r4, pc}
 935              	.LVL80:
 936              	.L83:
 937              		.cfi_restore_state
 938              		.loc 1 350 0
 939 002c 6FF06700 		mvn	r0, #103
 940              	.LVL81:
 941 0030 FAE7     		b	.L80
 942              		.cfi_endproc
 943              	.LFE10:
 944              		.size	asn1_get_alg_null, .-asn1_get_alg_null
 945 0032 00BFAFF3 		.section	.text.asn1_free_named_data,"ax",%progbits
 945      0080AFF3 
 945      0080AFF3 
 945      0080
 946              		.align	2
 947              		.p2align 4,,15
 948              		.global	asn1_free_named_data
 949              		.thumb
 950              		.thumb_func
 951              		.type	asn1_free_named_data, %function
 952              	asn1_free_named_data:
 953              	.LFB11:
 954              		.loc 1 356 0
 955              		.cfi_startproc
ARM GAS  C:\Users\jo\AppData\Local\Temp\ccy5LuWv.s 			page 18


 956              		@ args = 0, pretend = 0, frame = 0
 957              		@ frame_needed = 0, uses_anonymous_args = 0
 958              	.LVL82:
 959 0000 10B5     		push	{r4, lr}
 960              		.cfi_def_cfa_offset 8
 961              		.cfi_offset 4, -8
 962              		.cfi_offset 14, -4
 963              		.loc 1 357 0
 964 0002 0446     		mov	r4, r0
 965 0004 60B1     		cbz	r0, .L89
 966              		.loc 1 360 0
 967 0006 8068     		ldr	r0, [r0, #8]
 968              	.LVL83:
 969 0008 FFF7FEFF 		bl	free
 970              	.LVL84:
 971              		.loc 1 361 0
 972 000c 6069     		ldr	r0, [r4, #20]
 973 000e FFF7FEFF 		bl	free
 974              	.LVL85:
 975 0012 04F12002 		add	r2, r4, #32
 976              	.LBB14:
 977              	.LBB15:
 978              	.LBB16:
 979              		.loc 1 49 0
 980 0016 0023     		movs	r3, #0
 981              	.LVL86:
 982              	.L91:
 983 0018 2370     		strb	r3, [r4]
 984              	.LVL87:
 985 001a 0134     		adds	r4, r4, #1
 986              	.LVL88:
 987 001c 9442     		cmp	r4, r2
 988 001e FBD1     		bne	.L91
 989              	.LVL89:
 990              	.L89:
 991 0020 10BD     		pop	{r4, pc}
 992              	.LBE16:
 993              	.LBE15:
 994              	.LBE14:
 995              		.cfi_endproc
 996              	.LFE11:
 997              		.size	asn1_free_named_data, .-asn1_free_named_data
 998 0022 00BFAFF3 		.section	.text.asn1_free_named_data_list,"ax",%progbits
 998      0080AFF3 
 998      0080AFF3 
 998      0080
 999              		.align	2
 1000              		.p2align 4,,15
 1001              		.global	asn1_free_named_data_list
 1002              		.thumb
 1003              		.thumb_func
 1004              		.type	asn1_free_named_data_list, %function
 1005              	asn1_free_named_data_list:
 1006              	.LFB12:
 1007              		.loc 1 367 0
 1008              		.cfi_startproc
 1009              		@ args = 0, pretend = 0, frame = 0
ARM GAS  C:\Users\jo\AppData\Local\Temp\ccy5LuWv.s 			page 19


 1010              		@ frame_needed = 0, uses_anonymous_args = 0
 1011              	.LVL90:
 1012 0000 38B5     		push	{r3, r4, r5, lr}
 1013              		.cfi_def_cfa_offset 16
 1014              		.cfi_offset 3, -16
 1015              		.cfi_offset 4, -12
 1016              		.cfi_offset 5, -8
 1017              		.cfi_offset 14, -4
 1018              		.loc 1 370 0
 1019 0002 0468     		ldr	r4, [r0]
 1020              	.LVL91:
 1021              		.loc 1 367 0
 1022 0004 0546     		mov	r5, r0
 1023              		.loc 1 370 0
 1024 0006 54B1     		cbz	r4, .L95
 1025              	.LVL92:
 1026              	.L97:
 1027              		.loc 1 372 0
 1028 0008 A369     		ldr	r3, [r4, #24]
 1029 000a 2B60     		str	r3, [r5]
 1030              		.loc 1 373 0
 1031 000c 2046     		mov	r0, r4
 1032 000e FFF7FEFF 		bl	asn1_free_named_data
 1033              	.LVL93:
 1034              		.loc 1 374 0
 1035 0012 2046     		mov	r0, r4
 1036 0014 FFF7FEFF 		bl	free
 1037              	.LVL94:
 1038              		.loc 1 370 0
 1039 0018 2C68     		ldr	r4, [r5]
 1040              	.LVL95:
 1041 001a 002C     		cmp	r4, #0
 1042 001c F4D1     		bne	.L97
 1043              	.L95:
 1044 001e 38BD     		pop	{r3, r4, r5, pc}
 1045              		.cfi_endproc
 1046              	.LFE12:
 1047              		.size	asn1_free_named_data_list, .-asn1_free_named_data_list
 1048              		.section	.text.asn1_find_named_data,"ax",%progbits
 1049              		.align	2
 1050              		.p2align 4,,15
 1051              		.global	asn1_find_named_data
 1052              		.thumb
 1053              		.thumb_func
 1054              		.type	asn1_find_named_data, %function
 1055              	asn1_find_named_data:
 1056              	.LFB13:
 1057              		.loc 1 380 0
 1058              		.cfi_startproc
 1059              		@ args = 0, pretend = 0, frame = 0
 1060              		@ frame_needed = 0, uses_anonymous_args = 0
 1061              	.LVL96:
 1062 0000 70B5     		push	{r4, r5, r6, lr}
 1063              		.cfi_def_cfa_offset 16
 1064              		.cfi_offset 4, -16
 1065              		.cfi_offset 5, -12
 1066              		.cfi_offset 6, -8
ARM GAS  C:\Users\jo\AppData\Local\Temp\ccy5LuWv.s 			page 20


 1067              		.cfi_offset 14, -4
 1068              		.loc 1 380 0
 1069 0002 0E46     		mov	r6, r1
 1070 0004 1546     		mov	r5, r2
 1071              		.loc 1 381 0
 1072 0006 0446     		mov	r4, r0
 1073 0008 10B9     		cbnz	r0, .L104
 1074 000a 0BE0     		b	.L102
 1075              	.LVL97:
 1076              	.L103:
 1077              		.loc 1 389 0
 1078 000c A469     		ldr	r4, [r4, #24]
 1079              	.LVL98:
 1080              		.loc 1 381 0
 1081 000e 4CB1     		cbz	r4, .L102
 1082              	.L104:
 1083              		.loc 1 383 0
 1084 0010 6368     		ldr	r3, [r4, #4]
 1085 0012 AB42     		cmp	r3, r5
 1086 0014 FAD1     		bne	.L103
 1087              		.loc 1 384 0 discriminator 1
 1088 0016 A068     		ldr	r0, [r4, #8]
 1089 0018 3146     		mov	r1, r6
 1090 001a 2A46     		mov	r2, r5
 1091 001c FFF7FEFF 		bl	memcmp
 1092              	.LVL99:
 1093              		.loc 1 383 0 discriminator 1
 1094 0020 0028     		cmp	r0, #0
 1095 0022 F3D1     		bne	.L103
 1096              	.L102:
 1097              		.loc 1 393 0
 1098 0024 2046     		mov	r0, r4
 1099 0026 70BD     		pop	{r4, r5, r6, pc}
 1100              		.cfi_endproc
 1101              	.LFE13:
 1102              		.size	asn1_find_named_data, .-asn1_find_named_data
 1103 0028 AFF30080 		.text
 1103      AFF30080 
 1104              	.Letext0:
 1105              		.file 2 "c:\\program files\\gnu tools arm embedded\\4.9 2014q4\\lib\\gcc\\arm-none-eabi\\4.9.3\\in
 1106              		.file 3 "c:\\program files\\gnu tools arm embedded\\4.9 2014q4\\arm-none-eabi\\include\\machine\\_
 1107              		.file 4 "c:\\program files\\gnu tools arm embedded\\4.9 2014q4\\arm-none-eabi\\include\\stdint.h"
 1108              		.file 5 "../../../ext/mbedtls-1.3.11/library/../include/polarssl/bignum.h"
 1109              		.file 6 "../../../ext/mbedtls-1.3.11/library/../include/polarssl/asn1.h"
 1110              		.file 7 "c:\\program files\\gnu tools arm embedded\\4.9 2014q4\\arm-none-eabi\\include\\stdlib.h"
 1111              		.file 8 "c:\\program files\\gnu tools arm embedded\\4.9 2014q4\\arm-none-eabi\\include\\string.h"