ARM GAS  C:\Users\jo\AppData\Local\Temp\cc0IQHDm.s 			page 1


   1              		.syntax unified
   2              		.cpu cortex-m4
   3              		.fpu softvfp
   4              		.eabi_attribute 20, 1
   5              		.eabi_attribute 21, 1
   6              		.eabi_attribute 23, 3
   7              		.eabi_attribute 24, 1
   8              		.eabi_attribute 25, 1
   9              		.eabi_attribute 26, 1
  10              		.eabi_attribute 30, 2
  11              		.eabi_attribute 34, 1
  12              		.eabi_attribute 18, 4
  13              		.thumb
  14              		.file	"bignum.c"
  15              		.text
  16              	.Ltext0:
  17              		.cfi_sections	.debug_frame
  18              		.section	.text.mpi_get_digit,"ax",%progbits
  19              		.align	2
  20              		.p2align 4,,15
  21              		.thumb
  22              		.thumb_func
  23              		.type	mpi_get_digit, %function
  24              	mpi_get_digit:
  25              	.LFB15:
  26              		.file 1 "../../../ext/mbedtls-1.3.11/library/bignum.c"
  27              		.loc 1 385 0
  28              		.cfi_startproc
  29              		@ args = 0, pretend = 0, frame = 0
  30              		@ frame_needed = 0, uses_anonymous_args = 0
  31              		@ link register save eliminated.
  32              	.LVL0:
  33              		.loc 1 388 0
  34 0000 A2F13003 		sub	r3, r2, #48
  35              		.loc 1 385 0
  36 0004 10B4     		push	{r4}
  37              		.cfi_def_cfa_offset 4
  38              		.cfi_offset 4, -4
  39              		.loc 1 388 0
  40 0006 DCB2     		uxtb	r4, r3
  41 0008 092C     		cmp	r4, #9
  42              		.loc 1 386 0
  43 000a 88BF     		it	hi
  44 000c FF23     		movhi	r3, #255
  45              		.loc 1 388 0
  46 000e 0360     		str	r3, [r0]
  47              		.loc 1 389 0
  48 0010 A2F14103 		sub	r3, r2, #65
  49 0014 052B     		cmp	r3, #5
  50 0016 9CBF     		itt	ls
  51 0018 A2F13703 		subls	r3, r2, #55
  52 001c 0360     		strls	r3, [r0]
  53              		.loc 1 390 0
  54 001e A2F16103 		sub	r3, r2, #97
  55 0022 052B     		cmp	r3, #5
  56 0024 88BF     		it	hi
  57 0026 0268     		ldrhi	r2, [r0]
ARM GAS  C:\Users\jo\AppData\Local\Temp\cc0IQHDm.s 			page 2


  58              	.LVL1:
  59              		.loc 1 396 0
  60 0028 5DF8044B 		ldr	r4, [sp], #4
  61              		.cfi_restore 4
  62              		.cfi_def_cfa_offset 0
  63              		.loc 1 390 0
  64 002c 9CBF     		itt	ls
  65 002e 573A     		subls	r2, r2, #87
  66 0030 0260     		strls	r2, [r0]
  67              		.loc 1 392 0
  68 0032 9142     		cmp	r1, r2
  69              		.loc 1 396 0
  70 0034 94BF     		ite	ls
  71 0036 6FF00500 		mvnls	r0, #5
  72              	.LVL2:
  73 003a 0020     		movhi	r0, #0
  74 003c 7047     		bx	lr
  75              		.cfi_endproc
  76              	.LFE15:
  77              		.size	mpi_get_digit, .-mpi_get_digit
  78 003e 00BF     		.section	.text.mpi_sub_hlp,"ax",%progbits
  79              		.align	2
  80              		.p2align 4,,15
  81              		.thumb
  82              		.thumb_func
  83              		.type	mpi_sub_hlp, %function
  84              	mpi_sub_hlp:
  85              	.LFB29:
  86              		.loc 1 910 0
  87              		.cfi_startproc
  88              		@ args = 0, pretend = 0, frame = 0
  89              		@ frame_needed = 0, uses_anonymous_args = 0
  90              	.LVL3:
  91              		.loc 1 914 0
  92 0000 38B3     		cbz	r0, .L21
  93 0002 0023     		movs	r3, #0
  94              		.loc 1 910 0
  95 0004 F0B5     		push	{r4, r5, r6, r7, lr}
  96              		.cfi_def_cfa_offset 20
  97              		.cfi_offset 4, -20
  98              		.cfi_offset 5, -16
  99              		.cfi_offset 6, -12
 100              		.cfi_offset 7, -8
 101              		.cfi_offset 14, -4
 102 0006 A1F1040E 		sub	lr, r1, #4
 103              		.loc 1 914 0
 104 000a 1E46     		mov	r6, r3
 105 000c 1546     		mov	r5, r2
 106              	.LVL4:
 107              	.L12:
 108              		.loc 1 916 0 discriminator 3
 109 000e 2F68     		ldr	r7, [r5]
 110              	.LVL5:
 111 0010 FC1A     		subs	r4, r7, r3
 112 0012 2C60     		str	r4, [r5]
 113              		.loc 1 917 0 discriminator 3
 114 0014 5EF8041F 		ldr	r1, [lr, #4]!
ARM GAS  C:\Users\jo\AppData\Local\Temp\cc0IQHDm.s 			page 3


 115 0018 8C42     		cmp	r4, r1
 116 001a 2CBF     		ite	cs
 117 001c 4FF0000C 		movcs	ip, #0
 118 0020 4FF0010C 		movcc	ip, #1
 119              		.loc 1 914 0 discriminator 3
 120 0024 0136     		adds	r6, r6, #1
 121              	.LVL6:
 122              		.loc 1 917 0 discriminator 3
 123 0026 641A     		subs	r4, r4, r1
 124 0028 9F42     		cmp	r7, r3
 125 002a 2CBF     		ite	cs
 126 002c 6346     		movcs	r3, ip
 127 002e 0CF10103 		addcc	r3, ip, #1
 128              	.LVL7:
 129              		.loc 1 914 0 discriminator 3
 130 0032 8642     		cmp	r6, r0
 131              		.loc 1 917 0 discriminator 3
 132 0034 45F8044B 		str	r4, [r5], #4
 133              	.LVL8:
 134              		.loc 1 914 0 discriminator 3
 135 0038 E9D1     		bne	.L12
 136 003a 02EB8602 		add	r2, r2, r6, lsl #2
 137              	.LVL9:
 138              		.loc 1 920 0
 139 003e 0BB9     		cbnz	r3, .L14
 140 0040 08E0     		b	.L23
 141              	.LVL10:
 142              	.L15:
 143 0042 0123     		movs	r3, #1
 144              	.LVL11:
 145              	.L14:
 146              		.loc 1 922 0
 147 0044 1168     		ldr	r1, [r2]
 148              	.LVL12:
 149 0046 C81A     		subs	r0, r1, r3
 150              		.loc 1 920 0
 151 0048 9942     		cmp	r1, r3
 152              		.loc 1 922 0
 153 004a 42F8040B 		str	r0, [r2], #4
 154              	.LVL13:
 155              		.loc 1 920 0
 156 004e F8D3     		bcc	.L15
 157 0050 F0BD     		pop	{r4, r5, r6, r7, pc}
 158              	.LVL14:
 159              	.L21:
 160              		.cfi_def_cfa_offset 0
 161              		.cfi_restore 4
 162              		.cfi_restore 5
 163              		.cfi_restore 6
 164              		.cfi_restore 7
 165              		.cfi_restore 14
 166 0052 7047     		bx	lr
 167              	.LVL15:
 168              	.L23:
 169              		.cfi_def_cfa_offset 20
 170              		.cfi_offset 4, -20
 171              		.cfi_offset 5, -16
ARM GAS  C:\Users\jo\AppData\Local\Temp\cc0IQHDm.s 			page 4


 172              		.cfi_offset 6, -12
 173              		.cfi_offset 7, -8
 174              		.cfi_offset 14, -4
 175 0054 F0BD     		pop	{r4, r5, r6, r7, pc}
 176              		.cfi_endproc
 177              	.LFE29:
 178              		.size	mpi_sub_hlp, .-mpi_sub_hlp
 179 0056 00BFAFF3 		.section	.text.mpi_mul_hlp,"ax",%progbits
 179      0080AFF3 
 179      0080
 180              		.align	2
 181              		.p2align 4,,15
 182              		.thumb
 183              		.thumb_func
 184              		.type	mpi_mul_hlp, %function
 185              	mpi_mul_hlp:
 186              	.LFB35:
 187              		.loc 1 1076 0
 188              		.cfi_startproc
 189              		@ args = 0, pretend = 0, frame = 24
 190              		@ frame_needed = 0, uses_anonymous_args = 0
 191              	.LVL16:
 192 0000 F0B5     		push	{r4, r5, r6, r7, lr}
 193              		.cfi_def_cfa_offset 20
 194              		.cfi_offset 4, -20
 195              		.cfi_offset 5, -16
 196              		.cfi_offset 6, -12
 197              		.cfi_offset 7, -8
 198              		.cfi_offset 14, -4
 199 0002 8646     		mov	lr, r0
 200 0004 87B0     		sub	sp, sp, #28
 201              		.cfi_def_cfa_offset 48
 202              		.loc 1 1077 0
 203 0006 0020     		movs	r0, #0
 204              	.LVL17:
 205              		.loc 1 1094 0
 206 0008 BEF10F0F 		cmp	lr, #15
 207              		.loc 1 1076 0
 208 000c 0391     		str	r1, [sp, #12]
 209 000e 0292     		str	r2, [sp, #8]
 210 0010 0193     		str	r3, [sp, #4]
 211              		.loc 1 1077 0
 212 0012 0590     		str	r0, [sp, #20]
 213              	.LVL18:
 214              		.loc 1 1094 0
 215 0014 40F2D080 		bls	.L25
 216              		.loc 1 1094 0 is_stmt 0 discriminator 2
 217 0018 F446     		mov	ip, lr
 218              	.LVL19:
 219              	.L26:
 220 001a ACF1100C 		sub	ip, ip, #16
 221              	.LVL20:
 222              		.loc 1 1096 0 is_stmt 1 discriminator 2
 223              	@ 1096 "../../../ext/mbedtls-1.3.11/library/bignum.c" 1
 224 001e 0398     		ldr    r0, [sp, #12]                      
 225 0020 0299     		ldr    r1, [sp, #8]                      
 226 0022 059A     		ldr    r2, [sp, #20]                      
ARM GAS  C:\Users\jo\AppData\Local\Temp\cc0IQHDm.s 			page 5


 227 0024 019B     		ldr    r3, [sp, #4]                      
 228 0026 50F8044B 		ldr    r4, [r0], #4                
 229 002a 4FF00005 		mov    r5, #0                      
 230 002e 0E68     		ldr    r6, [r1]                    
 231 0030 E3FB0425 		umlal  r2, r5, r3, r4              
 232 0034 B718     		adds   r7, r6, r2                  
 233 0036 45F10002 		adc    r2, r5, #0                  
 234 003a 41F8047B 		str    r7, [r1], #4                
 235 003e 50F8044B 		ldr    r4, [r0], #4                
 236 0042 4FF00005 		mov    r5, #0                      
 237 0046 0E68     		ldr    r6, [r1]                    
 238 0048 E3FB0425 		umlal  r2, r5, r3, r4              
 239 004c B718     		adds   r7, r6, r2                  
 240 004e 45F10002 		adc    r2, r5, #0                  
 241 0052 41F8047B 		str    r7, [r1], #4                
 242 0056 50F8044B 		ldr    r4, [r0], #4                
 243 005a 4FF00005 		mov    r5, #0                      
 244 005e 0E68     		ldr    r6, [r1]                    
 245 0060 E3FB0425 		umlal  r2, r5, r3, r4              
 246 0064 B718     		adds   r7, r6, r2                  
 247 0066 45F10002 		adc    r2, r5, #0                  
 248 006a 41F8047B 		str    r7, [r1], #4                
 249 006e 50F8044B 		ldr    r4, [r0], #4                
 250 0072 4FF00005 		mov    r5, #0                      
 251 0076 0E68     		ldr    r6, [r1]                    
 252 0078 E3FB0425 		umlal  r2, r5, r3, r4              
 253 007c B718     		adds   r7, r6, r2                  
 254 007e 45F10002 		adc    r2, r5, #0                  
 255 0082 41F8047B 		str    r7, [r1], #4                
 256 0086 50F8044B 		ldr    r4, [r0], #4                
 257 008a 4FF00005 		mov    r5, #0                      
 258 008e 0E68     		ldr    r6, [r1]                    
 259 0090 E3FB0425 		umlal  r2, r5, r3, r4              
 260 0094 B718     		adds   r7, r6, r2                  
 261 0096 45F10002 		adc    r2, r5, #0                  
 262 009a 41F8047B 		str    r7, [r1], #4                
 263 009e 50F8044B 		ldr    r4, [r0], #4                
 264 00a2 4FF00005 		mov    r5, #0                      
 265 00a6 0E68     		ldr    r6, [r1]                    
 266 00a8 E3FB0425 		umlal  r2, r5, r3, r4              
 267 00ac B718     		adds   r7, r6, r2                  
 268 00ae 45F10002 		adc    r2, r5, #0                  
 269 00b2 41F8047B 		str    r7, [r1], #4                
 270 00b6 50F8044B 		ldr    r4, [r0], #4                
 271 00ba 4FF00005 		mov    r5, #0                      
 272 00be 0E68     		ldr    r6, [r1]                    
 273 00c0 E3FB0425 		umlal  r2, r5, r3, r4              
 274 00c4 B718     		adds   r7, r6, r2                  
 275 00c6 45F10002 		adc    r2, r5, #0                  
 276 00ca 41F8047B 		str    r7, [r1], #4                
 277 00ce 50F8044B 		ldr    r4, [r0], #4                
 278 00d2 4FF00005 		mov    r5, #0                      
 279 00d6 0E68     		ldr    r6, [r1]                    
 280 00d8 E3FB0425 		umlal  r2, r5, r3, r4              
 281 00dc B718     		adds   r7, r6, r2                  
 282 00de 45F10002 		adc    r2, r5, #0                  
 283 00e2 41F8047B 		str    r7, [r1], #4                
ARM GAS  C:\Users\jo\AppData\Local\Temp\cc0IQHDm.s 			page 6


 284 00e6 50F8044B 		ldr    r4, [r0], #4                
 285 00ea 4FF00005 		mov    r5, #0                      
 286 00ee 0E68     		ldr    r6, [r1]                    
 287 00f0 E3FB0425 		umlal  r2, r5, r3, r4              
 288 00f4 B718     		adds   r7, r6, r2                  
 289 00f6 45F10002 		adc    r2, r5, #0                  
 290 00fa 41F8047B 		str    r7, [r1], #4                
 291 00fe 50F8044B 		ldr    r4, [r0], #4                
 292 0102 4FF00005 		mov    r5, #0                      
 293 0106 0E68     		ldr    r6, [r1]                    
 294 0108 E3FB0425 		umlal  r2, r5, r3, r4              
 295 010c B718     		adds   r7, r6, r2                  
 296 010e 45F10002 		adc    r2, r5, #0                  
 297 0112 41F8047B 		str    r7, [r1], #4                
 298 0116 50F8044B 		ldr    r4, [r0], #4                
 299 011a 4FF00005 		mov    r5, #0                      
 300 011e 0E68     		ldr    r6, [r1]                    
 301 0120 E3FB0425 		umlal  r2, r5, r3, r4              
 302 0124 B718     		adds   r7, r6, r2                  
 303 0126 45F10002 		adc    r2, r5, #0                  
 304 012a 41F8047B 		str    r7, [r1], #4                
 305 012e 50F8044B 		ldr    r4, [r0], #4                
 306 0132 4FF00005 		mov    r5, #0                      
 307 0136 0E68     		ldr    r6, [r1]                    
 308 0138 E3FB0425 		umlal  r2, r5, r3, r4              
 309 013c B718     		adds   r7, r6, r2                  
 310 013e 45F10002 		adc    r2, r5, #0                  
 311 0142 41F8047B 		str    r7, [r1], #4                
 312 0146 50F8044B 		ldr    r4, [r0], #4                
 313 014a 4FF00005 		mov    r5, #0                      
 314 014e 0E68     		ldr    r6, [r1]                    
 315 0150 E3FB0425 		umlal  r2, r5, r3, r4              
 316 0154 B718     		adds   r7, r6, r2                  
 317 0156 45F10002 		adc    r2, r5, #0                  
 318 015a 41F8047B 		str    r7, [r1], #4                
 319 015e 50F8044B 		ldr    r4, [r0], #4                
 320 0162 4FF00005 		mov    r5, #0                      
 321 0166 0E68     		ldr    r6, [r1]                    
 322 0168 E3FB0425 		umlal  r2, r5, r3, r4              
 323 016c B718     		adds   r7, r6, r2                  
 324 016e 45F10002 		adc    r2, r5, #0                  
 325 0172 41F8047B 		str    r7, [r1], #4                
 326 0176 50F8044B 		ldr    r4, [r0], #4                
 327 017a 4FF00005 		mov    r5, #0                      
 328 017e 0E68     		ldr    r6, [r1]                    
 329 0180 E3FB0425 		umlal  r2, r5, r3, r4              
 330 0184 B718     		adds   r7, r6, r2                  
 331 0186 45F10002 		adc    r2, r5, #0                  
 332 018a 41F8047B 		str    r7, [r1], #4                
 333 018e 50F8044B 		ldr    r4, [r0], #4                
 334 0192 4FF00005 		mov    r5, #0                      
 335 0196 0E68     		ldr    r6, [r1]                    
 336 0198 E3FB0425 		umlal  r2, r5, r3, r4              
 337 019c B718     		adds   r7, r6, r2                  
 338 019e 45F10002 		adc    r2, r5, #0                  
 339 01a2 41F8047B 		str    r7, [r1], #4                
 340 01a6 0592     		str    r2, [sp, #20]                      
ARM GAS  C:\Users\jo\AppData\Local\Temp\cc0IQHDm.s 			page 7


 341 01a8 0291     		str    r1, [sp, #8]                      
 342 01aa 0390     		str    r0, [sp, #12]                      
 343              		
 344              	@ 0 "" 2
 345              		.loc 1 1094 0 discriminator 2
 346              		.thumb
 347 01ac BCF10F0F 		cmp	ip, #15
 348 01b0 3FF633AF 		bhi	.L26
 349 01b4 0EF00F0E 		and	lr, lr, #15
 350              	.LVL21:
 351              	.L25:
 352              		.loc 1 1109 0 discriminator 1
 353 01b8 BEF1070F 		cmp	lr, #7
 354 01bc 68D9     		bls	.L27
 355              		.loc 1 1111 0 discriminator 2
 356              	@ 1111 "../../../ext/mbedtls-1.3.11/library/bignum.c" 1
 357 01be 0398     		ldr    r0, [sp, #12]                      
 358 01c0 0299     		ldr    r1, [sp, #8]                      
 359 01c2 059A     		ldr    r2, [sp, #20]                      
 360 01c4 019B     		ldr    r3, [sp, #4]                      
 361 01c6 50F8044B 		ldr    r4, [r0], #4                
 362 01ca 4FF00005 		mov    r5, #0                      
 363 01ce 0E68     		ldr    r6, [r1]                    
 364 01d0 E3FB0425 		umlal  r2, r5, r3, r4              
 365 01d4 B718     		adds   r7, r6, r2                  
 366 01d6 45F10002 		adc    r2, r5, #0                  
 367 01da 41F8047B 		str    r7, [r1], #4                
 368 01de 50F8044B 		ldr    r4, [r0], #4                
 369 01e2 4FF00005 		mov    r5, #0                      
 370 01e6 0E68     		ldr    r6, [r1]                    
 371 01e8 E3FB0425 		umlal  r2, r5, r3, r4              
 372 01ec B718     		adds   r7, r6, r2                  
 373 01ee 45F10002 		adc    r2, r5, #0                  
 374 01f2 41F8047B 		str    r7, [r1], #4                
 375 01f6 50F8044B 		ldr    r4, [r0], #4                
 376 01fa 4FF00005 		mov    r5, #0                      
 377 01fe 0E68     		ldr    r6, [r1]                    
 378 0200 E3FB0425 		umlal  r2, r5, r3, r4              
 379 0204 B718     		adds   r7, r6, r2                  
 380 0206 45F10002 		adc    r2, r5, #0                  
 381 020a 41F8047B 		str    r7, [r1], #4                
 382 020e 50F8044B 		ldr    r4, [r0], #4                
 383 0212 4FF00005 		mov    r5, #0                      
 384 0216 0E68     		ldr    r6, [r1]                    
 385 0218 E3FB0425 		umlal  r2, r5, r3, r4              
 386 021c B718     		adds   r7, r6, r2                  
 387 021e 45F10002 		adc    r2, r5, #0                  
 388 0222 41F8047B 		str    r7, [r1], #4                
 389 0226 50F8044B 		ldr    r4, [r0], #4                
 390 022a 4FF00005 		mov    r5, #0                      
 391 022e 0E68     		ldr    r6, [r1]                    
 392 0230 E3FB0425 		umlal  r2, r5, r3, r4              
 393 0234 B718     		adds   r7, r6, r2                  
 394 0236 45F10002 		adc    r2, r5, #0                  
 395 023a 41F8047B 		str    r7, [r1], #4                
 396 023e 50F8044B 		ldr    r4, [r0], #4                
 397 0242 4FF00005 		mov    r5, #0                      
ARM GAS  C:\Users\jo\AppData\Local\Temp\cc0IQHDm.s 			page 8


 398 0246 0E68     		ldr    r6, [r1]                    
 399 0248 E3FB0425 		umlal  r2, r5, r3, r4              
 400 024c B718     		adds   r7, r6, r2                  
 401 024e 45F10002 		adc    r2, r5, #0                  
 402 0252 41F8047B 		str    r7, [r1], #4                
 403 0256 50F8044B 		ldr    r4, [r0], #4                
 404 025a 4FF00005 		mov    r5, #0                      
 405 025e 0E68     		ldr    r6, [r1]                    
 406 0260 E3FB0425 		umlal  r2, r5, r3, r4              
 407 0264 B718     		adds   r7, r6, r2                  
 408 0266 45F10002 		adc    r2, r5, #0                  
 409 026a 41F8047B 		str    r7, [r1], #4                
 410 026e 50F8044B 		ldr    r4, [r0], #4                
 411 0272 4FF00005 		mov    r5, #0                      
 412 0276 0E68     		ldr    r6, [r1]                    
 413 0278 E3FB0425 		umlal  r2, r5, r3, r4              
 414 027c B718     		adds   r7, r6, r2                  
 415 027e 45F10002 		adc    r2, r5, #0                  
 416 0282 41F8047B 		str    r7, [r1], #4                
 417 0286 0592     		str    r2, [sp, #20]                      
 418 0288 0291     		str    r1, [sp, #8]                      
 419 028a 0390     		str    r0, [sp, #12]                      
 420              		
 421              	@ 0 "" 2
 422              	.LVL22:
 423              		.thumb
 424 028c 0EF0070E 		and	lr, lr, #7
 425              	.LVL23:
 426              	.L27:
 427              		.loc 1 1120 0 discriminator 1
 428 0290 BEF1000F 		cmp	lr, #0
 429 0294 15D0     		beq	.L31
 430              	.L30:
 431              	.LVL24:
 432              		.loc 1 1122 0 discriminator 2
 433              	@ 1122 "../../../ext/mbedtls-1.3.11/library/bignum.c" 1
 434 0296 0398     		ldr    r0, [sp, #12]                      
 435 0298 0299     		ldr    r1, [sp, #8]                      
 436 029a 059A     		ldr    r2, [sp, #20]                      
 437 029c 019B     		ldr    r3, [sp, #4]                      
 438 029e 50F8044B 		ldr    r4, [r0], #4                
 439 02a2 4FF00005 		mov    r5, #0                      
 440 02a6 0E68     		ldr    r6, [r1]                    
 441 02a8 E3FB0425 		umlal  r2, r5, r3, r4              
 442 02ac B718     		adds   r7, r6, r2                  
 443 02ae 45F10002 		adc    r2, r5, #0                  
 444 02b2 41F8047B 		str    r7, [r1], #4                
 445 02b6 0592     		str    r2, [sp, #20]                      
 446 02b8 0291     		str    r1, [sp, #8]                      
 447 02ba 0390     		str    r0, [sp, #12]                      
 448              		
 449              	@ 0 "" 2
 450              		.loc 1 1120 0 discriminator 2
 451              		.thumb
 452 02bc BEF1010E 		subs	lr, lr, #1
 453              	.LVL25:
 454 02c0 E9D1     		bne	.L30
ARM GAS  C:\Users\jo\AppData\Local\Temp\cc0IQHDm.s 			page 9


 455              	.L31:
 456 02c2 029A     		ldr	r2, [sp, #8]
 457 02c4 059B     		ldr	r3, [sp, #20]
 458              	.LVL26:
 459              	.L29:
 460              		.loc 1 1131 0 discriminator 1
 461 02c6 1168     		ldr	r1, [r2]
 462 02c8 0B44     		add	r3, r3, r1
 463 02ca 42F8043B 		str	r3, [r2], #4
 464 02ce 0599     		ldr	r1, [sp, #20]
 465 02d0 8B42     		cmp	r3, r1
 466 02d2 2CBF     		ite	cs
 467 02d4 0023     		movcs	r3, #0
 468 02d6 0123     		movcc	r3, #1
 469 02d8 0593     		str	r3, [sp, #20]
 470              		.loc 1 1133 0 discriminator 1
 471 02da 002B     		cmp	r3, #0
 472 02dc F3D1     		bne	.L29
 473              		.loc 1 1134 0
 474 02de 07B0     		add	sp, sp, #28
 475              		.cfi_def_cfa_offset 20
 476              		@ sp needed
 477 02e0 F0BD     		pop	{r4, r5, r6, r7, pc}
 478              		.cfi_endproc
 479              	.LFE35:
 480              		.size	mpi_mul_hlp, .-mpi_mul_hlp
 481 02e2 00BFAFF3 		.section	.text.mpi_mod_int.part.3,"ax",%progbits
 481      0080AFF3 
 481      0080AFF3 
 481      0080
 482              		.align	2
 483              		.p2align 4,,15
 484              		.thumb
 485              		.thumb_func
 486              		.type	mpi_mod_int.part.3, %function
 487              	mpi_mod_int.part.3:
 488              	.LFB57:
 489              		.loc 1 1395 0
 490              		.cfi_startproc
 491              		@ args = 0, pretend = 0, frame = 0
 492              		@ frame_needed = 0, uses_anonymous_args = 0
 493              		@ link register save eliminated.
 494              	.LVL27:
 495 0000 F0B4     		push	{r4, r5, r6, r7}
 496              		.cfi_def_cfa_offset 16
 497              		.cfi_offset 4, -16
 498              		.cfi_offset 5, -12
 499              		.cfi_offset 6, -8
 500              		.cfi_offset 7, -4
 501              		.loc 1 1424 0
 502 0002 4E68     		ldr	r6, [r1, #4]
 503              	.LVL28:
 504 0004 1EB3     		cbz	r6, .L37
 505 0006 8F68     		ldr	r7, [r1, #8]
 506 0008 0023     		movs	r3, #0
 507 000a 07EB8606 		add	r6, r7, r6, lsl #2
 508              	.LVL29:
ARM GAS  C:\Users\jo\AppData\Local\Temp\cc0IQHDm.s 			page 10


 509              	.L38:
 510              		.loc 1 1426 0
 511 000e 56F8044D 		ldr	r4, [r6, #-4]!
 512              	.LVL30:
 513              		.loc 1 1427 0
 514 0012 250C     		lsrs	r5, r4, #16
 515 0014 45EA0343 		orr	r3, r5, r3, lsl #16
 516              	.LVL31:
 517              		.loc 1 1432 0
 518 0018 A4B2     		uxth	r4, r4
 519              	.LVL32:
 520              		.loc 1 1428 0
 521 001a B3FBF2F5 		udiv	r5, r3, r2
 522              	.LVL33:
 523              		.loc 1 1429 0
 524 001e 02FB1533 		mls	r3, r2, r5, r3
 525              	.LVL34:
 526              		.loc 1 1432 0
 527 0022 44EA0343 		orr	r3, r4, r3, lsl #16
 528              	.LVL35:
 529              		.loc 1 1424 0
 530 0026 BE42     		cmp	r6, r7
 531              		.loc 1 1433 0
 532 0028 B3FBF2F4 		udiv	r4, r3, r2
 533              	.LVL36:
 534              		.loc 1 1434 0
 535 002c 02FB1433 		mls	r3, r2, r4, r3
 536              	.LVL37:
 537              		.loc 1 1424 0
 538 0030 EDD1     		bne	.L38
 539              		.loc 1 1441 0
 540 0032 0968     		ldr	r1, [r1]
 541              	.LVL38:
 542 0034 0029     		cmp	r1, #0
 543 0036 03DB     		blt	.L47
 544              	.LVL39:
 545              	.L39:
 546              		.loc 1 1444 0
 547 0038 0360     		str	r3, [r0]
 548              		.loc 1 1447 0
 549 003a F0BC     		pop	{r4, r5, r6, r7}
 550              		.cfi_remember_state
 551              		.cfi_restore 7
 552              		.cfi_restore 6
 553              		.cfi_restore 5
 554              		.cfi_restore 4
 555              		.cfi_def_cfa_offset 0
 556 003c 0020     		movs	r0, #0
 557              	.LVL40:
 558 003e 7047     		bx	lr
 559              	.LVL41:
 560              	.L47:
 561              		.cfi_restore_state
 562              		.loc 1 1441 0
 563 0040 002B     		cmp	r3, #0
 564 0042 F9D0     		beq	.L39
 565              		.loc 1 1442 0
ARM GAS  C:\Users\jo\AppData\Local\Temp\cc0IQHDm.s 			page 11


 566 0044 D31A     		subs	r3, r2, r3
 567              	.LVL42:
 568              		.loc 1 1444 0
 569 0046 0360     		str	r3, [r0]
 570              	.LVL43:
 571              		.loc 1 1447 0
 572 0048 F0BC     		pop	{r4, r5, r6, r7}
 573              		.cfi_remember_state
 574              		.cfi_restore 4
 575              		.cfi_restore 5
 576              		.cfi_restore 6
 577              		.cfi_restore 7
 578              		.cfi_def_cfa_offset 0
 579              	.LVL44:
 580 004a 0020     		movs	r0, #0
 581              	.LVL45:
 582 004c 7047     		bx	lr
 583              	.LVL46:
 584              	.L37:
 585              		.cfi_restore_state
 586              		.loc 1 1441 0
 587 004e 3346     		mov	r3, r6
 588 0050 F2E7     		b	.L39
 589              		.cfi_endproc
 590              	.LFE57:
 591              		.size	mpi_mod_int.part.3, .-mpi_mod_int.part.3
 592 0052 00BFAFF3 		.section	.text.mpi_init,"ax",%progbits
 592      0080AFF3 
 592      0080AFF3 
 592      0080
 593              		.align	2
 594              		.p2align 4,,15
 595              		.global	mpi_init
 596              		.thumb
 597              		.thumb_func
 598              		.type	mpi_init, %function
 599              	mpi_init:
 600              	.LFB1:
 601              		.loc 1 72 0
 602              		.cfi_startproc
 603              		@ args = 0, pretend = 0, frame = 0
 604              		@ frame_needed = 0, uses_anonymous_args = 0
 605              		@ link register save eliminated.
 606              	.LVL47:
 607              		.loc 1 73 0
 608 0000 20B1     		cbz	r0, .L48
 609              		.loc 1 77 0
 610 0002 0023     		movs	r3, #0
 611 0004 0122     		movs	r2, #1
 612 0006 80E80C00 		stmia	r0, {r2, r3}
 613              		.loc 1 78 0
 614 000a 8360     		str	r3, [r0, #8]
 615              	.L48:
 616 000c 7047     		bx	lr
 617              		.cfi_endproc
 618              	.LFE1:
 619              		.size	mpi_init, .-mpi_init
ARM GAS  C:\Users\jo\AppData\Local\Temp\cc0IQHDm.s 			page 12


 620 000e 00BF     		.section	.text.mpi_free,"ax",%progbits
 621              		.align	2
 622              		.p2align 4,,15
 623              		.global	mpi_free
 624              		.thumb
 625              		.thumb_func
 626              		.type	mpi_free, %function
 627              	mpi_free:
 628              	.LFB2:
 629              		.loc 1 85 0
 630              		.cfi_startproc
 631              		@ args = 0, pretend = 0, frame = 0
 632              		@ frame_needed = 0, uses_anonymous_args = 0
 633              	.LVL48:
 634              		.loc 1 86 0
 635 0000 A8B1     		cbz	r0, .L67
 636              		.loc 1 89 0
 637 0002 8368     		ldr	r3, [r0, #8]
 638              		.loc 1 85 0
 639 0004 10B5     		push	{r4, lr}
 640              		.cfi_def_cfa_offset 8
 641              		.cfi_offset 4, -8
 642              		.cfi_offset 14, -4
 643 0006 0446     		mov	r4, r0
 644              		.loc 1 89 0
 645 0008 5BB1     		cbz	r3, .L55
 646              		.loc 1 91 0
 647 000a 4268     		ldr	r2, [r0, #4]
 648              	.LVL49:
 649              	.LBB96:
 650              	.LBB97:
 651              		.loc 1 55 0
 652 000c 9200     		lsls	r2, r2, #2
 653              	.LVL50:
 654 000e 0FD0     		beq	.L58
 655 0010 1A44     		add	r2, r2, r3
 656              	.LVL51:
 657 0012 0021     		movs	r1, #0
 658              	.LVL52:
 659              	.L57:
 660 0014 1970     		strb	r1, [r3]
 661              	.LVL53:
 662 0016 0133     		adds	r3, r3, #1
 663              	.LVL54:
 664 0018 9342     		cmp	r3, r2
 665 001a FBD1     		bne	.L57
 666 001c A068     		ldr	r0, [r4, #8]
 667              	.LVL55:
 668              	.L56:
 669              	.LBE97:
 670              	.LBE96:
 671              		.loc 1 92 0
 672 001e FFF7FEFF 		bl	free
 673              	.LVL56:
 674              	.L55:
 675              		.loc 1 96 0
 676 0022 0023     		movs	r3, #0
ARM GAS  C:\Users\jo\AppData\Local\Temp\cc0IQHDm.s 			page 13


 677 0024 0122     		movs	r2, #1
 678 0026 84E80C00 		stmia	r4, {r2, r3}
 679              		.loc 1 97 0
 680 002a A360     		str	r3, [r4, #8]
 681 002c 10BD     		pop	{r4, pc}
 682              	.LVL57:
 683              	.L67:
 684              		.cfi_def_cfa_offset 0
 685              		.cfi_restore 4
 686              		.cfi_restore 14
 687 002e 7047     		bx	lr
 688              	.LVL58:
 689              	.L58:
 690              		.cfi_def_cfa_offset 8
 691              		.cfi_offset 4, -8
 692              		.cfi_offset 14, -4
 693              	.LBB99:
 694              	.LBB98:
 695              		.loc 1 55 0
 696 0030 1846     		mov	r0, r3
 697              	.LVL59:
 698 0032 F4E7     		b	.L56
 699              	.LBE98:
 700              	.LBE99:
 701              		.cfi_endproc
 702              	.LFE2:
 703              		.size	mpi_free, .-mpi_free
 704 0034 AFF30080 		.section	.text.mpi_grow,"ax",%progbits
 704      AFF30080 
 704      AFF30080 
 705              		.align	2
 706              		.p2align 4,,15
 707              		.global	mpi_grow
 708              		.thumb
 709              		.thumb_func
 710              		.type	mpi_grow, %function
 711              	mpi_grow:
 712              	.LFB3:
 713              		.loc 1 104 0
 714              		.cfi_startproc
 715              		@ args = 0, pretend = 0, frame = 0
 716              		@ frame_needed = 0, uses_anonymous_args = 0
 717              	.LVL60:
 718              		.loc 1 107 0
 719 0000 42F21073 		movw	r3, #10000
 720 0004 9942     		cmp	r1, r3
 721 0006 2BD8     		bhi	.L87
 722              		.loc 1 104 0
 723 0008 2DE9F041 		push	{r4, r5, r6, r7, r8, lr}
 724              		.cfi_def_cfa_offset 24
 725              		.cfi_offset 4, -24
 726              		.cfi_offset 5, -20
 727              		.cfi_offset 6, -16
 728              		.cfi_offset 7, -12
 729              		.cfi_offset 8, -8
 730              		.cfi_offset 14, -4
 731              		.loc 1 110 0
ARM GAS  C:\Users\jo\AppData\Local\Temp\cc0IQHDm.s 			page 14


 732 000c 4568     		ldr	r5, [r0, #4]
 733 000e A942     		cmp	r1, r5
 734 0010 02D8     		bhi	.L88
 735              		.loc 1 128 0
 736 0012 0020     		movs	r0, #0
 737              	.LVL61:
 738              		.loc 1 129 0
 739 0014 BDE8F081 		pop	{r4, r5, r6, r7, r8, pc}
 740              	.LVL62:
 741              	.L88:
 742              		.loc 1 112 0
 743 0018 8C00     		lsls	r4, r1, #2
 744 001a 0746     		mov	r7, r0
 745 001c 2046     		mov	r0, r4
 746              	.LVL63:
 747 001e 0E46     		mov	r6, r1
 748 0020 FFF7FEFF 		bl	malloc
 749              	.LVL64:
 750 0024 8046     		mov	r8, r0
 751 0026 00B3     		cbz	r0, .L71
 752              		.loc 1 115 0
 753 0028 2246     		mov	r2, r4
 754 002a 0021     		movs	r1, #0
 755 002c FFF7FEFF 		bl	memset
 756              	.LVL65:
 757              		.loc 1 117 0
 758 0030 BC68     		ldr	r4, [r7, #8]
 759 0032 7CB1     		cbz	r4, .L72
 760              		.loc 1 119 0
 761 0034 AD00     		lsls	r5, r5, #2
 762 0036 2A46     		mov	r2, r5
 763 0038 4046     		mov	r0, r8
 764 003a 2146     		mov	r1, r4
 765 003c FFF7FEFF 		bl	memcpy
 766              	.LVL66:
 767              	.LBB100:
 768              	.LBB101:
 769              		.loc 1 55 0
 770 0040 8DB1     		cbz	r5, .L76
 771 0042 6219     		adds	r2, r4, r5
 772 0044 0023     		movs	r3, #0
 773              	.LVL67:
 774              	.L74:
 775 0046 2370     		strb	r3, [r4]
 776              	.LVL68:
 777 0048 0134     		adds	r4, r4, #1
 778              	.LVL69:
 779 004a 9442     		cmp	r4, r2
 780 004c FBD1     		bne	.L74
 781 004e B868     		ldr	r0, [r7, #8]
 782              	.LVL70:
 783              	.L73:
 784              	.LBE101:
 785              	.LBE100:
 786              		.loc 1 121 0
 787 0050 FFF7FEFF 		bl	free
 788              	.LVL71:
ARM GAS  C:\Users\jo\AppData\Local\Temp\cc0IQHDm.s 			page 15


 789              	.L72:
 790              		.loc 1 124 0
 791 0054 7E60     		str	r6, [r7, #4]
 792              		.loc 1 125 0
 793 0056 C7F80880 		str	r8, [r7, #8]
 794              		.loc 1 128 0
 795 005a 0020     		movs	r0, #0
 796 005c BDE8F081 		pop	{r4, r5, r6, r7, r8, pc}
 797              	.LVL72:
 798              	.L87:
 799              		.cfi_def_cfa_offset 0
 800              		.cfi_restore 4
 801              		.cfi_restore 5
 802              		.cfi_restore 6
 803              		.cfi_restore 7
 804              		.cfi_restore 8
 805              		.cfi_restore 14
 806              		.loc 1 108 0
 807 0060 6FF00F00 		mvn	r0, #15
 808              	.LVL73:
 809              		.loc 1 129 0
 810 0064 7047     		bx	lr
 811              	.LVL74:
 812              	.L76:
 813              		.cfi_def_cfa_offset 24
 814              		.cfi_offset 4, -24
 815              		.cfi_offset 5, -20
 816              		.cfi_offset 6, -16
 817              		.cfi_offset 7, -12
 818              		.cfi_offset 8, -8
 819              		.cfi_offset 14, -4
 820              	.LBB103:
 821              	.LBB102:
 822              		.loc 1 55 0
 823 0066 2046     		mov	r0, r4
 824 0068 F2E7     		b	.L73
 825              	.LVL75:
 826              	.L71:
 827              	.LBE102:
 828              	.LBE103:
 829              		.loc 1 108 0
 830 006a 6FF00F00 		mvn	r0, #15
 831              	.LVL76:
 832 006e BDE8F081 		pop	{r4, r5, r6, r7, r8, pc}
 833              		.cfi_endproc
 834              	.LFE3:
 835              		.size	mpi_grow, .-mpi_grow
 836 0072 00BFAFF3 		.section	.text.mpi_shrink,"ax",%progbits
 836      0080AFF3 
 836      0080AFF3 
 836      0080
 837              		.align	2
 838              		.p2align 4,,15
 839              		.global	mpi_shrink
 840              		.thumb
 841              		.thumb_func
 842              		.type	mpi_shrink, %function
ARM GAS  C:\Users\jo\AppData\Local\Temp\cc0IQHDm.s 			page 16


 843              	mpi_shrink:
 844              	.LFB4:
 845              		.loc 1 136 0
 846              		.cfi_startproc
 847              		@ args = 0, pretend = 0, frame = 0
 848              		@ frame_needed = 0, uses_anonymous_args = 0
 849              	.LVL77:
 850 0000 2DE9F843 		push	{r3, r4, r5, r6, r7, r8, r9, lr}
 851              		.cfi_def_cfa_offset 32
 852              		.cfi_offset 3, -32
 853              		.cfi_offset 4, -28
 854              		.cfi_offset 5, -24
 855              		.cfi_offset 6, -20
 856              		.cfi_offset 7, -16
 857              		.cfi_offset 8, -12
 858              		.cfi_offset 9, -8
 859              		.cfi_offset 14, -4
 860              		.loc 1 141 0
 861 0004 4568     		ldr	r5, [r0, #4]
 862 0006 8D42     		cmp	r5, r1
 863              		.loc 1 136 0
 864 0008 0646     		mov	r6, r0
 865 000a 0F46     		mov	r7, r1
 866              		.loc 1 141 0
 867 000c 36D9     		bls	.L109
 868              	.LVL78:
 869              		.loc 1 144 0
 870 000e 6B1E     		subs	r3, r5, #1
 871              	.LVL79:
 872 0010 0BD0     		beq	.L99
 873              		.loc 1 145 0
 874 0012 8268     		ldr	r2, [r0, #8]
 875 0014 52F82300 		ldr	r0, [r2, r3, lsl #2]
 876              	.LVL80:
 877 0018 9900     		lsls	r1, r3, #2
 878              	.LVL81:
 879 001a A8BB     		cbnz	r0, .L92
 880 001c 1144     		add	r1, r1, r2
 881 001e 02E0     		b	.L93
 882              	.L94:
 883 0020 51F8040D 		ldr	r0, [r1, #-4]!
 884 0024 40BB     		cbnz	r0, .L110
 885              	.L93:
 886              	.LVL82:
 887              		.loc 1 144 0 discriminator 2
 888 0026 013B     		subs	r3, r3, #1
 889              	.LVL83:
 890 0028 FAD1     		bne	.L94
 891              	.L99:
 892              		.loc 1 144 0 is_stmt 0
 893 002a 0122     		movs	r2, #1
 894              	.L91:
 895              	.LVL84:
 896 002c 9742     		cmp	r7, r2
 897 002e 38BF     		it	cc
 898 0030 1746     		movcc	r7, r2
 899              	.LVL85:
ARM GAS  C:\Users\jo\AppData\Local\Temp\cc0IQHDm.s 			page 17


 900              		.loc 1 152 0 is_stmt 1
 901 0032 4FEA8709 		lsl	r9, r7, #2
 902 0036 4846     		mov	r0, r9
 903 0038 FFF7FEFF 		bl	malloc
 904              	.LVL86:
 905 003c 8046     		mov	r8, r0
 906 003e 28B3     		cbz	r0, .L100
 907              		.loc 1 155 0
 908 0040 0021     		movs	r1, #0
 909 0042 4A46     		mov	r2, r9
 910 0044 FFF7FEFF 		bl	memset
 911              	.LVL87:
 912              		.loc 1 157 0
 913 0048 B468     		ldr	r4, [r6, #8]
 914 004a 7CB1     		cbz	r4, .L96
 915              		.loc 1 159 0
 916 004c 4A46     		mov	r2, r9
 917 004e 4046     		mov	r0, r8
 918 0050 2146     		mov	r1, r4
 919 0052 FFF7FEFF 		bl	memcpy
 920              	.LVL88:
 921              	.LBB104:
 922              	.LBB105:
 923              		.loc 1 55 0
 924 0056 AD00     		lsls	r5, r5, #2
 925              	.LVL89:
 926 0058 14D0     		beq	.L101
 927 005a 2544     		add	r5, r5, r4
 928              	.LVL90:
 929 005c 0023     		movs	r3, #0
 930              	.LVL91:
 931              	.L98:
 932 005e 2370     		strb	r3, [r4]
 933              	.LVL92:
 934 0060 0134     		adds	r4, r4, #1
 935              	.LVL93:
 936 0062 AC42     		cmp	r4, r5
 937 0064 FBD1     		bne	.L98
 938 0066 B068     		ldr	r0, [r6, #8]
 939              	.LVL94:
 940              	.L97:
 941              	.LBE105:
 942              	.LBE104:
 943              		.loc 1 161 0
 944 0068 FFF7FEFF 		bl	free
 945              	.LVL95:
 946              	.L96:
 947              		.loc 1 164 0
 948 006c 7760     		str	r7, [r6, #4]
 949              		.loc 1 165 0
 950 006e C6F80880 		str	r8, [r6, #8]
 951              		.loc 1 167 0
 952 0072 0020     		movs	r0, #0
 953 0074 BDE8F883 		pop	{r3, r4, r5, r6, r7, r8, r9, pc}
 954              	.LVL96:
 955              	.L110:
 956 0078 5A1C     		adds	r2, r3, #1
ARM GAS  C:\Users\jo\AppData\Local\Temp\cc0IQHDm.s 			page 18


 957 007a D7E7     		b	.L91
 958              	.LVL97:
 959              	.L109:
 960              		.loc 1 168 0
 961 007c BDE8F843 		pop	{r3, r4, r5, r6, r7, r8, r9, lr}
 962              		.cfi_remember_state
 963              		.cfi_restore 14
 964              		.cfi_restore 9
 965              		.cfi_restore 8
 966              		.cfi_restore 7
 967              		.cfi_restore 6
 968              		.cfi_restore 5
 969              		.cfi_restore 4
 970              		.cfi_restore 3
 971              		.cfi_def_cfa_offset 0
 972              		.loc 1 142 0
 973 0080 FFF7FEBF 		b	mpi_grow
 974              	.LVL98:
 975              	.L101:
 976              		.cfi_restore_state
 977              	.LBB107:
 978              	.LBB106:
 979              		.loc 1 55 0
 980 0084 2046     		mov	r0, r4
 981 0086 EFE7     		b	.L97
 982              	.LVL99:
 983              	.L92:
 984 0088 2A46     		mov	r2, r5
 985 008a CFE7     		b	.L91
 986              	.LVL100:
 987              	.L100:
 988              	.LBE106:
 989              	.LBE107:
 990              		.loc 1 153 0
 991 008c 6FF00F00 		mvn	r0, #15
 992              	.LVL101:
 993              		.loc 1 168 0
 994 0090 BDE8F883 		pop	{r3, r4, r5, r6, r7, r8, r9, pc}
 995              		.cfi_endproc
 996              	.LFE4:
 997              		.size	mpi_shrink, .-mpi_shrink
 998 0094 AFF30080 		.section	.text.mpi_copy,"ax",%progbits
 998      AFF30080 
 998      AFF30080 
 999              		.align	2
 1000              		.p2align 4,,15
 1001              		.global	mpi_copy
 1002              		.thumb
 1003              		.thumb_func
 1004              		.type	mpi_copy, %function
 1005              	mpi_copy:
 1006              	.LFB5:
 1007              		.loc 1 174 0
 1008              		.cfi_startproc
 1009              		@ args = 0, pretend = 0, frame = 0
 1010              		@ frame_needed = 0, uses_anonymous_args = 0
 1011              	.LVL102:
ARM GAS  C:\Users\jo\AppData\Local\Temp\cc0IQHDm.s 			page 19


 1012              		.loc 1 178 0
 1013 0000 8842     		cmp	r0, r1
 1014              		.loc 1 174 0
 1015 0002 F8B5     		push	{r3, r4, r5, r6, r7, lr}
 1016              		.cfi_def_cfa_offset 24
 1017              		.cfi_offset 3, -24
 1018              		.cfi_offset 4, -20
 1019              		.cfi_offset 5, -16
 1020              		.cfi_offset 6, -12
 1021              		.cfi_offset 7, -8
 1022              		.cfi_offset 14, -4
 1023              		.loc 1 174 0
 1024 0004 0746     		mov	r7, r0
 1025              		.loc 1 178 0
 1026 0006 29D0     		beq	.L118
 1027              		.loc 1 181 0
 1028 0008 8C68     		ldr	r4, [r1, #8]
 1029 000a 0D46     		mov	r5, r1
 1030 000c 44B3     		cbz	r4, .L124
 1031              		.loc 1 187 0
 1032 000e 4E68     		ldr	r6, [r1, #4]
 1033              	.LVL103:
 1034 0010 731E     		subs	r3, r6, #1
 1035              	.LVL104:
 1036 0012 0AD0     		beq	.L119
 1037              		.loc 1 188 0
 1038 0014 54F82310 		ldr	r1, [r4, r3, lsl #2]
 1039              	.LVL105:
 1040 0018 9A00     		lsls	r2, r3, #2
 1041 001a 39B9     		cbnz	r1, .L114
 1042 001c 2244     		add	r2, r2, r4
 1043 001e 02E0     		b	.L116
 1044              	.L117:
 1045 0020 52F8044D 		ldr	r4, [r2, #-4]!
 1046 0024 5CB9     		cbnz	r4, .L125
 1047              	.L116:
 1048              	.LVL106:
 1049              		.loc 1 187 0 discriminator 2
 1050 0026 013B     		subs	r3, r3, #1
 1051              	.LVL107:
 1052 0028 FAD1     		bne	.L117
 1053              	.L119:
 1054              		.loc 1 187 0 is_stmt 0
 1055 002a 0126     		movs	r6, #1
 1056              	.L114:
 1057              	.LVL108:
 1058              		.loc 1 192 0 is_stmt 1
 1059 002c 2B68     		ldr	r3, [r5]
 1060 002e 3B60     		str	r3, [r7]
 1061              		.loc 1 194 0
 1062 0030 3846     		mov	r0, r7
 1063              	.LVL109:
 1064 0032 3146     		mov	r1, r6
 1065 0034 FFF7FEFF 		bl	mpi_grow
 1066              	.LVL110:
 1067 0038 0446     		mov	r4, r0
 1068 003a 10B1     		cbz	r0, .L126
ARM GAS  C:\Users\jo\AppData\Local\Temp\cc0IQHDm.s 			page 20


 1069              		.loc 1 202 0
 1070 003c F8BD     		pop	{r3, r4, r5, r6, r7, pc}
 1071              	.LVL111:
 1072              	.L125:
 1073 003e 5E1C     		adds	r6, r3, #1
 1074 0040 F4E7     		b	.L114
 1075              	.LVL112:
 1076              	.L126:
 1077              		.loc 1 196 0
 1078 0042 7A68     		ldr	r2, [r7, #4]
 1079 0044 B868     		ldr	r0, [r7, #8]
 1080              	.LVL113:
 1081 0046 2146     		mov	r1, r4
 1082 0048 9200     		lsls	r2, r2, #2
 1083 004a FFF7FEFF 		bl	memset
 1084              	.LVL114:
 1085              		.loc 1 197 0
 1086 004e B868     		ldr	r0, [r7, #8]
 1087 0050 A968     		ldr	r1, [r5, #8]
 1088 0052 B200     		lsls	r2, r6, #2
 1089 0054 FFF7FEFF 		bl	memcpy
 1090              	.LVL115:
 1091 0058 2046     		mov	r0, r4
 1092 005a F8BD     		pop	{r3, r4, r5, r6, r7, pc}
 1093              	.LVL116:
 1094              	.L118:
 1095              		.loc 1 179 0
 1096 005c 0020     		movs	r0, #0
 1097              	.LVL117:
 1098 005e F8BD     		pop	{r3, r4, r5, r6, r7, pc}
 1099              	.LVL118:
 1100              	.L124:
 1101              		.loc 1 183 0
 1102 0060 FFF7FEFF 		bl	mpi_free
 1103              	.LVL119:
 1104              		.loc 1 184 0
 1105 0064 2046     		mov	r0, r4
 1106 0066 F8BD     		pop	{r3, r4, r5, r6, r7, pc}
 1107              		.cfi_endproc
 1108              	.LFE5:
 1109              		.size	mpi_copy, .-mpi_copy
 1110 0068 AFF30080 		.section	.text.mpi_swap,"ax",%progbits
 1110      AFF30080 
 1111              		.align	2
 1112              		.p2align 4,,15
 1113              		.global	mpi_swap
 1114              		.thumb
 1115              		.thumb_func
 1116              		.type	mpi_swap, %function
 1117              	mpi_swap:
 1118              	.LFB6:
 1119              		.loc 1 208 0
 1120              		.cfi_startproc
 1121              		@ args = 0, pretend = 0, frame = 16
 1122              		@ frame_needed = 0, uses_anonymous_args = 0
 1123              		@ link register save eliminated.
 1124              	.LVL120:
ARM GAS  C:\Users\jo\AppData\Local\Temp\cc0IQHDm.s 			page 21


 1125 0000 F0B4     		push	{r4, r5, r6, r7}
 1126              		.cfi_def_cfa_offset 16
 1127              		.cfi_offset 4, -16
 1128              		.cfi_offset 5, -12
 1129              		.cfi_offset 6, -8
 1130              		.cfi_offset 7, -4
 1131 0002 0C46     		mov	r4, r1
 1132 0004 0546     		mov	r5, r0
 1133              		.loc 1 212 0
 1134 0006 A368     		ldr	r3, [r4, #8]	@ unaligned
 1135              		.loc 1 211 0
 1136 0008 0068     		ldr	r0, [r0]	@ unaligned
 1137              	.LVL121:
 1138 000a 6968     		ldr	r1, [r5, #4]	@ unaligned
 1139              	.LVL122:
 1140 000c AA68     		ldr	r2, [r5, #8]	@ unaligned
 1141              		.loc 1 212 0
 1142 000e 2768     		ldr	r7, [r4]	@ unaligned
 1143 0010 6668     		ldr	r6, [r4, #4]	@ unaligned
 1144 0012 AB60     		str	r3, [r5, #8]	@ unaligned
 1145              		.loc 1 208 0
 1146 0014 84B0     		sub	sp, sp, #16
 1147              		.cfi_def_cfa_offset 32
 1148              		.loc 1 211 0
 1149 0016 01AB     		add	r3, sp, #4
 1150 0018 07C3     		stmia	r3!, {r0, r1, r2}
 1151              		.loc 1 213 0
 1152 001a 01AB     		add	r3, sp, #4
 1153 001c 07CB     		ldmia	r3!, {r0, r1, r2}
 1154              		.loc 1 212 0
 1155 001e 2F60     		str	r7, [r5]	@ unaligned
 1156 0020 6E60     		str	r6, [r5, #4]	@ unaligned
 1157              		.loc 1 213 0
 1158 0022 2060     		str	r0, [r4]	@ unaligned
 1159 0024 6160     		str	r1, [r4, #4]	@ unaligned
 1160 0026 A260     		str	r2, [r4, #8]	@ unaligned
 1161              		.loc 1 214 0
 1162 0028 04B0     		add	sp, sp, #16
 1163              		.cfi_def_cfa_offset 16
 1164              		@ sp needed
 1165 002a F0BC     		pop	{r4, r5, r6, r7}
 1166              		.cfi_restore 7
 1167              		.cfi_restore 6
 1168              		.cfi_restore 5
 1169              		.cfi_restore 4
 1170              		.cfi_def_cfa_offset 0
 1171              	.LVL123:
 1172 002c 7047     		bx	lr
 1173              		.cfi_endproc
 1174              	.LFE6:
 1175              		.size	mpi_swap, .-mpi_swap
 1176 002e 00BF     		.section	.text.mpi_safe_cond_assign,"ax",%progbits
 1177              		.align	2
 1178              		.p2align 4,,15
 1179              		.global	mpi_safe_cond_assign
 1180              		.thumb
 1181              		.thumb_func
ARM GAS  C:\Users\jo\AppData\Local\Temp\cc0IQHDm.s 			page 22


 1182              		.type	mpi_safe_cond_assign, %function
 1183              	mpi_safe_cond_assign:
 1184              	.LFB7:
 1185              		.loc 1 222 0
 1186              		.cfi_startproc
 1187              		@ args = 0, pretend = 0, frame = 0
 1188              		@ frame_needed = 0, uses_anonymous_args = 0
 1189              	.LVL124:
 1190 0000 2DE9F041 		push	{r4, r5, r6, r7, r8, lr}
 1191              		.cfi_def_cfa_offset 24
 1192              		.cfi_offset 4, -24
 1193              		.cfi_offset 5, -20
 1194              		.cfi_offset 6, -16
 1195              		.cfi_offset 7, -12
 1196              		.cfi_offset 8, -8
 1197              		.cfi_offset 14, -4
 1198              		.loc 1 222 0
 1199 0004 0C46     		mov	r4, r1
 1200              		.loc 1 229 0
 1201 0006 4968     		ldr	r1, [r1, #4]
 1202              	.LVL125:
 1203              		.loc 1 222 0
 1204 0008 1546     		mov	r5, r2
 1205              	.LVL126:
 1206 000a 8046     		mov	r8, r0
 1207              		.loc 1 229 0
 1208 000c FFF7FEFF 		bl	mpi_grow
 1209              	.LVL127:
 1210 0010 98BB     		cbnz	r0, .L136
 1211              		.loc 1 227 0
 1212 0012 6B42     		negs	r3, r5
 1213 0014 45EA0302 		orr	r2, r5, r3
 1214              		.loc 1 231 0
 1215 0018 2568     		ldr	r5, [r4]
 1216              	.LVL128:
 1217 001a D8F80010 		ldr	r1, [r8]
 1218              		.loc 1 233 0
 1219 001e 6368     		ldr	r3, [r4, #4]
 1220              		.loc 1 227 0
 1221 0020 C2F3C012 		ubfx	r2, r2, #7, #1
 1222              		.loc 1 231 0
 1223 0024 C2F10107 		rsb	r7, r2, #1
 1224 0028 05FB02F5 		mul	r5, r5, r2
 1225 002c 01FB0751 		mla	r1, r1, r7, r5
 1226 0030 C8F80010 		str	r1, [r8]
 1227              	.LVL129:
 1228              		.loc 1 233 0
 1229 0034 83B1     		cbz	r3, .L131
 1230 0036 A668     		ldr	r6, [r4, #8]
 1231 0038 D8F80850 		ldr	r5, [r8, #8]
 1232 003c 06EB830E 		add	lr, r6, r3, lsl #2
 1233 0040 043D     		subs	r5, r5, #4
 1234              	.LVL130:
 1235              	.L132:
 1236              		.loc 1 234 0 discriminator 3
 1237 0042 55F8041F 		ldr	r1, [r5, #4]!
 1238 0046 56F8044B 		ldr	r4, [r6], #4
ARM GAS  C:\Users\jo\AppData\Local\Temp\cc0IQHDm.s 			page 23


 1239 004a 01FB07F1 		mul	r1, r1, r7
 1240 004e 02FB0411 		mla	r1, r2, r4, r1
 1241              		.loc 1 233 0 discriminator 3
 1242 0052 7645     		cmp	r6, lr
 1243              		.loc 1 234 0 discriminator 3
 1244 0054 2960     		str	r1, [r5]
 1245              		.loc 1 233 0 discriminator 3
 1246 0056 F4D1     		bne	.L132
 1247              	.L131:
 1248              	.LVL131:
 1249              		.loc 1 236 0 discriminator 1
 1250 0058 D8F80410 		ldr	r1, [r8, #4]
 1251 005c 8B42     		cmp	r3, r1
 1252 005e 0CD2     		bcs	.L136
 1253 0060 D8F80820 		ldr	r2, [r8, #8]
 1254 0064 02EB8303 		add	r3, r2, r3, lsl #2
 1255              	.LVL132:
 1256 0068 02EB8101 		add	r1, r2, r1, lsl #2
 1257              	.LVL133:
 1258              	.L134:
 1259              		.loc 1 237 0 discriminator 2
 1260 006c 1A68     		ldr	r2, [r3]
 1261 006e 07FB02F2 		mul	r2, r7, r2
 1262 0072 43F8042B 		str	r2, [r3], #4
 1263              		.loc 1 236 0 discriminator 2
 1264 0076 8B42     		cmp	r3, r1
 1265 0078 F8D1     		bne	.L134
 1266              	.L136:
 1267              		.loc 1 241 0
 1268 007a BDE8F081 		pop	{r4, r5, r6, r7, r8, pc}
 1269              		.cfi_endproc
 1270              	.LFE7:
 1271              		.size	mpi_safe_cond_assign, .-mpi_safe_cond_assign
 1272 007e 00BF     		.section	.text.mpi_safe_cond_swap,"ax",%progbits
 1273              		.align	2
 1274              		.p2align 4,,15
 1275              		.global	mpi_safe_cond_swap
 1276              		.thumb
 1277              		.thumb_func
 1278              		.type	mpi_safe_cond_swap, %function
 1279              	mpi_safe_cond_swap:
 1280              	.LFB8:
 1281              		.loc 1 250 0
 1282              		.cfi_startproc
 1283              		@ args = 0, pretend = 0, frame = 0
 1284              		@ frame_needed = 0, uses_anonymous_args = 0
 1285              	.LVL134:
 1286              		.loc 1 255 0
 1287 0000 8842     		cmp	r0, r1
 1288              		.loc 1 250 0
 1289 0002 F8B5     		push	{r3, r4, r5, r6, r7, lr}
 1290              		.cfi_def_cfa_offset 24
 1291              		.cfi_offset 3, -24
 1292              		.cfi_offset 4, -20
 1293              		.cfi_offset 5, -16
 1294              		.cfi_offset 6, -12
 1295              		.cfi_offset 7, -8
ARM GAS  C:\Users\jo\AppData\Local\Temp\cc0IQHDm.s 			page 24


 1296              		.cfi_offset 14, -4
 1297              		.loc 1 255 0
 1298 0004 38D0     		beq	.L145
 1299 0006 0D46     		mov	r5, r1
 1300              		.loc 1 261 0
 1301 0008 4968     		ldr	r1, [r1, #4]
 1302              	.LVL135:
 1303 000a 1446     		mov	r4, r2
 1304              	.LVL136:
 1305 000c 0646     		mov	r6, r0
 1306 000e FFF7FEFF 		bl	mpi_grow
 1307              	.LVL137:
 1308 0012 00B1     		cbz	r0, .L154
 1309              	.L144:
 1310              		.loc 1 278 0
 1311 0014 F8BD     		pop	{r3, r4, r5, r6, r7, pc}
 1312              	.LVL138:
 1313              	.L154:
 1314              		.loc 1 262 0
 1315 0016 2846     		mov	r0, r5
 1316              	.LVL139:
 1317 0018 7168     		ldr	r1, [r6, #4]
 1318 001a FFF7FEFF 		bl	mpi_grow
 1319              	.LVL140:
 1320 001e 0028     		cmp	r0, #0
 1321 0020 F8D1     		bne	.L144
 1322              		.loc 1 259 0
 1323 0022 6242     		negs	r2, r4
 1324              		.loc 1 269 0
 1325 0024 96E80900 		ldmia	r6, {r0, r3}
 1326              	.LVL141:
 1327              		.loc 1 265 0
 1328 0028 2968     		ldr	r1, [r5]
 1329              		.loc 1 259 0
 1330 002a 1443     		orrs	r4, r4, r2
 1331              	.LVL142:
 1332 002c C4F3C014 		ubfx	r4, r4, #7, #1
 1333              		.loc 1 265 0
 1334 0030 C4F10107 		rsb	r7, r4, #1
 1335 0034 01FB04F1 		mul	r1, r1, r4
 1336 0038 07FB0011 		mla	r1, r7, r0, r1
 1337 003c 3160     		str	r1, [r6]
 1338              		.loc 1 266 0
 1339 003e 2A68     		ldr	r2, [r5]
 1340 0040 04FB00F0 		mul	r0, r4, r0
 1341 0044 02FB0700 		mla	r0, r2, r7, r0
 1342 0048 2860     		str	r0, [r5]
 1343              	.LVL143:
 1344              		.loc 1 269 0
 1345 004a ABB1     		cbz	r3, .L145
 1346 004c A968     		ldr	r1, [r5, #8]
 1347 004e B068     		ldr	r0, [r6, #8]
 1348 0050 0439     		subs	r1, r1, #4
 1349 0052 00EB8305 		add	r5, r0, r3, lsl #2
 1350              	.LVL144:
 1351              	.L146:
 1352              		.loc 1 272 0 discriminator 3
ARM GAS  C:\Users\jo\AppData\Local\Temp\cc0IQHDm.s 			page 25


 1353 0056 51F8043F 		ldr	r3, [r1, #4]!
 1354              		.loc 1 271 0 discriminator 3
 1355 005a 0268     		ldr	r2, [r0]
 1356              	.LVL145:
 1357              		.loc 1 272 0 discriminator 3
 1358 005c 03FB04F3 		mul	r3, r3, r4
 1359 0060 07FB0233 		mla	r3, r7, r2, r3
 1360 0064 40F8043B 		str	r3, [r0], #4
 1361              		.loc 1 273 0 discriminator 3
 1362 0068 0B68     		ldr	r3, [r1]
 1363 006a 03FB07F3 		mul	r3, r3, r7
 1364 006e 04FB0232 		mla	r2, r4, r2, r3
 1365              	.LVL146:
 1366              		.loc 1 269 0 discriminator 3
 1367 0072 A842     		cmp	r0, r5
 1368              		.loc 1 273 0 discriminator 3
 1369 0074 0A60     		str	r2, [r1]
 1370              		.loc 1 269 0 discriminator 3
 1371 0076 EED1     		bne	.L146
 1372              	.LVL147:
 1373              	.L145:
 1374              		.loc 1 256 0
 1375 0078 0020     		movs	r0, #0
 1376 007a F8BD     		pop	{r3, r4, r5, r6, r7, pc}
 1377              		.cfi_endproc
 1378              	.LFE8:
 1379              		.size	mpi_safe_cond_swap, .-mpi_safe_cond_swap
 1380 007c AFF30080 		.section	.text.mpi_lset,"ax",%progbits
 1381              		.align	2
 1382              		.p2align 4,,15
 1383              		.global	mpi_lset
 1384              		.thumb
 1385              		.thumb_func
 1386              		.type	mpi_lset, %function
 1387              	mpi_lset:
 1388              	.LFB9:
 1389              		.loc 1 284 0
 1390              		.cfi_startproc
 1391              		@ args = 0, pretend = 0, frame = 0
 1392              		@ frame_needed = 0, uses_anonymous_args = 0
 1393              	.LVL148:
 1394 0000 70B5     		push	{r4, r5, r6, lr}
 1395              		.cfi_def_cfa_offset 16
 1396              		.cfi_offset 4, -16
 1397              		.cfi_offset 5, -12
 1398              		.cfi_offset 6, -8
 1399              		.cfi_offset 14, -4
 1400              		.loc 1 284 0
 1401 0002 0E46     		mov	r6, r1
 1402              		.loc 1 287 0
 1403 0004 0121     		movs	r1, #1
 1404              	.LVL149:
 1405              		.loc 1 284 0
 1406 0006 0546     		mov	r5, r0
 1407              		.loc 1 287 0
 1408 0008 FFF7FEFF 		bl	mpi_grow
 1409              	.LVL150:
ARM GAS  C:\Users\jo\AppData\Local\Temp\cc0IQHDm.s 			page 26


 1410 000c 0446     		mov	r4, r0
 1411 000e 88B9     		cbnz	r0, .L156
 1412              	.LVL151:
 1413              	.LBB110:
 1414              	.LBB111:
 1415              		.loc 1 288 0
 1416 0010 6A68     		ldr	r2, [r5, #4]
 1417 0012 A868     		ldr	r0, [r5, #8]
 1418              	.LVL152:
 1419 0014 9200     		lsls	r2, r2, #2
 1420 0016 2146     		mov	r1, r4
 1421 0018 FFF7FEFF 		bl	memset
 1422              	.LVL153:
 1423              		.loc 1 291 0
 1424 001c 002E     		cmp	r6, #0
 1425              		.loc 1 290 0
 1426 001e 86EAE671 		eor	r1, r6, r6, asr #31
 1427 0022 AA68     		ldr	r2, [r5, #8]
 1428 0024 A1EBE671 		sub	r1, r1, r6, asr #31
 1429              		.loc 1 291 0
 1430 0028 B4BF     		ite	lt
 1431 002a 4FF0FF33 		movlt	r3, #-1
 1432 002e 0123     		movge	r3, #1
 1433              		.loc 1 290 0
 1434 0030 1160     		str	r1, [r2]
 1435              		.loc 1 291 0
 1436 0032 2B60     		str	r3, [r5]
 1437              	.LVL154:
 1438              	.L156:
 1439              	.LBE111:
 1440              	.LBE110:
 1441              		.loc 1 296 0
 1442 0034 2046     		mov	r0, r4
 1443 0036 70BD     		pop	{r4, r5, r6, pc}
 1444              		.cfi_endproc
 1445              	.LFE9:
 1446              		.size	mpi_lset, .-mpi_lset
 1447 0038 AFF30080 		.section	.text.mpi_get_bit,"ax",%progbits
 1447      AFF30080 
 1448              		.align	2
 1449              		.p2align 4,,15
 1450              		.global	mpi_get_bit
 1451              		.thumb
 1452              		.thumb_func
 1453              		.type	mpi_get_bit, %function
 1454              	mpi_get_bit:
 1455              	.LFB10:
 1456              		.loc 1 302 0
 1457              		.cfi_startproc
 1458              		@ args = 0, pretend = 0, frame = 0
 1459              		@ frame_needed = 0, uses_anonymous_args = 0
 1460              		@ link register save eliminated.
 1461              	.LVL155:
 1462              		.loc 1 303 0
 1463 0000 4368     		ldr	r3, [r0, #4]
 1464 0002 B1EB431F 		cmp	r1, r3, lsl #5
 1465 0006 09D2     		bcs	.L162
ARM GAS  C:\Users\jo\AppData\Local\Temp\cc0IQHDm.s 			page 27


 1466              		.loc 1 306 0
 1467 0008 4A09     		lsrs	r2, r1, #5
 1468 000a 8368     		ldr	r3, [r0, #8]
 1469 000c 53F82200 		ldr	r0, [r3, r2, lsl #2]
 1470              	.LVL156:
 1471 0010 01F01F01 		and	r1, r1, #31
 1472              	.LVL157:
 1473 0014 C840     		lsrs	r0, r0, r1
 1474 0016 00F00100 		and	r0, r0, #1
 1475 001a 7047     		bx	lr
 1476              	.LVL158:
 1477              	.L162:
 1478              		.loc 1 304 0
 1479 001c 0020     		movs	r0, #0
 1480              	.LVL159:
 1481              		.loc 1 307 0
 1482 001e 7047     		bx	lr
 1483              		.cfi_endproc
 1484              	.LFE10:
 1485              		.size	mpi_get_bit, .-mpi_get_bit
 1486              		.section	.text.mpi_set_bit,"ax",%progbits
 1487              		.align	2
 1488              		.p2align 4,,15
 1489              		.global	mpi_set_bit
 1490              		.thumb
 1491              		.thumb_func
 1492              		.type	mpi_set_bit, %function
 1493              	mpi_set_bit:
 1494              	.LFB11:
 1495              		.loc 1 313 0
 1496              		.cfi_startproc
 1497              		@ args = 0, pretend = 0, frame = 0
 1498              		@ frame_needed = 0, uses_anonymous_args = 0
 1499              	.LVL160:
 1500              		.loc 1 318 0
 1501 0000 012A     		cmp	r2, #1
 1502              		.loc 1 313 0
 1503 0002 F8B5     		push	{r3, r4, r5, r6, r7, lr}
 1504              		.cfi_def_cfa_offset 24
 1505              		.cfi_offset 3, -24
 1506              		.cfi_offset 4, -20
 1507              		.cfi_offset 5, -16
 1508              		.cfi_offset 6, -12
 1509              		.cfi_offset 7, -8
 1510              		.cfi_offset 14, -4
 1511              		.loc 1 315 0
 1512 0004 4FEA5117 		lsr	r7, r1, #5
 1513              	.LVL161:
 1514              		.loc 1 318 0
 1515 0008 1ED8     		bhi	.L167
 1516              		.loc 1 321 0
 1517 000a 4368     		ldr	r3, [r0, #4]
 1518 000c B1EB431F 		cmp	r1, r3, lsl #5
 1519 0010 0546     		mov	r5, r0
 1520 0012 1646     		mov	r6, r2
 1521 0014 0C46     		mov	r4, r1
 1522 0016 0FD2     		bcs	.L165
ARM GAS  C:\Users\jo\AppData\Local\Temp\cc0IQHDm.s 			page 28


 1523              	.LVL162:
 1524              	.L166:
 1525              		.loc 1 329 0
 1526 0018 AD68     		ldr	r5, [r5, #8]
 1527              	.LVL163:
 1528              		.loc 1 316 0
 1529 001a 04F01F01 		and	r1, r4, #31
 1530              		.loc 1 329 0
 1531 001e 55F82730 		ldr	r3, [r5, r7, lsl #2]
 1532 0022 0122     		movs	r2, #1
 1533 0024 8A40     		lsls	r2, r2, r1
 1534              		.loc 1 330 0
 1535 0026 06FA01F0 		lsl	r0, r6, r1
 1536              		.loc 1 329 0
 1537 002a 23EA0202 		bic	r2, r3, r2
 1538              		.loc 1 330 0
 1539 002e 0243     		orrs	r2, r2, r0
 1540 0030 45F82720 		str	r2, [r5, r7, lsl #2]
 1541              	.L173:
 1542 0034 0020     		movs	r0, #0
 1543 0036 F8BD     		pop	{r3, r4, r5, r6, r7, pc}
 1544              	.LVL164:
 1545              	.L165:
 1546              		.loc 1 323 0
 1547 0038 002A     		cmp	r2, #0
 1548 003a FBD0     		beq	.L173
 1549              		.loc 1 326 0
 1550 003c 791C     		adds	r1, r7, #1
 1551              	.LVL165:
 1552 003e FFF7FEFF 		bl	mpi_grow
 1553              	.LVL166:
 1554 0042 0028     		cmp	r0, #0
 1555 0044 E8D0     		beq	.L166
 1556 0046 F8BD     		pop	{r3, r4, r5, r6, r7, pc}
 1557              	.LVL167:
 1558              	.L167:
 1559              		.loc 1 319 0
 1560 0048 6FF00300 		mvn	r0, #3
 1561              	.LVL168:
 1562 004c F8BD     		pop	{r3, r4, r5, r6, r7, pc}
 1563              		.cfi_endproc
 1564              	.LFE11:
 1565              		.size	mpi_set_bit, .-mpi_set_bit
 1566 004e 00BF     		.section	.text.mpi_lsb,"ax",%progbits
 1567              		.align	2
 1568              		.p2align 4,,15
 1569              		.global	mpi_lsb
 1570              		.thumb
 1571              		.thumb_func
 1572              		.type	mpi_lsb, %function
 1573              	mpi_lsb:
 1574              	.LFB12:
 1575              		.loc 1 341 0
 1576              		.cfi_startproc
 1577              		@ args = 0, pretend = 0, frame = 0
 1578              		@ frame_needed = 0, uses_anonymous_args = 0
 1579              		@ link register save eliminated.
ARM GAS  C:\Users\jo\AppData\Local\Temp\cc0IQHDm.s 			page 29


 1580              	.LVL169:
 1581 0000 0346     		mov	r3, r0
 1582              		.loc 1 344 0
 1583 0002 4068     		ldr	r0, [r0, #4]
 1584              	.LVL170:
 1585 0004 A8B1     		cbz	r0, .L186
 1586              		.loc 1 341 0
 1587 0006 F0B4     		push	{r4, r5, r6, r7}
 1588              		.cfi_def_cfa_offset 16
 1589              		.cfi_offset 4, -16
 1590              		.cfi_offset 5, -12
 1591              		.cfi_offset 6, -8
 1592              		.cfi_offset 7, -4
 1593 0008 9E68     		ldr	r6, [r3, #8]
 1594              		.loc 1 344 0
 1595 000a 0027     		movs	r7, #0
 1596 000c 043E     		subs	r6, r6, #4
 1597 000e 3946     		mov	r1, r7
 1598              	.LVL171:
 1599              	.L176:
 1600 0010 56F8044F 		ldr	r4, [r6, #4]!
 1601 0014 01F12005 		add	r5, r1, #32
 1602              		.loc 1 341 0 discriminator 1
 1603 0018 0B46     		mov	r3, r1
 1604 001a 02E0     		b	.L177
 1605              	.LVL172:
 1606              	.L188:
 1607              		.loc 1 345 0 discriminator 2
 1608 001c 0133     		adds	r3, r3, #1
 1609              	.LVL173:
 1610 001e AB42     		cmp	r3, r5
 1611 0020 08D0     		beq	.L187
 1612              	.L177:
 1613 0022 5A1A     		subs	r2, r3, r1
 1614              		.loc 1 346 0
 1615 0024 24FA02F2 		lsr	r2, r4, r2
 1616 0028 12F00102 		ands	r2, r2, #1
 1617 002c F6D0     		beq	.L188
 1618              		.loc 1 347 0
 1619 002e 1846     		mov	r0, r3
 1620              	.L175:
 1621              		.loc 1 350 0
 1622 0030 F0BC     		pop	{r4, r5, r6, r7}
 1623              		.cfi_restore 7
 1624              		.cfi_restore 6
 1625              		.cfi_restore 5
 1626              		.cfi_restore 4
 1627              		.cfi_def_cfa_offset 0
 1628              	.LVL174:
 1629              	.LVL175:
 1630              	.L186:
 1631 0032 7047     		bx	lr
 1632              	.LVL176:
 1633              	.L187:
 1634              		.cfi_def_cfa_offset 16
 1635              		.cfi_offset 4, -16
 1636              		.cfi_offset 5, -12
ARM GAS  C:\Users\jo\AppData\Local\Temp\cc0IQHDm.s 			page 30


 1637              		.cfi_offset 6, -8
 1638              		.cfi_offset 7, -4
 1639              		.loc 1 344 0 discriminator 2
 1640 0034 0137     		adds	r7, r7, #1
 1641              	.LVL177:
 1642 0036 8742     		cmp	r7, r0
 1643 0038 1946     		mov	r1, r3
 1644 003a E9D1     		bne	.L176
 1645              	.LVL178:
 1646              		.loc 1 349 0
 1647 003c 1046     		mov	r0, r2
 1648 003e F7E7     		b	.L175
 1649              		.cfi_endproc
 1650              	.LFE12:
 1651              		.size	mpi_lsb, .-mpi_lsb
 1652              		.section	.text.mpi_msb,"ax",%progbits
 1653              		.align	2
 1654              		.p2align 4,,15
 1655              		.global	mpi_msb
 1656              		.thumb
 1657              		.thumb_func
 1658              		.type	mpi_msb, %function
 1659              	mpi_msb:
 1660              	.LFB13:
 1661              		.loc 1 356 0
 1662              		.cfi_startproc
 1663              		@ args = 0, pretend = 0, frame = 0
 1664              		@ frame_needed = 0, uses_anonymous_args = 0
 1665              		@ link register save eliminated.
 1666              	.LVL179:
 1667              		.loc 1 359 0
 1668 0000 4368     		ldr	r3, [r0, #4]
 1669              		.loc 1 356 0
 1670 0002 10B4     		push	{r4}
 1671              		.cfi_def_cfa_offset 4
 1672              		.cfi_offset 4, -4
 1673              		.loc 1 359 0
 1674 0004 CBB1     		cbz	r3, .L190
 1675              	.LVL180:
 1676              		.loc 1 362 0
 1677 0006 013B     		subs	r3, r3, #1
 1678              	.LVL181:
 1679              		.loc 1 363 0
 1680 0008 8068     		ldr	r0, [r0, #8]
 1681              	.LVL182:
 1682              		.loc 1 362 0
 1683 000a 0AD0     		beq	.L191
 1684              		.loc 1 363 0
 1685 000c 50F82310 		ldr	r1, [r0, r3, lsl #2]
 1686 0010 9A00     		lsls	r2, r3, #2
 1687 0012 B1B9     		cbnz	r1, .L210
 1688 0014 0244     		add	r2, r2, r0
 1689 0016 02E0     		b	.L193
 1690              	.L195:
 1691 0018 52F8041D 		ldr	r1, [r2, #-4]!
 1692 001c 89B9     		cbnz	r1, .L210
 1693              	.L193:
ARM GAS  C:\Users\jo\AppData\Local\Temp\cc0IQHDm.s 			page 31


 1694              	.LVL183:
 1695              		.loc 1 362 0 discriminator 2
 1696 001e 013B     		subs	r3, r3, #1
 1697              	.LVL184:
 1698 0020 FAD1     		bne	.L195
 1699              	.L191:
 1700 0022 0168     		ldr	r1, [r0]
 1701              		.loc 1 356 0
 1702 0024 0023     		movs	r3, #0
 1703              	.LVL185:
 1704              	.L194:
 1705              		.loc 1 356 0 is_stmt 0 discriminator 1
 1706 0026 2020     		movs	r0, #32
 1707 0028 01E0     		b	.L198
 1708              	.LVL186:
 1709              	.L208:
 1710              		.loc 1 366 0 is_stmt 1 discriminator 1
 1711 002a 1046     		mov	r0, r2
 1712 002c 22B1     		cbz	r2, .L196
 1713              	.LVL187:
 1714              	.L198:
 1715              		.loc 1 367 0
 1716 002e 421E     		subs	r2, r0, #1
 1717              	.LVL188:
 1718 0030 21FA02F4 		lsr	r4, r1, r2
 1719 0034 E407     		lsls	r4, r4, #31
 1720 0036 F8D5     		bpl	.L208
 1721              	.L196:
 1722              		.loc 1 370 0
 1723 0038 0344     		add	r3, r3, r0
 1724              	.LVL189:
 1725              	.L190:
 1726              		.loc 1 371 0
 1727 003a 1846     		mov	r0, r3
 1728 003c 5DF8044B 		ldr	r4, [sp], #4
 1729              		.cfi_remember_state
 1730              		.cfi_restore 4
 1731              		.cfi_def_cfa_offset 0
 1732 0040 7047     		bx	lr
 1733              	.LVL190:
 1734              	.L210:
 1735              		.cfi_restore_state
 1736 0042 5B01     		lsls	r3, r3, #5
 1737              	.LVL191:
 1738 0044 EFE7     		b	.L194
 1739              		.cfi_endproc
 1740              	.LFE13:
 1741              		.size	mpi_msb, .-mpi_msb
 1742 0046 00BFAFF3 		.section	.text.mpi_size,"ax",%progbits
 1742      0080AFF3 
 1742      0080
 1743              		.align	2
 1744              		.p2align 4,,15
 1745              		.global	mpi_size
 1746              		.thumb
 1747              		.thumb_func
 1748              		.type	mpi_size, %function
ARM GAS  C:\Users\jo\AppData\Local\Temp\cc0IQHDm.s 			page 32


 1749              	mpi_size:
 1750              	.LFB14:
 1751              		.loc 1 377 0
 1752              		.cfi_startproc
 1753              		@ args = 0, pretend = 0, frame = 0
 1754              		@ frame_needed = 0, uses_anonymous_args = 0
 1755              	.LVL192:
 1756 0000 08B5     		push	{r3, lr}
 1757              		.cfi_def_cfa_offset 8
 1758              		.cfi_offset 3, -8
 1759              		.cfi_offset 14, -4
 1760              		.loc 1 378 0
 1761 0002 FFF7FEFF 		bl	mpi_msb
 1762              	.LVL193:
 1763 0006 0730     		adds	r0, r0, #7
 1764              		.loc 1 379 0
 1765 0008 C008     		lsrs	r0, r0, #3
 1766 000a 08BD     		pop	{r3, pc}
 1767              		.cfi_endproc
 1768              	.LFE14:
 1769              		.size	mpi_size, .-mpi_size
 1770 000c AFF30080 		.section	.text.mpi_read_binary,"ax",%progbits
 1771              		.align	2
 1772              		.p2align 4,,15
 1773              		.global	mpi_read_binary
 1774              		.thumb
 1775              		.thumb_func
 1776              		.type	mpi_read_binary, %function
 1777              	mpi_read_binary:
 1778              	.LFB21:
 1779              		.loc 1 643 0
 1780              		.cfi_startproc
 1781              		@ args = 0, pretend = 0, frame = 0
 1782              		@ frame_needed = 0, uses_anonymous_args = 0
 1783              	.LVL194:
 1784 0000 F8B5     		push	{r3, r4, r5, r6, r7, lr}
 1785              		.cfi_def_cfa_offset 24
 1786              		.cfi_offset 3, -24
 1787              		.cfi_offset 4, -20
 1788              		.cfi_offset 5, -16
 1789              		.cfi_offset 6, -12
 1790              		.cfi_offset 7, -8
 1791              		.cfi_offset 14, -4
 1792              		.loc 1 643 0
 1793 0002 0746     		mov	r7, r0
 1794              	.LVL195:
 1795 0004 0E46     		mov	r6, r1
 1796              		.loc 1 647 0
 1797 0006 1546     		mov	r5, r2
 1798 0008 6AB3     		cbz	r2, .L221
 1799              		.loc 1 648 0
 1800 000a 0C78     		ldrb	r4, [r1]	@ zero_extendqisi2
 1801 000c 6CBB     		cbnz	r4, .L222
 1802 000e 0B46     		mov	r3, r1
 1803 0010 02E0     		b	.L215
 1804              	.LVL196:
 1805              	.L216:
ARM GAS  C:\Users\jo\AppData\Local\Temp\cc0IQHDm.s 			page 33


 1806 0012 13F8011F 		ldrb	r1, [r3, #1]!	@ zero_extendqisi2
 1807 0016 11B9     		cbnz	r1, .L214
 1808              	.LVL197:
 1809              	.L215:
 1810              		.loc 1 647 0 discriminator 2
 1811 0018 0134     		adds	r4, r4, #1
 1812              	.LVL198:
 1813 001a AC42     		cmp	r4, r5
 1814 001c F9D1     		bne	.L216
 1815              	.LVL199:
 1816              	.L214:
 1817 001e E91C     		adds	r1, r5, #3
 1818              		.loc 1 651 0
 1819 0020 091B     		subs	r1, r1, r4
 1820 0022 8908     		lsrs	r1, r1, #2
 1821 0024 3846     		mov	r0, r7
 1822              	.LVL200:
 1823 0026 FFF7FEFF 		bl	mpi_grow
 1824              	.LVL201:
 1825 002a 00B1     		cbz	r0, .L225
 1826              	.L217:
 1827              		.loc 1 660 0
 1828 002c F8BD     		pop	{r3, r4, r5, r6, r7, pc}
 1829              	.LVL202:
 1830              	.L225:
 1831              		.loc 1 652 0
 1832 002e 0146     		mov	r1, r0
 1833 0030 3846     		mov	r0, r7
 1834              	.LVL203:
 1835 0032 FFF7FEFF 		bl	mpi_lset
 1836              	.LVL204:
 1837 0036 0028     		cmp	r0, #0
 1838 0038 F8D1     		bne	.L217
 1839              	.LVL205:
 1840              		.loc 1 654 0 discriminator 1
 1841 003a A542     		cmp	r5, r4
 1842 003c F6D9     		bls	.L217
 1843 003e BF68     		ldr	r7, [r7, #8]
 1844              	.LVL206:
 1845 0040 2E44     		add	r6, r6, r5
 1846              	.LVL207:
 1847 0042 2C1B     		subs	r4, r5, r4
 1848              		.loc 1 654 0 is_stmt 0
 1849 0044 0246     		mov	r2, r0
 1850              	.LVL208:
 1851              	.L219:
 1852              		.loc 1 655 0 is_stmt 1 discriminator 3
 1853 0046 9108     		lsrs	r1, r2, #2
 1854 0048 02F00305 		and	r5, r2, #3
 1855 004c 16F8013D 		ldrb	r3, [r6, #-1]!	@ zero_extendqisi2
 1856              	.LVL209:
 1857 0050 ED00     		lsls	r5, r5, #3
 1858 0052 AB40     		lsls	r3, r3, r5
 1859 0054 57F82150 		ldr	r5, [r7, r1, lsl #2]
 1860              		.loc 1 654 0 discriminator 3
 1861 0058 0132     		adds	r2, r2, #1
 1862              	.LVL210:
ARM GAS  C:\Users\jo\AppData\Local\Temp\cc0IQHDm.s 			page 34


 1863              		.loc 1 655 0 discriminator 3
 1864 005a 2B43     		orrs	r3, r3, r5
 1865              		.loc 1 654 0 discriminator 3
 1866 005c A242     		cmp	r2, r4
 1867              		.loc 1 655 0 discriminator 3
 1868 005e 47F82130 		str	r3, [r7, r1, lsl #2]
 1869              	.LVL211:
 1870              		.loc 1 654 0 discriminator 3
 1871 0062 F0D1     		bne	.L219
 1872              		.loc 1 660 0
 1873 0064 F8BD     		pop	{r3, r4, r5, r6, r7, pc}
 1874              	.LVL212:
 1875              	.L221:
 1876              		.loc 1 647 0
 1877 0066 1446     		mov	r4, r2
 1878 0068 D9E7     		b	.L214
 1879              	.L222:
 1880 006a 0024     		movs	r4, #0
 1881 006c D7E7     		b	.L214
 1882              		.cfi_endproc
 1883              	.LFE21:
 1884              		.size	mpi_read_binary, .-mpi_read_binary
 1885 006e 00BF     		.section	.text.mpi_write_binary,"ax",%progbits
 1886              		.align	2
 1887              		.p2align 4,,15
 1888              		.global	mpi_write_binary
 1889              		.thumb
 1890              		.thumb_func
 1891              		.type	mpi_write_binary, %function
 1892              	mpi_write_binary:
 1893              	.LFB22:
 1894              		.loc 1 666 0
 1895              		.cfi_startproc
 1896              		@ args = 0, pretend = 0, frame = 0
 1897              		@ frame_needed = 0, uses_anonymous_args = 0
 1898              	.LVL213:
 1899 0000 F8B5     		push	{r3, r4, r5, r6, r7, lr}
 1900              		.cfi_def_cfa_offset 24
 1901              		.cfi_offset 3, -24
 1902              		.cfi_offset 4, -20
 1903              		.cfi_offset 5, -16
 1904              		.cfi_offset 6, -12
 1905              		.cfi_offset 7, -8
 1906              		.cfi_offset 14, -4
 1907              		.loc 1 666 0
 1908 0002 1446     		mov	r4, r2
 1909 0004 0D46     		mov	r5, r1
 1910 0006 0746     		mov	r7, r0
 1911              	.LVL214:
 1912              	.LBB112:
 1913              	.LBB113:
 1914              		.loc 1 378 0
 1915 0008 FFF7FEFF 		bl	mpi_msb
 1916              	.LVL215:
 1917 000c 0730     		adds	r0, r0, #7
 1918 000e C608     		lsrs	r6, r0, #3
 1919              	.LBE113:
ARM GAS  C:\Users\jo\AppData\Local\Temp\cc0IQHDm.s 			page 35


 1920              	.LBE112:
 1921              		.loc 1 671 0
 1922 0010 B442     		cmp	r4, r6
 1923 0012 16D3     		bcc	.L231
 1924              		.loc 1 674 0
 1925 0014 2846     		mov	r0, r5
 1926 0016 0021     		movs	r1, #0
 1927 0018 2246     		mov	r2, r4
 1928 001a FFF7FEFF 		bl	memset
 1929              	.LVL216:
 1930              		.loc 1 676 0
 1931 001e 76B1     		cbz	r6, .L230
 1932 0020 2A19     		adds	r2, r5, r4
 1933 0022 0023     		movs	r3, #0
 1934              	.LVL217:
 1935              	.L229:
 1936              		.loc 1 677 0 discriminator 3
 1937 0024 9808     		lsrs	r0, r3, #2
 1938 0026 B968     		ldr	r1, [r7, #8]
 1939 0028 03F00305 		and	r5, r3, #3
 1940 002c 51F82040 		ldr	r4, [r1, r0, lsl #2]
 1941 0030 ED00     		lsls	r5, r5, #3
 1942              		.loc 1 676 0 discriminator 3
 1943 0032 0133     		adds	r3, r3, #1
 1944              	.LVL218:
 1945              		.loc 1 677 0 discriminator 3
 1946 0034 EC40     		lsrs	r4, r4, r5
 1947              		.loc 1 676 0 discriminator 3
 1948 0036 B342     		cmp	r3, r6
 1949              		.loc 1 677 0 discriminator 3
 1950 0038 02F8014D 		strb	r4, [r2, #-1]!
 1951              	.LVL219:
 1952              		.loc 1 676 0 discriminator 3
 1953 003c F2D1     		bne	.L229
 1954              	.LVL220:
 1955              	.L230:
 1956              		.loc 1 679 0
 1957 003e 0020     		movs	r0, #0
 1958 0040 F8BD     		pop	{r3, r4, r5, r6, r7, pc}
 1959              	.LVL221:
 1960              	.L231:
 1961              		.loc 1 672 0
 1962 0042 6FF00700 		mvn	r0, #7
 1963              		.loc 1 680 0
 1964 0046 F8BD     		pop	{r3, r4, r5, r6, r7, pc}
 1965              		.cfi_endproc
 1966              	.LFE22:
 1967              		.size	mpi_write_binary, .-mpi_write_binary
 1968 0048 AFF30080 		.section	.text.mpi_shift_l,"ax",%progbits
 1968      AFF30080 
 1969              		.align	2
 1970              		.p2align 4,,15
 1971              		.global	mpi_shift_l
 1972              		.thumb
 1973              		.thumb_func
 1974              		.type	mpi_shift_l, %function
 1975              	mpi_shift_l:
ARM GAS  C:\Users\jo\AppData\Local\Temp\cc0IQHDm.s 			page 36


 1976              	.LFB23:
 1977              		.loc 1 686 0
 1978              		.cfi_startproc
 1979              		@ args = 0, pretend = 0, frame = 0
 1980              		@ frame_needed = 0, uses_anonymous_args = 0
 1981              	.LVL222:
 1982 0000 F8B5     		push	{r3, r4, r5, r6, r7, lr}
 1983              		.cfi_def_cfa_offset 24
 1984              		.cfi_offset 3, -24
 1985              		.cfi_offset 4, -20
 1986              		.cfi_offset 5, -16
 1987              		.cfi_offset 6, -12
 1988              		.cfi_offset 7, -8
 1989              		.cfi_offset 14, -4
 1990              		.loc 1 686 0
 1991 0002 0D46     		mov	r5, r1
 1992 0004 0646     		mov	r6, r0
 1993              		.loc 1 694 0
 1994 0006 FFF7FEFF 		bl	mpi_msb
 1995              	.LVL223:
 1996              		.loc 1 696 0
 1997 000a 7368     		ldr	r3, [r6, #4]
 1998              		.loc 1 694 0
 1999 000c 2844     		add	r0, r0, r5
 2000              		.loc 1 696 0
 2001 000e B0EB431F 		cmp	r0, r3, lsl #5
 2002              		.loc 1 691 0
 2003 0012 4FEA5514 		lsr	r4, r5, #5
 2004              	.LVL224:
 2005              		.loc 1 692 0
 2006 0016 05F01F05 		and	r5, r5, #31
 2007              	.LVL225:
 2008              		.loc 1 696 0
 2009 001a 34D8     		bhi	.L235
 2010              	.LVL226:
 2011              	.L239:
 2012              		.loc 1 704 0
 2013 001c DCB1     		cbz	r4, .L237
 2014              		.loc 1 706 0
 2015 001e 7368     		ldr	r3, [r6, #4]
 2016              	.LVL227:
 2017 0020 9C42     		cmp	r4, r3
 2018 0022 39D2     		bcs	.L242
 2019 0024 03F18042 		add	r2, r3, #1073741824
 2020 0028 B068     		ldr	r0, [r6, #8]
 2021 002a 013A     		subs	r2, r2, #1
 2022 002c 121B     		subs	r2, r2, r4
 2023 002e 00EB8202 		add	r2, r0, r2, lsl #2
 2024 0032 00EB8303 		add	r3, r0, r3, lsl #2
 2025              	.LVL228:
 2026 0036 00EB8407 		add	r7, r0, r4, lsl #2
 2027              	.LVL229:
 2028              	.L243:
 2029              		.loc 1 707 0 discriminator 3
 2030 003a 52F80419 		ldr	r1, [r2], #-4
 2031 003e 43F8041D 		str	r1, [r3, #-4]!
 2032              		.loc 1 706 0 discriminator 3
ARM GAS  C:\Users\jo\AppData\Local\Temp\cc0IQHDm.s 			page 37


 2033 0042 BB42     		cmp	r3, r7
 2034 0044 F9D1     		bne	.L243
 2035 0046 2346     		mov	r3, r4
 2036              	.L244:
 2037              	.LVL230:
 2038 0048 00EB8303 		add	r3, r0, r3, lsl #2
 2039              	.LVL231:
 2040              		.loc 1 710 0
 2041 004c 0022     		movs	r2, #0
 2042              	.L245:
 2043              		.loc 1 710 0 is_stmt 0 discriminator 2
 2044 004e 43F8042D 		str	r2, [r3, #-4]!
 2045              		.loc 1 709 0 is_stmt 1 discriminator 2
 2046 0052 8342     		cmp	r3, r0
 2047 0054 FBD1     		bne	.L245
 2048              	.L237:
 2049              		.loc 1 716 0
 2050 0056 A5B1     		cbz	r5, .L241
 2051              	.LVL232:
 2052              		.loc 1 718 0 discriminator 1
 2053 0058 7168     		ldr	r1, [r6, #4]
 2054 005a 8C42     		cmp	r4, r1
 2055 005c 11D2     		bcs	.L241
 2056 005e B268     		ldr	r2, [r6, #8]
 2057 0060 C5F12006 		rsb	r6, r5, #32
 2058              	.LVL233:
 2059 0064 02EB8403 		add	r3, r2, r4, lsl #2
 2060 0068 02EB8104 		add	r4, r2, r1, lsl #2
 2061              	.LVL234:
 2062              		.loc 1 718 0 is_stmt 0
 2063 006c 0021     		movs	r1, #0
 2064              	.LVL235:
 2065              	.L246:
 2066              		.loc 1 720 0 is_stmt 1 discriminator 3
 2067 006e 1868     		ldr	r0, [r3]
 2068              	.LVL236:
 2069              		.loc 1 721 0 discriminator 3
 2070 0070 00FA05F2 		lsl	r2, r0, r5
 2071              		.loc 1 722 0 discriminator 3
 2072 0074 0A43     		orrs	r2, r2, r1
 2073 0076 43F8042B 		str	r2, [r3], #4
 2074              	.LVL237:
 2075              		.loc 1 718 0 discriminator 3
 2076 007a A342     		cmp	r3, r4
 2077              		.loc 1 723 0 discriminator 3
 2078 007c 20FA06F1 		lsr	r1, r0, r6
 2079              	.LVL238:
 2080              		.loc 1 718 0 discriminator 3
 2081 0080 F5D1     		bne	.L246
 2082              	.LVL239:
 2083              	.L241:
 2084              		.loc 1 699 0
 2085 0082 0020     		movs	r0, #0
 2086 0084 F8BD     		pop	{r3, r4, r5, r6, r7, pc}
 2087              	.LVL240:
 2088              	.L235:
 2089              		.loc 1 697 0
ARM GAS  C:\Users\jo\AppData\Local\Temp\cc0IQHDm.s 			page 38


 2090 0086 00F11F01 		add	r1, r0, #31
 2091 008a 4909     		lsrs	r1, r1, #5
 2092 008c 3046     		mov	r0, r6
 2093              	.LVL241:
 2094 008e FFF7FEFF 		bl	mpi_grow
 2095              	.LVL242:
 2096 0092 0028     		cmp	r0, #0
 2097 0094 C2D0     		beq	.L239
 2098 0096 F8BD     		pop	{r3, r4, r5, r6, r7, pc}
 2099              	.LVL243:
 2100              	.L242:
 2101              		.loc 1 709 0 discriminator 1
 2102 0098 002B     		cmp	r3, #0
 2103 009a DCD0     		beq	.L237
 2104 009c B068     		ldr	r0, [r6, #8]
 2105 009e D3E7     		b	.L244
 2106              	.L238:
 2107              		.cfi_endproc
 2108              	.LFE23:
 2109              		.size	mpi_shift_l, .-mpi_shift_l
 2110              		.section	.text.mpi_shift_r,"ax",%progbits
 2111              		.align	2
 2112              		.p2align 4,,15
 2113              		.global	mpi_shift_r
 2114              		.thumb
 2115              		.thumb_func
 2116              		.type	mpi_shift_r, %function
 2117              	mpi_shift_r:
 2118              	.LFB24:
 2119              		.loc 1 736 0
 2120              		.cfi_startproc
 2121              		@ args = 0, pretend = 0, frame = 0
 2122              		@ frame_needed = 0, uses_anonymous_args = 0
 2123              		@ link register save eliminated.
 2124              	.LVL244:
 2125              		.loc 1 743 0
 2126 0000 4368     		ldr	r3, [r0, #4]
 2127              		.loc 1 736 0
 2128 0002 F0B4     		push	{r4, r5, r6, r7}
 2129              		.cfi_def_cfa_offset 16
 2130              		.cfi_offset 4, -16
 2131              		.cfi_offset 5, -12
 2132              		.cfi_offset 6, -8
 2133              		.cfi_offset 7, -4
 2134              		.loc 1 740 0
 2135 0004 4E09     		lsrs	r6, r1, #5
 2136              	.LVL245:
 2137              		.loc 1 743 0
 2138 0006 9E42     		cmp	r6, r3
 2139              		.loc 1 741 0
 2140 0008 01F01F01 		and	r1, r1, #31
 2141              	.LVL246:
 2142              		.loc 1 743 0
 2143 000c 31D8     		bhi	.L255
 2144              		.loc 1 743 0 is_stmt 0 discriminator 1
 2145 000e 2FD0     		beq	.L283
 2146              		.loc 1 749 0 is_stmt 1
ARM GAS  C:\Users\jo\AppData\Local\Temp\cc0IQHDm.s 			page 39


 2147 0010 CEB1     		cbz	r6, .L263
 2148              	.LVL247:
 2149              		.loc 1 751 0 discriminator 1
 2150 0012 9A1B     		subs	r2, r3, r6
 2151 0014 0BD0     		beq	.L261
 2152 0016 8568     		ldr	r5, [r0, #8]
 2153 0018 2C46     		mov	r4, r5
 2154 001a 04EB8207 		add	r7, r4, r2, lsl #2
 2155 001e 05EB8605 		add	r5, r5, r6, lsl #2
 2156              	.LVL248:
 2157              	.L262:
 2158              		.loc 1 752 0 discriminator 3
 2159 0022 55F8046B 		ldr	r6, [r5], #4
 2160 0026 44F8046B 		str	r6, [r4], #4
 2161              		.loc 1 751 0 discriminator 3
 2162 002a BC42     		cmp	r4, r7
 2163 002c F9D1     		bne	.L262
 2164              	.L261:
 2165              	.LVL249:
 2166              		.loc 1 754 0 discriminator 1
 2167 002e 9342     		cmp	r3, r2
 2168 0030 09D9     		bls	.L263
 2169              	.LVL250:
 2170              	.L267:
 2171 0032 8468     		ldr	r4, [r0, #8]
 2172              		.loc 1 755 0
 2173 0034 0025     		movs	r5, #0
 2174 0036 04EB8202 		add	r2, r4, r2, lsl #2
 2175 003a 04EB8304 		add	r4, r4, r3, lsl #2
 2176              	.L264:
 2177              		.loc 1 755 0 is_stmt 0 discriminator 2
 2178 003e 42F8045B 		str	r5, [r2], #4
 2179              		.loc 1 754 0 is_stmt 1 discriminator 2
 2180 0042 A242     		cmp	r2, r4
 2181 0044 FBD1     		bne	.L264
 2182              	.L263:
 2183              		.loc 1 761 0
 2184 0046 81B1     		cbz	r1, .L275
 2185              	.LVL251:
 2186              		.loc 1 763 0 discriminator 1
 2187 0048 7BB1     		cbz	r3, .L275
 2188 004a 8568     		ldr	r5, [r0, #8]
 2189 004c C1F12006 		rsb	r6, r1, #32
 2190 0050 05EB8303 		add	r3, r5, r3, lsl #2
 2191              	.LVL252:
 2192              		.loc 1 763 0 is_stmt 0
 2193 0054 0024     		movs	r4, #0
 2194              	.LVL253:
 2195              	.L266:
 2196              		.loc 1 765 0 is_stmt 1 discriminator 3
 2197 0056 53F8040D 		ldr	r0, [r3, #-4]!
 2198              	.LVL254:
 2199              		.loc 1 766 0 discriminator 3
 2200 005a 20FA01F2 		lsr	r2, r0, r1
 2201              		.loc 1 767 0 discriminator 3
 2202 005e 2243     		orrs	r2, r2, r4
 2203              		.loc 1 763 0 discriminator 3
ARM GAS  C:\Users\jo\AppData\Local\Temp\cc0IQHDm.s 			page 40


 2204 0060 AB42     		cmp	r3, r5
 2205              		.loc 1 767 0 discriminator 3
 2206 0062 1A60     		str	r2, [r3]
 2207              	.LVL255:
 2208              		.loc 1 768 0 discriminator 3
 2209 0064 00FA06F4 		lsl	r4, r0, r6
 2210              	.LVL256:
 2211              		.loc 1 763 0 discriminator 3
 2212 0068 F5D1     		bne	.L266
 2213              	.LVL257:
 2214              	.L275:
 2215              		.loc 1 773 0
 2216 006a 0020     		movs	r0, #0
 2217 006c F0BC     		pop	{r4, r5, r6, r7}
 2218              		.cfi_remember_state
 2219              		.cfi_restore 7
 2220              		.cfi_restore 6
 2221              		.cfi_restore 5
 2222              		.cfi_restore 4
 2223              		.cfi_def_cfa_offset 0
 2224 006e 7047     		bx	lr
 2225              	.LVL258:
 2226              	.L283:
 2227              		.cfi_restore_state
 2228              		.loc 1 743 0 discriminator 2
 2229 0070 19B1     		cbz	r1, .L257
 2230              	.L255:
 2231              		.loc 1 744 0
 2232 0072 0021     		movs	r1, #0
 2233              	.LVL259:
 2234              		.loc 1 773 0
 2235 0074 F0BC     		pop	{r4, r5, r6, r7}
 2236              		.cfi_remember_state
 2237              		.cfi_restore 7
 2238              		.cfi_restore 6
 2239              		.cfi_restore 5
 2240              		.cfi_restore 4
 2241              		.cfi_def_cfa_offset 0
 2242              	.LVL260:
 2243              		.loc 1 744 0
 2244 0076 FFF7FEBF 		b	mpi_lset
 2245              	.LVL261:
 2246              	.L257:
 2247              		.cfi_restore_state
 2248              		.loc 1 749 0
 2249 007a 002B     		cmp	r3, #0
 2250 007c F5D0     		beq	.L275
 2251              	.LVL262:
 2252              		.loc 1 754 0
 2253 007e 0A46     		mov	r2, r1
 2254 0080 D7E7     		b	.L267
 2255              		.cfi_endproc
 2256              	.LFE24:
 2257              		.size	mpi_shift_r, .-mpi_shift_r
 2258 0082 00BFAFF3 		.section	.text.mpi_cmp_abs,"ax",%progbits
 2258      0080AFF3 
 2258      0080AFF3 
ARM GAS  C:\Users\jo\AppData\Local\Temp\cc0IQHDm.s 			page 41


 2258      0080
 2259              		.align	2
 2260              		.p2align 4,,15
 2261              		.global	mpi_cmp_abs
 2262              		.thumb
 2263              		.thumb_func
 2264              		.type	mpi_cmp_abs, %function
 2265              	mpi_cmp_abs:
 2266              	.LFB25:
 2267              		.loc 1 779 0
 2268              		.cfi_startproc
 2269              		@ args = 0, pretend = 0, frame = 0
 2270              		@ frame_needed = 0, uses_anonymous_args = 0
 2271              		@ link register save eliminated.
 2272              	.LVL263:
 2273              		.loc 1 782 0
 2274 0000 4368     		ldr	r3, [r0, #4]
 2275              	.LVL264:
 2276              		.loc 1 779 0
 2277 0002 30B4     		push	{r4, r5}
 2278              		.cfi_def_cfa_offset 8
 2279              		.cfi_offset 4, -8
 2280              		.cfi_offset 5, -4
 2281              		.loc 1 782 0
 2282 0004 73B1     		cbz	r3, .L285
 2283              		.loc 1 783 0
 2284 0006 03F18044 		add	r4, r3, #1073741824
 2285 000a 013C     		subs	r4, r4, #1
 2286 000c 8268     		ldr	r2, [r0, #8]
 2287 000e 52F82450 		ldr	r5, [r2, r4, lsl #2]
 2288 0012 02EB8402 		add	r2, r2, r4, lsl #2
 2289 0016 1DB1     		cbz	r5, .L287
 2290 0018 1CE0     		b	.L286
 2291              	.L288:
 2292 001a 52F8044D 		ldr	r4, [r2, #-4]!
 2293 001e CCB9     		cbnz	r4, .L286
 2294              	.L287:
 2295              	.LVL265:
 2296              		.loc 1 782 0 discriminator 2
 2297 0020 013B     		subs	r3, r3, #1
 2298              	.LVL266:
 2299 0022 FAD1     		bne	.L288
 2300              	.L285:
 2301              		.loc 1 786 0
 2302 0024 4A68     		ldr	r2, [r1, #4]
 2303              	.LVL267:
 2304 0026 002A     		cmp	r2, #0
 2305 0028 47D0     		beq	.L316
 2306              		.loc 1 787 0
 2307 002a 02F18043 		add	r3, r2, #1073741824
 2308              	.LVL268:
 2309 002e 013B     		subs	r3, r3, #1
 2310 0030 8D68     		ldr	r5, [r1, #8]
 2311 0032 55F82340 		ldr	r4, [r5, r3, lsl #2]
 2312 0036 05EB8301 		add	r1, r5, r3, lsl #2
 2313              	.LVL269:
 2314              		.loc 1 786 0
ARM GAS  C:\Users\jo\AppData\Local\Temp\cc0IQHDm.s 			page 42


 2315 003a 0023     		movs	r3, #0
 2316              		.loc 1 787 0
 2317 003c 1CB1     		cbz	r4, .L290
 2318 003e 17E0     		b	.L296
 2319              	.L291:
 2320 0040 51F8044D 		ldr	r4, [r1, #-4]!
 2321 0044 94B9     		cbnz	r4, .L289
 2322              	.L290:
 2323              	.LVL270:
 2324              		.loc 1 786 0 discriminator 2
 2325 0046 013A     		subs	r2, r2, #1
 2326              	.LVL271:
 2327 0048 FAD1     		bne	.L291
 2328              		.loc 1 790 0
 2329 004a 181C     		adds	r0, r3, #0
 2330              	.LVL272:
 2331 004c 18BF     		it	ne
 2332 004e 0120     		movne	r0, #1
 2333              	.L312:
 2334              		.loc 1 803 0
 2335 0050 30BC     		pop	{r4, r5}
 2336              		.cfi_remember_state
 2337              		.cfi_restore 5
 2338              		.cfi_restore 4
 2339              		.cfi_def_cfa_offset 0
 2340 0052 7047     		bx	lr
 2341              	.LVL273:
 2342              	.L286:
 2343              		.cfi_restore_state
 2344              		.loc 1 786 0
 2345 0054 4A68     		ldr	r2, [r1, #4]
 2346              	.LVL274:
 2347 0056 4AB3     		cbz	r2, .L314
 2348              		.loc 1 787 0
 2349 0058 02F18044 		add	r4, r2, #1073741824
 2350 005c 8D68     		ldr	r5, [r1, #8]
 2351 005e 013C     		subs	r4, r4, #1
 2352 0060 05EB8401 		add	r1, r5, r4, lsl #2
 2353              	.LVL275:
 2354 0064 55F82440 		ldr	r4, [r5, r4, lsl #2]
 2355 0068 002C     		cmp	r4, #0
 2356 006a ECD0     		beq	.L290
 2357              	.LVL276:
 2358              	.L289:
 2359              		.loc 1 793 0
 2360 006c 9A42     		cmp	r2, r3
 2361 006e 1DD3     		bcc	.L314
 2362              	.L296:
 2363              		.loc 1 794 0
 2364 0070 9A42     		cmp	r2, r3
 2365 0072 1ED8     		bhi	.L306
 2366              	.LVL277:
 2367              		.loc 1 796 0 discriminator 1
 2368 0074 BBB1     		cbz	r3, .L302
 2369              		.loc 1 798 0
 2370 0076 03F18044 		add	r4, r3, #1073741824
 2371 007a 013C     		subs	r4, r4, #1
ARM GAS  C:\Users\jo\AppData\Local\Temp\cc0IQHDm.s 			page 43


 2372 007c 8168     		ldr	r1, [r0, #8]
 2373 007e A200     		lsls	r2, r4, #2
 2374              	.LVL278:
 2375 0080 51F82400 		ldr	r0, [r1, r4, lsl #2]
 2376              	.LVL279:
 2377 0084 55F82440 		ldr	r4, [r5, r4, lsl #2]
 2378 0088 8442     		cmp	r4, r0
 2379 008a 1144     		add	r1, r1, r2
 2380 008c 2A44     		add	r2, r2, r5
 2381 008e 0DD3     		bcc	.L314
 2382              		.loc 1 799 0
 2383 0090 07D9     		bls	.L294
 2384 0092 0EE0     		b	.L306
 2385              	.L295:
 2386              		.loc 1 798 0
 2387 0094 51F8044D 		ldr	r4, [r1, #-4]!
 2388 0098 52F8040D 		ldr	r0, [r2, #-4]!
 2389 009c 8442     		cmp	r4, r0
 2390 009e 05D8     		bhi	.L314
 2391              		.loc 1 799 0
 2392 00a0 07D3     		bcc	.L306
 2393              	.L294:
 2394              	.LVL280:
 2395              		.loc 1 796 0
 2396 00a2 013B     		subs	r3, r3, #1
 2397              	.LVL281:
 2398 00a4 F6D1     		bne	.L295
 2399              	.L302:
 2400              		.loc 1 802 0
 2401 00a6 1846     		mov	r0, r3
 2402              		.loc 1 803 0
 2403 00a8 30BC     		pop	{r4, r5}
 2404              		.cfi_remember_state
 2405              		.cfi_restore 4
 2406              		.cfi_restore 5
 2407              		.cfi_def_cfa_offset 0
 2408 00aa 7047     		bx	lr
 2409              	.LVL282:
 2410              	.L314:
 2411              		.cfi_restore_state
 2412              		.loc 1 793 0
 2413 00ac 0120     		movs	r0, #1
 2414              		.loc 1 803 0
 2415 00ae 30BC     		pop	{r4, r5}
 2416              		.cfi_remember_state
 2417              		.cfi_restore 4
 2418              		.cfi_restore 5
 2419              		.cfi_def_cfa_offset 0
 2420 00b0 7047     		bx	lr
 2421              	.L306:
 2422              		.cfi_restore_state
 2423              		.loc 1 794 0
 2424 00b2 4FF0FF30 		mov	r0, #-1
 2425              		.loc 1 803 0
 2426 00b6 30BC     		pop	{r4, r5}
 2427              		.cfi_remember_state
 2428              		.cfi_restore 4
ARM GAS  C:\Users\jo\AppData\Local\Temp\cc0IQHDm.s 			page 44


 2429              		.cfi_restore 5
 2430              		.cfi_def_cfa_offset 0
 2431 00b8 7047     		bx	lr
 2432              	.LVL283:
 2433              	.L316:
 2434              		.cfi_restore_state
 2435              		.loc 1 802 0
 2436 00ba 1046     		mov	r0, r2
 2437              	.LVL284:
 2438 00bc C8E7     		b	.L312
 2439              		.cfi_endproc
 2440              	.LFE25:
 2441              		.size	mpi_cmp_abs, .-mpi_cmp_abs
 2442 00be 00BF     		.section	.text.mpi_montmul.isra.2,"ax",%progbits
 2443              		.align	2
 2444              		.p2align 4,,15
 2445              		.thumb
 2446              		.thumb_func
 2447              		.type	mpi_montmul.isra.2, %function
 2448              	mpi_montmul.isra.2:
 2449              	.LFB56:
 2450              		.loc 1 1469 0
 2451              		.cfi_startproc
 2452              		@ args = 12, pretend = 0, frame = 24
 2453              		@ frame_needed = 0, uses_anonymous_args = 0
 2454              	.LVL285:
 2455 0000 2DE9F04F 		push	{r4, r5, r6, r7, r8, r9, r10, fp, lr}
 2456              		.cfi_def_cfa_offset 36
 2457              		.cfi_offset 4, -36
 2458              		.cfi_offset 5, -32
 2459              		.cfi_offset 6, -28
 2460              		.cfi_offset 7, -24
 2461              		.cfi_offset 8, -20
 2462              		.cfi_offset 9, -16
 2463              		.cfi_offset 10, -12
 2464              		.cfi_offset 11, -8
 2465              		.cfi_offset 14, -4
 2466 0004 87B0     		sub	sp, sp, #28
 2467              		.cfi_def_cfa_offset 64
 2468              		.loc 1 1469 0
 2469 0006 1F46     		mov	r7, r3
 2470 0008 129D     		ldr	r5, [sp, #72]
 2471 000a 119C     		ldr	r4, [sp, #68]
 2472 000c 0595     		str	r5, [sp, #20]
 2473 000e 2E46     		mov	r6, r5
 2474 0010 109D     		ldr	r5, [sp, #64]
 2475 0012 0295     		str	r5, [sp, #8]
 2476 0014 0D46     		mov	r5, r1
 2477 0016 8146     		mov	r9, r0
 2478 0018 9346     		mov	fp, r2
 2479              		.loc 1 1475 0
 2480 001a 3068     		ldr	r0, [r6]
 2481              	.LVL286:
 2482              		.loc 1 1469 0
 2483 001c 0093     		str	r3, [sp]
 2484              		.loc 1 1475 0
 2485 001e A200     		lsls	r2, r4, #2
ARM GAS  C:\Users\jo\AppData\Local\Temp\cc0IQHDm.s 			page 45


 2486 0020 0021     		movs	r1, #0
 2487 0022 FFF7FEFF 		bl	memset
 2488              	.LVL287:
 2489              		.loc 1 1479 0
 2490 0026 2B68     		ldr	r3, [r5]
 2491              		.loc 1 1478 0
 2492 0028 D7F80480 		ldr	r8, [r7, #4]
 2493              		.loc 1 1477 0
 2494 002c 3268     		ldr	r2, [r6]
 2495 002e 0392     		str	r2, [sp, #12]
 2496              	.LVL288:
 2497              		.loc 1 1479 0
 2498 0030 4345     		cmp	r3, r8
 2499 0032 28BF     		it	cs
 2500 0034 4346     		movcs	r3, r8
 2501 0036 0193     		str	r3, [sp, #4]
 2502              	.LVL289:
 2503              		.loc 1 1481 0
 2504 0038 B8F1000F 		cmp	r8, #0
 2505 003c 4DD0     		beq	.L321
 2506 003e 08F10103 		add	r3, r8, #1
 2507              	.LVL290:
 2508 0042 9B00     		lsls	r3, r3, #2
 2509 0044 1946     		mov	r1, r3
 2510 0046 0493     		str	r3, [sp, #16]
 2511 0048 0026     		movs	r6, #0
 2512 004a 02EB010A 		add	r10, r2, r1
 2513 004e 1546     		mov	r5, r2
 2514              	.LVL291:
 2515              	.L319:
 2516              		.loc 1 1486 0
 2517 0050 D9F80830 		ldr	r3, [r9, #8]
 2518              		.loc 1 1487 0
 2519 0054 DBF80010 		ldr	r1, [fp]
 2520              		.loc 1 1486 0
 2521 0058 53F82670 		ldr	r7, [r3, r6, lsl #2]
 2522              	.LVL292:
 2523              		.loc 1 1487 0
 2524 005c 2C68     		ldr	r4, [r5]
 2525 005e 0B68     		ldr	r3, [r1]
 2526              		.loc 1 1489 0
 2527 0060 0198     		ldr	r0, [sp, #4]
 2528              		.loc 1 1487 0
 2529 0062 03FB0744 		mla	r4, r3, r7, r4
 2530 0066 029B     		ldr	r3, [sp, #8]
 2531              		.loc 1 1489 0
 2532 0068 2A46     		mov	r2, r5
 2533              		.loc 1 1487 0
 2534 006a 03FB04F4 		mul	r4, r3, r4
 2535              	.LVL293:
 2536              		.loc 1 1489 0
 2537 006e 3B46     		mov	r3, r7
 2538 0070 FFF7FEFF 		bl	mpi_mul_hlp
 2539              	.LVL294:
 2540              		.loc 1 1490 0
 2541 0074 009A     		ldr	r2, [sp]
 2542 0076 2346     		mov	r3, r4
ARM GAS  C:\Users\jo\AppData\Local\Temp\cc0IQHDm.s 			page 46


 2543 0078 9168     		ldr	r1, [r2, #8]
 2544              		.loc 1 1481 0
 2545 007a 0136     		adds	r6, r6, #1
 2546              	.LVL295:
 2547              		.loc 1 1490 0
 2548 007c 2A46     		mov	r2, r5
 2549 007e 4046     		mov	r0, r8
 2550 0080 FFF7FEFF 		bl	mpi_mul_hlp
 2551              	.LVL296:
 2552              		.loc 1 1492 0
 2553 0084 0023     		movs	r3, #0
 2554              		.loc 1 1481 0
 2555 0086 4645     		cmp	r6, r8
 2556              		.loc 1 1492 0
 2557 0088 45F8047B 		str	r7, [r5], #4
 2558              	.LVL297:
 2559 008c 4AF8043F 		str	r3, [r10, #4]!
 2560              		.loc 1 1481 0
 2561 0090 DED1     		bne	.L319
 2562 0092 049B     		ldr	r3, [sp, #16]
 2563 0094 039A     		ldr	r2, [sp, #12]
 2564 0096 043B     		subs	r3, r3, #4
 2565 0098 1A44     		add	r2, r2, r3
 2566 009a 0392     		str	r2, [sp, #12]
 2567              	.LVL298:
 2568              	.L318:
 2569              		.loc 1 1495 0
 2570 009c 0399     		ldr	r1, [sp, #12]
 2571 009e 049A     		ldr	r2, [sp, #16]
 2572 00a0 D9F80800 		ldr	r0, [r9, #8]
 2573 00a4 FFF7FEFF 		bl	memcpy
 2574              	.LVL299:
 2575              		.loc 1 1497 0
 2576 00a8 009C     		ldr	r4, [sp]
 2577 00aa 4846     		mov	r0, r9
 2578 00ac 2146     		mov	r1, r4
 2579 00ae FFF7FEFF 		bl	mpi_cmp_abs
 2580              	.LVL300:
 2581 00b2 0028     		cmp	r0, #0
 2582              		.loc 1 1498 0
 2583 00b4 4046     		mov	r0, r8
 2584              		.loc 1 1497 0
 2585 00b6 07DB     		blt	.L320
 2586              	.LVL301:
 2587              		.loc 1 1498 0
 2588 00b8 A168     		ldr	r1, [r4, #8]
 2589 00ba D9F80820 		ldr	r2, [r9, #8]
 2590              		.loc 1 1502 0
 2591 00be 07B0     		add	sp, sp, #28
 2592              		.cfi_remember_state
 2593              		.cfi_def_cfa_offset 36
 2594              	.LVL302:
 2595              		@ sp needed
 2596 00c0 BDE8F04F 		pop	{r4, r5, r6, r7, r8, r9, r10, fp, lr}
 2597              		.cfi_restore 14
 2598              		.cfi_restore 11
 2599              		.cfi_restore 10
ARM GAS  C:\Users\jo\AppData\Local\Temp\cc0IQHDm.s 			page 47


 2600              		.cfi_restore 9
 2601              		.cfi_restore 8
 2602              		.cfi_restore 7
 2603              		.cfi_restore 6
 2604              		.cfi_restore 5
 2605              		.cfi_restore 4
 2606              		.cfi_def_cfa_offset 0
 2607              	.LVL303:
 2608              		.loc 1 1501 0
 2609 00c4 FFF7FEBF 		b	mpi_sub_hlp
 2610              	.LVL304:
 2611              	.L320:
 2612              		.cfi_restore_state
 2613 00c8 059B     		ldr	r3, [sp, #20]
 2614 00ca D9F80810 		ldr	r1, [r9, #8]
 2615 00ce 1A68     		ldr	r2, [r3]
 2616              		.loc 1 1502 0
 2617 00d0 07B0     		add	sp, sp, #28
 2618              		.cfi_remember_state
 2619              		.cfi_def_cfa_offset 36
 2620              	.LVL305:
 2621              		@ sp needed
 2622 00d2 BDE8F04F 		pop	{r4, r5, r6, r7, r8, r9, r10, fp, lr}
 2623              		.cfi_restore 4
 2624              		.cfi_restore 5
 2625              		.cfi_restore 6
 2626              		.cfi_restore 7
 2627              		.cfi_restore 8
 2628              		.cfi_restore 9
 2629              		.cfi_restore 10
 2630              		.cfi_restore 11
 2631              		.cfi_restore 14
 2632              		.cfi_def_cfa_offset 0
 2633              	.LVL306:
 2634              		.loc 1 1501 0
 2635 00d6 FFF7FEBF 		b	mpi_sub_hlp
 2636              	.LVL307:
 2637              	.L321:
 2638              		.cfi_restore_state
 2639              		.loc 1 1481 0
 2640 00da 0423     		movs	r3, #4
 2641              	.LVL308:
 2642 00dc 0493     		str	r3, [sp, #16]
 2643 00de DDE7     		b	.L318
 2644              		.cfi_endproc
 2645              	.LFE56:
 2646              		.size	mpi_montmul.isra.2, .-mpi_montmul.isra.2
 2647              		.section	.text.mpi_cmp_mpi,"ax",%progbits
 2648              		.align	2
 2649              		.p2align 4,,15
 2650              		.global	mpi_cmp_mpi
 2651              		.thumb
 2652              		.thumb_func
 2653              		.type	mpi_cmp_mpi, %function
 2654              	mpi_cmp_mpi:
 2655              	.LFB26:
 2656              		.loc 1 809 0
ARM GAS  C:\Users\jo\AppData\Local\Temp\cc0IQHDm.s 			page 48


 2657              		.cfi_startproc
 2658              		@ args = 0, pretend = 0, frame = 0
 2659              		@ frame_needed = 0, uses_anonymous_args = 0
 2660              		@ link register save eliminated.
 2661              	.LVL309:
 2662              		.loc 1 812 0
 2663 0000 4368     		ldr	r3, [r0, #4]
 2664              	.LVL310:
 2665              		.loc 1 809 0
 2666 0002 70B4     		push	{r4, r5, r6}
 2667              		.cfi_def_cfa_offset 12
 2668              		.cfi_offset 4, -12
 2669              		.cfi_offset 5, -8
 2670              		.cfi_offset 6, -4
 2671              		.loc 1 812 0
 2672 0004 73B1     		cbz	r3, .L326
 2673              		.loc 1 813 0
 2674 0006 03F18044 		add	r4, r3, #1073741824
 2675 000a 013C     		subs	r4, r4, #1
 2676 000c 8268     		ldr	r2, [r0, #8]
 2677 000e 52F82450 		ldr	r5, [r2, r4, lsl #2]
 2678 0012 02EB8402 		add	r2, r2, r4, lsl #2
 2679 0016 1DB1     		cbz	r5, .L328
 2680 0018 1BE0     		b	.L327
 2681              	.L329:
 2682 001a 52F8044D 		ldr	r4, [r2, #-4]!
 2683 001e C4B9     		cbnz	r4, .L327
 2684              	.L328:
 2685              	.LVL311:
 2686              		.loc 1 812 0 discriminator 2
 2687 0020 013B     		subs	r3, r3, #1
 2688              	.LVL312:
 2689 0022 FAD1     		bne	.L329
 2690              	.L326:
 2691              		.loc 1 816 0
 2692 0024 4A68     		ldr	r2, [r1, #4]
 2693              	.LVL313:
 2694 0026 8AB1     		cbz	r2, .L355
 2695              		.loc 1 817 0
 2696 0028 02F18044 		add	r4, r2, #1073741824
 2697 002c 013C     		subs	r4, r4, #1
 2698 002e 8E68     		ldr	r6, [r1, #8]
 2699 0030 56F82450 		ldr	r5, [r6, r4, lsl #2]
 2700              		.loc 1 816 0
 2701 0034 0023     		movs	r3, #0
 2702              	.LVL314:
 2703              		.loc 1 817 0
 2704 0036 06EB8404 		add	r4, r6, r4, lsl #2
 2705 003a 1DB1     		cbz	r5, .L331
 2706 003c 1BE0     		b	.L345
 2707              	.L332:
 2708 003e 54F8045D 		ldr	r5, [r4, #-4]!
 2709 0042 95B9     		cbnz	r5, .L330
 2710              	.L331:
 2711              	.LVL315:
 2712              		.loc 1 816 0 discriminator 2
 2713 0044 013A     		subs	r2, r2, #1
ARM GAS  C:\Users\jo\AppData\Local\Temp\cc0IQHDm.s 			page 49


 2714              	.LVL316:
 2715 0046 FAD1     		bne	.L332
 2716              		.loc 1 820 0
 2717 0048 8BB9     		cbnz	r3, .L344
 2718              	.LVL317:
 2719              	.L353:
 2720              		.loc 1 835 0
 2721 004a 1A46     		mov	r2, r3
 2722              	.L355:
 2723              		.loc 1 836 0
 2724 004c 1046     		mov	r0, r2
 2725 004e 70BC     		pop	{r4, r5, r6}
 2726              		.cfi_remember_state
 2727              		.cfi_restore 6
 2728              		.cfi_restore 5
 2729              		.cfi_restore 4
 2730              		.cfi_def_cfa_offset 0
 2731 0050 7047     		bx	lr
 2732              	.LVL318:
 2733              	.L327:
 2734              		.cfi_restore_state
 2735              		.loc 1 816 0
 2736 0052 4A68     		ldr	r2, [r1, #4]
 2737              	.LVL319:
 2738 0054 5AB1     		cbz	r2, .L344
 2739              		.loc 1 817 0
 2740 0056 02F18044 		add	r4, r2, #1073741824
 2741 005a 013C     		subs	r4, r4, #1
 2742 005c 8E68     		ldr	r6, [r1, #8]
 2743 005e 56F82450 		ldr	r5, [r6, r4, lsl #2]
 2744 0062 06EB8404 		add	r4, r6, r4, lsl #2
 2745 0066 002D     		cmp	r5, #0
 2746 0068 ECD0     		beq	.L331
 2747              	.LVL320:
 2748              	.L330:
 2749              		.loc 1 823 0
 2750 006a 9A42     		cmp	r2, r3
 2751 006c 03D2     		bcs	.L345
 2752              	.L344:
 2753              		.loc 1 823 0 is_stmt 0 discriminator 1
 2754 006e 0268     		ldr	r2, [r0]
 2755              	.LVL321:
 2756              		.loc 1 836 0 is_stmt 1 discriminator 1
 2757 0070 70BC     		pop	{r4, r5, r6}
 2758              		.cfi_remember_state
 2759              		.cfi_restore 4
 2760              		.cfi_restore 5
 2761              		.cfi_restore 6
 2762              		.cfi_def_cfa_offset 0
 2763 0072 1046     		mov	r0, r2
 2764              	.LVL322:
 2765 0074 7047     		bx	lr
 2766              	.LVL323:
 2767              	.L345:
 2768              		.cfi_restore_state
 2769              		.loc 1 824 0
 2770 0076 9A42     		cmp	r2, r3
ARM GAS  C:\Users\jo\AppData\Local\Temp\cc0IQHDm.s 			page 50


 2771 0078 22D8     		bhi	.L366
 2772              		.loc 1 826 0
 2773 007a 0268     		ldr	r2, [r0]
 2774              	.LVL324:
 2775 007c 0968     		ldr	r1, [r1]
 2776              	.LVL325:
 2777 007e 002A     		cmp	r2, #0
 2778 0080 01DD     		ble	.L337
 2779              		.loc 1 826 0 is_stmt 0 discriminator 1
 2780 0082 0029     		cmp	r1, #0
 2781 0084 23DB     		blt	.L350
 2782              	.L337:
 2783              		.loc 1 827 0 is_stmt 1
 2784 0086 0029     		cmp	r1, #0
 2785 0088 01DD     		ble	.L341
 2786              		.loc 1 827 0 is_stmt 0 discriminator 1
 2787 008a 002A     		cmp	r2, #0
 2788 008c 21DB     		blt	.L367
 2789              	.L341:
 2790              	.LVL326:
 2791              		.loc 1 829 0 is_stmt 1 discriminator 1
 2792 008e 002B     		cmp	r3, #0
 2793 0090 DBD0     		beq	.L353
 2794              		.loc 1 831 0
 2795 0092 03F18044 		add	r4, r3, #1073741824
 2796 0096 013C     		subs	r4, r4, #1
 2797 0098 8068     		ldr	r0, [r0, #8]
 2798              	.LVL327:
 2799 009a A100     		lsls	r1, r4, #2
 2800 009c 50F82450 		ldr	r5, [r0, r4, lsl #2]
 2801 00a0 56F82440 		ldr	r4, [r6, r4, lsl #2]
 2802 00a4 A542     		cmp	r5, r4
 2803 00a6 0844     		add	r0, r0, r1
 2804 00a8 3144     		add	r1, r1, r6
 2805 00aa CFD8     		bhi	.L355
 2806              	.L363:
 2807              		.loc 1 832 0
 2808 00ac 0DD3     		bcc	.L368
 2809              	.LVL328:
 2810              		.loc 1 829 0
 2811 00ae 013B     		subs	r3, r3, #1
 2812              	.LVL329:
 2813 00b0 CBD0     		beq	.L353
 2814              		.loc 1 831 0
 2815 00b2 50F8045D 		ldr	r5, [r0, #-4]!
 2816 00b6 51F8044D 		ldr	r4, [r1, #-4]!
 2817 00ba A542     		cmp	r5, r4
 2818 00bc F6D9     		bls	.L363
 2819 00be C5E7     		b	.L355
 2820              	.LVL330:
 2821              	.L366:
 2822              		.loc 1 824 0 discriminator 1
 2823 00c0 0A68     		ldr	r2, [r1]
 2824              	.LVL331:
 2825 00c2 5242     		negs	r2, r2
 2826              		.loc 1 836 0 discriminator 1
 2827 00c4 1046     		mov	r0, r2
ARM GAS  C:\Users\jo\AppData\Local\Temp\cc0IQHDm.s 			page 51


 2828              	.LVL332:
 2829 00c6 70BC     		pop	{r4, r5, r6}
 2830              		.cfi_remember_state
 2831              		.cfi_restore 4
 2832              		.cfi_restore 5
 2833              		.cfi_restore 6
 2834              		.cfi_def_cfa_offset 0
 2835 00c8 7047     		bx	lr
 2836              	.LVL333:
 2837              	.L368:
 2838              		.cfi_restore_state
 2839              		.loc 1 832 0 discriminator 1
 2840 00ca 5242     		negs	r2, r2
 2841 00cc BEE7     		b	.L355
 2842              	.LVL334:
 2843              	.L350:
 2844              		.loc 1 826 0
 2845 00ce 0122     		movs	r2, #1
 2846 00d0 BCE7     		b	.L355
 2847              	.L367:
 2848              		.loc 1 827 0
 2849 00d2 4FF0FF32 		mov	r2, #-1
 2850 00d6 B9E7     		b	.L355
 2851              		.cfi_endproc
 2852              	.LFE26:
 2853              		.size	mpi_cmp_mpi, .-mpi_cmp_mpi
 2854 00d8 AFF30080 		.section	.text.mpi_cmp_int,"ax",%progbits
 2854      AFF30080 
 2855              		.align	2
 2856              		.p2align 4,,15
 2857              		.global	mpi_cmp_int
 2858              		.thumb
 2859              		.thumb_func
 2860              		.type	mpi_cmp_int, %function
 2861              	mpi_cmp_int:
 2862              	.LFB27:
 2863              		.loc 1 842 0
 2864              		.cfi_startproc
 2865              		@ args = 0, pretend = 0, frame = 16
 2866              		@ frame_needed = 0, uses_anonymous_args = 0
 2867              	.LVL335:
 2868 0000 10B5     		push	{r4, lr}
 2869              		.cfi_def_cfa_offset 8
 2870              		.cfi_offset 4, -8
 2871              		.cfi_offset 14, -4
 2872              		.loc 1 847 0
 2873 0002 0029     		cmp	r1, #0
 2874              		.loc 1 842 0
 2875 0004 84B0     		sub	sp, sp, #16
 2876              		.cfi_def_cfa_offset 24
 2877              		.loc 1 846 0
 2878 0006 81EAE174 		eor	r4, r1, r1, asr #31
 2879 000a A4EBE174 		sub	r4, r4, r1, asr #31
 2880              		.loc 1 847 0
 2881 000e B4BF     		ite	lt
 2882 0010 4FF0FF32 		movlt	r2, #-1
 2883 0014 0122     		movge	r2, #1
ARM GAS  C:\Users\jo\AppData\Local\Temp\cc0IQHDm.s 			page 52


 2884              		.loc 1 848 0
 2885 0016 0123     		movs	r3, #1
 2886              		.loc 1 851 0
 2887 0018 01A9     		add	r1, sp, #4
 2888              	.LVL336:
 2889              		.loc 1 846 0
 2890 001a 0094     		str	r4, [sp]
 2891              		.loc 1 847 0
 2892 001c 0192     		str	r2, [sp, #4]
 2893              		.loc 1 848 0
 2894 001e 0293     		str	r3, [sp, #8]
 2895              		.loc 1 849 0
 2896 0020 CDF80CD0 		str	sp, [sp, #12]
 2897              		.loc 1 851 0
 2898 0024 FFF7FEFF 		bl	mpi_cmp_mpi
 2899              	.LVL337:
 2900              		.loc 1 852 0
 2901 0028 04B0     		add	sp, sp, #16
 2902              		.cfi_def_cfa_offset 8
 2903              		@ sp needed
 2904 002a 10BD     		pop	{r4, pc}
 2905              		.cfi_endproc
 2906              	.LFE27:
 2907              		.size	mpi_cmp_int, .-mpi_cmp_int
 2908 002c AFF30080 		.section	.text.mpi_add_abs,"ax",%progbits
 2909              		.align	2
 2910              		.p2align 4,,15
 2911              		.global	mpi_add_abs
 2912              		.thumb
 2913              		.thumb_func
 2914              		.type	mpi_add_abs, %function
 2915              	mpi_add_abs:
 2916              	.LFB28:
 2917              		.loc 1 858 0
 2918              		.cfi_startproc
 2919              		@ args = 0, pretend = 0, frame = 0
 2920              		@ frame_needed = 0, uses_anonymous_args = 0
 2921              	.LVL338:
 2922              		.loc 1 863 0
 2923 0000 9042     		cmp	r0, r2
 2924              		.loc 1 858 0
 2925 0002 2DE9F843 		push	{r3, r4, r5, r6, r7, r8, r9, lr}
 2926              		.cfi_def_cfa_offset 32
 2927              		.cfi_offset 3, -32
 2928              		.cfi_offset 4, -28
 2929              		.cfi_offset 5, -24
 2930              		.cfi_offset 6, -20
 2931              		.cfi_offset 7, -16
 2932              		.cfi_offset 8, -12
 2933              		.cfi_offset 9, -8
 2934              		.cfi_offset 14, -4
 2935              		.loc 1 858 0
 2936 0006 1446     		mov	r4, r2
 2937 0008 0646     		mov	r6, r0
 2938              		.loc 1 863 0
 2939 000a 63D0     		beq	.L388
 2940              		.loc 1 868 0
ARM GAS  C:\Users\jo\AppData\Local\Temp\cc0IQHDm.s 			page 53


 2941 000c 8842     		cmp	r0, r1
 2942 000e 03D0     		beq	.L374
 2943              		.loc 1 869 0
 2944 0010 FFF7FEFF 		bl	mpi_copy
 2945              	.LVL339:
 2946 0014 8146     		mov	r9, r0
 2947 0016 C8B9     		cbnz	r0, .L392
 2948              	.LVL340:
 2949              	.L374:
 2950              		.loc 1 876 0
 2951 0018 6768     		ldr	r7, [r4, #4]
 2952              	.LVL341:
 2953              		.loc 1 874 0
 2954 001a 0123     		movs	r3, #1
 2955 001c 3360     		str	r3, [r6]
 2956              		.loc 1 876 0
 2957 001e 77B1     		cbz	r7, .L378
 2958              		.loc 1 877 0
 2959 0020 07F18042 		add	r2, r7, #1073741824
 2960 0024 013A     		subs	r2, r2, #1
 2961 0026 A368     		ldr	r3, [r4, #8]
 2962 0028 53F82210 		ldr	r1, [r3, r2, lsl #2]
 2963 002c 03EB8203 		add	r3, r3, r2, lsl #2
 2964 0030 19B1     		cbz	r1, .L380
 2965 0032 0EE0     		b	.L379
 2966              	.L381:
 2967 0034 53F8041D 		ldr	r1, [r3, #-4]!
 2968 0038 59B9     		cbnz	r1, .L379
 2969              	.L380:
 2970              	.LVL342:
 2971              		.loc 1 876 0 discriminator 2
 2972 003a 013F     		subs	r7, r7, #1
 2973              	.LVL343:
 2974 003c FAD1     		bne	.L381
 2975              	.L378:
 2976              		.loc 1 880 0
 2977 003e 3046     		mov	r0, r6
 2978 0040 0021     		movs	r1, #0
 2979              		.loc 1 904 0
 2980 0042 BDE8F843 		pop	{r3, r4, r5, r6, r7, r8, r9, lr}
 2981              		.cfi_remember_state
 2982              		.cfi_restore 14
 2983              		.cfi_restore 9
 2984              		.cfi_restore 8
 2985              		.cfi_restore 7
 2986              		.cfi_restore 6
 2987              		.cfi_restore 5
 2988              		.cfi_restore 4
 2989              		.cfi_restore 3
 2990              		.cfi_def_cfa_offset 0
 2991              	.LVL344:
 2992              		.loc 1 880 0
 2993 0046 FFF7FEBF 		b	mpi_grow
 2994              	.LVL345:
 2995              	.L389:
 2996              		.cfi_restore_state
 2997 004a 8146     		mov	r9, r0
ARM GAS  C:\Users\jo\AppData\Local\Temp\cc0IQHDm.s 			page 54


 2998              	.LVL346:
 2999              	.L392:
 3000              		.loc 1 904 0
 3001 004c 4846     		mov	r0, r9
 3002 004e BDE8F883 		pop	{r3, r4, r5, r6, r7, r8, r9, pc}
 3003              	.LVL347:
 3004              	.L379:
 3005              		.loc 1 880 0
 3006 0052 3046     		mov	r0, r6
 3007 0054 3946     		mov	r1, r7
 3008 0056 FFF7FEFF 		bl	mpi_grow
 3009              	.LVL348:
 3010 005a 8146     		mov	r9, r0
 3011 005c 0028     		cmp	r0, #0
 3012 005e F5D1     		bne	.L392
 3013              	.L376:
 3014              	.LVL349:
 3015 0060 A368     		ldr	r3, [r4, #8]
 3016 0062 B068     		ldr	r0, [r6, #8]
 3017              	.LVL350:
 3018 0064 A3F1040C 		sub	ip, r3, #4
 3019              		.loc 1 882 0
 3020 0068 4C46     		mov	r4, r9
 3021 006a 4946     		mov	r1, r9
 3022              	.LVL351:
 3023              	.L382:
 3024              		.loc 1 886 0 discriminator 3
 3025 006c 0268     		ldr	r2, [r0]
 3026 006e 2244     		add	r2, r2, r4
 3027              	.LVL352:
 3028 0070 0260     		str	r2, [r0]
 3029              		.loc 1 887 0 discriminator 3
 3030 0072 5CF8043F 		ldr	r3, [ip, #4]!
 3031 0076 1344     		add	r3, r3, r2
 3032 0078 40F8043B 		str	r3, [r0], #4
 3033              	.LVL353:
 3034 007c DCF80050 		ldr	r5, [ip]
 3035 0080 AB42     		cmp	r3, r5
 3036 0082 2CBF     		ite	cs
 3037 0084 0023     		movcs	r3, #0
 3038 0086 0123     		movcc	r3, #1
 3039              		.loc 1 884 0 discriminator 3
 3040 0088 0131     		adds	r1, r1, #1
 3041              	.LVL354:
 3042              		.loc 1 887 0 discriminator 3
 3043 008a 9442     		cmp	r4, r2
 3044 008c 94BF     		ite	ls
 3045 008e 1C46     		movls	r4, r3
 3046 0090 5C1C     		addhi	r4, r3, #1
 3047              	.LVL355:
 3048              		.loc 1 884 0 discriminator 3
 3049 0092 8F42     		cmp	r7, r1
 3050 0094 0246     		mov	r2, r0
 3051 0096 E9D8     		bhi	.L382
 3052              	.LVL356:
 3053              		.loc 1 890 0
 3054 0098 002C     		cmp	r4, #0
ARM GAS  C:\Users\jo\AppData\Local\Temp\cc0IQHDm.s 			page 55


 3055 009a D7D0     		beq	.L392
 3056 009c 4F1C     		adds	r7, r1, #1
 3057              	.LVL357:
 3058 009e 4FEA8108 		lsl	r8, r1, #2
 3059 00a2 0AE0     		b	.L385
 3060              	.LVL358:
 3061              	.L384:
 3062              		.loc 1 898 0
 3063 00a4 1368     		ldr	r3, [r2]
 3064 00a6 2344     		add	r3, r3, r4
 3065              		.loc 1 890 0
 3066 00a8 A342     		cmp	r3, r4
 3067 00aa 07F10107 		add	r7, r7, #1
 3068              	.LVL359:
 3069 00ae 08F10408 		add	r8, r8, #4
 3070              		.loc 1 898 0
 3071 00b2 42F8043B 		str	r3, [r2], #4
 3072              	.LVL360:
 3073              		.loc 1 890 0
 3074 00b6 C9D2     		bcs	.L392
 3075 00b8 0124     		movs	r4, #1
 3076              	.LVL361:
 3077              	.L385:
 3078              		.loc 1 892 0
 3079 00ba 7168     		ldr	r1, [r6, #4]
 3080 00bc 7B1E     		subs	r3, r7, #1
 3081              	.LVL362:
 3082 00be 9942     		cmp	r1, r3
 3083 00c0 F0D8     		bhi	.L384
 3084              		.loc 1 894 0
 3085 00c2 3046     		mov	r0, r6
 3086 00c4 3946     		mov	r1, r7
 3087 00c6 FFF7FEFF 		bl	mpi_grow
 3088              	.LVL363:
 3089 00ca 0028     		cmp	r0, #0
 3090 00cc BDD1     		bne	.L389
 3091              		.loc 1 895 0
 3092 00ce B268     		ldr	r2, [r6, #8]
 3093 00d0 4244     		add	r2, r2, r8
 3094              	.LVL364:
 3095 00d2 E7E7     		b	.L384
 3096              	.LVL365:
 3097              	.L388:
 3098 00d4 0C46     		mov	r4, r1
 3099 00d6 9FE7     		b	.L374
 3100              		.cfi_endproc
 3101              	.LFE28:
 3102              		.size	mpi_add_abs, .-mpi_add_abs
 3103 00d8 AFF30080 		.section	.text.mpi_sub_abs,"ax",%progbits
 3103      AFF30080 
 3104              		.align	2
 3105              		.p2align 4,,15
 3106              		.global	mpi_sub_abs
 3107              		.thumb
 3108              		.thumb_func
 3109              		.type	mpi_sub_abs, %function
 3110              	mpi_sub_abs:
ARM GAS  C:\Users\jo\AppData\Local\Temp\cc0IQHDm.s 			page 56


 3111              	.LFB30:
 3112              		.loc 1 931 0
 3113              		.cfi_startproc
 3114              		@ args = 0, pretend = 0, frame = 16
 3115              		@ frame_needed = 0, uses_anonymous_args = 0
 3116              	.LVL366:
 3117 0000 2DE9F041 		push	{r4, r5, r6, r7, r8, lr}
 3118              		.cfi_def_cfa_offset 24
 3119              		.cfi_offset 4, -24
 3120              		.cfi_offset 5, -20
 3121              		.cfi_offset 6, -16
 3122              		.cfi_offset 7, -12
 3123              		.cfi_offset 8, -8
 3124              		.cfi_offset 14, -4
 3125 0004 8846     		mov	r8, r1
 3126 0006 84B0     		sub	sp, sp, #16
 3127              		.cfi_def_cfa_offset 40
 3128              		.loc 1 931 0
 3129 0008 0546     		mov	r5, r0
 3130              		.loc 1 936 0
 3131 000a 1146     		mov	r1, r2
 3132              	.LVL367:
 3133 000c 4046     		mov	r0, r8
 3134              	.LVL368:
 3135              		.loc 1 931 0
 3136 000e 1646     		mov	r6, r2
 3137              		.loc 1 936 0
 3138 0010 FFF7FEFF 		bl	mpi_cmp_abs
 3139              	.LVL369:
 3140 0014 0028     		cmp	r0, #0
 3141 0016 38DB     		blt	.L409
 3142              	.LVL370:
 3143              	.LBB114:
 3144              	.LBB115:
 3145              		.loc 1 77 0
 3146 0018 0023     		movs	r3, #0
 3147              		.loc 1 76 0
 3148 001a 0122     		movs	r2, #1
 3149              	.LBE115:
 3150              	.LBE114:
 3151              		.loc 1 941 0
 3152 001c B542     		cmp	r5, r6
 3153              	.LBB117:
 3154              	.LBB116:
 3155              		.loc 1 76 0
 3156 001e 0192     		str	r2, [sp, #4]
 3157              		.loc 1 77 0
 3158 0020 0293     		str	r3, [sp, #8]
 3159              		.loc 1 78 0
 3160 0022 0393     		str	r3, [sp, #12]
 3161              	.LBE116:
 3162              	.LBE117:
 3163              		.loc 1 943 0
 3164 0024 01AF     		add	r7, sp, #4
 3165              	.LVL371:
 3166              		.loc 1 941 0
 3167 0026 25D0     		beq	.L417
ARM GAS  C:\Users\jo\AppData\Local\Temp\cc0IQHDm.s 			page 57


 3168              	.LVL372:
 3169              	.L400:
 3170              		.loc 1 947 0
 3171 0028 4545     		cmp	r5, r8
 3172 002a 05D0     		beq	.L405
 3173              		.loc 1 948 0
 3174 002c 4146     		mov	r1, r8
 3175 002e 2846     		mov	r0, r5
 3176 0030 FFF7FEFF 		bl	mpi_copy
 3177              	.LVL373:
 3178 0034 0446     		mov	r4, r0
 3179 0036 B0B9     		cbnz	r0, .L401
 3180              	.LVL374:
 3181              	.L405:
 3182              		.loc 1 957 0
 3183 0038 7068     		ldr	r0, [r6, #4]
 3184              		.loc 1 953 0
 3185 003a 0123     		movs	r3, #1
 3186 003c 2B60     		str	r3, [r5]
 3187              	.LVL375:
 3188              		.loc 1 957 0
 3189 003e 10B3     		cbz	r0, .L418
 3190              		.loc 1 958 0
 3191 0040 00F18042 		add	r2, r0, #1073741824
 3192 0044 B168     		ldr	r1, [r6, #8]
 3193 0046 013A     		subs	r2, r2, #1
 3194 0048 01EB8203 		add	r3, r1, r2, lsl #2
 3195 004c 51F82220 		ldr	r2, [r1, r2, lsl #2]
 3196 0050 1AB1     		cbz	r2, .L407
 3197 0052 04E0     		b	.L406
 3198              	.L408:
 3199 0054 53F8042D 		ldr	r2, [r3, #-4]!
 3200 0058 0AB9     		cbnz	r2, .L406
 3201              	.L407:
 3202              	.LVL376:
 3203              		.loc 1 957 0 discriminator 2
 3204 005a 0138     		subs	r0, r0, #1
 3205              	.LVL377:
 3206 005c FAD1     		bne	.L408
 3207              	.L406:
 3208              		.loc 1 961 0
 3209 005e AA68     		ldr	r2, [r5, #8]
 3210 0060 FFF7FEFF 		bl	mpi_sub_hlp
 3211              	.LVL378:
 3212              		.loc 1 955 0
 3213 0064 0024     		movs	r4, #0
 3214              	.LVL379:
 3215              	.L401:
 3216              		.loc 1 965 0
 3217 0066 3846     		mov	r0, r7
 3218 0068 FFF7FEFF 		bl	mpi_free
 3219              	.LVL380:
 3220              		.loc 1 967 0
 3221 006c 2046     		mov	r0, r4
 3222              	.LVL381:
 3223              	.L399:
 3224              		.loc 1 968 0
ARM GAS  C:\Users\jo\AppData\Local\Temp\cc0IQHDm.s 			page 58


 3225 006e 04B0     		add	sp, sp, #16
 3226              		.cfi_remember_state
 3227              		.cfi_def_cfa_offset 24
 3228              		@ sp needed
 3229 0070 BDE8F081 		pop	{r4, r5, r6, r7, r8, pc}
 3230              	.LVL382:
 3231              	.L417:
 3232              		.cfi_restore_state
 3233              		.loc 1 943 0
 3234 0074 3846     		mov	r0, r7
 3235 0076 2946     		mov	r1, r5
 3236 0078 FFF7FEFF 		bl	mpi_copy
 3237              	.LVL383:
 3238 007c 0446     		mov	r4, r0
 3239 007e 0028     		cmp	r0, #0
 3240 0080 F1D1     		bne	.L401
 3241              		.loc 1 944 0
 3242 0082 3E46     		mov	r6, r7
 3243              	.LVL384:
 3244 0084 D0E7     		b	.L400
 3245              	.LVL385:
 3246              	.L418:
 3247 0086 B168     		ldr	r1, [r6, #8]
 3248 0088 E9E7     		b	.L406
 3249              	.LVL386:
 3250              	.L409:
 3251              		.loc 1 937 0
 3252 008a 6FF00900 		mvn	r0, #9
 3253 008e EEE7     		b	.L399
 3254              		.cfi_endproc
 3255              	.LFE30:
 3256              		.size	mpi_sub_abs, .-mpi_sub_abs
 3257              		.section	.text.mpi_add_mpi,"ax",%progbits
 3258              		.align	2
 3259              		.p2align 4,,15
 3260              		.global	mpi_add_mpi
 3261              		.thumb
 3262              		.thumb_func
 3263              		.type	mpi_add_mpi, %function
 3264              	mpi_add_mpi:
 3265              	.LFB31:
 3266              		.loc 1 974 0
 3267              		.cfi_startproc
 3268              		@ args = 0, pretend = 0, frame = 0
 3269              		@ frame_needed = 0, uses_anonymous_args = 0
 3270              	.LVL387:
 3271 0000 F8B5     		push	{r3, r4, r5, r6, r7, lr}
 3272              		.cfi_def_cfa_offset 24
 3273              		.cfi_offset 3, -24
 3274              		.cfi_offset 4, -20
 3275              		.cfi_offset 5, -16
 3276              		.cfi_offset 6, -12
 3277              		.cfi_offset 7, -8
 3278              		.cfi_offset 14, -4
 3279              		.loc 1 975 0
 3280 0002 0E68     		ldr	r6, [r1]
 3281              	.LVL388:
ARM GAS  C:\Users\jo\AppData\Local\Temp\cc0IQHDm.s 			page 59


 3282              		.loc 1 977 0
 3283 0004 1368     		ldr	r3, [r2]
 3284 0006 03FB06F3 		mul	r3, r3, r6
 3285 000a 002B     		cmp	r3, #0
 3286              		.loc 1 974 0
 3287 000c 0C46     		mov	r4, r1
 3288 000e 1546     		mov	r5, r2
 3289 0010 0746     		mov	r7, r0
 3290              		.loc 1 977 0
 3291 0012 04DB     		blt	.L426
 3292              		.loc 1 992 0
 3293 0014 FFF7FEFF 		bl	mpi_add_abs
 3294              	.LVL389:
 3295 0018 00B9     		cbnz	r0, .L422
 3296              	.L424:
 3297              		.loc 1 993 0
 3298 001a 3E60     		str	r6, [r7]
 3299              	.L422:
 3300              		.loc 1 999 0
 3301 001c F8BD     		pop	{r3, r4, r5, r6, r7, pc}
 3302              	.LVL390:
 3303              	.L426:
 3304              		.loc 1 979 0
 3305 001e 0846     		mov	r0, r1
 3306              	.LVL391:
 3307 0020 1146     		mov	r1, r2
 3308              	.LVL392:
 3309 0022 FFF7FEFF 		bl	mpi_cmp_abs
 3310              	.LVL393:
 3311 0026 0028     		cmp	r0, #0
 3312 0028 07DB     		blt	.L421
 3313              		.loc 1 981 0
 3314 002a 2146     		mov	r1, r4
 3315 002c 2A46     		mov	r2, r5
 3316 002e 3846     		mov	r0, r7
 3317 0030 FFF7FEFF 		bl	mpi_sub_abs
 3318              	.LVL394:
 3319 0034 0028     		cmp	r0, #0
 3320 0036 F0D0     		beq	.L424
 3321              		.loc 1 999 0
 3322 0038 F8BD     		pop	{r3, r4, r5, r6, r7, pc}
 3323              	.LVL395:
 3324              	.L421:
 3325              		.loc 1 986 0
 3326 003a 2946     		mov	r1, r5
 3327 003c 2246     		mov	r2, r4
 3328 003e 3846     		mov	r0, r7
 3329 0040 FFF7FEFF 		bl	mpi_sub_abs
 3330              	.LVL396:
 3331 0044 0028     		cmp	r0, #0
 3332 0046 E9D1     		bne	.L422
 3333              		.loc 1 987 0
 3334 0048 7642     		negs	r6, r6
 3335              	.LVL397:
 3336 004a 3E60     		str	r6, [r7]
 3337 004c F8BD     		pop	{r3, r4, r5, r6, r7, pc}
 3338              		.cfi_endproc
ARM GAS  C:\Users\jo\AppData\Local\Temp\cc0IQHDm.s 			page 60


 3339              	.LFE31:
 3340              		.size	mpi_add_mpi, .-mpi_add_mpi
 3341 004e 00BF     		.section	.text.mpi_sub_mpi,"ax",%progbits
 3342              		.align	2
 3343              		.p2align 4,,15
 3344              		.global	mpi_sub_mpi
 3345              		.thumb
 3346              		.thumb_func
 3347              		.type	mpi_sub_mpi, %function
 3348              	mpi_sub_mpi:
 3349              	.LFB32:
 3350              		.loc 1 1005 0
 3351              		.cfi_startproc
 3352              		@ args = 0, pretend = 0, frame = 0
 3353              		@ frame_needed = 0, uses_anonymous_args = 0
 3354              	.LVL398:
 3355 0000 F8B5     		push	{r3, r4, r5, r6, r7, lr}
 3356              		.cfi_def_cfa_offset 24
 3357              		.cfi_offset 3, -24
 3358              		.cfi_offset 4, -20
 3359              		.cfi_offset 5, -16
 3360              		.cfi_offset 6, -12
 3361              		.cfi_offset 7, -8
 3362              		.cfi_offset 14, -4
 3363              		.loc 1 1006 0
 3364 0002 0E68     		ldr	r6, [r1]
 3365              	.LVL399:
 3366              		.loc 1 1008 0
 3367 0004 1368     		ldr	r3, [r2]
 3368 0006 03FB06F3 		mul	r3, r3, r6
 3369 000a 002B     		cmp	r3, #0
 3370              		.loc 1 1005 0
 3371 000c 0C46     		mov	r4, r1
 3372 000e 1546     		mov	r5, r2
 3373 0010 0746     		mov	r7, r0
 3374              		.loc 1 1008 0
 3375 0012 0CDD     		ble	.L428
 3376              		.loc 1 1010 0
 3377 0014 0846     		mov	r0, r1
 3378              	.LVL400:
 3379 0016 1146     		mov	r1, r2
 3380              	.LVL401:
 3381 0018 FFF7FEFF 		bl	mpi_cmp_abs
 3382              	.LVL402:
 3383 001c 0028     		cmp	r0, #0
 3384 001e 0CDB     		blt	.L429
 3385              		.loc 1 1012 0
 3386 0020 2146     		mov	r1, r4
 3387 0022 2A46     		mov	r2, r5
 3388 0024 3846     		mov	r0, r7
 3389 0026 FFF7FEFF 		bl	mpi_sub_abs
 3390              	.LVL403:
 3391 002a 20B1     		cbz	r0, .L432
 3392              	.L430:
 3393              		.loc 1 1030 0
 3394 002c F8BD     		pop	{r3, r4, r5, r6, r7, pc}
 3395              	.LVL404:
ARM GAS  C:\Users\jo\AppData\Local\Temp\cc0IQHDm.s 			page 61


 3396              	.L428:
 3397              		.loc 1 1023 0
 3398 002e FFF7FEFF 		bl	mpi_add_abs
 3399              	.LVL405:
 3400 0032 0028     		cmp	r0, #0
 3401 0034 FAD1     		bne	.L430
 3402              	.L432:
 3403              		.loc 1 1024 0
 3404 0036 3E60     		str	r6, [r7]
 3405              		.loc 1 1030 0
 3406 0038 F8BD     		pop	{r3, r4, r5, r6, r7, pc}
 3407              	.LVL406:
 3408              	.L429:
 3409              		.loc 1 1017 0
 3410 003a 2946     		mov	r1, r5
 3411 003c 2246     		mov	r2, r4
 3412 003e 3846     		mov	r0, r7
 3413 0040 FFF7FEFF 		bl	mpi_sub_abs
 3414              	.LVL407:
 3415 0044 0028     		cmp	r0, #0
 3416 0046 F1D1     		bne	.L430
 3417              		.loc 1 1018 0
 3418 0048 7642     		negs	r6, r6
 3419              	.LVL408:
 3420 004a 3E60     		str	r6, [r7]
 3421 004c F8BD     		pop	{r3, r4, r5, r6, r7, pc}
 3422              		.cfi_endproc
 3423              	.LFE32:
 3424              		.size	mpi_sub_mpi, .-mpi_sub_mpi
 3425 004e 00BF     		.section	.text.mpi_add_int,"ax",%progbits
 3426              		.align	2
 3427              		.p2align 4,,15
 3428              		.global	mpi_add_int
 3429              		.thumb
 3430              		.thumb_func
 3431              		.type	mpi_add_int, %function
 3432              	mpi_add_int:
 3433              	.LFB33:
 3434              		.loc 1 1036 0
 3435              		.cfi_startproc
 3436              		@ args = 0, pretend = 0, frame = 16
 3437              		@ frame_needed = 0, uses_anonymous_args = 0
 3438              	.LVL409:
 3439 0000 30B5     		push	{r4, r5, lr}
 3440              		.cfi_def_cfa_offset 12
 3441              		.cfi_offset 4, -12
 3442              		.cfi_offset 5, -8
 3443              		.cfi_offset 14, -4
 3444              		.loc 1 1041 0
 3445 0002 002A     		cmp	r2, #0
 3446              		.loc 1 1036 0
 3447 0004 85B0     		sub	sp, sp, #20
 3448              		.cfi_def_cfa_offset 32
 3449              		.loc 1 1040 0
 3450 0006 82EAE275 		eor	r5, r2, r2, asr #31
 3451 000a A5EBE275 		sub	r5, r5, r2, asr #31
 3452              		.loc 1 1041 0
ARM GAS  C:\Users\jo\AppData\Local\Temp\cc0IQHDm.s 			page 62


 3453 000e B4BF     		ite	lt
 3454 0010 4FF0FF34 		movlt	r4, #-1
 3455 0014 0124     		movge	r4, #1
 3456              		.loc 1 1042 0
 3457 0016 0123     		movs	r3, #1
 3458              		.loc 1 1045 0
 3459 0018 01AA     		add	r2, sp, #4
 3460              	.LVL410:
 3461              		.loc 1 1040 0
 3462 001a 0095     		str	r5, [sp]
 3463              		.loc 1 1041 0
 3464 001c 0194     		str	r4, [sp, #4]
 3465              		.loc 1 1042 0
 3466 001e 0293     		str	r3, [sp, #8]
 3467              		.loc 1 1043 0
 3468 0020 CDF80CD0 		str	sp, [sp, #12]
 3469              		.loc 1 1045 0
 3470 0024 FFF7FEFF 		bl	mpi_add_mpi
 3471              	.LVL411:
 3472              		.loc 1 1046 0
 3473 0028 05B0     		add	sp, sp, #20
 3474              		.cfi_def_cfa_offset 12
 3475              		@ sp needed
 3476 002a 30BD     		pop	{r4, r5, pc}
 3477              		.cfi_endproc
 3478              	.LFE33:
 3479              		.size	mpi_add_int, .-mpi_add_int
 3480 002c AFF30080 		.section	.text.mpi_sub_int,"ax",%progbits
 3481              		.align	2
 3482              		.p2align 4,,15
 3483              		.global	mpi_sub_int
 3484              		.thumb
 3485              		.thumb_func
 3486              		.type	mpi_sub_int, %function
 3487              	mpi_sub_int:
 3488              	.LFB34:
 3489              		.loc 1 1052 0
 3490              		.cfi_startproc
 3491              		@ args = 0, pretend = 0, frame = 16
 3492              		@ frame_needed = 0, uses_anonymous_args = 0
 3493              	.LVL412:
 3494 0000 30B5     		push	{r4, r5, lr}
 3495              		.cfi_def_cfa_offset 12
 3496              		.cfi_offset 4, -12
 3497              		.cfi_offset 5, -8
 3498              		.cfi_offset 14, -4
 3499              		.loc 1 1057 0
 3500 0002 002A     		cmp	r2, #0
 3501              		.loc 1 1052 0
 3502 0004 85B0     		sub	sp, sp, #20
 3503              		.cfi_def_cfa_offset 32
 3504              		.loc 1 1056 0
 3505 0006 82EAE275 		eor	r5, r2, r2, asr #31
 3506 000a A5EBE275 		sub	r5, r5, r2, asr #31
 3507              		.loc 1 1057 0
 3508 000e B4BF     		ite	lt
 3509 0010 4FF0FF34 		movlt	r4, #-1
ARM GAS  C:\Users\jo\AppData\Local\Temp\cc0IQHDm.s 			page 63


 3510 0014 0124     		movge	r4, #1
 3511              		.loc 1 1058 0
 3512 0016 0123     		movs	r3, #1
 3513              		.loc 1 1061 0
 3514 0018 01AA     		add	r2, sp, #4
 3515              	.LVL413:
 3516              		.loc 1 1056 0
 3517 001a 0095     		str	r5, [sp]
 3518              		.loc 1 1057 0
 3519 001c 0194     		str	r4, [sp, #4]
 3520              		.loc 1 1058 0
 3521 001e 0293     		str	r3, [sp, #8]
 3522              		.loc 1 1059 0
 3523 0020 CDF80CD0 		str	sp, [sp, #12]
 3524              		.loc 1 1061 0
 3525 0024 FFF7FEFF 		bl	mpi_sub_mpi
 3526              	.LVL414:
 3527              		.loc 1 1062 0
 3528 0028 05B0     		add	sp, sp, #20
 3529              		.cfi_def_cfa_offset 12
 3530              		@ sp needed
 3531 002a 30BD     		pop	{r4, r5, pc}
 3532              		.cfi_endproc
 3533              	.LFE34:
 3534              		.size	mpi_sub_int, .-mpi_sub_int
 3535 002c AFF30080 		.section	.text.mpi_mul_mpi,"ax",%progbits
 3536              		.align	2
 3537              		.p2align 4,,15
 3538              		.global	mpi_mul_mpi
 3539              		.thumb
 3540              		.thumb_func
 3541              		.type	mpi_mul_mpi, %function
 3542              	mpi_mul_mpi:
 3543              	.LFB36:
 3544              		.loc 1 1140 0
 3545              		.cfi_startproc
 3546              		@ args = 0, pretend = 0, frame = 32
 3547              		@ frame_needed = 0, uses_anonymous_args = 0
 3548              	.LVL415:
 3549 0000 2DE9F04F 		push	{r4, r5, r6, r7, r8, r9, r10, fp, lr}
 3550              		.cfi_def_cfa_offset 36
 3551              		.cfi_offset 4, -36
 3552              		.cfi_offset 5, -32
 3553              		.cfi_offset 6, -28
 3554              		.cfi_offset 7, -24
 3555              		.cfi_offset 8, -20
 3556              		.cfi_offset 9, -16
 3557              		.cfi_offset 10, -12
 3558              		.cfi_offset 11, -8
 3559              		.cfi_offset 14, -4
 3560 0004 89B0     		sub	sp, sp, #36
 3561              		.cfi_def_cfa_offset 72
 3562              	.LVL416:
 3563              	.LBB118:
 3564              	.LBB119:
 3565              		.loc 1 77 0
 3566 0006 0023     		movs	r3, #0
ARM GAS  C:\Users\jo\AppData\Local\Temp\cc0IQHDm.s 			page 64


 3567              	.LBE119:
 3568              	.LBE118:
 3569              		.loc 1 1140 0
 3570 0008 0646     		mov	r6, r0
 3571              	.LBB122:
 3572              	.LBB120:
 3573              		.loc 1 77 0
 3574 000a 0393     		str	r3, [sp, #12]
 3575              		.loc 1 76 0
 3576 000c 0120     		movs	r0, #1
 3577              	.LVL417:
 3578              		.loc 1 78 0
 3579 000e 0493     		str	r3, [sp, #16]
 3580              	.LVL418:
 3581              	.LBE120:
 3582              	.LBE122:
 3583              	.LBB123:
 3584              	.LBB124:
 3585              		.loc 1 77 0
 3586 0010 0693     		str	r3, [sp, #24]
 3587              		.loc 1 78 0
 3588 0012 0793     		str	r3, [sp, #28]
 3589              	.LBE124:
 3590              	.LBE123:
 3591              		.loc 1 1147 0
 3592 0014 8E42     		cmp	r6, r1
 3593 0016 02AB     		add	r3, sp, #8
 3594              	.LVL419:
 3595              		.loc 1 1140 0
 3596 0018 0F46     		mov	r7, r1
 3597 001a 9246     		mov	r10, r2
 3598              	.LBB126:
 3599              	.LBB121:
 3600              		.loc 1 76 0
 3601 001c 0290     		str	r0, [sp, #8]
 3602              	.LBE121:
 3603              	.LBE126:
 3604              	.LBB127:
 3605              	.LBB125:
 3606 001e 0590     		str	r0, [sp, #20]
 3607              	.LBE125:
 3608              	.LBE127:
 3609              		.loc 1 1147 0
 3610 0020 0193     		str	r3, [sp, #4]
 3611 0022 5AD0     		beq	.L468
 3612              	.LVL420:
 3613              	.L442:
 3614              		.loc 1 1148 0
 3615 0024 5645     		cmp	r6, r10
 3616 0026 0DF11409 		add	r9, sp, #20
 3617              	.LVL421:
 3618 002a 5DD0     		beq	.L469
 3619              	.LVL422:
 3620              	.L444:
 3621              		.loc 1 1150 0
 3622 002c 7D68     		ldr	r5, [r7, #4]
 3623              	.LVL423:
ARM GAS  C:\Users\jo\AppData\Local\Temp\cc0IQHDm.s 			page 65


 3624 002e 75B1     		cbz	r5, .L445
 3625              		.loc 1 1151 0
 3626 0030 05F18042 		add	r2, r5, #1073741824
 3627 0034 013A     		subs	r2, r2, #1
 3628 0036 BB68     		ldr	r3, [r7, #8]
 3629 0038 53F82210 		ldr	r1, [r3, r2, lsl #2]
 3630 003c 03EB8203 		add	r3, r3, r2, lsl #2
 3631 0040 19B1     		cbz	r1, .L446
 3632 0042 04E0     		b	.L445
 3633              	.L447:
 3634 0044 53F8042D 		ldr	r2, [r3, #-4]!
 3635 0048 0AB9     		cbnz	r2, .L445
 3636              	.L446:
 3637              	.LVL424:
 3638              		.loc 1 1150 0 discriminator 2
 3639 004a 013D     		subs	r5, r5, #1
 3640              	.LVL425:
 3641 004c FAD1     		bne	.L447
 3642              	.L445:
 3643              		.loc 1 1154 0
 3644 004e DAF80440 		ldr	r4, [r10, #4]
 3645              	.LVL426:
 3646 0052 7CB1     		cbz	r4, .L448
 3647              		.loc 1 1155 0
 3648 0054 04F18042 		add	r2, r4, #1073741824
 3649 0058 013A     		subs	r2, r2, #1
 3650 005a DAF80830 		ldr	r3, [r10, #8]
 3651 005e 53F82210 		ldr	r1, [r3, r2, lsl #2]
 3652 0062 03EB8203 		add	r3, r3, r2, lsl #2
 3653 0066 19B1     		cbz	r1, .L449
 3654 0068 04E0     		b	.L448
 3655              	.L450:
 3656 006a 53F8042D 		ldr	r2, [r3, #-4]!
 3657 006e 0AB9     		cbnz	r2, .L448
 3658              	.L449:
 3659              	.LVL427:
 3660              		.loc 1 1154 0 discriminator 2
 3661 0070 013C     		subs	r4, r4, #1
 3662              	.LVL428:
 3663 0072 FAD1     		bne	.L450
 3664              	.L448:
 3665              		.loc 1 1158 0
 3666 0074 3046     		mov	r0, r6
 3667 0076 6119     		adds	r1, r4, r5
 3668 0078 FFF7FEFF 		bl	mpi_grow
 3669              	.LVL429:
 3670 007c 8346     		mov	fp, r0
 3671 007e 48B1     		cbz	r0, .L470
 3672              	.LVL430:
 3673              	.L443:
 3674              		.loc 1 1168 0
 3675 0080 4846     		mov	r0, r9
 3676 0082 FFF7FEFF 		bl	mpi_free
 3677              	.LVL431:
 3678 0086 0198     		ldr	r0, [sp, #4]
 3679 0088 FFF7FEFF 		bl	mpi_free
 3680              	.LVL432:
ARM GAS  C:\Users\jo\AppData\Local\Temp\cc0IQHDm.s 			page 66


 3681              		.loc 1 1171 0
 3682 008c 5846     		mov	r0, fp
 3683 008e 09B0     		add	sp, sp, #36
 3684              		.cfi_remember_state
 3685              		.cfi_def_cfa_offset 36
 3686              		@ sp needed
 3687 0090 BDE8F08F 		pop	{r4, r5, r6, r7, r8, r9, r10, fp, pc}
 3688              	.LVL433:
 3689              	.L470:
 3690              		.cfi_restore_state
 3691              		.loc 1 1159 0
 3692 0094 0146     		mov	r1, r0
 3693 0096 3046     		mov	r0, r6
 3694              	.LVL434:
 3695 0098 FFF7FEFF 		bl	mpi_lset
 3696              	.LVL435:
 3697 009c 8346     		mov	fp, r0
 3698 009e 0028     		cmp	r0, #0
 3699 00a0 EED1     		bne	.L443
 3700              		.loc 1 1161 0 discriminator 1
 3701 00a2 9CB1     		cbz	r4, .L453
 3702 00a4 04F1804C 		add	ip, r4, #1073741824
 3703 00a8 0CF1FF3C 		add	ip, ip, #-1
 3704 00ac 4FEA8C08 		lsl	r8, ip, #2
 3705              	.LVL436:
 3706              	.L452:
 3707              		.loc 1 1162 0 discriminator 3
 3708 00b0 B268     		ldr	r2, [r6, #8]
 3709 00b2 DAF80830 		ldr	r3, [r10, #8]
 3710 00b6 B968     		ldr	r1, [r7, #8]
 3711 00b8 53F80830 		ldr	r3, [r3, r8]
 3712 00bc 4244     		add	r2, r2, r8
 3713 00be 2846     		mov	r0, r5
 3714 00c0 FFF7FEFF 		bl	mpi_mul_hlp
 3715              	.LVL437:
 3716              		.loc 1 1161 0 discriminator 3
 3717 00c4 013C     		subs	r4, r4, #1
 3718              	.LVL438:
 3719 00c6 A8F10408 		sub	r8, r8, #4
 3720 00ca F1D1     		bne	.L452
 3721              	.L453:
 3722              		.loc 1 1164 0
 3723 00cc 3A68     		ldr	r2, [r7]
 3724 00ce DAF80030 		ldr	r3, [r10]
 3725 00d2 03FB02F3 		mul	r3, r3, r2
 3726 00d6 3360     		str	r3, [r6]
 3727 00d8 D2E7     		b	.L443
 3728              	.LVL439:
 3729              	.L468:
 3730              		.loc 1 1147 0 discriminator 1
 3731 00da 1846     		mov	r0, r3
 3732 00dc FFF7FEFF 		bl	mpi_copy
 3733              	.LVL440:
 3734 00e0 8346     		mov	fp, r0
 3735 00e2 50B9     		cbnz	r0, .L471
 3736              		.loc 1 1147 0 is_stmt 0
 3737 00e4 019F     		ldr	r7, [sp, #4]
ARM GAS  C:\Users\jo\AppData\Local\Temp\cc0IQHDm.s 			page 67


 3738              	.LVL441:
 3739 00e6 9DE7     		b	.L442
 3740              	.LVL442:
 3741              	.L469:
 3742              		.loc 1 1148 0 is_stmt 1 discriminator 1
 3743 00e8 4846     		mov	r0, r9
 3744 00ea 3146     		mov	r1, r6
 3745 00ec FFF7FEFF 		bl	mpi_copy
 3746              	.LVL443:
 3747 00f0 8346     		mov	fp, r0
 3748 00f2 0028     		cmp	r0, #0
 3749 00f4 C4D1     		bne	.L443
 3750              		.loc 1 1148 0 is_stmt 0
 3751 00f6 CA46     		mov	r10, r9
 3752              	.LVL444:
 3753 00f8 98E7     		b	.L444
 3754              	.LVL445:
 3755              	.L471:
 3756 00fa 0DF11409 		add	r9, sp, #20
 3757              	.LVL446:
 3758 00fe BFE7     		b	.L443
 3759              		.cfi_endproc
 3760              	.LFE36:
 3761              		.size	mpi_mul_mpi, .-mpi_mul_mpi
 3762              		.section	.text.mpi_read_string,"ax",%progbits
 3763              		.align	2
 3764              		.p2align 4,,15
 3765              		.global	mpi_read_string
 3766              		.thumb
 3767              		.thumb_func
 3768              		.type	mpi_read_string, %function
 3769              	mpi_read_string:
 3770              	.LFB16:
 3771              		.loc 1 402 0 is_stmt 1
 3772              		.cfi_startproc
 3773              		@ args = 0, pretend = 0, frame = 40
 3774              		@ frame_needed = 0, uses_anonymous_args = 0
 3775              	.LVL447:
 3776              		.loc 1 408 0
 3777 0000 8B1E     		subs	r3, r1, #2
 3778 0002 0E2B     		cmp	r3, #14
 3779 0004 00F29380 		bhi	.L485
 3780              		.loc 1 402 0
 3781 0008 2DE9F04F 		push	{r4, r5, r6, r7, r8, r9, r10, fp, lr}
 3782              		.cfi_def_cfa_offset 36
 3783              		.cfi_offset 4, -36
 3784              		.cfi_offset 5, -32
 3785              		.cfi_offset 6, -28
 3786              		.cfi_offset 7, -24
 3787              		.cfi_offset 8, -20
 3788              		.cfi_offset 9, -16
 3789              		.cfi_offset 10, -12
 3790              		.cfi_offset 11, -8
 3791              		.cfi_offset 14, -4
 3792 000c 8BB0     		sub	sp, sp, #44
 3793              		.cfi_def_cfa_offset 80
 3794              	.LBB128:
ARM GAS  C:\Users\jo\AppData\Local\Temp\cc0IQHDm.s 			page 68


 3795              	.LBB129:
 3796              		.loc 1 77 0
 3797 000e 0024     		movs	r4, #0
 3798 0010 0546     		mov	r5, r0
 3799              		.loc 1 76 0
 3800 0012 0127     		movs	r7, #1
 3801              	.LBE129:
 3802              	.LBE128:
 3803              		.loc 1 413 0
 3804 0014 1046     		mov	r0, r2
 3805              	.LVL448:
 3806 0016 0E46     		mov	r6, r1
 3807              	.LVL449:
 3808 0018 9246     		mov	r10, r2
 3809              	.LBB131:
 3810              	.LBB130:
 3811              		.loc 1 76 0
 3812 001a 0497     		str	r7, [sp, #16]
 3813              		.loc 1 77 0
 3814 001c 0594     		str	r4, [sp, #20]
 3815              		.loc 1 78 0
 3816 001e 0694     		str	r4, [sp, #24]
 3817              	.LBE130:
 3818              	.LBE131:
 3819              		.loc 1 413 0
 3820 0020 FFF7FEFF 		bl	strlen
 3821              	.LVL450:
 3822              		.loc 1 415 0
 3823 0024 102E     		cmp	r6, #16
 3824              		.loc 1 413 0
 3825 0026 8146     		mov	r9, r0
 3826              	.LVL451:
 3827              		.loc 1 415 0
 3828 0028 3DD0     		beq	.L502
 3829              		.loc 1 436 0
 3830 002a 2146     		mov	r1, r4
 3831 002c 2846     		mov	r0, r5
 3832              	.LVL452:
 3833 002e FFF7FEFF 		bl	mpi_lset
 3834              	.LVL453:
 3835 0032 0346     		mov	r3, r0
 3836 0034 0028     		cmp	r0, #0
 3837 0036 6DD1     		bne	.L501
 3838              	.LVL454:
 3839              		.loc 1 438 0 discriminator 1
 3840 0038 B9F1000F 		cmp	r9, #0
 3841 003c 74D0     		beq	.L500
 3842              	.LBB132:
 3843              	.LBB133:
 3844              		.loc 1 1181 0
 3845 003e B846     		mov	r8, r7
 3846              	.LBE133:
 3847              	.LBE132:
 3848              		.loc 1 438 0
 3849 0040 0446     		mov	r4, r0
 3850 0042 04AF     		add	r7, sp, #16
 3851              	.LVL455:
ARM GAS  C:\Users\jo\AppData\Local\Temp\cc0IQHDm.s 			page 69


 3852              	.LBB138:
 3853              	.LBB134:
 3854              		.loc 1 1183 0
 3855 0044 0DF10C0B 		add	fp, sp, #12
 3856 0048 07E0     		b	.L484
 3857              	.LVL456:
 3858              	.L482:
 3859              	.LBE134:
 3860              	.LBE138:
 3861              		.loc 1 455 0
 3862 004a FFF7FEFF 		bl	mpi_sub_int
 3863              	.LVL457:
 3864 004e 0346     		mov	r3, r0
 3865 0050 0028     		cmp	r0, #0
 3866 0052 60D1     		bne	.L475
 3867              	.LVL458:
 3868              	.L481:
 3869              		.loc 1 438 0 discriminator 2
 3870 0054 0134     		adds	r4, r4, #1
 3871              	.LVL459:
 3872 0056 4C45     		cmp	r4, r9
 3873 0058 67D0     		beq	.L479
 3874              	.LVL460:
 3875              	.L484:
 3876              		.loc 1 446 0
 3877 005a 3146     		mov	r1, r6
 3878 005c 02A8     		add	r0, sp, #8
 3879              		.loc 1 440 0
 3880 005e 002C     		cmp	r4, #0
 3881 0060 68D0     		beq	.L503
 3882              	.LVL461:
 3883              	.L480:
 3884              		.loc 1 446 0
 3885 0062 1AF80420 		ldrb	r2, [r10, r4]	@ zero_extendqisi2
 3886 0066 FFF7FEFF 		bl	mpi_get_digit
 3887              	.LVL462:
 3888              	.LBB139:
 3889              	.LBB135:
 3890              		.loc 1 1186 0
 3891 006a 2946     		mov	r1, r5
 3892              	.LBE135:
 3893              	.LBE139:
 3894              		.loc 1 446 0
 3895 006c 0346     		mov	r3, r0
 3896              	.LBB140:
 3897              	.LBB136:
 3898              		.loc 1 1186 0
 3899 006e 07AA     		add	r2, sp, #28
 3900              	.LBE136:
 3901              	.LBE140:
 3902              		.loc 1 446 0
 3903 0070 0028     		cmp	r0, #0
 3904 0072 50D1     		bne	.L475
 3905              	.LVL463:
 3906              	.LBB141:
 3907              	.LBB137:
 3908              		.loc 1 1186 0
ARM GAS  C:\Users\jo\AppData\Local\Temp\cc0IQHDm.s 			page 70


 3909 0074 3846     		mov	r0, r7
 3910              	.LVL464:
 3911              		.loc 1 1181 0
 3912 0076 CDF81C80 		str	r8, [sp, #28]
 3913              		.loc 1 1182 0
 3914 007a CDF82080 		str	r8, [sp, #32]
 3915              		.loc 1 1183 0
 3916 007e CDF824B0 		str	fp, [sp, #36]
 3917              		.loc 1 1184 0
 3918 0082 0396     		str	r6, [sp, #12]
 3919              		.loc 1 1186 0
 3920 0084 FFF7FEFF 		bl	mpi_mul_mpi
 3921              	.LVL465:
 3922              	.LBE137:
 3923              	.LBE141:
 3924              		.loc 1 455 0
 3925 0088 3946     		mov	r1, r7
 3926              		.loc 1 447 0
 3927 008a 0346     		mov	r3, r0
 3928 008c 0028     		cmp	r0, #0
 3929 008e 42D1     		bne	.L475
 3930              	.LVL466:
 3931              		.loc 1 449 0
 3932 0090 2B68     		ldr	r3, [r5]
 3933              		.loc 1 451 0
 3934 0092 029A     		ldr	r2, [sp, #8]
 3935              		.loc 1 449 0
 3936 0094 012B     		cmp	r3, #1
 3937              		.loc 1 455 0
 3938 0096 2846     		mov	r0, r5
 3939              		.loc 1 449 0
 3940 0098 D7D1     		bne	.L482
 3941              	.LVL467:
 3942              		.loc 1 451 0
 3943 009a FFF7FEFF 		bl	mpi_add_int
 3944              	.LVL468:
 3945 009e 0346     		mov	r3, r0
 3946 00a0 0028     		cmp	r0, #0
 3947 00a2 D7D0     		beq	.L481
 3948 00a4 37E0     		b	.L475
 3949              	.LVL469:
 3950              	.L502:
 3951              		.loc 1 417 0
 3952 00a6 8100     		lsls	r1, r0, #2
 3953 00a8 1F31     		adds	r1, r1, #31
 3954              		.loc 1 419 0
 3955 00aa 4909     		lsrs	r1, r1, #5
 3956              	.LVL470:
 3957 00ac 2846     		mov	r0, r5
 3958              	.LVL471:
 3959 00ae FFF7FEFF 		bl	mpi_grow
 3960              	.LVL472:
 3961 00b2 0346     		mov	r3, r0
 3962 00b4 70BB     		cbnz	r0, .L501
 3963              		.loc 1 420 0
 3964 00b6 0146     		mov	r1, r0
 3965 00b8 2846     		mov	r0, r5
ARM GAS  C:\Users\jo\AppData\Local\Temp\cc0IQHDm.s 			page 71


 3966              	.LVL473:
 3967 00ba FFF7FEFF 		bl	mpi_lset
 3968              	.LVL474:
 3969 00be 0346     		mov	r3, r0
 3970 00c0 40BB     		cbnz	r0, .L501
 3971              	.LVL475:
 3972              		.loc 1 422 0 discriminator 1
 3973 00c2 B9F1000F 		cmp	r9, #0
 3974 00c6 2FD0     		beq	.L500
 3975 00c8 0AEB0906 		add	r6, r10, r9
 3976              	.LVL476:
 3977              		.loc 1 422 0 is_stmt 0
 3978 00cc 0446     		mov	r4, r0
 3979 00ce 0CE0     		b	.L478
 3980              	.LVL477:
 3981              	.L505:
 3982              		.loc 1 431 0 is_stmt 1 discriminator 2
 3983 00d0 A868     		ldr	r0, [r5, #8]
 3984              	.LVL478:
 3985 00d2 029A     		ldr	r2, [sp, #8]
 3986 00d4 50F82E10 		ldr	r1, [r0, lr, lsl #2]
 3987              		.loc 1 422 0 discriminator 2
 3988 00d8 019B     		ldr	r3, [sp, #4]
 3989              		.loc 1 431 0 discriminator 2
 3990 00da BA40     		lsls	r2, r2, r7
 3991 00dc 0A43     		orrs	r2, r2, r1
 3992              		.loc 1 422 0 discriminator 2
 3993 00de 0134     		adds	r4, r4, #1
 3994              	.LVL479:
 3995              		.loc 1 431 0 discriminator 2
 3996 00e0 40F82E20 		str	r2, [r0, lr, lsl #2]
 3997              	.LVL480:
 3998              		.loc 1 422 0 discriminator 2
 3999 00e4 B9F1000F 		cmp	r9, #0
 4000 00e8 1ED0     		beq	.L500
 4001              	.LVL481:
 4002              	.L478:
 4003              		.loc 1 424 0
 4004 00ea B9F1010F 		cmp	r9, #1
 4005              		.loc 1 430 0
 4006 00ee 02A8     		add	r0, sp, #8
 4007 00f0 4FF01001 		mov	r1, #16
 4008              		.loc 1 424 0
 4009 00f4 26D0     		beq	.L504
 4010              	.L477:
 4011              		.loc 1 430 0
 4012 00f6 16F8012D 		ldrb	r2, [r6, #-1]!	@ zero_extendqisi2
 4013 00fa 0193     		str	r3, [sp, #4]
 4014 00fc FFF7FEFF 		bl	mpi_get_digit
 4015              	.LVL482:
 4016              		.loc 1 431 0
 4017 0100 04F00702 		and	r2, r4, #7
 4018 0104 4FEAD40E 		lsr	lr, r4, #3
 4019 0108 9700     		lsls	r7, r2, #2
 4020              		.loc 1 430 0
 4021 010a 09F1FF39 		add	r9, r9, #-1
 4022              	.LVL483:
ARM GAS  C:\Users\jo\AppData\Local\Temp\cc0IQHDm.s 			page 72


 4023 010e 0028     		cmp	r0, #0
 4024 0110 DED0     		beq	.L505
 4025 0112 0346     		mov	r3, r0
 4026              	.LVL484:
 4027              	.L501:
 4028 0114 04AF     		add	r7, sp, #16
 4029              	.LVL485:
 4030              	.L475:
 4031              		.loc 1 462 0
 4032 0116 3846     		mov	r0, r7
 4033 0118 0193     		str	r3, [sp, #4]
 4034              	.LVL486:
 4035 011a FFF7FEFF 		bl	mpi_free
 4036              	.LVL487:
 4037              		.loc 1 464 0
 4038 011e 019B     		ldr	r3, [sp, #4]
 4039 0120 1846     		mov	r0, r3
 4040              		.loc 1 465 0
 4041 0122 0BB0     		add	sp, sp, #44
 4042              		.cfi_remember_state
 4043              		.cfi_def_cfa_offset 36
 4044              		@ sp needed
 4045 0124 BDE8F08F 		pop	{r4, r5, r6, r7, r8, r9, r10, fp, pc}
 4046              	.LVL488:
 4047              	.L500:
 4048              		.cfi_restore_state
 4049 0128 04AF     		add	r7, sp, #16
 4050              	.LVL489:
 4051              	.L479:
 4052 012a 0023     		movs	r3, #0
 4053 012c F3E7     		b	.L475
 4054              	.LVL490:
 4055              	.L485:
 4056              		.cfi_def_cfa_offset 0
 4057              		.cfi_restore 4
 4058              		.cfi_restore 5
 4059              		.cfi_restore 6
 4060              		.cfi_restore 7
 4061              		.cfi_restore 8
 4062              		.cfi_restore 9
 4063              		.cfi_restore 10
 4064              		.cfi_restore 11
 4065              		.cfi_restore 14
 4066              		.loc 1 409 0
 4067 012e 6FF00300 		mvn	r0, #3
 4068              	.LVL491:
 4069 0132 7047     		bx	lr
 4070              	.LVL492:
 4071              	.L503:
 4072              		.cfi_def_cfa_offset 80
 4073              		.cfi_offset 4, -36
 4074              		.cfi_offset 5, -32
 4075              		.cfi_offset 6, -28
 4076              		.cfi_offset 7, -24
 4077              		.cfi_offset 8, -20
 4078              		.cfi_offset 9, -16
 4079              		.cfi_offset 10, -12
ARM GAS  C:\Users\jo\AppData\Local\Temp\cc0IQHDm.s 			page 73


 4080              		.cfi_offset 11, -8
 4081              		.cfi_offset 14, -4
 4082              		.loc 1 440 0 discriminator 1
 4083 0134 9AF80030 		ldrb	r3, [r10]	@ zero_extendqisi2
 4084 0138 2D2B     		cmp	r3, #45
 4085 013a 92D1     		bne	.L480
 4086              		.loc 1 442 0
 4087 013c 4FF0FF33 		mov	r3, #-1
 4088 0140 2B60     		str	r3, [r5]
 4089              		.loc 1 443 0
 4090 0142 87E7     		b	.L481
 4091              	.LVL493:
 4092              	.L504:
 4093              		.loc 1 424 0 discriminator 1
 4094 0144 9AF80020 		ldrb	r2, [r10]	@ zero_extendqisi2
 4095 0148 2D2A     		cmp	r2, #45
 4096 014a D4D1     		bne	.L477
 4097              		.loc 1 426 0
 4098 014c 4FF0FF32 		mov	r2, #-1
 4099 0150 2A60     		str	r2, [r5]
 4100 0152 0DEB0107 		add	r7, sp, r1
 4101              		.loc 1 427 0
 4102 0156 DEE7     		b	.L475
 4103              		.cfi_endproc
 4104              	.LFE16:
 4105              		.size	mpi_read_string, .-mpi_read_string
 4106 0158 AFF30080 		.section	.text.mpi_read_file,"ax",%progbits
 4106      AFF30080 
 4107              		.align	2
 4108              		.p2align 4,,15
 4109              		.global	mpi_read_file
 4110              		.thumb
 4111              		.thumb_func
 4112              		.type	mpi_read_file, %function
 4113              	mpi_read_file:
 4114              	.LFB19:
 4115              		.loc 1 569 0
 4116              		.cfi_startproc
 4117              		@ args = 0, pretend = 0, frame = 2488
 4118              		@ frame_needed = 0, uses_anonymous_args = 0
 4119              	.LVL494:
 4120 0000 2DE9F041 		push	{r4, r5, r6, r7, r8, lr}
 4121              		.cfi_def_cfa_offset 24
 4122              		.cfi_offset 4, -24
 4123              		.cfi_offset 5, -20
 4124              		.cfi_offset 6, -16
 4125              		.cfi_offset 7, -12
 4126              		.cfi_offset 8, -8
 4127              		.cfi_offset 14, -4
 4128 0004 ADF6B81D 		subw	sp, sp, #2488
 4129              		.cfi_def_cfa_offset 2512
 4130              		.loc 1 579 0
 4131 0008 01AE     		add	r6, sp, #4
 4132              		.loc 1 569 0
 4133 000a 1446     		mov	r4, r2
 4134 000c 8046     		mov	r8, r0
 4135              		.loc 1 579 0
ARM GAS  C:\Users\jo\AppData\Local\Temp\cc0IQHDm.s 			page 74


 4136 000e 40F6B412 		movw	r2, #2484
 4137              	.LVL495:
 4138              		.loc 1 569 0
 4139 0012 0F46     		mov	r7, r1
 4140              		.loc 1 579 0
 4141 0014 3046     		mov	r0, r6
 4142              	.LVL496:
 4143 0016 0021     		movs	r1, #0
 4144              	.LVL497:
 4145 0018 FFF7FEFF 		bl	memset
 4146              	.LVL498:
 4147              		.loc 1 580 0
 4148 001c 3046     		mov	r0, r6
 4149 001e 2246     		mov	r2, r4
 4150 0020 40F6B311 		movw	r1, #2483
 4151 0024 FFF7FEFF 		bl	fgets
 4152              	.LVL499:
 4153 0028 88B3     		cbz	r0, .L513
 4154              		.loc 1 583 0
 4155 002a 3046     		mov	r0, r6
 4156 002c FFF7FEFF 		bl	strlen
 4157              	.LVL500:
 4158              		.loc 1 584 0
 4159 0030 40F6B213 		movw	r3, #2482
 4160 0034 9842     		cmp	r0, r3
 4161 0036 27D0     		beq	.L514
 4162              		.loc 1 587 0
 4163 0038 431E     		subs	r3, r0, #1
 4164 003a F25C     		ldrb	r2, [r6, r3]	@ zero_extendqisi2
 4165 003c 0A2A     		cmp	r2, #10
 4166 003e 17D0     		beq	.L517
 4167              		.loc 1 588 0
 4168 0040 0D2A     		cmp	r2, #13
 4169 0042 1DD0     		beq	.L518
 4170              	.L509:
 4171              		.loc 1 590 0
 4172 0044 3418     		adds	r4, r6, r0
 4173              	.LVL501:
 4174              		.loc 1 591 0
 4175 0046 05E0     		b	.L510
 4176              	.LVL502:
 4177              	.L511:
 4178              		.loc 1 592 0
 4179 0048 14F8012C 		ldrb	r2, [r4, #-1]	@ zero_extendqisi2
 4180 004c FFF7FEFF 		bl	mpi_get_digit
 4181              	.LVL503:
 4182 0050 28B9     		cbnz	r0, .L512
 4183 0052 2C46     		mov	r4, r5
 4184              	.LVL504:
 4185              	.L510:
 4186              		.loc 1 591 0
 4187 0054 651E     		subs	r5, r4, #1
 4188              	.LVL505:
 4189 0056 B542     		cmp	r5, r6
 4190              		.loc 1 592 0
 4191 0058 6846     		mov	r0, sp
 4192 005a 3946     		mov	r1, r7
ARM GAS  C:\Users\jo\AppData\Local\Temp\cc0IQHDm.s 			page 75


 4193              		.loc 1 591 0
 4194 005c F4D2     		bcs	.L511
 4195              	.L512:
 4196              		.loc 1 595 0
 4197 005e 4046     		mov	r0, r8
 4198 0060 3946     		mov	r1, r7
 4199 0062 2246     		mov	r2, r4
 4200 0064 FFF7FEFF 		bl	mpi_read_string
 4201              	.LVL506:
 4202              	.L507:
 4203              		.loc 1 596 0
 4204 0068 0DF6B81D 		addw	sp, sp, #2488
 4205              		.cfi_remember_state
 4206              		.cfi_def_cfa_offset 24
 4207              		@ sp needed
 4208 006c BDE8F081 		pop	{r4, r5, r6, r7, r8, pc}
 4209              	.LVL507:
 4210              	.L517:
 4211              		.cfi_restore_state
 4212              		.loc 1 587 0 discriminator 1
 4213 0070 0022     		movs	r2, #0
 4214 0072 811E     		subs	r1, r0, #2
 4215 0074 F254     		strb	r2, [r6, r3]
 4216 0076 725C     		ldrb	r2, [r6, r1]	@ zero_extendqisi2
 4217              		.loc 1 588 0 discriminator 1
 4218 0078 0D2A     		cmp	r2, #13
 4219              		.loc 1 587 0 discriminator 1
 4220 007a 1846     		mov	r0, r3
 4221 007c 0B46     		mov	r3, r1
 4222              	.LVL508:
 4223              		.loc 1 588 0 discriminator 1
 4224 007e E1D1     		bne	.L509
 4225              	.L518:
 4226              	.LVL509:
 4227 0080 0022     		movs	r2, #0
 4228 0082 F254     		strb	r2, [r6, r3]
 4229 0084 1846     		mov	r0, r3
 4230 0086 DDE7     		b	.L509
 4231              	.LVL510:
 4232              	.L514:
 4233              		.loc 1 585 0
 4234 0088 6FF00700 		mvn	r0, #7
 4235              	.LVL511:
 4236 008c ECE7     		b	.L507
 4237              	.L513:
 4238              		.loc 1 581 0
 4239 008e 6FF00100 		mvn	r0, #1
 4240 0092 E9E7     		b	.L507
 4241              		.cfi_endproc
 4242              	.LFE19:
 4243              		.size	mpi_read_file, .-mpi_read_file
 4244 0094 AFF30080 		.section	.text.mpi_mul_int,"ax",%progbits
 4244      AFF30080 
 4244      AFF30080 
 4245              		.align	2
 4246              		.p2align 4,,15
 4247              		.global	mpi_mul_int
ARM GAS  C:\Users\jo\AppData\Local\Temp\cc0IQHDm.s 			page 76


 4248              		.thumb
 4249              		.thumb_func
 4250              		.type	mpi_mul_int, %function
 4251              	mpi_mul_int:
 4252              	.LFB37:
 4253              		.loc 1 1177 0
 4254              		.cfi_startproc
 4255              		@ args = 0, pretend = 0, frame = 16
 4256              		@ frame_needed = 0, uses_anonymous_args = 0
 4257              	.LVL512:
 4258 0000 00B5     		push	{lr}
 4259              		.cfi_def_cfa_offset 4
 4260              		.cfi_offset 14, -4
 4261 0002 85B0     		sub	sp, sp, #20
 4262              		.cfi_def_cfa_offset 24
 4263              		.loc 1 1181 0
 4264 0004 0123     		movs	r3, #1
 4265              		.loc 1 1184 0
 4266 0006 0092     		str	r2, [sp]
 4267              		.loc 1 1186 0
 4268 0008 01AA     		add	r2, sp, #4
 4269              	.LVL513:
 4270              		.loc 1 1181 0
 4271 000a 0193     		str	r3, [sp, #4]
 4272              		.loc 1 1182 0
 4273 000c 0293     		str	r3, [sp, #8]
 4274              		.loc 1 1183 0
 4275 000e CDF80CD0 		str	sp, [sp, #12]
 4276              		.loc 1 1186 0
 4277 0012 FFF7FEFF 		bl	mpi_mul_mpi
 4278              	.LVL514:
 4279              		.loc 1 1187 0
 4280 0016 05B0     		add	sp, sp, #20
 4281              		.cfi_def_cfa_offset 4
 4282              		@ sp needed
 4283 0018 5DF804FB 		ldr	pc, [sp], #4
 4284              		.cfi_endproc
 4285              	.LFE37:
 4286              		.size	mpi_mul_int, .-mpi_mul_int
 4287              		.global	__aeabi_uldivmod
 4288              		.section	.text.mpi_div_mpi,"ax",%progbits
 4289              		.align	2
 4290              		.p2align 4,,15
 4291              		.global	mpi_div_mpi
 4292              		.thumb
 4293              		.thumb_func
 4294              		.type	mpi_div_mpi, %function
 4295              	mpi_div_mpi:
 4296              	.LFB38:
 4297              		.loc 1 1193 0
 4298              		.cfi_startproc
 4299              		@ args = 0, pretend = 0, frame = 144
 4300              		@ frame_needed = 0, uses_anonymous_args = 0
 4301              	.LVL515:
 4302 0000 2DE9F04F 		push	{r4, r5, r6, r7, r8, r9, r10, fp, lr}
 4303              		.cfi_def_cfa_offset 36
 4304              		.cfi_offset 4, -36
ARM GAS  C:\Users\jo\AppData\Local\Temp\cc0IQHDm.s 			page 77


 4305              		.cfi_offset 5, -32
 4306              		.cfi_offset 6, -28
 4307              		.cfi_offset 7, -24
 4308              		.cfi_offset 8, -20
 4309              		.cfi_offset 9, -16
 4310              		.cfi_offset 10, -12
 4311              		.cfi_offset 11, -8
 4312              		.cfi_offset 14, -4
 4313 0004 A5B0     		sub	sp, sp, #148
 4314              		.cfi_def_cfa_offset 184
 4315              		.loc 1 1193 0
 4316 0006 0746     		mov	r7, r0
 4317 0008 0191     		str	r1, [sp, #4]
 4318              		.loc 1 1198 0
 4319 000a 1846     		mov	r0, r3
 4320              	.LVL516:
 4321 000c 0021     		movs	r1, #0
 4322              	.LVL517:
 4323              		.loc 1 1193 0
 4324 000e 1D46     		mov	r5, r3
 4325 0010 1646     		mov	r6, r2
 4326              		.loc 1 1198 0
 4327 0012 FFF7FEFF 		bl	mpi_cmp_int
 4328              	.LVL518:
 4329 0016 0028     		cmp	r0, #0
 4330 0018 00F08B80 		beq	.L544
 4331              	.LVL519:
 4332              	.LBB142:
 4333              	.LBB143:
 4334              		.loc 1 77 0
 4335 001c 0024     		movs	r4, #0
 4336              		.loc 1 76 0
 4337 001e 4FF0010A 		mov	r10, #1
 4338              	.LBE143:
 4339              	.LBE142:
 4340              		.loc 1 1204 0
 4341 0022 3046     		mov	r0, r6
 4342 0024 2946     		mov	r1, r5
 4343              	.LBB146:
 4344              	.LBB144:
 4345              		.loc 1 76 0
 4346 0026 CDF848A0 		str	r10, [sp, #72]
 4347              	.LBE144:
 4348              	.LBE146:
 4349              	.LBB147:
 4350              	.LBB148:
 4351 002a CDF854A0 		str	r10, [sp, #84]
 4352              	.LBE148:
 4353              	.LBE147:
 4354              	.LBB150:
 4355              	.LBB151:
 4356 002e CDF860A0 		str	r10, [sp, #96]
 4357              	.LBE151:
 4358              	.LBE150:
 4359              	.LBB153:
 4360              	.LBB154:
 4361 0032 CDF86CA0 		str	r10, [sp, #108]
ARM GAS  C:\Users\jo\AppData\Local\Temp\cc0IQHDm.s 			page 78


 4362              	.LBE154:
 4363              	.LBE153:
 4364              	.LBB156:
 4365              	.LBB157:
 4366 0036 CDF878A0 		str	r10, [sp, #120]
 4367              	.LBE157:
 4368              	.LBE156:
 4369              	.LBB159:
 4370              	.LBB145:
 4371              		.loc 1 77 0
 4372 003a 1394     		str	r4, [sp, #76]
 4373              		.loc 1 78 0
 4374 003c 1494     		str	r4, [sp, #80]
 4375              	.LVL520:
 4376              	.LBE145:
 4377              	.LBE159:
 4378              	.LBB160:
 4379              	.LBB149:
 4380              		.loc 1 77 0
 4381 003e 1694     		str	r4, [sp, #88]
 4382              		.loc 1 78 0
 4383 0040 1794     		str	r4, [sp, #92]
 4384              	.LVL521:
 4385              	.LBE149:
 4386              	.LBE160:
 4387              	.LBB161:
 4388              	.LBB152:
 4389              		.loc 1 77 0
 4390 0042 1994     		str	r4, [sp, #100]
 4391              		.loc 1 78 0
 4392 0044 1A94     		str	r4, [sp, #104]
 4393              	.LVL522:
 4394              	.LBE152:
 4395              	.LBE161:
 4396              	.LBB162:
 4397              	.LBB155:
 4398              		.loc 1 77 0
 4399 0046 1C94     		str	r4, [sp, #112]
 4400              		.loc 1 78 0
 4401 0048 1D94     		str	r4, [sp, #116]
 4402              	.LVL523:
 4403              	.LBE155:
 4404              	.LBE162:
 4405              	.LBB163:
 4406              	.LBB158:
 4407              		.loc 1 77 0
 4408 004a 1F94     		str	r4, [sp, #124]
 4409              		.loc 1 78 0
 4410 004c 2094     		str	r4, [sp, #128]
 4411              	.LBE158:
 4412              	.LBE163:
 4413              		.loc 1 1204 0
 4414 004e FFF7FEFF 		bl	mpi_cmp_abs
 4415              	.LVL524:
 4416 0052 A042     		cmp	r0, r4
 4417 0054 26DB     		blt	.L582
 4418              		.loc 1 1211 0
ARM GAS  C:\Users\jo\AppData\Local\Temp\cc0IQHDm.s 			page 79


 4419 0056 0DF1480C 		add	ip, sp, #72
 4420              	.LVL525:
 4421 005a 6046     		mov	r0, ip
 4422 005c 3146     		mov	r1, r6
 4423 005e CDF808C0 		str	ip, [sp, #8]
 4424 0062 FFF7FEFF 		bl	mpi_copy
 4425              	.LVL526:
 4426 0066 DDF808C0 		ldr	ip, [sp, #8]
 4427 006a 0446     		mov	r4, r0
 4428 006c A0B3     		cbz	r0, .L571
 4429 006e 0DF15408 		add	r8, sp, #84
 4430              	.LVL527:
 4431 0072 0DF16009 		add	r9, sp, #96
 4432              	.LVL528:
 4433 0076 0DF16C0A 		add	r10, sp, #108
 4434              	.LVL529:
 4435 007a 0DF1780B 		add	fp, sp, #120
 4436              	.LVL530:
 4437              	.L527:
 4438              		.loc 1 1347 0
 4439 007e 6046     		mov	r0, ip
 4440 0080 FFF7FEFF 		bl	mpi_free
 4441              	.LVL531:
 4442 0084 4046     		mov	r0, r8
 4443 0086 FFF7FEFF 		bl	mpi_free
 4444              	.LVL532:
 4445 008a 4846     		mov	r0, r9
 4446 008c FFF7FEFF 		bl	mpi_free
 4447              	.LVL533:
 4448              		.loc 1 1348 0
 4449 0090 5046     		mov	r0, r10
 4450 0092 FFF7FEFF 		bl	mpi_free
 4451              	.LVL534:
 4452 0096 5846     		mov	r0, fp
 4453 0098 FFF7FEFF 		bl	mpi_free
 4454              	.LVL535:
 4455              		.loc 1 1350 0
 4456 009c 2046     		mov	r0, r4
 4457              	.LVL536:
 4458              	.L522:
 4459              		.loc 1 1351 0
 4460 009e 25B0     		add	sp, sp, #148
 4461              		.cfi_remember_state
 4462              		.cfi_def_cfa_offset 36
 4463              		@ sp needed
 4464 00a0 BDE8F08F 		pop	{r4, r5, r6, r7, r8, r9, r10, fp, pc}
 4465              	.LVL537:
 4466              	.L582:
 4467              		.cfi_restore_state
 4468              		.loc 1 1206 0
 4469 00a4 2FB1     		cbz	r7, .L528
 4470              		.loc 1 1206 0 is_stmt 0 discriminator 1
 4471 00a6 2146     		mov	r1, r4
 4472 00a8 3846     		mov	r0, r7
 4473 00aa FFF7FEFF 		bl	mpi_lset
 4474              	.LVL538:
 4475 00ae 0446     		mov	r4, r0
ARM GAS  C:\Users\jo\AppData\Local\Temp\cc0IQHDm.s 			page 80


 4476 00b0 38B9     		cbnz	r0, .L579
 4477              	.LVL539:
 4478              	.L528:
 4479              		.loc 1 1207 0 is_stmt 1
 4480 00b2 019B     		ldr	r3, [sp, #4]
 4481 00b4 1BB3     		cbz	r3, .L526
 4482              		.loc 1 1207 0 is_stmt 0 discriminator 1
 4483 00b6 0198     		ldr	r0, [sp, #4]
 4484 00b8 3146     		mov	r1, r6
 4485 00ba FFF7FEFF 		bl	mpi_copy
 4486              	.LVL540:
 4487 00be 0446     		mov	r4, r0
 4488 00c0 E8B1     		cbz	r0, .L526
 4489              	.L579:
 4490 00c2 0DF1480C 		add	ip, sp, #72
 4491              	.LVL541:
 4492 00c6 0DF15408 		add	r8, sp, #84
 4493              	.LVL542:
 4494 00ca 0DF16009 		add	r9, sp, #96
 4495              	.LVL543:
 4496 00ce 0DF16C0A 		add	r10, sp, #108
 4497              	.LVL544:
 4498 00d2 0DF1780B 		add	fp, sp, #120
 4499              	.LVL545:
 4500 00d6 D2E7     		b	.L527
 4501              	.LVL546:
 4502              	.L571:
 4503              		.loc 1 1212 0 is_stmt 1
 4504 00d8 0DF15408 		add	r8, sp, #84
 4505              	.LVL547:
 4506 00dc 4046     		mov	r0, r8
 4507              	.LVL548:
 4508 00de 2946     		mov	r1, r5
 4509 00e0 CDF808C0 		str	ip, [sp, #8]
 4510              	.LVL549:
 4511 00e4 FFF7FEFF 		bl	mpi_copy
 4512              	.LVL550:
 4513 00e8 DDF808C0 		ldr	ip, [sp, #8]
 4514 00ec 0446     		mov	r4, r0
 4515 00ee 50B1     		cbz	r0, .L572
 4516 00f0 0DF16009 		add	r9, sp, #96
 4517              	.LVL551:
 4518 00f4 0DF16C0A 		add	r10, sp, #108
 4519              	.LVL552:
 4520 00f8 0DF1780B 		add	fp, sp, #120
 4521              	.LVL553:
 4522 00fc BFE7     		b	.L527
 4523              	.LVL554:
 4524              	.L526:
 4525              		.loc 1 1208 0
 4526 00fe 0020     		movs	r0, #0
 4527              		.loc 1 1351 0
 4528 0100 25B0     		add	sp, sp, #148
 4529              		.cfi_remember_state
 4530              		.cfi_def_cfa_offset 36
 4531              		@ sp needed
 4532 0102 BDE8F08F 		pop	{r4, r5, r6, r7, r8, r9, r10, fp, pc}
ARM GAS  C:\Users\jo\AppData\Local\Temp\cc0IQHDm.s 			page 81


 4533              	.LVL555:
 4534              	.L572:
 4535              		.cfi_restore_state
 4536              		.loc 1 1215 0
 4537 0106 7168     		ldr	r1, [r6, #4]
 4538 0108 CDF808C0 		str	ip, [sp, #8]
 4539 010c 0DF16009 		add	r9, sp, #96
 4540              	.LVL556:
 4541 0110 0231     		adds	r1, r1, #2
 4542 0112 4846     		mov	r0, r9
 4543              	.LVL557:
 4544              		.loc 1 1213 0
 4545 0114 CDF854A0 		str	r10, [sp, #84]
 4546 0118 CDF848A0 		str	r10, [sp, #72]
 4547              		.loc 1 1215 0
 4548 011c FFF7FEFF 		bl	mpi_grow
 4549              	.LVL558:
 4550 0120 DDF808C0 		ldr	ip, [sp, #8]
 4551 0124 0446     		mov	r4, r0
 4552 0126 38B1     		cbz	r0, .L583
 4553              	.L580:
 4554 0128 0DF16C0A 		add	r10, sp, #108
 4555              	.LVL559:
 4556 012c 0DF1780B 		add	fp, sp, #120
 4557              	.LVL560:
 4558 0130 A5E7     		b	.L527
 4559              	.LVL561:
 4560              	.L544:
 4561              		.loc 1 1199 0
 4562 0132 6FF00B00 		mvn	r0, #11
 4563 0136 B2E7     		b	.L522
 4564              	.LVL562:
 4565              	.L583:
 4566              		.loc 1 1216 0
 4567 0138 0146     		mov	r1, r0
 4568 013a 4846     		mov	r0, r9
 4569              	.LVL563:
 4570 013c CDF808C0 		str	ip, [sp, #8]
 4571 0140 FFF7FEFF 		bl	mpi_lset
 4572              	.LVL564:
 4573 0144 DDF808C0 		ldr	ip, [sp, #8]
 4574 0148 0446     		mov	r4, r0
 4575 014a 0028     		cmp	r0, #0
 4576 014c ECD1     		bne	.L580
 4577              		.loc 1 1217 0
 4578 014e 0DF16C0A 		add	r10, sp, #108
 4579              	.LVL565:
 4580 0152 5046     		mov	r0, r10
 4581              	.LVL566:
 4582 0154 0221     		movs	r1, #2
 4583 0156 CDF808C0 		str	ip, [sp, #8]
 4584 015a FFF7FEFF 		bl	mpi_grow
 4585              	.LVL567:
 4586 015e DDF808C0 		ldr	ip, [sp, #8]
 4587 0162 0446     		mov	r4, r0
 4588 0164 10B1     		cbz	r0, .L575
 4589 0166 0DF1780B 		add	fp, sp, #120
ARM GAS  C:\Users\jo\AppData\Local\Temp\cc0IQHDm.s 			page 82


 4590              	.LVL568:
 4591 016a 88E7     		b	.L527
 4592              	.LVL569:
 4593              	.L575:
 4594              		.loc 1 1218 0
 4595 016c 0DF1780B 		add	fp, sp, #120
 4596              	.LVL570:
 4597 0170 5846     		mov	r0, fp
 4598              	.LVL571:
 4599 0172 0321     		movs	r1, #3
 4600 0174 CDF808C0 		str	ip, [sp, #8]
 4601 0178 FFF7FEFF 		bl	mpi_grow
 4602              	.LVL572:
 4603 017c DDF808C0 		ldr	ip, [sp, #8]
 4604 0180 0446     		mov	r4, r0
 4605 0182 0028     		cmp	r0, #0
 4606 0184 7FF47BAF 		bne	.L527
 4607              		.loc 1 1220 0
 4608 0188 4046     		mov	r0, r8
 4609              	.LVL573:
 4610 018a FFF7FEFF 		bl	mpi_msb
 4611              	.LVL574:
 4612 018e 00F01F00 		and	r0, r0, #31
 4613              	.LVL575:
 4614              		.loc 1 1221 0
 4615 0192 1F28     		cmp	r0, #31
 4616 0194 DDF808C0 		ldr	ip, [sp, #8]
 4617 0198 00F0D580 		beq	.L545
 4618              		.loc 1 1223 0
 4619 019c C0F11F03 		rsb	r3, r0, #31
 4620              		.loc 1 1224 0
 4621 01a0 1946     		mov	r1, r3
 4622 01a2 6046     		mov	r0, ip
 4623              	.LVL576:
 4624              		.loc 1 1223 0
 4625 01a4 0693     		str	r3, [sp, #24]
 4626              	.LVL577:
 4627              		.loc 1 1224 0
 4628 01a6 FFF7FEFF 		bl	mpi_shift_l
 4629              	.LVL578:
 4630 01aa DDF808C0 		ldr	ip, [sp, #8]
 4631 01ae 0446     		mov	r4, r0
 4632 01b0 0028     		cmp	r0, #0
 4633 01b2 7FF464AF 		bne	.L527
 4634              		.loc 1 1225 0
 4635 01b6 4046     		mov	r0, r8
 4636              	.LVL579:
 4637 01b8 0699     		ldr	r1, [sp, #24]
 4638 01ba FFF7FEFF 		bl	mpi_shift_l
 4639              	.LVL580:
 4640 01be DDF808C0 		ldr	ip, [sp, #8]
 4641 01c2 0446     		mov	r4, r0
 4642 01c4 0028     		cmp	r0, #0
 4643 01c6 7FF45AAF 		bne	.L527
 4644              	.LVL581:
 4645              	.L529:
 4646              		.loc 1 1229 0
ARM GAS  C:\Users\jo\AppData\Local\Temp\cc0IQHDm.s 			page 83


 4647 01ca 139B     		ldr	r3, [sp, #76]
 4648              		.loc 1 1230 0
 4649 01cc 169A     		ldr	r2, [sp, #88]
 4650              		.loc 1 1229 0
 4651 01ce 0293     		str	r3, [sp, #8]
 4652              		.loc 1 1230 0
 4653 01d0 0592     		str	r2, [sp, #20]
 4654              		.loc 1 1229 0
 4655 01d2 013B     		subs	r3, r3, #1
 4656              		.loc 1 1230 0
 4657 01d4 013A     		subs	r2, r2, #1
 4658              		.loc 1 1229 0
 4659 01d6 0393     		str	r3, [sp, #12]
 4660              	.LVL582:
 4661              		.loc 1 1231 0
 4662 01d8 9B1A     		subs	r3, r3, r2
 4663              	.LVL583:
 4664              		.loc 1 1230 0
 4665 01da 0492     		str	r2, [sp, #16]
 4666              	.LVL584:
 4667              		.loc 1 1231 0
 4668 01dc 5A01     		lsls	r2, r3, #5
 4669              	.LVL585:
 4670 01de 1146     		mov	r1, r2
 4671 01e0 4046     		mov	r0, r8
 4672 01e2 CDF82CC0 		str	ip, [sp, #44]
 4673 01e6 0A93     		str	r3, [sp, #40]
 4674 01e8 0792     		str	r2, [sp, #28]
 4675 01ea FFF7FEFF 		bl	mpi_shift_l
 4676              	.LVL586:
 4677 01ee 0A9B     		ldr	r3, [sp, #40]
 4678 01f0 DDF82CC0 		ldr	ip, [sp, #44]
 4679 01f4 0446     		mov	r4, r0
 4680 01f6 0028     		cmp	r0, #0
 4681 01f8 7FF441AF 		bne	.L527
 4682              		.loc 1 1235 0
 4683 01fc 9B00     		lsls	r3, r3, #2
 4684 01fe 4446     		mov	r4, r8
 4685 0200 0A93     		str	r3, [sp, #40]
 4686 0202 0B95     		str	r5, [sp, #44]
 4687 0204 E046     		mov	r8, ip
 4688              	.LVL587:
 4689 0206 0CE0     		b	.L530
 4690              	.LVL588:
 4691              	.L531:
 4692 0208 DDF868E0 		ldr	lr, [sp, #104]
 4693 020c 0A9D     		ldr	r5, [sp, #40]
 4694 020e 5EF80530 		ldr	r3, [lr, r5]
 4695 0212 0133     		adds	r3, r3, #1
 4696 0214 4EF80530 		str	r3, [lr, r5]
 4697              		.loc 1 1236 0
 4698 0218 FFF7FEFF 		bl	mpi_sub_mpi
 4699              	.LVL589:
 4700 021c 0028     		cmp	r0, #0
 4701 021e 40F09480 		bne	.L577
 4702              	.L530:
 4703              		.loc 1 1233 0
ARM GAS  C:\Users\jo\AppData\Local\Temp\cc0IQHDm.s 			page 84


 4704 0222 2146     		mov	r1, r4
 4705 0224 4046     		mov	r0, r8
 4706              	.LVL590:
 4707 0226 FFF7FEFF 		bl	mpi_cmp_mpi
 4708              	.LVL591:
 4709 022a 0028     		cmp	r0, #0
 4710              		.loc 1 1236 0
 4711 022c 4146     		mov	r1, r8
 4712 022e 2246     		mov	r2, r4
 4713 0230 4046     		mov	r0, r8
 4714              		.loc 1 1233 0
 4715 0232 E9DA     		bge	.L531
 4716              	.LVL592:
 4717              		.loc 1 1238 0
 4718 0234 2046     		mov	r0, r4
 4719 0236 0799     		ldr	r1, [sp, #28]
 4720 0238 CDF82880 		str	r8, [sp, #40]
 4721 023c 0B9D     		ldr	r5, [sp, #44]
 4722 023e FFF7FEFF 		bl	mpi_shift_r
 4723              	.LVL593:
 4724 0242 A046     		mov	r8, r4
 4725 0244 DDF828C0 		ldr	ip, [sp, #40]
 4726 0248 0446     		mov	r4, r0
 4727              	.LVL594:
 4728 024a 0028     		cmp	r0, #0
 4729 024c 7FF417AF 		bne	.L527
 4730 0250 0299     		ldr	r1, [sp, #8]
 4731 0252 0598     		ldr	r0, [sp, #20]
 4732              	.LVL595:
 4733 0254 0E96     		str	r6, [sp, #56]
 4734 0256 01F10062 		add	r2, r1, #134217728
 4735 025a 01F18043 		add	r3, r1, #1073741824
 4736              		.loc 1 1242 0
 4737 025e 0499     		ldr	r1, [sp, #16]
 4738 0260 0C94     		str	r4, [sp, #48]
 4739 0262 013A     		subs	r2, r2, #1
 4740 0264 8900     		lsls	r1, r1, #2
 4741 0266 121A     		subs	r2, r2, r0
 4742 0268 013B     		subs	r3, r3, #1
 4743 026a 0791     		str	r1, [sp, #28]
 4744 026c 5201     		lsls	r2, r2, #5
 4745 026e 0592     		str	r2, [sp, #20]
 4746 0270 9A00     		lsls	r2, r3, #2
 4747              		.loc 1 1305 0
 4748 0272 079B     		ldr	r3, [sp, #28]
 4749 0274 0292     		str	r2, [sp, #8]
 4750 0276 6FF00301 		mvn	r1, #3
 4751 027a 0B44     		add	r3, r3, r1
 4752 027c 0B93     		str	r3, [sp, #44]
 4753              	.LVL596:
 4754 027e 0346     		mov	r3, r0
 4755 0280 01FB03F3 		mul	r3, r1, r3
 4756 0284 0A93     		str	r3, [sp, #40]
 4757 0286 0D97     		str	r7, [sp, #52]
 4758 0288 0F95     		str	r5, [sp, #60]
 4759 028a 6646     		mov	r6, ip
 4760              	.LVL597:
ARM GAS  C:\Users\jo\AppData\Local\Temp\cc0IQHDm.s 			page 85


 4761              	.L532:
 4762              		.loc 1 1240 0 discriminator 1
 4763 028c 039B     		ldr	r3, [sp, #12]
 4764 028e 049A     		ldr	r2, [sp, #16]
 4765 0290 9342     		cmp	r3, r2
 4766 0292 7ED9     		bls	.L584
 4767              		.loc 1 1242 0
 4768 0294 149B     		ldr	r3, [sp, #80]
 4769 0296 179A     		ldr	r2, [sp, #92]
 4770 0298 0299     		ldr	r1, [sp, #8]
 4771 029a 0798     		ldr	r0, [sp, #28]
 4772 029c 5958     		ldr	r1, [r3, r1]
 4773 029e 1258     		ldr	r2, [r2, r0]
 4774 02a0 9142     		cmp	r1, r2
 4775 02a2 59D3     		bcc	.L533
 4776              		.loc 1 1243 0
 4777 02a4 1A9B     		ldr	r3, [sp, #104]
 4778 02a6 029A     		ldr	r2, [sp, #8]
 4779 02a8 0A98     		ldr	r0, [sp, #40]
 4780 02aa 9A18     		adds	r2, r3, r2
 4781 02ac 4FF0FF31 		mov	r1, #-1
 4782 02b0 1150     		str	r1, [r2, r0]
 4783              	.L534:
 4784 02b2 029C     		ldr	r4, [sp, #8]
 4785 02b4 0A9A     		ldr	r2, [sp, #40]
 4786 02b6 A518     		adds	r5, r4, r2
 4787 02b8 A4F10802 		sub	r2, r4, #8
 4788 02bc 0292     		str	r2, [sp, #8]
 4789              		.loc 1 1299 0
 4790 02be 5A59     		ldr	r2, [r3, r5]
 4791 02c0 0132     		adds	r2, r2, #1
 4792 02c2 5A51     		str	r2, [r3, r5]
 4793 02c4 271F     		subs	r7, r4, #4
 4794 02c6 2FE0     		b	.L538
 4795              	.LVL598:
 4796              	.L586:
 4797              		.loc 1 1305 0 discriminator 1
 4798 02c8 179B     		ldr	r3, [sp, #92]
 4799 02ca 0B99     		ldr	r1, [sp, #44]
 4800 02cc 5958     		ldr	r1, [r3, r1]
 4801              	.L536:
 4802              		.loc 1 1305 0 is_stmt 0 discriminator 4
 4803 02ce 1160     		str	r1, [r2]
 4804              		.loc 1 1306 0 is_stmt 1 discriminator 4
 4805 02d0 0799     		ldr	r1, [sp, #28]
 4806 02d2 5958     		ldr	r1, [r3, r1]
 4807              		.loc 1 1307 0 discriminator 4
 4808 02d4 1A9B     		ldr	r3, [sp, #104]
 4809              		.loc 1 1306 0 discriminator 4
 4810 02d6 5160     		str	r1, [r2, #4]
 4811              		.loc 1 1307 0 discriminator 4
 4812 02d8 5B59     		ldr	r3, [r3, r5]
 4813              	.LVL599:
 4814              	.LBB164:
 4815              	.LBB165:
 4816              		.loc 1 1184 0 discriminator 4
 4817 02da 1193     		str	r3, [sp, #68]
ARM GAS  C:\Users\jo\AppData\Local\Temp\cc0IQHDm.s 			page 86


 4818              		.loc 1 1181 0 discriminator 4
 4819 02dc 0123     		movs	r3, #1
 4820              	.LVL600:
 4821              		.loc 1 1186 0 discriminator 4
 4822 02de 5146     		mov	r1, r10
 4823              		.loc 1 1181 0 discriminator 4
 4824 02e0 2193     		str	r3, [sp, #132]
 4825              		.loc 1 1182 0 discriminator 4
 4826 02e2 2293     		str	r3, [sp, #136]
 4827              		.loc 1 1186 0 discriminator 4
 4828 02e4 21AA     		add	r2, sp, #132
 4829              		.loc 1 1183 0 discriminator 4
 4830 02e6 11AB     		add	r3, sp, #68
 4831              	.LVL601:
 4832              		.loc 1 1186 0 discriminator 4
 4833 02e8 5046     		mov	r0, r10
 4834              	.LVL602:
 4835              		.loc 1 1183 0 discriminator 4
 4836 02ea 2393     		str	r3, [sp, #140]
 4837              		.loc 1 1186 0 discriminator 4
 4838 02ec FFF7FEFF 		bl	mpi_mul_mpi
 4839              	.LVL603:
 4840              	.LBE165:
 4841              	.LBE164:
 4842              		.loc 1 1307 0 discriminator 4
 4843 02f0 0146     		mov	r1, r0
 4844 02f2 0028     		cmp	r0, #0
 4845 02f4 40F0B080 		bne	.L553
 4846              		.loc 1 1309 0
 4847 02f8 5846     		mov	r0, fp
 4848 02fa FFF7FEFF 		bl	mpi_lset
 4849              	.LVL604:
 4850 02fe 40BB     		cbnz	r0, .L556
 4851              		.loc 1 1310 0
 4852 0300 039B     		ldr	r3, [sp, #12]
 4853 0302 209A     		ldr	r2, [sp, #128]
 4854 0304 012B     		cmp	r3, #1
 4855 0306 18BF     		it	ne
 4856 0308 0299     		ldrne	r1, [sp, #8]
 4857 030a 149B     		ldr	r3, [sp, #80]
 4858 030c 18BF     		it	ne
 4859 030e 5858     		ldrne	r0, [r3, r1]
 4860              	.LVL605:
 4861 0310 1060     		str	r0, [r2]
 4862              		.loc 1 1311 0
 4863 0312 D959     		ldr	r1, [r3, r7]
 4864 0314 5160     		str	r1, [r2, #4]
 4865              		.loc 1 1312 0
 4866 0316 1B59     		ldr	r3, [r3, r4]
 4867 0318 9360     		str	r3, [r2, #8]
 4868              		.loc 1 1314 0
 4869 031a 5046     		mov	r0, r10
 4870 031c 5946     		mov	r1, fp
 4871 031e FFF7FEFF 		bl	mpi_cmp_mpi
 4872              	.LVL606:
 4873 0322 0028     		cmp	r0, #0
 4874 0324 1A9B     		ldr	r3, [sp, #104]
ARM GAS  C:\Users\jo\AppData\Local\Temp\cc0IQHDm.s 			page 87


 4875 0326 6FDD     		ble	.L585
 4876              	.LVL607:
 4877              	.L538:
 4878              		.loc 1 1302 0
 4879 0328 5A59     		ldr	r2, [r3, r5]
 4880 032a 013A     		subs	r2, r2, #1
 4881 032c 5A51     		str	r2, [r3, r5]
 4882              		.loc 1 1304 0
 4883 032e 5046     		mov	r0, r10
 4884 0330 0021     		movs	r1, #0
 4885 0332 FFF7FEFF 		bl	mpi_lset
 4886              	.LVL608:
 4887 0336 60B9     		cbnz	r0, .L556
 4888              		.loc 1 1305 0
 4889 0338 049B     		ldr	r3, [sp, #16]
 4890 033a 1D9A     		ldr	r2, [sp, #116]
 4891 033c 002B     		cmp	r3, #0
 4892 033e C3D1     		bne	.L586
 4893 0340 179B     		ldr	r3, [sp, #92]
 4894 0342 0499     		ldr	r1, [sp, #16]
 4895 0344 C3E7     		b	.L536
 4896              	.LVL609:
 4897              	.L545:
 4898              		.loc 1 1227 0
 4899 0346 0694     		str	r4, [sp, #24]
 4900 0348 3FE7     		b	.L529
 4901              	.LVL610:
 4902              	.L577:
 4903 034a C446     		mov	ip, r8
 4904 034c A046     		mov	r8, r4
 4905              	.LVL611:
 4906              	.L581:
 4907 034e 0446     		mov	r4, r0
 4908 0350 95E6     		b	.L527
 4909              	.LVL612:
 4910              	.L556:
 4911 0352 B446     		mov	ip, r6
 4912 0354 0446     		mov	r4, r0
 4913 0356 92E6     		b	.L527
 4914              	.LVL613:
 4915              	.L533:
 4916              	.LBB166:
 4917              		.loc 1 1250 0
 4918 0358 029F     		ldr	r7, [sp, #8]
 4919              		.loc 1 1249 0
 4920 035a 0991     		str	r1, [sp, #36]
 4921              		.loc 1 1250 0
 4922 035c 3B44     		add	r3, r3, r7
 4923 035e 53F8040C 		ldr	r0, [r3, #-4]
 4924              		.loc 1 1249 0
 4925 0362 0023     		movs	r3, #0
 4926 0364 0893     		str	r3, [sp, #32]
 4927              	.LVL614:
 4928              		.loc 1 1251 0
 4929 0366 DDE90845 		ldrd	r4, [sp, #32]
 4930 036a 44EA0004 		orr	r4, r4, r0
 4931              	.LVL615:
ARM GAS  C:\Users\jo\AppData\Local\Temp\cc0IQHDm.s 			page 88


 4932 036e 2046     		mov	r0, r4
 4933 0370 2946     		mov	r1, r5
 4934 0372 FFF7FEFF 		bl	__aeabi_uldivmod
 4935              	.LVL616:
 4936 0376 0025     		movs	r5, #0
 4937              		.loc 1 1255 0
 4938 0378 1A9B     		ldr	r3, [sp, #104]
 4939 037a 8D42     		cmp	r5, r1
 4940 037c 4FF0FF34 		mov	r4, #-1
 4941 0380 03EB0702 		add	r2, r3, r7
 4942 0384 08BF     		it	eq
 4943 0386 8442     		cmpeq	r4, r0
 4944 0388 0A9D     		ldr	r5, [sp, #40]
 4945 038a 38BF     		it	cc
 4946 038c 2046     		movcc	r0, r4
 4947              	.LVL617:
 4948 038e 5051     		str	r0, [r2, r5]
 4949 0390 8FE7     		b	.L534
 4950              	.LVL618:
 4951              	.L584:
 4952 0392 0D9F     		ldr	r7, [sp, #52]
 4953 0394 0C9C     		ldr	r4, [sp, #48]
 4954 0396 0F9D     		ldr	r5, [sp, #60]
 4955 0398 B446     		mov	ip, r6
 4956 039a 0E9E     		ldr	r6, [sp, #56]
 4957              	.LBE166:
 4958              		.loc 1 1329 0
 4959 039c 77B1     		cbz	r7, .L541
 4960              		.loc 1 1331 0
 4961 039e 3846     		mov	r0, r7
 4962 03a0 4946     		mov	r1, r9
 4963 03a2 CDF808C0 		str	ip, [sp, #8]
 4964 03a6 FFF7FEFF 		bl	mpi_copy
 4965              	.LVL619:
 4966 03aa DDF808C0 		ldr	ip, [sp, #8]
 4967 03ae 0028     		cmp	r0, #0
 4968 03b0 CDD1     		bne	.L581
 4969              		.loc 1 1332 0
 4970 03b2 2B68     		ldr	r3, [r5]
 4971 03b4 3268     		ldr	r2, [r6]
 4972 03b6 03FB02F3 		mul	r3, r3, r2
 4973 03ba 3B60     		str	r3, [r7]
 4974              	.LVL620:
 4975              	.L541:
 4976              		.loc 1 1335 0
 4977 03bc 019B     		ldr	r3, [sp, #4]
 4978 03be 002B     		cmp	r3, #0
 4979 03c0 3FF45DAE 		beq	.L527
 4980              		.loc 1 1337 0
 4981 03c4 6046     		mov	r0, ip
 4982 03c6 0699     		ldr	r1, [sp, #24]
 4983 03c8 CDF808C0 		str	ip, [sp, #8]
 4984 03cc FFF7FEFF 		bl	mpi_shift_r
 4985              	.LVL621:
 4986 03d0 DDF808C0 		ldr	ip, [sp, #8]
 4987 03d4 0028     		cmp	r0, #0
 4988 03d6 BAD1     		bne	.L581
ARM GAS  C:\Users\jo\AppData\Local\Temp\cc0IQHDm.s 			page 89


 4989              		.loc 1 1339 0
 4990 03d8 6146     		mov	r1, ip
 4991              		.loc 1 1338 0
 4992 03da 3368     		ldr	r3, [r6]
 4993              		.loc 1 1339 0
 4994 03dc 0198     		ldr	r0, [sp, #4]
 4995              	.LVL622:
 4996              		.loc 1 1338 0
 4997 03de 1293     		str	r3, [sp, #72]
 4998              		.loc 1 1339 0
 4999 03e0 FFF7FEFF 		bl	mpi_copy
 5000              	.LVL623:
 5001 03e4 DDF808C0 		ldr	ip, [sp, #8]
 5002 03e8 0146     		mov	r1, r0
 5003 03ea 0028     		cmp	r0, #0
 5004 03ec 37D1     		bne	.L559
 5005              		.loc 1 1341 0
 5006 03ee 0198     		ldr	r0, [sp, #4]
 5007              	.LVL624:
 5008 03f0 FFF7FEFF 		bl	mpi_cmp_int
 5009              	.LVL625:
 5010 03f4 DDF808C0 		ldr	ip, [sp, #8]
 5011 03f8 0028     		cmp	r0, #0
 5012 03fa 7FF440AE 		bne	.L527
 5013              		.loc 1 1342 0
 5014 03fe 019A     		ldr	r2, [sp, #4]
 5015 0400 0123     		movs	r3, #1
 5016 0402 0446     		mov	r4, r0
 5017 0404 1360     		str	r3, [r2]
 5018 0406 3AE6     		b	.L527
 5019              	.LVL626:
 5020              	.L585:
 5021              		.loc 1 1316 0
 5022 0408 5B59     		ldr	r3, [r3, r5]
 5023              	.LVL627:
 5024              	.LBB167:
 5025              	.LBB168:
 5026              		.loc 1 1184 0
 5027 040a 1193     		str	r3, [sp, #68]
 5028              		.loc 1 1181 0
 5029 040c 0123     		movs	r3, #1
 5030              	.LVL628:
 5031 040e 2193     		str	r3, [sp, #132]
 5032              		.loc 1 1182 0
 5033 0410 2293     		str	r3, [sp, #136]
 5034              		.loc 1 1186 0
 5035 0412 21AA     		add	r2, sp, #132
 5036              		.loc 1 1183 0
 5037 0414 11AB     		add	r3, sp, #68
 5038              	.LVL629:
 5039              		.loc 1 1186 0
 5040 0416 5046     		mov	r0, r10
 5041 0418 4146     		mov	r1, r8
 5042              		.loc 1 1183 0
 5043 041a 2393     		str	r3, [sp, #140]
 5044              		.loc 1 1186 0
 5045 041c FFF7FEFF 		bl	mpi_mul_mpi
ARM GAS  C:\Users\jo\AppData\Local\Temp\cc0IQHDm.s 			page 90


 5046              	.LVL630:
 5047              	.LBE168:
 5048              	.LBE167:
 5049              		.loc 1 1316 0
 5050 0420 0028     		cmp	r0, #0
 5051 0422 96D1     		bne	.L556
 5052              		.loc 1 1317 0
 5053 0424 5046     		mov	r0, r10
 5054 0426 0599     		ldr	r1, [sp, #20]
 5055 0428 FFF7FEFF 		bl	mpi_shift_l
 5056              	.LVL631:
 5057 042c 0028     		cmp	r0, #0
 5058 042e 90D1     		bne	.L556
 5059              		.loc 1 1318 0
 5060 0430 3146     		mov	r1, r6
 5061 0432 3046     		mov	r0, r6
 5062              	.LVL632:
 5063 0434 5246     		mov	r2, r10
 5064 0436 FFF7FEFF 		bl	mpi_sub_mpi
 5065              	.LVL633:
 5066 043a 0146     		mov	r1, r0
 5067 043c 60B9     		cbnz	r0, .L553
 5068              		.loc 1 1320 0
 5069 043e 3046     		mov	r0, r6
 5070              	.LVL634:
 5071 0440 FFF7FEFF 		bl	mpi_cmp_int
 5072              	.LVL635:
 5073 0444 0028     		cmp	r0, #0
 5074 0446 0CDB     		blt	.L587
 5075              	.L539:
 5076              	.LVL636:
 5077              		.loc 1 1240 0 discriminator 2
 5078 0448 039B     		ldr	r3, [sp, #12]
 5079 044a 0297     		str	r7, [sp, #8]
 5080 044c 013B     		subs	r3, r3, #1
 5081 044e 0393     		str	r3, [sp, #12]
 5082              	.LVL637:
 5083 0450 059B     		ldr	r3, [sp, #20]
 5084              	.LVL638:
 5085 0452 203B     		subs	r3, r3, #32
 5086 0454 0593     		str	r3, [sp, #20]
 5087 0456 19E7     		b	.L532
 5088              	.LVL639:
 5089              	.L553:
 5090 0458 B446     		mov	ip, r6
 5091 045a 0C46     		mov	r4, r1
 5092 045c 0FE6     		b	.L527
 5093              	.LVL640:
 5094              	.L559:
 5095 045e 0446     		mov	r4, r0
 5096 0460 0DE6     		b	.L527
 5097              	.LVL641:
 5098              	.L587:
 5099              		.loc 1 1322 0
 5100 0462 5046     		mov	r0, r10
 5101 0464 4146     		mov	r1, r8
 5102 0466 FFF7FEFF 		bl	mpi_copy
ARM GAS  C:\Users\jo\AppData\Local\Temp\cc0IQHDm.s 			page 91


 5103              	.LVL642:
 5104 046a 0028     		cmp	r0, #0
 5105 046c 7FF471AF 		bne	.L556
 5106              		.loc 1 1323 0
 5107 0470 5046     		mov	r0, r10
 5108              	.LVL643:
 5109 0472 0599     		ldr	r1, [sp, #20]
 5110 0474 FFF7FEFF 		bl	mpi_shift_l
 5111              	.LVL644:
 5112 0478 0028     		cmp	r0, #0
 5113 047a 7FF46AAF 		bne	.L556
 5114              		.loc 1 1324 0
 5115 047e 3046     		mov	r0, r6
 5116              	.LVL645:
 5117 0480 3146     		mov	r1, r6
 5118 0482 5246     		mov	r2, r10
 5119 0484 FFF7FEFF 		bl	mpi_add_mpi
 5120              	.LVL646:
 5121 0488 0028     		cmp	r0, #0
 5122 048a 7FF462AF 		bne	.L556
 5123              		.loc 1 1325 0
 5124 048e 1A9A     		ldr	r2, [sp, #104]
 5125 0490 5359     		ldr	r3, [r2, r5]
 5126 0492 013B     		subs	r3, r3, #1
 5127 0494 5351     		str	r3, [r2, r5]
 5128 0496 D7E7     		b	.L539
 5129              		.cfi_endproc
 5130              	.LFE38:
 5131              		.size	mpi_div_mpi, .-mpi_div_mpi
 5132 0498 AFF30080 		.section	.text.mpi_div_int,"ax",%progbits
 5132      AFF30080 
 5133              		.align	2
 5134              		.p2align 4,,15
 5135              		.global	mpi_div_int
 5136              		.thumb
 5137              		.thumb_func
 5138              		.type	mpi_div_int, %function
 5139              	mpi_div_int:
 5140              	.LFB39:
 5141              		.loc 1 1357 0
 5142              		.cfi_startproc
 5143              		@ args = 0, pretend = 0, frame = 16
 5144              		@ frame_needed = 0, uses_anonymous_args = 0
 5145              	.LVL647:
 5146 0000 70B5     		push	{r4, r5, r6, lr}
 5147              		.cfi_def_cfa_offset 16
 5148              		.cfi_offset 4, -16
 5149              		.cfi_offset 5, -12
 5150              		.cfi_offset 6, -8
 5151              		.cfi_offset 14, -4
 5152              		.loc 1 1362 0
 5153 0002 002B     		cmp	r3, #0
 5154              		.loc 1 1357 0
 5155 0004 84B0     		sub	sp, sp, #16
 5156              		.cfi_def_cfa_offset 32
 5157              		.loc 1 1361 0
 5158 0006 83EAE376 		eor	r6, r3, r3, asr #31
ARM GAS  C:\Users\jo\AppData\Local\Temp\cc0IQHDm.s 			page 92


 5159 000a A6EBE376 		sub	r6, r6, r3, asr #31
 5160              		.loc 1 1362 0
 5161 000e B4BF     		ite	lt
 5162 0010 4FF0FF35 		movlt	r5, #-1
 5163 0014 0125     		movge	r5, #1
 5164              		.loc 1 1363 0
 5165 0016 0124     		movs	r4, #1
 5166              		.loc 1 1366 0
 5167 0018 01AB     		add	r3, sp, #4
 5168              	.LVL648:
 5169              		.loc 1 1361 0
 5170 001a 0096     		str	r6, [sp]
 5171              		.loc 1 1362 0
 5172 001c 0195     		str	r5, [sp, #4]
 5173              		.loc 1 1363 0
 5174 001e 0294     		str	r4, [sp, #8]
 5175              		.loc 1 1364 0
 5176 0020 CDF80CD0 		str	sp, [sp, #12]
 5177              		.loc 1 1366 0
 5178 0024 FFF7FEFF 		bl	mpi_div_mpi
 5179              	.LVL649:
 5180              		.loc 1 1367 0
 5181 0028 04B0     		add	sp, sp, #16
 5182              		.cfi_def_cfa_offset 16
 5183              		@ sp needed
 5184 002a 70BD     		pop	{r4, r5, r6, pc}
 5185              		.cfi_endproc
 5186              	.LFE39:
 5187              		.size	mpi_div_int, .-mpi_div_int
 5188 002c AFF30080 		.section	.text.mpi_mod_mpi,"ax",%progbits
 5189              		.align	2
 5190              		.p2align 4,,15
 5191              		.global	mpi_mod_mpi
 5192              		.thumb
 5193              		.thumb_func
 5194              		.type	mpi_mod_mpi, %function
 5195              	mpi_mod_mpi:
 5196              	.LFB40:
 5197              		.loc 1 1373 0
 5198              		.cfi_startproc
 5199              		@ args = 0, pretend = 0, frame = 0
 5200              		@ frame_needed = 0, uses_anonymous_args = 0
 5201              	.LVL650:
 5202 0000 70B5     		push	{r4, r5, r6, lr}
 5203              		.cfi_def_cfa_offset 16
 5204              		.cfi_offset 4, -16
 5205              		.cfi_offset 5, -12
 5206              		.cfi_offset 6, -8
 5207              		.cfi_offset 14, -4
 5208              		.loc 1 1373 0
 5209 0002 0446     		mov	r4, r0
 5210 0004 0E46     		mov	r6, r1
 5211              		.loc 1 1376 0
 5212 0006 1046     		mov	r0, r2
 5213              	.LVL651:
 5214 0008 0021     		movs	r1, #0
 5215              	.LVL652:
ARM GAS  C:\Users\jo\AppData\Local\Temp\cc0IQHDm.s 			page 93


 5216              		.loc 1 1373 0
 5217 000a 1546     		mov	r5, r2
 5218              		.loc 1 1376 0
 5219 000c FFF7FEFF 		bl	mpi_cmp_int
 5220              	.LVL653:
 5221 0010 0028     		cmp	r0, #0
 5222 0012 24DB     		blt	.L598
 5223              		.loc 1 1379 0
 5224 0014 3246     		mov	r2, r6
 5225 0016 0020     		movs	r0, #0
 5226 0018 2146     		mov	r1, r4
 5227 001a 2B46     		mov	r3, r5
 5228 001c FFF7FEFF 		bl	mpi_div_mpi
 5229              	.LVL654:
 5230 0020 20B1     		cbz	r0, .L594
 5231              	.LVL655:
 5232              	.L593:
 5233              		.loc 1 1390 0
 5234 0022 70BD     		pop	{r4, r5, r6, pc}
 5235              	.LVL656:
 5236              	.L595:
 5237              		.loc 1 1382 0
 5238 0024 FFF7FEFF 		bl	mpi_add_mpi
 5239              	.LVL657:
 5240 0028 0028     		cmp	r0, #0
 5241 002a FAD1     		bne	.L593
 5242              	.L594:
 5243              	.LVL658:
 5244              		.loc 1 1381 0
 5245 002c 0021     		movs	r1, #0
 5246 002e 2046     		mov	r0, r4
 5247 0030 FFF7FEFF 		bl	mpi_cmp_int
 5248              	.LVL659:
 5249 0034 0028     		cmp	r0, #0
 5250              		.loc 1 1382 0
 5251 0036 2146     		mov	r1, r4
 5252 0038 2A46     		mov	r2, r5
 5253 003a 2046     		mov	r0, r4
 5254              		.loc 1 1381 0
 5255 003c F2DB     		blt	.L595
 5256              	.LVL660:
 5257 003e 03E0     		b	.L596
 5258              	.L597:
 5259              		.loc 1 1385 0
 5260 0040 FFF7FEFF 		bl	mpi_sub_mpi
 5261              	.LVL661:
 5262 0044 0028     		cmp	r0, #0
 5263 0046 ECD1     		bne	.L593
 5264              	.LVL662:
 5265              	.L596:
 5266              		.loc 1 1384 0
 5267 0048 2946     		mov	r1, r5
 5268 004a 2046     		mov	r0, r4
 5269 004c FFF7FEFF 		bl	mpi_cmp_mpi
 5270              	.LVL663:
 5271 0050 0028     		cmp	r0, #0
 5272              		.loc 1 1385 0
ARM GAS  C:\Users\jo\AppData\Local\Temp\cc0IQHDm.s 			page 94


 5273 0052 2146     		mov	r1, r4
 5274 0054 2A46     		mov	r2, r5
 5275 0056 2046     		mov	r0, r4
 5276              		.loc 1 1384 0
 5277 0058 F2DA     		bge	.L597
 5278              	.LVL664:
 5279 005a 0020     		movs	r0, #0
 5280              	.LVL665:
 5281 005c 70BD     		pop	{r4, r5, r6, pc}
 5282              	.LVL666:
 5283              	.L598:
 5284              		.loc 1 1377 0
 5285 005e 6FF00900 		mvn	r0, #9
 5286 0062 DEE7     		b	.L593
 5287              		.cfi_endproc
 5288              	.LFE40:
 5289              		.size	mpi_mod_mpi, .-mpi_mod_mpi
 5290 0064 AFF30080 		.section	.text.mpi_mod_int,"ax",%progbits
 5290      AFF30080 
 5290      AFF30080 
 5291              		.align	2
 5292              		.p2align 4,,15
 5293              		.global	mpi_mod_int
 5294              		.thumb
 5295              		.thumb_func
 5296              		.type	mpi_mod_int, %function
 5297              	mpi_mod_int:
 5298              	.LFB41:
 5299              		.loc 1 1396 0
 5300              		.cfi_startproc
 5301              		@ args = 0, pretend = 0, frame = 0
 5302              		@ frame_needed = 0, uses_anonymous_args = 0
 5303              		@ link register save eliminated.
 5304              	.LVL667:
 5305              		.loc 1 1400 0
 5306 0000 131E     		subs	r3, r2, #0
 5307 0002 15D0     		beq	.L607
 5308              		.loc 1 1403 0
 5309 0004 17DB     		blt	.L608
 5310              		.loc 1 1409 0
 5311 0006 012B     		cmp	r3, #1
 5312              		.loc 1 1396 0
 5313 0008 30B4     		push	{r4, r5}
 5314              		.cfi_def_cfa_offset 8
 5315              		.cfi_offset 4, -8
 5316              		.cfi_offset 5, -4
 5317 000a 0446     		mov	r4, r0
 5318              		.loc 1 1409 0
 5319 000c 04D0     		beq	.L611
 5320              		.loc 1 1415 0
 5321 000e 022B     		cmp	r3, #2
 5322 0010 06D0     		beq	.L612
 5323              		.loc 1 1447 0
 5324 0012 30BC     		pop	{r4, r5}
 5325              		.cfi_remember_state
 5326              		.cfi_restore 5
 5327              		.cfi_restore 4
ARM GAS  C:\Users\jo\AppData\Local\Temp\cc0IQHDm.s 			page 95


 5328              		.cfi_def_cfa_offset 0
 5329 0014 FFF7FEBF 		b	mpi_mod_int.part.3
 5330              	.LVL668:
 5331              	.L611:
 5332              		.cfi_restore_state
 5333              		.loc 1 1411 0
 5334 0018 0020     		movs	r0, #0
 5335              	.LVL669:
 5336 001a 2060     		str	r0, [r4]
 5337              		.loc 1 1447 0
 5338 001c 30BC     		pop	{r4, r5}
 5339              		.cfi_remember_state
 5340              		.cfi_restore 5
 5341              		.cfi_restore 4
 5342              		.cfi_def_cfa_offset 0
 5343              	.LVL670:
 5344 001e 7047     		bx	lr
 5345              	.LVL671:
 5346              	.L612:
 5347              		.cfi_restore_state
 5348              		.loc 1 1417 0
 5349 0020 8B68     		ldr	r3, [r1, #8]
 5350 0022 1B68     		ldr	r3, [r3]
 5351 0024 03F00103 		and	r3, r3, #1
 5352 0028 0360     		str	r3, [r0]
 5353              		.loc 1 1447 0
 5354 002a 30BC     		pop	{r4, r5}
 5355              		.cfi_restore 4
 5356              		.cfi_restore 5
 5357              		.cfi_def_cfa_offset 0
 5358              		.loc 1 1418 0
 5359 002c 0020     		movs	r0, #0
 5360              	.LVL672:
 5361              		.loc 1 1447 0
 5362 002e 7047     		bx	lr
 5363              	.LVL673:
 5364              	.L607:
 5365              		.loc 1 1401 0
 5366 0030 6FF00B00 		mvn	r0, #11
 5367              	.LVL674:
 5368 0034 7047     		bx	lr
 5369              	.LVL675:
 5370              	.L608:
 5371              		.loc 1 1404 0
 5372 0036 6FF00900 		mvn	r0, #9
 5373              	.LVL676:
 5374 003a 7047     		bx	lr
 5375              		.cfi_endproc
 5376              	.LFE41:
 5377              		.size	mpi_mod_int, .-mpi_mod_int
 5378 003c AFF30080 		.section	.text.mpi_write_hlp,"ax",%progbits
 5379              		.align	2
 5380              		.p2align 4,,15
 5381              		.thumb
 5382              		.thumb_func
 5383              		.type	mpi_write_hlp, %function
 5384              	mpi_write_hlp:
ARM GAS  C:\Users\jo\AppData\Local\Temp\cc0IQHDm.s 			page 96


 5385              	.LFB17:
 5386              		.loc 1 471 0
 5387              		.cfi_startproc
 5388              		@ args = 0, pretend = 0, frame = 8
 5389              		@ frame_needed = 0, uses_anonymous_args = 0
 5390              	.LVL677:
 5391              		.loc 1 475 0
 5392 0000 8B1E     		subs	r3, r1, #2
 5393 0002 0E2B     		cmp	r3, #14
 5394 0004 23D8     		bhi	.L619
 5395              		.loc 1 471 0
 5396 0006 70B5     		push	{r4, r5, r6, lr}
 5397              		.cfi_def_cfa_offset 16
 5398              		.cfi_offset 4, -16
 5399              		.cfi_offset 5, -12
 5400              		.cfi_offset 6, -8
 5401              		.cfi_offset 14, -4
 5402 0008 0546     		mov	r5, r0
 5403 000a 82B0     		sub	sp, sp, #8
 5404              		.cfi_def_cfa_offset 24
 5405 000c 0C46     		mov	r4, r1
 5406 000e 1646     		mov	r6, r2
 5407              		.loc 1 478 0
 5408 0010 01A8     		add	r0, sp, #4
 5409              	.LVL678:
 5410 0012 2946     		mov	r1, r5
 5411              	.LVL679:
 5412 0014 2246     		mov	r2, r4
 5413              	.LVL680:
 5414 0016 FFF7FEFF 		bl	mpi_mod_int
 5415              	.LVL681:
 5416 001a 08B1     		cbz	r0, .L627
 5417              	.LVL682:
 5418              	.L614:
 5419              		.loc 1 492 0
 5420 001c 02B0     		add	sp, sp, #8
 5421              		.cfi_remember_state
 5422              		.cfi_def_cfa_offset 16
 5423              		@ sp needed
 5424 001e 70BD     		pop	{r4, r5, r6, pc}
 5425              	.LVL683:
 5426              	.L627:
 5427              		.cfi_restore_state
 5428              		.loc 1 479 0
 5429 0020 0146     		mov	r1, r0
 5430 0022 2A46     		mov	r2, r5
 5431 0024 2846     		mov	r0, r5
 5432              	.LVL684:
 5433 0026 2346     		mov	r3, r4
 5434 0028 FFF7FEFF 		bl	mpi_div_int
 5435              	.LVL685:
 5436 002c 0028     		cmp	r0, #0
 5437 002e F5D1     		bne	.L614
 5438              		.loc 1 481 0
 5439 0030 0146     		mov	r1, r0
 5440 0032 2846     		mov	r0, r5
 5441              	.LVL686:
ARM GAS  C:\Users\jo\AppData\Local\Temp\cc0IQHDm.s 			page 97


 5442 0034 FFF7FEFF 		bl	mpi_cmp_int
 5443              	.LVL687:
 5444 0038 98B9     		cbnz	r0, .L615
 5445              	.L618:
 5446              	.LVL688:
 5447              		.loc 1 484 0
 5448 003a 019B     		ldr	r3, [sp, #4]
 5449 003c 092B     		cmp	r3, #9
 5450 003e 09D8     		bhi	.L628
 5451              		.loc 1 485 0
 5452 0040 3268     		ldr	r2, [r6]
 5453 0042 3033     		adds	r3, r3, #48
 5454 0044 511C     		adds	r1, r2, #1
 5455 0046 3160     		str	r1, [r6]
 5456 0048 0020     		movs	r0, #0
 5457 004a 1370     		strb	r3, [r2]
 5458 004c E6E7     		b	.L614
 5459              	.LVL689:
 5460              	.L619:
 5461              		.cfi_def_cfa_offset 0
 5462              		.cfi_restore 4
 5463              		.cfi_restore 5
 5464              		.cfi_restore 6
 5465              		.cfi_restore 14
 5466              		.loc 1 476 0
 5467 004e 6FF00300 		mvn	r0, #3
 5468              	.LVL690:
 5469 0052 7047     		bx	lr
 5470              	.LVL691:
 5471              	.L628:
 5472              		.cfi_def_cfa_offset 24
 5473              		.cfi_offset 4, -16
 5474              		.cfi_offset 5, -12
 5475              		.cfi_offset 6, -8
 5476              		.cfi_offset 14, -4
 5477              		.loc 1 487 0
 5478 0054 3268     		ldr	r2, [r6]
 5479 0056 3733     		adds	r3, r3, #55
 5480 0058 511C     		adds	r1, r2, #1
 5481 005a 3160     		str	r1, [r6]
 5482 005c 0020     		movs	r0, #0
 5483 005e 1370     		strb	r3, [r2]
 5484 0060 DCE7     		b	.L614
 5485              	.LVL692:
 5486              	.L615:
 5487              		.loc 1 482 0
 5488 0062 2846     		mov	r0, r5
 5489 0064 2146     		mov	r1, r4
 5490 0066 3246     		mov	r2, r6
 5491 0068 FFF7CAFF 		bl	mpi_write_hlp
 5492              	.LVL693:
 5493 006c 0028     		cmp	r0, #0
 5494 006e D5D1     		bne	.L614
 5495 0070 E3E7     		b	.L618
 5496              		.cfi_endproc
 5497              	.LFE17:
 5498              		.size	mpi_write_hlp, .-mpi_write_hlp
ARM GAS  C:\Users\jo\AppData\Local\Temp\cc0IQHDm.s 			page 98


 5499 0072 00BFAFF3 		.section	.text.mpi_write_string,"ax",%progbits
 5499      0080AFF3 
 5499      0080AFF3 
 5499      0080
 5500              		.align	2
 5501              		.p2align 4,,15
 5502              		.global	mpi_write_string
 5503              		.thumb
 5504              		.thumb_func
 5505              		.type	mpi_write_string, %function
 5506              	mpi_write_string:
 5507              	.LFB18:
 5508              		.loc 1 498 0
 5509              		.cfi_startproc
 5510              		@ args = 0, pretend = 0, frame = 16
 5511              		@ frame_needed = 0, uses_anonymous_args = 0
 5512              	.LVL694:
 5513 0000 2DE9F047 		push	{r4, r5, r6, r7, r8, r9, r10, lr}
 5514              		.cfi_def_cfa_offset 32
 5515              		.cfi_offset 4, -32
 5516              		.cfi_offset 5, -28
 5517              		.cfi_offset 6, -24
 5518              		.cfi_offset 7, -20
 5519              		.cfi_offset 8, -16
 5520              		.cfi_offset 9, -12
 5521              		.cfi_offset 10, -8
 5522              		.cfi_offset 14, -4
 5523              		.loc 1 504 0
 5524 0004 8C1E     		subs	r4, r1, #2
 5525 0006 0E2C     		cmp	r4, #14
 5526              		.loc 1 498 0
 5527 0008 84B0     		sub	sp, sp, #16
 5528              		.cfi_def_cfa_offset 48
 5529              		.loc 1 504 0
 5530 000a 7BD8     		bhi	.L643
 5531 000c 0D46     		mov	r5, r1
 5532 000e 8246     		mov	r10, r0
 5533 0010 9946     		mov	r9, r3
 5534 0012 9046     		mov	r8, r2
 5535              		.loc 1 507 0
 5536 0014 FFF7FEFF 		bl	mpi_msb
 5537              	.LVL695:
 5538              		.loc 1 508 0
 5539 0018 032D     		cmp	r5, #3
 5540 001a 27DC     		bgt	.L652
 5541              	.L631:
 5542              		.loc 1 512 0
 5543 001c D9F80030 		ldr	r3, [r9]
 5544              		.loc 1 510 0
 5545 0020 0330     		adds	r0, r0, #3
 5546              	.LVL696:
 5547              		.loc 1 512 0
 5548 0022 9842     		cmp	r0, r3
 5549 0024 71D8     		bhi	.L653
 5550              		.loc 1 521 0
 5551 0026 DAF80020 		ldr	r2, [r10]
 5552              		.loc 1 518 0
ARM GAS  C:\Users\jo\AppData\Local\Temp\cc0IQHDm.s 			page 99


 5553 002a CDF80080 		str	r8, [sp]
 5554              	.LVL697:
 5555              	.LBB169:
 5556              	.LBB170:
 5557              		.loc 1 77 0
 5558 002e 0023     		movs	r3, #0
 5559              		.loc 1 76 0
 5560 0030 0121     		movs	r1, #1
 5561              	.LBE170:
 5562              	.LBE169:
 5563              		.loc 1 521 0
 5564 0032 0132     		adds	r2, r2, #1
 5565              	.LBB172:
 5566              	.LBB171:
 5567              		.loc 1 76 0
 5568 0034 0191     		str	r1, [sp, #4]
 5569              		.loc 1 77 0
 5570 0036 0293     		str	r3, [sp, #8]
 5571              		.loc 1 78 0
 5572 0038 0393     		str	r3, [sp, #12]
 5573              	.LBE171:
 5574              	.LBE172:
 5575              		.loc 1 521 0
 5576 003a 5CD0     		beq	.L654
 5577              	.L633:
 5578              		.loc 1 524 0
 5579 003c 102D     		cmp	r5, #16
 5580 003e 1AD0     		beq	.L655
 5581              		.loc 1 546 0
 5582 0040 01AE     		add	r6, sp, #4
 5583              	.LVL698:
 5584 0042 5146     		mov	r1, r10
 5585 0044 3046     		mov	r0, r6
 5586              	.LVL699:
 5587 0046 FFF7FEFF 		bl	mpi_copy
 5588              	.LVL700:
 5589 004a 0446     		mov	r4, r0
 5590 004c 0028     		cmp	r0, #0
 5591 004e 3FD1     		bne	.L636
 5592              		.loc 1 548 0
 5593 0050 019B     		ldr	r3, [sp, #4]
 5594 0052 0133     		adds	r3, r3, #1
 5595              		.loc 1 549 0
 5596 0054 08BF     		it	eq
 5597 0056 0123     		moveq	r3, #1
 5598              		.loc 1 551 0
 5599 0058 2946     		mov	r1, r5
 5600 005a 3046     		mov	r0, r6
 5601              	.LVL701:
 5602 005c 6A46     		mov	r2, sp
 5603              		.loc 1 549 0
 5604 005e 08BF     		it	eq
 5605 0060 0193     		streq	r3, [sp, #4]
 5606              		.loc 1 551 0
 5607 0062 FFF7FEFF 		bl	mpi_write_hlp
 5608              	.LVL702:
 5609 0066 0446     		mov	r4, r0
ARM GAS  C:\Users\jo\AppData\Local\Temp\cc0IQHDm.s 			page 100


 5610 0068 40B3     		cbz	r0, .L641
 5611 006a 31E0     		b	.L636
 5612              	.LVL703:
 5613              	.L652:
 5614              		.loc 1 508 0 discriminator 1
 5615 006c 4008     		lsrs	r0, r0, #1
 5616              	.LVL704:
 5617              		.loc 1 509 0 discriminator 1
 5618 006e 102D     		cmp	r5, #16
 5619 0070 08BF     		it	eq
 5620 0072 4008     		lsreq	r0, r0, #1
 5621              	.LVL705:
 5622 0074 D2E7     		b	.L631
 5623              	.LVL706:
 5624              	.L655:
 5625              	.LBB173:
 5626              		.loc 1 529 0
 5627 0076 DAF80400 		ldr	r0, [r10, #4]
 5628              	.LVL707:
 5629 007a F0B1     		cbz	r0, .L651
 5630 007c 00F18043 		add	r3, r0, #1073741824
 5631 0080 013B     		subs	r3, r3, #1
 5632              		.loc 1 538 0
 5633 0082 244A     		ldr	r2, .L656
 5634 0084 9B00     		lsls	r3, r3, #2
 5635              		.loc 1 529 0
 5636 0086 0021     		movs	r1, #0
 5637              	.LVL708:
 5638              	.L637:
 5639              	.LBE173:
 5640              		.loc 1 498 0 discriminator 1
 5641 0088 0425     		movs	r5, #4
 5642              	.LVL709:
 5643              	.L640:
 5644              	.LBB174:
 5645              		.loc 1 533 0
 5646 008a DAF80840 		ldr	r4, [r10, #8]
 5647 008e 6F1E     		subs	r7, r5, #1
 5648 0090 E458     		ldr	r4, [r4, r3]
 5649 0092 FE00     		lsls	r6, r7, #3
 5650 0094 F440     		lsrs	r4, r4, r6
 5651              	.LVL710:
 5652              		.loc 1 535 0
 5653 0096 14F0FF06 		ands	r6, r4, #255
 5654              		.loc 1 538 0
 5655 009a 4FEA2616 		asr	r6, r6, #4
 5656              		.loc 1 539 0
 5657 009e 04F00F04 		and	r4, r4, #15
 5658              	.LVL711:
 5659              		.loc 1 535 0
 5660 00a2 1CD1     		bne	.L638
 5661 00a4 0544     		add	r5, r5, r0
 5662              	.LVL712:
 5663              		.loc 1 535 0 is_stmt 0 discriminator 1
 5664 00a6 D1B9     		cbnz	r1, .L638
 5665              		.loc 1 535 0 discriminator 2
 5666 00a8 022D     		cmp	r5, #2
ARM GAS  C:\Users\jo\AppData\Local\Temp\cc0IQHDm.s 			page 101


 5667 00aa 18D0     		beq	.L638
 5668              	.LVL713:
 5669              	.L639:
 5670 00ac 3D46     		mov	r5, r7
 5671              		.loc 1 531 0 is_stmt 1 discriminator 1
 5672 00ae 002F     		cmp	r7, #0
 5673 00b0 EBD1     		bne	.L640
 5674              	.LVL714:
 5675              		.loc 1 529 0 discriminator 2
 5676 00b2 0138     		subs	r0, r0, #1
 5677              	.LVL715:
 5678 00b4 A3F10403 		sub	r3, r3, #4
 5679 00b8 E6D1     		bne	.L637
 5680              	.LVL716:
 5681              	.L651:
 5682 00ba 01AE     		add	r6, sp, #4
 5683              	.LVL717:
 5684              	.L641:
 5685              	.LBE174:
 5686              		.loc 1 554 0
 5687 00bc 009B     		ldr	r3, [sp]
 5688 00be 0024     		movs	r4, #0
 5689 00c0 5A1C     		adds	r2, r3, #1
 5690 00c2 0092     		str	r2, [sp]
 5691 00c4 1C70     		strb	r4, [r3]
 5692              		.loc 1 555 0
 5693 00c6 009B     		ldr	r3, [sp]
 5694 00c8 C8EB0303 		rsb	r3, r8, r3
 5695 00cc C9F80030 		str	r3, [r9]
 5696              	.LVL718:
 5697              	.L636:
 5698              		.loc 1 559 0
 5699 00d0 3046     		mov	r0, r6
 5700 00d2 FFF7FEFF 		bl	mpi_free
 5701              	.LVL719:
 5702              		.loc 1 561 0
 5703 00d6 2046     		mov	r0, r4
 5704              	.LVL720:
 5705              	.L630:
 5706              		.loc 1 562 0
 5707 00d8 04B0     		add	sp, sp, #16
 5708              		.cfi_remember_state
 5709              		.cfi_def_cfa_offset 32
 5710              		@ sp needed
 5711 00da BDE8F087 		pop	{r4, r5, r6, r7, r8, r9, r10, pc}
 5712              	.LVL721:
 5713              	.L638:
 5714              		.cfi_restore_state
 5715              	.LBB175:
 5716              		.loc 1 538 0
 5717 00de 0099     		ldr	r1, [sp]
 5718              	.LVL722:
 5719              		.loc 1 539 0
 5720 00e0 155D     		ldrb	r5, [r2, r4]	@ zero_extendqisi2
 5721              		.loc 1 538 0
 5722 00e2 965D     		ldrb	r6, [r2, r6]	@ zero_extendqisi2
 5723 00e4 4C1C     		adds	r4, r1, #1
ARM GAS  C:\Users\jo\AppData\Local\Temp\cc0IQHDm.s 			page 102


 5724 00e6 0094     		str	r4, [sp]
 5725 00e8 0E70     		strb	r6, [r1]
 5726              	.LVL723:
 5727              		.loc 1 539 0
 5728 00ea 009C     		ldr	r4, [sp]
 5729 00ec 611C     		adds	r1, r4, #1
 5730 00ee 0091     		str	r1, [sp]
 5731              		.loc 1 540 0
 5732 00f0 0121     		movs	r1, #1
 5733              		.loc 1 539 0
 5734 00f2 2570     		strb	r5, [r4]
 5735              	.LVL724:
 5736 00f4 DAE7     		b	.L639
 5737              	.LVL725:
 5738              	.L654:
 5739              	.LBE175:
 5740              		.loc 1 522 0
 5741 00f6 08EB0102 		add	r2, r8, r1
 5742 00fa 2D23     		movs	r3, #45
 5743 00fc 0092     		str	r2, [sp]
 5744 00fe 88F80030 		strb	r3, [r8]
 5745 0102 9BE7     		b	.L633
 5746              	.LVL726:
 5747              	.L643:
 5748              		.loc 1 505 0
 5749 0104 6FF00300 		mvn	r0, #3
 5750              	.LVL727:
 5751 0108 E6E7     		b	.L630
 5752              	.LVL728:
 5753              	.L653:
 5754              		.loc 1 514 0
 5755 010a C9F80000 		str	r0, [r9]
 5756              		.loc 1 515 0
 5757 010e 6FF00700 		mvn	r0, #7
 5758              	.LVL729:
 5759 0112 E1E7     		b	.L630
 5760              	.L657:
 5761              		.align	2
 5762              	.L656:
 5763 0114 00000000 		.word	.LC0
 5764              		.cfi_endproc
 5765              	.LFE18:
 5766              		.size	mpi_write_string, .-mpi_write_string
 5767 0118 AFF30080 		.section	.text.mpi_write_file,"ax",%progbits
 5767      AFF30080 
 5768              		.align	2
 5769              		.p2align 4,,15
 5770              		.global	mpi_write_file
 5771              		.thumb
 5772              		.thumb_func
 5773              		.type	mpi_write_file, %function
 5774              	mpi_write_file:
 5775              	.LFB20:
 5776              		.loc 1 602 0
 5777              		.cfi_startproc
 5778              		@ args = 0, pretend = 0, frame = 2488
 5779              		@ frame_needed = 0, uses_anonymous_args = 0
ARM GAS  C:\Users\jo\AppData\Local\Temp\cc0IQHDm.s 			page 103


 5780              	.LVL730:
 5781 0000 F0B5     		push	{r4, r5, r6, r7, lr}
 5782              		.cfi_def_cfa_offset 20
 5783              		.cfi_offset 4, -20
 5784              		.cfi_offset 5, -16
 5785              		.cfi_offset 6, -12
 5786              		.cfi_offset 7, -8
 5787              		.cfi_offset 14, -4
 5788 0002 ADF6BC1D 		subw	sp, sp, #2492
 5789              		.cfi_def_cfa_offset 2512
 5790              		.loc 1 602 0
 5791 0006 1446     		mov	r4, r2
 5792 0008 0F46     		mov	r7, r1
 5793              		.loc 1 612 0
 5794 000a 40F6B412 		movw	r2, #2484
 5795              	.LVL731:
 5796 000e 0021     		movs	r1, #0
 5797              	.LVL732:
 5798              		.loc 1 602 0
 5799 0010 0546     		mov	r5, r0
 5800              		.loc 1 612 0
 5801 0012 01A8     		add	r0, sp, #4
 5802              	.LVL733:
 5803              		.loc 1 602 0
 5804 0014 1E46     		mov	r6, r3
 5805              		.loc 1 612 0
 5806 0016 FFF7FEFF 		bl	memset
 5807              	.LVL734:
 5808              		.loc 1 615 0
 5809 001a 2146     		mov	r1, r4
 5810 001c 3846     		mov	r0, r7
 5811              		.loc 1 613 0
 5812 001e 40F6B214 		movw	r4, #2482
 5813              	.LVL735:
 5814              		.loc 1 615 0
 5815 0022 01AA     		add	r2, sp, #4
 5816 0024 6B46     		mov	r3, sp
 5817              		.loc 1 613 0
 5818 0026 0094     		str	r4, [sp]
 5819              		.loc 1 615 0
 5820 0028 FFF7FEFF 		bl	mpi_write_string
 5821              	.LVL736:
 5822 002c 10BB     		cbnz	r0, .L659
 5823              		.loc 1 617 0
 5824 002e 25B3     		cbz	r5, .L665
 5825 0030 2846     		mov	r0, r5
 5826              	.LVL737:
 5827 0032 FFF7FEFF 		bl	strlen
 5828              	.LVL738:
 5829 0036 0746     		mov	r7, r0
 5830              	.LVL739:
 5831              	.L660:
 5832              		.loc 1 620 0
 5833 0038 01A8     		add	r0, sp, #4
 5834 003a FFF7FEFF 		bl	strlen
 5835              	.LVL740:
 5836              		.loc 1 622 0
ARM GAS  C:\Users\jo\AppData\Local\Temp\cc0IQHDm.s 			page 104


 5837 003e 01AB     		add	r3, sp, #4
 5838              		.loc 1 620 0
 5839 0040 0446     		mov	r4, r0
 5840              	.LVL741:
 5841              		.loc 1 622 0
 5842 0042 0344     		add	r3, r3, r0
 5843              		.loc 1 621 0
 5844 0044 01A8     		add	r0, sp, #4
 5845              	.LVL742:
 5846 0046 0D21     		movs	r1, #13
 5847              		.loc 1 622 0
 5848 0048 0A22     		movs	r2, #10
 5849              		.loc 1 621 0
 5850 004a 0155     		strb	r1, [r0, r4]
 5851              	.LVL743:
 5852              		.loc 1 622 0
 5853 004c 5A70     		strb	r2, [r3, #1]
 5854              		.loc 1 624 0
 5855 004e E6B1     		cbz	r6, .L661
 5856              		.loc 1 626 0
 5857 0050 2846     		mov	r0, r5
 5858 0052 0121     		movs	r1, #1
 5859 0054 3A46     		mov	r2, r7
 5860 0056 3346     		mov	r3, r6
 5861 0058 FFF7FEFF 		bl	fwrite
 5862              	.LVL744:
 5863 005c 8742     		cmp	r7, r0
 5864 005e 0FD1     		bne	.L663
 5865              		.loc 1 622 0 discriminator 1
 5866 0060 0234     		adds	r4, r4, #2
 5867              	.LVL745:
 5868              		.loc 1 627 0 discriminator 1
 5869 0062 01A8     		add	r0, sp, #4
 5870 0064 3346     		mov	r3, r6
 5871 0066 2246     		mov	r2, r4
 5872 0068 0121     		movs	r1, #1
 5873 006a FFF7FEFF 		bl	fwrite
 5874              	.LVL746:
 5875              		.loc 1 626 0 discriminator 1
 5876 006e A042     		cmp	r0, r4
 5877 0070 06D1     		bne	.L663
 5878 0072 0020     		movs	r0, #0
 5879              	.LVL747:
 5880              	.L659:
 5881              		.loc 1 636 0
 5882 0074 0DF6BC1D 		addw	sp, sp, #2492
 5883              		.cfi_remember_state
 5884              		.cfi_def_cfa_offset 20
 5885              		@ sp needed
 5886 0078 F0BD     		pop	{r4, r5, r6, r7, pc}
 5887              	.LVL748:
 5888              	.L665:
 5889              		.cfi_restore_state
 5890 007a 2F46     		mov	r7, r5
 5891              	.LVL749:
 5892              		.loc 1 617 0
 5893 007c 064D     		ldr	r5, .L667
ARM GAS  C:\Users\jo\AppData\Local\Temp\cc0IQHDm.s 			page 105


 5894              	.LVL750:
 5895 007e DBE7     		b	.L660
 5896              	.LVL751:
 5897              	.L663:
 5898              		.loc 1 628 0
 5899 0080 6FF00100 		mvn	r0, #1
 5900              		.loc 1 636 0
 5901 0084 0DF6BC1D 		addw	sp, sp, #2492
 5902              		.cfi_remember_state
 5903              		.cfi_def_cfa_offset 20
 5904              		@ sp needed
 5905 0088 F0BD     		pop	{r4, r5, r6, r7, pc}
 5906              	.LVL752:
 5907              	.L661:
 5908              		.cfi_restore_state
 5909              		.loc 1 631 0
 5910 008a 2946     		mov	r1, r5
 5911 008c 01AA     		add	r2, sp, #4
 5912 008e 0348     		ldr	r0, .L667+4
 5913 0090 FFF7FEFF 		bl	printf
 5914              	.LVL753:
 5915 0094 3046     		mov	r0, r6
 5916 0096 EDE7     		b	.L659
 5917              	.L668:
 5918              		.align	2
 5919              	.L667:
 5920 0098 14000000 		.word	.LC1
 5921 009c 18000000 		.word	.LC2
 5922              		.cfi_endproc
 5923              	.LFE20:
 5924              		.size	mpi_write_file, .-mpi_write_file
 5925              		.section	.text.mpi_check_small_factors,"ax",%progbits
 5926              		.align	2
 5927              		.p2align 4,,15
 5928              		.thumb
 5929              		.thumb_func
 5930              		.type	mpi_check_small_factors, %function
 5931              	mpi_check_small_factors:
 5932              	.LFB49:
 5933              		.loc 1 1934 0
 5934              		.cfi_startproc
 5935              		@ args = 0, pretend = 0, frame = 8
 5936              		@ frame_needed = 0, uses_anonymous_args = 0
 5937              	.LVL754:
 5938              		.loc 1 1939 0
 5939 0000 8368     		ldr	r3, [r0, #8]
 5940 0002 1B68     		ldr	r3, [r3]
 5941 0004 DB07     		lsls	r3, r3, #31
 5942 0006 1ED5     		bpl	.L683
 5943              		.loc 1 1934 0
 5944 0008 70B5     		push	{r4, r5, r6, lr}
 5945              		.cfi_def_cfa_offset 16
 5946              		.cfi_offset 4, -16
 5947              		.cfi_offset 5, -12
 5948              		.cfi_offset 6, -8
 5949              		.cfi_offset 14, -4
 5950 000a 0546     		mov	r5, r0
ARM GAS  C:\Users\jo\AppData\Local\Temp\cc0IQHDm.s 			page 106


 5951 000c 82B0     		sub	sp, sp, #8
 5952              		.cfi_def_cfa_offset 24
 5953 000e 0F4E     		ldr	r6, .L685
 5954              		.loc 1 1939 0
 5955 0010 0324     		movs	r4, #3
 5956 0012 08E0     		b	.L673
 5957              	.LVL755:
 5958              	.L684:
 5959              		.loc 1 1947 0
 5960 0014 FFF7FEFF 		bl	mpi_mod_int
 5961              	.LVL756:
 5962 0018 78B9     		cbnz	r0, .L671
 5963              		.loc 1 1949 0
 5964 001a 019B     		ldr	r3, [sp, #4]
 5965 001c 7BB1     		cbz	r3, .L672
 5966              		.loc 1 1942 0 discriminator 2
 5967 001e 56F8044F 		ldr	r4, [r6, #4]!
 5968 0022 002C     		cmp	r4, #0
 5969 0024 09DD     		ble	.L671
 5970              	.L673:
 5971              		.loc 1 1944 0
 5972 0026 2146     		mov	r1, r4
 5973 0028 2846     		mov	r0, r5
 5974 002a FFF7FEFF 		bl	mpi_cmp_int
 5975              	.LVL757:
 5976 002e 0028     		cmp	r0, #0
 5977              		.loc 1 1947 0
 5978 0030 2246     		mov	r2, r4
 5979 0032 2946     		mov	r1, r5
 5980 0034 01A8     		add	r0, sp, #4
 5981              		.loc 1 1944 0
 5982 0036 EDDC     		bgt	.L684
 5983              	.LVL758:
 5984              		.loc 1 1945 0
 5985 0038 0120     		movs	r0, #1
 5986              	.LVL759:
 5987              	.L671:
 5988              		.loc 1 1955 0
 5989 003a 02B0     		add	sp, sp, #8
 5990              		.cfi_remember_state
 5991              		.cfi_def_cfa_offset 16
 5992              		@ sp needed
 5993 003c 70BD     		pop	{r4, r5, r6, pc}
 5994              	.LVL760:
 5995              	.L672:
 5996              		.cfi_restore_state
 5997              		.loc 1 1940 0
 5998 003e 6FF00D00 		mvn	r0, #13
 5999              		.loc 1 1955 0
 6000 0042 02B0     		add	sp, sp, #8
 6001              		.cfi_def_cfa_offset 16
 6002              		@ sp needed
 6003 0044 70BD     		pop	{r4, r5, r6, pc}
 6004              	.LVL761:
 6005              	.L683:
 6006              		.cfi_def_cfa_offset 0
 6007              		.cfi_restore 4
ARM GAS  C:\Users\jo\AppData\Local\Temp\cc0IQHDm.s 			page 107


 6008              		.cfi_restore 5
 6009              		.cfi_restore 6
 6010              		.cfi_restore 14
 6011              		.loc 1 1940 0
 6012 0046 6FF00D00 		mvn	r0, #13
 6013              	.LVL762:
 6014              		.loc 1 1955 0
 6015 004a 7047     		bx	lr
 6016              	.L686:
 6017              		.align	2
 6018              	.L685:
 6019 004c 00000000 		.word	.LANCHOR0
 6020              		.cfi_endproc
 6021              	.LFE49:
 6022              		.size	mpi_check_small_factors, .-mpi_check_small_factors
 6023              		.section	.text.mpi_exp_mod,"ax",%progbits
 6024              		.align	2
 6025              		.p2align 4,,15
 6026              		.global	mpi_exp_mod
 6027              		.thumb
 6028              		.thumb_func
 6029              		.type	mpi_exp_mod, %function
 6030              	mpi_exp_mod:
 6031              	.LFB45:
 6032              		.loc 1 1522 0
 6033              		.cfi_startproc
 6034              		@ args = 4, pretend = 0, frame = 1632
 6035              		@ frame_needed = 0, uses_anonymous_args = 0
 6036              	.LVL763:
 6037 0000 2DE9F04F 		push	{r4, r5, r6, r7, r8, r9, r10, fp, lr}
 6038              		.cfi_def_cfa_offset 36
 6039              		.cfi_offset 4, -36
 6040              		.cfi_offset 5, -32
 6041              		.cfi_offset 6, -28
 6042              		.cfi_offset 7, -24
 6043              		.cfi_offset 8, -20
 6044              		.cfi_offset 9, -16
 6045              		.cfi_offset 10, -12
 6046              		.cfi_offset 11, -8
 6047              		.cfi_offset 14, -4
 6048 0004 ADF2746D 		subw	sp, sp, #1652
 6049              		.cfi_def_cfa_offset 1688
 6050              		.loc 1 1522 0
 6051 0008 0D46     		mov	r5, r1
 6052 000a 0590     		str	r0, [sp, #20]
 6053              		.loc 1 1531 0
 6054 000c 0021     		movs	r1, #0
 6055              	.LVL764:
 6056 000e 1846     		mov	r0, r3
 6057              	.LVL765:
 6058              		.loc 1 1522 0
 6059 0010 1F46     		mov	r7, r3
 6060 0012 9146     		mov	r9, r2
 6061              		.loc 1 1531 0
 6062 0014 FFF7FEFF 		bl	mpi_cmp_int
 6063              	.LVL766:
 6064 0018 0028     		cmp	r0, #0
ARM GAS  C:\Users\jo\AppData\Local\Temp\cc0IQHDm.s 			page 108


 6065 001a C0F23A81 		blt	.L722
 6066              		.loc 1 1531 0 is_stmt 0 discriminator 1
 6067 001e BB68     		ldr	r3, [r7, #8]
 6068 0020 1C68     		ldr	r4, [r3]
 6069 0022 E307     		lsls	r3, r4, #31
 6070 0024 40F13581 		bpl	.L722
 6071              		.loc 1 1534 0 is_stmt 1
 6072 0028 4846     		mov	r0, r9
 6073 002a 0021     		movs	r1, #0
 6074 002c FFF7FEFF 		bl	mpi_cmp_int
 6075              	.LVL767:
 6076 0030 0028     		cmp	r0, #0
 6077 0032 C0F22E81 		blt	.L722
 6078              	.LVL768:
 6079              	.LBB188:
 6080              	.LBB189:
 6081              		.loc 1 1458 0
 6082 0036 A31C     		adds	r3, r4, #2
 6083 0038 03F00403 		and	r3, r3, #4
 6084 003c 04EB430B 		add	fp, r4, r3, lsl #1
 6085              	.LVL769:
 6086 0040 4FF0030A 		mov	r10, #3
 6087              	.LVL770:
 6088              	.L689:
 6089              		.loc 1 1461 0
 6090 0044 04FB0BF3 		mul	r3, r4, fp
 6091 0048 C3F10203 		rsb	r3, r3, #2
 6092              		.loc 1 1460 0
 6093 004c BAF1010A 		subs	r10, r10, #1
 6094              		.loc 1 1461 0
 6095 0050 03FB0BFB 		mul	fp, r3, fp
 6096              	.LVL771:
 6097              		.loc 1 1460 0
 6098 0054 F6D1     		bne	.L689
 6099              	.LVL772:
 6100              	.LBE189:
 6101              	.LBE188:
 6102              	.LBB191:
 6103              	.LBB192:
 6104              		.loc 1 76 0
 6105 0056 0124     		movs	r4, #1
 6106              	.LVL773:
 6107              	.LBE192:
 6108              	.LBE191:
 6109              		.loc 1 1543 0
 6110 0058 5146     		mov	r1, r10
 6111 005a 4FF4C062 		mov	r2, #1536
 6112 005e 1CA8     		add	r0, sp, #112
 6113              	.LBB194:
 6114              	.LBB193:
 6115              		.loc 1 77 0
 6116 0060 CDF844A0 		str	r10, [sp, #68]
 6117              		.loc 1 78 0
 6118 0064 CDF848A0 		str	r10, [sp, #72]
 6119              	.LVL774:
 6120              		.loc 1 76 0
 6121 0068 1094     		str	r4, [sp, #64]
ARM GAS  C:\Users\jo\AppData\Local\Temp\cc0IQHDm.s 			page 109


 6122              	.LBE193:
 6123              	.LBE194:
 6124              	.LBB195:
 6125              	.LBB196:
 6126 006a 1394     		str	r4, [sp, #76]
 6127              		.loc 1 77 0
 6128 006c CDF850A0 		str	r10, [sp, #80]
 6129              		.loc 1 78 0
 6130 0070 CDF854A0 		str	r10, [sp, #84]
 6131              	.LVL775:
 6132              	.LBE196:
 6133              	.LBE195:
 6134              	.LBB197:
 6135              	.LBB198:
 6136              		.loc 1 76 0
 6137 0074 1694     		str	r4, [sp, #88]
 6138              		.loc 1 77 0
 6139 0076 CDF85CA0 		str	r10, [sp, #92]
 6140              		.loc 1 78 0
 6141 007a CDF860A0 		str	r10, [sp, #96]
 6142              	.LBE198:
 6143              	.LBE197:
 6144              		.loc 1 1543 0
 6145 007e FFF7FEFF 		bl	memset
 6146              	.LVL776:
 6147              		.loc 1 1545 0
 6148 0082 4846     		mov	r0, r9
 6149 0084 FFF7FEFF 		bl	mpi_msb
 6150              	.LVL777:
 6151              		.loc 1 1547 0
 6152 0088 B0F5287F 		cmp	r0, #672
 6153 008c 36D3     		bcc	.L765
 6154 008e 4023     		movs	r3, #64
 6155 0090 0493     		str	r3, [sp, #16]
 6156 0092 0623     		movs	r3, #6
 6157 0094 2024     		movs	r4, #32
 6158 0096 4FF0050A 		mov	r10, #5
 6159 009a 0793     		str	r3, [sp, #28]
 6160              	.L690:
 6161              	.LVL778:
 6162              		.loc 1 1553 0
 6163 009c 7A68     		ldr	r2, [r7, #4]
 6164              		.loc 1 1554 0
 6165 009e 0598     		ldr	r0, [sp, #20]
 6166              	.LVL779:
 6167              		.loc 1 1553 0
 6168 00a0 02F10108 		add	r8, r2, #1
 6169              	.LVL780:
 6170              		.loc 1 1554 0
 6171 00a4 4146     		mov	r1, r8
 6172 00a6 FFF7FEFF 		bl	mpi_grow
 6173              	.LVL781:
 6174 00aa 1FAB     		add	r3, sp, #124
 6175 00ac 0646     		mov	r6, r0
 6176 00ae 0693     		str	r3, [sp, #24]
 6177 00b0 78B3     		cbz	r0, .L766
 6178              	.LVL782:
ARM GAS  C:\Users\jo\AppData\Local\Temp\cc0IQHDm.s 			page 110


 6179              	.L718:
 6180 00b2 04EB4407 		add	r7, r4, r4, lsl #1
 6181              	.LVL783:
 6182 00b6 1CAB     		add	r3, sp, #112
 6183 00b8 049D     		ldr	r5, [sp, #16]
 6184 00ba 03EB8707 		add	r7, r3, r7, lsl #2
 6185              	.L716:
 6186              		.loc 1 1716 0 discriminator 3
 6187 00be 3846     		mov	r0, r7
 6188              		.loc 1 1715 0 discriminator 3
 6189 00c0 0134     		adds	r4, r4, #1
 6190              	.LVL784:
 6191              		.loc 1 1716 0 discriminator 3
 6192 00c2 FFF7FEFF 		bl	mpi_free
 6193              	.LVL785:
 6194              		.loc 1 1715 0 discriminator 3
 6195 00c6 A542     		cmp	r5, r4
 6196 00c8 07F10C07 		add	r7, r7, #12
 6197 00cc F7D8     		bhi	.L716
 6198              	.L715:
 6199              		.loc 1 1718 0
 6200 00ce 0698     		ldr	r0, [sp, #24]
 6201 00d0 FFF7FEFF 		bl	mpi_free
 6202              	.LVL786:
 6203 00d4 13A8     		add	r0, sp, #76
 6204              	.LVL787:
 6205 00d6 FFF7FEFF 		bl	mpi_free
 6206              	.LVL788:
 6207 00da 16A8     		add	r0, sp, #88
 6208              	.LVL789:
 6209 00dc FFF7FEFF 		bl	mpi_free
 6210              	.LVL790:
 6211              		.loc 1 1720 0
 6212 00e0 DDF89836 		ldr	r3, [sp, #1688]
 6213 00e4 002B     		cmp	r3, #0
 6214 00e6 00F0CC80 		beq	.L717
 6215              		.loc 1 1720 0 is_stmt 0 discriminator 1
 6216 00ea 9B68     		ldr	r3, [r3, #8]
 6217 00ec 002B     		cmp	r3, #0
 6218 00ee 00F0C880 		beq	.L717
 6219 00f2 3046     		mov	r0, r6
 6220              	.LVL791:
 6221              	.L759:
 6222              		.loc 1 1724 0 is_stmt 1
 6223 00f4 0DF2746D 		addw	sp, sp, #1652
 6224              		.cfi_remember_state
 6225              		.cfi_def_cfa_offset 36
 6226              		@ sp needed
 6227 00f8 BDE8F08F 		pop	{r4, r5, r6, r7, r8, r9, r10, fp, pc}
 6228              	.LVL792:
 6229              	.L765:
 6230              		.cfi_restore_state
 6231              		.loc 1 1547 0 discriminator 1
 6232 00fc EF28     		cmp	r0, #239
 6233 00fe 12D8     		bhi	.L724
 6234              		.loc 1 1547 0 is_stmt 0 discriminator 3
 6235 0100 4F28     		cmp	r0, #79
ARM GAS  C:\Users\jo\AppData\Local\Temp\cc0IQHDm.s 			page 111


 6236 0102 18D8     		bhi	.L725
 6237              		.loc 1 1547 0 discriminator 5
 6238 0104 1728     		cmp	r0, #23
 6239 0106 00F2C780 		bhi	.L726
 6240              		.loc 1 1547 0
 6241 010a 0223     		movs	r3, #2
 6242 010c 0794     		str	r4, [sp, #28]
 6243 010e 0493     		str	r3, [sp, #16]
 6244 0110 C4E7     		b	.L690
 6245              	.LVL793:
 6246              	.L766:
 6247              		.loc 1 1555 0 is_stmt 1
 6248 0112 1846     		mov	r0, r3
 6249              	.LVL794:
 6250 0114 4146     		mov	r1, r8
 6251 0116 FFF7FEFF 		bl	mpi_grow
 6252              	.LVL795:
 6253 011a 0646     		mov	r6, r0
 6254 011c 98B1     		cbz	r0, .L767
 6255              	.LVL796:
 6256              	.L691:
 6257              		.loc 1 1715 0
 6258 011e 049B     		ldr	r3, [sp, #16]
 6259 0120 A342     		cmp	r3, r4
 6260 0122 C6D8     		bhi	.L718
 6261 0124 D3E7     		b	.L715
 6262              	.LVL797:
 6263              	.L724:
 6264 0126 2023     		movs	r3, #32
 6265 0128 0493     		str	r3, [sp, #16]
 6266              		.loc 1 1547 0
 6267 012a 0523     		movs	r3, #5
 6268 012c 1024     		movs	r4, #16
 6269 012e 4FF0040A 		mov	r10, #4
 6270 0132 0793     		str	r3, [sp, #28]
 6271 0134 B2E7     		b	.L690
 6272              	.L725:
 6273 0136 1023     		movs	r3, #16
 6274 0138 0493     		str	r3, [sp, #16]
 6275 013a 0423     		movs	r3, #4
 6276 013c 0824     		movs	r4, #8
 6277 013e 4FF0030A 		mov	r10, #3
 6278 0142 0793     		str	r3, [sp, #28]
 6279 0144 AAE7     		b	.L690
 6280              	.LVL798:
 6281              	.L767:
 6282              		.loc 1 1556 0
 6283 0146 4FEA4801 		lsl	r1, r8, #1
 6284 014a 13A8     		add	r0, sp, #76
 6285              	.LVL799:
 6286 014c FFF7FEFF 		bl	mpi_grow
 6287              	.LVL800:
 6288 0150 0646     		mov	r6, r0
 6289 0152 0028     		cmp	r0, #0
 6290 0154 E3D1     		bne	.L691
 6291              		.loc 1 1561 0
 6292 0156 2A68     		ldr	r2, [r5]
ARM GAS  C:\Users\jo\AppData\Local\Temp\cc0IQHDm.s 			page 112


 6293 0158 A2F1FF33 		sub	r3, r2, #-1
 6294 015c B3FA83F3 		clz	r3, r3
 6295 0160 5B09     		lsrs	r3, r3, #5
 6296 0162 0A93     		str	r3, [sp, #40]
 6297              	.LVL801:
 6298              		.loc 1 1562 0
 6299 0164 002B     		cmp	r3, #0
 6300 0166 40F0C480 		bne	.L768
 6301              	.LVL802:
 6302              	.L692:
 6303              		.loc 1 1572 0
 6304 016a DDF89836 		ldr	r3, [sp, #1688]
 6305 016e 002B     		cmp	r3, #0
 6306 0170 00F09A80 		beq	.L693
 6307              		.loc 1 1572 0 is_stmt 0 discriminator 1
 6308 0174 9A68     		ldr	r2, [r3, #8]
 6309 0176 002A     		cmp	r2, #0
 6310 0178 00F09680 		beq	.L693
 6311              		.loc 1 1582 0 is_stmt 1
 6312 017c DDF89836 		ldr	r3, [sp, #1688]
 6313 0180 1868     		ldr	r0, [r3]	@ unaligned
 6314              	.LVL803:
 6315 0182 5968     		ldr	r1, [r3, #4]	@ unaligned
 6316 0184 9A68     		ldr	r2, [r3, #8]	@ unaligned
 6317 0186 10AE     		add	r6, sp, #64
 6318              	.LVL804:
 6319 0188 07C6     		stmia	r6!, {r0, r1, r2}
 6320              	.LVL805:
 6321              	.L695:
 6322              		.loc 1 1587 0
 6323 018a 3946     		mov	r1, r7
 6324 018c 2846     		mov	r0, r5
 6325 018e FFF7FEFF 		bl	mpi_cmp_mpi
 6326              	.LVL806:
 6327 0192 0028     		cmp	r0, #0
 6328              		.loc 1 1588 0
 6329 0194 2946     		mov	r1, r5
 6330 0196 0698     		ldr	r0, [sp, #24]
 6331              		.loc 1 1587 0
 6332 0198 C0F2EA80 		blt	.L696
 6333              	.LVL807:
 6334              		.loc 1 1588 0
 6335 019c 3A46     		mov	r2, r7
 6336 019e FFF7FEFF 		bl	mpi_mod_mpi
 6337              	.LVL808:
 6338 01a2 0646     		mov	r6, r0
 6339 01a4 0028     		cmp	r0, #0
 6340 01a6 BAD1     		bne	.L691
 6341              	.L698:
 6342              		.loc 1 1592 0
 6343 01a8 149B     		ldr	r3, [sp, #80]
 6344 01aa 0193     		str	r3, [sp, #4]
 6345              	.LBB199:
 6346              	.LBB190:
 6347              		.loc 1 1463 0
 6348 01ac CBF1000B 		rsb	fp, fp, #0
 6349              	.LVL809:
ARM GAS  C:\Users\jo\AppData\Local\Temp\cc0IQHDm.s 			page 113


 6350              	.LBE190:
 6351              	.LBE199:
 6352              		.loc 1 1592 0
 6353 01b0 15AB     		add	r3, sp, #84
 6354 01b2 0293     		str	r3, [sp, #8]
 6355 01b4 0698     		ldr	r0, [sp, #24]
 6356              	.LVL810:
 6357 01b6 CDF800B0 		str	fp, [sp]
 6358 01ba 11A9     		add	r1, sp, #68
 6359 01bc 12AA     		add	r2, sp, #72
 6360 01be 3B46     		mov	r3, r7
 6361 01c0 FFF7FEFF 		bl	mpi_montmul.isra.2
 6362              	.LVL811:
 6363              		.loc 1 1597 0
 6364 01c4 0598     		ldr	r0, [sp, #20]
 6365 01c6 10A9     		add	r1, sp, #64
 6366              	.LVL812:
 6367 01c8 FFF7FEFF 		bl	mpi_copy
 6368              	.LVL813:
 6369 01cc 0646     		mov	r6, r0
 6370 01ce 0028     		cmp	r0, #0
 6371 01d0 A5D1     		bne	.L691
 6372              	.LVL814:
 6373              	.LBB200:
 6374              	.LBB201:
 6375              		.loc 1 1515 0
 6376 01d2 149B     		ldr	r3, [sp, #80]
 6377 01d4 0193     		str	r3, [sp, #4]
 6378 01d6 15AA     		add	r2, sp, #84
 6379              		.loc 1 1509 0
 6380 01d8 4FF0010E 		mov	lr, #1
 6381              		.loc 1 1515 0
 6382 01dc 0292     		str	r2, [sp, #8]
 6383 01de 3B46     		mov	r3, r7
 6384 01e0 CDF800B0 		str	fp, [sp]
 6385 01e4 1AA9     		add	r1, sp, #104
 6386 01e6 1BAA     		add	r2, sp, #108
 6387 01e8 0598     		ldr	r0, [sp, #20]
 6388              	.LVL815:
 6389              		.loc 1 1509 0
 6390 01ea CDF83CE0 		str	lr, [sp, #60]
 6391              		.loc 1 1513 0
 6392 01ee 0FAD     		add	r5, sp, #60
 6393              	.LVL816:
 6394              		.loc 1 1512 0
 6395 01f0 CDF864E0 		str	lr, [sp, #100]
 6396 01f4 CDF868E0 		str	lr, [sp, #104]
 6397              		.loc 1 1513 0
 6398 01f8 1B95     		str	r5, [sp, #108]
 6399              		.loc 1 1515 0
 6400 01fa FFF7FEFF 		bl	mpi_montmul.isra.2
 6401              	.LVL817:
 6402              	.LBE201:
 6403              	.LBE200:
 6404              		.loc 1 1600 0
 6405 01fe 079B     		ldr	r3, [sp, #28]
 6406 0200 012B     		cmp	r3, #1
ARM GAS  C:\Users\jo\AppData\Local\Temp\cc0IQHDm.s 			page 114


 6407 0202 40F00781 		bne	.L699
 6408              	.LVL818:
 6409              	.L702:
 6410              		.loc 1 1625 0
 6411 0206 D9F80430 		ldr	r3, [r9, #4]
 6412 020a 0893     		str	r3, [sp, #32]
 6413              	.LVL819:
 6414 020c 059B     		ldr	r3, [sp, #20]
 6415              	.LVL820:
 6416 020e 0D96     		str	r6, [sp, #52]
 6417              		.loc 1 1629 0
 6418 0210 4FF00008 		mov	r8, #0
 6419 0214 1A1D     		adds	r2, r3, #4
 6420 0216 079E     		ldr	r6, [sp, #28]
 6421              		.loc 1 1626 0
 6422 0218 CDF82480 		str	r8, [sp, #36]
 6423              		.loc 1 1627 0
 6424 021c C446     		mov	ip, r8
 6425              		.loc 1 1628 0
 6426 021e C246     		mov	r10, r8
 6427 0220 0C94     		str	r4, [sp, #48]
 6428 0222 0B92     		str	r2, [sp, #44]
 6429 0224 4446     		mov	r4, r8
 6430 0226 5D46     		mov	r5, fp
 6431 0228 9846     		mov	r8, r3
 6432              	.LVL821:
 6433              	.L700:
 6434              		.loc 1 1633 0
 6435 022a 099B     		ldr	r3, [sp, #36]
 6436 022c F3B1     		cbz	r3, .L704
 6437              	.LVL822:
 6438              	.L771:
 6439 022e 013B     		subs	r3, r3, #1
 6440              	.LVL823:
 6441 0230 0993     		str	r3, [sp, #36]
 6442              	.LVL824:
 6443 0232 1A46     		mov	r2, r3
 6444              	.LVL825:
 6445              	.L705:
 6446              		.loc 1 1645 0
 6447 0234 D9F80830 		ldr	r3, [r9, #8]
 6448 0238 0899     		ldr	r1, [sp, #32]
 6449 023a 53F82130 		ldr	r3, [r3, r1, lsl #2]
 6450 023e D340     		lsrs	r3, r3, r2
 6451              	.LVL826:
 6452              		.loc 1 1650 0
 6453 0240 13F00103 		ands	r3, r3, #1
 6454              	.LVL827:
 6455 0244 06D1     		bne	.L709
 6456              		.loc 1 1650 0 is_stmt 0 discriminator 1
 6457 0246 BCF1000F 		cmp	ip, #0
 6458 024a EED0     		beq	.L700
 6459              		.loc 1 1653 0 is_stmt 1 discriminator 1
 6460 024c BCF1010F 		cmp	ip, #1
 6461 0250 00F0CF80 		beq	.L769
 6462              	.L709:
 6463              	.LVL828:
ARM GAS  C:\Users\jo\AppData\Local\Temp\cc0IQHDm.s 			page 115


 6464              		.loc 1 1667 0
 6465 0254 0134     		adds	r4, r4, #1
 6466              	.LVL829:
 6467              		.loc 1 1668 0
 6468 0256 321B     		subs	r2, r6, r4
 6469 0258 9340     		lsls	r3, r3, r2
 6470              	.LVL830:
 6471              		.loc 1 1670 0
 6472 025a A642     		cmp	r6, r4
 6473              		.loc 1 1668 0
 6474 025c 4AEA030A 		orr	r10, r10, r3
 6475              	.LVL831:
 6476              		.loc 1 1670 0
 6477 0260 54D0     		beq	.L770
 6478              		.loc 1 1633 0
 6479 0262 099B     		ldr	r3, [sp, #36]
 6480              		.loc 1 1665 0
 6481 0264 4FF0020C 		mov	ip, #2
 6482              	.LVL832:
 6483              		.loc 1 1633 0
 6484 0268 002B     		cmp	r3, #0
 6485 026a E0D1     		bne	.L771
 6486              	.L704:
 6487              	.LVL833:
 6488              		.loc 1 1635 0
 6489 026c 089B     		ldr	r3, [sp, #32]
 6490 026e 002B     		cmp	r3, #0
 6491 0270 00F08580 		beq	.L772
 6492              		.loc 1 1638 0
 6493 0274 089A     		ldr	r2, [sp, #32]
 6494 0276 1F23     		movs	r3, #31
 6495 0278 013A     		subs	r2, r2, #1
 6496 027a 0892     		str	r2, [sp, #32]
 6497              	.LVL834:
 6498 027c 0993     		str	r3, [sp, #36]
 6499 027e 1A46     		mov	r2, r3
 6500              	.LVL835:
 6501 0280 D8E7     		b	.L705
 6502              	.LVL836:
 6503              	.L717:
 6504              		.loc 1 1721 0
 6505 0282 10A8     		add	r0, sp, #64
 6506              	.LVL837:
 6507 0284 FFF7FEFF 		bl	mpi_free
 6508              	.LVL838:
 6509 0288 3046     		mov	r0, r6
 6510              		.loc 1 1724 0
 6511 028a 0DF2746D 		addw	sp, sp, #1652
 6512              		.cfi_remember_state
 6513              		.cfi_def_cfa_offset 36
 6514              		@ sp needed
 6515 028e BDE8F08F 		pop	{r4, r5, r6, r7, r8, r9, r10, fp, pc}
 6516              	.LVL839:
 6517              	.L722:
 6518              		.cfi_restore_state
 6519              		.loc 1 1532 0
 6520 0292 6FF00300 		mvn	r0, #3
ARM GAS  C:\Users\jo\AppData\Local\Temp\cc0IQHDm.s 			page 116


 6521 0296 2DE7     		b	.L759
 6522              	.LVL840:
 6523              	.L726:
 6524 0298 0823     		movs	r3, #8
 6525 029a 0493     		str	r3, [sp, #16]
 6526              		.loc 1 1547 0
 6527 029c 0323     		movs	r3, #3
 6528 029e 0424     		movs	r4, #4
 6529 02a0 4FF0020A 		mov	r10, #2
 6530 02a4 0793     		str	r3, [sp, #28]
 6531 02a6 F9E6     		b	.L690
 6532              	.LVL841:
 6533              	.L693:
 6534              		.loc 1 1574 0
 6535 02a8 10A8     		add	r0, sp, #64
 6536              	.LVL842:
 6537 02aa 0121     		movs	r1, #1
 6538 02ac FFF7FEFF 		bl	mpi_lset
 6539              	.LVL843:
 6540 02b0 0646     		mov	r6, r0
 6541 02b2 0028     		cmp	r0, #0
 6542 02b4 7FF433AF 		bne	.L691
 6543              		.loc 1 1575 0
 6544 02b8 7968     		ldr	r1, [r7, #4]
 6545 02ba 10A8     		add	r0, sp, #64
 6546              	.LVL844:
 6547 02bc 8901     		lsls	r1, r1, #6
 6548 02be FFF7FEFF 		bl	mpi_shift_l
 6549              	.LVL845:
 6550 02c2 0646     		mov	r6, r0
 6551 02c4 0028     		cmp	r0, #0
 6552 02c6 7FF42AAF 		bne	.L691
 6553              		.loc 1 1576 0
 6554 02ca 10A8     		add	r0, sp, #64
 6555              	.LVL846:
 6556 02cc 0146     		mov	r1, r0
 6557 02ce 3A46     		mov	r2, r7
 6558 02d0 FFF7FEFF 		bl	mpi_mod_mpi
 6559              	.LVL847:
 6560 02d4 0646     		mov	r6, r0
 6561 02d6 0028     		cmp	r0, #0
 6562 02d8 7FF421AF 		bne	.L691
 6563              		.loc 1 1578 0
 6564 02dc DDF89836 		ldr	r3, [sp, #1688]
 6565 02e0 002B     		cmp	r3, #0
 6566 02e2 3FF452AF 		beq	.L695
 6567              		.loc 1 1579 0
 6568 02e6 10AE     		add	r6, sp, #64
 6569              	.LVL848:
 6570 02e8 07CE     		ldmia	r6!, {r0, r1, r2}
 6571              	.LVL849:
 6572 02ea 1860     		str	r0, [r3]	@ unaligned
 6573 02ec 5960     		str	r1, [r3, #4]	@ unaligned
 6574 02ee 9A60     		str	r2, [r3, #8]	@ unaligned
 6575 02f0 4BE7     		b	.L695
 6576              	.LVL850:
 6577              	.L768:
ARM GAS  C:\Users\jo\AppData\Local\Temp\cc0IQHDm.s 			page 117


 6578              		.loc 1 1564 0
 6579 02f2 2946     		mov	r1, r5
 6580 02f4 16A8     		add	r0, sp, #88
 6581              	.LVL851:
 6582 02f6 FFF7FEFF 		bl	mpi_copy
 6583              	.LVL852:
 6584 02fa 0646     		mov	r6, r0
 6585 02fc 0028     		cmp	r0, #0
 6586 02fe 7FF40EAF 		bne	.L691
 6587              		.loc 1 1565 0
 6588 0302 0122     		movs	r2, #1
 6589              		.loc 1 1566 0
 6590 0304 16AB     		add	r3, sp, #88
 6591              	.LVL853:
 6592              		.loc 1 1565 0
 6593 0306 1692     		str	r2, [sp, #88]
 6594              	.LVL854:
 6595              		.loc 1 1566 0
 6596 0308 1D46     		mov	r5, r3
 6597 030a 2EE7     		b	.L692
 6598              	.LVL855:
 6599              	.L770:
 6600              		.loc 1 1670 0
 6601 030c 4FF0000B 		mov	fp, #0
 6602 0310 CDF81CA0 		str	r10, [sp, #28]
 6603 0314 DA46     		mov	r10, fp
 6604              	.LVL856:
 6605 0316 CB46     		mov	fp, r9
 6606 0318 DDF82C90 		ldr	r9, [sp, #44]
 6607 031c 08F10804 		add	r4, r8, #8
 6608              	.LVL857:
 6609              	.L711:
 6610              		.loc 1 1676 0 discriminator 3
 6611 0320 149B     		ldr	r3, [sp, #80]
 6612 0322 0193     		str	r3, [sp, #4]
 6613 0324 15AA     		add	r2, sp, #84
 6614 0326 0292     		str	r2, [sp, #8]
 6615 0328 0095     		str	r5, [sp]
 6616              		.loc 1 1675 0 discriminator 3
 6617 032a 0AF1010A 		add	r10, r10, #1
 6618              	.LVL858:
 6619              		.loc 1 1676 0 discriminator 3
 6620 032e 4046     		mov	r0, r8
 6621 0330 4946     		mov	r1, r9
 6622 0332 2246     		mov	r2, r4
 6623 0334 3B46     		mov	r3, r7
 6624 0336 FFF7FEFF 		bl	mpi_montmul.isra.2
 6625              	.LVL859:
 6626              		.loc 1 1675 0 discriminator 3
 6627 033a B245     		cmp	r10, r6
 6628 033c F0D1     		bne	.L711
 6629 033e DDF81CA0 		ldr	r10, [sp, #28]
 6630              	.LVL860:
 6631              		.loc 1 1681 0
 6632 0342 0095     		str	r5, [sp]
 6633 0344 0AEB4A0A 		add	r10, r10, r10, lsl #1
 6634 0348 1CAB     		add	r3, sp, #112
ARM GAS  C:\Users\jo\AppData\Local\Temp\cc0IQHDm.s 			page 118


 6635 034a 03EB8A02 		add	r2, r3, r10, lsl #2
 6636 034e 15A9     		add	r1, sp, #84
 6637 0350 149B     		ldr	r3, [sp, #80]
 6638 0352 0291     		str	r1, [sp, #8]
 6639 0354 0193     		str	r3, [sp, #4]
 6640 0356 111D     		adds	r1, r2, #4
 6641 0358 4046     		mov	r0, r8
 6642 035a 0832     		adds	r2, r2, #8
 6643 035c 3B46     		mov	r3, r7
 6644              		.loc 1 1684 0
 6645 035e 4FF0000A 		mov	r10, #0
 6646              		.loc 1 1681 0
 6647 0362 FFF7FEFF 		bl	mpi_montmul.isra.2
 6648              	.LVL861:
 6649 0366 D946     		mov	r9, fp
 6650              		.loc 1 1685 0
 6651 0368 5446     		mov	r4, r10
 6652              		.loc 1 1683 0
 6653 036a 4FF0010C 		mov	ip, #1
 6654 036e 5CE7     		b	.L700
 6655              	.LVL862:
 6656              	.L696:
 6657              		.loc 1 1590 0
 6658 0370 FFF7FEFF 		bl	mpi_copy
 6659              	.LVL863:
 6660 0374 0646     		mov	r6, r0
 6661 0376 0028     		cmp	r0, #0
 6662 0378 7FF4D1AE 		bne	.L691
 6663 037c 14E7     		b	.L698
 6664              	.LVL864:
 6665              	.L772:
 6666 037e A446     		mov	ip, r4
 6667              	.LVL865:
 6668 0380 0D9E     		ldr	r6, [sp, #52]
 6669 0382 0C9C     		ldr	r4, [sp, #48]
 6670              	.LVL866:
 6671 0384 AB46     		mov	fp, r5
