ARM GAS  C:\Users\jo\AppData\Local\Temp\ccQVAqlC.s 			page 1


   1              		.syntax unified
   2              		.cpu cortex-m4
   3              		.fpu softvfp
   4              		.eabi_attribute 20, 1
   5              		.eabi_attribute 21, 1
   6              		.eabi_attribute 23, 3
   7              		.eabi_attribute 24, 1
   8              		.eabi_attribute 25, 1
   9              		.eabi_attribute 26, 1
  10              		.eabi_attribute 30, 2
  11              		.eabi_attribute 34, 1
  12              		.eabi_attribute 18, 4
  13              		.thumb
  14              		.file	"blowfish.c"
  15              		.text
  16              	.Ltext0:
  17              		.cfi_sections	.debug_frame
  18              		.section	.text.blowfish_enc,"ax",%progbits
  19              		.align	2
  20              		.p2align 4,,15
  21              		.thumb
  22              		.thumb_func
  23              		.type	blowfish_enc, %function
  24              	blowfish_enc:
  25              	.LFB2:
  26              		.file 1 "../../../ext/mbedtls-1.3.11/library/blowfish.c"
  27              		.loc 1 102 0
  28              		.cfi_startproc
  29              		@ args = 0, pretend = 0, frame = 0
  30              		@ frame_needed = 0, uses_anonymous_args = 0
  31              	.LVL0:
  32 0000 2DE9F041 		push	{r4, r5, r6, r7, r8, lr}
  33              		.cfi_def_cfa_offset 24
  34              		.cfi_offset 4, -24
  35              		.cfi_offset 5, -20
  36              		.cfi_offset 6, -16
  37              		.cfi_offset 7, -12
  38              		.cfi_offset 8, -8
  39              		.cfi_offset 14, -4
  40              		.loc 1 106 0
  41 0004 0C68     		ldr	r4, [r1]
  42              	.LVL1:
  43              		.loc 1 107 0
  44 0006 D2F800E0 		ldr	lr, [r2]
  45              	.LVL2:
  46 000a 071F     		subs	r7, r0, #4
  47 000c 00F13C0C 		add	ip, r0, #60
  48              	.LVL3:
  49              	.L2:
  50              		.loc 1 111 0 discriminator 3
  51 0010 57F8043F 		ldr	r3, [r7, #4]!
  52 0014 6340     		eors	r3, r3, r4
  53              	.LVL4:
  54              	.LBB8:
  55              	.LBB9:
  56              		.loc 1 92 0 discriminator 3
  57 0016 1C0E     		lsrs	r4, r3, #24
ARM GAS  C:\Users\jo\AppData\Local\Temp\ccQVAqlC.s 			page 2


  58              	.LVL5:
  59              		.loc 1 94 0 discriminator 3
  60 0018 C3F30748 		ubfx	r8, r3, #16, #8
  61 001c 1234     		adds	r4, r4, #18
  62              	.LVL6:
  63 001e 08F58978 		add	r8, r8, #274
  64              		.loc 1 95 0 discriminator 3
  65 0022 C3F30726 		ubfx	r6, r3, #8, #8
  66 0026 06F21226 		addw	r6, r6, #530
  67              		.loc 1 96 0 discriminator 3
  68 002a DDB2     		uxtb	r5, r3
  69              		.loc 1 94 0 discriminator 3
  70 002c 50F82440 		ldr	r4, [r0, r4, lsl #2]
  71              	.LVL7:
  72 0030 50F82880 		ldr	r8, [r0, r8, lsl #2]
  73              		.loc 1 95 0 discriminator 3
  74 0034 50F82660 		ldr	r6, [r0, r6, lsl #2]
  75              		.loc 1 96 0 discriminator 3
  76 0038 05F21235 		addw	r5, r5, #786
  77              		.loc 1 94 0 discriminator 3
  78 003c 4444     		add	r4, r4, r8
  79              	.LVL8:
  80              		.loc 1 96 0 discriminator 3
  81 003e 50F82550 		ldr	r5, [r0, r5, lsl #2]
  82              		.loc 1 95 0 discriminator 3
  83 0042 7440     		eors	r4, r4, r6
  84              	.LVL9:
  85              		.loc 1 96 0 discriminator 3
  86 0044 2C44     		add	r4, r4, r5
  87              	.LVL10:
  88              	.LBE9:
  89              	.LBE8:
  90              		.loc 1 109 0 discriminator 3
  91 0046 6745     		cmp	r7, ip
  92              		.loc 1 112 0 discriminator 3
  93 0048 8EEA0404 		eor	r4, lr, r4
  94              	.LVL11:
  95              		.loc 1 111 0 discriminator 3
  96 004c 9E46     		mov	lr, r3
  97              		.loc 1 109 0 discriminator 3
  98 004e DFD1     		bne	.L2
  99              	.LVL12:
 100              		.loc 1 123 0
 101 0050 036C     		ldr	r3, [r0, #64]
 102              	.LVL13:
 103              		.loc 1 124 0
 104 0052 456C     		ldr	r5, [r0, #68]
 105              		.loc 1 123 0
 106 0054 5C40     		eors	r4, r4, r3
 107              	.LVL14:
 108              		.loc 1 124 0
 109 0056 8EEA0500 		eor	r0, lr, r5
 110              	.LVL15:
 111              		.loc 1 126 0
 112 005a 0860     		str	r0, [r1]
 113              	.LVL16:
 114              		.loc 1 127 0
ARM GAS  C:\Users\jo\AppData\Local\Temp\ccQVAqlC.s 			page 3


 115 005c 1460     		str	r4, [r2]
 116 005e BDE8F081 		pop	{r4, r5, r6, r7, r8, pc}
 117              		.cfi_endproc
 118              	.LFE2:
 119              		.size	blowfish_enc, .-blowfish_enc
 120 0062 00BFAFF3 		.section	.text.blowfish_init,"ax",%progbits
 120      0080AFF3 
 120      0080AFF3 
 120      0080
 121              		.align	2
 122              		.p2align 4,,15
 123              		.global	blowfish_init
 124              		.thumb
 125              		.thumb_func
 126              		.type	blowfish_init, %function
 127              	blowfish_init:
 128              	.LFB4:
 129              		.loc 1 160 0
 130              		.cfi_startproc
 131              		@ args = 0, pretend = 0, frame = 0
 132              		@ frame_needed = 0, uses_anonymous_args = 0
 133              		@ link register save eliminated.
 134              	.LVL17:
 135              		.loc 1 161 0
 136 0000 0021     		movs	r1, #0
 137 0002 41F24802 		movw	r2, #4168
 138 0006 FFF7FEBF 		b	memset
 139              	.LVL18:
 140              		.cfi_endproc
 141              	.LFE4:
 142              		.size	blowfish_init, .-blowfish_init
 143 000a 00BFAFF3 		.section	.text.blowfish_free,"ax",%progbits
 143      0080
 144              		.align	2
 145              		.p2align 4,,15
 146              		.global	blowfish_free
 147              		.thumb
 148              		.thumb_func
 149              		.type	blowfish_free, %function
 150              	blowfish_free:
 151              	.LFB5:
 152              		.loc 1 165 0
 153              		.cfi_startproc
 154              		@ args = 0, pretend = 0, frame = 0
 155              		@ frame_needed = 0, uses_anonymous_args = 0
 156              		@ link register save eliminated.
 157              	.LVL19:
 158              		.loc 1 166 0
 159 0000 38B1     		cbz	r0, .L7
 160 0002 00F58253 		add	r3, r0, #4160
 161 0006 0833     		adds	r3, r3, #8
 162              	.LBB10:
 163              	.LBB11:
 164              		.loc 1 45 0
 165 0008 0022     		movs	r2, #0
 166              	.LVL20:
 167              	.L9:
ARM GAS  C:\Users\jo\AppData\Local\Temp\ccQVAqlC.s 			page 4


 168 000a 0270     		strb	r2, [r0]
 169              	.LVL21:
 170 000c 0130     		adds	r0, r0, #1
 171              	.LVL22:
 172 000e 9842     		cmp	r0, r3
 173 0010 FBD1     		bne	.L9
 174              	.LVL23:
 175              	.L7:
 176 0012 7047     		bx	lr
 177              	.LBE11:
 178              	.LBE10:
 179              		.cfi_endproc
 180              	.LFE5:
 181              		.size	blowfish_free, .-blowfish_free
 182 0014 AFF30080 		.section	.text.blowfish_setkey,"ax",%progbits
 182      AFF30080 
 182      AFF30080 
 183              		.align	2
 184              		.p2align 4,,15
 185              		.global	blowfish_setkey
 186              		.thumb
 187              		.thumb_func
 188              		.type	blowfish_setkey, %function
 189              	blowfish_setkey:
 190              	.LFB6:
 191              		.loc 1 177 0
 192              		.cfi_startproc
 193              		@ args = 0, pretend = 0, frame = 8
 194              		@ frame_needed = 0, uses_anonymous_args = 0
 195              	.LVL24:
 196              		.loc 1 181 0
 197 0000 A2F12003 		sub	r3, r2, #32
 198 0004 B3F5D07F 		cmp	r3, #416
 199 0008 58D8     		bhi	.L24
 200              		.loc 1 181 0 is_stmt 0 discriminator 1
 201 000a 5307     		lsls	r3, r2, #29
 202 000c 56D1     		bne	.L24
 203              		.loc 1 177 0 is_stmt 1
 204 000e F0B5     		push	{r4, r5, r6, r7, lr}
 205              		.cfi_def_cfa_offset 20
 206              		.cfi_offset 4, -20
 207              		.cfi_offset 5, -16
 208              		.cfi_offset 6, -12
 209              		.cfi_offset 7, -8
 210              		.cfi_offset 14, -4
 211 0010 00F5825E 		add	lr, r0, #4160
 212 0014 2B4F     		ldr	r7, .L34
 213 0016 83B0     		sub	sp, sp, #12
 214              		.cfi_def_cfa_offset 32
 215              		.loc 1 187 0
 216 0018 D608     		lsrs	r6, r2, #3
 217              	.LVL25:
 218 001a 0EF1040E 		add	lr, lr, #4
 219 001e 00F14403 		add	r3, r0, #68
 220              	.LVL26:
 221              	.L14:
 222 0022 03F58065 		add	r5, r3, #1024
ARM GAS  C:\Users\jo\AppData\Local\Temp\ccQVAqlC.s 			page 5


 223              		.loc 1 177 0
 224 0026 3A46     		mov	r2, r7
 225              	.LVL27:
 226              	.L15:
 227              		.loc 1 192 0 discriminator 3
 228 0028 52F8044F 		ldr	r4, [r2, #4]!
 229 002c 43F8044F 		str	r4, [r3, #4]!
 230              		.loc 1 191 0 discriminator 3
 231 0030 AB42     		cmp	r3, r5
 232 0032 F9D1     		bne	.L15
 233              		.loc 1 189 0 discriminator 2
 234 0034 9E45     		cmp	lr, r3
 235 0036 07F58067 		add	r7, r7, #1024
 236 003a F2D1     		bne	.L14
 237 003c 224F     		ldr	r7, .L34+4
 238 003e A0F1040E 		sub	lr, r0, #4
 239 0042 07F1480C 		add	ip, r7, #72
 240              		.loc 1 189 0 is_stmt 0
 241 0046 0023     		movs	r3, #0
 242              	.L16:
 243              	.LVL28:
 244              		.loc 1 177 0 is_stmt 1
 245 0048 0422     		movs	r2, #4
 246 004a 0024     		movs	r4, #0
 247              	.LVL29:
 248              	.L18:
 249              		.loc 1 201 0
 250 004c CD5C     		ldrb	r5, [r1, r3]	@ zero_extendqisi2
 251 004e 0133     		adds	r3, r3, #1
 252              	.LVL30:
 253              		.loc 1 203 0
 254 0050 9E42     		cmp	r6, r3
 255 0052 98BF     		it	ls
 256 0054 0023     		movls	r3, #0
 257              	.LVL31:
 258              		.loc 1 199 0
 259 0056 013A     		subs	r2, r2, #1
 260              	.LVL32:
 261              		.loc 1 201 0
 262 0058 45EA0424 		orr	r4, r5, r4, lsl #8
 263              	.LVL33:
 264              		.loc 1 199 0
 265 005c F6D1     		bne	.L18
 266              		.loc 1 205 0
 267 005e 57F8045F 		ldr	r5, [r7, #4]!
 268 0062 6C40     		eors	r4, r4, r5
 269              	.LVL34:
 270              		.loc 1 196 0
 271 0064 6745     		cmp	r7, ip
 272              		.loc 1 205 0
 273 0066 4EF8044F 		str	r4, [lr, #4]!
 274              		.loc 1 196 0
 275 006a EDD1     		bne	.L16
 276 006c 0546     		mov	r5, r0
 277              		.loc 1 208 0
 278 006e 0092     		str	r2, [sp]
 279              		.loc 1 209 0
ARM GAS  C:\Users\jo\AppData\Local\Temp\ccQVAqlC.s 			page 6


 280 0070 0192     		str	r2, [sp, #4]
 281              	.LVL35:
 282 0072 0446     		mov	r4, r0
 283 0074 00F14807 		add	r7, r0, #72
 284 0078 0646     		mov	r6, r0
 285              	.LVL36:
 286              	.L20:
 287              		.loc 1 213 0 discriminator 3
 288 007a 01AA     		add	r2, sp, #4
 289 007c 2846     		mov	r0, r5
 290 007e 6946     		mov	r1, sp
 291 0080 FFF7FEFF 		bl	blowfish_enc
 292              	.LVL37:
 293              		.loc 1 215 0 discriminator 3
 294 0084 9DE80C00 		ldmia	sp, {r2, r3}
 295 0088 86E80C00 		stmia	r6, {r2, r3}
 296 008c 0836     		adds	r6, r6, #8
 297              		.loc 1 211 0 discriminator 3
 298 008e BE42     		cmp	r6, r7
 299 0090 F3D1     		bne	.L20
 300 0092 05F58057 		add	r7, r5, #4096
 301              	.LVL38:
 302              	.L21:
 303 0096 04F58066 		add	r6, r4, #1024
 304              	.LVL39:
 305              	.L22:
 306              		.loc 1 222 0 discriminator 3
 307 009a 01AA     		add	r2, sp, #4
 308 009c 2846     		mov	r0, r5
 309 009e 6946     		mov	r1, sp
 310 00a0 FFF7FEFF 		bl	blowfish_enc
 311              	.LVL40:
 312              		.loc 1 224 0 discriminator 3
 313 00a4 9DE80C00 		ldmia	sp, {r2, r3}
 314 00a8 0834     		adds	r4, r4, #8
 315              		.loc 1 223 0 discriminator 3
 316 00aa 2264     		str	r2, [r4, #64]
 317              		.loc 1 224 0 discriminator 3
 318 00ac 6364     		str	r3, [r4, #68]
 319              		.loc 1 220 0 discriminator 3
 320 00ae B442     		cmp	r4, r6
 321 00b0 F3D1     		bne	.L22
 322              		.loc 1 218 0 discriminator 2
 323 00b2 BC42     		cmp	r4, r7
 324 00b4 EFD1     		bne	.L21
 325              		.loc 1 227 0
 326 00b6 0020     		movs	r0, #0
 327              		.loc 1 228 0
 328 00b8 03B0     		add	sp, sp, #12
 329              		.cfi_def_cfa_offset 20
 330              		@ sp needed
 331 00ba F0BD     		pop	{r4, r5, r6, r7, pc}
 332              	.LVL41:
 333              	.L24:
 334              		.cfi_def_cfa_offset 0
 335              		.cfi_restore 4
 336              		.cfi_restore 5
ARM GAS  C:\Users\jo\AppData\Local\Temp\ccQVAqlC.s 			page 7


 337              		.cfi_restore 6
 338              		.cfi_restore 7
 339              		.cfi_restore 14
 340              		.loc 1 184 0
 341 00bc 6FF01500 		mvn	r0, #21
 342              	.LVL42:
 343 00c0 7047     		bx	lr
 344              	.L35:
 345 00c2 00BF     		.align	2
 346              	.L34:
 347 00c4 FCFFFFFF 		.word	.LANCHOR0-4
 348 00c8 FCFFFFFF 		.word	.LANCHOR1-4
 349              		.cfi_endproc
 350              	.LFE6:
 351              		.size	blowfish_setkey, .-blowfish_setkey
 352 00cc AFF30080 		.section	.text.blowfish_crypt_ecb,"ax",%progbits
 353              		.align	2
 354              		.p2align 4,,15
 355              		.global	blowfish_crypt_ecb
 356              		.thumb
 357              		.thumb_func
 358              		.type	blowfish_crypt_ecb, %function
 359              	blowfish_crypt_ecb:
 360              	.LFB7:
 361              		.loc 1 237 0
 362              		.cfi_startproc
 363              		@ args = 0, pretend = 0, frame = 8
 364              		@ frame_needed = 0, uses_anonymous_args = 0
 365              	.LVL43:
 366 0000 2DE9F043 		push	{r4, r5, r6, r7, r8, r9, lr}
 367              		.cfi_def_cfa_offset 28
 368              		.cfi_offset 4, -28
 369              		.cfi_offset 5, -24
 370              		.cfi_offset 6, -20
 371              		.cfi_offset 7, -16
 372              		.cfi_offset 8, -12
 373              		.cfi_offset 9, -8
 374              		.cfi_offset 14, -4
 375              		.loc 1 241 0
 376 0004 92F805E0 		ldrb	lr, [r2, #5]	@ zero_extendqisi2
 377              		.loc 1 240 0
 378 0008 92F80190 		ldrb	r9, [r2, #1]	@ zero_extendqisi2
 379 000c 1778     		ldrb	r7, [r2]	@ zero_extendqisi2
 380 000e D578     		ldrb	r5, [r2, #3]	@ zero_extendqisi2
 381              		.loc 1 241 0
 382 0010 92F807C0 		ldrb	ip, [r2, #7]	@ zero_extendqisi2
 383              		.loc 1 240 0
 384 0014 9478     		ldrb	r4, [r2, #2]	@ zero_extendqisi2
 385              		.loc 1 241 0
 386 0016 92F80680 		ldrb	r8, [r2, #6]	@ zero_extendqisi2
 387              		.loc 1 237 0
 388 001a 1E46     		mov	r6, r3
 389              		.loc 1 241 0
 390 001c 1379     		ldrb	r3, [r2, #4]	@ zero_extendqisi2
 391              	.LVL44:
 392 001e 4FEA0E4E 		lsl	lr, lr, #16
 393              		.loc 1 240 0
ARM GAS  C:\Users\jo\AppData\Local\Temp\ccQVAqlC.s 			page 8


 394 0022 4FEA0942 		lsl	r2, r9, #16
 395              	.LVL45:
 396 0026 42EA0762 		orr	r2, r2, r7, lsl #24
 397              		.loc 1 241 0
 398 002a 4EEA0363 		orr	r3, lr, r3, lsl #24
 399 002e 2A43     		orrs	r2, r2, r5
 400 0030 43EA0C07 		orr	r7, r3, ip
 401              		.loc 1 237 0
 402 0034 83B0     		sub	sp, sp, #12
 403              		.cfi_def_cfa_offset 40
 404              		.loc 1 240 0
 405 0036 42EA0424 		orr	r4, r2, r4, lsl #8
 406              		.loc 1 241 0
 407 003a 47EA0827 		orr	r7, r7, r8, lsl #8
 408 003e 8DE89000 		stmia	sp, {r4, r7}
 409              		.loc 1 243 0
 410 0042 B9B1     		cbz	r1, .L42
 411              		.loc 1 249 0
 412 0044 6946     		mov	r1, sp
 413              	.LVL46:
 414 0046 01AA     		add	r2, sp, #4
 415 0048 FFF7FEFF 		bl	blowfish_enc
 416              	.LVL47:
 417 004c 009F     		ldr	r7, [sp]
 418 004e 019C     		ldr	r4, [sp, #4]
 419              	.L39:
 420              		.loc 1 252 0
 421 0050 F770     		strb	r7, [r6, #3]
 422 0052 380C     		lsrs	r0, r7, #16
 423 0054 3D0E     		lsrs	r5, r7, #24
 424              		.loc 1 253 0
 425 0056 210E     		lsrs	r1, r4, #24
 426              		.loc 1 252 0
 427 0058 3F0A     		lsrs	r7, r7, #8
 428              		.loc 1 253 0
 429 005a 220C     		lsrs	r2, r4, #16
 430 005c 230A     		lsrs	r3, r4, #8
 431              		.loc 1 252 0
 432 005e 7070     		strb	r0, [r6, #1]
 433              		.loc 1 256 0
 434 0060 0020     		movs	r0, #0
 435              		.loc 1 253 0
 436 0062 F471     		strb	r4, [r6, #7]
 437              		.loc 1 252 0
 438 0064 3570     		strb	r5, [r6]
 439 0066 B770     		strb	r7, [r6, #2]
 440              		.loc 1 253 0
 441 0068 3171     		strb	r1, [r6, #4]
 442 006a 7271     		strb	r2, [r6, #5]
 443 006c B371     		strb	r3, [r6, #6]
 444              		.loc 1 256 0
 445 006e 03B0     		add	sp, sp, #12
 446              		.cfi_remember_state
 447              		.cfi_def_cfa_offset 28
 448              		@ sp needed
 449 0070 BDE8F083 		pop	{r4, r5, r6, r7, r8, r9, pc}
 450              	.LVL48:
ARM GAS  C:\Users\jo\AppData\Local\Temp\ccQVAqlC.s 			page 9


 451              	.L42:
 452              		.cfi_restore_state
 453 0074 0546     		mov	r5, r0
 454 0076 00F1480E 		add	lr, r0, #72
 455 007a 00F1080C 		add	ip, r0, #8
 456              	.LVL49:
 457              	.L38:
 458              	.LBB16:
 459              	.LBB17:
 460              		.loc 1 140 0
 461 007e 5EF8042D 		ldr	r2, [lr, #-4]!
 462 0082 6240     		eors	r2, r2, r4
 463              	.LVL50:
 464              	.LBB18:
 465              	.LBB19:
 466              		.loc 1 92 0
 467 0084 130E     		lsrs	r3, r2, #24
 468              	.LVL51:
 469              		.loc 1 94 0
 470 0086 C2F30744 		ubfx	r4, r2, #16, #8
 471 008a 1233     		adds	r3, r3, #18
 472              	.LVL52:
 473 008c 04F58974 		add	r4, r4, #274
 474              		.loc 1 95 0
 475 0090 C2F30720 		ubfx	r0, r2, #8, #8
 476 0094 00F21220 		addw	r0, r0, #530
 477              		.loc 1 96 0
 478 0098 D1B2     		uxtb	r1, r2
 479              		.loc 1 94 0
 480 009a 55F82330 		ldr	r3, [r5, r3, lsl #2]
 481              	.LVL53:
 482 009e 55F82440 		ldr	r4, [r5, r4, lsl #2]
 483              		.loc 1 95 0
 484 00a2 55F82000 		ldr	r0, [r5, r0, lsl #2]
 485              		.loc 1 96 0
 486 00a6 01F21231 		addw	r1, r1, #786
 487              		.loc 1 94 0
 488 00aa 1C44     		add	r4, r4, r3
 489              	.LVL54:
 490              		.loc 1 96 0
 491 00ac 55F82110 		ldr	r1, [r5, r1, lsl #2]
 492              		.loc 1 95 0
 493 00b0 4440     		eors	r4, r4, r0
 494              	.LVL55:
 495              		.loc 1 96 0
 496 00b2 0C44     		add	r4, r4, r1
 497              	.LVL56:
 498              	.LBE19:
 499              	.LBE18:
 500              		.loc 1 138 0
 501 00b4 E645     		cmp	lr, ip
 502              		.loc 1 141 0
 503 00b6 84EA0704 		eor	r4, r4, r7
 504              	.LVL57:
 505              		.loc 1 140 0
 506 00ba 1746     		mov	r7, r2
 507              		.loc 1 138 0
ARM GAS  C:\Users\jo\AppData\Local\Temp\ccQVAqlC.s 			page 10


 508 00bc DFD1     		bne	.L38
 509              	.LVL58:
 510              		.loc 1 152 0
 511 00be 6A68     		ldr	r2, [r5, #4]
 512              	.LVL59:
 513              		.loc 1 153 0
 514 00c0 2B68     		ldr	r3, [r5]
 515              	.LVL60:
 516 00c2 5440     		eors	r4, r4, r2
 517              	.LVL61:
 518 00c4 5F40     		eors	r7, r7, r3
 519              	.LVL62:
 520 00c6 C3E7     		b	.L39
 521              	.LBE17:
 522              	.LBE16:
 523              		.cfi_endproc
 524              	.LFE7:
 525              		.size	blowfish_crypt_ecb, .-blowfish_crypt_ecb
 526 00c8 AFF30080 		.section	.text.blowfish_crypt_cbc,"ax",%progbits
 526      AFF30080 
 527              		.align	2
 528              		.p2align 4,,15
 529              		.global	blowfish_crypt_cbc
 530              		.thumb
 531              		.thumb_func
 532              		.type	blowfish_crypt_cbc, %function
 533              	blowfish_crypt_cbc:
 534              	.LFB8:
 535              		.loc 1 268 0
 536              		.cfi_startproc
 537              		@ args = 8, pretend = 0, frame = 8
 538              		@ frame_needed = 0, uses_anonymous_args = 0
 539              	.LVL63:
 540 0000 2DE9F047 		push	{r4, r5, r6, r7, r8, r9, r10, lr}
 541              		.cfi_def_cfa_offset 32
 542              		.cfi_offset 4, -32
 543              		.cfi_offset 5, -28
 544              		.cfi_offset 6, -24
 545              		.cfi_offset 7, -20
 546              		.cfi_offset 8, -16
 547              		.cfi_offset 9, -12
 548              		.cfi_offset 10, -8
 549              		.cfi_offset 14, -4
 550 0004 1546     		mov	r5, r2
 551 0006 82B0     		sub	sp, sp, #8
 552              		.cfi_def_cfa_offset 40
 553              		.loc 1 272 0
 554 0008 6A07     		lsls	r2, r5, #29
 555              	.LVL64:
 556              		.loc 1 268 0
 557 000a DDF828A0 		ldr	r10, [sp, #40]
 558 000e 0B9C     		ldr	r4, [sp, #44]
 559              		.loc 1 272 0
 560 0010 52D1     		bne	.L52
 561 0012 0646     		mov	r6, r0
 562 0014 8946     		mov	r9, r1
 563 0016 9846     		mov	r8, r3
ARM GAS  C:\Users\jo\AppData\Local\Temp\ccQVAqlC.s 			page 11


 564              		.loc 1 275 0
 565 0018 51BB     		cbnz	r1, .L62
 566              	.LVL65:
 567              		.loc 1 277 0
 568 001a 2DB3     		cbz	r5, .L47
 569 001c 5F1E     		subs	r7, r3, #1
 570              	.LVL66:
 571              	.L49:
 572              		.loc 1 279 0
 573 001e DAF80000 		ldr	r0, [r10]	@ unaligned
 574 0022 DAF80410 		ldr	r1, [r10, #4]	@ unaligned
 575 0026 6B46     		mov	r3, sp
 576 0028 03C3     		stmia	r3!, {r0, r1}
 577              		.loc 1 280 0
 578 002a 5246     		mov	r2, r10
 579 002c 0021     		movs	r1, #0
 580 002e 2346     		mov	r3, r4
 581 0030 3046     		mov	r0, r6
 582 0032 FFF7FEFF 		bl	blowfish_crypt_ecb
 583              	.LVL67:
 584 0036 631E     		subs	r3, r4, #1
 585 0038 3946     		mov	r1, r7
 586 003a 04F1070E 		add	lr, r4, #7
 587              	.LVL68:
 588              	.L48:
 589              		.loc 1 283 0 discriminator 3
 590 003e 13F8012F 		ldrb	r2, [r3, #1]!	@ zero_extendqisi2
 591 0042 11F8010F 		ldrb	r0, [r1, #1]!	@ zero_extendqisi2
 592              		.loc 1 282 0 discriminator 3
 593 0046 7345     		cmp	r3, lr
 594              		.loc 1 283 0 discriminator 3
 595 0048 82EA0002 		eor	r2, r2, r0
 596 004c 1A70     		strb	r2, [r3]
 597              		.loc 1 282 0 discriminator 3
 598 004e F6D1     		bne	.L48
 599              		.loc 1 285 0
 600 0050 6B46     		mov	r3, sp
 601 0052 03CB     		ldmia	r3!, {r0, r1}
 602              		.loc 1 277 0
 603 0054 083D     		subs	r5, r5, #8
 604              	.LVL69:
 605              		.loc 1 287 0
 606 0056 0AF1080A 		add	r10, r10, #8
 607              		.loc 1 288 0
 608 005a 04F10804 		add	r4, r4, #8
 609              		.loc 1 285 0
 610 005e C8F80000 		str	r0, [r8]	@ unaligned
 611 0062 C8F80410 		str	r1, [r8, #4]	@ unaligned
 612              	.LVL70:
 613              		.loc 1 277 0
 614 0066 DAD1     		bne	.L49
 615              	.L47:
 616              		.loc 1 308 0
 617 0068 0020     		movs	r0, #0
 618              	.LVL71:
 619              	.L60:
 620              		.loc 1 309 0
ARM GAS  C:\Users\jo\AppData\Local\Temp\ccQVAqlC.s 			page 12


 621 006a 02B0     		add	sp, sp, #8
 622              		.cfi_remember_state
 623              		.cfi_def_cfa_offset 32
 624              		@ sp needed
 625 006c BDE8F087 		pop	{r4, r5, r6, r7, r8, r9, r10, pc}
 626              	.LVL72:
 627              	.L62:
 628              		.cfi_restore_state
 629              		.loc 1 294 0
 630 0070 002D     		cmp	r5, #0
 631 0072 F9D0     		beq	.L47
 632 0074 0AF1FF3A 		add	r10, r10, #-1
 633              	.LVL73:
 634 0078 5F1E     		subs	r7, r3, #1
 635              	.LVL74:
 636              	.L51:
 637 007a 3946     		mov	r1, r7
 638 007c 621E     		subs	r2, r4, #1
 639 007e 0AF1080E 		add	lr, r10, #8
 640              	.LVL75:
 641              	.L50:
 642              		.loc 1 297 0 discriminator 3
 643 0082 1AF8013F 		ldrb	r3, [r10, #1]!	@ zero_extendqisi2
 644              	.LVL76:
 645 0086 11F8010F 		ldrb	r0, [r1, #1]!	@ zero_extendqisi2
 646              		.loc 1 296 0 discriminator 3
 647 008a F245     		cmp	r10, lr
 648              		.loc 1 297 0 discriminator 3
 649 008c 83EA0003 		eor	r3, r3, r0
 650 0090 02F8013F 		strb	r3, [r2, #1]!
 651              	.LVL77:
 652              		.loc 1 296 0 discriminator 3
 653 0094 F5D1     		bne	.L50
 654              		.loc 1 299 0
 655 0096 2246     		mov	r2, r4
 656 0098 2346     		mov	r3, r4
 657 009a 3046     		mov	r0, r6
 658 009c 4946     		mov	r1, r9
 659 009e FFF7FEFF 		bl	blowfish_crypt_ecb
 660              	.LVL78:
 661              		.loc 1 300 0
 662 00a2 2368     		ldr	r3, [r4]	@ unaligned
 663 00a4 6268     		ldr	r2, [r4, #4]	@ unaligned
 664 00a6 C8F80420 		str	r2, [r8, #4]	@ unaligned
 665              	.LVL79:
 666              		.loc 1 294 0
 667 00aa 083D     		subs	r5, r5, #8
 668              	.LVL80:
 669              		.loc 1 300 0
 670 00ac C8F80030 		str	r3, [r8]	@ unaligned
 671              		.loc 1 303 0
 672 00b0 04F10804 		add	r4, r4, #8
 673              	.LVL81:
 674              		.loc 1 294 0
 675 00b4 E1D1     		bne	.L51
 676 00b6 D7E7     		b	.L47
 677              	.LVL82:
ARM GAS  C:\Users\jo\AppData\Local\Temp\ccQVAqlC.s 			page 13


 678              	.L52:
 679              		.loc 1 273 0
 680 00b8 6FF01700 		mvn	r0, #23
 681              	.LVL83:
 682 00bc D5E7     		b	.L60
 683              		.cfi_endproc
 684              	.LFE8:
 685              		.size	blowfish_crypt_cbc, .-blowfish_crypt_cbc
 686              		.section	.text.blowfish_crypt_cfb64,"ax",%progbits
 687              		.align	2
 688              		.p2align 4,,15
 689              		.global	blowfish_crypt_cfb64
 690              		.thumb
 691              		.thumb_func
 692              		.type	blowfish_crypt_cfb64, %function
 693              	blowfish_crypt_cfb64:
 694              	.LFB9:
 695              		.loc 1 323 0
 696              		.cfi_startproc
 697              		@ args = 12, pretend = 0, frame = 0
 698              		@ frame_needed = 0, uses_anonymous_args = 0
 699              	.LVL84:
 700 0000 2DE9F047 		push	{r4, r5, r6, r7, r8, r9, r10, lr}
 701              		.cfi_def_cfa_offset 32
 702              		.cfi_offset 4, -32
 703              		.cfi_offset 5, -28
 704              		.cfi_offset 6, -24
 705              		.cfi_offset 7, -20
 706              		.cfi_offset 8, -16
 707              		.cfi_offset 9, -12
 708              		.cfi_offset 10, -8
 709              		.cfi_offset 14, -4
 710              		.loc 1 323 0
 711 0004 08AE     		add	r6, sp, #32
 712              	.LVL85:
 713 0006 9846     		mov	r8, r3
 714 0008 0746     		mov	r7, r0
 715              		.loc 1 325 0
 716 000a 1C68     		ldr	r4, [r3]
 717              		.loc 1 323 0
 718 000c 96E84006 		ldmia	r6, {r6, r9, r10}
 719              	.LVL86:
 720              		.loc 1 327 0
 721 0010 A9B1     		cbz	r1, .L64
 722              	.LVL87:
 723              		.loc 1 343 0
 724 0012 7AB1     		cbz	r2, .L66
 725 0014 0AF1FF3A 		add	r10, r10, #-1
 726 0018 1546     		mov	r5, r2
 727              	.LVL88:
 728              	.L70:
 729              		.loc 1 345 0
 730 001a 4CB3     		cbz	r4, .L78
 731              	.L69:
 732              		.loc 1 348 0
 733 001c 315D     		ldrb	r1, [r6, r4]	@ zero_extendqisi2
 734 001e 19F8013B 		ldrb	r3, [r9], #1	@ zero_extendqisi2
ARM GAS  C:\Users\jo\AppData\Local\Temp\ccQVAqlC.s 			page 14


 735              	.LVL89:
 736              		.loc 1 350 0
 737 0022 621C     		adds	r2, r4, #1
 738              		.loc 1 348 0
 739 0024 4B40     		eors	r3, r3, r1
 740              		.loc 1 343 0
 741 0026 013D     		subs	r5, r5, #1
 742              	.LVL90:
 743              		.loc 1 348 0
 744 0028 0AF8013F 		strb	r3, [r10, #1]!
 745 002c 3355     		strb	r3, [r6, r4]
 746              		.loc 1 350 0
 747 002e 02F00704 		and	r4, r2, #7
 748              	.LVL91:
 749              		.loc 1 343 0
 750 0032 F2D1     		bne	.L70
 751              	.L66:
 752              		.loc 1 354 0
 753 0034 C8F80040 		str	r4, [r8]
 754              		.loc 1 357 0
 755 0038 0020     		movs	r0, #0
 756 003a BDE8F087 		pop	{r4, r5, r6, r7, r8, r9, r10, pc}
 757              	.LVL92:
 758              	.L64:
 759              		.loc 1 329 0
 760 003e 002A     		cmp	r2, #0
 761 0040 F8D0     		beq	.L66
 762 0042 1546     		mov	r5, r2
 763              		.loc 1 331 0
 764 0044 6CB1     		cbz	r4, .L79
 765              	.LVL93:
 766              	.L67:
 767              		.loc 1 335 0
 768 0046 335D     		ldrb	r3, [r6, r4]	@ zero_extendqisi2
 769              		.loc 1 334 0
 770 0048 19F8012B 		ldrb	r2, [r9], #1	@ zero_extendqisi2
 771              	.LVL94:
 772              		.loc 1 338 0
 773 004c 611C     		adds	r1, r4, #1
 774              		.loc 1 335 0
 775 004e 5340     		eors	r3, r3, r2
 776              		.loc 1 329 0
 777 0050 013D     		subs	r5, r5, #1
 778              		.loc 1 335 0
 779 0052 0AF8013B 		strb	r3, [r10], #1
 780              	.LVL95:
 781              		.loc 1 336 0
 782 0056 3255     		strb	r2, [r6, r4]
 783              		.loc 1 338 0
 784 0058 01F00704 		and	r4, r1, #7
 785              	.LVL96:
 786              		.loc 1 329 0
 787 005c EAD0     		beq	.L66
 788              	.LVL97:
 789              		.loc 1 331 0
 790 005e 002C     		cmp	r4, #0
 791 0060 F1D1     		bne	.L67
ARM GAS  C:\Users\jo\AppData\Local\Temp\ccQVAqlC.s 			page 15


 792              	.LVL98:
 793              	.L79:
 794              		.loc 1 332 0
 795 0062 3846     		mov	r0, r7
 796 0064 0121     		movs	r1, #1
 797 0066 3246     		mov	r2, r6
 798 0068 3346     		mov	r3, r6
 799 006a FFF7FEFF 		bl	blowfish_crypt_ecb
 800              	.LVL99:
 801 006e EAE7     		b	.L67
 802              	.LVL100:
 803              	.L78:
 804              		.loc 1 346 0
 805 0070 3846     		mov	r0, r7
 806 0072 0121     		movs	r1, #1
 807 0074 3246     		mov	r2, r6
 808 0076 3346     		mov	r3, r6
 809 0078 FFF7FEFF 		bl	blowfish_crypt_ecb
 810              	.LVL101:
 811 007c CEE7     		b	.L69
 812              		.cfi_endproc
 813              	.LFE9:
 814              		.size	blowfish_crypt_cfb64, .-blowfish_crypt_cfb64
 815 007e 00BF     		.section	.text.blowfish_crypt_ctr,"ax",%progbits
 816              		.align	2
 817              		.p2align 4,,15
 818              		.global	blowfish_crypt_ctr
 819              		.thumb
 820              		.thumb_func
 821              		.type	blowfish_crypt_ctr, %function
 822              	blowfish_crypt_ctr:
 823              	.LFB10:
 824              		.loc 1 371 0
 825              		.cfi_startproc
 826              		@ args = 12, pretend = 0, frame = 0
 827              		@ frame_needed = 0, uses_anonymous_args = 0
 828              	.LVL102:
 829 0000 2DE9F84F 		push	{r3, r4, r5, r6, r7, r8, r9, r10, fp, lr}
 830              		.cfi_def_cfa_offset 40
 831              		.cfi_offset 3, -40
 832              		.cfi_offset 4, -36
 833              		.cfi_offset 5, -32
 834              		.cfi_offset 6, -28
 835              		.cfi_offset 7, -24
 836              		.cfi_offset 8, -20
 837              		.cfi_offset 9, -16
 838              		.cfi_offset 10, -12
 839              		.cfi_offset 11, -8
 840              		.cfi_offset 14, -4
 841              		.loc 1 371 0
 842 0004 DDF828B0 		ldr	fp, [sp, #40]
 843              		.loc 1 373 0
 844 0008 1468     		ldr	r4, [r2]
 845              	.LVL103:
 846              		.loc 1 371 0
 847 000a 0B9F     		ldr	r7, [sp, #44]
 848 000c DDF83080 		ldr	r8, [sp, #48]
ARM GAS  C:\Users\jo\AppData\Local\Temp\ccQVAqlC.s 			page 16


 849              	.LVL104:
 850 0010 9246     		mov	r10, r2
 851              		.loc 1 375 0
 852 0012 79B1     		cbz	r1, .L81
 853 0014 8146     		mov	r9, r0
 854 0016 1E46     		mov	r6, r3
 855 0018 0D46     		mov	r5, r1
 856              	.LVL105:
 857              	.L83:
 858              		.loc 1 377 0
 859 001a 84B1     		cbz	r4, .L82
 860              	.LVL106:
 861              	.L84:
 862              		.loc 1 386 0
 863 001c 1BF80420 		ldrb	r2, [fp, r4]	@ zero_extendqisi2
 864 0020 17F8013B 		ldrb	r3, [r7], #1	@ zero_extendqisi2
 865              	.LVL107:
 866              		.loc 1 388 0
 867 0024 0134     		adds	r4, r4, #1
 868              	.LVL108:
 869              		.loc 1 386 0
 870 0026 5340     		eors	r3, r3, r2
 871              		.loc 1 375 0
 872 0028 013D     		subs	r5, r5, #1
 873              	.LVL109:
 874              		.loc 1 388 0
 875 002a 04F00704 		and	r4, r4, #7
 876              	.LVL110:
 877              		.loc 1 386 0
 878 002e 08F8013B 		strb	r3, [r8], #1
 879              	.LVL111:
 880              		.loc 1 375 0
 881 0032 F2D1     		bne	.L83
 882              	.LVL112:
 883              	.L81:
 884              		.loc 1 391 0
 885 0034 CAF80040 		str	r4, [r10]
 886              		.loc 1 394 0
 887 0038 0020     		movs	r0, #0
 888 003a BDE8F88F 		pop	{r3, r4, r5, r6, r7, r8, r9, r10, fp, pc}
 889              	.LVL113:
 890              	.L82:
 891              		.loc 1 378 0
 892 003e 3246     		mov	r2, r6
 893 0040 4846     		mov	r0, r9
 894 0042 0121     		movs	r1, #1
 895 0044 5B46     		mov	r3, fp
 896 0046 FFF7FEFF 		bl	blowfish_crypt_ecb
 897              	.LVL114:
 898 004a 06F10802 		add	r2, r6, #8
 899              	.LVL115:
 900              	.L85:
 901              		.loc 1 382 0
 902 004e 12F8013D 		ldrb	r3, [r2, #-1]!	@ zero_extendqisi2
 903              	.LVL116:
 904 0052 0133     		adds	r3, r3, #1
 905 0054 DBB2     		uxtb	r3, r3
ARM GAS  C:\Users\jo\AppData\Local\Temp\ccQVAqlC.s 			page 17


 906 0056 1370     		strb	r3, [r2]
 907 0058 002B     		cmp	r3, #0
 908 005a DFD1     		bne	.L84
 909              		.loc 1 381 0 discriminator 2
 910 005c B242     		cmp	r2, r6
 911 005e F6D1     		bne	.L85
 912 0060 DCE7     		b	.L84
 913              		.cfi_endproc
 914              	.LFE10:
 915              		.size	blowfish_crypt_ctr, .-blowfish_crypt_ctr
 916 0062 00BFAFF3 		.section	.rodata.P,"a",%progbits
 916      0080AFF3 
 916      0080AFF3 
 916      0080
 917              		.align	2
 918              		.set	.LANCHOR1,. + 0
 919              		.type	P, %object
 920              		.size	P, 72
 921              	P:
 922 0000 886A3F24 		.word	608135816
 923 0004 D308A385 		.word	-2052912941
 924 0008 2E8A1913 		.word	320440878
 925 000c 44737003 		.word	57701188
 926 0010 223809A4 		.word	-1542899678
 927 0014 D0319F29 		.word	698298832
 928 0018 98FA2E08 		.word	137296536
 929 001c 896C4EEC 		.word	-330404727
 930 0020 E6212845 		.word	1160258022
 931 0024 7713D038 		.word	953160567
 932 0028 CF6654BE 		.word	-1101764913
 933 002c 6C0CE934 		.word	887688300
 934 0030 B729ACC0 		.word	-1062458953
 935 0034 DD507CC9 		.word	-914599715
 936 0038 B5D5843F 		.word	1065670069
 937 003c 170947B5 		.word	-1253635817
 938 0040 D9D51692 		.word	-1843997223
 939 0044 1BFB7989 		.word	-1988494565
 940              		.section	.rodata.S,"a",%progbits
 941              		.align	2
 942              		.set	.LANCHOR0,. + 0
 943              		.type	S, %object
 944              		.size	S, 4096
 945              	S:
 946 0000 A60B31D1 		.word	-785314906
 947 0004 ACB5DF98 		.word	-1730169428
 948 0008 DB72FD2F 		.word	805139163
 949 000c B7DF1AD0 		.word	-803545161
 950 0010 EDAFE1B8 		.word	-1193168915
 951 0014 967E266A 		.word	1780907670
 952 0018 45907CBA 		.word	-1166241723
 953 001c 997F2CF1 		.word	-248741991
 954 0020 4799A124 		.word	614570311
 955 0024 F76C91B3 		.word	-1282315017
 956 0028 E2F20108 		.word	134345442
 957 002c 16FC8E85 		.word	-2054226922
 958 0030 D8206963 		.word	1667834072
 959 0034 694E5771 		.word	1901547113
ARM GAS  C:\Users\jo\AppData\Local\Temp\ccQVAqlC.s 			page 18


 960 0038 A3FE58A4 		.word	-1537671517
 961 003c 7E3D93F4 		.word	-191677058
 962 0040 8F74950D 		.word	227898511
 963 0044 58B68E72 		.word	1921955416
 964 0048 58CD8B71 		.word	1904987480
 965 004c EE4A1582 		.word	-2112533778
 966 0050 1DA4547B 		.word	2069144605
 967 0054 B5595AC2 		.word	-1034266187
 968 0058 39D5309C 		.word	-1674521287
 969 005c 1360F22A 		.word	720527379
 970 0060 23B0D1C5 		.word	-976113629
 971 0064 F0856028 		.word	677414384
 972 0068 187941CA 		.word	-901678824
 973 006c EF38DBB8 		.word	-1193592593
 974 0070 B0DC798E 		.word	-1904616272
 975 0074 0E183A60 		.word	1614419982
 976 0078 8B0E9E6C 		.word	1822297739
 977 007c 3E8A1EB0 		.word	-1340175810
 978 0080 C17715D7 		.word	-686458943
 979 0084 274B31BD 		.word	-1120842969
 980 0088 DA2FAF78 		.word	2024746970
 981 008c 605C6055 		.word	1432378464
 982 0090 F32555E6 		.word	-430627341
 983 0094 94AB55AA 		.word	-1437226092
 984 0098 62984857 		.word	1464375394
 985 009c 4014E863 		.word	1676153920
 986 00a0 6A39CA55 		.word	1439316330
 987 00a4 B610AB2A 		.word	715854006
 988 00a8 345CCCB4 		.word	-1261675468
 989 00ac CEE84111 		.word	289532110
 990 00b0 AF8654A1 		.word	-1588296017
 991 00b4 93E9727C 		.word	2087905683
 992 00b8 1114EEB3 		.word	-1276242927
 993 00bc 2ABC6F63 		.word	1668267050
 994 00c0 5DC5A92B 		.word	732546397
 995 00c4 F6311874 		.word	1947742710
 996 00c8 163E5CCE 		.word	-832815594
 997 00cc 1E93879B 		.word	-1685613794
 998 00d0 33BAD6AF 		.word	-1344882125
 999 00d4 5CCF246C 		.word	1814351708
 1000 00d8 8153327A 		.word	2050118529
 1001 00dc 77869528 		.word	680887927
 1002 00e0 98488F3B 		.word	999245976
 1003 00e4 AFB94B6B 		.word	1800124847
 1004 00e8 1BE8BFC4 		.word	-994056165
 1005 00ec 93212866 		.word	1713906067
 1006 00f0 CC09D861 		.word	1641548236
 1007 00f4 91A921FB 		.word	-81679983
 1008 00f8 60AC7C48 		.word	1216130144
 1009 00fc 3280EC5D 		.word	1575780402
 1010 0100 5D5D84EF 		.word	-276538019
 1011 0104 B17585E9 		.word	-377129551
 1012 0108 022326DC 		.word	-601480446
 1013 010c 881B65EB 		.word	-345695352
 1014 0110 813E8923 		.word	596196993
 1015 0114 C5AC96D3 		.word	-745100091
 1016 0118 F36F6D0F 		.word	258830323
ARM GAS  C:\Users\jo\AppData\Local\Temp\ccQVAqlC.s 			page 19


 1017 011c 3942F483 		.word	-2081144263
 1018 0120 82440B2E 		.word	772490370
 1019 0124 042084A4 		.word	-1534844924
 1020 0128 4AF0C869 		.word	1774776394
 1021 012c 5E9B1F9E 		.word	-1642095778
 1022 0130 4268C621 		.word	566650946
 1023 0134 9A6CE9F6 		.word	-152474470
 1024 0138 619C0C67 		.word	1728879713
 1025 013c F088D3AB 		.word	-1412200208
 1026 0140 D2A0516A 		.word	1783734482
 1027 0144 682F54D8 		.word	-665571480
 1028 0148 28A70F96 		.word	-1777359064
 1029 014c A33351AB 		.word	-1420741725
 1030 0150 6C0BEF6E 		.word	1861159788
 1031 0154 E43B7A13 		.word	326777828
 1032 0158 50F03BBA 		.word	-1170476976
 1033 015c 982AFB7E 		.word	2130389656
 1034 0160 1D65F1A1 		.word	-1578015459
 1035 0164 7601AF39 		.word	967770486
 1036 0168 3E59CA66 		.word	1724537150
 1037 016c 880E4382 		.word	-2109534584
 1038 0170 1986EE8C 		.word	-1930525159
 1039 0174 B49F6F45 		.word	1164943284
 1040 0178 C3A5847D 		.word	2105845187
 1041 017c BE5E8B3B 		.word	998989502
 1042 0180 D8756FE0 		.word	-529566248
 1043 0184 7320C185 		.word	-2050940813
 1044 0188 9F441A40 		.word	1075463327
 1045 018c A66AC156 		.word	1455516326
 1046 0190 62AAD34E 		.word	1322494562
 1047 0194 06773F36 		.word	910128902
 1048 0198 72DFFE1B 		.word	469688178
 1049 019c 3D029B42 		.word	1117454909
 1050 01a0 24D7D037 		.word	936433444
 1051 01a4 48120AD0 		.word	-804646328
 1052 01a8 D3EA0FDB 		.word	-619713837
 1053 01ac 9BC0F149 		.word	1240580251
 1054 01b0 C9725307 		.word	122909385
 1055 01b4 7B1B9980 		.word	-2137449605
 1056 01b8 D879D425 		.word	634681816
 1057 01bc F7DEE8F6 		.word	-152510729
 1058 01c0 1A50FEE3 		.word	-469872614
 1059 01c4 3B4C79B6 		.word	-1233564613
 1060 01c8 BDE06C97 		.word	-1754472259
 1061 01cc BA06C004 		.word	79693498
 1062 01d0 B64FA9C1 		.word	-1045868618
 1063 01d4 C4609F40 		.word	1084186820
 1064 01d8 C29E5C5E 		.word	1583128258
 1065 01dc 63246A19 		.word	426386531
 1066 01e0 AF6FFB68 		.word	1761308591
 1067 01e4 B5536C3E 		.word	1047286709
 1068 01e8 EBB23913 		.word	322548459
 1069 01ec 6FEC523B 		.word	995290223
 1070 01f0 1F51FC6D 		.word	1845252383
 1071 01f4 2C95309B 		.word	-1691314900
 1072 01f8 444581CC 		.word	-863943356
 1073 01fc 09BD5EAF 		.word	-1352745719
ARM GAS  C:\Users\jo\AppData\Local\Temp\ccQVAqlC.s 			page 20


 1074 0200 04D0E3BE 		.word	-1092366332
 1075 0204 FD4A33DE 		.word	-567063811
 1076 0208 07280F66 		.word	1712269319
 1077 020c B34B2E19 		.word	422464435
 1078 0210 57A8CBC0 		.word	-1060394921
 1079 0214 0F74C845 		.word	1170764815
 1080 0218 395F0BD2 		.word	-771006663
 1081 021c DBFBD3B9 		.word	-1177289765
 1082 0220 BDC07955 		.word	1434042557
 1083 0224 0A32601A 		.word	442511882
 1084 0228 C600A1D6 		.word	-694091578
 1085 022c 79722C40 		.word	1076654713
 1086 0230 FE259F67 		.word	1738483198
 1087 0234 CCA31FFB 		.word	-81812532
 1088 0238 F8E9A58E 		.word	-1901729288
 1089 023c F82232DB 		.word	-617471240
 1090 0240 DF16753C 		.word	1014306527
 1091 0244 156B61FD 		.word	-43947243
 1092 0248 C81E502F 		.word	793779912
 1093 024c AB5205AD 		.word	-1392160085
 1094 0250 FAB53D32 		.word	842905082
 1095 0254 608723FD 		.word	-48003232
 1096 0258 487B3153 		.word	1395751752
 1097 025c 82DF003E 		.word	1040244610
 1098 0260 BB575C9E 		.word	-1638115397
 1099 0264 A08C6FCA 		.word	-898659168
 1100 0268 2E56871A 		.word	445077038
 1101 026c DB6917DF 		.word	-552113701
 1102 0270 F6A842D5 		.word	-717051658
 1103 0274 C3FF7E28 		.word	679411651
 1104 0278 C63267AC 		.word	-1402522938
 1105 027c 73554F8C 		.word	-1940957837
 1106 0280 B0275B69 		.word	1767581616
 1107 0284 C858CABB 		.word	-1144366904
 1108 0288 5DA3FFE1 		.word	-503340195
 1109 028c A011F0B8 		.word	-1192226400
 1110 0290 983DFA10 		.word	284835224
 1111 0294 B88321FD 		.word	-48135240
 1112 0298 6CB5FC4A 		.word	1258075500
 1113 029c 5BD3D12D 		.word	768725851
 1114 02a0 79E4539A 		.word	-1705778055
 1115 02a4 6545F8B6 		.word	-1225243291
 1116 02a8 BC498ED2 		.word	-762426948
 1117 02ac 9097FB4B 		.word	1274779536
 1118 02b0 DAF2DDE1 		.word	-505548070
 1119 02b4 337ECBA4 		.word	-1530167757
 1120 02b8 4113FB62 		.word	1660621633
 1121 02bc E8C6E4CE 		.word	-823867672
 1122 02c0 DACA20EF 		.word	-283063590
 1123 02c4 014C7736 		.word	913787905
 1124 02c8 FE9E7ED0 		.word	-797008130
 1125 02cc B41FF12B 		.word	737222580
 1126 02d0 4DDADB95 		.word	-1780753843
 1127 02d4 989190AE 		.word	-1366257256
 1128 02d8 718EADEA 		.word	-357724559
 1129 02dc A0D5936B 		.word	1804850592
 1130 02e0 D0D18ED0 		.word	-795946544
ARM GAS  C:\Users\jo\AppData\Local\Temp\ccQVAqlC.s 			page 21


 1131 02e4 E025C7AF 		.word	-1345903136
 1132 02e8 2F5B3C8E 		.word	-1908647121
 1133 02ec B794758E 		.word	-1904896841
 1134 02f0 FBE2F68F 		.word	-1879645445
 1135 02f4 642B12F2 		.word	-233690268
 1136 02f8 12B88888 		.word	-2004305902
 1137 02fc 1CF00D90 		.word	-1878134756
 1138 0300 A05EAD4F 		.word	1336762016
 1139 0304 1CC38F68 		.word	1754252060
 1140 0308 91F1CFD1 		.word	-774901359
 1141 030c ADC1A8B3 		.word	-1280786003
 1142 0310 18222F2F 		.word	791618072
 1143 0314 77170EBE 		.word	-1106372745
 1144 0318 FE2D75EA 		.word	-361419266
 1145 031c A11F028B 		.word	-1962795103
 1146 0320 0FCCA0E5 		.word	-442446833
 1147 0324 E8746FB5 		.word	-1250986776
 1148 0328 D6F3AC18 		.word	413987798
 1149 032c 99E289CE 		.word	-829824359
 1150 0330 E04FA8B4 		.word	-1264037920
 1151 0334 B7E013FD 		.word	-49028937
 1152 0338 813BC47C 		.word	2093235073
 1153 033c D9A8ADD2 		.word	-760370983
 1154 0340 66A25F16 		.word	375366246
 1155 0344 05779580 		.word	-2137688315
 1156 0348 1473CC93 		.word	-1815317740
 1157 034c 77141A21 		.word	555357303
 1158 0350 6520ADE6 		.word	-424861595
 1159 0354 86FAB577 		.word	2008414854
 1160 0358 F54254C7 		.word	-950779147
 1161 035c CF359DFB 		.word	-73583153
 1162 0360 0CAFCDEB 		.word	-338841844
 1163 0364 A0893E7B 		.word	2067696032
 1164 0368 D31B41D6 		.word	-700376109
 1165 036c 497E1EAE 		.word	-1373733303
 1166 0370 2D0E2500 		.word	2428461
 1167 0374 5EB37120 		.word	544322398
 1168 0378 BB006822 		.word	577241275
 1169 037c AFE0B857 		.word	1471733935
 1170 0380 9B366424 		.word	610547355
 1171 0384 1EB909F0 		.word	-267798242
 1172 0388 1D916355 		.word	1432588573
 1173 038c AAA6DF59 		.word	1507829418
 1174 0390 8943C178 		.word	2025931657
 1175 0394 7F535AD9 		.word	-648391809
 1176 0398 A25B7D20 		.word	545086370
 1177 039c C5B9E502 		.word	48609733
 1178 03a0 76032683 		.word	-2094660746
 1179 03a4 A9CF9562 		.word	1653985193
 1180 03a8 6819C811 		.word	298326376
 1181 03ac 414A734E 		.word	1316178497
 1182 03b0 CA2D47B3 		.word	-1287180854
 1183 03b4 4AA9147B 		.word	2064951626
 1184 03b8 5200511B 		.word	458293330
 1185 03bc 1529539A 		.word	-1705826027
 1186 03c0 3F570FD6 		.word	-703637697
 1187 03c4 E4C69BBC 		.word	-1130641692
ARM GAS  C:\Users\jo\AppData\Local\Temp\ccQVAqlC.s 			page 22


 1188 03c8 76A4602B 		.word	727753846
 1189 03cc 0074E681 		.word	-2115603456
 1190 03d0 B56FBA08 		.word	146436021
 1191 03d4 1FE91B57 		.word	1461446943
 1192 03d8 6BEC96F2 		.word	-224990101
 1193 03dc 15D90D2A 		.word	705550613
 1194 03e0 216563B6 		.word	-1235000031
 1195 03e4 B6F9B9E7 		.word	-407242314
 1196 03e8 2E0534FF 		.word	-13368018
 1197 03ec 645685C5 		.word	-981117340
 1198 03f0 5D2DB053 		.word	1404054877
 1199 03f4 A18F9FA9 		.word	-1449160799
 1200 03f8 9947BA08 		.word	146425753
 1201 03fc 6A07856E 		.word	1854211946
 1202 0400 E9707A4B 		.word	1266315497
 1203 0404 4429B3B5 		.word	-1246549692
 1204 0408 2E0975DB 		.word	-613086930
 1205 040c 232619C4 		.word	-1004984797
 1206 0410 B0A66EAD 		.word	-1385257296
 1207 0414 7DDFA749 		.word	1235738493
 1208 0418 B860EE9C 		.word	-1662099272
 1209 041c 66B2ED8F 		.word	-1880247706
 1210 0420 718CAAEC 		.word	-324367247
 1211 0424 FF179A69 		.word	1771706367
 1212 0428 6C526456 		.word	1449415276
 1213 042c E19EB1C2 		.word	-1028546847
 1214 0430 A5023619 		.word	422970021
 1215 0434 294C0975 		.word	1963543593
 1216 0438 401359A0 		.word	-1604775104
 1217 043c 3E3A18E4 		.word	-468174274
 1218 0440 9A98543F 		.word	1062508698
 1219 0444 659D425B 		.word	1531092325
 1220 0448 D6E48F6B 		.word	1804592342
 1221 044c D63FF799 		.word	-1711849514
 1222 0450 079CD2A1 		.word	-1580033017
 1223 0454 F530E8EF 		.word	-269995787
 1224 0458 E6382D4D 		.word	1294809318
 1225 045c C15D25F0 		.word	-265986623
 1226 0460 8620DD4C 		.word	1289560198
 1227 0464 26EB7084 		.word	-2072974554
 1228 0468 C6E98263 		.word	1669523910
 1229 046c 5ECC1E02 		.word	35572830
 1230 0470 3F6B6809 		.word	157838143
 1231 0474 C9EFBA3E 		.word	1052438473
 1232 0478 1418973C 		.word	1016535060
 1233 047c A1706A6B 		.word	1802137761
 1234 0480 84357F68 		.word	1753167236
 1235 0484 86E2A052 		.word	1386275462
 1236 0488 05539CB7 		.word	-1214491899
 1237 048c 370750AA 		.word	-1437595849
 1238 0490 1C84073E 		.word	1040679964
 1239 0494 5CAEDE7F 		.word	2145300060
 1240 0498 EC447D8E 		.word	-1904392980
 1241 049c B8F21657 		.word	1461121720
 1242 04a0 37DA3AB0 		.word	-1338320329
 1243 04a4 0D0C50F0 		.word	-263189491
 1244 04a8 041F1CF0 		.word	-266592508
ARM GAS  C:\Users\jo\AppData\Local\Temp\ccQVAqlC.s 			page 23


 1245 04ac FFB30002 		.word	33600511
 1246 04b0 1AF50CAE 		.word	-1374882534
 1247 04b4 B274B53C 		.word	1018524850
 1248 04b8 587A8325 		.word	629373528
 1249 04bc BD2109DC 		.word	-603381315
 1250 04c0 F91391D1 		.word	-779021319
 1251 04c4 F62FA97C 		.word	2091462646
 1252 04c8 73473294 		.word	-1808644237
 1253 04cc 0147F522 		.word	586499841
 1254 04d0 81E5E53A 		.word	988145025
 1255 04d4 DCDAC237 		.word	935516892
 1256 04d8 3476B5C8 		.word	-927631820
 1257 04dc A7DDF39A 		.word	-1695294041
 1258 04e0 466144A9 		.word	-1455136442
 1259 04e4 0E03D00F 		.word	265290510
 1260 04e8 3EC7C8EC 		.word	-322386114
 1261 04ec 411E75A4 		.word	-1535828415
 1262 04f0 99CD38E2 		.word	-499593831
 1263 04f4 2F0EEA3B 		.word	1005194799
 1264 04f8 A1BB8032 		.word	847297441
 1265 04fc 31B33E18 		.word	406762289
 1266 0500 388B544E 		.word	1314163512
 1267 0504 08B96D4F 		.word	1332590856
 1268 0508 030D426F 		.word	1866599683
 1269 050c BF040AF6 		.word	-167115585
 1270 0510 9012B82C 		.word	750260880
 1271 0514 797C9724 		.word	613907577
 1272 0518 72B07956 		.word	1450815602
 1273 051c AF89AFBC 		.word	-1129346641
 1274 0520 1F779ADE 		.word	-560302305
 1275 0524 100893D9 		.word	-644675568
 1276 0528 12AE8BB3 		.word	-1282691566
 1277 052c 2E3FCFDC 		.word	-590397650
 1278 0530 1F721255 		.word	1427272223
 1279 0534 24716B2E 		.word	778793252
 1280 0538 E6DD1A50 		.word	1343938022
 1281 053c 87CD849F 		.word	-1618686585
 1282 0540 1847587A 		.word	2052605720
 1283 0544 17DA0874 		.word	1946737175
 1284 0548 BC9A9FBC 		.word	-1130390852
 1285 054c 8C7D4BE9 		.word	-380928628
 1286 0550 3AEC7AEC 		.word	-327488454
 1287 0554 FA1D85DB 		.word	-612033030
 1288 0558 66430963 		.word	1661551462
 1289 055c D2C364C4 		.word	-1000029230
 1290 0560 47181CEF 		.word	-283371449
 1291 0564 08D91532 		.word	840292616
 1292 0568 373B43DD 		.word	-582796489
 1293 056c 16BAC224 		.word	616741398
 1294 0570 434DA112 		.word	312560963
 1295 0574 51C4652A 		.word	711312465
 1296 0578 02009450 		.word	1351876610
 1297 057c DDE43A13 		.word	322626781
 1298 0580 9EF8DF71 		.word	1910503582
 1299 0584 554E3110 		.word	271666773
 1300 0588 D677AC81 		.word	-2119403562
 1301 058c 9B19115F 		.word	1594956187
ARM GAS  C:\Users\jo\AppData\Local\Temp\ccQVAqlC.s 			page 24


 1302 0590 F1563504 		.word	70604529
 1303 0594 6BC7A3D7 		.word	-677132437
 1304 0598 3B18113C 		.word	1007753275
 1305 059c 09A52459 		.word	1495573769
 1306 05a0 EDE68FF2 		.word	-225450259
 1307 05a4 FAFBF197 		.word	-1745748998
 1308 05a8 2CBFBA9E 		.word	-1631928532
 1309 05ac 6E3C151E 		.word	504708206
 1310 05b0 7045E386 		.word	-2031925904
 1311 05b4 B16FE9EA 		.word	-353800271
 1312 05b8 0A5E0E86 		.word	-2045878774
 1313 05bc B32A3E5A 		.word	1514023603
 1314 05c0 1CE71F77 		.word	1998579484
 1315 05c4 FA063D4E 		.word	1312622330
 1316 05c8 B9DC6529 		.word	694541497
 1317 05cc 0F1DE799 		.word	-1712906993
 1318 05d0 D6893E80 		.word	-2143385130
 1319 05d4 25C86652 		.word	1382467621
 1320 05d8 78C94C2E 		.word	776784248
 1321 05dc 6AB3109C 		.word	-1676627094
 1322 05e0 BA0E15C6 		.word	-971698502
 1323 05e4 78EAE294 		.word	-1797068168
 1324 05e8 533CFCA5 		.word	-1510196141
 1325 05ec F42D0A1E 		.word	503983604
 1326 05f0 A74EF7F2 		.word	-218673497
 1327 05f4 3D2B1D36 		.word	907881277
 1328 05f8 0F263919 		.word	423175695
 1329 05fc 6079C219 		.word	432175456
 1330 0600 08A72352 		.word	1378068232
 1331 0604 B61213F7 		.word	-149744970
 1332 0608 6EFEADEB 		.word	-340918674
 1333 060c 661FC3EA 		.word	-356311194
 1334 0610 9545BCE3 		.word	-474200683
 1335 0614 83C87BA6 		.word	-1501837181
 1336 0618 D1377FB1 		.word	-1317062703
 1337 061c 28FF8C01 		.word	26017576
 1338 0620 EFDD32C3 		.word	-1020076561
 1339 0624 A55A6CBE 		.word	-1100195163
 1340 0628 85215865 		.word	1700274565
 1341 062c 0298AB68 		.word	1756076034
 1342 0630 0FA5CEEE 		.word	-288447217
 1343 0634 3B952FDB 		.word	-617638597
 1344 0638 AD7DEF2A 		.word	720338349
 1345 063c 842F6E5B 		.word	1533947780
 1346 0640 28B62115 		.word	354530856
 1347 0644 70610729 		.word	688349552
 1348 0648 7547DDEC 		.word	-321042571
 1349 064c 10159F61 		.word	1637815568
 1350 0650 30A8CC13 		.word	332179504
 1351 0654 96BD61EB 		.word	-345916010
 1352 0658 1EFE3403 		.word	53804574
 1353 065c CF6303AA 		.word	-1442618417
 1354 0660 905C73B5 		.word	-1250730864
 1355 0664 39A2704C 		.word	1282449977
 1356 0668 0B9E9ED5 		.word	-711025141
 1357 066c 14DEAACB 		.word	-877994476
 1358 0670 BC86CCEE 		.word	-288586052
ARM GAS  C:\Users\jo\AppData\Local\Temp\ccQVAqlC.s 			page 25


 1359 0674 A72C6260 		.word	1617046695
 1360 0678 AB5CAB9C 		.word	-1666491221
 1361 067c 6E84F3B2 		.word	-1292663698
 1362 0680 AF1E8B64 		.word	1686838959
 1363 0684 CAF0BD19 		.word	431878346
 1364 0688 B96923A0 		.word	-1608291911
 1365 068c 50BB5A65 		.word	1700445008
 1366 0690 325A6840 		.word	1080580658
 1367 0694 B3B42A3C 		.word	1009431731
 1368 0698 D5E99E31 		.word	832498133
 1369 069c F7B821C0 		.word	-1071531785
 1370 06a0 190B549B 		.word	-1688990951
 1371 06a4 99A05F87 		.word	-2023776103
 1372 06a8 7E99F795 		.word	-1778935426
 1373 06ac A87D3D62 		.word	1648197032
 1374 06b0 9A8837F8 		.word	-130578278
 1375 06b4 772DE397 		.word	-1746719369
 1376 06b8 5F93ED11 		.word	300782431
 1377 06bc 81126816 		.word	375919233
 1378 06c0 2988350E 		.word	238389289
 1379 06c4 D61FE6C7 		.word	-941219882
 1380 06c8 A1DFDE96 		.word	-1763778655
 1381 06cc 99BA5878 		.word	2019080857
 1382 06d0 A584F557 		.word	1475708069
 1383 06d4 6372221B 		.word	455242339
 1384 06d8 FFC3839B 		.word	-1685863425
 1385 06dc 9646C21A 		.word	448939670
 1386 06e0 EB0AB3CD 		.word	-843904277
 1387 06e4 54302E53 		.word	1395535956
 1388 06e8 E448D98F 		.word	-1881585436
 1389 06ec 2831BC6D 		.word	1841049896
 1390 06f0 EFF2EB58 		.word	1491858159
 1391 06f4 EAFFC634 		.word	885456874
 1392 06f8 61ED28FE 		.word	-30872223
 1393 06fc 733C7CEE 		.word	-293847949
 1394 0700 D9144A5D 		.word	1565136089
 1395 0704 E3B764E8 		.word	-396052509
 1396 0708 145D1042 		.word	1108368660
 1397 070c E0133E20 		.word	540939232
 1398 0710 B6E2EE45 		.word	1173283510
 1399 0714 EAABAAA3 		.word	-1549095958
 1400 0718 154F6CDB 		.word	-613658859
 1401 071c D04FCBFA 		.word	-87339056
 1402 0720 42F442C7 		.word	-951913406
 1403 0724 B5BB6AEF 		.word	-278217803
 1404 0728 1D3B4F65 		.word	1699691293
 1405 072c 0521CD41 		.word	1103962373
 1406 0730 9E791ED8 		.word	-669091426
 1407 0734 C74D8586 		.word	-2038084153
 1408 0738 6A474BE4 		.word	-464828566
 1409 073c 5062813D 		.word	1031889488
 1410 0740 F2A162CF 		.word	-815619598
 1411 0744 46268D5B 		.word	1535977030
 1412 0748 A08388FC 		.word	-58162272
 1413 074c A3B6C7C1 		.word	-1043876189
 1414 0750 C324157F 		.word	2132092099
 1415 0754 9274CB69 		.word	1774941330
ARM GAS  C:\Users\jo\AppData\Local\Temp\ccQVAqlC.s 			page 26


 1416 0758 0B8A8447 		.word	1199868427
 1417 075c 85B29256 		.word	1452454533
 1418 0760 00BF5B09 		.word	157007616
 1419 0764 9D4819AD 		.word	-1390851939
 1420 0768 74B16214 		.word	342012276
 1421 076c 000E8223 		.word	595725824
 1422 0770 2A8D4258 		.word	1480756522
 1423 0774 EAF5550C 		.word	206960106
 1424 0778 3EF4AD1D 		.word	497939518
 1425 077c 61703F23 		.word	591360097
 1426 0780 92F07233 		.word	863170706
 1427 0784 417E938D 		.word	-1919713727
 1428 0788 F1EC5FD6 		.word	-698356495
 1429 078c DB3B226C 		.word	1814182875
 1430 0790 5937DE7C 		.word	2094937945
 1431 0794 6074EECB 		.word	-873565088
 1432 0798 A7F28540 		.word	1082520231
 1433 079c 6E3277CE 		.word	-831049106
 1434 07a0 848007A6 		.word	-1509457788
 1435 07a4 9E50F819 		.word	435703966
 1436 07a8 55D8EFE8 		.word	-386934699
 1437 07ac 3597D961 		.word	1641649973
 1438 07b0 AAA769A9 		.word	-1452693590
 1439 07b4 C2060CC5 		.word	-989067582
 1440 07b8 FCAB045A 		.word	1510255612
 1441 07bc DCCA0B80 		.word	-2146710820
 1442 07c0 2E7A449E 		.word	-1639679442
 1443 07c4 843445C3 		.word	-1018874748
 1444 07c8 0567D5FD 		.word	-36346107
 1445 07cc C99E1E0E 		.word	236887753
 1446 07d0 D3DB73DB 		.word	-613164077
 1447 07d4 CD885510 		.word	274041037
 1448 07d8 79DA5F67 		.word	1734335097
 1449 07dc 404367E3 		.word	-479771840
 1450 07e0 6534C4C5 		.word	-976997275
 1451 07e4 D8383E71 		.word	1899903192
 1452 07e8 9EF8283D 		.word	1026095262
 1453 07ec 20FF6DF1 		.word	-244449504
 1454 07f0 E7213E15 		.word	356393447
 1455 07f4 4A3DB08F 		.word	-1884275382
 1456 07f8 2B9FE3E6 		.word	-421290197
 1457 07fc F7AD83DB 		.word	-612127241
 1458 0800 685A3DE9 		.word	-381855128
 1459 0804 F7408194 		.word	-1803468553
 1460 0808 1C264CF6 		.word	-162781668
 1461 080c 34296994 		.word	-1805047500
 1462 0810 F7201541 		.word	1091903735
 1463 0814 F7D40276 		.word	1979897079
 1464 0818 2E6BF4BC 		.word	-1124832466
 1465 081c 6800A2D4 		.word	-727580568
 1466 0820 712408D4 		.word	-737663887
 1467 0824 6AF42033 		.word	857797738
 1468 0828 B7D4B743 		.word	1136121015
 1469 082c AF610050 		.word	1342202287
 1470 0830 2EF6391E 		.word	507115054
 1471 0834 46452497 		.word	-1759230650
 1472 0838 744F2114 		.word	337727348
ARM GAS  C:\Users\jo\AppData\Local\Temp\ccQVAqlC.s 			page 27


 1473 083c 40888BBF 		.word	-1081374656
 1474 0840 1DFC954D 		.word	1301675037
 1475 0844 AF91B596 		.word	-1766485585
 1476 0848 D3DDF470 		.word	1895095763
 1477 084c 452FA066 		.word	1721773893
 1478 0850 EC09BCBF 		.word	-1078195732
 1479 0854 8597BD03 		.word	62756741
 1480 0858 D06DAC7F 		.word	2142006736
 1481 085c 0485CB31 		.word	835421444
 1482 0860 B327EB96 		.word	-1762973773
 1483 0864 4139FD55 		.word	1442658625
 1484 0868 E64725DA 		.word	-635090970
 1485 086c 9A0ACAAB 		.word	-1412822374
 1486 0870 25785028 		.word	676362277
 1487 0874 F4290453 		.word	1392781812
 1488 0878 DA862C0A 		.word	170690266
 1489 087c FB6DB6E9 		.word	-373920261
 1490 0880 6214DC68 		.word	1759253602
 1491 0884 006948D7 		.word	-683120384
 1492 0888 A4C00E68 		.word	1745797284
 1493 088c EE8DA127 		.word	664899054
 1494 0890 A2FE3F4F 		.word	1329594018
 1495 0894 8CAD87E8 		.word	-393761396
 1496 0898 06E08CB5 		.word	-1249058810
 1497 089c B6D6F47A 		.word	2062866102
 1498 08a0 7C1ECEAA 		.word	-1429332356
 1499 08a4 EC5F37D3 		.word	-751345684
 1500 08a8 99A378CE 		.word	-830954599
 1501 08ac 422A6B40 		.word	1080764994
 1502 08b0 359EFE20 		.word	553557557
 1503 08b4 B985F3D9 		.word	-638351943
 1504 08b8 ABD739EE 		.word	-298199125
 1505 08bc 8B4E123B 		.word	991055499
 1506 08c0 F7FAC91D 		.word	499776247
 1507 08c4 56186D4B 		.word	1265440854
 1508 08c8 3166A326 		.word	648242737
 1509 08cc B297E3EA 		.word	-354183246
 1510 08d0 74FA6E3A 		.word	980351604
 1511 08d4 32435BDD 		.word	-581221582
 1512 08d8 F7E74168 		.word	1749149687
 1513 08dc FB2078CA 		.word	-898096901
 1514 08e0 4EF50AFB 		.word	-83167922
 1515 08e4 97B3FED8 		.word	-654396521
 1516 08e8 AC564045 		.word	1161844396
 1517 08ec 279548BA 		.word	-1169648345
 1518 08f0 3A3A5355 		.word	1431517754
 1519 08f4 878D8320 		.word	545492359
 1520 08f8 B7A96BFE 		.word	-26498633
 1521 08fc 4B9596D0 		.word	-795437749
 1522 0900 BC67A855 		.word	1437099964
 1523 0904 589A15A1 		.word	-1592419752
 1524 0908 6329A9CC 		.word	-861329053
 1525 090c 33DBE199 		.word	-1713251533
 1526 0910 564A2AA6 		.word	-1507177898
 1527 0914 F925313F 		.word	1060185593
 1528 0918 1C7EF45E 		.word	1593081372
 1529 091c 7C312990 		.word	-1876348548
ARM GAS  C:\Users\jo\AppData\Local\Temp\ccQVAqlC.s 			page 28


 1530 0920 02E8F8FD 		.word	-34019326
 1531 0924 702F2704 		.word	69676912
 1532 0928 5C15BB80 		.word	-2135222948
 1533 092c E32C2805 		.word	86519011
 1534 0930 4815C195 		.word	-1782508216
 1535 0934 226DC6E4 		.word	-456757982
 1536 0938 3F13C148 		.word	1220612927
 1537 093c DC860FC7 		.word	-955283748
 1538 0940 EEC9F907 		.word	133810670
 1539 0944 0F1F0441 		.word	1090789135
 1540 0948 A4794740 		.word	1078426020
 1541 094c 176E885D 		.word	1569222167
 1542 0950 EB515F32 		.word	845107691
 1543 0954 D1C09BD5 		.word	-711212847
 1544 0958 8FC1BCF2 		.word	-222510705
 1545 095c 64351141 		.word	1091646820
 1546 0960 34787B25 		.word	628848692
 1547 0964 609C2A60 		.word	1613405280
 1548 0968 A3E8F8DF 		.word	-537335645
 1549 096c 1B6C631F 		.word	526609435
 1550 0970 C2B4120E 		.word	236106946
 1551 0974 9E32E102 		.word	48312990
 1552 0978 D14F66AF 		.word	-1352249391
 1553 097c 1581D1CA 		.word	-892239595
 1554 0980 E095236B 		.word	1797494240
 1555 0984 E1923E33 		.word	859738849
 1556 0988 620B243B 		.word	992217954
 1557 098c 22B9BEEE 		.word	-289490654
 1558 0990 0EA2B285 		.word	-2051890674
 1559 0994 990DBAE6 		.word	-424014439
 1560 0998 8C0C72DE 		.word	-562951028
 1561 099c 28F7A22D 		.word	765654824
 1562 09a0 457812D0 		.word	-804095931
 1563 09a4 FD94B795 		.word	-1783130883
 1564 09a8 62087D64 		.word	1685915746
 1565 09ac F0F5CCE7 		.word	-405998096
 1566 09b0 6FA34954 		.word	1414112111
 1567 09b4 FA487D87 		.word	-2021832454
 1568 09b8 27FD9DC3 		.word	-1013056217
 1569 09bc 1E8D3EF3 		.word	-214004450
 1570 09c0 4163470A 		.word	172450625
 1571 09c4 74FF2E99 		.word	-1724973196
 1572 09c8 AB6E6F3A 		.word	980381355
 1573 09cc 37FDF8F4 		.word	-185008841
 1574 09d0 60DC12A8 		.word	-1475158944
 1575 09d4 F8DDEBA1 		.word	-1578377736
 1576 09d8 4CE11B99 		.word	-1726226100
 1577 09dc 0D6B6EDB 		.word	-613520627
 1578 09e0 10557BC6 		.word	-964995824
 1579 09e4 372C676D 		.word	1835478071
 1580 09e8 3BD46527 		.word	660984891
 1581 09ec 04E8D0DC 		.word	-590288892
 1582 09f0 C70D29F1 		.word	-248967737
 1583 09f4 A3FF00CC 		.word	-872349789
 1584 09f8 920F39B5 		.word	-1254551662
 1585 09fc 0BED0F69 		.word	1762651403
 1586 0a00 FB9F7B66 		.word	1719377915
ARM GAS  C:\Users\jo\AppData\Local\Temp\ccQVAqlC.s 			page 29


 1587 0a04 9C7DDBCE 		.word	-824476260
 1588 0a08 0BCF91A0 		.word	-1601057013
 1589 0a0c A35E15D9 		.word	-652910941
 1590 0a10 882F13BB 		.word	-1156370552
 1591 0a14 24AD5B51 		.word	1364962596
 1592 0a18 BF79947B 		.word	2073328063
 1593 0a1c EBD63B76 		.word	1983633131
 1594 0a20 B32E3937 		.word	926494387
 1595 0a24 795911CC 		.word	-871278215
 1596 0a28 97E22680 		.word	-2144935273
 1597 0a2c 2D312EF4 		.word	-198299347
 1598 0a30 A7AD4268 		.word	1749200295
 1599 0a34 3B2B6AC6 		.word	-966120645
 1600 0a38 CC4C7512 		.word	309677260
 1601 0a3c 1CF12E78 		.word	2016342300
 1602 0a40 3742126A 		.word	1779581495
 1603 0a44 E75192B7 		.word	-1215147545
 1604 0a48 E6BBA106 		.word	111262694
 1605 0a4c 5063FB4B 		.word	1274766160
 1606 0a50 18106B1A 		.word	443224088
 1607 0a54 FAEDCA11 		.word	298511866
 1608 0a58 D8BD253D 		.word	1025883608
 1609 0a5c C9C3E1E2 		.word	-488520759
 1610 0a60 59164244 		.word	1145181785
 1611 0a64 8613120A 		.word	168956806
 1612 0a68 6EEC0CD9 		.word	-653464466
 1613 0a6c 2AEAABD5 		.word	-710153686
 1614 0a70 4E67AF64 		.word	1689216846
 1615 0a74 5FA886DA 		.word	-628709281
 1616 0a78 88E9BFBE 		.word	-1094719096
 1617 0a7c FEC3E464 		.word	1692713982
 1618 0a80 5780BC9D 		.word	-1648590761
 1619 0a84 86C0F7F0 		.word	-252198778
 1620 0a88 F87B7860 		.word	1618508792
 1621 0a8c 4D600360 		.word	1610833997
 1622 0a90 4683FDD1 		.word	-771914938
 1623 0a94 B01F38F6 		.word	-164094032
 1624 0a98 04AE4577 		.word	2001055236
 1625 0a9c CCFC36D7 		.word	-684262196
 1626 0aa0 336B4283 		.word	-2092799181
 1627 0aa4 71AB1EF0 		.word	-266425487
 1628 0aa8 874180B0 		.word	-1333771897
 1629 0aac 5F5E003C 		.word	1006657119
 1630 0ab0 BE57A077 		.word	2006996926
 1631 0ab4 24AEE8BD 		.word	-1108824540
 1632 0ab8 99424655 		.word	1430667929
 1633 0abc 612E58BF 		.word	-1084739999
 1634 0ac0 8FF4584E 		.word	1314452623
 1635 0ac4 A2FDDDF2 		.word	-220332638
 1636 0ac8 38EF74F4 		.word	-193663176
 1637 0acc C2BD8987 		.word	-2021016126
 1638 0ad0 C3F96653 		.word	1399257539
 1639 0ad4 748EB3C8 		.word	-927756684
 1640 0ad8 55F275B4 		.word	-1267338667
 1641 0adc B9D9FC46 		.word	1190975929
 1642 0ae0 6126EB7A 		.word	2062231137
 1643 0ae4 84DF1D8B 		.word	-1960976508
ARM GAS  C:\Users\jo\AppData\Local\Temp\ccQVAqlC.s 			page 30


 1644 0ae8 790E6A84 		.word	-2073424263
 1645 0aec E2955F91 		.word	-1856006686
 1646 0af0 8E596E46 		.word	1181637006
 1647 0af4 7057B420 		.word	548689776
 1648 0af8 9155D58C 		.word	-1932175983
 1649 0afc 4CDE02C9 		.word	-922558900
 1650 0b00 E1AC0BB9 		.word	-1190417183
 1651 0b04 D00582BB 		.word	-1149106736
 1652 0b08 4862A811 		.word	296247880
 1653 0b0c 9EA97475 		.word	1970579870
 1654 0b10 B6197FB7 		.word	-1216407114
 1655 0b14 09DCA9E0 		.word	-525738999
 1656 0b18 A1092D66 		.word	1714227617
 1657 0b1c 334632C4 		.word	-1003338189
 1658 0b20 021F5AE8 		.word	-396747006
 1659 0b24 8CBEF009 		.word	166772364
 1660 0b28 25A0994A 		.word	1251581989
 1661 0b2c 10FE6E1D 		.word	493813264
 1662 0b30 1D3DB91A 		.word	448347421
 1663 0b34 DFA4A50B 		.word	195405023
 1664 0b38 0FF286A1 		.word	-1584991729
 1665 0b3c 69F16828 		.word	677966185
 1666 0b40 83DAB7DC 		.word	-591930749
 1667 0b44 FE063957 		.word	1463355134
 1668 0b48 9BCEE2A1 		.word	-1578971493
 1669 0b4c 527FCD4F 		.word	1338867538
 1670 0b50 015E1150 		.word	1343315457
 1671 0b54 FA8306A7 		.word	-1492745222
 1672 0b58 C4B502A0 		.word	-1610435132
 1673 0b5c 27D0E60D 		.word	233230375
 1674 0b60 278CF89A 		.word	-1694987225
 1675 0b64 41863F77 		.word	2000651841
 1676 0b68 064C60C3 		.word	-1017099258
 1677 0b6c B506A861 		.word	1638401717
 1678 0b70 287A17F0 		.word	-266896856
 1679 0b74 E086F5C0 		.word	-1057650976
 1680 0b78 AA586000 		.word	6314154
 1681 0b7c 627DDC30 		.word	819756386
 1682 0b80 D79EE611 		.word	300326615
 1683 0b84 63EA3823 		.word	590932579
 1684 0b88 94DDC253 		.word	1405279636
 1685 0b8c 3416C2C2 		.word	-1027467724
 1686 0b90 56EECBBB 		.word	-1144263082
 1687 0b94 DEB6BC90 		.word	-1866680610
 1688 0b98 A17DFCEB 		.word	-335774303
 1689 0b9c 761D59CE 		.word	-833020554
 1690 0ba0 09E4056F 		.word	1862657033
 1691 0ba4 88017C4B 		.word	1266418056
 1692 0ba8 3D0A7239 		.word	963775037
 1693 0bac 247C927C 		.word	2089974820
 1694 0bb0 5F72E386 		.word	-2031914401
 1695 0bb4 B99D4D72 		.word	1917689273
 1696 0bb8 B45BC11A 		.word	448879540
 1697 0bbc FCB89ED3 		.word	-744572676
 1698 0bc0 785554ED 		.word	-313240200
 1699 0bc4 B5A5FC08 		.word	150775221
 1700 0bc8 D37C3DD8 		.word	-667058989
ARM GAS  C:\Users\jo\AppData\Local\Temp\ccQVAqlC.s 			page 31


 1701 0bcc C40FAD4D 		.word	1303187396
 1702 0bd0 5EEF501E 		.word	508620638
 1703 0bd4 F8E661B1 		.word	-1318983944
 1704 0bd8 D91485A2 		.word	-1568336679
 1705 0bdc 3C13516C 		.word	1817252668
 1706 0be0 E7C7D56F 		.word	1876281319
 1707 0be4 C44EE156 		.word	1457606340
 1708 0be8 CEBF2A36 		.word	908771278
 1709 0bec 37C8C6DD 		.word	-574175177
 1710 0bf0 34329AD7 		.word	-677760460
 1711 0bf4 12826392 		.word	-1838972398
 1712 0bf8 8EFA0E67 		.word	1729034894
 1713 0bfc E0006040 		.word	1080033504
 1714 0c00 37CE393A 		.word	976866871
 1715 0c04 CFF5FAD3 		.word	-738527793
 1716 0c08 3777C2AB 		.word	-1413318857
 1717 0c0c 1B2DC55A 		.word	1522871579
 1718 0c10 9E67B05C 		.word	1555064734
 1719 0c14 4237A34F 		.word	1336096578
 1720 0c18 402782D3 		.word	-746444992
 1721 0c1c BE9BBC99 		.word	-1715692610
 1722 0c20 9D8E11D5 		.word	-720269667
 1723 0c24 15730FBF 		.word	-1089506539
 1724 0c28 7E1C2DD6 		.word	-701686658
 1725 0c2c 7BC400C7 		.word	-956251013
 1726 0c30 6B1B8CB7 		.word	-1215554709
 1727 0c34 4590A121 		.word	564236357
 1728 0c38 BEB16EB2 		.word	-1301368386
 1729 0c3c B46E366A 		.word	1781952180
 1730 0c40 2FAB4857 		.word	1464380207
 1731 0c44 796E94BC 		.word	-1131123079
 1732 0c48 D276A3C6 		.word	-962365742
 1733 0c4c C8C24965 		.word	1699332808
 1734 0c50 EEF80F53 		.word	1393555694
 1735 0c54 7DDE8D46 		.word	1183702653
 1736 0c58 1D0A73D5 		.word	-713881059
 1737 0c5c C64DD04C 		.word	1288719814
 1738 0c60 DBBB3929 		.word	691649499
 1739 0c64 5046BAA9 		.word	-1447410096
 1740 0c68 E82695AC 		.word	-1399511320
 1741 0c6c 04E35EBE 		.word	-1101077756
 1742 0c70 F0D5FAA1 		.word	-1577396752
 1743 0c74 9A512D6A 		.word	1781354906
 1744 0c78 E28CEF63 		.word	1676643554
 1745 0c7c 22EE869A 		.word	-1702433246
 1746 0c80 B8C289C0 		.word	-1064713544
 1747 0c84 F62E2443 		.word	1126444790
 1748 0c88 AA031EA5 		.word	-1524759638
 1749 0c8c A4D0F29C 		.word	-1661808476
 1750 0c90 BA61C083 		.word	-2084544070
 1751 0c94 4D6AE99B 		.word	-1679201715
 1752 0c98 5015E58F 		.word	-1880812208
 1753 0c9c D65B64BA 		.word	-1167828010
 1754 0ca0 F9A22628 		.word	673620729
 1755 0ca4 E13A3AA7 		.word	-1489356063
 1756 0ca8 8695A94B 		.word	1269405062
 1757 0cac E96255EF 		.word	-279616791
ARM GAS  C:\Users\jo\AppData\Local\Temp\ccQVAqlC.s 			page 32


 1758 0cb0 D3EF2FC7 		.word	-953159725
 1759 0cb4 DAF752F7 		.word	-145557542
 1760 0cb8 696F043F 		.word	1057255273
 1761 0cbc 590AFA77 		.word	2012875353
 1762 0cc0 15A9E480 		.word	-2132498155
 1763 0cc4 0186B087 		.word	-2018474495
 1764 0cc8 ADE6099B 		.word	-1693849939
 1765 0ccc 93E53E3B 		.word	993977747
 1766 0cd0 5AFD90E9 		.word	-376373926
 1767 0cd4 97D7349E 		.word	-1640704105
 1768 0cd8 D9B7F02C 		.word	753973209
 1769 0cdc 518B2B02 		.word	36408145
 1770 0ce0 3AACD596 		.word	-1764381638
 1771 0ce4 7DA67D01 		.word	25011837
 1772 0ce8 D63ECFD1 		.word	-774947114
 1773 0cec 282D7D7C 		.word	2088578344
 1774 0cf0 CF259F1F 		.word	530523599
 1775 0cf4 9BB8F2AD 		.word	-1376601957
 1776 0cf8 72B4D65A 		.word	1524020338
 1777 0cfc 4CF5885A 		.word	1518925132
 1778 0d00 71AC29E0 		.word	-534139791
 1779 0d04 E6A519E0 		.word	-535190042
 1780 0d08 FDACB047 		.word	1202760957
 1781 0d0c 9BFA93ED 		.word	-309069157
 1782 0d10 8DC4D3E8 		.word	-388774771
 1783 0d14 CC573B28 		.word	674977740
 1784 0d18 2966D5F8 		.word	-120232407
 1785 0d1c 282E1379 		.word	2031300136
 1786 0d20 91015F78 		.word	2019492241
 1787 0d24 556075ED 		.word	-311074731
 1788 0d28 440E96F7 		.word	-141160892
 1789 0d2c 8C5ED3E3 		.word	-472686964
 1790 0d30 D46D0515 		.word	352677332
 1791 0d34 BA6DF488 		.word	-1997247046
 1792 0d38 2561A103 		.word	60907813
 1793 0d3c BDF06405 		.word	90501309
 1794 0d40 159EEBC3 		.word	-1007968747
 1795 0d44 A257903C 		.word	1016092578
 1796 0d48 EC1A2797 		.word	-1759044884
 1797 0d4c 2A073AA9 		.word	-1455814870
 1798 0d50 9B6D3F1B 		.word	457141659
 1799 0d54 F521631E 		.word	509813237
 1800 0d58 FB669CF5 		.word	-174299397
 1801 0d5c 19F3DC26 		.word	652014361
 1802 0d60 28D93375 		.word	1966332200
 1803 0d64 F5FD55B1 		.word	-1319764491
 1804 0d68 82345603 		.word	55981186
 1805 0d6c BB3CBA8A 		.word	-1967506245
 1806 0d70 11775128 		.word	676427537
 1807 0d74 F8D90AC2 		.word	-1039476232
 1808 0d78 6751CCAB 		.word	-1412673177
 1809 0d7c 5F92ADCC 		.word	-861040033
 1810 0d80 5117E84D 		.word	1307055953
 1811 0d84 8EDC3038 		.word	942726286
 1812 0d88 62589D37 		.word	933058658
 1813 0d8c 91F92093 		.word	-1826555503
 1814 0d90 C2907AEA 		.word	-361066302
ARM GAS  C:\Users\jo\AppData\Local\Temp\ccQVAqlC.s 			page 33


 1815 0d94 CE7B3EFB 		.word	-79791154
 1816 0d98 64CE2151 		.word	1361170020
 1817 0d9c 32BE4F77 		.word	2001714738
 1818 0da0 7EE3B6A8 		.word	-1464409218
 1819 0da4 463D29C3 		.word	-1020707514
 1820 0da8 6953DE48 		.word	1222529897
 1821 0dac 80E61364 		.word	1679025792
 1822 0db0 1008AEA2 		.word	-1565652976
 1823 0db4 24B26DDD 		.word	-580013532
 1824 0db8 FD2D8569 		.word	1770335741
 1825 0dbc 66210709 		.word	151462246
 1826 0dc0 0A469AB3 		.word	-1281735158
 1827 0dc4 DDC04564 		.word	1682292957
 1828 0dc8 CFDE6C58 		.word	1483529935
 1829 0dcc AEC8201C 		.word	471910574
 1830 0dd0 DDF7BE5B 		.word	1539241949
 1831 0dd4 408D581B 		.word	458788160
 1832 0dd8 7F01D2CC 		.word	-858652289
 1833 0ddc BBE3B46B 		.word	1807016891
 1834 0de0 7E6AA2DD 		.word	-576558466
 1835 0de4 45FF593A 		.word	978976581
 1836 0de8 440A353E 		.word	1043663428
 1837 0dec D5CDB4BC 		.word	-1129001515
 1838 0df0 A8CEEA72 		.word	1927990952
 1839 0df4 BB8464FA 		.word	-94075717
 1840 0df8 AE12668D 		.word	-1922690386
 1841 0dfc 476F3CBF 		.word	-1086558393
 1842 0e00 63E49BD2 		.word	-761535389
 1843 0e04 9E5D2F54 		.word	1412390302
 1844 0e08 1B77C2AE 		.word	-1362987237
 1845 0e0c 70634EF6 		.word	-162634896
 1846 0e10 8D0D0E74 		.word	1947078029
 1847 0e14 57135BE7 		.word	-413461673
 1848 0e18 711672F8 		.word	-126740879
 1849 0e1c 5D7D53AF 		.word	-1353482915
 1850 0e20 08CB4040 		.word	1077988104
 1851 0e24 CCE2B44E 		.word	1320477388
 1852 0e28 6A46D234 		.word	886195818
 1853 0e2c 84AF1501 		.word	18198404
 1854 0e30 2804B0E1 		.word	-508558296
 1855 0e34 1D3A9895 		.word	-1785185763
 1856 0e38 B49FB806 		.word	112762804
 1857 0e3c 48A06ECE 		.word	-831610808
 1858 0e40 823B3F6F 		.word	1866414978
 1859 0e44 82AB2035 		.word	891333506
 1860 0e48 4B1D1A01 		.word	18488651
 1861 0e4c F8277227 		.word	661792760
 1862 0e50 B1601561 		.word	1628790961
 1863 0e54 DC3F93E7 		.word	-409780260
 1864 0e58 2B793ABB 		.word	-1153795797
 1865 0e5c BD254534 		.word	876946877
 1866 0e60 E13988A0 		.word	-1601685023
 1867 0e64 4B79CE51 		.word	1372485963
 1868 0e68 B7C9322F 		.word	791857591
 1869 0e6c C9BA1FA0 		.word	-1608533303
 1870 0e70 7EC81CE0 		.word	-534984578
 1871 0e74 F6D1C7BC 		.word	-1127755274
ARM GAS  C:\Users\jo\AppData\Local\Temp\ccQVAqlC.s 			page 34


 1872 0e78 C31101CF 		.word	-822013501
 1873 0e7c C7AAE8A1 		.word	-1578587449
 1874 0e80 4987901A 		.word	445679433
 1875 0e84 9ABD4FD4 		.word	-732971622
 1876 0e88 CBDEDAD0 		.word	-790962485
 1877 0e8c 38DA0AD5 		.word	-720709064
 1878 0e90 2AC33903 		.word	54117162
 1879 0e94 673691C6 		.word	-963561881
 1880 0e98 7C31F98D 		.word	-1913048708
 1881 0e9c 4F2BB1E0 		.word	-525259953
 1882 0ea0 B7599EF7 		.word	-140617289
 1883 0ea4 3ABBF543 		.word	1140177722
 1884 0ea8 FF19D5F2 		.word	-220915201
 1885 0eac 9C45D927 		.word	668550556
 1886 0eb0 2C2297BF 		.word	-1080614356
 1887 0eb4 2AFCE615 		.word	367459370
 1888 0eb8 71FC910F 		.word	261225585
 1889 0ebc 2515949B 		.word	-1684794075
 1890 0ec0 6193E5FA 		.word	-85617823
 1891 0ec4 EB9CB6CE 		.word	-826893077
 1892 0ec8 5964A8C2 		.word	-1029151655
 1893 0ecc D1A8BA12 		.word	314222801
 1894 0ed0 5E07C1B6 		.word	-1228863650
 1895 0ed4 0C6A05E3 		.word	-486184436
 1896 0ed8 6550D210 		.word	282218597
 1897 0edc 42A403CB 		.word	-888953790
 1898 0ee0 0E6EECE0 		.word	-521376242
 1899 0ee4 3BDB9816 		.word	379116347
 1900 0ee8 BEA0984C 		.word	1285071038
 1901 0eec 64E97832 		.word	846784868
 1902 0ef0 32951F9F 		.word	-1625320142
 1903 0ef4 DF92D3E0 		.word	-523005217
 1904 0ef8 2B34A0D3 		.word	-744475605
 1905 0efc 1EF27189 		.word	-1989021154
 1906 0f00 41740A1B 		.word	453669953
 1907 0f04 8C34A34B 		.word	1268987020
 1908 0f08 2071BEC5 		.word	-977374944
 1909 0f0c D83276C3 		.word	-1015663912
 1910 0f10 8D9F35DF 		.word	-550133875
 1911 0f14 2E2F999B 		.word	-1684459730
 1912 0f18 476F0BE6 		.word	-435458233
 1913 0f1c 1DF1E30F 		.word	266596637
 1914 0f20 54DA4CE5 		.word	-447948204
 1915 0f24 91D8DA1E 		.word	517658769
 1916 0f28 CF7962CE 		.word	-832407089
 1917 0f2c 6F7E3ECD 		.word	-851542417
 1918 0f30 66B11816 		.word	370717030
 1919 0f34 051D2CFD 		.word	-47440635
 1920 0f38 C5D28F84 		.word	-2070949179
 1921 0f3c 9922FBF6 		.word	-151313767
 1922 0f40 57F323F5 		.word	-182193321
 1923 0f44 237632A6 		.word	-1506642397
 1924 0f48 3135A893 		.word	-1817692879
 1925 0f4c 02CDCC56 		.word	1456262402
 1926 0f50 6281F0AC 		.word	-1393524382
 1927 0f54 B5EB755A 		.word	1517677493
 1928 0f58 9736166E 		.word	1846949527
ARM GAS  C:\Users\jo\AppData\Local\Temp\ccQVAqlC.s 			page 35


 1929 0f5c CC73D288 		.word	-1999473716
 1930 0f60 926296DE 		.word	-560569710
 1931 0f64 D049B981 		.word	-2118563376
 1932 0f68 1B90504C 		.word	1280348187
 1933 0f6c 1456C671 		.word	1908823572
 1934 0f70 BDC7C6E6 		.word	-423180355
 1935 0f74 0A147A32 		.word	846861322
 1936 0f78 06D0E145 		.word	1172426758
 1937 0f7c 9A7BF2C3 		.word	-1007518822
 1938 0f80 FD53AAC9 		.word	-911584259
 1939 0f84 000FA862 		.word	1655181056
 1940 0f88 E2BF25BB 		.word	-1155153950
 1941 0f8c F6D2BD35 		.word	901632758
 1942 0f90 05691271 		.word	1897031941
 1943 0f94 220204B2 		.word	-1308360158
 1944 0f98 7CCFCBB6 		.word	-1228157060
 1945 0f9c 2B9C76CD 		.word	-847864789
 1946 0fa0 C03E1153 		.word	1393639104
 1947 0fa4 D3E34016 		.word	373351379
 1948 0fa8 60BDAB38 		.word	950779232
 1949 0fac F0AD4725 		.word	625454576
 1950 0fb0 9C2038BA 		.word	-1170726756
 1951 0fb4 76CE46F7 		.word	-146354570
 1952 0fb8 C5A1AF77 		.word	2007998917
 1953 0fbc 60607520 		.word	544563296
 1954 0fc0 4EFECB85 		.word	-2050228658
 1955 0fc4 D88DE88A 		.word	-1964470824
 1956 0fc8 B0F9AA7A 		.word	2058025392
 1957 0fcc 7EAAF94C 		.word	1291430526
 1958 0fd0 5CC24819 		.word	424198748
 1959 0fd4 8C8AFB02 		.word	50039436
 1960 0fd8 E46AC301 		.word	29584100
 1961 0fdc F9E1EBD6 		.word	-689184263
 1962 0fe0 69F8D490 		.word	-1865090967
 1963 0fe4 A0DE5CA6 		.word	-1503863136
 1964 0fe8 2D25093F 		.word	1057563949
 1965 0fec 9FE608C2 		.word	-1039604065
 1966 0ff0 32614EB7 		.word	-1219600078
 1967 0ff4 5BE277CE 		.word	-831004069
 1968 0ff8 E3DF8F57 		.word	1469046755
 1969 0ffc E672C33A 		.word	985887462
 1970              		.text
 1971              	.Letext0:
 1972              		.file 2 "c:\\program files\\gnu tools arm embedded\\4.9 2014q4\\lib\\gcc\\arm-none-eabi\\4.9.3\\in
 1973              		.file 3 "c:\\program files\\gnu tools arm embedded\\4.9 2014q4\\arm-none-eabi\\include\\machine\\_
 1974              		.file 4 "c:\\program files\\gnu tools arm embedded\\4.9 2014q4\\arm-none-eabi\\include\\stdint.h"
 1975              		.file 5 "../../../ext/mbedtls-1.3.11/library/../include/polarssl/blowfish.h"