ARM GAS  C:\Users\jo\AppData\Local\Temp\cc36ADTZ.s 			page 1


   1              		.syntax unified
   2              		.cpu cortex-m4
   3              		.fpu softvfp
   4              		.eabi_attribute 20, 1
   5              		.eabi_attribute 21, 1
   6              		.eabi_attribute 23, 3
   7              		.eabi_attribute 24, 1
   8              		.eabi_attribute 25, 1
   9              		.eabi_attribute 26, 1
  10              		.eabi_attribute 30, 2
  11              		.eabi_attribute 34, 1
  12              		.eabi_attribute 18, 4
  13              		.thumb
  14              		.file	"camellia.c"
  15              		.text
  16              	.Ltext0:
  17              		.cfi_sections	.debug_frame
  18              		.section	.text.camellia_feistel,"ax",%progbits
  19              		.align	2
  20              		.p2align 4,,15
  21              		.thumb
  22              		.thumb_func
  23              		.type	camellia_feistel, %function
  24              	camellia_feistel:
  25              	.LFB1:
  26              		.file 1 "../../../ext/mbedtls-1.3.11/library/camellia.c"
  27              		.loc 1 303 0
  28              		.cfi_startproc
  29              		@ args = 0, pretend = 0, frame = 0
  30              		@ frame_needed = 0, uses_anonymous_args = 0
  31              	.LVL0:
  32 0000 2DE9F047 		push	{r4, r5, r6, r7, r8, r9, r10, lr}
  33              		.cfi_def_cfa_offset 32
  34              		.cfi_offset 4, -32
  35              		.cfi_offset 5, -28
  36              		.cfi_offset 6, -24
  37              		.cfi_offset 7, -20
  38              		.cfi_offset 8, -16
  39              		.cfi_offset 9, -12
  40              		.cfi_offset 10, -8
  41              		.cfi_offset 14, -4
  42              		.loc 1 305 0
  43 0004 D0F800E0 		ldr	lr, [r0]
  44              		.loc 1 306 0
  45 0008 4568     		ldr	r5, [r0, #4]
  46              		.loc 1 305 0
  47 000a 0E68     		ldr	r6, [r1]
  48              		.loc 1 306 0
  49 000c 4868     		ldr	r0, [r1, #4]
  50              	.LVL1:
  51              		.loc 1 308 0
  52 000e 1F4C     		ldr	r4, .L3
  53              		.loc 1 309 0
  54 0010 1F49     		ldr	r1, .L3+4
  55              	.LVL2:
  56              		.loc 1 311 0
  57 0012 204F     		ldr	r7, .L3+8
ARM GAS  C:\Users\jo\AppData\Local\Temp\cc36ADTZ.s 			page 2


  58              		.loc 1 310 0
  59 0014 204B     		ldr	r3, .L3+12
  60              		.loc 1 305 0
  61 0016 8EEA0606 		eor	r6, lr, r6
  62              	.LVL3:
  63              		.loc 1 306 0
  64 001a 4540     		eors	r5, r5, r0
  65              	.LVL4:
  66              		.loc 1 308 0
  67 001c 4FEA1669 		lsr	r9, r6, #24
  68              		.loc 1 311 0
  69 0020 F0B2     		uxtb	r0, r6
  70              		.loc 1 312 0
  71 0022 4FEA1568 		lsr	r8, r5, #24
  72              		.loc 1 315 0
  73 0026 5FFA85FA 		uxtb	r10, r5
  74              		.loc 1 309 0
  75 002a C6F3074C 		ubfx	ip, r6, #16, #8
  76              		.loc 1 313 0
  77 002e C5F3074E 		ubfx	lr, r5, #16, #8
  78              		.loc 1 308 0
  79 0032 14F80990 		ldrb	r9, [r4, r9]	@ zero_extendqisi2
  80              		.loc 1 311 0
  81 0036 385C     		ldrb	r0, [r7, r0]	@ zero_extendqisi2
  82              		.loc 1 312 0
  83 0038 11F80880 		ldrb	r8, [r1, r8]	@ zero_extendqisi2
  84              		.loc 1 315 0
  85 003c 14F80A40 		ldrb	r4, [r4, r10]	@ zero_extendqisi2
  86              		.loc 1 309 0
  87 0040 11F80CC0 		ldrb	ip, [r1, ip]	@ zero_extendqisi2
  88              		.loc 1 313 0
  89 0044 13F80EE0 		ldrb	lr, [r3, lr]	@ zero_extendqisi2
  90              		.loc 1 310 0
  91 0048 C6F30726 		ubfx	r6, r6, #8, #8
  92              	.LVL5:
  93              		.loc 1 314 0
  94 004c C5F30725 		ubfx	r5, r5, #8, #8
  95              	.LVL6:
  96 0050 40EA0961 		orr	r1, r0, r9, lsl #24
  97              		.loc 1 310 0
  98 0054 9B5D     		ldrb	r3, [r3, r6]	@ zero_extendqisi2
  99              		.loc 1 314 0
 100 0056 7D5D     		ldrb	r5, [r7, r5]	@ zero_extendqisi2
 101 0058 44EA0860 		orr	r0, r4, r8, lsl #24
 102 005c 41EA0C41 		orr	r1, r1, ip, lsl #16
 103 0060 40EA0E40 		orr	r0, r0, lr, lsl #16
 104              		.loc 1 308 0
 105 0064 41EA0323 		orr	r3, r1, r3, lsl #8
 106              	.LVL7:
 107              		.loc 1 312 0
 108 0068 40EA0521 		orr	r1, r0, r5, lsl #8
 109              	.LVL8:
 110              		.loc 1 323 0
 111 006c 92E81100 		ldmia	r2, {r0, r4}
 112              		.loc 1 317 0
 113 0070 83EA3163 		eor	r3, r3, r1, ror #24
 114              	.LVL9:
ARM GAS  C:\Users\jo\AppData\Local\Temp\cc36ADTZ.s 			page 3


 115              		.loc 1 318 0
 116 0074 81EA3341 		eor	r1, r1, r3, ror #16
 117              	.LVL10:
 118              		.loc 1 319 0
 119 0078 83EA3123 		eor	r3, r3, r1, ror #8
 120              	.LVL11:
 121 007c 4140     		eors	r1, r1, r0
 122              	.LVL12:
 123              		.loc 1 322 0
 124 007e 81EA3321 		eor	r1, r1, r3, ror #8
 125              		.loc 1 323 0
 126 0082 6340     		eors	r3, r3, r4
 127              	.LVL13:
 128 0084 82E80A00 		stmia	r2, {r1, r3}
 129              	.LVL14:
 130 0088 BDE8F087 		pop	{r4, r5, r6, r7, r8, r9, r10, pc}
 131              	.L4:
 132              		.align	2
 133              	.L3:
 134 008c 00000000 		.word	.LANCHOR1
 135 0090 00000000 		.word	.LANCHOR3
 136 0094 00000000 		.word	.LANCHOR2
 137 0098 00000000 		.word	.LANCHOR0
 138              		.cfi_endproc
 139              	.LFE1:
 140              		.size	camellia_feistel, .-camellia_feistel
 141 009c AFF30080 		.section	.text.camellia_init,"ax",%progbits
 142              		.align	2
 143              		.p2align 4,,15
 144              		.global	camellia_init
 145              		.thumb
 146              		.thumb_func
 147              		.type	camellia_init, %function
 148              	camellia_init:
 149              	.LFB2:
 150              		.loc 1 327 0
 151              		.cfi_startproc
 152              		@ args = 0, pretend = 0, frame = 0
 153              		@ frame_needed = 0, uses_anonymous_args = 0
 154              		@ link register save eliminated.
 155              	.LVL15:
 156              		.loc 1 328 0
 157 0000 0021     		movs	r1, #0
 158 0002 4FF48A72 		mov	r2, #276
 159 0006 FFF7FEBF 		b	memset
 160              	.LVL16:
 161              		.cfi_endproc
 162              	.LFE2:
 163              		.size	camellia_init, .-camellia_init
 164 000a 00BFAFF3 		.section	.text.camellia_free,"ax",%progbits
 164      0080
 165              		.align	2
 166              		.p2align 4,,15
 167              		.global	camellia_free
 168              		.thumb
 169              		.thumb_func
 170              		.type	camellia_free, %function
ARM GAS  C:\Users\jo\AppData\Local\Temp\cc36ADTZ.s 			page 4


 171              	camellia_free:
 172              	.LFB3:
 173              		.loc 1 332 0
 174              		.cfi_startproc
 175              		@ args = 0, pretend = 0, frame = 0
 176              		@ frame_needed = 0, uses_anonymous_args = 0
 177              		@ link register save eliminated.
 178              	.LVL17:
 179              		.loc 1 333 0
 180 0000 30B1     		cbz	r0, .L6
 181 0002 00F58A72 		add	r2, r0, #276
 182              	.LBB10:
 183              	.LBB11:
 184              		.loc 1 53 0
 185 0006 0023     		movs	r3, #0
 186              	.LVL18:
 187              	.L8:
 188 0008 0370     		strb	r3, [r0]
 189              	.LVL19:
 190 000a 0130     		adds	r0, r0, #1
 191              	.LVL20:
 192 000c 9042     		cmp	r0, r2
 193 000e FBD1     		bne	.L8
 194              	.LVL21:
 195              	.L6:
 196 0010 7047     		bx	lr
 197              	.LBE11:
 198              	.LBE10:
 199              		.cfi_endproc
 200              	.LFE3:
 201              		.size	camellia_free, .-camellia_free
 202 0012 00BFAFF3 		.section	.text.camellia_setkey_enc,"ax",%progbits
 202      0080AFF3 
 202      0080AFF3 
 202      0080
 203              		.align	2
 204              		.p2align 4,,15
 205              		.global	camellia_setkey_enc
 206              		.thumb
 207              		.thumb_func
 208              		.type	camellia_setkey_enc, %function
 209              	camellia_setkey_enc:
 210              	.LFB4:
 211              		.loc 1 344 0
 212              		.cfi_startproc
 213              		@ args = 0, pretend = 0, frame = 272
 214              		@ frame_needed = 0, uses_anonymous_args = 0
 215              	.LVL22:
 216 0000 2DE9F04F 		push	{r4, r5, r6, r7, r8, r9, r10, fp, lr}
 217              		.cfi_def_cfa_offset 36
 218              		.cfi_offset 4, -36
 219              		.cfi_offset 5, -32
 220              		.cfi_offset 6, -28
 221              		.cfi_offset 7, -24
 222              		.cfi_offset 8, -20
 223              		.cfi_offset 9, -16
 224              		.cfi_offset 10, -12
ARM GAS  C:\Users\jo\AppData\Local\Temp\cc36ADTZ.s 			page 5


 225              		.cfi_offset 11, -8
 226              		.cfi_offset 14, -4
 227 0004 C5B0     		sub	sp, sp, #276
 228              		.cfi_def_cfa_offset 312
 229              		.loc 1 344 0
 230 0006 9146     		mov	r9, r2
 231              		.loc 1 353 0
 232 0008 041D     		adds	r4, r0, #4
 233              	.LVL23:
 234              		.loc 1 355 0
 235 000a 4022     		movs	r2, #64
 236              	.LVL24:
 237              		.loc 1 344 0
 238 000c 0646     		mov	r6, r0
 239 000e 0D46     		mov	r5, r1
 240              		.loc 1 355 0
 241 0010 10A8     		add	r0, sp, #64
 242              	.LVL25:
 243 0012 0021     		movs	r1, #0
 244              	.LVL26:
 245 0014 FFF7FEFF 		bl	memset
 246              	.LVL27:
 247              		.loc 1 356 0
 248 0018 2046     		mov	r0, r4
 249 001a 0021     		movs	r1, #0
 250 001c 4FF48872 		mov	r2, #272
 251 0020 FFF7FEFF 		bl	memset
 252              	.LVL28:
 253              		.loc 1 358 0
 254 0024 B9F1C00F 		cmp	r9, #192
 255 0028 00F0F681 		beq	.L14
 256 002c B9F5807F 		cmp	r9, #256
 257 0030 00F0F281 		beq	.L14
 258 0034 B9F1800F 		cmp	r9, #128
 259 0038 04D0     		beq	.L101
 260              		.loc 1 363 0
 261 003a 6FF02300 		mvn	r0, #35
 262              		.loc 1 442 0
 263 003e 45B0     		add	sp, sp, #276
 264              		.cfi_remember_state
 265              		.cfi_def_cfa_offset 36
 266              		@ sp needed
 267 0040 BDE8F08F 		pop	{r4, r5, r6, r7, r8, r9, r10, fp, pc}
 268              	.LVL29:
 269              	.L101:
 270              		.cfi_restore_state
 271              		.loc 1 360 0
 272 0044 0323     		movs	r3, #3
 273 0046 3360     		str	r3, [r6]
 274              	.LVL30:
 275 0048 4FF0000A 		mov	r10, #0
 276              		.loc 1 366 0
 277 004c 1026     		movs	r6, #16
 278              	.LVL31:
 279              	.L16:
 280 004e 6A1E     		subs	r2, r5, #1
 281 0050 0DF13F01 		add	r1, sp, #63
ARM GAS  C:\Users\jo\AppData\Local\Temp\cc36ADTZ.s 			page 6


 282              		.loc 1 360 0 discriminator 3
 283 0054 0023     		movs	r3, #0
 284              	.LVL32:
 285              	.L17:
 286              		.loc 1 366 0 discriminator 3
 287 0056 0133     		adds	r3, r3, #1
 288              	.LVL33:
 289              		.loc 1 367 0 discriminator 3
 290 0058 12F8010F 		ldrb	r0, [r2, #1]!	@ zero_extendqisi2
 291 005c 01F8010F 		strb	r0, [r1, #1]!
 292              		.loc 1 366 0 discriminator 3
 293 0060 9E42     		cmp	r6, r3
 294 0062 F8D8     		bhi	.L17
 295              		.loc 1 369 0
 296 0064 B9F1C00F 		cmp	r9, #192
 297 0068 00F0DD81 		beq	.L18
 298              	.LVL34:
 299              	.L21:
 300 006c B64F     		ldr	r7, .L102
 301 006e 04AE     		add	r6, sp, #16
 302 0070 3846     		mov	r0, r7
 303              		.loc 1 360 0
 304 0072 0025     		movs	r5, #0
 305              	.LVL35:
 306              	.L19:
 307              		.loc 1 378 0 discriminator 3
 308 0074 4278     		ldrb	r2, [r0, #1]	@ zero_extendqisi2
 309 0076 17F83510 		ldrb	r1, [r7, r5, lsl #3]	@ zero_extendqisi2
 310              		.loc 1 379 0 discriminator 3
 311 007a 4379     		ldrb	r3, [r0, #5]	@ zero_extendqisi2
 312 007c 90F80480 		ldrb	r8, [r0, #4]	@ zero_extendqisi2
 313              		.loc 1 378 0 discriminator 3
 314 0080 90F803E0 		ldrb	lr, [r0, #3]	@ zero_extendqisi2
 315 0084 90F802C0 		ldrb	ip, [r0, #2]	@ zero_extendqisi2
 316 0088 1204     		lsls	r2, r2, #16
 317 008a 42EA0161 		orr	r1, r2, r1, lsl #24
 318              		.loc 1 379 0 discriminator 3
 319 008e 1B04     		lsls	r3, r3, #16
 320 0090 C279     		ldrb	r2, [r0, #7]	@ zero_extendqisi2
 321 0092 43EA0863 		orr	r3, r3, r8, lsl #24
 322 0096 41EA0E01 		orr	r1, r1, lr
 323 009a 1343     		orrs	r3, r3, r2
 324              		.loc 1 378 0 discriminator 3
 325 009c 04AA     		add	r2, sp, #16
 326              		.loc 1 379 0 discriminator 3
 327 009e 90F806E0 		ldrb	lr, [r0, #6]	@ zero_extendqisi2
 328              		.loc 1 378 0 discriminator 3
 329 00a2 41EA0C21 		orr	r1, r1, ip, lsl #8
 330 00a6 42F83510 		str	r1, [r2, r5, lsl #3]
 331              		.loc 1 377 0 discriminator 3
 332 00aa 0135     		adds	r5, r5, #1
 333              	.LVL36:
 334              		.loc 1 379 0 discriminator 3
 335 00ac 43EA0E23 		orr	r3, r3, lr, lsl #8
 336              		.loc 1 377 0 discriminator 3
 337 00b0 062D     		cmp	r5, #6
 338              		.loc 1 379 0 discriminator 3
ARM GAS  C:\Users\jo\AppData\Local\Temp\cc36ADTZ.s 			page 7


 339 00b2 7360     		str	r3, [r6, #4]
 340 00b4 00F10800 		add	r0, r0, #8
 341 00b8 06F10806 		add	r6, r6, #8
 342              		.loc 1 377 0 discriminator 3
 343 00bc DAD1     		bne	.L19
 344              		.loc 1 386 0
 345 00be 20A8     		add	r0, sp, #128
 346 00c0 0021     		movs	r1, #0
 347 00c2 4022     		movs	r2, #64
 348 00c4 FFF7FEFF 		bl	memset
 349              	.LVL37:
 350 00c8 0DF14105 		add	r5, sp, #65
 351 00cc 1FAE     		add	r6, sp, #124
 352 00ce 0DF16107 		add	r7, sp, #97
 353              	.LVL38:
 354              	.L22:
 355              		.loc 1 390 0 discriminator 3
 356 00d2 2978     		ldrb	r1, [r5]	@ zero_extendqisi2
 357 00d4 15F8013C 		ldrb	r3, [r5, #-1]	@ zero_extendqisi2
 358 00d8 AA78     		ldrb	r2, [r5, #2]	@ zero_extendqisi2
 359 00da 6878     		ldrb	r0, [r5, #1]	@ zero_extendqisi2
 360 00dc 0904     		lsls	r1, r1, #16
 361 00de 41EA0363 		orr	r3, r1, r3, lsl #24
 362 00e2 1343     		orrs	r3, r3, r2
 363 00e4 0435     		adds	r5, r5, #4
 364 00e6 43EA0023 		orr	r3, r3, r0, lsl #8
 365              		.loc 1 389 0 discriminator 3
 366 00ea BD42     		cmp	r5, r7
 367              		.loc 1 390 0 discriminator 3
 368 00ec 46F8043F 		str	r3, [r6, #4]!
 369              		.loc 1 389 0 discriminator 3
 370 00f0 EFD1     		bne	.L22
 371 00f2 20A9     		add	r1, sp, #128
 372 00f4 24A8     		add	r0, sp, #144
 373              	.L23:
 374              		.loc 1 394 0 discriminator 3
 375 00f6 51F8043B 		ldr	r3, [r1], #4
 376 00fa CA68     		ldr	r2, [r1, #12]
 377              		.loc 1 393 0 discriminator 3
 378 00fc 8142     		cmp	r1, r0
 379              		.loc 1 394 0 discriminator 3
 380 00fe 83EA0203 		eor	r3, r3, r2
 381 0102 CB61     		str	r3, [r1, #28]
 382              		.loc 1 393 0 discriminator 3
 383 0104 F7D1     		bne	.L23
 384              		.loc 1 396 0
 385 0106 04A9     		add	r1, sp, #16
 386 0108 28A8     		add	r0, sp, #160
 387 010a 2AAA     		add	r2, sp, #168
 388 010c FFF7FEFF 		bl	camellia_feistel
 389              	.LVL39:
 390 0110 27AD     		add	r5, sp, #156
 391              		.loc 1 397 0
 392 0112 2AA8     		add	r0, sp, #168
 393 0114 06A9     		add	r1, sp, #24
 394 0116 28AA     		add	r2, sp, #160
 395 0118 FFF7FEFF 		bl	camellia_feistel
ARM GAS  C:\Users\jo\AppData\Local\Temp\cc36ADTZ.s 			page 8


 396              	.LVL40:
 397 011c 2946     		mov	r1, r5
 398 011e 2BA8     		add	r0, sp, #172
 399              	.LVL41:
 400              	.L24:
 401              		.loc 1 400 0 discriminator 3
 402 0120 51F8042F 		ldr	r2, [r1, #4]!
 403 0124 51F8203C 		ldr	r3, [r1, #-32]
 404              		.loc 1 399 0 discriminator 3
 405 0128 8142     		cmp	r1, r0
 406              		.loc 1 400 0 discriminator 3
 407 012a 83EA0203 		eor	r3, r3, r2
 408 012e 0B60     		str	r3, [r1]
 409              		.loc 1 399 0 discriminator 3
 410 0130 F6D1     		bne	.L24
 411              		.loc 1 402 0
 412 0132 28A8     		add	r0, sp, #160
 413 0134 08A9     		add	r1, sp, #32
 414 0136 2AAA     		add	r2, sp, #168
 415 0138 FFF7FEFF 		bl	camellia_feistel
 416              	.LVL42:
 417              		.loc 1 403 0
 418 013c 2AA8     		add	r0, sp, #168
 419 013e 28AA     		add	r2, sp, #160
 420 0140 0AA9     		add	r1, sp, #40
 421 0142 FFF7FEFF 		bl	camellia_feistel
 422              	.LVL43:
 423              		.loc 1 405 0
 424 0146 B9F1800F 		cmp	r9, #128
 425 014a 12D9     		bls	.L25
 426 014c 23AB     		add	r3, sp, #140
 427              	.L26:
 428 014e 0433     		adds	r3, r3, #4
 429              		.loc 1 408 0 discriminator 3
 430 0150 1969     		ldr	r1, [r3, #16]
 431 0152 1A68     		ldr	r2, [r3]
 432              		.loc 1 407 0 discriminator 3
 433 0154 AB42     		cmp	r3, r5
 434              		.loc 1 408 0 discriminator 3
 435 0156 82EA0102 		eor	r2, r2, r1
 436 015a 1A62     		str	r2, [r3, #32]
 437              		.loc 1 407 0 discriminator 3
 438 015c F7D1     		bne	.L26
 439              		.loc 1 410 0
 440 015e 2CA8     		add	r0, sp, #176
 441 0160 2EAA     		add	r2, sp, #184
 442 0162 0CA9     		add	r1, sp, #48
 443 0164 FFF7FEFF 		bl	camellia_feistel
 444              	.LVL44:
 445              		.loc 1 411 0
 446 0168 2EA8     		add	r0, sp, #184
 447 016a 2CAA     		add	r2, sp, #176
 448 016c 0EA9     		add	r1, sp, #56
 449 016e FFF7FEFF 		bl	camellia_feistel
 450              	.LVL45:
 451              	.L25:
 452              		.loc 1 419 0
ARM GAS  C:\Users\jo\AppData\Local\Temp\cc36ADTZ.s 			page 9


 453 0172 2098     		ldr	r0, [sp, #128]
 454 0174 754D     		ldr	r5, .L102+4
 455 0176 219B     		ldr	r3, [sp, #132]
 456 0178 229A     		ldr	r2, [sp, #136]
 457 017a 2399     		ldr	r1, [sp, #140]
 458 017c 3090     		str	r0, [sp, #192]
 459 017e 0DF1C00E 		add	lr, sp, #192
 460 0182 4FEA0A10 		lsl	r0, r10, #4
 461 0186 2F18     		adds	r7, r5, r0
 462 0188 3193     		str	r3, [sp, #196]
 463 018a 0290     		str	r0, [sp, #8]
 464 018c 3292     		str	r2, [sp, #200]
 465 018e 3391     		str	r1, [sp, #204]
 466              	.LVL46:
 467 0190 7346     		mov	r3, lr
 468 0192 0DF58078 		add	r8, sp, #256
 469 0196 0F25     		movs	r5, #15
 470 0198 2646     		mov	r6, r4
 471              	.LVL47:
 472              	.L28:
 473              		.loc 1 419 0 is_stmt 0 discriminator 6
 474 019a 17F8010B 		ldrb	r0, [r7], #1	@ zero_extendqisi2
 475 019e 05F01F02 		and	r2, r5, #31
 476 01a2 C2F12001 		rsb	r1, r2, #32
 477 01a6 0F35     		adds	r5, r5, #15
 478 01a8 B8B1     		cbz	r0, .L27
 479              		.loc 1 419 0 discriminator 2
 480 01aa 319C     		ldr	r4, [sp, #196]
 481 01ac 3098     		ldr	r0, [sp, #192]
 482 01ae CC40     		lsrs	r4, r4, r1
 483 01b0 9040     		lsls	r0, r0, r2
 484 01b2 6040     		eors	r0, r0, r4
 485 01b4 1861     		str	r0, [r3, #16]
 486 01b6 329C     		ldr	r4, [sp, #200]
 487 01b8 3198     		ldr	r0, [sp, #196]
 488 01ba CC40     		lsrs	r4, r4, r1
 489 01bc 9040     		lsls	r0, r0, r2
 490 01be 6040     		eors	r0, r0, r4
 491 01c0 5861     		str	r0, [r3, #20]
 492 01c2 339C     		ldr	r4, [sp, #204]
 493 01c4 3298     		ldr	r0, [sp, #200]
 494 01c6 CC40     		lsrs	r4, r4, r1
 495 01c8 9040     		lsls	r0, r0, r2
 496 01ca 6040     		eors	r0, r0, r4
 497 01cc 9861     		str	r0, [r3, #24]
 498 01ce 309C     		ldr	r4, [sp, #192]
 499 01d0 3398     		ldr	r0, [sp, #204]
 500 01d2 CC40     		lsrs	r4, r4, r1
 501 01d4 9040     		lsls	r0, r0, r2
 502 01d6 6040     		eors	r0, r0, r4
 503 01d8 D861     		str	r0, [r3, #28]
 504              	.L27:
 505 01da 1033     		adds	r3, r3, #16
 506              		.loc 1 419 0 discriminator 4
 507 01dc 4345     		cmp	r3, r8
 508 01de DCD1     		bne	.L28
 509 01e0 4FEA8A03 		lsl	r3, r10, #2
ARM GAS  C:\Users\jo\AppData\Local\Temp\cc36ADTZ.s 			page 10


 510 01e4 0393     		str	r3, [sp, #12]
 511 01e6 5344     		add	r3, r3, r10
 512 01e8 1B01     		lsls	r3, r3, #4
 513 01ea DFF868B1 		ldr	fp, .L102+12
 514 01ee 0193     		str	r3, [sp, #4]
 515 01f0 5A1E     		subs	r2, r3, #1
 516 01f2 1333     		adds	r3, r3, #19
 517 01f4 3446     		mov	r4, r6
 518 01f6 5A44     		add	r2, r2, fp
 519 01f8 5B44     		add	r3, r3, fp
 520              		.loc 1 419 0
 521 01fa 7146     		mov	r1, lr
 522              	.LVL48:
 523              	.L30:
 524              		.loc 1 419 0 discriminator 13
 525 01fc 12F9010F 		ldrsb	r0, [r2, #1]!
 526 0200 461C     		adds	r6, r0, #1
 527 0202 1CBF     		itt	ne
 528 0204 0D68     		ldrne	r5, [r1]
 529 0206 44F82050 		strne	r5, [r4, r0, lsl #2]
 530 020a 9A42     		cmp	r2, r3
 531 020c 01F10401 		add	r1, r1, #4
 532 0210 F4D1     		bne	.L30
 533              		.loc 1 422 0 is_stmt 1
 534 0212 B9F1800F 		cmp	r9, #128
 535 0216 00F2B680 		bhi	.L31
 536 021a 019B     		ldr	r3, [sp, #4]
 537 021c 03F1270C 		add	ip, r3, #39
 538              	.L37:
 539              		.loc 1 427 0
 540 0220 289B     		ldr	r3, [sp, #160]
 541 0222 3093     		str	r3, [sp, #192]
 542 0224 029B     		ldr	r3, [sp, #8]
 543 0226 299A     		ldr	r2, [sp, #164]
 544 0228 2A99     		ldr	r1, [sp, #168]
 545 022a 2B98     		ldr	r0, [sp, #172]
 546 022c 3192     		str	r2, [sp, #196]
 547 022e DF1D     		adds	r7, r3, #7
 548 0230 464B     		ldr	r3, .L102+4
 549 0232 3291     		str	r1, [sp, #200]
 550 0234 1F44     		add	r7, r7, r3
 551 0236 3390     		str	r0, [sp, #204]
 552              	.LVL49:
 553 0238 7346     		mov	r3, lr
 554 023a 0F25     		movs	r5, #15
 555 023c 2646     		mov	r6, r4
 556              	.LVL50:
 557              	.L32:
 558              		.loc 1 427 0 is_stmt 0 discriminator 6
 559 023e 17F8010F 		ldrb	r0, [r7, #1]!	@ zero_extendqisi2
 560 0242 05F01F02 		and	r2, r5, #31
 561 0246 C2F12001 		rsb	r1, r2, #32
 562 024a 0F35     		adds	r5, r5, #15
 563 024c B8B1     		cbz	r0, .L38
 564              		.loc 1 427 0 discriminator 2
 565 024e 319C     		ldr	r4, [sp, #196]
 566 0250 3098     		ldr	r0, [sp, #192]
ARM GAS  C:\Users\jo\AppData\Local\Temp\cc36ADTZ.s 			page 11


 567 0252 CC40     		lsrs	r4, r4, r1
 568 0254 9040     		lsls	r0, r0, r2
 569 0256 6040     		eors	r0, r0, r4
 570 0258 1861     		str	r0, [r3, #16]
 571 025a 329C     		ldr	r4, [sp, #200]
 572 025c 3198     		ldr	r0, [sp, #196]
 573 025e CC40     		lsrs	r4, r4, r1
 574 0260 9040     		lsls	r0, r0, r2
 575 0262 6040     		eors	r0, r0, r4
 576 0264 5861     		str	r0, [r3, #20]
 577 0266 339C     		ldr	r4, [sp, #204]
 578 0268 3298     		ldr	r0, [sp, #200]
 579 026a CC40     		lsrs	r4, r4, r1
 580 026c 9040     		lsls	r0, r0, r2
 581 026e 6040     		eors	r0, r0, r4
 582 0270 9861     		str	r0, [r3, #24]
 583 0272 309C     		ldr	r4, [sp, #192]
 584 0274 3398     		ldr	r0, [sp, #204]
 585 0276 CC40     		lsrs	r4, r4, r1
 586 0278 9040     		lsls	r0, r0, r2
 587 027a 6040     		eors	r0, r0, r4
 588 027c D861     		str	r0, [r3, #28]
 589              	.L38:
 590 027e 1033     		adds	r3, r3, #16
 591              		.loc 1 427 0 discriminator 4
 592 0280 9845     		cmp	r8, r3
 593 0282 DCD1     		bne	.L32
 594 0284 019B     		ldr	r3, [sp, #4]
 595 0286 3B33     		adds	r3, r3, #59
 596 0288 3446     		mov	r4, r6
 597 028a DC44     		add	ip, ip, fp
 598 028c 5B44     		add	r3, r3, fp
 599              		.loc 1 427 0
 600 028e 7246     		mov	r2, lr
 601              	.LVL51:
 602              	.L40:
 603              		.loc 1 427 0 discriminator 13
 604 0290 1CF9011F 		ldrsb	r1, [ip, #1]!
 605 0294 4F1C     		adds	r7, r1, #1
 606 0296 1CBF     		itt	ne
 607 0298 1068     		ldrne	r0, [r2]
 608 029a 44F82100 		strne	r0, [r4, r1, lsl #2]
 609 029e 9C45     		cmp	ip, r3
 610 02a0 02F10402 		add	r2, r2, #4
 611 02a4 F4D1     		bne	.L40
 612              		.loc 1 430 0 is_stmt 1
 613 02a6 B9F1800F 		cmp	r9, #128
 614 02aa 45D9     		bls	.L47
 615 02ac 029A     		ldr	r2, [sp, #8]
 616              		.loc 1 431 0
 617 02ae 2F9D     		ldr	r5, [sp, #188]
 618 02b0 2D99     		ldr	r1, [sp, #180]
 619 02b2 2E98     		ldr	r0, [sp, #184]
 620 02b4 3395     		str	r5, [sp, #204]
 621              	.LVL52:
 622 02b6 02F10B0C 		add	ip, r2, #11
 623 02ba 2C9A     		ldr	r2, [sp, #176]
ARM GAS  C:\Users\jo\AppData\Local\Temp\cc36ADTZ.s 			page 12


 624 02bc 3092     		str	r2, [sp, #192]
 625 02be 234A     		ldr	r2, .L102+4
 626 02c0 3191     		str	r1, [sp, #196]
 627 02c2 9444     		add	ip, ip, r2
 628 02c4 3290     		str	r0, [sp, #200]
 629 02c6 7246     		mov	r2, lr
 630 02c8 0F26     		movs	r6, #15
 631 02ca 2746     		mov	r7, r4
 632 02cc 1D46     		mov	r5, r3
 633              	.LVL53:
 634              	.L44:
 635              		.loc 1 431 0 is_stmt 0 discriminator 6
 636 02ce 1CF8011F 		ldrb	r1, [ip, #1]!	@ zero_extendqisi2
 637 02d2 06F01F03 		and	r3, r6, #31
 638 02d6 C3F12000 		rsb	r0, r3, #32
 639 02da 0F36     		adds	r6, r6, #15
 640 02dc C1B1     		cbz	r1, .L43
 641              		.loc 1 431 0 discriminator 2
 642 02de 319C     		ldr	r4, [sp, #196]
 643 02e0 3099     		ldr	r1, [sp, #192]
 644 02e2 C440     		lsrs	r4, r4, r0
 645 02e4 9940     		lsls	r1, r1, r3
 646 02e6 6140     		eors	r1, r1, r4
 647 02e8 1161     		str	r1, [r2, #16]
 648 02ea 329C     		ldr	r4, [sp, #200]
 649 02ec 3199     		ldr	r1, [sp, #196]
 650 02ee C440     		lsrs	r4, r4, r0
 651 02f0 9940     		lsls	r1, r1, r3
 652 02f2 6140     		eors	r1, r1, r4
 653 02f4 5161     		str	r1, [r2, #20]
 654 02f6 339C     		ldr	r4, [sp, #204]
 655 02f8 3299     		ldr	r1, [sp, #200]
 656 02fa C440     		lsrs	r4, r4, r0
 657 02fc 9940     		lsls	r1, r1, r3
 658 02fe 6140     		eors	r1, r1, r4
 659 0300 9161     		str	r1, [r2, #24]
 660 0302 309C     		ldr	r4, [sp, #192]
 661 0304 3399     		ldr	r1, [sp, #204]
 662 0306 C440     		lsrs	r4, r4, r0
 663 0308 9940     		lsls	r1, r1, r3
 664 030a 84EA0103 		eor	r3, r4, r1
 665 030e D361     		str	r3, [r2, #28]
 666              	.L43:
 667 0310 1032     		adds	r2, r2, #16
 668              		.loc 1 431 0 discriminator 4
 669 0312 9045     		cmp	r8, r2
 670 0314 DBD1     		bne	.L44
 671 0316 019A     		ldr	r2, [sp, #4]
 672 0318 4F32     		adds	r2, r2, #79
 673 031a 3C46     		mov	r4, r7
 674 031c 2B46     		mov	r3, r5
 675 031e 9344     		add	fp, fp, r2
 676              	.LVL54:
 677              	.L46:
 678              		.loc 1 431 0 discriminator 13
 679 0320 13F9012F 		ldrsb	r2, [r3, #1]!
 680 0324 561C     		adds	r6, r2, #1
ARM GAS  C:\Users\jo\AppData\Local\Temp\cc36ADTZ.s 			page 13


 681 0326 1CBF     		itt	ne
 682 0328 DEF80010 		ldrne	r1, [lr]
 683 032c 44F82210 		strne	r1, [r4, r2, lsl #2]
 684 0330 5B45     		cmp	r3, fp
 685 0332 0EF1040E 		add	lr, lr, #4
 686 0336 F3D1     		bne	.L46
 687              	.L47:
 688              	.LVL55:
 689              		.loc 1 437 0 is_stmt 1
 690 0338 4FEA4A03 		lsl	r3, r10, #1
 691 033c 0399     		ldr	r1, [sp, #12]
 692 033e 044A     		ldr	r2, .L102+8
 693 0340 5344     		add	r3, r3, r10
 694 0342 1B01     		lsls	r3, r3, #4
 695 0344 08E0     		b	.L103
 696              	.L104:
 697 0346 00BF     		.align	2
 698              	.L102:
 699 0348 00000000 		.word	.LANCHOR4
 700 034c 00000000 		.word	.LANCHOR5
 701 0350 00000000 		.word	.LANCHOR7
 702 0354 00000000 		.word	.LANCHOR6
 703              	.L103:
 704 0358 5144     		add	r1, r1, r10
 705 035a 03F1D000 		add	r0, r3, #208
 706 035e 02EB8101 		add	r1, r2, r1, lsl #2
 707 0362 8033     		adds	r3, r3, #128
 708 0364 0139     		subs	r1, r1, #1
 709 0366 2044     		add	r0, r0, r4
 710 0368 2344     		add	r3, r3, r4
 711              	.LVL56:
 712              	.L42:
 713              		.loc 1 436 0
 714 036a 11F9012F 		ldrsb	r2, [r1, #1]!
 715 036e 551C     		adds	r5, r2, #1
 716              		.loc 1 437 0
 717 0370 1CBF     		itt	ne
 718 0372 54F82220 		ldrne	r2, [r4, r2, lsl #2]
 719 0376 1A60     		strne	r2, [r3]
 720 0378 0433     		adds	r3, r3, #4
 721              		.loc 1 435 0
 722 037a 8342     		cmp	r3, r0
 723 037c F5D1     		bne	.L42
 724              		.loc 1 441 0
 725 037e 0020     		movs	r0, #0
 726              		.loc 1 442 0
 727 0380 45B0     		add	sp, sp, #276
 728              		.cfi_remember_state
 729              		.cfi_def_cfa_offset 36
 730              		@ sp needed
 731 0382 BDE8F08F 		pop	{r4, r5, r6, r7, r8, r9, r10, fp, pc}
 732              	.LVL57:
 733              	.L31:
 734              		.cfi_restore_state
 735              		.loc 1 423 0
 736 0386 249A     		ldr	r2, [sp, #144]
 737 0388 3092     		str	r2, [sp, #192]
ARM GAS  C:\Users\jo\AppData\Local\Temp\cc36ADTZ.s 			page 14


 738 038a 029A     		ldr	r2, [sp, #8]
 739 038c 279D     		ldr	r5, [sp, #156]
 740 038e 2599     		ldr	r1, [sp, #148]
 741 0390 2698     		ldr	r0, [sp, #152]
 742 0392 3395     		str	r5, [sp, #204]
 743              	.LVL58:
 744 0394 02F1030C 		add	ip, r2, #3
 745 0398 284A     		ldr	r2, .L105
 746 039a 3191     		str	r1, [sp, #196]
 747 039c 9444     		add	ip, ip, r2
 748 039e 3290     		str	r0, [sp, #200]
 749 03a0 7246     		mov	r2, lr
 750 03a2 0F27     		movs	r7, #15
 751 03a4 2646     		mov	r6, r4
 752 03a6 1D46     		mov	r5, r3
 753              	.LVL59:
 754              	.L34:
 755              		.loc 1 423 0 is_stmt 0 discriminator 6
 756 03a8 1CF8011F 		ldrb	r1, [ip, #1]!	@ zero_extendqisi2
 757 03ac 07F01F03 		and	r3, r7, #31
 758 03b0 C3F12000 		rsb	r0, r3, #32
 759 03b4 0F37     		adds	r7, r7, #15
 760 03b6 C1B1     		cbz	r1, .L33
 761              		.loc 1 423 0 discriminator 2
 762 03b8 319C     		ldr	r4, [sp, #196]
 763 03ba 3099     		ldr	r1, [sp, #192]
 764 03bc C440     		lsrs	r4, r4, r0
 765 03be 9940     		lsls	r1, r1, r3
 766 03c0 6140     		eors	r1, r1, r4
 767 03c2 1161     		str	r1, [r2, #16]
 768 03c4 329C     		ldr	r4, [sp, #200]
 769 03c6 3199     		ldr	r1, [sp, #196]
 770 03c8 C440     		lsrs	r4, r4, r0
 771 03ca 9940     		lsls	r1, r1, r3
 772 03cc 6140     		eors	r1, r1, r4
 773 03ce 5161     		str	r1, [r2, #20]
 774 03d0 339C     		ldr	r4, [sp, #204]
 775 03d2 3299     		ldr	r1, [sp, #200]
 776 03d4 C440     		lsrs	r4, r4, r0
 777 03d6 9940     		lsls	r1, r1, r3
 778 03d8 6140     		eors	r1, r1, r4
 779 03da 9161     		str	r1, [r2, #24]
 780 03dc 309C     		ldr	r4, [sp, #192]
 781 03de 3399     		ldr	r1, [sp, #204]
 782 03e0 C440     		lsrs	r4, r4, r0
 783 03e2 9940     		lsls	r1, r1, r3
 784 03e4 84EA0103 		eor	r3, r4, r1
 785 03e8 D361     		str	r3, [r2, #28]
 786              	.L33:
 787 03ea 1032     		adds	r2, r2, #16
 788              		.loc 1 423 0 discriminator 4
 789 03ec 9045     		cmp	r8, r2
 790 03ee DBD1     		bne	.L34
 791 03f0 019A     		ldr	r2, [sp, #4]
 792 03f2 02F1270C 		add	ip, r2, #39
 793 03f6 3446     		mov	r4, r6
 794 03f8 2B46     		mov	r3, r5
ARM GAS  C:\Users\jo\AppData\Local\Temp\cc36ADTZ.s 			page 15


 795 03fa 0BEB0C00 		add	r0, fp, ip
 796              		.loc 1 423 0
 797 03fe 7246     		mov	r2, lr
 798              	.LVL60:
 799              	.L36:
 800              		.loc 1 423 0 discriminator 13
 801 0400 13F9011F 		ldrsb	r1, [r3, #1]!
 802 0404 4D1C     		adds	r5, r1, #1
 803 0406 1CBF     		itt	ne
 804 0408 1568     		ldrne	r5, [r2]
 805 040a 44F82150 		strne	r5, [r4, r1, lsl #2]
 806 040e 8342     		cmp	r3, r0
 807 0410 02F10402 		add	r2, r2, #4
 808 0414 F4D1     		bne	.L36
 809 0416 03E7     		b	.L37
 810              	.LVL61:
 811              	.L14:
 812              		.loc 1 362 0 is_stmt 1
 813 0418 0423     		movs	r3, #4
 814 041a 3360     		str	r3, [r6]
 815              	.LVL62:
 816 041c 4FF0010A 		mov	r10, #1
 817              		.loc 1 366 0
 818 0420 4FEAD906 		lsr	r6, r9, #3
 819              	.LVL63:
 820 0424 13E6     		b	.L16
 821              	.LVL64:
 822              	.L18:
 823 0426 0DF14F03 		add	r3, sp, #79
 824              	.LVL65:
 825 042a 0DF15701 		add	r1, sp, #87
 826              	.L20:
 827              	.LVL66:
 828              		.loc 1 371 0 discriminator 3
 829 042e 13F8012F 		ldrb	r2, [r3, #1]!	@ zero_extendqisi2
 830              	.LVL67:
 831 0432 D243     		mvns	r2, r2
 832              		.loc 1 370 0 discriminator 3
 833 0434 8B42     		cmp	r3, r1
 834              		.loc 1 371 0 discriminator 3
 835 0436 1A72     		strb	r2, [r3, #8]
 836              	.LVL68:
 837              		.loc 1 370 0 discriminator 3
 838 0438 F9D1     		bne	.L20
 839 043a 17E6     		b	.L21
 840              	.L106:
 841              		.align	2
 842              	.L105:
 843 043c 00000000 		.word	.LANCHOR5
 844              		.cfi_endproc
 845              	.LFE4:
 846              		.size	camellia_setkey_enc, .-camellia_setkey_enc
 847              		.section	.text.camellia_setkey_dec,"ax",%progbits
 848              		.align	2
 849              		.p2align 4,,15
 850              		.global	camellia_setkey_dec
 851              		.thumb
ARM GAS  C:\Users\jo\AppData\Local\Temp\cc36ADTZ.s 			page 16


 852              		.thumb_func
 853              		.type	camellia_setkey_dec, %function
 854              	camellia_setkey_dec:
 855              	.LFB5:
 856              		.loc 1 449 0
 857              		.cfi_startproc
 858              		@ args = 0, pretend = 0, frame = 280
 859              		@ frame_needed = 0, uses_anonymous_args = 0
 860              	.LVL69:
 861 0000 F0B5     		push	{r4, r5, r6, r7, lr}
 862              		.cfi_def_cfa_offset 20
 863              		.cfi_offset 4, -20
 864              		.cfi_offset 5, -16
 865              		.cfi_offset 6, -12
 866              		.cfi_offset 7, -8
 867              		.cfi_offset 14, -4
 868 0002 C7B0     		sub	sp, sp, #284
 869              		.cfi_def_cfa_offset 304
 870              	.LVL70:
 871              		.loc 1 449 0
 872 0004 0E46     		mov	r6, r1
 873 0006 1546     		mov	r5, r2
 874              	.LBB12:
 875              	.LBB13:
 876              		.loc 1 328 0
 877 0008 0021     		movs	r1, #0
 878              	.LVL71:
 879 000a 4FF48A72 		mov	r2, #276
 880              	.LVL72:
 881              	.LBE13:
 882              	.LBE12:
 883              		.loc 1 449 0
 884 000e 0446     		mov	r4, r0
 885              	.LBB15:
 886              	.LBB14:
 887              		.loc 1 328 0
 888 0010 01A8     		add	r0, sp, #4
 889              	.LVL73:
 890 0012 FFF7FEFF 		bl	memset
 891              	.LVL74:
 892              	.LBE14:
 893              	.LBE15:
 894              		.loc 1 459 0
 895 0016 01A8     		add	r0, sp, #4
 896              	.LVL75:
 897 0018 3146     		mov	r1, r6
 898 001a 2A46     		mov	r2, r5
 899 001c FFF7FEFF 		bl	camellia_setkey_enc
 900              	.LVL76:
 901 0020 0028     		cmp	r0, #0
 902 0022 3DD1     		bne	.L108
 903              		.loc 1 462 0
 904 0024 019E     		ldr	r6, [sp, #4]
 905              	.LVL77:
 906 0026 2660     		str	r6, [r4]
 907              		.loc 1 463 0
 908 0028 A6F10406 		sub	r6, #4
ARM GAS  C:\Users\jo\AppData\Local\Temp\cc36ADTZ.s 			page 17


 909 002c B6FA86F6 		clz	r6, r6
 910 0030 7609     		lsrs	r6, r6, #5
 911              	.LVL78:
 912              		.loc 1 466 0
 913 0032 3201     		lsls	r2, r6, #4
 914 0034 01AB     		add	r3, sp, #4
 915              	.LVL79:
 916 0036 3032     		adds	r2, r2, #48
 917 0038 03EB8202 		add	r2, r3, r2, lsl #2
 918              	.LVL80:
 919              		.loc 1 473 0
 920 003c F600     		lsls	r6, r6, #3
 921              	.LVL81:
 922              		.loc 1 469 0
 923 003e 9768     		ldr	r7, [r2, #8]
 924              		.loc 1 471 0
 925 0040 1169     		ldr	r1, [r2, #16]
 926              		.loc 1 468 0
 927 0042 5368     		ldr	r3, [r2, #4]
 928              	.LVL82:
 929              		.loc 1 470 0
 930 0044 D568     		ldr	r5, [r2, #12]
 931              	.LVL83:
 932              		.loc 1 469 0
 933 0046 A760     		str	r7, [r4, #8]
 934              		.loc 1 473 0
 935 0048 06F11607 		add	r7, r6, #22
 936              		.loc 1 471 0
 937 004c 2161     		str	r1, [r4, #16]
 938              		.loc 1 468 0
 939 004e 6360     		str	r3, [r4, #4]
 940              	.LVL84:
 941              		.loc 1 473 0
 942 0050 A2F1040E 		sub	lr, r2, #4
 943              		.loc 1 470 0
 944 0054 E560     		str	r5, [r4, #12]
 945 0056 0C3A     		subs	r2, r2, #12
 946              	.LVL85:
 947              		.loc 1 473 0
 948 0058 3946     		mov	r1, r7
 949              		.loc 1 471 0
 950 005a 04F1140C 		add	ip, r4, #20
 951              	.LVL86:
 952 005e 04F11C03 		add	r3, r4, #28
 953              	.LVL87:
 954              	.L109:
 955              		.loc 1 475 0 discriminator 3
 956 0062 9568     		ldr	r5, [r2, #8]
 957              		.loc 1 476 0 discriminator 3
 958 0064 D468     		ldr	r4, [r2, #12]
 959              		.loc 1 475 0 discriminator 3
 960 0066 43F8085C 		str	r5, [r3, #-8]
 961              	.LVL88:
 962              		.loc 1 473 0 discriminator 3
 963 006a 0139     		subs	r1, r1, #1
 964              	.LVL89:
 965              		.loc 1 476 0 discriminator 3
ARM GAS  C:\Users\jo\AppData\Local\Temp\cc36ADTZ.s 			page 18


 966 006c 43F8044C 		str	r4, [r3, #-4]
 967 0070 A2F10802 		sub	r2, r2, #8
 968              	.LVL90:
 969 0074 03F10803 		add	r3, r3, #8
 970              	.LVL91:
 971              		.loc 1 473 0 discriminator 3
 972 0078 F3D1     		bne	.L109
 973 007a 7342     		negs	r3, r6
 974              	.LVL92:
 975 007c DB00     		lsls	r3, r3, #3
 976 007e B03B     		subs	r3, r3, #176
 977 0080 0EEB0301 		add	r1, lr, r3
 978              	.LVL93:
 979 0084 0CEBC702 		add	r2, ip, r7, lsl #3
 980              	.LVL94:
 981              		.loc 1 483 0
 982 0088 5EF80360 		ldr	r6, [lr, r3]
 983              		.loc 1 481 0
 984 008c 51F8085C 		ldr	r5, [r1, #-8]
 985              		.loc 1 482 0
 986 0090 51F8044C 		ldr	r4, [r1, #-4]
 987              		.loc 1 484 0
 988 0094 4B68     		ldr	r3, [r1, #4]
 989              		.loc 1 481 0
 990 0096 4CF83750 		str	r5, [ip, r7, lsl #3]
 991              	.LVL95:
 992              		.loc 1 483 0
 993 009a 9660     		str	r6, [r2, #8]
 994              		.loc 1 482 0
 995 009c 5460     		str	r4, [r2, #4]
 996              	.LVL96:
 997              		.loc 1 484 0
 998 009e D360     		str	r3, [r2, #12]
 999              	.LVL97:
 1000              	.L108:
 1001              		.loc 1 449 0
 1002 00a0 01AB     		add	r3, sp, #4
 1003              	.LVL98:
 1004              	.LBB16:
 1005              	.LBB17:
 1006              	.LBB18:
 1007              		.loc 1 53 0
 1008 00a2 0022     		movs	r2, #0
 1009              	.LVL99:
 1010              	.L110:
 1011 00a4 1A70     		strb	r2, [r3]
 1012              	.LVL100:
 1013 00a6 46A9     		add	r1, sp, #280
 1014 00a8 0133     		adds	r3, r3, #1
 1015              	.LVL101:
 1016 00aa 8B42     		cmp	r3, r1
 1017 00ac FAD1     		bne	.L110
 1018              	.LBE18:
 1019              	.LBE17:
 1020              	.LBE16:
 1021              		.loc 1 490 0
 1022 00ae 47B0     		add	sp, sp, #284
ARM GAS  C:\Users\jo\AppData\Local\Temp\cc36ADTZ.s 			page 19


 1023              		.cfi_def_cfa_offset 20
 1024              		@ sp needed
 1025 00b0 F0BD     		pop	{r4, r5, r6, r7, pc}
 1026              		.cfi_endproc
 1027              	.LFE5:
 1028              		.size	camellia_setkey_dec, .-camellia_setkey_dec
 1029 00b2 00BFAFF3 		.section	.text.camellia_crypt_ecb,"ax",%progbits
 1029      0080AFF3 
 1029      0080AFF3 
 1029      0080
 1030              		.align	2
 1031              		.p2align 4,,15
 1032              		.global	camellia_crypt_ecb
 1033              		.thumb
 1034              		.thumb_func
 1035              		.type	camellia_crypt_ecb, %function
 1036              	camellia_crypt_ecb:
 1037              	.LFB6:
 1038              		.loc 1 499 0
 1039              		.cfi_startproc
 1040              		@ args = 0, pretend = 0, frame = 24
 1041              		@ frame_needed = 0, uses_anonymous_args = 0
 1042              	.LVL102:
 1043 0000 2DE9F04F 		push	{r4, r5, r6, r7, r8, r9, r10, fp, lr}
 1044              		.cfi_def_cfa_offset 36
 1045              		.cfi_offset 4, -36
 1046              		.cfi_offset 5, -32
 1047              		.cfi_offset 6, -28
 1048              		.cfi_offset 7, -24
 1049              		.cfi_offset 8, -20
 1050              		.cfi_offset 9, -16
 1051              		.cfi_offset 10, -12
 1052              		.cfi_offset 11, -8
 1053              		.cfi_offset 14, -4
 1054 0004 87B0     		sub	sp, sp, #28
 1055              		.cfi_def_cfa_offset 64
 1056              		.loc 1 508 0
 1057 0006 5178     		ldrb	r1, [r2, #1]	@ zero_extendqisi2
 1058              	.LVL103:
 1059 0008 0091     		str	r1, [sp]
 1060 000a D178     		ldrb	r1, [r2, #3]	@ zero_extendqisi2
 1061              		.loc 1 509 0
 1062 000c 5479     		ldrb	r4, [r2, #5]	@ zero_extendqisi2
 1063              		.loc 1 510 0
 1064 000e 92F80980 		ldrb	r8, [r2, #9]	@ zero_extendqisi2
 1065              		.loc 1 511 0
 1066 0012 92F80DE0 		ldrb	lr, [r2, #13]	@ zero_extendqisi2
 1067              		.loc 1 508 0
 1068 0016 0191     		str	r1, [sp, #4]
 1069 0018 0099     		ldr	r1, [sp]
 1070              		.loc 1 509 0
 1071 001a 92F804B0 		ldrb	fp, [r2, #4]	@ zero_extendqisi2
 1072              		.loc 1 510 0
 1073 001e 92F808A0 		ldrb	r10, [r2, #8]	@ zero_extendqisi2
 1074              		.loc 1 511 0
 1075 0022 92F80C90 		ldrb	r9, [r2, #12]	@ zero_extendqisi2
 1076              		.loc 1 508 0
ARM GAS  C:\Users\jo\AppData\Local\Temp\cc36ADTZ.s 			page 20


 1077 0026 92F800C0 		ldrb	ip, [r2]	@ zero_extendqisi2
 1078              		.loc 1 509 0
 1079 002a D579     		ldrb	r5, [r2, #7]	@ zero_extendqisi2
 1080              		.loc 1 510 0
 1081 002c D77A     		ldrb	r7, [r2, #11]	@ zero_extendqisi2
 1082              		.loc 1 511 0
 1083 002e D67B     		ldrb	r6, [r2, #15]	@ zero_extendqisi2
 1084              		.loc 1 510 0
 1085 0030 4FEA0848 		lsl	r8, r8, #16
 1086              		.loc 1 509 0
 1087 0034 2404     		lsls	r4, r4, #16
 1088              		.loc 1 511 0
 1089 0036 4FEA0E4E 		lsl	lr, lr, #16
 1090              		.loc 1 508 0
 1091 003a 0904     		lsls	r1, r1, #16
 1092              		.loc 1 509 0
 1093 003c 44EA0B64 		orr	r4, r4, fp, lsl #24
 1094              		.loc 1 511 0
 1095 0040 4EEA096E 		orr	lr, lr, r9, lsl #24
 1096              		.loc 1 510 0
 1097 0044 48EA0A6B 		orr	fp, r8, r10, lsl #24
 1098              		.loc 1 509 0
 1099 0048 92F80690 		ldrb	r9, [r2, #6]	@ zero_extendqisi2
 1100              		.loc 1 510 0
 1101 004c 92F80A80 		ldrb	r8, [r2, #10]	@ zero_extendqisi2
 1102              		.loc 1 508 0
 1103 0050 92F802A0 		ldrb	r10, [r2, #2]	@ zero_extendqisi2
 1104 0054 41EA0C61 		orr	r1, r1, ip, lsl #24
 1105              		.loc 1 511 0
 1106 0058 92F80EC0 		ldrb	ip, [r2, #14]	@ zero_extendqisi2
 1107 005c 019A     		ldr	r2, [sp, #4]
 1108              	.LVL104:
 1109 005e 1143     		orrs	r1, r1, r2
 1110              		.loc 1 516 0
 1111 0060 0269     		ldr	r2, [r0, #16]
 1112 0062 0092     		str	r2, [sp]
 1113 0064 4BEA0707 		orr	r7, fp, r7
 1114              		.loc 1 515 0
 1115 0068 C268     		ldr	r2, [r0, #12]
 1116              		.loc 1 510 0
 1117 006a 47EA0827 		orr	r7, r7, r8, lsl #8
 1118 006e 2C43     		orrs	r4, r4, r5
 1119              		.loc 1 508 0
 1120 0070 41EA0A2A 		orr	r10, r1, r10, lsl #8
 1121              		.loc 1 515 0
 1122 0074 5740     		eors	r7, r7, r2
 1123 0076 4EEA0606 		orr	r6, lr, r6
 1124              		.loc 1 513 0
 1125 007a 4568     		ldr	r5, [r0, #4]
 1126              		.loc 1 514 0
 1127 007c 8168     		ldr	r1, [r0, #8]
 1128              		.loc 1 516 0
 1129 007e 009A     		ldr	r2, [sp]
 1130              		.loc 1 515 0
 1131 0080 0497     		str	r7, [sp, #16]
 1132              		.loc 1 509 0
 1133 0082 44EA0929 		orr	r9, r4, r9, lsl #8
ARM GAS  C:\Users\jo\AppData\Local\Temp\cc36ADTZ.s 			page 21


 1134              		.loc 1 511 0
 1135 0086 46EA0C26 		orr	r6, r6, ip, lsl #8
 1136              		.loc 1 505 0
 1137 008a 0468     		ldr	r4, [r0]
 1138              	.LVL105:
 1139              		.loc 1 514 0
 1140 008c 89EA0101 		eor	r1, r9, r1
 1141              		.loc 1 516 0
 1142 0090 7240     		eors	r2, r2, r6
 1143              		.loc 1 513 0
 1144 0092 8AEA0505 		eor	r5, r10, r5
 1145              		.loc 1 499 0
 1146 0096 9846     		mov	r8, r3
 1147              		.loc 1 514 0
 1148 0098 0391     		str	r1, [sp, #12]
 1149              		.loc 1 516 0
 1150 009a 0592     		str	r2, [sp, #20]
 1151              		.loc 1 513 0
 1152 009c 0295     		str	r5, [sp, #8]
 1153              	.LVL106:
 1154              		.loc 1 516 0
 1155 009e 00F11409 		add	r9, r0, #20
 1156              	.LVL107:
 1157              		.loc 1 518 0
 1158 00a2 002C     		cmp	r4, #0
 1159 00a4 47D0     		beq	.L115
 1160 00a6 4E46     		mov	r6, r9
 1161 00a8 2546     		mov	r5, r4
 1162 00aa 16E0     		b	.L117
 1163              	.LVL108:
 1164              	.L123:
 1165              		.loc 1 534 0
 1166 00ac 316B     		ldr	r1, [r6, #48]
 1167 00ae 029B     		ldr	r3, [sp, #8]
 1168 00b0 039A     		ldr	r2, [sp, #12]
 1169              		.loc 1 536 0
 1170 00b2 0598     		ldr	r0, [sp, #20]
 1171              		.loc 1 534 0
 1172 00b4 1940     		ands	r1, r1, r3
 1173 00b6 82EAF172 		eor	r2, r2, r1, ror #31
 1174 00ba 0392     		str	r2, [sp, #12]
 1175 00bc 776B     		ldr	r7, [r6, #52]
 1176 00be 1743     		orrs	r7, r7, r2
 1177 00c0 5F40     		eors	r7, r7, r3
 1178 00c2 0297     		str	r7, [sp, #8]
 1179              	.LVL109:
 1180              		.loc 1 536 0
 1181 00c4 F26B     		ldr	r2, [r6, #60]
 1182 00c6 049B     		ldr	r3, [sp, #16]
 1183 00c8 0243     		orrs	r2, r2, r0
 1184 00ca 5340     		eors	r3, r3, r2
 1185 00cc 0493     		str	r3, [sp, #16]
 1186 00ce B26B     		ldr	r2, [r6, #56]
 1187 00d0 1340     		ands	r3, r3, r2
 1188 00d2 80EAF370 		eor	r0, r0, r3, ror #31
 1189 00d6 0590     		str	r0, [sp, #20]
 1190 00d8 4036     		adds	r6, r6, #64
ARM GAS  C:\Users\jo\AppData\Local\Temp\cc36ADTZ.s 			page 22


 1191              	.LVL110:
 1192              	.L117:
 1193              		.loc 1 520 0
 1194 00da 02A8     		add	r0, sp, #8
 1195 00dc 3146     		mov	r1, r6
 1196 00de 04AA     		add	r2, sp, #16
 1197 00e0 FFF7FEFF 		bl	camellia_feistel
 1198              	.LVL111:
 1199              		.loc 1 522 0
 1200 00e4 04A8     		add	r0, sp, #16
 1201 00e6 06F10801 		add	r1, r6, #8
 1202 00ea 02AA     		add	r2, sp, #8
 1203 00ec FFF7FEFF 		bl	camellia_feistel
 1204              	.LVL112:
 1205              		.loc 1 524 0
 1206 00f0 02A8     		add	r0, sp, #8
 1207 00f2 06F11001 		add	r1, r6, #16
 1208 00f6 04AA     		add	r2, sp, #16
 1209 00f8 FFF7FEFF 		bl	camellia_feistel
 1210              	.LVL113:
 1211              		.loc 1 526 0
 1212 00fc 04A8     		add	r0, sp, #16
 1213 00fe 06F11801 		add	r1, r6, #24
 1214 0102 02AA     		add	r2, sp, #8
 1215 0104 FFF7FEFF 		bl	camellia_feistel
 1216              	.LVL114:
 1217              		.loc 1 528 0
 1218 0108 02A8     		add	r0, sp, #8
 1219 010a 06F12001 		add	r1, r6, #32
 1220 010e 04AA     		add	r2, sp, #16
 1221 0110 FFF7FEFF 		bl	camellia_feistel
 1222              	.LVL115:
 1223              		.loc 1 519 0
 1224 0114 013D     		subs	r5, r5, #1
 1225              	.LVL116:
 1226              		.loc 1 530 0
 1227 0116 04A8     		add	r0, sp, #16
 1228 0118 06F12801 		add	r1, r6, #40
 1229              	.LVL117:
 1230 011c 02AA     		add	r2, sp, #8
 1231 011e FFF7FEFF 		bl	camellia_feistel
 1232              	.LVL118:
 1233              		.loc 1 533 0
 1234 0122 002D     		cmp	r5, #0
 1235 0124 C2D1     		bne	.L123
 1236 0126 09EB8410 		add	r0, r9, r4, lsl #6
 1237 012a 049F     		ldr	r7, [sp, #16]
 1238 012c 059A     		ldr	r2, [sp, #20]
 1239 012e 029D     		ldr	r5, [sp, #8]
 1240              	.LVL119:
 1241 0130 0399     		ldr	r1, [sp, #12]
 1242              		.loc 1 531 0
 1243 0132 A0F11009 		sub	r9, r0, #16
 1244              	.LVL120:
 1245              	.L115:
 1246              		.loc 1 541 0
 1247 0136 D9F80030 		ldr	r3, [r9]
ARM GAS  C:\Users\jo\AppData\Local\Temp\cc36ADTZ.s 			page 23


 1248 013a 5F40     		eors	r7, r7, r3
 1249 013c 0497     		str	r7, [sp, #16]
 1250              	.LVL121:
 1251              		.loc 1 542 0
 1252 013e D9F80460 		ldr	r6, [r9, #4]
 1253 0142 7240     		eors	r2, r2, r6
 1254 0144 0592     		str	r2, [sp, #20]
 1255              	.LVL122:
 1256              		.loc 1 543 0
 1257 0146 D9F80830 		ldr	r3, [r9, #8]
 1258              		.loc 1 544 0
 1259 014a D9F80C40 		ldr	r4, [r9, #12]
 1260              		.loc 1 547 0
 1261 014e 88F80720 		strb	r2, [r8, #7]
 1262              		.loc 1 543 0
 1263 0152 5D40     		eors	r5, r5, r3
 1264              	.LVL123:
 1265              		.loc 1 544 0
 1266 0154 6140     		eors	r1, r1, r4
 1267              		.loc 1 547 0
 1268 0156 100C     		lsrs	r0, r2, #16
 1269              		.loc 1 548 0
 1270 0158 4FEA156C 		lsr	ip, r5, #24
 1271 015c 2E0C     		lsrs	r6, r5, #16
 1272 015e 4FEA152B 		lsr	fp, r5, #8
 1273              		.loc 1 549 0
 1274 0162 4FEA116A 		lsr	r10, r1, #24
 1275 0166 4FEA1149 		lsr	r9, r1, #16
 1276              	.LVL124:
 1277 016a 4FEA112E 		lsr	lr, r1, #8
 1278              		.loc 1 547 0
 1279 016e 140E     		lsrs	r4, r2, #24
 1280              		.loc 1 546 0
 1281 0170 3B0E     		lsrs	r3, r7, #24
 1282              		.loc 1 547 0
 1283 0172 120A     		lsrs	r2, r2, #8
 1284              		.loc 1 548 0
 1285 0174 88F80B50 		strb	r5, [r8, #11]
 1286              		.loc 1 549 0
 1287 0178 88F80F10 		strb	r1, [r8, #15]
 1288              		.loc 1 546 0
 1289 017c 3D0C     		lsrs	r5, r7, #16
 1290 017e 390A     		lsrs	r1, r7, #8
 1291              		.loc 1 547 0
 1292 0180 88F80500 		strb	r0, [r8, #5]
 1293              		.loc 1 552 0
 1294 0184 0020     		movs	r0, #0
 1295              		.loc 1 546 0
 1296 0186 88F80370 		strb	r7, [r8, #3]
 1297              		.loc 1 548 0
 1298 018a 88F808C0 		strb	ip, [r8, #8]
 1299 018e 88F80960 		strb	r6, [r8, #9]
 1300 0192 88F80AB0 		strb	fp, [r8, #10]
 1301              		.loc 1 549 0
 1302 0196 88F80CA0 		strb	r10, [r8, #12]
 1303 019a 88F80D90 		strb	r9, [r8, #13]
 1304 019e 88F80EE0 		strb	lr, [r8, #14]
ARM GAS  C:\Users\jo\AppData\Local\Temp\cc36ADTZ.s 			page 24


 1305              		.loc 1 547 0
 1306 01a2 88F80440 		strb	r4, [r8, #4]
 1307 01a6 88F80620 		strb	r2, [r8, #6]
 1308              		.loc 1 546 0
 1309 01aa 88F80030 		strb	r3, [r8]
 1310 01ae 88F80150 		strb	r5, [r8, #1]
 1311 01b2 88F80210 		strb	r1, [r8, #2]
 1312              		.loc 1 552 0
 1313 01b6 07B0     		add	sp, sp, #28
 1314              		.cfi_def_cfa_offset 36
 1315              		@ sp needed
 1316 01b8 BDE8F08F 		pop	{r4, r5, r6, r7, r8, r9, r10, fp, pc}
 1317              		.cfi_endproc
 1318              	.LFE6:
 1319              		.size	camellia_crypt_ecb, .-camellia_crypt_ecb
 1320 01bc AFF30080 		.section	.text.camellia_crypt_cbc,"ax",%progbits
 1321              		.align	2
 1322              		.p2align 4,,15
 1323              		.global	camellia_crypt_cbc
 1324              		.thumb
 1325              		.thumb_func
 1326              		.type	camellia_crypt_cbc, %function
 1327              	camellia_crypt_cbc:
 1328              	.LFB7:
 1329              		.loc 1 564 0
 1330              		.cfi_startproc
 1331              		@ args = 8, pretend = 0, frame = 16
 1332              		@ frame_needed = 0, uses_anonymous_args = 0
 1333              	.LVL125:
 1334 0000 2DE9F047 		push	{r4, r5, r6, r7, r8, r9, r10, lr}
 1335              		.cfi_def_cfa_offset 32
 1336              		.cfi_offset 4, -32
 1337              		.cfi_offset 5, -28
 1338              		.cfi_offset 6, -24
 1339              		.cfi_offset 7, -20
 1340              		.cfi_offset 8, -16
 1341              		.cfi_offset 9, -12
 1342              		.cfi_offset 10, -8
 1343              		.cfi_offset 14, -4
 1344 0004 84B0     		sub	sp, sp, #16
 1345              		.cfi_def_cfa_offset 48
 1346              		.loc 1 568 0
 1347 0006 12F00F0F 		tst	r2, #15
 1348              		.loc 1 564 0
 1349 000a 9046     		mov	r8, r2
 1350 000c DDF830A0 		ldr	r10, [sp, #48]
 1351 0010 0D9C     		ldr	r4, [sp, #52]
 1352              		.loc 1 568 0
 1353 0012 5CD1     		bne	.L135
 1354 0014 0646     		mov	r6, r0
 1355 0016 8946     		mov	r9, r1
 1356 0018 1D46     		mov	r5, r3
 1357              		.loc 1 571 0
 1358 001a 41B3     		cbz	r1, .L142
 1359              	.LVL126:
 1360              		.loc 1 590 0
 1361 001c 1AB3     		cbz	r2, .L134
ARM GAS  C:\Users\jo\AppData\Local\Temp\cc36ADTZ.s 			page 25


 1362 001e 0AF1FF3A 		add	r10, r10, #-1
 1363              	.LVL127:
 1364 0022 5F1E     		subs	r7, r3, #1
 1365              	.LVL128:
 1366              	.L133:
 1367 0024 3946     		mov	r1, r7
 1368 0026 621E     		subs	r2, r4, #1
 1369 0028 0AF1100E 		add	lr, r10, #16
 1370              	.LVL129:
 1371              	.L132:
 1372              		.loc 1 593 0 discriminator 3
 1373 002c 1AF8013F 		ldrb	r3, [r10, #1]!	@ zero_extendqisi2
 1374              	.LVL130:
 1375 0030 11F8010F 		ldrb	r0, [r1, #1]!	@ zero_extendqisi2
 1376              		.loc 1 592 0 discriminator 3
 1377 0034 F245     		cmp	r10, lr
 1378              		.loc 1 593 0 discriminator 3
 1379 0036 83EA0003 		eor	r3, r3, r0
 1380 003a 02F8013F 		strb	r3, [r2, #1]!
 1381              	.LVL131:
 1382              		.loc 1 592 0 discriminator 3
 1383 003e F5D1     		bne	.L132
 1384              		.loc 1 595 0
 1385 0040 2246     		mov	r2, r4
 1386 0042 2346     		mov	r3, r4
 1387 0044 4946     		mov	r1, r9
 1388 0046 3046     		mov	r0, r6
 1389 0048 FFF7FEFF 		bl	camellia_crypt_ecb
 1390              	.LVL132:
 1391              		.loc 1 596 0
 1392 004c 2168     		ldr	r1, [r4]	@ unaligned
 1393 004e 6268     		ldr	r2, [r4, #4]	@ unaligned
 1394 0050 A368     		ldr	r3, [r4, #8]	@ unaligned
 1395 0052 E068     		ldr	r0, [r4, #12]	@ unaligned
 1396 0054 E860     		str	r0, [r5, #12]	@ unaligned
 1397              	.LVL133:
 1398              		.loc 1 590 0
 1399 0056 B8F11008 		subs	r8, r8, #16
 1400              	.LVL134:
 1401              		.loc 1 596 0
 1402 005a 2960     		str	r1, [r5]	@ unaligned
 1403 005c 6A60     		str	r2, [r5, #4]	@ unaligned
 1404 005e AB60     		str	r3, [r5, #8]	@ unaligned
 1405              		.loc 1 599 0
 1406 0060 04F11004 		add	r4, r4, #16
 1407              	.LVL135:
 1408              		.loc 1 590 0
 1409 0064 DED1     		bne	.L133
 1410              	.LVL136:
 1411              	.L134:
 1412              		.loc 1 604 0
 1413 0066 0020     		movs	r0, #0
 1414              	.LVL137:
 1415              	.L140:
 1416              		.loc 1 605 0
 1417 0068 04B0     		add	sp, sp, #16
 1418              		.cfi_remember_state
ARM GAS  C:\Users\jo\AppData\Local\Temp\cc36ADTZ.s 			page 26


 1419              		.cfi_def_cfa_offset 32
 1420              		@ sp needed
 1421 006a BDE8F087 		pop	{r4, r5, r6, r7, r8, r9, r10, pc}
 1422              	.LVL138:
 1423              	.L142:
 1424              		.cfi_restore_state
 1425 006e 5F1E     		subs	r7, r3, #1
 1426              	.LBB21:
 1427              	.LBB22:
 1428              		.loc 1 573 0
 1429 0070 002A     		cmp	r2, #0
 1430 0072 F8D0     		beq	.L134
 1431              	.LVL139:
 1432              	.L130:
 1433              		.loc 1 575 0
 1434 0074 DAF80000 		ldr	r0, [r10]	@ unaligned
 1435 0078 DAF80410 		ldr	r1, [r10, #4]	@ unaligned
 1436 007c DAF80820 		ldr	r2, [r10, #8]	@ unaligned
 1437 0080 DAF80C30 		ldr	r3, [r10, #12]	@ unaligned
 1438 0084 EE46     		mov	lr, sp
 1439 0086 AEE80F00 		stmia	lr!, {r0, r1, r2, r3}
 1440              		.loc 1 576 0
 1441 008a 0021     		movs	r1, #0
 1442 008c 2346     		mov	r3, r4
 1443 008e 3046     		mov	r0, r6
 1444 0090 5246     		mov	r2, r10
 1445 0092 FFF7FEFF 		bl	camellia_crypt_ecb
 1446              	.LVL140:
 1447 0096 631E     		subs	r3, r4, #1
 1448 0098 3946     		mov	r1, r7
 1449 009a 04F10F0E 		add	lr, r4, #15
 1450              	.LVL141:
 1451              	.L129:
 1452              		.loc 1 579 0
 1453 009e 13F8012F 		ldrb	r2, [r3, #1]!	@ zero_extendqisi2
 1454 00a2 11F8010F 		ldrb	r0, [r1, #1]!	@ zero_extendqisi2
 1455              		.loc 1 578 0
 1456 00a6 7345     		cmp	r3, lr
 1457              		.loc 1 579 0
 1458 00a8 82EA0002 		eor	r2, r2, r0
 1459 00ac 1A70     		strb	r2, [r3]
 1460              		.loc 1 578 0
 1461 00ae F6D1     		bne	.L129
 1462              		.loc 1 581 0
 1463 00b0 EE46     		mov	lr, sp
 1464 00b2 BEE80F00 		ldmia	lr!, {r0, r1, r2, r3}
 1465              		.loc 1 573 0
 1466 00b6 B8F11008 		subs	r8, r8, #16
 1467              	.LVL142:
 1468              		.loc 1 583 0
 1469 00ba 0AF1100A 		add	r10, r10, #16
 1470              		.loc 1 584 0
 1471 00be 04F11004 		add	r4, r4, #16
 1472              	.LVL143:
 1473              		.loc 1 581 0
 1474 00c2 2860     		str	r0, [r5]	@ unaligned
 1475 00c4 6960     		str	r1, [r5, #4]	@ unaligned
ARM GAS  C:\Users\jo\AppData\Local\Temp\cc36ADTZ.s 			page 27


 1476 00c6 AA60     		str	r2, [r5, #8]	@ unaligned
 1477 00c8 EB60     		str	r3, [r5, #12]	@ unaligned
 1478              	.LVL144:
 1479              		.loc 1 573 0
 1480 00ca D3D1     		bne	.L130
 1481 00cc CBE7     		b	.L134
 1482              	.LVL145:
 1483              	.L135:
 1484              	.LBE22:
 1485              	.LBE21:
 1486              		.loc 1 569 0
 1487 00ce 6FF02500 		mvn	r0, #37
 1488              	.LVL146:
 1489 00d2 C9E7     		b	.L140
 1490              		.cfi_endproc
 1491              	.LFE7:
 1492              		.size	camellia_crypt_cbc, .-camellia_crypt_cbc
 1493 00d4 AFF30080 		.section	.text.camellia_crypt_cfb128,"ax",%progbits
 1493      AFF30080 
 1493      AFF30080 
 1494              		.align	2
 1495              		.p2align 4,,15
 1496              		.global	camellia_crypt_cfb128
 1497              		.thumb
 1498              		.thumb_func
 1499              		.type	camellia_crypt_cfb128, %function
 1500              	camellia_crypt_cfb128:
 1501              	.LFB8:
 1502              		.loc 1 619 0
 1503              		.cfi_startproc
 1504              		@ args = 12, pretend = 0, frame = 0
 1505              		@ frame_needed = 0, uses_anonymous_args = 0
 1506              	.LVL147:
 1507 0000 2DE9F047 		push	{r4, r5, r6, r7, r8, r9, r10, lr}
 1508              		.cfi_def_cfa_offset 32
 1509              		.cfi_offset 4, -32
 1510              		.cfi_offset 5, -28
 1511              		.cfi_offset 6, -24
 1512              		.cfi_offset 7, -20
 1513              		.cfi_offset 8, -16
 1514              		.cfi_offset 9, -12
 1515              		.cfi_offset 10, -8
 1516              		.cfi_offset 14, -4
 1517              		.loc 1 619 0
 1518 0004 08AE     		add	r6, sp, #32
 1519              	.LVL148:
 1520 0006 9846     		mov	r8, r3
 1521 0008 0746     		mov	r7, r0
 1522              		.loc 1 621 0
 1523 000a 1C68     		ldr	r4, [r3]
 1524              		.loc 1 619 0
 1525 000c 96E84006 		ldmia	r6, {r6, r9, r10}
 1526              	.LVL149:
 1527              		.loc 1 623 0
 1528 0010 A9B1     		cbz	r1, .L144
 1529              	.LVL150:
 1530              		.loc 1 639 0
ARM GAS  C:\Users\jo\AppData\Local\Temp\cc36ADTZ.s 			page 28


 1531 0012 7AB1     		cbz	r2, .L146
 1532 0014 0AF1FF3A 		add	r10, r10, #-1
 1533 0018 1546     		mov	r5, r2
 1534              	.LVL151:
 1535              	.L150:
 1536              		.loc 1 641 0
 1537 001a 4CB3     		cbz	r4, .L158
 1538              	.L149:
 1539              		.loc 1 644 0
 1540 001c 315D     		ldrb	r1, [r6, r4]	@ zero_extendqisi2
 1541 001e 19F8013B 		ldrb	r3, [r9], #1	@ zero_extendqisi2
 1542              	.LVL152:
 1543              		.loc 1 646 0
 1544 0022 621C     		adds	r2, r4, #1
 1545              		.loc 1 644 0
 1546 0024 4B40     		eors	r3, r3, r1
 1547              		.loc 1 639 0
 1548 0026 013D     		subs	r5, r5, #1
 1549              	.LVL153:
 1550              		.loc 1 644 0
 1551 0028 0AF8013F 		strb	r3, [r10, #1]!
 1552 002c 3355     		strb	r3, [r6, r4]
 1553              		.loc 1 646 0
 1554 002e 02F00F04 		and	r4, r2, #15
 1555              	.LVL154:
 1556              		.loc 1 639 0
 1557 0032 F2D1     		bne	.L150
 1558              	.L146:
 1559              		.loc 1 650 0
 1560 0034 C8F80040 		str	r4, [r8]
 1561              		.loc 1 653 0
 1562 0038 0020     		movs	r0, #0
 1563 003a BDE8F087 		pop	{r4, r5, r6, r7, r8, r9, r10, pc}
 1564              	.LVL155:
 1565              	.L144:
 1566              		.loc 1 625 0
 1567 003e 002A     		cmp	r2, #0
 1568 0040 F8D0     		beq	.L146
 1569 0042 1546     		mov	r5, r2
 1570              		.loc 1 627 0
 1571 0044 6CB1     		cbz	r4, .L159
 1572              	.LVL156:
 1573              	.L147:
 1574              		.loc 1 631 0
 1575 0046 335D     		ldrb	r3, [r6, r4]	@ zero_extendqisi2
 1576              		.loc 1 630 0
 1577 0048 19F8012B 		ldrb	r2, [r9], #1	@ zero_extendqisi2
 1578              	.LVL157:
 1579              		.loc 1 634 0
 1580 004c 611C     		adds	r1, r4, #1
 1581              		.loc 1 631 0
 1582 004e 5340     		eors	r3, r3, r2
 1583              		.loc 1 625 0
 1584 0050 013D     		subs	r5, r5, #1
 1585              		.loc 1 631 0
 1586 0052 0AF8013B 		strb	r3, [r10], #1
 1587              	.LVL158:
ARM GAS  C:\Users\jo\AppData\Local\Temp\cc36ADTZ.s 			page 29


 1588              		.loc 1 632 0
 1589 0056 3255     		strb	r2, [r6, r4]
 1590              		.loc 1 634 0
 1591 0058 01F00F04 		and	r4, r1, #15
 1592              	.LVL159:
 1593              		.loc 1 625 0
 1594 005c EAD0     		beq	.L146
 1595              	.LVL160:
 1596              		.loc 1 627 0
 1597 005e 002C     		cmp	r4, #0
 1598 0060 F1D1     		bne	.L147
 1599              	.LVL161:
 1600              	.L159:
 1601              		.loc 1 628 0
 1602 0062 3846     		mov	r0, r7
 1603 0064 0121     		movs	r1, #1
 1604 0066 3246     		mov	r2, r6
 1605 0068 3346     		mov	r3, r6
 1606 006a FFF7FEFF 		bl	camellia_crypt_ecb
 1607              	.LVL162:
 1608 006e EAE7     		b	.L147
 1609              	.LVL163:
 1610              	.L158:
 1611              		.loc 1 642 0
 1612 0070 3846     		mov	r0, r7
 1613 0072 0121     		movs	r1, #1
 1614 0074 3246     		mov	r2, r6
 1615 0076 3346     		mov	r3, r6
 1616 0078 FFF7FEFF 		bl	camellia_crypt_ecb
 1617              	.LVL164:
 1618 007c CEE7     		b	.L149
 1619              		.cfi_endproc
 1620              	.LFE8:
 1621              		.size	camellia_crypt_cfb128, .-camellia_crypt_cfb128
 1622 007e 00BF     		.section	.text.camellia_crypt_ctr,"ax",%progbits
 1623              		.align	2
 1624              		.p2align 4,,15
 1625              		.global	camellia_crypt_ctr
 1626              		.thumb
 1627              		.thumb_func
 1628              		.type	camellia_crypt_ctr, %function
 1629              	camellia_crypt_ctr:
 1630              	.LFB9:
 1631              		.loc 1 667 0
 1632              		.cfi_startproc
 1633              		@ args = 12, pretend = 0, frame = 0
 1634              		@ frame_needed = 0, uses_anonymous_args = 0
 1635              	.LVL165:
 1636 0000 2DE9F84F 		push	{r3, r4, r5, r6, r7, r8, r9, r10, fp, lr}
 1637              		.cfi_def_cfa_offset 40
 1638              		.cfi_offset 3, -40
 1639              		.cfi_offset 4, -36
 1640              		.cfi_offset 5, -32
 1641              		.cfi_offset 6, -28
 1642              		.cfi_offset 7, -24
 1643              		.cfi_offset 8, -20
 1644              		.cfi_offset 9, -16
ARM GAS  C:\Users\jo\AppData\Local\Temp\cc36ADTZ.s 			page 30


 1645              		.cfi_offset 10, -12
 1646              		.cfi_offset 11, -8
 1647              		.cfi_offset 14, -4
 1648              		.loc 1 667 0
 1649 0004 DDF828B0 		ldr	fp, [sp, #40]
 1650              		.loc 1 669 0
 1651 0008 1468     		ldr	r4, [r2]
 1652              	.LVL166:
 1653              		.loc 1 667 0
 1654 000a 0B9F     		ldr	r7, [sp, #44]
 1655 000c DDF83080 		ldr	r8, [sp, #48]
 1656              	.LVL167:
 1657 0010 9246     		mov	r10, r2
 1658              		.loc 1 671 0
 1659 0012 79B1     		cbz	r1, .L161
 1660 0014 8146     		mov	r9, r0
 1661 0016 1E46     		mov	r6, r3
 1662 0018 0D46     		mov	r5, r1
 1663              	.LVL168:
 1664              	.L163:
 1665              		.loc 1 673 0
 1666 001a 84B1     		cbz	r4, .L162
 1667              	.LVL169:
 1668              	.L164:
 1669              		.loc 1 682 0
 1670 001c 1BF80420 		ldrb	r2, [fp, r4]	@ zero_extendqisi2
 1671 0020 17F8013B 		ldrb	r3, [r7], #1	@ zero_extendqisi2
 1672              	.LVL170:
 1673              		.loc 1 684 0
 1674 0024 0134     		adds	r4, r4, #1
 1675              	.LVL171:
 1676              		.loc 1 682 0
 1677 0026 5340     		eors	r3, r3, r2
 1678              		.loc 1 671 0
 1679 0028 013D     		subs	r5, r5, #1
 1680              	.LVL172:
 1681              		.loc 1 684 0
 1682 002a 04F00F04 		and	r4, r4, #15
 1683              	.LVL173:
 1684              		.loc 1 682 0
 1685 002e 08F8013B 		strb	r3, [r8], #1
 1686              	.LVL174:
 1687              		.loc 1 671 0
 1688 0032 F2D1     		bne	.L163
 1689              	.LVL175:
 1690              	.L161:
 1691              		.loc 1 687 0
 1692 0034 CAF80040 		str	r4, [r10]
 1693              		.loc 1 690 0
 1694 0038 0020     		movs	r0, #0
 1695 003a BDE8F88F 		pop	{r3, r4, r5, r6, r7, r8, r9, r10, fp, pc}
 1696              	.LVL176:
 1697              	.L162:
 1698              		.loc 1 674 0
 1699 003e 3246     		mov	r2, r6
 1700 0040 4846     		mov	r0, r9
 1701 0042 0121     		movs	r1, #1
ARM GAS  C:\Users\jo\AppData\Local\Temp\cc36ADTZ.s 			page 31


 1702 0044 5B46     		mov	r3, fp
 1703 0046 FFF7FEFF 		bl	camellia_crypt_ecb
 1704              	.LVL177:
 1705 004a 06F11002 		add	r2, r6, #16
 1706              	.LVL178:
 1707              	.L165:
 1708              		.loc 1 678 0
 1709 004e 12F8013D 		ldrb	r3, [r2, #-1]!	@ zero_extendqisi2
 1710              	.LVL179:
 1711 0052 0133     		adds	r3, r3, #1
 1712 0054 DBB2     		uxtb	r3, r3
 1713 0056 1370     		strb	r3, [r2]
 1714 0058 002B     		cmp	r3, #0
 1715 005a DFD1     		bne	.L164
 1716              		.loc 1 677 0 discriminator 2
 1717 005c B242     		cmp	r2, r6
 1718 005e F6D1     		bne	.L165
 1719 0060 DCE7     		b	.L164
 1720              		.cfi_endproc
 1721              	.LFE9:
 1722              		.size	camellia_crypt_ctr, .-camellia_crypt_ctr
 1723 0062 00BFAFF3 		.section	.text.camellia_self_test,"ax",%progbits
 1723      0080AFF3 
 1723      0080AFF3 
 1723      0080
 1724              		.align	2
 1725              		.p2align 4,,15
 1726              		.global	camellia_self_test
 1727              		.thumb
 1728              		.thumb_func
 1729              		.type	camellia_self_test, %function
 1730              	camellia_self_test:
 1731              	.LFB10:
 1732              		.loc 1 895 0
 1733              		.cfi_startproc
 1734              		@ args = 0, pretend = 0, frame = 480
 1735              		@ frame_needed = 0, uses_anonymous_args = 0
 1736              	.LVL180:
 1737 0000 2DE9F04F 		push	{r4, r5, r6, r7, r8, r9, r10, fp, lr}
 1738              		.cfi_def_cfa_offset 36
 1739              		.cfi_offset 4, -36
 1740              		.cfi_offset 5, -32
 1741              		.cfi_offset 6, -28
 1742              		.cfi_offset 7, -24
 1743              		.cfi_offset 8, -20
 1744              		.cfi_offset 9, -16
 1745              		.cfi_offset 10, -12
 1746              		.cfi_offset 11, -8
 1747              		.cfi_offset 14, -4
 1748 0004 FDB0     		sub	sp, sp, #500
 1749              		.cfi_def_cfa_offset 536
 1750              		.loc 1 912 0
 1751 0006 0025     		movs	r5, #0
 1752 0008 1F95     		str	r5, [sp, #124]
 1753 000a 2095     		str	r5, [sp, #128]
 1754 000c 2195     		str	r5, [sp, #132]
 1755 000e 2295     		str	r5, [sp, #136]
ARM GAS  C:\Users\jo\AppData\Local\Temp\cc36ADTZ.s 			page 32


 1756 0010 2395     		str	r5, [sp, #140]
 1757 0012 2495     		str	r5, [sp, #144]
 1758 0014 2595     		str	r5, [sp, #148]
 1759              		.loc 1 895 0
 1760 0016 0690     		str	r0, [sp, #24]
 1761              		.loc 1 912 0
 1762 0018 2695     		str	r5, [sp, #152]
 1763              	.LVL181:
 1764 001a 0DF12C0B 		add	fp, sp, #44
 1765 001e 0DF13C0A 		add	r10, sp, #60
 1766 0022 A846     		mov	r8, r5
 1767              	.LVL182:
 1768              	.L182:
 1769              		.loc 1 915 0
 1770 0024 4FEA6806 		asr	r6, r8, #1
 1771              	.LVL183:
 1772              		.loc 1 918 0
 1773 0028 069B     		ldr	r3, [sp, #24]
 1774              		.loc 1 919 0
 1775 002a B41C     		adds	r4, r6, #2
 1776              		.loc 1 916 0
 1777 002c 08F00105 		and	r5, r8, #1
 1778              	.LVL184:
 1779              		.loc 1 919 0
 1780 0030 4FEA8419 		lsl	r9, r4, #6
 1781              		.loc 1 918 0
 1782 0034 43B1     		cbz	r3, .L174
 1783              		.loc 1 919 0
 1784 0036 B94A     		ldr	r2, .L242
 1785 0038 B94B     		ldr	r3, .L242+4
 1786 003a BA48     		ldr	r0, .L242+8
 1787 003c 4946     		mov	r1, r9
 1788 003e 002D     		cmp	r5, #0
 1789 0040 18BF     		it	ne
 1790 0042 1A46     		movne	r2, r3
 1791 0044 FFF7FEFF 		bl	printf
 1792              	.LVL185:
 1793              	.L174:
 1794 0048 E300     		lsls	r3, r4, #3
 1795 004a 0593     		str	r3, [sp, #20]
 1796 004c B64B     		ldr	r3, .L242+12
 1797 004e 03EB8617 		add	r7, r3, r6, lsl #6
 1798 0052 B64B     		ldr	r3, .L242+16
 1799              		.loc 1 919 0 is_stmt 0 discriminator 1
 1800 0054 0024     		movs	r4, #0
 1801 0056 03EB4616 		add	r6, r3, r6, lsl #5
 1802              	.LVL186:
 1803              	.L180:
 1804              		.loc 1 923 0 is_stmt 1
 1805 005a 3946     		mov	r1, r7
 1806 005c 059A     		ldr	r2, [sp, #20]
 1807 005e 1FA8     		add	r0, sp, #124
 1808 0060 FFF7FEFF 		bl	memcpy
 1809              	.LVL187:
 1810              		.loc 1 930 0
 1811 0064 1FA9     		add	r1, sp, #124
 1812 0066 4A46     		mov	r2, r9
ARM GAS  C:\Users\jo\AppData\Local\Temp\cc36ADTZ.s 			page 33


 1813 0068 37A8     		add	r0, sp, #220
 1814              		.loc 1 925 0
 1815 006a 002D     		cmp	r5, #0
 1816 006c 40F02E81 		bne	.L176
 1817              		.loc 1 926 0
 1818 0070 FFF7FEFF 		bl	camellia_setkey_dec
 1819              	.LVL188:
 1820              		.loc 1 928 0
 1821 0074 AE4A     		ldr	r2, .L242+20
 1822              		.loc 1 927 0
 1823 0076 3319     		adds	r3, r6, r4
 1824              		.loc 1 928 0
 1825 0078 02EB040E 		add	lr, r2, r4
 1826              	.L233:
 1827              		.loc 1 931 0
 1828 007c 1868     		ldr	r0, [r3]	@ unaligned
 1829 007e 5968     		ldr	r1, [r3, #4]	@ unaligned
 1830 0080 9A68     		ldr	r2, [r3, #8]	@ unaligned
 1831 0082 DB68     		ldr	r3, [r3, #12]	@ unaligned
 1832 0084 DC46     		mov	ip, fp
 1833 0086 ACE80F00 		stmia	ip!, {r0, r1, r2, r3}
 1834              		.loc 1 932 0
 1835 008a DEF80000 		ldr	r0, [lr]	@ unaligned
 1836 008e DEF80410 		ldr	r1, [lr, #4]	@ unaligned
 1837 0092 DEF80820 		ldr	r2, [lr, #8]	@ unaligned
 1838 0096 DEF80C30 		ldr	r3, [lr, #12]	@ unaligned
 1839 009a D646     		mov	lr, r10
 1840 009c AEE80F00 		stmia	lr!, {r0, r1, r2, r3}
 1841              		.loc 1 935 0
 1842 00a0 2946     		mov	r1, r5
 1843 00a2 5A46     		mov	r2, fp
 1844 00a4 27AB     		add	r3, sp, #156
 1845 00a6 37A8     		add	r0, sp, #220
 1846 00a8 FFF7FEFF 		bl	camellia_crypt_ecb
 1847              	.LVL189:
 1848              		.loc 1 937 0
 1849 00ac 27A8     		add	r0, sp, #156
 1850 00ae 5146     		mov	r1, r10
 1851 00b0 1022     		movs	r2, #16
 1852 00b2 FFF7FEFF 		bl	memcmp
 1853              	.LVL190:
 1854 00b6 1034     		adds	r4, r4, #16
 1855 00b8 2037     		adds	r7, r7, #32
 1856 00ba 0028     		cmp	r0, #0
 1857 00bc 40F0FE80 		bne	.L191
 1858              		.loc 1 922 0 discriminator 2
 1859 00c0 202C     		cmp	r4, #32
 1860 00c2 CAD1     		bne	.L180
 1861              		.loc 1 946 0
 1862 00c4 069B     		ldr	r3, [sp, #24]
 1863 00c6 002B     		cmp	r3, #0
 1864 00c8 40F02381 		bne	.L234
 1865              	.L181:
 1866              		.loc 1 914 0 discriminator 2
 1867 00cc 08F10108 		add	r8, r8, #1
 1868              	.LVL191:
 1869 00d0 B8F1060F 		cmp	r8, #6
ARM GAS  C:\Users\jo\AppData\Local\Temp\cc36ADTZ.s 			page 34


 1870 00d4 A6D1     		bne	.L182
 1871              		.loc 1 950 0
 1872 00d6 069B     		ldr	r3, [sp, #24]
 1873 00d8 002B     		cmp	r3, #0
 1874 00da 40F05881 		bne	.L235
 1875              	.L183:
 1876              	.LVL192:
 1877              		.loc 1 919 0 discriminator 1
 1878 00de 0023     		movs	r3, #0
 1879 00e0 0993     		str	r3, [sp, #36]
 1880              	.LVL193:
 1881              	.L194:
 1882              		.loc 1 959 0
 1883 00e2 099B     		ldr	r3, [sp, #36]
 1884 00e4 5C10     		asrs	r4, r3, #1
 1885              	.LVL194:
 1886              		.loc 1 960 0
 1887 00e6 03F00103 		and	r3, r3, #1
 1888 00ea 0593     		str	r3, [sp, #20]
 1889              	.LVL195:
 1890              		.loc 1 962 0
 1891 00ec 069B     		ldr	r3, [sp, #24]
 1892              	.LVL196:
 1893              		.loc 1 963 0
 1894 00ee A51C     		adds	r5, r4, #2
 1895 00f0 AE01     		lsls	r6, r5, #6
 1896              		.loc 1 962 0
 1897 00f2 4BB1     		cbz	r3, .L185
 1898              		.loc 1 963 0
 1899 00f4 894A     		ldr	r2, .L242
 1900 00f6 8A4B     		ldr	r3, .L242+4
 1901 00f8 059F     		ldr	r7, [sp, #20]
 1902 00fa 8E48     		ldr	r0, .L242+24
 1903 00fc 3146     		mov	r1, r6
 1904 00fe 002F     		cmp	r7, #0
 1905 0100 18BF     		it	ne
 1906 0102 1A46     		movne	r2, r3
 1907 0104 FFF7FEFF 		bl	printf
 1908              	.LVL197:
 1909              	.L185:
 1910              		.loc 1 966 0
 1911 0108 8B4B     		ldr	r3, .L242+28
 1912 010a 0FCB     		ldmia	r3, {r0, r1, r2, r3}
 1913 010c 8BE80F00 		stmia	fp, {r0, r1, r2, r3}
 1914              		.loc 1 967 0
 1915 0110 894B     		ldr	r3, .L242+28
 1916 0112 0FCB     		ldmia	r3, {r0, r1, r2, r3}
 1917 0114 8AE80F00 		stmia	r10, {r0, r1, r2, r3}
 1918              		.loc 1 968 0
 1919 0118 884B     		ldr	r3, .L242+32
 1920 011a EA00     		lsls	r2, r5, #3
 1921 011c 03EB4411 		add	r1, r3, r4, lsl #5
 1922 0120 1FA8     		add	r0, sp, #124
 1923 0122 FFF7FEFF 		bl	memcpy
 1924              	.LVL198:
 1925              		.loc 1 970 0
 1926 0126 059B     		ldr	r3, [sp, #20]
ARM GAS  C:\Users\jo\AppData\Local\Temp\cc36ADTZ.s 			page 35


 1927              		.loc 1 971 0
 1928 0128 3246     		mov	r2, r6
 1929 012a 37A8     		add	r0, sp, #220
 1930 012c 1FA9     		add	r1, sp, #124
 1931              		.loc 1 970 0
 1932 012e 002B     		cmp	r3, #0
 1933 0130 40F0EC80 		bne	.L187
 1934              		.loc 1 971 0
 1935 0134 FFF7FEFF 		bl	camellia_setkey_dec
 1936              	.LVL199:
 1937              	.L188:
 1938 0138 814B     		ldr	r3, .L242+36
 1939 013a 04EB4404 		add	r4, r4, r4, lsl #1
 1940              	.LVL200:
 1941 013e 03EB0413 		add	r3, r3, r4, lsl #4
 1942 0142 0893     		str	r3, [sp, #32]
 1943              		.loc 1 963 0 discriminator 1
 1944 0144 0024     		movs	r4, #0
 1945              	.LVL201:
 1946              	.L192:
 1947              		.loc 1 984 0
 1948 0146 7F4B     		ldr	r3, .L242+40
 1949              		.loc 1 980 0
 1950 0148 089A     		ldr	r2, [sp, #32]
 1951              		.loc 1 985 0
 1952 014a CDF81CA0 		str	r10, [sp, #28]
 1953              		.loc 1 984 0
 1954 014e 03EB040C 		add	ip, r3, r4
 1955              		.loc 1 978 0
 1956 0152 059B     		ldr	r3, [sp, #20]
 1957              		.loc 1 980 0
 1958 0154 02EB0409 		add	r9, r2, r4
 1959              		.loc 1 984 0
 1960 0158 5D46     		mov	r5, fp
 1961              		.loc 1 980 0
 1962 015a 5F46     		mov	r7, fp
 1963              		.loc 1 981 0
 1964 015c 5646     		mov	r6, r10
 1965              		.loc 1 978 0
 1966 015e 002B     		cmp	r3, #0
 1967 0160 40F0BB80 		bne	.L189
 1968              		.loc 1 979 0
 1969 0164 9BE80F00 		ldmia	fp, {r0, r1, r2, r3}
 1970 0168 13AD     		add	r5, sp, #76
 1971 016a 85E80F00 		stmia	r5, {r0, r1, r2, r3}
 1972              		.loc 1 980 0
 1973 016e D9F80000 		ldr	r0, [r9]	@ unaligned
 1974 0172 D9F80410 		ldr	r1, [r9, #4]	@ unaligned
 1975 0176 D9F80820 		ldr	r2, [r9, #8]	@ unaligned
 1976 017a D9F80C30 		ldr	r3, [r9, #12]	@ unaligned
 1977 017e 0FC7     		stmia	r7!, {r0, r1, r2, r3}
 1978              		.loc 1 981 0
 1979 0180 DCF80000 		ldr	r0, [ip]	@ unaligned
 1980 0184 DCF80410 		ldr	r1, [ip, #4]	@ unaligned
 1981 0188 DCF80820 		ldr	r2, [ip, #8]	@ unaligned
 1982 018c DCF80C30 		ldr	r3, [ip, #12]	@ unaligned
 1983 0190 0FC6     		stmia	r6!, {r0, r1, r2, r3}
ARM GAS  C:\Users\jo\AppData\Local\Temp\cc36ADTZ.s 			page 36


 1984              	.L190:
 1985              		.loc 1 988 0
 1986 0192 27AB     		add	r3, sp, #156
 1987 0194 0193     		str	r3, [sp, #4]
 1988 0196 0599     		ldr	r1, [sp, #20]
 1989 0198 CDF800B0 		str	fp, [sp]
 1990 019c 1022     		movs	r2, #16
 1991 019e 13AB     		add	r3, sp, #76
 1992 01a0 37A8     		add	r0, sp, #220
 1993 01a2 FFF7FEFF 		bl	camellia_crypt_cbc
 1994              	.LVL202:
 1995              		.loc 1 990 0
 1996 01a6 27A8     		add	r0, sp, #156
 1997 01a8 5146     		mov	r1, r10
 1998 01aa 1022     		movs	r2, #16
 1999 01ac FFF7FEFF 		bl	memcmp
 2000              	.LVL203:
 2001 01b0 1034     		adds	r4, r4, #16
 2002 01b2 0028     		cmp	r0, #0
 2003 01b4 40F08280 		bne	.L191
 2004              		.loc 1 976 0 discriminator 2
 2005 01b8 302C     		cmp	r4, #48
 2006 01ba C4D1     		bne	.L192
 2007              		.loc 1 999 0
 2008 01bc 069B     		ldr	r3, [sp, #24]
 2009 01be 0546     		mov	r5, r0
 2010 01c0 002B     		cmp	r3, #0
 2011 01c2 40F0CF80 		bne	.L236
 2012              	.L193:
 2013              		.loc 1 957 0 discriminator 2
 2014 01c6 099B     		ldr	r3, [sp, #36]
 2015 01c8 0133     		adds	r3, r3, #1
 2016 01ca 062B     		cmp	r3, #6
 2017 01cc 0993     		str	r3, [sp, #36]
 2018              	.LVL204:
 2019 01ce 88D1     		bne	.L194
 2020              		.loc 1 1004 0
 2021 01d0 069B     		ldr	r3, [sp, #24]
 2022              	.LVL205:
 2023 01d2 002B     		cmp	r3, #0
 2024 01d4 40F0E780 		bne	.L237
 2025              	.L195:
 2026              	.LVL206:
 2027 01d8 069B     		ldr	r3, [sp, #24]
 2028 01da DFF884B1 		ldr	fp, .L242+68
 2029 01de 0795     		str	r5, [sp, #28]
 2030              		.loc 1 963 0 discriminator 1
 2031 01e0 0027     		movs	r7, #0
 2032 01e2 0DF15C0A 		add	r10, sp, #92
 2033 01e6 0593     		str	r3, [sp, #20]
 2034              	.LVL207:
 2035 01e8 1EE0     		b	.L201
 2036              	.LVL208:
 2037              	.L240:
 2038              		.loc 1 1028 0
 2039 01ea 53F82960 		ldr	r6, [r3, r9, lsl #2]
 2040              	.LVL209:
ARM GAS  C:\Users\jo\AppData\Local\Temp\cc36ADTZ.s 			page 37


 2041              		.loc 1 1029 0
 2042 01ee 3246     		mov	r2, r6
 2043 01f0 FFF7FEFF 		bl	memcpy
 2044              	.LVL210:
 2045              		.loc 1 1031 0
 2046 01f4 1BAB     		add	r3, sp, #108
 2047 01f6 0093     		str	r3, [sp]
 2048 01f8 27AB     		add	r3, sp, #156
 2049 01fa 0193     		str	r3, [sp, #4]
 2050 01fc 0293     		str	r3, [sp, #8]
 2051 01fe 3146     		mov	r1, r6
 2052 0200 0AAA     		add	r2, sp, #40
 2053 0202 5346     		mov	r3, r10
 2054 0204 37A8     		add	r0, sp, #220
 2055 0206 FFF7FEFF 		bl	camellia_crypt_ctr
 2056              	.LVL211:
 2057              		.loc 1 1034 0
 2058 020a 4F4B     		ldr	r3, .L242+44
 2059 020c 27A8     		add	r0, sp, #156
 2060 020e 3246     		mov	r2, r6
 2061 0210 1919     		adds	r1, r3, r4
 2062 0212 FFF7FEFF 		bl	memcmp
 2063              	.LVL212:
 2064 0216 0028     		cmp	r0, #0
 2065 0218 50D1     		bne	.L191
 2066              	.LVL213:
 2067              	.L199:
 2068              		.loc 1 1059 0
 2069 021a 059B     		ldr	r3, [sp, #20]
 2070 021c 002B     		cmp	r3, #0
 2071 021e 40F0A580 		bne	.L238
 2072              	.LVL214:
 2073              		.loc 1 1011 0 discriminator 2
 2074 0222 062F     		cmp	r7, #6
 2075 0224 00F0A880 		beq	.L239
 2076              	.LVL215:
 2077              	.L201:
 2078              		.loc 1 1017 0
 2079 0228 3D4B     		ldr	r3, .L242+4
 2080 022a 3C49     		ldr	r1, .L242
 2081 022c 4748     		ldr	r0, .L242+48
 2082              		.loc 1 1014 0
 2083 022e 07F00106 		and	r6, r7, #1
 2084              		.loc 1 1017 0
 2085 0232 002E     		cmp	r6, #0
 2086 0234 18BF     		it	ne
 2087 0236 1946     		movne	r1, r3
 2088              		.loc 1 1016 0
 2089 0238 059B     		ldr	r3, [sp, #20]
 2090              		.loc 1 1013 0
 2091 023a 4FEA6709 		asr	r9, r7, #1
 2092              	.LVL216:
 2093              		.loc 1 1011 0
 2094 023e 0137     		adds	r7, r7, #1
 2095              	.LVL217:
 2096              		.loc 1 1016 0
 2097 0240 0BB1     		cbz	r3, .L196
ARM GAS  C:\Users\jo\AppData\Local\Temp\cc36ADTZ.s 			page 38


 2098              		.loc 1 1017 0
 2099 0242 FFF7FEFF 		bl	printf
 2100              	.LVL218:
 2101              	.L196:
 2102              		.loc 1 1020 0
 2103 0246 424B     		ldr	r3, .L242+52
 2104              		.loc 1 1021 0
 2105 0248 424D     		ldr	r5, .L242+56
 2106              		.loc 1 1020 0
 2107 024a 4FEA0914 		lsl	r4, r9, #4
 2108 024e 2344     		add	r3, r3, r4
 2109 0250 0FCB     		ldmia	r3, {r0, r1, r2, r3}
 2110              		.loc 1 1021 0
 2111 0252 2C44     		add	r4, r4, r5
 2112              		.loc 1 1020 0
 2113 0254 8AE80F00 		stmia	r10, {r0, r1, r2, r3}
 2114              		.loc 1 1021 0
 2115 0258 94E80F00 		ldmia	r4, {r0, r1, r2, r3}
 2116              		.loc 1 1023 0
 2117 025c 0024     		movs	r4, #0
 2118              		.loc 1 1021 0
 2119 025e 1FAD     		add	r5, sp, #124
 2120              		.loc 1 1023 0
 2121 0260 0A94     		str	r4, [sp, #40]
 2122              		.loc 1 1029 0
 2123 0262 09EB4904 		add	r4, r9, r9, lsl #1
 2124              		.loc 1 1021 0
 2125 0266 85E80F00 		stmia	r5, {r0, r1, r2, r3}
 2126              		.loc 1 1029 0
 2127 026a 2401     		lsls	r4, r4, #4
 2128              		.loc 1 1024 0
 2129 026c 2946     		mov	r1, r5
 2130 026e 37A8     		add	r0, sp, #220
 2131 0270 8022     		movs	r2, #128
 2132 0272 FFF7FEFF 		bl	camellia_setkey_enc
 2133              	.LVL219:
 2134              		.loc 1 1045 0
 2135 0276 A046     		mov	r8, r4
 2136              		.loc 1 1029 0
 2137 0278 0BEB0401 		add	r1, fp, r4
 2138 027c 27A8     		add	r0, sp, #156
 2139              		.loc 1 1028 0
 2140 027e 364B     		ldr	r3, .L242+60
 2141              		.loc 1 1026 0
 2142 0280 002E     		cmp	r6, #0
 2143 0282 B2D0     		beq	.L240
 2144              		.loc 1 1044 0
 2145 0284 53F82940 		ldr	r4, [r3, r9, lsl #2]
 2146              	.LVL220:
 2147              		.loc 1 1045 0
 2148 0288 2F4B     		ldr	r3, .L242+44
 2149 028a 2246     		mov	r2, r4
 2150 028c 03EB0801 		add	r1, r3, r8
 2151 0290 27A8     		add	r0, sp, #156
 2152 0292 FFF7FEFF 		bl	memcpy
 2153              	.LVL221:
 2154              		.loc 1 1047 0
ARM GAS  C:\Users\jo\AppData\Local\Temp\cc36ADTZ.s 			page 39


 2155 0296 1BAB     		add	r3, sp, #108
 2156 0298 0093     		str	r3, [sp]
 2157 029a 27AB     		add	r3, sp, #156
 2158 029c 0193     		str	r3, [sp, #4]
 2159 029e 0293     		str	r3, [sp, #8]
 2160 02a0 2146     		mov	r1, r4
 2161 02a2 0AAA     		add	r2, sp, #40
 2162 02a4 37A8     		add	r0, sp, #220
 2163 02a6 5346     		mov	r3, r10
 2164 02a8 FFF7FEFF 		bl	camellia_crypt_ctr
 2165              	.LVL222:
 2166              		.loc 1 1050 0
 2167 02ac 27A8     		add	r0, sp, #156
 2168 02ae 2246     		mov	r2, r4
 2169 02b0 0BEB0801 		add	r1, fp, r8
 2170 02b4 FFF7FEFF 		bl	memcmp
 2171              	.LVL223:
 2172 02b8 0028     		cmp	r0, #0
 2173 02ba AED0     		beq	.L199
 2174              	.LVL224:
 2175              	.L191:
 2176              		.loc 1 939 0
 2177 02bc 069B     		ldr	r3, [sp, #24]
 2178              		.loc 1 942 0
 2179 02be 0125     		movs	r5, #1
 2180              		.loc 1 939 0
 2181 02c0 002B     		cmp	r3, #0
 2182 02c2 68D1     		bne	.L241
 2183              	.L179:
 2184              		.loc 1 1068 0
 2185 02c4 2846     		mov	r0, r5
 2186 02c6 7DB0     		add	sp, sp, #500
 2187              		.cfi_remember_state
 2188              		.cfi_def_cfa_offset 36
 2189              		@ sp needed
 2190 02c8 BDE8F08F 		pop	{r4, r5, r6, r7, r8, r9, r10, fp, pc}
 2191              	.LVL225:
 2192              	.L176:
 2193              		.cfi_restore_state
 2194              		.loc 1 930 0
 2195 02cc FFF7FEFF 		bl	camellia_setkey_enc
 2196              	.LVL226:
 2197              		.loc 1 931 0
 2198 02d0 174B     		ldr	r3, .L242+20
 2199              		.loc 1 932 0
 2200 02d2 06EB040E 		add	lr, r6, r4
 2201              		.loc 1 931 0
 2202 02d6 2344     		add	r3, r3, r4
 2203 02d8 D0E6     		b	.L233
 2204              	.LVL227:
 2205              	.L189:
 2206              		.loc 1 983 0
 2207 02da 9AE80F00 		ldmia	r10, {r0, r1, r2, r3}
 2208 02de 13AE     		add	r6, sp, #76
 2209 02e0 86E80F00 		stmia	r6, {r0, r1, r2, r3}
 2210              		.loc 1 984 0
 2211 02e4 DCF80000 		ldr	r0, [ip]	@ unaligned
ARM GAS  C:\Users\jo\AppData\Local\Temp\cc36ADTZ.s 			page 40


 2212 02e8 DCF80410 		ldr	r1, [ip, #4]	@ unaligned
 2213 02ec DCF80820 		ldr	r2, [ip, #8]	@ unaligned
 2214 02f0 DCF80C30 		ldr	r3, [ip, #12]	@ unaligned
 2215 02f4 0FC5     		stmia	r5!, {r0, r1, r2, r3}
 2216              		.loc 1 985 0
 2217 02f6 D9F80000 		ldr	r0, [r9]	@ unaligned
 2218 02fa D9F80410 		ldr	r1, [r9, #4]	@ unaligned
 2219 02fe D9F80820 		ldr	r2, [r9, #8]	@ unaligned
 2220 0302 D9F80C30 		ldr	r3, [r9, #12]	@ unaligned
 2221 0306 079D     		ldr	r5, [sp, #28]
 2222 0308 0FC5     		stmia	r5!, {r0, r1, r2, r3}
 2223 030a 42E7     		b	.L190
 2224              	.LVL228:
 2225              	.L187:
 2226              		.loc 1 973 0
 2227 030c FFF7FEFF 		bl	camellia_setkey_enc
 2228              	.LVL229:
 2229 0310 12E7     		b	.L188
 2230              	.LVL230:
 2231              	.L234:
 2232              		.loc 1 947 0
 2233 0312 1248     		ldr	r0, .L242+64
 2234 0314 FFF7FEFF 		bl	puts
 2235              	.LVL231:
 2236 0318 D8E6     		b	.L181
 2237              	.L243:
 2238 031a 00BF     		.align	2
 2239              	.L242:
 2240 031c 00000000 		.word	.LC0
 2241 0320 04000000 		.word	.LC1
 2242 0324 08000000 		.word	.LC2
 2243 0328 00000000 		.word	.LANCHOR8
 2244 032c 00000000 		.word	.LANCHOR9
 2245 0330 00000000 		.word	.LANCHOR10
 2246 0334 34000000 		.word	.LC5
 2247 0338 00000000 		.word	.LANCHOR11
 2248 033c 00000000 		.word	.LANCHOR12
 2249 0340 00000000 		.word	.LANCHOR13
 2250 0344 00000000 		.word	.LANCHOR14
 2251 0348 00000000 		.word	.LANCHOR19
 2252 034c 50000000 		.word	.LC6
 2253 0350 00000000 		.word	.LANCHOR15
 2254 0354 00000000 		.word	.LANCHOR16
 2255 0358 00000000 		.word	.LANCHOR17
 2256 035c 2C000000 		.word	.LC4
 2257 0360 00000000 		.word	.LANCHOR18
 2258              	.LVL232:
 2259              	.L236:
 2260              		.loc 1 1000 0
 2261 0364 1248     		ldr	r0, .L244
 2262 0366 FFF7FEFF 		bl	puts
 2263              	.LVL233:
 2264 036a 2CE7     		b	.L193
 2265              	.LVL234:
 2266              	.L238:
 2267              		.loc 1 1060 0
 2268 036c 1048     		ldr	r0, .L244
ARM GAS  C:\Users\jo\AppData\Local\Temp\cc36ADTZ.s 			page 41


 2269 036e FFF7FEFF 		bl	puts
 2270              	.LVL235:
 2271              		.loc 1 1011 0
 2272 0372 062F     		cmp	r7, #6
 2273 0374 7FF458AF 		bne	.L201
 2274              	.L239:
 2275              		.loc 1 1063 0
 2276 0378 069B     		ldr	r3, [sp, #24]
 2277 037a 079D     		ldr	r5, [sp, #28]
 2278 037c 002B     		cmp	r3, #0
 2279 037e A1D0     		beq	.L179
 2280              		.loc 1 1064 0
 2281 0380 0A20     		movs	r0, #10
 2282 0382 FFF7FEFF 		bl	putchar
 2283              	.LVL236:
 2284              		.loc 1 1068 0
 2285 0386 2846     		mov	r0, r5
 2286 0388 7DB0     		add	sp, sp, #500
 2287              		.cfi_remember_state
 2288              		.cfi_def_cfa_offset 36
 2289              		@ sp needed
 2290 038a BDE8F08F 		pop	{r4, r5, r6, r7, r8, r9, r10, fp, pc}
 2291              	.LVL237:
 2292              	.L235:
 2293              		.cfi_restore_state
 2294              		.loc 1 951 0
 2295 038e 0A20     		movs	r0, #10
 2296 0390 FFF7FEFF 		bl	putchar
 2297              	.LVL238:
 2298 0394 A3E6     		b	.L183
 2299              	.LVL239:
 2300              	.L241:
 2301              		.loc 1 940 0
 2302 0396 0748     		ldr	r0, .L244+4
 2303 0398 FFF7FEFF 		bl	puts
 2304              	.LVL240:
 2305              		.loc 1 942 0
 2306 039c 0125     		movs	r5, #1
 2307              		.loc 1 1068 0
 2308 039e 2846     		mov	r0, r5
 2309 03a0 7DB0     		add	sp, sp, #500
 2310              		.cfi_remember_state
 2311              		.cfi_def_cfa_offset 36
 2312              		@ sp needed
 2313 03a2 BDE8F08F 		pop	{r4, r5, r6, r7, r8, r9, r10, fp, pc}
 2314              	.LVL241:
 2315              	.L237:
 2316              		.cfi_restore_state
 2317              		.loc 1 1005 0
 2318 03a6 0A20     		movs	r0, #10
 2319 03a8 FFF7FEFF 		bl	putchar
 2320              	.LVL242:
 2321 03ac 14E7     		b	.L195
 2322              	.L245:
 2323 03ae 00BF     		.align	2
 2324              	.L244:
 2325 03b0 2C000000 		.word	.LC4
ARM GAS  C:\Users\jo\AppData\Local\Temp\cc36ADTZ.s 			page 42


 2326 03b4 24000000 		.word	.LC3
 2327              		.cfi_endproc
 2328              	.LFE10:
 2329              		.size	camellia_self_test, .-camellia_self_test
 2330 03b8 AFF30080 		.section	.rodata.camellia_test_ecb_cipher,"a",%progbits
 2330      AFF30080 
 2331              		.align	2
 2332              		.set	.LANCHOR9,. + 0
 2333              		.type	camellia_test_ecb_cipher, %object
 2334              		.size	camellia_test_ecb_cipher, 96
 2335              	camellia_test_ecb_cipher:
 2336 0000 67       		.byte	103
 2337 0001 67       		.byte	103
 2338 0002 31       		.byte	49
 2339 0003 38       		.byte	56
 2340 0004 54       		.byte	84
 2341 0005 96       		.byte	-106
 2342 0006 69       		.byte	105
 2343 0007 73       		.byte	115
 2344 0008 08       		.byte	8
 2345 0009 57       		.byte	87
 2346 000a 06       		.byte	6
 2347 000b 56       		.byte	86
 2348 000c 48       		.byte	72
 2349 000d EA       		.byte	-22
 2350 000e BE       		.byte	-66
 2351 000f 43       		.byte	67
 2352 0010 38       		.byte	56
 2353 0011 3C       		.byte	60
 2354 0012 6C       		.byte	108
 2355 0013 2A       		.byte	42
 2356 0014 AB       		.byte	-85
 2357 0015 EF       		.byte	-17
 2358 0016 7F       		.byte	127
 2359 0017 DE       		.byte	-34
 2360 0018 25       		.byte	37
 2361 0019 CD       		.byte	-51
 2362 001a 47       		.byte	71
 2363 001b 0B       		.byte	11
 2364 001c F7       		.byte	-9
 2365 001d 74       		.byte	116
 2366 001e A3       		.byte	-93
 2367 001f 31       		.byte	49
 2368 0020 B4       		.byte	-76
 2369 0021 99       		.byte	-103
 2370 0022 34       		.byte	52
 2371 0023 01       		.byte	1
 2372 0024 B3       		.byte	-77
 2373 0025 E9       		.byte	-23
 2374 0026 96       		.byte	-106
 2375 0027 F8       		.byte	-8
 2376 0028 4E       		.byte	78
 2377 0029 E5       		.byte	-27
 2378 002a CE       		.byte	-50
 2379 002b E7       		.byte	-25
 2380 002c D7       		.byte	-41
 2381 002d 9B       		.byte	-101
ARM GAS  C:\Users\jo\AppData\Local\Temp\cc36ADTZ.s 			page 43


 2382 002e 09       		.byte	9
 2383 002f B9       		.byte	-71
 2384 0030 D1       		.byte	-47
 2385 0031 76       		.byte	118
 2386 0032 3F       		.byte	63
 2387 0033 C0       		.byte	-64
 2388 0034 19       		.byte	25
 2389 0035 D7       		.byte	-41
 2390 0036 7C       		.byte	124
 2391 0037 C9       		.byte	-55
 2392 0038 30       		.byte	48
 2393 0039 BF       		.byte	-65
 2394 003a F2       		.byte	-14
 2395 003b A5       		.byte	-91
 2396 003c 6F       		.byte	111
 2397 003d 7C       		.byte	124
 2398 003e 93       		.byte	-109
 2399 003f 64       		.byte	100
 2400 0040 9A       		.byte	-102
 2401 0041 CC       		.byte	-52
 2402 0042 23       		.byte	35
 2403 0043 7D       		.byte	125
 2404 0044 FF       		.byte	-1
 2405 0045 16       		.byte	22
 2406 0046 D7       		.byte	-41
 2407 0047 6C       		.byte	108
 2408 0048 20       		.byte	32
 2409 0049 EF       		.byte	-17
 2410 004a 7C       		.byte	124
 2411 004b 91       		.byte	-111
 2412 004c 9E       		.byte	-98
 2413 004d 3A       		.byte	58
 2414 004e 75       		.byte	117
 2415 004f 09       		.byte	9
 2416 0050 05       		.byte	5
 2417 0051 03       		.byte	3
 2418 0052 FB       		.byte	-5
 2419 0053 10       		.byte	16
 2420 0054 AB       		.byte	-85
 2421 0055 24       		.byte	36
 2422 0056 1E       		.byte	30
 2423 0057 7C       		.byte	124
 2424 0058 F4       		.byte	-12
 2425 0059 5D       		.byte	93
 2426 005a 8C       		.byte	-116
 2427 005b DE       		.byte	-34
 2428 005c EE       		.byte	-18
 2429 005d 47       		.byte	71
 2430 005e 43       		.byte	67
 2431 005f 35       		.byte	53
 2432              		.section	.rodata.camellia_test_cbc_plain,"a",%progbits
 2433              		.align	2
 2434              		.set	.LANCHOR14,. + 0
 2435              		.type	camellia_test_cbc_plain, %object
 2436              		.size	camellia_test_cbc_plain, 48
 2437              	camellia_test_cbc_plain:
 2438 0000 6B       		.byte	107
ARM GAS  C:\Users\jo\AppData\Local\Temp\cc36ADTZ.s 			page 44


 2439 0001 C1       		.byte	-63
 2440 0002 BE       		.byte	-66
 2441 0003 E2       		.byte	-30
 2442 0004 2E       		.byte	46
 2443 0005 40       		.byte	64
 2444 0006 9F       		.byte	-97
 2445 0007 96       		.byte	-106
 2446 0008 E9       		.byte	-23
 2447 0009 3D       		.byte	61
 2448 000a 7E       		.byte	126
 2449 000b 11       		.byte	17
 2450 000c 73       		.byte	115
 2451 000d 93       		.byte	-109
 2452 000e 17       		.byte	23
 2453 000f 2A       		.byte	42
 2454 0010 AE       		.byte	-82
 2455 0011 2D       		.byte	45
 2456 0012 8A       		.byte	-118
 2457 0013 57       		.byte	87
 2458 0014 1E       		.byte	30
 2459 0015 03       		.byte	3
 2460 0016 AC       		.byte	-84
 2461 0017 9C       		.byte	-100
 2462 0018 9E       		.byte	-98
 2463 0019 B7       		.byte	-73
 2464 001a 6F       		.byte	111
 2465 001b AC       		.byte	-84
 2466 001c 45       		.byte	69
 2467 001d AF       		.byte	-81
 2468 001e 8E       		.byte	-114
 2469 001f 51       		.byte	81
 2470 0020 30       		.byte	48
 2471 0021 C8       		.byte	-56
 2472 0022 1C       		.byte	28
 2473 0023 46       		.byte	70
 2474 0024 A3       		.byte	-93
 2475 0025 5C       		.byte	92
 2476 0026 E4       		.byte	-28
 2477 0027 11       		.byte	17
 2478 0028 E5       		.byte	-27
 2479 0029 FB       		.byte	-5
 2480 002a C1       		.byte	-63
 2481 002b 19       		.byte	25
 2482 002c 1A       		.byte	26
 2483 002d 0A       		.byte	10
 2484 002e 52       		.byte	82
 2485 002f EF       		.byte	-17
 2486              		.section	.rodata.camellia_test_ctr_key,"a",%progbits
 2487              		.align	2
 2488              		.set	.LANCHOR16,. + 0
 2489              		.type	camellia_test_ctr_key, %object
 2490              		.size	camellia_test_ctr_key, 48
 2491              	camellia_test_ctr_key:
 2492 0000 AE       		.byte	-82
 2493 0001 68       		.byte	104
 2494 0002 52       		.byte	82
 2495 0003 F8       		.byte	-8
ARM GAS  C:\Users\jo\AppData\Local\Temp\cc36ADTZ.s 			page 45


 2496 0004 12       		.byte	18
 2497 0005 10       		.byte	16
 2498 0006 67       		.byte	103
 2499 0007 CC       		.byte	-52
 2500 0008 4B       		.byte	75
 2501 0009 F7       		.byte	-9
 2502 000a A5       		.byte	-91
 2503 000b 76       		.byte	118
 2504 000c 55       		.byte	85
 2505 000d 77       		.byte	119
 2506 000e F3       		.byte	-13
 2507 000f 9E       		.byte	-98
 2508 0010 7E       		.byte	126
 2509 0011 24       		.byte	36
 2510 0012 06       		.byte	6
 2511 0013 78       		.byte	120
 2512 0014 17       		.byte	23
 2513 0015 FA       		.byte	-6
 2514 0016 E0       		.byte	-32
 2515 0017 D7       		.byte	-41
 2516 0018 43       		.byte	67
 2517 0019 D6       		.byte	-42
 2518 001a CE       		.byte	-50
 2519 001b 1F       		.byte	31
 2520 001c 32       		.byte	50
 2521 001d 53       		.byte	83
 2522 001e 91       		.byte	-111
 2523 001f 63       		.byte	99
 2524 0020 76       		.byte	118
 2525 0021 91       		.byte	-111
 2526 0022 BE       		.byte	-66
 2527 0023 03       		.byte	3
 2528 0024 5E       		.byte	94
 2529 0025 50       		.byte	80
 2530 0026 20       		.byte	32
 2531 0027 A8       		.byte	-88
 2532 0028 AC       		.byte	-84
 2533 0029 6E       		.byte	110
 2534 002a 61       		.byte	97
 2535 002b 85       		.byte	-123
 2536 002c 29       		.byte	41
 2537 002d F9       		.byte	-7
 2538 002e A0       		.byte	-96
 2539 002f DC       		.byte	-36
 2540              		.section	.rodata.camellia_test_cbc_iv,"a",%progbits
 2541              		.align	2
 2542              		.set	.LANCHOR11,. + 0
 2543              		.type	camellia_test_cbc_iv, %object
 2544              		.size	camellia_test_cbc_iv, 16
 2545              	camellia_test_cbc_iv:
 2546 0000 00       		.byte	0
 2547 0001 01       		.byte	1
 2548 0002 02       		.byte	2
 2549 0003 03       		.byte	3
 2550 0004 04       		.byte	4
 2551 0005 05       		.byte	5
 2552 0006 06       		.byte	6
ARM GAS  C:\Users\jo\AppData\Local\Temp\cc36ADTZ.s 			page 46


 2553 0007 07       		.byte	7
 2554 0008 08       		.byte	8
 2555 0009 09       		.byte	9
 2556 000a 0A       		.byte	10
 2557 000b 0B       		.byte	11
 2558 000c 0C       		.byte	12
 2559 000d 0D       		.byte	13
 2560 000e 0E       		.byte	14
 2561 000f 0F       		.byte	15
 2562              		.section	.rodata.FSb,"a",%progbits
 2563              		.align	2
 2564              		.set	.LANCHOR1,. + 0
 2565              		.type	FSb, %object
 2566              		.size	FSb, 256
 2567              	FSb:
 2568 0000 70       		.byte	112
 2569 0001 82       		.byte	-126
 2570 0002 2C       		.byte	44
 2571 0003 EC       		.byte	-20
 2572 0004 B3       		.byte	-77
 2573 0005 27       		.byte	39
 2574 0006 C0       		.byte	-64
 2575 0007 E5       		.byte	-27
 2576 0008 E4       		.byte	-28
 2577 0009 85       		.byte	-123
 2578 000a 57       		.byte	87
 2579 000b 35       		.byte	53
 2580 000c EA       		.byte	-22
 2581 000d 0C       		.byte	12
 2582 000e AE       		.byte	-82
 2583 000f 41       		.byte	65
 2584 0010 23       		.byte	35
 2585 0011 EF       		.byte	-17
 2586 0012 6B       		.byte	107
 2587 0013 93       		.byte	-109
 2588 0014 45       		.byte	69
 2589 0015 19       		.byte	25
 2590 0016 A5       		.byte	-91
 2591 0017 21       		.byte	33
 2592 0018 ED       		.byte	-19
 2593 0019 0E       		.byte	14
 2594 001a 4F       		.byte	79
 2595 001b 4E       		.byte	78
 2596 001c 1D       		.byte	29
 2597 001d 65       		.byte	101
 2598 001e 92       		.byte	-110
 2599 001f BD       		.byte	-67
 2600 0020 86       		.byte	-122
 2601 0021 B8       		.byte	-72
 2602 0022 AF       		.byte	-81
 2603 0023 8F       		.byte	-113
 2604 0024 7C       		.byte	124
 2605 0025 EB       		.byte	-21
 2606 0026 1F       		.byte	31
 2607 0027 CE       		.byte	-50
 2608 0028 3E       		.byte	62
 2609 0029 30       		.byte	48
ARM GAS  C:\Users\jo\AppData\Local\Temp\cc36ADTZ.s 			page 47


 2610 002a DC       		.byte	-36
 2611 002b 5F       		.byte	95
 2612 002c 5E       		.byte	94
 2613 002d C5       		.byte	-59
 2614 002e 0B       		.byte	11
 2615 002f 1A       		.byte	26
 2616 0030 A6       		.byte	-90
 2617 0031 E1       		.byte	-31
 2618 0032 39       		.byte	57
 2619 0033 CA       		.byte	-54
 2620 0034 D5       		.byte	-43
 2621 0035 47       		.byte	71
 2622 0036 5D       		.byte	93
 2623 0037 3D       		.byte	61
 2624 0038 D9       		.byte	-39
 2625 0039 01       		.byte	1
 2626 003a 5A       		.byte	90
 2627 003b D6       		.byte	-42
 2628 003c 51       		.byte	81
 2629 003d 56       		.byte	86
 2630 003e 6C       		.byte	108
 2631 003f 4D       		.byte	77
 2632 0040 8B       		.byte	-117
 2633 0041 0D       		.byte	13
 2634 0042 9A       		.byte	-102
 2635 0043 66       		.byte	102
 2636 0044 FB       		.byte	-5
 2637 0045 CC       		.byte	-52
 2638 0046 B0       		.byte	-80
 2639 0047 2D       		.byte	45
 2640 0048 74       		.byte	116
 2641 0049 12       		.byte	18
 2642 004a 2B       		.byte	43
 2643 004b 20       		.byte	32
 2644 004c F0       		.byte	-16
 2645 004d B1       		.byte	-79
 2646 004e 84       		.byte	-124
 2647 004f 99       		.byte	-103
 2648 0050 DF       		.byte	-33
 2649 0051 4C       		.byte	76
 2650 0052 CB       		.byte	-53
 2651 0053 C2       		.byte	-62
 2652 0054 34       		.byte	52
 2653 0055 7E       		.byte	126
 2654 0056 76       		.byte	118
 2655 0057 05       		.byte	5
 2656 0058 6D       		.byte	109
 2657 0059 B7       		.byte	-73
 2658 005a A9       		.byte	-87
 2659 005b 31       		.byte	49
 2660 005c D1       		.byte	-47
 2661 005d 17       		.byte	23
 2662 005e 04       		.byte	4
 2663 005f D7       		.byte	-41
 2664 0060 14       		.byte	20
 2665 0061 58       		.byte	88
 2666 0062 3A       		.byte	58
ARM GAS  C:\Users\jo\AppData\Local\Temp\cc36ADTZ.s 			page 48


 2667 0063 61       		.byte	97
 2668 0064 DE       		.byte	-34
 2669 0065 1B       		.byte	27
 2670 0066 11       		.byte	17
 2671 0067 1C       		.byte	28
 2672 0068 32       		.byte	50
 2673 0069 0F       		.byte	15
 2674 006a 9C       		.byte	-100
 2675 006b 16       		.byte	22
 2676 006c 53       		.byte	83
 2677 006d 18       		.byte	24
 2678 006e F2       		.byte	-14
 2679 006f 22       		.byte	34
 2680 0070 FE       		.byte	-2
 2681 0071 44       		.byte	68
 2682 0072 CF       		.byte	-49
 2683 0073 B2       		.byte	-78
 2684 0074 C3       		.byte	-61
 2685 0075 B5       		.byte	-75
 2686 0076 7A       		.byte	122
 2687 0077 91       		.byte	-111
 2688 0078 24       		.byte	36
 2689 0079 08       		.byte	8
 2690 007a E8       		.byte	-24
 2691 007b A8       		.byte	-88
 2692 007c 60       		.byte	96
 2693 007d FC       		.byte	-4
 2694 007e 69       		.byte	105
 2695 007f 50       		.byte	80
 2696 0080 AA       		.byte	-86
 2697 0081 D0       		.byte	-48
 2698 0082 A0       		.byte	-96
 2699 0083 7D       		.byte	125
 2700 0084 A1       		.byte	-95
 2701 0085 89       		.byte	-119
 2702 0086 62       		.byte	98
 2703 0087 97       		.byte	-105
 2704 0088 54       		.byte	84
 2705 0089 5B       		.byte	91
 2706 008a 1E       		.byte	30
 2707 008b 95       		.byte	-107
 2708 008c E0       		.byte	-32
 2709 008d FF       		.byte	-1
 2710 008e 64       		.byte	100
 2711 008f D2       		.byte	-46
 2712 0090 10       		.byte	16
 2713 0091 C4       		.byte	-60
 2714 0092 00       		.byte	0
 2715 0093 48       		.byte	72
 2716 0094 A3       		.byte	-93
 2717 0095 F7       		.byte	-9
 2718 0096 75       		.byte	117
 2719 0097 DB       		.byte	-37
 2720 0098 8A       		.byte	-118
 2721 0099 03       		.byte	3
 2722 009a E6       		.byte	-26
 2723 009b DA       		.byte	-38
ARM GAS  C:\Users\jo\AppData\Local\Temp\cc36ADTZ.s 			page 49


 2724 009c 09       		.byte	9
 2725 009d 3F       		.byte	63
 2726 009e DD       		.byte	-35
 2727 009f 94       		.byte	-108
 2728 00a0 87       		.byte	-121
 2729 00a1 5C       		.byte	92
 2730 00a2 83       		.byte	-125
 2731 00a3 02       		.byte	2
 2732 00a4 CD       		.byte	-51
 2733 00a5 4A       		.byte	74
 2734 00a6 90       		.byte	-112
 2735 00a7 33       		.byte	51
 2736 00a8 73       		.byte	115
 2737 00a9 67       		.byte	103
 2738 00aa F6       		.byte	-10
 2739 00ab F3       		.byte	-13
 2740 00ac 9D       		.byte	-99
 2741 00ad 7F       		.byte	127
 2742 00ae BF       		.byte	-65
 2743 00af E2       		.byte	-30
 2744 00b0 52       		.byte	82
 2745 00b1 9B       		.byte	-101
 2746 00b2 D8       		.byte	-40
 2747 00b3 26       		.byte	38
 2748 00b4 C8       		.byte	-56
 2749 00b5 37       		.byte	55
 2750 00b6 C6       		.byte	-58
 2751 00b7 3B       		.byte	59
 2752 00b8 81       		.byte	-127
 2753 00b9 96       		.byte	-106
 2754 00ba 6F       		.byte	111
 2755 00bb 4B       		.byte	75
 2756 00bc 13       		.byte	19
 2757 00bd BE       		.byte	-66
 2758 00be 63       		.byte	99
 2759 00bf 2E       		.byte	46
 2760 00c0 E9       		.byte	-23
 2761 00c1 79       		.byte	121
 2762 00c2 A7       		.byte	-89
 2763 00c3 8C       		.byte	-116
 2764 00c4 9F       		.byte	-97
 2765 00c5 6E       		.byte	110
 2766 00c6 BC       		.byte	-68
 2767 00c7 8E       		.byte	-114
 2768 00c8 29       		.byte	41
 2769 00c9 F5       		.byte	-11
 2770 00ca F9       		.byte	-7
 2771 00cb B6       		.byte	-74
 2772 00cc 2F       		.byte	47
 2773 00cd FD       		.byte	-3
 2774 00ce B4       		.byte	-76
 2775 00cf 59       		.byte	89
 2776 00d0 78       		.byte	120
 2777 00d1 98       		.byte	-104
 2778 00d2 06       		.byte	6
 2779 00d3 6A       		.byte	106
 2780 00d4 E7       		.byte	-25
ARM GAS  C:\Users\jo\AppData\Local\Temp\cc36ADTZ.s 			page 50


 2781 00d5 46       		.byte	70
 2782 00d6 71       		.byte	113
 2783 00d7 BA       		.byte	-70
 2784 00d8 D4       		.byte	-44
 2785 00d9 25       		.byte	37
 2786 00da AB       		.byte	-85
 2787 00db 42       		.byte	66
 2788 00dc 88       		.byte	-120
 2789 00dd A2       		.byte	-94
 2790 00de 8D       		.byte	-115
 2791 00df FA       		.byte	-6
 2792 00e0 72       		.byte	114
 2793 00e1 07       		.byte	7
 2794 00e2 B9       		.byte	-71
 2795 00e3 55       		.byte	85
 2796 00e4 F8       		.byte	-8
 2797 00e5 EE       		.byte	-18
 2798 00e6 AC       		.byte	-84
 2799 00e7 0A       		.byte	10
 2800 00e8 36       		.byte	54
 2801 00e9 49       		.byte	73
 2802 00ea 2A       		.byte	42
 2803 00eb 68       		.byte	104
 2804 00ec 3C       		.byte	60
 2805 00ed 38       		.byte	56
 2806 00ee F1       		.byte	-15
 2807 00ef A4       		.byte	-92
 2808 00f0 40       		.byte	64
 2809 00f1 28       		.byte	40
 2810 00f2 D3       		.byte	-45
 2811 00f3 7B       		.byte	123
 2812 00f4 BB       		.byte	-69
 2813 00f5 C9       		.byte	-55
 2814 00f6 43       		.byte	67
 2815 00f7 C1       		.byte	-63
 2816 00f8 15       		.byte	21
 2817 00f9 E3       		.byte	-29
 2818 00fa AD       		.byte	-83
 2819 00fb F4       		.byte	-12
 2820 00fc 77       		.byte	119
 2821 00fd C7       		.byte	-57
 2822 00fe 80       		.byte	-128
 2823 00ff 9E       		.byte	-98
 2824              		.section	.rodata.camellia_test_cbc_cipher,"a",%progbits
 2825              		.align	2
 2826              		.set	.LANCHOR13,. + 0
 2827              		.type	camellia_test_cbc_cipher, %object
 2828              		.size	camellia_test_cbc_cipher, 144
 2829              	camellia_test_cbc_cipher:
 2830 0000 16       		.byte	22
 2831 0001 07       		.byte	7
 2832 0002 CF       		.byte	-49
 2833 0003 49       		.byte	73
 2834 0004 4B       		.byte	75
 2835 0005 36       		.byte	54
 2836 0006 BB       		.byte	-69
 2837 0007 F0       		.byte	-16
ARM GAS  C:\Users\jo\AppData\Local\Temp\cc36ADTZ.s 			page 51


 2838 0008 0D       		.byte	13
 2839 0009 AE       		.byte	-82
 2840 000a B0       		.byte	-80
 2841 000b B5       		.byte	-75
 2842 000c 03       		.byte	3
 2843 000d C8       		.byte	-56
 2844 000e 31       		.byte	49
 2845 000f AB       		.byte	-85
 2846 0010 A2       		.byte	-94
 2847 0011 F2       		.byte	-14
 2848 0012 CF       		.byte	-49
 2849 0013 67       		.byte	103
 2850 0014 16       		.byte	22
 2851 0015 29       		.byte	41
 2852 0016 EF       		.byte	-17
 2853 0017 78       		.byte	120
 2854 0018 40       		.byte	64
 2855 0019 C5       		.byte	-59
 2856 001a A5       		.byte	-91
 2857 001b DF       		.byte	-33
 2858 001c B5       		.byte	-75
 2859 001d 07       		.byte	7
 2860 001e 48       		.byte	72
 2861 001f 87       		.byte	-121
 2862 0020 0F       		.byte	15
 2863 0021 06       		.byte	6
 2864 0022 16       		.byte	22
 2865 0023 50       		.byte	80
 2866 0024 08       		.byte	8
 2867 0025 CF       		.byte	-49
 2868 0026 8B       		.byte	-117
 2869 0027 8B       		.byte	-117
 2870 0028 5A       		.byte	90
 2871 0029 63       		.byte	99
 2872 002a 58       		.byte	88
 2873 002b 63       		.byte	99
 2874 002c 62       		.byte	98
 2875 002d 54       		.byte	84
 2876 002e 3E       		.byte	62
 2877 002f 54       		.byte	84
 2878 0030 2A       		.byte	42
 2879 0031 48       		.byte	72
 2880 0032 30       		.byte	48
 2881 0033 AB       		.byte	-85
 2882 0034 5A       		.byte	90
 2883 0035 C4       		.byte	-60
 2884 0036 A1       		.byte	-95
 2885 0037 A2       		.byte	-94
 2886 0038 40       		.byte	64
 2887 0039 59       		.byte	89
 2888 003a 55       		.byte	85
 2889 003b FD       		.byte	-3
 2890 003c 21       		.byte	33
 2891 003d 95       		.byte	-107
 2892 003e CF       		.byte	-49
 2893 003f 93       		.byte	-109
 2894 0040 5D       		.byte	93
ARM GAS  C:\Users\jo\AppData\Local\Temp\cc36ADTZ.s 			page 52


 2895 0041 5A       		.byte	90
 2896 0042 86       		.byte	-122
 2897 0043 9B       		.byte	-101
 2898 0044 D1       		.byte	-47
 2899 0045 4C       		.byte	76
 2900 0046 E5       		.byte	-27
 2901 0047 42       		.byte	66
 2902 0048 64       		.byte	100
 2903 0049 F8       		.byte	-8
 2904 004a 92       		.byte	-110
 2905 004b A6       		.byte	-90
 2906 004c DD       		.byte	-35
 2907 004d 2E       		.byte	46
 2908 004e C3       		.byte	-61
 2909 004f D5       		.byte	-43
 2910 0050 37       		.byte	55
 2911 0051 D3       		.byte	-45
 2912 0052 59       		.byte	89
 2913 0053 C3       		.byte	-61
 2914 0054 34       		.byte	52
 2915 0055 98       		.byte	-104
 2916 0056 36       		.byte	54
 2917 0057 D8       		.byte	-40
 2918 0058 84       		.byte	-124
 2919 0059 E3       		.byte	-29
 2920 005a 10       		.byte	16
 2921 005b AD       		.byte	-83
 2922 005c DF       		.byte	-33
 2923 005d 68       		.byte	104
 2924 005e C4       		.byte	-60
 2925 005f 49       		.byte	73
 2926 0060 E6       		.byte	-26
 2927 0061 CF       		.byte	-49
 2928 0062 A3       		.byte	-93
 2929 0063 5F       		.byte	95
 2930 0064 C0       		.byte	-64
 2931 0065 2B       		.byte	43
 2932 0066 13       		.byte	19
 2933 0067 4A       		.byte	74
 2934 0068 4D       		.byte	77
 2935 0069 2C       		.byte	44
 2936 006a 0B       		.byte	11
 2937 006b 67       		.byte	103
 2938 006c 37       		.byte	55
 2939 006d AC       		.byte	-84
 2940 006e 3E       		.byte	62
 2941 006f DA       		.byte	-38
 2942 0070 36       		.byte	54
 2943 0071 CB       		.byte	-53
 2944 0072 EB       		.byte	-21
 2945 0073 73       		.byte	115
 2946 0074 BD       		.byte	-67
 2947 0075 50       		.byte	80
 2948 0076 4B       		.byte	75
 2949 0077 40       		.byte	64
 2950 0078 70       		.byte	112
 2951 0079 B1       		.byte	-79
ARM GAS  C:\Users\jo\AppData\Local\Temp\cc36ADTZ.s 			page 53


 2952 007a B7       		.byte	-73
 2953 007b DE       		.byte	-34
 2954 007c 2B       		.byte	43
 2955 007d 21       		.byte	33
 2956 007e EB       		.byte	-21
 2957 007f 50       		.byte	80
 2958 0080 E3       		.byte	-29
 2959 0081 1A       		.byte	26
 2960 0082 60       		.byte	96
 2961 0083 55       		.byte	85
 2962 0084 29       		.byte	41
 2963 0085 7D       		.byte	125
 2964 0086 96       		.byte	-106
 2965 0087 CA       		.byte	-54
 2966 0088 33       		.byte	51
 2967 0089 30       		.byte	48
 2968 008a CD       		.byte	-51
 2969 008b F1       		.byte	-15
 2970 008c B1       		.byte	-79
 2971 008d 86       		.byte	-122
 2972 008e 0A       		.byte	10
 2973 008f 83       		.byte	-125
 2974              		.section	.rodata.shifts,"a",%progbits
 2975              		.align	2
 2976              		.set	.LANCHOR5,. + 0
 2977              		.type	shifts, %object
 2978              		.size	shifts, 32
 2979              	shifts:
 2980 0000 01       		.byte	1
 2981 0001 01       		.byte	1
 2982 0002 01       		.byte	1
 2983 0003 01       		.byte	1
 2984 0004 00       		.byte	0
 2985 0005 00       		.byte	0
 2986 0006 00       		.byte	0
 2987 0007 00       		.byte	0
 2988 0008 01       		.byte	1
 2989 0009 01       		.byte	1
 2990 000a 01       		.byte	1
 2991 000b 01       		.byte	1
 2992 000c 00       		.byte	0
 2993 000d 00       		.byte	0
 2994 000e 00       		.byte	0
 2995 000f 00       		.byte	0
 2996 0010 01       		.byte	1
 2997 0011 00       		.byte	0
 2998 0012 01       		.byte	1
 2999 0013 01       		.byte	1
 3000 0014 01       		.byte	1
 3001 0015 01       		.byte	1
 3002 0016 00       		.byte	0
 3003 0017 01       		.byte	1
 3004 0018 01       		.byte	1
 3005 0019 01       		.byte	1
 3006 001a 01       		.byte	1
 3007 001b 00       		.byte	0
 3008 001c 01       		.byte	1
ARM GAS  C:\Users\jo\AppData\Local\Temp\cc36ADTZ.s 			page 54


 3009 001d 01       		.byte	1
 3010 001e 00       		.byte	0
 3011 001f 01       		.byte	1
 3012              		.section	.rodata.camellia_test_ctr_ct,"a",%progbits
 3013              		.align	2
 3014              		.set	.LANCHOR18,. + 0
 3015              		.type	camellia_test_ctr_ct, %object
 3016              		.size	camellia_test_ctr_ct, 144
 3017              	camellia_test_ctr_ct:
 3018 0000 D0       		.byte	-48
 3019 0001 9D       		.byte	-99
 3020 0002 C2       		.byte	-62
 3021 0003 9A       		.byte	-102
 3022 0004 82       		.byte	-126
 3023 0005 14       		.byte	20
 3024 0006 61       		.byte	97
 3025 0007 9A       		.byte	-102
 3026 0008 20       		.byte	32
 3027 0009 87       		.byte	-121
 3028 000a 7C       		.byte	124
 3029 000b 76       		.byte	118
 3030 000c DB       		.byte	-37
 3031 000d 1F       		.byte	31
 3032 000e 0B       		.byte	11
 3033 000f 3F       		.byte	63
 3034 0010 00000000 		.space	32
 3034      00000000 
 3034      00000000 
 3034      00000000 
 3034      00000000 
 3035 0030 DB       		.byte	-37
 3036 0031 F3       		.byte	-13
 3037 0032 C7       		.byte	-57
 3038 0033 8D       		.byte	-115
 3039 0034 C0       		.byte	-64
 3040 0035 83       		.byte	-125
 3041 0036 96       		.byte	-106
 3042 0037 D4       		.byte	-44
 3043 0038 DA       		.byte	-38
 3044 0039 7C       		.byte	124
 3045 003a 90       		.byte	-112
 3046 003b 77       		.byte	119
 3047 003c 65       		.byte	101
 3048 003d BB       		.byte	-69
 3049 003e CB       		.byte	-53
 3050 003f 44       		.byte	68
 3051 0040 2B       		.byte	43
 3052 0041 8E       		.byte	-114
 3053 0042 8E       		.byte	-114
 3054 0043 0F       		.byte	15
 3055 0044 31       		.byte	49
 3056 0045 F0       		.byte	-16
 3057 0046 DC       		.byte	-36
 3058 0047 A7       		.byte	-89
 3059 0048 2C       		.byte	44
 3060 0049 74       		.byte	116
 3061 004a 17       		.byte	23
ARM GAS  C:\Users\jo\AppData\Local\Temp\cc36ADTZ.s 			page 55


 3062 004b E3       		.byte	-29
 3063 004c 53       		.byte	83
 3064 004d 60       		.byte	96
 3065 004e E0       		.byte	-32
 3066 004f 48       		.byte	72
 3067 0050 00000000 		.space	16
 3067      00000000 
 3067      00000000 
 3067      00000000 
 3068 0060 B1       		.byte	-79
 3069 0061 9D       		.byte	-99
 3070 0062 1F       		.byte	31
 3071 0063 CD       		.byte	-51
 3072 0064 CB       		.byte	-53
 3073 0065 75       		.byte	117
 3074 0066 EB       		.byte	-21
 3075 0067 88       		.byte	-120
 3076 0068 2F       		.byte	47
 3077 0069 84       		.byte	-124
 3078 006a 9C       		.byte	-100
 3079 006b E2       		.byte	-30
 3080 006c 4D       		.byte	77
 3081 006d 85       		.byte	-123
 3082 006e CF       		.byte	-49
 3083 006f 73       		.byte	115
 3084 0070 9C       		.byte	-100
 3085 0071 E6       		.byte	-26
 3086 0072 4B       		.byte	75
 3087 0073 2B       		.byte	43
 3088 0074 5C       		.byte	92
 3089 0075 9D       		.byte	-99
 3090 0076 73       		.byte	115
 3091 0077 F1       		.byte	-15
 3092 0078 4F       		.byte	79
 3093 0079 2D       		.byte	45
 3094 007a 5D       		.byte	93
 3095 007b 9D       		.byte	-99
 3096 007c CE       		.byte	-50
 3097 007d 98       		.byte	-104
 3098 007e 89       		.byte	-119
 3099 007f CD       		.byte	-51
 3100 0080 DF       		.byte	-33
 3101 0081 50       		.byte	80
 3102 0082 86       		.byte	-122
 3103 0083 96       		.byte	-106
 3104 0084 00000000 		.space	12
 3104      00000000 
 3104      00000000 
 3105              		.section	.rodata.FSb2,"a",%progbits
 3106              		.align	2
 3107              		.set	.LANCHOR3,. + 0
 3108              		.type	FSb2, %object
 3109              		.size	FSb2, 256
 3110              	FSb2:
 3111 0000 E0       		.byte	-32
 3112 0001 05       		.byte	5
 3113 0002 58       		.byte	88
ARM GAS  C:\Users\jo\AppData\Local\Temp\cc36ADTZ.s 			page 56


 3114 0003 D9       		.byte	-39
 3115 0004 67       		.byte	103
 3116 0005 4E       		.byte	78
 3117 0006 81       		.byte	-127
 3118 0007 CB       		.byte	-53
 3119 0008 C9       		.byte	-55
 3120 0009 0B       		.byte	11
 3121 000a AE       		.byte	-82
 3122 000b 6A       		.byte	106
 3123 000c D5       		.byte	-43
 3124 000d 18       		.byte	24
 3125 000e 5D       		.byte	93
 3126 000f 82       		.byte	-126
 3127 0010 46       		.byte	70
 3128 0011 DF       		.byte	-33
 3129 0012 D6       		.byte	-42
 3130 0013 27       		.byte	39
 3131 0014 8A       		.byte	-118
 3132 0015 32       		.byte	50
 3133 0016 4B       		.byte	75
 3134 0017 42       		.byte	66
 3135 0018 DB       		.byte	-37
 3136 0019 1C       		.byte	28
 3137 001a 9E       		.byte	-98
 3138 001b 9C       		.byte	-100
 3139 001c 3A       		.byte	58
 3140 001d CA       		.byte	-54
 3141 001e 25       		.byte	37
 3142 001f 7B       		.byte	123
 3143 0020 0D       		.byte	13
 3144 0021 71       		.byte	113
 3145 0022 5F       		.byte	95
 3146 0023 1F       		.byte	31
 3147 0024 F8       		.byte	-8
 3148 0025 D7       		.byte	-41
 3149 0026 3E       		.byte	62
 3150 0027 9D       		.byte	-99
 3151 0028 7C       		.byte	124
 3152 0029 60       		.byte	96
 3153 002a B9       		.byte	-71
 3154 002b BE       		.byte	-66
 3155 002c BC       		.byte	-68
 3156 002d 8B       		.byte	-117
 3157 002e 16       		.byte	22
 3158 002f 34       		.byte	52
 3159 0030 4D       		.byte	77
 3160 0031 C3       		.byte	-61
 3161 0032 72       		.byte	114
 3162 0033 95       		.byte	-107
 3163 0034 AB       		.byte	-85
 3164 0035 8E       		.byte	-114
 3165 0036 BA       		.byte	-70
 3166 0037 7A       		.byte	122
 3167 0038 B3       		.byte	-77
 3168 0039 02       		.byte	2
 3169 003a B4       		.byte	-76
 3170 003b AD       		.byte	-83
ARM GAS  C:\Users\jo\AppData\Local\Temp\cc36ADTZ.s 			page 57


 3171 003c A2       		.byte	-94
 3172 003d AC       		.byte	-84
 3173 003e D8       		.byte	-40
 3174 003f 9A       		.byte	-102
 3175 0040 17       		.byte	23
 3176 0041 1A       		.byte	26
 3177 0042 35       		.byte	53
 3178 0043 CC       		.byte	-52
 3179 0044 F7       		.byte	-9
 3180 0045 99       		.byte	-103
 3181 0046 61       		.byte	97
 3182 0047 5A       		.byte	90
 3183 0048 E8       		.byte	-24
 3184 0049 24       		.byte	36
 3185 004a 56       		.byte	86
 3186 004b 40       		.byte	64
 3187 004c E1       		.byte	-31
 3188 004d 63       		.byte	99
 3189 004e 09       		.byte	9
 3190 004f 33       		.byte	51
 3191 0050 BF       		.byte	-65
 3192 0051 98       		.byte	-104
 3193 0052 97       		.byte	-105
 3194 0053 85       		.byte	-123
 3195 0054 68       		.byte	104
 3196 0055 FC       		.byte	-4
 3197 0056 EC       		.byte	-20
 3198 0057 0A       		.byte	10
 3199 0058 DA       		.byte	-38
 3200 0059 6F       		.byte	111
 3201 005a 53       		.byte	83
 3202 005b 62       		.byte	98
 3203 005c A3       		.byte	-93
 3204 005d 2E       		.byte	46
 3205 005e 08       		.byte	8
 3206 005f AF       		.byte	-81
 3207 0060 28       		.byte	40
 3208 0061 B0       		.byte	-80
 3209 0062 74       		.byte	116
 3210 0063 C2       		.byte	-62
 3211 0064 BD       		.byte	-67
 3212 0065 36       		.byte	54
 3213 0066 22       		.byte	34
 3214 0067 38       		.byte	56
 3215 0068 64       		.byte	100
 3216 0069 1E       		.byte	30
 3217 006a 39       		.byte	57
 3218 006b 2C       		.byte	44
 3219 006c A6       		.byte	-90
 3220 006d 30       		.byte	48
 3221 006e E5       		.byte	-27
 3222 006f 44       		.byte	68
 3223 0070 FD       		.byte	-3
 3224 0071 88       		.byte	-120
 3225 0072 9F       		.byte	-97
 3226 0073 65       		.byte	101
 3227 0074 87       		.byte	-121
ARM GAS  C:\Users\jo\AppData\Local\Temp\cc36ADTZ.s 			page 58


 3228 0075 6B       		.byte	107
 3229 0076 F4       		.byte	-12
 3230 0077 23       		.byte	35
 3231 0078 48       		.byte	72
 3232 0079 10       		.byte	16
 3233 007a D1       		.byte	-47
 3234 007b 51       		.byte	81
 3235 007c C0       		.byte	-64
 3236 007d F9       		.byte	-7
 3237 007e D2       		.byte	-46
 3238 007f A0       		.byte	-96
 3239 0080 55       		.byte	85
 3240 0081 A1       		.byte	-95
 3241 0082 41       		.byte	65
 3242 0083 FA       		.byte	-6
 3243 0084 43       		.byte	67
 3244 0085 13       		.byte	19
 3245 0086 C4       		.byte	-60
 3246 0087 2F       		.byte	47
 3247 0088 A8       		.byte	-88
 3248 0089 B6       		.byte	-74
 3249 008a 3C       		.byte	60
 3250 008b 2B       		.byte	43
 3251 008c C1       		.byte	-63
 3252 008d FF       		.byte	-1
 3253 008e C8       		.byte	-56
 3254 008f A5       		.byte	-91
 3255 0090 20       		.byte	32
 3256 0091 89       		.byte	-119
 3257 0092 00       		.byte	0
 3258 0093 90       		.byte	-112
 3259 0094 47       		.byte	71
 3260 0095 EF       		.byte	-17
 3261 0096 EA       		.byte	-22
 3262 0097 B7       		.byte	-73
 3263 0098 15       		.byte	21
 3264 0099 06       		.byte	6
 3265 009a CD       		.byte	-51
 3266 009b B5       		.byte	-75
 3267 009c 12       		.byte	18
 3268 009d 7E       		.byte	126
 3269 009e BB       		.byte	-69
 3270 009f 29       		.byte	41
 3271 00a0 0F       		.byte	15
 3272 00a1 B8       		.byte	-72
 3273 00a2 07       		.byte	7
 3274 00a3 04       		.byte	4
 3275 00a4 9B       		.byte	-101
 3276 00a5 94       		.byte	-108
 3277 00a6 21       		.byte	33
 3278 00a7 66       		.byte	102
 3279 00a8 E6       		.byte	-26
 3280 00a9 CE       		.byte	-50
 3281 00aa ED       		.byte	-19
 3282 00ab E7       		.byte	-25
 3283 00ac 3B       		.byte	59
 3284 00ad FE       		.byte	-2
ARM GAS  C:\Users\jo\AppData\Local\Temp\cc36ADTZ.s 			page 59


 3285 00ae 7F       		.byte	127
 3286 00af C5       		.byte	-59
 3287 00b0 A4       		.byte	-92
 3288 00b1 37       		.byte	55
 3289 00b2 B1       		.byte	-79
 3290 00b3 4C       		.byte	76
 3291 00b4 91       		.byte	-111
 3292 00b5 6E       		.byte	110
 3293 00b6 8D       		.byte	-115
 3294 00b7 76       		.byte	118
 3295 00b8 03       		.byte	3
 3296 00b9 2D       		.byte	45
 3297 00ba DE       		.byte	-34
 3298 00bb 96       		.byte	-106
 3299 00bc 26       		.byte	38
 3300 00bd 7D       		.byte	125
 3301 00be C6       		.byte	-58
 3302 00bf 5C       		.byte	92
 3303 00c0 D3       		.byte	-45
 3304 00c1 F2       		.byte	-14
 3305 00c2 4F       		.byte	79
 3306 00c3 19       		.byte	25
 3307 00c4 3F       		.byte	63
 3308 00c5 DC       		.byte	-36
 3309 00c6 79       		.byte	121
 3310 00c7 1D       		.byte	29
 3311 00c8 52       		.byte	82
 3312 00c9 EB       		.byte	-21
 3313 00ca F3       		.byte	-13
 3314 00cb 6D       		.byte	109
 3315 00cc 5E       		.byte	94
 3316 00cd FB       		.byte	-5
 3317 00ce 69       		.byte	105
 3318 00cf B2       		.byte	-78
 3319 00d0 F0       		.byte	-16
 3320 00d1 31       		.byte	49
 3321 00d2 0C       		.byte	12
 3322 00d3 D4       		.byte	-44
 3323 00d4 CF       		.byte	-49
 3324 00d5 8C       		.byte	-116
 3325 00d6 E2       		.byte	-30
 3326 00d7 75       		.byte	117
 3327 00d8 A9       		.byte	-87
 3328 00d9 4A       		.byte	74
 3329 00da 57       		.byte	87
 3330 00db 84       		.byte	-124
 3331 00dc 11       		.byte	17
 3332 00dd 45       		.byte	69
 3333 00de 1B       		.byte	27
 3334 00df F5       		.byte	-11
 3335 00e0 E4       		.byte	-28
 3336 00e1 0E       		.byte	14
 3337 00e2 73       		.byte	115
 3338 00e3 AA       		.byte	-86
 3339 00e4 F1       		.byte	-15
 3340 00e5 DD       		.byte	-35
 3341 00e6 59       		.byte	89
ARM GAS  C:\Users\jo\AppData\Local\Temp\cc36ADTZ.s 			page 60


 3342 00e7 14       		.byte	20
 3343 00e8 6C       		.byte	108
 3344 00e9 92       		.byte	-110
 3345 00ea 54       		.byte	84
 3346 00eb D0       		.byte	-48
 3347 00ec 78       		.byte	120
 3348 00ed 70       		.byte	112
 3349 00ee E3       		.byte	-29
 3350 00ef 49       		.byte	73
 3351 00f0 80       		.byte	-128
 3352 00f1 50       		.byte	80
 3353 00f2 A7       		.byte	-89
 3354 00f3 F6       		.byte	-10
 3355 00f4 77       		.byte	119
 3356 00f5 93       		.byte	-109
 3357 00f6 86       		.byte	-122
 3358 00f7 83       		.byte	-125
 3359 00f8 2A       		.byte	42
 3360 00f9 C7       		.byte	-57
 3361 00fa 5B       		.byte	91
 3362 00fb E9       		.byte	-23
 3363 00fc EE       		.byte	-18
 3364 00fd 8F       		.byte	-113
 3365 00fe 01       		.byte	1
 3366 00ff 3D       		.byte	61
 3367              		.section	.rodata.FSb3,"a",%progbits
 3368              		.align	2
 3369              		.set	.LANCHOR0,. + 0
 3370              		.type	FSb3, %object
 3371              		.size	FSb3, 256
 3372              	FSb3:
 3373 0000 38       		.byte	56
 3374 0001 41       		.byte	65
 3375 0002 16       		.byte	22
 3376 0003 76       		.byte	118
 3377 0004 D9       		.byte	-39
 3378 0005 93       		.byte	-109
 3379 0006 60       		.byte	96
 3380 0007 F2       		.byte	-14
 3381 0008 72       		.byte	114
 3382 0009 C2       		.byte	-62
 3383 000a AB       		.byte	-85
 3384 000b 9A       		.byte	-102
 3385 000c 75       		.byte	117
 3386 000d 06       		.byte	6
 3387 000e 57       		.byte	87
 3388 000f A0       		.byte	-96
 3389 0010 91       		.byte	-111
 3390 0011 F7       		.byte	-9
 3391 0012 B5       		.byte	-75
 3392 0013 C9       		.byte	-55
 3393 0014 A2       		.byte	-94
 3394 0015 8C       		.byte	-116
 3395 0016 D2       		.byte	-46
 3396 0017 90       		.byte	-112
 3397 0018 F6       		.byte	-10
 3398 0019 07       		.byte	7
ARM GAS  C:\Users\jo\AppData\Local\Temp\cc36ADTZ.s 			page 61


 3399 001a A7       		.byte	-89
 3400 001b 27       		.byte	39
 3401 001c 8E       		.byte	-114
 3402 001d B2       		.byte	-78
 3403 001e 49       		.byte	73
 3404 001f DE       		.byte	-34
 3405 0020 43       		.byte	67
 3406 0021 5C       		.byte	92
 3407 0022 D7       		.byte	-41
 3408 0023 C7       		.byte	-57
 3409 0024 3E       		.byte	62
 3410 0025 F5       		.byte	-11
 3411 0026 8F       		.byte	-113
 3412 0027 67       		.byte	103
 3413 0028 1F       		.byte	31
 3414 0029 18       		.byte	24
 3415 002a 6E       		.byte	110
 3416 002b AF       		.byte	-81
 3417 002c 2F       		.byte	47
 3418 002d E2       		.byte	-30
 3419 002e 85       		.byte	-123
 3420 002f 0D       		.byte	13
 3421 0030 53       		.byte	83
 3422 0031 F0       		.byte	-16
 3423 0032 9C       		.byte	-100
 3424 0033 65       		.byte	101
 3425 0034 EA       		.byte	-22
 3426 0035 A3       		.byte	-93
 3427 0036 AE       		.byte	-82
 3428 0037 9E       		.byte	-98
 3429 0038 EC       		.byte	-20
 3430 0039 80       		.byte	-128
 3431 003a 2D       		.byte	45
 3432 003b 6B       		.byte	107
 3433 003c A8       		.byte	-88
 3434 003d 2B       		.byte	43
 3435 003e 36       		.byte	54
 3436 003f A6       		.byte	-90
 3437 0040 C5       		.byte	-59
 3438 0041 86       		.byte	-122
 3439 0042 4D       		.byte	77
 3440 0043 33       		.byte	51
 3441 0044 FD       		.byte	-3
 3442 0045 66       		.byte	102
 3443 0046 58       		.byte	88
 3444 0047 96       		.byte	-106
 3445 0048 3A       		.byte	58
 3446 0049 09       		.byte	9
 3447 004a 95       		.byte	-107
 3448 004b 10       		.byte	16
 3449 004c 78       		.byte	120
 3450 004d D8       		.byte	-40
 3451 004e 42       		.byte	66
 3452 004f CC       		.byte	-52
 3453 0050 EF       		.byte	-17
 3454 0051 26       		.byte	38
 3455 0052 E5       		.byte	-27
ARM GAS  C:\Users\jo\AppData\Local\Temp\cc36ADTZ.s 			page 62


 3456 0053 61       		.byte	97
 3457 0054 1A       		.byte	26
 3458 0055 3F       		.byte	63
 3459 0056 3B       		.byte	59
 3460 0057 82       		.byte	-126
 3461 0058 B6       		.byte	-74
 3462 0059 DB       		.byte	-37
 3463 005a D4       		.byte	-44
 3464 005b 98       		.byte	-104
 3465 005c E8       		.byte	-24
 3466 005d 8B       		.byte	-117
 3467 005e 02       		.byte	2
 3468 005f EB       		.byte	-21
 3469 0060 0A       		.byte	10
 3470 0061 2C       		.byte	44
 3471 0062 1D       		.byte	29
 3472 0063 B0       		.byte	-80
 3473 0064 6F       		.byte	111
 3474 0065 8D       		.byte	-115
 3475 0066 88       		.byte	-120
 3476 0067 0E       		.byte	14
 3477 0068 19       		.byte	25
 3478 0069 87       		.byte	-121
 3479 006a 4E       		.byte	78
 3480 006b 0B       		.byte	11
 3481 006c A9       		.byte	-87
 3482 006d 0C       		.byte	12
 3483 006e 79       		.byte	121
 3484 006f 11       		.byte	17
 3485 0070 7F       		.byte	127
 3486 0071 22       		.byte	34
 3487 0072 E7       		.byte	-25
 3488 0073 59       		.byte	89
 3489 0074 E1       		.byte	-31
 3490 0075 DA       		.byte	-38
 3491 0076 3D       		.byte	61
 3492 0077 C8       		.byte	-56
 3493 0078 12       		.byte	18
 3494 0079 04       		.byte	4
 3495 007a 74       		.byte	116
 3496 007b 54       		.byte	84
 3497 007c 30       		.byte	48
 3498 007d 7E       		.byte	126
 3499 007e B4       		.byte	-76
 3500 007f 28       		.byte	40
 3501 0080 55       		.byte	85
 3502 0081 68       		.byte	104
 3503 0082 50       		.byte	80
 3504 0083 BE       		.byte	-66
 3505 0084 D0       		.byte	-48
 3506 0085 C4       		.byte	-60
 3507 0086 31       		.byte	49
 3508 0087 CB       		.byte	-53
 3509 0088 2A       		.byte	42
 3510 0089 AD       		.byte	-83
 3511 008a 0F       		.byte	15
 3512 008b CA       		.byte	-54
ARM GAS  C:\Users\jo\AppData\Local\Temp\cc36ADTZ.s 			page 63


 3513 008c 70       		.byte	112
 3514 008d FF       		.byte	-1
 3515 008e 32       		.byte	50
 3516 008f 69       		.byte	105
 3517 0090 08       		.byte	8
 3518 0091 62       		.byte	98
 3519 0092 00       		.byte	0
 3520 0093 24       		.byte	36
 3521 0094 D1       		.byte	-47
 3522 0095 FB       		.byte	-5
 3523 0096 BA       		.byte	-70
 3524 0097 ED       		.byte	-19
 3525 0098 45       		.byte	69
 3526 0099 81       		.byte	-127
 3527 009a 73       		.byte	115
 3528 009b 6D       		.byte	109
 3529 009c 84       		.byte	-124
 3530 009d 9F       		.byte	-97
 3531 009e EE       		.byte	-18
 3532 009f 4A       		.byte	74
 3533 00a0 C3       		.byte	-61
 3534 00a1 2E       		.byte	46
 3535 00a2 C1       		.byte	-63
 3536 00a3 01       		.byte	1
 3537 00a4 E6       		.byte	-26
 3538 00a5 25       		.byte	37
 3539 00a6 48       		.byte	72
 3540 00a7 99       		.byte	-103
 3541 00a8 B9       		.byte	-71
 3542 00a9 B3       		.byte	-77
 3543 00aa 7B       		.byte	123
 3544 00ab F9       		.byte	-7
 3545 00ac CE       		.byte	-50
 3546 00ad BF       		.byte	-65
 3547 00ae DF       		.byte	-33
 3548 00af 71       		.byte	113
 3549 00b0 29       		.byte	41
 3550 00b1 CD       		.byte	-51
 3551 00b2 6C       		.byte	108
 3552 00b3 13       		.byte	19
 3553 00b4 64       		.byte	100
 3554 00b5 9B       		.byte	-101
 3555 00b6 63       		.byte	99
 3556 00b7 9D       		.byte	-99
 3557 00b8 C0       		.byte	-64
 3558 00b9 4B       		.byte	75
 3559 00ba B7       		.byte	-73
 3560 00bb A5       		.byte	-91
 3561 00bc 89       		.byte	-119
 3562 00bd 5F       		.byte	95
 3563 00be B1       		.byte	-79
 3564 00bf 17       		.byte	23
 3565 00c0 F4       		.byte	-12
 3566 00c1 BC       		.byte	-68
 3567 00c2 D3       		.byte	-45
 3568 00c3 46       		.byte	70
 3569 00c4 CF       		.byte	-49
ARM GAS  C:\Users\jo\AppData\Local\Temp\cc36ADTZ.s 			page 64


 3570 00c5 37       		.byte	55
 3571 00c6 5E       		.byte	94
 3572 00c7 47       		.byte	71
 3573 00c8 94       		.byte	-108
 3574 00c9 FA       		.byte	-6
 3575 00ca FC       		.byte	-4
 3576 00cb 5B       		.byte	91
 3577 00cc 97       		.byte	-105
 3578 00cd FE       		.byte	-2
 3579 00ce 5A       		.byte	90
 3580 00cf AC       		.byte	-84
 3581 00d0 3C       		.byte	60
 3582 00d1 4C       		.byte	76
 3583 00d2 03       		.byte	3
 3584 00d3 35       		.byte	53
 3585 00d4 F3       		.byte	-13
 3586 00d5 23       		.byte	35
 3587 00d6 B8       		.byte	-72
 3588 00d7 5D       		.byte	93
 3589 00d8 6A       		.byte	106
 3590 00d9 92       		.byte	-110
 3591 00da D5       		.byte	-43
 3592 00db 21       		.byte	33
 3593 00dc 44       		.byte	68
 3594 00dd 51       		.byte	81
 3595 00de C6       		.byte	-58
 3596 00df 7D       		.byte	125
 3597 00e0 39       		.byte	57
 3598 00e1 83       		.byte	-125
 3599 00e2 DC       		.byte	-36
 3600 00e3 AA       		.byte	-86
 3601 00e4 7C       		.byte	124
 3602 00e5 77       		.byte	119
 3603 00e6 56       		.byte	86
 3604 00e7 05       		.byte	5
 3605 00e8 1B       		.byte	27
 3606 00e9 A4       		.byte	-92
 3607 00ea 15       		.byte	21
 3608 00eb 34       		.byte	52
 3609 00ec 1E       		.byte	30
 3610 00ed 1C       		.byte	28
 3611 00ee F8       		.byte	-8
 3612 00ef 52       		.byte	82
 3613 00f0 20       		.byte	32
 3614 00f1 14       		.byte	20
 3615 00f2 E9       		.byte	-23
 3616 00f3 BD       		.byte	-67
 3617 00f4 DD       		.byte	-35
 3618 00f5 E4       		.byte	-28
 3619 00f6 A1       		.byte	-95
 3620 00f7 E0       		.byte	-32
 3621 00f8 8A       		.byte	-118
 3622 00f9 F1       		.byte	-15
 3623 00fa D6       		.byte	-42
 3624 00fb 7A       		.byte	122
 3625 00fc BB       		.byte	-69
 3626 00fd E3       		.byte	-29
ARM GAS  C:\Users\jo\AppData\Local\Temp\cc36ADTZ.s 			page 65


 3627 00fe 40       		.byte	64
 3628 00ff 4F       		.byte	79
 3629              		.section	.rodata.FSb4,"a",%progbits
 3630              		.align	2
 3631              		.set	.LANCHOR2,. + 0
 3632              		.type	FSb4, %object
 3633              		.size	FSb4, 256
 3634              	FSb4:
 3635 0000 70       		.byte	112
 3636 0001 2C       		.byte	44
 3637 0002 B3       		.byte	-77
 3638 0003 C0       		.byte	-64
 3639 0004 E4       		.byte	-28
 3640 0005 57       		.byte	87
 3641 0006 EA       		.byte	-22
 3642 0007 AE       		.byte	-82
 3643 0008 23       		.byte	35
 3644 0009 6B       		.byte	107
 3645 000a 45       		.byte	69
 3646 000b A5       		.byte	-91
 3647 000c ED       		.byte	-19
 3648 000d 4F       		.byte	79
 3649 000e 1D       		.byte	29
 3650 000f 92       		.byte	-110
 3651 0010 86       		.byte	-122
 3652 0011 AF       		.byte	-81
 3653 0012 7C       		.byte	124
 3654 0013 1F       		.byte	31
 3655 0014 3E       		.byte	62
 3656 0015 DC       		.byte	-36
 3657 0016 5E       		.byte	94
 3658 0017 0B       		.byte	11
 3659 0018 A6       		.byte	-90
 3660 0019 39       		.byte	57
 3661 001a D5       		.byte	-43
 3662 001b 5D       		.byte	93
 3663 001c D9       		.byte	-39
 3664 001d 5A       		.byte	90
 3665 001e 51       		.byte	81
 3666 001f 6C       		.byte	108
 3667 0020 8B       		.byte	-117
 3668 0021 9A       		.byte	-102
 3669 0022 FB       		.byte	-5
 3670 0023 B0       		.byte	-80
 3671 0024 74       		.byte	116
 3672 0025 2B       		.byte	43
 3673 0026 F0       		.byte	-16
 3674 0027 84       		.byte	-124
 3675 0028 DF       		.byte	-33
 3676 0029 CB       		.byte	-53
 3677 002a 34       		.byte	52
 3678 002b 76       		.byte	118
 3679 002c 6D       		.byte	109
 3680 002d A9       		.byte	-87
 3681 002e D1       		.byte	-47
 3682 002f 04       		.byte	4
 3683 0030 14       		.byte	20
ARM GAS  C:\Users\jo\AppData\Local\Temp\cc36ADTZ.s 			page 66


 3684 0031 3A       		.byte	58
 3685 0032 DE       		.byte	-34
 3686 0033 11       		.byte	17
 3687 0034 32       		.byte	50
 3688 0035 9C       		.byte	-100
 3689 0036 53       		.byte	83
 3690 0037 F2       		.byte	-14
 3691 0038 FE       		.byte	-2
 3692 0039 CF       		.byte	-49
 3693 003a C3       		.byte	-61
 3694 003b 7A       		.byte	122
 3695 003c 24       		.byte	36
 3696 003d E8       		.byte	-24
 3697 003e 60       		.byte	96
 3698 003f 69       		.byte	105
 3699 0040 AA       		.byte	-86
 3700 0041 A0       		.byte	-96
 3701 0042 A1       		.byte	-95
 3702 0043 62       		.byte	98
 3703 0044 54       		.byte	84
 3704 0045 1E       		.byte	30
 3705 0046 E0       		.byte	-32
 3706 0047 64       		.byte	100
 3707 0048 10       		.byte	16
 3708 0049 00       		.byte	0
 3709 004a A3       		.byte	-93
 3710 004b 75       		.byte	117
 3711 004c 8A       		.byte	-118
 3712 004d E6       		.byte	-26
 3713 004e 09       		.byte	9
 3714 004f DD       		.byte	-35
 3715 0050 87       		.byte	-121
 3716 0051 83       		.byte	-125
 3717 0052 CD       		.byte	-51
 3718 0053 90       		.byte	-112
 3719 0054 73       		.byte	115
 3720 0055 F6       		.byte	-10
 3721 0056 9D       		.byte	-99
 3722 0057 BF       		.byte	-65
 3723 0058 52       		.byte	82
 3724 0059 D8       		.byte	-40
 3725 005a C8       		.byte	-56
 3726 005b C6       		.byte	-58
 3727 005c 81       		.byte	-127
 3728 005d 6F       		.byte	111
 3729 005e 13       		.byte	19
 3730 005f 63       		.byte	99
 3731 0060 E9       		.byte	-23
 3732 0061 A7       		.byte	-89
 3733 0062 9F       		.byte	-97
 3734 0063 BC       		.byte	-68
 3735 0064 29       		.byte	41
 3736 0065 F9       		.byte	-7
 3737 0066 2F       		.byte	47
 3738 0067 B4       		.byte	-76
 3739 0068 78       		.byte	120
 3740 0069 06       		.byte	6
ARM GAS  C:\Users\jo\AppData\Local\Temp\cc36ADTZ.s 			page 67


 3741 006a E7       		.byte	-25
 3742 006b 71       		.byte	113
 3743 006c D4       		.byte	-44
 3744 006d AB       		.byte	-85
 3745 006e 88       		.byte	-120
 3746 006f 8D       		.byte	-115
 3747 0070 72       		.byte	114
 3748 0071 B9       		.byte	-71
 3749 0072 F8       		.byte	-8
 3750 0073 AC       		.byte	-84
 3751 0074 36       		.byte	54
 3752 0075 2A       		.byte	42
 3753 0076 3C       		.byte	60
 3754 0077 F1       		.byte	-15
 3755 0078 40       		.byte	64
 3756 0079 D3       		.byte	-45
 3757 007a BB       		.byte	-69
 3758 007b 43       		.byte	67
 3759 007c 15       		.byte	21
 3760 007d AD       		.byte	-83
 3761 007e 77       		.byte	119
 3762 007f 80       		.byte	-128
 3763 0080 82       		.byte	-126
 3764 0081 EC       		.byte	-20
 3765 0082 27       		.byte	39
 3766 0083 E5       		.byte	-27
 3767 0084 85       		.byte	-123
 3768 0085 35       		.byte	53
 3769 0086 0C       		.byte	12
 3770 0087 41       		.byte	65
 3771 0088 EF       		.byte	-17
 3772 0089 93       		.byte	-109
 3773 008a 19       		.byte	25
 3774 008b 21       		.byte	33
 3775 008c 0E       		.byte	14
 3776 008d 4E       		.byte	78
 3777 008e 65       		.byte	101
 3778 008f BD       		.byte	-67
 3779 0090 B8       		.byte	-72
 3780 0091 8F       		.byte	-113
 3781 0092 EB       		.byte	-21
 3782 0093 CE       		.byte	-50
 3783 0094 30       		.byte	48
 3784 0095 5F       		.byte	95
 3785 0096 C5       		.byte	-59
 3786 0097 1A       		.byte	26
 3787 0098 E1       		.byte	-31
 3788 0099 CA       		.byte	-54
 3789 009a 47       		.byte	71
 3790 009b 3D       		.byte	61
 3791 009c 01       		.byte	1
 3792 009d D6       		.byte	-42
 3793 009e 56       		.byte	86
 3794 009f 4D       		.byte	77
 3795 00a0 0D       		.byte	13
 3796 00a1 66       		.byte	102
 3797 00a2 CC       		.byte	-52
ARM GAS  C:\Users\jo\AppData\Local\Temp\cc36ADTZ.s 			page 68


 3798 00a3 2D       		.byte	45
 3799 00a4 12       		.byte	18
 3800 00a5 20       		.byte	32
 3801 00a6 B1       		.byte	-79
 3802 00a7 99       		.byte	-103
 3803 00a8 4C       		.byte	76
 3804 00a9 C2       		.byte	-62
 3805 00aa 7E       		.byte	126
 3806 00ab 05       		.byte	5
 3807 00ac B7       		.byte	-73
 3808 00ad 31       		.byte	49
 3809 00ae 17       		.byte	23
 3810 00af D7       		.byte	-41
 3811 00b0 58       		.byte	88
 3812 00b1 61       		.byte	97
 3813 00b2 1B       		.byte	27
 3814 00b3 1C       		.byte	28
 3815 00b4 0F       		.byte	15
 3816 00b5 16       		.byte	22
 3817 00b6 18       		.byte	24
 3818 00b7 22       		.byte	34
 3819 00b8 44       		.byte	68
 3820 00b9 B2       		.byte	-78
 3821 00ba B5       		.byte	-75
 3822 00bb 91       		.byte	-111
 3823 00bc 08       		.byte	8
 3824 00bd A8       		.byte	-88
 3825 00be FC       		.byte	-4
 3826 00bf 50       		.byte	80
 3827 00c0 D0       		.byte	-48
 3828 00c1 7D       		.byte	125
 3829 00c2 89       		.byte	-119
 3830 00c3 97       		.byte	-105
 3831 00c4 5B       		.byte	91
 3832 00c5 95       		.byte	-107
 3833 00c6 FF       		.byte	-1
 3834 00c7 D2       		.byte	-46
 3835 00c8 C4       		.byte	-60
 3836 00c9 48       		.byte	72
 3837 00ca F7       		.byte	-9
 3838 00cb DB       		.byte	-37
 3839 00cc 03       		.byte	3
 3840 00cd DA       		.byte	-38
 3841 00ce 3F       		.byte	63
 3842 00cf 94       		.byte	-108
 3843 00d0 5C       		.byte	92
 3844 00d1 02       		.byte	2
 3845 00d2 4A       		.byte	74
 3846 00d3 33       		.byte	51
 3847 00d4 67       		.byte	103
 3848 00d5 F3       		.byte	-13
 3849 00d6 7F       		.byte	127
 3850 00d7 E2       		.byte	-30
 3851 00d8 9B       		.byte	-101
 3852 00d9 26       		.byte	38
 3853 00da 37       		.byte	55
 3854 00db 3B       		.byte	59
ARM GAS  C:\Users\jo\AppData\Local\Temp\cc36ADTZ.s 			page 69


 3855 00dc 96       		.byte	-106
 3856 00dd 4B       		.byte	75
 3857 00de BE       		.byte	-66
 3858 00df 2E       		.byte	46
 3859 00e0 79       		.byte	121
 3860 00e1 8C       		.byte	-116
 3861 00e2 6E       		.byte	110
 3862 00e3 8E       		.byte	-114
 3863 00e4 F5       		.byte	-11
 3864 00e5 B6       		.byte	-74
 3865 00e6 FD       		.byte	-3
 3866 00e7 59       		.byte	89
 3867 00e8 98       		.byte	-104
 3868 00e9 6A       		.byte	106
 3869 00ea 46       		.byte	70
 3870 00eb BA       		.byte	-70
 3871 00ec 25       		.byte	37
 3872 00ed 42       		.byte	66
 3873 00ee A2       		.byte	-94
 3874 00ef FA       		.byte	-6
 3875 00f0 07       		.byte	7
 3876 00f1 55       		.byte	85
 3877 00f2 EE       		.byte	-18
 3878 00f3 0A       		.byte	10
 3879 00f4 49       		.byte	73
 3880 00f5 68       		.byte	104
 3881 00f6 38       		.byte	56
 3882 00f7 A4       		.byte	-92
 3883 00f8 28       		.byte	40
 3884 00f9 7B       		.byte	123
 3885 00fa C9       		.byte	-55
 3886 00fb C1       		.byte	-63
 3887 00fc E3       		.byte	-29
 3888 00fd F4       		.byte	-12
 3889 00fe C7       		.byte	-57
 3890 00ff 9E       		.byte	-98
 3891              		.section	.rodata.SIGMA_CHARS,"a",%progbits
 3892              		.align	2
 3893              		.set	.LANCHOR4,. + 0
 3894              		.type	SIGMA_CHARS, %object
 3895              		.size	SIGMA_CHARS, 48
 3896              	SIGMA_CHARS:
 3897 0000 A0       		.byte	-96
 3898 0001 9E       		.byte	-98
 3899 0002 66       		.byte	102
 3900 0003 7F       		.byte	127
 3901 0004 3B       		.byte	59
 3902 0005 CC       		.byte	-52
 3903 0006 90       		.byte	-112
 3904 0007 8B       		.byte	-117
 3905 0008 B6       		.byte	-74
 3906 0009 7A       		.byte	122
 3907 000a E8       		.byte	-24
 3908 000b 58       		.byte	88
 3909 000c 4C       		.byte	76
 3910 000d AA       		.byte	-86
 3911 000e 73       		.byte	115
ARM GAS  C:\Users\jo\AppData\Local\Temp\cc36ADTZ.s 			page 70


 3912 000f B2       		.byte	-78
 3913 0010 C6       		.byte	-58
 3914 0011 EF       		.byte	-17
 3915 0012 37       		.byte	55
 3916 0013 2F       		.byte	47
 3917 0014 E9       		.byte	-23
 3918 0015 4F       		.byte	79
 3919 0016 82       		.byte	-126
 3920 0017 BE       		.byte	-66
 3921 0018 54       		.byte	84
 3922 0019 FF       		.byte	-1
 3923 001a 53       		.byte	83
 3924 001b A5       		.byte	-91
 3925 001c F1       		.byte	-15
 3926 001d D3       		.byte	-45
 3927 001e 6F       		.byte	111
 3928 001f 1C       		.byte	28
 3929 0020 10       		.byte	16
 3930 0021 E5       		.byte	-27
 3931 0022 27       		.byte	39
 3932 0023 FA       		.byte	-6
 3933 0024 DE       		.byte	-34
 3934 0025 68       		.byte	104
 3935 0026 2D       		.byte	45
 3936 0027 1D       		.byte	29
 3937 0028 B0       		.byte	-80
 3938 0029 56       		.byte	86
 3939 002a 88       		.byte	-120
 3940 002b C2       		.byte	-62
 3941 002c B3       		.byte	-77
 3942 002d E6       		.byte	-26
 3943 002e C1       		.byte	-63
 3944 002f FD       		.byte	-3
 3945              		.section	.rodata.transposes,"a",%progbits
 3946              		.align	2
 3947              		.set	.LANCHOR7,. + 0
 3948              		.type	transposes, %object
 3949              		.size	transposes, 40
 3950              	transposes:
 3951 0000 15       		.byte	21
 3952 0001 16       		.byte	22
 3953 0002 17       		.byte	23
 3954 0003 14       		.byte	20
 3955 0004 FF       		.byte	-1
 3956 0005 FF       		.byte	-1
 3957 0006 FF       		.byte	-1
 3958 0007 FF       		.byte	-1
 3959 0008 12       		.byte	18
 3960 0009 13       		.byte	19
 3961 000a 10       		.byte	16
 3962 000b 11       		.byte	17
 3963 000c 0B       		.byte	11
 3964 000d 08       		.byte	8
 3965 000e 09       		.byte	9
 3966 000f 0A       		.byte	10
 3967 0010 0F       		.byte	15
 3968 0011 0C       		.byte	12
ARM GAS  C:\Users\jo\AppData\Local\Temp\cc36ADTZ.s 			page 71


 3969 0012 0D       		.byte	13
 3970 0013 0E       		.byte	14
 3971 0014 19       		.byte	25
 3972 0015 1A       		.byte	26
 3973 0016 1B       		.byte	27
 3974 0017 18       		.byte	24
 3975 0018 1D       		.byte	29
 3976 0019 1E       		.byte	30
 3977 001a 1F       		.byte	31
 3978 001b 1C       		.byte	28
 3979 001c 12       		.byte	18
 3980 001d 13       		.byte	19
 3981 001e 10       		.byte	16
 3982 001f 11       		.byte	17
 3983 0020 FF       		.byte	-1
 3984 0021 FF       		.byte	-1
 3985 0022 FF       		.byte	-1
 3986 0023 FF       		.byte	-1
 3987 0024 FF       		.byte	-1
 3988 0025 FF       		.byte	-1
 3989 0026 FF       		.byte	-1
 3990 0027 FF       		.byte	-1
 3991              		.section	.rodata.str1.4,"aMS",%progbits,1
 3992              		.align	2
 3993              	.LC0:
 3994 0000 64656300 		.ascii	"dec\000"
 3995              	.LC1:
 3996 0004 656E6300 		.ascii	"enc\000"
 3997              	.LC2:
 3998 0008 20204341 		.ascii	"  CAMELLIA-ECB-%3d (%s): \000"
 3998      4D454C4C 
 3998      49412D45 
 3998      43422D25 
 3998      33642028 
 3999 0022 0000     		.space	2
 4000              	.LC3:
 4001 0024 6661696C 		.ascii	"failed\000"
 4001      656400
 4002 002b 00       		.space	1
 4003              	.LC4:
 4004 002c 70617373 		.ascii	"passed\000"
 4004      656400
 4005 0033 00       		.space	1
 4006              	.LC5:
 4007 0034 20204341 		.ascii	"  CAMELLIA-CBC-%3d (%s): \000"
 4007      4D454C4C 
 4007      49412D43 
 4007      42432D25 
 4007      33642028 
 4008 004e 0000     		.space	2
 4009              	.LC6:
 4010 0050 20204341 		.ascii	"  CAMELLIA-CTR-128 (%s): \000"
 4010      4D454C4C 
 4010      49412D43 
 4010      54522D31 
 4010      32382028 
 4011 006a 0000     		.section	.rodata.camellia_test_ctr_nonce_counter,"a",%progbits
ARM GAS  C:\Users\jo\AppData\Local\Temp\cc36ADTZ.s 			page 72


 4012              		.align	2
 4013              		.set	.LANCHOR15,. + 0
 4014              		.type	camellia_test_ctr_nonce_counter, %object
 4015              		.size	camellia_test_ctr_nonce_counter, 48
 4016              	camellia_test_ctr_nonce_counter:
 4017 0000 00       		.byte	0
 4018 0001 00       		.byte	0
 4019 0002 00       		.byte	0
 4020 0003 30       		.byte	48
 4021 0004 00       		.byte	0
 4022 0005 00       		.byte	0
 4023 0006 00       		.byte	0
 4024 0007 00       		.byte	0
 4025 0008 00       		.byte	0
 4026 0009 00       		.byte	0
 4027 000a 00       		.byte	0
 4028 000b 00       		.byte	0
 4029 000c 00       		.byte	0
 4030 000d 00       		.byte	0
 4031 000e 00       		.byte	0
 4032 000f 01       		.byte	1
 4033 0010 00       		.byte	0
 4034 0011 6C       		.byte	108
 4035 0012 B6       		.byte	-74
 4036 0013 DB       		.byte	-37
 4037 0014 C0       		.byte	-64
 4038 0015 54       		.byte	84
 4039 0016 3B       		.byte	59
 4040 0017 59       		.byte	89
 4041 0018 DA       		.byte	-38
 4042 0019 48       		.byte	72
 4043 001a D9       		.byte	-39
 4044 001b 0B       		.byte	11
 4045 001c 00       		.byte	0
 4046 001d 00       		.byte	0
 4047 001e 00       		.byte	0
 4048 001f 01       		.byte	1
 4049 0020 00       		.byte	0
 4050 0021 E0       		.byte	-32
 4051 0022 01       		.byte	1
 4052 0023 7B       		.byte	123
 4053 0024 27       		.byte	39
 4054 0025 77       		.byte	119
 4055 0026 7F       		.byte	127
 4056 0027 3F       		.byte	63
 4057 0028 4A       		.byte	74
 4058 0029 17       		.byte	23
 4059 002a 86       		.byte	-122
 4060 002b F0       		.byte	-16
 4061 002c 00       		.byte	0
 4062 002d 00       		.byte	0
 4063 002e 00       		.byte	0
 4064 002f 01       		.byte	1
 4065              		.section	.rodata.indexes,"a",%progbits
 4066              		.align	2
 4067              		.set	.LANCHOR6,. + 0
 4068              		.type	indexes, %object
ARM GAS  C:\Users\jo\AppData\Local\Temp\cc36ADTZ.s 			page 73


 4069              		.size	indexes, 160
 4070              	indexes:
 4071 0000 00       		.byte	0
 4072 0001 01       		.byte	1
 4073 0002 02       		.byte	2
 4074 0003 03       		.byte	3
 4075 0004 08       		.byte	8
 4076 0005 09       		.byte	9
 4077 0006 0A       		.byte	10
 4078 0007 0B       		.byte	11
 4079 0008 26       		.byte	38
 4080 0009 27       		.byte	39
 4081 000a 24       		.byte	36
 4082 000b 25       		.byte	37
 4083 000c 17       		.byte	23
 4084 000d 14       		.byte	20
 4085 000e 15       		.byte	21
 4086 000f 16       		.byte	22
 4087 0010 1B       		.byte	27
 4088 0011 FF       		.byte	-1
 4089 0012 FF       		.byte	-1
 4090 0013 1A       		.byte	26
 4091 0014 FF       		.byte	-1
 4092 0015 FF       		.byte	-1
 4093 0016 FF       		.byte	-1
 4094 0017 FF       		.byte	-1
 4095 0018 FF       		.byte	-1
 4096 0019 FF       		.byte	-1
 4097 001a FF       		.byte	-1
 4098 001b FF       		.byte	-1
 4099 001c FF       		.byte	-1
 4100 001d FF       		.byte	-1
 4101 001e FF       		.byte	-1
 4102 001f FF       		.byte	-1
 4103 0020 FF       		.byte	-1
 4104 0021 FF       		.byte	-1
 4105 0022 FF       		.byte	-1
 4106 0023 FF       		.byte	-1
 4107 0024 FF       		.byte	-1
 4108 0025 FF       		.byte	-1
 4109 0026 FF       		.byte	-1
 4110 0027 FF       		.byte	-1
 4111 0028 04       		.byte	4
 4112 0029 05       		.byte	5
 4113 002a 06       		.byte	6
 4114 002b 07       		.byte	7
 4115 002c 0C       		.byte	12
 4116 002d 0D       		.byte	13
 4117 002e 0E       		.byte	14
 4118 002f 0F       		.byte	15
 4119 0030 10       		.byte	16
 4120 0031 11       		.byte	17
 4121 0032 12       		.byte	18
 4122 0033 13       		.byte	19
 4123 0034 FF       		.byte	-1
 4124 0035 18       		.byte	24
 4125 0036 19       		.byte	25
ARM GAS  C:\Users\jo\AppData\Local\Temp\cc36ADTZ.s 			page 74


 4126 0037 FF       		.byte	-1
 4127 0038 1F       		.byte	31
 4128 0039 1C       		.byte	28
 4129 003a 1D       		.byte	29
 4130 003b 1E       		.byte	30
 4131 003c FF       		.byte	-1
 4132 003d FF       		.byte	-1
 4133 003e FF       		.byte	-1
 4134 003f FF       		.byte	-1
 4135 0040 FF       		.byte	-1
 4136 0041 FF       		.byte	-1
 4137 0042 FF       		.byte	-1
 4138 0043 FF       		.byte	-1
 4139 0044 FF       		.byte	-1
 4140 0045 FF       		.byte	-1
 4141 0046 FF       		.byte	-1
 4142 0047 FF       		.byte	-1
 4143 0048 FF       		.byte	-1
 4144 0049 FF       		.byte	-1
 4145 004a FF       		.byte	-1
 4146 004b FF       		.byte	-1
 4147 004c FF       		.byte	-1
 4148 004d FF       		.byte	-1
 4149 004e FF       		.byte	-1
 4150 004f FF       		.byte	-1
 4151 0050 00       		.byte	0
 4152 0051 01       		.byte	1
 4153 0052 02       		.byte	2
 4154 0053 03       		.byte	3
 4155 0054 3D       		.byte	61
 4156 0055 3E       		.byte	62
 4157 0056 3F       		.byte	63
 4158 0057 3C       		.byte	60
 4159 0058 FF       		.byte	-1
 4160 0059 FF       		.byte	-1
 4161 005a FF       		.byte	-1
 4162 005b FF       		.byte	-1
 4163 005c 1B       		.byte	27
 4164 005d 18       		.byte	24
 4165 005e 19       		.byte	25
 4166 005f 1A       		.byte	26
 4167 0060 23       		.byte	35
 4168 0061 20       		.byte	32
 4169 0062 21       		.byte	33
 4170 0063 22       		.byte	34
 4171 0064 FF       		.byte	-1
 4172 0065 FF       		.byte	-1
 4173 0066 FF       		.byte	-1
 4174 0067 FF       		.byte	-1
 4175 0068 08       		.byte	8
 4176 0069 09       		.byte	9
 4177 006a 0A       		.byte	10
 4178 006b 0B       		.byte	11
 4179 006c 10       		.byte	16
 4180 006d 11       		.byte	17
 4181 006e 12       		.byte	18
 4182 006f 13       		.byte	19
ARM GAS  C:\Users\jo\AppData\Local\Temp\cc36ADTZ.s 			page 75


 4183 0070 FF       		.byte	-1
 4184 0071 FF       		.byte	-1
 4185 0072 FF       		.byte	-1
 4186 0073 FF       		.byte	-1
 4187 0074 27       		.byte	39
 4188 0075 24       		.byte	36
 4189 0076 25       		.byte	37
 4190 0077 26       		.byte	38
 4191 0078 FF       		.byte	-1
 4192 0079 FF       		.byte	-1
 4193 007a FF       		.byte	-1
 4194 007b FF       		.byte	-1
 4195 007c 0C       		.byte	12
 4196 007d 0D       		.byte	13
 4197 007e 0E       		.byte	14
 4198 007f 0F       		.byte	15
 4199 0080 3A       		.byte	58
 4200 0081 3B       		.byte	59
 4201 0082 38       		.byte	56
 4202 0083 39       		.byte	57
 4203 0084 1F       		.byte	31
 4204 0085 1C       		.byte	28
 4205 0086 1D       		.byte	29
 4206 0087 1E       		.byte	30
 4207 0088 FF       		.byte	-1
 4208 0089 FF       		.byte	-1
 4209 008a FF       		.byte	-1
 4210 008b FF       		.byte	-1
 4211 008c 04       		.byte	4
 4212 008d 05       		.byte	5
 4213 008e 06       		.byte	6
 4214 008f 07       		.byte	7
 4215 0090 41       		.byte	65
 4216 0091 42       		.byte	66
 4217 0092 43       		.byte	67
 4218 0093 40       		.byte	64
 4219 0094 14       		.byte	20
 4220 0095 15       		.byte	21
 4221 0096 16       		.byte	22
 4222 0097 17       		.byte	23
 4223 0098 FF       		.byte	-1
 4224 0099 FF       		.byte	-1
 4225 009a FF       		.byte	-1
 4226 009b FF       		.byte	-1
 4227 009c 2B       		.byte	43
 4228 009d 28       		.byte	40
 4229 009e 29       		.byte	41
 4230 009f 2A       		.byte	42
 4231              		.section	.rodata.camellia_test_ecb_plain,"a",%progbits
 4232              		.align	2
 4233              		.set	.LANCHOR10,. + 0
 4234              		.type	camellia_test_ecb_plain, %object
 4235              		.size	camellia_test_ecb_plain, 32
 4236              	camellia_test_ecb_plain:
 4237 0000 01       		.byte	1
 4238 0001 23       		.byte	35
 4239 0002 45       		.byte	69
ARM GAS  C:\Users\jo\AppData\Local\Temp\cc36ADTZ.s 			page 76


 4240 0003 67       		.byte	103
 4241 0004 89       		.byte	-119
 4242 0005 AB       		.byte	-85
 4243 0006 CD       		.byte	-51
 4244 0007 EF       		.byte	-17
 4245 0008 FE       		.byte	-2
 4246 0009 DC       		.byte	-36
 4247 000a BA       		.byte	-70
 4248 000b 98       		.byte	-104
 4249 000c 76       		.byte	118
 4250 000d 54       		.byte	84
 4251 000e 32       		.byte	50
 4252 000f 10       		.byte	16
 4253 0010 00       		.byte	0
 4254 0011 00       		.byte	0
 4255 0012 00       		.byte	0
 4256 0013 00       		.byte	0
 4257 0014 02       		.byte	2
 4258 0015 00       		.byte	0
 4259 0016 00       		.byte	0
 4260 0017 00       		.byte	0
 4261 0018 00       		.byte	0
 4262 0019 00       		.byte	0
 4263 001a 00       		.byte	0
 4264 001b 00       		.byte	0
 4265 001c 00       		.byte	0
 4266 001d 00       		.byte	0
 4267 001e 00       		.byte	0
 4268 001f 00       		.byte	0
 4269              		.section	.rodata.camellia_test_cbc_key,"a",%progbits
 4270              		.align	2
 4271              		.set	.LANCHOR12,. + 0
 4272              		.type	camellia_test_cbc_key, %object
 4273              		.size	camellia_test_cbc_key, 96
 4274              	camellia_test_cbc_key:
 4275 0000 2B       		.byte	43
 4276 0001 7E       		.byte	126
 4277 0002 15       		.byte	21
 4278 0003 16       		.byte	22
 4279 0004 28       		.byte	40
 4280 0005 AE       		.byte	-82
 4281 0006 D2       		.byte	-46
 4282 0007 A6       		.byte	-90
 4283 0008 AB       		.byte	-85
 4284 0009 F7       		.byte	-9
 4285 000a 15       		.byte	21
 4286 000b 88       		.byte	-120
 4287 000c 09       		.byte	9
 4288 000d CF       		.byte	-49
 4289 000e 4F       		.byte	79
 4290 000f 3C       		.byte	60
 4291 0010 00000000 		.space	16
 4291      00000000 
 4291      00000000 
 4291      00000000 
 4292 0020 8E       		.byte	-114
 4293 0021 73       		.byte	115
ARM GAS  C:\Users\jo\AppData\Local\Temp\cc36ADTZ.s 			page 77


 4294 0022 B0       		.byte	-80
 4295 0023 F7       		.byte	-9
 4296 0024 DA       		.byte	-38
 4297 0025 0E       		.byte	14
 4298 0026 64       		.byte	100
 4299 0027 52       		.byte	82
 4300 0028 C8       		.byte	-56
 4301 0029 10       		.byte	16
 4302 002a F3       		.byte	-13
 4303 002b 2B       		.byte	43
 4304 002c 80       		.byte	-128
 4305 002d 90       		.byte	-112
 4306 002e 79       		.byte	121
 4307 002f E5       		.byte	-27
 4308 0030 62       		.byte	98
 4309 0031 F8       		.byte	-8
 4310 0032 EA       		.byte	-22
 4311 0033 D2       		.byte	-46
 4312 0034 52       		.byte	82
 4313 0035 2C       		.byte	44
 4314 0036 6B       		.byte	107
 4315 0037 7B       		.byte	123
 4316 0038 00000000 		.space	8
 4316      00000000 
 4317 0040 60       		.byte	96
 4318 0041 3D       		.byte	61
 4319 0042 EB       		.byte	-21
 4320 0043 10       		.byte	16
 4321 0044 15       		.byte	21
 4322 0045 CA       		.byte	-54
 4323 0046 71       		.byte	113
 4324 0047 BE       		.byte	-66
 4325 0048 2B       		.byte	43
 4326 0049 73       		.byte	115
 4327 004a AE       		.byte	-82
 4328 004b F0       		.byte	-16
 4329 004c 85       		.byte	-123
 4330 004d 7D       		.byte	125
 4331 004e 77       		.byte	119
 4332 004f 81       		.byte	-127
 4333 0050 1F       		.byte	31
 4334 0051 35       		.byte	53
 4335 0052 2C       		.byte	44
 4336 0053 07       		.byte	7
 4337 0054 3B       		.byte	59
 4338 0055 61       		.byte	97
 4339 0056 08       		.byte	8
 4340 0057 D7       		.byte	-41
 4341 0058 2D       		.byte	45
 4342 0059 98       		.byte	-104
 4343 005a 10       		.byte	16
 4344 005b A3       		.byte	-93
 4345 005c 09       		.byte	9
 4346 005d 14       		.byte	20
 4347 005e DF       		.byte	-33
 4348 005f F4       		.byte	-12
 4349              		.section	.rodata.camellia_test_ctr_len,"a",%progbits
ARM GAS  C:\Users\jo\AppData\Local\Temp\cc36ADTZ.s 			page 78


 4350              		.align	2
 4351              		.set	.LANCHOR17,. + 0
 4352              		.type	camellia_test_ctr_len, %object
 4353              		.size	camellia_test_ctr_len, 12
 4354              	camellia_test_ctr_len:
 4355 0000 10000000 		.word	16
 4356 0004 20000000 		.word	32
 4357 0008 24000000 		.word	36
 4358              		.section	.rodata.camellia_test_ctr_pt,"a",%progbits
 4359              		.align	2
 4360              		.set	.LANCHOR19,. + 0
 4361              		.type	camellia_test_ctr_pt, %object
 4362              		.size	camellia_test_ctr_pt, 144
 4363              	camellia_test_ctr_pt:
 4364 0000 53       		.byte	83
 4365 0001 69       		.byte	105
 4366 0002 6E       		.byte	110
 4367 0003 67       		.byte	103
 4368 0004 6C       		.byte	108
 4369 0005 65       		.byte	101
 4370 0006 20       		.byte	32
 4371 0007 62       		.byte	98
 4372 0008 6C       		.byte	108
 4373 0009 6F       		.byte	111
 4374 000a 63       		.byte	99
 4375 000b 6B       		.byte	107
 4376 000c 20       		.byte	32
 4377 000d 6D       		.byte	109
 4378 000e 73       		.byte	115
 4379 000f 67       		.byte	103
 4380 0010 00000000 		.space	32
 4380      00000000 
 4380      00000000 
 4380      00000000 
 4380      00000000 
 4381 0030 00       		.byte	0
 4382 0031 01       		.byte	1
 4383 0032 02       		.byte	2
 4384 0033 03       		.byte	3
 4385 0034 04       		.byte	4
 4386 0035 05       		.byte	5
 4387 0036 06       		.byte	6
 4388 0037 07       		.byte	7
 4389 0038 08       		.byte	8
 4390 0039 09       		.byte	9
 4391 003a 0A       		.byte	10
 4392 003b 0B       		.byte	11
 4393 003c 0C       		.byte	12
 4394 003d 0D       		.byte	13
 4395 003e 0E       		.byte	14
 4396 003f 0F       		.byte	15
 4397 0040 10       		.byte	16
 4398 0041 11       		.byte	17
 4399 0042 12       		.byte	18
 4400 0043 13       		.byte	19
 4401 0044 14       		.byte	20
 4402 0045 15       		.byte	21
ARM GAS  C:\Users\jo\AppData\Local\Temp\cc36ADTZ.s 			page 79


 4403 0046 16       		.byte	22
 4404 0047 17       		.byte	23
 4405 0048 18       		.byte	24
 4406 0049 19       		.byte	25
 4407 004a 1A       		.byte	26
 4408 004b 1B       		.byte	27
 4409 004c 1C       		.byte	28
 4410 004d 1D       		.byte	29
 4411 004e 1E       		.byte	30
 4412 004f 1F       		.byte	31
 4413 0050 00000000 		.space	16
 4413      00000000 
 4413      00000000 
 4413      00000000 
 4414 0060 00       		.byte	0
 4415 0061 01       		.byte	1
 4416 0062 02       		.byte	2
 4417 0063 03       		.byte	3
 4418 0064 04       		.byte	4
 4419 0065 05       		.byte	5
 4420 0066 06       		.byte	6
 4421 0067 07       		.byte	7
 4422 0068 08       		.byte	8
 4423 0069 09       		.byte	9
 4424 006a 0A       		.byte	10
 4425 006b 0B       		.byte	11
 4426 006c 0C       		.byte	12
 4427 006d 0D       		.byte	13
 4428 006e 0E       		.byte	14
 4429 006f 0F       		.byte	15
 4430 0070 10       		.byte	16
 4431 0071 11       		.byte	17
 4432 0072 12       		.byte	18
 4433 0073 13       		.byte	19
 4434 0074 14       		.byte	20
 4435 0075 15       		.byte	21
 4436 0076 16       		.byte	22
 4437 0077 17       		.byte	23
 4438 0078 18       		.byte	24
 4439 0079 19       		.byte	25
 4440 007a 1A       		.byte	26
 4441 007b 1B       		.byte	27
 4442 007c 1C       		.byte	28
 4443 007d 1D       		.byte	29
 4444 007e 1E       		.byte	30
 4445 007f 1F       		.byte	31
 4446 0080 20       		.byte	32
 4447 0081 21       		.byte	33
 4448 0082 22       		.byte	34
 4449 0083 23       		.byte	35
 4450 0084 00000000 		.space	12
 4450      00000000 
 4450      00000000 
 4451              		.section	.rodata.camellia_test_ecb_key,"a",%progbits
 4452              		.align	2
 4453              		.set	.LANCHOR8,. + 0
 4454              		.type	camellia_test_ecb_key, %object
ARM GAS  C:\Users\jo\AppData\Local\Temp\cc36ADTZ.s 			page 80


 4455              		.size	camellia_test_ecb_key, 192
 4456              	camellia_test_ecb_key:
 4457 0000 01       		.byte	1
 4458 0001 23       		.byte	35
 4459 0002 45       		.byte	69
 4460 0003 67       		.byte	103
 4461 0004 89       		.byte	-119
 4462 0005 AB       		.byte	-85
 4463 0006 CD       		.byte	-51
 4464 0007 EF       		.byte	-17
 4465 0008 FE       		.byte	-2
 4466 0009 DC       		.byte	-36
 4467 000a BA       		.byte	-70
 4468 000b 98       		.byte	-104
 4469 000c 76       		.byte	118
 4470 000d 54       		.byte	84
 4471 000e 32       		.byte	50
 4472 000f 10       		.byte	16
 4473 0010 00000000 		.space	16
 4473      00000000 
 4473      00000000 
 4473      00000000 
 4474 0020 00       		.byte	0
 4475 0021 00       		.byte	0
 4476 0022 00       		.byte	0
 4477 0023 00       		.byte	0
 4478 0024 00       		.byte	0
 4479 0025 00       		.byte	0
 4480 0026 00       		.byte	0
 4481 0027 00       		.byte	0
 4482 0028 00       		.byte	0
 4483 0029 00       		.byte	0
 4484 002a 00       		.byte	0
 4485 002b 00       		.byte	0
 4486 002c 00       		.byte	0
 4487 002d 00       		.byte	0
 4488 002e 00       		.byte	0
 4489 002f 00       		.byte	0
 4490 0030 00000000 		.space	16
 4490      00000000 
 4490      00000000 
 4490      00000000 
 4491 0040 01       		.byte	1
 4492 0041 23       		.byte	35
 4493 0042 45       		.byte	69
 4494 0043 67       		.byte	103
 4495 0044 89       		.byte	-119
 4496 0045 AB       		.byte	-85
 4497 0046 CD       		.byte	-51
 4498 0047 EF       		.byte	-17
 4499 0048 FE       		.byte	-2
 4500 0049 DC       		.byte	-36
 4501 004a BA       		.byte	-70
 4502 004b 98       		.byte	-104
 4503 004c 76       		.byte	118
 4504 004d 54       		.byte	84
 4505 004e 32       		.byte	50
ARM GAS  C:\Users\jo\AppData\Local\Temp\cc36ADTZ.s 			page 81


 4506 004f 10       		.byte	16
 4507 0050 00       		.byte	0
 4508 0051 11       		.byte	17
 4509 0052 22       		.byte	34
 4510 0053 33       		.byte	51
 4511 0054 44       		.byte	68
 4512 0055 55       		.byte	85
 4513 0056 66       		.byte	102
 4514 0057 77       		.byte	119
 4515 0058 00000000 		.space	8
 4515      00000000 
 4516 0060 00       		.byte	0
 4517 0061 00       		.byte	0
 4518 0062 00       		.byte	0
 4519 0063 00       		.byte	0
 4520 0064 00       		.byte	0
 4521 0065 00       		.byte	0
 4522 0066 00       		.byte	0
 4523 0067 00       		.byte	0
 4524 0068 00       		.byte	0
 4525 0069 00       		.byte	0
 4526 006a 00       		.byte	0
 4527 006b 00       		.byte	0
 4528 006c 00       		.byte	0
 4529 006d 00       		.byte	0
 4530 006e 00       		.byte	0
 4531 006f 00       		.byte	0
 4532 0070 00       		.byte	0
 4533 0071 00       		.byte	0
 4534 0072 00       		.byte	0
 4535 0073 00       		.byte	0
 4536 0074 00       		.byte	0
 4537 0075 00       		.byte	0
 4538 0076 00       		.byte	0
 4539 0077 00       		.byte	0
 4540 0078 00000000 		.space	8
 4540      00000000 
 4541 0080 01       		.byte	1
 4542 0081 23       		.byte	35
 4543 0082 45       		.byte	69
 4544 0083 67       		.byte	103
 4545 0084 89       		.byte	-119
 4546 0085 AB       		.byte	-85
 4547 0086 CD       		.byte	-51
 4548 0087 EF       		.byte	-17
 4549 0088 FE       		.byte	-2
 4550 0089 DC       		.byte	-36
 4551 008a BA       		.byte	-70
 4552 008b 98       		.byte	-104
 4553 008c 76       		.byte	118
 4554 008d 54       		.byte	84
 4555 008e 32       		.byte	50
 4556 008f 10       		.byte	16
 4557 0090 00       		.byte	0
 4558 0091 11       		.byte	17
 4559 0092 22       		.byte	34
 4560 0093 33       		.byte	51
ARM GAS  C:\Users\jo\AppData\Local\Temp\cc36ADTZ.s 			page 82


 4561 0094 44       		.byte	68
 4562 0095 55       		.byte	85
 4563 0096 66       		.byte	102
 4564 0097 77       		.byte	119
 4565 0098 88       		.byte	-120
 4566 0099 99       		.byte	-103
 4567 009a AA       		.byte	-86
 4568 009b BB       		.byte	-69
 4569 009c CC       		.byte	-52
 4570 009d DD       		.byte	-35
 4571 009e EE       		.byte	-18
 4572 009f FF       		.byte	-1
 4573 00a0 00       		.byte	0
 4574 00a1 00       		.byte	0
 4575 00a2 00       		.byte	0
 4576 00a3 00       		.byte	0
 4577 00a4 00       		.byte	0
 4578 00a5 00       		.byte	0
 4579 00a6 00       		.byte	0
 4580 00a7 00       		.byte	0
 4581 00a8 00       		.byte	0
 4582 00a9 00       		.byte	0
 4583 00aa 00       		.byte	0
 4584 00ab 00       		.byte	0
 4585 00ac 00       		.byte	0
 4586 00ad 00       		.byte	0
 4587 00ae 00       		.byte	0
 4588 00af 00       		.byte	0
 4589 00b0 00       		.byte	0
 4590 00b1 00       		.byte	0
 4591 00b2 00       		.byte	0
 4592 00b3 00       		.byte	0
 4593 00b4 00       		.byte	0
 4594 00b5 00       		.byte	0
 4595 00b6 00       		.byte	0
 4596 00b7 00       		.byte	0
 4597 00b8 00       		.byte	0
 4598 00b9 00       		.byte	0
 4599 00ba 00       		.byte	0
 4600 00bb 00       		.byte	0
 4601 00bc 00       		.byte	0
 4602 00bd 00       		.byte	0
 4603 00be 00       		.byte	0
 4604 00bf 00       		.byte	0
 4605              		.text
 4606              	.Letext0:
 4607              		.file 2 "c:\\program files\\gnu tools arm embedded\\4.9 2014q4\\lib\\gcc\\arm-none-eabi\\4.9.3\\in
 4608              		.file 3 "c:\\program files\\gnu tools arm embedded\\4.9 2014q4\\arm-none-eabi\\include\\machine\\_
 4609              		.file 4 "c:\\program files\\gnu tools arm embedded\\4.9 2014q4\\arm-none-eabi\\include\\stdint.h"
 4610              		.file 5 "../../../ext/mbedtls-1.3.11/library/../include/polarssl/camellia.h"
 4611              		.file 6 "c:\\program files\\gnu tools arm embedded\\4.9 2014q4\\arm-none-eabi\\include\\stdio.h"
 4612              		.file 7 "c:\\program files\\gnu tools arm embedded\\4.9 2014q4\\arm-none-eabi\\include\\string.h"
 4613              		.file 8 "<built-in>"