ARM GAS  C:\Users\jo\AppData\Local\Temp\ccUHdSxL.s 			page 1


   1              		.syntax unified
   2              		.cpu cortex-m4
   3              		.fpu softvfp
   4              		.eabi_attribute 20, 1
   5              		.eabi_attribute 21, 1
   6              		.eabi_attribute 23, 3
   7              		.eabi_attribute 24, 1
   8              		.eabi_attribute 25, 1
   9              		.eabi_attribute 26, 1
  10              		.eabi_attribute 30, 2
  11              		.eabi_attribute 34, 1
  12              		.eabi_attribute 18, 4
  13              		.thumb
  14              		.file	"chcore_v7m.c"
  15              		.text
  16              	.Ltext0:
  17              		.cfi_sections	.debug_frame
  18              		.section	.text.SVC_Handler,"ax",%progbits
  19              		.align	2
  20              		.p2align 4,,15
  21              		.global	SVC_Handler
  22              		.thumb
  23              		.thumb_func
  24              		.type	SVC_Handler, %function
  25              	SVC_Handler:
  26              	.LFB228:
  27              		.file 1 "../../../os/rt/ports/ARMCMx/chcore_v7m.c"
  28              		.loc 1 62 0
  29              		.cfi_startproc
  30              		@ args = 0, pretend = 0, frame = 0
  31              		@ frame_needed = 0, uses_anonymous_args = 0
  32              		@ link register save eliminated.
  33              	.LBB38:
  34              	.LBB39:
  35              		.file 2 "../../../os/ext/CMSIS/include/core_cmFunc.h"
  36              		.loc 2 428 0
  37              	@ 428 "../../../os/ext/CMSIS/include/core_cmFunc.h" 1
  38 0000 EFF30983 		MRS r3, psp
  39              	
  40              	@ 0 "" 2
  41              	.LVL0:
  42              		.thumb
  43              	.LBE39:
  44              	.LBE38:
  45              		.loc 1 76 0
  46 0004 2033     		adds	r3, r3, #32
  47              	.LVL1:
  48              	.LBB40:
  49              	.LBB41:
  50              		.loc 2 441 0
  51              	@ 441 "../../../os/ext/CMSIS/include/core_cmFunc.h" 1
  52 0006 83F30988 		MSR psp, r3
  53              	
  54              	@ 0 "" 2
  55              	.LVL2:
  56              		.thumb
  57              	.LBE41:
ARM GAS  C:\Users\jo\AppData\Local\Temp\ccUHdSxL.s 			page 2


  58              	.LBE40:
  59              	.LBB42:
  60              	.LBB43:
  61              	.LBB44:
  62              	.LBB45:
  63              		.loc 2 546 0
  64 000a 0023     		movs	r3, #0
  65              	.LVL3:
  66              	@ 546 "../../../os/ext/CMSIS/include/core_cmFunc.h" 1
  67 000c 83F31188 		MSR basepri, r3
  68              	@ 0 "" 2
  69              		.thumb
  70 0010 7047     		bx	lr
  71              	.LBE45:
  72              	.LBE44:
  73              	.LBE43:
  74              	.LBE42:
  75              		.cfi_endproc
  76              	.LFE228:
  77              		.size	SVC_Handler, .-SVC_Handler
  78 0012 00BFAFF3 		.section	.text._port_irq_epilogue,"ax",%progbits
  78      0080AFF3 
  78      0080AFF3 
  78      0080
  79              		.align	2
  80              		.p2align 4,,15
  81              		.global	_port_irq_epilogue
  82              		.thumb
  83              		.thumb_func
  84              		.type	_port_irq_epilogue, %function
  85              	_port_irq_epilogue:
  86              	.LFB229:
  87              		.loc 1 122 0
  88              		.cfi_startproc
  89              		@ args = 0, pretend = 0, frame = 0
  90              		@ frame_needed = 0, uses_anonymous_args = 0
  91              	.LVL4:
  92              	.LBB46:
  93              	.LBB47:
  94              	.LBB48:
  95              	.LBB49:
  96              		.loc 2 546 0
  97 0000 2023     		movs	r3, #32
  98              	@ 546 "../../../os/ext/CMSIS/include/core_cmFunc.h" 1
  99 0002 83F31188 		MSR basepri, r3
 100              	@ 0 "" 2
 101              		.thumb
 102              	.LBE49:
 103              	.LBE48:
 104              	.LBE47:
 105              	.LBE46:
 106              		.loc 1 125 0
 107 0006 0F4B     		ldr	r3, .L10
 108 0008 5B68     		ldr	r3, [r3, #4]
 109 000a 13F40063 		ands	r3, r3, #2048
 110 000e 02D1     		bne	.L9
 111              	.LVL5:
ARM GAS  C:\Users\jo\AppData\Local\Temp\ccUHdSxL.s 			page 3


 112              	.LBB50:
 113              	.LBB51:
 114              	.LBB52:
 115              	.LBB53:
 116              		.loc 2 546 0
 117              	@ 546 "../../../os/ext/CMSIS/include/core_cmFunc.h" 1
 118 0010 83F31188 		MSR basepri, r3
 119              	@ 0 "" 2
 120              		.thumb
 121 0014 7047     		bx	lr
 122              	.LVL6:
 123              	.L9:
 124              	.LBE53:
 125              	.LBE52:
 126              	.LBE51:
 127              	.LBE50:
 128              		.loc 1 122 0
 129 0016 10B5     		push	{r4, lr}
 130              		.cfi_def_cfa_offset 8
 131              		.cfi_offset 4, -8
 132              		.cfi_offset 14, -4
 133              	.LBB54:
 134              	.LBB55:
 135              	.LBB56:
 136              		.loc 2 428 0
 137              	@ 428 "../../../os/ext/CMSIS/include/core_cmFunc.h" 1
 138 0018 EFF30984 		MRS r4, psp
 139              	
 140              	@ 0 "" 2
 141              	.LVL7:
 142              		.thumb
 143              	.LBE56:
 144              	.LBE55:
 145              		.loc 1 141 0
 146 001c 4FF08073 		mov	r3, #16777216
 147 0020 44F8043C 		str	r3, [r4, #-4]
 148              	.LVL8:
 149              		.loc 1 138 0
 150 0024 A4F12003 		sub	r3, r4, #32
 151              	.LVL9:
 152              	.LBB57:
 153              	.LBB58:
 154              		.loc 2 441 0
 155              	@ 441 "../../../os/ext/CMSIS/include/core_cmFunc.h" 1
 156 0028 83F30988 		MSR psp, r3
 157              	
 158              	@ 0 "" 2
 159              		.thumb
 160              	.LBE58:
 161              	.LBE57:
 162              		.loc 1 151 0
 163 002c FFF7FEFF 		bl	chSchIsPreemptionRequired
 164              	.LVL10:
 165 0030 18B1     		cbz	r0, .L4
 166              		.loc 1 153 0
 167 0032 054B     		ldr	r3, .L10+4
 168 0034 44F8083C 		str	r3, [r4, #-8]
ARM GAS  C:\Users\jo\AppData\Local\Temp\ccUHdSxL.s 			page 4


 169 0038 10BD     		pop	{r4, pc}
 170              	.LVL11:
 171              	.L4:
 172              		.loc 1 158 0
 173 003a 044B     		ldr	r3, .L10+8
 174 003c 44F8083C 		str	r3, [r4, #-8]
 175 0040 10BD     		pop	{r4, pc}
 176              	.LVL12:
 177              	.L11:
 178 0042 00BF     		.align	2
 179              	.L10:
 180 0044 00ED00E0 		.word	-536810240
 181 0048 00000000 		.word	_port_switch_from_isr
 182 004c 00000000 		.word	_port_exit_from_isr
 183              	.LBE54:
 184              		.cfi_endproc
 185              	.LFE229:
 186              		.size	_port_irq_epilogue, .-_port_irq_epilogue
 187              		.text
 188              	.Letext0:
 189              		.file 3 "c:\\program files\\gnu tools arm embedded\\4.9 2014q4\\arm-none-eabi\\include\\machine\\_
 190              		.file 4 "c:\\program files\\gnu tools arm embedded\\4.9 2014q4\\arm-none-eabi\\include\\stdint.h"
 191              		.file 5 "../../../os/rt/ports/ARMCMx/compilers/GCC/chtypes.h"
 192              		.file 6 "../../../os/rt/include/chsystypes.h"
 193              		.file 7 "../../../os/rt/include/chschd.h"
 194              		.file 8 "../../../os/ext/CMSIS/include/core_cm4.h"
 195              		.file 9 "../../../os/rt/ports/ARMCMx/chcore.h"
 196              		.file 10 "../../../os/rt/ports/ARMCMx/chcore_v7m.h"
 197              		.file 11 "../../../os/rt/include/chdebug.h"
 198              		.file 12 "../../../os/rt/include/chtm.h"
 199              		.file 13 "../../../os/rt/include/chsem.h"
 200              		.file 14 "../../../os/rt/include/chmtx.h"
 201              		.section	.debug_info,"",%progbits
 202              	.Ldebug_info0:
 203 0000 220B0000 		.4byte	0xb22
 204 0004 0400     		.2byte	0x4
 205 0006 00000000 		.4byte	.Ldebug_abbrev0
 206 000a 04       		.byte	0x4
 207 000b 01       		.uleb128 0x1
 208 000c F6020000 		.4byte	.LASF146
 209 0010 01       		.byte	0x1
 210 0011 80010000 		.4byte	.LASF147
 211 0015 D4000000 		.4byte	.LASF148
 212 0019 00000000 		.4byte	.Ldebug_ranges0+0
 213 001d 00000000 		.4byte	0
 214 0021 00000000 		.4byte	.Ldebug_line0
 215 0025 02       		.uleb128 0x2
 216 0026 04       		.byte	0x4
 217 0027 05       		.byte	0x5
 218 0028 696E7400 		.ascii	"int\000"
 219 002c 03       		.uleb128 0x3
 220 002d 04       		.byte	0x4
 221 002e 07       		.byte	0x7
 222 002f 44020000 		.4byte	.LASF0
 223 0033 03       		.uleb128 0x3
 224 0034 01       		.byte	0x1
 225 0035 06       		.byte	0x6
ARM GAS  C:\Users\jo\AppData\Local\Temp\ccUHdSxL.s 			page 5


 226 0036 35010000 		.4byte	.LASF1
 227 003a 04       		.uleb128 0x4
 228 003b 2B000000 		.4byte	.LASF5
 229 003f 03       		.byte	0x3
 230 0040 1D       		.byte	0x1d
 231 0041 45000000 		.4byte	0x45
 232 0045 03       		.uleb128 0x3
 233 0046 01       		.byte	0x1
 234 0047 08       		.byte	0x8
 235 0048 EA040000 		.4byte	.LASF2
 236 004c 03       		.uleb128 0x3
 237 004d 02       		.byte	0x2
 238 004e 05       		.byte	0x5
 239 004f 15050000 		.4byte	.LASF3
 240 0053 03       		.uleb128 0x3
 241 0054 02       		.byte	0x2
 242 0055 07       		.byte	0x7
 243 0056 51050000 		.4byte	.LASF4
 244 005a 04       		.uleb128 0x4
 245 005b EC020000 		.4byte	.LASF6
 246 005f 03       		.byte	0x3
 247 0060 3F       		.byte	0x3f
 248 0061 65000000 		.4byte	0x65
 249 0065 03       		.uleb128 0x3
 250 0066 04       		.byte	0x4
 251 0067 05       		.byte	0x5
 252 0068 6E010000 		.4byte	.LASF7
 253 006c 04       		.uleb128 0x4
 254 006d 2B060000 		.4byte	.LASF8
 255 0071 03       		.byte	0x3
 256 0072 41       		.byte	0x41
 257 0073 77000000 		.4byte	0x77
 258 0077 03       		.uleb128 0x3
 259 0078 04       		.byte	0x4
 260 0079 07       		.byte	0x7
 261 007a D1050000 		.4byte	.LASF9
 262 007e 03       		.uleb128 0x3
 263 007f 08       		.byte	0x8
 264 0080 05       		.byte	0x5
 265 0081 27010000 		.4byte	.LASF10
 266 0085 04       		.uleb128 0x4
 267 0086 8B040000 		.4byte	.LASF11
 268 008a 03       		.byte	0x3
 269 008b 5B       		.byte	0x5b
 270 008c 90000000 		.4byte	0x90
 271 0090 03       		.uleb128 0x3
 272 0091 08       		.byte	0x8
 273 0092 07       		.byte	0x7
 274 0093 5A000000 		.4byte	.LASF12
 275 0097 04       		.uleb128 0x4
 276 0098 C8060000 		.4byte	.LASF13
 277 009c 04       		.byte	0x4
 278 009d 15       		.byte	0x15
 279 009e 3A000000 		.4byte	0x3a
 280 00a2 04       		.uleb128 0x4
 281 00a3 E2040000 		.4byte	.LASF14
 282 00a7 04       		.byte	0x4
ARM GAS  C:\Users\jo\AppData\Local\Temp\ccUHdSxL.s 			page 6


 283 00a8 2C       		.byte	0x2c
 284 00a9 5A000000 		.4byte	0x5a
 285 00ad 04       		.uleb128 0x4
 286 00ae A0050000 		.4byte	.LASF15
 287 00b2 04       		.byte	0x4
 288 00b3 2D       		.byte	0x2d
 289 00b4 6C000000 		.4byte	0x6c
 290 00b8 04       		.uleb128 0x4
 291 00b9 22000000 		.4byte	.LASF16
 292 00bd 04       		.byte	0x4
 293 00be 39       		.byte	0x39
 294 00bf 85000000 		.4byte	0x85
 295 00c3 05       		.uleb128 0x5
 296 00c4 A2000000 		.4byte	0xa2
 297 00c8 05       		.uleb128 0x5
 298 00c9 AD000000 		.4byte	0xad
 299 00cd 04       		.uleb128 0x4
 300 00ce 69060000 		.4byte	.LASF17
 301 00d2 05       		.byte	0x5
 302 00d3 45       		.byte	0x45
 303 00d4 AD000000 		.4byte	0xad
 304 00d8 04       		.uleb128 0x4
 305 00d9 41050000 		.4byte	.LASF18
 306 00dd 05       		.byte	0x5
 307 00de 48       		.byte	0x48
 308 00df 97000000 		.4byte	0x97
 309 00e3 04       		.uleb128 0x4
 310 00e4 77010000 		.4byte	.LASF19
 311 00e8 05       		.byte	0x5
 312 00e9 49       		.byte	0x49
 313 00ea 97000000 		.4byte	0x97
 314 00ee 04       		.uleb128 0x4
 315 00ef 96040000 		.4byte	.LASF20
 316 00f3 05       		.byte	0x5
 317 00f4 4A       		.byte	0x4a
 318 00f5 97000000 		.4byte	0x97
 319 00f9 04       		.uleb128 0x4
 320 00fa C4040000 		.4byte	.LASF21
 321 00fe 05       		.byte	0x5
 322 00ff 4C       		.byte	0x4c
 323 0100 AD000000 		.4byte	0xad
 324 0104 04       		.uleb128 0x4
 325 0105 8F020000 		.4byte	.LASF22
 326 0109 05       		.byte	0x5
 327 010a 4D       		.byte	0x4d
 328 010b A2000000 		.4byte	0xa2
 329 010f 04       		.uleb128 0x4
 330 0110 D1020000 		.4byte	.LASF23
 331 0114 05       		.byte	0x5
 332 0115 4F       		.byte	0x4f
 333 0116 AD000000 		.4byte	0xad
 334 011a 04       		.uleb128 0x4
 335 011b 33020000 		.4byte	.LASF24
 336 011f 05       		.byte	0x5
 337 0120 51       		.byte	0x51
 338 0121 A2000000 		.4byte	0xa2
 339 0125 04       		.uleb128 0x4
ARM GAS  C:\Users\jo\AppData\Local\Temp\ccUHdSxL.s 			page 7


 340 0126 0D060000 		.4byte	.LASF25
 341 012a 06       		.byte	0x6
 342 012b 33       		.byte	0x33
 343 012c AD000000 		.4byte	0xad
 344 0130 04       		.uleb128 0x4
 345 0131 FD050000 		.4byte	.LASF26
 346 0135 06       		.byte	0x6
 347 0136 3F       		.byte	0x3f
 348 0137 3B010000 		.4byte	0x13b
 349 013b 06       		.uleb128 0x6
 350 013c 80020000 		.4byte	.LASF47
 351 0140 48       		.byte	0x48
 352 0141 07       		.byte	0x7
 353 0142 C2       		.byte	0xc2
 354 0143 34020000 		.4byte	0x234
 355 0147 07       		.uleb128 0x7
 356 0148 3A050000 		.4byte	.LASF27
 357 014c 07       		.byte	0x7
 358 014d C3       		.byte	0xc3
 359 014e 3F020000 		.4byte	0x23f
 360 0152 00       		.byte	0
 361 0153 07       		.uleb128 0x7
 362 0154 BD040000 		.4byte	.LASF28
 363 0158 07       		.byte	0x7
 364 0159 C5       		.byte	0xc5
 365 015a 3F020000 		.4byte	0x23f
 366 015e 04       		.byte	0x4
 367 015f 07       		.uleb128 0x7
 368 0160 CD000000 		.4byte	.LASF29
 369 0164 07       		.byte	0x7
 370 0165 C7       		.byte	0xc7
 371 0166 F9000000 		.4byte	0xf9
 372 016a 08       		.byte	0x8
 373 016b 07       		.uleb128 0x7
 374 016c 15070000 		.4byte	.LASF30
 375 0170 07       		.byte	0x7
 376 0171 C8       		.byte	0xc8
 377 0172 29060000 		.4byte	0x629
 378 0176 0C       		.byte	0xc
 379 0177 07       		.uleb128 0x7
 380 0178 C9010000 		.4byte	.LASF31
 381 017c 07       		.byte	0x7
 382 017d CA       		.byte	0xca
 383 017e 3F020000 		.4byte	0x23f
 384 0182 10       		.byte	0x10
 385 0183 07       		.uleb128 0x7
 386 0184 4E040000 		.4byte	.LASF32
 387 0188 07       		.byte	0x7
 388 0189 CB       		.byte	0xcb
 389 018a 3F020000 		.4byte	0x23f
 390 018e 14       		.byte	0x14
 391 018f 07       		.uleb128 0x7
 392 0190 D7060000 		.4byte	.LASF33
 393 0194 07       		.byte	0x7
 394 0195 D2       		.byte	0xd2
 395 0196 A3080000 		.4byte	0x8a3
 396 019a 18       		.byte	0x18
ARM GAS  C:\Users\jo\AppData\Local\Temp\ccUHdSxL.s 			page 8


 397 019b 07       		.uleb128 0x7
 398 019c 39020000 		.4byte	.LASF34
 399 01a0 07       		.byte	0x7
 400 01a1 D8       		.byte	0xd8
 401 01a2 B5080000 		.4byte	0x8b5
 402 01a6 1C       		.byte	0x1c
 403 01a7 07       		.uleb128 0x7
 404 01a8 1F050000 		.4byte	.LASF35
 405 01ac 07       		.byte	0x7
 406 01ad DD       		.byte	0xdd
 407 01ae E3000000 		.4byte	0xe3
 408 01b2 20       		.byte	0x20
 409 01b3 07       		.uleb128 0x7
 410 01b4 49050000 		.4byte	.LASF36
 411 01b8 07       		.byte	0x7
 412 01b9 E1       		.byte	0xe1
 413 01ba D8000000 		.4byte	0xd8
 414 01be 21       		.byte	0x21
 415 01bf 07       		.uleb128 0x7
 416 01c0 AE060000 		.4byte	.LASF37
 417 01c4 07       		.byte	0x7
 418 01c5 E6       		.byte	0xe6
 419 01c6 EE000000 		.4byte	0xee
 420 01ca 22       		.byte	0x22
 421 01cb 08       		.uleb128 0x8
 422 01cc 705F7500 		.ascii	"p_u\000"
 423 01d0 07       		.byte	0x7
 424 01d1 3101     		.2byte	0x131
 425 01d3 DE070000 		.4byte	0x7de
 426 01d7 24       		.byte	0x24
 427 01d8 09       		.uleb128 0x9
 428 01d9 EA030000 		.4byte	.LASF38
 429 01dd 07       		.byte	0x7
 430 01de 3601     		.2byte	0x136
 431 01e0 45020000 		.4byte	0x245
 432 01e4 28       		.byte	0x28
 433 01e5 09       		.uleb128 0x9
 434 01e6 6A020000 		.4byte	.LASF39
 435 01ea 07       		.byte	0x7
 436 01eb 3C01     		.2byte	0x13c
 437 01ed 69020000 		.4byte	0x269
 438 01f1 2C       		.byte	0x2c
 439 01f2 09       		.uleb128 0x9
 440 01f3 EB060000 		.4byte	.LASF40
 441 01f7 07       		.byte	0x7
 442 01f8 4001     		.2byte	0x140
 443 01fa 04010000 		.4byte	0x104
 444 01fe 34       		.byte	0x34
 445 01ff 09       		.uleb128 0x9
 446 0200 95050000 		.4byte	.LASF41
 447 0204 07       		.byte	0x7
 448 0205 4601     		.2byte	0x146
 449 0207 0F010000 		.4byte	0x10f
 450 020b 38       		.byte	0x38
 451 020c 09       		.uleb128 0x9
 452 020d 0B050000 		.4byte	.LASF42
 453 0211 07       		.byte	0x7
ARM GAS  C:\Users\jo\AppData\Local\Temp\ccUHdSxL.s 			page 9


 454 0212 4D01     		.2byte	0x14d
 455 0214 9D080000 		.4byte	0x89d
 456 0218 3C       		.byte	0x3c
 457 0219 09       		.uleb128 0x9
 458 021a 17060000 		.4byte	.LASF43
 459 021e 07       		.byte	0x7
 460 021f 5101     		.2byte	0x151
 461 0221 F9000000 		.4byte	0xf9
 462 0225 40       		.byte	0x40
 463 0226 09       		.uleb128 0x9
 464 0227 41010000 		.4byte	.LASF44
 465 022b 07       		.byte	0x7
 466 022c 5801     		.2byte	0x158
 467 022e 1C030000 		.4byte	0x31c
 468 0232 44       		.byte	0x44
 469 0233 00       		.byte	0
 470 0234 04       		.uleb128 0x4
 471 0235 FD030000 		.4byte	.LASF45
 472 0239 06       		.byte	0x6
 473 023a 44       		.byte	0x44
 474 023b 3F020000 		.4byte	0x23f
 475 023f 0A       		.uleb128 0xa
 476 0240 04       		.byte	0x4
 477 0241 30010000 		.4byte	0x130
 478 0245 04       		.uleb128 0x4
 479 0246 DB030000 		.4byte	.LASF46
 480 024a 06       		.byte	0x6
 481 024b 49       		.byte	0x49
 482 024c 50020000 		.4byte	0x250
 483 0250 06       		.uleb128 0x6
 484 0251 C1050000 		.4byte	.LASF48
 485 0255 04       		.byte	0x4
 486 0256 07       		.byte	0x7
 487 0257 B0       		.byte	0xb0
 488 0258 69020000 		.4byte	0x269
 489 025c 07       		.uleb128 0x7
 490 025d 3A050000 		.4byte	.LASF27
 491 0261 07       		.byte	0x7
 492 0262 B1       		.byte	0xb1
 493 0263 3F020000 		.4byte	0x23f
 494 0267 00       		.byte	0
 495 0268 00       		.byte	0
 496 0269 04       		.uleb128 0x4
 497 026a 95060000 		.4byte	.LASF49
 498 026e 06       		.byte	0x6
 499 026f 50       		.byte	0x50
 500 0270 74020000 		.4byte	0x274
 501 0274 06       		.uleb128 0x6
 502 0275 BC000000 		.4byte	.LASF50
 503 0279 08       		.byte	0x8
 504 027a 07       		.byte	0x7
 505 027b B7       		.byte	0xb7
 506 027c 99020000 		.4byte	0x299
 507 0280 07       		.uleb128 0x7
 508 0281 3A050000 		.4byte	.LASF27
 509 0285 07       		.byte	0x7
 510 0286 B8       		.byte	0xb8
ARM GAS  C:\Users\jo\AppData\Local\Temp\ccUHdSxL.s 			page 10


 511 0287 3F020000 		.4byte	0x23f
 512 028b 00       		.byte	0
 513 028c 07       		.uleb128 0x7
 514 028d BD040000 		.4byte	.LASF28
 515 0291 07       		.byte	0x7
 516 0292 B9       		.byte	0xb9
 517 0293 3F020000 		.4byte	0x23f
 518 0297 04       		.byte	0x4
 519 0298 00       		.byte	0
 520 0299 04       		.uleb128 0x4
 521 029a 00000000 		.4byte	.LASF51
 522 029e 06       		.byte	0x6
 523 029f 57       		.byte	0x57
 524 02a0 A4020000 		.4byte	0x2a4
 525 02a4 0B       		.uleb128 0xb
 526 02a5 C3020000 		.4byte	.LASF52
 527 02a9 1C       		.byte	0x1c
 528 02aa 07       		.byte	0x7
 529 02ab 9001     		.2byte	0x190
 530 02ad 00030000 		.4byte	0x300
 531 02b1 09       		.uleb128 0x9
 532 02b2 B0050000 		.4byte	.LASF53
 533 02b6 07       		.byte	0x7
 534 02b7 9101     		.2byte	0x191
 535 02b9 69020000 		.4byte	0x269
 536 02bd 00       		.byte	0
 537 02be 09       		.uleb128 0x9
 538 02bf 2C050000 		.4byte	.LASF54
 539 02c3 07       		.byte	0x7
 540 02c4 9201     		.2byte	0x192
 541 02c6 F9000000 		.4byte	0xf9
 542 02ca 08       		.byte	0x8
 543 02cb 09       		.uleb128 0x9
 544 02cc 56040000 		.4byte	.LASF55
 545 02d0 07       		.byte	0x7
 546 02d1 9401     		.2byte	0x194
 547 02d3 29060000 		.4byte	0x629
 548 02d7 0C       		.byte	0xc
 549 02d8 09       		.uleb128 0x9
 550 02d9 EB010000 		.4byte	.LASF56
 551 02dd 07       		.byte	0x7
 552 02de 9701     		.2byte	0x197
 553 02e0 3F020000 		.4byte	0x23f
 554 02e4 10       		.byte	0x10
 555 02e5 09       		.uleb128 0x9
 556 02e6 83040000 		.4byte	.LASF57
 557 02ea 07       		.byte	0x7
 558 02eb 9801     		.2byte	0x198
 559 02ed 3F020000 		.4byte	0x23f
 560 02f1 14       		.byte	0x14
 561 02f2 09       		.uleb128 0x9
 562 02f3 79040000 		.4byte	.LASF58
 563 02f7 07       		.byte	0x7
 564 02f8 9B01     		.2byte	0x19b
 565 02fa 3F020000 		.4byte	0x23f
 566 02fe 18       		.byte	0x18
 567 02ff 00       		.byte	0
ARM GAS  C:\Users\jo\AppData\Local\Temp\ccUHdSxL.s 			page 11


 568 0300 04       		.uleb128 0x4
 569 0301 22060000 		.4byte	.LASF59
 570 0305 06       		.byte	0x6
 571 0306 5C       		.byte	0x5c
 572 0307 0B030000 		.4byte	0x30b
 573 030b 0A       		.uleb128 0xa
 574 030c 04       		.byte	0x4
 575 030d 11030000 		.4byte	0x311
 576 0311 0C       		.uleb128 0xc
 577 0312 1C030000 		.4byte	0x31c
 578 0316 0D       		.uleb128 0xd
 579 0317 1C030000 		.4byte	0x31c
 580 031b 00       		.byte	0
 581 031c 0E       		.uleb128 0xe
 582 031d 04       		.byte	0x4
 583 031e 04       		.uleb128 0x4
 584 031f AD040000 		.4byte	.LASF60
 585 0323 06       		.byte	0x6
 586 0324 61       		.byte	0x61
 587 0325 29030000 		.4byte	0x329
 588 0329 0B       		.uleb128 0xb
 589 032a 77050000 		.4byte	.LASF61
 590 032e 14       		.byte	0x14
 591 032f 07       		.byte	0x7
 592 0330 6B01     		.2byte	0x16b
 593 0332 78030000 		.4byte	0x378
 594 0336 09       		.uleb128 0x9
 595 0337 5B020000 		.4byte	.LASF62
 596 033b 07       		.byte	0x7
 597 033c 6C01     		.2byte	0x16c
 598 033e BB080000 		.4byte	0x8bb
 599 0342 00       		.byte	0
 600 0343 09       		.uleb128 0x9
 601 0344 FC010000 		.4byte	.LASF63
 602 0348 07       		.byte	0x7
 603 0349 6D01     		.2byte	0x16d
 604 034b BB080000 		.4byte	0x8bb
 605 034f 04       		.byte	0x4
 606 0350 09       		.uleb128 0x9
 607 0351 B8050000 		.4byte	.LASF64
 608 0355 07       		.byte	0x7
 609 0356 6E01     		.2byte	0x16e
 610 0358 25010000 		.4byte	0x125
 611 035c 08       		.byte	0x8
 612 035d 09       		.uleb128 0x9
 613 035e 1B070000 		.4byte	.LASF65
 614 0362 07       		.byte	0x7
 615 0363 6F01     		.2byte	0x16f
 616 0365 00030000 		.4byte	0x300
 617 0369 0C       		.byte	0xc
 618 036a 09       		.uleb128 0x9
 619 036b 8E060000 		.4byte	.LASF66
 620 036f 07       		.byte	0x7
 621 0370 7101     		.2byte	0x171
 622 0372 1C030000 		.4byte	0x31c
 623 0376 10       		.byte	0x10
 624 0377 00       		.byte	0
ARM GAS  C:\Users\jo\AppData\Local\Temp\ccUHdSxL.s 			page 12


 625 0378 04       		.uleb128 0x4
 626 0379 A0000000 		.4byte	.LASF67
 627 037d 06       		.byte	0x6
 628 037e 66       		.byte	0x66
 629 037f 83030000 		.4byte	0x383
 630 0383 0B       		.uleb128 0xb
 631 0384 10040000 		.4byte	.LASF68
 632 0388 10       		.byte	0x10
 633 0389 07       		.byte	0x7
 634 038a 7B01     		.2byte	0x17b
 635 038c C5030000 		.4byte	0x3c5
 636 0390 09       		.uleb128 0x9
 637 0391 5B020000 		.4byte	.LASF62
 638 0395 07       		.byte	0x7
 639 0396 7C01     		.2byte	0x17c
 640 0398 BB080000 		.4byte	0x8bb
 641 039c 00       		.byte	0
 642 039d 09       		.uleb128 0x9
 643 039e FC010000 		.4byte	.LASF63
 644 03a2 07       		.byte	0x7
 645 03a3 7E01     		.2byte	0x17e
 646 03a5 BB080000 		.4byte	0x8bb
 647 03a9 04       		.byte	0x4
 648 03aa 09       		.uleb128 0x9
 649 03ab B8050000 		.4byte	.LASF64
 650 03af 07       		.byte	0x7
 651 03b0 8001     		.2byte	0x180
 652 03b2 25010000 		.4byte	0x125
 653 03b6 08       		.byte	0x8
 654 03b7 09       		.uleb128 0x9
 655 03b8 42040000 		.4byte	.LASF69
 656 03bc 07       		.byte	0x7
 657 03bd 8801     		.2byte	0x188
 658 03bf 25010000 		.4byte	0x125
 659 03c3 0C       		.byte	0xc
 660 03c4 00       		.byte	0
 661 03c5 04       		.uleb128 0x4
 662 03c6 41000000 		.4byte	.LASF70
 663 03ca 06       		.byte	0x6
 664 03cb 6B       		.byte	0x6b
 665 03cc D0030000 		.4byte	0x3d0
 666 03d0 0F       		.uleb128 0xf
 667 03d1 CC040000 		.4byte	.LASF71
 668 03d5 1404     		.2byte	0x414
 669 03d7 07       		.byte	0x7
 670 03d8 A201     		.2byte	0x1a2
 671 03da 13040000 		.4byte	0x413
 672 03de 09       		.uleb128 0x9
 673 03df 44060000 		.4byte	.LASF72
 674 03e3 07       		.byte	0x7
 675 03e4 AA01     		.2byte	0x1aa
 676 03e6 C1080000 		.4byte	0x8c1
 677 03ea 00       		.byte	0
 678 03eb 09       		.uleb128 0x9
 679 03ec B5060000 		.4byte	.LASF73
 680 03f0 07       		.byte	0x7
 681 03f1 AF01     		.2byte	0x1af
ARM GAS  C:\Users\jo\AppData\Local\Temp\ccUHdSxL.s 			page 13


 682 03f3 1A010000 		.4byte	0x11a
 683 03f7 04       		.byte	0x4
 684 03f8 09       		.uleb128 0x9
 685 03f9 1B020000 		.4byte	.LASF74
 686 03fd 07       		.byte	0x7
 687 03fe B301     		.2byte	0x1b3
 688 0400 1A010000 		.4byte	0x11a
 689 0404 08       		.byte	0x8
 690 0405 09       		.uleb128 0x9
 691 0406 DE060000 		.4byte	.LASF75
 692 040a 07       		.byte	0x7
 693 040b B901     		.2byte	0x1b9
 694 040d B3070000 		.4byte	0x7b3
 695 0411 0C       		.byte	0xc
 696 0412 00       		.byte	0
 697 0413 04       		.uleb128 0x4
 698 0414 5D060000 		.4byte	.LASF76
 699 0418 06       		.byte	0x6
 700 0419 70       		.byte	0x70
 701 041a 1E040000 		.4byte	0x41e
 702 041e 0F       		.uleb128 0xf
 703 041f 64010000 		.4byte	.LASF77
 704 0423 7005     		.2byte	0x570
 705 0425 07       		.byte	0x7
 706 0426 C201     		.2byte	0x1c2
 707 0428 7D040000 		.4byte	0x47d
 708 042c 09       		.uleb128 0x9
 709 042d C2060000 		.4byte	.LASF78
 710 0431 07       		.byte	0x7
 711 0432 C601     		.2byte	0x1c6
 712 0434 99020000 		.4byte	0x299
 713 0438 00       		.byte	0
 714 0439 09       		.uleb128 0x9
 715 043a 51010000 		.4byte	.LASF79
 716 043e 07       		.byte	0x7
 717 043f CA01     		.2byte	0x1ca
 718 0441 78030000 		.4byte	0x378
 719 0445 1C       		.byte	0x1c
 720 0446 08       		.uleb128 0x8
 721 0447 64626700 		.ascii	"dbg\000"
 722 044b 07       		.byte	0x7
 723 044c CE01     		.2byte	0x1ce
 724 044e C5030000 		.4byte	0x3c5
 725 0452 2C       		.byte	0x2c
 726 0453 10       		.uleb128 0x10
 727 0454 95000000 		.4byte	.LASF80
 728 0458 07       		.byte	0x7
 729 0459 D201     		.2byte	0x1d2
 730 045b 30010000 		.4byte	0x130
 731 045f 4004     		.2byte	0x440
 732 0461 11       		.uleb128 0x11
 733 0462 746D00   		.ascii	"tm\000"
 734 0465 07       		.byte	0x7
 735 0466 D701     		.2byte	0x1d7
 736 0468 D3070000 		.4byte	0x7d3
 737 046c 8804     		.2byte	0x488
 738 046e 10       		.uleb128 0x10
ARM GAS  C:\Users\jo\AppData\Local\Temp\ccUHdSxL.s 			page 14


 739 046f 24020000 		.4byte	.LASF81
 740 0473 07       		.byte	0x7
 741 0474 E301     		.2byte	0x1e3
 742 0476 C6080000 		.4byte	0x8c6
 743 047a 9004     		.2byte	0x490
 744 047c 00       		.byte	0
 745 047d 03       		.uleb128 0x3
 746 047e 04       		.byte	0x4
 747 047f 07       		.byte	0x7
 748 0480 F4030000 		.4byte	.LASF82
 749 0484 12       		.uleb128 0x12
 750 0485 8C       		.byte	0x8c
 751 0486 08       		.byte	0x8
 752 0487 7001     		.2byte	0x170
 753 0489 9F050000 		.4byte	0x59f
 754 048d 09       		.uleb128 0x9
 755 048e B6000000 		.4byte	.LASF83
 756 0492 08       		.byte	0x8
 757 0493 7201     		.2byte	0x172
 758 0495 9F050000 		.4byte	0x59f
 759 0499 00       		.byte	0
 760 049a 09       		.uleb128 0x9
 761 049b 8A020000 		.4byte	.LASF84
 762 049f 08       		.byte	0x8
 763 04a0 7301     		.2byte	0x173
 764 04a2 C8000000 		.4byte	0xc8
 765 04a6 04       		.byte	0x4
 766 04a7 09       		.uleb128 0x9
 767 04a8 75020000 		.4byte	.LASF85
 768 04ac 08       		.byte	0x8
 769 04ad 7401     		.2byte	0x174
 770 04af C8000000 		.4byte	0xc8
 771 04b3 08       		.byte	0x8
 772 04b4 09       		.uleb128 0x9
 773 04b5 95020000 		.4byte	.LASF86
 774 04b9 08       		.byte	0x8
 775 04ba 7501     		.2byte	0x175
 776 04bc C8000000 		.4byte	0xc8
 777 04c0 0C       		.byte	0xc
 778 04c1 08       		.uleb128 0x8
 779 04c2 53435200 		.ascii	"SCR\000"
 780 04c6 08       		.byte	0x8
 781 04c7 7601     		.2byte	0x176
 782 04c9 C8000000 		.4byte	0xc8
 783 04cd 10       		.byte	0x10
 784 04ce 08       		.uleb128 0x8
 785 04cf 43435200 		.ascii	"CCR\000"
 786 04d3 08       		.byte	0x8
 787 04d4 7701     		.2byte	0x177
 788 04d6 C8000000 		.4byte	0xc8
 789 04da 14       		.byte	0x14
 790 04db 08       		.uleb128 0x8
 791 04dc 53485000 		.ascii	"SHP\000"
 792 04e0 08       		.byte	0x8
 793 04e1 7801     		.2byte	0x178
 794 04e3 B4050000 		.4byte	0x5b4
 795 04e7 18       		.byte	0x18
ARM GAS  C:\Users\jo\AppData\Local\Temp\ccUHdSxL.s 			page 15


 796 04e8 09       		.uleb128 0x9
 797 04e9 F8040000 		.4byte	.LASF87
 798 04ed 08       		.byte	0x8
 799 04ee 7901     		.2byte	0x179
 800 04f0 C8000000 		.4byte	0xc8
 801 04f4 24       		.byte	0x24
 802 04f5 09       		.uleb128 0x9
 803 04f6 27040000 		.4byte	.LASF88
 804 04fa 08       		.byte	0x8
 805 04fb 7A01     		.2byte	0x17a
 806 04fd C8000000 		.4byte	0xc8
 807 0501 28       		.byte	0x28
 808 0502 09       		.uleb128 0x9
 809 0503 F7060000 		.4byte	.LASF89
 810 0507 08       		.byte	0x8
 811 0508 7B01     		.2byte	0x17b
 812 050a C8000000 		.4byte	0xc8
 813 050e 2C       		.byte	0x2c
 814 050f 09       		.uleb128 0x9
 815 0510 9B020000 		.4byte	.LASF90
 816 0514 08       		.byte	0x8
 817 0515 7C01     		.2byte	0x17c
 818 0517 C8000000 		.4byte	0xc8
 819 051b 30       		.byte	0x30
 820 051c 09       		.uleb128 0x9
 821 051d A0020000 		.4byte	.LASF91
 822 0521 08       		.byte	0x8
 823 0522 7D01     		.2byte	0x17d
 824 0524 C8000000 		.4byte	0xc8
 825 0528 34       		.byte	0x34
 826 0529 09       		.uleb128 0x9
 827 052a D9010000 		.4byte	.LASF92
 828 052e 08       		.byte	0x8
 829 052f 7E01     		.2byte	0x17e
 830 0531 C8000000 		.4byte	0xc8
 831 0535 38       		.byte	0x38
 832 0536 09       		.uleb128 0x9
 833 0537 E6010000 		.4byte	.LASF93
 834 053b 08       		.byte	0x8
 835 053c 7F01     		.2byte	0x17f
 836 053e C8000000 		.4byte	0xc8
 837 0542 3C       		.byte	0x3c
 838 0543 08       		.uleb128 0x8
 839 0544 50465200 		.ascii	"PFR\000"
 840 0548 08       		.byte	0x8
 841 0549 8001     		.2byte	0x180
 842 054b C9050000 		.4byte	0x5c9
 843 054f 40       		.byte	0x40
 844 0550 08       		.uleb128 0x8
 845 0551 44465200 		.ascii	"DFR\000"
 846 0555 08       		.byte	0x8
 847 0556 8101     		.2byte	0x181
 848 0558 9F050000 		.4byte	0x59f
 849 055c 48       		.byte	0x48
 850 055d 08       		.uleb128 0x8
 851 055e 41445200 		.ascii	"ADR\000"
 852 0562 08       		.byte	0x8
ARM GAS  C:\Users\jo\AppData\Local\Temp\ccUHdSxL.s 			page 16


 853 0563 8201     		.2byte	0x182
 854 0565 9F050000 		.4byte	0x59f
 855 0569 4C       		.byte	0x4c
 856 056a 09       		.uleb128 0x9
 857 056b BD060000 		.4byte	.LASF94
 858 056f 08       		.byte	0x8
 859 0570 8301     		.2byte	0x183
 860 0572 E3050000 		.4byte	0x5e3
 861 0576 50       		.byte	0x50
 862 0577 09       		.uleb128 0x9
 863 0578 22010000 		.4byte	.LASF95
 864 057c 08       		.byte	0x8
 865 057d 8401     		.2byte	0x184
 866 057f FD050000 		.4byte	0x5fd
 867 0583 60       		.byte	0x60
 868 0584 09       		.uleb128 0x9
 869 0585 9E040000 		.4byte	.LASF96
 870 0589 08       		.byte	0x8
 871 058a 8501     		.2byte	0x185
 872 058c ED050000 		.4byte	0x5ed
 873 0590 74       		.byte	0x74
 874 0591 09       		.uleb128 0x9
 875 0592 F1060000 		.4byte	.LASF97
 876 0596 08       		.byte	0x8
 877 0597 8601     		.2byte	0x186
 878 0599 C8000000 		.4byte	0xc8
 879 059d 88       		.byte	0x88
 880 059e 00       		.byte	0
 881 059f 13       		.uleb128 0x13
 882 05a0 C8000000 		.4byte	0xc8
 883 05a4 14       		.uleb128 0x14
 884 05a5 97000000 		.4byte	0x97
 885 05a9 B4050000 		.4byte	0x5b4
 886 05ad 15       		.uleb128 0x15
 887 05ae 7D040000 		.4byte	0x47d
 888 05b2 0B       		.byte	0xb
 889 05b3 00       		.byte	0
 890 05b4 05       		.uleb128 0x5
 891 05b5 A4050000 		.4byte	0x5a4
 892 05b9 14       		.uleb128 0x14
 893 05ba AD000000 		.4byte	0xad
 894 05be C9050000 		.4byte	0x5c9
 895 05c2 15       		.uleb128 0x15
 896 05c3 7D040000 		.4byte	0x47d
 897 05c7 01       		.byte	0x1
 898 05c8 00       		.byte	0
 899 05c9 13       		.uleb128 0x13
 900 05ca CE050000 		.4byte	0x5ce
 901 05ce 05       		.uleb128 0x5
 902 05cf B9050000 		.4byte	0x5b9
 903 05d3 14       		.uleb128 0x14
 904 05d4 AD000000 		.4byte	0xad
 905 05d8 E3050000 		.4byte	0x5e3
 906 05dc 15       		.uleb128 0x15
 907 05dd 7D040000 		.4byte	0x47d
 908 05e1 03       		.byte	0x3
 909 05e2 00       		.byte	0
ARM GAS  C:\Users\jo\AppData\Local\Temp\ccUHdSxL.s 			page 17


 910 05e3 13       		.uleb128 0x13
 911 05e4 E8050000 		.4byte	0x5e8
 912 05e8 05       		.uleb128 0x5
 913 05e9 D3050000 		.4byte	0x5d3
 914 05ed 14       		.uleb128 0x14
 915 05ee AD000000 		.4byte	0xad
 916 05f2 FD050000 		.4byte	0x5fd
 917 05f6 15       		.uleb128 0x15
 918 05f7 7D040000 		.4byte	0x47d
 919 05fb 04       		.byte	0x4
 920 05fc 00       		.byte	0
 921 05fd 13       		.uleb128 0x13
 922 05fe 02060000 		.4byte	0x602
 923 0602 05       		.uleb128 0x5
 924 0603 ED050000 		.4byte	0x5ed
 925 0607 16       		.uleb128 0x16
 926 0608 04020000 		.4byte	.LASF98
 927 060c 08       		.byte	0x8
 928 060d 8701     		.2byte	0x187
 929 060f 84040000 		.4byte	0x484
 930 0613 04       		.uleb128 0x4
 931 0614 F3010000 		.4byte	.LASF99
 932 0618 09       		.byte	0x9
 933 0619 65       		.byte	0x65
 934 061a 1C030000 		.4byte	0x31c
 935 061e 04       		.uleb128 0x4
 936 061f D0030000 		.4byte	.LASF100
 937 0623 09       		.byte	0x9
 938 0624 6D       		.byte	0x6d
 939 0625 B8000000 		.4byte	0xb8
 940 0629 06       		.uleb128 0x6
 941 062a 55060000 		.4byte	.LASF101
 942 062e 04       		.byte	0x4
 943 062f 09       		.byte	0x9
 944 0630 89       		.byte	0x89
 945 0631 42060000 		.4byte	0x642
 946 0635 17       		.uleb128 0x17
 947 0636 72313300 		.ascii	"r13\000"
 948 063a 09       		.byte	0x9
 949 063b 8A       		.byte	0x8a
 950 063c BD060000 		.4byte	0x6bd
 951 0640 00       		.byte	0
 952 0641 00       		.byte	0
 953 0642 06       		.uleb128 0x6
 954 0643 35000000 		.4byte	.LASF102
 955 0647 24       		.byte	0x24
 956 0648 0A       		.byte	0xa
 957 0649 F4       		.byte	0xf4
 958 064a BD060000 		.4byte	0x6bd
 959 064e 08       		.uleb128 0x8
 960 064f 723400   		.ascii	"r4\000"
 961 0652 0A       		.byte	0xa
 962 0653 0701     		.2byte	0x107
 963 0655 13060000 		.4byte	0x613
 964 0659 00       		.byte	0
 965 065a 08       		.uleb128 0x8
 966 065b 723500   		.ascii	"r5\000"
ARM GAS  C:\Users\jo\AppData\Local\Temp\ccUHdSxL.s 			page 18


 967 065e 0A       		.byte	0xa
 968 065f 0801     		.2byte	0x108
 969 0661 13060000 		.4byte	0x613
 970 0665 04       		.byte	0x4
 971 0666 08       		.uleb128 0x8
 972 0667 723600   		.ascii	"r6\000"
 973 066a 0A       		.byte	0xa
 974 066b 0901     		.2byte	0x109
 975 066d 13060000 		.4byte	0x613
 976 0671 08       		.byte	0x8
 977 0672 08       		.uleb128 0x8
 978 0673 723700   		.ascii	"r7\000"
 979 0676 0A       		.byte	0xa
 980 0677 0A01     		.2byte	0x10a
 981 0679 13060000 		.4byte	0x613
 982 067d 0C       		.byte	0xc
 983 067e 08       		.uleb128 0x8
 984 067f 723800   		.ascii	"r8\000"
 985 0682 0A       		.byte	0xa
 986 0683 0B01     		.2byte	0x10b
 987 0685 13060000 		.4byte	0x613
 988 0689 10       		.byte	0x10
 989 068a 08       		.uleb128 0x8
 990 068b 723900   		.ascii	"r9\000"
 991 068e 0A       		.byte	0xa
 992 068f 0C01     		.2byte	0x10c
 993 0691 13060000 		.4byte	0x613
 994 0695 14       		.byte	0x14
 995 0696 08       		.uleb128 0x8
 996 0697 72313000 		.ascii	"r10\000"
 997 069b 0A       		.byte	0xa
 998 069c 0D01     		.2byte	0x10d
 999 069e 13060000 		.4byte	0x613
 1000 06a2 18       		.byte	0x18
 1001 06a3 08       		.uleb128 0x8
 1002 06a4 72313100 		.ascii	"r11\000"
 1003 06a8 0A       		.byte	0xa
 1004 06a9 0E01     		.2byte	0x10e
 1005 06ab 13060000 		.4byte	0x613
 1006 06af 1C       		.byte	0x1c
 1007 06b0 08       		.uleb128 0x8
 1008 06b1 6C7200   		.ascii	"lr\000"
 1009 06b4 0A       		.byte	0xa
 1010 06b5 0F01     		.2byte	0x10f
 1011 06b7 13060000 		.4byte	0x613
 1012 06bb 20       		.byte	0x20
 1013 06bc 00       		.byte	0
 1014 06bd 0A       		.uleb128 0xa
 1015 06be 04       		.byte	0x4
 1016 06bf 42060000 		.4byte	0x642
 1017 06c3 06       		.uleb128 0x6
 1018 06c4 5C040000 		.4byte	.LASF103
 1019 06c8 20       		.byte	0x20
 1020 06c9 0A       		.byte	0xa
 1021 06ca D5       		.byte	0xd5
 1022 06cb 2B070000 		.4byte	0x72b
 1023 06cf 17       		.uleb128 0x17
ARM GAS  C:\Users\jo\AppData\Local\Temp\ccUHdSxL.s 			page 19


 1024 06d0 723000   		.ascii	"r0\000"
 1025 06d3 0A       		.byte	0xa
 1026 06d4 D6       		.byte	0xd6
 1027 06d5 13060000 		.4byte	0x613
 1028 06d9 00       		.byte	0
 1029 06da 17       		.uleb128 0x17
 1030 06db 723100   		.ascii	"r1\000"
 1031 06de 0A       		.byte	0xa
 1032 06df D7       		.byte	0xd7
 1033 06e0 13060000 		.4byte	0x613
 1034 06e4 04       		.byte	0x4
 1035 06e5 17       		.uleb128 0x17
 1036 06e6 723200   		.ascii	"r2\000"
 1037 06e9 0A       		.byte	0xa
 1038 06ea D8       		.byte	0xd8
 1039 06eb 13060000 		.4byte	0x613
 1040 06ef 08       		.byte	0x8
 1041 06f0 17       		.uleb128 0x17
 1042 06f1 723300   		.ascii	"r3\000"
 1043 06f4 0A       		.byte	0xa
 1044 06f5 D9       		.byte	0xd9
 1045 06f6 13060000 		.4byte	0x613
 1046 06fa 0C       		.byte	0xc
 1047 06fb 17       		.uleb128 0x17
 1048 06fc 72313200 		.ascii	"r12\000"
 1049 0700 0A       		.byte	0xa
 1050 0701 DA       		.byte	0xda
 1051 0702 13060000 		.4byte	0x613
 1052 0706 10       		.byte	0x10
 1053 0707 07       		.uleb128 0x7
 1054 0708 64050000 		.4byte	.LASF104
 1055 070c 0A       		.byte	0xa
 1056 070d DB       		.byte	0xdb
 1057 070e 13060000 		.4byte	0x613
 1058 0712 14       		.byte	0x14
 1059 0713 17       		.uleb128 0x17
 1060 0714 706300   		.ascii	"pc\000"
 1061 0717 0A       		.byte	0xa
 1062 0718 DC       		.byte	0xdc
 1063 0719 13060000 		.4byte	0x613
 1064 071d 18       		.byte	0x18
 1065 071e 07       		.uleb128 0x7
 1066 071f 27050000 		.4byte	.LASF105
 1067 0723 0A       		.byte	0xa
 1068 0724 DD       		.byte	0xdd
 1069 0725 13060000 		.4byte	0x613
 1070 0729 1C       		.byte	0x1c
 1071 072a 00       		.byte	0
 1072 072b 18       		.uleb128 0x18
 1073 072c 10       		.byte	0x10
 1074 072d 0B       		.byte	0xb
 1075 072e 51       		.byte	0x51
 1076 072f 64070000 		.4byte	0x764
 1077 0733 07       		.uleb128 0x7
 1078 0734 0D000000 		.4byte	.LASF106
 1079 0738 0B       		.byte	0xb
 1080 0739 55       		.byte	0x55
ARM GAS  C:\Users\jo\AppData\Local\Temp\ccUHdSxL.s 			page 20


 1081 073a 25010000 		.4byte	0x125
 1082 073e 00       		.byte	0
 1083 073f 07       		.uleb128 0x7
 1084 0740 A9010000 		.4byte	.LASF107
 1085 0744 0B       		.byte	0xb
 1086 0745 59       		.byte	0x59
 1087 0746 3F020000 		.4byte	0x23f
 1088 074a 04       		.byte	0x4
 1089 074b 07       		.uleb128 0x7
 1090 074c 0B070000 		.4byte	.LASF108
 1091 0750 0B       		.byte	0xb
 1092 0751 5D       		.byte	0x5d
 1093 0752 1C030000 		.4byte	0x31c
 1094 0756 08       		.byte	0x8
 1095 0757 07       		.uleb128 0x7
 1096 0758 83000000 		.4byte	.LASF109
 1097 075c 0B       		.byte	0xb
 1098 075d 61       		.byte	0x61
 1099 075e 97000000 		.4byte	0x97
 1100 0762 0C       		.byte	0xc
 1101 0763 00       		.byte	0
 1102 0764 04       		.uleb128 0x4
 1103 0765 33040000 		.4byte	.LASF110
 1104 0769 0B       		.byte	0xb
 1105 076a 62       		.byte	0x62
 1106 076b 2B070000 		.4byte	0x72b
 1107 076f 19       		.uleb128 0x19
 1108 0770 0804     		.2byte	0x408
 1109 0772 0B       		.byte	0xb
 1110 0773 67       		.byte	0x67
 1111 0774 9D070000 		.4byte	0x79d
 1112 0778 07       		.uleb128 0x7
 1113 0779 DE010000 		.4byte	.LASF111
 1114 077d 0B       		.byte	0xb
 1115 077e 6B       		.byte	0x6b
 1116 077f 2C000000 		.4byte	0x2c
 1117 0783 00       		.byte	0
 1118 0784 07       		.uleb128 0x7
 1119 0785 2C040000 		.4byte	.LASF112
 1120 0789 0B       		.byte	0xb
 1121 078a 6F       		.byte	0x6f
 1122 078b 9D070000 		.4byte	0x79d
 1123 078f 04       		.byte	0x4
 1124 0790 07       		.uleb128 0x7
 1125 0791 B9020000 		.4byte	.LASF113
 1126 0795 0B       		.byte	0xb
 1127 0796 73       		.byte	0x73
 1128 0797 A3070000 		.4byte	0x7a3
 1129 079b 08       		.byte	0x8
 1130 079c 00       		.byte	0
 1131 079d 0A       		.uleb128 0xa
 1132 079e 04       		.byte	0x4
 1133 079f 64070000 		.4byte	0x764
 1134 07a3 14       		.uleb128 0x14
 1135 07a4 64070000 		.4byte	0x764
 1136 07a8 B3070000 		.4byte	0x7b3
 1137 07ac 15       		.uleb128 0x15
ARM GAS  C:\Users\jo\AppData\Local\Temp\ccUHdSxL.s 			page 21


 1138 07ad 7D040000 		.4byte	0x47d
 1139 07b1 3F       		.byte	0x3f
 1140 07b2 00       		.byte	0
 1141 07b3 04       		.uleb128 0x4
 1142 07b4 71000000 		.4byte	.LASF114
 1143 07b8 0B       		.byte	0xb
 1144 07b9 74       		.byte	0x74
 1145 07ba 6F070000 		.4byte	0x76f
 1146 07be 18       		.uleb128 0x18
 1147 07bf 04       		.byte	0x4
 1148 07c0 0C       		.byte	0xc
 1149 07c1 38       		.byte	0x38
 1150 07c2 D3070000 		.4byte	0x7d3
 1151 07c6 07       		.uleb128 0x7
 1152 07c7 4E060000 		.4byte	.LASF115
 1153 07cb 0C       		.byte	0xc
 1154 07cc 3C       		.byte	0x3c
 1155 07cd CD000000 		.4byte	0xcd
 1156 07d1 00       		.byte	0
 1157 07d2 00       		.byte	0
 1158 07d3 04       		.uleb128 0x4
 1159 07d4 68040000 		.4byte	.LASF116
 1160 07d8 0C       		.byte	0xc
 1161 07d9 3D       		.byte	0x3d
 1162 07da BE070000 		.4byte	0x7be
 1163 07de 1A       		.uleb128 0x1a
 1164 07df 04       		.byte	0x4
 1165 07e0 07       		.byte	0x7
 1166 07e1 FA       		.byte	0xfa
 1167 07e2 3B080000 		.4byte	0x83b
 1168 07e6 1B       		.uleb128 0x1b
 1169 07e7 1B000000 		.4byte	.LASF117
 1170 07eb 07       		.byte	0x7
 1171 07ec 0101     		.2byte	0x101
 1172 07ee 04010000 		.4byte	0x104
 1173 07f2 1B       		.uleb128 0x1b
 1174 07f3 8C000000 		.4byte	.LASF118
 1175 07f7 07       		.byte	0x7
 1176 07f8 0801     		.2byte	0x108
 1177 07fa 04010000 		.4byte	0x104
 1178 07fe 1B       		.uleb128 0x1b
 1179 07ff D0060000 		.4byte	.LASF119
 1180 0803 07       		.byte	0x7
 1181 0804 0F01     		.2byte	0x10f
 1182 0806 1C030000 		.4byte	0x31c
 1183 080a 1B       		.uleb128 0x1b
 1184 080b 15000000 		.4byte	.LASF120
 1185 080f 07       		.byte	0x7
 1186 0810 1601     		.2byte	0x116
 1187 0812 3B080000 		.4byte	0x83b
 1188 0816 1B       		.uleb128 0x1b
 1189 0817 63020000 		.4byte	.LASF121
 1190 081b 07       		.byte	0x7
 1191 081c 1E01     		.2byte	0x11e
 1192 081e 66080000 		.4byte	0x866
 1193 0822 1B       		.uleb128 0x1b
 1194 0823 A9050000 		.4byte	.LASF122
ARM GAS  C:\Users\jo\AppData\Local\Temp\ccUHdSxL.s 			page 22


 1195 0827 07       		.byte	0x7
 1196 0828 2701     		.2byte	0x127
 1197 082a 9D080000 		.4byte	0x89d
 1198 082e 1B       		.uleb128 0x1b
 1199 082f 33050000 		.4byte	.LASF123
 1200 0833 07       		.byte	0x7
 1201 0834 2F01     		.2byte	0x12f
 1202 0836 0F010000 		.4byte	0x10f
 1203 083a 00       		.byte	0
 1204 083b 0A       		.uleb128 0xa
 1205 083c 04       		.byte	0x4
 1206 083d 34020000 		.4byte	0x234
 1207 0841 06       		.uleb128 0x6
 1208 0842 88050000 		.4byte	.LASF124
 1209 0846 0C       		.byte	0xc
 1210 0847 0D       		.byte	0xd
 1211 0848 34       		.byte	0x34
 1212 0849 66080000 		.4byte	0x866
 1213 084d 07       		.uleb128 0x7
 1214 084e D1010000 		.4byte	.LASF125
 1215 0852 0D       		.byte	0xd
 1216 0853 35       		.byte	0x35
 1217 0854 69020000 		.4byte	0x269
 1218 0858 00       		.byte	0
 1219 0859 07       		.uleb128 0x7
 1220 085a 7A020000 		.4byte	.LASF126
 1221 085e 0D       		.byte	0xd
 1222 085f 37       		.byte	0x37
 1223 0860 1A010000 		.4byte	0x11a
 1224 0864 08       		.byte	0x8
 1225 0865 00       		.byte	0
 1226 0866 0A       		.uleb128 0xa
 1227 0867 04       		.byte	0x4
 1228 0868 41080000 		.4byte	0x841
 1229 086c 06       		.uleb128 0x6
 1230 086d A5060000 		.4byte	.LASF127
 1231 0871 10       		.byte	0x10
 1232 0872 0E       		.byte	0xe
 1233 0873 39       		.byte	0x39
 1234 0874 9D080000 		.4byte	0x89d
 1235 0878 07       		.uleb128 0x7
 1236 0879 49010000 		.4byte	.LASF128
 1237 087d 0E       		.byte	0xe
 1238 087e 3A       		.byte	0x3a
 1239 087f 69020000 		.4byte	0x269
 1240 0883 00       		.byte	0
 1241 0884 07       		.uleb128 0x7
 1242 0885 FC060000 		.4byte	.LASF129
 1243 0889 0E       		.byte	0xe
 1244 088a 3C       		.byte	0x3c
 1245 088b 3F020000 		.4byte	0x23f
 1246 088f 08       		.byte	0x8
 1247 0890 07       		.uleb128 0x7
 1248 0891 06060000 		.4byte	.LASF130
 1249 0895 0E       		.byte	0xe
 1250 0896 3E       		.byte	0x3e
 1251 0897 E1080000 		.4byte	0x8e1
ARM GAS  C:\Users\jo\AppData\Local\Temp\ccUHdSxL.s 			page 23


 1252 089b 0C       		.byte	0xc
 1253 089c 00       		.byte	0
 1254 089d 0A       		.uleb128 0xa
 1255 089e 04       		.byte	0x4
 1256 089f 6C080000 		.4byte	0x86c
 1257 08a3 0A       		.uleb128 0xa
 1258 08a4 04       		.byte	0x4
 1259 08a5 A9080000 		.4byte	0x8a9
 1260 08a9 13       		.uleb128 0x13
 1261 08aa AE080000 		.4byte	0x8ae
 1262 08ae 03       		.uleb128 0x3
 1263 08af 01       		.byte	0x1
 1264 08b0 08       		.byte	0x8
 1265 08b1 E3050000 		.4byte	.LASF131
 1266 08b5 0A       		.uleb128 0xa
 1267 08b6 04       		.byte	0x4
 1268 08b7 1E060000 		.4byte	0x61e
 1269 08bb 0A       		.uleb128 0xa
 1270 08bc 04       		.byte	0x4
 1271 08bd 1E030000 		.4byte	0x31e
 1272 08c1 05       		.uleb128 0x5
 1273 08c2 A3080000 		.4byte	0x8a3
 1274 08c6 14       		.uleb128 0x14
 1275 08c7 1E060000 		.4byte	0x61e
 1276 08cb D6080000 		.4byte	0x8d6
 1277 08cf 15       		.uleb128 0x15
 1278 08d0 7D040000 		.4byte	0x47d
 1279 08d4 1B       		.byte	0x1b
 1280 08d5 00       		.byte	0
 1281 08d6 04       		.uleb128 0x4
 1282 08d7 0D020000 		.4byte	.LASF132
 1283 08db 0E       		.byte	0xe
 1284 08dc 34       		.byte	0x34
 1285 08dd 6C080000 		.4byte	0x86c
 1286 08e1 0A       		.uleb128 0xa
 1287 08e2 04       		.byte	0x4
 1288 08e3 D6080000 		.4byte	0x8d6
 1289 08e7 1C       		.uleb128 0x1c
 1290 08e8 36060000 		.4byte	.LASF135
 1291 08ec 02       		.byte	0x2
 1292 08ed 2002     		.2byte	0x220
 1293 08ef 03       		.byte	0x3
 1294 08f0 01090000 		.4byte	0x901
 1295 08f4 1D       		.uleb128 0x1d
 1296 08f5 15020000 		.4byte	.LASF137
 1297 08f9 02       		.byte	0x2
 1298 08fa 2002     		.2byte	0x220
 1299 08fc AD000000 		.4byte	0xad
 1300 0900 00       		.byte	0
 1301 0901 1E       		.uleb128 0x1e
 1302 0902 50000000 		.4byte	.LASF133
 1303 0906 0A       		.byte	0xa
 1304 0907 BC01     		.2byte	0x1bc
 1305 0909 03       		.byte	0x3
 1306 090a 1E       		.uleb128 0x1e
 1307 090b 58010000 		.4byte	.LASF134
 1308 090f 0A       		.byte	0xa
ARM GAS  C:\Users\jo\AppData\Local\Temp\ccUHdSxL.s 			page 24


 1309 0910 CA01     		.2byte	0x1ca
 1310 0912 03       		.byte	0x3
 1311 0913 1F       		.uleb128 0x1f
 1312 0914 84060000 		.4byte	.LASF149
 1313 0918 02       		.byte	0x2
 1314 0919 A801     		.2byte	0x1a8
 1315 091b AD000000 		.4byte	0xad
 1316 091f 03       		.byte	0x3
 1317 0920 31090000 		.4byte	0x931
 1318 0924 20       		.uleb128 0x20
 1319 0925 04070000 		.4byte	.LASF150
 1320 0929 02       		.byte	0x2
 1321 092a AA01     		.2byte	0x1aa
 1322 092c AD000000 		.4byte	0xad
 1323 0930 00       		.byte	0
 1324 0931 1C       		.uleb128 0x1c
 1325 0932 51020000 		.4byte	.LASF136
 1326 0936 02       		.byte	0x2
 1327 0937 B701     		.2byte	0x1b7
 1328 0939 03       		.byte	0x3
 1329 093a 4B090000 		.4byte	0x94b
 1330 093e 1D       		.uleb128 0x1d
 1331 093f DD020000 		.4byte	.LASF138
 1332 0943 02       		.byte	0x2
 1333 0944 B701     		.2byte	0x1b7
 1334 0946 AD000000 		.4byte	0xad
 1335 094a 00       		.byte	0
 1336 094b 1E       		.uleb128 0x1e
 1337 094c E8050000 		.4byte	.LASF139
 1338 0950 0A       		.byte	0xa
 1339 0951 E401     		.2byte	0x1e4
 1340 0953 03       		.byte	0x3
 1341 0954 1E       		.uleb128 0x1e
 1342 0955 71060000 		.4byte	.LASF140
 1343 0959 0A       		.byte	0xa
 1344 095a D901     		.2byte	0x1d9
 1345 095c 03       		.byte	0x3
 1346 095d 21       		.uleb128 0x21
 1347 095e 6B050000 		.4byte	.LASF141
 1348 0962 01       		.byte	0x1
 1349 0963 3E       		.byte	0x3e
 1350 0964 00000000 		.4byte	.LFB228
 1351 0968 12000000 		.4byte	.LFE228-.LFB228
 1352 096c 01       		.uleb128 0x1
 1353 096d 9C       		.byte	0x9c
 1354 096e FE090000 		.4byte	0x9fe
 1355 0972 22       		.uleb128 0x22
 1356 0973 A8040000 		.4byte	.LASF143
 1357 0977 01       		.byte	0x1
 1358 0978 40       		.byte	0x40
 1359 0979 FE090000 		.4byte	0x9fe
 1360 097d 00000000 		.4byte	.LLST0
 1361 0981 23       		.uleb128 0x23
 1362 0982 13090000 		.4byte	0x913
 1363 0986 00000000 		.4byte	.LBB38
 1364 098a 04000000 		.4byte	.LBE38-.LBB38
 1365 098e 01       		.byte	0x1
ARM GAS  C:\Users\jo\AppData\Local\Temp\ccUHdSxL.s 			page 25


 1366 098f 48       		.byte	0x48
 1367 0990 A8090000 		.4byte	0x9a8
 1368 0994 24       		.uleb128 0x24
 1369 0995 00000000 		.4byte	.LBB39
 1370 0999 04000000 		.4byte	.LBE39-.LBB39
 1371 099d 25       		.uleb128 0x25
 1372 099e 24090000 		.4byte	0x924
 1373 09a2 20000000 		.4byte	.LLST1
 1374 09a6 00       		.byte	0
 1375 09a7 00       		.byte	0
 1376 09a8 23       		.uleb128 0x23
 1377 09a9 31090000 		.4byte	0x931
 1378 09ad 06000000 		.4byte	.LBB40
 1379 09b1 04000000 		.4byte	.LBE40-.LBB40
 1380 09b5 01       		.byte	0x1
 1381 09b6 4F       		.byte	0x4f
 1382 09b7 C5090000 		.4byte	0x9c5
 1383 09bb 26       		.uleb128 0x26
 1384 09bc 3E090000 		.4byte	0x93e
 1385 09c0 00000000 		.4byte	.LLST0
 1386 09c4 00       		.byte	0
 1387 09c5 27       		.uleb128 0x27
 1388 09c6 4B090000 		.4byte	0x94b
 1389 09ca 0A000000 		.4byte	.LBB42
 1390 09ce 08000000 		.4byte	.LBE42-.LBB42
 1391 09d2 01       		.byte	0x1
 1392 09d3 52       		.byte	0x52
 1393 09d4 28       		.uleb128 0x28
 1394 09d5 0A090000 		.4byte	0x90a
 1395 09d9 0A000000 		.4byte	.LBB43
 1396 09dd 08000000 		.4byte	.LBE43-.LBB43
 1397 09e1 0A       		.byte	0xa
 1398 09e2 E601     		.2byte	0x1e6
 1399 09e4 28       		.uleb128 0x28
 1400 09e5 E7080000 		.4byte	0x8e7
 1401 09e9 0A000000 		.4byte	.LBB44
 1402 09ed 08000000 		.4byte	.LBE44-.LBB44
 1403 09f1 0A       		.byte	0xa
 1404 09f2 CD01     		.2byte	0x1cd
 1405 09f4 29       		.uleb128 0x29
 1406 09f5 F4080000 		.4byte	0x8f4
 1407 09f9 00       		.byte	0
 1408 09fa 00       		.byte	0
 1409 09fb 00       		.byte	0
 1410 09fc 00       		.byte	0
 1411 09fd 00       		.byte	0
 1412 09fe 0A       		.uleb128 0xa
 1413 09ff 04       		.byte	0x4
 1414 0a00 C3060000 		.4byte	0x6c3
 1415 0a04 21       		.uleb128 0x21
 1416 0a05 A6020000 		.4byte	.LASF142
 1417 0a09 01       		.byte	0x1
 1418 0a0a 7A       		.byte	0x7a
 1419 0a0b 00000000 		.4byte	.LFB229
 1420 0a0f 50000000 		.4byte	.LFE229-.LFB229
 1421 0a13 01       		.uleb128 0x1
 1422 0a14 9C       		.byte	0x9c
ARM GAS  C:\Users\jo\AppData\Local\Temp\ccUHdSxL.s 			page 26


 1423 0a15 FB0A0000 		.4byte	0xafb
 1424 0a19 23       		.uleb128 0x23
 1425 0a1a 54090000 		.4byte	0x954
 1426 0a1e 00000000 		.4byte	.LBB46
 1427 0a22 06000000 		.4byte	.LBE46-.LBB46
 1428 0a26 01       		.byte	0x1
 1429 0a27 7C       		.byte	0x7c
 1430 0a28 550A0000 		.4byte	0xa55
 1431 0a2c 28       		.uleb128 0x28
 1432 0a2d 01090000 		.4byte	0x901
 1433 0a31 00000000 		.4byte	.LBB47
 1434 0a35 06000000 		.4byte	.LBE47-.LBB47
 1435 0a39 0A       		.byte	0xa
 1436 0a3a DB01     		.2byte	0x1db
 1437 0a3c 28       		.uleb128 0x28
 1438 0a3d E7080000 		.4byte	0x8e7
 1439 0a41 00000000 		.4byte	.LBB48
 1440 0a45 06000000 		.4byte	.LBE48-.LBB48
 1441 0a49 0A       		.byte	0xa
 1442 0a4a BF01     		.2byte	0x1bf
 1443 0a4c 29       		.uleb128 0x29
 1444 0a4d F4080000 		.4byte	0x8f4
 1445 0a51 20       		.byte	0x20
 1446 0a52 00       		.byte	0
 1447 0a53 00       		.byte	0
 1448 0a54 00       		.byte	0
 1449 0a55 23       		.uleb128 0x23
 1450 0a56 4B090000 		.4byte	0x94b
 1451 0a5a 10000000 		.4byte	.LBB50
 1452 0a5e 06000000 		.4byte	.LBE50-.LBB50
 1453 0a62 01       		.byte	0x1
 1454 0a63 A5       		.byte	0xa5
 1455 0a64 940A0000 		.4byte	0xa94
 1456 0a68 28       		.uleb128 0x28
 1457 0a69 0A090000 		.4byte	0x90a
 1458 0a6d 10000000 		.4byte	.LBB51
 1459 0a71 06000000 		.4byte	.LBE51-.LBB51
 1460 0a75 0A       		.byte	0xa
 1461 0a76 E601     		.2byte	0x1e6
 1462 0a78 28       		.uleb128 0x28
 1463 0a79 E7080000 		.4byte	0x8e7
 1464 0a7d 10000000 		.4byte	.LBB52
 1465 0a81 06000000 		.4byte	.LBE52-.LBB52
 1466 0a85 0A       		.byte	0xa
 1467 0a86 CD01     		.2byte	0x1cd
 1468 0a88 26       		.uleb128 0x26
 1469 0a89 F4080000 		.4byte	0x8f4
 1470 0a8d 40000000 		.4byte	.LLST3
 1471 0a91 00       		.byte	0
 1472 0a92 00       		.byte	0
 1473 0a93 00       		.byte	0
 1474 0a94 24       		.uleb128 0x24
 1475 0a95 18000000 		.4byte	.LBB54
 1476 0a99 38000000 		.4byte	.LBE54-.LBB54
 1477 0a9d 22       		.uleb128 0x22
 1478 0a9e A8040000 		.4byte	.LASF143
 1479 0aa2 01       		.byte	0x1
ARM GAS  C:\Users\jo\AppData\Local\Temp\ccUHdSxL.s 			page 27


 1480 0aa3 7E       		.byte	0x7e
 1481 0aa4 FE090000 		.4byte	0x9fe
 1482 0aa8 54000000 		.4byte	.LLST4
 1483 0aac 23       		.uleb128 0x23
 1484 0aad 13090000 		.4byte	0x913
 1485 0ab1 18000000 		.4byte	.LBB55
 1486 0ab5 04000000 		.4byte	.LBE55-.LBB55
 1487 0ab9 01       		.byte	0x1
 1488 0aba 86       		.byte	0x86
 1489 0abb D30A0000 		.4byte	0xad3
 1490 0abf 24       		.uleb128 0x24
 1491 0ac0 18000000 		.4byte	.LBB56
 1492 0ac4 04000000 		.4byte	.LBE56-.LBB56
 1493 0ac8 25       		.uleb128 0x25
 1494 0ac9 24090000 		.4byte	0x924
 1495 0acd 81000000 		.4byte	.LLST5
 1496 0ad1 00       		.byte	0
 1497 0ad2 00       		.byte	0
 1498 0ad3 23       		.uleb128 0x23
 1499 0ad4 31090000 		.4byte	0x931
 1500 0ad8 28000000 		.4byte	.LBB57
 1501 0adc 04000000 		.4byte	.LBE57-.LBB57
 1502 0ae0 01       		.byte	0x1
 1503 0ae1 93       		.byte	0x93
 1504 0ae2 F00A0000 		.4byte	0xaf0
 1505 0ae6 26       		.uleb128 0x26
 1506 0ae7 3E090000 		.4byte	0x93e
 1507 0aeb 94000000 		.4byte	.LLST6
 1508 0aef 00       		.byte	0
 1509 0af0 2A       		.uleb128 0x2a
 1510 0af1 30000000 		.4byte	.LVL10
 1511 0af5 120B0000 		.4byte	0xb12
 1512 0af9 00       		.byte	0
 1513 0afa 00       		.byte	0
 1514 0afb 2B       		.uleb128 0x2b
 1515 0afc FE040000 		.4byte	.LASF144
 1516 0b00 08       		.byte	0x8
 1517 0b01 A706     		.2byte	0x6a7
 1518 0b03 C3000000 		.4byte	0xc3
 1519 0b07 2C       		.uleb128 0x2c
 1520 0b08 636800   		.ascii	"ch\000"
 1521 0b0b 07       		.byte	0x7
 1522 0b0c 0902     		.2byte	0x209
 1523 0b0e 13040000 		.4byte	0x413
 1524 0b12 2D       		.uleb128 0x2d
 1525 0b13 AF010000 		.4byte	.LASF151
 1526 0b17 07       		.byte	0x7
 1527 0b18 1802     		.2byte	0x218
 1528 0b1a 1E0B0000 		.4byte	0xb1e
 1529 0b1e 03       		.uleb128 0x3
 1530 0b1f 01       		.byte	0x1
 1531 0b20 02       		.byte	0x2
 1532 0b21 DC040000 		.4byte	.LASF145
 1533 0b25 00       		.byte	0
 1534              		.section	.debug_abbrev,"",%progbits
 1535              	.Ldebug_abbrev0:
 1536 0000 01       		.uleb128 0x1
ARM GAS  C:\Users\jo\AppData\Local\Temp\ccUHdSxL.s 			page 28


 1537 0001 11       		.uleb128 0x11
 1538 0002 01       		.byte	0x1
 1539 0003 25       		.uleb128 0x25
 1540 0004 0E       		.uleb128 0xe
 1541 0005 13       		.uleb128 0x13
 1542 0006 0B       		.uleb128 0xb
 1543 0007 03       		.uleb128 0x3
 1544 0008 0E       		.uleb128 0xe
 1545 0009 1B       		.uleb128 0x1b
 1546 000a 0E       		.uleb128 0xe
 1547 000b 55       		.uleb128 0x55
 1548 000c 17       		.uleb128 0x17
 1549 000d 11       		.uleb128 0x11
 1550 000e 01       		.uleb128 0x1
 1551 000f 10       		.uleb128 0x10
 1552 0010 17       		.uleb128 0x17
 1553 0011 00       		.byte	0
 1554 0012 00       		.byte	0
 1555 0013 02       		.uleb128 0x2
 1556 0014 24       		.uleb128 0x24
 1557 0015 00       		.byte	0
 1558 0016 0B       		.uleb128 0xb
 1559 0017 0B       		.uleb128 0xb
 1560 0018 3E       		.uleb128 0x3e
 1561 0019 0B       		.uleb128 0xb
 1562 001a 03       		.uleb128 0x3
 1563 001b 08       		.uleb128 0x8
 1564 001c 00       		.byte	0
 1565 001d 00       		.byte	0
 1566 001e 03       		.uleb128 0x3
 1567 001f 24       		.uleb128 0x24
 1568 0020 00       		.byte	0
 1569 0021 0B       		.uleb128 0xb
 1570 0022 0B       		.uleb128 0xb
 1571 0023 3E       		.uleb128 0x3e
 1572 0024 0B       		.uleb128 0xb
 1573 0025 03       		.uleb128 0x3
 1574 0026 0E       		.uleb128 0xe
 1575 0027 00       		.byte	0
 1576 0028 00       		.byte	0
 1577 0029 04       		.uleb128 0x4
 1578 002a 16       		.uleb128 0x16
 1579 002b 00       		.byte	0
 1580 002c 03       		.uleb128 0x3
 1581 002d 0E       		.uleb128 0xe
 1582 002e 3A       		.uleb128 0x3a
 1583 002f 0B       		.uleb128 0xb
 1584 0030 3B       		.uleb128 0x3b
 1585 0031 0B       		.uleb128 0xb
 1586 0032 49       		.uleb128 0x49
 1587 0033 13       		.uleb128 0x13
 1588 0034 00       		.byte	0
 1589 0035 00       		.byte	0
 1590 0036 05       		.uleb128 0x5
 1591 0037 35       		.uleb128 0x35
 1592 0038 00       		.byte	0
 1593 0039 49       		.uleb128 0x49
ARM GAS  C:\Users\jo\AppData\Local\Temp\ccUHdSxL.s 			page 29


 1594 003a 13       		.uleb128 0x13
 1595 003b 00       		.byte	0
 1596 003c 00       		.byte	0
 1597 003d 06       		.uleb128 0x6
 1598 003e 13       		.uleb128 0x13
 1599 003f 01       		.byte	0x1
 1600 0040 03       		.uleb128 0x3
 1601 0041 0E       		.uleb128 0xe
 1602 0042 0B       		.uleb128 0xb
 1603 0043 0B       		.uleb128 0xb
 1604 0044 3A       		.uleb128 0x3a
 1605 0045 0B       		.uleb128 0xb
 1606 0046 3B       		.uleb128 0x3b
 1607 0047 0B       		.uleb128 0xb
 1608 0048 01       		.uleb128 0x1
 1609 0049 13       		.uleb128 0x13
 1610 004a 00       		.byte	0
 1611 004b 00       		.byte	0
 1612 004c 07       		.uleb128 0x7
 1613 004d 0D       		.uleb128 0xd
 1614 004e 00       		.byte	0
 1615 004f 03       		.uleb128 0x3
 1616 0050 0E       		.uleb128 0xe
 1617 0051 3A       		.uleb128 0x3a
 1618 0052 0B       		.uleb128 0xb
 1619 0053 3B       		.uleb128 0x3b
 1620 0054 0B       		.uleb128 0xb
 1621 0055 49       		.uleb128 0x49
 1622 0056 13       		.uleb128 0x13
 1623 0057 38       		.uleb128 0x38
 1624 0058 0B       		.uleb128 0xb
 1625 0059 00       		.byte	0
 1626 005a 00       		.byte	0
 1627 005b 08       		.uleb128 0x8
 1628 005c 0D       		.uleb128 0xd
 1629 005d 00       		.byte	0
 1630 005e 03       		.uleb128 0x3
 1631 005f 08       		.uleb128 0x8
 1632 0060 3A       		.uleb128 0x3a
 1633 0061 0B       		.uleb128 0xb
 1634 0062 3B       		.uleb128 0x3b
 1635 0063 05       		.uleb128 0x5
 1636 0064 49       		.uleb128 0x49
 1637 0065 13       		.uleb128 0x13
 1638 0066 38       		.uleb128 0x38
 1639 0067 0B       		.uleb128 0xb
 1640 0068 00       		.byte	0
 1641 0069 00       		.byte	0
 1642 006a 09       		.uleb128 0x9
 1643 006b 0D       		.uleb128 0xd
 1644 006c 00       		.byte	0
 1645 006d 03       		.uleb128 0x3
 1646 006e 0E       		.uleb128 0xe
 1647 006f 3A       		.uleb128 0x3a
 1648 0070 0B       		.uleb128 0xb
 1649 0071 3B       		.uleb128 0x3b
 1650 0072 05       		.uleb128 0x5
ARM GAS  C:\Users\jo\AppData\Local\Temp\ccUHdSxL.s 			page 30


 1651 0073 49       		.uleb128 0x49
 1652 0074 13       		.uleb128 0x13
 1653 0075 38       		.uleb128 0x38
 1654 0076 0B       		.uleb128 0xb
 1655 0077 00       		.byte	0
 1656 0078 00       		.byte	0
 1657 0079 0A       		.uleb128 0xa
 1658 007a 0F       		.uleb128 0xf
 1659 007b 00       		.byte	0
 1660 007c 0B       		.uleb128 0xb
 1661 007d 0B       		.uleb128 0xb
 1662 007e 49       		.uleb128 0x49
 1663 007f 13       		.uleb128 0x13
 1664 0080 00       		.byte	0
 1665 0081 00       		.byte	0
 1666 0082 0B       		.uleb128 0xb
 1667 0083 13       		.uleb128 0x13
 1668 0084 01       		.byte	0x1
 1669 0085 03       		.uleb128 0x3
 1670 0086 0E       		.uleb128 0xe
 1671 0087 0B       		.uleb128 0xb
 1672 0088 0B       		.uleb128 0xb
 1673 0089 3A       		.uleb128 0x3a
 1674 008a 0B       		.uleb128 0xb
 1675 008b 3B       		.uleb128 0x3b
 1676 008c 05       		.uleb128 0x5
 1677 008d 01       		.uleb128 0x1
 1678 008e 13       		.uleb128 0x13
 1679 008f 00       		.byte	0
 1680 0090 00       		.byte	0
 1681 0091 0C       		.uleb128 0xc
 1682 0092 15       		.uleb128 0x15
 1683 0093 01       		.byte	0x1
 1684 0094 27       		.uleb128 0x27
 1685 0095 19       		.uleb128 0x19
 1686 0096 01       		.uleb128 0x1
 1687 0097 13       		.uleb128 0x13
 1688 0098 00       		.byte	0
 1689 0099 00       		.byte	0
 1690 009a 0D       		.uleb128 0xd
 1691 009b 05       		.uleb128 0x5
 1692 009c 00       		.byte	0
 1693 009d 49       		.uleb128 0x49
 1694 009e 13       		.uleb128 0x13
 1695 009f 00       		.byte	0
 1696 00a0 00       		.byte	0
 1697 00a1 0E       		.uleb128 0xe
 1698 00a2 0F       		.uleb128 0xf
 1699 00a3 00       		.byte	0
 1700 00a4 0B       		.uleb128 0xb
 1701 00a5 0B       		.uleb128 0xb
 1702 00a6 00       		.byte	0
 1703 00a7 00       		.byte	0
 1704 00a8 0F       		.uleb128 0xf
 1705 00a9 13       		.uleb128 0x13
 1706 00aa 01       		.byte	0x1
 1707 00ab 03       		.uleb128 0x3
ARM GAS  C:\Users\jo\AppData\Local\Temp\ccUHdSxL.s 			page 31


 1708 00ac 0E       		.uleb128 0xe
 1709 00ad 0B       		.uleb128 0xb
 1710 00ae 05       		.uleb128 0x5
 1711 00af 3A       		.uleb128 0x3a
 1712 00b0 0B       		.uleb128 0xb
 1713 00b1 3B       		.uleb128 0x3b
 1714 00b2 05       		.uleb128 0x5
 1715 00b3 01       		.uleb128 0x1
 1716 00b4 13       		.uleb128 0x13
 1717 00b5 00       		.byte	0
 1718 00b6 00       		.byte	0
 1719 00b7 10       		.uleb128 0x10
 1720 00b8 0D       		.uleb128 0xd
 1721 00b9 00       		.byte	0
 1722 00ba 03       		.uleb128 0x3
 1723 00bb 0E       		.uleb128 0xe
 1724 00bc 3A       		.uleb128 0x3a
 1725 00bd 0B       		.uleb128 0xb
 1726 00be 3B       		.uleb128 0x3b
 1727 00bf 05       		.uleb128 0x5
 1728 00c0 49       		.uleb128 0x49
 1729 00c1 13       		.uleb128 0x13
 1730 00c2 38       		.uleb128 0x38
 1731 00c3 05       		.uleb128 0x5
 1732 00c4 00       		.byte	0
 1733 00c5 00       		.byte	0
 1734 00c6 11       		.uleb128 0x11
 1735 00c7 0D       		.uleb128 0xd
 1736 00c8 00       		.byte	0
 1737 00c9 03       		.uleb128 0x3
 1738 00ca 08       		.uleb128 0x8
 1739 00cb 3A       		.uleb128 0x3a
 1740 00cc 0B       		.uleb128 0xb
 1741 00cd 3B       		.uleb128 0x3b
 1742 00ce 05       		.uleb128 0x5
 1743 00cf 49       		.uleb128 0x49
 1744 00d0 13       		.uleb128 0x13
 1745 00d1 38       		.uleb128 0x38
 1746 00d2 05       		.uleb128 0x5
 1747 00d3 00       		.byte	0
 1748 00d4 00       		.byte	0
 1749 00d5 12       		.uleb128 0x12
 1750 00d6 13       		.uleb128 0x13
 1751 00d7 01       		.byte	0x1
 1752 00d8 0B       		.uleb128 0xb
 1753 00d9 0B       		.uleb128 0xb
 1754 00da 3A       		.uleb128 0x3a
 1755 00db 0B       		.uleb128 0xb
 1756 00dc 3B       		.uleb128 0x3b
 1757 00dd 05       		.uleb128 0x5
 1758 00de 01       		.uleb128 0x1
 1759 00df 13       		.uleb128 0x13
 1760 00e0 00       		.byte	0
 1761 00e1 00       		.byte	0
 1762 00e2 13       		.uleb128 0x13
 1763 00e3 26       		.uleb128 0x26
 1764 00e4 00       		.byte	0
ARM GAS  C:\Users\jo\AppData\Local\Temp\ccUHdSxL.s 			page 32


 1765 00e5 49       		.uleb128 0x49
 1766 00e6 13       		.uleb128 0x13
 1767 00e7 00       		.byte	0
 1768 00e8 00       		.byte	0
 1769 00e9 14       		.uleb128 0x14
 1770 00ea 01       		.uleb128 0x1
 1771 00eb 01       		.byte	0x1
 1772 00ec 49       		.uleb128 0x49
 1773 00ed 13       		.uleb128 0x13
 1774 00ee 01       		.uleb128 0x1
 1775 00ef 13       		.uleb128 0x13
 1776 00f0 00       		.byte	0
 1777 00f1 00       		.byte	0
 1778 00f2 15       		.uleb128 0x15
 1779 00f3 21       		.uleb128 0x21
 1780 00f4 00       		.byte	0
 1781 00f5 49       		.uleb128 0x49
 1782 00f6 13       		.uleb128 0x13
 1783 00f7 2F       		.uleb128 0x2f
 1784 00f8 0B       		.uleb128 0xb
 1785 00f9 00       		.byte	0
 1786 00fa 00       		.byte	0
 1787 00fb 16       		.uleb128 0x16
 1788 00fc 16       		.uleb128 0x16
 1789 00fd 00       		.byte	0
 1790 00fe 03       		.uleb128 0x3
 1791 00ff 0E       		.uleb128 0xe
 1792 0100 3A       		.uleb128 0x3a
 1793 0101 0B       		.uleb128 0xb
 1794 0102 3B       		.uleb128 0x3b
 1795 0103 05       		.uleb128 0x5
 1796 0104 49       		.uleb128 0x49
 1797 0105 13       		.uleb128 0x13
 1798 0106 00       		.byte	0
 1799 0107 00       		.byte	0
 1800 0108 17       		.uleb128 0x17
 1801 0109 0D       		.uleb128 0xd
 1802 010a 00       		.byte	0
 1803 010b 03       		.uleb128 0x3
 1804 010c 08       		.uleb128 0x8
 1805 010d 3A       		.uleb128 0x3a
 1806 010e 0B       		.uleb128 0xb
 1807 010f 3B       		.uleb128 0x3b
 1808 0110 0B       		.uleb128 0xb
 1809 0111 49       		.uleb128 0x49
 1810 0112 13       		.uleb128 0x13
 1811 0113 38       		.uleb128 0x38
 1812 0114 0B       		.uleb128 0xb
 1813 0115 00       		.byte	0
 1814 0116 00       		.byte	0
 1815 0117 18       		.uleb128 0x18
 1816 0118 13       		.uleb128 0x13
 1817 0119 01       		.byte	0x1
 1818 011a 0B       		.uleb128 0xb
 1819 011b 0B       		.uleb128 0xb
 1820 011c 3A       		.uleb128 0x3a
 1821 011d 0B       		.uleb128 0xb
ARM GAS  C:\Users\jo\AppData\Local\Temp\ccUHdSxL.s 			page 33


 1822 011e 3B       		.uleb128 0x3b
 1823 011f 0B       		.uleb128 0xb
 1824 0120 01       		.uleb128 0x1
 1825 0121 13       		.uleb128 0x13
 1826 0122 00       		.byte	0
 1827 0123 00       		.byte	0
 1828 0124 19       		.uleb128 0x19
 1829 0125 13       		.uleb128 0x13
 1830 0126 01       		.byte	0x1
 1831 0127 0B       		.uleb128 0xb
 1832 0128 05       		.uleb128 0x5
 1833 0129 3A       		.uleb128 0x3a
 1834 012a 0B       		.uleb128 0xb
 1835 012b 3B       		.uleb128 0x3b
 1836 012c 0B       		.uleb128 0xb
 1837 012d 01       		.uleb128 0x1
 1838 012e 13       		.uleb128 0x13
 1839 012f 00       		.byte	0
 1840 0130 00       		.byte	0
 1841 0131 1A       		.uleb128 0x1a
 1842 0132 17       		.uleb128 0x17
 1843 0133 01       		.byte	0x1
 1844 0134 0B       		.uleb128 0xb
 1845 0135 0B       		.uleb128 0xb
 1846 0136 3A       		.uleb128 0x3a
 1847 0137 0B       		.uleb128 0xb
 1848 0138 3B       		.uleb128 0x3b
 1849 0139 0B       		.uleb128 0xb
 1850 013a 01       		.uleb128 0x1
 1851 013b 13       		.uleb128 0x13
 1852 013c 00       		.byte	0
 1853 013d 00       		.byte	0
 1854 013e 1B       		.uleb128 0x1b
 1855 013f 0D       		.uleb128 0xd
 1856 0140 00       		.byte	0
 1857 0141 03       		.uleb128 0x3
 1858 0142 0E       		.uleb128 0xe
 1859 0143 3A       		.uleb128 0x3a
 1860 0144 0B       		.uleb128 0xb
 1861 0145 3B       		.uleb128 0x3b
 1862 0146 05       		.uleb128 0x5
 1863 0147 49       		.uleb128 0x49
 1864 0148 13       		.uleb128 0x13
 1865 0149 00       		.byte	0
 1866 014a 00       		.byte	0
 1867 014b 1C       		.uleb128 0x1c
 1868 014c 2E       		.uleb128 0x2e
 1869 014d 01       		.byte	0x1
 1870 014e 03       		.uleb128 0x3
 1871 014f 0E       		.uleb128 0xe
 1872 0150 3A       		.uleb128 0x3a
 1873 0151 0B       		.uleb128 0xb
 1874 0152 3B       		.uleb128 0x3b
 1875 0153 05       		.uleb128 0x5
 1876 0154 27       		.uleb128 0x27
 1877 0155 19       		.uleb128 0x19
 1878 0156 20       		.uleb128 0x20
ARM GAS  C:\Users\jo\AppData\Local\Temp\ccUHdSxL.s 			page 34


 1879 0157 0B       		.uleb128 0xb
 1880 0158 01       		.uleb128 0x1
 1881 0159 13       		.uleb128 0x13
 1882 015a 00       		.byte	0
 1883 015b 00       		.byte	0
 1884 015c 1D       		.uleb128 0x1d
 1885 015d 05       		.uleb128 0x5
 1886 015e 00       		.byte	0
 1887 015f 03       		.uleb128 0x3
 1888 0160 0E       		.uleb128 0xe
 1889 0161 3A       		.uleb128 0x3a
 1890 0162 0B       		.uleb128 0xb
 1891 0163 3B       		.uleb128 0x3b
 1892 0164 05       		.uleb128 0x5
 1893 0165 49       		.uleb128 0x49
 1894 0166 13       		.uleb128 0x13
 1895 0167 00       		.byte	0
 1896 0168 00       		.byte	0
 1897 0169 1E       		.uleb128 0x1e
 1898 016a 2E       		.uleb128 0x2e
 1899 016b 00       		.byte	0
 1900 016c 03       		.uleb128 0x3
 1901 016d 0E       		.uleb128 0xe
 1902 016e 3A       		.uleb128 0x3a
 1903 016f 0B       		.uleb128 0xb
 1904 0170 3B       		.uleb128 0x3b
 1905 0171 05       		.uleb128 0x5
 1906 0172 27       		.uleb128 0x27
 1907 0173 19       		.uleb128 0x19
 1908 0174 20       		.uleb128 0x20
 1909 0175 0B       		.uleb128 0xb
 1910 0176 00       		.byte	0
 1911 0177 00       		.byte	0
 1912 0178 1F       		.uleb128 0x1f
 1913 0179 2E       		.uleb128 0x2e
 1914 017a 01       		.byte	0x1
 1915 017b 03       		.uleb128 0x3
 1916 017c 0E       		.uleb128 0xe
 1917 017d 3A       		.uleb128 0x3a
 1918 017e 0B       		.uleb128 0xb
 1919 017f 3B       		.uleb128 0x3b
 1920 0180 05       		.uleb128 0x5
 1921 0181 27       		.uleb128 0x27
 1922 0182 19       		.uleb128 0x19
 1923 0183 49       		.uleb128 0x49
 1924 0184 13       		.uleb128 0x13
 1925 0185 20       		.uleb128 0x20
 1926 0186 0B       		.uleb128 0xb
 1927 0187 01       		.uleb128 0x1
 1928 0188 13       		.uleb128 0x13
 1929 0189 00       		.byte	0
 1930 018a 00       		.byte	0
 1931 018b 20       		.uleb128 0x20
 1932 018c 34       		.uleb128 0x34
 1933 018d 00       		.byte	0
 1934 018e 03       		.uleb128 0x3
 1935 018f 0E       		.uleb128 0xe
ARM GAS  C:\Users\jo\AppData\Local\Temp\ccUHdSxL.s 			page 35


 1936 0190 3A       		.uleb128 0x3a
 1937 0191 0B       		.uleb128 0xb
 1938 0192 3B       		.uleb128 0x3b
 1939 0193 05       		.uleb128 0x5
 1940 0194 49       		.uleb128 0x49
 1941 0195 13       		.uleb128 0x13
 1942 0196 00       		.byte	0
 1943 0197 00       		.byte	0
 1944 0198 21       		.uleb128 0x21
 1945 0199 2E       		.uleb128 0x2e
 1946 019a 01       		.byte	0x1
 1947 019b 3F       		.uleb128 0x3f
 1948 019c 19       		.uleb128 0x19
 1949 019d 03       		.uleb128 0x3
 1950 019e 0E       		.uleb128 0xe
 1951 019f 3A       		.uleb128 0x3a
 1952 01a0 0B       		.uleb128 0xb
 1953 01a1 3B       		.uleb128 0x3b
 1954 01a2 0B       		.uleb128 0xb
 1955 01a3 27       		.uleb128 0x27
 1956 01a4 19       		.uleb128 0x19
 1957 01a5 11       		.uleb128 0x11
 1958 01a6 01       		.uleb128 0x1
 1959 01a7 12       		.uleb128 0x12
 1960 01a8 06       		.uleb128 0x6
 1961 01a9 40       		.uleb128 0x40
 1962 01aa 18       		.uleb128 0x18
 1963 01ab 9742     		.uleb128 0x2117
 1964 01ad 19       		.uleb128 0x19
 1965 01ae 01       		.uleb128 0x1
 1966 01af 13       		.uleb128 0x13
 1967 01b0 00       		.byte	0
 1968 01b1 00       		.byte	0
 1969 01b2 22       		.uleb128 0x22
 1970 01b3 34       		.uleb128 0x34
 1971 01b4 00       		.byte	0
 1972 01b5 03       		.uleb128 0x3
 1973 01b6 0E       		.uleb128 0xe
 1974 01b7 3A       		.uleb128 0x3a
 1975 01b8 0B       		.uleb128 0xb
 1976 01b9 3B       		.uleb128 0x3b
 1977 01ba 0B       		.uleb128 0xb
 1978 01bb 49       		.uleb128 0x49
 1979 01bc 13       		.uleb128 0x13
 1980 01bd 02       		.uleb128 0x2
 1981 01be 17       		.uleb128 0x17
 1982 01bf 00       		.byte	0
 1983 01c0 00       		.byte	0
 1984 01c1 23       		.uleb128 0x23
 1985 01c2 1D       		.uleb128 0x1d
 1986 01c3 01       		.byte	0x1
 1987 01c4 31       		.uleb128 0x31
 1988 01c5 13       		.uleb128 0x13
 1989 01c6 11       		.uleb128 0x11
 1990 01c7 01       		.uleb128 0x1
 1991 01c8 12       		.uleb128 0x12
 1992 01c9 06       		.uleb128 0x6
ARM GAS  C:\Users\jo\AppData\Local\Temp\ccUHdSxL.s 			page 36


 1993 01ca 58       		.uleb128 0x58
 1994 01cb 0B       		.uleb128 0xb
 1995 01cc 59       		.uleb128 0x59
 1996 01cd 0B       		.uleb128 0xb
 1997 01ce 01       		.uleb128 0x1
 1998 01cf 13       		.uleb128 0x13
 1999 01d0 00       		.byte	0
 2000 01d1 00       		.byte	0
 2001 01d2 24       		.uleb128 0x24
 2002 01d3 0B       		.uleb128 0xb
 2003 01d4 01       		.byte	0x1
 2004 01d5 11       		.uleb128 0x11
 2005 01d6 01       		.uleb128 0x1
 2006 01d7 12       		.uleb128 0x12
 2007 01d8 06       		.uleb128 0x6
 2008 01d9 00       		.byte	0
 2009 01da 00       		.byte	0
 2010 01db 25       		.uleb128 0x25
 2011 01dc 34       		.uleb128 0x34
 2012 01dd 00       		.byte	0
 2013 01de 31       		.uleb128 0x31
 2014 01df 13       		.uleb128 0x13
 2015 01e0 02       		.uleb128 0x2
 2016 01e1 17       		.uleb128 0x17
 2017 01e2 00       		.byte	0
 2018 01e3 00       		.byte	0
 2019 01e4 26       		.uleb128 0x26
 2020 01e5 05       		.uleb128 0x5
 2021 01e6 00       		.byte	0
 2022 01e7 31       		.uleb128 0x31
 2023 01e8 13       		.uleb128 0x13
 2024 01e9 02       		.uleb128 0x2
 2025 01ea 17       		.uleb128 0x17
 2026 01eb 00       		.byte	0
 2027 01ec 00       		.byte	0
 2028 01ed 27       		.uleb128 0x27
 2029 01ee 1D       		.uleb128 0x1d
 2030 01ef 01       		.byte	0x1
 2031 01f0 31       		.uleb128 0x31
 2032 01f1 13       		.uleb128 0x13
 2033 01f2 11       		.uleb128 0x11
 2034 01f3 01       		.uleb128 0x1
 2035 01f4 12       		.uleb128 0x12
 2036 01f5 06       		.uleb128 0x6
 2037 01f6 58       		.uleb128 0x58
 2038 01f7 0B       		.uleb128 0xb
 2039 01f8 59       		.uleb128 0x59
 2040 01f9 0B       		.uleb128 0xb
 2041 01fa 00       		.byte	0
 2042 01fb 00       		.byte	0
 2043 01fc 28       		.uleb128 0x28
 2044 01fd 1D       		.uleb128 0x1d
 2045 01fe 01       		.byte	0x1
 2046 01ff 31       		.uleb128 0x31
 2047 0200 13       		.uleb128 0x13
 2048 0201 11       		.uleb128 0x11
 2049 0202 01       		.uleb128 0x1
ARM GAS  C:\Users\jo\AppData\Local\Temp\ccUHdSxL.s 			page 37


 2050 0203 12       		.uleb128 0x12
 2051 0204 06       		.uleb128 0x6
 2052 0205 58       		.uleb128 0x58
 2053 0206 0B       		.uleb128 0xb
 2054 0207 59       		.uleb128 0x59
 2055 0208 05       		.uleb128 0x5
 2056 0209 00       		.byte	0
 2057 020a 00       		.byte	0
 2058 020b 29       		.uleb128 0x29
 2059 020c 05       		.uleb128 0x5
 2060 020d 00       		.byte	0
 2061 020e 31       		.uleb128 0x31
 2062 020f 13       		.uleb128 0x13
 2063 0210 1C       		.uleb128 0x1c
 2064 0211 0B       		.uleb128 0xb
 2065 0212 00       		.byte	0
 2066 0213 00       		.byte	0
 2067 0214 2A       		.uleb128 0x2a
 2068 0215 898201   		.uleb128 0x4109
 2069 0218 00       		.byte	0
 2070 0219 11       		.uleb128 0x11
 2071 021a 01       		.uleb128 0x1
 2072 021b 31       		.uleb128 0x31
 2073 021c 13       		.uleb128 0x13
 2074 021d 00       		.byte	0
 2075 021e 00       		.byte	0
 2076 021f 2B       		.uleb128 0x2b
 2077 0220 34       		.uleb128 0x34
 2078 0221 00       		.byte	0
 2079 0222 03       		.uleb128 0x3
 2080 0223 0E       		.uleb128 0xe
 2081 0224 3A       		.uleb128 0x3a
 2082 0225 0B       		.uleb128 0xb
 2083 0226 3B       		.uleb128 0x3b
 2084 0227 05       		.uleb128 0x5
 2085 0228 49       		.uleb128 0x49
 2086 0229 13       		.uleb128 0x13
 2087 022a 3F       		.uleb128 0x3f
 2088 022b 19       		.uleb128 0x19
 2089 022c 3C       		.uleb128 0x3c
 2090 022d 19       		.uleb128 0x19
 2091 022e 00       		.byte	0
 2092 022f 00       		.byte	0
 2093 0230 2C       		.uleb128 0x2c
 2094 0231 34       		.uleb128 0x34
 2095 0232 00       		.byte	0
 2096 0233 03       		.uleb128 0x3
 2097 0234 08       		.uleb128 0x8
 2098 0235 3A       		.uleb128 0x3a
 2099 0236 0B       		.uleb128 0xb
 2100 0237 3B       		.uleb128 0x3b
 2101 0238 05       		.uleb128 0x5
 2102 0239 49       		.uleb128 0x49
 2103 023a 13       		.uleb128 0x13
 2104 023b 3F       		.uleb128 0x3f
 2105 023c 19       		.uleb128 0x19
 2106 023d 3C       		.uleb128 0x3c
ARM GAS  C:\Users\jo\AppData\Local\Temp\ccUHdSxL.s 			page 38


 2107 023e 19       		.uleb128 0x19
 2108 023f 00       		.byte	0
 2109 0240 00       		.byte	0
 2110 0241 2D       		.uleb128 0x2d
 2111 0242 2E       		.uleb128 0x2e
 2112 0243 00       		.byte	0
 2113 0244 3F       		.uleb128 0x3f
 2114 0245 19       		.uleb128 0x19
 2115 0246 03       		.uleb128 0x3
 2116 0247 0E       		.uleb128 0xe
 2117 0248 3A       		.uleb128 0x3a
 2118 0249 0B       		.uleb128 0xb
 2119 024a 3B       		.uleb128 0x3b
 2120 024b 05       		.uleb128 0x5
 2121 024c 27       		.uleb128 0x27
 2122 024d 19       		.uleb128 0x19
 2123 024e 49       		.uleb128 0x49
 2124 024f 13       		.uleb128 0x13
 2125 0250 3C       		.uleb128 0x3c
 2126 0251 19       		.uleb128 0x19
 2127 0252 00       		.byte	0
 2128 0253 00       		.byte	0
 2129 0254 00       		.byte	0
 2130              		.section	.debug_loc,"",%progbits
 2131              	.Ldebug_loc0:
 2132              	.LLST0:
 2133 0000 04000000 		.4byte	.LVL0
 2134 0004 06000000 		.4byte	.LVL1
 2135 0008 0300     		.2byte	0x3
 2136 000a 73       		.byte	0x73
 2137 000b 20       		.sleb128 32
 2138 000c 9F       		.byte	0x9f
 2139 000d 06000000 		.4byte	.LVL1
 2140 0011 0C000000 		.4byte	.LVL3
 2141 0015 0100     		.2byte	0x1
 2142 0017 53       		.byte	0x53
 2143 0018 00000000 		.4byte	0
 2144 001c 00000000 		.4byte	0
 2145              	.LLST1:
 2146 0020 04000000 		.4byte	.LVL0
 2147 0024 06000000 		.4byte	.LVL1
 2148 0028 0100     		.2byte	0x1
 2149 002a 53       		.byte	0x53
 2150 002b 06000000 		.4byte	.LVL1
 2151 002f 0C000000 		.4byte	.LVL3
 2152 0033 0300     		.2byte	0x3
 2153 0035 73       		.byte	0x73
 2154 0036 60       		.sleb128 -32
 2155 0037 9F       		.byte	0x9f
 2156 0038 00000000 		.4byte	0
 2157 003c 00000000 		.4byte	0
 2158              	.LLST3:
 2159 0040 10000000 		.4byte	.LVL5
 2160 0044 16000000 		.4byte	.LVL6
 2161 0048 0200     		.2byte	0x2
 2162 004a 30       		.byte	0x30
 2163 004b 9F       		.byte	0x9f
ARM GAS  C:\Users\jo\AppData\Local\Temp\ccUHdSxL.s 			page 39


 2164 004c 00000000 		.4byte	0
 2165 0050 00000000 		.4byte	0
 2166              	.LLST4:
 2167 0054 1C000000 		.4byte	.LVL7
 2168 0058 28000000 		.4byte	.LVL9
 2169 005c 0300     		.2byte	0x3
 2170 005e 74       		.byte	0x74
 2171 005f 60       		.sleb128 -32
 2172 0060 9F       		.byte	0x9f
 2173 0061 28000000 		.4byte	.LVL9
 2174 0065 2F000000 		.4byte	.LVL10-1
 2175 0069 0100     		.2byte	0x1
 2176 006b 53       		.byte	0x53
 2177 006c 2F000000 		.4byte	.LVL10-1
 2178 0070 42000000 		.4byte	.LVL12
 2179 0074 0300     		.2byte	0x3
 2180 0076 74       		.byte	0x74
 2181 0077 60       		.sleb128 -32
 2182 0078 9F       		.byte	0x9f
 2183 0079 00000000 		.4byte	0
 2184 007d 00000000 		.4byte	0
 2185              	.LLST5:
 2186 0081 1C000000 		.4byte	.LVL7
 2187 0085 42000000 		.4byte	.LVL12
 2188 0089 0100     		.2byte	0x1
 2189 008b 54       		.byte	0x54
 2190 008c 00000000 		.4byte	0
 2191 0090 00000000 		.4byte	0
 2192              	.LLST6:
 2193 0094 24000000 		.4byte	.LVL8
 2194 0098 28000000 		.4byte	.LVL9
 2195 009c 0300     		.2byte	0x3
 2196 009e 74       		.byte	0x74
 2197 009f 60       		.sleb128 -32
 2198 00a0 9F       		.byte	0x9f
 2199 00a1 28000000 		.4byte	.LVL9
 2200 00a5 2F000000 		.4byte	.LVL10-1
 2201 00a9 0100     		.2byte	0x1
 2202 00ab 53       		.byte	0x53
 2203 00ac 2F000000 		.4byte	.LVL10-1
 2204 00b0 42000000 		.4byte	.LVL12
 2205 00b4 0300     		.2byte	0x3
 2206 00b6 74       		.byte	0x74
 2207 00b7 60       		.sleb128 -32
 2208 00b8 9F       		.byte	0x9f
 2209 00b9 00000000 		.4byte	0
 2210 00bd 00000000 		.4byte	0
 2211              		.section	.debug_aranges,"",%progbits
 2212 0000 24000000 		.4byte	0x24
 2213 0004 0200     		.2byte	0x2
 2214 0006 00000000 		.4byte	.Ldebug_info0
 2215 000a 04       		.byte	0x4
 2216 000b 00       		.byte	0
 2217 000c 0000     		.2byte	0
 2218 000e 0000     		.2byte	0
 2219 0010 00000000 		.4byte	.LFB228
 2220 0014 12000000 		.4byte	.LFE228-.LFB228
ARM GAS  C:\Users\jo\AppData\Local\Temp\ccUHdSxL.s 			page 40


 2221 0018 00000000 		.4byte	.LFB229
 2222 001c 50000000 		.4byte	.LFE229-.LFB229
 2223 0020 00000000 		.4byte	0
 2224 0024 00000000 		.4byte	0
 2225              		.section	.debug_ranges,"",%progbits
 2226              	.Ldebug_ranges0:
 2227 0000 00000000 		.4byte	.LFB228
 2228 0004 12000000 		.4byte	.LFE228
 2229 0008 00000000 		.4byte	.LFB229
 2230 000c 50000000 		.4byte	.LFE229
 2231 0010 00000000 		.4byte	0
 2232 0014 00000000 		.4byte	0
 2233              		.section	.debug_line,"",%progbits
 2234              	.Ldebug_line0:
 2235 0000 57020000 		.section	.debug_str,"MS",%progbits,1
 2235      0200E901 
 2235      00000201 
 2235      FB0E0D00 
 2235      01010101 
 2236              	.LASF51:
 2237 0000 72656164 		.ascii	"ready_list_t\000"
 2237      795F6C69 
 2237      73745F74 
 2237      00
 2238              	.LASF106:
 2239 000d 73655F74 		.ascii	"se_time\000"
 2239      696D6500 
 2240              	.LASF120:
 2241 0015 77747472 		.ascii	"wttrp\000"
 2241      7000
 2242              	.LASF117:
 2243 001b 7264796D 		.ascii	"rdymsg\000"
 2243      736700
 2244              	.LASF16:
 2245 0022 75696E74 		.ascii	"uint64_t\000"
 2245      36345F74 
 2245      00
 2246              	.LASF5:
 2247 002b 5F5F7569 		.ascii	"__uint8_t\000"
 2247      6E74385F 
 2247      7400
 2248              	.LASF102:
 2249 0035 706F7274 		.ascii	"port_intctx\000"
 2249      5F696E74 
 2249      63747800 
 2250              	.LASF70:
 2251 0041 73797374 		.ascii	"system_debug_t\000"
 2251      656D5F64 
 2251      65627567 
 2251      5F7400
 2252              	.LASF133:
 2253 0050 706F7274 		.ascii	"port_lock\000"
 2253      5F6C6F63 
 2253      6B00
 2254              	.LASF12:
 2255 005a 6C6F6E67 		.ascii	"long long unsigned int\000"
 2255      206C6F6E 
ARM GAS  C:\Users\jo\AppData\Local\Temp\ccUHdSxL.s 			page 41


 2255      6720756E 
 2255      7369676E 
 2255      65642069 
 2256              	.LASF114:
 2257 0071 63685F74 		.ascii	"ch_trace_buffer_t\000"
 2257      72616365 
 2257      5F627566 
 2257      6665725F 
 2257      7400
 2258              	.LASF109:
 2259 0083 73655F73 		.ascii	"se_state\000"
 2259      74617465 
 2259      00
 2260              	.LASF118:
 2261 008c 65786974 		.ascii	"exitcode\000"
 2261      636F6465 
 2261      00
 2262              	.LASF80:
 2263 0095 6D61696E 		.ascii	"mainthread\000"
 2263      74687265 
 2263      616400
 2264              	.LASF67:
 2265 00a0 76697274 		.ascii	"virtual_timers_list_t\000"
 2265      75616C5F 
 2265      74696D65 
 2265      72735F6C 
 2265      6973745F 
 2266              	.LASF83:
 2267 00b6 43505549 		.ascii	"CPUID\000"
 2267      4400
 2268              	.LASF50:
 2269 00bc 63685F74 		.ascii	"ch_threads_queue\000"
 2269      68726561 
 2269      64735F71 
 2269      75657565 
 2269      00
 2270              	.LASF29:
 2271 00cd 705F7072 		.ascii	"p_prio\000"
 2271      696F00
 2272              	.LASF148:
 2273 00d4 433A5C55 		.ascii	"C:\\Users\\jo\\Documents\\GitHub\\ChibiOS\\demos\\S"
 2273      73657273 
 2273      5C6A6F5C 
 2273      446F6375 
 2273      6D656E74 
 2274 0100 544D3332 		.ascii	"TM32\\RT-STM32F407-DISCOVERY-uHttp\000"
 2274      5C52542D 
 2274      53544D33 
 2274      32463430 
 2274      372D4449 
 2275              	.LASF95:
 2276 0122 49534152 		.ascii	"ISAR\000"
 2276      00
 2277              	.LASF10:
 2278 0127 6C6F6E67 		.ascii	"long long int\000"
 2278      206C6F6E 
 2278      6720696E 
ARM GAS  C:\Users\jo\AppData\Local\Temp\ccUHdSxL.s 			page 42


 2278      7400
 2279              	.LASF1:
 2280 0135 7369676E 		.ascii	"signed char\000"
 2280      65642063 
 2280      68617200 
 2281              	.LASF44:
 2282 0141 705F6D70 		.ascii	"p_mpool\000"
 2282      6F6F6C00 
 2283              	.LASF128:
 2284 0149 6D5F7175 		.ascii	"m_queue\000"
 2284      65756500 
 2285              	.LASF79:
 2286 0151 76746C69 		.ascii	"vtlist\000"
 2286      737400
 2287              	.LASF134:
 2288 0158 706F7274 		.ascii	"port_unlock\000"
 2288      5F756E6C 
 2288      6F636B00 
 2289              	.LASF77:
 2290 0164 63685F73 		.ascii	"ch_system\000"
 2290      79737465 
 2290      6D00
 2291              	.LASF7:
 2292 016e 6C6F6E67 		.ascii	"long int\000"
 2292      20696E74 
 2292      00
 2293              	.LASF19:
 2294 0177 74737461 		.ascii	"tstate_t\000"
 2294      74655F74 
 2294      00
 2295              	.LASF147:
 2296 0180 2E2E2F2E 		.ascii	"../../../os/rt/ports/ARMCMx/chcore_v7m.c\000"
 2296      2E2F2E2E 
 2296      2F6F732F 
 2296      72742F70 
 2296      6F727473 
 2297              	.LASF107:
 2298 01a9 73655F74 		.ascii	"se_tp\000"
 2298      7000
 2299              	.LASF151:
 2300 01af 63685363 		.ascii	"chSchIsPreemptionRequired\000"
 2300      68497350 
 2300      7265656D 
 2300      7074696F 
 2300      6E526571 
 2301              	.LASF31:
 2302 01c9 705F6E65 		.ascii	"p_newer\000"
 2302      77657200 
 2303              	.LASF125:
 2304 01d1 735F7175 		.ascii	"s_queue\000"
 2304      65756500 
 2305              	.LASF92:
 2306 01d9 42464152 		.ascii	"BFAR\000"
 2306      00
 2307              	.LASF111:
 2308 01de 74625F73 		.ascii	"tb_size\000"
 2308      697A6500 
ARM GAS  C:\Users\jo\AppData\Local\Temp\ccUHdSxL.s 			page 43


 2309              	.LASF93:
 2310 01e6 41465352 		.ascii	"AFSR\000"
 2310      00
 2311              	.LASF56:
 2312 01eb 725F6E65 		.ascii	"r_newer\000"
 2312      77657200 
 2313              	.LASF99:
 2314 01f3 72656761 		.ascii	"regarm_t\000"
 2314      726D5F74 
 2314      00
 2315              	.LASF63:
 2316 01fc 76745F70 		.ascii	"vt_prev\000"
 2316      72657600 
 2317              	.LASF98:
 2318 0204 5343425F 		.ascii	"SCB_Type\000"
 2318      54797065 
 2318      00
 2319              	.LASF132:
 2320 020d 6D757465 		.ascii	"mutex_t\000"
 2320      785F7400 
 2321              	.LASF137:
 2322 0215 76616C75 		.ascii	"value\000"
 2322      6500
 2323              	.LASF74:
 2324 021b 6C6F636B 		.ascii	"lock_cnt\000"
 2324      5F636E74 
 2324      00
 2325              	.LASF81:
 2326 0224 69646C65 		.ascii	"idle_thread_wa\000"
 2326      5F746872 
 2326      6561645F 
 2326      776100
 2327              	.LASF24:
 2328 0233 636E745F 		.ascii	"cnt_t\000"
 2328      7400
 2329              	.LASF34:
 2330 0239 705F7374 		.ascii	"p_stklimit\000"
 2330      6B6C696D 
 2330      697400
 2331              	.LASF0:
 2332 0244 756E7369 		.ascii	"unsigned int\000"
 2332      676E6564 
 2332      20696E74 
 2332      00
 2333              	.LASF136:
 2334 0251 5F5F7365 		.ascii	"__set_PSP\000"
 2334      745F5053 
 2334      5000
 2335              	.LASF62:
 2336 025b 76745F6E 		.ascii	"vt_next\000"
 2336      65787400 
 2337              	.LASF121:
 2338 0263 77747365 		.ascii	"wtsemp\000"
 2338      6D7000
 2339              	.LASF39:
 2340 026a 705F6D73 		.ascii	"p_msgqueue\000"
 2340      67717565 
ARM GAS  C:\Users\jo\AppData\Local\Temp\ccUHdSxL.s 			page 44


 2340      756500
 2341              	.LASF85:
 2342 0275 56544F52 		.ascii	"VTOR\000"
 2342      00
 2343              	.LASF126:
 2344 027a 735F636E 		.ascii	"s_cnt\000"
 2344      7400
 2345              	.LASF47:
 2346 0280 63685F74 		.ascii	"ch_thread\000"
 2346      68726561 
 2346      6400
 2347              	.LASF84:
 2348 028a 49435352 		.ascii	"ICSR\000"
 2348      00
 2349              	.LASF22:
 2350 028f 6D73675F 		.ascii	"msg_t\000"
 2350      7400
 2351              	.LASF86:
 2352 0295 41495243 		.ascii	"AIRCR\000"
 2352      5200
 2353              	.LASF90:
 2354 029b 44465352 		.ascii	"DFSR\000"
 2354      00
 2355              	.LASF91:
 2356 02a0 4D4D4641 		.ascii	"MMFAR\000"
 2356      5200
 2357              	.LASF142:
 2358 02a6 5F706F72 		.ascii	"_port_irq_epilogue\000"
 2358      745F6972 
 2358      715F6570 
 2358      696C6F67 
 2358      756500
 2359              	.LASF113:
 2360 02b9 74625F62 		.ascii	"tb_buffer\000"
 2360      75666665 
 2360      7200
 2361              	.LASF52:
 2362 02c3 63685F72 		.ascii	"ch_ready_list\000"
 2362      65616479 
 2362      5F6C6973 
 2362      7400
 2363              	.LASF23:
 2364 02d1 6576656E 		.ascii	"eventmask_t\000"
 2364      746D6173 
 2364      6B5F7400 
 2365              	.LASF138:
 2366 02dd 746F704F 		.ascii	"topOfProcStack\000"
 2366      6650726F 
 2366      63537461 
 2366      636B00
 2367              	.LASF6:
 2368 02ec 5F5F696E 		.ascii	"__int32_t\000"
 2368      7433325F 
 2368      7400
 2369              	.LASF146:
 2370 02f6 474E5520 		.ascii	"GNU C 4.9.3 20141119 (release) [ARM/embedded-4_9-br"
 2370      4320342E 
ARM GAS  C:\Users\jo\AppData\Local\Temp\ccUHdSxL.s 			page 45


 2370      392E3320 
 2370      32303134 
 2370      31313139 
 2371 0329 616E6368 		.ascii	"anch revision 218278] -mcpu=cortex-m4 -mno-thumb-in"
 2371      20726576 
 2371      6973696F 
 2371      6E203231 
 2371      38323738 
 2372 035c 74657277 		.ascii	"terwork -mthumb -ggdb -O2 -fomit-frame-pointer -fal"
 2372      6F726B20 
 2372      2D6D7468 
 2372      756D6220 
 2372      2D676764 
 2373 038f 69676E2D 		.ascii	"ign-functions=16 -ffunction-sections -fdata-section"
 2373      66756E63 
 2373      74696F6E 
 2373      733D3136 
 2373      202D6666 
 2374 03c2 73202D66 		.ascii	"s -fno-common\000"
 2374      6E6F2D63 
 2374      6F6D6D6F 
 2374      6E00
 2375              	.LASF100:
 2376 03d0 73746B61 		.ascii	"stkalign_t\000"
 2376      6C69676E 
 2376      5F7400
 2377              	.LASF46:
 2378 03db 74687265 		.ascii	"threads_list_t\000"
 2378      6164735F 
 2378      6C697374 
 2378      5F7400
 2379              	.LASF38:
 2380 03ea 705F7761 		.ascii	"p_waiting\000"
 2380      6974696E 
 2380      6700
 2381              	.LASF82:
 2382 03f4 73697A65 		.ascii	"sizetype\000"
 2382      74797065 
 2382      00
 2383              	.LASF45:
 2384 03fd 74687265 		.ascii	"thread_reference_t\000"
 2384      61645F72 
 2384      65666572 
 2384      656E6365 
 2384      5F7400
 2385              	.LASF68:
 2386 0410 63685F76 		.ascii	"ch_virtual_timers_list\000"
 2386      69727475 
 2386      616C5F74 
 2386      696D6572 
 2386      735F6C69 
 2387              	.LASF88:
 2388 0427 43465352 		.ascii	"CFSR\000"
 2388      00
 2389              	.LASF112:
 2390 042c 74625F70 		.ascii	"tb_ptr\000"
 2390      747200
ARM GAS  C:\Users\jo\AppData\Local\Temp\ccUHdSxL.s 			page 46


 2391              	.LASF110:
 2392 0433 63685F73 		.ascii	"ch_swc_event_t\000"
 2392      77635F65 
 2392      76656E74 
 2392      5F7400
 2393              	.LASF69:
 2394 0442 76745F6C 		.ascii	"vt_lasttime\000"
 2394      61737474 
 2394      696D6500 
 2395              	.LASF32:
 2396 044e 705F6F6C 		.ascii	"p_older\000"
 2396      64657200 
 2397              	.LASF55:
 2398 0456 725F6374 		.ascii	"r_ctx\000"
 2398      7800
 2399              	.LASF103:
 2400 045c 706F7274 		.ascii	"port_extctx\000"
 2400      5F657874 
 2400      63747800 
 2401              	.LASF116:
 2402 0468 746D5F63 		.ascii	"tm_calibration_t\000"
 2402      616C6962 
 2402      72617469 
 2402      6F6E5F74 
 2402      00
 2403              	.LASF58:
 2404 0479 725F6375 		.ascii	"r_current\000"
 2404      7272656E 
 2404      7400
 2405              	.LASF57:
 2406 0483 725F6F6C 		.ascii	"r_older\000"
 2406      64657200 
 2407              	.LASF11:
 2408 048b 5F5F7569 		.ascii	"__uint64_t\000"
 2408      6E743634 
 2408      5F7400
 2409              	.LASF20:
 2410 0496 74726566 		.ascii	"trefs_t\000"
 2410      735F7400 
 2411              	.LASF96:
 2412 049e 52455345 		.ascii	"RESERVED0\000"
 2412      52564544 
 2412      3000
 2413              	.LASF143:
 2414 04a8 63747870 		.ascii	"ctxp\000"
 2414      00
 2415              	.LASF60:
 2416 04ad 76697274 		.ascii	"virtual_timer_t\000"
 2416      75616C5F 
 2416      74696D65 
 2416      725F7400 
 2417              	.LASF28:
 2418 04bd 705F7072 		.ascii	"p_prev\000"
 2418      657600
 2419              	.LASF21:
 2420 04c4 74707269 		.ascii	"tprio_t\000"
 2420      6F5F7400 
ARM GAS  C:\Users\jo\AppData\Local\Temp\ccUHdSxL.s 			page 47


 2421              	.LASF71:
 2422 04cc 63685F73 		.ascii	"ch_system_debug\000"
 2422      79737465 
 2422      6D5F6465 
 2422      62756700 
 2423              	.LASF145:
 2424 04dc 5F426F6F 		.ascii	"_Bool\000"
 2424      6C00
 2425              	.LASF14:
 2426 04e2 696E7433 		.ascii	"int32_t\000"
 2426      325F7400 
 2427              	.LASF2:
 2428 04ea 756E7369 		.ascii	"unsigned char\000"
 2428      676E6564 
 2428      20636861 
 2428      7200
 2429              	.LASF87:
 2430 04f8 53484353 		.ascii	"SHCSR\000"
 2430      5200
 2431              	.LASF144:
 2432 04fe 49544D5F 		.ascii	"ITM_RxBuffer\000"
 2432      52784275 
 2432      66666572 
 2432      00
 2433              	.LASF42:
 2434 050b 705F6D74 		.ascii	"p_mtxlist\000"
 2434      786C6973 
 2434      7400
 2435              	.LASF3:
 2436 0515 73686F72 		.ascii	"short int\000"
 2436      7420696E 
 2436      7400
 2437              	.LASF35:
 2438 051f 705F7374 		.ascii	"p_state\000"
 2438      61746500 
 2439              	.LASF105:
 2440 0527 78707372 		.ascii	"xpsr\000"
 2440      00
 2441              	.LASF54:
 2442 052c 725F7072 		.ascii	"r_prio\000"
 2442      696F00
 2443              	.LASF123:
 2444 0533 65776D61 		.ascii	"ewmask\000"
 2444      736B00
 2445              	.LASF27:
 2446 053a 705F6E65 		.ascii	"p_next\000"
 2446      787400
 2447              	.LASF18:
 2448 0541 746D6F64 		.ascii	"tmode_t\000"
 2448      655F7400 
 2449              	.LASF36:
 2450 0549 705F666C 		.ascii	"p_flags\000"
 2450      61677300 
 2451              	.LASF4:
 2452 0551 73686F72 		.ascii	"short unsigned int\000"
 2452      7420756E 
 2452      7369676E 
ARM GAS  C:\Users\jo\AppData\Local\Temp\ccUHdSxL.s 			page 48


 2452      65642069 
 2452      6E7400
 2453              	.LASF104:
 2454 0564 6C725F74 		.ascii	"lr_thd\000"
 2454      686400
 2455              	.LASF141:
 2456 056b 5356435F 		.ascii	"SVC_Handler\000"
 2456      48616E64 
 2456      6C657200 
 2457              	.LASF61:
 2458 0577 63685F76 		.ascii	"ch_virtual_timer\000"
 2458      69727475 
 2458      616C5F74 
 2458      696D6572 
 2458      00
 2459              	.LASF124:
 2460 0588 63685F73 		.ascii	"ch_semaphore\000"
 2460      656D6170 
 2460      686F7265 
 2460      00
 2461              	.LASF41:
 2462 0595 705F6570 		.ascii	"p_epending\000"
 2462      656E6469 
 2462      6E6700
 2463              	.LASF15:
 2464 05a0 75696E74 		.ascii	"uint32_t\000"
 2464      33325F74 
 2464      00
 2465              	.LASF122:
 2466 05a9 77746D74 		.ascii	"wtmtxp\000"
 2466      787000
 2467              	.LASF53:
 2468 05b0 725F7175 		.ascii	"r_queue\000"
 2468      65756500 
 2469              	.LASF64:
 2470 05b8 76745F64 		.ascii	"vt_delta\000"
 2470      656C7461 
 2470      00
 2471              	.LASF48:
 2472 05c1 63685F74 		.ascii	"ch_threads_list\000"
 2472      68726561 
 2472      64735F6C 
 2472      69737400 
 2473              	.LASF9:
 2474 05d1 6C6F6E67 		.ascii	"long unsigned int\000"
 2474      20756E73 
 2474      69676E65 
 2474      6420696E 
 2474      7400
 2475              	.LASF131:
 2476 05e3 63686172 		.ascii	"char\000"
 2476      00
 2477              	.LASF139:
 2478 05e8 706F7274 		.ascii	"port_unlock_from_isr\000"
 2478      5F756E6C 
 2478      6F636B5F 
 2478      66726F6D 
ARM GAS  C:\Users\jo\AppData\Local\Temp\ccUHdSxL.s 			page 49


 2478      5F697372 
 2479              	.LASF26:
 2480 05fd 74687265 		.ascii	"thread_t\000"
 2480      61645F74 
 2480      00
 2481              	.LASF130:
 2482 0606 6D5F6E65 		.ascii	"m_next\000"
 2482      787400
 2483              	.LASF25:
 2484 060d 73797374 		.ascii	"systime_t\000"
 2484      696D655F 
 2484      7400
 2485              	.LASF43:
 2486 0617 705F7265 		.ascii	"p_realprio\000"
 2486      616C7072 
 2486      696F00
 2487              	.LASF59:
 2488 0622 76746675 		.ascii	"vtfunc_t\000"
 2488      6E635F74 
 2488      00
 2489              	.LASF8:
 2490 062b 5F5F7569 		.ascii	"__uint32_t\000"
 2490      6E743332 
 2490      5F7400
 2491              	.LASF135:
 2492 0636 5F5F7365 		.ascii	"__set_BASEPRI\000"
 2492      745F4241 
 2492      53455052 
 2492      4900
 2493              	.LASF72:
 2494 0644 70616E69 		.ascii	"panic_msg\000"
 2494      635F6D73 
 2494      6700
 2495              	.LASF115:
 2496 064e 6F666673 		.ascii	"offset\000"
 2496      657400
 2497              	.LASF101:
 2498 0655 636F6E74 		.ascii	"context\000"
 2498      65787400 
 2499              	.LASF76:
 2500 065d 63685F73 		.ascii	"ch_system_t\000"
 2500      79737465 
 2500      6D5F7400 
 2501              	.LASF17:
 2502 0669 7274636E 		.ascii	"rtcnt_t\000"
 2502      745F7400 
 2503              	.LASF140:
 2504 0671 706F7274 		.ascii	"port_lock_from_isr\000"
 2504      5F6C6F63 
 2504      6B5F6672 
 2504      6F6D5F69 
 2504      737200
 2505              	.LASF149:
 2506 0684 5F5F6765 		.ascii	"__get_PSP\000"
 2506      745F5053 
 2506      5000
 2507              	.LASF66:
ARM GAS  C:\Users\jo\AppData\Local\Temp\ccUHdSxL.s 			page 50


 2508 068e 76745F70 		.ascii	"vt_par\000"
 2508      617200
 2509              	.LASF49:
 2510 0695 74687265 		.ascii	"threads_queue_t\000"
 2510      6164735F 
 2510      71756575 
 2510      655F7400 
 2511              	.LASF127:
 2512 06a5 63685F6D 		.ascii	"ch_mutex\000"
 2512      75746578 
 2512      00
 2513              	.LASF37:
 2514 06ae 705F7265 		.ascii	"p_refs\000"
 2514      667300
 2515              	.LASF73:
 2516 06b5 6973725F 		.ascii	"isr_cnt\000"
 2516      636E7400 
 2517              	.LASF94:
 2518 06bd 4D4D4652 		.ascii	"MMFR\000"
 2518      00
 2519              	.LASF78:
 2520 06c2 726C6973 		.ascii	"rlist\000"
 2520      7400
 2521              	.LASF13:
 2522 06c8 75696E74 		.ascii	"uint8_t\000"
 2522      385F7400 
 2523              	.LASF119:
 2524 06d0 77746F62 		.ascii	"wtobjp\000"
 2524      6A7000
 2525              	.LASF33:
 2526 06d7 705F6E61 		.ascii	"p_name\000"
 2526      6D6500
 2527              	.LASF75:
 2528 06de 74726163 		.ascii	"trace_buffer\000"
 2528      655F6275 
 2528      66666572 
 2528      00
 2529              	.LASF40:
 2530 06eb 705F6D73 		.ascii	"p_msg\000"
 2530      6700
 2531              	.LASF97:
 2532 06f1 43504143 		.ascii	"CPACR\000"
 2532      5200
 2533              	.LASF89:
 2534 06f7 48465352 		.ascii	"HFSR\000"
 2534      00
 2535              	.LASF129:
 2536 06fc 6D5F6F77 		.ascii	"m_owner\000"
 2536      6E657200 
 2537              	.LASF150:
 2538 0704 72657375 		.ascii	"result\000"
 2538      6C7400
 2539              	.LASF108:
 2540 070b 73655F77 		.ascii	"se_wtobjp\000"
 2540      746F626A 
 2540      7000
 2541              	.LASF30:
ARM GAS  C:\Users\jo\AppData\Local\Temp\ccUHdSxL.s 			page 51


 2542 0715 705F6374 		.ascii	"p_ctx\000"
 2542      7800
 2543              	.LASF65:
 2544 071b 76745F66 		.ascii	"vt_func\000"
 2544      756E6300 
 2545              		.ident	"GCC: (GNU Tools for ARM Embedded Processors) 4.9.3 20141119 (release) [ARM/embedded-4_9-br
ARM GAS  C:\Users\jo\AppData\Local\Temp\ccUHdSxL.s 			page 52


DEFINED SYMBOLS
                            *ABS*:00000000 chcore_v7m.c
C:\Users\jo\AppData\Local\Temp\ccUHdSxL.s:19     .text.SVC_Handler:00000000 $t
C:\Users\jo\AppData\Local\Temp\ccUHdSxL.s:25     .text.SVC_Handler:00000000 SVC_Handler
C:\Users\jo\AppData\Local\Temp\ccUHdSxL.s:79     .text._port_irq_epilogue:00000000 $t
C:\Users\jo\AppData\Local\Temp\ccUHdSxL.s:85     .text._port_irq_epilogue:00000000 _port_irq_epilogue
C:\Users\jo\AppData\Local\Temp\ccUHdSxL.s:180    .text._port_irq_epilogue:00000044 $d
                     .debug_frame:00000010 $d

UNDEFINED SYMBOLS
chSchIsPreemptionRequired
_port_switch_from_isr
_port_exit_from_isr
