ARM GAS  C:\Users\jo\AppData\Local\Temp\cc7FYMfi.s 			page 1


   1              		.syntax unified
   2              		.cpu cortex-m4
   3              		.fpu softvfp
   4              		.eabi_attribute 20, 1
   5              		.eabi_attribute 21, 1
   6              		.eabi_attribute 23, 3
   7              		.eabi_attribute 24, 1
   8              		.eabi_attribute 25, 1
   9              		.eabi_attribute 26, 1
  10              		.eabi_attribute 30, 2
  11              		.eabi_attribute 34, 1
  12              		.eabi_attribute 18, 4
  13              		.thumb
  14              		.file	"chcond.c"
  15              		.text
  16              	.Ltext0:
  17              		.cfi_sections	.debug_frame
  18              		.section	.text.chCondObjectInit,"ax",%progbits
  19              		.align	2
  20              		.p2align 4,,15
  21              		.global	chCondObjectInit
  22              		.thumb
  23              		.thumb_func
  24              		.type	chCondObjectInit, %function
  25              	chCondObjectInit:
  26              	.LFB228:
  27              		.file 1 "../../../os/rt/src/chcond.c"
  28              		.loc 1 75 0
  29              		.cfi_startproc
  30              		@ args = 0, pretend = 0, frame = 0
  31              		@ frame_needed = 0, uses_anonymous_args = 0
  32              	.LVL0:
  33 0000 10B5     		push	{r4, lr}
  34              		.cfi_def_cfa_offset 8
  35              		.cfi_offset 4, -8
  36              		.cfi_offset 14, -4
  37              		.loc 1 77 0
  38 0002 0446     		mov	r4, r0
  39 0004 10B1     		cbz	r0, .L5
  40              	.LVL1:
  41              	.LBB63:
  42              	.LBB64:
  43              		.file 2 "../../../os/rt/include/chschd.h"
  44              		.loc 2 604 0
  45 0006 2460     		str	r4, [r4]
  46              		.loc 2 605 0
  47 0008 6460     		str	r4, [r4, #4]
  48 000a 10BD     		pop	{r4, pc}
  49              	.LVL2:
  50              	.L5:
  51              	.LBE64:
  52              	.LBE63:
  53              		.loc 1 77 0 discriminator 2
  54 000c 0248     		ldr	r0, .L6
  55              	.LVL3:
  56 000e FFF7FEFF 		bl	chSysHalt
  57              	.LVL4:
ARM GAS  C:\Users\jo\AppData\Local\Temp\cc7FYMfi.s 			page 2


  58              	.LBB66:
  59              	.LBB65:
  60              		.loc 2 604 0 discriminator 2
  61 0012 2460     		str	r4, [r4]
  62              		.loc 2 605 0 discriminator 2
  63 0014 6460     		str	r4, [r4, #4]
  64 0016 10BD     		pop	{r4, pc}
  65              	.LVL5:
  66              	.L7:
  67              		.align	2
  68              	.L6:
  69 0018 00000000 		.word	.LANCHOR0
  70              	.LBE65:
  71              	.LBE66:
  72              		.cfi_endproc
  73              	.LFE228:
  74              		.size	chCondObjectInit, .-chCondObjectInit
  75 001c AFF30080 		.section	.text.chCondSignal,"ax",%progbits
  76              		.align	2
  77              		.p2align 4,,15
  78              		.global	chCondSignal
  79              		.thumb
  80              		.thumb_func
  81              		.type	chCondSignal, %function
  82              	chCondSignal:
  83              	.LFB229:
  84              		.loc 1 89 0
  85              		.cfi_startproc
  86              		@ args = 0, pretend = 0, frame = 0
  87              		@ frame_needed = 0, uses_anonymous_args = 0
  88              	.LVL6:
  89 0000 10B5     		push	{r4, lr}
  90              		.cfi_def_cfa_offset 8
  91              		.cfi_offset 4, -8
  92              		.cfi_offset 14, -4
  93              		.loc 1 91 0
  94 0002 0446     		mov	r4, r0
  95 0004 F8B1     		cbz	r0, .L13
  96              	.LVL7:
  97              	.L9:
  98              	.LBB81:
  99              	.LBB82:
 100              	.LBB83:
 101              	.LBB84:
 102              	.LBB85:
 103              		.file 3 "../../../os/ext/CMSIS/include/core_cmFunc.h"
 104              		.loc 3 546 0
 105 0006 2023     		movs	r3, #32
 106              	@ 546 "../../../os/ext/CMSIS/include/core_cmFunc.h" 1
 107 0008 83F31188 		MSR basepri, r3
 108              	@ 0 "" 2
 109              		.thumb
 110              	.LBE85:
 111              	.LBE84:
 112              	.LBE83:
 113              		.file 4 "../../../os/rt/include/chsys.h"
 114              		.loc 4 350 0
ARM GAS  C:\Users\jo\AppData\Local\Temp\cc7FYMfi.s 			page 3


 115 000c FFF7FEFF 		bl	_dbg_check_lock
 116              	.LVL8:
 117              	.LBE82:
 118              	.LBE81:
 119              	.LBB86:
 120              	.LBB87:
 121              		.loc 2 631 0
 122 0010 2068     		ldr	r0, [r4]
 123              	.LBE87:
 124              	.LBE86:
 125              		.loc 1 94 0
 126 0012 A042     		cmp	r0, r4
 127 0014 05D0     		beq	.L10
 128              	.LVL9:
 129              	.LBB88:
 130              	.LBB89:
 131              		.loc 2 674 0
 132 0016 0368     		ldr	r3, [r0]
 133 0018 2360     		str	r3, [r4]
 134              	.LBE89:
 135              	.LBE88:
 136              		.loc 1 95 0
 137 001a 0021     		movs	r1, #0
 138              	.LBB91:
 139              	.LBB90:
 140              		.loc 2 675 0
 141 001c 5C60     		str	r4, [r3, #4]
 142              	.LBE90:
 143              	.LBE91:
 144              		.loc 1 95 0
 145 001e FFF7FEFF 		bl	chSchWakeupS
 146              	.LVL10:
 147              	.L10:
 148              	.LBB92:
 149              	.LBB93:
 150              		.loc 4 360 0
 151 0022 FFF7FEFF 		bl	_dbg_check_unlock
 152              	.LVL11:
 153              		.loc 4 367 0
 154 0026 0A4B     		ldr	r3, .L14
 155 0028 1A68     		ldr	r2, [r3]
 156 002a 9A42     		cmp	r2, r3
 157 002c 07D0     		beq	.L11
 158 002e 9969     		ldr	r1, [r3, #24]
 159 0030 9368     		ldr	r3, [r2, #8]
 160 0032 8A68     		ldr	r2, [r1, #8]
 161 0034 9A42     		cmp	r2, r3
 162 0036 02D2     		bcs	.L11
 163 0038 0648     		ldr	r0, .L14+4
 164 003a FFF7FEFF 		bl	chSysHalt
 165              	.LVL12:
 166              	.L11:
 167              	.LBB94:
 168              	.LBB95:
 169              	.LBB96:
 170              		.loc 3 546 0
 171 003e 0023     		movs	r3, #0
ARM GAS  C:\Users\jo\AppData\Local\Temp\cc7FYMfi.s 			page 4


 172              	@ 546 "../../../os/ext/CMSIS/include/core_cmFunc.h" 1
 173 0040 83F31188 		MSR basepri, r3
 174              	@ 0 "" 2
 175              		.thumb
 176 0044 10BD     		pop	{r4, pc}
 177              	.LVL13:
 178              	.L13:
 179              	.LBE96:
 180              	.LBE95:
 181              	.LBE94:
 182              	.LBE93:
 183              	.LBE92:
 184              		.loc 1 91 0 discriminator 2
 185 0046 0448     		ldr	r0, .L14+8
 186              	.LVL14:
 187 0048 FFF7FEFF 		bl	chSysHalt
 188              	.LVL15:
 189 004c DBE7     		b	.L9
 190              	.L15:
 191 004e 00BF     		.align	2
 192              	.L14:
 193 0050 00000000 		.word	ch
 194 0054 00000000 		.word	.LANCHOR2
 195 0058 00000000 		.word	.LANCHOR1
 196              		.cfi_endproc
 197              	.LFE229:
 198              		.size	chCondSignal, .-chCondSignal
 199 005c AFF30080 		.section	.text.chCondSignalI,"ax",%progbits
 200              		.align	2
 201              		.p2align 4,,15
 202              		.global	chCondSignalI
 203              		.thumb
 204              		.thumb_func
 205              		.type	chCondSignalI, %function
 206              	chCondSignalI:
 207              	.LFB230:
 208              		.loc 1 111 0
 209              		.cfi_startproc
 210              		@ args = 0, pretend = 0, frame = 0
 211              		@ frame_needed = 0, uses_anonymous_args = 0
 212              	.LVL16:
 213 0000 10B5     		push	{r4, lr}
 214              		.cfi_def_cfa_offset 8
 215              		.cfi_offset 4, -8
 216              		.cfi_offset 14, -4
 217              		.loc 1 111 0
 218 0002 0446     		mov	r4, r0
 219              		.loc 1 113 0
 220 0004 FFF7FEFF 		bl	chDbgCheckClassI
 221              	.LVL17:
 222              		.loc 1 114 0
 223 0008 6CB1     		cbz	r4, .L20
 224              	.L17:
 225              	.LVL18:
 226              	.LBB97:
 227              	.LBB98:
 228              		.loc 2 631 0
ARM GAS  C:\Users\jo\AppData\Local\Temp\cc7FYMfi.s 			page 5


 229 000a 2368     		ldr	r3, [r4]
 230              	.LBE98:
 231              	.LBE97:
 232              		.loc 1 116 0
 233 000c 9C42     		cmp	r4, r3
 234 000e 09D0     		beq	.L16
 235              	.LVL19:
 236              	.LBB99:
 237              	.LBB100:
 238              	.LBB101:
 239              		.loc 2 674 0
 240 0010 1A68     		ldr	r2, [r3]
 241 0012 2260     		str	r2, [r4]
 242              	.LBE101:
 243              	.LBE100:
 244              		.loc 1 118 0
 245 0014 0021     		movs	r1, #0
 246              	.LBB103:
 247              	.LBB102:
 248              		.loc 2 675 0
 249 0016 5460     		str	r4, [r2, #4]
 250              	.LBE102:
 251              	.LBE103:
 252              		.loc 1 118 0
 253 0018 5962     		str	r1, [r3, #36]
 254              		.loc 1 119 0
 255 001a 1846     		mov	r0, r3
 256              	.LBE99:
 257              		.loc 1 121 0
 258 001c BDE81040 		pop	{r4, lr}
 259              		.cfi_remember_state
 260              		.cfi_restore 14
 261              		.cfi_restore 4
 262              		.cfi_def_cfa_offset 0
 263              	.LVL20:
 264              	.LBB104:
 265              		.loc 1 119 0
 266 0020 FFF7FEBF 		b	chSchReadyI
 267              	.LVL21:
 268              	.L16:
 269              		.cfi_restore_state
 270 0024 10BD     		pop	{r4, pc}
 271              	.LVL22:
 272              	.L20:
 273              	.LBE104:
 274              		.loc 1 114 0 discriminator 2
 275 0026 0248     		ldr	r0, .L21
 276 0028 FFF7FEFF 		bl	chSysHalt
 277              	.LVL23:
 278 002c EDE7     		b	.L17
 279              	.L22:
 280 002e 00BF     		.align	2
 281              	.L21:
 282 0030 00000000 		.word	.LANCHOR3
 283              		.cfi_endproc
 284              	.LFE230:
 285              		.size	chCondSignalI, .-chCondSignalI
ARM GAS  C:\Users\jo\AppData\Local\Temp\cc7FYMfi.s 			page 6


 286 0034 AFF30080 		.section	.text.chCondBroadcastI,"ax",%progbits
 286      AFF30080 
 286      AFF30080 
 287              		.align	2
 288              		.p2align 4,,15
 289              		.global	chCondBroadcastI
 290              		.thumb
 291              		.thumb_func
 292              		.type	chCondBroadcastI, %function
 293              	chCondBroadcastI:
 294              	.LFB232:
 295              		.loc 1 149 0
 296              		.cfi_startproc
 297              		@ args = 0, pretend = 0, frame = 0
 298              		@ frame_needed = 0, uses_anonymous_args = 0
 299              	.LVL24:
 300 0000 38B5     		push	{r3, r4, r5, lr}
 301              		.cfi_def_cfa_offset 16
 302              		.cfi_offset 3, -16
 303              		.cfi_offset 4, -12
 304              		.cfi_offset 5, -8
 305              		.cfi_offset 14, -4
 306              		.loc 1 149 0
 307 0002 0446     		mov	r4, r0
 308              		.loc 1 151 0
 309 0004 FFF7FEFF 		bl	chDbgCheckClassI
 310              	.LVL25:
 311              		.loc 1 152 0
 312 0008 74B1     		cbz	r4, .L30
 313              	.L24:
 314              	.LVL26:
 315              	.LBB105:
 316              	.LBB106:
 317              		.loc 2 631 0
 318 000a 2068     		ldr	r0, [r4]
 319              	.LBE106:
 320              	.LBE105:
 321              		.loc 1 157 0
 322 000c 8442     		cmp	r4, r0
 323 000e 0AD0     		beq	.L23
 324              		.loc 1 158 0
 325 0010 6FF00105 		mvn	r5, #1
 326              	.L26:
 327              	.LVL27:
 328              	.LBB108:
 329              	.LBB109:
 330              		.loc 2 674 0
 331 0014 0368     		ldr	r3, [r0]
 332 0016 2360     		str	r3, [r4]
 333              		.loc 2 675 0
 334 0018 5C60     		str	r4, [r3, #4]
 335              	.LBE109:
 336              	.LBE108:
 337              		.loc 1 158 0
 338 001a FFF7FEFF 		bl	chSchReadyI
 339              	.LVL28:
 340 001e 4562     		str	r5, [r0, #36]
ARM GAS  C:\Users\jo\AppData\Local\Temp\cc7FYMfi.s 			page 7


 341              	.LBB110:
 342              	.LBB107:
 343              		.loc 2 631 0
 344 0020 2068     		ldr	r0, [r4]
 345              	.LBE107:
 346              	.LBE110:
 347              		.loc 1 157 0
 348 0022 A042     		cmp	r0, r4
 349 0024 F6D1     		bne	.L26
 350              	.LVL29:
 351              	.L23:
 352 0026 38BD     		pop	{r3, r4, r5, pc}
 353              	.LVL30:
 354              	.L30:
 355              		.loc 1 152 0 discriminator 2
 356 0028 0148     		ldr	r0, .L31
 357 002a FFF7FEFF 		bl	chSysHalt
 358              	.LVL31:
 359 002e ECE7     		b	.L24
 360              	.L32:
 361              		.align	2
 362              	.L31:
 363 0030 00000000 		.word	.LANCHOR4
 364              		.cfi_endproc
 365              	.LFE232:
 366              		.size	chCondBroadcastI, .-chCondBroadcastI
 367 0034 AFF30080 		.section	.text.chCondBroadcast,"ax",%progbits
 367      AFF30080 
 367      AFF30080 
 368              		.align	2
 369              		.p2align 4,,15
 370              		.global	chCondBroadcast
 371              		.thumb
 372              		.thumb_func
 373              		.type	chCondBroadcast, %function
 374              	chCondBroadcast:
 375              	.LFB231:
 376              		.loc 1 130 0
 377              		.cfi_startproc
 378              		@ args = 0, pretend = 0, frame = 0
 379              		@ frame_needed = 0, uses_anonymous_args = 0
 380              	.LVL32:
 381 0000 10B5     		push	{r4, lr}
 382              		.cfi_def_cfa_offset 8
 383              		.cfi_offset 4, -8
 384              		.cfi_offset 14, -4
 385              	.LBB121:
 386              	.LBB122:
 387              	.LBB123:
 388              	.LBB124:
 389              	.LBB125:
 390              		.loc 3 546 0
 391 0002 2023     		movs	r3, #32
 392              	.LBE125:
 393              	.LBE124:
 394              	.LBE123:
 395              	.LBE122:
ARM GAS  C:\Users\jo\AppData\Local\Temp\cc7FYMfi.s 			page 8


 396              	.LBE121:
 397              		.loc 1 130 0
 398 0004 0446     		mov	r4, r0
 399              	.LBB130:
 400              	.LBB129:
 401              	.LBB128:
 402              	.LBB127:
 403              	.LBB126:
 404              		.loc 3 546 0
 405              	@ 546 "../../../os/ext/CMSIS/include/core_cmFunc.h" 1
 406 0006 83F31188 		MSR basepri, r3
 407              	@ 0 "" 2
 408              		.thumb
 409              	.LBE126:
 410              	.LBE127:
 411              	.LBE128:
 412              		.loc 4 350 0
 413 000a FFF7FEFF 		bl	_dbg_check_lock
 414              	.LVL33:
 415              	.LBE129:
 416              	.LBE130:
 417              		.loc 1 133 0
 418 000e 2046     		mov	r0, r4
 419 0010 FFF7FEFF 		bl	chCondBroadcastI
 420              	.LVL34:
 421              		.loc 1 134 0
 422 0014 FFF7FEFF 		bl	chSchRescheduleS
 423              	.LVL35:
 424              	.LBB131:
 425              	.LBB132:
 426              		.loc 4 360 0
 427 0018 FFF7FEFF 		bl	_dbg_check_unlock
 428              	.LVL36:
 429              		.loc 4 367 0
 430 001c 074B     		ldr	r3, .L36
 431 001e 1A68     		ldr	r2, [r3]
 432 0020 9A42     		cmp	r2, r3
 433 0022 07D0     		beq	.L34
 434 0024 9969     		ldr	r1, [r3, #24]
 435 0026 9368     		ldr	r3, [r2, #8]
 436 0028 8A68     		ldr	r2, [r1, #8]
 437 002a 9A42     		cmp	r2, r3
 438 002c 02D2     		bcs	.L34
 439 002e 0448     		ldr	r0, .L36+4
 440 0030 FFF7FEFF 		bl	chSysHalt
 441              	.LVL37:
 442              	.L34:
 443              	.LBB133:
 444              	.LBB134:
 445              	.LBB135:
 446              		.loc 3 546 0
 447 0034 0023     		movs	r3, #0
 448              	@ 546 "../../../os/ext/CMSIS/include/core_cmFunc.h" 1
 449 0036 83F31188 		MSR basepri, r3
 450              	@ 0 "" 2
 451              		.thumb
 452 003a 10BD     		pop	{r4, pc}
ARM GAS  C:\Users\jo\AppData\Local\Temp\cc7FYMfi.s 			page 9


 453              	.LVL38:
 454              	.L37:
 455              		.align	2
 456              	.L36:
 457 003c 00000000 		.word	ch
 458 0040 00000000 		.word	.LANCHOR2
 459              	.LBE135:
 460              	.LBE134:
 461              	.LBE133:
 462              	.LBE132:
 463              	.LBE131:
 464              		.cfi_endproc
 465              	.LFE231:
 466              		.size	chCondBroadcast, .-chCondBroadcast
 467 0044 AFF30080 		.section	.text.chCondWaitS,"ax",%progbits
 467      AFF30080 
 467      AFF30080 
 468              		.align	2
 469              		.p2align 4,,15
 470              		.global	chCondWaitS
 471              		.thumb
 472              		.thumb_func
 473              		.type	chCondWaitS, %function
 474              	chCondWaitS:
 475              	.LFB234:
 476              		.loc 1 205 0
 477              		.cfi_startproc
 478              		@ args = 0, pretend = 0, frame = 0
 479              		@ frame_needed = 0, uses_anonymous_args = 0
 480              	.LVL39:
 481 0000 70B5     		push	{r4, r5, r6, lr}
 482              		.cfi_def_cfa_offset 16
 483              		.cfi_offset 4, -16
 484              		.cfi_offset 5, -12
 485              		.cfi_offset 6, -8
 486              		.cfi_offset 14, -4
 487              		.loc 1 206 0
 488 0002 164E     		ldr	r6, .L50
 489              		.loc 1 205 0
 490 0004 0546     		mov	r5, r0
 491              		.loc 1 206 0
 492 0006 B469     		ldr	r4, [r6, #24]
 493              	.LVL40:
 494              		.loc 1 210 0
 495 0008 FFF7FEFF 		bl	chDbgCheckClassS
 496              	.LVL41:
 497              		.loc 1 211 0
 498 000c F5B1     		cbz	r5, .L47
 499              	.L39:
 500              		.loc 1 212 0 discriminator 1
 501 000e E36B     		ldr	r3, [r4, #60]
 502 0010 03B3     		cbz	r3, .L48
 503              	.L40:
 504              	.LBB136:
 505              	.LBB137:
 506              		.file 5 "../../../os/rt/include/chmtx.h"
 507              		.loc 5 146 0
ARM GAS  C:\Users\jo\AppData\Local\Temp\cc7FYMfi.s 			page 10


 508 0012 B369     		ldr	r3, [r6, #24]
 509 0014 DE6B     		ldr	r6, [r3, #60]
 510              	.LBE137:
 511              	.LBE136:
 512              		.loc 1 216 0
 513 0016 3046     		mov	r0, r6
 514 0018 FFF7FEFF 		bl	chMtxUnlockS
 515              	.LVL42:
 516              		.loc 1 220 0
 517 001c 6562     		str	r5, [r4, #36]
 518              	.LVL43:
 519              	.LBB138:
 520              	.LBB139:
 521              		.loc 2 653 0
 522 001e 2B46     		mov	r3, r5
 523 0020 03E0     		b	.L42
 524              	.LVL44:
 525              	.L49:
 526              		.loc 2 656 0
 527 0022 9968     		ldr	r1, [r3, #8]
 528 0024 A268     		ldr	r2, [r4, #8]
 529 0026 9142     		cmp	r1, r2
 530 0028 02D3     		bcc	.L43
 531              	.L42:
 532              		.loc 2 655 0
 533 002a 1B68     		ldr	r3, [r3]
 534              	.LVL45:
 535              		.loc 2 656 0
 536 002c 9D42     		cmp	r5, r3
 537 002e F8D1     		bne	.L49
 538              	.L43:
 539              		.loc 2 658 0
 540 0030 5A68     		ldr	r2, [r3, #4]
 541 0032 6260     		str	r2, [r4, #4]
 542              		.loc 2 657 0
 543 0034 2360     		str	r3, [r4]
 544              	.LBE139:
 545              	.LBE138:
 546              		.loc 1 222 0
 547 0036 0720     		movs	r0, #7
 548              	.LBB141:
 549              	.LBB140:
 550              		.loc 2 659 0
 551 0038 1460     		str	r4, [r2]
 552              		.loc 2 660 0
 553 003a 5C60     		str	r4, [r3, #4]
 554              	.LBE140:
 555              	.LBE141:
 556              		.loc 1 222 0
 557 003c FFF7FEFF 		bl	chSchGoSleepS
 558              	.LVL46:
 559              		.loc 1 223 0
 560 0040 646A     		ldr	r4, [r4, #36]
 561              	.LVL47:
 562              		.loc 1 224 0
 563 0042 3046     		mov	r0, r6
 564 0044 FFF7FEFF 		bl	chMtxLockS
ARM GAS  C:\Users\jo\AppData\Local\Temp\cc7FYMfi.s 			page 11


 565              	.LVL48:
 566              		.loc 1 227 0
 567 0048 2046     		mov	r0, r4
 568 004a 70BD     		pop	{r4, r5, r6, pc}
 569              	.LVL49:
 570              	.L47:
 571              		.loc 1 211 0 discriminator 2
 572 004c 0448     		ldr	r0, .L50+4
 573 004e FFF7FEFF 		bl	chSysHalt
 574              	.LVL50:
 575 0052 DCE7     		b	.L39
 576              	.L48:
 577              		.loc 1 212 0 discriminator 2
 578 0054 0248     		ldr	r0, .L50+4
 579 0056 FFF7FEFF 		bl	chSysHalt
 580              	.LVL51:
 581 005a DAE7     		b	.L40
 582              	.L51:
 583              		.align	2
 584              	.L50:
 585 005c 00000000 		.word	ch
 586 0060 00000000 		.word	.LANCHOR5
 587              		.cfi_endproc
 588              	.LFE234:
 589              		.size	chCondWaitS, .-chCondWaitS
 590 0064 AFF30080 		.section	.text.chCondWait,"ax",%progbits
 590      AFF30080 
 590      AFF30080 
 591              		.align	2
 592              		.p2align 4,,15
 593              		.global	chCondWait
 594              		.thumb
 595              		.thumb_func
 596              		.type	chCondWait, %function
 597              	chCondWait:
 598              	.LFB233:
 599              		.loc 1 179 0
 600              		.cfi_startproc
 601              		@ args = 0, pretend = 0, frame = 0
 602              		@ frame_needed = 0, uses_anonymous_args = 0
 603              	.LVL52:
 604 0000 10B5     		push	{r4, lr}
 605              		.cfi_def_cfa_offset 8
 606              		.cfi_offset 4, -8
 607              		.cfi_offset 14, -4
 608              	.LBB152:
 609              	.LBB153:
 610              	.LBB154:
 611              	.LBB155:
 612              	.LBB156:
 613              		.loc 3 546 0
 614 0002 2023     		movs	r3, #32
 615              	.LBE156:
 616              	.LBE155:
 617              	.LBE154:
 618              	.LBE153:
 619              	.LBE152:
ARM GAS  C:\Users\jo\AppData\Local\Temp\cc7FYMfi.s 			page 12


 620              		.loc 1 179 0
 621 0004 0446     		mov	r4, r0
 622              	.LBB161:
 623              	.LBB160:
 624              	.LBB159:
 625              	.LBB158:
 626              	.LBB157:
 627              		.loc 3 546 0
 628              	@ 546 "../../../os/ext/CMSIS/include/core_cmFunc.h" 1
 629 0006 83F31188 		MSR basepri, r3
 630              	@ 0 "" 2
 631              		.thumb
 632              	.LBE157:
 633              	.LBE158:
 634              	.LBE159:
 635              		.loc 4 350 0
 636 000a FFF7FEFF 		bl	_dbg_check_lock
 637              	.LVL53:
 638              	.LBE160:
 639              	.LBE161:
 640              		.loc 1 183 0
 641 000e 2046     		mov	r0, r4
 642 0010 FFF7FEFF 		bl	chCondWaitS
 643              	.LVL54:
 644 0014 0446     		mov	r4, r0
 645              	.LVL55:
 646              	.LBB162:
 647              	.LBB163:
 648              		.loc 4 360 0
 649 0016 FFF7FEFF 		bl	_dbg_check_unlock
 650              	.LVL56:
 651              		.loc 4 367 0
 652 001a 084B     		ldr	r3, .L55
 653 001c 1A68     		ldr	r2, [r3]
 654 001e 9A42     		cmp	r2, r3
 655 0020 07D0     		beq	.L53
 656 0022 9969     		ldr	r1, [r3, #24]
 657 0024 9368     		ldr	r3, [r2, #8]
 658 0026 8A68     		ldr	r2, [r1, #8]
 659 0028 9A42     		cmp	r2, r3
 660 002a 02D2     		bcs	.L53
 661 002c 0448     		ldr	r0, .L55+4
 662 002e FFF7FEFF 		bl	chSysHalt
 663              	.LVL57:
 664              	.L53:
 665              	.LBB164:
 666              	.LBB165:
 667              	.LBB166:
 668              		.loc 3 546 0
 669 0032 0023     		movs	r3, #0
 670              	@ 546 "../../../os/ext/CMSIS/include/core_cmFunc.h" 1
 671 0034 83F31188 		MSR basepri, r3
 672              	@ 0 "" 2
 673              		.thumb
 674              	.LBE166:
 675              	.LBE165:
 676              	.LBE164:
ARM GAS  C:\Users\jo\AppData\Local\Temp\cc7FYMfi.s 			page 13


 677              	.LBE163:
 678              	.LBE162:
 679              		.loc 1 186 0
 680 0038 2046     		mov	r0, r4
 681 003a 10BD     		pop	{r4, pc}
 682              	.LVL58:
 683              	.L56:
 684              		.align	2
 685              	.L55:
 686 003c 00000000 		.word	ch
 687 0040 00000000 		.word	.LANCHOR2
 688              		.cfi_endproc
 689              	.LFE233:
 690              		.size	chCondWait, .-chCondWait
 691 0044 AFF30080 		.section	.text.chCondWaitTimeoutS,"ax",%progbits
 691      AFF30080 
 691      AFF30080 
 692              		.align	2
 693              		.p2align 4,,15
 694              		.global	chCondWaitTimeoutS
 695              		.thumb
 696              		.thumb_func
 697              		.type	chCondWaitTimeoutS, %function
 698              	chCondWaitTimeoutS:
 699              	.LFB236:
 700              		.loc 1 296 0
 701              		.cfi_startproc
 702              		@ args = 0, pretend = 0, frame = 0
 703              		@ frame_needed = 0, uses_anonymous_args = 0
 704              	.LVL59:
 705 0000 F8B5     		push	{r3, r4, r5, r6, r7, lr}
 706              		.cfi_def_cfa_offset 24
 707              		.cfi_offset 3, -24
 708              		.cfi_offset 4, -20
 709              		.cfi_offset 5, -16
 710              		.cfi_offset 6, -12
 711              		.cfi_offset 7, -8
 712              		.cfi_offset 14, -4
 713              		.loc 1 296 0
 714 0002 0546     		mov	r5, r0
 715 0004 0F46     		mov	r7, r1
 716              		.loc 1 300 0
 717 0006 FFF7FEFF 		bl	chDbgCheckClassS
 718              	.LVL60:
 719              		.loc 1 301 0
 720 000a 1DB3     		cbz	r5, .L58
 721              		.loc 1 301 0 is_stmt 0 discriminator 3
 722 000c 17B3     		cbz	r7, .L58
 723              	.L59:
 724              		.loc 1 302 0 is_stmt 1 discriminator 1
 725 000e 164C     		ldr	r4, .L72
 726 0010 A369     		ldr	r3, [r4, #24]
 727 0012 DE6B     		ldr	r6, [r3, #60]
 728 0014 16B3     		cbz	r6, .L71
 729              	.L60:
 730              		.loc 1 306 0
 731 0016 3046     		mov	r0, r6
ARM GAS  C:\Users\jo\AppData\Local\Temp\cc7FYMfi.s 			page 14


 732 0018 FFF7FEFF 		bl	chMtxUnlockS
 733              	.LVL61:
 734              		.loc 1 310 0
 735 001c A469     		ldr	r4, [r4, #24]
 736              	.LBB167:
 737              	.LBB168:
 738              		.loc 2 653 0
 739 001e 2B46     		mov	r3, r5
 740              	.LBE168:
 741              	.LBE167:
 742              		.loc 1 310 0
 743 0020 6562     		str	r5, [r4, #36]
 744              	.LVL62:
 745 0022 03E0     		b	.L64
 746              	.LVL63:
 747              	.L61:
 748              	.LBB172:
 749              	.LBB169:
 750              		.loc 2 656 0
 751 0024 9968     		ldr	r1, [r3, #8]
 752 0026 A268     		ldr	r2, [r4, #8]
 753 0028 9142     		cmp	r1, r2
 754 002a 02D3     		bcc	.L65
 755              	.L64:
 756              		.loc 2 655 0
 757 002c 1B68     		ldr	r3, [r3]
 758              	.LVL64:
 759              		.loc 2 656 0
 760 002e 9D42     		cmp	r5, r3
 761 0030 F8D1     		bne	.L61
 762              	.L65:
 763              		.loc 2 658 0
 764 0032 5A68     		ldr	r2, [r3, #4]
 765 0034 6260     		str	r2, [r4, #4]
 766              		.loc 2 657 0
 767 0036 2360     		str	r3, [r4]
 768              	.LBE169:
 769              	.LBE172:
 770              		.loc 1 312 0
 771 0038 3946     		mov	r1, r7
 772              	.LBB173:
 773              	.LBB170:
 774              		.loc 2 659 0
 775 003a 1460     		str	r4, [r2]
 776              	.LBE170:
 777              	.LBE173:
 778              		.loc 1 312 0
 779 003c 0720     		movs	r0, #7
 780              	.LBB174:
 781              	.LBB171:
 782              		.loc 2 660 0
 783 003e 5C60     		str	r4, [r3, #4]
 784              	.LBE171:
 785              	.LBE174:
 786              		.loc 1 312 0
 787 0040 FFF7FEFF 		bl	chSchGoSleepTimeoutS
 788              	.LVL65:
ARM GAS  C:\Users\jo\AppData\Local\Temp\cc7FYMfi.s 			page 15


 789              		.loc 1 313 0
 790 0044 431C     		adds	r3, r0, #1
 791              		.loc 1 312 0
 792 0046 0446     		mov	r4, r0
 793              	.LVL66:
 794              		.loc 1 313 0
 795 0048 02D0     		beq	.L63
 796              		.loc 1 314 0
 797 004a 3046     		mov	r0, r6
 798              	.LVL67:
 799 004c FFF7FEFF 		bl	chMtxLockS
 800              	.LVL68:
 801              	.L63:
 802              		.loc 1 318 0
 803 0050 2046     		mov	r0, r4
 804 0052 F8BD     		pop	{r3, r4, r5, r6, r7, pc}
 805              	.LVL69:
 806              	.L58:
 807              		.loc 1 301 0 discriminator 4
 808 0054 0548     		ldr	r0, .L72+4
 809 0056 FFF7FEFF 		bl	chSysHalt
 810              	.LVL70:
 811 005a D8E7     		b	.L59
 812              	.L71:
 813              		.loc 1 302 0 discriminator 2
 814 005c 0348     		ldr	r0, .L72+4
 815 005e FFF7FEFF 		bl	chSysHalt
 816              	.LVL71:
 817 0062 A369     		ldr	r3, [r4, #24]
 818 0064 DE6B     		ldr	r6, [r3, #60]
 819 0066 D6E7     		b	.L60
 820              	.L73:
 821              		.align	2
 822              	.L72:
 823 0068 00000000 		.word	ch
 824 006c 00000000 		.word	.LANCHOR6
 825              		.cfi_endproc
 826              	.LFE236:
 827              		.size	chCondWaitTimeoutS, .-chCondWaitTimeoutS
 828              		.section	.text.chCondWaitTimeout,"ax",%progbits
 829              		.align	2
 830              		.p2align 4,,15
 831              		.global	chCondWaitTimeout
 832              		.thumb
 833              		.thumb_func
 834              		.type	chCondWaitTimeout, %function
 835              	chCondWaitTimeout:
 836              	.LFB235:
 837              		.loc 1 258 0
 838              		.cfi_startproc
 839              		@ args = 0, pretend = 0, frame = 0
 840              		@ frame_needed = 0, uses_anonymous_args = 0
 841              	.LVL72:
 842 0000 38B5     		push	{r3, r4, r5, lr}
 843              		.cfi_def_cfa_offset 16
 844              		.cfi_offset 3, -16
 845              		.cfi_offset 4, -12
ARM GAS  C:\Users\jo\AppData\Local\Temp\cc7FYMfi.s 			page 16


 846              		.cfi_offset 5, -8
 847              		.cfi_offset 14, -4
 848              		.loc 1 258 0
 849 0002 0546     		mov	r5, r0
 850 0004 0C46     		mov	r4, r1
 851              	.LBB185:
 852              	.LBB186:
 853              	.LBB187:
 854              	.LBB188:
 855              	.LBB189:
 856              		.loc 3 546 0
 857 0006 2023     		movs	r3, #32
 858              	@ 546 "../../../os/ext/CMSIS/include/core_cmFunc.h" 1
 859 0008 83F31188 		MSR basepri, r3
 860              	@ 0 "" 2
 861              		.thumb
 862              	.LBE189:
 863              	.LBE188:
 864              	.LBE187:
 865              		.loc 4 350 0
 866 000c FFF7FEFF 		bl	_dbg_check_lock
 867              	.LVL73:
 868              	.LBE186:
 869              	.LBE185:
 870              		.loc 1 262 0
 871 0010 2146     		mov	r1, r4
 872 0012 2846     		mov	r0, r5
 873 0014 FFF7FEFF 		bl	chCondWaitTimeoutS
 874              	.LVL74:
 875 0018 0446     		mov	r4, r0
 876              	.LVL75:
 877              	.LBB190:
 878              	.LBB191:
 879              		.loc 4 360 0
 880 001a FFF7FEFF 		bl	_dbg_check_unlock
 881              	.LVL76:
 882              		.loc 4 367 0
 883 001e 084B     		ldr	r3, .L77
 884 0020 1A68     		ldr	r2, [r3]
 885 0022 9A42     		cmp	r2, r3
 886 0024 07D0     		beq	.L75
 887 0026 9969     		ldr	r1, [r3, #24]
 888 0028 9368     		ldr	r3, [r2, #8]
 889 002a 8A68     		ldr	r2, [r1, #8]
 890 002c 9A42     		cmp	r2, r3
 891 002e 02D2     		bcs	.L75
 892 0030 0448     		ldr	r0, .L77+4
 893 0032 FFF7FEFF 		bl	chSysHalt
 894              	.LVL77:
 895              	.L75:
 896              	.LBB192:
 897              	.LBB193:
 898              	.LBB194:
 899              		.loc 3 546 0
 900 0036 0023     		movs	r3, #0
 901              	@ 546 "../../../os/ext/CMSIS/include/core_cmFunc.h" 1
 902 0038 83F31188 		MSR basepri, r3
ARM GAS  C:\Users\jo\AppData\Local\Temp\cc7FYMfi.s 			page 17


 903              	@ 0 "" 2
 904              		.thumb
 905              	.LBE194:
 906              	.LBE193:
 907              	.LBE192:
 908              	.LBE191:
 909              	.LBE190:
 910              		.loc 1 266 0
 911 003c 2046     		mov	r0, r4
 912 003e 38BD     		pop	{r3, r4, r5, pc}
 913              	.LVL78:
 914              	.L78:
 915              		.align	2
 916              	.L77:
 917 0040 00000000 		.word	ch
 918 0044 00000000 		.word	.LANCHOR2
 919              		.cfi_endproc
 920              	.LFE235:
 921              		.size	chCondWaitTimeout, .-chCondWaitTimeout
 922 0048 AFF30080 		.section	.rodata.__func__.6576,"a",%progbits
 922      AFF30080 
 923              		.align	2
 924              		.set	.LANCHOR5,. + 0
 925              		.type	__func__.6576, %object
 926              		.size	__func__.6576, 12
 927              	__func__.6576:
 928 0000 6368436F 		.ascii	"chCondWaitS\000"
 928      6E645761 
 928      69745300 
 929              		.section	.rodata.__func__.6550,"a",%progbits
 930              		.align	2
 931              		.set	.LANCHOR1,. + 0
 932              		.type	__func__.6550, %object
 933              		.size	__func__.6550, 13
 934              	__func__.6550:
 935 0000 6368436F 		.ascii	"chCondSignal\000"
 935      6E645369 
 935      676E616C 
 935      00
 936 000d 000000   		.section	.rodata.__func__.6546,"a",%progbits
 937              		.align	2
 938              		.set	.LANCHOR0,. + 0
 939              		.type	__func__.6546, %object
 940              		.size	__func__.6546, 17
 941              	__func__.6546:
 942 0000 6368436F 		.ascii	"chCondObjectInit\000"
 942      6E644F62 
 942      6A656374 
 942      496E6974 
 942      00
 943 0011 000000   		.section	.rodata.__func__.6554,"a",%progbits
 944              		.align	2
 945              		.set	.LANCHOR3,. + 0
 946              		.type	__func__.6554, %object
 947              		.size	__func__.6554, 14
 948              	__func__.6554:
 949 0000 6368436F 		.ascii	"chCondSignalI\000"
ARM GAS  C:\Users\jo\AppData\Local\Temp\cc7FYMfi.s 			page 18


 949      6E645369 
 949      676E616C 
 949      4900
 950 000e 0000     		.section	.rodata.__func__.6562,"a",%progbits
 951              		.align	2
 952              		.set	.LANCHOR4,. + 0
 953              		.type	__func__.6562, %object
 954              		.size	__func__.6562, 17
 955              	__func__.6562:
 956 0000 6368436F 		.ascii	"chCondBroadcastI\000"
 956      6E644272 
 956      6F616463 
 956      61737449 
 956      00
 957 0011 000000   		.section	.rodata.__func__.5854,"a",%progbits
 958              		.align	2
 959              		.set	.LANCHOR2,. + 0
 960              		.type	__func__.5854, %object
 961              		.size	__func__.5854, 12
 962              	__func__.5854:
 963 0000 63685379 		.ascii	"chSysUnlock\000"
 963      73556E6C 
 963      6F636B00 
 964              		.section	.rodata.__func__.6588,"a",%progbits
 965              		.align	2
 966              		.set	.LANCHOR6,. + 0
 967              		.type	__func__.6588, %object
 968              		.size	__func__.6588, 19
 969              	__func__.6588:
 970 0000 6368436F 		.ascii	"chCondWaitTimeoutS\000"
 970      6E645761 
 970      69745469 
 970      6D656F75 
 970      745300
 971 0013 00       		.text
 972              	.Letext0:
 973              		.file 6 "c:\\program files\\gnu tools arm embedded\\4.9 2014q4\\arm-none-eabi\\include\\machine\\_
 974              		.file 7 "c:\\program files\\gnu tools arm embedded\\4.9 2014q4\\arm-none-eabi\\include\\stdint.h"
 975              		.file 8 "../../../os/rt/ports/ARMCMx/compilers/GCC/chtypes.h"
 976              		.file 9 "../../../os/rt/include/chsystypes.h"
 977              		.file 10 "../../../os/rt/ports/ARMCMx/chcore.h"
 978              		.file 11 "../../../os/rt/ports/ARMCMx/chcore_v7m.h"
 979              		.file 12 "../../../os/rt/include/chdebug.h"
 980              		.file 13 "../../../os/rt/include/chtm.h"
 981              		.file 14 "../../../os/rt/include/chsem.h"
 982              		.file 15 "../../../os/rt/include/chcond.h"
 983              		.file 16 "../../../os/rt/include/chthreads.h"
 984              		.file 17 "../../../os/ext/CMSIS/include/core_cm4.h"