ARM GAS  C:\Users\jo\AppData\Local\Temp\cc7FYMfi.s 			page 1


   1              		.syntax unified
   2              		.cpu cortex-m4
   3              		.fpu softvfp
   4              		.eabi_attribute 20, 1
   5              		.eabi_attribute 21, 1
   6              		.eabi_attribute 23, 3
   7              		.eabi_attribute 24, 1
   8              		.eabi_attribute 25, 1
   9              		.eabi_attribute 26, 1
  10              		.eabi_attribute 30, 2
  11              		.eabi_attribute 34, 1
  12              		.eabi_attribute 18, 4
  13              		.thumb
  14              		.file	"chcond.c"
  15              		.text
  16              	.Ltext0:
  17              		.cfi_sections	.debug_frame
  18              		.section	.text.chCondObjectInit,"ax",%progbits
  19              		.align	2
  20              		.p2align 4,,15
  21              		.global	chCondObjectInit
  22              		.thumb
  23              		.thumb_func
  24              		.type	chCondObjectInit, %function
  25              	chCondObjectInit:
  26              	.LFB228:
  27              		.file 1 "../../../os/rt/src/chcond.c"
  28              		.loc 1 75 0
  29              		.cfi_startproc
  30              		@ args = 0, pretend = 0, frame = 0
  31              		@ frame_needed = 0, uses_anonymous_args = 0
  32              	.LVL0:
  33 0000 10B5     		push	{r4, lr}
  34              		.cfi_def_cfa_offset 8
  35              		.cfi_offset 4, -8
  36              		.cfi_offset 14, -4
  37              		.loc 1 77 0
  38 0002 0446     		mov	r4, r0
  39 0004 10B1     		cbz	r0, .L5
  40              	.LVL1:
  41              	.LBB63:
  42              	.LBB64:
  43              		.file 2 "../../../os/rt/include/chschd.h"
  44              		.loc 2 604 0
  45 0006 2460     		str	r4, [r4]
  46              		.loc 2 605 0
  47 0008 6460     		str	r4, [r4, #4]
  48 000a 10BD     		pop	{r4, pc}
  49              	.LVL2:
  50              	.L5:
  51              	.LBE64:
  52              	.LBE63:
  53              		.loc 1 77 0 discriminator 2
  54 000c 0248     		ldr	r0, .L6
  55              	.LVL3:
  56 000e FFF7FEFF 		bl	chSysHalt
  57              	.LVL4:
ARM GAS  C:\Users\jo\AppData\Local\Temp\cc7FYMfi.s 			page 2


  58              	.LBB66:
  59              	.LBB65:
  60              		.loc 2 604 0 discriminator 2
  61 0012 2460     		str	r4, [r4]
  62              		.loc 2 605 0 discriminator 2
  63 0014 6460     		str	r4, [r4, #4]
  64 0016 10BD     		pop	{r4, pc}
  65              	.LVL5:
  66              	.L7:
  67              		.align	2
  68              	.L6:
  69 0018 00000000 		.word	.LANCHOR0
  70              	.LBE65:
  71              	.LBE66:
  72              		.cfi_endproc
  73              	.LFE228:
  74              		.size	chCondObjectInit, .-chCondObjectInit
  75 001c AFF30080 		.section	.text.chCondSignal,"ax",%progbits
  76              		.align	2
  77              		.p2align 4,,15
  78              		.global	chCondSignal
  79              		.thumb
  80              		.thumb_func
  81              		.type	chCondSignal, %function
  82              	chCondSignal:
  83              	.LFB229:
  84              		.loc 1 89 0
  85              		.cfi_startproc
  86              		@ args = 0, pretend = 0, frame = 0
  87              		@ frame_needed = 0, uses_anonymous_args = 0
  88              	.LVL6:
  89 0000 10B5     		push	{r4, lr}
  90              		.cfi_def_cfa_offset 8
  91              		.cfi_offset 4, -8
  92              		.cfi_offset 14, -4
  93              		.loc 1 91 0
  94 0002 0446     		mov	r4, r0
  95 0004 F8B1     		cbz	r0, .L13
  96              	.LVL7:
  97              	.L9:
  98              	.LBB81:
  99              	.LBB82:
 100              	.LBB83:
 101              	.LBB84:
 102              	.LBB85:
 103              		.file 3 "../../../os/ext/CMSIS/include/core_cmFunc.h"
 104              		.loc 3 546 0
 105 0006 2023     		movs	r3, #32
 106              	@ 546 "../../../os/ext/CMSIS/include/core_cmFunc.h" 1
 107 0008 83F31188 		MSR basepri, r3
 108              	@ 0 "" 2
 109              		.thumb
 110              	.LBE85:
 111              	.LBE84:
 112              	.LBE83:
 113              		.file 4 "../../../os/rt/include/chsys.h"
 114              		.loc 4 350 0
ARM GAS  C:\Users\jo\AppData\Local\Temp\cc7FYMfi.s 			page 3


 115 000c FFF7FEFF 		bl	_dbg_check_lock
 116              	.LVL8:
 117              	.LBE82:
 118              	.LBE81:
 119              	.LBB86:
 120              	.LBB87:
 121              		.loc 2 631 0
 122 0010 2068     		ldr	r0, [r4]
 123              	.LBE87:
 124              	.LBE86:
 125              		.loc 1 94 0
 126 0012 A042     		cmp	r0, r4
 127 0014 05D0     		beq	.L10
 128              	.LVL9:
 129              	.LBB88:
 130              	.LBB89:
 131              		.loc 2 674 0
 132 0016 0368     		ldr	r3, [r0]
 133 0018 2360     		str	r3, [r4]
 134              	.LBE89:
 135              	.LBE88:
 136              		.loc 1 95 0
 137 001a 0021     		movs	r1, #0
 138              	.LBB91:
 139              	.LBB90:
 140              		.loc 2 675 0
 141 001c 5C60     		str	r4, [r3, #4]
 142              	.LBE90:
 143              	.LBE91:
 144              		.loc 1 95 0
 145 001e FFF7FEFF 		bl	chSchWakeupS
 146              	.LVL10:
 147              	.L10:
 148              	.LBB92:
 149              	.LBB93:
 150              		.loc 4 360 0
 151 0022 FFF7FEFF 		bl	_dbg_check_unlock
 152              	.LVL11:
 153              		.loc 4 367 0
 154 0026 0A4B     		ldr	r3, .L14
 155 0028 1A68     		ldr	r2, [r3]
 156 002a 9A42     		cmp	r2, r3
 157 002c 07D0     		beq	.L11
 158 002e 9969     		ldr	r1, [r3, #24]
 159 0030 9368     		ldr	r3, [r2, #8]
 160 0032 8A68     		ldr	r2, [r1, #8]
 161 0034 9A42     		cmp	r2, r3
 162 0036 02D2     		bcs	.L11
 163 0038 0648     		ldr	r0, .L14+4
 164 003a FFF7FEFF 		bl	chSysHalt
 165              	.LVL12:
 166              	.L11:
 167              	.LBB94:
 168              	.LBB95:
 169              	.LBB96:
 170              		.loc 3 546 0
 171 003e 0023     		movs	r3, #0
ARM GAS  C:\Users\jo\AppData\Local\Temp\cc7FYMfi.s 			page 4


 172              	@ 546 "../../../os/ext/CMSIS/include/core_cmFunc.h" 1
 173 0040 83F31188 		MSR basepri, r3
 174              	@ 0 "" 2
 175              		.thumb
 176 0044 10BD     		pop	{r4, pc}
 177              	.LVL13:
 178              	.L13:
 179              	.LBE96:
 180              	.LBE95:
 181              	.LBE94:
 182              	.LBE93:
 183              	.LBE92:
 184              		.loc 1 91 0 discriminator 2
 185 0046 0448     		ldr	r0, .L14+8
 186              	.LVL14:
 187 0048 FFF7FEFF 		bl	chSysHalt
 188              	.LVL15:
 189 004c DBE7     		b	.L9
 190              	.L15:
 191 004e 00BF     		.align	2
 192              	.L14:
 193 0050 00000000 		.word	ch
 194 0054 00000000 		.word	.LANCHOR2
 195 0058 00000000 		.word	.LANCHOR1
 196              		.cfi_endproc
 197              	.LFE229:
 198              		.size	chCondSignal, .-chCondSignal
 199 005c AFF30080 		.section	.text.chCondSignalI,"ax",%progbits
 200              		.align	2
 201              		.p2align 4,,15
 202              		.global	chCondSignalI
 203              		.thumb
 204              		.thumb_func
 205              		.type	chCondSignalI, %function
 206              	chCondSignalI:
 207              	.LFB230:
 208              		.loc 1 111 0
 209              		.cfi_startproc
 210              		@ args = 0, pretend = 0, frame = 0
 211              		@ frame_needed = 0, uses_anonymous_args = 0
 212              	.LVL16:
 213 0000 10B5     		push	{r4, lr}
 214              		.cfi_def_cfa_offset 8
 215              		.cfi_offset 4, -8
 216              		.cfi_offset 14, -4
 217              		.loc 1 111 0
 218 0002 0446     		mov	r4, r0
 219              		.loc 1 113 0
 220 0004 FFF7FEFF 		bl	chDbgCheckClassI
 221              	.LVL17:
 222              		.loc 1 114 0
 223 0008 6CB1     		cbz	r4, .L20
 224              	.L17:
 225              	.LVL18:
 226              	.LBB97:
 227              	.LBB98:
 228              		.loc 2 631 0
ARM GAS  C:\Users\jo\AppData\Local\Temp\cc7FYMfi.s 			page 5


 229 000a 2368     		ldr	r3, [r4]
 230              	.LBE98:
 231              	.LBE97:
 232              		.loc 1 116 0
 233 000c 9C42     		cmp	r4, r3
 234 000e 09D0     		beq	.L16
 235              	.LVL19:
 236              	.LBB99:
 237              	.LBB100:
 238              	.LBB101:
 239              		.loc 2 674 0
 240 0010 1A68     		ldr	r2, [r3]
 241 0012 2260     		str	r2, [r4]
 242              	.LBE101:
 243              	.LBE100:
 244              		.loc 1 118 0
 245 0014 0021     		movs	r1, #0
 246              	.LBB103:
 247              	.LBB102:
 248              		.loc 2 675 0
 249 0016 5460     		str	r4, [r2, #4]
 250              	.LBE102:
 251              	.LBE103:
 252              		.loc 1 118 0
 253 0018 5962     		str	r1, [r3, #36]
 254              		.loc 1 119 0
 255 001a 1846     		mov	r0, r3
 256              	.LBE99:
 257              		.loc 1 121 0
 258 001c BDE81040 		pop	{r4, lr}
 259              		.cfi_remember_state
 260              		.cfi_restore 14
 261              		.cfi_restore 4
 262              		.cfi_def_cfa_offset 0
 263              	.LVL20:
 264              	.LBB104:
 265              		.loc 1 119 0
 266 0020 FFF7FEBF 		b	chSchReadyI
 267              	.LVL21:
 268              	.L16:
 269              		.cfi_restore_state
 270 0024 10BD     		pop	{r4, pc}
 271              	.LVL22:
 272              	.L20:
 273              	.LBE104:
 274              		.loc 1 114 0 discriminator 2
 275 0026 0248     		ldr	r0, .L21
 276 0028 FFF7FEFF 		bl	chSysHalt
 277              	.LVL23:
 278 002c EDE7     		b	.L17
 279              	.L22:
 280 002e 00BF     		.align	2
 281              	.L21:
 282 0030 00000000 		.word	.LANCHOR3
 283              		.cfi_endproc
 284              	.LFE230:
 285              		.size	chCondSignalI, .-chCondSignalI
ARM GAS  C:\Users\jo\AppData\Local\Temp\cc7FYMfi.s 			page 6


 286 0034 AFF30080 		.section	.text.chCondBroadcastI,"ax",%progbits
 286      AFF30080 
 286      AFF30080 
 287              		.align	2
 288              		.p2align 4,,15
 289              		.global	chCondBroadcastI
 290              		.thumb
 291              		.thumb_func
 292              		.type	chCondBroadcastI, %function
 293              	chCondBroadcastI:
 294              	.LFB232:
 295              		.loc 1 149 0
 296              		.cfi_startproc
 297              		@ args = 0, pretend = 0, frame = 0
 298              		@ frame_needed = 0, uses_anonymous_args = 0
 299              	.LVL24:
 300 0000 38B5     		push	{r3, r4, r5, lr}
 301              		.cfi_def_cfa_offset 16
 302              		.cfi_offset 3, -16
 303              		.cfi_offset 4, -12
 304              		.cfi_offset 5, -8
 305              		.cfi_offset 14, -4
 306              		.loc 1 149 0
 307 0002 0446     		mov	r4, r0
 308              		.loc 1 151 0
 309 0004 FFF7FEFF 		bl	chDbgCheckClassI
 310              	.LVL25:
 311              		.loc 1 152 0
 312 0008 74B1     		cbz	r4, .L30
 313              	.L24:
 314              	.LVL26:
 315              	.LBB105:
 316              	.LBB106:
 317              		.loc 2 631 0
 318 000a 2068     		ldr	r0, [r4]
 319              	.LBE106:
 320              	.LBE105:
 321              		.loc 1 157 0
 322 000c 8442     		cmp	r4, r0
 323 000e 0AD0     		beq	.L23
 324              		.loc 1 158 0
 325 0010 6FF00105 		mvn	r5, #1
 326              	.L26:
 327              	.LVL27:
 328              	.LBB108:
 329              	.LBB109:
 330              		.loc 2 674 0
 331 0014 0368     		ldr	r3, [r0]
 332 0016 2360     		str	r3, [r4]
 333              		.loc 2 675 0
 334 0018 5C60     		str	r4, [r3, #4]
 335              	.LBE109:
 336              	.LBE108:
 337              		.loc 1 158 0
 338 001a FFF7FEFF 		bl	chSchReadyI
 339              	.LVL28:
 340 001e 4562     		str	r5, [r0, #36]
ARM GAS  C:\Users\jo\AppData\Local\Temp\cc7FYMfi.s 			page 7


 341              	.LBB110:
 342              	.LBB107:
 343              		.loc 2 631 0
 344 0020 2068     		ldr	r0, [r4]
 345              	.LBE107:
 346              	.LBE110:
 347              		.loc 1 157 0
 348 0022 A042     		cmp	r0, r4
 349 0024 F6D1     		bne	.L26
 350              	.LVL29:
 351              	.L23:
 352 0026 38BD     		pop	{r3, r4, r5, pc}
 353              	.LVL30:
 354              	.L30:
 355              		.loc 1 152 0 discriminator 2
 356 0028 0148     		ldr	r0, .L31
 357 002a FFF7FEFF 		bl	chSysHalt
 358              	.LVL31:
 359 002e ECE7     		b	.L24
 360              	.L32:
 361              		.align	2
 362              	.L31:
 363 0030 00000000 		.word	.LANCHOR4
 364              		.cfi_endproc
 365              	.LFE232:
 366              		.size	chCondBroadcastI, .-chCondBroadcastI
 367 0034 AFF30080 		.section	.text.chCondBroadcast,"ax",%progbits
 367      AFF30080 
 367      AFF30080 
 368              		.align	2
 369              		.p2align 4,,15
 370              		.global	chCondBroadcast
 371              		.thumb
 372              		.thumb_func
 373              		.type	chCondBroadcast, %function
 374              	chCondBroadcast:
 375              	.LFB231:
 376              		.loc 1 130 0
 377              		.cfi_startproc
 378              		@ args = 0, pretend = 0, frame = 0
 379              		@ frame_needed = 0, uses_anonymous_args = 0
 380              	.LVL32:
 381 0000 10B5     		push	{r4, lr}
 382              		.cfi_def_cfa_offset 8
 383              		.cfi_offset 4, -8
 384              		.cfi_offset 14, -4
 385              	.LBB121:
 386              	.LBB122:
 387              	.LBB123:
 388              	.LBB124:
 389              	.LBB125:
 390              		.loc 3 546 0
 391 0002 2023     		movs	r3, #32
 392              	.LBE125:
 393              	.LBE124:
 394              	.LBE123:
 395              	.LBE122:
ARM GAS  C:\Users\jo\AppData\Local\Temp\cc7FYMfi.s 			page 8


 396              	.LBE121:
 397              		.loc 1 130 0
 398 0004 0446     		mov	r4, r0
 399              	.LBB130:
 400              	.LBB129:
 401              	.LBB128:
 402              	.LBB127:
 403              	.LBB126:
 404              		.loc 3 546 0
 405              	@ 546 "../../../os/ext/CMSIS/include/core_cmFunc.h" 1
 406 0006 83F31188 		MSR basepri, r3
 407              	@ 0 "" 2
 408              		.thumb
 409              	.LBE126:
 410              	.LBE127:
 411              	.LBE128:
 412              		.loc 4 350 0
 413 000a FFF7FEFF 		bl	_dbg_check_lock
 414              	.LVL33:
 415              	.LBE129:
 416              	.LBE130:
 417              		.loc 1 133 0
 418 000e 2046     		mov	r0, r4
 419 0010 FFF7FEFF 		bl	chCondBroadcastI
 420              	.LVL34:
 421              		.loc 1 134 0
 422 0014 FFF7FEFF 		bl	chSchRescheduleS
 423              	.LVL35:
 424              	.LBB131:
 425              	.LBB132:
 426              		.loc 4 360 0
 427 0018 FFF7FEFF 		bl	_dbg_check_unlock
 428              	.LVL36:
 429              		.loc 4 367 0
 430 001c 074B     		ldr	r3, .L36
 431 001e 1A68     		ldr	r2, [r3]
 432 0020 9A42     		cmp	r2, r3
 433 0022 07D0     		beq	.L34
 434 0024 9969     		ldr	r1, [r3, #24]
 435 0026 9368     		ldr	r3, [r2, #8]
 436 0028 8A68     		ldr	r2, [r1, #8]
 437 002a 9A42     		cmp	r2, r3
 438 002c 02D2     		bcs	.L34
 439 002e 0448     		ldr	r0, .L36+4
 440 0030 FFF7FEFF 		bl	chSysHalt
 441              	.LVL37:
 442              	.L34:
 443              	.LBB133:
 444              	.LBB134:
 445              	.LBB135:
 446              		.loc 3 546 0
 447 0034 0023     		movs	r3, #0
 448              	@ 546 "../../../os/ext/CMSIS/include/core_cmFunc.h" 1
 449 0036 83F31188 		MSR basepri, r3
 450              	@ 0 "" 2
 451              		.thumb
 452 003a 10BD     		pop	{r4, pc}
ARM GAS  C:\Users\jo\AppData\Local\Temp\cc7FYMfi.s 			page 9


 453              	.LVL38:
 454              	.L37:
 455              		.align	2
 456              	.L36:
 457 003c 00000000 		.word	ch
 458 0040 00000000 		.word	.LANCHOR2
 459              	.LBE135:
 460              	.LBE134:
 461              	.LBE133:
 462              	.LBE132:
 463              	.LBE131:
 464              		.cfi_endproc
 465              	.LFE231:
 466              		.size	chCondBroadcast, .-chCondBroadcast
 467 0044 AFF30080 		.section	.text.chCondWaitS,"ax",%progbits
 467      AFF30080 
 467      AFF30080 
 468              		.align	2
 469              		.p2align 4,,15
 470              		.global	chCondWaitS
 471              		.thumb
 472              		.thumb_func
 473              		.type	chCondWaitS, %function
 474              	chCondWaitS:
 475              	.LFB234:
 476              		.loc 1 205 0
 477              		.cfi_startproc
 478              		@ args = 0, pretend = 0, frame = 0
 479              		@ frame_needed = 0, uses_anonymous_args = 0
 480              	.LVL39:
 481 0000 70B5     		push	{r4, r5, r6, lr}
 482              		.cfi_def_cfa_offset 16
 483              		.cfi_offset 4, -16
 484              		.cfi_offset 5, -12
 485              		.cfi_offset 6, -8
 486              		.cfi_offset 14, -4
 487              		.loc 1 206 0
 488 0002 164E     		ldr	r6, .L50
 489              		.loc 1 205 0
 490 0004 0546     		mov	r5, r0
 491              		.loc 1 206 0
 492 0006 B469     		ldr	r4, [r6, #24]
 493              	.LVL40:
 494              		.loc 1 210 0
 495 0008 FFF7FEFF 		bl	chDbgCheckClassS
 496              	.LVL41:
 497              		.loc 1 211 0
 498 000c F5B1     		cbz	r5, .L47
 499              	.L39:
 500              		.loc 1 212 0 discriminator 1
 501 000e E36B     		ldr	r3, [r4, #60]
 502 0010 03B3     		cbz	r3, .L48
 503              	.L40:
 504              	.LBB136:
 505              	.LBB137:
 506              		.file 5 "../../../os/rt/include/chmtx.h"
 507              		.loc 5 146 0
ARM GAS  C:\Users\jo\AppData\Local\Temp\cc7FYMfi.s 			page 10


 508 0012 B369     		ldr	r3, [r6, #24]
 509 0014 DE6B     		ldr	r6, [r3, #60]
 510              	.LBE137:
 511              	.LBE136:
 512              		.loc 1 216 0
 513 0016 3046     		mov	r0, r6
 514 0018 FFF7FEFF 		bl	chMtxUnlockS
 515              	.LVL42:
 516              		.loc 1 220 0
 517 001c 6562     		str	r5, [r4, #36]
 518              	.LVL43:
 519              	.LBB138:
 520              	.LBB139:
 521              		.loc 2 653 0
 522 001e 2B46     		mov	r3, r5
 523 0020 03E0     		b	.L42
 524              	.LVL44:
 525              	.L49:
 526              		.loc 2 656 0
 527 0022 9968     		ldr	r1, [r3, #8]
 528 0024 A268     		ldr	r2, [r4, #8]
 529 0026 9142     		cmp	r1, r2
 530 0028 02D3     		bcc	.L43
 531              	.L42:
 532              		.loc 2 655 0
 533 002a 1B68     		ldr	r3, [r3]
 534              	.LVL45:
 535              		.loc 2 656 0
 536 002c 9D42     		cmp	r5, r3
 537 002e F8D1     		bne	.L49
 538              	.L43:
 539              		.loc 2 658 0
 540 0030 5A68     		ldr	r2, [r3, #4]
 541 0032 6260     		str	r2, [r4, #4]
 542              		.loc 2 657 0
 543 0034 2360     		str	r3, [r4]
 544              	.LBE139:
 545              	.LBE138:
 546              		.loc 1 222 0
 547 0036 0720     		movs	r0, #7
 548              	.LBB141:
 549              	.LBB140:
 550              		.loc 2 659 0
 551 0038 1460     		str	r4, [r2]
 552              		.loc 2 660 0
 553 003a 5C60     		str	r4, [r3, #4]
 554              	.LBE140:
 555              	.LBE141:
 556              		.loc 1 222 0
 557 003c FFF7FEFF 		bl	chSchGoSleepS
 558              	.LVL46:
 559              		.loc 1 223 0
 560 0040 646A     		ldr	r4, [r4, #36]
 561              	.LVL47:
 562              		.loc 1 224 0
 563 0042 3046     		mov	r0, r6
 564 0044 FFF7FEFF 		bl	chMtxLockS
ARM GAS  C:\Users\jo\AppData\Local\Temp\cc7FYMfi.s 			page 11


 565              	.LVL48:
 566              		.loc 1 227 0
 567 0048 2046     		mov	r0, r4
 568 004a 70BD     		pop	{r4, r5, r6, pc}
 569              	.LVL49:
 570              	.L47:
 571              		.loc 1 211 0 discriminator 2
 572 004c 0448     		ldr	r0, .L50+4
 573 004e FFF7FEFF 		bl	chSysHalt
 574              	.LVL50:
 575 0052 DCE7     		b	.L39
 576              	.L48:
 577              		.loc 1 212 0 discriminator 2
 578 0054 0248     		ldr	r0, .L50+4
 579 0056 FFF7FEFF 		bl	chSysHalt
 580              	.LVL51:
 581 005a DAE7     		b	.L40
 582              	.L51:
 583              		.align	2
 584              	.L50:
 585 005c 00000000 		.word	ch
 586 0060 00000000 		.word	.LANCHOR5
 587              		.cfi_endproc
 588              	.LFE234:
 589              		.size	chCondWaitS, .-chCondWaitS
 590 0064 AFF30080 		.section	.text.chCondWait,"ax",%progbits
 590      AFF30080 
 590      AFF30080 
 591              		.align	2
 592              		.p2align 4,,15
 593              		.global	chCondWait
 594              		.thumb
 595              		.thumb_func
 596              		.type	chCondWait, %function
 597              	chCondWait:
 598              	.LFB233:
 599              		.loc 1 179 0
 600              		.cfi_startproc
 601              		@ args = 0, pretend = 0, frame = 0
 602              		@ frame_needed = 0, uses_anonymous_args = 0
 603              	.LVL52:
 604 0000 10B5     		push	{r4, lr}
 605              		.cfi_def_cfa_offset 8
 606              		.cfi_offset 4, -8
 607              		.cfi_offset 14, -4
 608              	.LBB152:
 609              	.LBB153:
 610              	.LBB154:
 611              	.LBB155:
 612              	.LBB156:
 613              		.loc 3 546 0
 614 0002 2023     		movs	r3, #32
 615              	.LBE156:
 616              	.LBE155:
 617              	.LBE154:
 618              	.LBE153:
 619              	.LBE152:
ARM GAS  C:\Users\jo\AppData\Local\Temp\cc7FYMfi.s 			page 12


 620              		.loc 1 179 0
 621 0004 0446     		mov	r4, r0
 622              	.LBB161:
 623              	.LBB160:
 624              	.LBB159:
 625              	.LBB158:
 626              	.LBB157:
 627              		.loc 3 546 0
 628              	@ 546 "../../../os/ext/CMSIS/include/core_cmFunc.h" 1
 629 0006 83F31188 		MSR basepri, r3
 630              	@ 0 "" 2
 631              		.thumb
 632              	.LBE157:
 633              	.LBE158:
 634              	.LBE159:
 635              		.loc 4 350 0
 636 000a FFF7FEFF 		bl	_dbg_check_lock
 637              	.LVL53:
 638              	.LBE160:
 639              	.LBE161:
 640              		.loc 1 183 0
 641 000e 2046     		mov	r0, r4
 642 0010 FFF7FEFF 		bl	chCondWaitS
 643              	.LVL54:
 644 0014 0446     		mov	r4, r0
 645              	.LVL55:
 646              	.LBB162:
 647              	.LBB163:
 648              		.loc 4 360 0
 649 0016 FFF7FEFF 		bl	_dbg_check_unlock
 650              	.LVL56:
 651              		.loc 4 367 0
 652 001a 084B     		ldr	r3, .L55
 653 001c 1A68     		ldr	r2, [r3]
 654 001e 9A42     		cmp	r2, r3
 655 0020 07D0     		beq	.L53
 656 0022 9969     		ldr	r1, [r3, #24]
 657 0024 9368     		ldr	r3, [r2, #8]
 658 0026 8A68     		ldr	r2, [r1, #8]
 659 0028 9A42     		cmp	r2, r3
 660 002a 02D2     		bcs	.L53
 661 002c 0448     		ldr	r0, .L55+4
 662 002e FFF7FEFF 		bl	chSysHalt
 663              	.LVL57:
 664              	.L53:
 665              	.LBB164:
 666              	.LBB165:
 667              	.LBB166:
 668              		.loc 3 546 0
 669 0032 0023     		movs	r3, #0
 670              	@ 546 "../../../os/ext/CMSIS/include/core_cmFunc.h" 1
 671 0034 83F31188 		MSR basepri, r3
 672              	@ 0 "" 2
 673              		.thumb
 674              	.LBE166:
 675              	.LBE165:
 676              	.LBE164:
ARM GAS  C:\Users\jo\AppData\Local\Temp\cc7FYMfi.s 			page 13


 677              	.LBE163:
 678              	.LBE162:
 679              		.loc 1 186 0
 680 0038 2046     		mov	r0, r4
 681 003a 10BD     		pop	{r4, pc}
 682              	.LVL58:
 683              	.L56:
 684              		.align	2
 685              	.L55:
 686 003c 00000000 		.word	ch
 687 0040 00000000 		.word	.LANCHOR2
 688              		.cfi_endproc
 689              	.LFE233:
 690              		.size	chCondWait, .-chCondWait
 691 0044 AFF30080 		.section	.text.chCondWaitTimeoutS,"ax",%progbits
 691      AFF30080 
 691      AFF30080 
 692              		.align	2
 693              		.p2align 4,,15
 694              		.global	chCondWaitTimeoutS
 695              		.thumb
 696              		.thumb_func
 697              		.type	chCondWaitTimeoutS, %function
 698              	chCondWaitTimeoutS:
 699              	.LFB236:
 700              		.loc 1 296 0
 701              		.cfi_startproc
 702              		@ args = 0, pretend = 0, frame = 0
 703              		@ frame_needed = 0, uses_anonymous_args = 0
 704              	.LVL59:
 705 0000 F8B5     		push	{r3, r4, r5, r6, r7, lr}
 706              		.cfi_def_cfa_offset 24
 707              		.cfi_offset 3, -24
 708              		.cfi_offset 4, -20
 709              		.cfi_offset 5, -16
 710              		.cfi_offset 6, -12
 711              		.cfi_offset 7, -8
 712              		.cfi_offset 14, -4
 713              		.loc 1 296 0
 714 0002 0546     		mov	r5, r0
 715 0004 0F46     		mov	r7, r1
 716              		.loc 1 300 0
 717 0006 FFF7FEFF 		bl	chDbgCheckClassS
 718              	.LVL60:
 719              		.loc 1 301 0
 720 000a 1DB3     		cbz	r5, .L58
 721              		.loc 1 301 0 is_stmt 0 discriminator 3
 722 000c 17B3     		cbz	r7, .L58
 723              	.L59:
 724              		.loc 1 302 0 is_stmt 1 discriminator 1
 725 000e 164C     		ldr	r4, .L72
 726 0010 A369     		ldr	r3, [r4, #24]
 727 0012 DE6B     		ldr	r6, [r3, #60]
 728 0014 16B3     		cbz	r6, .L71
 729              	.L60:
 730              		.loc 1 306 0
 731 0016 3046     		mov	r0, r6
ARM GAS  C:\Users\jo\AppData\Local\Temp\cc7FYMfi.s 			page 14


 732 0018 FFF7FEFF 		bl	chMtxUnlockS
 733              	.LVL61:
 734              		.loc 1 310 0
 735 001c A469     		ldr	r4, [r4, #24]
 736              	.LBB167:
 737              	.LBB168:
 738              		.loc 2 653 0
 739 001e 2B46     		mov	r3, r5
 740              	.LBE168:
 741              	.LBE167:
 742              		.loc 1 310 0
 743 0020 6562     		str	r5, [r4, #36]
 744              	.LVL62:
 745 0022 03E0     		b	.L64
 746              	.LVL63:
 747              	.L61:
 748              	.LBB172:
 749              	.LBB169:
 750              		.loc 2 656 0
 751 0024 9968     		ldr	r1, [r3, #8]
 752 0026 A268     		ldr	r2, [r4, #8]
 753 0028 9142     		cmp	r1, r2
 754 002a 02D3     		bcc	.L65
 755              	.L64:
 756              		.loc 2 655 0
 757 002c 1B68     		ldr	r3, [r3]
 758              	.LVL64:
 759              		.loc 2 656 0
 760 002e 9D42     		cmp	r5, r3
 761 0030 F8D1     		bne	.L61
 762              	.L65:
 763              		.loc 2 658 0
 764 0032 5A68     		ldr	r2, [r3, #4]
 765 0034 6260     		str	r2, [r4, #4]
 766              		.loc 2 657 0
 767 0036 2360     		str	r3, [r4]
 768              	.LBE169:
 769              	.LBE172:
 770              		.loc 1 312 0
 771 0038 3946     		mov	r1, r7
 772              	.LBB173:
 773              	.LBB170:
 774              		.loc 2 659 0
 775 003a 1460     		str	r4, [r2]
 776              	.LBE170:
 777              	.LBE173:
 778              		.loc 1 312 0
 779 003c 0720     		movs	r0, #7
 780              	.LBB174:
 781              	.LBB171:
 782              		.loc 2 660 0
 783 003e 5C60     		str	r4, [r3, #4]
 784              	.LBE171:
 785              	.LBE174:
 786              		.loc 1 312 0
 787 0040 FFF7FEFF 		bl	chSchGoSleepTimeoutS
 788              	.LVL65:
ARM GAS  C:\Users\jo\AppData\Local\Temp\cc7FYMfi.s 			page 15


 789              		.loc 1 313 0
 790 0044 431C     		adds	r3, r0, #1
 791              		.loc 1 312 0
 792 0046 0446     		mov	r4, r0
 793              	.LVL66:
 794              		.loc 1 313 0
 795 0048 02D0     		beq	.L63
 796              		.loc 1 314 0
 797 004a 3046     		mov	r0, r6
 798              	.LVL67:
 799 004c FFF7FEFF 		bl	chMtxLockS
 800              	.LVL68:
 801              	.L63:
 802              		.loc 1 318 0
 803 0050 2046     		mov	r0, r4
 804 0052 F8BD     		pop	{r3, r4, r5, r6, r7, pc}
 805              	.LVL69:
 806              	.L58:
 807              		.loc 1 301 0 discriminator 4
 808 0054 0548     		ldr	r0, .L72+4
 809 0056 FFF7FEFF 		bl	chSysHalt
 810              	.LVL70:
 811 005a D8E7     		b	.L59
 812              	.L71:
 813              		.loc 1 302 0 discriminator 2
 814 005c 0348     		ldr	r0, .L72+4
 815 005e FFF7FEFF 		bl	chSysHalt
 816              	.LVL71:
 817 0062 A369     		ldr	r3, [r4, #24]
 818 0064 DE6B     		ldr	r6, [r3, #60]
 819 0066 D6E7     		b	.L60
 820              	.L73:
 821              		.align	2
 822              	.L72:
 823 0068 00000000 		.word	ch
 824 006c 00000000 		.word	.LANCHOR6
 825              		.cfi_endproc
 826              	.LFE236:
 827              		.size	chCondWaitTimeoutS, .-chCondWaitTimeoutS
 828              		.section	.text.chCondWaitTimeout,"ax",%progbits
 829              		.align	2
 830              		.p2align 4,,15
 831              		.global	chCondWaitTimeout
 832              		.thumb
 833              		.thumb_func
 834              		.type	chCondWaitTimeout, %function
 835              	chCondWaitTimeout:
 836              	.LFB235:
 837              		.loc 1 258 0
 838              		.cfi_startproc
 839              		@ args = 0, pretend = 0, frame = 0
 840              		@ frame_needed = 0, uses_anonymous_args = 0
 841              	.LVL72:
 842 0000 38B5     		push	{r3, r4, r5, lr}
 843              		.cfi_def_cfa_offset 16
 844              		.cfi_offset 3, -16
 845              		.cfi_offset 4, -12
ARM GAS  C:\Users\jo\AppData\Local\Temp\cc7FYMfi.s 			page 16


 846              		.cfi_offset 5, -8
 847              		.cfi_offset 14, -4
 848              		.loc 1 258 0
 849 0002 0546     		mov	r5, r0
 850 0004 0C46     		mov	r4, r1
 851              	.LBB185:
 852              	.LBB186:
 853              	.LBB187:
 854              	.LBB188:
 855              	.LBB189:
 856              		.loc 3 546 0
 857 0006 2023     		movs	r3, #32
 858              	@ 546 "../../../os/ext/CMSIS/include/core_cmFunc.h" 1
 859 0008 83F31188 		MSR basepri, r3
 860              	@ 0 "" 2
 861              		.thumb
 862              	.LBE189:
 863              	.LBE188:
 864              	.LBE187:
 865              		.loc 4 350 0
 866 000c FFF7FEFF 		bl	_dbg_check_lock
 867              	.LVL73:
 868              	.LBE186:
 869              	.LBE185:
 870              		.loc 1 262 0
 871 0010 2146     		mov	r1, r4
 872 0012 2846     		mov	r0, r5
 873 0014 FFF7FEFF 		bl	chCondWaitTimeoutS
 874              	.LVL74:
 875 0018 0446     		mov	r4, r0
 876              	.LVL75:
 877              	.LBB190:
 878              	.LBB191:
 879              		.loc 4 360 0
 880 001a FFF7FEFF 		bl	_dbg_check_unlock
 881              	.LVL76:
 882              		.loc 4 367 0
 883 001e 084B     		ldr	r3, .L77
 884 0020 1A68     		ldr	r2, [r3]
 885 0022 9A42     		cmp	r2, r3
 886 0024 07D0     		beq	.L75
 887 0026 9969     		ldr	r1, [r3, #24]
 888 0028 9368     		ldr	r3, [r2, #8]
 889 002a 8A68     		ldr	r2, [r1, #8]
 890 002c 9A42     		cmp	r2, r3
 891 002e 02D2     		bcs	.L75
 892 0030 0448     		ldr	r0, .L77+4
 893 0032 FFF7FEFF 		bl	chSysHalt
 894              	.LVL77:
 895              	.L75:
 896              	.LBB192:
 897              	.LBB193:
 898              	.LBB194:
 899              		.loc 3 546 0
 900 0036 0023     		movs	r3, #0
 901              	@ 546 "../../../os/ext/CMSIS/include/core_cmFunc.h" 1
 902 0038 83F31188 		MSR basepri, r3
ARM GAS  C:\Users\jo\AppData\Local\Temp\cc7FYMfi.s 			page 17


 903              	@ 0 "" 2
 904              		.thumb
 905              	.LBE194:
 906              	.LBE193:
 907              	.LBE192:
 908              	.LBE191:
 909              	.LBE190:
 910              		.loc 1 266 0
 911 003c 2046     		mov	r0, r4
 912 003e 38BD     		pop	{r3, r4, r5, pc}
 913              	.LVL78:
 914              	.L78:
 915              		.align	2
 916              	.L77:
 917 0040 00000000 		.word	ch
 918 0044 00000000 		.word	.LANCHOR2
 919              		.cfi_endproc
 920              	.LFE235:
 921              		.size	chCondWaitTimeout, .-chCondWaitTimeout
 922 0048 AFF30080 		.section	.rodata.__func__.6576,"a",%progbits
 922      AFF30080 
 923              		.align	2
 924              		.set	.LANCHOR5,. + 0
 925              		.type	__func__.6576, %object
 926              		.size	__func__.6576, 12
 927              	__func__.6576:
 928 0000 6368436F 		.ascii	"chCondWaitS\000"
 928      6E645761 
 928      69745300 
 929              		.section	.rodata.__func__.6550,"a",%progbits
 930              		.align	2
 931              		.set	.LANCHOR1,. + 0
 932              		.type	__func__.6550, %object
 933              		.size	__func__.6550, 13
 934              	__func__.6550:
 935 0000 6368436F 		.ascii	"chCondSignal\000"
 935      6E645369 
 935      676E616C 
 935      00
 936 000d 000000   		.section	.rodata.__func__.6546,"a",%progbits
 937              		.align	2
 938              		.set	.LANCHOR0,. + 0
 939              		.type	__func__.6546, %object
 940              		.size	__func__.6546, 17
 941              	__func__.6546:
 942 0000 6368436F 		.ascii	"chCondObjectInit\000"
 942      6E644F62 
 942      6A656374 
 942      496E6974 
 942      00
 943 0011 000000   		.section	.rodata.__func__.6554,"a",%progbits
 944              		.align	2
 945              		.set	.LANCHOR3,. + 0
 946              		.type	__func__.6554, %object
 947              		.size	__func__.6554, 14
 948              	__func__.6554:
 949 0000 6368436F 		.ascii	"chCondSignalI\000"
ARM GAS  C:\Users\jo\AppData\Local\Temp\cc7FYMfi.s 			page 18


 949      6E645369 
 949      676E616C 
 949      4900
 950 000e 0000     		.section	.rodata.__func__.6562,"a",%progbits
 951              		.align	2
 952              		.set	.LANCHOR4,. + 0
 953              		.type	__func__.6562, %object
 954              		.size	__func__.6562, 17
 955              	__func__.6562:
 956 0000 6368436F 		.ascii	"chCondBroadcastI\000"
 956      6E644272 
 956      6F616463 
 956      61737449 
 956      00
 957 0011 000000   		.section	.rodata.__func__.5854,"a",%progbits
 958              		.align	2
 959              		.set	.LANCHOR2,. + 0
 960              		.type	__func__.5854, %object
 961              		.size	__func__.5854, 12
 962              	__func__.5854:
 963 0000 63685379 		.ascii	"chSysUnlock\000"
 963      73556E6C 
 963      6F636B00 
 964              		.section	.rodata.__func__.6588,"a",%progbits
 965              		.align	2
 966              		.set	.LANCHOR6,. + 0
 967              		.type	__func__.6588, %object
 968              		.size	__func__.6588, 19
 969              	__func__.6588:
 970 0000 6368436F 		.ascii	"chCondWaitTimeoutS\000"
 970      6E645761 
 970      69745469 
 970      6D656F75 
 970      745300
 971 0013 00       		.text
 972              	.Letext0:
 973              		.file 6 "c:\\program files\\gnu tools arm embedded\\4.9 2014q4\\arm-none-eabi\\include\\machine\\_
 974              		.file 7 "c:\\program files\\gnu tools arm embedded\\4.9 2014q4\\arm-none-eabi\\include\\stdint.h"
 975              		.file 8 "../../../os/rt/ports/ARMCMx/compilers/GCC/chtypes.h"
 976              		.file 9 "../../../os/rt/include/chsystypes.h"
 977              		.file 10 "../../../os/rt/ports/ARMCMx/chcore.h"
 978              		.file 11 "../../../os/rt/ports/ARMCMx/chcore_v7m.h"
 979              		.file 12 "../../../os/rt/include/chdebug.h"
 980              		.file 13 "../../../os/rt/include/chtm.h"
 981              		.file 14 "../../../os/rt/include/chsem.h"
 982              		.file 15 "../../../os/rt/include/chcond.h"
 983              		.file 16 "../../../os/rt/include/chthreads.h"
 984              		.file 17 "../../../os/ext/CMSIS/include/core_cm4.h"
 985              		.section	.debug_info,"",%progbits
 986              	.Ldebug_info0:
 987 0000 B1110000 		.4byte	0x11b1
 988 0004 0400     		.2byte	0x4
 989 0006 00000000 		.4byte	.Ldebug_abbrev0
 990 000a 04       		.byte	0x4
 991 000b 01       		.uleb128 0x1
 992 000c 74030000 		.4byte	.LASF153
 993 0010 01       		.byte	0x1
ARM GAS  C:\Users\jo\AppData\Local\Temp\cc7FYMfi.s 			page 19


 994 0011 F9010000 		.4byte	.LASF154
 995 0015 1D010000 		.4byte	.LASF155
 996 0019 18010000 		.4byte	.Ldebug_ranges0+0x118
 997 001d 00000000 		.4byte	0
 998 0021 00000000 		.4byte	.Ldebug_line0
 999 0025 02       		.uleb128 0x2
 1000 0026 04       		.byte	0x4
 1001 0027 05       		.byte	0x5
 1002 0028 696E7400 		.ascii	"int\000"
 1003 002c 03       		.uleb128 0x3
 1004 002d 04       		.byte	0x4
 1005 002e 07       		.byte	0x7
 1006 002f AD020000 		.4byte	.LASF0
 1007 0033 03       		.uleb128 0x3
 1008 0034 01       		.byte	0x1
 1009 0035 06       		.byte	0x6
 1010 0036 79010000 		.4byte	.LASF1
 1011 003a 04       		.uleb128 0x4
 1012 003b 32000000 		.4byte	.LASF5
 1013 003f 06       		.byte	0x6
 1014 0040 1D       		.byte	0x1d
 1015 0041 45000000 		.4byte	0x45
 1016 0045 03       		.uleb128 0x3
 1017 0046 01       		.byte	0x1
 1018 0047 08       		.byte	0x8
 1019 0048 90050000 		.4byte	.LASF2
 1020 004c 03       		.uleb128 0x3
 1021 004d 02       		.byte	0x2
 1022 004e 05       		.byte	0x5
 1023 004f A8050000 		.4byte	.LASF3
 1024 0053 03       		.uleb128 0x3
 1025 0054 02       		.byte	0x2
 1026 0055 07       		.byte	0x7
 1027 0056 EA020000 		.4byte	.LASF4
 1028 005a 04       		.uleb128 0x4
 1029 005b 6A030000 		.4byte	.LASF6
 1030 005f 06       		.byte	0x6
 1031 0060 3F       		.byte	0x3f
 1032 0061 65000000 		.4byte	0x65
 1033 0065 03       		.uleb128 0x3
 1034 0066 04       		.byte	0x4
 1035 0067 05       		.byte	0x5
 1036 0068 C7010000 		.4byte	.LASF7
 1037 006c 04       		.uleb128 0x4
 1038 006d D4060000 		.4byte	.LASF8
 1039 0071 06       		.byte	0x6
 1040 0072 41       		.byte	0x41
 1041 0073 77000000 		.4byte	0x77
 1042 0077 03       		.uleb128 0x3
 1043 0078 04       		.byte	0x4
 1044 0079 07       		.byte	0x7
 1045 007a 70060000 		.4byte	.LASF9
 1046 007e 03       		.uleb128 0x3
 1047 007f 08       		.byte	0x8
 1048 0080 05       		.byte	0x5
 1049 0081 6B010000 		.4byte	.LASF10
 1050 0085 04       		.uleb128 0x4
ARM GAS  C:\Users\jo\AppData\Local\Temp\cc7FYMfi.s 			page 20


 1051 0086 38050000 		.4byte	.LASF11
 1052 008a 06       		.byte	0x6
 1053 008b 5B       		.byte	0x5b
 1054 008c 90000000 		.4byte	0x90
 1055 0090 03       		.uleb128 0x3
 1056 0091 08       		.byte	0x8
 1057 0092 07       		.byte	0x7
 1058 0093 9C000000 		.4byte	.LASF12
 1059 0097 04       		.uleb128 0x4
 1060 0098 65070000 		.4byte	.LASF13
 1061 009c 07       		.byte	0x7
 1062 009d 15       		.byte	0x15
 1063 009e 3A000000 		.4byte	0x3a
 1064 00a2 04       		.uleb128 0x4
 1065 00a3 88050000 		.4byte	.LASF14
 1066 00a7 07       		.byte	0x7
 1067 00a8 2C       		.byte	0x2c
 1068 00a9 5A000000 		.4byte	0x5a
 1069 00ad 04       		.uleb128 0x4
 1070 00ae 3C060000 		.4byte	.LASF15
 1071 00b2 07       		.byte	0x7
 1072 00b3 2D       		.byte	0x2d
 1073 00b4 6C000000 		.4byte	0x6c
 1074 00b8 04       		.uleb128 0x4
 1075 00b9 29000000 		.4byte	.LASF16
 1076 00bd 07       		.byte	0x7
 1077 00be 39       		.byte	0x39
 1078 00bf 85000000 		.4byte	0x85
 1079 00c3 05       		.uleb128 0x5
 1080 00c4 A2000000 		.4byte	0xa2
 1081 00c8 04       		.uleb128 0x4
 1082 00c9 06070000 		.4byte	.LASF17
 1083 00cd 08       		.byte	0x8
 1084 00ce 45       		.byte	0x45
 1085 00cf AD000000 		.4byte	0xad
 1086 00d3 04       		.uleb128 0x4
 1087 00d4 37030000 		.4byte	.LASF18
 1088 00d8 08       		.byte	0x8
 1089 00d9 48       		.byte	0x48
 1090 00da 97000000 		.4byte	0x97
 1091 00de 04       		.uleb128 0x4
 1092 00df D0010000 		.4byte	.LASF19
 1093 00e3 08       		.byte	0x8
 1094 00e4 49       		.byte	0x49
 1095 00e5 97000000 		.4byte	0x97
 1096 00e9 04       		.uleb128 0x4
 1097 00ea 43050000 		.4byte	.LASF20
 1098 00ee 08       		.byte	0x8
 1099 00ef 4A       		.byte	0x4a
 1100 00f0 97000000 		.4byte	0x97
 1101 00f4 04       		.uleb128 0x4
 1102 00f5 6C050000 		.4byte	.LASF21
 1103 00f9 08       		.byte	0x8
 1104 00fa 4C       		.byte	0x4c
 1105 00fb AD000000 		.4byte	0xad
 1106 00ff 04       		.uleb128 0x4
 1107 0100 14030000 		.4byte	.LASF22
ARM GAS  C:\Users\jo\AppData\Local\Temp\cc7FYMfi.s 			page 21


 1108 0104 08       		.byte	0x8
 1109 0105 4D       		.byte	0x4d
 1110 0106 A2000000 		.4byte	0xa2
 1111 010a 04       		.uleb128 0x4
 1112 010b 5E030000 		.4byte	.LASF23
 1113 010f 08       		.byte	0x8
 1114 0110 4F       		.byte	0x4f
 1115 0111 AD000000 		.4byte	0xad
 1116 0115 04       		.uleb128 0x4
 1117 0116 9A020000 		.4byte	.LASF24
 1118 011a 08       		.byte	0x8
 1119 011b 51       		.byte	0x51
 1120 011c A2000000 		.4byte	0xa2
 1121 0120 04       		.uleb128 0x4
 1122 0121 B6060000 		.4byte	.LASF25
 1123 0125 09       		.byte	0x9
 1124 0126 33       		.byte	0x33
 1125 0127 AD000000 		.4byte	0xad
 1126 012b 04       		.uleb128 0x4
 1127 012c 48070000 		.4byte	.LASF26
 1128 0130 09       		.byte	0x9
 1129 0131 3F       		.byte	0x3f
 1130 0132 36010000 		.4byte	0x136
 1131 0136 06       		.uleb128 0x6
 1132 0137 FD020000 		.4byte	.LASF47
 1133 013b 48       		.byte	0x48
 1134 013c 02       		.byte	0x2
 1135 013d C2       		.byte	0xc2
 1136 013e 2F020000 		.4byte	0x22f
 1137 0142 07       		.uleb128 0x7
 1138 0143 C8050000 		.4byte	.LASF27
 1139 0147 02       		.byte	0x2
 1140 0148 C3       		.byte	0xc3
 1141 0149 3A020000 		.4byte	0x23a
 1142 014d 00       		.byte	0
 1143 014e 07       		.uleb128 0x7
 1144 014f 65050000 		.4byte	.LASF28
 1145 0153 02       		.byte	0x2
 1146 0154 C5       		.byte	0xc5
 1147 0155 3A020000 		.4byte	0x23a
 1148 0159 04       		.byte	0x4
 1149 015a 07       		.uleb128 0x7
 1150 015b 16010000 		.4byte	.LASF29
 1151 015f 02       		.byte	0x2
 1152 0160 C7       		.byte	0xc7
 1153 0161 F4000000 		.4byte	0xf4
 1154 0165 08       		.byte	0x8
 1155 0166 07       		.uleb128 0x7
 1156 0167 F1070000 		.4byte	.LASF30
 1157 016b 02       		.byte	0x2
 1158 016c C8       		.byte	0xc8
 1159 016d 95040000 		.4byte	0x495
 1160 0171 0C       		.byte	0xc
 1161 0172 07       		.uleb128 0x7
 1162 0173 15020000 		.4byte	.LASF31
 1163 0177 02       		.byte	0x2
 1164 0178 CA       		.byte	0xca
ARM GAS  C:\Users\jo\AppData\Local\Temp\cc7FYMfi.s 			page 22


 1165 0179 3A020000 		.4byte	0x23a
 1166 017d 10       		.byte	0x10
 1167 017e 07       		.uleb128 0x7
 1168 017f E7040000 		.4byte	.LASF32
 1169 0183 02       		.byte	0x2
 1170 0184 CB       		.byte	0xcb
 1171 0185 3A020000 		.4byte	0x23a
 1172 0189 14       		.byte	0x14
 1173 018a 07       		.uleb128 0x7
 1174 018b 86070000 		.4byte	.LASF33
 1175 018f 02       		.byte	0x2
 1176 0190 D2       		.byte	0xd2
 1177 0191 A7060000 		.4byte	0x6a7
 1178 0195 18       		.byte	0x18
 1179 0196 07       		.uleb128 0x7
 1180 0197 06050000 		.4byte	.LASF34
 1181 019b 02       		.byte	0x2
 1182 019c D8       		.byte	0xd8
 1183 019d B9060000 		.4byte	0x6b9
 1184 01a1 1C       		.byte	0x1c
 1185 01a2 07       		.uleb128 0x7
 1186 01a3 B2050000 		.4byte	.LASF35
 1187 01a7 02       		.byte	0x2
 1188 01a8 DD       		.byte	0xdd
 1189 01a9 DE000000 		.4byte	0xde
 1190 01ad 20       		.byte	0x20
 1191 01ae 07       		.uleb128 0x7
 1192 01af CF050000 		.4byte	.LASF36
 1193 01b3 02       		.byte	0x2
 1194 01b4 E1       		.byte	0xe1
 1195 01b5 D3000000 		.4byte	0xd3
 1196 01b9 21       		.byte	0x21
 1197 01ba 07       		.uleb128 0x7
 1198 01bb 39070000 		.4byte	.LASF37
 1199 01bf 02       		.byte	0x2
 1200 01c0 E6       		.byte	0xe6
 1201 01c1 E9000000 		.4byte	0xe9
 1202 01c5 22       		.byte	0x22
 1203 01c6 08       		.uleb128 0x8
 1204 01c7 705F7500 		.ascii	"p_u\000"
 1205 01cb 02       		.byte	0x2
 1206 01cc 3101     		.2byte	0x131
 1207 01ce E2050000 		.4byte	0x5e2
 1208 01d2 24       		.byte	0x24
 1209 01d3 09       		.uleb128 0x9
 1210 01d4 59040000 		.4byte	.LASF38
 1211 01d8 02       		.byte	0x2
 1212 01d9 3601     		.2byte	0x136
 1213 01db 40020000 		.4byte	0x240
 1214 01df 28       		.byte	0x28
 1215 01e0 09       		.uleb128 0x9
 1216 01e1 D9020000 		.4byte	.LASF39
 1217 01e5 02       		.byte	0x2
 1218 01e6 3C01     		.2byte	0x13c
 1219 01e8 64020000 		.4byte	0x264
 1220 01ec 2C       		.byte	0x2c
 1221 01ed 09       		.uleb128 0x9
ARM GAS  C:\Users\jo\AppData\Local\Temp\cc7FYMfi.s 			page 23


 1222 01ee C7070000 		.4byte	.LASF40
 1223 01f2 02       		.byte	0x2
 1224 01f3 4001     		.2byte	0x140
 1225 01f5 FF000000 		.4byte	0xff
 1226 01f9 34       		.byte	0x34
 1227 01fa 09       		.uleb128 0x9
 1228 01fb 1E060000 		.4byte	.LASF41
 1229 01ff 02       		.byte	0x2
 1230 0200 4601     		.2byte	0x146
 1231 0202 0A010000 		.4byte	0x10a
 1232 0206 38       		.byte	0x38
 1233 0207 09       		.uleb128 0x9
 1234 0208 9E050000 		.4byte	.LASF42
 1235 020c 02       		.byte	0x2
 1236 020d 4D01     		.2byte	0x14d
 1237 020f A1060000 		.4byte	0x6a1
 1238 0213 3C       		.byte	0x3c
 1239 0214 09       		.uleb128 0x9
 1240 0215 C0060000 		.4byte	.LASF43
 1241 0219 02       		.byte	0x2
 1242 021a 5101     		.2byte	0x151
 1243 021c F4000000 		.4byte	0xf4
 1244 0220 40       		.byte	0x40
 1245 0221 09       		.uleb128 0x9
 1246 0222 9A010000 		.4byte	.LASF44
 1247 0226 02       		.byte	0x2
 1248 0227 5801     		.2byte	0x158
 1249 0229 17030000 		.4byte	0x317
 1250 022d 44       		.byte	0x44
 1251 022e 00       		.byte	0
 1252 022f 04       		.uleb128 0x4
 1253 0230 6C040000 		.4byte	.LASF45
 1254 0234 09       		.byte	0x9
 1255 0235 44       		.byte	0x44
 1256 0236 3A020000 		.4byte	0x23a
 1257 023a 0A       		.uleb128 0xa
 1258 023b 04       		.byte	0x4
 1259 023c 2B010000 		.4byte	0x12b
 1260 0240 04       		.uleb128 0x4
 1261 0241 9F070000 		.4byte	.LASF46
 1262 0245 09       		.byte	0x9
 1263 0246 49       		.byte	0x49
 1264 0247 4B020000 		.4byte	0x24b
 1265 024b 06       		.uleb128 0x6
 1266 024c 60060000 		.4byte	.LASF48
 1267 0250 04       		.byte	0x4
 1268 0251 02       		.byte	0x2
 1269 0252 B0       		.byte	0xb0
 1270 0253 64020000 		.4byte	0x264
 1271 0257 07       		.uleb128 0x7
 1272 0258 C8050000 		.4byte	.LASF27
 1273 025c 02       		.byte	0x2
 1274 025d B1       		.byte	0xb1
 1275 025e 3A020000 		.4byte	0x23a
 1276 0262 00       		.byte	0
 1277 0263 00       		.byte	0
 1278 0264 04       		.uleb128 0x4
ARM GAS  C:\Users\jo\AppData\Local\Temp\cc7FYMfi.s 			page 24


 1279 0265 20070000 		.4byte	.LASF49
 1280 0269 09       		.byte	0x9
 1281 026a 50       		.byte	0x50
 1282 026b 6F020000 		.4byte	0x26f
 1283 026f 06       		.uleb128 0x6
 1284 0270 05010000 		.4byte	.LASF50
 1285 0274 08       		.byte	0x8
 1286 0275 02       		.byte	0x2
 1287 0276 B7       		.byte	0xb7
 1288 0277 94020000 		.4byte	0x294
 1289 027b 07       		.uleb128 0x7
 1290 027c C8050000 		.4byte	.LASF27
 1291 0280 02       		.byte	0x2
 1292 0281 B8       		.byte	0xb8
 1293 0282 3A020000 		.4byte	0x23a
 1294 0286 00       		.byte	0
 1295 0287 07       		.uleb128 0x7
 1296 0288 65050000 		.4byte	.LASF28
 1297 028c 02       		.byte	0x2
 1298 028d B9       		.byte	0xb9
 1299 028e 3A020000 		.4byte	0x23a
 1300 0292 04       		.byte	0x4
 1301 0293 00       		.byte	0
 1302 0294 04       		.uleb128 0x4
 1303 0295 07000000 		.4byte	.LASF51
 1304 0299 09       		.byte	0x9
 1305 029a 57       		.byte	0x57
 1306 029b 9F020000 		.4byte	0x29f
 1307 029f 0B       		.uleb128 0xb
 1308 02a0 50030000 		.4byte	.LASF52
 1309 02a4 1C       		.byte	0x1c
 1310 02a5 02       		.byte	0x2
 1311 02a6 9001     		.2byte	0x190
 1312 02a8 FB020000 		.4byte	0x2fb
 1313 02ac 09       		.uleb128 0x9
 1314 02ad 4C060000 		.4byte	.LASF53
 1315 02b1 02       		.byte	0x2
 1316 02b2 9101     		.2byte	0x191
 1317 02b4 64020000 		.4byte	0x264
 1318 02b8 00       		.byte	0
 1319 02b9 09       		.uleb128 0x9
 1320 02ba BA050000 		.4byte	.LASF54
 1321 02be 02       		.byte	0x2
 1322 02bf 9201     		.2byte	0x192
 1323 02c1 F4000000 		.4byte	0xf4
 1324 02c5 08       		.byte	0x8
 1325 02c6 09       		.uleb128 0x9
 1326 02c7 EF040000 		.4byte	.LASF55
 1327 02cb 02       		.byte	0x2
 1328 02cc 9401     		.2byte	0x194
 1329 02ce 95040000 		.4byte	0x495
 1330 02d2 0C       		.byte	0xc
 1331 02d3 09       		.uleb128 0x9
 1332 02d4 3E020000 		.4byte	.LASF56
 1333 02d8 02       		.byte	0x2
 1334 02d9 9701     		.2byte	0x197
 1335 02db 3A020000 		.4byte	0x23a
ARM GAS  C:\Users\jo\AppData\Local\Temp\cc7FYMfi.s 			page 25


 1336 02df 10       		.byte	0x10
 1337 02e0 09       		.uleb128 0x9
 1338 02e1 20050000 		.4byte	.LASF57
 1339 02e5 02       		.byte	0x2
 1340 02e6 9801     		.2byte	0x198
 1341 02e8 3A020000 		.4byte	0x23a
 1342 02ec 14       		.byte	0x14
 1343 02ed 09       		.uleb128 0x9
 1344 02ee 16050000 		.4byte	.LASF58
 1345 02f2 02       		.byte	0x2
 1346 02f3 9B01     		.2byte	0x19b
 1347 02f5 3A020000 		.4byte	0x23a
 1348 02f9 18       		.byte	0x18
 1349 02fa 00       		.byte	0
 1350 02fb 04       		.uleb128 0x4
 1351 02fc CB060000 		.4byte	.LASF59
 1352 0300 09       		.byte	0x9
 1353 0301 5C       		.byte	0x5c
 1354 0302 06030000 		.4byte	0x306
 1355 0306 0A       		.uleb128 0xa
 1356 0307 04       		.byte	0x4
 1357 0308 0C030000 		.4byte	0x30c
 1358 030c 0C       		.uleb128 0xc
 1359 030d 17030000 		.4byte	0x317
 1360 0311 0D       		.uleb128 0xd
 1361 0312 17030000 		.4byte	0x317
 1362 0316 00       		.byte	0
 1363 0317 0E       		.uleb128 0xe
 1364 0318 04       		.byte	0x4
 1365 0319 04       		.uleb128 0x4
 1366 031a 55050000 		.4byte	.LASF60
 1367 031e 09       		.byte	0x9
 1368 031f 61       		.byte	0x61
 1369 0320 24030000 		.4byte	0x324
 1370 0324 0B       		.uleb128 0xb
 1371 0325 EA050000 		.4byte	.LASF61
 1372 0329 14       		.byte	0x14
 1373 032a 02       		.byte	0x2
 1374 032b 6B01     		.2byte	0x16b
 1375 032d 73030000 		.4byte	0x373
 1376 0331 09       		.uleb128 0x9
 1377 0332 BA020000 		.4byte	.LASF62
 1378 0336 02       		.byte	0x2
 1379 0337 6C01     		.2byte	0x16c
 1380 0339 BF060000 		.4byte	0x6bf
 1381 033d 00       		.byte	0
 1382 033e 09       		.uleb128 0x9
 1383 033f 4F020000 		.4byte	.LASF63
 1384 0343 02       		.byte	0x2
 1385 0344 6D01     		.2byte	0x16d
 1386 0346 BF060000 		.4byte	0x6bf
 1387 034a 04       		.byte	0x4
 1388 034b 09       		.uleb128 0x9
 1389 034c D0020000 		.4byte	.LASF64
 1390 0350 02       		.byte	0x2
 1391 0351 6E01     		.2byte	0x16e
 1392 0353 20010000 		.4byte	0x120
ARM GAS  C:\Users\jo\AppData\Local\Temp\cc7FYMfi.s 			page 26


 1393 0357 08       		.byte	0x8
 1394 0358 09       		.uleb128 0x9
 1395 0359 F7070000 		.4byte	.LASF65
 1396 035d 02       		.byte	0x2
 1397 035e 6F01     		.2byte	0x16f
 1398 0360 FB020000 		.4byte	0x2fb
 1399 0364 0C       		.byte	0xc
 1400 0365 09       		.uleb128 0x9
 1401 0366 19070000 		.4byte	.LASF66
 1402 036a 02       		.byte	0x2
 1403 036b 7101     		.2byte	0x171
 1404 036d 17030000 		.4byte	0x317
 1405 0371 10       		.byte	0x10
 1406 0372 00       		.byte	0
 1407 0373 04       		.uleb128 0x4
 1408 0374 E2000000 		.4byte	.LASF67
 1409 0378 09       		.byte	0x9
 1410 0379 66       		.byte	0x66
 1411 037a 7E030000 		.4byte	0x37e
 1412 037e 0B       		.uleb128 0xb
 1413 037f 8F040000 		.4byte	.LASF68
 1414 0383 10       		.byte	0x10
 1415 0384 02       		.byte	0x2
 1416 0385 7B01     		.2byte	0x17b
 1417 0387 C0030000 		.4byte	0x3c0
 1418 038b 09       		.uleb128 0x9
 1419 038c BA020000 		.4byte	.LASF62
 1420 0390 02       		.byte	0x2
 1421 0391 7C01     		.2byte	0x17c
 1422 0393 BF060000 		.4byte	0x6bf
 1423 0397 00       		.byte	0
 1424 0398 09       		.uleb128 0x9
 1425 0399 4F020000 		.4byte	.LASF63
 1426 039d 02       		.byte	0x2
 1427 039e 7E01     		.2byte	0x17e
 1428 03a0 BF060000 		.4byte	0x6bf
 1429 03a4 04       		.byte	0x4
 1430 03a5 09       		.uleb128 0x9
 1431 03a6 D0020000 		.4byte	.LASF64
 1432 03aa 02       		.byte	0x2
 1433 03ab 8001     		.2byte	0x180
 1434 03ad 20010000 		.4byte	0x120
 1435 03b1 08       		.byte	0x8
 1436 03b2 09       		.uleb128 0x9
 1437 03b3 DB040000 		.4byte	.LASF69
 1438 03b7 02       		.byte	0x2
 1439 03b8 8801     		.2byte	0x188
 1440 03ba 20010000 		.4byte	0x120
 1441 03be 0C       		.byte	0xc
 1442 03bf 00       		.byte	0
 1443 03c0 04       		.uleb128 0x4
 1444 03c1 48000000 		.4byte	.LASF70
 1445 03c5 09       		.byte	0x9
 1446 03c6 6B       		.byte	0x6b
 1447 03c7 CB030000 		.4byte	0x3cb
 1448 03cb 0F       		.uleb128 0xf
 1449 03cc 57020000 		.4byte	.LASF71
ARM GAS  C:\Users\jo\AppData\Local\Temp\cc7FYMfi.s 			page 27


 1450 03d0 1404     		.2byte	0x414
 1451 03d2 02       		.byte	0x2
 1452 03d3 A201     		.2byte	0x1a2
 1453 03d5 0E040000 		.4byte	0x40e
 1454 03d9 09       		.uleb128 0x9
 1455 03da ED060000 		.4byte	.LASF72
 1456 03de 02       		.byte	0x2
 1457 03df AA01     		.2byte	0x1aa
 1458 03e1 C5060000 		.4byte	0x6c5
 1459 03e5 00       		.byte	0
 1460 03e6 09       		.uleb128 0x9
 1461 03e7 40070000 		.4byte	.LASF73
 1462 03eb 02       		.byte	0x2
 1463 03ec AF01     		.2byte	0x1af
 1464 03ee 15010000 		.4byte	0x115
 1465 03f2 04       		.byte	0x4
 1466 03f3 09       		.uleb128 0x9
 1467 03f4 75020000 		.4byte	.LASF74
 1468 03f8 02       		.byte	0x2
 1469 03f9 B301     		.2byte	0x1b3
 1470 03fb 15010000 		.4byte	0x115
 1471 03ff 08       		.byte	0x8
 1472 0400 09       		.uleb128 0x9
 1473 0401 AE070000 		.4byte	.LASF75
 1474 0405 02       		.byte	0x2
 1475 0406 B901     		.2byte	0x1b9
 1476 0408 B7050000 		.4byte	0x5b7
 1477 040c 0C       		.byte	0xc
 1478 040d 00       		.byte	0
 1479 040e 04       		.uleb128 0x4
 1480 040f 2B030000 		.4byte	.LASF76
 1481 0413 09       		.byte	0x9
 1482 0414 70       		.byte	0x70
 1483 0415 19040000 		.4byte	0x419
 1484 0419 0F       		.uleb128 0xf
 1485 041a BD010000 		.4byte	.LASF77
 1486 041e 7005     		.2byte	0x570
 1487 0420 02       		.byte	0x2
 1488 0421 C201     		.2byte	0x1c2
 1489 0423 78040000 		.4byte	0x478
 1490 0427 09       		.uleb128 0x9
 1491 0428 51070000 		.4byte	.LASF78
 1492 042c 02       		.byte	0x2
 1493 042d C601     		.2byte	0x1c6
 1494 042f 94020000 		.4byte	0x294
 1495 0433 00       		.byte	0
 1496 0434 09       		.uleb128 0x9
 1497 0435 AA010000 		.4byte	.LASF79
 1498 0439 02       		.byte	0x2
 1499 043a CA01     		.2byte	0x1ca
 1500 043c 73030000 		.4byte	0x373
 1501 0440 1C       		.byte	0x1c
 1502 0441 08       		.uleb128 0x8
 1503 0442 64626700 		.ascii	"dbg\000"
 1504 0446 02       		.byte	0x2
 1505 0447 CE01     		.2byte	0x1ce
 1506 0449 C0030000 		.4byte	0x3c0
ARM GAS  C:\Users\jo\AppData\Local\Temp\cc7FYMfi.s 			page 28


 1507 044d 2C       		.byte	0x2c
 1508 044e 10       		.uleb128 0x10
 1509 044f D7000000 		.4byte	.LASF80
 1510 0453 02       		.byte	0x2
 1511 0454 D201     		.2byte	0x1d2
 1512 0456 2B010000 		.4byte	0x12b
 1513 045a 4004     		.2byte	0x440
 1514 045c 11       		.uleb128 0x11
 1515 045d 746D00   		.ascii	"tm\000"
 1516 0460 02       		.byte	0x2
 1517 0461 D701     		.2byte	0x1d7
 1518 0463 D7050000 		.4byte	0x5d7
 1519 0467 8804     		.2byte	0x488
 1520 0469 10       		.uleb128 0x10
 1521 046a 8B020000 		.4byte	.LASF81
 1522 046e 02       		.byte	0x2
 1523 046f E301     		.2byte	0x1e3
 1524 0471 CA060000 		.4byte	0x6ca
 1525 0475 9004     		.2byte	0x490
 1526 0477 00       		.byte	0
 1527 0478 03       		.uleb128 0x3
 1528 0479 04       		.byte	0x4
 1529 047a 07       		.byte	0x7
 1530 047b 63040000 		.4byte	.LASF82
 1531 047f 04       		.uleb128 0x4
 1532 0480 46020000 		.4byte	.LASF83
 1533 0484 0A       		.byte	0xa
 1534 0485 65       		.byte	0x65
 1535 0486 17030000 		.4byte	0x317
 1536 048a 04       		.uleb128 0x4
 1537 048b 4E040000 		.4byte	.LASF84
 1538 048f 0A       		.byte	0xa
 1539 0490 6D       		.byte	0x6d
 1540 0491 B8000000 		.4byte	0xb8
 1541 0495 06       		.uleb128 0x6
 1542 0496 FE060000 		.4byte	.LASF85
 1543 049a 04       		.byte	0x4
 1544 049b 0A       		.byte	0xa
 1545 049c 89       		.byte	0x89
 1546 049d AE040000 		.4byte	0x4ae
 1547 04a1 12       		.uleb128 0x12
 1548 04a2 72313300 		.ascii	"r13\000"
 1549 04a6 0A       		.byte	0xa
 1550 04a7 8A       		.byte	0x8a
 1551 04a8 29050000 		.4byte	0x529
 1552 04ac 00       		.byte	0
 1553 04ad 00       		.byte	0
 1554 04ae 06       		.uleb128 0x6
 1555 04af 3C000000 		.4byte	.LASF86
 1556 04b3 24       		.byte	0x24
 1557 04b4 0B       		.byte	0xb
 1558 04b5 F4       		.byte	0xf4
 1559 04b6 29050000 		.4byte	0x529
 1560 04ba 08       		.uleb128 0x8
 1561 04bb 723400   		.ascii	"r4\000"
 1562 04be 0B       		.byte	0xb
 1563 04bf 0701     		.2byte	0x107
ARM GAS  C:\Users\jo\AppData\Local\Temp\cc7FYMfi.s 			page 29


 1564 04c1 7F040000 		.4byte	0x47f
 1565 04c5 00       		.byte	0
 1566 04c6 08       		.uleb128 0x8
 1567 04c7 723500   		.ascii	"r5\000"
 1568 04ca 0B       		.byte	0xb
 1569 04cb 0801     		.2byte	0x108
 1570 04cd 7F040000 		.4byte	0x47f
 1571 04d1 04       		.byte	0x4
 1572 04d2 08       		.uleb128 0x8
 1573 04d3 723600   		.ascii	"r6\000"
 1574 04d6 0B       		.byte	0xb
 1575 04d7 0901     		.2byte	0x109
 1576 04d9 7F040000 		.4byte	0x47f
 1577 04dd 08       		.byte	0x8
 1578 04de 08       		.uleb128 0x8
 1579 04df 723700   		.ascii	"r7\000"
 1580 04e2 0B       		.byte	0xb
 1581 04e3 0A01     		.2byte	0x10a
 1582 04e5 7F040000 		.4byte	0x47f
 1583 04e9 0C       		.byte	0xc
 1584 04ea 08       		.uleb128 0x8
 1585 04eb 723800   		.ascii	"r8\000"
 1586 04ee 0B       		.byte	0xb
 1587 04ef 0B01     		.2byte	0x10b
 1588 04f1 7F040000 		.4byte	0x47f
 1589 04f5 10       		.byte	0x10
 1590 04f6 08       		.uleb128 0x8
 1591 04f7 723900   		.ascii	"r9\000"
 1592 04fa 0B       		.byte	0xb
 1593 04fb 0C01     		.2byte	0x10c
 1594 04fd 7F040000 		.4byte	0x47f
 1595 0501 14       		.byte	0x14
 1596 0502 08       		.uleb128 0x8
 1597 0503 72313000 		.ascii	"r10\000"
 1598 0507 0B       		.byte	0xb
 1599 0508 0D01     		.2byte	0x10d
 1600 050a 7F040000 		.4byte	0x47f
 1601 050e 18       		.byte	0x18
 1602 050f 08       		.uleb128 0x8
 1603 0510 72313100 		.ascii	"r11\000"
 1604 0514 0B       		.byte	0xb
 1605 0515 0E01     		.2byte	0x10e
 1606 0517 7F040000 		.4byte	0x47f
 1607 051b 1C       		.byte	0x1c
 1608 051c 08       		.uleb128 0x8
 1609 051d 6C7200   		.ascii	"lr\000"
 1610 0520 0B       		.byte	0xb
 1611 0521 0F01     		.2byte	0x10f
 1612 0523 7F040000 		.4byte	0x47f
 1613 0527 20       		.byte	0x20
 1614 0528 00       		.byte	0
 1615 0529 0A       		.uleb128 0xa
 1616 052a 04       		.byte	0x4
 1617 052b AE040000 		.4byte	0x4ae
 1618 052f 13       		.uleb128 0x13
 1619 0530 10       		.byte	0x10
 1620 0531 0C       		.byte	0xc
ARM GAS  C:\Users\jo\AppData\Local\Temp\cc7FYMfi.s 			page 30


 1621 0532 51       		.byte	0x51
 1622 0533 68050000 		.4byte	0x568
 1623 0537 07       		.uleb128 0x7
 1624 0538 14000000 		.4byte	.LASF87
 1625 053c 0C       		.byte	0xc
 1626 053d 55       		.byte	0x55
 1627 053e 20010000 		.4byte	0x120
 1628 0542 00       		.byte	0
 1629 0543 07       		.uleb128 0x7
 1630 0544 E8010000 		.4byte	.LASF88
 1631 0548 0C       		.byte	0xc
 1632 0549 59       		.byte	0x59
 1633 054a 3A020000 		.4byte	0x23a
 1634 054e 04       		.byte	0x4
 1635 054f 07       		.uleb128 0x7
 1636 0550 E7070000 		.4byte	.LASF89
 1637 0554 0C       		.byte	0xc
 1638 0555 5D       		.byte	0x5d
 1639 0556 17030000 		.4byte	0x317
 1640 055a 08       		.byte	0x8
 1641 055b 07       		.uleb128 0x7
 1642 055c C5000000 		.4byte	.LASF90
 1643 0560 0C       		.byte	0xc
 1644 0561 61       		.byte	0x61
 1645 0562 97000000 		.4byte	0x97
 1646 0566 0C       		.byte	0xc
 1647 0567 00       		.byte	0
 1648 0568 04       		.uleb128 0x4
 1649 0569 CC040000 		.4byte	.LASF91
 1650 056d 0C       		.byte	0xc
 1651 056e 62       		.byte	0x62
 1652 056f 2F050000 		.4byte	0x52f
 1653 0573 14       		.uleb128 0x14
 1654 0574 0804     		.2byte	0x408
 1655 0576 0C       		.byte	0xc
 1656 0577 67       		.byte	0x67
 1657 0578 A1050000 		.4byte	0x5a1
 1658 057c 07       		.uleb128 0x7
 1659 057d 36020000 		.4byte	.LASF92
 1660 0581 0C       		.byte	0xc
 1661 0582 6B       		.byte	0x6b
 1662 0583 2C000000 		.4byte	0x2c
 1663 0587 00       		.byte	0
 1664 0588 07       		.uleb128 0x7
 1665 0589 00000000 		.4byte	.LASF93
 1666 058d 0C       		.byte	0xc
 1667 058e 6F       		.byte	0x6f
 1668 058f A1050000 		.4byte	0x5a1
 1669 0593 04       		.byte	0x4
 1670 0594 07       		.uleb128 0x7
 1671 0595 4B050000 		.4byte	.LASF94
 1672 0599 0C       		.byte	0xc
 1673 059a 73       		.byte	0x73
 1674 059b A7050000 		.4byte	0x5a7
 1675 059f 08       		.byte	0x8
 1676 05a0 00       		.byte	0
 1677 05a1 0A       		.uleb128 0xa
ARM GAS  C:\Users\jo\AppData\Local\Temp\cc7FYMfi.s 			page 31


 1678 05a2 04       		.byte	0x4
 1679 05a3 68050000 		.4byte	0x568
 1680 05a7 15       		.uleb128 0x15
 1681 05a8 68050000 		.4byte	0x568
 1682 05ac B7050000 		.4byte	0x5b7
 1683 05b0 16       		.uleb128 0x16
 1684 05b1 78040000 		.4byte	0x478
 1685 05b5 3F       		.byte	0x3f
 1686 05b6 00       		.byte	0
 1687 05b7 04       		.uleb128 0x4
 1688 05b8 B3000000 		.4byte	.LASF95
 1689 05bc 0C       		.byte	0xc
 1690 05bd 74       		.byte	0x74
 1691 05be 73050000 		.4byte	0x573
 1692 05c2 13       		.uleb128 0x13
 1693 05c3 04       		.byte	0x4
 1694 05c4 0D       		.byte	0xd
 1695 05c5 38       		.byte	0x38
 1696 05c6 D7050000 		.4byte	0x5d7
 1697 05ca 07       		.uleb128 0x7
 1698 05cb F7060000 		.4byte	.LASF96
 1699 05cf 0D       		.byte	0xd
 1700 05d0 3C       		.byte	0x3c
 1701 05d1 C8000000 		.4byte	0xc8
 1702 05d5 00       		.byte	0
 1703 05d6 00       		.byte	0
 1704 05d7 04       		.uleb128 0x4
 1705 05d8 F5040000 		.4byte	.LASF97
 1706 05dc 0D       		.byte	0xd
 1707 05dd 3D       		.byte	0x3d
 1708 05de C2050000 		.4byte	0x5c2
 1709 05e2 17       		.uleb128 0x17
 1710 05e3 04       		.byte	0x4
 1711 05e4 02       		.byte	0x2
 1712 05e5 FA       		.byte	0xfa
 1713 05e6 3F060000 		.4byte	0x63f
 1714 05ea 18       		.uleb128 0x18
 1715 05eb 22000000 		.4byte	.LASF98
 1716 05ef 02       		.byte	0x2
 1717 05f0 0101     		.2byte	0x101
 1718 05f2 FF000000 		.4byte	0xff
 1719 05f6 18       		.uleb128 0x18
 1720 05f7 CE000000 		.4byte	.LASF99
 1721 05fb 02       		.byte	0x2
 1722 05fc 0801     		.2byte	0x108
 1723 05fe FF000000 		.4byte	0xff
 1724 0602 18       		.uleb128 0x18
 1725 0603 7F070000 		.4byte	.LASF100
 1726 0607 02       		.byte	0x2
 1727 0608 0F01     		.2byte	0x10f
 1728 060a 17030000 		.4byte	0x317
 1729 060e 18       		.uleb128 0x18
 1730 060f 1C000000 		.4byte	.LASF101
 1731 0613 02       		.byte	0x2
 1732 0614 1601     		.2byte	0x116
 1733 0616 3F060000 		.4byte	0x63f
 1734 061a 18       		.uleb128 0x18
ARM GAS  C:\Users\jo\AppData\Local\Temp\cc7FYMfi.s 			page 32


 1735 061b C9020000 		.4byte	.LASF102
 1736 061f 02       		.byte	0x2
 1737 0620 1E01     		.2byte	0x11e
 1738 0622 6A060000 		.4byte	0x66a
 1739 0626 18       		.uleb128 0x18
 1740 0627 45060000 		.4byte	.LASF103
 1741 062b 02       		.byte	0x2
 1742 062c 2701     		.2byte	0x127
 1743 062e A1060000 		.4byte	0x6a1
 1744 0632 18       		.uleb128 0x18
 1745 0633 C1050000 		.4byte	.LASF104
 1746 0637 02       		.byte	0x2
 1747 0638 2F01     		.2byte	0x12f
 1748 063a 0A010000 		.4byte	0x10a
 1749 063e 00       		.byte	0
 1750 063f 0A       		.uleb128 0xa
 1751 0640 04       		.byte	0x4
 1752 0641 2F020000 		.4byte	0x22f
 1753 0645 06       		.uleb128 0x6
 1754 0646 03060000 		.4byte	.LASF105
 1755 064a 0C       		.byte	0xc
 1756 064b 0E       		.byte	0xe
 1757 064c 34       		.byte	0x34
 1758 064d 6A060000 		.4byte	0x66a
 1759 0651 07       		.uleb128 0x7
 1760 0652 1D020000 		.4byte	.LASF106
 1761 0656 0E       		.byte	0xe
 1762 0657 35       		.byte	0x35
 1763 0658 64020000 		.4byte	0x264
 1764 065c 00       		.byte	0
 1765 065d 07       		.uleb128 0x7
 1766 065e E4020000 		.4byte	.LASF107
 1767 0662 0E       		.byte	0xe
 1768 0663 37       		.byte	0x37
 1769 0664 15010000 		.4byte	0x115
 1770 0668 08       		.byte	0x8
 1771 0669 00       		.byte	0
 1772 066a 0A       		.uleb128 0xa
 1773 066b 04       		.byte	0x4
 1774 066c 45060000 		.4byte	0x645
 1775 0670 06       		.uleb128 0x6
 1776 0671 30070000 		.4byte	.LASF108
 1777 0675 10       		.byte	0x10
 1778 0676 05       		.byte	0x5
 1779 0677 39       		.byte	0x39
 1780 0678 A1060000 		.4byte	0x6a1
 1781 067c 07       		.uleb128 0x7
 1782 067d A2010000 		.4byte	.LASF109
 1783 0681 05       		.byte	0x5
 1784 0682 3A       		.byte	0x3a
 1785 0683 64020000 		.4byte	0x264
 1786 0687 00       		.byte	0
 1787 0688 07       		.uleb128 0x7
 1788 0689 DF070000 		.4byte	.LASF110
 1789 068d 05       		.byte	0x5
 1790 068e 3C       		.byte	0x3c
 1791 068f 3A020000 		.4byte	0x23a
ARM GAS  C:\Users\jo\AppData\Local\Temp\cc7FYMfi.s 			page 33


 1792 0693 08       		.byte	0x8
 1793 0694 07       		.uleb128 0x7
 1794 0695 C2020000 		.4byte	.LASF111
 1795 0699 05       		.byte	0x5
 1796 069a 3E       		.byte	0x3e
 1797 069b E5060000 		.4byte	0x6e5
 1798 069f 0C       		.byte	0xc
 1799 06a0 00       		.byte	0
 1800 06a1 0A       		.uleb128 0xa
 1801 06a2 04       		.byte	0x4
 1802 06a3 70060000 		.4byte	0x670
 1803 06a7 0A       		.uleb128 0xa
 1804 06a8 04       		.byte	0x4
 1805 06a9 AD060000 		.4byte	0x6ad
 1806 06ad 19       		.uleb128 0x19
 1807 06ae B2060000 		.4byte	0x6b2
 1808 06b2 03       		.uleb128 0x3
 1809 06b3 01       		.byte	0x1
 1810 06b4 08       		.byte	0x8
 1811 06b5 82060000 		.4byte	.LASF112
 1812 06b9 0A       		.uleb128 0xa
 1813 06ba 04       		.byte	0x4
 1814 06bb 8A040000 		.4byte	0x48a
 1815 06bf 0A       		.uleb128 0xa
 1816 06c0 04       		.byte	0x4
 1817 06c1 19030000 		.4byte	0x319
 1818 06c5 05       		.uleb128 0x5
 1819 06c6 A7060000 		.4byte	0x6a7
 1820 06ca 15       		.uleb128 0x15
 1821 06cb 8A040000 		.4byte	0x48a
 1822 06cf DA060000 		.4byte	0x6da
 1823 06d3 16       		.uleb128 0x16
 1824 06d4 78040000 		.4byte	0x478
 1825 06d8 1B       		.byte	0x1b
 1826 06d9 00       		.byte	0
 1827 06da 04       		.uleb128 0x4
 1828 06db 67020000 		.4byte	.LASF113
 1829 06df 05       		.byte	0x5
 1830 06e0 34       		.byte	0x34
 1831 06e1 70060000 		.4byte	0x670
 1832 06e5 0A       		.uleb128 0xa
 1833 06e6 04       		.byte	0x4
 1834 06e7 DA060000 		.4byte	0x6da
 1835 06eb 06       		.uleb128 0x6
 1836 06ec A6040000 		.4byte	.LASF114
 1837 06f0 08       		.byte	0x8
 1838 06f1 0F       		.byte	0xf
 1839 06f2 3B       		.byte	0x3b
 1840 06f3 04070000 		.4byte	0x704
 1841 06f7 07       		.uleb128 0x7
 1842 06f8 FB050000 		.4byte	.LASF115
 1843 06fc 0F       		.byte	0xf
 1844 06fd 3C       		.byte	0x3c
 1845 06fe 64020000 		.4byte	0x264
 1846 0702 00       		.byte	0
 1847 0703 00       		.byte	0
 1848 0704 04       		.uleb128 0x4
ARM GAS  C:\Users\jo\AppData\Local\Temp\cc7FYMfi.s 			page 34


 1849 0705 85010000 		.4byte	.LASF116
 1850 0709 0F       		.byte	0xf
 1851 070a 3E       		.byte	0x3e
 1852 070b EB060000 		.4byte	0x6eb
 1853 070f 1A       		.uleb128 0x1a
 1854 0710 DF060000 		.4byte	.LASF119
 1855 0714 03       		.byte	0x3
 1856 0715 2002     		.2byte	0x220
 1857 0717 03       		.byte	0x3
 1858 0718 29070000 		.4byte	0x729
 1859 071c 1B       		.uleb128 0x1b
 1860 071d 6F020000 		.4byte	.LASF121
 1861 0721 03       		.byte	0x3
 1862 0722 2002     		.2byte	0x220
 1863 0724 AD000000 		.4byte	0xad
 1864 0728 00       		.byte	0
 1865 0729 1C       		.uleb128 0x1c
 1866 072a 57070000 		.4byte	.LASF126
 1867 072e 10       		.byte	0x10
 1868 072f AE       		.byte	0xae
 1869 0730 3A020000 		.4byte	0x23a
 1870 0734 03       		.byte	0x3
 1871 0735 1D       		.uleb128 0x1d
 1872 0736 77000000 		.4byte	.LASF117
 1873 073a 0B       		.byte	0xb
 1874 073b BC01     		.2byte	0x1bc
 1875 073d 03       		.byte	0x3
 1876 073e 1D       		.uleb128 0x1d
 1877 073f B1010000 		.4byte	.LASF118
 1878 0743 0B       		.byte	0xb
 1879 0744 CA01     		.2byte	0x1ca
 1880 0746 03       		.byte	0x3
 1881 0747 1A       		.uleb128 0x1a
 1882 0748 57000000 		.4byte	.LASF120
 1883 074c 02       		.byte	0x2
 1884 074d 5A02     		.2byte	0x25a
 1885 074f 03       		.byte	0x3
 1886 0750 61070000 		.4byte	0x761
 1887 0754 1E       		.uleb128 0x1e
 1888 0755 74717000 		.ascii	"tqp\000"
 1889 0759 02       		.byte	0x2
 1890 075a 5A02     		.2byte	0x25a
 1891 075c 61070000 		.4byte	0x761
 1892 0760 00       		.byte	0
 1893 0761 0A       		.uleb128 0xa
 1894 0762 04       		.byte	0x4
 1895 0763 64020000 		.4byte	0x264
 1896 0767 1D       		.uleb128 0x1d
 1897 0768 E0050000 		.4byte	.LASF122
 1898 076c 04       		.byte	0x4
 1899 076d 5A01     		.2byte	0x15a
 1900 076f 03       		.byte	0x3
 1901 0770 1F       		.uleb128 0x1f
 1902 0771 D9010000 		.4byte	.LASF124
 1903 0775 02       		.byte	0x2
 1904 0776 7502     		.2byte	0x275
 1905 0778 8E070000 		.4byte	0x78e
ARM GAS  C:\Users\jo\AppData\Local\Temp\cc7FYMfi.s 			page 35


 1906 077c 03       		.byte	0x3
 1907 077d 8E070000 		.4byte	0x78e
 1908 0781 1E       		.uleb128 0x1e
 1909 0782 74717000 		.ascii	"tqp\000"
 1910 0786 02       		.byte	0x2
 1911 0787 7502     		.2byte	0x275
 1912 0789 95070000 		.4byte	0x795
 1913 078d 00       		.byte	0
 1914 078e 03       		.uleb128 0x3
 1915 078f 01       		.byte	0x1
 1916 0790 02       		.byte	0x2
 1917 0791 82050000 		.4byte	.LASF123
 1918 0795 0A       		.uleb128 0xa
 1919 0796 04       		.byte	0x4
 1920 0797 9B070000 		.4byte	0x79b
 1921 079b 19       		.uleb128 0x19
 1922 079c 64020000 		.4byte	0x264
 1923 07a0 1F       		.uleb128 0x1f
 1924 07a1 A4060000 		.4byte	.LASF125
 1925 07a5 02       		.byte	0x2
 1926 07a6 9F02     		.2byte	0x29f
 1927 07a8 3A020000 		.4byte	0x23a
 1928 07ac 03       		.byte	0x3
 1929 07ad C9070000 		.4byte	0x7c9
 1930 07b1 1E       		.uleb128 0x1e
 1931 07b2 74717000 		.ascii	"tqp\000"
 1932 07b6 02       		.byte	0x2
 1933 07b7 9F02     		.2byte	0x29f
 1934 07b9 61070000 		.4byte	0x761
 1935 07bd 20       		.uleb128 0x20
 1936 07be 747000   		.ascii	"tp\000"
 1937 07c1 02       		.byte	0x2
 1938 07c2 A002     		.2byte	0x2a0
 1939 07c4 3A020000 		.4byte	0x23a
 1940 07c8 00       		.byte	0
 1941 07c9 1C       		.uleb128 0x1c
 1942 07ca 29060000 		.4byte	.LASF127
 1943 07ce 05       		.byte	0x5
 1944 07cf 90       		.byte	0x90
 1945 07d0 E5060000 		.4byte	0x6e5
 1946 07d4 03       		.byte	0x3
 1947 07d5 1A       		.uleb128 0x1a
 1948 07d6 CD070000 		.4byte	.LASF128
 1949 07da 02       		.byte	0x2
 1950 07db 8B02     		.2byte	0x28b
 1951 07dd 03       		.byte	0x3
 1952 07de 05080000 		.4byte	0x805
 1953 07e2 1E       		.uleb128 0x1e
 1954 07e3 747000   		.ascii	"tp\000"
 1955 07e6 02       		.byte	0x2
 1956 07e7 8B02     		.2byte	0x28b
 1957 07e9 3A020000 		.4byte	0x23a
 1958 07ed 1E       		.uleb128 0x1e
 1959 07ee 74717000 		.ascii	"tqp\000"
 1960 07f2 02       		.byte	0x2
 1961 07f3 8B02     		.2byte	0x28b
 1962 07f5 61070000 		.4byte	0x761
ARM GAS  C:\Users\jo\AppData\Local\Temp\cc7FYMfi.s 			page 36


 1963 07f9 20       		.uleb128 0x20
 1964 07fa 637000   		.ascii	"cp\000"
 1965 07fd 02       		.byte	0x2
 1966 07fe 8D02     		.2byte	0x28d
 1967 0800 3A020000 		.4byte	0x23a
 1968 0804 00       		.byte	0
 1969 0805 21       		.uleb128 0x21
 1970 0806 93060000 		.4byte	.LASF131
 1971 080a 01       		.byte	0x1
 1972 080b 4B       		.byte	0x4b
 1973 080c 00000000 		.4byte	.LFB228
 1974 0810 1C000000 		.4byte	.LFE228-.LFB228
 1975 0814 01       		.uleb128 0x1
 1976 0815 9C       		.byte	0x9c
 1977 0816 68080000 		.4byte	0x868
 1978 081a 22       		.uleb128 0x22
 1979 081b 637000   		.ascii	"cp\000"
 1980 081e 01       		.byte	0x1
 1981 081f 4B       		.byte	0x4b
 1982 0820 68080000 		.4byte	0x868
 1983 0824 00000000 		.4byte	.LLST0
 1984 0828 23       		.uleb128 0x23
 1985 0829 D7050000 		.4byte	.LASF129
 1986 082d 7E080000 		.4byte	0x87e
 1987 0831 05       		.uleb128 0x5
 1988 0832 03       		.byte	0x3
 1989 0833 00000000 		.4byte	__func__.6546
 1990 0837 24       		.uleb128 0x24
 1991 0838 47070000 		.4byte	0x747
 1992 083c 06000000 		.4byte	.LBB63
 1993 0840 00000000 		.4byte	.Ldebug_ranges0+0
 1994 0844 01       		.byte	0x1
 1995 0845 4F       		.byte	0x4f
 1996 0846 54080000 		.4byte	0x854
 1997 084a 25       		.uleb128 0x25
 1998 084b 54070000 		.4byte	0x754
 1999 084f 2C000000 		.4byte	.LLST1
 2000 0853 00       		.byte	0
 2001 0854 26       		.uleb128 0x26
 2002 0855 12000000 		.4byte	.LVL4
 2003 0859 06110000 		.4byte	0x1106
 2004 085d 27       		.uleb128 0x27
 2005 085e 01       		.uleb128 0x1
 2006 085f 50       		.byte	0x50
 2007 0860 05       		.uleb128 0x5
 2008 0861 03       		.byte	0x3
 2009 0862 00000000 		.4byte	.LANCHOR0
 2010 0866 00       		.byte	0
 2011 0867 00       		.byte	0
 2012 0868 0A       		.uleb128 0xa
 2013 0869 04       		.byte	0x4
 2014 086a 04070000 		.4byte	0x704
 2015 086e 15       		.uleb128 0x15
 2016 086f B2060000 		.4byte	0x6b2
 2017 0873 7E080000 		.4byte	0x87e
 2018 0877 16       		.uleb128 0x16
 2019 0878 78040000 		.4byte	0x478
ARM GAS  C:\Users\jo\AppData\Local\Temp\cc7FYMfi.s 			page 37


 2020 087c 10       		.byte	0x10
 2021 087d 00       		.byte	0
 2022 087e 19       		.uleb128 0x19
 2023 087f 6E080000 		.4byte	0x86e
 2024 0883 1A       		.uleb128 0x1a
 2025 0884 BB070000 		.4byte	.LASF130
 2026 0888 04       		.byte	0x4
 2027 0889 6601     		.2byte	0x166
 2028 088b 03       		.byte	0x3
 2029 088c 9E080000 		.4byte	0x89e
 2030 0890 28       		.uleb128 0x28
 2031 0891 D7050000 		.4byte	.LASF129
 2032 0895 AE080000 		.4byte	0x8ae
 2033 0899 BB070000 		.4byte	.LASF130
 2034 089d 00       		.byte	0
 2035 089e 15       		.uleb128 0x15
 2036 089f B2060000 		.4byte	0x6b2
 2037 08a3 AE080000 		.4byte	0x8ae
 2038 08a7 16       		.uleb128 0x16
 2039 08a8 78040000 		.4byte	0x478
 2040 08ac 0B       		.byte	0xb
 2041 08ad 00       		.byte	0
 2042 08ae 19       		.uleb128 0x19
 2043 08af 9E080000 		.4byte	0x89e
 2044 08b3 21       		.uleb128 0x21
 2045 08b4 7E020000 		.4byte	.LASF132
 2046 08b8 01       		.byte	0x1
 2047 08b9 59       		.byte	0x59
 2048 08ba 00000000 		.4byte	.LFB229
 2049 08be 5C000000 		.4byte	.LFE229-.LFB229
 2050 08c2 01       		.uleb128 0x1
 2051 08c3 9C       		.byte	0x9c
 2052 08c4 150A0000 		.4byte	0xa15
 2053 08c8 22       		.uleb128 0x22
 2054 08c9 637000   		.ascii	"cp\000"
 2055 08cc 01       		.byte	0x1
 2056 08cd 59       		.byte	0x59
 2057 08ce 68080000 		.4byte	0x868
 2058 08d2 58000000 		.4byte	.LLST2
 2059 08d6 23       		.uleb128 0x23
 2060 08d7 D7050000 		.4byte	.LASF129
 2061 08db 250A0000 		.4byte	0xa25
 2062 08df 05       		.uleb128 0x5
 2063 08e0 03       		.byte	0x3
 2064 08e1 00000000 		.4byte	__func__.6550
 2065 08e5 29       		.uleb128 0x29
 2066 08e6 67070000 		.4byte	0x767
 2067 08ea 06000000 		.4byte	.LBB81
 2068 08ee 0A000000 		.4byte	.LBE81-.LBB81
 2069 08f2 01       		.byte	0x1
 2070 08f3 5D       		.byte	0x5d
 2071 08f4 31090000 		.4byte	0x931
 2072 08f8 2A       		.uleb128 0x2a
 2073 08f9 35070000 		.4byte	0x735
 2074 08fd 06000000 		.4byte	.LBB83
 2075 0901 06000000 		.4byte	.LBE83-.LBB83
 2076 0905 04       		.byte	0x4
ARM GAS  C:\Users\jo\AppData\Local\Temp\cc7FYMfi.s 			page 38


 2077 0906 5C01     		.2byte	0x15c
 2078 0908 27090000 		.4byte	0x927
 2079 090c 2B       		.uleb128 0x2b
 2080 090d 0F070000 		.4byte	0x70f
 2081 0911 06000000 		.4byte	.LBB84
 2082 0915 06000000 		.4byte	.LBE84-.LBB84
 2083 0919 0B       		.byte	0xb
 2084 091a BF01     		.2byte	0x1bf
 2085 091c 25       		.uleb128 0x25
 2086 091d 1C070000 		.4byte	0x71c
 2087 0921 8C000000 		.4byte	.LLST3
 2088 0925 00       		.byte	0
 2089 0926 00       		.byte	0
 2090 0927 2C       		.uleb128 0x2c
 2091 0928 10000000 		.4byte	.LVL8
 2092 092c 18110000 		.4byte	0x1118
 2093 0930 00       		.byte	0
 2094 0931 29       		.uleb128 0x29
 2095 0932 70070000 		.4byte	0x770
 2096 0936 10000000 		.4byte	.LBB86
 2097 093a 02000000 		.4byte	.LBE86-.LBB86
 2098 093e 01       		.byte	0x1
 2099 093f 5E       		.byte	0x5e
 2100 0940 4E090000 		.4byte	0x94e
 2101 0944 25       		.uleb128 0x25
 2102 0945 81070000 		.4byte	0x781
 2103 0949 A1000000 		.4byte	.LLST4
 2104 094d 00       		.byte	0
 2105 094e 24       		.uleb128 0x24
 2106 094f A0070000 		.4byte	0x7a0
 2107 0953 16000000 		.4byte	.LBB88
 2108 0957 18000000 		.4byte	.Ldebug_ranges0+0x18
 2109 095b 01       		.byte	0x1
 2110 095c 5F       		.byte	0x5f
 2111 095d 7A090000 		.4byte	0x97a
 2112 0961 25       		.uleb128 0x25
 2113 0962 B1070000 		.4byte	0x7b1
 2114 0966 B4000000 		.4byte	.LLST5
 2115 096a 2D       		.uleb128 0x2d
 2116 096b 18000000 		.4byte	.Ldebug_ranges0+0x18
 2117 096f 2E       		.uleb128 0x2e
 2118 0970 BD070000 		.4byte	0x7bd
 2119 0974 C7000000 		.4byte	.LLST6
 2120 0978 00       		.byte	0
 2121 0979 00       		.byte	0
 2122 097a 29       		.uleb128 0x29
 2123 097b 83080000 		.4byte	0x883
 2124 097f 22000000 		.4byte	.LBB92
 2125 0983 24000000 		.4byte	.LBE92-.LBB92
 2126 0987 01       		.byte	0x1
 2127 0988 61       		.byte	0x61
 2128 0989 EE090000 		.4byte	0x9ee
 2129 098d 2F       		.uleb128 0x2f
 2130 098e 22000000 		.4byte	.LBB93
 2131 0992 24000000 		.4byte	.LBE93-.LBB93
 2132 0996 30       		.uleb128 0x30
 2133 0997 90080000 		.4byte	0x890
ARM GAS  C:\Users\jo\AppData\Local\Temp\cc7FYMfi.s 			page 39


 2134 099b 05       		.uleb128 0x5
 2135 099c 03       		.byte	0x3
 2136 099d 00000000 		.4byte	__func__.5854
 2137 09a1 2A       		.uleb128 0x2a
 2138 09a2 3E070000 		.4byte	0x73e
 2139 09a6 3E000000 		.4byte	.LBB94
 2140 09aa 08000000 		.4byte	.LBE94-.LBB94
 2141 09ae 04       		.byte	0x4
 2142 09af 7301     		.2byte	0x173
 2143 09b1 D0090000 		.4byte	0x9d0
 2144 09b5 2B       		.uleb128 0x2b
 2145 09b6 0F070000 		.4byte	0x70f
 2146 09ba 3E000000 		.4byte	.LBB95
 2147 09be 08000000 		.4byte	.LBE95-.LBB95
 2148 09c2 0B       		.byte	0xb
 2149 09c3 CD01     		.2byte	0x1cd
 2150 09c5 25       		.uleb128 0x25
 2151 09c6 1C070000 		.4byte	0x71c
 2152 09ca DA000000 		.4byte	.LLST7
 2153 09ce 00       		.byte	0
 2154 09cf 00       		.byte	0
 2155 09d0 2C       		.uleb128 0x2c
 2156 09d1 26000000 		.4byte	.LVL11
 2157 09d5 1F110000 		.4byte	0x111f
 2158 09d9 26       		.uleb128 0x26
 2159 09da 3E000000 		.4byte	.LVL12
 2160 09de 06110000 		.4byte	0x1106
 2161 09e2 27       		.uleb128 0x27
 2162 09e3 01       		.uleb128 0x1
 2163 09e4 50       		.byte	0x50
 2164 09e5 05       		.uleb128 0x5
 2165 09e6 03       		.byte	0x3
 2166 09e7 00000000 		.4byte	.LANCHOR2
 2167 09eb 00       		.byte	0
 2168 09ec 00       		.byte	0
 2169 09ed 00       		.byte	0
 2170 09ee 31       		.uleb128 0x31
 2171 09ef 22000000 		.4byte	.LVL10
 2172 09f3 26110000 		.4byte	0x1126
 2173 09f7 010A0000 		.4byte	0xa01
 2174 09fb 27       		.uleb128 0x27
 2175 09fc 01       		.uleb128 0x1
 2176 09fd 51       		.byte	0x51
 2177 09fe 01       		.uleb128 0x1
 2178 09ff 30       		.byte	0x30
 2179 0a00 00       		.byte	0
 2180 0a01 26       		.uleb128 0x26
 2181 0a02 4C000000 		.4byte	.LVL15
 2182 0a06 06110000 		.4byte	0x1106
 2183 0a0a 27       		.uleb128 0x27
 2184 0a0b 01       		.uleb128 0x1
 2185 0a0c 50       		.byte	0x50
 2186 0a0d 05       		.uleb128 0x5
 2187 0a0e 03       		.byte	0x3
 2188 0a0f 00000000 		.4byte	.LANCHOR1
 2189 0a13 00       		.byte	0
 2190 0a14 00       		.byte	0
ARM GAS  C:\Users\jo\AppData\Local\Temp\cc7FYMfi.s 			page 40


 2191 0a15 15       		.uleb128 0x15
 2192 0a16 B2060000 		.4byte	0x6b2
 2193 0a1a 250A0000 		.4byte	0xa25
 2194 0a1e 16       		.uleb128 0x16
 2195 0a1f 78040000 		.4byte	0x478
 2196 0a23 0C       		.byte	0xc
 2197 0a24 00       		.byte	0
 2198 0a25 19       		.uleb128 0x19
 2199 0a26 150A0000 		.4byte	0xa15
 2200 0a2a 21       		.uleb128 0x21
 2201 0a2b 74050000 		.4byte	.LASF133
 2202 0a2f 01       		.byte	0x1
 2203 0a30 6F       		.byte	0x6f
 2204 0a31 00000000 		.4byte	.LFB230
 2205 0a35 34000000 		.4byte	.LFE230-.LFB230
 2206 0a39 01       		.uleb128 0x1
 2207 0a3a 9C       		.byte	0x9c
 2208 0a3b DF0A0000 		.4byte	0xadf
 2209 0a3f 22       		.uleb128 0x22
 2210 0a40 637000   		.ascii	"cp\000"
 2211 0a43 01       		.byte	0x1
 2212 0a44 6F       		.byte	0x6f
 2213 0a45 68080000 		.4byte	0x868
 2214 0a49 EE000000 		.4byte	.LLST8
 2215 0a4d 23       		.uleb128 0x23
 2216 0a4e D7050000 		.4byte	.LASF129
 2217 0a52 EF0A0000 		.4byte	0xaef
 2218 0a56 05       		.uleb128 0x5
 2219 0a57 03       		.byte	0x3
 2220 0a58 00000000 		.4byte	__func__.6554
 2221 0a5c 29       		.uleb128 0x29
 2222 0a5d 70070000 		.4byte	0x770
 2223 0a61 0A000000 		.4byte	.LBB97
 2224 0a65 02000000 		.4byte	.LBE97-.LBB97
 2225 0a69 01       		.byte	0x1
 2226 0a6a 74       		.byte	0x74
 2227 0a6b 790A0000 		.4byte	0xa79
 2228 0a6f 25       		.uleb128 0x25
 2229 0a70 81070000 		.4byte	0x781
 2230 0a74 31010000 		.4byte	.LLST9
 2231 0a78 00       		.byte	0
 2232 0a79 32       		.uleb128 0x32
 2233 0a7a 30000000 		.4byte	.Ldebug_ranges0+0x30
 2234 0a7e C20A0000 		.4byte	0xac2
 2235 0a82 33       		.uleb128 0x33
 2236 0a83 747000   		.ascii	"tp\000"
 2237 0a86 01       		.byte	0x1
 2238 0a87 75       		.byte	0x75
 2239 0a88 3A020000 		.4byte	0x23a
 2240 0a8c 24       		.uleb128 0x24
 2241 0a8d A0070000 		.4byte	0x7a0
 2242 0a91 10000000 		.4byte	.LBB100
 2243 0a95 48000000 		.4byte	.Ldebug_ranges0+0x48
 2244 0a99 01       		.byte	0x1
 2245 0a9a 75       		.byte	0x75
 2246 0a9b B80A0000 		.4byte	0xab8
 2247 0a9f 25       		.uleb128 0x25
ARM GAS  C:\Users\jo\AppData\Local\Temp\cc7FYMfi.s 			page 41


 2248 0aa0 B1070000 		.4byte	0x7b1
 2249 0aa4 69010000 		.4byte	.LLST10
 2250 0aa8 2D       		.uleb128 0x2d
 2251 0aa9 48000000 		.4byte	.Ldebug_ranges0+0x48
 2252 0aad 2E       		.uleb128 0x2e
 2253 0aae BD070000 		.4byte	0x7bd
 2254 0ab2 96010000 		.4byte	.LLST11
 2255 0ab6 00       		.byte	0
 2256 0ab7 00       		.byte	0
 2257 0ab8 34       		.uleb128 0x34
 2258 0ab9 24000000 		.4byte	.LVL21
 2259 0abd 3D110000 		.4byte	0x113d
 2260 0ac1 00       		.byte	0
 2261 0ac2 2C       		.uleb128 0x2c
 2262 0ac3 08000000 		.4byte	.LVL17
 2263 0ac7 53110000 		.4byte	0x1153
 2264 0acb 26       		.uleb128 0x26
 2265 0acc 2C000000 		.4byte	.LVL23
 2266 0ad0 06110000 		.4byte	0x1106
 2267 0ad4 27       		.uleb128 0x27
 2268 0ad5 01       		.uleb128 0x1
 2269 0ad6 50       		.byte	0x50
 2270 0ad7 05       		.uleb128 0x5
 2271 0ad8 03       		.byte	0x3
 2272 0ad9 00000000 		.4byte	.LANCHOR3
 2273 0add 00       		.byte	0
 2274 0ade 00       		.byte	0
 2275 0adf 15       		.uleb128 0x15
 2276 0ae0 B2060000 		.4byte	0x6b2
 2277 0ae4 EF0A0000 		.4byte	0xaef
 2278 0ae8 16       		.uleb128 0x16
 2279 0ae9 78040000 		.4byte	0x478
 2280 0aed 0D       		.byte	0xd
 2281 0aee 00       		.byte	0
 2282 0aef 19       		.uleb128 0x19
 2283 0af0 DF0A0000 		.4byte	0xadf
 2284 0af4 21       		.uleb128 0x21
 2285 0af5 8B000000 		.4byte	.LASF134
 2286 0af9 01       		.byte	0x1
 2287 0afa 95       		.byte	0x95
 2288 0afb 00000000 		.4byte	.LFB232
 2289 0aff 34000000 		.4byte	.LFE232-.LFB232
 2290 0b03 01       		.uleb128 0x1
 2291 0b04 9C       		.byte	0x9c
 2292 0b05 990B0000 		.4byte	0xb99
 2293 0b09 22       		.uleb128 0x22
 2294 0b0a 637000   		.ascii	"cp\000"
 2295 0b0d 01       		.byte	0x1
 2296 0b0e 95       		.byte	0x95
 2297 0b0f 68080000 		.4byte	0x868
 2298 0b13 A9010000 		.4byte	.LLST12
 2299 0b17 23       		.uleb128 0x23
 2300 0b18 D7050000 		.4byte	.LASF129
 2301 0b1c 990B0000 		.4byte	0xb99
 2302 0b20 05       		.uleb128 0x5
 2303 0b21 03       		.byte	0x3
 2304 0b22 00000000 		.4byte	__func__.6562
ARM GAS  C:\Users\jo\AppData\Local\Temp\cc7FYMfi.s 			page 42


 2305 0b26 24       		.uleb128 0x24
 2306 0b27 70070000 		.4byte	0x770
 2307 0b2b 0A000000 		.4byte	.LBB105
 2308 0b2f 60000000 		.4byte	.Ldebug_ranges0+0x60
 2309 0b33 01       		.byte	0x1
 2310 0b34 9D       		.byte	0x9d
 2311 0b35 430B0000 		.4byte	0xb43
 2312 0b39 25       		.uleb128 0x25
 2313 0b3a 81070000 		.4byte	0x781
 2314 0b3e C7010000 		.4byte	.LLST13
 2315 0b42 00       		.byte	0
 2316 0b43 29       		.uleb128 0x29
 2317 0b44 A0070000 		.4byte	0x7a0
 2318 0b48 14000000 		.4byte	.LBB108
 2319 0b4c 06000000 		.4byte	.LBE108-.LBB108
 2320 0b50 01       		.byte	0x1
 2321 0b51 9E       		.byte	0x9e
 2322 0b52 730B0000 		.4byte	0xb73
 2323 0b56 25       		.uleb128 0x25
 2324 0b57 B1070000 		.4byte	0x7b1
 2325 0b5b DA010000 		.4byte	.LLST14
 2326 0b5f 2F       		.uleb128 0x2f
 2327 0b60 14000000 		.4byte	.LBB109
 2328 0b64 06000000 		.4byte	.LBE109-.LBB109
 2329 0b68 2E       		.uleb128 0x2e
 2330 0b69 BD070000 		.4byte	0x7bd
 2331 0b6d ED010000 		.4byte	.LLST15
 2332 0b71 00       		.byte	0
 2333 0b72 00       		.byte	0
 2334 0b73 2C       		.uleb128 0x2c
 2335 0b74 08000000 		.4byte	.LVL25
 2336 0b78 53110000 		.4byte	0x1153
 2337 0b7c 2C       		.uleb128 0x2c
 2338 0b7d 1E000000 		.4byte	.LVL28
 2339 0b81 3D110000 		.4byte	0x113d
 2340 0b85 26       		.uleb128 0x26
 2341 0b86 2E000000 		.4byte	.LVL31
 2342 0b8a 06110000 		.4byte	0x1106
 2343 0b8e 27       		.uleb128 0x27
 2344 0b8f 01       		.uleb128 0x1
 2345 0b90 50       		.byte	0x50
 2346 0b91 05       		.uleb128 0x5
 2347 0b92 03       		.byte	0x3
 2348 0b93 00000000 		.4byte	.LANCHOR4
 2349 0b97 00       		.byte	0
 2350 0b98 00       		.byte	0
 2351 0b99 19       		.uleb128 0x19
 2352 0b9a 6E080000 		.4byte	0x86e
 2353 0b9e 21       		.uleb128 0x21
 2354 0b9f 28050000 		.4byte	.LASF135
 2355 0ba3 01       		.byte	0x1
 2356 0ba4 82       		.byte	0x82
 2357 0ba5 00000000 		.4byte	.LFB231
 2358 0ba9 44000000 		.4byte	.LFE231-.LFB231
 2359 0bad 01       		.uleb128 0x1
 2360 0bae 9C       		.byte	0x9c
 2361 0baf 990C0000 		.4byte	0xc99
ARM GAS  C:\Users\jo\AppData\Local\Temp\cc7FYMfi.s 			page 43


 2362 0bb3 22       		.uleb128 0x22
 2363 0bb4 637000   		.ascii	"cp\000"
 2364 0bb7 01       		.byte	0x1
 2365 0bb8 82       		.byte	0x82
 2366 0bb9 68080000 		.4byte	0x868
 2367 0bbd 00020000 		.4byte	.LLST16
 2368 0bc1 24       		.uleb128 0x24
 2369 0bc2 67070000 		.4byte	0x767
 2370 0bc6 02000000 		.4byte	.LBB121
 2371 0bca 78000000 		.4byte	.Ldebug_ranges0+0x78
 2372 0bce 01       		.byte	0x1
 2373 0bcf 84       		.byte	0x84
 2374 0bd0 0A0C0000 		.4byte	0xc0a
 2375 0bd4 35       		.uleb128 0x35
 2376 0bd5 35070000 		.4byte	0x735
 2377 0bd9 02000000 		.4byte	.LBB123
 2378 0bdd 90000000 		.4byte	.Ldebug_ranges0+0x90
 2379 0be1 04       		.byte	0x4
 2380 0be2 5C01     		.2byte	0x15c
 2381 0be4 000C0000 		.4byte	0xc00
 2382 0be8 36       		.uleb128 0x36
 2383 0be9 0F070000 		.4byte	0x70f
 2384 0bed 02000000 		.4byte	.LBB124
 2385 0bf1 90000000 		.4byte	.Ldebug_ranges0+0x90
 2386 0bf5 0B       		.byte	0xb
 2387 0bf6 BF01     		.2byte	0x1bf
 2388 0bf8 37       		.uleb128 0x37
 2389 0bf9 1C070000 		.4byte	0x71c
 2390 0bfd 20       		.byte	0x20
 2391 0bfe 00       		.byte	0
 2392 0bff 00       		.byte	0
 2393 0c00 2C       		.uleb128 0x2c
 2394 0c01 0E000000 		.4byte	.LVL33
 2395 0c05 18110000 		.4byte	0x1118
 2396 0c09 00       		.byte	0
 2397 0c0a 29       		.uleb128 0x29
 2398 0c0b 83080000 		.4byte	0x883
 2399 0c0f 18000000 		.4byte	.LBB131
 2400 0c13 2C000000 		.4byte	.LBE131-.LBB131
 2401 0c17 01       		.byte	0x1
 2402 0c18 87       		.byte	0x87
 2403 0c19 7B0C0000 		.4byte	0xc7b
 2404 0c1d 2F       		.uleb128 0x2f
 2405 0c1e 18000000 		.4byte	.LBB132
 2406 0c22 2C000000 		.4byte	.LBE132-.LBB132
 2407 0c26 30       		.uleb128 0x30
 2408 0c27 90080000 		.4byte	0x890
 2409 0c2b 05       		.uleb128 0x5
 2410 0c2c 03       		.byte	0x3
 2411 0c2d 00000000 		.4byte	__func__.5854
 2412 0c31 2A       		.uleb128 0x2a
 2413 0c32 3E070000 		.4byte	0x73e
 2414 0c36 34000000 		.4byte	.LBB133
 2415 0c3a 10000000 		.4byte	.LBE133-.LBB133
 2416 0c3e 04       		.byte	0x4
 2417 0c3f 7301     		.2byte	0x173
 2418 0c41 5D0C0000 		.4byte	0xc5d
ARM GAS  C:\Users\jo\AppData\Local\Temp\cc7FYMfi.s 			page 44


 2419 0c45 2B       		.uleb128 0x2b
 2420 0c46 0F070000 		.4byte	0x70f
 2421 0c4a 34000000 		.4byte	.LBB134
 2422 0c4e 10000000 		.4byte	.LBE134-.LBB134
 2423 0c52 0B       		.byte	0xb
 2424 0c53 CD01     		.2byte	0x1cd
 2425 0c55 37       		.uleb128 0x37
 2426 0c56 1C070000 		.4byte	0x71c
 2427 0c5a 00       		.byte	0
 2428 0c5b 00       		.byte	0
 2429 0c5c 00       		.byte	0
 2430 0c5d 2C       		.uleb128 0x2c
 2431 0c5e 1C000000 		.4byte	.LVL36
 2432 0c62 1F110000 		.4byte	0x111f
 2433 0c66 26       		.uleb128 0x26
 2434 0c67 34000000 		.4byte	.LVL37
 2435 0c6b 06110000 		.4byte	0x1106
 2436 0c6f 27       		.uleb128 0x27
 2437 0c70 01       		.uleb128 0x1
 2438 0c71 50       		.byte	0x50
 2439 0c72 05       		.uleb128 0x5
 2440 0c73 03       		.byte	0x3
 2441 0c74 00000000 		.4byte	.LANCHOR2
 2442 0c78 00       		.byte	0
 2443 0c79 00       		.byte	0
 2444 0c7a 00       		.byte	0
 2445 0c7b 31       		.uleb128 0x31
 2446 0c7c 14000000 		.4byte	.LVL34
 2447 0c80 F40A0000 		.4byte	0xaf4
 2448 0c84 8F0C0000 		.4byte	0xc8f
 2449 0c88 27       		.uleb128 0x27
 2450 0c89 01       		.uleb128 0x1
 2451 0c8a 50       		.byte	0x50
 2452 0c8b 02       		.uleb128 0x2
 2453 0c8c 74       		.byte	0x74
 2454 0c8d 00       		.sleb128 0
 2455 0c8e 00       		.byte	0
 2456 0c8f 2C       		.uleb128 0x2c
 2457 0c90 18000000 		.4byte	.LVL35
 2458 0c94 5A110000 		.4byte	0x115a
 2459 0c98 00       		.byte	0
 2460 0c99 38       		.uleb128 0x38
 2461 0c9a 87060000 		.4byte	.LASF136
 2462 0c9e 01       		.byte	0x1
 2463 0c9f CD       		.byte	0xcd
 2464 0ca0 FF000000 		.4byte	0xff
 2465 0ca4 00000000 		.4byte	.LFB234
 2466 0ca8 64000000 		.4byte	.LFE234-.LFB234
 2467 0cac 01       		.uleb128 0x1
 2468 0cad 9C       		.byte	0x9c
 2469 0cae AA0D0000 		.4byte	0xdaa
 2470 0cb2 22       		.uleb128 0x22
 2471 0cb3 637000   		.ascii	"cp\000"
 2472 0cb6 01       		.byte	0x1
 2473 0cb7 CD       		.byte	0xcd
 2474 0cb8 68080000 		.4byte	0x868
 2475 0cbc 2C020000 		.4byte	.LLST17
ARM GAS  C:\Users\jo\AppData\Local\Temp\cc7FYMfi.s 			page 45


 2476 0cc0 39       		.uleb128 0x39
 2477 0cc1 63747000 		.ascii	"ctp\000"
 2478 0cc5 01       		.byte	0x1
 2479 0cc6 CE       		.byte	0xce
 2480 0cc7 3A020000 		.4byte	0x23a
 2481 0ccb 4A020000 		.4byte	.LLST18
 2482 0ccf 33       		.uleb128 0x33
 2483 0cd0 6D7000   		.ascii	"mp\000"
 2484 0cd3 01       		.byte	0x1
 2485 0cd4 CF       		.byte	0xcf
 2486 0cd5 E5060000 		.4byte	0x6e5
 2487 0cd9 39       		.uleb128 0x39
 2488 0cda 6D736700 		.ascii	"msg\000"
 2489 0cde 01       		.byte	0x1
 2490 0cdf D0       		.byte	0xd0
 2491 0ce0 FF000000 		.4byte	0xff
 2492 0ce4 68020000 		.4byte	.LLST19
 2493 0ce8 23       		.uleb128 0x23
 2494 0ce9 D7050000 		.4byte	.LASF129
 2495 0ced AA0D0000 		.4byte	0xdaa
 2496 0cf1 05       		.uleb128 0x5
 2497 0cf2 03       		.byte	0x3
 2498 0cf3 00000000 		.4byte	__func__.6576
 2499 0cf7 3A       		.uleb128 0x3a
 2500 0cf8 C9070000 		.4byte	0x7c9
 2501 0cfc 12000000 		.4byte	.LBB136
 2502 0d00 04000000 		.4byte	.LBE136-.LBB136
 2503 0d04 01       		.byte	0x1
 2504 0d05 D7       		.byte	0xd7
 2505 0d06 24       		.uleb128 0x24
 2506 0d07 D5070000 		.4byte	0x7d5
 2507 0d0b 1E000000 		.4byte	.LBB138
 2508 0d0f A8000000 		.4byte	.Ldebug_ranges0+0xa8
 2509 0d13 01       		.byte	0x1
 2510 0d14 DD       		.byte	0xdd
 2511 0d15 3B0D0000 		.4byte	0xd3b
 2512 0d19 25       		.uleb128 0x25
 2513 0d1a ED070000 		.4byte	0x7ed
 2514 0d1e 7B020000 		.4byte	.LLST20
 2515 0d22 25       		.uleb128 0x25
 2516 0d23 E2070000 		.4byte	0x7e2
 2517 0d27 9A020000 		.4byte	.LLST21
 2518 0d2b 2D       		.uleb128 0x2d
 2519 0d2c A8000000 		.4byte	.Ldebug_ranges0+0xa8
 2520 0d30 2E       		.uleb128 0x2e
 2521 0d31 F9070000 		.4byte	0x7f9
 2522 0d35 AD020000 		.4byte	.LLST22
 2523 0d39 00       		.byte	0
 2524 0d3a 00       		.byte	0
 2525 0d3b 2C       		.uleb128 0x2c
 2526 0d3c 0C000000 		.4byte	.LVL41
 2527 0d40 62110000 		.4byte	0x1162
 2528 0d44 31       		.uleb128 0x31
 2529 0d45 1C000000 		.4byte	.LVL42
 2530 0d49 69110000 		.4byte	0x1169
 2531 0d4d 580D0000 		.4byte	0xd58
 2532 0d51 27       		.uleb128 0x27
ARM GAS  C:\Users\jo\AppData\Local\Temp\cc7FYMfi.s 			page 46


 2533 0d52 01       		.uleb128 0x1
 2534 0d53 50       		.byte	0x50
 2535 0d54 02       		.uleb128 0x2
 2536 0d55 76       		.byte	0x76
 2537 0d56 00       		.sleb128 0
 2538 0d57 00       		.byte	0
 2539 0d58 31       		.uleb128 0x31
 2540 0d59 40000000 		.4byte	.LVL46
 2541 0d5d 7A110000 		.4byte	0x117a
 2542 0d61 6B0D0000 		.4byte	0xd6b
 2543 0d65 27       		.uleb128 0x27
 2544 0d66 01       		.uleb128 0x1
 2545 0d67 50       		.byte	0x50
 2546 0d68 01       		.uleb128 0x1
 2547 0d69 37       		.byte	0x37
 2548 0d6a 00       		.byte	0
 2549 0d6b 31       		.uleb128 0x31
 2550 0d6c 48000000 		.4byte	.LVL48
 2551 0d70 8C110000 		.4byte	0x118c
 2552 0d74 7F0D0000 		.4byte	0xd7f
 2553 0d78 27       		.uleb128 0x27
 2554 0d79 01       		.uleb128 0x1
 2555 0d7a 50       		.byte	0x50
 2556 0d7b 02       		.uleb128 0x2
 2557 0d7c 76       		.byte	0x76
 2558 0d7d 00       		.sleb128 0
 2559 0d7e 00       		.byte	0
 2560 0d7f 31       		.uleb128 0x31
 2561 0d80 52000000 		.4byte	.LVL50
 2562 0d84 06110000 		.4byte	0x1106
 2563 0d88 960D0000 		.4byte	0xd96
 2564 0d8c 27       		.uleb128 0x27
 2565 0d8d 01       		.uleb128 0x1
 2566 0d8e 50       		.byte	0x50
 2567 0d8f 05       		.uleb128 0x5
 2568 0d90 03       		.byte	0x3
 2569 0d91 00000000 		.4byte	.LANCHOR5
 2570 0d95 00       		.byte	0
 2571 0d96 26       		.uleb128 0x26
 2572 0d97 5A000000 		.4byte	.LVL51
 2573 0d9b 06110000 		.4byte	0x1106
 2574 0d9f 27       		.uleb128 0x27
 2575 0da0 01       		.uleb128 0x1
 2576 0da1 50       		.byte	0x50
 2577 0da2 05       		.uleb128 0x5
 2578 0da3 03       		.byte	0x3
 2579 0da4 00000000 		.4byte	.LANCHOR5
 2580 0da8 00       		.byte	0
 2581 0da9 00       		.byte	0
 2582 0daa 19       		.uleb128 0x19
 2583 0dab 9E080000 		.4byte	0x89e
 2584 0daf 38       		.uleb128 0x38
 2585 0db0 0E070000 		.4byte	.LASF137
 2586 0db4 01       		.byte	0x1
 2587 0db5 B3       		.byte	0xb3
 2588 0db6 FF000000 		.4byte	0xff
 2589 0dba 00000000 		.4byte	.LFB233
ARM GAS  C:\Users\jo\AppData\Local\Temp\cc7FYMfi.s 			page 47


 2590 0dbe 44000000 		.4byte	.LFE233-.LFB233
 2591 0dc2 01       		.uleb128 0x1
 2592 0dc3 9C       		.byte	0x9c
 2593 0dc4 B00E0000 		.4byte	0xeb0
 2594 0dc8 22       		.uleb128 0x22
 2595 0dc9 637000   		.ascii	"cp\000"
 2596 0dcc 01       		.byte	0x1
 2597 0dcd B3       		.byte	0xb3
 2598 0dce 68080000 		.4byte	0x868
 2599 0dd2 CC020000 		.4byte	.LLST23
 2600 0dd6 39       		.uleb128 0x39
 2601 0dd7 6D736700 		.ascii	"msg\000"
 2602 0ddb 01       		.byte	0x1
 2603 0ddc B4       		.byte	0xb4
 2604 0ddd FF000000 		.4byte	0xff
 2605 0de1 F8020000 		.4byte	.LLST24
 2606 0de5 24       		.uleb128 0x24
 2607 0de6 67070000 		.4byte	0x767
 2608 0dea 02000000 		.4byte	.LBB152
 2609 0dee C0000000 		.4byte	.Ldebug_ranges0+0xc0
 2610 0df2 01       		.byte	0x1
 2611 0df3 B6       		.byte	0xb6
 2612 0df4 2E0E0000 		.4byte	0xe2e
 2613 0df8 35       		.uleb128 0x35
 2614 0df9 35070000 		.4byte	0x735
 2615 0dfd 02000000 		.4byte	.LBB154
 2616 0e01 D8000000 		.4byte	.Ldebug_ranges0+0xd8
 2617 0e05 04       		.byte	0x4
 2618 0e06 5C01     		.2byte	0x15c
 2619 0e08 240E0000 		.4byte	0xe24
 2620 0e0c 36       		.uleb128 0x36
 2621 0e0d 0F070000 		.4byte	0x70f
 2622 0e11 02000000 		.4byte	.LBB155
 2623 0e15 D8000000 		.4byte	.Ldebug_ranges0+0xd8
 2624 0e19 0B       		.byte	0xb
 2625 0e1a BF01     		.2byte	0x1bf
 2626 0e1c 37       		.uleb128 0x37
 2627 0e1d 1C070000 		.4byte	0x71c
 2628 0e21 20       		.byte	0x20
 2629 0e22 00       		.byte	0
 2630 0e23 00       		.byte	0
 2631 0e24 2C       		.uleb128 0x2c
 2632 0e25 0E000000 		.4byte	.LVL53
 2633 0e29 18110000 		.4byte	0x1118
 2634 0e2d 00       		.byte	0
 2635 0e2e 29       		.uleb128 0x29
 2636 0e2f 83080000 		.4byte	0x883
 2637 0e33 16000000 		.4byte	.LBB162
 2638 0e37 22000000 		.4byte	.LBE162-.LBB162
 2639 0e3b 01       		.byte	0x1
 2640 0e3c B8       		.byte	0xb8
 2641 0e3d 9F0E0000 		.4byte	0xe9f
 2642 0e41 2F       		.uleb128 0x2f
 2643 0e42 16000000 		.4byte	.LBB163
 2644 0e46 22000000 		.4byte	.LBE163-.LBB163
 2645 0e4a 30       		.uleb128 0x30
 2646 0e4b 90080000 		.4byte	0x890
ARM GAS  C:\Users\jo\AppData\Local\Temp\cc7FYMfi.s 			page 48


 2647 0e4f 05       		.uleb128 0x5
 2648 0e50 03       		.byte	0x3
 2649 0e51 00000000 		.4byte	__func__.5854
 2650 0e55 2A       		.uleb128 0x2a
 2651 0e56 3E070000 		.4byte	0x73e
 2652 0e5a 32000000 		.4byte	.LBB164
 2653 0e5e 06000000 		.4byte	.LBE164-.LBB164
 2654 0e62 04       		.byte	0x4
 2655 0e63 7301     		.2byte	0x173
 2656 0e65 810E0000 		.4byte	0xe81
 2657 0e69 2B       		.uleb128 0x2b
 2658 0e6a 0F070000 		.4byte	0x70f
 2659 0e6e 32000000 		.4byte	.LBB165
 2660 0e72 06000000 		.4byte	.LBE165-.LBB165
 2661 0e76 0B       		.byte	0xb
 2662 0e77 CD01     		.2byte	0x1cd
 2663 0e79 37       		.uleb128 0x37
 2664 0e7a 1C070000 		.4byte	0x71c
 2665 0e7e 00       		.byte	0
 2666 0e7f 00       		.byte	0
 2667 0e80 00       		.byte	0
 2668 0e81 2C       		.uleb128 0x2c
 2669 0e82 1A000000 		.4byte	.LVL56
 2670 0e86 1F110000 		.4byte	0x111f
 2671 0e8a 26       		.uleb128 0x26
 2672 0e8b 32000000 		.4byte	.LVL57
 2673 0e8f 06110000 		.4byte	0x1106
 2674 0e93 27       		.uleb128 0x27
 2675 0e94 01       		.uleb128 0x1
 2676 0e95 50       		.byte	0x50
 2677 0e96 05       		.uleb128 0x5
 2678 0e97 03       		.byte	0x3
 2679 0e98 00000000 		.4byte	.LANCHOR2
 2680 0e9c 00       		.byte	0
 2681 0e9d 00       		.byte	0
 2682 0e9e 00       		.byte	0
 2683 0e9f 26       		.uleb128 0x26
 2684 0ea0 14000000 		.4byte	.LVL54
 2685 0ea4 990C0000 		.4byte	0xc99
 2686 0ea8 27       		.uleb128 0x27
 2687 0ea9 01       		.uleb128 0x1
 2688 0eaa 50       		.byte	0x50
 2689 0eab 02       		.uleb128 0x2
 2690 0eac 74       		.byte	0x74
 2691 0ead 00       		.sleb128 0
 2692 0eae 00       		.byte	0
 2693 0eaf 00       		.byte	0
 2694 0eb0 3B       		.uleb128 0x3b
 2695 0eb1 B9040000 		.4byte	.LASF138
 2696 0eb5 01       		.byte	0x1
 2697 0eb6 2801     		.2byte	0x128
 2698 0eb8 FF000000 		.4byte	0xff
 2699 0ebc 00000000 		.4byte	.LFB236
 2700 0ec0 70000000 		.4byte	.LFE236-.LFB236
 2701 0ec4 01       		.uleb128 0x1
 2702 0ec5 9C       		.byte	0x9c
 2703 0ec6 BE0F0000 		.4byte	0xfbe
ARM GAS  C:\Users\jo\AppData\Local\Temp\cc7FYMfi.s 			page 49


 2704 0eca 3C       		.uleb128 0x3c
 2705 0ecb 637000   		.ascii	"cp\000"
 2706 0ece 01       		.byte	0x1
 2707 0ecf 2801     		.2byte	0x128
 2708 0ed1 68080000 		.4byte	0x868
 2709 0ed5 21030000 		.4byte	.LLST25
 2710 0ed9 3D       		.uleb128 0x3d
 2711 0eda 11050000 		.4byte	.LASF139
 2712 0ede 01       		.byte	0x1
 2713 0edf 2801     		.2byte	0x128
 2714 0ee1 20010000 		.4byte	0x120
 2715 0ee5 3F030000 		.4byte	.LLST26
 2716 0ee9 20       		.uleb128 0x20
 2717 0eea 6D7000   		.ascii	"mp\000"
 2718 0eed 01       		.byte	0x1
 2719 0eee 2901     		.2byte	0x129
 2720 0ef0 E5060000 		.4byte	0x6e5
 2721 0ef4 3E       		.uleb128 0x3e
 2722 0ef5 6D736700 		.ascii	"msg\000"
 2723 0ef9 01       		.byte	0x1
 2724 0efa 2A01     		.2byte	0x12a
 2725 0efc FF000000 		.4byte	0xff
 2726 0f00 5D030000 		.4byte	.LLST27
 2727 0f04 23       		.uleb128 0x23
 2728 0f05 D7050000 		.4byte	.LASF129
 2729 0f09 CE0F0000 		.4byte	0xfce
 2730 0f0d 05       		.uleb128 0x5
 2731 0f0e 03       		.byte	0x3
 2732 0f0f 00000000 		.4byte	__func__.6588
 2733 0f13 35       		.uleb128 0x35
 2734 0f14 D5070000 		.4byte	0x7d5
 2735 0f18 1E000000 		.4byte	.LBB167
 2736 0f1c F0000000 		.4byte	.Ldebug_ranges0+0xf0
 2737 0f20 01       		.byte	0x1
 2738 0f21 3701     		.2byte	0x137
 2739 0f23 490F0000 		.4byte	0xf49
 2740 0f27 25       		.uleb128 0x25
 2741 0f28 ED070000 		.4byte	0x7ed
 2742 0f2c 7B030000 		.4byte	.LLST28
 2743 0f30 25       		.uleb128 0x25
 2744 0f31 E2070000 		.4byte	0x7e2
 2745 0f35 99030000 		.4byte	.LLST29
 2746 0f39 2D       		.uleb128 0x2d
 2747 0f3a F0000000 		.4byte	.Ldebug_ranges0+0xf0
 2748 0f3e 2E       		.uleb128 0x2e
 2749 0f3f F9070000 		.4byte	0x7f9
 2750 0f43 AC030000 		.4byte	.LLST30
 2751 0f47 00       		.byte	0
 2752 0f48 00       		.byte	0
 2753 0f49 2C       		.uleb128 0x2c
 2754 0f4a 0A000000 		.4byte	.LVL60
 2755 0f4e 62110000 		.4byte	0x1162
 2756 0f52 31       		.uleb128 0x31
 2757 0f53 1C000000 		.4byte	.LVL61
 2758 0f57 69110000 		.4byte	0x1169
 2759 0f5b 660F0000 		.4byte	0xf66
 2760 0f5f 27       		.uleb128 0x27
ARM GAS  C:\Users\jo\AppData\Local\Temp\cc7FYMfi.s 			page 50


 2761 0f60 01       		.uleb128 0x1
 2762 0f61 50       		.byte	0x50
 2763 0f62 02       		.uleb128 0x2
 2764 0f63 76       		.byte	0x76
 2765 0f64 00       		.sleb128 0
 2766 0f65 00       		.byte	0
 2767 0f66 31       		.uleb128 0x31
 2768 0f67 44000000 		.4byte	.LVL65
 2769 0f6b 9D110000 		.4byte	0x119d
 2770 0f6f 7F0F0000 		.4byte	0xf7f
 2771 0f73 27       		.uleb128 0x27
 2772 0f74 01       		.uleb128 0x1
 2773 0f75 51       		.byte	0x51
 2774 0f76 02       		.uleb128 0x2
 2775 0f77 77       		.byte	0x77
 2776 0f78 00       		.sleb128 0
 2777 0f79 27       		.uleb128 0x27
 2778 0f7a 01       		.uleb128 0x1
 2779 0f7b 50       		.byte	0x50
 2780 0f7c 01       		.uleb128 0x1
 2781 0f7d 37       		.byte	0x37
 2782 0f7e 00       		.byte	0
 2783 0f7f 31       		.uleb128 0x31
 2784 0f80 50000000 		.4byte	.LVL68
 2785 0f84 8C110000 		.4byte	0x118c
 2786 0f88 930F0000 		.4byte	0xf93
 2787 0f8c 27       		.uleb128 0x27
 2788 0f8d 01       		.uleb128 0x1
 2789 0f8e 50       		.byte	0x50
 2790 0f8f 02       		.uleb128 0x2
 2791 0f90 76       		.byte	0x76
 2792 0f91 00       		.sleb128 0
 2793 0f92 00       		.byte	0
 2794 0f93 31       		.uleb128 0x31
 2795 0f94 5A000000 		.4byte	.LVL70
 2796 0f98 06110000 		.4byte	0x1106
 2797 0f9c AA0F0000 		.4byte	0xfaa
 2798 0fa0 27       		.uleb128 0x27
 2799 0fa1 01       		.uleb128 0x1
 2800 0fa2 50       		.byte	0x50
 2801 0fa3 05       		.uleb128 0x5
 2802 0fa4 03       		.byte	0x3
 2803 0fa5 00000000 		.4byte	.LANCHOR6
 2804 0fa9 00       		.byte	0
 2805 0faa 26       		.uleb128 0x26
 2806 0fab 62000000 		.4byte	.LVL71
 2807 0faf 06110000 		.4byte	0x1106
 2808 0fb3 27       		.uleb128 0x27
 2809 0fb4 01       		.uleb128 0x1
 2810 0fb5 50       		.byte	0x50
 2811 0fb6 05       		.uleb128 0x5
 2812 0fb7 03       		.byte	0x3
 2813 0fb8 00000000 		.4byte	.LANCHOR6
 2814 0fbc 00       		.byte	0
 2815 0fbd 00       		.byte	0
 2816 0fbe 15       		.uleb128 0x15
 2817 0fbf B2060000 		.4byte	0x6b2
ARM GAS  C:\Users\jo\AppData\Local\Temp\cc7FYMfi.s 			page 51


 2818 0fc3 CE0F0000 		.4byte	0xfce
 2819 0fc7 16       		.uleb128 0x16
 2820 0fc8 78040000 		.4byte	0x478
 2821 0fcc 12       		.byte	0x12
 2822 0fcd 00       		.byte	0
 2823 0fce 19       		.uleb128 0x19
 2824 0fcf BE0F0000 		.4byte	0xfbe
 2825 0fd3 3B       		.uleb128 0x3b
 2826 0fd4 8D070000 		.4byte	.LASF140
 2827 0fd8 01       		.byte	0x1
 2828 0fd9 0201     		.2byte	0x102
 2829 0fdb FF000000 		.4byte	0xff
 2830 0fdf 00000000 		.4byte	.LFB235
 2831 0fe3 48000000 		.4byte	.LFE235-.LFB235
 2832 0fe7 01       		.uleb128 0x1
 2833 0fe8 9C       		.byte	0x9c
 2834 0fe9 EF100000 		.4byte	0x10ef
 2835 0fed 3C       		.uleb128 0x3c
 2836 0fee 637000   		.ascii	"cp\000"
 2837 0ff1 01       		.byte	0x1
 2838 0ff2 0201     		.2byte	0x102
 2839 0ff4 68080000 		.4byte	0x868
 2840 0ff8 BF030000 		.4byte	.LLST31
 2841 0ffc 3D       		.uleb128 0x3d
 2842 0ffd 11050000 		.4byte	.LASF139
 2843 1001 01       		.byte	0x1
 2844 1002 0201     		.2byte	0x102
 2845 1004 20010000 		.4byte	0x120
 2846 1008 EB030000 		.4byte	.LLST32
 2847 100c 3E       		.uleb128 0x3e
 2848 100d 6D736700 		.ascii	"msg\000"
 2849 1011 01       		.byte	0x1
 2850 1012 0301     		.2byte	0x103
 2851 1014 FF000000 		.4byte	0xff
 2852 1018 17040000 		.4byte	.LLST33
 2853 101c 2A       		.uleb128 0x2a
 2854 101d 67070000 		.4byte	0x767
 2855 1021 06000000 		.4byte	.LBB185
 2856 1025 0A000000 		.4byte	.LBE185-.LBB185
 2857 1029 01       		.byte	0x1
 2858 102a 0501     		.2byte	0x105
 2859 102c 66100000 		.4byte	0x1066
 2860 1030 2A       		.uleb128 0x2a
 2861 1031 35070000 		.4byte	0x735
 2862 1035 06000000 		.4byte	.LBB187
 2863 1039 06000000 		.4byte	.LBE187-.LBB187
 2864 103d 04       		.byte	0x4
 2865 103e 5C01     		.2byte	0x15c
 2866 1040 5C100000 		.4byte	0x105c
 2867 1044 2B       		.uleb128 0x2b
 2868 1045 0F070000 		.4byte	0x70f
 2869 1049 06000000 		.4byte	.LBB188
 2870 104d 06000000 		.4byte	.LBE188-.LBB188
 2871 1051 0B       		.byte	0xb
 2872 1052 BF01     		.2byte	0x1bf
 2873 1054 37       		.uleb128 0x37
 2874 1055 1C070000 		.4byte	0x71c
ARM GAS  C:\Users\jo\AppData\Local\Temp\cc7FYMfi.s 			page 52


 2875 1059 20       		.byte	0x20
 2876 105a 00       		.byte	0
 2877 105b 00       		.byte	0
 2878 105c 2C       		.uleb128 0x2c
 2879 105d 10000000 		.4byte	.LVL73
 2880 1061 18110000 		.4byte	0x1118
 2881 1065 00       		.byte	0
 2882 1066 2A       		.uleb128 0x2a
 2883 1067 83080000 		.4byte	0x883
 2884 106b 1A000000 		.4byte	.LBB190
 2885 106f 22000000 		.4byte	.LBE190-.LBB190
 2886 1073 01       		.byte	0x1
 2887 1074 0701     		.2byte	0x107
 2888 1076 D8100000 		.4byte	0x10d8
 2889 107a 2F       		.uleb128 0x2f
 2890 107b 1A000000 		.4byte	.LBB191
 2891 107f 22000000 		.4byte	.LBE191-.LBB191
 2892 1083 30       		.uleb128 0x30
 2893 1084 90080000 		.4byte	0x890
 2894 1088 05       		.uleb128 0x5
 2895 1089 03       		.byte	0x3
 2896 108a 00000000 		.4byte	__func__.5854
 2897 108e 2A       		.uleb128 0x2a
 2898 108f 3E070000 		.4byte	0x73e
 2899 1093 36000000 		.4byte	.LBB192
 2900 1097 06000000 		.4byte	.LBE192-.LBB192
 2901 109b 04       		.byte	0x4
 2902 109c 7301     		.2byte	0x173
 2903 109e BA100000 		.4byte	0x10ba
 2904 10a2 2B       		.uleb128 0x2b
 2905 10a3 0F070000 		.4byte	0x70f
 2906 10a7 36000000 		.4byte	.LBB193
 2907 10ab 06000000 		.4byte	.LBE193-.LBB193
 2908 10af 0B       		.byte	0xb
 2909 10b0 CD01     		.2byte	0x1cd
 2910 10b2 37       		.uleb128 0x37
 2911 10b3 1C070000 		.4byte	0x71c
 2912 10b7 00       		.byte	0
 2913 10b8 00       		.byte	0
 2914 10b9 00       		.byte	0
 2915 10ba 2C       		.uleb128 0x2c
 2916 10bb 1E000000 		.4byte	.LVL76
 2917 10bf 1F110000 		.4byte	0x111f
 2918 10c3 26       		.uleb128 0x26
 2919 10c4 36000000 		.4byte	.LVL77
 2920 10c8 06110000 		.4byte	0x1106
 2921 10cc 27       		.uleb128 0x27
 2922 10cd 01       		.uleb128 0x1
 2923 10ce 50       		.byte	0x50
 2924 10cf 05       		.uleb128 0x5
 2925 10d0 03       		.byte	0x3
 2926 10d1 00000000 		.4byte	.LANCHOR2
 2927 10d5 00       		.byte	0
 2928 10d6 00       		.byte	0
 2929 10d7 00       		.byte	0
 2930 10d8 26       		.uleb128 0x26
 2931 10d9 18000000 		.4byte	.LVL74
ARM GAS  C:\Users\jo\AppData\Local\Temp\cc7FYMfi.s 			page 53


 2932 10dd B00E0000 		.4byte	0xeb0
 2933 10e1 27       		.uleb128 0x27
 2934 10e2 01       		.uleb128 0x1
 2935 10e3 51       		.byte	0x51
 2936 10e4 02       		.uleb128 0x2
 2937 10e5 74       		.byte	0x74
 2938 10e6 00       		.sleb128 0
 2939 10e7 27       		.uleb128 0x27
 2940 10e8 01       		.uleb128 0x1
 2941 10e9 50       		.byte	0x50
 2942 10ea 02       		.uleb128 0x2
 2943 10eb 75       		.byte	0x75
 2944 10ec 00       		.sleb128 0
 2945 10ed 00       		.byte	0
 2946 10ee 00       		.byte	0
 2947 10ef 3F       		.uleb128 0x3f
 2948 10f0 F8000000 		.4byte	.LASF141
 2949 10f4 11       		.byte	0x11
 2950 10f5 A706     		.2byte	0x6a7
 2951 10f7 C3000000 		.4byte	0xc3
 2952 10fb 40       		.uleb128 0x40
 2953 10fc 636800   		.ascii	"ch\000"
 2954 10ff 02       		.byte	0x2
 2955 1100 0902     		.2byte	0x209
 2956 1102 0E040000 		.4byte	0x40e
 2957 1106 41       		.uleb128 0x41
 2958 1107 81000000 		.4byte	.LASF144
 2959 110b 04       		.byte	0x4
 2960 110c 1601     		.2byte	0x116
 2961 110e 18110000 		.4byte	0x1118
 2962 1112 0D       		.uleb128 0xd
 2963 1113 A7060000 		.4byte	0x6a7
 2964 1117 00       		.byte	0
 2965 1118 42       		.uleb128 0x42
 2966 1119 7F040000 		.4byte	.LASF142
 2967 111d 0C       		.byte	0xc
 2968 111e D8       		.byte	0xd8
 2969 111f 42       		.uleb128 0x42
 2970 1120 6D070000 		.4byte	.LASF143
 2971 1124 0C       		.byte	0xc
 2972 1125 D9       		.byte	0xd9
 2973 1126 41       		.uleb128 0x41
 2974 1127 07030000 		.4byte	.LASF145
 2975 112b 02       		.byte	0x2
 2976 112c 1602     		.2byte	0x216
 2977 112e 3D110000 		.4byte	0x113d
 2978 1132 0D       		.uleb128 0xd
 2979 1133 3A020000 		.4byte	0x23a
 2980 1137 0D       		.uleb128 0xd
 2981 1138 FF000000 		.4byte	0xff
 2982 113c 00       		.byte	0
 2983 113d 43       		.uleb128 0x43
 2984 113e 54060000 		.4byte	.LASF156
 2985 1142 02       		.byte	0x2
 2986 1143 1302     		.2byte	0x213
 2987 1145 3A020000 		.4byte	0x23a
 2988 1149 53110000 		.4byte	0x1153
ARM GAS  C:\Users\jo\AppData\Local\Temp\cc7FYMfi.s 			page 54


 2989 114d 0D       		.uleb128 0xd
 2990 114e 3A020000 		.4byte	0x23a
 2991 1152 00       		.byte	0
 2992 1153 42       		.uleb128 0x42
 2993 1154 1A030000 		.4byte	.LASF146
 2994 1158 0C       		.byte	0xc
 2995 1159 DE       		.byte	0xde
 2996 115a 44       		.uleb128 0x44
 2997 115b 25020000 		.4byte	.LASF147
 2998 115f 02       		.byte	0x2
 2999 1160 1702     		.2byte	0x217
 3000 1162 42       		.uleb128 0x42
 3001 1163 3F030000 		.4byte	.LASF148
 3002 1167 0C       		.byte	0xc
 3003 1168 DF       		.byte	0xdf
 3004 1169 45       		.uleb128 0x45
 3005 116a A0020000 		.4byte	.LASF149
 3006 116e 05       		.byte	0x5
 3007 116f 6D       		.byte	0x6d
 3008 1170 7A110000 		.4byte	0x117a
 3009 1174 0D       		.uleb128 0xd
 3010 1175 E5060000 		.4byte	0x6e5
 3011 1179 00       		.byte	0
 3012 117a 41       		.uleb128 0x41
 3013 117b 10060000 		.4byte	.LASF150
 3014 117f 02       		.byte	0x2
 3015 1180 1402     		.2byte	0x214
 3016 1182 8C110000 		.4byte	0x118c
 3017 1186 0D       		.uleb128 0xd
 3018 1187 DE000000 		.4byte	0xde
 3019 118b 00       		.byte	0
 3020 118c 45       		.uleb128 0x45
 3021 118d EE010000 		.4byte	.LASF151
 3022 1191 05       		.byte	0x5
 3023 1192 69       		.byte	0x69
 3024 1193 9D110000 		.4byte	0x119d
 3025 1197 0D       		.uleb128 0xd
 3026 1198 E5060000 		.4byte	0x6e5
 3027 119c 00       		.byte	0
 3028 119d 46       		.uleb128 0x46
 3029 119e 62000000 		.4byte	.LASF152
 3030 11a2 02       		.byte	0x2
 3031 11a3 1502     		.2byte	0x215
 3032 11a5 FF000000 		.4byte	0xff
 3033 11a9 0D       		.uleb128 0xd
 3034 11aa DE000000 		.4byte	0xde
 3035 11ae 0D       		.uleb128 0xd
 3036 11af 20010000 		.4byte	0x120
 3037 11b3 00       		.byte	0
 3038 11b4 00       		.byte	0
 3039              		.section	.debug_abbrev,"",%progbits
 3040              	.Ldebug_abbrev0:
 3041 0000 01       		.uleb128 0x1
 3042 0001 11       		.uleb128 0x11
 3043 0002 01       		.byte	0x1
 3044 0003 25       		.uleb128 0x25
 3045 0004 0E       		.uleb128 0xe
ARM GAS  C:\Users\jo\AppData\Local\Temp\cc7FYMfi.s 			page 55


 3046 0005 13       		.uleb128 0x13
 3047 0006 0B       		.uleb128 0xb
 3048 0007 03       		.uleb128 0x3
 3049 0008 0E       		.uleb128 0xe
 3050 0009 1B       		.uleb128 0x1b
 3051 000a 0E       		.uleb128 0xe
 3052 000b 55       		.uleb128 0x55
 3053 000c 17       		.uleb128 0x17
 3054 000d 11       		.uleb128 0x11
 3055 000e 01       		.uleb128 0x1
 3056 000f 10       		.uleb128 0x10
 3057 0010 17       		.uleb128 0x17
 3058 0011 00       		.byte	0
 3059 0012 00       		.byte	0
 3060 0013 02       		.uleb128 0x2
 3061 0014 24       		.uleb128 0x24
 3062 0015 00       		.byte	0
 3063 0016 0B       		.uleb128 0xb
 3064 0017 0B       		.uleb128 0xb
 3065 0018 3E       		.uleb128 0x3e
 3066 0019 0B       		.uleb128 0xb
 3067 001a 03       		.uleb128 0x3
 3068 001b 08       		.uleb128 0x8
 3069 001c 00       		.byte	0
 3070 001d 00       		.byte	0
 3071 001e 03       		.uleb128 0x3
 3072 001f 24       		.uleb128 0x24
 3073 0020 00       		.byte	0
 3074 0021 0B       		.uleb128 0xb
 3075 0022 0B       		.uleb128 0xb
 3076 0023 3E       		.uleb128 0x3e
 3077 0024 0B       		.uleb128 0xb
 3078 0025 03       		.uleb128 0x3
 3079 0026 0E       		.uleb128 0xe
 3080 0027 00       		.byte	0
 3081 0028 00       		.byte	0
 3082 0029 04       		.uleb128 0x4
 3083 002a 16       		.uleb128 0x16
 3084 002b 00       		.byte	0
 3085 002c 03       		.uleb128 0x3
 3086 002d 0E       		.uleb128 0xe
 3087 002e 3A       		.uleb128 0x3a
 3088 002f 0B       		.uleb128 0xb
 3089 0030 3B       		.uleb128 0x3b
 3090 0031 0B       		.uleb128 0xb
 3091 0032 49       		.uleb128 0x49
 3092 0033 13       		.uleb128 0x13
 3093 0034 00       		.byte	0
 3094 0035 00       		.byte	0
 3095 0036 05       		.uleb128 0x5
 3096 0037 35       		.uleb128 0x35
 3097 0038 00       		.byte	0
 3098 0039 49       		.uleb128 0x49
 3099 003a 13       		.uleb128 0x13
 3100 003b 00       		.byte	0
 3101 003c 00       		.byte	0
 3102 003d 06       		.uleb128 0x6
ARM GAS  C:\Users\jo\AppData\Local\Temp\cc7FYMfi.s 			page 56


 3103 003e 13       		.uleb128 0x13
 3104 003f 01       		.byte	0x1
 3105 0040 03       		.uleb128 0x3
 3106 0041 0E       		.uleb128 0xe
 3107 0042 0B       		.uleb128 0xb
 3108 0043 0B       		.uleb128 0xb
 3109 0044 3A       		.uleb128 0x3a
 3110 0045 0B       		.uleb128 0xb
 3111 0046 3B       		.uleb128 0x3b
 3112 0047 0B       		.uleb128 0xb
 3113 0048 01       		.uleb128 0x1
 3114 0049 13       		.uleb128 0x13
 3115 004a 00       		.byte	0
 3116 004b 00       		.byte	0
 3117 004c 07       		.uleb128 0x7
 3118 004d 0D       		.uleb128 0xd
 3119 004e 00       		.byte	0
 3120 004f 03       		.uleb128 0x3
 3121 0050 0E       		.uleb128 0xe
 3122 0051 3A       		.uleb128 0x3a
 3123 0052 0B       		.uleb128 0xb
 3124 0053 3B       		.uleb128 0x3b
 3125 0054 0B       		.uleb128 0xb
 3126 0055 49       		.uleb128 0x49
 3127 0056 13       		.uleb128 0x13
 3128 0057 38       		.uleb128 0x38
 3129 0058 0B       		.uleb128 0xb
 3130 0059 00       		.byte	0
 3131 005a 00       		.byte	0
 3132 005b 08       		.uleb128 0x8
 3133 005c 0D       		.uleb128 0xd
 3134 005d 00       		.byte	0
 3135 005e 03       		.uleb128 0x3
 3136 005f 08       		.uleb128 0x8
 3137 0060 3A       		.uleb128 0x3a
 3138 0061 0B       		.uleb128 0xb
 3139 0062 3B       		.uleb128 0x3b
 3140 0063 05       		.uleb128 0x5
 3141 0064 49       		.uleb128 0x49
 3142 0065 13       		.uleb128 0x13
 3143 0066 38       		.uleb128 0x38
 3144 0067 0B       		.uleb128 0xb
 3145 0068 00       		.byte	0
 3146 0069 00       		.byte	0
 3147 006a 09       		.uleb128 0x9
 3148 006b 0D       		.uleb128 0xd
 3149 006c 00       		.byte	0
 3150 006d 03       		.uleb128 0x3
 3151 006e 0E       		.uleb128 0xe
 3152 006f 3A       		.uleb128 0x3a
 3153 0070 0B       		.uleb128 0xb
 3154 0071 3B       		.uleb128 0x3b
 3155 0072 05       		.uleb128 0x5
 3156 0073 49       		.uleb128 0x49
 3157 0074 13       		.uleb128 0x13
 3158 0075 38       		.uleb128 0x38
 3159 0076 0B       		.uleb128 0xb
ARM GAS  C:\Users\jo\AppData\Local\Temp\cc7FYMfi.s 			page 57


 3160 0077 00       		.byte	0
 3161 0078 00       		.byte	0
 3162 0079 0A       		.uleb128 0xa
 3163 007a 0F       		.uleb128 0xf
 3164 007b 00       		.byte	0
 3165 007c 0B       		.uleb128 0xb
 3166 007d 0B       		.uleb128 0xb
 3167 007e 49       		.uleb128 0x49
 3168 007f 13       		.uleb128 0x13
 3169 0080 00       		.byte	0
 3170 0081 00       		.byte	0
 3171 0082 0B       		.uleb128 0xb
 3172 0083 13       		.uleb128 0x13
 3173 0084 01       		.byte	0x1
 3174 0085 03       		.uleb128 0x3
 3175 0086 0E       		.uleb128 0xe
 3176 0087 0B       		.uleb128 0xb
 3177 0088 0B       		.uleb128 0xb
 3178 0089 3A       		.uleb128 0x3a
 3179 008a 0B       		.uleb128 0xb
 3180 008b 3B       		.uleb128 0x3b
 3181 008c 05       		.uleb128 0x5
 3182 008d 01       		.uleb128 0x1
 3183 008e 13       		.uleb128 0x13
 3184 008f 00       		.byte	0
 3185 0090 00       		.byte	0
 3186 0091 0C       		.uleb128 0xc
 3187 0092 15       		.uleb128 0x15
 3188 0093 01       		.byte	0x1
 3189 0094 27       		.uleb128 0x27
 3190 0095 19       		.uleb128 0x19
 3191 0096 01       		.uleb128 0x1
 3192 0097 13       		.uleb128 0x13
 3193 0098 00       		.byte	0
 3194 0099 00       		.byte	0
 3195 009a 0D       		.uleb128 0xd
 3196 009b 05       		.uleb128 0x5
 3197 009c 00       		.byte	0
 3198 009d 49       		.uleb128 0x49
 3199 009e 13       		.uleb128 0x13
 3200 009f 00       		.byte	0
 3201 00a0 00       		.byte	0
 3202 00a1 0E       		.uleb128 0xe
 3203 00a2 0F       		.uleb128 0xf
 3204 00a3 00       		.byte	0
 3205 00a4 0B       		.uleb128 0xb
 3206 00a5 0B       		.uleb128 0xb
 3207 00a6 00       		.byte	0
 3208 00a7 00       		.byte	0
 3209 00a8 0F       		.uleb128 0xf
 3210 00a9 13       		.uleb128 0x13
 3211 00aa 01       		.byte	0x1
 3212 00ab 03       		.uleb128 0x3
 3213 00ac 0E       		.uleb128 0xe
 3214 00ad 0B       		.uleb128 0xb
 3215 00ae 05       		.uleb128 0x5
 3216 00af 3A       		.uleb128 0x3a
ARM GAS  C:\Users\jo\AppData\Local\Temp\cc7FYMfi.s 			page 58


 3217 00b0 0B       		.uleb128 0xb
 3218 00b1 3B       		.uleb128 0x3b
 3219 00b2 05       		.uleb128 0x5
 3220 00b3 01       		.uleb128 0x1
 3221 00b4 13       		.uleb128 0x13
 3222 00b5 00       		.byte	0
 3223 00b6 00       		.byte	0
 3224 00b7 10       		.uleb128 0x10
 3225 00b8 0D       		.uleb128 0xd
 3226 00b9 00       		.byte	0
 3227 00ba 03       		.uleb128 0x3
 3228 00bb 0E       		.uleb128 0xe
 3229 00bc 3A       		.uleb128 0x3a
 3230 00bd 0B       		.uleb128 0xb
 3231 00be 3B       		.uleb128 0x3b
 3232 00bf 05       		.uleb128 0x5
 3233 00c0 49       		.uleb128 0x49
 3234 00c1 13       		.uleb128 0x13
 3235 00c2 38       		.uleb128 0x38
 3236 00c3 05       		.uleb128 0x5
 3237 00c4 00       		.byte	0
 3238 00c5 00       		.byte	0
 3239 00c6 11       		.uleb128 0x11
 3240 00c7 0D       		.uleb128 0xd
 3241 00c8 00       		.byte	0
 3242 00c9 03       		.uleb128 0x3
 3243 00ca 08       		.uleb128 0x8
 3244 00cb 3A       		.uleb128 0x3a
 3245 00cc 0B       		.uleb128 0xb
 3246 00cd 3B       		.uleb128 0x3b
 3247 00ce 05       		.uleb128 0x5
 3248 00cf 49       		.uleb128 0x49
 3249 00d0 13       		.uleb128 0x13
 3250 00d1 38       		.uleb128 0x38
 3251 00d2 05       		.uleb128 0x5
 3252 00d3 00       		.byte	0
 3253 00d4 00       		.byte	0
 3254 00d5 12       		.uleb128 0x12
 3255 00d6 0D       		.uleb128 0xd
 3256 00d7 00       		.byte	0
 3257 00d8 03       		.uleb128 0x3
 3258 00d9 08       		.uleb128 0x8
 3259 00da 3A       		.uleb128 0x3a
 3260 00db 0B       		.uleb128 0xb
 3261 00dc 3B       		.uleb128 0x3b
 3262 00dd 0B       		.uleb128 0xb
 3263 00de 49       		.uleb128 0x49
 3264 00df 13       		.uleb128 0x13
 3265 00e0 38       		.uleb128 0x38
 3266 00e1 0B       		.uleb128 0xb
 3267 00e2 00       		.byte	0
 3268 00e3 00       		.byte	0
 3269 00e4 13       		.uleb128 0x13
 3270 00e5 13       		.uleb128 0x13
 3271 00e6 01       		.byte	0x1
 3272 00e7 0B       		.uleb128 0xb
 3273 00e8 0B       		.uleb128 0xb
ARM GAS  C:\Users\jo\AppData\Local\Temp\cc7FYMfi.s 			page 59


 3274 00e9 3A       		.uleb128 0x3a
 3275 00ea 0B       		.uleb128 0xb
 3276 00eb 3B       		.uleb128 0x3b
 3277 00ec 0B       		.uleb128 0xb
 3278 00ed 01       		.uleb128 0x1
 3279 00ee 13       		.uleb128 0x13
 3280 00ef 00       		.byte	0
 3281 00f0 00       		.byte	0
 3282 00f1 14       		.uleb128 0x14
 3283 00f2 13       		.uleb128 0x13
 3284 00f3 01       		.byte	0x1
 3285 00f4 0B       		.uleb128 0xb
 3286 00f5 05       		.uleb128 0x5
 3287 00f6 3A       		.uleb128 0x3a
 3288 00f7 0B       		.uleb128 0xb
 3289 00f8 3B       		.uleb128 0x3b
 3290 00f9 0B       		.uleb128 0xb
 3291 00fa 01       		.uleb128 0x1
 3292 00fb 13       		.uleb128 0x13
 3293 00fc 00       		.byte	0
 3294 00fd 00       		.byte	0
 3295 00fe 15       		.uleb128 0x15
 3296 00ff 01       		.uleb128 0x1
 3297 0100 01       		.byte	0x1
 3298 0101 49       		.uleb128 0x49
 3299 0102 13       		.uleb128 0x13
 3300 0103 01       		.uleb128 0x1
 3301 0104 13       		.uleb128 0x13
 3302 0105 00       		.byte	0
 3303 0106 00       		.byte	0
 3304 0107 16       		.uleb128 0x16
 3305 0108 21       		.uleb128 0x21
 3306 0109 00       		.byte	0
 3307 010a 49       		.uleb128 0x49
 3308 010b 13       		.uleb128 0x13
 3309 010c 2F       		.uleb128 0x2f
 3310 010d 0B       		.uleb128 0xb
 3311 010e 00       		.byte	0
 3312 010f 00       		.byte	0
 3313 0110 17       		.uleb128 0x17
 3314 0111 17       		.uleb128 0x17
 3315 0112 01       		.byte	0x1
 3316 0113 0B       		.uleb128 0xb
 3317 0114 0B       		.uleb128 0xb
 3318 0115 3A       		.uleb128 0x3a
 3319 0116 0B       		.uleb128 0xb
 3320 0117 3B       		.uleb128 0x3b
 3321 0118 0B       		.uleb128 0xb
 3322 0119 01       		.uleb128 0x1
 3323 011a 13       		.uleb128 0x13
 3324 011b 00       		.byte	0
 3325 011c 00       		.byte	0
 3326 011d 18       		.uleb128 0x18
 3327 011e 0D       		.uleb128 0xd
 3328 011f 00       		.byte	0
 3329 0120 03       		.uleb128 0x3
 3330 0121 0E       		.uleb128 0xe
ARM GAS  C:\Users\jo\AppData\Local\Temp\cc7FYMfi.s 			page 60


 3331 0122 3A       		.uleb128 0x3a
 3332 0123 0B       		.uleb128 0xb
 3333 0124 3B       		.uleb128 0x3b
 3334 0125 05       		.uleb128 0x5
 3335 0126 49       		.uleb128 0x49
 3336 0127 13       		.uleb128 0x13
 3337 0128 00       		.byte	0
 3338 0129 00       		.byte	0
 3339 012a 19       		.uleb128 0x19
 3340 012b 26       		.uleb128 0x26
 3341 012c 00       		.byte	0
 3342 012d 49       		.uleb128 0x49
 3343 012e 13       		.uleb128 0x13
 3344 012f 00       		.byte	0
 3345 0130 00       		.byte	0
 3346 0131 1A       		.uleb128 0x1a
 3347 0132 2E       		.uleb128 0x2e
 3348 0133 01       		.byte	0x1
 3349 0134 03       		.uleb128 0x3
 3350 0135 0E       		.uleb128 0xe
 3351 0136 3A       		.uleb128 0x3a
 3352 0137 0B       		.uleb128 0xb
 3353 0138 3B       		.uleb128 0x3b
 3354 0139 05       		.uleb128 0x5
 3355 013a 27       		.uleb128 0x27
 3356 013b 19       		.uleb128 0x19
 3357 013c 20       		.uleb128 0x20
 3358 013d 0B       		.uleb128 0xb
 3359 013e 01       		.uleb128 0x1
 3360 013f 13       		.uleb128 0x13
 3361 0140 00       		.byte	0
 3362 0141 00       		.byte	0
 3363 0142 1B       		.uleb128 0x1b
 3364 0143 05       		.uleb128 0x5
 3365 0144 00       		.byte	0
 3366 0145 03       		.uleb128 0x3
 3367 0146 0E       		.uleb128 0xe
 3368 0147 3A       		.uleb128 0x3a
 3369 0148 0B       		.uleb128 0xb
 3370 0149 3B       		.uleb128 0x3b
 3371 014a 05       		.uleb128 0x5
 3372 014b 49       		.uleb128 0x49
 3373 014c 13       		.uleb128 0x13
 3374 014d 00       		.byte	0
 3375 014e 00       		.byte	0
 3376 014f 1C       		.uleb128 0x1c
 3377 0150 2E       		.uleb128 0x2e
 3378 0151 00       		.byte	0
 3379 0152 03       		.uleb128 0x3
 3380 0153 0E       		.uleb128 0xe
 3381 0154 3A       		.uleb128 0x3a
 3382 0155 0B       		.uleb128 0xb
 3383 0156 3B       		.uleb128 0x3b
 3384 0157 0B       		.uleb128 0xb
 3385 0158 27       		.uleb128 0x27
 3386 0159 19       		.uleb128 0x19
 3387 015a 49       		.uleb128 0x49
ARM GAS  C:\Users\jo\AppData\Local\Temp\cc7FYMfi.s 			page 61


 3388 015b 13       		.uleb128 0x13
 3389 015c 20       		.uleb128 0x20
 3390 015d 0B       		.uleb128 0xb
 3391 015e 00       		.byte	0
 3392 015f 00       		.byte	0
 3393 0160 1D       		.uleb128 0x1d
 3394 0161 2E       		.uleb128 0x2e
 3395 0162 00       		.byte	0
 3396 0163 03       		.uleb128 0x3
 3397 0164 0E       		.uleb128 0xe
 3398 0165 3A       		.uleb128 0x3a
 3399 0166 0B       		.uleb128 0xb
 3400 0167 3B       		.uleb128 0x3b
 3401 0168 05       		.uleb128 0x5
 3402 0169 27       		.uleb128 0x27
 3403 016a 19       		.uleb128 0x19
 3404 016b 20       		.uleb128 0x20
 3405 016c 0B       		.uleb128 0xb
 3406 016d 00       		.byte	0
 3407 016e 00       		.byte	0
 3408 016f 1E       		.uleb128 0x1e
 3409 0170 05       		.uleb128 0x5
 3410 0171 00       		.byte	0
 3411 0172 03       		.uleb128 0x3
 3412 0173 08       		.uleb128 0x8
 3413 0174 3A       		.uleb128 0x3a
 3414 0175 0B       		.uleb128 0xb
 3415 0176 3B       		.uleb128 0x3b
 3416 0177 05       		.uleb128 0x5
 3417 0178 49       		.uleb128 0x49
 3418 0179 13       		.uleb128 0x13
 3419 017a 00       		.byte	0
 3420 017b 00       		.byte	0
 3421 017c 1F       		.uleb128 0x1f
 3422 017d 2E       		.uleb128 0x2e
 3423 017e 01       		.byte	0x1
 3424 017f 03       		.uleb128 0x3
 3425 0180 0E       		.uleb128 0xe
 3426 0181 3A       		.uleb128 0x3a
 3427 0182 0B       		.uleb128 0xb
 3428 0183 3B       		.uleb128 0x3b
 3429 0184 05       		.uleb128 0x5
 3430 0185 27       		.uleb128 0x27
 3431 0186 19       		.uleb128 0x19
 3432 0187 49       		.uleb128 0x49
 3433 0188 13       		.uleb128 0x13
 3434 0189 20       		.uleb128 0x20
 3435 018a 0B       		.uleb128 0xb
 3436 018b 01       		.uleb128 0x1
 3437 018c 13       		.uleb128 0x13
 3438 018d 00       		.byte	0
 3439 018e 00       		.byte	0
 3440 018f 20       		.uleb128 0x20
 3441 0190 34       		.uleb128 0x34
 3442 0191 00       		.byte	0
 3443 0192 03       		.uleb128 0x3
 3444 0193 08       		.uleb128 0x8
ARM GAS  C:\Users\jo\AppData\Local\Temp\cc7FYMfi.s 			page 62


 3445 0194 3A       		.uleb128 0x3a
 3446 0195 0B       		.uleb128 0xb
 3447 0196 3B       		.uleb128 0x3b
 3448 0197 05       		.uleb128 0x5
 3449 0198 49       		.uleb128 0x49
 3450 0199 13       		.uleb128 0x13
 3451 019a 00       		.byte	0
 3452 019b 00       		.byte	0
 3453 019c 21       		.uleb128 0x21
 3454 019d 2E       		.uleb128 0x2e
 3455 019e 01       		.byte	0x1
 3456 019f 3F       		.uleb128 0x3f
 3457 01a0 19       		.uleb128 0x19
 3458 01a1 03       		.uleb128 0x3
 3459 01a2 0E       		.uleb128 0xe
 3460 01a3 3A       		.uleb128 0x3a
 3461 01a4 0B       		.uleb128 0xb
 3462 01a5 3B       		.uleb128 0x3b
 3463 01a6 0B       		.uleb128 0xb
 3464 01a7 27       		.uleb128 0x27
 3465 01a8 19       		.uleb128 0x19
 3466 01a9 11       		.uleb128 0x11
 3467 01aa 01       		.uleb128 0x1
 3468 01ab 12       		.uleb128 0x12
 3469 01ac 06       		.uleb128 0x6
 3470 01ad 40       		.uleb128 0x40
 3471 01ae 18       		.uleb128 0x18
 3472 01af 9742     		.uleb128 0x2117
 3473 01b1 19       		.uleb128 0x19
 3474 01b2 01       		.uleb128 0x1
 3475 01b3 13       		.uleb128 0x13
 3476 01b4 00       		.byte	0
 3477 01b5 00       		.byte	0
 3478 01b6 22       		.uleb128 0x22
 3479 01b7 05       		.uleb128 0x5
 3480 01b8 00       		.byte	0
 3481 01b9 03       		.uleb128 0x3
 3482 01ba 08       		.uleb128 0x8
 3483 01bb 3A       		.uleb128 0x3a
 3484 01bc 0B       		.uleb128 0xb
 3485 01bd 3B       		.uleb128 0x3b
 3486 01be 0B       		.uleb128 0xb
 3487 01bf 49       		.uleb128 0x49
 3488 01c0 13       		.uleb128 0x13
 3489 01c1 02       		.uleb128 0x2
 3490 01c2 17       		.uleb128 0x17
 3491 01c3 00       		.byte	0
 3492 01c4 00       		.byte	0
 3493 01c5 23       		.uleb128 0x23
 3494 01c6 34       		.uleb128 0x34
 3495 01c7 00       		.byte	0
 3496 01c8 03       		.uleb128 0x3
 3497 01c9 0E       		.uleb128 0xe
 3498 01ca 49       		.uleb128 0x49
 3499 01cb 13       		.uleb128 0x13
 3500 01cc 34       		.uleb128 0x34
 3501 01cd 19       		.uleb128 0x19
ARM GAS  C:\Users\jo\AppData\Local\Temp\cc7FYMfi.s 			page 63


 3502 01ce 02       		.uleb128 0x2
 3503 01cf 18       		.uleb128 0x18
 3504 01d0 00       		.byte	0
 3505 01d1 00       		.byte	0
 3506 01d2 24       		.uleb128 0x24
 3507 01d3 1D       		.uleb128 0x1d
 3508 01d4 01       		.byte	0x1
 3509 01d5 31       		.uleb128 0x31
 3510 01d6 13       		.uleb128 0x13
 3511 01d7 52       		.uleb128 0x52
 3512 01d8 01       		.uleb128 0x1
 3513 01d9 55       		.uleb128 0x55
 3514 01da 17       		.uleb128 0x17
 3515 01db 58       		.uleb128 0x58
 3516 01dc 0B       		.uleb128 0xb
 3517 01dd 59       		.uleb128 0x59
 3518 01de 0B       		.uleb128 0xb
 3519 01df 01       		.uleb128 0x1
 3520 01e0 13       		.uleb128 0x13
 3521 01e1 00       		.byte	0
 3522 01e2 00       		.byte	0
 3523 01e3 25       		.uleb128 0x25
 3524 01e4 05       		.uleb128 0x5
 3525 01e5 00       		.byte	0
 3526 01e6 31       		.uleb128 0x31
 3527 01e7 13       		.uleb128 0x13
 3528 01e8 02       		.uleb128 0x2
 3529 01e9 17       		.uleb128 0x17
 3530 01ea 00       		.byte	0
 3531 01eb 00       		.byte	0
 3532 01ec 26       		.uleb128 0x26
 3533 01ed 898201   		.uleb128 0x4109
 3534 01f0 01       		.byte	0x1
 3535 01f1 11       		.uleb128 0x11
 3536 01f2 01       		.uleb128 0x1
 3537 01f3 31       		.uleb128 0x31
 3538 01f4 13       		.uleb128 0x13
 3539 01f5 00       		.byte	0
 3540 01f6 00       		.byte	0
 3541 01f7 27       		.uleb128 0x27
 3542 01f8 8A8201   		.uleb128 0x410a
 3543 01fb 00       		.byte	0
 3544 01fc 02       		.uleb128 0x2
 3545 01fd 18       		.uleb128 0x18
 3546 01fe 9142     		.uleb128 0x2111
 3547 0200 18       		.uleb128 0x18
 3548 0201 00       		.byte	0
 3549 0202 00       		.byte	0
 3550 0203 28       		.uleb128 0x28
 3551 0204 34       		.uleb128 0x34
 3552 0205 00       		.byte	0
 3553 0206 03       		.uleb128 0x3
 3554 0207 0E       		.uleb128 0xe
 3555 0208 49       		.uleb128 0x49
 3556 0209 13       		.uleb128 0x13
 3557 020a 34       		.uleb128 0x34
 3558 020b 19       		.uleb128 0x19
ARM GAS  C:\Users\jo\AppData\Local\Temp\cc7FYMfi.s 			page 64


 3559 020c 1C       		.uleb128 0x1c
 3560 020d 0E       		.uleb128 0xe
 3561 020e 00       		.byte	0
 3562 020f 00       		.byte	0
 3563 0210 29       		.uleb128 0x29
 3564 0211 1D       		.uleb128 0x1d
 3565 0212 01       		.byte	0x1
 3566 0213 31       		.uleb128 0x31
 3567 0214 13       		.uleb128 0x13
 3568 0215 11       		.uleb128 0x11
 3569 0216 01       		.uleb128 0x1
 3570 0217 12       		.uleb128 0x12
 3571 0218 06       		.uleb128 0x6
 3572 0219 58       		.uleb128 0x58
 3573 021a 0B       		.uleb128 0xb
 3574 021b 59       		.uleb128 0x59
 3575 021c 0B       		.uleb128 0xb
 3576 021d 01       		.uleb128 0x1
 3577 021e 13       		.uleb128 0x13
 3578 021f 00       		.byte	0
 3579 0220 00       		.byte	0
 3580 0221 2A       		.uleb128 0x2a
 3581 0222 1D       		.uleb128 0x1d
 3582 0223 01       		.byte	0x1
 3583 0224 31       		.uleb128 0x31
 3584 0225 13       		.uleb128 0x13
 3585 0226 11       		.uleb128 0x11
 3586 0227 01       		.uleb128 0x1
 3587 0228 12       		.uleb128 0x12
 3588 0229 06       		.uleb128 0x6
 3589 022a 58       		.uleb128 0x58
 3590 022b 0B       		.uleb128 0xb
 3591 022c 59       		.uleb128 0x59
 3592 022d 05       		.uleb128 0x5
 3593 022e 01       		.uleb128 0x1
 3594 022f 13       		.uleb128 0x13
 3595 0230 00       		.byte	0
 3596 0231 00       		.byte	0
 3597 0232 2B       		.uleb128 0x2b
 3598 0233 1D       		.uleb128 0x1d
 3599 0234 01       		.byte	0x1
 3600 0235 31       		.uleb128 0x31
 3601 0236 13       		.uleb128 0x13
 3602 0237 11       		.uleb128 0x11
 3603 0238 01       		.uleb128 0x1
 3604 0239 12       		.uleb128 0x12
 3605 023a 06       		.uleb128 0x6
 3606 023b 58       		.uleb128 0x58
 3607 023c 0B       		.uleb128 0xb
 3608 023d 59       		.uleb128 0x59
 3609 023e 05       		.uleb128 0x5
 3610 023f 00       		.byte	0
 3611 0240 00       		.byte	0
 3612 0241 2C       		.uleb128 0x2c
 3613 0242 898201   		.uleb128 0x4109
 3614 0245 00       		.byte	0
 3615 0246 11       		.uleb128 0x11
ARM GAS  C:\Users\jo\AppData\Local\Temp\cc7FYMfi.s 			page 65


 3616 0247 01       		.uleb128 0x1
 3617 0248 31       		.uleb128 0x31
 3618 0249 13       		.uleb128 0x13
 3619 024a 00       		.byte	0
 3620 024b 00       		.byte	0
 3621 024c 2D       		.uleb128 0x2d
 3622 024d 0B       		.uleb128 0xb
 3623 024e 01       		.byte	0x1
 3624 024f 55       		.uleb128 0x55
 3625 0250 17       		.uleb128 0x17
 3626 0251 00       		.byte	0
 3627 0252 00       		.byte	0
 3628 0253 2E       		.uleb128 0x2e
 3629 0254 34       		.uleb128 0x34
 3630 0255 00       		.byte	0
 3631 0256 31       		.uleb128 0x31
 3632 0257 13       		.uleb128 0x13
 3633 0258 02       		.uleb128 0x2
 3634 0259 17       		.uleb128 0x17
 3635 025a 00       		.byte	0
 3636 025b 00       		.byte	0
 3637 025c 2F       		.uleb128 0x2f
 3638 025d 0B       		.uleb128 0xb
 3639 025e 01       		.byte	0x1
 3640 025f 11       		.uleb128 0x11
 3641 0260 01       		.uleb128 0x1
 3642 0261 12       		.uleb128 0x12
 3643 0262 06       		.uleb128 0x6
 3644 0263 00       		.byte	0
 3645 0264 00       		.byte	0
 3646 0265 30       		.uleb128 0x30
 3647 0266 34       		.uleb128 0x34
 3648 0267 00       		.byte	0
 3649 0268 31       		.uleb128 0x31
 3650 0269 13       		.uleb128 0x13
 3651 026a 02       		.uleb128 0x2
 3652 026b 18       		.uleb128 0x18
 3653 026c 00       		.byte	0
 3654 026d 00       		.byte	0
 3655 026e 31       		.uleb128 0x31
 3656 026f 898201   		.uleb128 0x4109
 3657 0272 01       		.byte	0x1
 3658 0273 11       		.uleb128 0x11
 3659 0274 01       		.uleb128 0x1
 3660 0275 31       		.uleb128 0x31
 3661 0276 13       		.uleb128 0x13
 3662 0277 01       		.uleb128 0x1
 3663 0278 13       		.uleb128 0x13
 3664 0279 00       		.byte	0
 3665 027a 00       		.byte	0
 3666 027b 32       		.uleb128 0x32
 3667 027c 0B       		.uleb128 0xb
 3668 027d 01       		.byte	0x1
 3669 027e 55       		.uleb128 0x55
 3670 027f 17       		.uleb128 0x17
 3671 0280 01       		.uleb128 0x1
 3672 0281 13       		.uleb128 0x13
ARM GAS  C:\Users\jo\AppData\Local\Temp\cc7FYMfi.s 			page 66


 3673 0282 00       		.byte	0
 3674 0283 00       		.byte	0
 3675 0284 33       		.uleb128 0x33
 3676 0285 34       		.uleb128 0x34
 3677 0286 00       		.byte	0
 3678 0287 03       		.uleb128 0x3
 3679 0288 08       		.uleb128 0x8
 3680 0289 3A       		.uleb128 0x3a
 3681 028a 0B       		.uleb128 0xb
 3682 028b 3B       		.uleb128 0x3b
 3683 028c 0B       		.uleb128 0xb
 3684 028d 49       		.uleb128 0x49
 3685 028e 13       		.uleb128 0x13
 3686 028f 00       		.byte	0
 3687 0290 00       		.byte	0
 3688 0291 34       		.uleb128 0x34
 3689 0292 898201   		.uleb128 0x4109
 3690 0295 00       		.byte	0
 3691 0296 11       		.uleb128 0x11
 3692 0297 01       		.uleb128 0x1
 3693 0298 9542     		.uleb128 0x2115
 3694 029a 19       		.uleb128 0x19
 3695 029b 31       		.uleb128 0x31
 3696 029c 13       		.uleb128 0x13
 3697 029d 00       		.byte	0
 3698 029e 00       		.byte	0
 3699 029f 35       		.uleb128 0x35
 3700 02a0 1D       		.uleb128 0x1d
 3701 02a1 01       		.byte	0x1
 3702 02a2 31       		.uleb128 0x31
 3703 02a3 13       		.uleb128 0x13
 3704 02a4 52       		.uleb128 0x52
 3705 02a5 01       		.uleb128 0x1
 3706 02a6 55       		.uleb128 0x55
 3707 02a7 17       		.uleb128 0x17
 3708 02a8 58       		.uleb128 0x58
 3709 02a9 0B       		.uleb128 0xb
 3710 02aa 59       		.uleb128 0x59
 3711 02ab 05       		.uleb128 0x5
 3712 02ac 01       		.uleb128 0x1
 3713 02ad 13       		.uleb128 0x13
 3714 02ae 00       		.byte	0
 3715 02af 00       		.byte	0
 3716 02b0 36       		.uleb128 0x36
 3717 02b1 1D       		.uleb128 0x1d
 3718 02b2 01       		.byte	0x1
 3719 02b3 31       		.uleb128 0x31
 3720 02b4 13       		.uleb128 0x13
 3721 02b5 52       		.uleb128 0x52
 3722 02b6 01       		.uleb128 0x1
 3723 02b7 55       		.uleb128 0x55
 3724 02b8 17       		.uleb128 0x17
 3725 02b9 58       		.uleb128 0x58
 3726 02ba 0B       		.uleb128 0xb
 3727 02bb 59       		.uleb128 0x59
 3728 02bc 05       		.uleb128 0x5
 3729 02bd 00       		.byte	0
ARM GAS  C:\Users\jo\AppData\Local\Temp\cc7FYMfi.s 			page 67


 3730 02be 00       		.byte	0
 3731 02bf 37       		.uleb128 0x37
 3732 02c0 05       		.uleb128 0x5
 3733 02c1 00       		.byte	0
 3734 02c2 31       		.uleb128 0x31
 3735 02c3 13       		.uleb128 0x13
 3736 02c4 1C       		.uleb128 0x1c
 3737 02c5 0B       		.uleb128 0xb
 3738 02c6 00       		.byte	0
 3739 02c7 00       		.byte	0
 3740 02c8 38       		.uleb128 0x38
 3741 02c9 2E       		.uleb128 0x2e
 3742 02ca 01       		.byte	0x1
 3743 02cb 3F       		.uleb128 0x3f
 3744 02cc 19       		.uleb128 0x19
 3745 02cd 03       		.uleb128 0x3
 3746 02ce 0E       		.uleb128 0xe
 3747 02cf 3A       		.uleb128 0x3a
 3748 02d0 0B       		.uleb128 0xb
 3749 02d1 3B       		.uleb128 0x3b
 3750 02d2 0B       		.uleb128 0xb
 3751 02d3 27       		.uleb128 0x27
 3752 02d4 19       		.uleb128 0x19
 3753 02d5 49       		.uleb128 0x49
 3754 02d6 13       		.uleb128 0x13
 3755 02d7 11       		.uleb128 0x11
 3756 02d8 01       		.uleb128 0x1
 3757 02d9 12       		.uleb128 0x12
 3758 02da 06       		.uleb128 0x6
 3759 02db 40       		.uleb128 0x40
 3760 02dc 18       		.uleb128 0x18
 3761 02dd 9742     		.uleb128 0x2117
 3762 02df 19       		.uleb128 0x19
 3763 02e0 01       		.uleb128 0x1
 3764 02e1 13       		.uleb128 0x13
 3765 02e2 00       		.byte	0
 3766 02e3 00       		.byte	0
 3767 02e4 39       		.uleb128 0x39
 3768 02e5 34       		.uleb128 0x34
 3769 02e6 00       		.byte	0
 3770 02e7 03       		.uleb128 0x3
 3771 02e8 08       		.uleb128 0x8
 3772 02e9 3A       		.uleb128 0x3a
 3773 02ea 0B       		.uleb128 0xb
 3774 02eb 3B       		.uleb128 0x3b
 3775 02ec 0B       		.uleb128 0xb
 3776 02ed 49       		.uleb128 0x49
 3777 02ee 13       		.uleb128 0x13
 3778 02ef 02       		.uleb128 0x2
 3779 02f0 17       		.uleb128 0x17
 3780 02f1 00       		.byte	0
 3781 02f2 00       		.byte	0
 3782 02f3 3A       		.uleb128 0x3a
 3783 02f4 1D       		.uleb128 0x1d
 3784 02f5 00       		.byte	0
 3785 02f6 31       		.uleb128 0x31
 3786 02f7 13       		.uleb128 0x13
ARM GAS  C:\Users\jo\AppData\Local\Temp\cc7FYMfi.s 			page 68


 3787 02f8 11       		.uleb128 0x11
 3788 02f9 01       		.uleb128 0x1
 3789 02fa 12       		.uleb128 0x12
 3790 02fb 06       		.uleb128 0x6
 3791 02fc 58       		.uleb128 0x58
 3792 02fd 0B       		.uleb128 0xb
 3793 02fe 59       		.uleb128 0x59
 3794 02ff 0B       		.uleb128 0xb
 3795 0300 00       		.byte	0
 3796 0301 00       		.byte	0
 3797 0302 3B       		.uleb128 0x3b
 3798 0303 2E       		.uleb128 0x2e
 3799 0304 01       		.byte	0x1
 3800 0305 3F       		.uleb128 0x3f
 3801 0306 19       		.uleb128 0x19
 3802 0307 03       		.uleb128 0x3
 3803 0308 0E       		.uleb128 0xe
 3804 0309 3A       		.uleb128 0x3a
 3805 030a 0B       		.uleb128 0xb
 3806 030b 3B       		.uleb128 0x3b
 3807 030c 05       		.uleb128 0x5
 3808 030d 27       		.uleb128 0x27
 3809 030e 19       		.uleb128 0x19
 3810 030f 49       		.uleb128 0x49
 3811 0310 13       		.uleb128 0x13
 3812 0311 11       		.uleb128 0x11
 3813 0312 01       		.uleb128 0x1
 3814 0313 12       		.uleb128 0x12
 3815 0314 06       		.uleb128 0x6
 3816 0315 40       		.uleb128 0x40
 3817 0316 18       		.uleb128 0x18
 3818 0317 9742     		.uleb128 0x2117
 3819 0319 19       		.uleb128 0x19
 3820 031a 01       		.uleb128 0x1
 3821 031b 13       		.uleb128 0x13
 3822 031c 00       		.byte	0
 3823 031d 00       		.byte	0
 3824 031e 3C       		.uleb128 0x3c
 3825 031f 05       		.uleb128 0x5
 3826 0320 00       		.byte	0
 3827 0321 03       		.uleb128 0x3
 3828 0322 08       		.uleb128 0x8
 3829 0323 3A       		.uleb128 0x3a
 3830 0324 0B       		.uleb128 0xb
 3831 0325 3B       		.uleb128 0x3b
 3832 0326 05       		.uleb128 0x5
 3833 0327 49       		.uleb128 0x49
 3834 0328 13       		.uleb128 0x13
 3835 0329 02       		.uleb128 0x2
 3836 032a 17       		.uleb128 0x17
 3837 032b 00       		.byte	0
 3838 032c 00       		.byte	0
 3839 032d 3D       		.uleb128 0x3d
 3840 032e 05       		.uleb128 0x5
 3841 032f 00       		.byte	0
 3842 0330 03       		.uleb128 0x3
 3843 0331 0E       		.uleb128 0xe
ARM GAS  C:\Users\jo\AppData\Local\Temp\cc7FYMfi.s 			page 69


 3844 0332 3A       		.uleb128 0x3a
 3845 0333 0B       		.uleb128 0xb
 3846 0334 3B       		.uleb128 0x3b
 3847 0335 05       		.uleb128 0x5
 3848 0336 49       		.uleb128 0x49
 3849 0337 13       		.uleb128 0x13
 3850 0338 02       		.uleb128 0x2
 3851 0339 17       		.uleb128 0x17
 3852 033a 00       		.byte	0
 3853 033b 00       		.byte	0
 3854 033c 3E       		.uleb128 0x3e
 3855 033d 34       		.uleb128 0x34
 3856 033e 00       		.byte	0
 3857 033f 03       		.uleb128 0x3
 3858 0340 08       		.uleb128 0x8
 3859 0341 3A       		.uleb128 0x3a
 3860 0342 0B       		.uleb128 0xb
 3861 0343 3B       		.uleb128 0x3b
 3862 0344 05       		.uleb128 0x5
 3863 0345 49       		.uleb128 0x49
 3864 0346 13       		.uleb128 0x13
 3865 0347 02       		.uleb128 0x2
 3866 0348 17       		.uleb128 0x17
 3867 0349 00       		.byte	0
 3868 034a 00       		.byte	0
 3869 034b 3F       		.uleb128 0x3f
 3870 034c 34       		.uleb128 0x34
 3871 034d 00       		.byte	0
 3872 034e 03       		.uleb128 0x3
 3873 034f 0E       		.uleb128 0xe
 3874 0350 3A       		.uleb128 0x3a
 3875 0351 0B       		.uleb128 0xb
 3876 0352 3B       		.uleb128 0x3b
 3877 0353 05       		.uleb128 0x5
 3878 0354 49       		.uleb128 0x49
 3879 0355 13       		.uleb128 0x13
 3880 0356 3F       		.uleb128 0x3f
 3881 0357 19       		.uleb128 0x19
 3882 0358 3C       		.uleb128 0x3c
 3883 0359 19       		.uleb128 0x19
 3884 035a 00       		.byte	0
 3885 035b 00       		.byte	0
 3886 035c 40       		.uleb128 0x40
 3887 035d 34       		.uleb128 0x34
 3888 035e 00       		.byte	0
 3889 035f 03       		.uleb128 0x3
 3890 0360 08       		.uleb128 0x8
 3891 0361 3A       		.uleb128 0x3a
 3892 0362 0B       		.uleb128 0xb
 3893 0363 3B       		.uleb128 0x3b
 3894 0364 05       		.uleb128 0x5
 3895 0365 49       		.uleb128 0x49
 3896 0366 13       		.uleb128 0x13
 3897 0367 3F       		.uleb128 0x3f
 3898 0368 19       		.uleb128 0x19
 3899 0369 3C       		.uleb128 0x3c
 3900 036a 19       		.uleb128 0x19
ARM GAS  C:\Users\jo\AppData\Local\Temp\cc7FYMfi.s 			page 70


 3901 036b 00       		.byte	0
 3902 036c 00       		.byte	0
 3903 036d 41       		.uleb128 0x41
 3904 036e 2E       		.uleb128 0x2e
 3905 036f 01       		.byte	0x1
 3906 0370 3F       		.uleb128 0x3f
 3907 0371 19       		.uleb128 0x19
 3908 0372 03       		.uleb128 0x3
 3909 0373 0E       		.uleb128 0xe
 3910 0374 3A       		.uleb128 0x3a
 3911 0375 0B       		.uleb128 0xb
 3912 0376 3B       		.uleb128 0x3b
 3913 0377 05       		.uleb128 0x5
 3914 0378 27       		.uleb128 0x27
 3915 0379 19       		.uleb128 0x19
 3916 037a 3C       		.uleb128 0x3c
 3917 037b 19       		.uleb128 0x19
 3918 037c 01       		.uleb128 0x1
 3919 037d 13       		.uleb128 0x13
 3920 037e 00       		.byte	0
 3921 037f 00       		.byte	0
 3922 0380 42       		.uleb128 0x42
 3923 0381 2E       		.uleb128 0x2e
 3924 0382 00       		.byte	0
 3925 0383 3F       		.uleb128 0x3f
 3926 0384 19       		.uleb128 0x19
 3927 0385 03       		.uleb128 0x3
 3928 0386 0E       		.uleb128 0xe
 3929 0387 3A       		.uleb128 0x3a
 3930 0388 0B       		.uleb128 0xb
 3931 0389 3B       		.uleb128 0x3b
 3932 038a 0B       		.uleb128 0xb
 3933 038b 27       		.uleb128 0x27
 3934 038c 19       		.uleb128 0x19
 3935 038d 3C       		.uleb128 0x3c
 3936 038e 19       		.uleb128 0x19
 3937 038f 00       		.byte	0
 3938 0390 00       		.byte	0
 3939 0391 43       		.uleb128 0x43
 3940 0392 2E       		.uleb128 0x2e
 3941 0393 01       		.byte	0x1
 3942 0394 3F       		.uleb128 0x3f
 3943 0395 19       		.uleb128 0x19
 3944 0396 03       		.uleb128 0x3
 3945 0397 0E       		.uleb128 0xe
 3946 0398 3A       		.uleb128 0x3a
 3947 0399 0B       		.uleb128 0xb
 3948 039a 3B       		.uleb128 0x3b
 3949 039b 05       		.uleb128 0x5
 3950 039c 27       		.uleb128 0x27
 3951 039d 19       		.uleb128 0x19
 3952 039e 49       		.uleb128 0x49
 3953 039f 13       		.uleb128 0x13
 3954 03a0 3C       		.uleb128 0x3c
 3955 03a1 19       		.uleb128 0x19
 3956 03a2 01       		.uleb128 0x1
 3957 03a3 13       		.uleb128 0x13
ARM GAS  C:\Users\jo\AppData\Local\Temp\cc7FYMfi.s 			page 71


 3958 03a4 00       		.byte	0
 3959 03a5 00       		.byte	0
 3960 03a6 44       		.uleb128 0x44
 3961 03a7 2E       		.uleb128 0x2e
 3962 03a8 00       		.byte	0
 3963 03a9 3F       		.uleb128 0x3f
 3964 03aa 19       		.uleb128 0x19
 3965 03ab 03       		.uleb128 0x3
 3966 03ac 0E       		.uleb128 0xe
 3967 03ad 3A       		.uleb128 0x3a
 3968 03ae 0B       		.uleb128 0xb
 3969 03af 3B       		.uleb128 0x3b
 3970 03b0 05       		.uleb128 0x5
 3971 03b1 27       		.uleb128 0x27
 3972 03b2 19       		.uleb128 0x19
 3973 03b3 3C       		.uleb128 0x3c
 3974 03b4 19       		.uleb128 0x19
 3975 03b5 00       		.byte	0
 3976 03b6 00       		.byte	0
 3977 03b7 45       		.uleb128 0x45
 3978 03b8 2E       		.uleb128 0x2e
 3979 03b9 01       		.byte	0x1
 3980 03ba 3F       		.uleb128 0x3f
 3981 03bb 19       		.uleb128 0x19
 3982 03bc 03       		.uleb128 0x3
 3983 03bd 0E       		.uleb128 0xe
 3984 03be 3A       		.uleb128 0x3a
 3985 03bf 0B       		.uleb128 0xb
 3986 03c0 3B       		.uleb128 0x3b
 3987 03c1 0B       		.uleb128 0xb
 3988 03c2 27       		.uleb128 0x27
 3989 03c3 19       		.uleb128 0x19
 3990 03c4 3C       		.uleb128 0x3c
 3991 03c5 19       		.uleb128 0x19
 3992 03c6 01       		.uleb128 0x1
 3993 03c7 13       		.uleb128 0x13
 3994 03c8 00       		.byte	0
 3995 03c9 00       		.byte	0
 3996 03ca 46       		.uleb128 0x46
 3997 03cb 2E       		.uleb128 0x2e
 3998 03cc 01       		.byte	0x1
 3999 03cd 3F       		.uleb128 0x3f
 4000 03ce 19       		.uleb128 0x19
 4001 03cf 03       		.uleb128 0x3
 4002 03d0 0E       		.uleb128 0xe
 4003 03d1 3A       		.uleb128 0x3a
 4004 03d2 0B       		.uleb128 0xb
 4005 03d3 3B       		.uleb128 0x3b
 4006 03d4 05       		.uleb128 0x5
 4007 03d5 27       		.uleb128 0x27
 4008 03d6 19       		.uleb128 0x19
 4009 03d7 49       		.uleb128 0x49
 4010 03d8 13       		.uleb128 0x13
 4011 03d9 3C       		.uleb128 0x3c
 4012 03da 19       		.uleb128 0x19
 4013 03db 00       		.byte	0
 4014 03dc 00       		.byte	0
ARM GAS  C:\Users\jo\AppData\Local\Temp\cc7FYMfi.s 			page 72


 4015 03dd 00       		.byte	0
 4016              		.section	.debug_loc,"",%progbits
 4017              	.Ldebug_loc0:
 4018              	.LLST0:
 4019 0000 00000000 		.4byte	.LVL0
 4020 0004 0E000000 		.4byte	.LVL3
 4021 0008 0100     		.2byte	0x1
 4022 000a 50       		.byte	0x50
 4023 000b 0E000000 		.4byte	.LVL3
 4024 000f 18000000 		.4byte	.LVL5
 4025 0013 0100     		.2byte	0x1
 4026 0015 54       		.byte	0x54
 4027 0016 18000000 		.4byte	.LVL5
 4028 001a 1C000000 		.4byte	.LFE228
 4029 001e 0400     		.2byte	0x4
 4030 0020 F3       		.byte	0xf3
 4031 0021 01       		.uleb128 0x1
 4032 0022 50       		.byte	0x50
 4033 0023 9F       		.byte	0x9f
 4034 0024 00000000 		.4byte	0
 4035 0028 00000000 		.4byte	0
 4036              	.LLST1:
 4037 002c 06000000 		.4byte	.LVL1
 4038 0030 0C000000 		.4byte	.LVL2
 4039 0034 0100     		.2byte	0x1
 4040 0036 50       		.byte	0x50
 4041 0037 12000000 		.4byte	.LVL4
 4042 003b 18000000 		.4byte	.LVL5
 4043 003f 0100     		.2byte	0x1
 4044 0041 54       		.byte	0x54
 4045 0042 18000000 		.4byte	.LVL5
 4046 0046 1C000000 		.4byte	.LFE228
 4047 004a 0400     		.2byte	0x4
 4048 004c F3       		.byte	0xf3
 4049 004d 01       		.uleb128 0x1
 4050 004e 50       		.byte	0x50
 4051 004f 9F       		.byte	0x9f
 4052 0050 00000000 		.4byte	0
 4053 0054 00000000 		.4byte	0
 4054              	.LLST2:
 4055 0058 00000000 		.4byte	.LVL6
 4056 005c 06000000 		.4byte	.LVL7
 4057 0060 0100     		.2byte	0x1
 4058 0062 50       		.byte	0x50
 4059 0063 06000000 		.4byte	.LVL7
 4060 0067 46000000 		.4byte	.LVL13
 4061 006b 0100     		.2byte	0x1
 4062 006d 54       		.byte	0x54
 4063 006e 46000000 		.4byte	.LVL13
 4064 0072 48000000 		.4byte	.LVL14
 4065 0076 0100     		.2byte	0x1
 4066 0078 50       		.byte	0x50
 4067 0079 48000000 		.4byte	.LVL14
 4068 007d 5C000000 		.4byte	.LFE229
 4069 0081 0100     		.2byte	0x1
 4070 0083 54       		.byte	0x54
 4071 0084 00000000 		.4byte	0
ARM GAS  C:\Users\jo\AppData\Local\Temp\cc7FYMfi.s 			page 73


 4072 0088 00000000 		.4byte	0
 4073              	.LLST3:
 4074 008c 06000000 		.4byte	.LVL7
 4075 0090 46000000 		.4byte	.LVL13
 4076 0094 0300     		.2byte	0x3
 4077 0096 08       		.byte	0x8
 4078 0097 20       		.byte	0x20
 4079 0098 9F       		.byte	0x9f
 4080 0099 00000000 		.4byte	0
 4081 009d 00000000 		.4byte	0
 4082              	.LLST4:
 4083 00a1 10000000 		.4byte	.LVL8
 4084 00a5 46000000 		.4byte	.LVL13
 4085 00a9 0100     		.2byte	0x1
 4086 00ab 54       		.byte	0x54
 4087 00ac 00000000 		.4byte	0
 4088 00b0 00000000 		.4byte	0
 4089              	.LLST5:
 4090 00b4 16000000 		.4byte	.LVL9
 4091 00b8 22000000 		.4byte	.LVL10
 4092 00bc 0100     		.2byte	0x1
 4093 00be 54       		.byte	0x54
 4094 00bf 00000000 		.4byte	0
 4095 00c3 00000000 		.4byte	0
 4096              	.LLST6:
 4097 00c7 16000000 		.4byte	.LVL9
 4098 00cb 21000000 		.4byte	.LVL10-1
 4099 00cf 0100     		.2byte	0x1
 4100 00d1 50       		.byte	0x50
 4101 00d2 00000000 		.4byte	0
 4102 00d6 00000000 		.4byte	0
 4103              	.LLST7:
 4104 00da 3E000000 		.4byte	.LVL12
 4105 00de 46000000 		.4byte	.LVL13
 4106 00e2 0200     		.2byte	0x2
 4107 00e4 30       		.byte	0x30
 4108 00e5 9F       		.byte	0x9f
 4109 00e6 00000000 		.4byte	0
 4110 00ea 00000000 		.4byte	0
 4111              	.LLST8:
 4112 00ee 00000000 		.4byte	.LVL16
 4113 00f2 07000000 		.4byte	.LVL17-1
 4114 00f6 0100     		.2byte	0x1
 4115 00f8 50       		.byte	0x50
 4116 00f9 07000000 		.4byte	.LVL17-1
 4117 00fd 20000000 		.4byte	.LVL20
 4118 0101 0100     		.2byte	0x1
 4119 0103 54       		.byte	0x54
 4120 0104 20000000 		.4byte	.LVL20
 4121 0108 23000000 		.4byte	.LVL21-1
 4122 010c 0200     		.2byte	0x2
 4123 010e 72       		.byte	0x72
 4124 010f 04       		.sleb128 4
 4125 0110 23000000 		.4byte	.LVL21-1
 4126 0114 24000000 		.4byte	.LVL21
 4127 0118 0400     		.2byte	0x4
 4128 011a F3       		.byte	0xf3
ARM GAS  C:\Users\jo\AppData\Local\Temp\cc7FYMfi.s 			page 74


 4129 011b 01       		.uleb128 0x1
 4130 011c 50       		.byte	0x50
 4131 011d 9F       		.byte	0x9f
 4132 011e 24000000 		.4byte	.LVL21
 4133 0122 34000000 		.4byte	.LFE230
 4134 0126 0100     		.2byte	0x1
 4135 0128 54       		.byte	0x54
 4136 0129 00000000 		.4byte	0
 4137 012d 00000000 		.4byte	0
 4138              	.LLST9:
 4139 0131 0A000000 		.4byte	.LVL18
 4140 0135 20000000 		.4byte	.LVL20
 4141 0139 0100     		.2byte	0x1
 4142 013b 54       		.byte	0x54
 4143 013c 20000000 		.4byte	.LVL20
 4144 0140 23000000 		.4byte	.LVL21-1
 4145 0144 0200     		.2byte	0x2
 4146 0146 72       		.byte	0x72
 4147 0147 04       		.sleb128 4
 4148 0148 23000000 		.4byte	.LVL21-1
 4149 014c 24000000 		.4byte	.LVL21
 4150 0150 0400     		.2byte	0x4
 4151 0152 F3       		.byte	0xf3
 4152 0153 01       		.uleb128 0x1
 4153 0154 50       		.byte	0x50
 4154 0155 9F       		.byte	0x9f
 4155 0156 24000000 		.4byte	.LVL21
 4156 015a 26000000 		.4byte	.LVL22
 4157 015e 0100     		.2byte	0x1
 4158 0160 54       		.byte	0x54
 4159 0161 00000000 		.4byte	0
 4160 0165 00000000 		.4byte	0
 4161              	.LLST10:
 4162 0169 10000000 		.4byte	.LVL19
 4163 016d 20000000 		.4byte	.LVL20
 4164 0171 0100     		.2byte	0x1
 4165 0173 54       		.byte	0x54
 4166 0174 20000000 		.4byte	.LVL20
 4167 0178 23000000 		.4byte	.LVL21-1
 4168 017c 0200     		.2byte	0x2
 4169 017e 72       		.byte	0x72
 4170 017f 04       		.sleb128 4
 4171 0180 23000000 		.4byte	.LVL21-1
 4172 0184 24000000 		.4byte	.LVL21
 4173 0188 0400     		.2byte	0x4
 4174 018a F3       		.byte	0xf3
 4175 018b 01       		.uleb128 0x1
 4176 018c 50       		.byte	0x50
 4177 018d 9F       		.byte	0x9f
 4178 018e 00000000 		.4byte	0
 4179 0192 00000000 		.4byte	0
 4180              	.LLST11:
 4181 0196 10000000 		.4byte	.LVL19
 4182 019a 23000000 		.4byte	.LVL21-1
 4183 019e 0100     		.2byte	0x1
 4184 01a0 53       		.byte	0x53
 4185 01a1 00000000 		.4byte	0
ARM GAS  C:\Users\jo\AppData\Local\Temp\cc7FYMfi.s 			page 75


 4186 01a5 00000000 		.4byte	0
 4187              	.LLST12:
 4188 01a9 00000000 		.4byte	.LVL24
 4189 01ad 07000000 		.4byte	.LVL25-1
 4190 01b1 0100     		.2byte	0x1
 4191 01b3 50       		.byte	0x50
 4192 01b4 07000000 		.4byte	.LVL25-1
 4193 01b8 34000000 		.4byte	.LFE232
 4194 01bc 0100     		.2byte	0x1
 4195 01be 54       		.byte	0x54
 4196 01bf 00000000 		.4byte	0
 4197 01c3 00000000 		.4byte	0
 4198              	.LLST13:
 4199 01c7 0A000000 		.4byte	.LVL26
 4200 01cb 28000000 		.4byte	.LVL30
 4201 01cf 0100     		.2byte	0x1
 4202 01d1 54       		.byte	0x54
 4203 01d2 00000000 		.4byte	0
 4204 01d6 00000000 		.4byte	0
 4205              	.LLST14:
 4206 01da 14000000 		.4byte	.LVL27
 4207 01de 26000000 		.4byte	.LVL29
 4208 01e2 0100     		.2byte	0x1
 4209 01e4 54       		.byte	0x54
 4210 01e5 00000000 		.4byte	0
 4211 01e9 00000000 		.4byte	0
 4212              	.LLST15:
 4213 01ed 14000000 		.4byte	.LVL27
 4214 01f1 1D000000 		.4byte	.LVL28-1
 4215 01f5 0100     		.2byte	0x1
 4216 01f7 50       		.byte	0x50
 4217 01f8 00000000 		.4byte	0
 4218 01fc 00000000 		.4byte	0
 4219              	.LLST16:
 4220 0200 00000000 		.4byte	.LVL32
 4221 0204 0D000000 		.4byte	.LVL33-1
 4222 0208 0100     		.2byte	0x1
 4223 020a 50       		.byte	0x50
 4224 020b 0D000000 		.4byte	.LVL33-1
 4225 020f 3C000000 		.4byte	.LVL38
 4226 0213 0100     		.2byte	0x1
 4227 0215 54       		.byte	0x54
 4228 0216 3C000000 		.4byte	.LVL38
 4229 021a 44000000 		.4byte	.LFE231
 4230 021e 0400     		.2byte	0x4
 4231 0220 F3       		.byte	0xf3
 4232 0221 01       		.uleb128 0x1
 4233 0222 50       		.byte	0x50
 4234 0223 9F       		.byte	0x9f
 4235 0224 00000000 		.4byte	0
 4236 0228 00000000 		.4byte	0
 4237              	.LLST17:
 4238 022c 00000000 		.4byte	.LVL39
 4239 0230 0B000000 		.4byte	.LVL41-1
 4240 0234 0100     		.2byte	0x1
 4241 0236 50       		.byte	0x50
 4242 0237 0B000000 		.4byte	.LVL41-1
ARM GAS  C:\Users\jo\AppData\Local\Temp\cc7FYMfi.s 			page 76


 4243 023b 64000000 		.4byte	.LFE234
 4244 023f 0100     		.2byte	0x1
 4245 0241 55       		.byte	0x55
 4246 0242 00000000 		.4byte	0
 4247 0246 00000000 		.4byte	0
 4248              	.LLST18:
 4249 024a 08000000 		.4byte	.LVL40
 4250 024e 42000000 		.4byte	.LVL47
 4251 0252 0100     		.2byte	0x1
 4252 0254 54       		.byte	0x54
 4253 0255 4C000000 		.4byte	.LVL49
 4254 0259 64000000 		.4byte	.LFE234
 4255 025d 0100     		.2byte	0x1
 4256 025f 54       		.byte	0x54
 4257 0260 00000000 		.4byte	0
 4258 0264 00000000 		.4byte	0
 4259              	.LLST19:
 4260 0268 42000000 		.4byte	.LVL47
 4261 026c 4C000000 		.4byte	.LVL49
 4262 0270 0100     		.2byte	0x1
 4263 0272 54       		.byte	0x54
 4264 0273 00000000 		.4byte	0
 4265 0277 00000000 		.4byte	0
 4266              	.LLST20:
 4267 027b 1E000000 		.4byte	.LVL43
 4268 027f 22000000 		.4byte	.LVL44
 4269 0283 0200     		.2byte	0x2
 4270 0285 74       		.byte	0x74
 4271 0286 24       		.sleb128 36
 4272 0287 22000000 		.4byte	.LVL44
 4273 028b 4C000000 		.4byte	.LVL49
 4274 028f 0100     		.2byte	0x1
 4275 0291 55       		.byte	0x55
 4276 0292 00000000 		.4byte	0
 4277 0296 00000000 		.4byte	0
 4278              	.LLST21:
 4279 029a 1E000000 		.4byte	.LVL43
 4280 029e 42000000 		.4byte	.LVL47
 4281 02a2 0100     		.2byte	0x1
 4282 02a4 54       		.byte	0x54
 4283 02a5 00000000 		.4byte	0
 4284 02a9 00000000 		.4byte	0
 4285              	.LLST22:
 4286 02ad 1E000000 		.4byte	.LVL43
 4287 02b1 22000000 		.4byte	.LVL44
 4288 02b5 0200     		.2byte	0x2
 4289 02b7 74       		.byte	0x74
 4290 02b8 24       		.sleb128 36
 4291 02b9 22000000 		.4byte	.LVL44
 4292 02bd 3F000000 		.4byte	.LVL46-1
 4293 02c1 0100     		.2byte	0x1
 4294 02c3 53       		.byte	0x53
 4295 02c4 00000000 		.4byte	0
 4296 02c8 00000000 		.4byte	0
 4297              	.LLST23:
 4298 02cc 00000000 		.4byte	.LVL52
 4299 02d0 0D000000 		.4byte	.LVL53-1
ARM GAS  C:\Users\jo\AppData\Local\Temp\cc7FYMfi.s 			page 77


 4300 02d4 0100     		.2byte	0x1
 4301 02d6 50       		.byte	0x50
 4302 02d7 0D000000 		.4byte	.LVL53-1
 4303 02db 16000000 		.4byte	.LVL55
 4304 02df 0100     		.2byte	0x1
 4305 02e1 54       		.byte	0x54
 4306 02e2 16000000 		.4byte	.LVL55
 4307 02e6 44000000 		.4byte	.LFE233
 4308 02ea 0400     		.2byte	0x4
 4309 02ec F3       		.byte	0xf3
 4310 02ed 01       		.uleb128 0x1
 4311 02ee 50       		.byte	0x50
 4312 02ef 9F       		.byte	0x9f
 4313 02f0 00000000 		.4byte	0
 4314 02f4 00000000 		.4byte	0
 4315              	.LLST24:
 4316 02f8 16000000 		.4byte	.LVL55
 4317 02fc 19000000 		.4byte	.LVL56-1
 4318 0300 0100     		.2byte	0x1
 4319 0302 50       		.byte	0x50
 4320 0303 19000000 		.4byte	.LVL56-1
 4321 0307 3C000000 		.4byte	.LVL58
 4322 030b 0100     		.2byte	0x1
 4323 030d 54       		.byte	0x54
 4324 030e 3C000000 		.4byte	.LVL58
 4325 0312 44000000 		.4byte	.LFE233
 4326 0316 0100     		.2byte	0x1
 4327 0318 50       		.byte	0x50
 4328 0319 00000000 		.4byte	0
 4329 031d 00000000 		.4byte	0
 4330              	.LLST25:
 4331 0321 00000000 		.4byte	.LVL59
 4332 0325 09000000 		.4byte	.LVL60-1
 4333 0329 0100     		.2byte	0x1
 4334 032b 50       		.byte	0x50
 4335 032c 09000000 		.4byte	.LVL60-1
 4336 0330 70000000 		.4byte	.LFE236
 4337 0334 0100     		.2byte	0x1
 4338 0336 55       		.byte	0x55
 4339 0337 00000000 		.4byte	0
 4340 033b 00000000 		.4byte	0
 4341              	.LLST26:
 4342 033f 00000000 		.4byte	.LVL59
 4343 0343 09000000 		.4byte	.LVL60-1
 4344 0347 0100     		.2byte	0x1
 4345 0349 51       		.byte	0x51
 4346 034a 09000000 		.4byte	.LVL60-1
 4347 034e 70000000 		.4byte	.LFE236
 4348 0352 0100     		.2byte	0x1
 4349 0354 57       		.byte	0x57
 4350 0355 00000000 		.4byte	0
 4351 0359 00000000 		.4byte	0
 4352              	.LLST27:
 4353 035d 48000000 		.4byte	.LVL66
 4354 0361 4C000000 		.4byte	.LVL67
 4355 0365 0100     		.2byte	0x1
 4356 0367 50       		.byte	0x50
ARM GAS  C:\Users\jo\AppData\Local\Temp\cc7FYMfi.s 			page 78


 4357 0368 4C000000 		.4byte	.LVL67
 4358 036c 54000000 		.4byte	.LVL69
 4359 0370 0100     		.2byte	0x1
 4360 0372 54       		.byte	0x54
 4361 0373 00000000 		.4byte	0
 4362 0377 00000000 		.4byte	0
 4363              	.LLST28:
 4364 037b 22000000 		.4byte	.LVL62
 4365 037f 24000000 		.4byte	.LVL63
 4366 0383 0100     		.2byte	0x1
 4367 0385 53       		.byte	0x53
 4368 0386 24000000 		.4byte	.LVL63
 4369 038a 54000000 		.4byte	.LVL69
 4370 038e 0100     		.2byte	0x1
 4371 0390 55       		.byte	0x55
 4372 0391 00000000 		.4byte	0
 4373 0395 00000000 		.4byte	0
 4374              	.LLST29:
 4375 0399 22000000 		.4byte	.LVL62
 4376 039d 48000000 		.4byte	.LVL66
 4377 03a1 0100     		.2byte	0x1
 4378 03a3 54       		.byte	0x54
 4379 03a4 00000000 		.4byte	0
 4380 03a8 00000000 		.4byte	0
 4381              	.LLST30:
 4382 03ac 22000000 		.4byte	.LVL62
 4383 03b0 43000000 		.4byte	.LVL65-1
 4384 03b4 0100     		.2byte	0x1
 4385 03b6 53       		.byte	0x53
 4386 03b7 00000000 		.4byte	0
 4387 03bb 00000000 		.4byte	0
 4388              	.LLST31:
 4389 03bf 00000000 		.4byte	.LVL72
 4390 03c3 0F000000 		.4byte	.LVL73-1
 4391 03c7 0100     		.2byte	0x1
 4392 03c9 50       		.byte	0x50
 4393 03ca 0F000000 		.4byte	.LVL73-1
 4394 03ce 40000000 		.4byte	.LVL78
 4395 03d2 0100     		.2byte	0x1
 4396 03d4 55       		.byte	0x55
 4397 03d5 40000000 		.4byte	.LVL78
 4398 03d9 48000000 		.4byte	.LFE235
 4399 03dd 0400     		.2byte	0x4
 4400 03df F3       		.byte	0xf3
 4401 03e0 01       		.uleb128 0x1
 4402 03e1 50       		.byte	0x50
 4403 03e2 9F       		.byte	0x9f
 4404 03e3 00000000 		.4byte	0
 4405 03e7 00000000 		.4byte	0
 4406              	.LLST32:
 4407 03eb 00000000 		.4byte	.LVL72
 4408 03ef 0F000000 		.4byte	.LVL73-1
 4409 03f3 0100     		.2byte	0x1
 4410 03f5 51       		.byte	0x51
 4411 03f6 0F000000 		.4byte	.LVL73-1
 4412 03fa 1A000000 		.4byte	.LVL75
 4413 03fe 0100     		.2byte	0x1
ARM GAS  C:\Users\jo\AppData\Local\Temp\cc7FYMfi.s 			page 79


 4414 0400 54       		.byte	0x54
 4415 0401 1A000000 		.4byte	.LVL75
 4416 0405 48000000 		.4byte	.LFE235
 4417 0409 0400     		.2byte	0x4
 4418 040b F3       		.byte	0xf3
 4419 040c 01       		.uleb128 0x1
 4420 040d 51       		.byte	0x51
 4421 040e 9F       		.byte	0x9f
 4422 040f 00000000 		.4byte	0
 4423 0413 00000000 		.4byte	0
 4424              	.LLST33:
 4425 0417 1A000000 		.4byte	.LVL75
 4426 041b 1D000000 		.4byte	.LVL76-1
 4427 041f 0100     		.2byte	0x1
 4428 0421 50       		.byte	0x50
 4429 0422 1D000000 		.4byte	.LVL76-1
 4430 0426 40000000 		.4byte	.LVL78
 4431 042a 0100     		.2byte	0x1
 4432 042c 54       		.byte	0x54
 4433 042d 40000000 		.4byte	.LVL78
 4434 0431 48000000 		.4byte	.LFE235
 4435 0435 0100     		.2byte	0x1
 4436 0437 50       		.byte	0x50
 4437 0438 00000000 		.4byte	0
 4438 043c 00000000 		.4byte	0
 4439              		.section	.debug_aranges,"",%progbits
 4440 0000 5C000000 		.4byte	0x5c
 4441 0004 0200     		.2byte	0x2
 4442 0006 00000000 		.4byte	.Ldebug_info0
 4443 000a 04       		.byte	0x4
 4444 000b 00       		.byte	0
 4445 000c 0000     		.2byte	0
 4446 000e 0000     		.2byte	0
 4447 0010 00000000 		.4byte	.LFB228
 4448 0014 1C000000 		.4byte	.LFE228-.LFB228
 4449 0018 00000000 		.4byte	.LFB229
 4450 001c 5C000000 		.4byte	.LFE229-.LFB229
 4451 0020 00000000 		.4byte	.LFB230
 4452 0024 34000000 		.4byte	.LFE230-.LFB230
 4453 0028 00000000 		.4byte	.LFB232
 4454 002c 34000000 		.4byte	.LFE232-.LFB232
 4455 0030 00000000 		.4byte	.LFB231
 4456 0034 44000000 		.4byte	.LFE231-.LFB231
 4457 0038 00000000 		.4byte	.LFB234
 4458 003c 64000000 		.4byte	.LFE234-.LFB234
 4459 0040 00000000 		.4byte	.LFB233
 4460 0044 44000000 		.4byte	.LFE233-.LFB233
 4461 0048 00000000 		.4byte	.LFB236
 4462 004c 70000000 		.4byte	.LFE236-.LFB236
 4463 0050 00000000 		.4byte	.LFB235
 4464 0054 48000000 		.4byte	.LFE235-.LFB235
 4465 0058 00000000 		.4byte	0
 4466 005c 00000000 		.4byte	0
 4467              		.section	.debug_ranges,"",%progbits
 4468              	.Ldebug_ranges0:
 4469 0000 06000000 		.4byte	.LBB63
 4470 0004 0C000000 		.4byte	.LBE63
ARM GAS  C:\Users\jo\AppData\Local\Temp\cc7FYMfi.s 			page 80


 4471 0008 12000000 		.4byte	.LBB66
 4472 000c 1C000000 		.4byte	.LBE66
 4473 0010 00000000 		.4byte	0
 4474 0014 00000000 		.4byte	0
 4475 0018 16000000 		.4byte	.LBB88
 4476 001c 1A000000 		.4byte	.LBE88
 4477 0020 1C000000 		.4byte	.LBB91
 4478 0024 1E000000 		.4byte	.LBE91
 4479 0028 00000000 		.4byte	0
 4480 002c 00000000 		.4byte	0
 4481 0030 10000000 		.4byte	.LBB99
 4482 0034 1C000000 		.4byte	.LBE99
 4483 0038 20000000 		.4byte	.LBB104
 4484 003c 26000000 		.4byte	.LBE104
 4485 0040 00000000 		.4byte	0
 4486 0044 00000000 		.4byte	0
 4487 0048 10000000 		.4byte	.LBB100
 4488 004c 14000000 		.4byte	.LBE100
 4489 0050 16000000 		.4byte	.LBB103
 4490 0054 18000000 		.4byte	.LBE103
 4491 0058 00000000 		.4byte	0
 4492 005c 00000000 		.4byte	0
 4493 0060 0A000000 		.4byte	.LBB105
 4494 0064 0C000000 		.4byte	.LBE105
 4495 0068 20000000 		.4byte	.LBB110
 4496 006c 22000000 		.4byte	.LBE110
 4497 0070 00000000 		.4byte	0
 4498 0074 00000000 		.4byte	0
 4499 0078 02000000 		.4byte	.LBB121
 4500 007c 04000000 		.4byte	.LBE121
 4501 0080 06000000 		.4byte	.LBB130
 4502 0084 0E000000 		.4byte	.LBE130
 4503 0088 00000000 		.4byte	0
 4504 008c 00000000 		.4byte	0
 4505 0090 02000000 		.4byte	.LBB123
 4506 0094 04000000 		.4byte	.LBE123
 4507 0098 06000000 		.4byte	.LBB128
 4508 009c 0A000000 		.4byte	.LBE128
 4509 00a0 00000000 		.4byte	0
 4510 00a4 00000000 		.4byte	0
 4511 00a8 1E000000 		.4byte	.LBB138
 4512 00ac 36000000 		.4byte	.LBE138
 4513 00b0 38000000 		.4byte	.LBB141
 4514 00b4 3C000000 		.4byte	.LBE141
 4515 00b8 00000000 		.4byte	0
 4516 00bc 00000000 		.4byte	0
 4517 00c0 02000000 		.4byte	.LBB152
 4518 00c4 04000000 		.4byte	.LBE152
 4519 00c8 06000000 		.4byte	.LBB161
 4520 00cc 0E000000 		.4byte	.LBE161
 4521 00d0 00000000 		.4byte	0
 4522 00d4 00000000 		.4byte	0
 4523 00d8 02000000 		.4byte	.LBB154
 4524 00dc 04000000 		.4byte	.LBE154
 4525 00e0 06000000 		.4byte	.LBB159
 4526 00e4 0A000000 		.4byte	.LBE159
 4527 00e8 00000000 		.4byte	0
ARM GAS  C:\Users\jo\AppData\Local\Temp\cc7FYMfi.s 			page 81


 4528 00ec 00000000 		.4byte	0
 4529 00f0 1E000000 		.4byte	.LBB167
 4530 00f4 20000000 		.4byte	.LBE167
 4531 00f8 24000000 		.4byte	.LBB172
 4532 00fc 38000000 		.4byte	.LBE172
 4533 0100 3A000000 		.4byte	.LBB173
 4534 0104 3C000000 		.4byte	.LBE173
 4535 0108 3E000000 		.4byte	.LBB174
 4536 010c 40000000 		.4byte	.LBE174
 4537 0110 00000000 		.4byte	0
 4538 0114 00000000 		.4byte	0
 4539 0118 00000000 		.4byte	.LFB228
 4540 011c 1C000000 		.4byte	.LFE228
 4541 0120 00000000 		.4byte	.LFB229
 4542 0124 5C000000 		.4byte	.LFE229
 4543 0128 00000000 		.4byte	.LFB230
 4544 012c 34000000 		.4byte	.LFE230
 4545 0130 00000000 		.4byte	.LFB232
 4546 0134 34000000 		.4byte	.LFE232
 4547 0138 00000000 		.4byte	.LFB231
 4548 013c 44000000 		.4byte	.LFE231
 4549 0140 00000000 		.4byte	.LFB234
 4550 0144 64000000 		.4byte	.LFE234
 4551 0148 00000000 		.4byte	.LFB233
 4552 014c 44000000 		.4byte	.LFE233
 4553 0150 00000000 		.4byte	.LFB236
 4554 0154 70000000 		.4byte	.LFE236
 4555 0158 00000000 		.4byte	.LFB235
 4556 015c 48000000 		.4byte	.LFE235
 4557 0160 00000000 		.4byte	0
 4558 0164 00000000 		.4byte	0
 4559              		.section	.debug_line,"",%progbits
 4560              	.Ldebug_line0:
 4561 0000 97040000 		.section	.debug_str,"MS",%progbits,1
 4561      02001E02 
 4561      00000201 
 4561      FB0E0D00 
 4561      01010101 
 4562              	.LASF93:
 4563 0000 74625F70 		.ascii	"tb_ptr\000"
 4563      747200
 4564              	.LASF51:
 4565 0007 72656164 		.ascii	"ready_list_t\000"
 4565      795F6C69 
 4565      73745F74 
 4565      00
 4566              	.LASF87:
 4567 0014 73655F74 		.ascii	"se_time\000"
 4567      696D6500 
 4568              	.LASF101:
 4569 001c 77747472 		.ascii	"wttrp\000"
 4569      7000
 4570              	.LASF98:
 4571 0022 7264796D 		.ascii	"rdymsg\000"
 4571      736700
 4572              	.LASF16:
 4573 0029 75696E74 		.ascii	"uint64_t\000"
ARM GAS  C:\Users\jo\AppData\Local\Temp\cc7FYMfi.s 			page 82


 4573      36345F74 
 4573      00
 4574              	.LASF5:
 4575 0032 5F5F7569 		.ascii	"__uint8_t\000"
 4575      6E74385F 
 4575      7400
 4576              	.LASF86:
 4577 003c 706F7274 		.ascii	"port_intctx\000"
 4577      5F696E74 
 4577      63747800 
 4578              	.LASF70:
 4579 0048 73797374 		.ascii	"system_debug_t\000"
 4579      656D5F64 
 4579      65627567 
 4579      5F7400
 4580              	.LASF120:
 4581 0057 71756575 		.ascii	"queue_init\000"
 4581      655F696E 
 4581      697400
 4582              	.LASF152:
 4583 0062 63685363 		.ascii	"chSchGoSleepTimeoutS\000"
 4583      68476F53 
 4583      6C656570 
 4583      54696D65 
 4583      6F757453 
 4584              	.LASF117:
 4585 0077 706F7274 		.ascii	"port_lock\000"
 4585      5F6C6F63 
 4585      6B00
 4586              	.LASF144:
 4587 0081 63685379 		.ascii	"chSysHalt\000"
 4587      7348616C 
 4587      7400
 4588              	.LASF134:
 4589 008b 6368436F 		.ascii	"chCondBroadcastI\000"
 4589      6E644272 
 4589      6F616463 
 4589      61737449 
 4589      00
 4590              	.LASF12:
 4591 009c 6C6F6E67 		.ascii	"long long unsigned int\000"
 4591      206C6F6E 
 4591      6720756E 
 4591      7369676E 
 4591      65642069 
 4592              	.LASF95:
 4593 00b3 63685F74 		.ascii	"ch_trace_buffer_t\000"
 4593      72616365 
 4593      5F627566 
 4593      6665725F 
 4593      7400
 4594              	.LASF90:
 4595 00c5 73655F73 		.ascii	"se_state\000"
 4595      74617465 
 4595      00
 4596              	.LASF99:
 4597 00ce 65786974 		.ascii	"exitcode\000"
ARM GAS  C:\Users\jo\AppData\Local\Temp\cc7FYMfi.s 			page 83


 4597      636F6465 
 4597      00
 4598              	.LASF80:
 4599 00d7 6D61696E 		.ascii	"mainthread\000"
 4599      74687265 
 4599      616400
 4600              	.LASF67:
 4601 00e2 76697274 		.ascii	"virtual_timers_list_t\000"
 4601      75616C5F 
 4601      74696D65 
 4601      72735F6C 
 4601      6973745F 
 4602              	.LASF141:
 4603 00f8 49544D5F 		.ascii	"ITM_RxBuffer\000"
 4603      52784275 
 4603      66666572 
 4603      00
 4604              	.LASF50:
 4605 0105 63685F74 		.ascii	"ch_threads_queue\000"
 4605      68726561 
 4605      64735F71 
 4605      75657565 
 4605      00
 4606              	.LASF29:
 4607 0116 705F7072 		.ascii	"p_prio\000"
 4607      696F00
 4608              	.LASF155:
 4609 011d 433A5C55 		.ascii	"C:\\Users\\jo\\Documents\\GitHub\\ChibiOS\\demos\\S"
 4609      73657273 
 4609      5C6A6F5C 
 4609      446F6375 
 4609      6D656E74 
 4610 0149 544D3332 		.ascii	"TM32\\RT-STM32F407-DISCOVERY-uHttp\000"
 4610      5C52542D 
 4610      53544D33 
 4610      32463430 
 4610      372D4449 
 4611              	.LASF10:
 4612 016b 6C6F6E67 		.ascii	"long long int\000"
 4612      206C6F6E 
 4612      6720696E 
 4612      7400
 4613              	.LASF1:
 4614 0179 7369676E 		.ascii	"signed char\000"
 4614      65642063 
 4614      68617200 
 4615              	.LASF116:
 4616 0185 636F6E64 		.ascii	"condition_variable_t\000"
 4616      6974696F 
 4616      6E5F7661 
 4616      72696162 
 4616      6C655F74 
 4617              	.LASF44:
 4618 019a 705F6D70 		.ascii	"p_mpool\000"
 4618      6F6F6C00 
 4619              	.LASF109:
 4620 01a2 6D5F7175 		.ascii	"m_queue\000"
ARM GAS  C:\Users\jo\AppData\Local\Temp\cc7FYMfi.s 			page 84


 4620      65756500 
 4621              	.LASF79:
 4622 01aa 76746C69 		.ascii	"vtlist\000"
 4622      737400
 4623              	.LASF118:
 4624 01b1 706F7274 		.ascii	"port_unlock\000"
 4624      5F756E6C 
 4624      6F636B00 
 4625              	.LASF77:
 4626 01bd 63685F73 		.ascii	"ch_system\000"
 4626      79737465 
 4626      6D00
 4627              	.LASF7:
 4628 01c7 6C6F6E67 		.ascii	"long int\000"
 4628      20696E74 
 4628      00
 4629              	.LASF19:
 4630 01d0 74737461 		.ascii	"tstate_t\000"
 4630      74655F74 
 4630      00
 4631              	.LASF124:
 4632 01d9 71756575 		.ascii	"queue_notempty\000"
 4632      655F6E6F 
 4632      74656D70 
 4632      747900
 4633              	.LASF88:
 4634 01e8 73655F74 		.ascii	"se_tp\000"
 4634      7000
 4635              	.LASF151:
 4636 01ee 63684D74 		.ascii	"chMtxLockS\000"
 4636      784C6F63 
 4636      6B5300
 4637              	.LASF154:
 4638 01f9 2E2E2F2E 		.ascii	"../../../os/rt/src/chcond.c\000"
 4638      2E2F2E2E 
 4638      2F6F732F 
 4638      72742F73 
 4638      72632F63 
 4639              	.LASF31:
 4640 0215 705F6E65 		.ascii	"p_newer\000"
 4640      77657200 
 4641              	.LASF106:
 4642 021d 735F7175 		.ascii	"s_queue\000"
 4642      65756500 
 4643              	.LASF147:
 4644 0225 63685363 		.ascii	"chSchRescheduleS\000"
 4644      68526573 
 4644      63686564 
 4644      756C6553 
 4644      00
 4645              	.LASF92:
 4646 0236 74625F73 		.ascii	"tb_size\000"
 4646      697A6500 
 4647              	.LASF56:
 4648 023e 725F6E65 		.ascii	"r_newer\000"
 4648      77657200 
 4649              	.LASF83:
ARM GAS  C:\Users\jo\AppData\Local\Temp\cc7FYMfi.s 			page 85


 4650 0246 72656761 		.ascii	"regarm_t\000"
 4650      726D5F74 
 4650      00
 4651              	.LASF63:
 4652 024f 76745F70 		.ascii	"vt_prev\000"
 4652      72657600 
 4653              	.LASF71:
 4654 0257 63685F73 		.ascii	"ch_system_debug\000"
 4654      79737465 
 4654      6D5F6465 
 4654      62756700 
 4655              	.LASF113:
 4656 0267 6D757465 		.ascii	"mutex_t\000"
 4656      785F7400 
 4657              	.LASF121:
 4658 026f 76616C75 		.ascii	"value\000"
 4658      6500
 4659              	.LASF74:
 4660 0275 6C6F636B 		.ascii	"lock_cnt\000"
 4660      5F636E74 
 4660      00
 4661              	.LASF132:
 4662 027e 6368436F 		.ascii	"chCondSignal\000"
 4662      6E645369 
 4662      676E616C 
 4662      00
 4663              	.LASF81:
 4664 028b 69646C65 		.ascii	"idle_thread_wa\000"
 4664      5F746872 
 4664      6561645F 
 4664      776100
 4665              	.LASF24:
 4666 029a 636E745F 		.ascii	"cnt_t\000"
 4666      7400
 4667              	.LASF149:
 4668 02a0 63684D74 		.ascii	"chMtxUnlockS\000"
 4668      78556E6C 
 4668      6F636B53 
 4668      00
 4669              	.LASF0:
 4670 02ad 756E7369 		.ascii	"unsigned int\000"
 4670      676E6564 
 4670      20696E74 
 4670      00
 4671              	.LASF62:
 4672 02ba 76745F6E 		.ascii	"vt_next\000"
 4672      65787400 
 4673              	.LASF111:
 4674 02c2 6D5F6E65 		.ascii	"m_next\000"
 4674      787400
 4675              	.LASF102:
 4676 02c9 77747365 		.ascii	"wtsemp\000"
 4676      6D7000
 4677              	.LASF64:
 4678 02d0 76745F64 		.ascii	"vt_delta\000"
 4678      656C7461 
 4678      00
ARM GAS  C:\Users\jo\AppData\Local\Temp\cc7FYMfi.s 			page 86


 4679              	.LASF39:
 4680 02d9 705F6D73 		.ascii	"p_msgqueue\000"
 4680      67717565 
 4680      756500
 4681              	.LASF107:
 4682 02e4 735F636E 		.ascii	"s_cnt\000"
 4682      7400
 4683              	.LASF4:
 4684 02ea 73686F72 		.ascii	"short unsigned int\000"
 4684      7420756E 
 4684      7369676E 
 4684      65642069 
 4684      6E7400
 4685              	.LASF47:
 4686 02fd 63685F74 		.ascii	"ch_thread\000"
 4686      68726561 
 4686      6400
 4687              	.LASF145:
 4688 0307 63685363 		.ascii	"chSchWakeupS\000"
 4688      6857616B 
 4688      65757053 
 4688      00
 4689              	.LASF22:
 4690 0314 6D73675F 		.ascii	"msg_t\000"
 4690      7400
 4691              	.LASF146:
 4692 031a 63684462 		.ascii	"chDbgCheckClassI\000"
 4692      67436865 
 4692      636B436C 
 4692      61737349 
 4692      00
 4693              	.LASF76:
 4694 032b 63685F73 		.ascii	"ch_system_t\000"
 4694      79737465 
 4694      6D5F7400 
 4695              	.LASF18:
 4696 0337 746D6F64 		.ascii	"tmode_t\000"
 4696      655F7400 
 4697              	.LASF148:
 4698 033f 63684462 		.ascii	"chDbgCheckClassS\000"
 4698      67436865 
 4698      636B436C 
 4698      61737353 
 4698      00
 4699              	.LASF52:
 4700 0350 63685F72 		.ascii	"ch_ready_list\000"
 4700      65616479 
 4700      5F6C6973 
 4700      7400
 4701              	.LASF23:
 4702 035e 6576656E 		.ascii	"eventmask_t\000"
 4702      746D6173 
 4702      6B5F7400 
 4703              	.LASF6:
 4704 036a 5F5F696E 		.ascii	"__int32_t\000"
 4704      7433325F 
 4704      7400
ARM GAS  C:\Users\jo\AppData\Local\Temp\cc7FYMfi.s 			page 87


 4705              	.LASF153:
 4706 0374 474E5520 		.ascii	"GNU C 4.9.3 20141119 (release) [ARM/embedded-4_9-br"
 4706      4320342E 
 4706      392E3320 
 4706      32303134 
 4706      31313139 
 4707 03a7 616E6368 		.ascii	"anch revision 218278] -mcpu=cortex-m4 -mno-thumb-in"
 4707      20726576 
 4707      6973696F 
 4707      6E203231 
 4707      38323738 
 4708 03da 74657277 		.ascii	"terwork -mthumb -ggdb -O2 -fomit-frame-pointer -fal"
 4708      6F726B20 
 4708      2D6D7468 
 4708      756D6220 
 4708      2D676764 
 4709 040d 69676E2D 		.ascii	"ign-functions=16 -ffunction-sections -fdata-section"
 4709      66756E63 
 4709      74696F6E 
 4709      733D3136 
 4709      202D6666 
 4710 0440 73202D66 		.ascii	"s -fno-common\000"
 4710      6E6F2D63 
 4710      6F6D6D6F 
 4710      6E00
 4711              	.LASF84:
 4712 044e 73746B61 		.ascii	"stkalign_t\000"
 4712      6C69676E 
 4712      5F7400
 4713              	.LASF38:
 4714 0459 705F7761 		.ascii	"p_waiting\000"
 4714      6974696E 
 4714      6700
 4715              	.LASF82:
 4716 0463 73697A65 		.ascii	"sizetype\000"
 4716      74797065 
 4716      00
 4717              	.LASF45:
 4718 046c 74687265 		.ascii	"thread_reference_t\000"
 4718      61645F72 
 4718      65666572 
 4718      656E6365 
 4718      5F7400
 4719              	.LASF142:
 4720 047f 5F646267 		.ascii	"_dbg_check_lock\000"
 4720      5F636865 
 4720      636B5F6C 
 4720      6F636B00 
 4721              	.LASF68:
 4722 048f 63685F76 		.ascii	"ch_virtual_timers_list\000"
 4722      69727475 
 4722      616C5F74 
 4722      696D6572 
 4722      735F6C69 
 4723              	.LASF114:
 4724 04a6 636F6E64 		.ascii	"condition_variable\000"
 4724      6974696F 
ARM GAS  C:\Users\jo\AppData\Local\Temp\cc7FYMfi.s 			page 88


 4724      6E5F7661 
 4724      72696162 
 4724      6C6500
 4725              	.LASF138:
 4726 04b9 6368436F 		.ascii	"chCondWaitTimeoutS\000"
 4726      6E645761 
 4726      69745469 
 4726      6D656F75 
 4726      745300
 4727              	.LASF91:
 4728 04cc 63685F73 		.ascii	"ch_swc_event_t\000"
 4728      77635F65 
 4728      76656E74 
 4728      5F7400
 4729              	.LASF69:
 4730 04db 76745F6C 		.ascii	"vt_lasttime\000"
 4730      61737474 
 4730      696D6500 
 4731              	.LASF32:
 4732 04e7 705F6F6C 		.ascii	"p_older\000"
 4732      64657200 
 4733              	.LASF55:
 4734 04ef 725F6374 		.ascii	"r_ctx\000"
 4734      7800
 4735              	.LASF97:
 4736 04f5 746D5F63 		.ascii	"tm_calibration_t\000"
 4736      616C6962 
 4736      72617469 
 4736      6F6E5F74 
 4736      00
 4737              	.LASF34:
 4738 0506 705F7374 		.ascii	"p_stklimit\000"
 4738      6B6C696D 
 4738      697400
 4739              	.LASF139:
 4740 0511 74696D65 		.ascii	"time\000"
 4740      00
 4741              	.LASF58:
 4742 0516 725F6375 		.ascii	"r_current\000"
 4742      7272656E 
 4742      7400
 4743              	.LASF57:
 4744 0520 725F6F6C 		.ascii	"r_older\000"
 4744      64657200 
 4745              	.LASF135:
 4746 0528 6368436F 		.ascii	"chCondBroadcast\000"
 4746      6E644272 
 4746      6F616463 
 4746      61737400 
 4747              	.LASF11:
 4748 0538 5F5F7569 		.ascii	"__uint64_t\000"
 4748      6E743634 
 4748      5F7400
 4749              	.LASF20:
 4750 0543 74726566 		.ascii	"trefs_t\000"
 4750      735F7400 
 4751              	.LASF94:
ARM GAS  C:\Users\jo\AppData\Local\Temp\cc7FYMfi.s 			page 89


 4752 054b 74625F62 		.ascii	"tb_buffer\000"
 4752      75666665 
 4752      7200
 4753              	.LASF60:
 4754 0555 76697274 		.ascii	"virtual_timer_t\000"
 4754      75616C5F 
 4754      74696D65 
 4754      725F7400 
 4755              	.LASF28:
 4756 0565 705F7072 		.ascii	"p_prev\000"
 4756      657600
 4757              	.LASF21:
 4758 056c 74707269 		.ascii	"tprio_t\000"
 4758      6F5F7400 
 4759              	.LASF133:
 4760 0574 6368436F 		.ascii	"chCondSignalI\000"
 4760      6E645369 
 4760      676E616C 
 4760      4900
 4761              	.LASF123:
 4762 0582 5F426F6F 		.ascii	"_Bool\000"
 4762      6C00
 4763              	.LASF14:
 4764 0588 696E7433 		.ascii	"int32_t\000"
 4764      325F7400 
 4765              	.LASF2:
 4766 0590 756E7369 		.ascii	"unsigned char\000"
 4766      676E6564 
 4766      20636861 
 4766      7200
 4767              	.LASF42:
 4768 059e 705F6D74 		.ascii	"p_mtxlist\000"
 4768      786C6973 
 4768      7400
 4769              	.LASF3:
 4770 05a8 73686F72 		.ascii	"short int\000"
 4770      7420696E 
 4770      7400
 4771              	.LASF35:
 4772 05b2 705F7374 		.ascii	"p_state\000"
 4772      61746500 
 4773              	.LASF54:
 4774 05ba 725F7072 		.ascii	"r_prio\000"
 4774      696F00
 4775              	.LASF104:
 4776 05c1 65776D61 		.ascii	"ewmask\000"
 4776      736B00
 4777              	.LASF27:
 4778 05c8 705F6E65 		.ascii	"p_next\000"
 4778      787400
 4779              	.LASF36:
 4780 05cf 705F666C 		.ascii	"p_flags\000"
 4780      61677300 
 4781              	.LASF129:
 4782 05d7 5F5F6675 		.ascii	"__func__\000"
 4782      6E635F5F 
 4782      00
ARM GAS  C:\Users\jo\AppData\Local\Temp\cc7FYMfi.s 			page 90


 4783              	.LASF122:
 4784 05e0 63685379 		.ascii	"chSysLock\000"
 4784      734C6F63 
 4784      6B00
 4785              	.LASF61:
 4786 05ea 63685F76 		.ascii	"ch_virtual_timer\000"
 4786      69727475 
 4786      616C5F74 
 4786      696D6572 
 4786      00
 4787              	.LASF115:
 4788 05fb 635F7175 		.ascii	"c_queue\000"
 4788      65756500 
 4789              	.LASF105:
 4790 0603 63685F73 		.ascii	"ch_semaphore\000"
 4790      656D6170 
 4790      686F7265 
 4790      00
 4791              	.LASF150:
 4792 0610 63685363 		.ascii	"chSchGoSleepS\000"
 4792      68476F53 
 4792      6C656570 
 4792      5300
 4793              	.LASF41:
 4794 061e 705F6570 		.ascii	"p_epending\000"
 4794      656E6469 
 4794      6E6700
 4795              	.LASF127:
 4796 0629 63684D74 		.ascii	"chMtxGetNextMutexS\000"
 4796      78476574 
 4796      4E657874 
 4796      4D757465 
 4796      785300
 4797              	.LASF15:
 4798 063c 75696E74 		.ascii	"uint32_t\000"
 4798      33325F74 
 4798      00
 4799              	.LASF103:
 4800 0645 77746D74 		.ascii	"wtmtxp\000"
 4800      787000
 4801              	.LASF53:
 4802 064c 725F7175 		.ascii	"r_queue\000"
 4802      65756500 
 4803              	.LASF156:
 4804 0654 63685363 		.ascii	"chSchReadyI\000"
 4804      68526561 
 4804      64794900 
 4805              	.LASF48:
 4806 0660 63685F74 		.ascii	"ch_threads_list\000"
 4806      68726561 
 4806      64735F6C 
 4806      69737400 
 4807              	.LASF9:
 4808 0670 6C6F6E67 		.ascii	"long unsigned int\000"
 4808      20756E73 
 4808      69676E65 
 4808      6420696E 
ARM GAS  C:\Users\jo\AppData\Local\Temp\cc7FYMfi.s 			page 91


 4808      7400
 4809              	.LASF112:
 4810 0682 63686172 		.ascii	"char\000"
 4810      00
 4811              	.LASF136:
 4812 0687 6368436F 		.ascii	"chCondWaitS\000"
 4812      6E645761 
 4812      69745300 
 4813              	.LASF131:
 4814 0693 6368436F 		.ascii	"chCondObjectInit\000"
 4814      6E644F62 
 4814      6A656374 
 4814      496E6974 
 4814      00
 4815              	.LASF125:
 4816 06a4 71756575 		.ascii	"queue_fifo_remove\000"
 4816      655F6669 
 4816      666F5F72 
 4816      656D6F76 
 4816      6500
 4817              	.LASF25:
 4818 06b6 73797374 		.ascii	"systime_t\000"
 4818      696D655F 
 4818      7400
 4819              	.LASF43:
 4820 06c0 705F7265 		.ascii	"p_realprio\000"
 4820      616C7072 
 4820      696F00
 4821              	.LASF59:
 4822 06cb 76746675 		.ascii	"vtfunc_t\000"
 4822      6E635F74 
 4822      00
 4823              	.LASF8:
 4824 06d4 5F5F7569 		.ascii	"__uint32_t\000"
 4824      6E743332 
 4824      5F7400
 4825              	.LASF119:
 4826 06df 5F5F7365 		.ascii	"__set_BASEPRI\000"
 4826      745F4241 
 4826      53455052 
 4826      4900
 4827              	.LASF72:
 4828 06ed 70616E69 		.ascii	"panic_msg\000"
 4828      635F6D73 
 4828      6700
 4829              	.LASF96:
 4830 06f7 6F666673 		.ascii	"offset\000"
 4830      657400
 4831              	.LASF85:
 4832 06fe 636F6E74 		.ascii	"context\000"
 4832      65787400 
 4833              	.LASF17:
 4834 0706 7274636E 		.ascii	"rtcnt_t\000"
 4834      745F7400 
 4835              	.LASF137:
 4836 070e 6368436F 		.ascii	"chCondWait\000"
 4836      6E645761 
ARM GAS  C:\Users\jo\AppData\Local\Temp\cc7FYMfi.s 			page 92


 4836      697400
 4837              	.LASF66:
 4838 0719 76745F70 		.ascii	"vt_par\000"
 4838      617200
 4839              	.LASF49:
 4840 0720 74687265 		.ascii	"threads_queue_t\000"
 4840      6164735F 
 4840      71756575 
 4840      655F7400 
 4841              	.LASF108:
 4842 0730 63685F6D 		.ascii	"ch_mutex\000"
 4842      75746578 
 4842      00
 4843              	.LASF37:
 4844 0739 705F7265 		.ascii	"p_refs\000"
 4844      667300
 4845              	.LASF73:
 4846 0740 6973725F 		.ascii	"isr_cnt\000"
 4846      636E7400 
 4847              	.LASF26:
 4848 0748 74687265 		.ascii	"thread_t\000"
 4848      61645F74 
 4848      00
 4849              	.LASF78:
 4850 0751 726C6973 		.ascii	"rlist\000"
 4850      7400
 4851              	.LASF126:
 4852 0757 63685468 		.ascii	"chThdGetSelfX\000"
 4852      64476574 
 4852      53656C66 
 4852      5800
 4853              	.LASF13:
 4854 0765 75696E74 		.ascii	"uint8_t\000"
 4854      385F7400 
 4855              	.LASF143:
 4856 076d 5F646267 		.ascii	"_dbg_check_unlock\000"
 4856      5F636865 
 4856      636B5F75 
 4856      6E6C6F63 
 4856      6B00
 4857              	.LASF100:
 4858 077f 77746F62 		.ascii	"wtobjp\000"
 4858      6A7000
 4859              	.LASF33:
 4860 0786 705F6E61 		.ascii	"p_name\000"
 4860      6D6500
 4861              	.LASF140:
 4862 078d 6368436F 		.ascii	"chCondWaitTimeout\000"
 4862      6E645761 
 4862      69745469 
 4862      6D656F75 
 4862      7400
 4863              	.LASF46:
 4864 079f 74687265 		.ascii	"threads_list_t\000"
 4864      6164735F 
 4864      6C697374 
 4864      5F7400
ARM GAS  C:\Users\jo\AppData\Local\Temp\cc7FYMfi.s 			page 93


 4865              	.LASF75:
 4866 07ae 74726163 		.ascii	"trace_buffer\000"
 4866      655F6275 
 4866      66666572 
 4866      00
 4867              	.LASF130:
 4868 07bb 63685379 		.ascii	"chSysUnlock\000"
 4868      73556E6C 
 4868      6F636B00 
 4869              	.LASF40:
 4870 07c7 705F6D73 		.ascii	"p_msg\000"
 4870      6700
 4871              	.LASF128:
 4872 07cd 71756575 		.ascii	"queue_prio_insert\000"
 4872      655F7072 
 4872      696F5F69 
 4872      6E736572 
 4872      7400
 4873              	.LASF110:
 4874 07df 6D5F6F77 		.ascii	"m_owner\000"
 4874      6E657200 
 4875              	.LASF89:
 4876 07e7 73655F77 		.ascii	"se_wtobjp\000"
 4876      746F626A 
 4876      7000
 4877              	.LASF30:
 4878 07f1 705F6374 		.ascii	"p_ctx\000"
 4878      7800
 4879              	.LASF65:
 4880 07f7 76745F66 		.ascii	"vt_func\000"
 4880      756E6300 
 4881              		.ident	"GCC: (GNU Tools for ARM Embedded Processors) 4.9.3 20141119 (release) [ARM/embedded-4_9-br
ARM GAS  C:\Users\jo\AppData\Local\Temp\cc7FYMfi.s 			page 94


DEFINED SYMBOLS
                            *ABS*:00000000 chcond.c
C:\Users\jo\AppData\Local\Temp\cc7FYMfi.s:19     .text.chCondObjectInit:00000000 $t
C:\Users\jo\AppData\Local\Temp\cc7FYMfi.s:25     .text.chCondObjectInit:00000000 chCondObjectInit
C:\Users\jo\AppData\Local\Temp\cc7FYMfi.s:69     .text.chCondObjectInit:00000018 $d
C:\Users\jo\AppData\Local\Temp\cc7FYMfi.s:76     .text.chCondSignal:00000000 $t
C:\Users\jo\AppData\Local\Temp\cc7FYMfi.s:82     .text.chCondSignal:00000000 chCondSignal
C:\Users\jo\AppData\Local\Temp\cc7FYMfi.s:193    .text.chCondSignal:00000050 $d
C:\Users\jo\AppData\Local\Temp\cc7FYMfi.s:200    .text.chCondSignalI:00000000 $t
C:\Users\jo\AppData\Local\Temp\cc7FYMfi.s:206    .text.chCondSignalI:00000000 chCondSignalI
C:\Users\jo\AppData\Local\Temp\cc7FYMfi.s:282    .text.chCondSignalI:00000030 $d
C:\Users\jo\AppData\Local\Temp\cc7FYMfi.s:287    .text.chCondBroadcastI:00000000 $t
C:\Users\jo\AppData\Local\Temp\cc7FYMfi.s:293    .text.chCondBroadcastI:00000000 chCondBroadcastI
C:\Users\jo\AppData\Local\Temp\cc7FYMfi.s:363    .text.chCondBroadcastI:00000030 $d
C:\Users\jo\AppData\Local\Temp\cc7FYMfi.s:368    .text.chCondBroadcast:00000000 $t
C:\Users\jo\AppData\Local\Temp\cc7FYMfi.s:374    .text.chCondBroadcast:00000000 chCondBroadcast
C:\Users\jo\AppData\Local\Temp\cc7FYMfi.s:457    .text.chCondBroadcast:0000003c $d
C:\Users\jo\AppData\Local\Temp\cc7FYMfi.s:468    .text.chCondWaitS:00000000 $t
C:\Users\jo\AppData\Local\Temp\cc7FYMfi.s:474    .text.chCondWaitS:00000000 chCondWaitS
C:\Users\jo\AppData\Local\Temp\cc7FYMfi.s:585    .text.chCondWaitS:0000005c $d
C:\Users\jo\AppData\Local\Temp\cc7FYMfi.s:591    .text.chCondWait:00000000 $t
C:\Users\jo\AppData\Local\Temp\cc7FYMfi.s:597    .text.chCondWait:00000000 chCondWait
C:\Users\jo\AppData\Local\Temp\cc7FYMfi.s:686    .text.chCondWait:0000003c $d
C:\Users\jo\AppData\Local\Temp\cc7FYMfi.s:692    .text.chCondWaitTimeoutS:00000000 $t
C:\Users\jo\AppData\Local\Temp\cc7FYMfi.s:698    .text.chCondWaitTimeoutS:00000000 chCondWaitTimeoutS
C:\Users\jo\AppData\Local\Temp\cc7FYMfi.s:823    .text.chCondWaitTimeoutS:00000068 $d
C:\Users\jo\AppData\Local\Temp\cc7FYMfi.s:829    .text.chCondWaitTimeout:00000000 $t
C:\Users\jo\AppData\Local\Temp\cc7FYMfi.s:835    .text.chCondWaitTimeout:00000000 chCondWaitTimeout
C:\Users\jo\AppData\Local\Temp\cc7FYMfi.s:917    .text.chCondWaitTimeout:00000040 $d
C:\Users\jo\AppData\Local\Temp\cc7FYMfi.s:923    .rodata.__func__.6576:00000000 $d
C:\Users\jo\AppData\Local\Temp\cc7FYMfi.s:927    .rodata.__func__.6576:00000000 __func__.6576
C:\Users\jo\AppData\Local\Temp\cc7FYMfi.s:930    .rodata.__func__.6550:00000000 $d
C:\Users\jo\AppData\Local\Temp\cc7FYMfi.s:934    .rodata.__func__.6550:00000000 __func__.6550
C:\Users\jo\AppData\Local\Temp\cc7FYMfi.s:937    .rodata.__func__.6546:00000000 $d
C:\Users\jo\AppData\Local\Temp\cc7FYMfi.s:941    .rodata.__func__.6546:00000000 __func__.6546
C:\Users\jo\AppData\Local\Temp\cc7FYMfi.s:944    .rodata.__func__.6554:00000000 $d
C:\Users\jo\AppData\Local\Temp\cc7FYMfi.s:948    .rodata.__func__.6554:00000000 __func__.6554
C:\Users\jo\AppData\Local\Temp\cc7FYMfi.s:951    .rodata.__func__.6562:00000000 $d
C:\Users\jo\AppData\Local\Temp\cc7FYMfi.s:955    .rodata.__func__.6562:00000000 __func__.6562
C:\Users\jo\AppData\Local\Temp\cc7FYMfi.s:958    .rodata.__func__.5854:00000000 $d
C:\Users\jo\AppData\Local\Temp\cc7FYMfi.s:962    .rodata.__func__.5854:00000000 __func__.5854
C:\Users\jo\AppData\Local\Temp\cc7FYMfi.s:965    .rodata.__func__.6588:00000000 $d
C:\Users\jo\AppData\Local\Temp\cc7FYMfi.s:969    .rodata.__func__.6588:00000000 __func__.6588
                     .debug_frame:00000010 $d
C:\Users\jo\AppData\Local\Temp\cc7FYMfi.s:75     .text.chCondObjectInit:0000001c $t
C:\Users\jo\AppData\Local\Temp\cc7FYMfi.s:199    .text.chCondSignal:0000005c $t
C:\Users\jo\AppData\Local\Temp\cc7FYMfi.s:286    .text.chCondSignalI:00000034 $t
C:\Users\jo\AppData\Local\Temp\cc7FYMfi.s:367    .text.chCondBroadcastI:00000034 $t
C:\Users\jo\AppData\Local\Temp\cc7FYMfi.s:467    .text.chCondBroadcast:00000044 $t
C:\Users\jo\AppData\Local\Temp\cc7FYMfi.s:590    .text.chCondWaitS:00000064 $t
C:\Users\jo\AppData\Local\Temp\cc7FYMfi.s:691    .text.chCondWait:00000044 $t
C:\Users\jo\AppData\Local\Temp\cc7FYMfi.s:922    .text.chCondWaitTimeout:00000048 $t

UNDEFINED SYMBOLS
chSysHalt
_dbg_check_lock
chSchWakeupS
ARM GAS  C:\Users\jo\AppData\Local\Temp\cc7FYMfi.s 			page 95


_dbg_check_unlock
ch
chDbgCheckClassI
chSchReadyI
chSchRescheduleS
chDbgCheckClassS
chMtxUnlockS
chSchGoSleepS
chMtxLockS
chSchGoSleepTimeoutS
