ARM GAS  C:\Users\jo\AppData\Local\Temp\ccT3NT9r.s 			page 1


   1              		.syntax unified
   2              		.cpu cortex-m4
   3              		.fpu softvfp
   4              		.eabi_attribute 20, 1
   5              		.eabi_attribute 21, 1
   6              		.eabi_attribute 23, 3
   7              		.eabi_attribute 24, 1
   8              		.eabi_attribute 25, 1
   9              		.eabi_attribute 26, 1
  10              		.eabi_attribute 30, 2
  11              		.eabi_attribute 34, 1
  12              		.eabi_attribute 18, 4
  13              		.thumb
  14              		.file	"chdebug.c"
  15              		.text
  16              	.Ltext0:
  17              		.cfi_sections	.debug_frame
  18              		.section	.text._dbg_check_disable,"ax",%progbits
  19              		.align	2
  20              		.p2align 4,,15
  21              		.global	_dbg_check_disable
  22              		.thumb
  23              		.thumb_func
  24              		.type	_dbg_check_disable, %function
  25              	_dbg_check_disable:
  26              	.LFB228:
  27              		.file 1 "../../../os/rt/src/chdebug.c"
  28              		.loc 1 114 0
  29              		.cfi_startproc
  30              		@ args = 0, pretend = 0, frame = 0
  31              		@ frame_needed = 0, uses_anonymous_args = 0
  32              		@ link register save eliminated.
  33              		.loc 1 116 0
  34 0000 044B     		ldr	r3, .L5
  35 0002 1A6B     		ldr	r2, [r3, #48]
  36 0004 0AB9     		cbnz	r2, .L2
  37              		.loc 1 116 0 is_stmt 0 discriminator 1
  38 0006 5B6B     		ldr	r3, [r3, #52]
  39 0008 13B1     		cbz	r3, .L1
  40              	.L2:
  41              		.loc 1 117 0 is_stmt 1
  42 000a 0348     		ldr	r0, .L5+4
  43 000c FFF7FEBF 		b	chSysHalt
  44              	.LVL0:
  45              	.L1:
  46 0010 7047     		bx	lr
  47              	.L6:
  48 0012 00BF     		.align	2
  49              	.L5:
  50 0014 00000000 		.word	ch
  51 0018 00000000 		.word	.LC0
  52              		.cfi_endproc
  53              	.LFE228:
  54              		.size	_dbg_check_disable, .-_dbg_check_disable
  55 001c AFF30080 		.section	.text._dbg_check_suspend,"ax",%progbits
  56              		.align	2
  57              		.p2align 4,,15
ARM GAS  C:\Users\jo\AppData\Local\Temp\ccT3NT9r.s 			page 2


  58              		.global	_dbg_check_suspend
  59              		.thumb
  60              		.thumb_func
  61              		.type	_dbg_check_suspend, %function
  62              	_dbg_check_suspend:
  63              	.LFB229:
  64              		.loc 1 126 0
  65              		.cfi_startproc
  66              		@ args = 0, pretend = 0, frame = 0
  67              		@ frame_needed = 0, uses_anonymous_args = 0
  68              		@ link register save eliminated.
  69              		.loc 1 128 0
  70 0000 044B     		ldr	r3, .L10
  71 0002 1A6B     		ldr	r2, [r3, #48]
  72 0004 0AB9     		cbnz	r2, .L8
  73              		.loc 1 128 0 is_stmt 0 discriminator 1
  74 0006 5B6B     		ldr	r3, [r3, #52]
  75 0008 13B1     		cbz	r3, .L7
  76              	.L8:
  77              		.loc 1 129 0 is_stmt 1
  78 000a 0348     		ldr	r0, .L10+4
  79 000c FFF7FEBF 		b	chSysHalt
  80              	.LVL1:
  81              	.L7:
  82 0010 7047     		bx	lr
  83              	.L11:
  84 0012 00BF     		.align	2
  85              	.L10:
  86 0014 00000000 		.word	ch
  87 0018 08000000 		.word	.LC1
  88              		.cfi_endproc
  89              	.LFE229:
  90              		.size	_dbg_check_suspend, .-_dbg_check_suspend
  91 001c AFF30080 		.section	.text._dbg_check_enable,"ax",%progbits
  92              		.align	2
  93              		.p2align 4,,15
  94              		.global	_dbg_check_enable
  95              		.thumb
  96              		.thumb_func
  97              		.type	_dbg_check_enable, %function
  98              	_dbg_check_enable:
  99              	.LFB230:
 100              		.loc 1 138 0
 101              		.cfi_startproc
 102              		@ args = 0, pretend = 0, frame = 0
 103              		@ frame_needed = 0, uses_anonymous_args = 0
 104              		@ link register save eliminated.
 105              		.loc 1 140 0
 106 0000 044B     		ldr	r3, .L15
 107 0002 1A6B     		ldr	r2, [r3, #48]
 108 0004 0AB9     		cbnz	r2, .L13
 109              		.loc 1 140 0 is_stmt 0 discriminator 1
 110 0006 5B6B     		ldr	r3, [r3, #52]
 111 0008 13B1     		cbz	r3, .L12
 112              	.L13:
 113              		.loc 1 141 0 is_stmt 1
 114 000a 0348     		ldr	r0, .L15+4
ARM GAS  C:\Users\jo\AppData\Local\Temp\ccT3NT9r.s 			page 3


 115 000c FFF7FEBF 		b	chSysHalt
 116              	.LVL2:
 117              	.L12:
 118 0010 7047     		bx	lr
 119              	.L16:
 120 0012 00BF     		.align	2
 121              	.L15:
 122 0014 00000000 		.word	ch
 123 0018 10000000 		.word	.LC2
 124              		.cfi_endproc
 125              	.LFE230:
 126              		.size	_dbg_check_enable, .-_dbg_check_enable
 127 001c AFF30080 		.section	.text._dbg_check_lock,"ax",%progbits
 128              		.align	2
 129              		.p2align 4,,15
 130              		.global	_dbg_check_lock
 131              		.thumb
 132              		.thumb_func
 133              		.type	_dbg_check_lock, %function
 134              	_dbg_check_lock:
 135              	.LFB231:
 136              		.loc 1 150 0
 137              		.cfi_startproc
 138              		@ args = 0, pretend = 0, frame = 0
 139              		@ frame_needed = 0, uses_anonymous_args = 0
 140 0000 10B5     		push	{r4, lr}
 141              		.cfi_def_cfa_offset 8
 142              		.cfi_offset 4, -8
 143              		.cfi_offset 14, -4
 144              		.loc 1 152 0
 145 0002 054C     		ldr	r4, .L24
 146 0004 236B     		ldr	r3, [r4, #48]
 147 0006 0BB9     		cbnz	r3, .L18
 148              		.loc 1 152 0 is_stmt 0 discriminator 1
 149 0008 636B     		ldr	r3, [r4, #52]
 150 000a 13B1     		cbz	r3, .L19
 151              	.L18:
 152              		.loc 1 153 0 is_stmt 1
 153 000c 0348     		ldr	r0, .L24+4
 154 000e FFF7FEFF 		bl	chSysHalt
 155              	.LVL3:
 156              	.L19:
 157              		.loc 1 155 0
 158 0012 0123     		movs	r3, #1
 159 0014 6363     		str	r3, [r4, #52]
 160 0016 10BD     		pop	{r4, pc}
 161              	.L25:
 162              		.align	2
 163              	.L24:
 164 0018 00000000 		.word	ch
 165 001c 18000000 		.word	.LC3
 166              		.cfi_endproc
 167              	.LFE231:
 168              		.size	_dbg_check_lock, .-_dbg_check_lock
 169              		.section	.text._dbg_check_unlock,"ax",%progbits
 170              		.align	2
 171              		.p2align 4,,15
ARM GAS  C:\Users\jo\AppData\Local\Temp\ccT3NT9r.s 			page 4


 172              		.global	_dbg_check_unlock
 173              		.thumb
 174              		.thumb_func
 175              		.type	_dbg_check_unlock, %function
 176              	_dbg_check_unlock:
 177              	.LFB232:
 178              		.loc 1 163 0
 179              		.cfi_startproc
 180              		@ args = 0, pretend = 0, frame = 0
 181              		@ frame_needed = 0, uses_anonymous_args = 0
 182 0000 10B5     		push	{r4, lr}
 183              		.cfi_def_cfa_offset 8
 184              		.cfi_offset 4, -8
 185              		.cfi_offset 14, -4
 186              		.loc 1 165 0
 187 0002 074C     		ldr	r4, .L30
 188 0004 236B     		ldr	r3, [r4, #48]
 189 0006 2BB9     		cbnz	r3, .L27
 190              		.loc 1 165 0 is_stmt 0 discriminator 1
 191 0008 636B     		ldr	r3, [r4, #52]
 192 000a 002B     		cmp	r3, #0
 193 000c 02DD     		ble	.L27
 194              		.loc 1 168 0 is_stmt 1
 195 000e 0023     		movs	r3, #0
 196 0010 6363     		str	r3, [r4, #52]
 197 0012 10BD     		pop	{r4, pc}
 198              	.L27:
 199              		.loc 1 166 0
 200 0014 0348     		ldr	r0, .L30+4
 201 0016 FFF7FEFF 		bl	chSysHalt
 202              	.LVL4:
 203              		.loc 1 168 0
 204 001a 0023     		movs	r3, #0
 205 001c 6363     		str	r3, [r4, #52]
 206 001e 10BD     		pop	{r4, pc}
 207              	.L31:
 208              		.align	2
 209              	.L30:
 210 0020 00000000 		.word	ch
 211 0024 20000000 		.word	.LC4
 212              		.cfi_endproc
 213              	.LFE232:
 214              		.size	_dbg_check_unlock, .-_dbg_check_unlock
 215 0028 AFF30080 		.section	.text._dbg_check_lock_from_isr,"ax",%progbits
 215      AFF30080 
 216              		.align	2
 217              		.p2align 4,,15
 218              		.global	_dbg_check_lock_from_isr
 219              		.thumb
 220              		.thumb_func
 221              		.type	_dbg_check_lock_from_isr, %function
 222              	_dbg_check_lock_from_isr:
 223              	.LFB233:
 224              		.loc 1 176 0
 225              		.cfi_startproc
 226              		@ args = 0, pretend = 0, frame = 0
 227              		@ frame_needed = 0, uses_anonymous_args = 0
ARM GAS  C:\Users\jo\AppData\Local\Temp\ccT3NT9r.s 			page 5


 228 0000 10B5     		push	{r4, lr}
 229              		.cfi_def_cfa_offset 8
 230              		.cfi_offset 4, -8
 231              		.cfi_offset 14, -4
 232              		.loc 1 178 0
 233 0002 064C     		ldr	r4, .L39
 234 0004 236B     		ldr	r3, [r4, #48]
 235 0006 002B     		cmp	r3, #0
 236 0008 01DD     		ble	.L33
 237              		.loc 1 178 0 is_stmt 0 discriminator 1
 238 000a 636B     		ldr	r3, [r4, #52]
 239 000c 13B1     		cbz	r3, .L34
 240              	.L33:
 241              		.loc 1 179 0 is_stmt 1
 242 000e 0448     		ldr	r0, .L39+4
 243 0010 FFF7FEFF 		bl	chSysHalt
 244              	.LVL5:
 245              	.L34:
 246              		.loc 1 181 0
 247 0014 0123     		movs	r3, #1
 248 0016 6363     		str	r3, [r4, #52]
 249 0018 10BD     		pop	{r4, pc}
 250              	.L40:
 251 001a 00BF     		.align	2
 252              	.L39:
 253 001c 00000000 		.word	ch
 254 0020 28000000 		.word	.LC5
 255              		.cfi_endproc
 256              	.LFE233:
 257              		.size	_dbg_check_lock_from_isr, .-_dbg_check_lock_from_isr
 258 0024 AFF30080 		.section	.text._dbg_check_unlock_from_isr,"ax",%progbits
 258      AFF30080 
 258      AFF30080 
 259              		.align	2
 260              		.p2align 4,,15
 261              		.global	_dbg_check_unlock_from_isr
 262              		.thumb
 263              		.thumb_func
 264              		.type	_dbg_check_unlock_from_isr, %function
 265              	_dbg_check_unlock_from_isr:
 266              	.LFB234:
 267              		.loc 1 189 0
 268              		.cfi_startproc
 269              		@ args = 0, pretend = 0, frame = 0
 270              		@ frame_needed = 0, uses_anonymous_args = 0
 271 0000 10B5     		push	{r4, lr}
 272              		.cfi_def_cfa_offset 8
 273              		.cfi_offset 4, -8
 274              		.cfi_offset 14, -4
 275              		.loc 1 191 0
 276 0002 084C     		ldr	r4, .L45
 277 0004 236B     		ldr	r3, [r4, #48]
 278 0006 002B     		cmp	r3, #0
 279 0008 05DD     		ble	.L42
 280              		.loc 1 191 0 is_stmt 0 discriminator 1
 281 000a 636B     		ldr	r3, [r4, #52]
 282 000c 002B     		cmp	r3, #0
ARM GAS  C:\Users\jo\AppData\Local\Temp\ccT3NT9r.s 			page 6


 283 000e 02DD     		ble	.L42
 284              		.loc 1 194 0 is_stmt 1
 285 0010 0023     		movs	r3, #0
 286 0012 6363     		str	r3, [r4, #52]
 287 0014 10BD     		pop	{r4, pc}
 288              	.L42:
 289              		.loc 1 192 0
 290 0016 0448     		ldr	r0, .L45+4
 291 0018 FFF7FEFF 		bl	chSysHalt
 292              	.LVL6:
 293              		.loc 1 194 0
 294 001c 0023     		movs	r3, #0
 295 001e 6363     		str	r3, [r4, #52]
 296 0020 10BD     		pop	{r4, pc}
 297              	.L46:
 298 0022 00BF     		.align	2
 299              	.L45:
 300 0024 00000000 		.word	ch
 301 0028 30000000 		.word	.LC6
 302              		.cfi_endproc
 303              	.LFE234:
 304              		.size	_dbg_check_unlock_from_isr, .-_dbg_check_unlock_from_isr
 305 002c AFF30080 		.section	.text._dbg_check_enter_isr,"ax",%progbits
 306              		.align	2
 307              		.p2align 4,,15
 308              		.global	_dbg_check_enter_isr
 309              		.thumb
 310              		.thumb_func
 311              		.type	_dbg_check_enter_isr, %function
 312              	_dbg_check_enter_isr:
 313              	.LFB235:
 314              		.loc 1 202 0
 315              		.cfi_startproc
 316              		@ args = 0, pretend = 0, frame = 0
 317              		@ frame_needed = 0, uses_anonymous_args = 0
 318              	.LVL7:
 319 0000 10B5     		push	{r4, lr}
 320              		.cfi_def_cfa_offset 8
 321              		.cfi_offset 4, -8
 322              		.cfi_offset 14, -4
 323              	.LBB45:
 324              	.LBB46:
 325              	.LBB47:
 326              	.LBB48:
 327              		.file 2 "../../../os/ext/CMSIS/include/core_cmFunc.h"
 328              		.loc 2 546 0
 329 0002 2023     		movs	r3, #32
 330              	@ 546 "../../../os/ext/CMSIS/include/core_cmFunc.h" 1
 331 0004 83F31188 		MSR basepri, r3
 332              	@ 0 "" 2
 333              		.thumb
 334              	.LBE48:
 335              	.LBE47:
 336              	.LBE46:
 337              	.LBE45:
 338              		.loc 1 205 0
 339 0008 074C     		ldr	r4, .L54
ARM GAS  C:\Users\jo\AppData\Local\Temp\ccT3NT9r.s 			page 7


 340 000a 236B     		ldr	r3, [r4, #48]
 341 000c 002B     		cmp	r3, #0
 342 000e 01DB     		blt	.L48
 343              		.loc 1 205 0 is_stmt 0 discriminator 1
 344 0010 626B     		ldr	r2, [r4, #52]
 345 0012 1AB1     		cbz	r2, .L49
 346              	.L48:
 347              		.loc 1 206 0 is_stmt 1
 348 0014 0548     		ldr	r0, .L54+4
 349 0016 FFF7FEFF 		bl	chSysHalt
 350              	.LVL8:
 351 001a 236B     		ldr	r3, [r4, #48]
 352              	.L49:
 353              		.loc 1 208 0
 354 001c 0133     		adds	r3, r3, #1
 355 001e 2363     		str	r3, [r4, #48]
 356              	.LVL9:
 357              	.LBB49:
 358              	.LBB50:
 359              	.LBB51:
 360              	.LBB52:
 361              		.loc 2 546 0
 362 0020 0023     		movs	r3, #0
 363              	@ 546 "../../../os/ext/CMSIS/include/core_cmFunc.h" 1
 364 0022 83F31188 		MSR basepri, r3
 365              	@ 0 "" 2
 366              		.thumb
 367 0026 10BD     		pop	{r4, pc}
 368              	.L55:
 369              		.align	2
 370              	.L54:
 371 0028 00000000 		.word	ch
 372 002c 38000000 		.word	.LC7
 373              	.LBE52:
 374              	.LBE51:
 375              	.LBE50:
 376              	.LBE49:
 377              		.cfi_endproc
 378              	.LFE235:
 379              		.size	_dbg_check_enter_isr, .-_dbg_check_enter_isr
 380              		.section	.text._dbg_check_leave_isr,"ax",%progbits
 381              		.align	2
 382              		.p2align 4,,15
 383              		.global	_dbg_check_leave_isr
 384              		.thumb
 385              		.thumb_func
 386              		.type	_dbg_check_leave_isr, %function
 387              	_dbg_check_leave_isr:
 388              	.LFB236:
 389              		.loc 1 217 0
 390              		.cfi_startproc
 391              		@ args = 0, pretend = 0, frame = 0
 392              		@ frame_needed = 0, uses_anonymous_args = 0
 393              	.LVL10:
 394 0000 10B5     		push	{r4, lr}
 395              		.cfi_def_cfa_offset 8
 396              		.cfi_offset 4, -8
ARM GAS  C:\Users\jo\AppData\Local\Temp\ccT3NT9r.s 			page 8


 397              		.cfi_offset 14, -4
 398              	.LBB53:
 399              	.LBB54:
 400              	.LBB55:
 401              	.LBB56:
 402              		.loc 2 546 0
 403 0002 2023     		movs	r3, #32
 404              	@ 546 "../../../os/ext/CMSIS/include/core_cmFunc.h" 1
 405 0004 83F31188 		MSR basepri, r3
 406              	@ 0 "" 2
 407              		.thumb
 408              	.LBE56:
 409              	.LBE55:
 410              	.LBE54:
 411              	.LBE53:
 412              		.loc 1 220 0
 413 0008 074C     		ldr	r4, .L63
 414 000a 236B     		ldr	r3, [r4, #48]
 415 000c 002B     		cmp	r3, #0
 416 000e 01DD     		ble	.L57
 417              		.loc 1 220 0 is_stmt 0 discriminator 1
 418 0010 626B     		ldr	r2, [r4, #52]
 419 0012 1AB1     		cbz	r2, .L58
 420              	.L57:
 421              		.loc 1 221 0 is_stmt 1
 422 0014 0548     		ldr	r0, .L63+4
 423 0016 FFF7FEFF 		bl	chSysHalt
 424              	.LVL11:
 425 001a 236B     		ldr	r3, [r4, #48]
 426              	.L58:
 427              		.loc 1 223 0
 428 001c 013B     		subs	r3, r3, #1
 429 001e 2363     		str	r3, [r4, #48]
 430              	.LVL12:
 431              	.LBB57:
 432              	.LBB58:
 433              	.LBB59:
 434              	.LBB60:
 435              		.loc 2 546 0
 436 0020 0023     		movs	r3, #0
 437              	@ 546 "../../../os/ext/CMSIS/include/core_cmFunc.h" 1
 438 0022 83F31188 		MSR basepri, r3
 439              	@ 0 "" 2
 440              		.thumb
 441 0026 10BD     		pop	{r4, pc}
 442              	.L64:
 443              		.align	2
 444              	.L63:
 445 0028 00000000 		.word	ch
 446 002c 40000000 		.word	.LC8
 447              	.LBE60:
 448              	.LBE59:
 449              	.LBE58:
 450              	.LBE57:
 451              		.cfi_endproc
 452              	.LFE236:
 453              		.size	_dbg_check_leave_isr, .-_dbg_check_leave_isr
ARM GAS  C:\Users\jo\AppData\Local\Temp\ccT3NT9r.s 			page 9


 454              		.section	.text.chDbgCheckClassI,"ax",%progbits
 455              		.align	2
 456              		.p2align 4,,15
 457              		.global	chDbgCheckClassI
 458              		.thumb
 459              		.thumb_func
 460              		.type	chDbgCheckClassI, %function
 461              	chDbgCheckClassI:
 462              	.LFB237:
 463              		.loc 1 235 0
 464              		.cfi_startproc
 465              		@ args = 0, pretend = 0, frame = 0
 466              		@ frame_needed = 0, uses_anonymous_args = 0
 467              		@ link register save eliminated.
 468              		.loc 1 237 0
 469 0000 054B     		ldr	r3, .L68
 470 0002 1A6B     		ldr	r2, [r3, #48]
 471 0004 002A     		cmp	r2, #0
 472 0006 03DB     		blt	.L66
 473              		.loc 1 237 0 is_stmt 0 discriminator 1
 474 0008 5B6B     		ldr	r3, [r3, #52]
 475 000a 002B     		cmp	r3, #0
 476 000c 00DD     		ble	.L66
 477 000e 7047     		bx	lr
 478              	.L66:
 479              		.loc 1 238 0 is_stmt 1
 480 0010 0248     		ldr	r0, .L68+4
 481 0012 FFF7FEBF 		b	chSysHalt
 482              	.LVL13:
 483              	.L69:
 484 0016 00BF     		.align	2
 485              	.L68:
 486 0018 00000000 		.word	ch
 487 001c 48000000 		.word	.LC9
 488              		.cfi_endproc
 489              	.LFE237:
 490              		.size	chDbgCheckClassI, .-chDbgCheckClassI
 491              		.section	.text.chDbgCheckClassS,"ax",%progbits
 492              		.align	2
 493              		.p2align 4,,15
 494              		.global	chDbgCheckClassS
 495              		.thumb
 496              		.thumb_func
 497              		.type	chDbgCheckClassS, %function
 498              	chDbgCheckClassS:
 499              	.LFB238:
 500              		.loc 1 250 0
 501              		.cfi_startproc
 502              		@ args = 0, pretend = 0, frame = 0
 503              		@ frame_needed = 0, uses_anonymous_args = 0
 504              		@ link register save eliminated.
 505              		.loc 1 252 0
 506 0000 044B     		ldr	r3, .L73
 507 0002 1A6B     		ldr	r2, [r3, #48]
 508 0004 1AB9     		cbnz	r2, .L71
 509              		.loc 1 252 0 is_stmt 0 discriminator 1
 510 0006 5B6B     		ldr	r3, [r3, #52]
ARM GAS  C:\Users\jo\AppData\Local\Temp\ccT3NT9r.s 			page 10


 511 0008 002B     		cmp	r3, #0
 512 000a 00DD     		ble	.L71
 513 000c 7047     		bx	lr
 514              	.L71:
 515              		.loc 1 253 0 is_stmt 1
 516 000e 0248     		ldr	r0, .L73+4
 517 0010 FFF7FEBF 		b	chSysHalt
 518              	.LVL14:
 519              	.L74:
 520              		.align	2
 521              	.L73:
 522 0014 00000000 		.word	ch
 523 0018 50000000 		.word	.LC10
 524              		.cfi_endproc
 525              	.LFE238:
 526              		.size	chDbgCheckClassS, .-chDbgCheckClassS
 527 001c AFF30080 		.section	.text._dbg_trace_init,"ax",%progbits
 528              		.align	2
 529              		.p2align 4,,15
 530              		.global	_dbg_trace_init
 531              		.thumb
 532              		.thumb_func
 533              		.type	_dbg_trace_init, %function
 534              	_dbg_trace_init:
 535              	.LFB239:
 536              		.loc 1 264 0
 537              		.cfi_startproc
 538              		@ args = 0, pretend = 0, frame = 0
 539              		@ frame_needed = 0, uses_anonymous_args = 0
 540              		@ link register save eliminated.
 541              		.loc 1 266 0
 542 0000 024B     		ldr	r3, .L76
 543 0002 4021     		movs	r1, #64
 544              		.loc 1 267 0
 545 0004 5A18     		adds	r2, r3, r1
 546              		.loc 1 266 0
 547 0006 9963     		str	r1, [r3, #56]
 548              		.loc 1 267 0
 549 0008 DA63     		str	r2, [r3, #60]
 550 000a 7047     		bx	lr
 551              	.L77:
 552              		.align	2
 553              	.L76:
 554 000c 00000000 		.word	ch
 555              		.cfi_endproc
 556              	.LFE239:
 557              		.size	_dbg_trace_init, .-_dbg_trace_init
 558              		.section	.text._dbg_trace,"ax",%progbits
 559              		.align	2
 560              		.p2align 4,,15
 561              		.global	_dbg_trace
 562              		.thumb
 563              		.thumb_func
 564              		.type	_dbg_trace, %function
 565              	_dbg_trace:
 566              	.LFB240:
 567              		.loc 1 277 0
ARM GAS  C:\Users\jo\AppData\Local\Temp\ccT3NT9r.s 			page 11


 568              		.cfi_startproc
 569              		@ args = 0, pretend = 0, frame = 0
 570              		@ frame_needed = 0, uses_anonymous_args = 0
 571              		@ link register save eliminated.
 572              	.LVL15:
 573              		.loc 1 279 0
 574 0000 0C4A     		ldr	r2, .L83
 575              	.LBB61:
 576              	.LBB62:
 577              	.LBB63:
 578              	.LBB64:
 579              		.file 3 "../../../os/hal/ports/STM32/LLD/TIMv1/st_lld.h"
 580              		.loc 3 129 0
 581 0002 4FF08041 		mov	r1, #1073741824
 582              	.LBE64:
 583              	.LBE63:
 584              	.LBE62:
 585              	.LBE61:
 586              		.loc 1 279 0
 587 0006 D36B     		ldr	r3, [r2, #60]
 588              		.loc 1 277 0
 589 0008 10B4     		push	{r4}
 590              		.cfi_def_cfa_offset 4
 591              		.cfi_offset 4, -4
 592              	.LBB68:
 593              	.LBB67:
 594              	.LBB66:
 595              	.LBB65:
 596              		.loc 3 129 0
 597 000a 4C6A     		ldr	r4, [r1, #36]
 598              	.LBE65:
 599              	.LBE66:
 600              	.LBE67:
 601              	.LBE68:
 602              		.loc 1 280 0
 603 000c 9169     		ldr	r1, [r2, #24]
 604 000e 5960     		str	r1, [r3, #4]
 605              		.loc 1 279 0
 606 0010 1C60     		str	r4, [r3]
 607              		.loc 1 281 0
 608 0012 416A     		ldr	r1, [r0, #36]
 609 0014 9960     		str	r1, [r3, #8]
 610              		.loc 1 282 0
 611 0016 90F82010 		ldrb	r1, [r0, #32]	@ zero_extendqisi2
 612 001a 1973     		strb	r1, [r3, #12]
 613              		.loc 1 283 0
 614 001c 1033     		adds	r3, r3, #16
 615 001e 02F58861 		add	r1, r2, #1088
 616 0022 8B42     		cmp	r3, r1
 617              		.loc 1 285 0
 618 0024 28BF     		it	cs
 619 0026 02F14003 		addcs	r3, r2, #64
 620 002a D363     		str	r3, [r2, #60]
 621              		.loc 1 287 0
 622 002c 5DF8044B 		ldr	r4, [sp], #4
 623              		.cfi_restore 4
 624              		.cfi_def_cfa_offset 0
ARM GAS  C:\Users\jo\AppData\Local\Temp\ccT3NT9r.s 			page 12


 625 0030 7047     		bx	lr
 626              	.L84:
 627 0032 00BF     		.align	2
 628              	.L83:
 629 0034 00000000 		.word	ch
 630              		.cfi_endproc
 631              	.LFE240:
 632              		.size	_dbg_trace, .-_dbg_trace
 633 0038 AFF30080 		.section	.rodata.str1.4,"aMS",%progbits,1
 633      AFF30080 
 634              		.align	2
 635              	.LC0:
 636 0000 53562331 		.ascii	"SV#1\000"
 636      00
 637 0005 000000   		.space	3
 638              	.LC1:
 639 0008 53562332 		.ascii	"SV#2\000"
 639      00
 640 000d 000000   		.space	3
 641              	.LC2:
 642 0010 53562333 		.ascii	"SV#3\000"
 642      00
 643 0015 000000   		.space	3
 644              	.LC3:
 645 0018 53562334 		.ascii	"SV#4\000"
 645      00
 646 001d 000000   		.space	3
 647              	.LC4:
 648 0020 53562335 		.ascii	"SV#5\000"
 648      00
 649 0025 000000   		.space	3
 650              	.LC5:
 651 0028 53562336 		.ascii	"SV#6\000"
 651      00
 652 002d 000000   		.space	3
 653              	.LC6:
 654 0030 53562337 		.ascii	"SV#7\000"
 654      00
 655 0035 000000   		.space	3
 656              	.LC7:
 657 0038 53562338 		.ascii	"SV#8\000"
 657      00
 658 003d 000000   		.space	3
 659              	.LC8:
 660 0040 53562339 		.ascii	"SV#9\000"
 660      00
 661 0045 000000   		.space	3
 662              	.LC9:
 663 0048 53562331 		.ascii	"SV#10\000"
 663      3000
 664 004e 0000     		.space	2
 665              	.LC10:
 666 0050 53562331 		.ascii	"SV#11\000"
 666      3100
 667 0056 0000     		.text
 668              	.Letext0:
 669              		.file 4 "c:\\program files\\gnu tools arm embedded\\4.9 2014q4\\arm-none-eabi\\include\\machine\\_
ARM GAS  C:\Users\jo\AppData\Local\Temp\ccT3NT9r.s 			page 13


 670              		.file 5 "c:\\program files\\gnu tools arm embedded\\4.9 2014q4\\arm-none-eabi\\include\\stdint.h"
 671              		.file 6 "../../../os/rt/ports/ARMCMx/compilers/GCC/chtypes.h"
 672              		.file 7 "../../../os/rt/include/chsystypes.h"
 673              		.file 8 "../../../os/rt/include/chschd.h"
 674              		.file 9 "../../../os/rt/ports/ARMCMx/chcore.h"
 675              		.file 10 "../../../os/rt/ports/ARMCMx/chcore_v7m.h"
 676              		.file 11 "../../../os/hal/ports/STM32/LLD/TIMv1/stm32_tim.h"
 677              		.file 12 "../../../os/rt/include/chdebug.h"
 678              		.file 13 "../../../os/rt/include/chtm.h"
 679              		.file 14 "../../../os/rt/include/chsem.h"
 680              		.file 15 "../../../os/rt/include/chmtx.h"
 681              		.file 16 "../../../os/rt/ports/ARMCMx/chcore_timer.h"
 682              		.file 17 "../../../os/rt/include/chvt.h"
 683              		.file 18 "../../../os/ext/CMSIS/include/core_cm4.h"
 684              		.file 19 "../../../os/rt/include/chsys.h"
 685              		.section	.debug_info,"",%progbits
 686              	.Ldebug_info0:
 687 0000 D00B0000 		.4byte	0xbd0
 688 0004 0400     		.2byte	0x4
 689 0006 00000000 		.4byte	.Ldebug_abbrev0
 690 000a 04       		.byte	0x4
 691 000b 01       		.uleb128 0x1
 692 000c 1B030000 		.4byte	.LASF144
 693 0010 01       		.byte	0x1
 694 0011 E4020000 		.4byte	.LASF145
 695 0015 F8000000 		.4byte	.LASF146
 696 0019 18000000 		.4byte	.Ldebug_ranges0+0x18
 697 001d 00000000 		.4byte	0
 698 0021 00000000 		.4byte	.Ldebug_line0
 699 0025 02       		.uleb128 0x2
 700 0026 04       		.byte	0x4
 701 0027 05       		.byte	0x5
 702 0028 696E7400 		.ascii	"int\000"
 703 002c 03       		.uleb128 0x3
 704 002d 04       		.byte	0x4
 705 002e 07       		.byte	0x7
 706 002f 64020000 		.4byte	.LASF0
 707 0033 03       		.uleb128 0x3
 708 0034 01       		.byte	0x1
 709 0035 06       		.byte	0x6
 710 0036 58010000 		.4byte	.LASF1
 711 003a 04       		.uleb128 0x4
 712 003b 2F000000 		.4byte	.LASF5
 713 003f 04       		.byte	0x4
 714 0040 1D       		.byte	0x1d
 715 0041 45000000 		.4byte	0x45
 716 0045 03       		.uleb128 0x3
 717 0046 01       		.byte	0x1
 718 0047 08       		.byte	0x8
 719 0048 39050000 		.4byte	.LASF2
 720 004c 03       		.uleb128 0x3
 721 004d 02       		.byte	0x2
 722 004e 05       		.byte	0x5
 723 004f 61050000 		.4byte	.LASF3
 724 0053 03       		.uleb128 0x3
 725 0054 02       		.byte	0x2
 726 0055 07       		.byte	0x7
ARM GAS  C:\Users\jo\AppData\Local\Temp\ccT3NT9r.s 			page 14


 727 0056 DE010000 		.4byte	.LASF4
 728 005a 04       		.uleb128 0x4
 729 005b AE000000 		.4byte	.LASF6
 730 005f 04       		.byte	0x4
 731 0060 3F       		.byte	0x3f
 732 0061 65000000 		.4byte	0x65
 733 0065 03       		.uleb128 0x3
 734 0066 04       		.byte	0x4
 735 0067 05       		.byte	0x5
 736 0068 A3010000 		.4byte	.LASF7
 737 006c 04       		.uleb128 0x4
 738 006d 7A060000 		.4byte	.LASF8
 739 0071 04       		.byte	0x4
 740 0072 41       		.byte	0x41
 741 0073 77000000 		.4byte	0x77
 742 0077 03       		.uleb128 0x3
 743 0078 04       		.byte	0x4
 744 0079 07       		.byte	0x7
 745 007a 1B060000 		.4byte	.LASF9
 746 007e 03       		.uleb128 0x3
 747 007f 08       		.byte	0x8
 748 0080 05       		.byte	0x5
 749 0081 C0010000 		.4byte	.LASF10
 750 0085 04       		.uleb128 0x4
 751 0086 D2040000 		.4byte	.LASF11
 752 008a 04       		.byte	0x4
 753 008b 5B       		.byte	0x5b
 754 008c 90000000 		.4byte	0x90
 755 0090 03       		.uleb128 0x3
 756 0091 08       		.byte	0x8
 757 0092 07       		.byte	0x7
 758 0093 68000000 		.4byte	.LASF12
 759 0097 04       		.uleb128 0x4
 760 0098 36070000 		.4byte	.LASF13
 761 009c 05       		.byte	0x5
 762 009d 15       		.byte	0x15
 763 009e 3A000000 		.4byte	0x3a
 764 00a2 04       		.uleb128 0x4
 765 00a3 31050000 		.4byte	.LASF14
 766 00a7 05       		.byte	0x5
 767 00a8 2C       		.byte	0x2c
 768 00a9 5A000000 		.4byte	0x5a
 769 00ad 04       		.uleb128 0x4
 770 00ae EA050000 		.4byte	.LASF15
 771 00b2 05       		.byte	0x5
 772 00b3 2D       		.byte	0x2d
 773 00b4 6C000000 		.4byte	0x6c
 774 00b8 04       		.uleb128 0x4
 775 00b9 26000000 		.4byte	.LASF16
 776 00bd 05       		.byte	0x5
 777 00be 39       		.byte	0x39
 778 00bf 85000000 		.4byte	0x85
 779 00c3 05       		.uleb128 0x5
 780 00c4 A2000000 		.4byte	0xa2
 781 00c8 05       		.uleb128 0x5
 782 00c9 AD000000 		.4byte	0xad
 783 00cd 04       		.uleb128 0x4
ARM GAS  C:\Users\jo\AppData\Local\Temp\ccT3NT9r.s 			page 15


 784 00ce CB060000 		.4byte	.LASF17
 785 00d2 06       		.byte	0x6
 786 00d3 45       		.byte	0x45
 787 00d4 AD000000 		.4byte	0xad
 788 00d8 04       		.uleb128 0x4
 789 00d9 6D070000 		.4byte	.LASF18
 790 00dd 06       		.byte	0x6
 791 00de 48       		.byte	0x48
 792 00df 97000000 		.4byte	0x97
 793 00e3 04       		.uleb128 0x4
 794 00e4 AC010000 		.4byte	.LASF19
 795 00e8 06       		.byte	0x6
 796 00e9 49       		.byte	0x49
 797 00ea 97000000 		.4byte	0x97
 798 00ee 04       		.uleb128 0x4
 799 00ef DD040000 		.4byte	.LASF20
 800 00f3 06       		.byte	0x6
 801 00f4 4A       		.byte	0x4a
 802 00f5 97000000 		.4byte	0x97
 803 00f9 04       		.uleb128 0x4
 804 00fa 19050000 		.4byte	.LASF21
 805 00fe 06       		.byte	0x6
 806 00ff 4C       		.byte	0x4c
 807 0100 AD000000 		.4byte	0xad
 808 0104 04       		.uleb128 0x4
 809 0105 B5020000 		.4byte	.LASF22
 810 0109 06       		.byte	0x6
 811 010a 4D       		.byte	0x4d
 812 010b A2000000 		.4byte	0xa2
 813 010f 04       		.uleb128 0x4
 814 0110 0F030000 		.4byte	.LASF23
 815 0114 06       		.byte	0x6
 816 0115 4F       		.byte	0x4f
 817 0116 AD000000 		.4byte	0xad
 818 011a 04       		.uleb128 0x4
 819 011b 40020000 		.4byte	.LASF24
 820 011f 06       		.byte	0x6
 821 0120 51       		.byte	0x51
 822 0121 A2000000 		.4byte	0xa2
 823 0125 04       		.uleb128 0x4
 824 0126 5C060000 		.4byte	.LASF25
 825 012a 07       		.byte	0x7
 826 012b 33       		.byte	0x33
 827 012c AD000000 		.4byte	0xad
 828 0130 04       		.uleb128 0x4
 829 0131 4C060000 		.4byte	.LASF26
 830 0135 07       		.byte	0x7
 831 0136 3F       		.byte	0x3f
 832 0137 3B010000 		.4byte	0x13b
 833 013b 06       		.uleb128 0x6
 834 013c AB020000 		.4byte	.LASF47
 835 0140 48       		.byte	0x48
 836 0141 08       		.byte	0x8
 837 0142 C2       		.byte	0xc2
 838 0143 34020000 		.4byte	0x234
 839 0147 07       		.uleb128 0x7
 840 0148 89050000 		.4byte	.LASF27
ARM GAS  C:\Users\jo\AppData\Local\Temp\ccT3NT9r.s 			page 16


 841 014c 08       		.byte	0x8
 842 014d C3       		.byte	0xc3
 843 014e 3F020000 		.4byte	0x23f
 844 0152 00       		.byte	0
 845 0153 07       		.uleb128 0x7
 846 0154 12050000 		.4byte	.LASF28
 847 0158 08       		.byte	0x8
 848 0159 C5       		.byte	0xc5
 849 015a 3F020000 		.4byte	0x23f
 850 015e 04       		.byte	0x4
 851 015f 07       		.uleb128 0x7
 852 0160 F1000000 		.4byte	.LASF29
 853 0164 08       		.byte	0x8
 854 0165 C7       		.byte	0xc7
 855 0166 F9000000 		.4byte	0xf9
 856 016a 08       		.byte	0x8
 857 016b 07       		.uleb128 0x7
 858 016c 9A070000 		.4byte	.LASF30
 859 0170 08       		.byte	0x8
 860 0171 C8       		.byte	0xc8
 861 0172 BA040000 		.4byte	0x4ba
 862 0176 0C       		.byte	0xc
 863 0177 07       		.uleb128 0x7
 864 0178 CE010000 		.4byte	.LASF31
 865 017c 08       		.byte	0x8
 866 017d CA       		.byte	0xca
 867 017e 3F020000 		.4byte	0x23f
 868 0182 10       		.byte	0x10
 869 0183 07       		.uleb128 0x7
 870 0184 73050000 		.4byte	.LASF32
 871 0188 08       		.byte	0x8
 872 0189 CB       		.byte	0xcb
 873 018a 3F020000 		.4byte	0x23f
 874 018e 14       		.byte	0x14
 875 018f 07       		.uleb128 0x7
 876 0190 57070000 		.4byte	.LASF33
 877 0194 08       		.byte	0x8
 878 0195 D2       		.byte	0xd2
 879 0196 EE070000 		.4byte	0x7ee
 880 019a 18       		.byte	0x18
 881 019b 07       		.uleb128 0x7
 882 019c 59020000 		.4byte	.LASF34
 883 01a0 08       		.byte	0x8
 884 01a1 D8       		.byte	0xd8
 885 01a2 00080000 		.4byte	0x800
 886 01a6 1C       		.byte	0x1c
 887 01a7 07       		.uleb128 0x7
 888 01a8 6B050000 		.4byte	.LASF35
 889 01ac 08       		.byte	0x8
 890 01ad DD       		.byte	0xdd
 891 01ae E3000000 		.4byte	0xe3
 892 01b2 20       		.byte	0x20
 893 01b3 07       		.uleb128 0x7
 894 01b4 90050000 		.4byte	.LASF36
 895 01b8 08       		.byte	0x8
 896 01b9 E1       		.byte	0xe1
 897 01ba D8000000 		.4byte	0xd8
ARM GAS  C:\Users\jo\AppData\Local\Temp\ccT3NT9r.s 			page 17


 898 01be 21       		.byte	0x21
 899 01bf 07       		.uleb128 0x7
 900 01c0 21070000 		.4byte	.LASF37
 901 01c4 08       		.byte	0x8
 902 01c5 E6       		.byte	0xe6
 903 01c6 EE000000 		.4byte	0xee
 904 01ca 22       		.byte	0x22
 905 01cb 08       		.uleb128 0x8
 906 01cc 705F7500 		.ascii	"p_u\000"
 907 01d0 08       		.byte	0x8
 908 01d1 3101     		.2byte	0x131
 909 01d3 29070000 		.4byte	0x729
 910 01d7 24       		.byte	0x24
 911 01d8 09       		.uleb128 0x9
 912 01d9 13040000 		.4byte	.LASF38
 913 01dd 08       		.byte	0x8
 914 01de 3601     		.2byte	0x136
 915 01e0 45020000 		.4byte	0x245
 916 01e4 28       		.byte	0x28
 917 01e5 09       		.uleb128 0x9
 918 01e6 95020000 		.4byte	.LASF39
 919 01ea 08       		.byte	0x8
 920 01eb 3C01     		.2byte	0x13c
 921 01ed 69020000 		.4byte	0x269
 922 01f1 2C       		.byte	0x2c
 923 01f2 09       		.uleb128 0x9
 924 01f3 82070000 		.4byte	.LASF40
 925 01f7 08       		.byte	0x8
 926 01f8 4001     		.2byte	0x140
 927 01fa 04010000 		.4byte	0x104
 928 01fe 34       		.byte	0x34
 929 01ff 09       		.uleb128 0x9
 930 0200 BB050000 		.4byte	.LASF41
 931 0204 08       		.byte	0x8
 932 0205 4601     		.2byte	0x146
 933 0207 0F010000 		.4byte	0x10f
 934 020b 38       		.byte	0x38
 935 020c 09       		.uleb128 0x9
 936 020d 57050000 		.4byte	.LASF42
 937 0211 08       		.byte	0x8
 938 0212 4D01     		.2byte	0x14d
 939 0214 E8070000 		.4byte	0x7e8
 940 0218 3C       		.byte	0x3c
 941 0219 09       		.uleb128 0x9
 942 021a 66060000 		.4byte	.LASF43
 943 021e 08       		.byte	0x8
 944 021f 5101     		.2byte	0x151
 945 0221 F9000000 		.4byte	0xf9
 946 0225 40       		.byte	0x40
 947 0226 09       		.uleb128 0x9
 948 0227 01020000 		.4byte	.LASF44
 949 022b 08       		.byte	0x8
 950 022c 5801     		.2byte	0x158
 951 022e 1C030000 		.4byte	0x31c
 952 0232 44       		.byte	0x44
 953 0233 00       		.byte	0
 954 0234 04       		.uleb128 0x4
ARM GAS  C:\Users\jo\AppData\Local\Temp\ccT3NT9r.s 			page 18


 955 0235 26040000 		.4byte	.LASF45
 956 0239 07       		.byte	0x7
 957 023a 44       		.byte	0x44
 958 023b 3F020000 		.4byte	0x23f
 959 023f 0A       		.uleb128 0xa
 960 0240 04       		.byte	0x4
 961 0241 30010000 		.4byte	0x130
 962 0245 04       		.uleb128 0x4
 963 0246 5E070000 		.4byte	.LASF46
 964 024a 07       		.byte	0x7
 965 024b 49       		.byte	0x49
 966 024c 50020000 		.4byte	0x250
 967 0250 06       		.uleb128 0x6
 968 0251 0B060000 		.4byte	.LASF48
 969 0255 04       		.byte	0x4
 970 0256 08       		.byte	0x8
 971 0257 B0       		.byte	0xb0
 972 0258 69020000 		.4byte	0x269
 973 025c 07       		.uleb128 0x7
 974 025d 89050000 		.4byte	.LASF27
 975 0261 08       		.byte	0x8
 976 0262 B1       		.byte	0xb1
 977 0263 3F020000 		.4byte	0x23f
 978 0267 00       		.byte	0
 979 0268 00       		.byte	0
 980 0269 04       		.uleb128 0x4
 981 026a 08070000 		.4byte	.LASF49
 982 026e 07       		.byte	0x7
 983 026f 50       		.byte	0x50
 984 0270 74020000 		.4byte	0x274
 985 0274 06       		.uleb128 0x6
 986 0275 E0000000 		.4byte	.LASF50
 987 0279 08       		.byte	0x8
 988 027a 08       		.byte	0x8
 989 027b B7       		.byte	0xb7
 990 027c 99020000 		.4byte	0x299
 991 0280 07       		.uleb128 0x7
 992 0281 89050000 		.4byte	.LASF27
 993 0285 08       		.byte	0x8
 994 0286 B8       		.byte	0xb8
 995 0287 3F020000 		.4byte	0x23f
 996 028b 00       		.byte	0
 997 028c 07       		.uleb128 0x7
 998 028d 12050000 		.4byte	.LASF28
 999 0291 08       		.byte	0x8
 1000 0292 B9       		.byte	0xb9
 1001 0293 3F020000 		.4byte	0x23f
 1002 0297 04       		.byte	0x4
 1003 0298 00       		.byte	0
 1004 0299 04       		.uleb128 0x4
 1005 029a 07000000 		.4byte	.LASF51
 1006 029e 07       		.byte	0x7
 1007 029f 57       		.byte	0x57
 1008 02a0 A4020000 		.4byte	0x2a4
 1009 02a4 0B       		.uleb128 0xb
 1010 02a5 01030000 		.4byte	.LASF52
 1011 02a9 1C       		.byte	0x1c
ARM GAS  C:\Users\jo\AppData\Local\Temp\ccT3NT9r.s 			page 19


 1012 02aa 08       		.byte	0x8
 1013 02ab 9001     		.2byte	0x190
 1014 02ad 00030000 		.4byte	0x300
 1015 02b1 09       		.uleb128 0x9
 1016 02b2 FA050000 		.4byte	.LASF53
 1017 02b6 08       		.byte	0x8
 1018 02b7 9101     		.2byte	0x191
 1019 02b9 69020000 		.4byte	0x269
 1020 02bd 00       		.byte	0
 1021 02be 09       		.uleb128 0x9
 1022 02bf 7B050000 		.4byte	.LASF54
 1023 02c3 08       		.byte	0x8
 1024 02c4 9201     		.2byte	0x192
 1025 02c6 F9000000 		.4byte	0xf9
 1026 02ca 08       		.byte	0x8
 1027 02cb 09       		.uleb128 0x9
 1028 02cc 90040000 		.4byte	.LASF55
 1029 02d0 08       		.byte	0x8
 1030 02d1 9401     		.2byte	0x194
 1031 02d3 BA040000 		.4byte	0x4ba
 1032 02d7 0C       		.byte	0xc
 1033 02d8 09       		.uleb128 0x9
 1034 02d9 F9010000 		.4byte	.LASF56
 1035 02dd 08       		.byte	0x8
 1036 02de 9701     		.2byte	0x197
 1037 02e0 3F020000 		.4byte	0x23f
 1038 02e4 10       		.byte	0x10
 1039 02e5 09       		.uleb128 0x9
 1040 02e6 B1040000 		.4byte	.LASF57
 1041 02ea 08       		.byte	0x8
 1042 02eb 9801     		.2byte	0x198
 1043 02ed 3F020000 		.4byte	0x23f
 1044 02f1 14       		.byte	0x14
 1045 02f2 09       		.uleb128 0x9
 1046 02f3 A7040000 		.4byte	.LASF58
 1047 02f7 08       		.byte	0x8
 1048 02f8 9B01     		.2byte	0x19b
 1049 02fa 3F020000 		.4byte	0x23f
 1050 02fe 18       		.byte	0x18
 1051 02ff 00       		.byte	0
 1052 0300 04       		.uleb128 0x4
 1053 0301 71060000 		.4byte	.LASF59
 1054 0305 07       		.byte	0x7
 1055 0306 5C       		.byte	0x5c
 1056 0307 0B030000 		.4byte	0x30b
 1057 030b 0A       		.uleb128 0xa
 1058 030c 04       		.byte	0x4
 1059 030d 11030000 		.4byte	0x311
 1060 0311 0C       		.uleb128 0xc
 1061 0312 1C030000 		.4byte	0x31c
 1062 0316 0D       		.uleb128 0xd
 1063 0317 1C030000 		.4byte	0x31c
 1064 031b 00       		.byte	0
 1065 031c 0E       		.uleb128 0xe
 1066 031d 04       		.byte	0x4
 1067 031e 04       		.uleb128 0x4
 1068 031f 02050000 		.4byte	.LASF60
ARM GAS  C:\Users\jo\AppData\Local\Temp\ccT3NT9r.s 			page 20


 1069 0323 07       		.byte	0x7
 1070 0324 61       		.byte	0x61
 1071 0325 29030000 		.4byte	0x329
 1072 0329 0B       		.uleb128 0xb
 1073 032a 98050000 		.4byte	.LASF61
 1074 032e 14       		.byte	0x14
 1075 032f 08       		.byte	0x8
 1076 0330 6B01     		.2byte	0x16b
 1077 0332 78030000 		.4byte	0x378
 1078 0336 09       		.uleb128 0x9
 1079 0337 71020000 		.4byte	.LASF62
 1080 033b 08       		.byte	0x8
 1081 033c 6C01     		.2byte	0x16c
 1082 033e 06080000 		.4byte	0x806
 1083 0342 00       		.byte	0
 1084 0343 09       		.uleb128 0x9
 1085 0344 12020000 		.4byte	.LASF63
 1086 0348 08       		.byte	0x8
 1087 0349 6D01     		.2byte	0x16d
 1088 034b 06080000 		.4byte	0x806
 1089 034f 04       		.byte	0x4
 1090 0350 09       		.uleb128 0x9
 1091 0351 02060000 		.4byte	.LASF64
 1092 0355 08       		.byte	0x8
 1093 0356 6E01     		.2byte	0x16e
 1094 0358 25010000 		.4byte	0x125
 1095 035c 08       		.byte	0x8
 1096 035d 09       		.uleb128 0x9
 1097 035e A0070000 		.4byte	.LASF65
 1098 0362 08       		.byte	0x8
 1099 0363 6F01     		.2byte	0x16f
 1100 0365 00030000 		.4byte	0x300
 1101 0369 0C       		.byte	0xc
 1102 036a 09       		.uleb128 0x9
 1103 036b E6060000 		.4byte	.LASF66
 1104 036f 08       		.byte	0x8
 1105 0370 7101     		.2byte	0x171
 1106 0372 1C030000 		.4byte	0x31c
 1107 0376 10       		.byte	0x10
 1108 0377 00       		.byte	0
 1109 0378 04       		.uleb128 0x4
 1110 0379 B8000000 		.4byte	.LASF67
 1111 037d 07       		.byte	0x7
 1112 037e 66       		.byte	0x66
 1113 037f 83030000 		.4byte	0x383
 1114 0383 0B       		.uleb128 0xb
 1115 0384 49040000 		.4byte	.LASF68
 1116 0388 10       		.byte	0x10
 1117 0389 08       		.byte	0x8
 1118 038a 7B01     		.2byte	0x17b
 1119 038c C5030000 		.4byte	0x3c5
 1120 0390 09       		.uleb128 0x9
 1121 0391 71020000 		.4byte	.LASF62
 1122 0395 08       		.byte	0x8
 1123 0396 7C01     		.2byte	0x17c
 1124 0398 06080000 		.4byte	0x806
 1125 039c 00       		.byte	0
ARM GAS  C:\Users\jo\AppData\Local\Temp\ccT3NT9r.s 			page 21


 1126 039d 09       		.uleb128 0x9
 1127 039e 12020000 		.4byte	.LASF63
 1128 03a2 08       		.byte	0x8
 1129 03a3 7E01     		.2byte	0x17e
 1130 03a5 06080000 		.4byte	0x806
 1131 03a9 04       		.byte	0x4
 1132 03aa 09       		.uleb128 0x9
 1133 03ab 02060000 		.4byte	.LASF64
 1134 03af 08       		.byte	0x8
 1135 03b0 8001     		.2byte	0x180
 1136 03b2 25010000 		.4byte	0x125
 1137 03b6 08       		.byte	0x8
 1138 03b7 09       		.uleb128 0x9
 1139 03b8 6F040000 		.4byte	.LASF69
 1140 03bc 08       		.byte	0x8
 1141 03bd 8801     		.2byte	0x188
 1142 03bf 25010000 		.4byte	0x125
 1143 03c3 0C       		.byte	0xc
 1144 03c4 00       		.byte	0
 1145 03c5 04       		.uleb128 0x4
 1146 03c6 45000000 		.4byte	.LASF70
 1147 03ca 07       		.byte	0x7
 1148 03cb 6B       		.byte	0x6b
 1149 03cc D0030000 		.4byte	0x3d0
 1150 03d0 0F       		.uleb128 0xf
 1151 03d1 21050000 		.4byte	.LASF71
 1152 03d5 1404     		.2byte	0x414
 1153 03d7 08       		.byte	0x8
 1154 03d8 A201     		.2byte	0x1a2
 1155 03da 13040000 		.4byte	0x413
 1156 03de 09       		.uleb128 0x9
 1157 03df 93060000 		.4byte	.LASF72
 1158 03e3 08       		.byte	0x8
 1159 03e4 AA01     		.2byte	0x1aa
 1160 03e6 0C080000 		.4byte	0x80c
 1161 03ea 00       		.byte	0
 1162 03eb 09       		.uleb128 0x9
 1163 03ec 28070000 		.4byte	.LASF73
 1164 03f0 08       		.byte	0x8
 1165 03f1 AF01     		.2byte	0x1af
 1166 03f3 1A010000 		.4byte	0x11a
 1167 03f7 04       		.byte	0x4
 1168 03f8 09       		.uleb128 0x9
 1169 03f9 28020000 		.4byte	.LASF74
 1170 03fd 08       		.byte	0x8
 1171 03fe B301     		.2byte	0x1b3
 1172 0400 1A010000 		.4byte	0x11a
 1173 0404 08       		.byte	0x8
 1174 0405 09       		.uleb128 0x9
 1175 0406 75070000 		.4byte	.LASF75
 1176 040a 08       		.byte	0x8
 1177 040b B901     		.2byte	0x1b9
 1178 040d FE060000 		.4byte	0x6fe
 1179 0411 0C       		.byte	0xc
 1180 0412 00       		.byte	0
 1181 0413 04       		.uleb128 0x4
 1182 0414 CC020000 		.4byte	.LASF76
ARM GAS  C:\Users\jo\AppData\Local\Temp\ccT3NT9r.s 			page 22


 1183 0418 07       		.byte	0x7
 1184 0419 70       		.byte	0x70
 1185 041a 1E040000 		.4byte	0x41e
 1186 041e 0F       		.uleb128 0xf
 1187 041f 99010000 		.4byte	.LASF77
 1188 0423 7005     		.2byte	0x570
 1189 0425 08       		.byte	0x8
 1190 0426 C201     		.2byte	0x1c2
 1191 0428 7D040000 		.4byte	0x47d
 1192 042c 09       		.uleb128 0x9
 1193 042d 30070000 		.4byte	.LASF78
 1194 0431 08       		.byte	0x8
 1195 0432 C601     		.2byte	0x1c6
 1196 0434 99020000 		.4byte	0x299
 1197 0438 00       		.byte	0
 1198 0439 09       		.uleb128 0x9
 1199 043a 74010000 		.4byte	.LASF79
 1200 043e 08       		.byte	0x8
 1201 043f CA01     		.2byte	0x1ca
 1202 0441 78030000 		.4byte	0x378
 1203 0445 1C       		.byte	0x1c
 1204 0446 08       		.uleb128 0x8
 1205 0447 64626700 		.ascii	"dbg\000"
 1206 044b 08       		.byte	0x8
 1207 044c CE01     		.2byte	0x1ce
 1208 044e C5030000 		.4byte	0x3c5
 1209 0452 2C       		.byte	0x2c
 1210 0453 10       		.uleb128 0x10
 1211 0454 A3000000 		.4byte	.LASF80
 1212 0458 08       		.byte	0x8
 1213 0459 D201     		.2byte	0x1d2
 1214 045b 30010000 		.4byte	0x130
 1215 045f 4004     		.2byte	0x440
 1216 0461 11       		.uleb128 0x11
 1217 0462 746D00   		.ascii	"tm\000"
 1218 0465 08       		.byte	0x8
 1219 0466 D701     		.2byte	0x1d7
 1220 0468 1E070000 		.4byte	0x71e
 1221 046c 8804     		.2byte	0x488
 1222 046e 10       		.uleb128 0x10
 1223 046f 31020000 		.4byte	.LASF81
 1224 0473 08       		.byte	0x8
 1225 0474 E301     		.2byte	0x1e3
 1226 0476 11080000 		.4byte	0x811
 1227 047a 9004     		.2byte	0x490
 1228 047c 00       		.byte	0
 1229 047d 03       		.uleb128 0x3
 1230 047e 04       		.byte	0x4
 1231 047f 07       		.byte	0x7
 1232 0480 1D040000 		.4byte	.LASF82
 1233 0484 12       		.uleb128 0x12
 1234 0485 AD000000 		.4byte	0xad
 1235 0489 94040000 		.4byte	0x494
 1236 048d 13       		.uleb128 0x13
 1237 048e 7D040000 		.4byte	0x47d
 1238 0492 01       		.byte	0x1
 1239 0493 00       		.byte	0
ARM GAS  C:\Users\jo\AppData\Local\Temp\ccT3NT9r.s 			page 23


 1240 0494 12       		.uleb128 0x12
 1241 0495 AD000000 		.4byte	0xad
 1242 0499 A4040000 		.4byte	0x4a4
 1243 049d 13       		.uleb128 0x13
 1244 049e 7D040000 		.4byte	0x47d
 1245 04a2 03       		.byte	0x3
 1246 04a3 00       		.byte	0
 1247 04a4 04       		.uleb128 0x4
 1248 04a5 09020000 		.4byte	.LASF83
 1249 04a9 09       		.byte	0x9
 1250 04aa 65       		.byte	0x65
 1251 04ab 1C030000 		.4byte	0x31c
 1252 04af 04       		.uleb128 0x4
 1253 04b0 F5030000 		.4byte	.LASF84
 1254 04b4 09       		.byte	0x9
 1255 04b5 6D       		.byte	0x6d
 1256 04b6 B8000000 		.4byte	0xb8
 1257 04ba 06       		.uleb128 0x6
 1258 04bb A4060000 		.4byte	.LASF85
 1259 04bf 04       		.byte	0x4
 1260 04c0 09       		.byte	0x9
 1261 04c1 89       		.byte	0x89
 1262 04c2 D3040000 		.4byte	0x4d3
 1263 04c6 14       		.uleb128 0x14
 1264 04c7 72313300 		.ascii	"r13\000"
 1265 04cb 09       		.byte	0x9
 1266 04cc 8A       		.byte	0x8a
 1267 04cd 4E050000 		.4byte	0x54e
 1268 04d1 00       		.byte	0
 1269 04d2 00       		.byte	0
 1270 04d3 06       		.uleb128 0x6
 1271 04d4 39000000 		.4byte	.LASF86
 1272 04d8 24       		.byte	0x24
 1273 04d9 0A       		.byte	0xa
 1274 04da F4       		.byte	0xf4
 1275 04db 4E050000 		.4byte	0x54e
 1276 04df 08       		.uleb128 0x8
 1277 04e0 723400   		.ascii	"r4\000"
 1278 04e3 0A       		.byte	0xa
 1279 04e4 0701     		.2byte	0x107
 1280 04e6 A4040000 		.4byte	0x4a4
 1281 04ea 00       		.byte	0
 1282 04eb 08       		.uleb128 0x8
 1283 04ec 723500   		.ascii	"r5\000"
 1284 04ef 0A       		.byte	0xa
 1285 04f0 0801     		.2byte	0x108
 1286 04f2 A4040000 		.4byte	0x4a4
 1287 04f6 04       		.byte	0x4
 1288 04f7 08       		.uleb128 0x8
 1289 04f8 723600   		.ascii	"r6\000"
 1290 04fb 0A       		.byte	0xa
 1291 04fc 0901     		.2byte	0x109
 1292 04fe A4040000 		.4byte	0x4a4
 1293 0502 08       		.byte	0x8
 1294 0503 08       		.uleb128 0x8
 1295 0504 723700   		.ascii	"r7\000"
 1296 0507 0A       		.byte	0xa
ARM GAS  C:\Users\jo\AppData\Local\Temp\ccT3NT9r.s 			page 24


 1297 0508 0A01     		.2byte	0x10a
 1298 050a A4040000 		.4byte	0x4a4
 1299 050e 0C       		.byte	0xc
 1300 050f 08       		.uleb128 0x8
 1301 0510 723800   		.ascii	"r8\000"
 1302 0513 0A       		.byte	0xa
 1303 0514 0B01     		.2byte	0x10b
 1304 0516 A4040000 		.4byte	0x4a4
 1305 051a 10       		.byte	0x10
 1306 051b 08       		.uleb128 0x8
 1307 051c 723900   		.ascii	"r9\000"
 1308 051f 0A       		.byte	0xa
 1309 0520 0C01     		.2byte	0x10c
 1310 0522 A4040000 		.4byte	0x4a4
 1311 0526 14       		.byte	0x14
 1312 0527 08       		.uleb128 0x8
 1313 0528 72313000 		.ascii	"r10\000"
 1314 052c 0A       		.byte	0xa
 1315 052d 0D01     		.2byte	0x10d
 1316 052f A4040000 		.4byte	0x4a4
 1317 0533 18       		.byte	0x18
 1318 0534 08       		.uleb128 0x8
 1319 0535 72313100 		.ascii	"r11\000"
 1320 0539 0A       		.byte	0xa
 1321 053a 0E01     		.2byte	0x10e
 1322 053c A4040000 		.4byte	0x4a4
 1323 0540 1C       		.byte	0x1c
 1324 0541 08       		.uleb128 0x8
 1325 0542 6C7200   		.ascii	"lr\000"
 1326 0545 0A       		.byte	0xa
 1327 0546 0F01     		.2byte	0x10f
 1328 0548 A4040000 		.4byte	0x4a4
 1329 054c 20       		.byte	0x20
 1330 054d 00       		.byte	0
 1331 054e 0A       		.uleb128 0xa
 1332 054f 04       		.byte	0x4
 1333 0550 D3040000 		.4byte	0x4d3
 1334 0554 15       		.uleb128 0x15
 1335 0555 60       		.byte	0x60
 1336 0556 0B       		.byte	0xb
 1337 0557 9E01     		.2byte	0x19e
 1338 0559 60060000 		.4byte	0x660
 1339 055d 08       		.uleb128 0x8
 1340 055e 43523100 		.ascii	"CR1\000"
 1341 0562 0B       		.byte	0xb
 1342 0563 9F01     		.2byte	0x19f
 1343 0565 C8000000 		.4byte	0xc8
 1344 0569 00       		.byte	0
 1345 056a 08       		.uleb128 0x8
 1346 056b 43523200 		.ascii	"CR2\000"
 1347 056f 0B       		.byte	0xb
 1348 0570 A001     		.2byte	0x1a0
 1349 0572 C8000000 		.4byte	0xc8
 1350 0576 04       		.byte	0x4
 1351 0577 09       		.uleb128 0x9
 1352 0578 A6020000 		.4byte	.LASF87
 1353 057c 0B       		.byte	0xb
ARM GAS  C:\Users\jo\AppData\Local\Temp\ccT3NT9r.s 			page 25


 1354 057d A101     		.2byte	0x1a1
 1355 057f C8000000 		.4byte	0xc8
 1356 0583 08       		.byte	0x8
 1357 0584 09       		.uleb128 0x9
 1358 0585 14000000 		.4byte	.LASF88
 1359 0589 0B       		.byte	0xb
 1360 058a A201     		.2byte	0x1a2
 1361 058c C8000000 		.4byte	0xc8
 1362 0590 0C       		.byte	0xc
 1363 0591 08       		.uleb128 0x8
 1364 0592 535200   		.ascii	"SR\000"
 1365 0595 0B       		.byte	0xb
 1366 0596 A301     		.2byte	0x1a3
 1367 0598 C8000000 		.4byte	0xc8
 1368 059c 10       		.byte	0x10
 1369 059d 08       		.uleb128 0x8
 1370 059e 45475200 		.ascii	"EGR\000"
 1371 05a2 0B       		.byte	0xb
 1372 05a3 A401     		.2byte	0x1a4
 1373 05a5 C8000000 		.4byte	0xc8
 1374 05a9 14       		.byte	0x14
 1375 05aa 09       		.uleb128 0x9
 1376 05ab 46010000 		.4byte	.LASF89
 1377 05af 0B       		.byte	0xb
 1378 05b0 A501     		.2byte	0x1a5
 1379 05b2 C8000000 		.4byte	0xc8
 1380 05b6 18       		.byte	0x18
 1381 05b7 09       		.uleb128 0x9
 1382 05b8 4C010000 		.4byte	.LASF90
 1383 05bc 0B       		.byte	0xb
 1384 05bd A601     		.2byte	0x1a6
 1385 05bf C8000000 		.4byte	0xc8
 1386 05c3 1C       		.byte	0x1c
 1387 05c4 09       		.uleb128 0x9
 1388 05c5 B5010000 		.4byte	.LASF91
 1389 05c9 0B       		.byte	0xb
 1390 05ca A701     		.2byte	0x1a7
 1391 05cc C8000000 		.4byte	0xc8
 1392 05d0 20       		.byte	0x20
 1393 05d1 08       		.uleb128 0x8
 1394 05d2 434E5400 		.ascii	"CNT\000"
 1395 05d6 0B       		.byte	0xb
 1396 05d7 A801     		.2byte	0x1a8
 1397 05d9 C8000000 		.4byte	0xc8
 1398 05dd 24       		.byte	0x24
 1399 05de 08       		.uleb128 0x8
 1400 05df 50534300 		.ascii	"PSC\000"
 1401 05e3 0B       		.byte	0xb
 1402 05e4 A901     		.2byte	0x1a9
 1403 05e6 C8000000 		.4byte	0xc8
 1404 05ea 28       		.byte	0x28
 1405 05eb 08       		.uleb128 0x8
 1406 05ec 41525200 		.ascii	"ARR\000"
 1407 05f0 0B       		.byte	0xb
 1408 05f1 AA01     		.2byte	0x1aa
 1409 05f3 C8000000 		.4byte	0xc8
 1410 05f7 2C       		.byte	0x2c
ARM GAS  C:\Users\jo\AppData\Local\Temp\ccT3NT9r.s 			page 26


 1411 05f8 08       		.uleb128 0x8
 1412 05f9 52435200 		.ascii	"RCR\000"
 1413 05fd 0B       		.byte	0xb
 1414 05fe AB01     		.2byte	0x1ab
 1415 0600 C8000000 		.4byte	0xc8
 1416 0604 30       		.byte	0x30
 1417 0605 08       		.uleb128 0x8
 1418 0606 43435200 		.ascii	"CCR\000"
 1419 060a 0B       		.byte	0xb
 1420 060b AC01     		.2byte	0x1ac
 1421 060d 60060000 		.4byte	0x660
 1422 0611 34       		.byte	0x34
 1423 0612 09       		.uleb128 0x9
 1424 0613 DB000000 		.4byte	.LASF92
 1425 0617 0B       		.byte	0xb
 1426 0618 AD01     		.2byte	0x1ad
 1427 061a C8000000 		.4byte	0xc8
 1428 061e 44       		.byte	0x44
 1429 061f 08       		.uleb128 0x8
 1430 0620 44435200 		.ascii	"DCR\000"
 1431 0624 0B       		.byte	0xb
 1432 0625 AE01     		.2byte	0x1ae
 1433 0627 C8000000 		.4byte	0xc8
 1434 062b 48       		.byte	0x48
 1435 062c 09       		.uleb128 0x9
 1436 062d 32060000 		.4byte	.LASF93
 1437 0631 0B       		.byte	0xb
 1438 0632 AF01     		.2byte	0x1af
 1439 0634 C8000000 		.4byte	0xc8
 1440 0638 4C       		.byte	0x4c
 1441 0639 08       		.uleb128 0x8
 1442 063a 4F5200   		.ascii	"OR\000"
 1443 063d 0B       		.byte	0xb
 1444 063e B001     		.2byte	0x1b0
 1445 0640 C8000000 		.4byte	0xc8
 1446 0644 50       		.byte	0x50
 1447 0645 09       		.uleb128 0x9
 1448 0646 52010000 		.4byte	.LASF94
 1449 064a 0B       		.byte	0xb
 1450 064b B101     		.2byte	0x1b1
 1451 064d C8000000 		.4byte	0xc8
 1452 0651 54       		.byte	0x54
 1453 0652 09       		.uleb128 0x9
 1454 0653 B6050000 		.4byte	.LASF95
 1455 0657 0B       		.byte	0xb
 1456 0658 B201     		.2byte	0x1b2
 1457 065a 65060000 		.4byte	0x665
 1458 065e 58       		.byte	0x58
 1459 065f 00       		.byte	0
 1460 0660 05       		.uleb128 0x5
 1461 0661 94040000 		.4byte	0x494
 1462 0665 05       		.uleb128 0x5
 1463 0666 84040000 		.4byte	0x484
 1464 066a 16       		.uleb128 0x16
 1465 066b D8020000 		.4byte	.LASF96
 1466 066f 0B       		.byte	0xb
 1467 0670 B301     		.2byte	0x1b3
ARM GAS  C:\Users\jo\AppData\Local\Temp\ccT3NT9r.s 			page 27


 1468 0672 54050000 		.4byte	0x554
 1469 0676 17       		.uleb128 0x17
 1470 0677 10       		.byte	0x10
 1471 0678 0C       		.byte	0xc
 1472 0679 51       		.byte	0x51
 1473 067a AF060000 		.4byte	0x6af
 1474 067e 07       		.uleb128 0x7
 1475 067f 64010000 		.4byte	.LASF97
 1476 0683 0C       		.byte	0xc
 1477 0684 55       		.byte	0x55
 1478 0685 25010000 		.4byte	0x125
 1479 0689 00       		.byte	0
 1480 068a 07       		.uleb128 0x7
 1481 068b BA010000 		.4byte	.LASF98
 1482 068f 0C       		.byte	0xc
 1483 0690 59       		.byte	0x59
 1484 0691 3F020000 		.4byte	0x23f
 1485 0695 04       		.byte	0x4
 1486 0696 07       		.uleb128 0x7
 1487 0697 90070000 		.4byte	.LASF99
 1488 069b 0C       		.byte	0xc
 1489 069c 5D       		.byte	0x5d
 1490 069d 1C030000 		.4byte	0x31c
 1491 06a1 08       		.byte	0x8
 1492 06a2 07       		.uleb128 0x7
 1493 06a3 91000000 		.4byte	.LASF100
 1494 06a7 0C       		.byte	0xc
 1495 06a8 61       		.byte	0x61
 1496 06a9 97000000 		.4byte	0x97
 1497 06ad 0C       		.byte	0xc
 1498 06ae 00       		.byte	0
 1499 06af 04       		.uleb128 0x4
 1500 06b0 60040000 		.4byte	.LASF101
 1501 06b4 0C       		.byte	0xc
 1502 06b5 62       		.byte	0x62
 1503 06b6 76060000 		.4byte	0x676
 1504 06ba 18       		.uleb128 0x18
 1505 06bb 0804     		.2byte	0x408
 1506 06bd 0C       		.byte	0xc
 1507 06be 67       		.byte	0x67
 1508 06bf E8060000 		.4byte	0x6e8
 1509 06c3 07       		.uleb128 0x7
 1510 06c4 F1010000 		.4byte	.LASF102
 1511 06c8 0C       		.byte	0xc
 1512 06c9 6B       		.byte	0x6b
 1513 06ca 2C000000 		.4byte	0x2c
 1514 06ce 00       		.byte	0
 1515 06cf 07       		.uleb128 0x7
 1516 06d0 00000000 		.4byte	.LASF103
 1517 06d4 0C       		.byte	0xc
 1518 06d5 6F       		.byte	0x6f
 1519 06d6 E8060000 		.4byte	0x6e8
 1520 06da 04       		.byte	0x4
 1521 06db 07       		.uleb128 0x7
 1522 06dc E5040000 		.4byte	.LASF104
 1523 06e0 0C       		.byte	0xc
 1524 06e1 73       		.byte	0x73
ARM GAS  C:\Users\jo\AppData\Local\Temp\ccT3NT9r.s 			page 28


 1525 06e2 EE060000 		.4byte	0x6ee
 1526 06e6 08       		.byte	0x8
 1527 06e7 00       		.byte	0
 1528 06e8 0A       		.uleb128 0xa
 1529 06e9 04       		.byte	0x4
 1530 06ea AF060000 		.4byte	0x6af
 1531 06ee 12       		.uleb128 0x12
 1532 06ef AF060000 		.4byte	0x6af
 1533 06f3 FE060000 		.4byte	0x6fe
 1534 06f7 13       		.uleb128 0x13
 1535 06f8 7D040000 		.4byte	0x47d
 1536 06fc 3F       		.byte	0x3f
 1537 06fd 00       		.byte	0
 1538 06fe 04       		.uleb128 0x4
 1539 06ff 7F000000 		.4byte	.LASF105
 1540 0703 0C       		.byte	0xc
 1541 0704 74       		.byte	0x74
 1542 0705 BA060000 		.4byte	0x6ba
 1543 0709 17       		.uleb128 0x17
 1544 070a 04       		.byte	0x4
 1545 070b 0D       		.byte	0xd
 1546 070c 38       		.byte	0x38
 1547 070d 1E070000 		.4byte	0x71e
 1548 0711 07       		.uleb128 0x7
 1549 0712 9D060000 		.4byte	.LASF106
 1550 0716 0D       		.byte	0xd
 1551 0717 3C       		.byte	0x3c
 1552 0718 CD000000 		.4byte	0xcd
 1553 071c 00       		.byte	0
 1554 071d 00       		.byte	0
 1555 071e 04       		.uleb128 0x4
 1556 071f 96040000 		.4byte	.LASF107
 1557 0723 0D       		.byte	0xd
 1558 0724 3D       		.byte	0x3d
 1559 0725 09070000 		.4byte	0x709
 1560 0729 19       		.uleb128 0x19
 1561 072a 04       		.byte	0x4
 1562 072b 08       		.byte	0x8
 1563 072c FA       		.byte	0xfa
 1564 072d 86070000 		.4byte	0x786
 1565 0731 1A       		.uleb128 0x1a
 1566 0732 1F000000 		.4byte	.LASF108
 1567 0736 08       		.byte	0x8
 1568 0737 0101     		.2byte	0x101
 1569 0739 04010000 		.4byte	0x104
 1570 073d 1A       		.uleb128 0x1a
 1571 073e 9A000000 		.4byte	.LASF109
 1572 0742 08       		.byte	0x8
 1573 0743 0801     		.2byte	0x108
 1574 0745 04010000 		.4byte	0x104
 1575 0749 1A       		.uleb128 0x1a
 1576 074a 50070000 		.4byte	.LASF110
 1577 074e 08       		.byte	0x8
 1578 074f 0F01     		.2byte	0x10f
 1579 0751 1C030000 		.4byte	0x31c
 1580 0755 1A       		.uleb128 0x1a
 1581 0756 19000000 		.4byte	.LASF111
ARM GAS  C:\Users\jo\AppData\Local\Temp\ccT3NT9r.s 			page 29


 1582 075a 08       		.byte	0x8
 1583 075b 1601     		.2byte	0x116
 1584 075d 86070000 		.4byte	0x786
 1585 0761 1A       		.uleb128 0x1a
 1586 0762 8E020000 		.4byte	.LASF112
 1587 0766 08       		.byte	0x8
 1588 0767 1E01     		.2byte	0x11e
 1589 0769 B1070000 		.4byte	0x7b1
 1590 076d 1A       		.uleb128 0x1a
 1591 076e F3050000 		.4byte	.LASF113
 1592 0772 08       		.byte	0x8
 1593 0773 2701     		.2byte	0x127
 1594 0775 E8070000 		.4byte	0x7e8
 1595 0779 1A       		.uleb128 0x1a
 1596 077a 82050000 		.4byte	.LASF114
 1597 077e 08       		.byte	0x8
 1598 077f 2F01     		.2byte	0x12f
 1599 0781 0F010000 		.4byte	0x10f
 1600 0785 00       		.byte	0
 1601 0786 0A       		.uleb128 0xa
 1602 0787 04       		.byte	0x4
 1603 0788 34020000 		.4byte	0x234
 1604 078c 06       		.uleb128 0x6
 1605 078d A9050000 		.4byte	.LASF115
 1606 0791 0C       		.byte	0xc
 1607 0792 0E       		.byte	0xe
 1608 0793 34       		.byte	0x34
 1609 0794 B1070000 		.4byte	0x7b1
 1610 0798 07       		.uleb128 0x7
 1611 0799 D6010000 		.4byte	.LASF116
 1612 079d 0E       		.byte	0xe
 1613 079e 35       		.byte	0x35
 1614 079f 69020000 		.4byte	0x269
 1615 07a3 00       		.byte	0
 1616 07a4 07       		.uleb128 0x7
 1617 07a5 A0020000 		.4byte	.LASF117
 1618 07a9 0E       		.byte	0xe
 1619 07aa 37       		.byte	0x37
 1620 07ab 1A010000 		.4byte	0x11a
 1621 07af 08       		.byte	0x8
 1622 07b0 00       		.byte	0
 1623 07b1 0A       		.uleb128 0xa
 1624 07b2 04       		.byte	0x4
 1625 07b3 8C070000 		.4byte	0x78c
 1626 07b7 06       		.uleb128 0x6
 1627 07b8 18070000 		.4byte	.LASF118
 1628 07bc 10       		.byte	0x10
 1629 07bd 0F       		.byte	0xf
 1630 07be 39       		.byte	0x39
 1631 07bf E8070000 		.4byte	0x7e8
 1632 07c3 07       		.uleb128 0x7
 1633 07c4 6C010000 		.4byte	.LASF119
 1634 07c8 0F       		.byte	0xf
 1635 07c9 3A       		.byte	0x3a
 1636 07ca 69020000 		.4byte	0x269
 1637 07ce 00       		.byte	0
 1638 07cf 07       		.uleb128 0x7
ARM GAS  C:\Users\jo\AppData\Local\Temp\ccT3NT9r.s 			page 30


 1639 07d0 88070000 		.4byte	.LASF120
 1640 07d4 0F       		.byte	0xf
 1641 07d5 3C       		.byte	0x3c
 1642 07d6 3F020000 		.4byte	0x23f
 1643 07da 08       		.byte	0x8
 1644 07db 07       		.uleb128 0x7
 1645 07dc 55060000 		.4byte	.LASF121
 1646 07e0 0F       		.byte	0xf
 1647 07e1 3E       		.byte	0x3e
 1648 07e2 2C080000 		.4byte	0x82c
 1649 07e6 0C       		.byte	0xc
 1650 07e7 00       		.byte	0
 1651 07e8 0A       		.uleb128 0xa
 1652 07e9 04       		.byte	0x4
 1653 07ea B7070000 		.4byte	0x7b7
 1654 07ee 0A       		.uleb128 0xa
 1655 07ef 04       		.byte	0x4
 1656 07f0 F4070000 		.4byte	0x7f4
 1657 07f4 1B       		.uleb128 0x1b
 1658 07f5 F9070000 		.4byte	0x7f9
 1659 07f9 03       		.uleb128 0x3
 1660 07fa 01       		.byte	0x1
 1661 07fb 08       		.byte	0x8
 1662 07fc 2D060000 		.4byte	.LASF122
 1663 0800 0A       		.uleb128 0xa
 1664 0801 04       		.byte	0x4
 1665 0802 AF040000 		.4byte	0x4af
 1666 0806 0A       		.uleb128 0xa
 1667 0807 04       		.byte	0x4
 1668 0808 1E030000 		.4byte	0x31e
 1669 080c 05       		.uleb128 0x5
 1670 080d EE070000 		.4byte	0x7ee
 1671 0811 12       		.uleb128 0x12
 1672 0812 AF040000 		.4byte	0x4af
 1673 0816 21080000 		.4byte	0x821
 1674 081a 13       		.uleb128 0x13
 1675 081b 7D040000 		.4byte	0x47d
 1676 081f 1B       		.byte	0x1b
 1677 0820 00       		.byte	0
 1678 0821 04       		.uleb128 0x4
 1679 0822 1A020000 		.4byte	.LASF123
 1680 0826 0F       		.byte	0xf
 1681 0827 34       		.byte	0x34
 1682 0828 B7070000 		.4byte	0x7b7
 1683 082c 0A       		.uleb128 0xa
 1684 082d 04       		.byte	0x4
 1685 082e 21080000 		.4byte	0x821
 1686 0832 1C       		.uleb128 0x1c
 1687 0833 85060000 		.4byte	.LASF147
 1688 0837 02       		.byte	0x2
 1689 0838 2002     		.2byte	0x220
 1690 083a 03       		.byte	0x3
 1691 083b 4C080000 		.4byte	0x84c
 1692 083f 1D       		.uleb128 0x1d
 1693 0840 22020000 		.4byte	.LASF148
 1694 0844 02       		.byte	0x2
 1695 0845 2002     		.2byte	0x220
ARM GAS  C:\Users\jo\AppData\Local\Temp\ccT3NT9r.s 			page 31


 1696 0847 AD000000 		.4byte	0xad
 1697 084b 00       		.byte	0
 1698 084c 1E       		.uleb128 0x1e
 1699 084d 54000000 		.4byte	.LASF124
 1700 0851 0A       		.byte	0xa
 1701 0852 BC01     		.2byte	0x1bc
 1702 0854 03       		.byte	0x3
 1703 0855 1E       		.uleb128 0x1e
 1704 0856 7B010000 		.4byte	.LASF125
 1705 085a 0A       		.byte	0xa
 1706 085b CA01     		.2byte	0x1ca
 1707 085d 03       		.byte	0x3
 1708 085e 1F       		.uleb128 0x1f
 1709 085f C6050000 		.4byte	.LASF126
 1710 0863 03       		.byte	0x3
 1711 0864 7F       		.byte	0x7f
 1712 0865 25010000 		.4byte	0x125
 1713 0869 03       		.byte	0x3
 1714 086a 1F       		.uleb128 0x1f
 1715 086b B7060000 		.4byte	.LASF127
 1716 086f 10       		.byte	0x10
 1717 0870 69       		.byte	0x69
 1718 0871 25010000 		.4byte	0x125
 1719 0875 03       		.byte	0x3
 1720 0876 1E       		.uleb128 0x1e
 1721 0877 D3060000 		.4byte	.LASF128
 1722 087b 0A       		.byte	0xa
 1723 087c D901     		.2byte	0x1d9
 1724 087e 03       		.byte	0x3
 1725 087f 1E       		.uleb128 0x1e
 1726 0880 37060000 		.4byte	.LASF129
 1727 0884 0A       		.byte	0xa
 1728 0885 E401     		.2byte	0x1e4
 1729 0887 03       		.byte	0x3
 1730 0888 1F       		.uleb128 0x1f
 1731 0889 46020000 		.4byte	.LASF130
 1732 088d 11       		.byte	0x11
 1733 088e E4       		.byte	0xe4
 1734 088f 25010000 		.4byte	0x125
 1735 0893 03       		.byte	0x3
 1736 0894 20       		.uleb128 0x20
 1737 0895 EF040000 		.4byte	.LASF131
 1738 0899 01       		.byte	0x1
 1739 089a 72       		.byte	0x72
 1740 089b 00000000 		.4byte	.LFB228
 1741 089f 1C000000 		.4byte	.LFE228-.LFB228
 1742 08a3 01       		.uleb128 0x1
 1743 08a4 9C       		.byte	0x9c
 1744 08a5 BD080000 		.4byte	0x8bd
 1745 08a9 21       		.uleb128 0x21
 1746 08aa 10000000 		.4byte	.LVL0
 1747 08ae C50B0000 		.4byte	0xbc5
 1748 08b2 22       		.uleb128 0x22
 1749 08b3 01       		.uleb128 0x1
 1750 08b4 50       		.byte	0x50
 1751 08b5 05       		.uleb128 0x5
 1752 08b6 03       		.byte	0x3
ARM GAS  C:\Users\jo\AppData\Local\Temp\ccT3NT9r.s 			page 32


 1753 08b7 00000000 		.4byte	.LC0
 1754 08bb 00       		.byte	0
 1755 08bc 00       		.byte	0
 1756 08bd 20       		.uleb128 0x20
 1757 08be 00040000 		.4byte	.LASF132
 1758 08c2 01       		.byte	0x1
 1759 08c3 7E       		.byte	0x7e
 1760 08c4 00000000 		.4byte	.LFB229
 1761 08c8 1C000000 		.4byte	.LFE229-.LFB229
 1762 08cc 01       		.uleb128 0x1
 1763 08cd 9C       		.byte	0x9c
 1764 08ce E6080000 		.4byte	0x8e6
 1765 08d2 21       		.uleb128 0x21
 1766 08d3 10000000 		.4byte	.LVL1
 1767 08d7 C50B0000 		.4byte	0xbc5
 1768 08db 22       		.uleb128 0x22
 1769 08dc 01       		.uleb128 0x1
 1770 08dd 50       		.byte	0x50
 1771 08de 05       		.uleb128 0x5
 1772 08df 03       		.byte	0x3
 1773 08e0 08000000 		.4byte	.LC1
 1774 08e4 00       		.byte	0
 1775 08e5 00       		.byte	0
 1776 08e6 20       		.uleb128 0x20
 1777 08e7 87010000 		.4byte	.LASF133
 1778 08eb 01       		.byte	0x1
 1779 08ec 8A       		.byte	0x8a
 1780 08ed 00000000 		.4byte	.LFB230
 1781 08f1 1C000000 		.4byte	.LFE230-.LFB230
 1782 08f5 01       		.uleb128 0x1
 1783 08f6 9C       		.byte	0x9c
 1784 08f7 0F090000 		.4byte	0x90f
 1785 08fb 21       		.uleb128 0x21
 1786 08fc 10000000 		.4byte	.LVL2
 1787 0900 C50B0000 		.4byte	0xbc5
 1788 0904 22       		.uleb128 0x22
 1789 0905 01       		.uleb128 0x1
 1790 0906 50       		.byte	0x50
 1791 0907 05       		.uleb128 0x5
 1792 0908 03       		.byte	0x3
 1793 0909 10000000 		.4byte	.LC2
 1794 090d 00       		.byte	0
 1795 090e 00       		.byte	0
 1796 090f 20       		.uleb128 0x20
 1797 0910 39040000 		.4byte	.LASF134
 1798 0914 01       		.byte	0x1
 1799 0915 96       		.byte	0x96
 1800 0916 00000000 		.4byte	.LFB231
 1801 091a 20000000 		.4byte	.LFE231-.LFB231
 1802 091e 01       		.uleb128 0x1
 1803 091f 9C       		.byte	0x9c
 1804 0920 38090000 		.4byte	0x938
 1805 0924 23       		.uleb128 0x23
 1806 0925 12000000 		.4byte	.LVL3
 1807 0929 C50B0000 		.4byte	0xbc5
 1808 092d 22       		.uleb128 0x22
 1809 092e 01       		.uleb128 0x1
ARM GAS  C:\Users\jo\AppData\Local\Temp\ccT3NT9r.s 			page 33


 1810 092f 50       		.byte	0x50
 1811 0930 05       		.uleb128 0x5
 1812 0931 03       		.byte	0x3
 1813 0932 18000000 		.4byte	.LC3
 1814 0936 00       		.byte	0
 1815 0937 00       		.byte	0
 1816 0938 20       		.uleb128 0x20
 1817 0939 3E070000 		.4byte	.LASF135
 1818 093d 01       		.byte	0x1
 1819 093e A3       		.byte	0xa3
 1820 093f 00000000 		.4byte	.LFB232
 1821 0943 28000000 		.4byte	.LFE232-.LFB232
 1822 0947 01       		.uleb128 0x1
 1823 0948 9C       		.byte	0x9c
 1824 0949 61090000 		.4byte	0x961
 1825 094d 23       		.uleb128 0x23
 1826 094e 1A000000 		.4byte	.LVL4
 1827 0952 C50B0000 		.4byte	0xbc5
 1828 0956 22       		.uleb128 0x22
 1829 0957 01       		.uleb128 0x1
 1830 0958 50       		.byte	0x50
 1831 0959 05       		.uleb128 0x5
 1832 095a 03       		.byte	0x3
 1833 095b 20000000 		.4byte	.LC4
 1834 095f 00       		.byte	0
 1835 0960 00       		.byte	0
 1836 0961 20       		.uleb128 0x20
 1837 0962 B9040000 		.4byte	.LASF136
 1838 0966 01       		.byte	0x1
 1839 0967 B0       		.byte	0xb0
 1840 0968 00000000 		.4byte	.LFB233
 1841 096c 24000000 		.4byte	.LFE233-.LFB233
 1842 0970 01       		.uleb128 0x1
 1843 0971 9C       		.byte	0x9c
 1844 0972 8A090000 		.4byte	0x98a
 1845 0976 23       		.uleb128 0x23
 1846 0977 14000000 		.4byte	.LVL5
 1847 097b C50B0000 		.4byte	0xbc5
 1848 097f 22       		.uleb128 0x22
 1849 0980 01       		.uleb128 0x1
 1850 0981 50       		.byte	0x50
 1851 0982 05       		.uleb128 0x5
 1852 0983 03       		.byte	0x3
 1853 0984 28000000 		.4byte	.LC5
 1854 0988 00       		.byte	0
 1855 0989 00       		.byte	0
 1856 098a 20       		.uleb128 0x20
 1857 098b ED060000 		.4byte	.LASF137
 1858 098f 01       		.byte	0x1
 1859 0990 BD       		.byte	0xbd
 1860 0991 00000000 		.4byte	.LFB234
 1861 0995 2C000000 		.4byte	.LFE234-.LFB234
 1862 0999 01       		.uleb128 0x1
 1863 099a 9C       		.byte	0x9c
 1864 099b B3090000 		.4byte	0x9b3
 1865 099f 23       		.uleb128 0x23
 1866 09a0 1C000000 		.4byte	.LVL6
ARM GAS  C:\Users\jo\AppData\Local\Temp\ccT3NT9r.s 			page 34


 1867 09a4 C50B0000 		.4byte	0xbc5
 1868 09a8 22       		.uleb128 0x22
 1869 09a9 01       		.uleb128 0x1
 1870 09aa 50       		.byte	0x50
 1871 09ab 05       		.uleb128 0x5
 1872 09ac 03       		.byte	0x3
 1873 09ad 30000000 		.4byte	.LC6
 1874 09b1 00       		.byte	0
 1875 09b2 00       		.byte	0
 1876 09b3 20       		.uleb128 0x20
 1877 09b4 7B040000 		.4byte	.LASF138
 1878 09b8 01       		.byte	0x1
 1879 09b9 CA       		.byte	0xca
 1880 09ba 00000000 		.4byte	.LFB235
 1881 09be 30000000 		.4byte	.LFE235-.LFB235
 1882 09c2 01       		.uleb128 0x1
 1883 09c3 9C       		.byte	0x9c
 1884 09c4 540A0000 		.4byte	0xa54
 1885 09c8 24       		.uleb128 0x24
 1886 09c9 76080000 		.4byte	0x876
 1887 09cd 02000000 		.4byte	.LBB45
 1888 09d1 06000000 		.4byte	.LBE45-.LBB45
 1889 09d5 01       		.byte	0x1
 1890 09d6 CC       		.byte	0xcc
 1891 09d7 040A0000 		.4byte	0xa04
 1892 09db 25       		.uleb128 0x25
 1893 09dc 4C080000 		.4byte	0x84c
 1894 09e0 02000000 		.4byte	.LBB46
 1895 09e4 06000000 		.4byte	.LBE46-.LBB46
 1896 09e8 0A       		.byte	0xa
 1897 09e9 DB01     		.2byte	0x1db
 1898 09eb 25       		.uleb128 0x25
 1899 09ec 32080000 		.4byte	0x832
 1900 09f0 02000000 		.4byte	.LBB47
 1901 09f4 06000000 		.4byte	.LBE47-.LBB47
 1902 09f8 0A       		.byte	0xa
 1903 09f9 BF01     		.2byte	0x1bf
 1904 09fb 26       		.uleb128 0x26
 1905 09fc 3F080000 		.4byte	0x83f
 1906 0a00 20       		.byte	0x20
 1907 0a01 00       		.byte	0
 1908 0a02 00       		.byte	0
 1909 0a03 00       		.byte	0
 1910 0a04 24       		.uleb128 0x24
 1911 0a05 7F080000 		.4byte	0x87f
 1912 0a09 20000000 		.4byte	.LBB49
 1913 0a0d 10000000 		.4byte	.LBE49-.LBB49
 1914 0a11 01       		.byte	0x1
 1915 0a12 D1       		.byte	0xd1
 1916 0a13 400A0000 		.4byte	0xa40
 1917 0a17 25       		.uleb128 0x25
 1918 0a18 55080000 		.4byte	0x855
 1919 0a1c 20000000 		.4byte	.LBB50
 1920 0a20 10000000 		.4byte	.LBE50-.LBB50
 1921 0a24 0A       		.byte	0xa
 1922 0a25 E601     		.2byte	0x1e6
 1923 0a27 25       		.uleb128 0x25
ARM GAS  C:\Users\jo\AppData\Local\Temp\ccT3NT9r.s 			page 35


 1924 0a28 32080000 		.4byte	0x832
 1925 0a2c 20000000 		.4byte	.LBB51
 1926 0a30 10000000 		.4byte	.LBE51-.LBB51
 1927 0a34 0A       		.byte	0xa
 1928 0a35 CD01     		.2byte	0x1cd
 1929 0a37 26       		.uleb128 0x26
 1930 0a38 3F080000 		.4byte	0x83f
 1931 0a3c 00       		.byte	0
 1932 0a3d 00       		.byte	0
 1933 0a3e 00       		.byte	0
 1934 0a3f 00       		.byte	0
 1935 0a40 23       		.uleb128 0x23
 1936 0a41 1A000000 		.4byte	.LVL8
 1937 0a45 C50B0000 		.4byte	0xbc5
 1938 0a49 22       		.uleb128 0x22
 1939 0a4a 01       		.uleb128 0x1
 1940 0a4b 50       		.byte	0x50
 1941 0a4c 05       		.uleb128 0x5
 1942 0a4d 03       		.byte	0x3
 1943 0a4e 38000000 		.4byte	.LC7
 1944 0a52 00       		.byte	0
 1945 0a53 00       		.byte	0
 1946 0a54 20       		.uleb128 0x20
 1947 0a55 79020000 		.4byte	.LASF139
 1948 0a59 01       		.byte	0x1
 1949 0a5a D9       		.byte	0xd9
 1950 0a5b 00000000 		.4byte	.LFB236
 1951 0a5f 30000000 		.4byte	.LFE236-.LFB236
 1952 0a63 01       		.uleb128 0x1
 1953 0a64 9C       		.byte	0x9c
 1954 0a65 F50A0000 		.4byte	0xaf5
 1955 0a69 24       		.uleb128 0x24
 1956 0a6a 76080000 		.4byte	0x876
 1957 0a6e 02000000 		.4byte	.LBB53
 1958 0a72 06000000 		.4byte	.LBE53-.LBB53
 1959 0a76 01       		.byte	0x1
 1960 0a77 DB       		.byte	0xdb
 1961 0a78 A50A0000 		.4byte	0xaa5
 1962 0a7c 25       		.uleb128 0x25
 1963 0a7d 4C080000 		.4byte	0x84c
 1964 0a81 02000000 		.4byte	.LBB54
 1965 0a85 06000000 		.4byte	.LBE54-.LBB54
 1966 0a89 0A       		.byte	0xa
 1967 0a8a DB01     		.2byte	0x1db
 1968 0a8c 25       		.uleb128 0x25
 1969 0a8d 32080000 		.4byte	0x832
 1970 0a91 02000000 		.4byte	.LBB55
 1971 0a95 06000000 		.4byte	.LBE55-.LBB55
 1972 0a99 0A       		.byte	0xa
 1973 0a9a BF01     		.2byte	0x1bf
 1974 0a9c 26       		.uleb128 0x26
 1975 0a9d 3F080000 		.4byte	0x83f
 1976 0aa1 20       		.byte	0x20
 1977 0aa2 00       		.byte	0
 1978 0aa3 00       		.byte	0
 1979 0aa4 00       		.byte	0
 1980 0aa5 24       		.uleb128 0x24
ARM GAS  C:\Users\jo\AppData\Local\Temp\ccT3NT9r.s 			page 36


 1981 0aa6 7F080000 		.4byte	0x87f
 1982 0aaa 20000000 		.4byte	.LBB57
 1983 0aae 10000000 		.4byte	.LBE57-.LBB57
 1984 0ab2 01       		.byte	0x1
 1985 0ab3 E0       		.byte	0xe0
 1986 0ab4 E10A0000 		.4byte	0xae1
 1987 0ab8 25       		.uleb128 0x25
 1988 0ab9 55080000 		.4byte	0x855
 1989 0abd 20000000 		.4byte	.LBB58
 1990 0ac1 10000000 		.4byte	.LBE58-.LBB58
 1991 0ac5 0A       		.byte	0xa
 1992 0ac6 E601     		.2byte	0x1e6
 1993 0ac8 25       		.uleb128 0x25
 1994 0ac9 32080000 		.4byte	0x832
 1995 0acd 20000000 		.4byte	.LBB59
 1996 0ad1 10000000 		.4byte	.LBE59-.LBB59
 1997 0ad5 0A       		.byte	0xa
 1998 0ad6 CD01     		.2byte	0x1cd
 1999 0ad8 26       		.uleb128 0x26
 2000 0ad9 3F080000 		.4byte	0x83f
 2001 0add 00       		.byte	0
 2002 0ade 00       		.byte	0
 2003 0adf 00       		.byte	0
 2004 0ae0 00       		.byte	0
 2005 0ae1 23       		.uleb128 0x23
 2006 0ae2 1A000000 		.4byte	.LVL11
 2007 0ae6 C50B0000 		.4byte	0xbc5
 2008 0aea 22       		.uleb128 0x22
 2009 0aeb 01       		.uleb128 0x1
 2010 0aec 50       		.byte	0x50
 2011 0aed 05       		.uleb128 0x5
 2012 0aee 03       		.byte	0x3
 2013 0aef 40000000 		.4byte	.LC8
 2014 0af3 00       		.byte	0
 2015 0af4 00       		.byte	0
 2016 0af5 20       		.uleb128 0x20
 2017 0af6 BB020000 		.4byte	.LASF140
 2018 0afa 01       		.byte	0x1
 2019 0afb EB       		.byte	0xeb
 2020 0afc 00000000 		.4byte	.LFB237
 2021 0b00 20000000 		.4byte	.LFE237-.LFB237
 2022 0b04 01       		.uleb128 0x1
 2023 0b05 9C       		.byte	0x9c
 2024 0b06 1E0B0000 		.4byte	0xb1e
 2025 0b0a 21       		.uleb128 0x21
 2026 0b0b 16000000 		.4byte	.LVL13
 2027 0b0f C50B0000 		.4byte	0xbc5
 2028 0b13 22       		.uleb128 0x22
 2029 0b14 01       		.uleb128 0x1
 2030 0b15 50       		.byte	0x50
 2031 0b16 05       		.uleb128 0x5
 2032 0b17 03       		.byte	0x3
 2033 0b18 48000000 		.4byte	.LC9
 2034 0b1c 00       		.byte	0
 2035 0b1d 00       		.byte	0
 2036 0b1e 20       		.uleb128 0x20
 2037 0b1f D9050000 		.4byte	.LASF141
ARM GAS  C:\Users\jo\AppData\Local\Temp\ccT3NT9r.s 			page 37


 2038 0b23 01       		.byte	0x1
 2039 0b24 FA       		.byte	0xfa
 2040 0b25 00000000 		.4byte	.LFB238
 2041 0b29 1C000000 		.4byte	.LFE238-.LFB238
 2042 0b2d 01       		.uleb128 0x1
 2043 0b2e 9C       		.byte	0x9c
 2044 0b2f 470B0000 		.4byte	0xb47
 2045 0b33 21       		.uleb128 0x21
 2046 0b34 14000000 		.4byte	.LVL14
 2047 0b38 C50B0000 		.4byte	0xbc5
 2048 0b3c 22       		.uleb128 0x22
 2049 0b3d 01       		.uleb128 0x1
 2050 0b3e 50       		.byte	0x50
 2051 0b3f 05       		.uleb128 0x5
 2052 0b40 03       		.byte	0x3
 2053 0b41 50000000 		.4byte	.LC10
 2054 0b45 00       		.byte	0
 2055 0b46 00       		.byte	0
 2056 0b47 27       		.uleb128 0x27
 2057 0b48 47050000 		.4byte	.LASF149
 2058 0b4c 01       		.byte	0x1
 2059 0b4d 0801     		.2byte	0x108
 2060 0b4f 00000000 		.4byte	.LFB239
 2061 0b53 10000000 		.4byte	.LFE239-.LFB239
 2062 0b57 01       		.uleb128 0x1
 2063 0b58 9C       		.byte	0x9c
 2064 0b59 28       		.uleb128 0x28
 2065 0b5a AC060000 		.4byte	.LASF142
 2066 0b5e 01       		.byte	0x1
 2067 0b5f 1501     		.2byte	0x115
 2068 0b61 00000000 		.4byte	.LFB240
 2069 0b65 38000000 		.4byte	.LFE240-.LFB240
 2070 0b69 01       		.uleb128 0x1
 2071 0b6a 9C       		.byte	0x9c
 2072 0b6b AE0B0000 		.4byte	0xbae
 2073 0b6f 29       		.uleb128 0x29
 2074 0b70 6F747000 		.ascii	"otp\000"
 2075 0b74 01       		.byte	0x1
 2076 0b75 1501     		.2byte	0x115
 2077 0b77 3F020000 		.4byte	0x23f
 2078 0b7b 01       		.uleb128 0x1
 2079 0b7c 50       		.byte	0x50
 2080 0b7d 2A       		.uleb128 0x2a
 2081 0b7e 88080000 		.4byte	0x888
 2082 0b82 02000000 		.4byte	.LBB61
 2083 0b86 00000000 		.4byte	.Ldebug_ranges0+0
 2084 0b8a 01       		.byte	0x1
 2085 0b8b 1701     		.2byte	0x117
 2086 0b8d 2B       		.uleb128 0x2b
 2087 0b8e 6A080000 		.4byte	0x86a
 2088 0b92 02000000 		.4byte	.LBB62
 2089 0b96 00000000 		.4byte	.Ldebug_ranges0+0
 2090 0b9a 11       		.byte	0x11
 2091 0b9b E9       		.byte	0xe9
 2092 0b9c 2C       		.uleb128 0x2c
 2093 0b9d 5E080000 		.4byte	0x85e
 2094 0ba1 02000000 		.4byte	.LBB63
ARM GAS  C:\Users\jo\AppData\Local\Temp\ccT3NT9r.s 			page 38


 2095 0ba5 00000000 		.4byte	.Ldebug_ranges0+0
 2096 0ba9 10       		.byte	0x10
 2097 0baa 6B       		.byte	0x6b
 2098 0bab 00       		.byte	0
 2099 0bac 00       		.byte	0
 2100 0bad 00       		.byte	0
 2101 0bae 2D       		.uleb128 0x2d
 2102 0baf CE000000 		.4byte	.LASF143
 2103 0bb3 12       		.byte	0x12
 2104 0bb4 A706     		.2byte	0x6a7
 2105 0bb6 C3000000 		.4byte	0xc3
 2106 0bba 2E       		.uleb128 0x2e
 2107 0bbb 636800   		.ascii	"ch\000"
 2108 0bbe 08       		.byte	0x8
 2109 0bbf 0902     		.2byte	0x209
 2110 0bc1 13040000 		.4byte	0x413
 2111 0bc5 2F       		.uleb128 0x2f
 2112 0bc6 5E000000 		.4byte	.LASF150
 2113 0bca 13       		.byte	0x13
 2114 0bcb 1601     		.2byte	0x116
 2115 0bcd 0D       		.uleb128 0xd
 2116 0bce EE070000 		.4byte	0x7ee
 2117 0bd2 00       		.byte	0
 2118 0bd3 00       		.byte	0
 2119              		.section	.debug_abbrev,"",%progbits
 2120              	.Ldebug_abbrev0:
 2121 0000 01       		.uleb128 0x1
 2122 0001 11       		.uleb128 0x11
 2123 0002 01       		.byte	0x1
 2124 0003 25       		.uleb128 0x25
 2125 0004 0E       		.uleb128 0xe
 2126 0005 13       		.uleb128 0x13
 2127 0006 0B       		.uleb128 0xb
 2128 0007 03       		.uleb128 0x3
 2129 0008 0E       		.uleb128 0xe
 2130 0009 1B       		.uleb128 0x1b
 2131 000a 0E       		.uleb128 0xe
 2132 000b 55       		.uleb128 0x55
 2133 000c 17       		.uleb128 0x17
 2134 000d 11       		.uleb128 0x11
 2135 000e 01       		.uleb128 0x1
 2136 000f 10       		.uleb128 0x10
 2137 0010 17       		.uleb128 0x17
 2138 0011 00       		.byte	0
 2139 0012 00       		.byte	0
 2140 0013 02       		.uleb128 0x2
 2141 0014 24       		.uleb128 0x24
 2142 0015 00       		.byte	0
 2143 0016 0B       		.uleb128 0xb
 2144 0017 0B       		.uleb128 0xb
 2145 0018 3E       		.uleb128 0x3e
 2146 0019 0B       		.uleb128 0xb
 2147 001a 03       		.uleb128 0x3
 2148 001b 08       		.uleb128 0x8
 2149 001c 00       		.byte	0
 2150 001d 00       		.byte	0
 2151 001e 03       		.uleb128 0x3
ARM GAS  C:\Users\jo\AppData\Local\Temp\ccT3NT9r.s 			page 39


 2152 001f 24       		.uleb128 0x24
 2153 0020 00       		.byte	0
 2154 0021 0B       		.uleb128 0xb
 2155 0022 0B       		.uleb128 0xb
 2156 0023 3E       		.uleb128 0x3e
 2157 0024 0B       		.uleb128 0xb
 2158 0025 03       		.uleb128 0x3
 2159 0026 0E       		.uleb128 0xe
 2160 0027 00       		.byte	0
 2161 0028 00       		.byte	0
 2162 0029 04       		.uleb128 0x4
 2163 002a 16       		.uleb128 0x16
 2164 002b 00       		.byte	0
 2165 002c 03       		.uleb128 0x3
 2166 002d 0E       		.uleb128 0xe
 2167 002e 3A       		.uleb128 0x3a
 2168 002f 0B       		.uleb128 0xb
 2169 0030 3B       		.uleb128 0x3b
 2170 0031 0B       		.uleb128 0xb
 2171 0032 49       		.uleb128 0x49
 2172 0033 13       		.uleb128 0x13
 2173 0034 00       		.byte	0
 2174 0035 00       		.byte	0
 2175 0036 05       		.uleb128 0x5
 2176 0037 35       		.uleb128 0x35
 2177 0038 00       		.byte	0
 2178 0039 49       		.uleb128 0x49
 2179 003a 13       		.uleb128 0x13
 2180 003b 00       		.byte	0
 2181 003c 00       		.byte	0
 2182 003d 06       		.uleb128 0x6
 2183 003e 13       		.uleb128 0x13
 2184 003f 01       		.byte	0x1
 2185 0040 03       		.uleb128 0x3
 2186 0041 0E       		.uleb128 0xe
 2187 0042 0B       		.uleb128 0xb
 2188 0043 0B       		.uleb128 0xb
 2189 0044 3A       		.uleb128 0x3a
 2190 0045 0B       		.uleb128 0xb
 2191 0046 3B       		.uleb128 0x3b
 2192 0047 0B       		.uleb128 0xb
 2193 0048 01       		.uleb128 0x1
 2194 0049 13       		.uleb128 0x13
 2195 004a 00       		.byte	0
 2196 004b 00       		.byte	0
 2197 004c 07       		.uleb128 0x7
 2198 004d 0D       		.uleb128 0xd
 2199 004e 00       		.byte	0
 2200 004f 03       		.uleb128 0x3
 2201 0050 0E       		.uleb128 0xe
 2202 0051 3A       		.uleb128 0x3a
 2203 0052 0B       		.uleb128 0xb
 2204 0053 3B       		.uleb128 0x3b
 2205 0054 0B       		.uleb128 0xb
 2206 0055 49       		.uleb128 0x49
 2207 0056 13       		.uleb128 0x13
 2208 0057 38       		.uleb128 0x38
ARM GAS  C:\Users\jo\AppData\Local\Temp\ccT3NT9r.s 			page 40


 2209 0058 0B       		.uleb128 0xb
 2210 0059 00       		.byte	0
 2211 005a 00       		.byte	0
 2212 005b 08       		.uleb128 0x8
 2213 005c 0D       		.uleb128 0xd
 2214 005d 00       		.byte	0
 2215 005e 03       		.uleb128 0x3
 2216 005f 08       		.uleb128 0x8
 2217 0060 3A       		.uleb128 0x3a
 2218 0061 0B       		.uleb128 0xb
 2219 0062 3B       		.uleb128 0x3b
 2220 0063 05       		.uleb128 0x5
 2221 0064 49       		.uleb128 0x49
 2222 0065 13       		.uleb128 0x13
 2223 0066 38       		.uleb128 0x38
 2224 0067 0B       		.uleb128 0xb
 2225 0068 00       		.byte	0
 2226 0069 00       		.byte	0
 2227 006a 09       		.uleb128 0x9
 2228 006b 0D       		.uleb128 0xd
 2229 006c 00       		.byte	0
 2230 006d 03       		.uleb128 0x3
 2231 006e 0E       		.uleb128 0xe
 2232 006f 3A       		.uleb128 0x3a
 2233 0070 0B       		.uleb128 0xb
 2234 0071 3B       		.uleb128 0x3b
 2235 0072 05       		.uleb128 0x5
 2236 0073 49       		.uleb128 0x49
 2237 0074 13       		.uleb128 0x13
 2238 0075 38       		.uleb128 0x38
 2239 0076 0B       		.uleb128 0xb
 2240 0077 00       		.byte	0
 2241 0078 00       		.byte	0
 2242 0079 0A       		.uleb128 0xa
 2243 007a 0F       		.uleb128 0xf
 2244 007b 00       		.byte	0
 2245 007c 0B       		.uleb128 0xb
 2246 007d 0B       		.uleb128 0xb
 2247 007e 49       		.uleb128 0x49
 2248 007f 13       		.uleb128 0x13
 2249 0080 00       		.byte	0
 2250 0081 00       		.byte	0
 2251 0082 0B       		.uleb128 0xb
 2252 0083 13       		.uleb128 0x13
 2253 0084 01       		.byte	0x1
 2254 0085 03       		.uleb128 0x3
 2255 0086 0E       		.uleb128 0xe
 2256 0087 0B       		.uleb128 0xb
 2257 0088 0B       		.uleb128 0xb
 2258 0089 3A       		.uleb128 0x3a
 2259 008a 0B       		.uleb128 0xb
 2260 008b 3B       		.uleb128 0x3b
 2261 008c 05       		.uleb128 0x5
 2262 008d 01       		.uleb128 0x1
 2263 008e 13       		.uleb128 0x13
 2264 008f 00       		.byte	0
 2265 0090 00       		.byte	0
ARM GAS  C:\Users\jo\AppData\Local\Temp\ccT3NT9r.s 			page 41


 2266 0091 0C       		.uleb128 0xc
 2267 0092 15       		.uleb128 0x15
 2268 0093 01       		.byte	0x1
 2269 0094 27       		.uleb128 0x27
 2270 0095 19       		.uleb128 0x19
 2271 0096 01       		.uleb128 0x1
 2272 0097 13       		.uleb128 0x13
 2273 0098 00       		.byte	0
 2274 0099 00       		.byte	0
 2275 009a 0D       		.uleb128 0xd
 2276 009b 05       		.uleb128 0x5
 2277 009c 00       		.byte	0
 2278 009d 49       		.uleb128 0x49
 2279 009e 13       		.uleb128 0x13
 2280 009f 00       		.byte	0
 2281 00a0 00       		.byte	0
 2282 00a1 0E       		.uleb128 0xe
 2283 00a2 0F       		.uleb128 0xf
 2284 00a3 00       		.byte	0
 2285 00a4 0B       		.uleb128 0xb
 2286 00a5 0B       		.uleb128 0xb
 2287 00a6 00       		.byte	0
 2288 00a7 00       		.byte	0
 2289 00a8 0F       		.uleb128 0xf
 2290 00a9 13       		.uleb128 0x13
 2291 00aa 01       		.byte	0x1
 2292 00ab 03       		.uleb128 0x3
 2293 00ac 0E       		.uleb128 0xe
 2294 00ad 0B       		.uleb128 0xb
 2295 00ae 05       		.uleb128 0x5
 2296 00af 3A       		.uleb128 0x3a
 2297 00b0 0B       		.uleb128 0xb
 2298 00b1 3B       		.uleb128 0x3b
 2299 00b2 05       		.uleb128 0x5
 2300 00b3 01       		.uleb128 0x1
 2301 00b4 13       		.uleb128 0x13
 2302 00b5 00       		.byte	0
 2303 00b6 00       		.byte	0
 2304 00b7 10       		.uleb128 0x10
 2305 00b8 0D       		.uleb128 0xd
 2306 00b9 00       		.byte	0
 2307 00ba 03       		.uleb128 0x3
 2308 00bb 0E       		.uleb128 0xe
 2309 00bc 3A       		.uleb128 0x3a
 2310 00bd 0B       		.uleb128 0xb
 2311 00be 3B       		.uleb128 0x3b
 2312 00bf 05       		.uleb128 0x5
 2313 00c0 49       		.uleb128 0x49
 2314 00c1 13       		.uleb128 0x13
 2315 00c2 38       		.uleb128 0x38
 2316 00c3 05       		.uleb128 0x5
 2317 00c4 00       		.byte	0
 2318 00c5 00       		.byte	0
 2319 00c6 11       		.uleb128 0x11
 2320 00c7 0D       		.uleb128 0xd
 2321 00c8 00       		.byte	0
 2322 00c9 03       		.uleb128 0x3
ARM GAS  C:\Users\jo\AppData\Local\Temp\ccT3NT9r.s 			page 42


 2323 00ca 08       		.uleb128 0x8
 2324 00cb 3A       		.uleb128 0x3a
 2325 00cc 0B       		.uleb128 0xb
 2326 00cd 3B       		.uleb128 0x3b
 2327 00ce 05       		.uleb128 0x5
 2328 00cf 49       		.uleb128 0x49
 2329 00d0 13       		.uleb128 0x13
 2330 00d1 38       		.uleb128 0x38
 2331 00d2 05       		.uleb128 0x5
 2332 00d3 00       		.byte	0
 2333 00d4 00       		.byte	0
 2334 00d5 12       		.uleb128 0x12
 2335 00d6 01       		.uleb128 0x1
 2336 00d7 01       		.byte	0x1
 2337 00d8 49       		.uleb128 0x49
 2338 00d9 13       		.uleb128 0x13
 2339 00da 01       		.uleb128 0x1
 2340 00db 13       		.uleb128 0x13
 2341 00dc 00       		.byte	0
 2342 00dd 00       		.byte	0
 2343 00de 13       		.uleb128 0x13
 2344 00df 21       		.uleb128 0x21
 2345 00e0 00       		.byte	0
 2346 00e1 49       		.uleb128 0x49
 2347 00e2 13       		.uleb128 0x13
 2348 00e3 2F       		.uleb128 0x2f
 2349 00e4 0B       		.uleb128 0xb
 2350 00e5 00       		.byte	0
 2351 00e6 00       		.byte	0
 2352 00e7 14       		.uleb128 0x14
 2353 00e8 0D       		.uleb128 0xd
 2354 00e9 00       		.byte	0
 2355 00ea 03       		.uleb128 0x3
 2356 00eb 08       		.uleb128 0x8
 2357 00ec 3A       		.uleb128 0x3a
 2358 00ed 0B       		.uleb128 0xb
 2359 00ee 3B       		.uleb128 0x3b
 2360 00ef 0B       		.uleb128 0xb
 2361 00f0 49       		.uleb128 0x49
 2362 00f1 13       		.uleb128 0x13
 2363 00f2 38       		.uleb128 0x38
 2364 00f3 0B       		.uleb128 0xb
 2365 00f4 00       		.byte	0
 2366 00f5 00       		.byte	0
 2367 00f6 15       		.uleb128 0x15
 2368 00f7 13       		.uleb128 0x13
 2369 00f8 01       		.byte	0x1
 2370 00f9 0B       		.uleb128 0xb
 2371 00fa 0B       		.uleb128 0xb
 2372 00fb 3A       		.uleb128 0x3a
 2373 00fc 0B       		.uleb128 0xb
 2374 00fd 3B       		.uleb128 0x3b
 2375 00fe 05       		.uleb128 0x5
 2376 00ff 01       		.uleb128 0x1
 2377 0100 13       		.uleb128 0x13
 2378 0101 00       		.byte	0
 2379 0102 00       		.byte	0
ARM GAS  C:\Users\jo\AppData\Local\Temp\ccT3NT9r.s 			page 43


 2380 0103 16       		.uleb128 0x16
 2381 0104 16       		.uleb128 0x16
 2382 0105 00       		.byte	0
 2383 0106 03       		.uleb128 0x3
 2384 0107 0E       		.uleb128 0xe
 2385 0108 3A       		.uleb128 0x3a
 2386 0109 0B       		.uleb128 0xb
 2387 010a 3B       		.uleb128 0x3b
 2388 010b 05       		.uleb128 0x5
 2389 010c 49       		.uleb128 0x49
 2390 010d 13       		.uleb128 0x13
 2391 010e 00       		.byte	0
 2392 010f 00       		.byte	0
 2393 0110 17       		.uleb128 0x17
 2394 0111 13       		.uleb128 0x13
 2395 0112 01       		.byte	0x1
 2396 0113 0B       		.uleb128 0xb
 2397 0114 0B       		.uleb128 0xb
 2398 0115 3A       		.uleb128 0x3a
 2399 0116 0B       		.uleb128 0xb
 2400 0117 3B       		.uleb128 0x3b
 2401 0118 0B       		.uleb128 0xb
 2402 0119 01       		.uleb128 0x1
 2403 011a 13       		.uleb128 0x13
 2404 011b 00       		.byte	0
 2405 011c 00       		.byte	0
 2406 011d 18       		.uleb128 0x18
 2407 011e 13       		.uleb128 0x13
 2408 011f 01       		.byte	0x1
 2409 0120 0B       		.uleb128 0xb
 2410 0121 05       		.uleb128 0x5
 2411 0122 3A       		.uleb128 0x3a
 2412 0123 0B       		.uleb128 0xb
 2413 0124 3B       		.uleb128 0x3b
 2414 0125 0B       		.uleb128 0xb
 2415 0126 01       		.uleb128 0x1
 2416 0127 13       		.uleb128 0x13
 2417 0128 00       		.byte	0
 2418 0129 00       		.byte	0
 2419 012a 19       		.uleb128 0x19
 2420 012b 17       		.uleb128 0x17
 2421 012c 01       		.byte	0x1
 2422 012d 0B       		.uleb128 0xb
 2423 012e 0B       		.uleb128 0xb
 2424 012f 3A       		.uleb128 0x3a
 2425 0130 0B       		.uleb128 0xb
 2426 0131 3B       		.uleb128 0x3b
 2427 0132 0B       		.uleb128 0xb
 2428 0133 01       		.uleb128 0x1
 2429 0134 13       		.uleb128 0x13
 2430 0135 00       		.byte	0
 2431 0136 00       		.byte	0
 2432 0137 1A       		.uleb128 0x1a
 2433 0138 0D       		.uleb128 0xd
 2434 0139 00       		.byte	0
 2435 013a 03       		.uleb128 0x3
 2436 013b 0E       		.uleb128 0xe
ARM GAS  C:\Users\jo\AppData\Local\Temp\ccT3NT9r.s 			page 44


 2437 013c 3A       		.uleb128 0x3a
 2438 013d 0B       		.uleb128 0xb
 2439 013e 3B       		.uleb128 0x3b
 2440 013f 05       		.uleb128 0x5
 2441 0140 49       		.uleb128 0x49
 2442 0141 13       		.uleb128 0x13
 2443 0142 00       		.byte	0
 2444 0143 00       		.byte	0
 2445 0144 1B       		.uleb128 0x1b
 2446 0145 26       		.uleb128 0x26
 2447 0146 00       		.byte	0
 2448 0147 49       		.uleb128 0x49
 2449 0148 13       		.uleb128 0x13
 2450 0149 00       		.byte	0
 2451 014a 00       		.byte	0
 2452 014b 1C       		.uleb128 0x1c
 2453 014c 2E       		.uleb128 0x2e
 2454 014d 01       		.byte	0x1
 2455 014e 03       		.uleb128 0x3
 2456 014f 0E       		.uleb128 0xe
 2457 0150 3A       		.uleb128 0x3a
 2458 0151 0B       		.uleb128 0xb
 2459 0152 3B       		.uleb128 0x3b
 2460 0153 05       		.uleb128 0x5
 2461 0154 27       		.uleb128 0x27
 2462 0155 19       		.uleb128 0x19
 2463 0156 20       		.uleb128 0x20
 2464 0157 0B       		.uleb128 0xb
 2465 0158 01       		.uleb128 0x1
 2466 0159 13       		.uleb128 0x13
 2467 015a 00       		.byte	0
 2468 015b 00       		.byte	0
 2469 015c 1D       		.uleb128 0x1d
 2470 015d 05       		.uleb128 0x5
 2471 015e 00       		.byte	0
 2472 015f 03       		.uleb128 0x3
 2473 0160 0E       		.uleb128 0xe
 2474 0161 3A       		.uleb128 0x3a
 2475 0162 0B       		.uleb128 0xb
 2476 0163 3B       		.uleb128 0x3b
 2477 0164 05       		.uleb128 0x5
 2478 0165 49       		.uleb128 0x49
 2479 0166 13       		.uleb128 0x13
 2480 0167 00       		.byte	0
 2481 0168 00       		.byte	0
 2482 0169 1E       		.uleb128 0x1e
 2483 016a 2E       		.uleb128 0x2e
 2484 016b 00       		.byte	0
 2485 016c 03       		.uleb128 0x3
 2486 016d 0E       		.uleb128 0xe
 2487 016e 3A       		.uleb128 0x3a
 2488 016f 0B       		.uleb128 0xb
 2489 0170 3B       		.uleb128 0x3b
 2490 0171 05       		.uleb128 0x5
 2491 0172 27       		.uleb128 0x27
 2492 0173 19       		.uleb128 0x19
 2493 0174 20       		.uleb128 0x20
ARM GAS  C:\Users\jo\AppData\Local\Temp\ccT3NT9r.s 			page 45


 2494 0175 0B       		.uleb128 0xb
 2495 0176 00       		.byte	0
 2496 0177 00       		.byte	0
 2497 0178 1F       		.uleb128 0x1f
 2498 0179 2E       		.uleb128 0x2e
 2499 017a 00       		.byte	0
 2500 017b 03       		.uleb128 0x3
 2501 017c 0E       		.uleb128 0xe
 2502 017d 3A       		.uleb128 0x3a
 2503 017e 0B       		.uleb128 0xb
 2504 017f 3B       		.uleb128 0x3b
 2505 0180 0B       		.uleb128 0xb
 2506 0181 27       		.uleb128 0x27
 2507 0182 19       		.uleb128 0x19
 2508 0183 49       		.uleb128 0x49
 2509 0184 13       		.uleb128 0x13
 2510 0185 20       		.uleb128 0x20
 2511 0186 0B       		.uleb128 0xb
 2512 0187 00       		.byte	0
 2513 0188 00       		.byte	0
 2514 0189 20       		.uleb128 0x20
 2515 018a 2E       		.uleb128 0x2e
 2516 018b 01       		.byte	0x1
 2517 018c 3F       		.uleb128 0x3f
 2518 018d 19       		.uleb128 0x19
 2519 018e 03       		.uleb128 0x3
 2520 018f 0E       		.uleb128 0xe
 2521 0190 3A       		.uleb128 0x3a
 2522 0191 0B       		.uleb128 0xb
 2523 0192 3B       		.uleb128 0x3b
 2524 0193 0B       		.uleb128 0xb
 2525 0194 27       		.uleb128 0x27
 2526 0195 19       		.uleb128 0x19
 2527 0196 11       		.uleb128 0x11
 2528 0197 01       		.uleb128 0x1
 2529 0198 12       		.uleb128 0x12
 2530 0199 06       		.uleb128 0x6
 2531 019a 40       		.uleb128 0x40
 2532 019b 18       		.uleb128 0x18
 2533 019c 9742     		.uleb128 0x2117
 2534 019e 19       		.uleb128 0x19
 2535 019f 01       		.uleb128 0x1
 2536 01a0 13       		.uleb128 0x13
 2537 01a1 00       		.byte	0
 2538 01a2 00       		.byte	0
 2539 01a3 21       		.uleb128 0x21
 2540 01a4 898201   		.uleb128 0x4109
 2541 01a7 01       		.byte	0x1
 2542 01a8 11       		.uleb128 0x11
 2543 01a9 01       		.uleb128 0x1
 2544 01aa 9542     		.uleb128 0x2115
 2545 01ac 19       		.uleb128 0x19
 2546 01ad 31       		.uleb128 0x31
 2547 01ae 13       		.uleb128 0x13
 2548 01af 00       		.byte	0
 2549 01b0 00       		.byte	0
 2550 01b1 22       		.uleb128 0x22
ARM GAS  C:\Users\jo\AppData\Local\Temp\ccT3NT9r.s 			page 46


 2551 01b2 8A8201   		.uleb128 0x410a
 2552 01b5 00       		.byte	0
 2553 01b6 02       		.uleb128 0x2
 2554 01b7 18       		.uleb128 0x18
 2555 01b8 9142     		.uleb128 0x2111
 2556 01ba 18       		.uleb128 0x18
 2557 01bb 00       		.byte	0
 2558 01bc 00       		.byte	0
 2559 01bd 23       		.uleb128 0x23
 2560 01be 898201   		.uleb128 0x4109
 2561 01c1 01       		.byte	0x1
 2562 01c2 11       		.uleb128 0x11
 2563 01c3 01       		.uleb128 0x1
 2564 01c4 31       		.uleb128 0x31
 2565 01c5 13       		.uleb128 0x13
 2566 01c6 00       		.byte	0
 2567 01c7 00       		.byte	0
 2568 01c8 24       		.uleb128 0x24
 2569 01c9 1D       		.uleb128 0x1d
 2570 01ca 01       		.byte	0x1
 2571 01cb 31       		.uleb128 0x31
 2572 01cc 13       		.uleb128 0x13
 2573 01cd 11       		.uleb128 0x11
 2574 01ce 01       		.uleb128 0x1
 2575 01cf 12       		.uleb128 0x12
 2576 01d0 06       		.uleb128 0x6
 2577 01d1 58       		.uleb128 0x58
 2578 01d2 0B       		.uleb128 0xb
 2579 01d3 59       		.uleb128 0x59
 2580 01d4 0B       		.uleb128 0xb
 2581 01d5 01       		.uleb128 0x1
 2582 01d6 13       		.uleb128 0x13
 2583 01d7 00       		.byte	0
 2584 01d8 00       		.byte	0
 2585 01d9 25       		.uleb128 0x25
 2586 01da 1D       		.uleb128 0x1d
 2587 01db 01       		.byte	0x1
 2588 01dc 31       		.uleb128 0x31
 2589 01dd 13       		.uleb128 0x13
 2590 01de 11       		.uleb128 0x11
 2591 01df 01       		.uleb128 0x1
 2592 01e0 12       		.uleb128 0x12
 2593 01e1 06       		.uleb128 0x6
 2594 01e2 58       		.uleb128 0x58
 2595 01e3 0B       		.uleb128 0xb
 2596 01e4 59       		.uleb128 0x59
 2597 01e5 05       		.uleb128 0x5
 2598 01e6 00       		.byte	0
 2599 01e7 00       		.byte	0
 2600 01e8 26       		.uleb128 0x26
 2601 01e9 05       		.uleb128 0x5
 2602 01ea 00       		.byte	0
 2603 01eb 31       		.uleb128 0x31
 2604 01ec 13       		.uleb128 0x13
 2605 01ed 1C       		.uleb128 0x1c
 2606 01ee 0B       		.uleb128 0xb
 2607 01ef 00       		.byte	0
ARM GAS  C:\Users\jo\AppData\Local\Temp\ccT3NT9r.s 			page 47


 2608 01f0 00       		.byte	0
 2609 01f1 27       		.uleb128 0x27
 2610 01f2 2E       		.uleb128 0x2e
 2611 01f3 00       		.byte	0
 2612 01f4 3F       		.uleb128 0x3f
 2613 01f5 19       		.uleb128 0x19
 2614 01f6 03       		.uleb128 0x3
 2615 01f7 0E       		.uleb128 0xe
 2616 01f8 3A       		.uleb128 0x3a
 2617 01f9 0B       		.uleb128 0xb
 2618 01fa 3B       		.uleb128 0x3b
 2619 01fb 05       		.uleb128 0x5
 2620 01fc 27       		.uleb128 0x27
 2621 01fd 19       		.uleb128 0x19
 2622 01fe 11       		.uleb128 0x11
 2623 01ff 01       		.uleb128 0x1
 2624 0200 12       		.uleb128 0x12
 2625 0201 06       		.uleb128 0x6
 2626 0202 40       		.uleb128 0x40
 2627 0203 18       		.uleb128 0x18
 2628 0204 9742     		.uleb128 0x2117
 2629 0206 19       		.uleb128 0x19
 2630 0207 00       		.byte	0
 2631 0208 00       		.byte	0
 2632 0209 28       		.uleb128 0x28
 2633 020a 2E       		.uleb128 0x2e
 2634 020b 01       		.byte	0x1
 2635 020c 3F       		.uleb128 0x3f
 2636 020d 19       		.uleb128 0x19
 2637 020e 03       		.uleb128 0x3
 2638 020f 0E       		.uleb128 0xe
 2639 0210 3A       		.uleb128 0x3a
 2640 0211 0B       		.uleb128 0xb
 2641 0212 3B       		.uleb128 0x3b
 2642 0213 05       		.uleb128 0x5
 2643 0214 27       		.uleb128 0x27
 2644 0215 19       		.uleb128 0x19
 2645 0216 11       		.uleb128 0x11
 2646 0217 01       		.uleb128 0x1
 2647 0218 12       		.uleb128 0x12
 2648 0219 06       		.uleb128 0x6
 2649 021a 40       		.uleb128 0x40
 2650 021b 18       		.uleb128 0x18
 2651 021c 9742     		.uleb128 0x2117
 2652 021e 19       		.uleb128 0x19
 2653 021f 01       		.uleb128 0x1
 2654 0220 13       		.uleb128 0x13
 2655 0221 00       		.byte	0
 2656 0222 00       		.byte	0
 2657 0223 29       		.uleb128 0x29
 2658 0224 05       		.uleb128 0x5
 2659 0225 00       		.byte	0
 2660 0226 03       		.uleb128 0x3
 2661 0227 08       		.uleb128 0x8
 2662 0228 3A       		.uleb128 0x3a
 2663 0229 0B       		.uleb128 0xb
 2664 022a 3B       		.uleb128 0x3b
ARM GAS  C:\Users\jo\AppData\Local\Temp\ccT3NT9r.s 			page 48


 2665 022b 05       		.uleb128 0x5
 2666 022c 49       		.uleb128 0x49
 2667 022d 13       		.uleb128 0x13
 2668 022e 02       		.uleb128 0x2
 2669 022f 18       		.uleb128 0x18
 2670 0230 00       		.byte	0
 2671 0231 00       		.byte	0
 2672 0232 2A       		.uleb128 0x2a
 2673 0233 1D       		.uleb128 0x1d
 2674 0234 01       		.byte	0x1
 2675 0235 31       		.uleb128 0x31
 2676 0236 13       		.uleb128 0x13
 2677 0237 52       		.uleb128 0x52
 2678 0238 01       		.uleb128 0x1
 2679 0239 55       		.uleb128 0x55
 2680 023a 17       		.uleb128 0x17
 2681 023b 58       		.uleb128 0x58
 2682 023c 0B       		.uleb128 0xb
 2683 023d 59       		.uleb128 0x59
 2684 023e 05       		.uleb128 0x5
 2685 023f 00       		.byte	0
 2686 0240 00       		.byte	0
 2687 0241 2B       		.uleb128 0x2b
 2688 0242 1D       		.uleb128 0x1d
 2689 0243 01       		.byte	0x1
 2690 0244 31       		.uleb128 0x31
 2691 0245 13       		.uleb128 0x13
 2692 0246 52       		.uleb128 0x52
 2693 0247 01       		.uleb128 0x1
 2694 0248 55       		.uleb128 0x55
 2695 0249 17       		.uleb128 0x17
 2696 024a 58       		.uleb128 0x58
 2697 024b 0B       		.uleb128 0xb
 2698 024c 59       		.uleb128 0x59
 2699 024d 0B       		.uleb128 0xb
 2700 024e 00       		.byte	0
 2701 024f 00       		.byte	0
 2702 0250 2C       		.uleb128 0x2c
 2703 0251 1D       		.uleb128 0x1d
 2704 0252 00       		.byte	0
 2705 0253 31       		.uleb128 0x31
 2706 0254 13       		.uleb128 0x13
 2707 0255 52       		.uleb128 0x52
 2708 0256 01       		.uleb128 0x1
 2709 0257 55       		.uleb128 0x55
 2710 0258 17       		.uleb128 0x17
 2711 0259 58       		.uleb128 0x58
 2712 025a 0B       		.uleb128 0xb
 2713 025b 59       		.uleb128 0x59
 2714 025c 0B       		.uleb128 0xb
 2715 025d 00       		.byte	0
 2716 025e 00       		.byte	0
 2717 025f 2D       		.uleb128 0x2d
 2718 0260 34       		.uleb128 0x34
 2719 0261 00       		.byte	0
 2720 0262 03       		.uleb128 0x3
 2721 0263 0E       		.uleb128 0xe
ARM GAS  C:\Users\jo\AppData\Local\Temp\ccT3NT9r.s 			page 49


 2722 0264 3A       		.uleb128 0x3a
 2723 0265 0B       		.uleb128 0xb
 2724 0266 3B       		.uleb128 0x3b
 2725 0267 05       		.uleb128 0x5
 2726 0268 49       		.uleb128 0x49
 2727 0269 13       		.uleb128 0x13
 2728 026a 3F       		.uleb128 0x3f
 2729 026b 19       		.uleb128 0x19
 2730 026c 3C       		.uleb128 0x3c
 2731 026d 19       		.uleb128 0x19
 2732 026e 00       		.byte	0
 2733 026f 00       		.byte	0
 2734 0270 2E       		.uleb128 0x2e
 2735 0271 34       		.uleb128 0x34
 2736 0272 00       		.byte	0
 2737 0273 03       		.uleb128 0x3
 2738 0274 08       		.uleb128 0x8
 2739 0275 3A       		.uleb128 0x3a
 2740 0276 0B       		.uleb128 0xb
 2741 0277 3B       		.uleb128 0x3b
 2742 0278 05       		.uleb128 0x5
 2743 0279 49       		.uleb128 0x49
 2744 027a 13       		.uleb128 0x13
 2745 027b 3F       		.uleb128 0x3f
 2746 027c 19       		.uleb128 0x19
 2747 027d 3C       		.uleb128 0x3c
 2748 027e 19       		.uleb128 0x19
 2749 027f 00       		.byte	0
 2750 0280 00       		.byte	0
 2751 0281 2F       		.uleb128 0x2f
 2752 0282 2E       		.uleb128 0x2e
 2753 0283 01       		.byte	0x1
 2754 0284 3F       		.uleb128 0x3f
 2755 0285 19       		.uleb128 0x19
 2756 0286 03       		.uleb128 0x3
 2757 0287 0E       		.uleb128 0xe
 2758 0288 3A       		.uleb128 0x3a
 2759 0289 0B       		.uleb128 0xb
 2760 028a 3B       		.uleb128 0x3b
 2761 028b 05       		.uleb128 0x5
 2762 028c 27       		.uleb128 0x27
 2763 028d 19       		.uleb128 0x19
 2764 028e 3C       		.uleb128 0x3c
 2765 028f 19       		.uleb128 0x19
 2766 0290 00       		.byte	0
 2767 0291 00       		.byte	0
 2768 0292 00       		.byte	0
 2769              		.section	.debug_aranges,"",%progbits
 2770 0000 7C000000 		.4byte	0x7c
 2771 0004 0200     		.2byte	0x2
 2772 0006 00000000 		.4byte	.Ldebug_info0
 2773 000a 04       		.byte	0x4
 2774 000b 00       		.byte	0
 2775 000c 0000     		.2byte	0
 2776 000e 0000     		.2byte	0
 2777 0010 00000000 		.4byte	.LFB228
 2778 0014 1C000000 		.4byte	.LFE228-.LFB228
ARM GAS  C:\Users\jo\AppData\Local\Temp\ccT3NT9r.s 			page 50


 2779 0018 00000000 		.4byte	.LFB229
 2780 001c 1C000000 		.4byte	.LFE229-.LFB229
 2781 0020 00000000 		.4byte	.LFB230
 2782 0024 1C000000 		.4byte	.LFE230-.LFB230
 2783 0028 00000000 		.4byte	.LFB231
 2784 002c 20000000 		.4byte	.LFE231-.LFB231
 2785 0030 00000000 		.4byte	.LFB232
 2786 0034 28000000 		.4byte	.LFE232-.LFB232
 2787 0038 00000000 		.4byte	.LFB233
 2788 003c 24000000 		.4byte	.LFE233-.LFB233
 2789 0040 00000000 		.4byte	.LFB234
 2790 0044 2C000000 		.4byte	.LFE234-.LFB234
 2791 0048 00000000 		.4byte	.LFB235
 2792 004c 30000000 		.4byte	.LFE235-.LFB235
 2793 0050 00000000 		.4byte	.LFB236
 2794 0054 30000000 		.4byte	.LFE236-.LFB236
 2795 0058 00000000 		.4byte	.LFB237
 2796 005c 20000000 		.4byte	.LFE237-.LFB237
 2797 0060 00000000 		.4byte	.LFB238
 2798 0064 1C000000 		.4byte	.LFE238-.LFB238
 2799 0068 00000000 		.4byte	.LFB239
 2800 006c 10000000 		.4byte	.LFE239-.LFB239
 2801 0070 00000000 		.4byte	.LFB240
 2802 0074 38000000 		.4byte	.LFE240-.LFB240
 2803 0078 00000000 		.4byte	0
 2804 007c 00000000 		.4byte	0
 2805              		.section	.debug_ranges,"",%progbits
 2806              	.Ldebug_ranges0:
 2807 0000 02000000 		.4byte	.LBB61
 2808 0004 06000000 		.4byte	.LBE61
 2809 0008 0A000000 		.4byte	.LBB68
 2810 000c 0C000000 		.4byte	.LBE68
 2811 0010 00000000 		.4byte	0
 2812 0014 00000000 		.4byte	0
 2813 0018 00000000 		.4byte	.LFB228
 2814 001c 1C000000 		.4byte	.LFE228
 2815 0020 00000000 		.4byte	.LFB229
 2816 0024 1C000000 		.4byte	.LFE229
 2817 0028 00000000 		.4byte	.LFB230
 2818 002c 1C000000 		.4byte	.LFE230
 2819 0030 00000000 		.4byte	.LFB231
 2820 0034 20000000 		.4byte	.LFE231
 2821 0038 00000000 		.4byte	.LFB232
 2822 003c 28000000 		.4byte	.LFE232
 2823 0040 00000000 		.4byte	.LFB233
 2824 0044 24000000 		.4byte	.LFE233
 2825 0048 00000000 		.4byte	.LFB234
 2826 004c 2C000000 		.4byte	.LFE234
 2827 0050 00000000 		.4byte	.LFB235
 2828 0054 30000000 		.4byte	.LFE235
 2829 0058 00000000 		.4byte	.LFB236
 2830 005c 30000000 		.4byte	.LFE236
 2831 0060 00000000 		.4byte	.LFB237
 2832 0064 20000000 		.4byte	.LFE237
 2833 0068 00000000 		.4byte	.LFB238
 2834 006c 1C000000 		.4byte	.LFE238
 2835 0070 00000000 		.4byte	.LFB239
ARM GAS  C:\Users\jo\AppData\Local\Temp\ccT3NT9r.s 			page 51


 2836 0074 10000000 		.4byte	.LFE239
 2837 0078 00000000 		.4byte	.LFB240
 2838 007c 38000000 		.4byte	.LFE240
 2839 0080 00000000 		.4byte	0
 2840 0084 00000000 		.4byte	0
 2841              		.section	.debug_line,"",%progbits
 2842              	.Ldebug_line0:
 2843 0000 E8030000 		.section	.debug_str,"MS",%progbits,1
 2843      02006102 
 2843      00000201 
 2843      FB0E0D00 
 2843      01010101 
 2844              	.LASF103:
 2845 0000 74625F70 		.ascii	"tb_ptr\000"
 2845      747200
 2846              	.LASF51:
 2847 0007 72656164 		.ascii	"ready_list_t\000"
 2847      795F6C69 
 2847      73745F74 
 2847      00
 2848              	.LASF88:
 2849 0014 44494552 		.ascii	"DIER\000"
 2849      00
 2850              	.LASF111:
 2851 0019 77747472 		.ascii	"wttrp\000"
 2851      7000
 2852              	.LASF108:
 2853 001f 7264796D 		.ascii	"rdymsg\000"
 2853      736700
 2854              	.LASF16:
 2855 0026 75696E74 		.ascii	"uint64_t\000"
 2855      36345F74 
 2855      00
 2856              	.LASF5:
 2857 002f 5F5F7569 		.ascii	"__uint8_t\000"
 2857      6E74385F 
 2857      7400
 2858              	.LASF86:
 2859 0039 706F7274 		.ascii	"port_intctx\000"
 2859      5F696E74 
 2859      63747800 
 2860              	.LASF70:
 2861 0045 73797374 		.ascii	"system_debug_t\000"
 2861      656D5F64 
 2861      65627567 
 2861      5F7400
 2862              	.LASF124:
 2863 0054 706F7274 		.ascii	"port_lock\000"
 2863      5F6C6F63 
 2863      6B00
 2864              	.LASF150:
 2865 005e 63685379 		.ascii	"chSysHalt\000"
 2865      7348616C 
 2865      7400
 2866              	.LASF12:
 2867 0068 6C6F6E67 		.ascii	"long long unsigned int\000"
 2867      206C6F6E 
ARM GAS  C:\Users\jo\AppData\Local\Temp\ccT3NT9r.s 			page 52


 2867      6720756E 
 2867      7369676E 
 2867      65642069 
 2868              	.LASF105:
 2869 007f 63685F74 		.ascii	"ch_trace_buffer_t\000"
 2869      72616365 
 2869      5F627566 
 2869      6665725F 
 2869      7400
 2870              	.LASF100:
 2871 0091 73655F73 		.ascii	"se_state\000"
 2871      74617465 
 2871      00
 2872              	.LASF109:
 2873 009a 65786974 		.ascii	"exitcode\000"
 2873      636F6465 
 2873      00
 2874              	.LASF80:
 2875 00a3 6D61696E 		.ascii	"mainthread\000"
 2875      74687265 
 2875      616400
 2876              	.LASF6:
 2877 00ae 5F5F696E 		.ascii	"__int32_t\000"
 2877      7433325F 
 2877      7400
 2878              	.LASF67:
 2879 00b8 76697274 		.ascii	"virtual_timers_list_t\000"
 2879      75616C5F 
 2879      74696D65 
 2879      72735F6C 
 2879      6973745F 
 2880              	.LASF143:
 2881 00ce 49544D5F 		.ascii	"ITM_RxBuffer\000"
 2881      52784275 
 2881      66666572 
 2881      00
 2882              	.LASF92:
 2883 00db 42445452 		.ascii	"BDTR\000"
 2883      00
 2884              	.LASF50:
 2885 00e0 63685F74 		.ascii	"ch_threads_queue\000"
 2885      68726561 
 2885      64735F71 
 2885      75657565 
 2885      00
 2886              	.LASF29:
 2887 00f1 705F7072 		.ascii	"p_prio\000"
 2887      696F00
 2888              	.LASF146:
 2889 00f8 433A5C55 		.ascii	"C:\\Users\\jo\\Documents\\GitHub\\ChibiOS\\demos\\S"
 2889      73657273 
 2889      5C6A6F5C 
 2889      446F6375 
 2889      6D656E74 
 2890 0124 544D3332 		.ascii	"TM32\\RT-STM32F407-DISCOVERY-uHttp\000"
 2890      5C52542D 
 2890      53544D33 
ARM GAS  C:\Users\jo\AppData\Local\Temp\ccT3NT9r.s 			page 53


 2890      32463430 
 2890      372D4449 
 2891              	.LASF89:
 2892 0146 43434D52 		.ascii	"CCMR1\000"
 2892      3100
 2893              	.LASF90:
 2894 014c 43434D52 		.ascii	"CCMR2\000"
 2894      3200
 2895              	.LASF94:
 2896 0152 43434D52 		.ascii	"CCMR3\000"
 2896      3300
 2897              	.LASF1:
 2898 0158 7369676E 		.ascii	"signed char\000"
 2898      65642063 
 2898      68617200 
 2899              	.LASF97:
 2900 0164 73655F74 		.ascii	"se_time\000"
 2900      696D6500 
 2901              	.LASF119:
 2902 016c 6D5F7175 		.ascii	"m_queue\000"
 2902      65756500 
 2903              	.LASF79:
 2904 0174 76746C69 		.ascii	"vtlist\000"
 2904      737400
 2905              	.LASF125:
 2906 017b 706F7274 		.ascii	"port_unlock\000"
 2906      5F756E6C 
 2906      6F636B00 
 2907              	.LASF133:
 2908 0187 5F646267 		.ascii	"_dbg_check_enable\000"
 2908      5F636865 
 2908      636B5F65 
 2908      6E61626C 
 2908      6500
 2909              	.LASF77:
 2910 0199 63685F73 		.ascii	"ch_system\000"
 2910      79737465 
 2910      6D00
 2911              	.LASF7:
 2912 01a3 6C6F6E67 		.ascii	"long int\000"
 2912      20696E74 
 2912      00
 2913              	.LASF19:
 2914 01ac 74737461 		.ascii	"tstate_t\000"
 2914      74655F74 
 2914      00
 2915              	.LASF91:
 2916 01b5 43434552 		.ascii	"CCER\000"
 2916      00
 2917              	.LASF98:
 2918 01ba 73655F74 		.ascii	"se_tp\000"
 2918      7000
 2919              	.LASF10:
 2920 01c0 6C6F6E67 		.ascii	"long long int\000"
 2920      206C6F6E 
 2920      6720696E 
 2920      7400
ARM GAS  C:\Users\jo\AppData\Local\Temp\ccT3NT9r.s 			page 54


 2921              	.LASF31:
 2922 01ce 705F6E65 		.ascii	"p_newer\000"
 2922      77657200 
 2923              	.LASF116:
 2924 01d6 735F7175 		.ascii	"s_queue\000"
 2924      65756500 
 2925              	.LASF4:
 2926 01de 73686F72 		.ascii	"short unsigned int\000"
 2926      7420756E 
 2926      7369676E 
 2926      65642069 
 2926      6E7400
 2927              	.LASF102:
 2928 01f1 74625F73 		.ascii	"tb_size\000"
 2928      697A6500 
 2929              	.LASF56:
 2930 01f9 725F6E65 		.ascii	"r_newer\000"
 2930      77657200 
 2931              	.LASF44:
 2932 0201 705F6D70 		.ascii	"p_mpool\000"
 2932      6F6F6C00 
 2933              	.LASF83:
 2934 0209 72656761 		.ascii	"regarm_t\000"
 2934      726D5F74 
 2934      00
 2935              	.LASF63:
 2936 0212 76745F70 		.ascii	"vt_prev\000"
 2936      72657600 
 2937              	.LASF123:
 2938 021a 6D757465 		.ascii	"mutex_t\000"
 2938      785F7400 
 2939              	.LASF148:
 2940 0222 76616C75 		.ascii	"value\000"
 2940      6500
 2941              	.LASF74:
 2942 0228 6C6F636B 		.ascii	"lock_cnt\000"
 2942      5F636E74 
 2942      00
 2943              	.LASF81:
 2944 0231 69646C65 		.ascii	"idle_thread_wa\000"
 2944      5F746872 
 2944      6561645F 
 2944      776100
 2945              	.LASF24:
 2946 0240 636E745F 		.ascii	"cnt_t\000"
 2946      7400
 2947              	.LASF130:
 2948 0246 63685654 		.ascii	"chVTGetSystemTimeX\000"
 2948      47657453 
 2948      79737465 
 2948      6D54696D 
 2948      655800
 2949              	.LASF34:
 2950 0259 705F7374 		.ascii	"p_stklimit\000"
 2950      6B6C696D 
 2950      697400
 2951              	.LASF0:
ARM GAS  C:\Users\jo\AppData\Local\Temp\ccT3NT9r.s 			page 55


 2952 0264 756E7369 		.ascii	"unsigned int\000"
 2952      676E6564 
 2952      20696E74 
 2952      00
 2953              	.LASF62:
 2954 0271 76745F6E 		.ascii	"vt_next\000"
 2954      65787400 
 2955              	.LASF139:
 2956 0279 5F646267 		.ascii	"_dbg_check_leave_isr\000"
 2956      5F636865 
 2956      636B5F6C 
 2956      65617665 
 2956      5F697372 
 2957              	.LASF112:
 2958 028e 77747365 		.ascii	"wtsemp\000"
 2958      6D7000
 2959              	.LASF39:
 2960 0295 705F6D73 		.ascii	"p_msgqueue\000"
 2960      67717565 
 2960      756500
 2961              	.LASF117:
 2962 02a0 735F636E 		.ascii	"s_cnt\000"
 2962      7400
 2963              	.LASF87:
 2964 02a6 534D4352 		.ascii	"SMCR\000"
 2964      00
 2965              	.LASF47:
 2966 02ab 63685F74 		.ascii	"ch_thread\000"
 2966      68726561 
 2966      6400
 2967              	.LASF22:
 2968 02b5 6D73675F 		.ascii	"msg_t\000"
 2968      7400
 2969              	.LASF140:
 2970 02bb 63684462 		.ascii	"chDbgCheckClassI\000"
 2970      67436865 
 2970      636B436C 
 2970      61737349 
 2970      00
 2971              	.LASF76:
 2972 02cc 63685F73 		.ascii	"ch_system_t\000"
 2972      79737465 
 2972      6D5F7400 
 2973              	.LASF96:
 2974 02d8 73746D33 		.ascii	"stm32_tim_t\000"
 2974      325F7469 
 2974      6D5F7400 
 2975              	.LASF145:
 2976 02e4 2E2E2F2E 		.ascii	"../../../os/rt/src/chdebug.c\000"
 2976      2E2F2E2E 
 2976      2F6F732F 
 2976      72742F73 
 2976      72632F63 
 2977              	.LASF52:
 2978 0301 63685F72 		.ascii	"ch_ready_list\000"
 2978      65616479 
 2978      5F6C6973 
ARM GAS  C:\Users\jo\AppData\Local\Temp\ccT3NT9r.s 			page 56


 2978      7400
 2979              	.LASF23:
 2980 030f 6576656E 		.ascii	"eventmask_t\000"
 2980      746D6173 
 2980      6B5F7400 
 2981              	.LASF144:
 2982 031b 474E5520 		.ascii	"GNU C 4.9.3 20141119 (release) [ARM/embedded-4_9-br"
 2982      4320342E 
 2982      392E3320 
 2982      32303134 
 2982      31313139 
 2983 034e 616E6368 		.ascii	"anch revision 218278] -mcpu=cortex-m4 -mno-thumb-in"
 2983      20726576 
 2983      6973696F 
 2983      6E203231 
 2983      38323738 
 2984 0381 74657277 		.ascii	"terwork -mthumb -ggdb -O2 -fomit-frame-pointer -fal"
 2984      6F726B20 
 2984      2D6D7468 
 2984      756D6220 
 2984      2D676764 
 2985 03b4 69676E2D 		.ascii	"ign-functions=16 -ffunction-sections -fdata-section"
 2985      66756E63 
 2985      74696F6E 
 2985      733D3136 
 2985      202D6666 
 2986 03e7 73202D66 		.ascii	"s -fno-common\000"
 2986      6E6F2D63 
 2986      6F6D6D6F 
 2986      6E00
 2987              	.LASF84:
 2988 03f5 73746B61 		.ascii	"stkalign_t\000"
 2988      6C69676E 
 2988      5F7400
 2989              	.LASF132:
 2990 0400 5F646267 		.ascii	"_dbg_check_suspend\000"
 2990      5F636865 
 2990      636B5F73 
 2990      75737065 
 2990      6E6400
 2991              	.LASF38:
 2992 0413 705F7761 		.ascii	"p_waiting\000"
 2992      6974696E 
 2992      6700
 2993              	.LASF82:
 2994 041d 73697A65 		.ascii	"sizetype\000"
 2994      74797065 
 2994      00
 2995              	.LASF45:
 2996 0426 74687265 		.ascii	"thread_reference_t\000"
 2996      61645F72 
 2996      65666572 
 2996      656E6365 
 2996      5F7400
 2997              	.LASF134:
 2998 0439 5F646267 		.ascii	"_dbg_check_lock\000"
 2998      5F636865 
ARM GAS  C:\Users\jo\AppData\Local\Temp\ccT3NT9r.s 			page 57


 2998      636B5F6C 
 2998      6F636B00 
 2999              	.LASF68:
 3000 0449 63685F76 		.ascii	"ch_virtual_timers_list\000"
 3000      69727475 
 3000      616C5F74 
 3000      696D6572 
 3000      735F6C69 
 3001              	.LASF101:
 3002 0460 63685F73 		.ascii	"ch_swc_event_t\000"
 3002      77635F65 
 3002      76656E74 
 3002      5F7400
 3003              	.LASF69:
 3004 046f 76745F6C 		.ascii	"vt_lasttime\000"
 3004      61737474 
 3004      696D6500 
 3005              	.LASF138:
 3006 047b 5F646267 		.ascii	"_dbg_check_enter_isr\000"
 3006      5F636865 
 3006      636B5F65 
 3006      6E746572 
 3006      5F697372 
 3007              	.LASF55:
 3008 0490 725F6374 		.ascii	"r_ctx\000"
 3008      7800
 3009              	.LASF107:
 3010 0496 746D5F63 		.ascii	"tm_calibration_t\000"
 3010      616C6962 
 3010      72617469 
 3010      6F6E5F74 
 3010      00
 3011              	.LASF58:
 3012 04a7 725F6375 		.ascii	"r_current\000"
 3012      7272656E 
 3012      7400
 3013              	.LASF57:
 3014 04b1 725F6F6C 		.ascii	"r_older\000"
 3014      64657200 
 3015              	.LASF136:
 3016 04b9 5F646267 		.ascii	"_dbg_check_lock_from_isr\000"
 3016      5F636865 
 3016      636B5F6C 
 3016      6F636B5F 
 3016      66726F6D 
 3017              	.LASF11:
 3018 04d2 5F5F7569 		.ascii	"__uint64_t\000"
 3018      6E743634 
 3018      5F7400
 3019              	.LASF20:
 3020 04dd 74726566 		.ascii	"trefs_t\000"
 3020      735F7400 
 3021              	.LASF104:
 3022 04e5 74625F62 		.ascii	"tb_buffer\000"
 3022      75666665 
 3022      7200
 3023              	.LASF131:
ARM GAS  C:\Users\jo\AppData\Local\Temp\ccT3NT9r.s 			page 58


 3024 04ef 5F646267 		.ascii	"_dbg_check_disable\000"
 3024      5F636865 
 3024      636B5F64 
 3024      69736162 
 3024      6C6500
 3025              	.LASF60:
 3026 0502 76697274 		.ascii	"virtual_timer_t\000"
 3026      75616C5F 
 3026      74696D65 
 3026      725F7400 
 3027              	.LASF28:
 3028 0512 705F7072 		.ascii	"p_prev\000"
 3028      657600
 3029              	.LASF21:
 3030 0519 74707269 		.ascii	"tprio_t\000"
 3030      6F5F7400 
 3031              	.LASF71:
 3032 0521 63685F73 		.ascii	"ch_system_debug\000"
 3032      79737465 
 3032      6D5F6465 
 3032      62756700 
 3033              	.LASF14:
 3034 0531 696E7433 		.ascii	"int32_t\000"
 3034      325F7400 
 3035              	.LASF2:
 3036 0539 756E7369 		.ascii	"unsigned char\000"
 3036      676E6564 
 3036      20636861 
 3036      7200
 3037              	.LASF149:
 3038 0547 5F646267 		.ascii	"_dbg_trace_init\000"
 3038      5F747261 
 3038      63655F69 
 3038      6E697400 
 3039              	.LASF42:
 3040 0557 705F6D74 		.ascii	"p_mtxlist\000"
 3040      786C6973 
 3040      7400
 3041              	.LASF3:
 3042 0561 73686F72 		.ascii	"short int\000"
 3042      7420696E 
 3042      7400
 3043              	.LASF35:
 3044 056b 705F7374 		.ascii	"p_state\000"
 3044      61746500 
 3045              	.LASF32:
 3046 0573 705F6F6C 		.ascii	"p_older\000"
 3046      64657200 
 3047              	.LASF54:
 3048 057b 725F7072 		.ascii	"r_prio\000"
 3048      696F00
 3049              	.LASF114:
 3050 0582 65776D61 		.ascii	"ewmask\000"
 3050      736B00
 3051              	.LASF27:
 3052 0589 705F6E65 		.ascii	"p_next\000"
 3052      787400
ARM GAS  C:\Users\jo\AppData\Local\Temp\ccT3NT9r.s 			page 59


 3053              	.LASF36:
 3054 0590 705F666C 		.ascii	"p_flags\000"
 3054      61677300 
 3055              	.LASF61:
 3056 0598 63685F76 		.ascii	"ch_virtual_timer\000"
 3056      69727475 
 3056      616C5F74 
 3056      696D6572 
 3056      00
 3057              	.LASF115:
 3058 05a9 63685F73 		.ascii	"ch_semaphore\000"
 3058      656D6170 
 3058      686F7265 
 3058      00
 3059              	.LASF95:
 3060 05b6 43435852 		.ascii	"CCXR\000"
 3060      00
 3061              	.LASF41:
 3062 05bb 705F6570 		.ascii	"p_epending\000"
 3062      656E6469 
 3062      6E6700
 3063              	.LASF126:
 3064 05c6 73745F6C 		.ascii	"st_lld_get_counter\000"
 3064      6C645F67 
 3064      65745F63 
 3064      6F756E74 
 3064      657200
 3065              	.LASF141:
 3066 05d9 63684462 		.ascii	"chDbgCheckClassS\000"
 3066      67436865 
 3066      636B436C 
 3066      61737353 
 3066      00
 3067              	.LASF15:
 3068 05ea 75696E74 		.ascii	"uint32_t\000"
 3068      33325F74 
 3068      00
 3069              	.LASF113:
 3070 05f3 77746D74 		.ascii	"wtmtxp\000"
 3070      787000
 3071              	.LASF53:
 3072 05fa 725F7175 		.ascii	"r_queue\000"
 3072      65756500 
 3073              	.LASF64:
 3074 0602 76745F64 		.ascii	"vt_delta\000"
 3074      656C7461 
 3074      00
 3075              	.LASF48:
 3076 060b 63685F74 		.ascii	"ch_threads_list\000"
 3076      68726561 
 3076      64735F6C 
 3076      69737400 
 3077              	.LASF9:
 3078 061b 6C6F6E67 		.ascii	"long unsigned int\000"
 3078      20756E73 
 3078      69676E65 
 3078      6420696E 
ARM GAS  C:\Users\jo\AppData\Local\Temp\ccT3NT9r.s 			page 60


 3078      7400
 3079              	.LASF122:
 3080 062d 63686172 		.ascii	"char\000"
 3080      00
 3081              	.LASF93:
 3082 0632 444D4152 		.ascii	"DMAR\000"
 3082      00
 3083              	.LASF129:
 3084 0637 706F7274 		.ascii	"port_unlock_from_isr\000"
 3084      5F756E6C 
 3084      6F636B5F 
 3084      66726F6D 
 3084      5F697372 
 3085              	.LASF26:
 3086 064c 74687265 		.ascii	"thread_t\000"
 3086      61645F74 
 3086      00
 3087              	.LASF121:
 3088 0655 6D5F6E65 		.ascii	"m_next\000"
 3088      787400
 3089              	.LASF25:
 3090 065c 73797374 		.ascii	"systime_t\000"
 3090      696D655F 
 3090      7400
 3091              	.LASF43:
 3092 0666 705F7265 		.ascii	"p_realprio\000"
 3092      616C7072 
 3092      696F00
 3093              	.LASF59:
 3094 0671 76746675 		.ascii	"vtfunc_t\000"
 3094      6E635F74 
 3094      00
 3095              	.LASF8:
 3096 067a 5F5F7569 		.ascii	"__uint32_t\000"
 3096      6E743332 
 3096      5F7400
 3097              	.LASF147:
 3098 0685 5F5F7365 		.ascii	"__set_BASEPRI\000"
 3098      745F4241 
 3098      53455052 
 3098      4900
 3099              	.LASF72:
 3100 0693 70616E69 		.ascii	"panic_msg\000"
 3100      635F6D73 
 3100      6700
 3101              	.LASF106:
 3102 069d 6F666673 		.ascii	"offset\000"
 3102      657400
 3103              	.LASF85:
 3104 06a4 636F6E74 		.ascii	"context\000"
 3104      65787400 
 3105              	.LASF142:
 3106 06ac 5F646267 		.ascii	"_dbg_trace\000"
 3106      5F747261 
 3106      636500
 3107              	.LASF127:
 3108 06b7 706F7274 		.ascii	"port_timer_get_time\000"
ARM GAS  C:\Users\jo\AppData\Local\Temp\ccT3NT9r.s 			page 61


 3108      5F74696D 
 3108      65725F67 
 3108      65745F74 
 3108      696D6500 
 3109              	.LASF17:
 3110 06cb 7274636E 		.ascii	"rtcnt_t\000"
 3110      745F7400 
 3111              	.LASF128:
 3112 06d3 706F7274 		.ascii	"port_lock_from_isr\000"
 3112      5F6C6F63 
 3112      6B5F6672 
 3112      6F6D5F69 
 3112      737200
 3113              	.LASF66:
 3114 06e6 76745F70 		.ascii	"vt_par\000"
 3114      617200
 3115              	.LASF137:
 3116 06ed 5F646267 		.ascii	"_dbg_check_unlock_from_isr\000"
 3116      5F636865 
 3116      636B5F75 
 3116      6E6C6F63 
 3116      6B5F6672 
 3117              	.LASF49:
 3118 0708 74687265 		.ascii	"threads_queue_t\000"
 3118      6164735F 
 3118      71756575 
 3118      655F7400 
 3119              	.LASF118:
 3120 0718 63685F6D 		.ascii	"ch_mutex\000"
 3120      75746578 
 3120      00
 3121              	.LASF37:
 3122 0721 705F7265 		.ascii	"p_refs\000"
 3122      667300
 3123              	.LASF73:
 3124 0728 6973725F 		.ascii	"isr_cnt\000"
 3124      636E7400 
 3125              	.LASF78:
 3126 0730 726C6973 		.ascii	"rlist\000"
 3126      7400
 3127              	.LASF13:
 3128 0736 75696E74 		.ascii	"uint8_t\000"
 3128      385F7400 
 3129              	.LASF135:
 3130 073e 5F646267 		.ascii	"_dbg_check_unlock\000"
 3130      5F636865 
 3130      636B5F75 
 3130      6E6C6F63 
 3130      6B00
 3131              	.LASF110:
 3132 0750 77746F62 		.ascii	"wtobjp\000"
 3132      6A7000
 3133              	.LASF33:
 3134 0757 705F6E61 		.ascii	"p_name\000"
 3134      6D6500
 3135              	.LASF46:
 3136 075e 74687265 		.ascii	"threads_list_t\000"
ARM GAS  C:\Users\jo\AppData\Local\Temp\ccT3NT9r.s 			page 62


 3136      6164735F 
 3136      6C697374 
 3136      5F7400
 3137              	.LASF18:
 3138 076d 746D6F64 		.ascii	"tmode_t\000"
 3138      655F7400 
 3139              	.LASF75:
 3140 0775 74726163 		.ascii	"trace_buffer\000"
 3140      655F6275 
 3140      66666572 
 3140      00
 3141              	.LASF40:
 3142 0782 705F6D73 		.ascii	"p_msg\000"
 3142      6700
 3143              	.LASF120:
 3144 0788 6D5F6F77 		.ascii	"m_owner\000"
 3144      6E657200 
 3145              	.LASF99:
 3146 0790 73655F77 		.ascii	"se_wtobjp\000"
 3146      746F626A 
 3146      7000
 3147              	.LASF30:
 3148 079a 705F6374 		.ascii	"p_ctx\000"
 3148      7800
 3149              	.LASF65:
 3150 07a0 76745F66 		.ascii	"vt_func\000"
 3150      756E6300 
 3151              		.ident	"GCC: (GNU Tools for ARM Embedded Processors) 4.9.3 20141119 (release) [ARM/embedded-4_9-br
ARM GAS  C:\Users\jo\AppData\Local\Temp\ccT3NT9r.s 			page 63


DEFINED SYMBOLS
                            *ABS*:00000000 chdebug.c
C:\Users\jo\AppData\Local\Temp\ccT3NT9r.s:19     .text._dbg_check_disable:00000000 $t
C:\Users\jo\AppData\Local\Temp\ccT3NT9r.s:25     .text._dbg_check_disable:00000000 _dbg_check_disable
C:\Users\jo\AppData\Local\Temp\ccT3NT9r.s:50     .text._dbg_check_disable:00000014 $d
C:\Users\jo\AppData\Local\Temp\ccT3NT9r.s:56     .text._dbg_check_suspend:00000000 $t
C:\Users\jo\AppData\Local\Temp\ccT3NT9r.s:62     .text._dbg_check_suspend:00000000 _dbg_check_suspend
C:\Users\jo\AppData\Local\Temp\ccT3NT9r.s:86     .text._dbg_check_suspend:00000014 $d
C:\Users\jo\AppData\Local\Temp\ccT3NT9r.s:92     .text._dbg_check_enable:00000000 $t
C:\Users\jo\AppData\Local\Temp\ccT3NT9r.s:98     .text._dbg_check_enable:00000000 _dbg_check_enable
C:\Users\jo\AppData\Local\Temp\ccT3NT9r.s:122    .text._dbg_check_enable:00000014 $d
C:\Users\jo\AppData\Local\Temp\ccT3NT9r.s:128    .text._dbg_check_lock:00000000 $t
C:\Users\jo\AppData\Local\Temp\ccT3NT9r.s:134    .text._dbg_check_lock:00000000 _dbg_check_lock
C:\Users\jo\AppData\Local\Temp\ccT3NT9r.s:164    .text._dbg_check_lock:00000018 $d
C:\Users\jo\AppData\Local\Temp\ccT3NT9r.s:170    .text._dbg_check_unlock:00000000 $t
C:\Users\jo\AppData\Local\Temp\ccT3NT9r.s:176    .text._dbg_check_unlock:00000000 _dbg_check_unlock
C:\Users\jo\AppData\Local\Temp\ccT3NT9r.s:210    .text._dbg_check_unlock:00000020 $d
C:\Users\jo\AppData\Local\Temp\ccT3NT9r.s:216    .text._dbg_check_lock_from_isr:00000000 $t
C:\Users\jo\AppData\Local\Temp\ccT3NT9r.s:222    .text._dbg_check_lock_from_isr:00000000 _dbg_check_lock_from_isr
C:\Users\jo\AppData\Local\Temp\ccT3NT9r.s:253    .text._dbg_check_lock_from_isr:0000001c $d
C:\Users\jo\AppData\Local\Temp\ccT3NT9r.s:259    .text._dbg_check_unlock_from_isr:00000000 $t
C:\Users\jo\AppData\Local\Temp\ccT3NT9r.s:265    .text._dbg_check_unlock_from_isr:00000000 _dbg_check_unlock_from_isr
C:\Users\jo\AppData\Local\Temp\ccT3NT9r.s:300    .text._dbg_check_unlock_from_isr:00000024 $d
C:\Users\jo\AppData\Local\Temp\ccT3NT9r.s:306    .text._dbg_check_enter_isr:00000000 $t
C:\Users\jo\AppData\Local\Temp\ccT3NT9r.s:312    .text._dbg_check_enter_isr:00000000 _dbg_check_enter_isr
C:\Users\jo\AppData\Local\Temp\ccT3NT9r.s:371    .text._dbg_check_enter_isr:00000028 $d
C:\Users\jo\AppData\Local\Temp\ccT3NT9r.s:381    .text._dbg_check_leave_isr:00000000 $t
C:\Users\jo\AppData\Local\Temp\ccT3NT9r.s:387    .text._dbg_check_leave_isr:00000000 _dbg_check_leave_isr
C:\Users\jo\AppData\Local\Temp\ccT3NT9r.s:445    .text._dbg_check_leave_isr:00000028 $d
C:\Users\jo\AppData\Local\Temp\ccT3NT9r.s:455    .text.chDbgCheckClassI:00000000 $t
C:\Users\jo\AppData\Local\Temp\ccT3NT9r.s:461    .text.chDbgCheckClassI:00000000 chDbgCheckClassI
C:\Users\jo\AppData\Local\Temp\ccT3NT9r.s:486    .text.chDbgCheckClassI:00000018 $d
C:\Users\jo\AppData\Local\Temp\ccT3NT9r.s:492    .text.chDbgCheckClassS:00000000 $t
C:\Users\jo\AppData\Local\Temp\ccT3NT9r.s:498    .text.chDbgCheckClassS:00000000 chDbgCheckClassS
C:\Users\jo\AppData\Local\Temp\ccT3NT9r.s:522    .text.chDbgCheckClassS:00000014 $d
C:\Users\jo\AppData\Local\Temp\ccT3NT9r.s:528    .text._dbg_trace_init:00000000 $t
C:\Users\jo\AppData\Local\Temp\ccT3NT9r.s:534    .text._dbg_trace_init:00000000 _dbg_trace_init
C:\Users\jo\AppData\Local\Temp\ccT3NT9r.s:554    .text._dbg_trace_init:0000000c $d
C:\Users\jo\AppData\Local\Temp\ccT3NT9r.s:559    .text._dbg_trace:00000000 $t
C:\Users\jo\AppData\Local\Temp\ccT3NT9r.s:565    .text._dbg_trace:00000000 _dbg_trace
C:\Users\jo\AppData\Local\Temp\ccT3NT9r.s:629    .text._dbg_trace:00000034 $d
C:\Users\jo\AppData\Local\Temp\ccT3NT9r.s:634    .rodata.str1.4:00000000 $d
                     .debug_frame:00000010 $d
C:\Users\jo\AppData\Local\Temp\ccT3NT9r.s:55     .text._dbg_check_disable:0000001c $t
C:\Users\jo\AppData\Local\Temp\ccT3NT9r.s:91     .text._dbg_check_suspend:0000001c $t
C:\Users\jo\AppData\Local\Temp\ccT3NT9r.s:127    .text._dbg_check_enable:0000001c $t
C:\Users\jo\AppData\Local\Temp\ccT3NT9r.s:215    .text._dbg_check_unlock:00000028 $t
C:\Users\jo\AppData\Local\Temp\ccT3NT9r.s:258    .text._dbg_check_lock_from_isr:00000024 $t
C:\Users\jo\AppData\Local\Temp\ccT3NT9r.s:305    .text._dbg_check_unlock_from_isr:0000002c $t
C:\Users\jo\AppData\Local\Temp\ccT3NT9r.s:527    .text.chDbgCheckClassS:0000001c $t
C:\Users\jo\AppData\Local\Temp\ccT3NT9r.s:633    .text._dbg_trace:00000038 $t

UNDEFINED SYMBOLS
chSysHalt
ch
