ARM GAS  C:\Users\jo\AppData\Local\Temp\ccT3NT9r.s 			page 1


   1              		.syntax unified
   2              		.cpu cortex-m4
   3              		.fpu softvfp
   4              		.eabi_attribute 20, 1
   5              		.eabi_attribute 21, 1
   6              		.eabi_attribute 23, 3
   7              		.eabi_attribute 24, 1
   8              		.eabi_attribute 25, 1
   9              		.eabi_attribute 26, 1
  10              		.eabi_attribute 30, 2
  11              		.eabi_attribute 34, 1
  12              		.eabi_attribute 18, 4
  13              		.thumb
  14              		.file	"chdebug.c"
  15              		.text
  16              	.Ltext0:
  17              		.cfi_sections	.debug_frame
  18              		.section	.text._dbg_check_disable,"ax",%progbits
  19              		.align	2
  20              		.p2align 4,,15
  21              		.global	_dbg_check_disable
  22              		.thumb
  23              		.thumb_func
  24              		.type	_dbg_check_disable, %function
  25              	_dbg_check_disable:
  26              	.LFB228:
  27              		.file 1 "../../../os/rt/src/chdebug.c"
  28              		.loc 1 114 0
  29              		.cfi_startproc
  30              		@ args = 0, pretend = 0, frame = 0
  31              		@ frame_needed = 0, uses_anonymous_args = 0
  32              		@ link register save eliminated.
  33              		.loc 1 116 0
  34 0000 044B     		ldr	r3, .L5
  35 0002 1A6B     		ldr	r2, [r3, #48]
  36 0004 0AB9     		cbnz	r2, .L2
  37              		.loc 1 116 0 is_stmt 0 discriminator 1
  38 0006 5B6B     		ldr	r3, [r3, #52]
  39 0008 13B1     		cbz	r3, .L1
  40              	.L2:
  41              		.loc 1 117 0 is_stmt 1
  42 000a 0348     		ldr	r0, .L5+4
  43 000c FFF7FEBF 		b	chSysHalt
  44              	.LVL0:
  45              	.L1:
  46 0010 7047     		bx	lr
  47              	.L6:
  48 0012 00BF     		.align	2
  49              	.L5:
  50 0014 00000000 		.word	ch
  51 0018 00000000 		.word	.LC0
  52              		.cfi_endproc
  53              	.LFE228:
  54              		.size	_dbg_check_disable, .-_dbg_check_disable
  55 001c AFF30080 		.section	.text._dbg_check_suspend,"ax",%progbits
  56              		.align	2
  57              		.p2align 4,,15
ARM GAS  C:\Users\jo\AppData\Local\Temp\ccT3NT9r.s 			page 2


  58              		.global	_dbg_check_suspend
  59              		.thumb
  60              		.thumb_func
  61              		.type	_dbg_check_suspend, %function
  62              	_dbg_check_suspend:
  63              	.LFB229:
  64              		.loc 1 126 0
  65              		.cfi_startproc
  66              		@ args = 0, pretend = 0, frame = 0
  67              		@ frame_needed = 0, uses_anonymous_args = 0
  68              		@ link register save eliminated.
  69              		.loc 1 128 0
  70 0000 044B     		ldr	r3, .L10
  71 0002 1A6B     		ldr	r2, [r3, #48]
  72 0004 0AB9     		cbnz	r2, .L8
  73              		.loc 1 128 0 is_stmt 0 discriminator 1
  74 0006 5B6B     		ldr	r3, [r3, #52]
  75 0008 13B1     		cbz	r3, .L7
  76              	.L8:
  77              		.loc 1 129 0 is_stmt 1
  78 000a 0348     		ldr	r0, .L10+4
  79 000c FFF7FEBF 		b	chSysHalt
  80              	.LVL1:
  81              	.L7:
  82 0010 7047     		bx	lr
  83              	.L11:
  84 0012 00BF     		.align	2
  85              	.L10:
  86 0014 00000000 		.word	ch
  87 0018 08000000 		.word	.LC1
  88              		.cfi_endproc
  89              	.LFE229:
  90              		.size	_dbg_check_suspend, .-_dbg_check_suspend
  91 001c AFF30080 		.section	.text._dbg_check_enable,"ax",%progbits
  92              		.align	2
  93              		.p2align 4,,15
  94              		.global	_dbg_check_enable
  95              		.thumb
  96              		.thumb_func
  97              		.type	_dbg_check_enable, %function
  98              	_dbg_check_enable:
  99              	.LFB230:
 100              		.loc 1 138 0
 101              		.cfi_startproc
 102              		@ args = 0, pretend = 0, frame = 0
 103              		@ frame_needed = 0, uses_anonymous_args = 0
 104              		@ link register save eliminated.
 105              		.loc 1 140 0
 106 0000 044B     		ldr	r3, .L15
 107 0002 1A6B     		ldr	r2, [r3, #48]
 108 0004 0AB9     		cbnz	r2, .L13
 109              		.loc 1 140 0 is_stmt 0 discriminator 1
 110 0006 5B6B     		ldr	r3, [r3, #52]
 111 0008 13B1     		cbz	r3, .L12
 112              	.L13:
 113              		.loc 1 141 0 is_stmt 1
 114 000a 0348     		ldr	r0, .L15+4
ARM GAS  C:\Users\jo\AppData\Local\Temp\ccT3NT9r.s 			page 3


 115 000c FFF7FEBF 		b	chSysHalt
 116              	.LVL2:
 117              	.L12:
 118 0010 7047     		bx	lr
 119              	.L16:
 120 0012 00BF     		.align	2
 121              	.L15:
 122 0014 00000000 		.word	ch
 123 0018 10000000 		.word	.LC2
 124              		.cfi_endproc
 125              	.LFE230:
 126              		.size	_dbg_check_enable, .-_dbg_check_enable
 127 001c AFF30080 		.section	.text._dbg_check_lock,"ax",%progbits
 128              		.align	2
 129              		.p2align 4,,15
 130              		.global	_dbg_check_lock
 131              		.thumb
 132              		.thumb_func
 133              		.type	_dbg_check_lock, %function
 134              	_dbg_check_lock:
 135              	.LFB231:
 136              		.loc 1 150 0
 137              		.cfi_startproc
 138              		@ args = 0, pretend = 0, frame = 0
 139              		@ frame_needed = 0, uses_anonymous_args = 0
 140 0000 10B5     		push	{r4, lr}
 141              		.cfi_def_cfa_offset 8
 142              		.cfi_offset 4, -8
 143              		.cfi_offset 14, -4
 144              		.loc 1 152 0
 145 0002 054C     		ldr	r4, .L24
 146 0004 236B     		ldr	r3, [r4, #48]
 147 0006 0BB9     		cbnz	r3, .L18
 148              		.loc 1 152 0 is_stmt 0 discriminator 1
 149 0008 636B     		ldr	r3, [r4, #52]
 150 000a 13B1     		cbz	r3, .L19
 151              	.L18:
 152              		.loc 1 153 0 is_stmt 1
 153 000c 0348     		ldr	r0, .L24+4
 154 000e FFF7FEFF 		bl	chSysHalt
 155              	.LVL3:
 156              	.L19:
 157              		.loc 1 155 0
 158 0012 0123     		movs	r3, #1
 159 0014 6363     		str	r3, [r4, #52]
 160 0016 10BD     		pop	{r4, pc}
 161              	.L25:
 162              		.align	2
 163              	.L24:
 164 0018 00000000 		.word	ch
 165 001c 18000000 		.word	.LC3
 166              		.cfi_endproc
 167              	.LFE231:
 168              		.size	_dbg_check_lock, .-_dbg_check_lock
 169              		.section	.text._dbg_check_unlock,"ax",%progbits
 170              		.align	2
 171              		.p2align 4,,15
ARM GAS  C:\Users\jo\AppData\Local\Temp\ccT3NT9r.s 			page 4


 172              		.global	_dbg_check_unlock
 173              		.thumb
 174              		.thumb_func
 175              		.type	_dbg_check_unlock, %function
 176              	_dbg_check_unlock:
 177              	.LFB232:
 178              		.loc 1 163 0
 179              		.cfi_startproc
 180              		@ args = 0, pretend = 0, frame = 0
 181              		@ frame_needed = 0, uses_anonymous_args = 0
 182 0000 10B5     		push	{r4, lr}
 183              		.cfi_def_cfa_offset 8
 184              		.cfi_offset 4, -8
 185              		.cfi_offset 14, -4
 186              		.loc 1 165 0
 187 0002 074C     		ldr	r4, .L30
 188 0004 236B     		ldr	r3, [r4, #48]
 189 0006 2BB9     		cbnz	r3, .L27
 190              		.loc 1 165 0 is_stmt 0 discriminator 1
 191 0008 636B     		ldr	r3, [r4, #52]
 192 000a 002B     		cmp	r3, #0
 193 000c 02DD     		ble	.L27
 194              		.loc 1 168 0 is_stmt 1
 195 000e 0023     		movs	r3, #0
 196 0010 6363     		str	r3, [r4, #52]
 197 0012 10BD     		pop	{r4, pc}
 198              	.L27:
 199              		.loc 1 166 0
 200 0014 0348     		ldr	r0, .L30+4
 201 0016 FFF7FEFF 		bl	chSysHalt
 202              	.LVL4:
 203              		.loc 1 168 0
 204 001a 0023     		movs	r3, #0
 205 001c 6363     		str	r3, [r4, #52]
 206 001e 10BD     		pop	{r4, pc}
 207              	.L31:
 208              		.align	2
 209              	.L30:
 210 0020 00000000 		.word	ch
 211 0024 20000000 		.word	.LC4
 212              		.cfi_endproc
 213              	.LFE232:
 214              		.size	_dbg_check_unlock, .-_dbg_check_unlock
 215 0028 AFF30080 		.section	.text._dbg_check_lock_from_isr,"ax",%progbits
 215      AFF30080 
 216              		.align	2
 217              		.p2align 4,,15
 218              		.global	_dbg_check_lock_from_isr
 219              		.thumb
 220              		.thumb_func
 221              		.type	_dbg_check_lock_from_isr, %function
 222              	_dbg_check_lock_from_isr:
 223              	.LFB233:
 224              		.loc 1 176 0
 225              		.cfi_startproc
 226              		@ args = 0, pretend = 0, frame = 0
 227              		@ frame_needed = 0, uses_anonymous_args = 0
ARM GAS  C:\Users\jo\AppData\Local\Temp\ccT3NT9r.s 			page 5


 228 0000 10B5     		push	{r4, lr}
 229              		.cfi_def_cfa_offset 8
 230              		.cfi_offset 4, -8
 231              		.cfi_offset 14, -4
 232              		.loc 1 178 0
 233 0002 064C     		ldr	r4, .L39
 234 0004 236B     		ldr	r3, [r4, #48]
 235 0006 002B     		cmp	r3, #0
 236 0008 01DD     		ble	.L33
 237              		.loc 1 178 0 is_stmt 0 discriminator 1
 238 000a 636B     		ldr	r3, [r4, #52]
 239 000c 13B1     		cbz	r3, .L34
 240              	.L33:
 241              		.loc 1 179 0 is_stmt 1
 242 000e 0448     		ldr	r0, .L39+4
 243 0010 FFF7FEFF 		bl	chSysHalt
 244              	.LVL5:
 245              	.L34:
 246              		.loc 1 181 0
 247 0014 0123     		movs	r3, #1
 248 0016 6363     		str	r3, [r4, #52]
 249 0018 10BD     		pop	{r4, pc}
 250              	.L40:
 251 001a 00BF     		.align	2
 252              	.L39:
 253 001c 00000000 		.word	ch
 254 0020 28000000 		.word	.LC5
 255              		.cfi_endproc
 256              	.LFE233:
 257              		.size	_dbg_check_lock_from_isr, .-_dbg_check_lock_from_isr
 258 0024 AFF30080 		.section	.text._dbg_check_unlock_from_isr,"ax",%progbits
 258      AFF30080 
 258      AFF30080 
 259              		.align	2
 260              		.p2align 4,,15
 261              		.global	_dbg_check_unlock_from_isr
 262              		.thumb
 263              		.thumb_func
 264              		.type	_dbg_check_unlock_from_isr, %function
 265              	_dbg_check_unlock_from_isr:
 266              	.LFB234:
 267              		.loc 1 189 0
 268              		.cfi_startproc
 269              		@ args = 0, pretend = 0, frame = 0
 270              		@ frame_needed = 0, uses_anonymous_args = 0
 271 0000 10B5     		push	{r4, lr}
 272              		.cfi_def_cfa_offset 8
 273              		.cfi_offset 4, -8
 274              		.cfi_offset 14, -4
 275              		.loc 1 191 0
 276 0002 084C     		ldr	r4, .L45
 277 0004 236B     		ldr	r3, [r4, #48]
 278 0006 002B     		cmp	r3, #0
 279 0008 05DD     		ble	.L42
 280              		.loc 1 191 0 is_stmt 0 discriminator 1
 281 000a 636B     		ldr	r3, [r4, #52]
 282 000c 002B     		cmp	r3, #0
ARM GAS  C:\Users\jo\AppData\Local\Temp\ccT3NT9r.s 			page 6


 283 000e 02DD     		ble	.L42
 284              		.loc 1 194 0 is_stmt 1
 285 0010 0023     		movs	r3, #0
 286 0012 6363     		str	r3, [r4, #52]
 287 0014 10BD     		pop	{r4, pc}
 288              	.L42:
 289              		.loc 1 192 0
 290 0016 0448     		ldr	r0, .L45+4
 291 0018 FFF7FEFF 		bl	chSysHalt
 292              	.LVL6:
 293              		.loc 1 194 0
 294 001c 0023     		movs	r3, #0
 295 001e 6363     		str	r3, [r4, #52]
 296 0020 10BD     		pop	{r4, pc}
 297              	.L46:
 298 0022 00BF     		.align	2
 299              	.L45:
 300 0024 00000000 		.word	ch
 301 0028 30000000 		.word	.LC6
 302              		.cfi_endproc
 303              	.LFE234:
 304              		.size	_dbg_check_unlock_from_isr, .-_dbg_check_unlock_from_isr
 305 002c AFF30080 		.section	.text._dbg_check_enter_isr,"ax",%progbits
 306              		.align	2
 307              		.p2align 4,,15
 308              		.global	_dbg_check_enter_isr
 309              		.thumb
 310              		.thumb_func
 311              		.type	_dbg_check_enter_isr, %function
 312              	_dbg_check_enter_isr:
 313              	.LFB235:
 314              		.loc 1 202 0
 315              		.cfi_startproc
 316              		@ args = 0, pretend = 0, frame = 0
 317              		@ frame_needed = 0, uses_anonymous_args = 0
 318              	.LVL7:
 319 0000 10B5     		push	{r4, lr}
 320              		.cfi_def_cfa_offset 8
 321              		.cfi_offset 4, -8
 322              		.cfi_offset 14, -4
 323              	.LBB45:
 324              	.LBB46:
 325              	.LBB47:
 326              	.LBB48:
 327              		.file 2 "../../../os/ext/CMSIS/include/core_cmFunc.h"
 328              		.loc 2 546 0
 329 0002 2023     		movs	r3, #32
 330              	@ 546 "../../../os/ext/CMSIS/include/core_cmFunc.h" 1
 331 0004 83F31188 		MSR basepri, r3
 332              	@ 0 "" 2
 333              		.thumb
 334              	.LBE48:
 335              	.LBE47:
 336              	.LBE46:
 337              	.LBE45:
 338              		.loc 1 205 0
 339 0008 074C     		ldr	r4, .L54
ARM GAS  C:\Users\jo\AppData\Local\Temp\ccT3NT9r.s 			page 7


 340 000a 236B     		ldr	r3, [r4, #48]
 341 000c 002B     		cmp	r3, #0
 342 000e 01DB     		blt	.L48
 343              		.loc 1 205 0 is_stmt 0 discriminator 1
 344 0010 626B     		ldr	r2, [r4, #52]
 345 0012 1AB1     		cbz	r2, .L49
 346              	.L48:
 347              		.loc 1 206 0 is_stmt 1
 348 0014 0548     		ldr	r0, .L54+4
 349 0016 FFF7FEFF 		bl	chSysHalt
 350              	.LVL8:
 351 001a 236B     		ldr	r3, [r4, #48]
 352              	.L49:
 353              		.loc 1 208 0
 354 001c 0133     		adds	r3, r3, #1
 355 001e 2363     		str	r3, [r4, #48]
 356              	.LVL9:
 357              	.LBB49:
 358              	.LBB50:
 359              	.LBB51:
 360              	.LBB52:
 361              		.loc 2 546 0
 362 0020 0023     		movs	r3, #0
 363              	@ 546 "../../../os/ext/CMSIS/include/core_cmFunc.h" 1
 364 0022 83F31188 		MSR basepri, r3
 365              	@ 0 "" 2
 366              		.thumb
 367 0026 10BD     		pop	{r4, pc}
 368              	.L55:
 369              		.align	2
 370              	.L54:
 371 0028 00000000 		.word	ch
 372 002c 38000000 		.word	.LC7
 373              	.LBE52:
 374              	.LBE51:
 375              	.LBE50:
 376              	.LBE49:
 377              		.cfi_endproc
 378              	.LFE235:
 379              		.size	_dbg_check_enter_isr, .-_dbg_check_enter_isr
 380              		.section	.text._dbg_check_leave_isr,"ax",%progbits
 381              		.align	2
 382              		.p2align 4,,15
 383              		.global	_dbg_check_leave_isr
 384              		.thumb
 385              		.thumb_func
 386              		.type	_dbg_check_leave_isr, %function
 387              	_dbg_check_leave_isr:
 388              	.LFB236:
 389              		.loc 1 217 0
 390              		.cfi_startproc
 391              		@ args = 0, pretend = 0, frame = 0
 392              		@ frame_needed = 0, uses_anonymous_args = 0
 393              	.LVL10:
 394 0000 10B5     		push	{r4, lr}
 395              		.cfi_def_cfa_offset 8
 396              		.cfi_offset 4, -8
ARM GAS  C:\Users\jo\AppData\Local\Temp\ccT3NT9r.s 			page 8


 397              		.cfi_offset 14, -4
 398              	.LBB53:
 399              	.LBB54:
 400              	.LBB55:
 401              	.LBB56:
 402              		.loc 2 546 0
 403 0002 2023     		movs	r3, #32
 404              	@ 546 "../../../os/ext/CMSIS/include/core_cmFunc.h" 1
 405 0004 83F31188 		MSR basepri, r3
 406              	@ 0 "" 2
 407              		.thumb
 408              	.LBE56:
 409              	.LBE55:
 410              	.LBE54:
 411              	.LBE53:
 412              		.loc 1 220 0
 413 0008 074C     		ldr	r4, .L63
 414 000a 236B     		ldr	r3, [r4, #48]
 415 000c 002B     		cmp	r3, #0
 416 000e 01DD     		ble	.L57
 417              		.loc 1 220 0 is_stmt 0 discriminator 1
 418 0010 626B     		ldr	r2, [r4, #52]
 419 0012 1AB1     		cbz	r2, .L58
 420              	.L57:
 421              		.loc 1 221 0 is_stmt 1
 422 0014 0548     		ldr	r0, .L63+4
 423 0016 FFF7FEFF 		bl	chSysHalt
 424              	.LVL11:
 425 001a 236B     		ldr	r3, [r4, #48]
 426              	.L58:
 427              		.loc 1 223 0
 428 001c 013B     		subs	r3, r3, #1
 429 001e 2363     		str	r3, [r4, #48]
 430              	.LVL12:
 431              	.LBB57:
 432              	.LBB58:
 433              	.LBB59:
 434              	.LBB60:
 435              		.loc 2 546 0
 436 0020 0023     		movs	r3, #0
 437              	@ 546 "../../../os/ext/CMSIS/include/core_cmFunc.h" 1
 438 0022 83F31188 		MSR basepri, r3
 439              	@ 0 "" 2
 440              		.thumb
 441 0026 10BD     		pop	{r4, pc}
 442              	.L64:
 443              		.align	2
 444              	.L63:
 445 0028 00000000 		.word	ch
 446 002c 40000000 		.word	.LC8
 447              	.LBE60:
 448              	.LBE59:
 449              	.LBE58:
 450              	.LBE57:
 451              		.cfi_endproc
 452              	.LFE236:
 453              		.size	_dbg_check_leave_isr, .-_dbg_check_leave_isr
ARM GAS  C:\Users\jo\AppData\Local\Temp\ccT3NT9r.s 			page 9


 454              		.section	.text.chDbgCheckClassI,"ax",%progbits
 455              		.align	2
 456              		.p2align 4,,15
 457              		.global	chDbgCheckClassI
 458              		.thumb
 459              		.thumb_func
 460              		.type	chDbgCheckClassI, %function
 461              	chDbgCheckClassI:
 462              	.LFB237:
 463              		.loc 1 235 0
 464              		.cfi_startproc
 465              		@ args = 0, pretend = 0, frame = 0
 466              		@ frame_needed = 0, uses_anonymous_args = 0
 467              		@ link register save eliminated.
 468              		.loc 1 237 0
 469 0000 054B     		ldr	r3, .L68
 470 0002 1A6B     		ldr	r2, [r3, #48]
 471 0004 002A     		cmp	r2, #0
 472 0006 03DB     		blt	.L66
 473              		.loc 1 237 0 is_stmt 0 discriminator 1
 474 0008 5B6B     		ldr	r3, [r3, #52]
 475 000a 002B     		cmp	r3, #0
 476 000c 00DD     		ble	.L66
 477 000e 7047     		bx	lr
 478              	.L66:
 479              		.loc 1 238 0 is_stmt 1
 480 0010 0248     		ldr	r0, .L68+4
 481 0012 FFF7FEBF 		b	chSysHalt
 482              	.LVL13:
 483              	.L69:
 484 0016 00BF     		.align	2
 485              	.L68:
 486 0018 00000000 		.word	ch
 487 001c 48000000 		.word	.LC9
 488              		.cfi_endproc
 489              	.LFE237:
 490              		.size	chDbgCheckClassI, .-chDbgCheckClassI
 491              		.section	.text.chDbgCheckClassS,"ax",%progbits
 492              		.align	2
 493              		.p2align 4,,15
 494              		.global	chDbgCheckClassS
 495              		.thumb
 496              		.thumb_func
 497              		.type	chDbgCheckClassS, %function
 498              	chDbgCheckClassS:
 499              	.LFB238:
 500              		.loc 1 250 0
 501              		.cfi_startproc
 502              		@ args = 0, pretend = 0, frame = 0
 503              		@ frame_needed = 0, uses_anonymous_args = 0
 504              		@ link register save eliminated.
 505              		.loc 1 252 0
 506 0000 044B     		ldr	r3, .L73
 507 0002 1A6B     		ldr	r2, [r3, #48]
 508 0004 1AB9     		cbnz	r2, .L71
 509              		.loc 1 252 0 is_stmt 0 discriminator 1
 510 0006 5B6B     		ldr	r3, [r3, #52]
ARM GAS  C:\Users\jo\AppData\Local\Temp\ccT3NT9r.s 			page 10


 511 0008 002B     		cmp	r3, #0
 512 000a 00DD     		ble	.L71
 513 000c 7047     		bx	lr
 514              	.L71:
 515              		.loc 1 253 0 is_stmt 1
 516 000e 0248     		ldr	r0, .L73+4
 517 0010 FFF7FEBF 		b	chSysHalt
 518              	.LVL14:
 519              	.L74:
 520              		.align	2
 521              	.L73:
 522 0014 00000000 		.word	ch
 523 0018 50000000 		.word	.LC10
 524              		.cfi_endproc
 525              	.LFE238:
 526              		.size	chDbgCheckClassS, .-chDbgCheckClassS
 527 001c AFF30080 		.section	.text._dbg_trace_init,"ax",%progbits
 528              		.align	2
 529              		.p2align 4,,15
 530              		.global	_dbg_trace_init
 531              		.thumb
 532              		.thumb_func
 533              		.type	_dbg_trace_init, %function
 534              	_dbg_trace_init:
 535              	.LFB239:
 536              		.loc 1 264 0
 537              		.cfi_startproc
 538              		@ args = 0, pretend = 0, frame = 0
 539              		@ frame_needed = 0, uses_anonymous_args = 0
 540              		@ link register save eliminated.
 541              		.loc 1 266 0
 542 0000 024B     		ldr	r3, .L76
 543 0002 4021     		movs	r1, #64
 544              		.loc 1 267 0
 545 0004 5A18     		adds	r2, r3, r1
 546              		.loc 1 266 0
 547 0006 9963     		str	r1, [r3, #56]
 548              		.loc 1 267 0
 549 0008 DA63     		str	r2, [r3, #60]
 550 000a 7047     		bx	lr
 551              	.L77:
 552              		.align	2
 553              	.L76:
 554 000c 00000000 		.word	ch
 555              		.cfi_endproc
 556              	.LFE239:
 557              		.size	_dbg_trace_init, .-_dbg_trace_init
 558              		.section	.text._dbg_trace,"ax",%progbits
 559              		.align	2
 560              		.p2align 4,,15
 561              		.global	_dbg_trace
 562              		.thumb
 563              		.thumb_func
 564              		.type	_dbg_trace, %function
 565              	_dbg_trace:
 566              	.LFB240:
 567              		.loc 1 277 0
ARM GAS  C:\Users\jo\AppData\Local\Temp\ccT3NT9r.s 			page 11


 568              		.cfi_startproc
 569              		@ args = 0, pretend = 0, frame = 0
 570              		@ frame_needed = 0, uses_anonymous_args = 0
 571              		@ link register save eliminated.
 572              	.LVL15:
 573              		.loc 1 279 0
 574 0000 0C4A     		ldr	r2, .L83
 575              	.LBB61:
 576              	.LBB62:
 577              	.LBB63:
 578              	.LBB64:
 579              		.file 3 "../../../os/hal/ports/STM32/LLD/TIMv1/st_lld.h"
 580              		.loc 3 129 0
 581 0002 4FF08041 		mov	r1, #1073741824
 582              	.LBE64:
 583              	.LBE63:
 584              	.LBE62:
 585              	.LBE61:
 586              		.loc 1 279 0
 587 0006 D36B     		ldr	r3, [r2, #60]
 588              		.loc 1 277 0
 589 0008 10B4     		push	{r4}
 590              		.cfi_def_cfa_offset 4
 591              		.cfi_offset 4, -4
 592              	.LBB68:
 593              	.LBB67:
 594              	.LBB66:
 595              	.LBB65:
 596              		.loc 3 129 0
 597 000a 4C6A     		ldr	r4, [r1, #36]
 598              	.LBE65:
 599              	.LBE66:
 600              	.LBE67:
 601              	.LBE68:
 602              		.loc 1 280 0
 603 000c 9169     		ldr	r1, [r2, #24]
 604 000e 5960     		str	r1, [r3, #4]
 605              		.loc 1 279 0
 606 0010 1C60     		str	r4, [r3]
 607              		.loc 1 281 0
 608 0012 416A     		ldr	r1, [r0, #36]
 609 0014 9960     		str	r1, [r3, #8]
 610              		.loc 1 282 0
 611 0016 90F82010 		ldrb	r1, [r0, #32]	@ zero_extendqisi2
 612 001a 1973     		strb	r1, [r3, #12]
 613              		.loc 1 283 0
 614 001c 1033     		adds	r3, r3, #16
 615 001e 02F58861 		add	r1, r2, #1088
 616 0022 8B42     		cmp	r3, r1
 617              		.loc 1 285 0
 618 0024 28BF     		it	cs
 619 0026 02F14003 		addcs	r3, r2, #64
 620 002a D363     		str	r3, [r2, #60]
 621              		.loc 1 287 0
 622 002c 5DF8044B 		ldr	r4, [sp], #4
 623              		.cfi_restore 4
 624              		.cfi_def_cfa_offset 0
ARM GAS  C:\Users\jo\AppData\Local\Temp\ccT3NT9r.s 			page 12


 625 0030 7047     		bx	lr
 626              	.L84:
 627 0032 00BF     		.align	2
 628              	.L83:
 629 0034 00000000 		.word	ch
 630              		.cfi_endproc
 631              	.LFE240:
 632              		.size	_dbg_trace, .-_dbg_trace
 633 0038 AFF30080 		.section	.rodata.str1.4,"aMS",%progbits,1
 633      AFF30080 
 634              		.align	2
 635              	.LC0:
 636 0000 53562331 		.ascii	"SV#1\000"
 636      00
 637 0005 000000   		.space	3
 638              	.LC1:
 639 0008 53562332 		.ascii	"SV#2\000"
 639      00
 640 000d 000000   		.space	3
 641              	.LC2:
 642 0010 53562333 		.ascii	"SV#3\000"
 642      00
 643 0015 000000   		.space	3
 644              	.LC3:
 645 0018 53562334 		.ascii	"SV#4\000"
 645      00
 646 001d 000000   		.space	3
 647              	.LC4:
 648 0020 53562335 		.ascii	"SV#5\000"
 648      00
 649 0025 000000   		.space	3
 650              	.LC5:
 651 0028 53562336 		.ascii	"SV#6\000"
 651      00
 652 002d 000000   		.space	3
 653              	.LC6:
 654 0030 53562337 		.ascii	"SV#7\000"
 654      00
 655 0035 000000   		.space	3
 656              	.LC7:
 657 0038 53562338 		.ascii	"SV#8\000"
 657      00
 658 003d 000000   		.space	3
 659              	.LC8:
 660 0040 53562339 		.ascii	"SV#9\000"
 660      00
 661 0045 000000   		.space	3
 662              	.LC9:
 663 0048 53562331 		.ascii	"SV#10\000"
 663      3000
 664 004e 0000     		.space	2
 665              	.LC10:
 666 0050 53562331 		.ascii	"SV#11\000"
 666      3100
 667 0056 0000     		.text
 668              	.Letext0:
 669              		.file 4 "c:\\program files\\gnu tools arm embedded\\4.9 2014q4\\arm-none-eabi\\include\\machine\\_
ARM GAS  C:\Users\jo\AppData\Local\Temp\ccT3NT9r.s 			page 13


 670              		.file 5 "c:\\program files\\gnu tools arm embedded\\4.9 2014q4\\arm-none-eabi\\include\\stdint.h"
 671              		.file 6 "../../../os/rt/ports/ARMCMx/compilers/GCC/chtypes.h"
 672              		.file 7 "../../../os/rt/include/chsystypes.h"
 673              		.file 8 "../../../os/rt/include/chschd.h"
 674              		.file 9 "../../../os/rt/ports/ARMCMx/chcore.h"
 675              		.file 10 "../../../os/rt/ports/ARMCMx/chcore_v7m.h"
 676              		.file 11 "../../../os/hal/ports/STM32/LLD/TIMv1/stm32_tim.h"
 677              		.file 12 "../../../os/rt/include/chdebug.h"
 678              		.file 13 "../../../os/rt/include/chtm.h"
 679              		.file 14 "../../../os/rt/include/chsem.h"
 680              		.file 15 "../../../os/rt/include/chmtx.h"
 681              		.file 16 "../../../os/rt/ports/ARMCMx/chcore_timer.h"
 682              		.file 17 "../../../os/rt/include/chvt.h"
 683              		.file 18 "../../../os/ext/CMSIS/include/core_cm4.h"
 684              		.file 19 "../../../os/rt/include/chsys.h"