ARM GAS  C:\Users\jo\AppData\Local\Temp\ccEjaF55.s 			page 1


   1              		.syntax unified
   2              		.cpu cortex-m4
   3              		.fpu softvfp
   4              		.eabi_attribute 20, 1
   5              		.eabi_attribute 21, 1
   6              		.eabi_attribute 23, 3
   7              		.eabi_attribute 24, 1
   8              		.eabi_attribute 25, 1
   9              		.eabi_attribute 26, 1
  10              		.eabi_attribute 30, 2
  11              		.eabi_attribute 34, 1
  12              		.eabi_attribute 18, 4
  13              		.thumb
  14              		.file	"chdynamic.c"
  15              		.text
  16              	.Ltext0:
  17              		.cfi_sections	.debug_frame
  18              		.section	.text.chThdAddRef,"ax",%progbits
  19              		.align	2
  20              		.p2align 4,,15
  21              		.global	chThdAddRef
  22              		.thumb
  23              		.thumb_func
  24              		.type	chThdAddRef, %function
  25              	chThdAddRef:
  26              	.LFB228:
  27              		.file 1 "../../../os/rt/src/chdynamic.c"
  28              		.loc 1 68 0
  29              		.cfi_startproc
  30              		@ args = 0, pretend = 0, frame = 0
  31              		@ frame_needed = 0, uses_anonymous_args = 0
  32              	.LVL0:
  33 0000 10B5     		push	{r4, lr}
  34              		.cfi_def_cfa_offset 8
  35              		.cfi_offset 4, -8
  36              		.cfi_offset 14, -4
  37              	.LBB44:
  38              	.LBB45:
  39              	.LBB46:
  40              	.LBB47:
  41              	.LBB48:
  42              		.file 2 "../../../os/ext/CMSIS/include/core_cmFunc.h"
  43              		.loc 2 546 0
  44 0002 2023     		movs	r3, #32
  45              	.LBE48:
  46              	.LBE47:
  47              	.LBE46:
  48              	.LBE45:
  49              	.LBE44:
  50              		.loc 1 68 0
  51 0004 0446     		mov	r4, r0
  52              	.LBB53:
  53              	.LBB52:
  54              	.LBB51:
  55              	.LBB50:
  56              	.LBB49:
  57              		.loc 2 546 0
ARM GAS  C:\Users\jo\AppData\Local\Temp\ccEjaF55.s 			page 2


  58              	@ 546 "../../../os/ext/CMSIS/include/core_cmFunc.h" 1
  59 0006 83F31188 		MSR basepri, r3
  60              	@ 0 "" 2
  61              		.thumb
  62              	.LBE49:
  63              	.LBE50:
  64              	.LBE51:
  65              		.file 3 "../../../os/rt/include/chsys.h"
  66              		.loc 3 350 0
  67 000a FFF7FEFF 		bl	_dbg_check_lock
  68              	.LVL1:
  69              	.LBE52:
  70              	.LBE53:
  71              		.loc 1 71 0
  72 000e 94F82230 		ldrb	r3, [r4, #34]	@ zero_extendqisi2
  73 0012 FF2B     		cmp	r3, #255
  74 0014 15D0     		beq	.L6
  75              	.L2:
  76              		.loc 1 72 0
  77 0016 0133     		adds	r3, r3, #1
  78 0018 84F82230 		strb	r3, [r4, #34]
  79              	.LBB54:
  80              	.LBB55:
  81              		.loc 3 360 0
  82 001c FFF7FEFF 		bl	_dbg_check_unlock
  83              	.LVL2:
  84              		.loc 3 367 0
  85 0020 0B4B     		ldr	r3, .L7
  86 0022 1A68     		ldr	r2, [r3]
  87 0024 9A42     		cmp	r2, r3
  88 0026 07D0     		beq	.L3
  89 0028 9969     		ldr	r1, [r3, #24]
  90 002a 9368     		ldr	r3, [r2, #8]
  91 002c 8A68     		ldr	r2, [r1, #8]
  92 002e 9A42     		cmp	r2, r3
  93 0030 02D2     		bcs	.L3
  94 0032 0848     		ldr	r0, .L7+4
  95 0034 FFF7FEFF 		bl	chSysHalt
  96              	.LVL3:
  97              	.L3:
  98              	.LBB56:
  99              	.LBB57:
 100              	.LBB58:
 101              		.loc 2 546 0
 102 0038 0023     		movs	r3, #0
 103              	@ 546 "../../../os/ext/CMSIS/include/core_cmFunc.h" 1
 104 003a 83F31188 		MSR basepri, r3
 105              	@ 0 "" 2
 106              		.thumb
 107              	.LBE58:
 108              	.LBE57:
 109              	.LBE56:
 110              	.LBE55:
 111              	.LBE54:
 112              		.loc 1 76 0
 113 003e 2046     		mov	r0, r4
 114 0040 10BD     		pop	{r4, pc}
ARM GAS  C:\Users\jo\AppData\Local\Temp\ccEjaF55.s 			page 3


 115              	.LVL4:
 116              	.L6:
 117              		.loc 1 71 0 discriminator 2
 118 0042 0548     		ldr	r0, .L7+8
 119 0044 FFF7FEFF 		bl	chSysHalt
 120              	.LVL5:
 121 0048 94F82230 		ldrb	r3, [r4, #34]	@ zero_extendqisi2
 122 004c E3E7     		b	.L2
 123              	.L8:
 124 004e 00BF     		.align	2
 125              	.L7:
 126 0050 00000000 		.word	ch
 127 0054 00000000 		.word	.LANCHOR1
 128 0058 00000000 		.word	.LANCHOR0
 129              		.cfi_endproc
 130              	.LFE228:
 131              		.size	chThdAddRef, .-chThdAddRef
 132 005c AFF30080 		.section	.text.chThdRelease,"ax",%progbits
 133              		.align	2
 134              		.p2align 4,,15
 135              		.global	chThdRelease
 136              		.thumb
 137              		.thumb_func
 138              		.type	chThdRelease, %function
 139              	chThdRelease:
 140              	.LFB229:
 141              		.loc 1 91 0
 142              		.cfi_startproc
 143              		@ args = 0, pretend = 0, frame = 0
 144              		@ frame_needed = 0, uses_anonymous_args = 0
 145              	.LVL6:
 146 0000 38B5     		push	{r3, r4, r5, lr}
 147              		.cfi_def_cfa_offset 16
 148              		.cfi_offset 3, -16
 149              		.cfi_offset 4, -12
 150              		.cfi_offset 5, -8
 151              		.cfi_offset 14, -4
 152              		.loc 1 91 0
 153 0002 0546     		mov	r5, r0
 154              	.LBB69:
 155              	.LBB70:
 156              	.LBB71:
 157              	.LBB72:
 158              	.LBB73:
 159              		.loc 2 546 0
 160 0004 2023     		movs	r3, #32
 161              	@ 546 "../../../os/ext/CMSIS/include/core_cmFunc.h" 1
 162 0006 83F31188 		MSR basepri, r3
 163              	@ 0 "" 2
 164              		.thumb
 165              	.LBE73:
 166              	.LBE72:
 167              	.LBE71:
 168              		.loc 3 350 0
 169 000a FFF7FEFF 		bl	_dbg_check_lock
 170              	.LVL7:
 171              	.LBE70:
ARM GAS  C:\Users\jo\AppData\Local\Temp\ccEjaF55.s 			page 4


 172              	.LBE69:
 173              		.loc 1 95 0
 174 000e 95F82230 		ldrb	r3, [r5, #34]	@ zero_extendqisi2
 175 0012 1BB3     		cbz	r3, .L16
 176              	.L10:
 177              		.loc 1 96 0
 178 0014 013B     		subs	r3, r3, #1
 179 0016 DCB2     		uxtb	r4, r3
 180 0018 85F82240 		strb	r4, [r5, #34]
 181              	.LVL8:
 182              	.LBB74:
 183              	.LBB75:
 184              		.loc 3 360 0
 185 001c FFF7FEFF 		bl	_dbg_check_unlock
 186              	.LVL9:
 187              		.loc 3 367 0
 188 0020 1C4B     		ldr	r3, .L18
 189 0022 1A68     		ldr	r2, [r3]
 190 0024 9A42     		cmp	r2, r3
 191 0026 07D0     		beq	.L11
 192 0028 9969     		ldr	r1, [r3, #24]
 193 002a 9368     		ldr	r3, [r2, #8]
 194 002c 8A68     		ldr	r2, [r1, #8]
 195 002e 9A42     		cmp	r2, r3
 196 0030 02D2     		bcs	.L11
 197 0032 1948     		ldr	r0, .L18+4
 198 0034 FFF7FEFF 		bl	chSysHalt
 199              	.LVL10:
 200              	.L11:
 201              	.LBB76:
 202              	.LBB77:
 203              	.LBB78:
 204              		.loc 2 546 0
 205 0038 0023     		movs	r3, #0
 206              	@ 546 "../../../os/ext/CMSIS/include/core_cmFunc.h" 1
 207 003a 83F31188 		MSR basepri, r3
 208              	@ 0 "" 2
 209              		.thumb
 210              	.LBE78:
 211              	.LBE77:
 212              	.LBE76:
 213              	.LBE75:
 214              	.LBE74:
 215              		.loc 1 103 0
 216 003e 1CB9     		cbnz	r4, .L9
 217              		.loc 1 103 0 is_stmt 0 discriminator 1
 218 0040 95F82030 		ldrb	r3, [r5, #32]	@ zero_extendqisi2
 219 0044 0F2B     		cmp	r3, #15
 220 0046 00D0     		beq	.L17
 221              	.L9:
 222 0048 38BD     		pop	{r3, r4, r5, pc}
 223              	.LVL11:
 224              	.L17:
 225              		.loc 1 104 0 is_stmt 1
 226 004a 95F82130 		ldrb	r3, [r5, #33]	@ zero_extendqisi2
 227 004e 03F00303 		and	r3, r3, #3
 228 0052 012B     		cmp	r3, #1
ARM GAS  C:\Users\jo\AppData\Local\Temp\ccEjaF55.s 			page 5


 229 0054 08D0     		beq	.L13
 230 0056 022B     		cmp	r3, #2
 231 0058 10D0     		beq	.L14
 232 005a 38BD     		pop	{r3, r4, r5, pc}
 233              	.LVL12:
 234              	.L16:
 235              		.loc 1 95 0 discriminator 2
 236 005c 0F48     		ldr	r0, .L18+8
 237 005e FFF7FEFF 		bl	chSysHalt
 238              	.LVL13:
 239 0062 95F82230 		ldrb	r3, [r5, #34]	@ zero_extendqisi2
 240 0066 D5E7     		b	.L10
 241              	.LVL14:
 242              	.L13:
 243              		.loc 1 108 0
 244 0068 6B69     		ldr	r3, [r5, #20]
 245 006a 2A69     		ldr	r2, [r5, #16]
 246 006c 1A61     		str	r2, [r3, #16]
 247 006e 2A69     		ldr	r2, [r5, #16]
 248              		.loc 1 110 0
 249 0070 2846     		mov	r0, r5
 250              		.loc 1 108 0
 251 0072 5361     		str	r3, [r2, #20]
 252              		.loc 1 127 0
 253 0074 BDE83840 		pop	{r3, r4, r5, lr}
 254              		.cfi_remember_state
 255              		.cfi_restore 14
 256              		.cfi_restore 5
 257              		.cfi_restore 4
 258              		.cfi_restore 3
 259              		.cfi_def_cfa_offset 0
 260              	.LVL15:
 261              		.loc 1 110 0
 262 0078 FFF7FEBF 		b	chHeapFree
 263              	.LVL16:
 264              	.L14:
 265              		.cfi_restore_state
 266              		.loc 1 116 0
 267 007c 6B69     		ldr	r3, [r5, #20]
 268 007e 2A69     		ldr	r2, [r5, #16]
 269 0080 1A61     		str	r2, [r3, #16]
 270 0082 2A69     		ldr	r2, [r5, #16]
 271              		.loc 1 118 0
 272 0084 686C     		ldr	r0, [r5, #68]
 273              		.loc 1 116 0
 274 0086 5361     		str	r3, [r2, #20]
 275              		.loc 1 118 0
 276 0088 2946     		mov	r1, r5
 277              		.loc 1 127 0
 278 008a BDE83840 		pop	{r3, r4, r5, lr}
 279              		.cfi_restore 14
 280              		.cfi_restore 5
 281              		.cfi_restore 4
 282              		.cfi_restore 3
 283              		.cfi_def_cfa_offset 0
 284              	.LVL17:
 285              		.loc 1 118 0
ARM GAS  C:\Users\jo\AppData\Local\Temp\ccEjaF55.s 			page 6


 286 008e FFF7FEBF 		b	chPoolFree
 287              	.LVL18:
 288              	.L19:
 289 0092 00BF     		.align	2
 290              	.L18:
 291 0094 00000000 		.word	ch
 292 0098 00000000 		.word	.LANCHOR1
 293 009c 00000000 		.word	.LANCHOR2
 294              		.cfi_endproc
 295              	.LFE229:
 296              		.size	chThdRelease, .-chThdRelease
 297              		.section	.text.chThdCreateFromHeap,"ax",%progbits
 298              		.align	2
 299              		.p2align 4,,15
 300              		.global	chThdCreateFromHeap
 301              		.thumb
 302              		.thumb_func
 303              		.type	chThdCreateFromHeap, %function
 304              	chThdCreateFromHeap:
 305              	.LFB230:
 306              		.loc 1 153 0
 307              		.cfi_startproc
 308              		@ args = 4, pretend = 0, frame = 0
 309              		@ frame_needed = 0, uses_anonymous_args = 0
 310              	.LVL19:
 311 0000 2DE9F041 		push	{r4, r5, r6, r7, r8, lr}
 312              		.cfi_def_cfa_offset 24
 313              		.cfi_offset 4, -24
 314              		.cfi_offset 5, -20
 315              		.cfi_offset 6, -16
 316              		.cfi_offset 7, -12
 317              		.cfi_offset 8, -8
 318              		.cfi_offset 14, -4
 319 0004 82B0     		sub	sp, sp, #8
 320              		.cfi_def_cfa_offset 32
 321              		.loc 1 153 0
 322 0006 9046     		mov	r8, r2
 323 0008 1F46     		mov	r7, r3
 324 000a 0D46     		mov	r5, r1
 325              		.loc 1 157 0
 326 000c FFF7FEFF 		bl	chHeapAlloc
 327              	.LVL20:
 328              		.loc 1 158 0
 329 0010 0446     		mov	r4, r0
 330 0012 80B3     		cbz	r0, .L21
 331              		.loc 1 163 0
 332 0014 00F14806 		add	r6, r0, #72
 333 0018 3146     		mov	r1, r6
 334 001a FF22     		movs	r2, #255
 335 001c FFF7FEFF 		bl	_thread_memfill
 336              	.LVL21:
 337              		.loc 1 166 0
 338 0020 3046     		mov	r0, r6
 339 0022 6119     		adds	r1, r4, r5
 340 0024 5522     		movs	r2, #85
 341 0026 FFF7FEFF 		bl	_thread_memfill
 342              	.LVL22:
ARM GAS  C:\Users\jo\AppData\Local\Temp\ccEjaF55.s 			page 7


 343              	.LBB89:
 344              	.LBB90:
 345              	.LBB91:
 346              	.LBB92:
 347              	.LBB93:
 348              		.loc 2 546 0
 349 002a 2023     		movs	r3, #32
 350              	@ 546 "../../../os/ext/CMSIS/include/core_cmFunc.h" 1
 351 002c 83F31188 		MSR basepri, r3
 352              	@ 0 "" 2
 353              		.thumb
 354              	.LBE93:
 355              	.LBE92:
 356              	.LBE91:
 357              		.loc 3 350 0
 358 0030 FFF7FEFF 		bl	_dbg_check_lock
 359              	.LVL23:
 360              	.LBE90:
 361              	.LBE89:
 362              		.loc 1 172 0
 363 0034 089B     		ldr	r3, [sp, #32]
 364 0036 0093     		str	r3, [sp]
 365 0038 4246     		mov	r2, r8
 366 003a 2046     		mov	r0, r4
 367 003c 2946     		mov	r1, r5
 368 003e 3B46     		mov	r3, r7
 369 0040 FFF7FEFF 		bl	chThdCreateI
 370              	.LVL24:
 371              		.loc 1 173 0
 372 0044 0123     		movs	r3, #1
 373 0046 80F82130 		strb	r3, [r0, #33]
 374              		.loc 1 174 0
 375 004a 0021     		movs	r1, #0
 376              		.loc 1 172 0
 377 004c 0446     		mov	r4, r0
 378              	.LVL25:
 379              		.loc 1 174 0
 380 004e FFF7FEFF 		bl	chSchWakeupS
 381              	.LVL26:
 382              	.LBB94:
 383              	.LBB95:
 384              		.loc 3 360 0
 385 0052 FFF7FEFF 		bl	_dbg_check_unlock
 386              	.LVL27:
 387              		.loc 3 367 0
 388 0056 094B     		ldr	r3, .L25
 389 0058 1A68     		ldr	r2, [r3]
 390 005a 9A42     		cmp	r2, r3
 391 005c 07D0     		beq	.L22
 392 005e 9969     		ldr	r1, [r3, #24]
 393 0060 9368     		ldr	r3, [r2, #8]
 394 0062 8A68     		ldr	r2, [r1, #8]
 395 0064 9A42     		cmp	r2, r3
 396 0066 02D2     		bcs	.L22
 397 0068 0548     		ldr	r0, .L25+4
 398 006a FFF7FEFF 		bl	chSysHalt
 399              	.LVL28:
ARM GAS  C:\Users\jo\AppData\Local\Temp\ccEjaF55.s 			page 8


 400              	.L22:
 401              	.LBB96:
 402              	.LBB97:
 403              	.LBB98:
 404              		.loc 2 546 0
 405 006e 0023     		movs	r3, #0
 406              	@ 546 "../../../os/ext/CMSIS/include/core_cmFunc.h" 1
 407 0070 83F31188 		MSR basepri, r3
 408              	@ 0 "" 2
 409              		.thumb
 410 0074 2046     		mov	r0, r4
 411              	.LVL29:
 412              	.L21:
 413              	.LBE98:
 414              	.LBE97:
 415              	.LBE96:
 416              	.LBE95:
 417              	.LBE94:
 418              		.loc 1 178 0
 419 0076 02B0     		add	sp, sp, #8
 420              		.cfi_def_cfa_offset 24
 421              		@ sp needed
 422 0078 BDE8F081 		pop	{r4, r5, r6, r7, r8, pc}
 423              	.LVL30:
 424              	.L26:
 425              		.align	2
 426              	.L25:
 427 007c 00000000 		.word	ch
 428 0080 00000000 		.word	.LANCHOR1
 429              		.cfi_endproc
 430              	.LFE230:
 431              		.size	chThdCreateFromHeap, .-chThdCreateFromHeap
 432 0084 AFF30080 		.section	.text.chThdCreateFromMemoryPool,"ax",%progbits
 432      AFF30080 
 432      AFF30080 
 433              		.align	2
 434              		.p2align 4,,15
 435              		.global	chThdCreateFromMemoryPool
 436              		.thumb
 437              		.thumb_func
 438              		.type	chThdCreateFromMemoryPool, %function
 439              	chThdCreateFromMemoryPool:
 440              	.LFB231:
 441              		.loc 1 205 0
 442              		.cfi_startproc
 443              		@ args = 0, pretend = 0, frame = 0
 444              		@ frame_needed = 0, uses_anonymous_args = 0
 445              	.LVL31:
 446 0000 2DE9F043 		push	{r4, r5, r6, r7, r8, r9, lr}
 447              		.cfi_def_cfa_offset 28
 448              		.cfi_offset 4, -28
 449              		.cfi_offset 5, -24
 450              		.cfi_offset 6, -20
 451              		.cfi_offset 7, -16
 452              		.cfi_offset 8, -12
 453              		.cfi_offset 9, -8
 454              		.cfi_offset 14, -4
ARM GAS  C:\Users\jo\AppData\Local\Temp\ccEjaF55.s 			page 9


 455 0004 8846     		mov	r8, r1
 456 0006 83B0     		sub	sp, sp, #12
 457              		.cfi_def_cfa_offset 40
 458              		.loc 1 205 0
 459 0008 1746     		mov	r7, r2
 460 000a 9946     		mov	r9, r3
 461              		.loc 1 209 0
 462 000c 0546     		mov	r5, r0
 463 000e 0028     		cmp	r0, #0
 464 0010 3AD0     		beq	.L33
 465              	.LVL32:
 466              	.L28:
 467              		.loc 1 211 0
 468 0012 2846     		mov	r0, r5
 469 0014 FFF7FEFF 		bl	chPoolAlloc
 470              	.LVL33:
 471              		.loc 1 212 0
 472 0018 0446     		mov	r4, r0
 473 001a 90B3     		cbz	r0, .L29
 474              		.loc 1 217 0
 475 001c 00F14806 		add	r6, r0, #72
 476 0020 3146     		mov	r1, r6
 477 0022 FF22     		movs	r2, #255
 478 0024 FFF7FEFF 		bl	_thread_memfill
 479              	.LVL34:
 480              		.loc 1 220 0
 481 0028 6968     		ldr	r1, [r5, #4]
 482 002a 3046     		mov	r0, r6
 483 002c 2144     		add	r1, r1, r4
 484 002e 5522     		movs	r2, #85
 485 0030 FFF7FEFF 		bl	_thread_memfill
 486              	.LVL35:
 487              	.LBB109:
 488              	.LBB110:
 489              	.LBB111:
 490              	.LBB112:
 491              	.LBB113:
 492              		.loc 2 546 0
 493 0034 2023     		movs	r3, #32
 494              	@ 546 "../../../os/ext/CMSIS/include/core_cmFunc.h" 1
 495 0036 83F31188 		MSR basepri, r3
 496              	@ 0 "" 2
 497              		.thumb
 498              	.LBE113:
 499              	.LBE112:
 500              	.LBE111:
 501              		.loc 3 350 0
 502 003a FFF7FEFF 		bl	_dbg_check_lock
 503              	.LVL36:
 504              	.LBE110:
 505              	.LBE109:
 506              		.loc 1 226 0
 507 003e 4246     		mov	r2, r8
 508 0040 6968     		ldr	r1, [r5, #4]
 509 0042 CDF80090 		str	r9, [sp]
 510 0046 2046     		mov	r0, r4
 511 0048 3B46     		mov	r3, r7
ARM GAS  C:\Users\jo\AppData\Local\Temp\ccEjaF55.s 			page 10


 512 004a FFF7FEFF 		bl	chThdCreateI
 513              	.LVL37:
 514              		.loc 1 227 0
 515 004e 0223     		movs	r3, #2
 516 0050 80F82130 		strb	r3, [r0, #33]
 517              		.loc 1 228 0
 518 0054 4564     		str	r5, [r0, #68]
 519              		.loc 1 229 0
 520 0056 0021     		movs	r1, #0
 521              		.loc 1 226 0
 522 0058 0446     		mov	r4, r0
 523              	.LVL38:
 524              		.loc 1 229 0
 525 005a FFF7FEFF 		bl	chSchWakeupS
 526              	.LVL39:
 527              	.LBB114:
 528              	.LBB115:
 529              		.loc 3 360 0
 530 005e FFF7FEFF 		bl	_dbg_check_unlock
 531              	.LVL40:
 532              		.loc 3 367 0
 533 0062 0B4B     		ldr	r3, .L34
 534 0064 1A68     		ldr	r2, [r3]
 535 0066 9A42     		cmp	r2, r3
 536 0068 07D0     		beq	.L30
 537 006a 9969     		ldr	r1, [r3, #24]
 538 006c 9368     		ldr	r3, [r2, #8]
 539 006e 8A68     		ldr	r2, [r1, #8]
 540 0070 9A42     		cmp	r2, r3
 541 0072 02D2     		bcs	.L30
 542 0074 0748     		ldr	r0, .L34+4
 543 0076 FFF7FEFF 		bl	chSysHalt
 544              	.LVL41:
 545              	.L30:
 546              	.LBB116:
 547              	.LBB117:
 548              	.LBB118:
 549              		.loc 2 546 0
 550 007a 0023     		movs	r3, #0
 551              	@ 546 "../../../os/ext/CMSIS/include/core_cmFunc.h" 1
 552 007c 83F31188 		MSR basepri, r3
 553              	@ 0 "" 2
 554              		.thumb
 555 0080 2046     		mov	r0, r4
 556              	.LVL42:
 557              	.L29:
 558              	.LBE118:
 559              	.LBE117:
 560              	.LBE116:
 561              	.LBE115:
 562              	.LBE114:
 563              		.loc 1 233 0
 564 0082 03B0     		add	sp, sp, #12
 565              		.cfi_remember_state
 566              		.cfi_def_cfa_offset 28
 567              		@ sp needed
 568 0084 BDE8F083 		pop	{r4, r5, r6, r7, r8, r9, pc}
ARM GAS  C:\Users\jo\AppData\Local\Temp\ccEjaF55.s 			page 11


 569              	.LVL43:
 570              	.L33:
 571              		.cfi_restore_state
 572              		.loc 1 209 0 discriminator 2
 573 0088 0348     		ldr	r0, .L34+8
 574              	.LVL44:
 575 008a FFF7FEFF 		bl	chSysHalt
 576              	.LVL45:
 577 008e C0E7     		b	.L28
 578              	.L35:
 579              		.align	2
 580              	.L34:
 581 0090 00000000 		.word	ch
 582 0094 00000000 		.word	.LANCHOR1
 583 0098 00000000 		.word	.LANCHOR3
 584              		.cfi_endproc
 585              	.LFE231:
 586              		.size	chThdCreateFromMemoryPool, .-chThdCreateFromMemoryPool
 587 009c AFF30080 		.section	.rodata.__func__.6546,"a",%progbits
 588              		.align	2
 589              		.set	.LANCHOR0,. + 0
 590              		.type	__func__.6546, %object
 591              		.size	__func__.6546, 12
 592              	__func__.6546:
 593 0000 63685468 		.ascii	"chThdAddRef\000"
 593      64416464 
 593      52656600 
 594              		.section	.rodata.__func__.6573,"a",%progbits
 595              		.align	2
 596              		.set	.LANCHOR3,. + 0
 597              		.type	__func__.6573, %object
 598              		.size	__func__.6573, 26
 599              	__func__.6573:
 600 0000 63685468 		.ascii	"chThdCreateFromMemoryPool\000"
 600      64437265 
 600      61746546 
 600      726F6D4D 
 600      656D6F72 
 601 001a 0000     		.section	.rodata.__func__.5854,"a",%progbits
 602              		.align	2
 603              		.set	.LANCHOR1,. + 0
 604              		.type	__func__.5854, %object
 605              		.size	__func__.5854, 12
 606              	__func__.5854:
 607 0000 63685379 		.ascii	"chSysUnlock\000"
 607      73556E6C 
 607      6F636B00 
 608              		.section	.rodata.__func__.6551,"a",%progbits
 609              		.align	2
 610              		.set	.LANCHOR2,. + 0
 611              		.type	__func__.6551, %object
 612              		.size	__func__.6551, 13
 613              	__func__.6551:
 614 0000 63685468 		.ascii	"chThdRelease\000"
 614      6452656C 
 614      65617365 
 614      00
ARM GAS  C:\Users\jo\AppData\Local\Temp\ccEjaF55.s 			page 12


 615 000d 000000   		.text
 616              	.Letext0:
 617              		.file 4 "c:\\program files\\gnu tools arm embedded\\4.9 2014q4\\lib\\gcc\\arm-none-eabi\\4.9.3\\in
 618              		.file 5 "c:\\program files\\gnu tools arm embedded\\4.9 2014q4\\arm-none-eabi\\include\\machine\\_
 619              		.file 6 "c:\\program files\\gnu tools arm embedded\\4.9 2014q4\\arm-none-eabi\\include\\stdint.h"
 620              		.file 7 "../../../os/rt/ports/ARMCMx/compilers/GCC/chtypes.h"
 621              		.file 8 "../../../os/rt/include/chsystypes.h"
 622              		.file 9 "../../../os/rt/include/chschd.h"
 623              		.file 10 "../../../os/rt/ports/ARMCMx/chcore.h"
 624              		.file 11 "../../../os/rt/ports/ARMCMx/chcore_v7m.h"
 625              		.file 12 "../../../os/rt/include/chdebug.h"
 626              		.file 13 "../../../os/rt/include/chtm.h"
 627              		.file 14 "../../../os/rt/include/chsem.h"
 628              		.file 15 "../../../os/rt/include/chmtx.h"
 629              		.file 16 "../../../os/rt/include/chthreads.h"
 630              		.file 17 "../../../os/rt/include/chmemcore.h"
 631              		.file 18 "../../../os/rt/include/chheap.h"
 632              		.file 19 "../../../os/rt/include/chmempools.h"
 633              		.file 20 "../../../os/ext/CMSIS/include/core_cm4.h"