ARM GAS  C:\Users\jo\AppData\Local\Temp\ccOpvVJr.s 			page 1


   1              		.syntax unified
   2              		.cpu cortex-m4
   3              		.fpu softvfp
   4              		.eabi_attribute 20, 1
   5              		.eabi_attribute 21, 1
   6              		.eabi_attribute 23, 3
   7              		.eabi_attribute 24, 1
   8              		.eabi_attribute 25, 1
   9              		.eabi_attribute 26, 1
  10              		.eabi_attribute 30, 2
  11              		.eabi_attribute 34, 1
  12              		.eabi_attribute 18, 4
  13              		.thumb
  14              		.file	"chevents.c"
  15              		.text
  16              	.Ltext0:
  17              		.cfi_sections	.debug_frame
  18              		.section	.text.chEvtRegisterMaskWithFlags,"ax",%progbits
  19              		.align	2
  20              		.p2align 4,,15
  21              		.global	chEvtRegisterMaskWithFlags
  22              		.thumb
  23              		.thumb_func
  24              		.type	chEvtRegisterMaskWithFlags, %function
  25              	chEvtRegisterMaskWithFlags:
  26              	.LFB228:
  27              		.file 1 "../../../os/rt/src/chevents.c"
  28              		.loc 1 106 0
  29              		.cfi_startproc
  30              		@ args = 0, pretend = 0, frame = 0
  31              		@ frame_needed = 0, uses_anonymous_args = 0
  32              	.LVL0:
  33 0000 2DE9F041 		push	{r4, r5, r6, r7, r8, lr}
  34              		.cfi_def_cfa_offset 24
  35              		.cfi_offset 4, -24
  36              		.cfi_offset 5, -20
  37              		.cfi_offset 6, -16
  38              		.cfi_offset 7, -12
  39              		.cfi_offset 8, -8
  40              		.cfi_offset 14, -4
  41              		.loc 1 106 0
  42 0004 0C46     		mov	r4, r1
  43 0006 9046     		mov	r8, r2
  44 0008 1F46     		mov	r7, r3
  45              		.loc 1 108 0
  46 000a 0646     		mov	r6, r0
  47 000c 10B3     		cbz	r0, .L2
  48              		.loc 1 108 0 is_stmt 0 discriminator 3
  49 000e 09B3     		cbz	r1, .L2
  50              	.LVL1:
  51              	.L3:
  52              	.LBB89:
  53              	.LBB90:
  54              	.LBB91:
  55              	.LBB92:
  56              	.LBB93:
  57              		.file 2 "../../../os/ext/CMSIS/include/core_cmFunc.h"
ARM GAS  C:\Users\jo\AppData\Local\Temp\ccOpvVJr.s 			page 2


  58              		.loc 2 546 0 is_stmt 1
  59 0010 2023     		movs	r3, #32
  60              	@ 546 "../../../os/ext/CMSIS/include/core_cmFunc.h" 1
  61 0012 83F31188 		MSR basepri, r3
  62              	@ 0 "" 2
  63              		.thumb
  64              	.LBE93:
  65              	.LBE92:
  66              	.LBE91:
  67              	.LBE90:
  68              	.LBE89:
  69              		.loc 1 113 0
  70 0016 114D     		ldr	r5, .L10
  71              	.LBB95:
  72              	.LBB94:
  73              		.file 3 "../../../os/rt/include/chsys.h"
  74              		.loc 3 350 0
  75 0018 FFF7FEFF 		bl	_dbg_check_lock
  76              	.LVL2:
  77              	.LBE94:
  78              	.LBE95:
  79              		.loc 1 111 0
  80 001c 3368     		ldr	r3, [r6]
  81              		.loc 1 113 0
  82 001e AA69     		ldr	r2, [r5, #24]
  83              		.loc 1 111 0
  84 0020 2360     		str	r3, [r4]
  85              		.loc 1 115 0
  86 0022 0023     		movs	r3, #0
  87              		.loc 1 112 0
  88 0024 3460     		str	r4, [r6]
  89              		.loc 1 115 0
  90 0026 E360     		str	r3, [r4, #12]
  91              		.loc 1 113 0
  92 0028 6260     		str	r2, [r4, #4]
  93              		.loc 1 114 0
  94 002a C4F80880 		str	r8, [r4, #8]
  95              		.loc 1 116 0
  96 002e 2761     		str	r7, [r4, #16]
  97              	.LBB96:
  98              	.LBB97:
  99              		.loc 3 360 0
 100 0030 FFF7FEFF 		bl	_dbg_check_unlock
 101              	.LVL3:
 102              		.loc 3 367 0
 103 0034 2B68     		ldr	r3, [r5]
 104 0036 AB42     		cmp	r3, r5
 105 0038 07D0     		beq	.L4
 106 003a AA69     		ldr	r2, [r5, #24]
 107 003c 9B68     		ldr	r3, [r3, #8]
 108 003e 9268     		ldr	r2, [r2, #8]
 109 0040 9A42     		cmp	r2, r3
 110 0042 02D2     		bcs	.L4
 111 0044 0648     		ldr	r0, .L10+4
 112 0046 FFF7FEFF 		bl	chSysHalt
 113              	.LVL4:
 114              	.L4:
ARM GAS  C:\Users\jo\AppData\Local\Temp\ccOpvVJr.s 			page 3


 115              	.LBB98:
 116              	.LBB99:
 117              	.LBB100:
 118              		.loc 2 546 0
 119 004a 0023     		movs	r3, #0
 120              	@ 546 "../../../os/ext/CMSIS/include/core_cmFunc.h" 1
 121 004c 83F31188 		MSR basepri, r3
 122              	@ 0 "" 2
 123              		.thumb
 124 0050 BDE8F081 		pop	{r4, r5, r6, r7, r8, pc}
 125              	.LVL5:
 126              	.L2:
 127              	.LBE100:
 128              	.LBE99:
 129              	.LBE98:
 130              	.LBE97:
 131              	.LBE96:
 132              		.loc 1 108 0 discriminator 4
 133 0054 0348     		ldr	r0, .L10+8
 134              	.LVL6:
 135 0056 FFF7FEFF 		bl	chSysHalt
 136              	.LVL7:
 137 005a D9E7     		b	.L3
 138              	.L11:
 139              		.align	2
 140              	.L10:
 141 005c 00000000 		.word	ch
 142 0060 00000000 		.word	.LANCHOR1
 143 0064 00000000 		.word	.LANCHOR0
 144              		.cfi_endproc
 145              	.LFE228:
 146              		.size	chEvtRegisterMaskWithFlags, .-chEvtRegisterMaskWithFlags
 147 0068 AFF30080 		.section	.text.chEvtUnregister,"ax",%progbits
 147      AFF30080 
 148              		.align	2
 149              		.p2align 4,,15
 150              		.global	chEvtUnregister
 151              		.thumb
 152              		.thumb_func
 153              		.type	chEvtUnregister, %function
 154              	chEvtUnregister:
 155              	.LFB229:
 156              		.loc 1 133 0
 157              		.cfi_startproc
 158              		@ args = 0, pretend = 0, frame = 0
 159              		@ frame_needed = 0, uses_anonymous_args = 0
 160              	.LVL8:
 161 0000 38B5     		push	{r3, r4, r5, lr}
 162              		.cfi_def_cfa_offset 16
 163              		.cfi_offset 3, -16
 164              		.cfi_offset 4, -12
 165              		.cfi_offset 5, -8
 166              		.cfi_offset 14, -4
 167              		.loc 1 133 0
 168 0002 0D46     		mov	r5, r1
 169              		.loc 1 136 0
 170 0004 0446     		mov	r4, r0
ARM GAS  C:\Users\jo\AppData\Local\Temp\ccOpvVJr.s 			page 4


 171 0006 10B3     		cbz	r0, .L13
 172              		.loc 1 136 0 is_stmt 0 discriminator 3
 173 0008 09B3     		cbz	r1, .L13
 174              	.LVL9:
 175              	.L14:
 176              	.LBB111:
 177              	.LBB112:
 178              	.LBB113:
 179              	.LBB114:
 180              	.LBB115:
 181              		.loc 2 546 0 is_stmt 1
 182 000a 2023     		movs	r3, #32
 183              	@ 546 "../../../os/ext/CMSIS/include/core_cmFunc.h" 1
 184 000c 83F31188 		MSR basepri, r3
 185              	@ 0 "" 2
 186              		.thumb
 187              	.LBE115:
 188              	.LBE114:
 189              	.LBE113:
 190              		.loc 3 350 0
 191 0010 FFF7FEFF 		bl	_dbg_check_lock
 192              	.LVL10:
 193 0014 2246     		mov	r2, r4
 194 0016 02E0     		b	.L15
 195              	.LVL11:
 196              	.L17:
 197              	.LBE112:
 198              	.LBE111:
 199              		.loc 1 145 0
 200 0018 9D42     		cmp	r5, r3
 201 001a 15D0     		beq	.L24
 202 001c 1A46     		mov	r2, r3
 203              	.LVL12:
 204              	.L15:
 205              		.loc 1 143 0
 206 001e 1368     		ldr	r3, [r2]
 207 0020 A342     		cmp	r3, r4
 208 0022 F9D1     		bne	.L17
 209              	.L16:
 210              	.LBB116:
 211              	.LBB117:
 212              		.loc 3 360 0
 213 0024 FFF7FEFF 		bl	_dbg_check_unlock
 214              	.LVL13:
 215              		.loc 3 367 0
 216 0028 0B4B     		ldr	r3, .L25
 217 002a 1A68     		ldr	r2, [r3]
 218 002c 9A42     		cmp	r2, r3
 219 002e 07D0     		beq	.L18
 220 0030 9969     		ldr	r1, [r3, #24]
 221 0032 9368     		ldr	r3, [r2, #8]
 222 0034 8A68     		ldr	r2, [r1, #8]
 223 0036 9A42     		cmp	r2, r3
 224 0038 02D2     		bcs	.L18
 225 003a 0848     		ldr	r0, .L25+4
 226 003c FFF7FEFF 		bl	chSysHalt
 227              	.LVL14:
ARM GAS  C:\Users\jo\AppData\Local\Temp\ccOpvVJr.s 			page 5


 228              	.L18:
 229              	.LBB118:
 230              	.LBB119:
 231              	.LBB120:
 232              		.loc 2 546 0
 233 0040 0023     		movs	r3, #0
 234              	@ 546 "../../../os/ext/CMSIS/include/core_cmFunc.h" 1
 235 0042 83F31188 		MSR basepri, r3
 236              	@ 0 "" 2
 237              		.thumb
 238 0046 38BD     		pop	{r3, r4, r5, pc}
 239              	.LVL15:
 240              	.L24:
 241              	.LBE120:
 242              	.LBE119:
 243              	.LBE118:
 244              	.LBE117:
 245              	.LBE116:
 246              		.loc 1 146 0
 247 0048 2B68     		ldr	r3, [r5]
 248 004a 1360     		str	r3, [r2]
 249              		.loc 1 147 0
 250 004c EAE7     		b	.L16
 251              	.LVL16:
 252              	.L13:
 253              		.loc 1 136 0 discriminator 4
 254 004e 0448     		ldr	r0, .L25+8
 255              	.LVL17:
 256 0050 FFF7FEFF 		bl	chSysHalt
 257              	.LVL18:
 258 0054 D9E7     		b	.L14
 259              	.L26:
 260 0056 00BF     		.align	2
 261              	.L25:
 262 0058 00000000 		.word	ch
 263 005c 00000000 		.word	.LANCHOR1
 264 0060 00000000 		.word	.LANCHOR2
 265              		.cfi_endproc
 266              	.LFE229:
 267              		.size	chEvtUnregister, .-chEvtUnregister
 268 0064 AFF30080 		.section	.text.chEvtGetAndClearEvents,"ax",%progbits
 268      AFF30080 
 268      AFF30080 
 269              		.align	2
 270              		.p2align 4,,15
 271              		.global	chEvtGetAndClearEvents
 272              		.thumb
 273              		.thumb_func
 274              		.type	chEvtGetAndClearEvents, %function
 275              	chEvtGetAndClearEvents:
 276              	.LFB230:
 277              		.loc 1 162 0
 278              		.cfi_startproc
 279              		@ args = 0, pretend = 0, frame = 0
 280              		@ frame_needed = 0, uses_anonymous_args = 0
 281              	.LVL19:
 282 0000 38B5     		push	{r3, r4, r5, lr}
ARM GAS  C:\Users\jo\AppData\Local\Temp\ccOpvVJr.s 			page 6


 283              		.cfi_def_cfa_offset 16
 284              		.cfi_offset 3, -16
 285              		.cfi_offset 4, -12
 286              		.cfi_offset 5, -8
 287              		.cfi_offset 14, -4
 288              		.loc 1 162 0
 289 0002 0446     		mov	r4, r0
 290              	.LBB131:
 291              	.LBB132:
 292              	.LBB133:
 293              	.LBB134:
 294              	.LBB135:
 295              		.loc 2 546 0
 296 0004 2023     		movs	r3, #32
 297              	@ 546 "../../../os/ext/CMSIS/include/core_cmFunc.h" 1
 298 0006 83F31188 		MSR basepri, r3
 299              	@ 0 "" 2
 300              		.thumb
 301              	.LBE135:
 302              	.LBE134:
 303              	.LBE133:
 304              	.LBE132:
 305              	.LBE131:
 306              		.loc 1 166 0
 307 000a 0D4D     		ldr	r5, .L30
 308              	.LBB137:
 309              	.LBB136:
 310              		.loc 3 350 0
 311 000c FFF7FEFF 		bl	_dbg_check_lock
 312              	.LVL20:
 313              	.LBE136:
 314              	.LBE137:
 315              		.loc 1 166 0
 316 0010 AA69     		ldr	r2, [r5, #24]
 317 0012 936B     		ldr	r3, [r2, #56]
 318              		.loc 1 167 0
 319 0014 23EA0401 		bic	r1, r3, r4
 320 0018 9163     		str	r1, [r2, #56]
 321              		.loc 1 166 0
 322 001a 1C40     		ands	r4, r4, r3
 323              	.LVL21:
 324              	.LBB138:
 325              	.LBB139:
 326              		.loc 3 360 0
 327 001c FFF7FEFF 		bl	_dbg_check_unlock
 328              	.LVL22:
 329              		.loc 3 367 0
 330 0020 2B68     		ldr	r3, [r5]
 331 0022 AB42     		cmp	r3, r5
 332 0024 07D0     		beq	.L28
 333 0026 AA69     		ldr	r2, [r5, #24]
 334 0028 9B68     		ldr	r3, [r3, #8]
 335 002a 9268     		ldr	r2, [r2, #8]
 336 002c 9A42     		cmp	r2, r3
 337 002e 02D2     		bcs	.L28
 338 0030 0448     		ldr	r0, .L30+4
 339 0032 FFF7FEFF 		bl	chSysHalt
ARM GAS  C:\Users\jo\AppData\Local\Temp\ccOpvVJr.s 			page 7


 340              	.LVL23:
 341              	.L28:
 342              	.LBB140:
 343              	.LBB141:
 344              	.LBB142:
 345              		.loc 2 546 0
 346 0036 0023     		movs	r3, #0
 347              	@ 546 "../../../os/ext/CMSIS/include/core_cmFunc.h" 1
 348 0038 83F31188 		MSR basepri, r3
 349              	@ 0 "" 2
 350              		.thumb
 351              	.LBE142:
 352              	.LBE141:
 353              	.LBE140:
 354              	.LBE139:
 355              	.LBE138:
 356              		.loc 1 171 0
 357 003c 2046     		mov	r0, r4
 358 003e 38BD     		pop	{r3, r4, r5, pc}
 359              	.LVL24:
 360              	.L31:
 361              		.align	2
 362              	.L30:
 363 0040 00000000 		.word	ch
 364 0044 00000000 		.word	.LANCHOR1
 365              		.cfi_endproc
 366              	.LFE230:
 367              		.size	chEvtGetAndClearEvents, .-chEvtGetAndClearEvents
 368 0048 AFF30080 		.section	.text.chEvtAddEvents,"ax",%progbits
 368      AFF30080 
 369              		.align	2
 370              		.p2align 4,,15
 371              		.global	chEvtAddEvents
 372              		.thumb
 373              		.thumb_func
 374              		.type	chEvtAddEvents, %function
 375              	chEvtAddEvents:
 376              	.LFB231:
 377              		.loc 1 182 0
 378              		.cfi_startproc
 379              		@ args = 0, pretend = 0, frame = 0
 380              		@ frame_needed = 0, uses_anonymous_args = 0
 381              	.LVL25:
 382 0000 38B5     		push	{r3, r4, r5, lr}
 383              		.cfi_def_cfa_offset 16
 384              		.cfi_offset 3, -16
 385              		.cfi_offset 4, -12
 386              		.cfi_offset 5, -8
 387              		.cfi_offset 14, -4
 388              		.loc 1 182 0
 389 0002 0446     		mov	r4, r0
 390              	.LBB153:
 391              	.LBB154:
 392              	.LBB155:
 393              	.LBB156:
 394              	.LBB157:
 395              		.loc 2 546 0
ARM GAS  C:\Users\jo\AppData\Local\Temp\ccOpvVJr.s 			page 8


 396 0004 2023     		movs	r3, #32
 397              	@ 546 "../../../os/ext/CMSIS/include/core_cmFunc.h" 1
 398 0006 83F31188 		MSR basepri, r3
 399              	@ 0 "" 2
 400              		.thumb
 401              	.LBE157:
 402              	.LBE156:
 403              	.LBE155:
 404              	.LBE154:
 405              	.LBE153:
 406              		.loc 1 185 0
 407 000a 0C4D     		ldr	r5, .L35
 408              	.LBB159:
 409              	.LBB158:
 410              		.loc 3 350 0
 411 000c FFF7FEFF 		bl	_dbg_check_lock
 412              	.LVL26:
 413              	.LBE158:
 414              	.LBE159:
 415              		.loc 1 185 0
 416 0010 AA69     		ldr	r2, [r5, #24]
 417 0012 936B     		ldr	r3, [r2, #56]
 418 0014 1C43     		orrs	r4, r4, r3
 419              	.LVL27:
 420 0016 9463     		str	r4, [r2, #56]
 421              	.LVL28:
 422              	.LBB160:
 423              	.LBB161:
 424              		.loc 3 360 0
 425 0018 FFF7FEFF 		bl	_dbg_check_unlock
 426              	.LVL29:
 427              		.loc 3 367 0
 428 001c 2B68     		ldr	r3, [r5]
 429 001e AB42     		cmp	r3, r5
 430 0020 07D0     		beq	.L33
 431 0022 AA69     		ldr	r2, [r5, #24]
 432 0024 9B68     		ldr	r3, [r3, #8]
 433 0026 9268     		ldr	r2, [r2, #8]
 434 0028 9A42     		cmp	r2, r3
 435 002a 02D2     		bcs	.L33
 436 002c 0448     		ldr	r0, .L35+4
 437 002e FFF7FEFF 		bl	chSysHalt
 438              	.LVL30:
 439              	.L33:
 440              	.LBB162:
 441              	.LBB163:
 442              	.LBB164:
 443              		.loc 2 546 0
 444 0032 0023     		movs	r3, #0
 445              	@ 546 "../../../os/ext/CMSIS/include/core_cmFunc.h" 1
 446 0034 83F31188 		MSR basepri, r3
 447              	@ 0 "" 2
 448              		.thumb
 449              	.LBE164:
 450              	.LBE163:
 451              	.LBE162:
 452              	.LBE161:
ARM GAS  C:\Users\jo\AppData\Local\Temp\ccOpvVJr.s 			page 9


 453              	.LBE160:
 454              		.loc 1 190 0
 455 0038 2046     		mov	r0, r4
 456 003a 38BD     		pop	{r3, r4, r5, pc}
 457              	.LVL31:
 458              	.L36:
 459              		.align	2
 460              	.L35:
 461 003c 00000000 		.word	ch
 462 0040 00000000 		.word	.LANCHOR1
 463              		.cfi_endproc
 464              	.LFE231:
 465              		.size	chEvtAddEvents, .-chEvtAddEvents
 466              		.section	.text.chEvtGetAndClearFlags,"ax",%progbits
 467              		.align	2
 468              		.p2align 4,,15
 469              		.global	chEvtGetAndClearFlags
 470              		.thumb
 471              		.thumb_func
 472              		.type	chEvtGetAndClearFlags, %function
 473              	chEvtGetAndClearFlags:
 474              	.LFB233:
 475              		.loc 1 241 0
 476              		.cfi_startproc
 477              		@ args = 0, pretend = 0, frame = 0
 478              		@ frame_needed = 0, uses_anonymous_args = 0
 479              	.LVL32:
 480 0000 38B5     		push	{r3, r4, r5, lr}
 481              		.cfi_def_cfa_offset 16
 482              		.cfi_offset 3, -16
 483              		.cfi_offset 4, -12
 484              		.cfi_offset 5, -8
 485              		.cfi_offset 14, -4
 486              		.loc 1 241 0
 487 0002 0446     		mov	r4, r0
 488              	.LBB175:
 489              	.LBB176:
 490              	.LBB177:
 491              	.LBB178:
 492              	.LBB179:
 493              		.loc 2 546 0
 494 0004 2023     		movs	r3, #32
 495              	@ 546 "../../../os/ext/CMSIS/include/core_cmFunc.h" 1
 496 0006 83F31188 		MSR basepri, r3
 497              	@ 0 "" 2
 498              		.thumb
 499              	.LBE179:
 500              	.LBE178:
 501              	.LBE177:
 502              		.loc 3 350 0
 503 000a FFF7FEFF 		bl	_dbg_check_lock
 504              	.LVL33:
 505              	.LBE176:
 506              	.LBE175:
 507              		.loc 1 246 0
 508 000e 0023     		movs	r3, #0
 509              		.loc 1 245 0
ARM GAS  C:\Users\jo\AppData\Local\Temp\ccOpvVJr.s 			page 10


 510 0010 E568     		ldr	r5, [r4, #12]
 511              	.LVL34:
 512              		.loc 1 246 0
 513 0012 E360     		str	r3, [r4, #12]
 514              	.LBB180:
 515              	.LBB181:
 516              		.loc 3 360 0
 517 0014 FFF7FEFF 		bl	_dbg_check_unlock
 518              	.LVL35:
 519              		.loc 3 367 0
 520 0018 084B     		ldr	r3, .L40
 521 001a 1A68     		ldr	r2, [r3]
 522 001c 9A42     		cmp	r2, r3
 523 001e 07D0     		beq	.L38
 524 0020 9969     		ldr	r1, [r3, #24]
 525 0022 9368     		ldr	r3, [r2, #8]
 526 0024 8A68     		ldr	r2, [r1, #8]
 527 0026 9A42     		cmp	r2, r3
 528 0028 02D2     		bcs	.L38
 529 002a 0548     		ldr	r0, .L40+4
 530 002c FFF7FEFF 		bl	chSysHalt
 531              	.LVL36:
 532              	.L38:
 533              	.LBB182:
 534              	.LBB183:
 535              	.LBB184:
 536              		.loc 2 546 0
 537 0030 0023     		movs	r3, #0
 538              	@ 546 "../../../os/ext/CMSIS/include/core_cmFunc.h" 1
 539 0032 83F31188 		MSR basepri, r3
 540              	@ 0 "" 2
 541              		.thumb
 542              	.LBE184:
 543              	.LBE183:
 544              	.LBE182:
 545              	.LBE181:
 546              	.LBE180:
 547              		.loc 1 250 0
 548 0036 2846     		mov	r0, r5
 549 0038 38BD     		pop	{r3, r4, r5, pc}
 550              	.LVL37:
 551              	.L41:
 552 003a 00BF     		.align	2
 553              	.L40:
 554 003c 00000000 		.word	ch
 555 0040 00000000 		.word	.LANCHOR1
 556              		.cfi_endproc
 557              	.LFE233:
 558              		.size	chEvtGetAndClearFlags, .-chEvtGetAndClearFlags
 559 0044 AFF30080 		.section	.text.chEvtSignalI,"ax",%progbits
 559      AFF30080 
 559      AFF30080 
 560              		.align	2
 561              		.p2align 4,,15
 562              		.global	chEvtSignalI
 563              		.thumb
 564              		.thumb_func
ARM GAS  C:\Users\jo\AppData\Local\Temp\ccOpvVJr.s 			page 11


 565              		.type	chEvtSignalI, %function
 566              	chEvtSignalI:
 567              	.LFB235:
 568              		.loc 1 282 0
 569              		.cfi_startproc
 570              		@ args = 0, pretend = 0, frame = 0
 571              		@ frame_needed = 0, uses_anonymous_args = 0
 572              	.LVL38:
 573 0000 38B5     		push	{r3, r4, r5, lr}
 574              		.cfi_def_cfa_offset 16
 575              		.cfi_offset 3, -16
 576              		.cfi_offset 4, -12
 577              		.cfi_offset 5, -8
 578              		.cfi_offset 14, -4
 579              		.loc 1 282 0
 580 0002 0446     		mov	r4, r0
 581 0004 0D46     		mov	r5, r1
 582              		.loc 1 284 0
 583 0006 FFF7FEFF 		bl	chDbgCheckClassI
 584              	.LVL39:
 585              		.loc 1 285 0
 586 000a CCB1     		cbz	r4, .L48
 587              	.L43:
 588              		.loc 1 287 0
 589 000c A36B     		ldr	r3, [r4, #56]
 590              		.loc 1 289 0
 591 000e 94F82020 		ldrb	r2, [r4, #32]	@ zero_extendqisi2
 592              		.loc 1 287 0
 593 0012 45EA0301 		orr	r1, r5, r3
 594              		.loc 1 289 0
 595 0016 0A2A     		cmp	r2, #10
 596              		.loc 1 287 0
 597 0018 A163     		str	r1, [r4, #56]
 598              		.loc 1 289 0
 599 001a 0DD0     		beq	.L49
 600              		.loc 1 290 0
 601 001c 0B2A     		cmp	r2, #11
 602 001e 00D0     		beq	.L50
 603              	.L42:
 604 0020 38BD     		pop	{r3, r4, r5, pc}
 605              	.LVL40:
 606              	.L50:
 607              		.loc 1 292 0
 608 0022 636A     		ldr	r3, [r4, #36]
 609 0024 1940     		ands	r1, r1, r3
 610              		.loc 1 291 0
 611 0026 8B42     		cmp	r3, r1
 612 0028 FAD1     		bne	.L42
 613              	.L45:
 614              		.loc 1 293 0
 615 002a 0023     		movs	r3, #0
 616 002c 6362     		str	r3, [r4, #36]
 617              		.loc 1 294 0
 618 002e 2046     		mov	r0, r4
 619              		.loc 1 296 0
 620 0030 BDE83840 		pop	{r3, r4, r5, lr}
 621              		.cfi_remember_state
ARM GAS  C:\Users\jo\AppData\Local\Temp\ccOpvVJr.s 			page 12


 622              		.cfi_restore 14
 623              		.cfi_restore 5
 624              		.cfi_restore 4
 625              		.cfi_restore 3
 626              		.cfi_def_cfa_offset 0
 627              	.LVL41:
 628              		.loc 1 294 0
 629 0034 FFF7FEBF 		b	chSchReadyI
 630              	.LVL42:
 631              	.L49:
 632              		.cfi_restore_state
 633              		.loc 1 290 0 discriminator 1
 634 0038 636A     		ldr	r3, [r4, #36]
 635              		.loc 1 289 0 discriminator 1
 636 003a 1942     		tst	r1, r3
 637 003c F5D1     		bne	.L45
 638 003e 38BD     		pop	{r3, r4, r5, pc}
 639              	.LVL43:
 640              	.L48:
 641              		.loc 1 285 0 discriminator 2
 642 0040 0148     		ldr	r0, .L51
 643 0042 FFF7FEFF 		bl	chSysHalt
 644              	.LVL44:
 645 0046 E1E7     		b	.L43
 646              	.L52:
 647              		.align	2
 648              	.L51:
 649 0048 00000000 		.word	.LANCHOR3
 650              		.cfi_endproc
 651              	.LFE235:
 652              		.size	chEvtSignalI, .-chEvtSignalI
 653 004c AFF30080 		.section	.text.chEvtBroadcastFlagsI,"ax",%progbits
 654              		.align	2
 655              		.p2align 4,,15
 656              		.global	chEvtBroadcastFlagsI
 657              		.thumb
 658              		.thumb_func
 659              		.type	chEvtBroadcastFlagsI, %function
 660              	chEvtBroadcastFlagsI:
 661              	.LFB232:
 662              		.loc 1 209 0
 663              		.cfi_startproc
 664              		@ args = 0, pretend = 0, frame = 0
 665              		@ frame_needed = 0, uses_anonymous_args = 0
 666              	.LVL45:
 667 0000 70B5     		push	{r4, r5, r6, lr}
 668              		.cfi_def_cfa_offset 16
 669              		.cfi_offset 4, -16
 670              		.cfi_offset 5, -12
 671              		.cfi_offset 6, -8
 672              		.cfi_offset 14, -4
 673              		.loc 1 209 0
 674 0002 0646     		mov	r6, r0
 675 0004 0D46     		mov	r5, r1
 676              		.loc 1 212 0
 677 0006 FFF7FEFF 		bl	chDbgCheckClassI
 678              	.LVL46:
ARM GAS  C:\Users\jo\AppData\Local\Temp\ccOpvVJr.s 			page 13


 679              		.loc 1 213 0
 680 000a 8EB1     		cbz	r6, .L68
 681              	.L54:
 682              		.loc 1 215 0
 683 000c 3468     		ldr	r4, [r6]
 684              	.LVL47:
 685              		.loc 1 217 0
 686 000e A642     		cmp	r6, r4
 687 0010 0DD0     		beq	.L53
 688              	.L58:
 689              		.loc 1 219 0
 690 0012 E368     		ldr	r3, [r4, #12]
 691 0014 2B43     		orrs	r3, r3, r5
 692 0016 E360     		str	r3, [r4, #12]
 693              		.loc 1 222 0
 694 0018 15B1     		cbz	r5, .L56
 695              		.loc 1 223 0 discriminator 1
 696 001a 2269     		ldr	r2, [r4, #16]
 697              		.loc 1 222 0 discriminator 1
 698 001c 1342     		tst	r3, r2
 699 001e 03D0     		beq	.L57
 700              	.L56:
 701              		.loc 1 224 0
 702 0020 6068     		ldr	r0, [r4, #4]
 703 0022 A168     		ldr	r1, [r4, #8]
 704 0024 FFF7FEFF 		bl	chEvtSignalI
 705              	.LVL48:
 706              	.L57:
 707              		.loc 1 226 0
 708 0028 2468     		ldr	r4, [r4]
 709              	.LVL49:
 710              		.loc 1 217 0
 711 002a A642     		cmp	r6, r4
 712 002c F1D1     		bne	.L58
 713              	.L53:
 714 002e 70BD     		pop	{r4, r5, r6, pc}
 715              	.LVL50:
 716              	.L68:
 717              		.loc 1 213 0 discriminator 2
 718 0030 0148     		ldr	r0, .L69
 719 0032 FFF7FEFF 		bl	chSysHalt
 720              	.LVL51:
 721 0036 E9E7     		b	.L54
 722              	.L70:
 723              		.align	2
 724              	.L69:
 725 0038 00000000 		.word	.LANCHOR4
 726              		.cfi_endproc
 727              	.LFE232:
 728              		.size	chEvtBroadcastFlagsI, .-chEvtBroadcastFlagsI
 729 003c AFF30080 		.section	.text.chEvtSignal,"ax",%progbits
 730              		.align	2
 731              		.p2align 4,,15
 732              		.global	chEvtSignal
 733              		.thumb
 734              		.thumb_func
 735              		.type	chEvtSignal, %function
ARM GAS  C:\Users\jo\AppData\Local\Temp\ccOpvVJr.s 			page 14


 736              	chEvtSignal:
 737              	.LFB234:
 738              		.loc 1 260 0
 739              		.cfi_startproc
 740              		@ args = 0, pretend = 0, frame = 0
 741              		@ frame_needed = 0, uses_anonymous_args = 0
 742              	.LVL52:
 743 0000 38B5     		push	{r3, r4, r5, lr}
 744              		.cfi_def_cfa_offset 16
 745              		.cfi_offset 3, -16
 746              		.cfi_offset 4, -12
 747              		.cfi_offset 5, -8
 748              		.cfi_offset 14, -4
 749              		.loc 1 260 0
 750 0002 0D46     		mov	r5, r1
 751              		.loc 1 262 0
 752 0004 0446     		mov	r4, r0
 753 0006 E0B1     		cbz	r0, .L75
 754              	.LVL53:
 755              	.L72:
 756              	.LBB195:
 757              	.LBB196:
 758              	.LBB197:
 759              	.LBB198:
 760              	.LBB199:
 761              		.loc 2 546 0
 762 0008 2023     		movs	r3, #32
 763              	@ 546 "../../../os/ext/CMSIS/include/core_cmFunc.h" 1
 764 000a 83F31188 		MSR basepri, r3
 765              	@ 0 "" 2
 766              		.thumb
 767              	.LBE199:
 768              	.LBE198:
 769              	.LBE197:
 770              		.loc 3 350 0
 771 000e FFF7FEFF 		bl	_dbg_check_lock
 772              	.LVL54:
 773              	.LBE196:
 774              	.LBE195:
 775              		.loc 1 265 0
 776 0012 2046     		mov	r0, r4
 777 0014 2946     		mov	r1, r5
 778 0016 FFF7FEFF 		bl	chEvtSignalI
 779              	.LVL55:
 780              		.loc 1 266 0
 781 001a FFF7FEFF 		bl	chSchRescheduleS
 782              	.LVL56:
 783              	.LBB200:
 784              	.LBB201:
 785              		.loc 3 360 0
 786 001e FFF7FEFF 		bl	_dbg_check_unlock
 787              	.LVL57:
 788              		.loc 3 367 0
 789 0022 0A4B     		ldr	r3, .L76
 790 0024 1A68     		ldr	r2, [r3]
 791 0026 9A42     		cmp	r2, r3
 792 0028 07D0     		beq	.L73
ARM GAS  C:\Users\jo\AppData\Local\Temp\ccOpvVJr.s 			page 15


 793 002a 9969     		ldr	r1, [r3, #24]
 794 002c 9368     		ldr	r3, [r2, #8]
 795 002e 8A68     		ldr	r2, [r1, #8]
 796 0030 9A42     		cmp	r2, r3
 797 0032 02D2     		bcs	.L73
 798 0034 0648     		ldr	r0, .L76+4
 799 0036 FFF7FEFF 		bl	chSysHalt
 800              	.LVL58:
 801              	.L73:
 802              	.LBB202:
 803              	.LBB203:
 804              	.LBB204:
 805              		.loc 2 546 0
 806 003a 0023     		movs	r3, #0
 807              	@ 546 "../../../os/ext/CMSIS/include/core_cmFunc.h" 1
 808 003c 83F31188 		MSR basepri, r3
 809              	@ 0 "" 2
 810              		.thumb
 811 0040 38BD     		pop	{r3, r4, r5, pc}
 812              	.LVL59:
 813              	.L75:
 814              	.LBE204:
 815              	.LBE203:
 816              	.LBE202:
 817              	.LBE201:
 818              	.LBE200:
 819              		.loc 1 262 0 discriminator 2
 820 0042 0448     		ldr	r0, .L76+8
 821              	.LVL60:
 822 0044 FFF7FEFF 		bl	chSysHalt
 823              	.LVL61:
 824 0048 DEE7     		b	.L72
 825              	.L77:
 826 004a 00BF     		.align	2
 827              	.L76:
 828 004c 00000000 		.word	ch
 829 0050 00000000 		.word	.LANCHOR1
 830 0054 00000000 		.word	.LANCHOR5
 831              		.cfi_endproc
 832              	.LFE234:
 833              		.size	chEvtSignal, .-chEvtSignal
 834 0058 AFF30080 		.section	.text.chEvtBroadcastFlags,"ax",%progbits
 834      AFF30080 
 835              		.align	2
 836              		.p2align 4,,15
 837              		.global	chEvtBroadcastFlags
 838              		.thumb
 839              		.thumb_func
 840              		.type	chEvtBroadcastFlags, %function
 841              	chEvtBroadcastFlags:
 842              	.LFB236:
 843              		.loc 1 311 0
 844              		.cfi_startproc
 845              		@ args = 0, pretend = 0, frame = 0
 846              		@ frame_needed = 0, uses_anonymous_args = 0
 847              	.LVL62:
 848 0000 38B5     		push	{r3, r4, r5, lr}
ARM GAS  C:\Users\jo\AppData\Local\Temp\ccOpvVJr.s 			page 16


 849              		.cfi_def_cfa_offset 16
 850              		.cfi_offset 3, -16
 851              		.cfi_offset 4, -12
 852              		.cfi_offset 5, -8
 853              		.cfi_offset 14, -4
 854              		.loc 1 311 0
 855 0002 0546     		mov	r5, r0
 856 0004 0C46     		mov	r4, r1
 857              	.LBB215:
 858              	.LBB216:
 859              	.LBB217:
 860              	.LBB218:
 861              	.LBB219:
 862              		.loc 2 546 0
 863 0006 2023     		movs	r3, #32
 864              	@ 546 "../../../os/ext/CMSIS/include/core_cmFunc.h" 1
 865 0008 83F31188 		MSR basepri, r3
 866              	@ 0 "" 2
 867              		.thumb
 868              	.LBE219:
 869              	.LBE218:
 870              	.LBE217:
 871              		.loc 3 350 0
 872 000c FFF7FEFF 		bl	_dbg_check_lock
 873              	.LVL63:
 874              	.LBE216:
 875              	.LBE215:
 876              		.loc 1 314 0
 877 0010 2846     		mov	r0, r5
 878 0012 2146     		mov	r1, r4
 879 0014 FFF7FEFF 		bl	chEvtBroadcastFlagsI
 880              	.LVL64:
 881              		.loc 1 315 0
 882 0018 FFF7FEFF 		bl	chSchRescheduleS
 883              	.LVL65:
 884              	.LBB220:
 885              	.LBB221:
 886              		.loc 3 360 0
 887 001c FFF7FEFF 		bl	_dbg_check_unlock
 888              	.LVL66:
 889              		.loc 3 367 0
 890 0020 074B     		ldr	r3, .L81
 891 0022 1A68     		ldr	r2, [r3]
 892 0024 9A42     		cmp	r2, r3
 893 0026 07D0     		beq	.L79
 894 0028 9969     		ldr	r1, [r3, #24]
 895 002a 9368     		ldr	r3, [r2, #8]
 896 002c 8A68     		ldr	r2, [r1, #8]
 897 002e 9A42     		cmp	r2, r3
 898 0030 02D2     		bcs	.L79
 899 0032 0448     		ldr	r0, .L81+4
 900 0034 FFF7FEFF 		bl	chSysHalt
 901              	.LVL67:
 902              	.L79:
 903              	.LBB222:
 904              	.LBB223:
 905              	.LBB224:
ARM GAS  C:\Users\jo\AppData\Local\Temp\ccOpvVJr.s 			page 17


 906              		.loc 2 546 0
 907 0038 0023     		movs	r3, #0
 908              	@ 546 "../../../os/ext/CMSIS/include/core_cmFunc.h" 1
 909 003a 83F31188 		MSR basepri, r3
 910              	@ 0 "" 2
 911              		.thumb
 912 003e 38BD     		pop	{r3, r4, r5, pc}
 913              	.LVL68:
 914              	.L82:
 915              		.align	2
 916              	.L81:
 917 0040 00000000 		.word	ch
 918 0044 00000000 		.word	.LANCHOR1
 919              	.LBE224:
 920              	.LBE223:
 921              	.LBE222:
 922              	.LBE221:
 923              	.LBE220:
 924              		.cfi_endproc
 925              	.LFE236:
 926              		.size	chEvtBroadcastFlags, .-chEvtBroadcastFlags
 927 0048 AFF30080 		.section	.text.chEvtGetAndClearFlagsI,"ax",%progbits
 927      AFF30080 
 928              		.align	2
 929              		.p2align 4,,15
 930              		.global	chEvtGetAndClearFlagsI
 931              		.thumb
 932              		.thumb_func
 933              		.type	chEvtGetAndClearFlagsI, %function
 934              	chEvtGetAndClearFlagsI:
 935              	.LFB237:
 936              		.loc 1 330 0
 937              		.cfi_startproc
 938              		@ args = 0, pretend = 0, frame = 0
 939              		@ frame_needed = 0, uses_anonymous_args = 0
 940              		@ link register save eliminated.
 941              	.LVL69:
 942              		.loc 1 330 0
 943 0000 0346     		mov	r3, r0
 944              		.loc 1 334 0
 945 0002 0022     		movs	r2, #0
 946              		.loc 1 333 0
 947 0004 C068     		ldr	r0, [r0, #12]
 948              	.LVL70:
 949              		.loc 1 334 0
 950 0006 DA60     		str	r2, [r3, #12]
 951              		.loc 1 337 0
 952 0008 7047     		bx	lr
 953              		.cfi_endproc
 954              	.LFE237:
 955              		.size	chEvtGetAndClearFlagsI, .-chEvtGetAndClearFlagsI
 956 000a 00BFAFF3 		.section	.text.chEvtDispatch,"ax",%progbits
 956      0080
 957              		.align	2
 958              		.p2align 4,,15
 959              		.global	chEvtDispatch
 960              		.thumb
ARM GAS  C:\Users\jo\AppData\Local\Temp\ccOpvVJr.s 			page 18


 961              		.thumb_func
 962              		.type	chEvtDispatch, %function
 963              	chEvtDispatch:
 964              	.LFB238:
 965              		.loc 1 348 0
 966              		.cfi_startproc
 967              		@ args = 0, pretend = 0, frame = 0
 968              		@ frame_needed = 0, uses_anonymous_args = 0
 969              	.LVL71:
 970 0000 F8B5     		push	{r3, r4, r5, r6, r7, lr}
 971              		.cfi_def_cfa_offset 24
 972              		.cfi_offset 3, -24
 973              		.cfi_offset 4, -20
 974              		.cfi_offset 5, -16
 975              		.cfi_offset 6, -12
 976              		.cfi_offset 7, -8
 977              		.cfi_offset 14, -4
 978              		.loc 1 348 0
 979 0002 0E46     		mov	r6, r1
 980              		.loc 1 351 0
 981 0004 0546     		mov	r5, r0
 982 0006 E0B1     		cbz	r0, .L94
 983              	.LVL72:
 984              	.L85:
 985              		.loc 1 354 0
 986 0008 AEB1     		cbz	r6, .L84
 987 000a 0024     		movs	r4, #0
 988              		.loc 1 357 0
 989 000c 0127     		movs	r7, #1
 990              	.LVL73:
 991              	.L87:
 992              		.loc 1 355 0
 993 000e 26FA04F3 		lsr	r3, r6, r4
 994 0012 DB07     		lsls	r3, r3, #31
 995 0014 0CD5     		bpl	.L88
 996              		.loc 1 356 0 discriminator 1
 997 0016 2B68     		ldr	r3, [r5]
 998 0018 73B1     		cbz	r3, .L95
 999              	.L89:
 1000              		.loc 1 357 0
 1001 001a 07FA04F2 		lsl	r2, r7, r4
 1002              		.loc 1 358 0
 1003 001e 2046     		mov	r0, r4
 1004              		.loc 1 357 0
 1005 0020 26EA0206 		bic	r6, r6, r2
 1006              	.LVL74:
 1007 0024 0435     		adds	r5, r5, #4
 1008              		.loc 1 358 0
 1009 0026 9847     		blx	r3
 1010              	.LVL75:
 1011              		.loc 1 360 0
 1012 0028 0134     		adds	r4, r4, #1
 1013              	.LVL76:
 1014              		.loc 1 354 0
 1015 002a 002E     		cmp	r6, #0
 1016 002c EFD1     		bne	.L87
 1017 002e F8BD     		pop	{r3, r4, r5, r6, r7, pc}
ARM GAS  C:\Users\jo\AppData\Local\Temp\ccOpvVJr.s 			page 19


 1018              	.LVL77:
 1019              	.L88:
 1020              		.loc 1 360 0
 1021 0030 0134     		adds	r4, r4, #1
 1022              	.LVL78:
 1023 0032 0435     		adds	r5, r5, #4
 1024 0034 EBE7     		b	.L87
 1025              	.LVL79:
 1026              	.L84:
 1027 0036 F8BD     		pop	{r3, r4, r5, r6, r7, pc}
 1028              	.LVL80:
 1029              	.L95:
 1030              		.loc 1 356 0 discriminator 2
 1031 0038 0448     		ldr	r0, .L96
 1032 003a FFF7FEFF 		bl	chSysHalt
 1033              	.LVL81:
 1034 003e 2B68     		ldr	r3, [r5]
 1035 0040 EBE7     		b	.L89
 1036              	.LVL82:
 1037              	.L94:
 1038              		.loc 1 351 0 discriminator 2
 1039 0042 0248     		ldr	r0, .L96
 1040              	.LVL83:
 1041 0044 FFF7FEFF 		bl	chSysHalt
 1042              	.LVL84:
 1043 0048 DEE7     		b	.L85
 1044              	.L97:
 1045 004a 00BF     		.align	2
 1046              	.L96:
 1047 004c 00000000 		.word	.LANCHOR6
 1048              		.cfi_endproc
 1049              	.LFE238:
 1050              		.size	chEvtDispatch, .-chEvtDispatch
 1051              		.section	.text.chEvtWaitOne,"ax",%progbits
 1052              		.align	2
 1053              		.p2align 4,,15
 1054              		.global	chEvtWaitOne
 1055              		.thumb
 1056              		.thumb_func
 1057              		.type	chEvtWaitOne, %function
 1058              	chEvtWaitOne:
 1059              	.LFB239:
 1060              		.loc 1 383 0
 1061              		.cfi_startproc
 1062              		@ args = 0, pretend = 0, frame = 0
 1063              		@ frame_needed = 0, uses_anonymous_args = 0
 1064              	.LVL85:
 1065 0000 70B5     		push	{r4, r5, r6, lr}
 1066              		.cfi_def_cfa_offset 16
 1067              		.cfi_offset 4, -16
 1068              		.cfi_offset 5, -12
 1069              		.cfi_offset 6, -8
 1070              		.cfi_offset 14, -4
 1071              		.loc 1 384 0
 1072 0002 154D     		ldr	r5, .L102
 1073              		.loc 1 383 0
 1074 0004 0446     		mov	r4, r0
ARM GAS  C:\Users\jo\AppData\Local\Temp\ccOpvVJr.s 			page 20


 1075              		.loc 1 384 0
 1076 0006 AE69     		ldr	r6, [r5, #24]
 1077              	.LVL86:
 1078              	.LBB235:
 1079              	.LBB236:
 1080              	.LBB237:
 1081              	.LBB238:
 1082              	.LBB239:
 1083              		.loc 2 546 0
 1084 0008 2023     		movs	r3, #32
 1085              	@ 546 "../../../os/ext/CMSIS/include/core_cmFunc.h" 1
 1086 000a 83F31188 		MSR basepri, r3
 1087              	@ 0 "" 2
 1088              		.thumb
 1089              	.LBE239:
 1090              	.LBE238:
 1091              	.LBE237:
 1092              		.loc 3 350 0
 1093 000e FFF7FEFF 		bl	_dbg_check_lock
 1094              	.LVL87:
 1095              	.LBE236:
 1096              	.LBE235:
 1097              		.loc 1 388 0
 1098 0012 B36B     		ldr	r3, [r6, #56]
 1099              	.LVL88:
 1100              		.loc 1 389 0
 1101 0014 14EA0302 		ands	r2, r4, r3
 1102              	.LVL89:
 1103 0018 06D1     		bne	.L99
 1104              		.loc 1 390 0
 1105 001a 7462     		str	r4, [r6, #36]
 1106              		.loc 1 391 0
 1107 001c 0A20     		movs	r0, #10
 1108 001e FFF7FEFF 		bl	chSchGoSleepS
 1109              	.LVL90:
 1110              		.loc 1 392 0
 1111 0022 B36B     		ldr	r3, [r6, #56]
 1112 0024 04EA0302 		and	r2, r4, r3
 1113              	.LVL91:
 1114              	.L99:
 1115              		.loc 1 394 0
 1116 0028 5442     		negs	r4, r2
 1117              	.LVL92:
 1118 002a 1440     		ands	r4, r4, r2
 1119              	.LVL93:
 1120              		.loc 1 395 0
 1121 002c 23EA0403 		bic	r3, r3, r4
 1122 0030 B363     		str	r3, [r6, #56]
 1123              	.LBB240:
 1124              	.LBB241:
 1125              		.loc 3 360 0
 1126 0032 FFF7FEFF 		bl	_dbg_check_unlock
 1127              	.LVL94:
 1128              		.loc 3 367 0
 1129 0036 2B68     		ldr	r3, [r5]
 1130 0038 074A     		ldr	r2, .L102
 1131 003a AB42     		cmp	r3, r5
ARM GAS  C:\Users\jo\AppData\Local\Temp\ccOpvVJr.s 			page 21


 1132 003c 07D0     		beq	.L100
 1133 003e 9269     		ldr	r2, [r2, #24]
 1134 0040 9B68     		ldr	r3, [r3, #8]
 1135 0042 9268     		ldr	r2, [r2, #8]
 1136 0044 9A42     		cmp	r2, r3
 1137 0046 02D2     		bcs	.L100
 1138 0048 0448     		ldr	r0, .L102+4
 1139 004a FFF7FEFF 		bl	chSysHalt
 1140              	.LVL95:
 1141              	.L100:
 1142              	.LBB242:
 1143              	.LBB243:
 1144              	.LBB244:
 1145              		.loc 2 546 0
 1146 004e 0023     		movs	r3, #0
 1147              	@ 546 "../../../os/ext/CMSIS/include/core_cmFunc.h" 1
 1148 0050 83F31188 		MSR basepri, r3
 1149              	@ 0 "" 2
 1150              		.thumb
 1151              	.LBE244:
 1152              	.LBE243:
 1153              	.LBE242:
 1154              	.LBE241:
 1155              	.LBE240:
 1156              		.loc 1 399 0
 1157 0054 2046     		mov	r0, r4
 1158 0056 70BD     		pop	{r4, r5, r6, pc}
 1159              	.LVL96:
 1160              	.L103:
 1161              		.align	2
 1162              	.L102:
 1163 0058 00000000 		.word	ch
 1164 005c 00000000 		.word	.LANCHOR1
 1165              		.cfi_endproc
 1166              	.LFE239:
 1167              		.size	chEvtWaitOne, .-chEvtWaitOne
 1168              		.section	.text.chEvtWaitAny,"ax",%progbits
 1169              		.align	2
 1170              		.p2align 4,,15
 1171              		.global	chEvtWaitAny
 1172              		.thumb
 1173              		.thumb_func
 1174              		.type	chEvtWaitAny, %function
 1175              	chEvtWaitAny:
 1176              	.LFB240:
 1177              		.loc 1 413 0
 1178              		.cfi_startproc
 1179              		@ args = 0, pretend = 0, frame = 0
 1180              		@ frame_needed = 0, uses_anonymous_args = 0
 1181              	.LVL97:
 1182 0000 F8B5     		push	{r3, r4, r5, r6, r7, lr}
 1183              		.cfi_def_cfa_offset 24
 1184              		.cfi_offset 3, -24
 1185              		.cfi_offset 4, -20
 1186              		.cfi_offset 5, -16
 1187              		.cfi_offset 6, -12
 1188              		.cfi_offset 7, -8
ARM GAS  C:\Users\jo\AppData\Local\Temp\ccOpvVJr.s 			page 22


 1189              		.cfi_offset 14, -4
 1190              		.loc 1 414 0
 1191 0002 144C     		ldr	r4, .L108
 1192              		.loc 1 413 0
 1193 0004 0646     		mov	r6, r0
 1194              		.loc 1 414 0
 1195 0006 A569     		ldr	r5, [r4, #24]
 1196              	.LVL98:
 1197              	.LBB255:
 1198              	.LBB256:
 1199              	.LBB257:
 1200              	.LBB258:
 1201              	.LBB259:
 1202              		.loc 2 546 0
 1203 0008 2023     		movs	r3, #32
 1204              	@ 546 "../../../os/ext/CMSIS/include/core_cmFunc.h" 1
 1205 000a 83F31188 		MSR basepri, r3
 1206              	@ 0 "" 2
 1207              		.thumb
 1208              	.LBE259:
 1209              	.LBE258:
 1210              	.LBE257:
 1211              		.loc 3 350 0
 1212 000e FFF7FEFF 		bl	_dbg_check_lock
 1213              	.LVL99:
 1214              	.LBE256:
 1215              	.LBE255:
 1216              		.loc 1 418 0
 1217 0012 AB6B     		ldr	r3, [r5, #56]
 1218              	.LVL100:
 1219              		.loc 1 419 0
 1220 0014 16EA0307 		ands	r7, r6, r3
 1221              	.LVL101:
 1222 0018 06D1     		bne	.L105
 1223              		.loc 1 420 0
 1224 001a 6E62     		str	r6, [r5, #36]
 1225              		.loc 1 421 0
 1226 001c 0A20     		movs	r0, #10
 1227 001e FFF7FEFF 		bl	chSchGoSleepS
 1228              	.LVL102:
 1229              		.loc 1 422 0
 1230 0022 AB6B     		ldr	r3, [r5, #56]
 1231 0024 06EA0307 		and	r7, r6, r3
 1232              	.LVL103:
 1233              	.L105:
 1234              		.loc 1 424 0
 1235 0028 23EA0703 		bic	r3, r3, r7
 1236 002c AB63     		str	r3, [r5, #56]
 1237              	.LBB260:
 1238              	.LBB261:
 1239              		.loc 3 360 0
 1240 002e FFF7FEFF 		bl	_dbg_check_unlock
 1241              	.LVL104:
 1242              		.loc 3 367 0
 1243 0032 2368     		ldr	r3, [r4]
 1244 0034 074A     		ldr	r2, .L108
 1245 0036 A342     		cmp	r3, r4
ARM GAS  C:\Users\jo\AppData\Local\Temp\ccOpvVJr.s 			page 23


 1246 0038 07D0     		beq	.L106
 1247 003a 9269     		ldr	r2, [r2, #24]
 1248 003c 9B68     		ldr	r3, [r3, #8]
 1249 003e 9268     		ldr	r2, [r2, #8]
 1250 0040 9A42     		cmp	r2, r3
 1251 0042 02D2     		bcs	.L106
 1252 0044 0448     		ldr	r0, .L108+4
 1253 0046 FFF7FEFF 		bl	chSysHalt
 1254              	.LVL105:
 1255              	.L106:
 1256              	.LBB262:
 1257              	.LBB263:
 1258              	.LBB264:
 1259              		.loc 2 546 0
 1260 004a 0023     		movs	r3, #0
 1261              	@ 546 "../../../os/ext/CMSIS/include/core_cmFunc.h" 1
 1262 004c 83F31188 		MSR basepri, r3
 1263              	@ 0 "" 2
 1264              		.thumb
 1265              	.LBE264:
 1266              	.LBE263:
 1267              	.LBE262:
 1268              	.LBE261:
 1269              	.LBE260:
 1270              		.loc 1 428 0
 1271 0050 3846     		mov	r0, r7
 1272 0052 F8BD     		pop	{r3, r4, r5, r6, r7, pc}
 1273              	.LVL106:
 1274              	.L109:
 1275              		.align	2
 1276              	.L108:
 1277 0054 00000000 		.word	ch
 1278 0058 00000000 		.word	.LANCHOR1
 1279              		.cfi_endproc
 1280              	.LFE240:
 1281              		.size	chEvtWaitAny, .-chEvtWaitAny
 1282 005c AFF30080 		.section	.text.chEvtWaitAll,"ax",%progbits
 1283              		.align	2
 1284              		.p2align 4,,15
 1285              		.global	chEvtWaitAll
 1286              		.thumb
 1287              		.thumb_func
 1288              		.type	chEvtWaitAll, %function
 1289              	chEvtWaitAll:
 1290              	.LFB241:
 1291              		.loc 1 441 0
 1292              		.cfi_startproc
 1293              		@ args = 0, pretend = 0, frame = 0
 1294              		@ frame_needed = 0, uses_anonymous_args = 0
 1295              	.LVL107:
 1296 0000 70B5     		push	{r4, r5, r6, lr}
 1297              		.cfi_def_cfa_offset 16
 1298              		.cfi_offset 4, -16
 1299              		.cfi_offset 5, -12
 1300              		.cfi_offset 6, -8
 1301              		.cfi_offset 14, -4
 1302              		.loc 1 442 0
ARM GAS  C:\Users\jo\AppData\Local\Temp\ccOpvVJr.s 			page 24


 1303 0002 144E     		ldr	r6, .L114
 1304              		.loc 1 441 0
 1305 0004 0446     		mov	r4, r0
 1306              		.loc 1 442 0
 1307 0006 B569     		ldr	r5, [r6, #24]
 1308              	.LVL108:
 1309              	.LBB275:
 1310              	.LBB276:
 1311              	.LBB277:
 1312              	.LBB278:
 1313              	.LBB279:
 1314              		.loc 2 546 0
 1315 0008 2023     		movs	r3, #32
 1316              	@ 546 "../../../os/ext/CMSIS/include/core_cmFunc.h" 1
 1317 000a 83F31188 		MSR basepri, r3
 1318              	@ 0 "" 2
 1319              		.thumb
 1320              	.LBE279:
 1321              	.LBE278:
 1322              	.LBE277:
 1323              		.loc 3 350 0
 1324 000e FFF7FEFF 		bl	_dbg_check_lock
 1325              	.LVL109:
 1326              	.LBE276:
 1327              	.LBE275:
 1328              		.loc 1 445 0
 1329 0012 AB6B     		ldr	r3, [r5, #56]
 1330 0014 04EA0302 		and	r2, r4, r3
 1331 0018 A242     		cmp	r2, r4
 1332 001a 04D0     		beq	.L111
 1333              		.loc 1 446 0
 1334 001c 6C62     		str	r4, [r5, #36]
 1335              		.loc 1 447 0
 1336 001e 0B20     		movs	r0, #11
 1337 0020 FFF7FEFF 		bl	chSchGoSleepS
 1338              	.LVL110:
 1339 0024 AB6B     		ldr	r3, [r5, #56]
 1340              	.L111:
 1341              		.loc 1 449 0
 1342 0026 23EA0403 		bic	r3, r3, r4
 1343 002a AB63     		str	r3, [r5, #56]
 1344              	.LBB280:
 1345              	.LBB281:
 1346              		.loc 3 360 0
 1347 002c FFF7FEFF 		bl	_dbg_check_unlock
 1348              	.LVL111:
 1349              		.loc 3 367 0
 1350 0030 3368     		ldr	r3, [r6]
 1351 0032 084A     		ldr	r2, .L114
 1352 0034 B342     		cmp	r3, r6
 1353 0036 07D0     		beq	.L112
 1354 0038 9269     		ldr	r2, [r2, #24]
 1355 003a 9B68     		ldr	r3, [r3, #8]
 1356 003c 9268     		ldr	r2, [r2, #8]
 1357 003e 9A42     		cmp	r2, r3
 1358 0040 02D2     		bcs	.L112
 1359 0042 0548     		ldr	r0, .L114+4
ARM GAS  C:\Users\jo\AppData\Local\Temp\ccOpvVJr.s 			page 25


 1360 0044 FFF7FEFF 		bl	chSysHalt
 1361              	.LVL112:
 1362              	.L112:
 1363              	.LBB282:
 1364              	.LBB283:
 1365              	.LBB284:
 1366              		.loc 2 546 0
 1367 0048 0023     		movs	r3, #0
 1368              	@ 546 "../../../os/ext/CMSIS/include/core_cmFunc.h" 1
 1369 004a 83F31188 		MSR basepri, r3
 1370              	@ 0 "" 2
 1371              		.thumb
 1372              	.LBE284:
 1373              	.LBE283:
 1374              	.LBE282:
 1375              	.LBE281:
 1376              	.LBE280:
 1377              		.loc 1 453 0
 1378 004e 2046     		mov	r0, r4
 1379 0050 70BD     		pop	{r4, r5, r6, pc}
 1380              	.LVL113:
 1381              	.L115:
 1382 0052 00BF     		.align	2
 1383              	.L114:
 1384 0054 00000000 		.word	ch
 1385 0058 00000000 		.word	.LANCHOR1
 1386              		.cfi_endproc
 1387              	.LFE241:
 1388              		.size	chEvtWaitAll, .-chEvtWaitAll
 1389 005c AFF30080 		.section	.text.chEvtWaitOneTimeout,"ax",%progbits
 1390              		.align	2
 1391              		.p2align 4,,15
 1392              		.global	chEvtWaitOneTimeout
 1393              		.thumb
 1394              		.thumb_func
 1395              		.type	chEvtWaitOneTimeout, %function
 1396              	chEvtWaitOneTimeout:
 1397              	.LFB242:
 1398              		.loc 1 479 0
 1399              		.cfi_startproc
 1400              		@ args = 0, pretend = 0, frame = 0
 1401              		@ frame_needed = 0, uses_anonymous_args = 0
 1402              	.LVL114:
 1403 0000 F8B5     		push	{r3, r4, r5, r6, r7, lr}
 1404              		.cfi_def_cfa_offset 24
 1405              		.cfi_offset 3, -24
 1406              		.cfi_offset 4, -20
 1407              		.cfi_offset 5, -16
 1408              		.cfi_offset 6, -12
 1409              		.cfi_offset 7, -8
 1410              		.cfi_offset 14, -4
 1411              		.loc 1 480 0
 1412 0002 254D     		ldr	r5, .L132
 1413              		.loc 1 479 0
 1414 0004 0446     		mov	r4, r0
 1415 0006 0F46     		mov	r7, r1
 1416              		.loc 1 480 0
ARM GAS  C:\Users\jo\AppData\Local\Temp\ccOpvVJr.s 			page 26


 1417 0008 AE69     		ldr	r6, [r5, #24]
 1418              	.LVL115:
 1419              	.LBB305:
 1420              	.LBB306:
 1421              	.LBB307:
 1422              	.LBB308:
 1423              	.LBB309:
 1424              		.loc 2 546 0
 1425 000a 2023     		movs	r3, #32
 1426              	@ 546 "../../../os/ext/CMSIS/include/core_cmFunc.h" 1
 1427 000c 83F31188 		MSR basepri, r3
 1428              	@ 0 "" 2
 1429              		.thumb
 1430              	.LBE309:
 1431              	.LBE308:
 1432              	.LBE307:
 1433              		.loc 3 350 0
 1434 0010 FFF7FEFF 		bl	_dbg_check_lock
 1435              	.LVL116:
 1436              	.LBE306:
 1437              	.LBE305:
 1438              		.loc 1 484 0
 1439 0014 B26B     		ldr	r2, [r6, #56]
 1440              	.LVL117:
 1441              		.loc 1 485 0
 1442 0016 14EA0203 		ands	r3, r4, r2
 1443              	.LVL118:
 1444 001a 0AD1     		bne	.L117
 1445              		.loc 1 486 0
 1446 001c F7B1     		cbz	r7, .L129
 1447              		.loc 1 490 0
 1448 001e 7462     		str	r4, [r6, #36]
 1449              		.loc 1 491 0
 1450 0020 3946     		mov	r1, r7
 1451 0022 0A20     		movs	r0, #10
 1452 0024 FFF7FEFF 		bl	chSchGoSleepTimeoutS
 1453              	.LVL119:
 1454 0028 0028     		cmp	r0, #0
 1455 002a 17DB     		blt	.L129
 1456              		.loc 1 495 0
 1457 002c B26B     		ldr	r2, [r6, #56]
 1458 002e 04EA0203 		and	r3, r4, r2
 1459              	.LVL120:
 1460              	.L117:
 1461              		.loc 1 497 0
 1462 0032 5C42     		negs	r4, r3
 1463              	.LVL121:
 1464 0034 1C40     		ands	r4, r4, r3
 1465              	.LVL122:
 1466              		.loc 1 498 0
 1467 0036 22EA0402 		bic	r2, r2, r4
 1468 003a B263     		str	r2, [r6, #56]
 1469              	.LBB310:
 1470              	.LBB311:
 1471              		.loc 3 360 0
 1472 003c FFF7FEFF 		bl	_dbg_check_unlock
 1473              	.LVL123:
ARM GAS  C:\Users\jo\AppData\Local\Temp\ccOpvVJr.s 			page 27


 1474              		.loc 3 367 0
 1475 0040 2B68     		ldr	r3, [r5]
 1476 0042 154A     		ldr	r2, .L132
 1477 0044 AB42     		cmp	r3, r5
 1478 0046 04D0     		beq	.L123
 1479 0048 9269     		ldr	r2, [r2, #24]
 1480 004a 9B68     		ldr	r3, [r3, #8]
 1481 004c 9268     		ldr	r2, [r2, #8]
 1482 004e 9A42     		cmp	r2, r3
 1483 0050 12D3     		bcc	.L130
 1484              	.L123:
 1485              	.LVL124:
 1486              	.LBB312:
 1487              	.LBB313:
 1488              	.LBB314:
 1489              		.loc 2 546 0
 1490 0052 0023     		movs	r3, #0
 1491              	@ 546 "../../../os/ext/CMSIS/include/core_cmFunc.h" 1
 1492 0054 83F31188 		MSR basepri, r3
 1493              	@ 0 "" 2
 1494              		.thumb
 1495              	.LBE314:
 1496              	.LBE313:
 1497              	.LBE312:
 1498              	.LBE311:
 1499              	.LBE310:
 1500              		.loc 1 501 0
 1501 0058 2046     		mov	r0, r4
 1502              		.loc 1 502 0
 1503 005a F8BD     		pop	{r3, r4, r5, r6, r7, pc}
 1504              	.LVL125:
 1505              	.L129:
 1506              	.LBB319:
 1507              	.LBB320:
 1508              		.loc 3 360 0
 1509 005c FFF7FEFF 		bl	_dbg_check_unlock
 1510              	.LVL126:
 1511              		.loc 3 367 0
 1512 0060 2B68     		ldr	r3, [r5]
 1513 0062 AB42     		cmp	r3, r5
 1514 0064 04D0     		beq	.L122
 1515 0066 AA69     		ldr	r2, [r5, #24]
 1516 0068 9B68     		ldr	r3, [r3, #8]
 1517 006a 9268     		ldr	r2, [r2, #8]
 1518 006c 9A42     		cmp	r2, r3
 1519 006e 0BD3     		bcc	.L131
 1520              	.L122:
 1521              	.LVL127:
 1522              	.LBB321:
 1523              	.LBB322:
 1524              	.LBB323:
 1525              		.loc 2 546 0
 1526 0070 0020     		movs	r0, #0
 1527              	@ 546 "../../../os/ext/CMSIS/include/core_cmFunc.h" 1
 1528 0072 80F31188 		MSR basepri, r0
 1529              	@ 0 "" 2
 1530              		.thumb
ARM GAS  C:\Users\jo\AppData\Local\Temp\ccOpvVJr.s 			page 28


 1531 0076 F8BD     		pop	{r3, r4, r5, r6, r7, pc}
 1532              	.LVL128:
 1533              	.L130:
 1534              	.LBE323:
 1535              	.LBE322:
 1536              	.LBE321:
 1537              	.LBE320:
 1538              	.LBE319:
 1539              	.LBB328:
 1540              	.LBB318:
 1541              		.loc 3 367 0
 1542 0078 0848     		ldr	r0, .L132+4
 1543 007a FFF7FEFF 		bl	chSysHalt
 1544              	.LVL129:
 1545              	.LBB317:
 1546              	.LBB316:
 1547              	.LBB315:
 1548              		.loc 2 546 0
 1549 007e 0023     		movs	r3, #0
 1550              	@ 546 "../../../os/ext/CMSIS/include/core_cmFunc.h" 1
 1551 0080 83F31188 		MSR basepri, r3
 1552              	@ 0 "" 2
 1553              		.thumb
 1554              	.LBE315:
 1555              	.LBE316:
 1556              	.LBE317:
 1557              	.LBE318:
 1558              	.LBE328:
 1559              		.loc 1 501 0
 1560 0084 2046     		mov	r0, r4
 1561              		.loc 1 502 0
 1562 0086 F8BD     		pop	{r3, r4, r5, r6, r7, pc}
 1563              	.LVL130:
 1564              	.L131:
 1565              	.LBB329:
 1566              	.LBB327:
 1567              		.loc 3 367 0
 1568 0088 0448     		ldr	r0, .L132+4
 1569 008a FFF7FEFF 		bl	chSysHalt
 1570              	.LVL131:
 1571              	.LBB326:
 1572              	.LBB325:
 1573              	.LBB324:
 1574              		.loc 2 546 0
 1575 008e 0020     		movs	r0, #0
 1576              	@ 546 "../../../os/ext/CMSIS/include/core_cmFunc.h" 1
 1577 0090 80F31188 		MSR basepri, r0
 1578              	@ 0 "" 2
 1579              		.thumb
 1580 0094 F8BD     		pop	{r3, r4, r5, r6, r7, pc}
 1581              	.LVL132:
 1582              	.L133:
 1583 0096 00BF     		.align	2
 1584              	.L132:
 1585 0098 00000000 		.word	ch
 1586 009c 00000000 		.word	.LANCHOR1
 1587              	.LBE324:
ARM GAS  C:\Users\jo\AppData\Local\Temp\ccOpvVJr.s 			page 29


 1588              	.LBE325:
 1589              	.LBE326:
 1590              	.LBE327:
 1591              	.LBE329:
 1592              		.cfi_endproc
 1593              	.LFE242:
 1594              		.size	chEvtWaitOneTimeout, .-chEvtWaitOneTimeout
 1595              		.section	.text.chEvtWaitAnyTimeout,"ax",%progbits
 1596              		.align	2
 1597              		.p2align 4,,15
 1598              		.global	chEvtWaitAnyTimeout
 1599              		.thumb
 1600              		.thumb_func
 1601              		.type	chEvtWaitAnyTimeout, %function
 1602              	chEvtWaitAnyTimeout:
 1603              	.LFB243:
 1604              		.loc 1 522 0
 1605              		.cfi_startproc
 1606              		@ args = 0, pretend = 0, frame = 0
 1607              		@ frame_needed = 0, uses_anonymous_args = 0
 1608              	.LVL133:
 1609 0000 2DE9F041 		push	{r4, r5, r6, r7, r8, lr}
 1610              		.cfi_def_cfa_offset 24
 1611              		.cfi_offset 4, -24
 1612              		.cfi_offset 5, -20
 1613              		.cfi_offset 6, -16
 1614              		.cfi_offset 7, -12
 1615              		.cfi_offset 8, -8
 1616              		.cfi_offset 14, -4
 1617              		.loc 1 523 0
 1618 0004 264D     		ldr	r5, .L150
 1619              		.loc 1 522 0
 1620 0006 0646     		mov	r6, r0
 1621 0008 8846     		mov	r8, r1
 1622              		.loc 1 523 0
 1623 000a AF69     		ldr	r7, [r5, #24]
 1624              	.LVL134:
 1625              	.LBB350:
 1626              	.LBB351:
 1627              	.LBB352:
 1628              	.LBB353:
 1629              	.LBB354:
 1630              		.loc 2 546 0
 1631 000c 2023     		movs	r3, #32
 1632              	@ 546 "../../../os/ext/CMSIS/include/core_cmFunc.h" 1
 1633 000e 83F31188 		MSR basepri, r3
 1634              	@ 0 "" 2
 1635              		.thumb
 1636              	.LBE354:
 1637              	.LBE353:
 1638              	.LBE352:
 1639              		.loc 3 350 0
 1640 0012 FFF7FEFF 		bl	_dbg_check_lock
 1641              	.LVL135:
 1642              	.LBE351:
 1643              	.LBE350:
 1644              		.loc 1 527 0
ARM GAS  C:\Users\jo\AppData\Local\Temp\ccOpvVJr.s 			page 30


 1645 0016 BB6B     		ldr	r3, [r7, #56]
 1646              	.LVL136:
 1647              		.loc 1 528 0
 1648 0018 16EA0304 		ands	r4, r6, r3
 1649              	.LVL137:
 1650 001c 0CD1     		bne	.L135
 1651              		.loc 1 529 0
 1652 001e B8F1000F 		cmp	r8, #0
 1653 0022 1DD0     		beq	.L147
 1654              		.loc 1 533 0
 1655 0024 7E62     		str	r6, [r7, #36]
 1656              		.loc 1 534 0
 1657 0026 4146     		mov	r1, r8
 1658 0028 0A20     		movs	r0, #10
 1659 002a FFF7FEFF 		bl	chSchGoSleepTimeoutS
 1660              	.LVL138:
 1661 002e 0028     		cmp	r0, #0
 1662 0030 16DB     		blt	.L147
 1663              		.loc 1 538 0
 1664 0032 BB6B     		ldr	r3, [r7, #56]
 1665 0034 06EA0304 		and	r4, r6, r3
 1666              	.LVL139:
 1667              	.L135:
 1668              		.loc 1 540 0
 1669 0038 23EA0403 		bic	r3, r3, r4
 1670 003c BB63     		str	r3, [r7, #56]
 1671              	.LBB355:
 1672              	.LBB356:
 1673              		.loc 3 360 0
 1674 003e FFF7FEFF 		bl	_dbg_check_unlock
 1675              	.LVL140:
 1676              		.loc 3 367 0
 1677 0042 2B68     		ldr	r3, [r5]
 1678 0044 164A     		ldr	r2, .L150
 1679 0046 AB42     		cmp	r3, r5
 1680 0048 04D0     		beq	.L141
 1681 004a 9269     		ldr	r2, [r2, #24]
 1682 004c 9B68     		ldr	r3, [r3, #8]
 1683 004e 9268     		ldr	r2, [r2, #8]
 1684 0050 9A42     		cmp	r2, r3
 1685 0052 14D3     		bcc	.L148
 1686              	.L141:
 1687              	.LVL141:
 1688              	.LBB357:
 1689              	.LBB358:
 1690              	.LBB359:
 1691              		.loc 2 546 0
 1692 0054 0023     		movs	r3, #0
 1693              	@ 546 "../../../os/ext/CMSIS/include/core_cmFunc.h" 1
 1694 0056 83F31188 		MSR basepri, r3
 1695              	@ 0 "" 2
 1696              		.thumb
 1697              	.LBE359:
 1698              	.LBE358:
 1699              	.LBE357:
 1700              	.LBE356:
 1701              	.LBE355:
ARM GAS  C:\Users\jo\AppData\Local\Temp\ccOpvVJr.s 			page 31


 1702              		.loc 1 543 0
 1703 005a 2046     		mov	r0, r4
 1704              		.loc 1 544 0
 1705 005c BDE8F081 		pop	{r4, r5, r6, r7, r8, pc}
 1706              	.LVL142:
 1707              	.L147:
 1708              	.LBB364:
 1709              	.LBB365:
 1710              		.loc 3 360 0
 1711 0060 FFF7FEFF 		bl	_dbg_check_unlock
 1712              	.LVL143:
 1713              		.loc 3 367 0
 1714 0064 2B68     		ldr	r3, [r5]
 1715 0066 AB42     		cmp	r3, r5
 1716 0068 04D0     		beq	.L140
 1717 006a AA69     		ldr	r2, [r5, #24]
 1718 006c 9B68     		ldr	r3, [r3, #8]
 1719 006e 9268     		ldr	r2, [r2, #8]
 1720 0070 9A42     		cmp	r2, r3
 1721 0072 0DD3     		bcc	.L149
 1722              	.L140:
 1723              	.LVL144:
 1724              	.LBB366:
 1725              	.LBB367:
 1726              	.LBB368:
 1727              		.loc 2 546 0
 1728 0074 0020     		movs	r0, #0
 1729              	@ 546 "../../../os/ext/CMSIS/include/core_cmFunc.h" 1
 1730 0076 80F31188 		MSR basepri, r0
 1731              	@ 0 "" 2
 1732              		.thumb
 1733 007a BDE8F081 		pop	{r4, r5, r6, r7, r8, pc}
 1734              	.LVL145:
 1735              	.L148:
 1736              	.LBE368:
 1737              	.LBE367:
 1738              	.LBE366:
 1739              	.LBE365:
 1740              	.LBE364:
 1741              	.LBB373:
 1742              	.LBB363:
 1743              		.loc 3 367 0
 1744 007e 0948     		ldr	r0, .L150+4
 1745 0080 FFF7FEFF 		bl	chSysHalt
 1746              	.LVL146:
 1747              	.LBB362:
 1748              	.LBB361:
 1749              	.LBB360:
 1750              		.loc 2 546 0
 1751 0084 0023     		movs	r3, #0
 1752              	@ 546 "../../../os/ext/CMSIS/include/core_cmFunc.h" 1
 1753 0086 83F31188 		MSR basepri, r3
 1754              	@ 0 "" 2
 1755              		.thumb
 1756              	.LBE360:
 1757              	.LBE361:
 1758              	.LBE362:
ARM GAS  C:\Users\jo\AppData\Local\Temp\ccOpvVJr.s 			page 32


 1759              	.LBE363:
 1760              	.LBE373:
 1761              		.loc 1 543 0
 1762 008a 2046     		mov	r0, r4
 1763              		.loc 1 544 0
 1764 008c BDE8F081 		pop	{r4, r5, r6, r7, r8, pc}
 1765              	.LVL147:
 1766              	.L149:
 1767              	.LBB374:
 1768              	.LBB372:
 1769              		.loc 3 367 0
 1770 0090 0448     		ldr	r0, .L150+4
 1771 0092 FFF7FEFF 		bl	chSysHalt
 1772              	.LVL148:
 1773              	.LBB371:
 1774              	.LBB370:
 1775              	.LBB369:
 1776              		.loc 2 546 0
 1777 0096 0020     		movs	r0, #0
 1778              	@ 546 "../../../os/ext/CMSIS/include/core_cmFunc.h" 1
 1779 0098 80F31188 		MSR basepri, r0
 1780              	@ 0 "" 2
 1781              		.thumb
 1782 009c BDE8F081 		pop	{r4, r5, r6, r7, r8, pc}
 1783              	.LVL149:
 1784              	.L151:
 1785              		.align	2
 1786              	.L150:
 1787 00a0 00000000 		.word	ch
 1788 00a4 00000000 		.word	.LANCHOR1
 1789              	.LBE369:
 1790              	.LBE370:
 1791              	.LBE371:
 1792              	.LBE372:
 1793              	.LBE374:
 1794              		.cfi_endproc
 1795              	.LFE243:
 1796              		.size	chEvtWaitAnyTimeout, .-chEvtWaitAnyTimeout
 1797 00a8 AFF30080 		.section	.text.chEvtWaitAllTimeout,"ax",%progbits
 1797      AFF30080 
 1798              		.align	2
 1799              		.p2align 4,,15
 1800              		.global	chEvtWaitAllTimeout
 1801              		.thumb
 1802              		.thumb_func
 1803              		.type	chEvtWaitAllTimeout, %function
 1804              	chEvtWaitAllTimeout:
 1805              	.LFB244:
 1806              		.loc 1 563 0
 1807              		.cfi_startproc
 1808              		@ args = 0, pretend = 0, frame = 0
 1809              		@ frame_needed = 0, uses_anonymous_args = 0
 1810              	.LVL150:
 1811 0000 F8B5     		push	{r3, r4, r5, r6, r7, lr}
 1812              		.cfi_def_cfa_offset 24
 1813              		.cfi_offset 3, -24
 1814              		.cfi_offset 4, -20
ARM GAS  C:\Users\jo\AppData\Local\Temp\ccOpvVJr.s 			page 33


 1815              		.cfi_offset 5, -16
 1816              		.cfi_offset 6, -12
 1817              		.cfi_offset 7, -8
 1818              		.cfi_offset 14, -4
 1819              		.loc 1 564 0
 1820 0002 214D     		ldr	r5, .L166
 1821              		.loc 1 563 0
 1822 0004 0446     		mov	r4, r0
 1823 0006 0F46     		mov	r7, r1
 1824              		.loc 1 564 0
 1825 0008 AE69     		ldr	r6, [r5, #24]
 1826              	.LVL151:
 1827              	.LBB395:
 1828              	.LBB396:
 1829              	.LBB397:
 1830              	.LBB398:
 1831              	.LBB399:
 1832              		.loc 2 546 0
 1833 000a 2023     		movs	r3, #32
 1834              	@ 546 "../../../os/ext/CMSIS/include/core_cmFunc.h" 1
 1835 000c 83F31188 		MSR basepri, r3
 1836              	@ 0 "" 2
 1837              		.thumb
 1838              	.LBE399:
 1839              	.LBE398:
 1840              	.LBE397:
 1841              		.loc 3 350 0
 1842 0010 FFF7FEFF 		bl	_dbg_check_lock
 1843              	.LVL152:
 1844              	.LBE396:
 1845              	.LBE395:
 1846              		.loc 1 567 0
 1847 0014 B36B     		ldr	r3, [r6, #56]
 1848 0016 04EA0302 		and	r2, r4, r3
 1849 001a A242     		cmp	r2, r4
 1850 001c 08D0     		beq	.L153
 1851              		.loc 1 568 0
 1852 001e 17B3     		cbz	r7, .L157
 1853              		.loc 1 572 0
 1854 0020 7462     		str	r4, [r6, #36]
 1855              		.loc 1 573 0
 1856 0022 3946     		mov	r1, r7
 1857 0024 0B20     		movs	r0, #11
 1858 0026 FFF7FEFF 		bl	chSchGoSleepTimeoutS
 1859              	.LVL153:
 1860 002a 0028     		cmp	r0, #0
 1861 002c 1BDB     		blt	.L157
 1862 002e B36B     		ldr	r3, [r6, #56]
 1863              	.L153:
 1864              		.loc 1 578 0
 1865 0030 23EA0403 		bic	r3, r3, r4
 1866 0034 B363     		str	r3, [r6, #56]
 1867              	.LBB400:
 1868              	.LBB401:
 1869              		.loc 3 360 0
 1870 0036 FFF7FEFF 		bl	_dbg_check_unlock
 1871              	.LVL154:
ARM GAS  C:\Users\jo\AppData\Local\Temp\ccOpvVJr.s 			page 34


 1872              		.loc 3 367 0
 1873 003a 2B68     		ldr	r3, [r5]
 1874 003c 124A     		ldr	r2, .L166
 1875 003e AB42     		cmp	r3, r5
 1876 0040 04D0     		beq	.L159
 1877 0042 9269     		ldr	r2, [r2, #24]
 1878 0044 9B68     		ldr	r3, [r3, #8]
 1879 0046 9268     		ldr	r2, [r2, #8]
 1880 0048 9A42     		cmp	r2, r3
 1881 004a 04D3     		bcc	.L165
 1882              	.L159:
 1883              	.LVL155:
 1884              	.LBB402:
 1885              	.LBB403:
 1886              	.LBB404:
 1887              		.loc 2 546 0
 1888 004c 0023     		movs	r3, #0
 1889              	@ 546 "../../../os/ext/CMSIS/include/core_cmFunc.h" 1
 1890 004e 83F31188 		MSR basepri, r3
 1891              	@ 0 "" 2
 1892              		.thumb
 1893 0052 2046     		mov	r0, r4
 1894              	.LBE404:
 1895              	.LBE403:
 1896              	.LBE402:
 1897              	.LBE401:
 1898              	.LBE400:
 1899              		.loc 1 582 0
 1900 0054 F8BD     		pop	{r3, r4, r5, r6, r7, pc}
 1901              	.LVL156:
 1902              	.L165:
 1903              	.LBB409:
 1904              	.LBB408:
 1905              		.loc 3 367 0
 1906 0056 0D48     		ldr	r0, .L166+4
 1907 0058 FFF7FEFF 		bl	chSysHalt
 1908              	.LVL157:
 1909              	.LBB407:
 1910              	.LBB406:
 1911              	.LBB405:
 1912              		.loc 2 546 0
 1913 005c 0023     		movs	r3, #0
 1914              	@ 546 "../../../os/ext/CMSIS/include/core_cmFunc.h" 1
 1915 005e 83F31188 		MSR basepri, r3
 1916              	@ 0 "" 2
 1917              		.thumb
 1918 0062 2046     		mov	r0, r4
 1919              	.LBE405:
 1920              	.LBE406:
 1921              	.LBE407:
 1922              	.LBE408:
 1923              	.LBE409:
 1924              		.loc 1 582 0
 1925 0064 F8BD     		pop	{r3, r4, r5, r6, r7, pc}
 1926              	.LVL158:
 1927              	.L157:
 1928              	.LBB410:
ARM GAS  C:\Users\jo\AppData\Local\Temp\ccOpvVJr.s 			page 35


 1929              	.LBB411:
 1930              		.loc 3 360 0
 1931 0066 FFF7FEFF 		bl	_dbg_check_unlock
 1932              	.LVL159:
 1933              		.loc 3 367 0
 1934 006a 2B68     		ldr	r3, [r5]
 1935 006c AB42     		cmp	r3, r5
 1936 006e 07D0     		beq	.L158
 1937 0070 AA69     		ldr	r2, [r5, #24]
 1938 0072 9B68     		ldr	r3, [r3, #8]
 1939 0074 9268     		ldr	r2, [r2, #8]
 1940 0076 9A42     		cmp	r2, r3
 1941 0078 02D2     		bcs	.L158
 1942 007a 0448     		ldr	r0, .L166+4
 1943 007c FFF7FEFF 		bl	chSysHalt
 1944              	.LVL160:
 1945              	.L158:
 1946              	.LBB412:
 1947              	.LBB413:
 1948              	.LBB414:
 1949              		.loc 2 546 0
 1950 0080 0020     		movs	r0, #0
 1951              	@ 546 "../../../os/ext/CMSIS/include/core_cmFunc.h" 1
 1952 0082 80F31188 		MSR basepri, r0
 1953              	@ 0 "" 2
 1954              		.thumb
 1955 0086 F8BD     		pop	{r3, r4, r5, r6, r7, pc}
 1956              	.LVL161:
 1957              	.L167:
 1958              		.align	2
 1959              	.L166:
 1960 0088 00000000 		.word	ch
 1961 008c 00000000 		.word	.LANCHOR1
 1962              	.LBE414:
 1963              	.LBE413:
 1964              	.LBE412:
 1965              	.LBE411:
 1966              	.LBE410:
 1967              		.cfi_endproc
 1968              	.LFE244:
 1969              		.size	chEvtWaitAllTimeout, .-chEvtWaitAllTimeout
 1970              		.section	.rodata.__func__.6602,"a",%progbits
 1971              		.align	2
 1972              		.set	.LANCHOR6,. + 0
 1973              		.type	__func__.6602, %object
 1974              		.size	__func__.6602, 14
 1975              	__func__.6602:
 1976 0000 63684576 		.ascii	"chEvtDispatch\000"
 1976      74446973 
 1976      70617463 
 1976      6800
 1977 000e 0000     		.section	.rodata.__func__.6549,"a",%progbits
 1978              		.align	2
 1979              		.set	.LANCHOR0,. + 0
 1980              		.type	__func__.6549, %object
 1981              		.size	__func__.6549, 27
 1982              	__func__.6549:
ARM GAS  C:\Users\jo\AppData\Local\Temp\ccOpvVJr.s 			page 36


 1983 0000 63684576 		.ascii	"chEvtRegisterMaskWithFlags\000"
 1983      74526567 
 1983      69737465 
 1983      724D6173 
 1983      6B576974 
 1984 001b 00       		.section	.rodata.__func__.6555,"a",%progbits
 1985              		.align	2
 1986              		.set	.LANCHOR2,. + 0
 1987              		.type	__func__.6555, %object
 1988              		.size	__func__.6555, 16
 1989              	__func__.6555:
 1990 0000 63684576 		.ascii	"chEvtUnregister\000"
 1990      74556E72 
 1990      65676973 
 1990      74657200 
 1991              		.section	.rodata.__func__.6571,"a",%progbits
 1992              		.align	2
 1993              		.set	.LANCHOR4,. + 0
 1994              		.type	__func__.6571, %object
 1995              		.size	__func__.6571, 21
 1996              	__func__.6571:
 1997 0000 63684576 		.ascii	"chEvtBroadcastFlagsI\000"
 1997      7442726F 
 1997      61646361 
 1997      7374466C 
 1997      61677349 
 1998 0015 000000   		.section	.rodata.__func__.5854,"a",%progbits
 1999              		.align	2
 2000              		.set	.LANCHOR1,. + 0
 2001              		.type	__func__.5854, %object
 2002              		.size	__func__.5854, 12
 2003              	__func__.5854:
 2004 0000 63685379 		.ascii	"chSysUnlock\000"
 2004      73556E6C 
 2004      6F636B00 
 2005              		.section	.rodata.__func__.6583,"a",%progbits
 2006              		.align	2
 2007              		.set	.LANCHOR5,. + 0
 2008              		.type	__func__.6583, %object
 2009              		.size	__func__.6583, 12
 2010              	__func__.6583:
 2011 0000 63684576 		.ascii	"chEvtSignal\000"
 2011      74536967 
 2011      6E616C00 
 2012              		.section	.rodata.__func__.6588,"a",%progbits
 2013              		.align	2
 2014              		.set	.LANCHOR3,. + 0
 2015              		.type	__func__.6588, %object
 2016              		.size	__func__.6588, 13
 2017              	__func__.6588:
 2018 0000 63684576 		.ascii	"chEvtSignalI\000"
 2018      74536967 
 2018      6E616C49 
 2018      00
 2019 000d 000000   		.text
 2020              	.Letext0:
 2021              		.file 4 "c:\\program files\\gnu tools arm embedded\\4.9 2014q4\\arm-none-eabi\\include\\machine\\_
ARM GAS  C:\Users\jo\AppData\Local\Temp\ccOpvVJr.s 			page 37


 2022              		.file 5 "c:\\program files\\gnu tools arm embedded\\4.9 2014q4\\arm-none-eabi\\include\\stdint.h"
 2023              		.file 6 "../../../os/rt/ports/ARMCMx/compilers/GCC/chtypes.h"
 2024              		.file 7 "../../../os/rt/include/chsystypes.h"
 2025              		.file 8 "../../../os/rt/include/chschd.h"
 2026              		.file 9 "../../../os/rt/ports/ARMCMx/chcore.h"
 2027              		.file 10 "../../../os/rt/ports/ARMCMx/chcore_v7m.h"
 2028              		.file 11 "../../../os/rt/include/chdebug.h"
 2029              		.file 12 "../../../os/rt/include/chtm.h"
 2030              		.file 13 "../../../os/rt/include/chsem.h"
 2031              		.file 14 "../../../os/rt/include/chmtx.h"
 2032              		.file 15 "../../../os/rt/include/chevents.h"
 2033              		.file 16 "../../../os/ext/CMSIS/include/core_cm4.h"