ARM GAS  C:\Users\jo\AppData\Local\Temp\cc1Dhsq6.s 			page 1


   1              		.syntax unified
   2              		.cpu cortex-m4
   3              		.fpu softvfp
   4              		.eabi_attribute 20, 1
   5              		.eabi_attribute 21, 1
   6              		.eabi_attribute 23, 3
   7              		.eabi_attribute 24, 1
   8              		.eabi_attribute 25, 1
   9              		.eabi_attribute 26, 1
  10              		.eabi_attribute 30, 2
  11              		.eabi_attribute 34, 1
  12              		.eabi_attribute 18, 4
  13              		.thumb
  14              		.file	"chheap.c"
  15              		.text
  16              	.Ltext0:
  17              		.cfi_sections	.debug_frame
  18              		.section	.text._heap_init,"ax",%progbits
  19              		.align	2
  20              		.p2align 4,,15
  21              		.global	_heap_init
  22              		.thumb
  23              		.thumb_func
  24              		.type	_heap_init, %function
  25              	_heap_init:
  26              	.LFB228:
  27              		.file 1 "../../../os/rt/src/chheap.c"
  28              		.loc 1 91 0
  29              		.cfi_startproc
  30              		@ args = 0, pretend = 0, frame = 0
  31              		@ frame_needed = 0, uses_anonymous_args = 0
  32              		@ link register save eliminated.
  33              		.loc 1 93 0
  34 0000 044B     		ldr	r3, .L2
  35 0002 054A     		ldr	r2, .L2+4
  36 0004 1A60     		str	r2, [r3]
  37              		.loc 1 97 0
  38 0006 03F11000 		add	r0, r3, #16
  39              		.loc 1 94 0
  40 000a 0022     		movs	r2, #0
  41 000c 9A60     		str	r2, [r3, #8]
  42              		.loc 1 95 0
  43 000e DA60     		str	r2, [r3, #12]
  44              		.loc 1 97 0
  45 0010 FFF7FEBF 		b	chMtxObjectInit
  46              	.LVL0:
  47              	.L3:
  48              		.align	2
  49              	.L2:
  50 0014 00000000 		.word	.LANCHOR0
  51 0018 00000000 		.word	chCoreAlloc
  52              		.cfi_endproc
  53              	.LFE228:
  54              		.size	_heap_init, .-_heap_init
  55 001c AFF30080 		.section	.text.chHeapObjectInit,"ax",%progbits
  56              		.align	2
  57              		.p2align 4,,15
ARM GAS  C:\Users\jo\AppData\Local\Temp\cc1Dhsq6.s 			page 2


  58              		.global	chHeapObjectInit
  59              		.thumb
  60              		.thumb_func
  61              		.type	chHeapObjectInit, %function
  62              	chHeapObjectInit:
  63              	.LFB229:
  64              		.loc 1 114 0
  65              		.cfi_startproc
  66              		@ args = 0, pretend = 0, frame = 0
  67              		@ frame_needed = 0, uses_anonymous_args = 0
  68              	.LVL1:
  69 0000 70B5     		push	{r4, r5, r6, lr}
  70              		.cfi_def_cfa_offset 16
  71              		.cfi_offset 4, -16
  72              		.cfi_offset 5, -12
  73              		.cfi_offset 6, -8
  74              		.cfi_offset 14, -4
  75              		.loc 1 114 0
  76 0002 1646     		mov	r6, r2
  77              		.loc 1 117 0
  78 0004 4A07     		lsls	r2, r1, #29
  79              	.LVL2:
  80              		.loc 1 114 0
  81 0006 0C46     		mov	r4, r1
  82              	.LVL3:
  83 0008 0546     		mov	r5, r0
  84              		.loc 1 117 0
  85 000a 01D1     		bne	.L5
  86              		.loc 1 117 0 is_stmt 0 discriminator 3
  87 000c 7307     		lsls	r3, r6, #29
  88 000e 02D0     		beq	.L6
  89              	.L5:
  90              		.loc 1 117 0 discriminator 4
  91 0010 0748     		ldr	r0, .L12
  92              	.LVL4:
  93 0012 FFF7FEFF 		bl	chSysHalt
  94              	.LVL5:
  95              	.L6:
  96              		.loc 1 119 0 is_stmt 1
  97 0016 0023     		movs	r3, #0
  98              		.loc 1 123 0
  99 0018 083E     		subs	r6, r6, #8
 100              	.LVL6:
 101              		.loc 1 120 0
 102 001a AC60     		str	r4, [r5, #8]
 103              		.loc 1 119 0
 104 001c 2B60     		str	r3, [r5]
 105              		.loc 1 121 0
 106 001e EB60     		str	r3, [r5, #12]
 107              		.loc 1 122 0
 108 0020 84E84800 		stmia	r4, {r3, r6}
 109              		.loc 1 125 0
 110 0024 05F11000 		add	r0, r5, #16
 111              		.loc 1 129 0
 112 0028 BDE87040 		pop	{r4, r5, r6, lr}
 113              		.cfi_restore 14
 114              		.cfi_restore 6
ARM GAS  C:\Users\jo\AppData\Local\Temp\cc1Dhsq6.s 			page 3


 115              		.cfi_restore 5
 116              		.cfi_restore 4
 117              		.cfi_def_cfa_offset 0
 118              	.LVL7:
 119              		.loc 1 125 0
 120 002c FFF7FEBF 		b	chMtxObjectInit
 121              	.LVL8:
 122              	.L13:
 123              		.align	2
 124              	.L12:
 125 0030 00000000 		.word	.LANCHOR1
 126              		.cfi_endproc
 127              	.LFE229:
 128              		.size	chHeapObjectInit, .-chHeapObjectInit
 129 0034 AFF30080 		.section	.text.chHeapAlloc,"ax",%progbits
 129      AFF30080 
 129      AFF30080 
 130              		.align	2
 131              		.p2align 4,,15
 132              		.global	chHeapAlloc
 133              		.thumb
 134              		.thumb_func
 135              		.type	chHeapAlloc, %function
 136              	chHeapAlloc:
 137              	.LFB230:
 138              		.loc 1 147 0
 139              		.cfi_startproc
 140              		@ args = 0, pretend = 0, frame = 0
 141              		@ frame_needed = 0, uses_anonymous_args = 0
 142              	.LVL9:
 143 0000 F8B5     		push	{r3, r4, r5, r6, r7, lr}
 144              		.cfi_def_cfa_offset 24
 145              		.cfi_offset 3, -24
 146              		.cfi_offset 4, -20
 147              		.cfi_offset 5, -16
 148              		.cfi_offset 6, -12
 149              		.cfi_offset 7, -8
 150              		.cfi_offset 14, -4
 151              		.loc 1 151 0
 152 0002 214E     		ldr	r6, .L29
 153 0004 0028     		cmp	r0, #0
 154 0006 18BF     		it	ne
 155 0008 0646     		movne	r6, r0
 156              	.LVL10:
 157              		.loc 1 157 0
 158 000a 06F11007 		add	r7, r6, #16
 159              		.loc 1 154 0
 160 000e 0731     		adds	r1, r1, #7
 161              	.LVL11:
 162              		.loc 1 157 0
 163 0010 3846     		mov	r0, r7
 164              		.loc 1 154 0
 165 0012 21F00705 		bic	r5, r1, #7
 166              	.LVL12:
 167              		.loc 1 155 0
 168 0016 06F10804 		add	r4, r6, #8
 169              	.LVL13:
ARM GAS  C:\Users\jo\AppData\Local\Temp\cc1Dhsq6.s 			page 4


 170              		.loc 1 157 0
 171 001a FFF7FEFF 		bl	chMtxLock
 172              	.LVL14:
 173              		.loc 1 158 0
 174 001e 03E0     		b	.L16
 175              	.LVL15:
 176              	.L20:
 177              		.loc 1 160 0
 178 0020 4368     		ldr	r3, [r0, #4]
 179 0022 9D42     		cmp	r5, r3
 180 0024 12D9     		bls	.L28
 181 0026 0446     		mov	r4, r0
 182              	.LVL16:
 183              	.L16:
 184              		.loc 1 158 0
 185 0028 2068     		ldr	r0, [r4]
 186              	.LVL17:
 187 002a 0028     		cmp	r0, #0
 188 002c F8D1     		bne	.L20
 189              		.loc 1 186 0
 190 002e 3846     		mov	r0, r7
 191              	.LVL18:
 192 0030 FFF7FEFF 		bl	chMtxUnlock
 193              	.LVL19:
 194              		.loc 1 190 0
 195 0034 3368     		ldr	r3, [r6]
 196 0036 2BB3     		cbz	r3, .L22
 197              		.loc 1 191 0
 198 0038 05F10800 		add	r0, r5, #8
 199 003c 9847     		blx	r3
 200              	.LVL20:
 201              		.loc 1 192 0
 202 003e 08B3     		cbz	r0, .L22
 203              		.loc 1 193 0
 204 0040 0660     		str	r6, [r0]
 205              		.loc 1 194 0
 206 0042 4560     		str	r5, [r0, #4]
 207              		.loc 1 195 0
 208 0044 00F10804 		add	r4, r0, #8
 209              	.LVL21:
 210              	.L19:
 211              		.loc 1 204 0
 212 0048 2046     		mov	r0, r4
 213 004a F8BD     		pop	{r3, r4, r5, r6, r7, pc}
 214              	.LVL22:
 215              	.L28:
 216              		.loc 1 161 0
 217 004c 05F10802 		add	r2, r5, #8
 218 0050 9A42     		cmp	r2, r3
 219 0052 09D9     		bls	.L17
 220              		.loc 1 165 0
 221 0054 0368     		ldr	r3, [r0]
 222 0056 2360     		str	r3, [r4]
 223              	.L18:
 224              		.loc 1 177 0
 225 0058 0446     		mov	r4, r0
 226              	.LVL23:
ARM GAS  C:\Users\jo\AppData\Local\Temp\cc1Dhsq6.s 			page 5


 227              		.loc 1 178 0
 228 005a 3846     		mov	r0, r7
 229              	.LVL24:
 230              		.loc 1 177 0
 231 005c 44F8086B 		str	r6, [r4], #8
 232              	.LVL25:
 233              		.loc 1 178 0
 234 0060 FFF7FEFF 		bl	chMtxUnlock
 235              	.LVL26:
 236              		.loc 1 204 0
 237 0064 2046     		mov	r0, r4
 238 0066 F8BD     		pop	{r3, r4, r5, r6, r7, pc}
 239              	.LVL27:
 240              	.L17:
 241 0068 6FF00701 		mvn	r1, #7
 242 006c 491B     		subs	r1, r1, r5
 243              		.loc 1 170 0
 244 006e 00EB020E 		add	lr, r0, r2
 245              	.LVL28:
 246              		.loc 1 173 0
 247 0072 0B44     		add	r3, r3, r1
 248              		.loc 1 172 0
 249 0074 0168     		ldr	r1, [r0]
 250 0076 8150     		str	r1, [r0, r2]
 251              		.loc 1 173 0
 252 0078 CEF80430 		str	r3, [lr, #4]
 253              		.loc 1 174 0
 254 007c C4F800E0 		str	lr, [r4]
 255              		.loc 1 175 0
 256 0080 4560     		str	r5, [r0, #4]
 257 0082 E9E7     		b	.L18
 258              	.LVL29:
 259              	.L22:
 260              		.loc 1 203 0
 261 0084 0024     		movs	r4, #0
 262              	.LVL30:
 263 0086 DFE7     		b	.L19
 264              	.L30:
 265              		.align	2
 266              	.L29:
 267 0088 00000000 		.word	.LANCHOR0
 268              		.cfi_endproc
 269              	.LFE230:
 270              		.size	chHeapAlloc, .-chHeapAlloc
 271 008c AFF30080 		.section	.text.chHeapFree,"ax",%progbits
 272              		.align	2
 273              		.p2align 4,,15
 274              		.global	chHeapFree
 275              		.thumb
 276              		.thumb_func
 277              		.type	chHeapFree, %function
 278              	chHeapFree:
 279              	.LFB231:
 280              		.loc 1 213 0
 281              		.cfi_startproc
 282              		@ args = 0, pretend = 0, frame = 0
 283              		@ frame_needed = 0, uses_anonymous_args = 0
ARM GAS  C:\Users\jo\AppData\Local\Temp\cc1Dhsq6.s 			page 6


 284              	.LVL31:
 285 0000 2DE9F041 		push	{r4, r5, r6, r7, r8, lr}
 286              		.cfi_def_cfa_offset 24
 287              		.cfi_offset 4, -24
 288              		.cfi_offset 5, -20
 289              		.cfi_offset 6, -16
 290              		.cfi_offset 7, -12
 291              		.cfi_offset 8, -8
 292              		.cfi_offset 14, -4
 293              		.loc 1 217 0
 294 0004 8046     		mov	r8, r0
 295 0006 0028     		cmp	r0, #0
 296 0008 58D0     		beq	.L46
 297              	.LVL32:
 298              	.L32:
 299              		.loc 1 222 0
 300 000a 58F8086C 		ldr	r6, [r8, #-8]
 301              		.loc 1 225 0
 302 000e 06F11007 		add	r7, r6, #16
 303 0012 3846     		mov	r0, r7
 304 0014 FFF7FEFF 		bl	chMtxLock
 305              	.LVL33:
 306              		.loc 1 223 0
 307 0018 0836     		adds	r6, r6, #8
 308 001a 3446     		mov	r4, r6
 309              		.loc 1 220 0
 310 001c A8F10805 		sub	r5, r8, #8
 311              	.LVL34:
 312              	.L40:
 313              		.loc 1 227 0 discriminator 1
 314 0020 AC42     		cmp	r4, r5
 315 0022 04D8     		bhi	.L33
 316              		.loc 1 227 0 is_stmt 0 discriminator 2
 317 0024 6368     		ldr	r3, [r4, #4]
 318 0026 0833     		adds	r3, r3, #8
 319 0028 2344     		add	r3, r3, r4
 320 002a 9D42     		cmp	r5, r3
 321 002c 0BD3     		bcc	.L47
 322              	.L33:
 323              		.loc 1 229 0 is_stmt 1
 324 002e B442     		cmp	r4, r6
 325 0030 0ED0     		beq	.L34
 326              	.L48:
 327              		.loc 1 229 0 is_stmt 0 discriminator 2
 328 0032 AC42     		cmp	r4, r5
 329 0034 0CD3     		bcc	.L34
 330 0036 2468     		ldr	r4, [r4]
 331              	.LVL35:
 332              		.loc 1 227 0 is_stmt 1
 333 0038 AC42     		cmp	r4, r5
 334 003a F8D8     		bhi	.L33
 335 003c 6368     		ldr	r3, [r4, #4]
 336 003e 0833     		adds	r3, r3, #8
 337 0040 2344     		add	r3, r3, r4
 338 0042 9D42     		cmp	r5, r3
 339 0044 F3D2     		bcs	.L33
 340              	.L47:
ARM GAS  C:\Users\jo\AppData\Local\Temp\cc1Dhsq6.s 			page 7


 341              		.loc 1 227 0 is_stmt 0 discriminator 3
 342 0046 1F48     		ldr	r0, .L51
 343 0048 FFF7FEFF 		bl	chSysHalt
 344              	.LVL36:
 345              		.loc 1 229 0 is_stmt 1 discriminator 3
 346 004c B442     		cmp	r4, r6
 347 004e F0D1     		bne	.L48
 348              	.L34:
 349              		.loc 1 230 0 discriminator 3
 350 0050 2368     		ldr	r3, [r4]
 351              		.loc 1 229 0 discriminator 3
 352 0052 1BB1     		cbz	r3, .L36
 353              		.loc 1 230 0
 354 0054 9D42     		cmp	r5, r3
 355 0056 01D3     		bcc	.L36
 356 0058 1C46     		mov	r4, r3
 357              	.LVL37:
 358              		.loc 1 248 0
 359 005a E1E7     		b	.L40
 360              	.LVL38:
 361              	.L36:
 362              		.loc 1 235 0
 363 005c 58F8042C 		ldr	r2, [r8, #-4]
 364              		.loc 1 232 0
 365 0060 48F8083C 		str	r3, [r8, #-8]
 366              		.loc 1 233 0
 367 0064 2560     		str	r5, [r4]
 368              		.loc 1 235 0
 369 0066 02F10803 		add	r3, r2, #8
 370 006a 58F8080C 		ldr	r0, [r8, #-8]
 371 006e E918     		adds	r1, r5, r3
 372 0070 8142     		cmp	r1, r0
 373 0072 0AD0     		beq	.L49
 374              		.loc 1 240 0
 375 0074 6268     		ldr	r2, [r4, #4]
 376 0076 02F10803 		add	r3, r2, #8
 377 007a 2344     		add	r3, r3, r4
 378 007c 9D42     		cmp	r5, r3
 379 007e 12D0     		beq	.L50
 380              	.L39:
 381              		.loc 1 249 0
 382 0080 3846     		mov	r0, r7
 383              		.loc 1 252 0
 384 0082 BDE8F041 		pop	{r4, r5, r6, r7, r8, lr}
 385              		.cfi_remember_state
 386              		.cfi_restore 14
 387              		.cfi_restore 8
 388              		.cfi_restore 7
 389              		.cfi_restore 6
 390              		.cfi_restore 5
 391              		.cfi_restore 4
 392              		.cfi_def_cfa_offset 0
 393              	.LVL39:
 394              		.loc 1 249 0
 395 0086 FFF7FEBF 		b	chMtxUnlock
 396              	.LVL40:
 397              	.L49:
ARM GAS  C:\Users\jo\AppData\Local\Temp\cc1Dhsq6.s 			page 8


 398              		.cfi_restore_state
 399              		.loc 1 237 0
 400 008a 4968     		ldr	r1, [r1, #4]
 401              		.loc 1 238 0
 402 008c EB58     		ldr	r3, [r5, r3]
 403 008e 48F8083C 		str	r3, [r8, #-8]
 404              		.loc 1 237 0
 405 0092 5318     		adds	r3, r2, r1
 406 0094 0833     		adds	r3, r3, #8
 407 0096 48F8043C 		str	r3, [r8, #-4]
 408              		.loc 1 240 0
 409 009a 6268     		ldr	r2, [r4, #4]
 410 009c 02F10803 		add	r3, r2, #8
 411 00a0 2344     		add	r3, r3, r4
 412 00a2 9D42     		cmp	r5, r3
 413 00a4 ECD1     		bne	.L39
 414              	.L50:
 415              		.loc 1 243 0
 416 00a6 18E90A00 		ldmdb	r8, {r1, r3}
 417              		.loc 1 242 0
 418 00aa 1344     		add	r3, r3, r2
 419 00ac 0833     		adds	r3, r3, #8
 420              		.loc 1 243 0
 421 00ae 2160     		str	r1, [r4]
 422              		.loc 1 242 0
 423 00b0 6360     		str	r3, [r4, #4]
 424              		.loc 1 249 0
 425 00b2 3846     		mov	r0, r7
 426              		.loc 1 252 0
 427 00b4 BDE8F041 		pop	{r4, r5, r6, r7, r8, lr}
 428              		.cfi_remember_state
 429              		.cfi_restore 4
 430              		.cfi_restore 5
 431              		.cfi_restore 6
 432              		.cfi_restore 7
 433              		.cfi_restore 8
 434              		.cfi_restore 14
 435              		.cfi_def_cfa_offset 0
 436              	.LVL41:
 437              		.loc 1 249 0
 438 00b8 FFF7FEBF 		b	chMtxUnlock
 439              	.LVL42:
 440              	.L46:
 441              		.cfi_restore_state
 442              		.loc 1 217 0 discriminator 2
 443 00bc 0148     		ldr	r0, .L51
 444              	.LVL43:
 445 00be FFF7FEFF 		bl	chSysHalt
 446              	.LVL44:
 447 00c2 A2E7     		b	.L32
 448              	.L52:
 449              		.align	2
 450              	.L51:
 451 00c4 00000000 		.word	.LANCHOR2
 452              		.cfi_endproc
 453              	.LFE231:
 454              		.size	chHeapFree, .-chHeapFree
ARM GAS  C:\Users\jo\AppData\Local\Temp\cc1Dhsq6.s 			page 9


 455 00c8 AFF30080 		.section	.text.chHeapStatus,"ax",%progbits
 455      AFF30080 
 456              		.align	2
 457              		.p2align 4,,15
 458              		.global	chHeapStatus
 459              		.thumb
 460              		.thumb_func
 461              		.type	chHeapStatus, %function
 462              	chHeapStatus:
 463              	.LFB232:
 464              		.loc 1 267 0
 465              		.cfi_startproc
 466              		@ args = 0, pretend = 0, frame = 0
 467              		@ frame_needed = 0, uses_anonymous_args = 0
 468              	.LVL45:
 469 0000 70B5     		push	{r4, r5, r6, lr}
 470              		.cfi_def_cfa_offset 16
 471              		.cfi_offset 4, -16
 472              		.cfi_offset 5, -12
 473              		.cfi_offset 6, -8
 474              		.cfi_offset 14, -4
 475              		.loc 1 272 0
 476 0002 0F4C     		ldr	r4, .L64
 477 0004 0028     		cmp	r0, #0
 478 0006 18BF     		it	ne
 479 0008 0446     		movne	r4, r0
 480              	.LVL46:
 481              		.loc 1 275 0
 482 000a 04F11005 		add	r5, r4, #16
 483 000e 2846     		mov	r0, r5
 484              		.loc 1 267 0
 485 0010 0E46     		mov	r6, r1
 486              		.loc 1 275 0
 487 0012 FFF7FEFF 		bl	chMtxLock
 488              	.LVL47:
 489              		.loc 1 279 0
 490 0016 A368     		ldr	r3, [r4, #8]
 491 0018 73B1     		cbz	r3, .L58
 492 001a 0022     		movs	r2, #0
 493 001c 1446     		mov	r4, r2
 494              	.LVL48:
 495              	.L56:
 496              		.loc 1 280 0
 497 001e 5868     		ldr	r0, [r3, #4]
 498              		.loc 1 279 0
 499 0020 1B68     		ldr	r3, [r3]
 500              		.loc 1 281 0
 501 0022 0134     		adds	r4, r4, #1
 502              	.LVL49:
 503              		.loc 1 280 0
 504 0024 0244     		add	r2, r2, r0
 505              	.LVL50:
 506              		.loc 1 279 0
 507 0026 002B     		cmp	r3, #0
 508 0028 F9D1     		bne	.L56
 509              	.LVL51:
 510              	.L55:
ARM GAS  C:\Users\jo\AppData\Local\Temp\cc1Dhsq6.s 			page 10


 511              		.loc 1 284 0
 512 002a 06B1     		cbz	r6, .L57
 513              		.loc 1 285 0
 514 002c 3260     		str	r2, [r6]
 515              	.L57:
 516              		.loc 1 287 0
 517 002e 2846     		mov	r0, r5
 518 0030 FFF7FEFF 		bl	chMtxUnlock
 519              	.LVL52:
 520              		.loc 1 290 0
 521 0034 2046     		mov	r0, r4
 522 0036 70BD     		pop	{r4, r5, r6, pc}
 523              	.LVL53:
 524              	.L58:
 525              		.loc 1 276 0
 526 0038 1A46     		mov	r2, r3
 527              		.loc 1 277 0
 528 003a 1C46     		mov	r4, r3
 529              	.LVL54:
 530 003c F5E7     		b	.L55
 531              	.L65:
 532 003e 00BF     		.align	2
 533              	.L64:
 534 0040 00000000 		.word	.LANCHOR0
 535              		.cfi_endproc
 536              	.LFE232:
 537              		.size	chHeapStatus, .-chHeapStatus
 538 0044 AFF30080 		.section	.rodata.__func__.6553,"a",%progbits
 538      AFF30080 
 538      AFF30080 
 539              		.align	2
 540              		.set	.LANCHOR1,. + 0
 541              		.type	__func__.6553, %object
 542              		.size	__func__.6553, 17
 543              	__func__.6553:
 544 0000 63684865 		.ascii	"chHeapObjectInit\000"
 544      61704F62 
 544      6A656374 
 544      496E6974 
 544      00
 545 0011 000000   		.section	.rodata.__func__.6570,"a",%progbits
 546              		.align	2
 547              		.set	.LANCHOR2,. + 0
 548              		.type	__func__.6570, %object
 549              		.size	__func__.6570, 11
 550              	__func__.6570:
 551 0000 63684865 		.ascii	"chHeapFree\000"
 551      61704672 
 551      656500
 552 000b 00       		.section	.bss.default_heap,"aw",%nobits
 553              		.align	3
 554              		.set	.LANCHOR0,. + 0
 555              		.type	default_heap, %object
 556              		.size	default_heap, 32
 557              	default_heap:
 558 0000 00000000 		.space	32
 558      00000000 
ARM GAS  C:\Users\jo\AppData\Local\Temp\cc1Dhsq6.s 			page 11


 558      00000000 
 558      00000000 
 558      00000000 
 559              		.text
 560              	.Letext0:
 561              		.file 2 "c:\\program files\\gnu tools arm embedded\\4.9 2014q4\\lib\\gcc\\arm-none-eabi\\4.9.3\\in
 562              		.file 3 "c:\\program files\\gnu tools arm embedded\\4.9 2014q4\\arm-none-eabi\\include\\machine\\_
 563              		.file 4 "c:\\program files\\gnu tools arm embedded\\4.9 2014q4\\arm-none-eabi\\include\\stdint.h"
 564              		.file 5 "../../../os/rt/ports/ARMCMx/compilers/GCC/chtypes.h"
 565              		.file 6 "../../../os/rt/include/chsystypes.h"
 566              		.file 7 "../../../os/rt/include/chschd.h"
 567              		.file 8 "../../../os/rt/ports/ARMCMx/chcore.h"
 568              		.file 9 "../../../os/rt/ports/ARMCMx/chcore_v7m.h"
 569              		.file 10 "../../../os/rt/include/chdebug.h"
 570              		.file 11 "../../../os/rt/include/chtm.h"
 571              		.file 12 "../../../os/rt/include/chsem.h"
 572              		.file 13 "../../../os/rt/include/chmtx.h"
 573              		.file 14 "../../../os/rt/include/chmemcore.h"
 574              		.file 15 "../../../os/rt/include/chheap.h"
 575              		.file 16 "../../../os/rt/include/chsys.h"
 576              		.file 17 "../../../os/ext/CMSIS/include/core_cm4.h"