ARM GAS  C:\Users\jo\AppData\Local\Temp\ccOf6VFd.s 			page 1


   1              		.syntax unified
   2              		.cpu cortex-m4
   3              		.fpu softvfp
   4              		.eabi_attribute 20, 1
   5              		.eabi_attribute 21, 1
   6              		.eabi_attribute 23, 3
   7              		.eabi_attribute 24, 1
   8              		.eabi_attribute 25, 1
   9              		.eabi_attribute 26, 1
  10              		.eabi_attribute 30, 2
  11              		.eabi_attribute 34, 1
  12              		.eabi_attribute 18, 4
  13              		.thumb
  14              		.file	"chmboxes.c"
  15              		.text
  16              	.Ltext0:
  17              		.cfi_sections	.debug_frame
  18              		.section	.text.chMBObjectInit,"ax",%progbits
  19              		.align	2
  20              		.p2align 4,,15
  21              		.global	chMBObjectInit
  22              		.thumb
  23              		.thumb_func
  24              		.type	chMBObjectInit, %function
  25              	chMBObjectInit:
  26              	.LFB228:
  27              		.file 1 "../../../os/rt/src/chmboxes.c"
  28              		.loc 1 86 0
  29              		.cfi_startproc
  30              		@ args = 0, pretend = 0, frame = 0
  31              		@ frame_needed = 0, uses_anonymous_args = 0
  32              	.LVL0:
  33 0000 70B5     		push	{r4, r5, r6, lr}
  34              		.cfi_def_cfa_offset 16
  35              		.cfi_offset 4, -16
  36              		.cfi_offset 5, -12
  37              		.cfi_offset 6, -8
  38              		.cfi_offset 14, -4
  39              		.loc 1 86 0
  40 0002 0D46     		mov	r5, r1
  41 0004 1646     		mov	r6, r2
  42              		.loc 1 88 0
  43 0006 0446     		mov	r4, r0
  44 0008 A0B1     		cbz	r0, .L2
  45              		.loc 1 88 0 is_stmt 0 discriminator 3
  46 000a 99B1     		cbz	r1, .L2
  47              		.loc 1 88 0 discriminator 5
  48 000c 002A     		cmp	r2, #0
  49 000e 11DD     		ble	.L2
  50              	.LVL1:
  51              	.L3:
  52              		.loc 1 93 0 is_stmt 1
  53 0010 05EB8603 		add	r3, r5, r6, lsl #2
  54              		.loc 1 94 0
  55 0014 3146     		mov	r1, r6
  56 0016 04F11C00 		add	r0, r4, #28
  57              		.loc 1 90 0
ARM GAS  C:\Users\jo\AppData\Local\Temp\ccOf6VFd.s 			page 2


  58 001a 2560     		str	r5, [r4]
  59              		.loc 1 91 0
  60 001c E560     		str	r5, [r4, #12]
  61              		.loc 1 92 0
  62 001e A560     		str	r5, [r4, #8]
  63              		.loc 1 93 0
  64 0020 6360     		str	r3, [r4, #4]
  65              		.loc 1 94 0
  66 0022 FFF7FEFF 		bl	chSemObjectInit
  67              	.LVL2:
  68              		.loc 1 95 0
  69 0026 04F11000 		add	r0, r4, #16
  70 002a 0021     		movs	r1, #0
  71              		.loc 1 96 0
  72 002c BDE87040 		pop	{r4, r5, r6, lr}
  73              		.cfi_remember_state
  74              		.cfi_restore 14
  75              		.cfi_restore 6
  76              		.cfi_restore 5
  77              		.cfi_restore 4
  78              		.cfi_def_cfa_offset 0
  79              	.LVL3:
  80              		.loc 1 95 0
  81 0030 FFF7FEBF 		b	chSemObjectInit
  82              	.LVL4:
  83              	.L2:
  84              		.cfi_restore_state
  85              		.loc 1 88 0 discriminator 6
  86 0034 0148     		ldr	r0, .L12
  87              	.LVL5:
  88 0036 FFF7FEFF 		bl	chSysHalt
  89              	.LVL6:
  90 003a E9E7     		b	.L3
  91              	.L13:
  92              		.align	2
  93              	.L12:
  94 003c 00000000 		.word	.LANCHOR0
  95              		.cfi_endproc
  96              	.LFE228:
  97              		.size	chMBObjectInit, .-chMBObjectInit
  98              		.section	.text.chMBResetI,"ax",%progbits
  99              		.align	2
 100              		.p2align 4,,15
 101              		.global	chMBResetI
 102              		.thumb
 103              		.thumb_func
 104              		.type	chMBResetI, %function
 105              	chMBResetI:
 106              	.LFB230:
 107              		.loc 1 124 0
 108              		.cfi_startproc
 109              		@ args = 0, pretend = 0, frame = 0
 110              		@ frame_needed = 0, uses_anonymous_args = 0
 111              	.LVL7:
 112 0000 10B5     		push	{r4, lr}
 113              		.cfi_def_cfa_offset 8
 114              		.cfi_offset 4, -8
ARM GAS  C:\Users\jo\AppData\Local\Temp\ccOf6VFd.s 			page 3


 115              		.cfi_offset 14, -4
 116              		.loc 1 124 0
 117 0002 0446     		mov	r4, r0
 118              		.loc 1 126 0
 119 0004 FFF7FEFF 		bl	chDbgCheckClassI
 120              	.LVL8:
 121              		.loc 1 127 0
 122 0008 84B1     		cbz	r4, .L17
 123              	.L15:
 124              		.loc 1 129 0
 125 000a 2368     		ldr	r3, [r4]
 126              		.loc 1 131 0
 127 000c 6168     		ldr	r1, [r4, #4]
 128              		.loc 1 129 0
 129 000e A360     		str	r3, [r4, #8]
 130              		.loc 1 131 0
 131 0010 C91A     		subs	r1, r1, r3
 132 0012 04F11C00 		add	r0, r4, #28
 133              		.loc 1 130 0
 134 0016 E360     		str	r3, [r4, #12]
 135              		.loc 1 131 0
 136 0018 8910     		asrs	r1, r1, #2
 137 001a FFF7FEFF 		bl	chSemResetI
 138              	.LVL9:
 139              		.loc 1 132 0
 140 001e 04F11000 		add	r0, r4, #16
 141 0022 0021     		movs	r1, #0
 142              		.loc 1 133 0
 143 0024 BDE81040 		pop	{r4, lr}
 144              		.cfi_remember_state
 145              		.cfi_restore 14
 146              		.cfi_restore 4
 147              		.cfi_def_cfa_offset 0
 148              	.LVL10:
 149              		.loc 1 132 0
 150 0028 FFF7FEBF 		b	chSemResetI
 151              	.LVL11:
 152              	.L17:
 153              		.cfi_restore_state
 154              		.loc 1 127 0 discriminator 2
 155 002c 0148     		ldr	r0, .L18
 156 002e FFF7FEFF 		bl	chSysHalt
 157              	.LVL12:
 158 0032 EAE7     		b	.L15
 159              	.L19:
 160              		.align	2
 161              	.L18:
 162 0034 00000000 		.word	.LANCHOR1
 163              		.cfi_endproc
 164              	.LFE230:
 165              		.size	chMBResetI, .-chMBResetI
 166 0038 AFF30080 		.section	.text.chMBReset,"ax",%progbits
 166      AFF30080 
 167              		.align	2
 168              		.p2align 4,,15
 169              		.global	chMBReset
 170              		.thumb
ARM GAS  C:\Users\jo\AppData\Local\Temp\ccOf6VFd.s 			page 4


 171              		.thumb_func
 172              		.type	chMBReset, %function
 173              	chMBReset:
 174              	.LFB229:
 175              		.loc 1 107 0
 176              		.cfi_startproc
 177              		@ args = 0, pretend = 0, frame = 0
 178              		@ frame_needed = 0, uses_anonymous_args = 0
 179              	.LVL13:
 180 0000 10B5     		push	{r4, lr}
 181              		.cfi_def_cfa_offset 8
 182              		.cfi_offset 4, -8
 183              		.cfi_offset 14, -4
 184              	.LBB56:
 185              	.LBB57:
 186              	.LBB58:
 187              	.LBB59:
 188              	.LBB60:
 189              		.file 2 "../../../os/ext/CMSIS/include/core_cmFunc.h"
 190              		.loc 2 546 0
 191 0002 2023     		movs	r3, #32
 192              	.LBE60:
 193              	.LBE59:
 194              	.LBE58:
 195              	.LBE57:
 196              	.LBE56:
 197              		.loc 1 107 0
 198 0004 0446     		mov	r4, r0
 199              	.LBB65:
 200              	.LBB64:
 201              	.LBB63:
 202              	.LBB62:
 203              	.LBB61:
 204              		.loc 2 546 0
 205              	@ 546 "../../../os/ext/CMSIS/include/core_cmFunc.h" 1
 206 0006 83F31188 		MSR basepri, r3
 207              	@ 0 "" 2
 208              		.thumb
 209              	.LBE61:
 210              	.LBE62:
 211              	.LBE63:
 212              		.file 3 "../../../os/rt/include/chsys.h"
 213              		.loc 3 350 0
 214 000a FFF7FEFF 		bl	_dbg_check_lock
 215              	.LVL14:
 216              	.LBE64:
 217              	.LBE65:
 218              		.loc 1 110 0
 219 000e 2046     		mov	r0, r4
 220 0010 FFF7FEFF 		bl	chMBResetI
 221              	.LVL15:
 222              		.loc 1 111 0
 223 0014 FFF7FEFF 		bl	chSchRescheduleS
 224              	.LVL16:
 225              	.LBB66:
 226              	.LBB67:
 227              		.loc 3 360 0
ARM GAS  C:\Users\jo\AppData\Local\Temp\ccOf6VFd.s 			page 5


 228 0018 FFF7FEFF 		bl	_dbg_check_unlock
 229              	.LVL17:
 230              		.loc 3 367 0
 231 001c 074B     		ldr	r3, .L23
 232 001e 1A68     		ldr	r2, [r3]
 233 0020 9A42     		cmp	r2, r3
 234 0022 07D0     		beq	.L21
 235 0024 9969     		ldr	r1, [r3, #24]
 236 0026 9368     		ldr	r3, [r2, #8]
 237 0028 8A68     		ldr	r2, [r1, #8]
 238 002a 9A42     		cmp	r2, r3
 239 002c 02D2     		bcs	.L21
 240 002e 0448     		ldr	r0, .L23+4
 241 0030 FFF7FEFF 		bl	chSysHalt
 242              	.LVL18:
 243              	.L21:
 244              	.LBB68:
 245              	.LBB69:
 246              	.LBB70:
 247              		.loc 2 546 0
 248 0034 0023     		movs	r3, #0
 249              	@ 546 "../../../os/ext/CMSIS/include/core_cmFunc.h" 1
 250 0036 83F31188 		MSR basepri, r3
 251              	@ 0 "" 2
 252              		.thumb
 253 003a 10BD     		pop	{r4, pc}
 254              	.LVL19:
 255              	.L24:
 256              		.align	2
 257              	.L23:
 258 003c 00000000 		.word	ch
 259 0040 00000000 		.word	.LANCHOR2
 260              	.LBE70:
 261              	.LBE69:
 262              	.LBE68:
 263              	.LBE67:
 264              	.LBE66:
 265              		.cfi_endproc
 266              	.LFE229:
 267              		.size	chMBReset, .-chMBReset
 268 0044 AFF30080 		.section	.text.chMBPostS,"ax",%progbits
 268      AFF30080 
 268      AFF30080 
 269              		.align	2
 270              		.p2align 4,,15
 271              		.global	chMBPostS
 272              		.thumb
 273              		.thumb_func
 274              		.type	chMBPostS, %function
 275              	chMBPostS:
 276              	.LFB232:
 277              		.loc 1 183 0
 278              		.cfi_startproc
 279              		@ args = 0, pretend = 0, frame = 0
 280              		@ frame_needed = 0, uses_anonymous_args = 0
 281              	.LVL20:
 282 0000 70B5     		push	{r4, r5, r6, lr}
ARM GAS  C:\Users\jo\AppData\Local\Temp\ccOf6VFd.s 			page 6


 283              		.cfi_def_cfa_offset 16
 284              		.cfi_offset 4, -16
 285              		.cfi_offset 5, -12
 286              		.cfi_offset 6, -8
 287              		.cfi_offset 14, -4
 288              		.loc 1 183 0
 289 0002 0446     		mov	r4, r0
 290 0004 0E46     		mov	r6, r1
 291 0006 1546     		mov	r5, r2
 292              		.loc 1 186 0
 293 0008 FFF7FEFF 		bl	chDbgCheckClassS
 294              	.LVL21:
 295              		.loc 1 187 0
 296 000c C4B1     		cbz	r4, .L30
 297              	.L26:
 298              		.loc 1 189 0
 299 000e 2946     		mov	r1, r5
 300 0010 04F11C00 		add	r0, r4, #28
 301 0014 FFF7FEFF 		bl	chSemWaitTimeoutS
 302              	.LVL22:
 303              		.loc 1 190 0
 304 0018 0546     		mov	r5, r0
 305              	.LVL23:
 306 001a 78B9     		cbnz	r0, .L27
 307              	.LVL24:
 308              	.LBB73:
 309              	.LBB74:
 310              		.loc 1 191 0
 311 001c A268     		ldr	r2, [r4, #8]
 312              		.loc 1 192 0
 313 001e 6168     		ldr	r1, [r4, #4]
 314              		.loc 1 191 0
 315 0020 131D     		adds	r3, r2, #4
 316              		.loc 1 192 0
 317 0022 8B42     		cmp	r3, r1
 318              		.loc 1 191 0
 319 0024 A360     		str	r3, [r4, #8]
 320              		.loc 1 193 0
 321 0026 28BF     		it	cs
 322 0028 2368     		ldrcs	r3, [r4]
 323              		.loc 1 191 0
 324 002a 1660     		str	r6, [r2]
 325              		.loc 1 195 0
 326 002c 04F11000 		add	r0, r4, #16
 327              	.LVL25:
 328              		.loc 1 193 0
 329 0030 28BF     		it	cs
 330 0032 A360     		strcs	r3, [r4, #8]
 331              		.loc 1 195 0
 332 0034 FFF7FEFF 		bl	chSemSignalI
 333              	.LVL26:
 334              		.loc 1 196 0
 335 0038 FFF7FEFF 		bl	chSchRescheduleS
 336              	.LVL27:
 337              	.L27:
 338              	.LBE74:
 339              	.LBE73:
ARM GAS  C:\Users\jo\AppData\Local\Temp\ccOf6VFd.s 			page 7


 340              		.loc 1 200 0
 341 003c 2846     		mov	r0, r5
 342 003e 70BD     		pop	{r4, r5, r6, pc}
 343              	.LVL28:
 344              	.L30:
 345              		.loc 1 187 0 discriminator 2
 346 0040 0148     		ldr	r0, .L31
 347 0042 FFF7FEFF 		bl	chSysHalt
 348              	.LVL29:
 349 0046 E2E7     		b	.L26
 350              	.L32:
 351              		.align	2
 352              	.L31:
 353 0048 00000000 		.word	.LANCHOR3
 354              		.cfi_endproc
 355              	.LFE232:
 356              		.size	chMBPostS, .-chMBPostS
 357 004c AFF30080 		.section	.text.chMBPost,"ax",%progbits
 358              		.align	2
 359              		.p2align 4,,15
 360              		.global	chMBPost
 361              		.thumb
 362              		.thumb_func
 363              		.type	chMBPost, %function
 364              	chMBPost:
 365              	.LFB231:
 366              		.loc 1 154 0
 367              		.cfi_startproc
 368              		@ args = 0, pretend = 0, frame = 0
 369              		@ frame_needed = 0, uses_anonymous_args = 0
 370              	.LVL30:
 371 0000 70B5     		push	{r4, r5, r6, lr}
 372              		.cfi_def_cfa_offset 16
 373              		.cfi_offset 4, -16
 374              		.cfi_offset 5, -12
 375              		.cfi_offset 6, -8
 376              		.cfi_offset 14, -4
 377              	.LBB85:
 378              	.LBB86:
 379              	.LBB87:
 380              	.LBB88:
 381              	.LBB89:
 382              		.loc 2 546 0
 383 0002 2023     		movs	r3, #32
 384              	.LBE89:
 385              	.LBE88:
 386              	.LBE87:
 387              	.LBE86:
 388              	.LBE85:
 389              		.loc 1 154 0
 390 0004 0646     		mov	r6, r0
 391 0006 0D46     		mov	r5, r1
 392 0008 1446     		mov	r4, r2
 393              	.LBB94:
 394              	.LBB93:
 395              	.LBB92:
 396              	.LBB91:
ARM GAS  C:\Users\jo\AppData\Local\Temp\ccOf6VFd.s 			page 8


 397              	.LBB90:
 398              		.loc 2 546 0
 399              	@ 546 "../../../os/ext/CMSIS/include/core_cmFunc.h" 1
 400 000a 83F31188 		MSR basepri, r3
 401              	@ 0 "" 2
 402              		.thumb
 403              	.LBE90:
 404              	.LBE91:
 405              	.LBE92:
 406              		.loc 3 350 0
 407 000e FFF7FEFF 		bl	_dbg_check_lock
 408              	.LVL31:
 409              	.LBE93:
 410              	.LBE94:
 411              		.loc 1 158 0
 412 0012 2246     		mov	r2, r4
 413 0014 2946     		mov	r1, r5
 414 0016 3046     		mov	r0, r6
 415 0018 FFF7FEFF 		bl	chMBPostS
 416              	.LVL32:
 417 001c 0446     		mov	r4, r0
 418              	.LVL33:
 419              	.LBB95:
 420              	.LBB96:
 421              		.loc 3 360 0
 422 001e FFF7FEFF 		bl	_dbg_check_unlock
 423              	.LVL34:
 424              		.loc 3 367 0
 425 0022 084B     		ldr	r3, .L36
 426 0024 1A68     		ldr	r2, [r3]
 427 0026 9A42     		cmp	r2, r3
 428 0028 07D0     		beq	.L34
 429 002a 9969     		ldr	r1, [r3, #24]
 430 002c 9368     		ldr	r3, [r2, #8]
 431 002e 8A68     		ldr	r2, [r1, #8]
 432 0030 9A42     		cmp	r2, r3
 433 0032 02D2     		bcs	.L34
 434 0034 0448     		ldr	r0, .L36+4
 435 0036 FFF7FEFF 		bl	chSysHalt
 436              	.LVL35:
 437              	.L34:
 438              	.LBB97:
 439              	.LBB98:
 440              	.LBB99:
 441              		.loc 2 546 0
 442 003a 0023     		movs	r3, #0
 443              	@ 546 "../../../os/ext/CMSIS/include/core_cmFunc.h" 1
 444 003c 83F31188 		MSR basepri, r3
 445              	@ 0 "" 2
 446              		.thumb
 447              	.LBE99:
 448              	.LBE98:
 449              	.LBE97:
 450              	.LBE96:
 451              	.LBE95:
 452              		.loc 1 162 0
 453 0040 2046     		mov	r0, r4
ARM GAS  C:\Users\jo\AppData\Local\Temp\ccOf6VFd.s 			page 9


 454 0042 70BD     		pop	{r4, r5, r6, pc}
 455              	.LVL36:
 456              	.L37:
 457              		.align	2
 458              	.L36:
 459 0044 00000000 		.word	ch
 460 0048 00000000 		.word	.LANCHOR2
 461              		.cfi_endproc
 462              	.LFE231:
 463              		.size	chMBPost, .-chMBPost
 464 004c AFF30080 		.section	.text.chMBPostI,"ax",%progbits
 465              		.align	2
 466              		.p2align 4,,15
 467              		.global	chMBPostI
 468              		.thumb
 469              		.thumb_func
 470              		.type	chMBPostI, %function
 471              	chMBPostI:
 472              	.LFB233:
 473              		.loc 1 216 0
 474              		.cfi_startproc
 475              		@ args = 0, pretend = 0, frame = 0
 476              		@ frame_needed = 0, uses_anonymous_args = 0
 477              	.LVL37:
 478 0000 38B5     		push	{r3, r4, r5, lr}
 479              		.cfi_def_cfa_offset 16
 480              		.cfi_offset 3, -16
 481              		.cfi_offset 4, -12
 482              		.cfi_offset 5, -8
 483              		.cfi_offset 14, -4
 484              		.loc 1 216 0
 485 0002 0446     		mov	r4, r0
 486 0004 0D46     		mov	r5, r1
 487              		.loc 1 218 0
 488 0006 FFF7FEFF 		bl	chDbgCheckClassI
 489              	.LVL38:
 490              		.loc 1 219 0
 491 000a CCB1     		cbz	r4, .L44
 492              	.L39:
 493              	.LVL39:
 494              	.LBB100:
 495              	.LBB101:
 496              		.file 4 "../../../os/rt/include/chsem.h"
 497              		.loc 4 151 0
 498 000c FFF7FEFF 		bl	chDbgCheckClassI
 499              	.LVL40:
 500              	.LBE101:
 501              	.LBE100:
 502              		.loc 1 221 0
 503 0010 636A     		ldr	r3, [r4, #36]
 504 0012 002B     		cmp	r3, #0
 505 0014 18DD     		ble	.L42
 506              	.LVL41:
 507              	.LBB102:
 508              	.LBB103:
 509              		.loc 4 120 0
 510 0016 FFF7FEFF 		bl	chDbgCheckClassI
ARM GAS  C:\Users\jo\AppData\Local\Temp\ccOf6VFd.s 			page 10


 511              	.LVL42:
 512              	.LBE103:
 513              	.LBE102:
 514              		.loc 1 226 0
 515 001a A168     		ldr	r1, [r4, #8]
 516              	.LBB107:
 517              	.LBB104:
 518              		.loc 4 122 0
 519 001c 636A     		ldr	r3, [r4, #36]
 520              	.LBE104:
 521              	.LBE107:
 522              		.loc 1 227 0
 523 001e 6068     		ldr	r0, [r4, #4]
 524              		.loc 1 226 0
 525 0020 0A1D     		adds	r2, r1, #4
 526              	.LBB108:
 527              	.LBB105:
 528              		.loc 4 122 0
 529 0022 013B     		subs	r3, r3, #1
 530              	.LBE105:
 531              	.LBE108:
 532              		.loc 1 227 0
 533 0024 8242     		cmp	r2, r0
 534              	.LBB109:
 535              	.LBB106:
 536              		.loc 4 122 0
 537 0026 6362     		str	r3, [r4, #36]
 538              	.LBE106:
 539              	.LBE109:
 540              		.loc 1 228 0
 541 0028 28BF     		it	cs
 542 002a 2368     		ldrcs	r3, [r4]
 543              		.loc 1 226 0
 544 002c A260     		str	r2, [r4, #8]
 545              		.loc 1 230 0
 546 002e 04F11000 		add	r0, r4, #16
 547              		.loc 1 226 0
 548 0032 0D60     		str	r5, [r1]
 549              		.loc 1 228 0
 550 0034 28BF     		it	cs
 551 0036 A360     		strcs	r3, [r4, #8]
 552              		.loc 1 230 0
 553 0038 FFF7FEFF 		bl	chSemSignalI
 554              	.LVL43:
 555              		.loc 1 232 0
 556 003c 0020     		movs	r0, #0
 557 003e 38BD     		pop	{r3, r4, r5, pc}
 558              	.LVL44:
 559              	.L44:
 560              		.loc 1 219 0 discriminator 2
 561 0040 0348     		ldr	r0, .L45
 562 0042 FFF7FEFF 		bl	chSysHalt
 563              	.LVL45:
 564 0046 E1E7     		b	.L39
 565              	.LVL46:
 566              	.L42:
 567              		.loc 1 222 0
ARM GAS  C:\Users\jo\AppData\Local\Temp\ccOf6VFd.s 			page 11


 568 0048 4FF0FF30 		mov	r0, #-1
 569              		.loc 1 233 0
 570 004c 38BD     		pop	{r3, r4, r5, pc}
 571              	.LVL47:
 572              	.L46:
 573 004e 00BF     		.align	2
 574              	.L45:
 575 0050 00000000 		.word	.LANCHOR4
 576              		.cfi_endproc
 577              	.LFE233:
 578              		.size	chMBPostI, .-chMBPostI
 579 0054 AFF30080 		.section	.text.chMBPostAheadS,"ax",%progbits
 579      AFF30080 
 579      AFF30080 
 580              		.align	2
 581              		.p2align 4,,15
 582              		.global	chMBPostAheadS
 583              		.thumb
 584              		.thumb_func
 585              		.type	chMBPostAheadS, %function
 586              	chMBPostAheadS:
 587              	.LFB235:
 588              		.loc 1 283 0
 589              		.cfi_startproc
 590              		@ args = 0, pretend = 0, frame = 0
 591              		@ frame_needed = 0, uses_anonymous_args = 0
 592              	.LVL48:
 593 0000 70B5     		push	{r4, r5, r6, lr}
 594              		.cfi_def_cfa_offset 16
 595              		.cfi_offset 4, -16
 596              		.cfi_offset 5, -12
 597              		.cfi_offset 6, -8
 598              		.cfi_offset 14, -4
 599              		.loc 1 283 0
 600 0002 0446     		mov	r4, r0
 601 0004 0E46     		mov	r6, r1
 602 0006 1546     		mov	r5, r2
 603              		.loc 1 286 0
 604 0008 FFF7FEFF 		bl	chDbgCheckClassS
 605              	.LVL49:
 606              		.loc 1 287 0
 607 000c CCB1     		cbz	r4, .L52
 608              	.L48:
 609              		.loc 1 289 0
 610 000e 2946     		mov	r1, r5
 611 0010 04F11C00 		add	r0, r4, #28
 612 0014 FFF7FEFF 		bl	chSemWaitTimeoutS
 613              	.LVL50:
 614              		.loc 1 290 0
 615 0018 0546     		mov	r5, r0
 616              	.LVL51:
 617 001a 60B9     		cbnz	r0, .L49
 618              	.LVL52:
 619              	.LBB112:
 620              	.LBB113:
 621              		.loc 1 291 0
 622 001c E368     		ldr	r3, [r4, #12]
ARM GAS  C:\Users\jo\AppData\Local\Temp\ccOf6VFd.s 			page 12


 623 001e 2268     		ldr	r2, [r4]
 624 0020 043B     		subs	r3, r3, #4
 625 0022 9342     		cmp	r3, r2
 626 0024 E360     		str	r3, [r4, #12]
 627 0026 08D3     		bcc	.L53
 628              	.L50:
 629              		.loc 1 294 0
 630 0028 1E60     		str	r6, [r3]
 631              		.loc 1 295 0
 632 002a 04F11000 		add	r0, r4, #16
 633              	.LVL53:
 634 002e FFF7FEFF 		bl	chSemSignalI
 635              	.LVL54:
 636              		.loc 1 296 0
 637 0032 FFF7FEFF 		bl	chSchRescheduleS
 638              	.LVL55:
 639              	.L49:
 640              	.LBE113:
 641              	.LBE112:
 642              		.loc 1 300 0
 643 0036 2846     		mov	r0, r5
 644 0038 70BD     		pop	{r4, r5, r6, pc}
 645              	.LVL56:
 646              	.L53:
 647              	.LBB115:
 648              	.LBB114:
 649              		.loc 1 292 0
 650 003a 6368     		ldr	r3, [r4, #4]
 651 003c 043B     		subs	r3, r3, #4
 652 003e E360     		str	r3, [r4, #12]
 653 0040 F2E7     		b	.L50
 654              	.LVL57:
 655              	.L52:
 656              	.LBE114:
 657              	.LBE115:
 658              		.loc 1 287 0 discriminator 2
 659 0042 0248     		ldr	r0, .L54
 660 0044 FFF7FEFF 		bl	chSysHalt
 661              	.LVL58:
 662 0048 E1E7     		b	.L48
 663              	.L55:
 664 004a 00BF     		.align	2
 665              	.L54:
 666 004c 00000000 		.word	.LANCHOR5
 667              		.cfi_endproc
 668              	.LFE235:
 669              		.size	chMBPostAheadS, .-chMBPostAheadS
 670              		.section	.text.chMBPostAhead,"ax",%progbits
 671              		.align	2
 672              		.p2align 4,,15
 673              		.global	chMBPostAhead
 674              		.thumb
 675              		.thumb_func
 676              		.type	chMBPostAhead, %function
 677              	chMBPostAhead:
 678              	.LFB234:
 679              		.loc 1 254 0
ARM GAS  C:\Users\jo\AppData\Local\Temp\ccOf6VFd.s 			page 13


 680              		.cfi_startproc
 681              		@ args = 0, pretend = 0, frame = 0
 682              		@ frame_needed = 0, uses_anonymous_args = 0
 683              	.LVL59:
 684 0000 70B5     		push	{r4, r5, r6, lr}
 685              		.cfi_def_cfa_offset 16
 686              		.cfi_offset 4, -16
 687              		.cfi_offset 5, -12
 688              		.cfi_offset 6, -8
 689              		.cfi_offset 14, -4
 690              	.LBB126:
 691              	.LBB127:
 692              	.LBB128:
 693              	.LBB129:
 694              	.LBB130:
 695              		.loc 2 546 0
 696 0002 2023     		movs	r3, #32
 697              	.LBE130:
 698              	.LBE129:
 699              	.LBE128:
 700              	.LBE127:
 701              	.LBE126:
 702              		.loc 1 254 0
 703 0004 0646     		mov	r6, r0
 704 0006 0D46     		mov	r5, r1
 705 0008 1446     		mov	r4, r2
 706              	.LBB135:
 707              	.LBB134:
 708              	.LBB133:
 709              	.LBB132:
 710              	.LBB131:
 711              		.loc 2 546 0
 712              	@ 546 "../../../os/ext/CMSIS/include/core_cmFunc.h" 1
 713 000a 83F31188 		MSR basepri, r3
 714              	@ 0 "" 2
 715              		.thumb
 716              	.LBE131:
 717              	.LBE132:
 718              	.LBE133:
 719              		.loc 3 350 0
 720 000e FFF7FEFF 		bl	_dbg_check_lock
 721              	.LVL60:
 722              	.LBE134:
 723              	.LBE135:
 724              		.loc 1 258 0
 725 0012 2246     		mov	r2, r4
 726 0014 2946     		mov	r1, r5
 727 0016 3046     		mov	r0, r6
 728 0018 FFF7FEFF 		bl	chMBPostAheadS
 729              	.LVL61:
 730 001c 0446     		mov	r4, r0
 731              	.LVL62:
 732              	.LBB136:
 733              	.LBB137:
 734              		.loc 3 360 0
 735 001e FFF7FEFF 		bl	_dbg_check_unlock
 736              	.LVL63:
ARM GAS  C:\Users\jo\AppData\Local\Temp\ccOf6VFd.s 			page 14


 737              		.loc 3 367 0
 738 0022 084B     		ldr	r3, .L59
 739 0024 1A68     		ldr	r2, [r3]
 740 0026 9A42     		cmp	r2, r3
 741 0028 07D0     		beq	.L57
 742 002a 9969     		ldr	r1, [r3, #24]
 743 002c 9368     		ldr	r3, [r2, #8]
 744 002e 8A68     		ldr	r2, [r1, #8]
 745 0030 9A42     		cmp	r2, r3
 746 0032 02D2     		bcs	.L57
 747 0034 0448     		ldr	r0, .L59+4
 748 0036 FFF7FEFF 		bl	chSysHalt
 749              	.LVL64:
 750              	.L57:
 751              	.LBB138:
 752              	.LBB139:
 753              	.LBB140:
 754              		.loc 2 546 0
 755 003a 0023     		movs	r3, #0
 756              	@ 546 "../../../os/ext/CMSIS/include/core_cmFunc.h" 1
 757 003c 83F31188 		MSR basepri, r3
 758              	@ 0 "" 2
 759              		.thumb
 760              	.LBE140:
 761              	.LBE139:
 762              	.LBE138:
 763              	.LBE137:
 764              	.LBE136:
 765              		.loc 1 262 0
 766 0040 2046     		mov	r0, r4
 767 0042 70BD     		pop	{r4, r5, r6, pc}
 768              	.LVL65:
 769              	.L60:
 770              		.align	2
 771              	.L59:
 772 0044 00000000 		.word	ch
 773 0048 00000000 		.word	.LANCHOR2
 774              		.cfi_endproc
 775              	.LFE234:
 776              		.size	chMBPostAhead, .-chMBPostAhead
 777 004c AFF30080 		.section	.text.chMBPostAheadI,"ax",%progbits
 778              		.align	2
 779              		.p2align 4,,15
 780              		.global	chMBPostAheadI
 781              		.thumb
 782              		.thumb_func
 783              		.type	chMBPostAheadI, %function
 784              	chMBPostAheadI:
 785              	.LFB236:
 786              		.loc 1 316 0
 787              		.cfi_startproc
 788              		@ args = 0, pretend = 0, frame = 0
 789              		@ frame_needed = 0, uses_anonymous_args = 0
 790              	.LVL66:
 791 0000 38B5     		push	{r3, r4, r5, lr}
 792              		.cfi_def_cfa_offset 16
 793              		.cfi_offset 3, -16
ARM GAS  C:\Users\jo\AppData\Local\Temp\ccOf6VFd.s 			page 15


 794              		.cfi_offset 4, -12
 795              		.cfi_offset 5, -8
 796              		.cfi_offset 14, -4
 797              		.loc 1 316 0
 798 0002 0446     		mov	r4, r0
 799 0004 0D46     		mov	r5, r1
 800              		.loc 1 318 0
 801 0006 FFF7FEFF 		bl	chDbgCheckClassI
 802              	.LVL67:
 803              		.loc 1 319 0
 804 000a CCB1     		cbz	r4, .L67
 805              	.L62:
 806              	.LVL68:
 807              	.LBB141:
 808              	.LBB142:
 809              		.loc 4 151 0
 810 000c FFF7FEFF 		bl	chDbgCheckClassI
 811              	.LVL69:
 812              	.LBE142:
 813              	.LBE141:
 814              		.loc 1 321 0
 815 0010 636A     		ldr	r3, [r4, #36]
 816 0012 002B     		cmp	r3, #0
 817 0014 18DD     		ble	.L65
 818              	.LVL70:
 819              	.LBB143:
 820              	.LBB144:
 821              		.loc 4 120 0
 822 0016 FFF7FEFF 		bl	chDbgCheckClassI
 823              	.LVL71:
 824              	.LBE144:
 825              	.LBE143:
 826              		.loc 1 325 0
 827 001a E368     		ldr	r3, [r4, #12]
 828              	.LBB148:
 829              	.LBB145:
 830              		.loc 4 122 0
 831 001c 626A     		ldr	r2, [r4, #36]
 832              	.LBE145:
 833              	.LBE148:
 834              		.loc 1 325 0
 835 001e 2168     		ldr	r1, [r4]
 836 0020 043B     		subs	r3, r3, #4
 837              	.LBB149:
 838              	.LBB146:
 839              		.loc 4 122 0
 840 0022 013A     		subs	r2, r2, #1
 841              	.LBE146:
 842              	.LBE149:
 843              		.loc 1 325 0
 844 0024 8B42     		cmp	r3, r1
 845              	.LBB150:
 846              	.LBB147:
 847              		.loc 4 122 0
 848 0026 6262     		str	r2, [r4, #36]
 849              	.LBE147:
 850              	.LBE150:
ARM GAS  C:\Users\jo\AppData\Local\Temp\ccOf6VFd.s 			page 16


 851              		.loc 1 325 0
 852 0028 E360     		str	r3, [r4, #12]
 853 002a 02D2     		bcs	.L64
 854              		.loc 1 326 0
 855 002c 6368     		ldr	r3, [r4, #4]
 856 002e 043B     		subs	r3, r3, #4
 857 0030 E360     		str	r3, [r4, #12]
 858              	.L64:
 859              		.loc 1 329 0
 860 0032 04F11000 		add	r0, r4, #16
 861              		.loc 1 328 0
 862 0036 1D60     		str	r5, [r3]
 863              		.loc 1 329 0
 864 0038 FFF7FEFF 		bl	chSemSignalI
 865              	.LVL72:
 866              		.loc 1 331 0
 867 003c 0020     		movs	r0, #0
 868 003e 38BD     		pop	{r3, r4, r5, pc}
 869              	.LVL73:
 870              	.L67:
 871              		.loc 1 319 0 discriminator 2
 872 0040 0348     		ldr	r0, .L68
 873 0042 FFF7FEFF 		bl	chSysHalt
 874              	.LVL74:
 875 0046 E1E7     		b	.L62
 876              	.LVL75:
 877              	.L65:
 878              		.loc 1 322 0
 879 0048 4FF0FF30 		mov	r0, #-1
 880              		.loc 1 332 0
 881 004c 38BD     		pop	{r3, r4, r5, pc}
 882              	.LVL76:
 883              	.L69:
 884 004e 00BF     		.align	2
 885              	.L68:
 886 0050 00000000 		.word	.LANCHOR6
 887              		.cfi_endproc
 888              	.LFE236:
 889              		.size	chMBPostAheadI, .-chMBPostAheadI
 890              		.section	.text.chMBFetchS,"ax",%progbits
 891              		.align	2
 892              		.p2align 4,,15
 893              		.global	chMBFetchS
 894              		.thumb
 895              		.thumb_func
 896              		.type	chMBFetchS, %function
 897              	chMBFetchS:
 898              	.LFB238:
 899              		.loc 1 382 0
 900              		.cfi_startproc
 901              		@ args = 0, pretend = 0, frame = 0
 902              		@ frame_needed = 0, uses_anonymous_args = 0
 903              	.LVL77:
 904 0000 70B5     		push	{r4, r5, r6, lr}
 905              		.cfi_def_cfa_offset 16
 906              		.cfi_offset 4, -16
 907              		.cfi_offset 5, -12
ARM GAS  C:\Users\jo\AppData\Local\Temp\ccOf6VFd.s 			page 17


 908              		.cfi_offset 6, -8
 909              		.cfi_offset 14, -4
 910              		.loc 1 382 0
 911 0002 0446     		mov	r4, r0
 912 0004 0E46     		mov	r6, r1
 913 0006 1546     		mov	r5, r2
 914              		.loc 1 385 0
 915 0008 FFF7FEFF 		bl	chDbgCheckClassS
 916              	.LVL78:
 917              		.loc 1 386 0
 918 000c D4B1     		cbz	r4, .L71
 919              		.loc 1 386 0 is_stmt 0 discriminator 3
 920 000e CEB1     		cbz	r6, .L71
 921              	.L72:
 922              		.loc 1 388 0 is_stmt 1
 923 0010 2946     		mov	r1, r5
 924 0012 04F11000 		add	r0, r4, #16
 925 0016 FFF7FEFF 		bl	chSemWaitTimeoutS
 926              	.LVL79:
 927              		.loc 1 389 0
 928 001a 0546     		mov	r5, r0
 929              	.LVL80:
 930 001c 80B9     		cbnz	r0, .L73
 931              	.LVL81:
 932              	.LBB153:
 933              	.LBB154:
 934              		.loc 1 390 0
 935 001e E368     		ldr	r3, [r4, #12]
 936              		.loc 1 391 0
 937 0020 6268     		ldr	r2, [r4, #4]
 938              		.loc 1 390 0
 939 0022 1968     		ldr	r1, [r3]
 940 0024 0433     		adds	r3, r3, #4
 941              		.loc 1 391 0
 942 0026 9342     		cmp	r3, r2
 943              		.loc 1 390 0
 944 0028 E360     		str	r3, [r4, #12]
 945              		.loc 1 392 0
 946 002a 28BF     		it	cs
 947 002c 2368     		ldrcs	r3, [r4]
 948              		.loc 1 390 0
 949 002e 3160     		str	r1, [r6]
 950              		.loc 1 394 0
 951 0030 04F11C00 		add	r0, r4, #28
 952              	.LVL82:
 953              		.loc 1 392 0
 954 0034 28BF     		it	cs
 955 0036 E360     		strcs	r3, [r4, #12]
 956              		.loc 1 394 0
 957 0038 FFF7FEFF 		bl	chSemSignalI
 958              	.LVL83:
 959              		.loc 1 395 0
 960 003c FFF7FEFF 		bl	chSchRescheduleS
 961              	.LVL84:
 962              	.L73:
 963              	.LBE154:
 964              	.LBE153:
ARM GAS  C:\Users\jo\AppData\Local\Temp\ccOf6VFd.s 			page 18


 965              		.loc 1 399 0
 966 0040 2846     		mov	r0, r5
 967 0042 70BD     		pop	{r4, r5, r6, pc}
 968              	.LVL85:
 969              	.L71:
 970              		.loc 1 386 0 discriminator 4
 971 0044 0148     		ldr	r0, .L79
 972 0046 FFF7FEFF 		bl	chSysHalt
 973              	.LVL86:
 974 004a E1E7     		b	.L72
 975              	.L80:
 976              		.align	2
 977              	.L79:
 978 004c 00000000 		.word	.LANCHOR7
 979              		.cfi_endproc
 980              	.LFE238:
 981              		.size	chMBFetchS, .-chMBFetchS
 982              		.section	.text.chMBFetch,"ax",%progbits
 983              		.align	2
 984              		.p2align 4,,15
 985              		.global	chMBFetch
 986              		.thumb
 987              		.thumb_func
 988              		.type	chMBFetch, %function
 989              	chMBFetch:
 990              	.LFB237:
 991              		.loc 1 353 0
 992              		.cfi_startproc
 993              		@ args = 0, pretend = 0, frame = 0
 994              		@ frame_needed = 0, uses_anonymous_args = 0
 995              	.LVL87:
 996 0000 70B5     		push	{r4, r5, r6, lr}
 997              		.cfi_def_cfa_offset 16
 998              		.cfi_offset 4, -16
 999              		.cfi_offset 5, -12
 1000              		.cfi_offset 6, -8
 1001              		.cfi_offset 14, -4
 1002              	.LBB165:
 1003              	.LBB166:
 1004              	.LBB167:
 1005              	.LBB168:
 1006              	.LBB169:
 1007              		.loc 2 546 0
 1008 0002 2023     		movs	r3, #32
 1009              	.LBE169:
 1010              	.LBE168:
 1011              	.LBE167:
 1012              	.LBE166:
 1013              	.LBE165:
 1014              		.loc 1 353 0
 1015 0004 0646     		mov	r6, r0
 1016 0006 0D46     		mov	r5, r1
 1017 0008 1446     		mov	r4, r2
 1018              	.LBB174:
 1019              	.LBB173:
 1020              	.LBB172:
 1021              	.LBB171:
ARM GAS  C:\Users\jo\AppData\Local\Temp\ccOf6VFd.s 			page 19


 1022              	.LBB170:
 1023              		.loc 2 546 0
 1024              	@ 546 "../../../os/ext/CMSIS/include/core_cmFunc.h" 1
 1025 000a 83F31188 		MSR basepri, r3
 1026              	@ 0 "" 2
 1027              		.thumb
 1028              	.LBE170:
 1029              	.LBE171:
 1030              	.LBE172:
 1031              		.loc 3 350 0
 1032 000e FFF7FEFF 		bl	_dbg_check_lock
 1033              	.LVL88:
 1034              	.LBE173:
 1035              	.LBE174:
 1036              		.loc 1 357 0
 1037 0012 2246     		mov	r2, r4
 1038 0014 2946     		mov	r1, r5
 1039 0016 3046     		mov	r0, r6
 1040 0018 FFF7FEFF 		bl	chMBFetchS
 1041              	.LVL89:
 1042 001c 0446     		mov	r4, r0
 1043              	.LVL90:
 1044              	.LBB175:
 1045              	.LBB176:
 1046              		.loc 3 360 0
 1047 001e FFF7FEFF 		bl	_dbg_check_unlock
 1048              	.LVL91:
 1049              		.loc 3 367 0
 1050 0022 084B     		ldr	r3, .L84
 1051 0024 1A68     		ldr	r2, [r3]
 1052 0026 9A42     		cmp	r2, r3
 1053 0028 07D0     		beq	.L82
 1054 002a 9969     		ldr	r1, [r3, #24]
 1055 002c 9368     		ldr	r3, [r2, #8]
 1056 002e 8A68     		ldr	r2, [r1, #8]
 1057 0030 9A42     		cmp	r2, r3
 1058 0032 02D2     		bcs	.L82
 1059 0034 0448     		ldr	r0, .L84+4
 1060 0036 FFF7FEFF 		bl	chSysHalt
 1061              	.LVL92:
 1062              	.L82:
 1063              	.LBB177:
 1064              	.LBB178:
 1065              	.LBB179:
 1066              		.loc 2 546 0
 1067 003a 0023     		movs	r3, #0
 1068              	@ 546 "../../../os/ext/CMSIS/include/core_cmFunc.h" 1
 1069 003c 83F31188 		MSR basepri, r3
 1070              	@ 0 "" 2
 1071              		.thumb
 1072              	.LBE179:
 1073              	.LBE178:
 1074              	.LBE177:
 1075              	.LBE176:
 1076              	.LBE175:
 1077              		.loc 1 361 0
 1078 0040 2046     		mov	r0, r4
ARM GAS  C:\Users\jo\AppData\Local\Temp\ccOf6VFd.s 			page 20


 1079 0042 70BD     		pop	{r4, r5, r6, pc}
 1080              	.LVL93:
 1081              	.L85:
 1082              		.align	2
 1083              	.L84:
 1084 0044 00000000 		.word	ch
 1085 0048 00000000 		.word	.LANCHOR2
 1086              		.cfi_endproc
 1087              	.LFE237:
 1088              		.size	chMBFetch, .-chMBFetch
 1089 004c AFF30080 		.section	.text.chMBFetchI,"ax",%progbits
 1090              		.align	2
 1091              		.p2align 4,,15
 1092              		.global	chMBFetchI
 1093              		.thumb
 1094              		.thumb_func
 1095              		.type	chMBFetchI, %function
 1096              	chMBFetchI:
 1097              	.LFB239:
 1098              		.loc 1 415 0
 1099              		.cfi_startproc
 1100              		@ args = 0, pretend = 0, frame = 0
 1101              		@ frame_needed = 0, uses_anonymous_args = 0
 1102              	.LVL94:
 1103 0000 38B5     		push	{r3, r4, r5, lr}
 1104              		.cfi_def_cfa_offset 16
 1105              		.cfi_offset 3, -16
 1106              		.cfi_offset 4, -12
 1107              		.cfi_offset 5, -8
 1108              		.cfi_offset 14, -4
 1109              		.loc 1 415 0
 1110 0002 0446     		mov	r4, r0
 1111 0004 0D46     		mov	r5, r1
 1112              		.loc 1 417 0
 1113 0006 FFF7FEFF 		bl	chDbgCheckClassI
 1114              	.LVL95:
 1115              		.loc 1 418 0
 1116 000a DCB1     		cbz	r4, .L87
 1117              		.loc 1 418 0 is_stmt 0 discriminator 3
 1118 000c D5B1     		cbz	r5, .L87
 1119              	.L88:
 1120              	.LVL96:
 1121              	.LBB180:
 1122              	.LBB181:
 1123              		.loc 4 151 0 is_stmt 1
 1124 000e FFF7FEFF 		bl	chDbgCheckClassI
 1125              	.LVL97:
 1126              	.LBE181:
 1127              	.LBE180:
 1128              		.loc 1 420 0
 1129 0012 A369     		ldr	r3, [r4, #24]
 1130 0014 002B     		cmp	r3, #0
 1131 0016 19DD     		ble	.L91
 1132              	.LVL98:
 1133              	.LBB182:
 1134              	.LBB183:
 1135              		.loc 4 120 0
ARM GAS  C:\Users\jo\AppData\Local\Temp\ccOf6VFd.s 			page 21


 1136 0018 FFF7FEFF 		bl	chDbgCheckClassI
 1137              	.LVL99:
 1138              		.loc 4 122 0
 1139 001c A269     		ldr	r2, [r4, #24]
 1140              	.LBE183:
 1141              	.LBE182:
 1142              		.loc 1 424 0
 1143 001e E368     		ldr	r3, [r4, #12]
 1144              		.loc 1 425 0
 1145 0020 6168     		ldr	r1, [r4, #4]
 1146              	.LBB185:
 1147              	.LBB184:
 1148              		.loc 4 122 0
 1149 0022 013A     		subs	r2, r2, #1
 1150 0024 A261     		str	r2, [r4, #24]
 1151              	.LBE184:
 1152              	.LBE185:
 1153              		.loc 1 424 0
 1154 0026 1A68     		ldr	r2, [r3]
 1155 0028 0433     		adds	r3, r3, #4
 1156              		.loc 1 425 0
 1157 002a 8B42     		cmp	r3, r1
 1158              		.loc 1 424 0
 1159 002c E360     		str	r3, [r4, #12]
 1160              		.loc 1 426 0
 1161 002e 28BF     		it	cs
 1162 0030 2368     		ldrcs	r3, [r4]
 1163              		.loc 1 424 0
 1164 0032 2A60     		str	r2, [r5]
 1165              		.loc 1 428 0
 1166 0034 04F11C00 		add	r0, r4, #28
 1167              		.loc 1 426 0
 1168 0038 28BF     		it	cs
 1169 003a E360     		strcs	r3, [r4, #12]
 1170              		.loc 1 428 0
 1171 003c FFF7FEFF 		bl	chSemSignalI
 1172              	.LVL100:
 1173              		.loc 1 430 0
 1174 0040 0020     		movs	r0, #0
 1175 0042 38BD     		pop	{r3, r4, r5, pc}
 1176              	.LVL101:
 1177              	.L87:
 1178              		.loc 1 418 0 discriminator 4
 1179 0044 0348     		ldr	r0, .L96
 1180 0046 FFF7FEFF 		bl	chSysHalt
 1181              	.LVL102:
 1182 004a E0E7     		b	.L88
 1183              	.LVL103:
 1184              	.L91:
 1185              		.loc 1 421 0
 1186 004c 4FF0FF30 		mov	r0, #-1
 1187              		.loc 1 431 0
 1188 0050 38BD     		pop	{r3, r4, r5, pc}
 1189              	.LVL104:
 1190              	.L97:
 1191 0052 00BF     		.align	2
 1192              	.L96:
ARM GAS  C:\Users\jo\AppData\Local\Temp\ccOf6VFd.s 			page 22


 1193 0054 00000000 		.word	.LANCHOR8
 1194              		.cfi_endproc
 1195              	.LFE239:
 1196              		.size	chMBFetchI, .-chMBFetchI
 1197 0058 AFF30080 		.section	.rodata.__func__.6548,"a",%progbits
 1197      AFF30080 
 1198              		.align	2
 1199              		.set	.LANCHOR0,. + 0
 1200              		.type	__func__.6548, %object
 1201              		.size	__func__.6548, 15
 1202              	__func__.6548:
 1203 0000 63684D42 		.ascii	"chMBObjectInit\000"
 1203      4F626A65 
 1203      6374496E 
 1203      697400
 1204 000f 00       		.section	.rodata.__func__.6604,"a",%progbits
 1205              		.align	2
 1206              		.set	.LANCHOR7,. + 0
 1207              		.type	__func__.6604, %object
 1208              		.size	__func__.6604, 11
 1209              	__func__.6604:
 1210 0000 63684D42 		.ascii	"chMBFetchS\000"
 1210      46657463 
 1210      685300
 1211 000b 00       		.section	.rodata.__func__.6555,"a",%progbits
 1212              		.align	2
 1213              		.set	.LANCHOR1,. + 0
 1214              		.type	__func__.6555, %object
 1215              		.size	__func__.6555, 11
 1216              	__func__.6555:
 1217 0000 63684D42 		.ascii	"chMBResetI\000"
 1217      52657365 
 1217      744900
 1218 000b 00       		.section	.rodata.__func__.6609,"a",%progbits
 1219              		.align	2
 1220              		.set	.LANCHOR8,. + 0
 1221              		.type	__func__.6609, %object
 1222              		.size	__func__.6609, 11
 1223              	__func__.6609:
 1224 0000 63684D42 		.ascii	"chMBFetchI\000"
 1224      46657463 
 1224      684900
 1225 000b 00       		.section	.rodata.__func__.6591,"a",%progbits
 1226              		.align	2
 1227              		.set	.LANCHOR6,. + 0
 1228              		.type	__func__.6591, %object
 1229              		.size	__func__.6591, 15
 1230              	__func__.6591:
 1231 0000 63684D42 		.ascii	"chMBPostAheadI\000"
 1231      506F7374 
 1231      41686561 
 1231      644900
 1232 000f 00       		.section	.rodata.__func__.6568,"a",%progbits
 1233              		.align	2
 1234              		.set	.LANCHOR3,. + 0
 1235              		.type	__func__.6568, %object
 1236              		.size	__func__.6568, 10
ARM GAS  C:\Users\jo\AppData\Local\Temp\ccOf6VFd.s 			page 23


 1237              	__func__.6568:
 1238 0000 63684D42 		.ascii	"chMBPostS\000"
 1238      506F7374 
 1238      5300
 1239 000a 0000     		.section	.rodata.__func__.5854,"a",%progbits
 1240              		.align	2
 1241              		.set	.LANCHOR2,. + 0
 1242              		.type	__func__.5854, %object
 1243              		.size	__func__.5854, 12
 1244              	__func__.5854:
 1245 0000 63685379 		.ascii	"chSysUnlock\000"
 1245      73556E6C 
 1245      6F636B00 
 1246              		.section	.rodata.__func__.6586,"a",%progbits
 1247              		.align	2
 1248              		.set	.LANCHOR5,. + 0
 1249              		.type	__func__.6586, %object
 1250              		.size	__func__.6586, 15
 1251              	__func__.6586:
 1252 0000 63684D42 		.ascii	"chMBPostAheadS\000"
 1252      506F7374 
 1252      41686561 
 1252      645300
 1253 000f 00       		.section	.rodata.__func__.6573,"a",%progbits
 1254              		.align	2
 1255              		.set	.LANCHOR4,. + 0
 1256              		.type	__func__.6573, %object
 1257              		.size	__func__.6573, 10
 1258              	__func__.6573:
 1259 0000 63684D42 		.ascii	"chMBPostI\000"
 1259      506F7374 
 1259      4900
 1260 000a 0000     		.text
 1261              	.Letext0:
 1262              		.file 5 "c:\\program files\\gnu tools arm embedded\\4.9 2014q4\\arm-none-eabi\\include\\machine\\_
 1263              		.file 6 "c:\\program files\\gnu tools arm embedded\\4.9 2014q4\\arm-none-eabi\\include\\stdint.h"
 1264              		.file 7 "../../../os/rt/ports/ARMCMx/compilers/GCC/chtypes.h"
 1265              		.file 8 "../../../os/rt/include/chsystypes.h"
 1266              		.file 9 "../../../os/rt/include/chschd.h"
 1267              		.file 10 "../../../os/rt/ports/ARMCMx/chcore.h"
 1268              		.file 11 "../../../os/rt/ports/ARMCMx/chcore_v7m.h"
 1269              		.file 12 "../../../os/rt/include/chdebug.h"
 1270              		.file 13 "../../../os/rt/include/chtm.h"
 1271              		.file 14 "../../../os/rt/include/chmtx.h"
 1272              		.file 15 "../../../os/rt/include/chmboxes.h"
 1273              		.file 16 "../../../os/ext/CMSIS/include/core_cm4.h"