ARM GAS  C:\Users\jo\AppData\Local\Temp\ccGI0iNg.s 			page 1


   1              		.syntax unified
   2              		.cpu cortex-m4
   3              		.fpu softvfp
   4              		.eabi_attribute 20, 1
   5              		.eabi_attribute 21, 1
   6              		.eabi_attribute 23, 3
   7              		.eabi_attribute 24, 1
   8              		.eabi_attribute 25, 1
   9              		.eabi_attribute 26, 1
  10              		.eabi_attribute 30, 2
  11              		.eabi_attribute 34, 1
  12              		.eabi_attribute 18, 4
  13              		.thumb
  14              		.file	"chmempools.c"
  15              		.text
  16              	.Ltext0:
  17              		.cfi_sections	.debug_frame
  18              		.section	.text.chPoolObjectInit,"ax",%progbits
  19              		.align	2
  20              		.p2align 4,,15
  21              		.global	chPoolObjectInit
  22              		.thumb
  23              		.thumb_func
  24              		.type	chPoolObjectInit, %function
  25              	chPoolObjectInit:
  26              	.LFB228:
  27              		.file 1 "../../../os/rt/src/chmempools.c"
  28              		.loc 1 75 0
  29              		.cfi_startproc
  30              		@ args = 0, pretend = 0, frame = 0
  31              		@ frame_needed = 0, uses_anonymous_args = 0
  32              	.LVL0:
  33 0000 70B5     		push	{r4, r5, r6, lr}
  34              		.cfi_def_cfa_offset 16
  35              		.cfi_offset 4, -16
  36              		.cfi_offset 5, -12
  37              		.cfi_offset 6, -8
  38              		.cfi_offset 14, -4
  39              		.loc 1 75 0
  40 0002 0D46     		mov	r5, r1
  41 0004 1646     		mov	r6, r2
  42              		.loc 1 77 0
  43 0006 0446     		mov	r4, r0
  44 0008 08B1     		cbz	r0, .L2
  45              		.loc 1 77 0 is_stmt 0 discriminator 3
  46 000a 0329     		cmp	r1, #3
  47 000c 02D8     		bhi	.L3
  48              	.L2:
  49              		.loc 1 77 0 discriminator 4
  50 000e 0348     		ldr	r0, .L9
  51              	.LVL1:
  52 0010 FFF7FEFF 		bl	chSysHalt
  53              	.LVL2:
  54              	.L3:
  55              		.loc 1 79 0 is_stmt 1
  56 0014 0023     		movs	r3, #0
  57 0016 84E86800 		stmia	r4, {r3, r5, r6}
ARM GAS  C:\Users\jo\AppData\Local\Temp\ccGI0iNg.s 			page 2


  58 001a 70BD     		pop	{r4, r5, r6, pc}
  59              	.LVL3:
  60              	.L10:
  61              		.align	2
  62              	.L9:
  63 001c 00000000 		.word	.LANCHOR0
  64              		.cfi_endproc
  65              	.LFE228:
  66              		.size	chPoolObjectInit, .-chPoolObjectInit
  67              		.section	.text.chPoolAllocI,"ax",%progbits
  68              		.align	2
  69              		.p2align 4,,15
  70              		.global	chPoolAllocI
  71              		.thumb
  72              		.thumb_func
  73              		.type	chPoolAllocI, %function
  74              	chPoolAllocI:
  75              	.LFB230:
  76              		.loc 1 120 0
  77              		.cfi_startproc
  78              		@ args = 0, pretend = 0, frame = 0
  79              		@ frame_needed = 0, uses_anonymous_args = 0
  80              	.LVL4:
  81 0000 10B5     		push	{r4, lr}
  82              		.cfi_def_cfa_offset 8
  83              		.cfi_offset 4, -8
  84              		.cfi_offset 14, -4
  85              		.loc 1 120 0
  86 0002 0446     		mov	r4, r0
  87              		.loc 1 123 0
  88 0004 FFF7FEFF 		bl	chDbgCheckClassI
  89              	.LVL5:
  90              		.loc 1 124 0
  91 0008 5CB1     		cbz	r4, .L19
  92              	.L12:
  93              		.loc 1 126 0
  94 000a 2068     		ldr	r0, [r4]
  95              	.LVL6:
  96              		.loc 1 128 0
  97 000c 10B1     		cbz	r0, .L13
  98              		.loc 1 129 0
  99 000e 0368     		ldr	r3, [r0]
 100 0010 2360     		str	r3, [r4]
 101 0012 10BD     		pop	{r4, pc}
 102              	.LVL7:
 103              	.L13:
 104              		.loc 1 131 0
 105 0014 A368     		ldr	r3, [r4, #8]
 106 0016 1BB1     		cbz	r3, .L14
 107              		.loc 1 132 0
 108 0018 6068     		ldr	r0, [r4, #4]
 109              	.LVL8:
 110              		.loc 1 137 0
 111 001a BDE81040 		pop	{r4, lr}
 112              		.cfi_remember_state
 113              		.cfi_restore 14
 114              		.cfi_restore 4
ARM GAS  C:\Users\jo\AppData\Local\Temp\ccGI0iNg.s 			page 3


 115              		.cfi_def_cfa_offset 0
 116              	.LVL9:
 117              		.loc 1 132 0
 118 001e 1847     		bx	r3
 119              	.LVL10:
 120              	.L14:
 121              		.cfi_restore_state
 122              		.loc 1 137 0
 123 0020 10BD     		pop	{r4, pc}
 124              	.LVL11:
 125              	.L19:
 126              		.loc 1 124 0 discriminator 2
 127 0022 0248     		ldr	r0, .L20
 128 0024 FFF7FEFF 		bl	chSysHalt
 129              	.LVL12:
 130 0028 EFE7     		b	.L12
 131              	.L21:
 132 002a 00BF     		.align	2
 133              	.L20:
 134 002c 00000000 		.word	.LANCHOR1
 135              		.cfi_endproc
 136              	.LFE230:
 137              		.size	chPoolAllocI, .-chPoolAllocI
 138              		.section	.text.chPoolAlloc,"ax",%progbits
 139              		.align	2
 140              		.p2align 4,,15
 141              		.global	chPoolAlloc
 142              		.thumb
 143              		.thumb_func
 144              		.type	chPoolAlloc, %function
 145              	chPoolAlloc:
 146              	.LFB231:
 147              		.loc 1 149 0
 148              		.cfi_startproc
 149              		@ args = 0, pretend = 0, frame = 0
 150              		@ frame_needed = 0, uses_anonymous_args = 0
 151              	.LVL13:
 152 0000 10B5     		push	{r4, lr}
 153              		.cfi_def_cfa_offset 8
 154              		.cfi_offset 4, -8
 155              		.cfi_offset 14, -4
 156              	.LBB36:
 157              	.LBB37:
 158              	.LBB38:
 159              	.LBB39:
 160              	.LBB40:
 161              		.file 2 "../../../os/ext/CMSIS/include/core_cmFunc.h"
 162              		.loc 2 546 0
 163 0002 2023     		movs	r3, #32
 164              	.LBE40:
 165              	.LBE39:
 166              	.LBE38:
 167              	.LBE37:
 168              	.LBE36:
 169              		.loc 1 149 0
 170 0004 0446     		mov	r4, r0
 171              	.LBB45:
ARM GAS  C:\Users\jo\AppData\Local\Temp\ccGI0iNg.s 			page 4


 172              	.LBB44:
 173              	.LBB43:
 174              	.LBB42:
 175              	.LBB41:
 176              		.loc 2 546 0
 177              	@ 546 "../../../os/ext/CMSIS/include/core_cmFunc.h" 1
 178 0006 83F31188 		MSR basepri, r3
 179              	@ 0 "" 2
 180              		.thumb
 181              	.LBE41:
 182              	.LBE42:
 183              	.LBE43:
 184              		.file 3 "../../../os/rt/include/chsys.h"
 185              		.loc 3 350 0
 186 000a FFF7FEFF 		bl	_dbg_check_lock
 187              	.LVL14:
 188              	.LBE44:
 189              	.LBE45:
 190              		.loc 1 153 0
 191 000e 2046     		mov	r0, r4
 192 0010 FFF7FEFF 		bl	chPoolAllocI
 193              	.LVL15:
 194 0014 0446     		mov	r4, r0
 195              	.LVL16:
 196              	.LBB46:
 197              	.LBB47:
 198              		.loc 3 360 0
 199 0016 FFF7FEFF 		bl	_dbg_check_unlock
 200              	.LVL17:
 201              		.loc 3 367 0
 202 001a 084B     		ldr	r3, .L25
 203 001c 1A68     		ldr	r2, [r3]
 204 001e 9A42     		cmp	r2, r3
 205 0020 07D0     		beq	.L23
 206 0022 9969     		ldr	r1, [r3, #24]
 207 0024 9368     		ldr	r3, [r2, #8]
 208 0026 8A68     		ldr	r2, [r1, #8]
 209 0028 9A42     		cmp	r2, r3
 210 002a 02D2     		bcs	.L23
 211 002c 0448     		ldr	r0, .L25+4
 212 002e FFF7FEFF 		bl	chSysHalt
 213              	.LVL18:
 214              	.L23:
 215              	.LBB48:
 216              	.LBB49:
 217              	.LBB50:
 218              		.loc 2 546 0
 219 0032 0023     		movs	r3, #0
 220              	@ 546 "../../../os/ext/CMSIS/include/core_cmFunc.h" 1
 221 0034 83F31188 		MSR basepri, r3
 222              	@ 0 "" 2
 223              		.thumb
 224              	.LBE50:
 225              	.LBE49:
 226              	.LBE48:
 227              	.LBE47:
 228              	.LBE46:
ARM GAS  C:\Users\jo\AppData\Local\Temp\ccGI0iNg.s 			page 5


 229              		.loc 1 157 0
 230 0038 2046     		mov	r0, r4
 231 003a 10BD     		pop	{r4, pc}
 232              	.LVL19:
 233              	.L26:
 234              		.align	2
 235              	.L25:
 236 003c 00000000 		.word	ch
 237 0040 00000000 		.word	.LANCHOR2
 238              		.cfi_endproc
 239              	.LFE231:
 240              		.size	chPoolAlloc, .-chPoolAlloc
 241 0044 AFF30080 		.section	.text.chPoolFreeI,"ax",%progbits
 241      AFF30080 
 241      AFF30080 
 242              		.align	2
 243              		.p2align 4,,15
 244              		.global	chPoolFreeI
 245              		.thumb
 246              		.thumb_func
 247              		.type	chPoolFreeI, %function
 248              	chPoolFreeI:
 249              	.LFB232:
 250              		.loc 1 171 0
 251              		.cfi_startproc
 252              		@ args = 0, pretend = 0, frame = 0
 253              		@ frame_needed = 0, uses_anonymous_args = 0
 254              	.LVL20:
 255 0000 38B5     		push	{r3, r4, r5, lr}
 256              		.cfi_def_cfa_offset 16
 257              		.cfi_offset 3, -16
 258              		.cfi_offset 4, -12
 259              		.cfi_offset 5, -8
 260              		.cfi_offset 14, -4
 261              		.loc 1 171 0
 262 0002 0446     		mov	r4, r0
 263 0004 0D46     		mov	r5, r1
 264              	.LVL21:
 265              		.loc 1 174 0
 266 0006 FFF7FEFF 		bl	chDbgCheckClassI
 267              	.LVL22:
 268              		.loc 1 175 0
 269 000a 24B1     		cbz	r4, .L28
 270              		.loc 1 175 0 is_stmt 0 discriminator 3
 271 000c 1DB1     		cbz	r5, .L28
 272              		.loc 1 177 0 is_stmt 1
 273 000e 2368     		ldr	r3, [r4]
 274 0010 2B60     		str	r3, [r5]
 275              		.loc 1 178 0
 276 0012 2560     		str	r5, [r4]
 277 0014 38BD     		pop	{r3, r4, r5, pc}
 278              	.LVL23:
 279              	.L28:
 280              		.loc 1 175 0 discriminator 4
 281 0016 0348     		ldr	r0, .L34
 282 0018 FFF7FEFF 		bl	chSysHalt
 283              	.LVL24:
ARM GAS  C:\Users\jo\AppData\Local\Temp\ccGI0iNg.s 			page 6


 284              		.loc 1 177 0 discriminator 4
 285 001c 2368     		ldr	r3, [r4]
 286 001e 2B60     		str	r3, [r5]
 287              		.loc 1 178 0 discriminator 4
 288 0020 2560     		str	r5, [r4]
 289 0022 38BD     		pop	{r3, r4, r5, pc}
 290              	.LVL25:
 291              	.L35:
 292              		.align	2
 293              	.L34:
 294 0024 00000000 		.word	.LANCHOR3
 295              		.cfi_endproc
 296              	.LFE232:
 297              		.size	chPoolFreeI, .-chPoolFreeI
 298 0028 AFF30080 		.section	.text.chPoolFree,"ax",%progbits
 298      AFF30080 
 299              		.align	2
 300              		.p2align 4,,15
 301              		.global	chPoolFree
 302              		.thumb
 303              		.thumb_func
 304              		.type	chPoolFree, %function
 305              	chPoolFree:
 306              	.LFB233:
 307              		.loc 1 193 0
 308              		.cfi_startproc
 309              		@ args = 0, pretend = 0, frame = 0
 310              		@ frame_needed = 0, uses_anonymous_args = 0
 311              	.LVL26:
 312 0000 38B5     		push	{r3, r4, r5, lr}
 313              		.cfi_def_cfa_offset 16
 314              		.cfi_offset 3, -16
 315              		.cfi_offset 4, -12
 316              		.cfi_offset 5, -8
 317              		.cfi_offset 14, -4
 318              		.loc 1 193 0
 319 0002 0546     		mov	r5, r0
 320 0004 0C46     		mov	r4, r1
 321              	.LBB61:
 322              	.LBB62:
 323              	.LBB63:
 324              	.LBB64:
 325              	.LBB65:
 326              		.loc 2 546 0
 327 0006 2023     		movs	r3, #32
 328              	@ 546 "../../../os/ext/CMSIS/include/core_cmFunc.h" 1
 329 0008 83F31188 		MSR basepri, r3
 330              	@ 0 "" 2
 331              		.thumb
 332              	.LBE65:
 333              	.LBE64:
 334              	.LBE63:
 335              		.loc 3 350 0
 336 000c FFF7FEFF 		bl	_dbg_check_lock
 337              	.LVL27:
 338              	.LBE62:
 339              	.LBE61:
ARM GAS  C:\Users\jo\AppData\Local\Temp\ccGI0iNg.s 			page 7


 340              		.loc 1 196 0
 341 0010 2846     		mov	r0, r5
 342 0012 2146     		mov	r1, r4
 343 0014 FFF7FEFF 		bl	chPoolFreeI
 344              	.LVL28:
 345              	.LBB66:
 346              	.LBB67:
 347              		.loc 3 360 0
 348 0018 FFF7FEFF 		bl	_dbg_check_unlock
 349              	.LVL29:
 350              		.loc 3 367 0
 351 001c 074B     		ldr	r3, .L39
 352 001e 1A68     		ldr	r2, [r3]
 353 0020 9A42     		cmp	r2, r3
 354 0022 07D0     		beq	.L37
 355 0024 9969     		ldr	r1, [r3, #24]
 356 0026 9368     		ldr	r3, [r2, #8]
 357 0028 8A68     		ldr	r2, [r1, #8]
 358 002a 9A42     		cmp	r2, r3
 359 002c 02D2     		bcs	.L37
 360 002e 0448     		ldr	r0, .L39+4
 361 0030 FFF7FEFF 		bl	chSysHalt
 362              	.LVL30:
 363              	.L37:
 364              	.LBB68:
 365              	.LBB69:
 366              	.LBB70:
 367              		.loc 2 546 0
 368 0034 0023     		movs	r3, #0
 369              	@ 546 "../../../os/ext/CMSIS/include/core_cmFunc.h" 1
 370 0036 83F31188 		MSR basepri, r3
 371              	@ 0 "" 2
 372              		.thumb
 373 003a 38BD     		pop	{r3, r4, r5, pc}
 374              	.LVL31:
 375              	.L40:
 376              		.align	2
 377              	.L39:
 378 003c 00000000 		.word	ch
 379 0040 00000000 		.word	.LANCHOR2
 380              	.LBE70:
 381              	.LBE69:
 382              	.LBE68:
 383              	.LBE67:
 384              	.LBE66:
 385              		.cfi_endproc
 386              	.LFE233:
 387              		.size	chPoolFree, .-chPoolFree
 388 0044 AFF30080 		.section	.text.chPoolLoadArray,"ax",%progbits
 388      AFF30080 
 388      AFF30080 
 389              		.align	2
 390              		.p2align 4,,15
 391              		.global	chPoolLoadArray
 392              		.thumb
 393              		.thumb_func
 394              		.type	chPoolLoadArray, %function
ARM GAS  C:\Users\jo\AppData\Local\Temp\ccGI0iNg.s 			page 8


 395              	chPoolLoadArray:
 396              	.LFB229:
 397              		.loc 1 97 0
 398              		.cfi_startproc
 399              		@ args = 0, pretend = 0, frame = 0
 400              		@ frame_needed = 0, uses_anonymous_args = 0
 401              	.LVL32:
 402 0000 70B5     		push	{r4, r5, r6, lr}
 403              		.cfi_def_cfa_offset 16
 404              		.cfi_offset 4, -16
 405              		.cfi_offset 5, -12
 406              		.cfi_offset 6, -8
 407              		.cfi_offset 14, -4
 408              		.loc 1 97 0
 409 0002 0D46     		mov	r5, r1
 410 0004 1446     		mov	r4, r2
 411              		.loc 1 99 0
 412 0006 0646     		mov	r6, r0
 413 0008 28B1     		cbz	r0, .L42
 414              		.loc 1 99 0 is_stmt 0 discriminator 3
 415 000a 42B9     		cbnz	r2, .L44
 416              		.loc 1 99 0
 417 000c 0948     		ldr	r0, .L49
 418              	.LVL33:
 419              		.loc 1 108 0 is_stmt 1
 420 000e BDE87040 		pop	{r4, r5, r6, lr}
 421              		.cfi_remember_state
 422              		.cfi_restore 14
 423              		.cfi_restore 6
 424              		.cfi_restore 5
 425              		.cfi_restore 4
 426              		.cfi_def_cfa_offset 0
 427              	.LVL34:
 428              		.loc 1 99 0
 429 0012 FFF7FEBF 		b	chSysHalt
 430              	.LVL35:
 431              	.L42:
 432              		.cfi_restore_state
 433              		.loc 1 99 0 is_stmt 0 discriminator 4
 434 0016 0748     		ldr	r0, .L49
 435              	.LVL36:
 436 0018 FFF7FEFF 		bl	chSysHalt
 437              	.LVL37:
 438              		.loc 1 101 0 is_stmt 1 discriminator 4
 439 001c 44B1     		cbz	r4, .L41
 440              	.LVL38:
 441              	.L44:
 442              	.LBB71:
 443              	.LBB72:
 444              		.file 4 "../../../os/rt/include/chmempools.h"
 445              		.loc 4 139 0
 446 001e 2946     		mov	r1, r5
 447 0020 3046     		mov	r0, r6
 448 0022 FFF7FEFF 		bl	chPoolFree
 449              	.LVL39:
 450              	.LBE72:
 451              	.LBE71:
ARM GAS  C:\Users\jo\AppData\Local\Temp\ccGI0iNg.s 			page 9


 452              		.loc 1 104 0
 453 0026 7368     		ldr	r3, [r6, #4]
 454              		.loc 1 101 0
 455 0028 013C     		subs	r4, r4, #1
 456              	.LVL40:
 457              		.loc 1 104 0
 458 002a 1D44     		add	r5, r5, r3
 459              	.LVL41:
 460              		.loc 1 101 0
 461 002c F7D1     		bne	.L44
 462 002e 70BD     		pop	{r4, r5, r6, pc}
 463              	.LVL42:
 464              	.L41:
 465 0030 70BD     		pop	{r4, r5, r6, pc}
 466              	.LVL43:
 467              	.L50:
 468 0032 00BF     		.align	2
 469              	.L49:
 470 0034 00000000 		.word	.LANCHOR4
 471              		.cfi_endproc
 472              	.LFE229:
 473              		.size	chPoolLoadArray, .-chPoolLoadArray
 474 0038 AFF30080 		.section	.rodata.__func__.6548,"a",%progbits
 474      AFF30080 
 475              		.align	2
 476              		.set	.LANCHOR0,. + 0
 477              		.type	__func__.6548, %object
 478              		.size	__func__.6548, 17
 479              	__func__.6548:
 480 0000 6368506F 		.ascii	"chPoolObjectInit\000"
 480      6F6C4F62 
 480      6A656374 
 480      496E6974 
 480      00
 481 0011 000000   		.section	.rodata.__func__.6554,"a",%progbits
 482              		.align	2
 483              		.set	.LANCHOR4,. + 0
 484              		.type	__func__.6554, %object
 485              		.size	__func__.6554, 16
 486              	__func__.6554:
 487 0000 6368506F 		.ascii	"chPoolLoadArray\000"
 487      6F6C4C6F 
 487      61644172 
 487      72617900 
 488              		.section	.rodata.__func__.6562,"a",%progbits
 489              		.align	2
 490              		.set	.LANCHOR1,. + 0
 491              		.type	__func__.6562, %object
 492              		.size	__func__.6562, 13
 493              	__func__.6562:
 494 0000 6368506F 		.ascii	"chPoolAllocI\000"
 494      6F6C416C 
 494      6C6F6349 
 494      00
 495 000d 000000   		.section	.rodata.__func__.6572,"a",%progbits
 496              		.align	2
 497              		.set	.LANCHOR3,. + 0
ARM GAS  C:\Users\jo\AppData\Local\Temp\ccGI0iNg.s 			page 10


 498              		.type	__func__.6572, %object
 499              		.size	__func__.6572, 12
 500              	__func__.6572:
 501 0000 6368506F 		.ascii	"chPoolFreeI\000"
 501      6F6C4672 
 501      65654900 
 502              		.section	.rodata.__func__.5854,"a",%progbits
 503              		.align	2
 504              		.set	.LANCHOR2,. + 0
 505              		.type	__func__.5854, %object
 506              		.size	__func__.5854, 12
 507              	__func__.5854:
 508 0000 63685379 		.ascii	"chSysUnlock\000"
 508      73556E6C 
 508      6F636B00 
 509              		.text
 510              	.Letext0:
 511              		.file 5 "c:\\program files\\gnu tools arm embedded\\4.9 2014q4\\lib\\gcc\\arm-none-eabi\\4.9.3\\in
 512              		.file 6 "c:\\program files\\gnu tools arm embedded\\4.9 2014q4\\arm-none-eabi\\include\\machine\\_
 513              		.file 7 "c:\\program files\\gnu tools arm embedded\\4.9 2014q4\\arm-none-eabi\\include\\stdint.h"
 514              		.file 8 "../../../os/rt/ports/ARMCMx/compilers/GCC/chtypes.h"
 515              		.file 9 "../../../os/rt/include/chsystypes.h"
 516              		.file 10 "../../../os/rt/include/chschd.h"
 517              		.file 11 "../../../os/rt/ports/ARMCMx/chcore.h"
 518              		.file 12 "../../../os/rt/ports/ARMCMx/chcore_v7m.h"
 519              		.file 13 "../../../os/rt/include/chdebug.h"
 520              		.file 14 "../../../os/rt/include/chtm.h"
 521              		.file 15 "../../../os/rt/include/chsem.h"
 522              		.file 16 "../../../os/rt/include/chmtx.h"
 523              		.file 17 "../../../os/rt/include/chmemcore.h"
 524              		.file 18 "../../../os/ext/CMSIS/include/core_cm4.h"
 525              		.section	.debug_info,"",%progbits
 526              	.Ldebug_info0:
 527 0000 630C0000 		.4byte	0xc63
 528 0004 0400     		.2byte	0x4
 529 0006 00000000 		.4byte	.Ldebug_abbrev0
 530 000a 04       		.byte	0x4
 531 000b 01       		.uleb128 0x1
 532 000c EC020000 		.4byte	.LASF142
 533 0010 01       		.byte	0x1
 534 0011 F9060000 		.4byte	.LASF143
 535 0015 F9000000 		.4byte	.LASF144
 536 0019 30000000 		.4byte	.Ldebug_ranges0+0x30
 537 001d 00000000 		.4byte	0
 538 0021 00000000 		.4byte	.Ldebug_line0
 539 0025 02       		.uleb128 0x2
 540 0026 04       		.byte	0x4
 541 0027 05       		.byte	0x5
 542 0028 696E7400 		.ascii	"int\000"
 543 002c 03       		.uleb128 0x3
 544 002d 1C000000 		.4byte	.LASF2
 545 0031 05       		.byte	0x5
 546 0032 D4       		.byte	0xd4
 547 0033 37000000 		.4byte	0x37
 548 0037 04       		.uleb128 0x4
 549 0038 04       		.byte	0x4
 550 0039 07       		.byte	0x7
ARM GAS  C:\Users\jo\AppData\Local\Temp\ccGI0iNg.s 			page 11


 551 003a 2A020000 		.4byte	.LASF0
 552 003e 04       		.uleb128 0x4
 553 003f 01       		.byte	0x1
 554 0040 06       		.byte	0x6
 555 0041 55010000 		.4byte	.LASF1
 556 0045 03       		.uleb128 0x3
 557 0046 33000000 		.4byte	.LASF3
 558 004a 06       		.byte	0x6
 559 004b 1D       		.byte	0x1d
 560 004c 50000000 		.4byte	0x50
 561 0050 04       		.uleb128 0x4
 562 0051 01       		.byte	0x1
 563 0052 08       		.byte	0x8
 564 0053 E2040000 		.4byte	.LASF4
 565 0057 04       		.uleb128 0x4
 566 0058 02       		.byte	0x2
 567 0059 05       		.byte	0x5
 568 005a FA040000 		.4byte	.LASF5
 569 005e 04       		.uleb128 0x4
 570 005f 02       		.byte	0x2
 571 0060 07       		.byte	0x7
 572 0061 65020000 		.4byte	.LASF6
 573 0065 03       		.uleb128 0x3
 574 0066 E2020000 		.4byte	.LASF7
 575 006a 06       		.byte	0x6
 576 006b 3F       		.byte	0x3f
 577 006c 70000000 		.4byte	0x70
 578 0070 04       		.uleb128 0x4
 579 0071 04       		.byte	0x4
 580 0072 05       		.byte	0x5
 581 0073 94010000 		.4byte	.LASF8
 582 0077 03       		.uleb128 0x3
 583 0078 E4050000 		.4byte	.LASF9
 584 007c 06       		.byte	0x6
 585 007d 41       		.byte	0x41
 586 007e 82000000 		.4byte	0x82
 587 0082 04       		.uleb128 0x4
 588 0083 04       		.byte	0x4
 589 0084 07       		.byte	0x7
 590 0085 93050000 		.4byte	.LASF10
 591 0089 04       		.uleb128 0x4
 592 008a 08       		.byte	0x8
 593 008b 05       		.byte	0x5
 594 008c 47010000 		.4byte	.LASF11
 595 0090 03       		.uleb128 0x3
 596 0091 86040000 		.4byte	.LASF12
 597 0095 06       		.byte	0x6
 598 0096 5B       		.byte	0x5b
 599 0097 9B000000 		.4byte	0x9b
 600 009b 04       		.uleb128 0x4
 601 009c 08       		.byte	0x8
 602 009d 07       		.byte	0x7
 603 009e 78000000 		.4byte	.LASF13
 604 00a2 03       		.uleb128 0x3
 605 00a3 6D060000 		.4byte	.LASF14
 606 00a7 07       		.byte	0x7
 607 00a8 15       		.byte	0x15
ARM GAS  C:\Users\jo\AppData\Local\Temp\ccGI0iNg.s 			page 12


 608 00a9 45000000 		.4byte	0x45
 609 00ad 03       		.uleb128 0x3
 610 00ae DA040000 		.4byte	.LASF15
 611 00b2 07       		.byte	0x7
 612 00b3 2C       		.byte	0x2c
 613 00b4 65000000 		.4byte	0x65
 614 00b8 03       		.uleb128 0x3
 615 00b9 62050000 		.4byte	.LASF16
 616 00bd 07       		.byte	0x7
 617 00be 2D       		.byte	0x2d
 618 00bf 77000000 		.4byte	0x77
 619 00c3 03       		.uleb128 0x3
 620 00c4 2A000000 		.4byte	.LASF17
 621 00c8 07       		.byte	0x7
 622 00c9 39       		.byte	0x39
 623 00ca 90000000 		.4byte	0x90
 624 00ce 05       		.uleb128 0x5
 625 00cf AD000000 		.4byte	0xad
 626 00d3 03       		.uleb128 0x3
 627 00d4 2D060000 		.4byte	.LASF18
 628 00d8 08       		.byte	0x8
 629 00d9 45       		.byte	0x45
 630 00da B8000000 		.4byte	0xb8
 631 00de 03       		.uleb128 0x3
 632 00df AF020000 		.4byte	.LASF19
 633 00e3 08       		.byte	0x8
 634 00e4 48       		.byte	0x48
 635 00e5 A2000000 		.4byte	0xa2
 636 00e9 03       		.uleb128 0x3
 637 00ea 9D010000 		.4byte	.LASF20
 638 00ee 08       		.byte	0x8
 639 00ef 49       		.byte	0x49
 640 00f0 A2000000 		.4byte	0xa2
 641 00f4 03       		.uleb128 0x3
 642 00f5 99040000 		.4byte	.LASF21
 643 00f9 08       		.byte	0x8
 644 00fa 4A       		.byte	0x4a
 645 00fb A2000000 		.4byte	0xa2
 646 00ff 03       		.uleb128 0x3
 647 0100 C2040000 		.4byte	.LASF22
 648 0104 08       		.byte	0x8
 649 0105 4C       		.byte	0x4c
 650 0106 B8000000 		.4byte	0xb8
 651 010a 03       		.uleb128 0x3
 652 010b 82020000 		.4byte	.LASF23
 653 010f 08       		.byte	0x8
 654 0110 4D       		.byte	0x4d
 655 0111 AD000000 		.4byte	0xad
 656 0115 03       		.uleb128 0x3
 657 0116 D6020000 		.4byte	.LASF24
 658 011a 08       		.byte	0x8
 659 011b 4F       		.byte	0x4f
 660 011c B8000000 		.4byte	0xb8
 661 0120 03       		.uleb128 0x3
 662 0121 19020000 		.4byte	.LASF25
 663 0125 08       		.byte	0x8
 664 0126 51       		.byte	0x51
ARM GAS  C:\Users\jo\AppData\Local\Temp\ccGI0iNg.s 			page 13


 665 0127 AD000000 		.4byte	0xad
 666 012b 03       		.uleb128 0x3
 667 012c C6050000 		.4byte	.LASF26
 668 0130 09       		.byte	0x9
 669 0131 33       		.byte	0x33
 670 0132 B8000000 		.4byte	0xb8
 671 0136 03       		.uleb128 0x3
 672 0137 B6050000 		.4byte	.LASF27
 673 013b 09       		.byte	0x9
 674 013c 3F       		.byte	0x3f
 675 013d 41010000 		.4byte	0x141
 676 0141 06       		.uleb128 0x6
 677 0142 78020000 		.4byte	.LASF48
 678 0146 48       		.byte	0x48
 679 0147 0A       		.byte	0xa
 680 0148 C2       		.byte	0xc2
 681 0149 3A020000 		.4byte	0x23a
 682 014d 07       		.uleb128 0x7
 683 014e 1A050000 		.4byte	.LASF28
 684 0152 0A       		.byte	0xa
 685 0153 C3       		.byte	0xc3
 686 0154 45020000 		.4byte	0x245
 687 0158 00       		.byte	0
 688 0159 07       		.uleb128 0x7
 689 015a BB040000 		.4byte	.LASF29
 690 015e 0A       		.byte	0xa
 691 015f C5       		.byte	0xc5
 692 0160 45020000 		.4byte	0x245
 693 0164 04       		.byte	0x4
 694 0165 07       		.uleb128 0x7
 695 0166 F2000000 		.4byte	.LASF30
 696 016a 0A       		.byte	0xa
 697 016b C7       		.byte	0xc7
 698 016c FF000000 		.4byte	0xff
 699 0170 08       		.byte	0x8
 700 0171 07       		.uleb128 0x7
 701 0172 23070000 		.4byte	.LASF31
 702 0176 0A       		.byte	0xa
 703 0177 C8       		.byte	0xc8
 704 0178 A0040000 		.4byte	0x4a0
 705 017c 0C       		.byte	0xc
 706 017d 07       		.uleb128 0x7
 707 017e AC010000 		.4byte	.LASF32
 708 0182 0A       		.byte	0xa
 709 0183 CA       		.byte	0xca
 710 0184 45020000 		.4byte	0x245
 711 0188 10       		.byte	0x10
 712 0189 07       		.uleb128 0x7
 713 018a 46040000 		.4byte	.LASF33
 714 018e 0A       		.byte	0xa
 715 018f CB       		.byte	0xcb
 716 0190 45020000 		.4byte	0x245
 717 0194 14       		.byte	0x14
 718 0195 07       		.uleb128 0x7
 719 0196 A5060000 		.4byte	.LASF34
 720 019a 0A       		.byte	0xa
 721 019b D2       		.byte	0xd2
ARM GAS  C:\Users\jo\AppData\Local\Temp\ccGI0iNg.s 			page 14


 722 019c B2060000 		.4byte	0x6b2
 723 01a0 18       		.byte	0x18
 724 01a1 07       		.uleb128 0x7
 725 01a2 1F020000 		.4byte	.LASF35
 726 01a6 0A       		.byte	0xa
 727 01a7 D8       		.byte	0xd8
 728 01a8 C4060000 		.4byte	0x6c4
 729 01ac 1C       		.byte	0x1c
 730 01ad 07       		.uleb128 0x7
 731 01ae 04050000 		.4byte	.LASF36
 732 01b2 0A       		.byte	0xa
 733 01b3 DD       		.byte	0xdd
 734 01b4 E9000000 		.4byte	0xe9
 735 01b8 20       		.byte	0x20
 736 01b9 07       		.uleb128 0x7
 737 01ba CD060000 		.4byte	.LASF37
 738 01be 0A       		.byte	0xa
 739 01bf E1       		.byte	0xe1
 740 01c0 DE000000 		.4byte	0xde
 741 01c4 21       		.byte	0x21
 742 01c5 07       		.uleb128 0x7
 743 01c6 58060000 		.4byte	.LASF38
 744 01ca 0A       		.byte	0xa
 745 01cb E6       		.byte	0xe6
 746 01cc F4000000 		.4byte	0xf4
 747 01d0 22       		.byte	0x22
 748 01d1 08       		.uleb128 0x8
 749 01d2 705F7500 		.ascii	"p_u\000"
 750 01d6 0A       		.byte	0xa
 751 01d7 3101     		.2byte	0x131
 752 01d9 ED050000 		.4byte	0x5ed
 753 01dd 24       		.byte	0x24
 754 01de 09       		.uleb128 0x9
 755 01df D1030000 		.4byte	.LASF39
 756 01e3 0A       		.byte	0xa
 757 01e4 3601     		.2byte	0x136
 758 01e6 4B020000 		.4byte	0x24b
 759 01ea 28       		.byte	0x28
 760 01eb 09       		.uleb128 0x9
 761 01ec 46020000 		.4byte	.LASF40
 762 01f0 0A       		.byte	0xa
 763 01f1 3C01     		.2byte	0x13c
 764 01f3 6F020000 		.4byte	0x26f
 765 01f7 2C       		.byte	0x2c
 766 01f8 09       		.uleb128 0x9
 767 01f9 27060000 		.4byte	.LASF41
 768 01fd 0A       		.byte	0xa
 769 01fe 4001     		.2byte	0x140
 770 0200 0A010000 		.4byte	0x10a
 771 0204 34       		.byte	0x34
 772 0205 09       		.uleb128 0x9
 773 0206 57050000 		.4byte	.LASF42
 774 020a 0A       		.byte	0xa
 775 020b 4601     		.2byte	0x146
 776 020d 15010000 		.4byte	0x115
 777 0211 38       		.byte	0x38
 778 0212 09       		.uleb128 0x9
ARM GAS  C:\Users\jo\AppData\Local\Temp\ccGI0iNg.s 			page 15


 779 0213 F0040000 		.4byte	.LASF43
 780 0217 0A       		.byte	0xa
 781 0218 4D01     		.2byte	0x14d
 782 021a AC060000 		.4byte	0x6ac
 783 021e 3C       		.byte	0x3c
 784 021f 09       		.uleb128 0x9
 785 0220 D0050000 		.4byte	.LASF44
 786 0224 0A       		.byte	0xa
 787 0225 5101     		.2byte	0x151
 788 0227 FF000000 		.4byte	0xff
 789 022b 40       		.byte	0x40
 790 022c 09       		.uleb128 0x9
 791 022d 61010000 		.4byte	.LASF45
 792 0231 0A       		.byte	0xa
 793 0232 5801     		.2byte	0x158
 794 0234 22030000 		.4byte	0x322
 795 0238 44       		.byte	0x44
 796 0239 00       		.byte	0
 797 023a 03       		.uleb128 0x3
 798 023b E4030000 		.4byte	.LASF46
 799 023f 09       		.byte	0x9
 800 0240 44       		.byte	0x44
 801 0241 45020000 		.4byte	0x245
 802 0245 0A       		.uleb128 0xa
 803 0246 04       		.byte	0x4
 804 0247 36010000 		.4byte	0x136
 805 024b 03       		.uleb128 0x3
 806 024c B1060000 		.4byte	.LASF47
 807 0250 09       		.byte	0x9
 808 0251 49       		.byte	0x49
 809 0252 56020000 		.4byte	0x256
 810 0256 06       		.uleb128 0x6
 811 0257 83050000 		.4byte	.LASF49
 812 025b 04       		.byte	0x4
 813 025c 0A       		.byte	0xa
 814 025d B0       		.byte	0xb0
 815 025e 6F020000 		.4byte	0x26f
 816 0262 07       		.uleb128 0x7
 817 0263 1A050000 		.4byte	.LASF28
 818 0267 0A       		.byte	0xa
 819 0268 B1       		.byte	0xb1
 820 0269 45020000 		.4byte	0x245
 821 026d 00       		.byte	0
 822 026e 00       		.byte	0
 823 026f 03       		.uleb128 0x3
 824 0270 3C060000 		.4byte	.LASF50
 825 0274 09       		.byte	0x9
 826 0275 50       		.byte	0x50
 827 0276 7A020000 		.4byte	0x27a
 828 027a 06       		.uleb128 0x6
 829 027b E1000000 		.4byte	.LASF51
 830 027f 08       		.byte	0x8
 831 0280 0A       		.byte	0xa
 832 0281 B7       		.byte	0xb7
 833 0282 9F020000 		.4byte	0x29f
 834 0286 07       		.uleb128 0x7
 835 0287 1A050000 		.4byte	.LASF28
ARM GAS  C:\Users\jo\AppData\Local\Temp\ccGI0iNg.s 			page 16


 836 028b 0A       		.byte	0xa
 837 028c B8       		.byte	0xb8
 838 028d 45020000 		.4byte	0x245
 839 0291 00       		.byte	0
 840 0292 07       		.uleb128 0x7
 841 0293 BB040000 		.4byte	.LASF29
 842 0297 0A       		.byte	0xa
 843 0298 B9       		.byte	0xb9
 844 0299 45020000 		.4byte	0x245
 845 029d 04       		.byte	0x4
 846 029e 00       		.byte	0
 847 029f 03       		.uleb128 0x3
 848 02a0 07000000 		.4byte	.LASF52
 849 02a4 09       		.byte	0x9
 850 02a5 57       		.byte	0x57
 851 02a6 AA020000 		.4byte	0x2aa
 852 02aa 0B       		.uleb128 0xb
 853 02ab C8020000 		.4byte	.LASF53
 854 02af 1C       		.byte	0x1c
 855 02b0 0A       		.byte	0xa
 856 02b1 9001     		.2byte	0x190
 857 02b3 06030000 		.4byte	0x306
 858 02b7 09       		.uleb128 0x9
 859 02b8 72050000 		.4byte	.LASF54
 860 02bc 0A       		.byte	0xa
 861 02bd 9101     		.2byte	0x191
 862 02bf 6F020000 		.4byte	0x26f
 863 02c3 00       		.byte	0
 864 02c4 09       		.uleb128 0x9
 865 02c5 0C050000 		.4byte	.LASF55
 866 02c9 0A       		.byte	0xa
 867 02ca 9201     		.2byte	0x192
 868 02cc FF000000 		.4byte	0xff
 869 02d0 08       		.byte	0x8
 870 02d1 09       		.uleb128 0x9
 871 02d2 4E040000 		.4byte	.LASF56
 872 02d6 0A       		.byte	0xa
 873 02d7 9401     		.2byte	0x194
 874 02d9 A0040000 		.4byte	0x4a0
 875 02dd 0C       		.byte	0xc
 876 02de 09       		.uleb128 0x9
 877 02df C4010000 		.4byte	.LASF57
 878 02e3 0A       		.byte	0xa
 879 02e4 9701     		.2byte	0x197
 880 02e6 45020000 		.4byte	0x245
 881 02ea 10       		.byte	0x10
 882 02eb 09       		.uleb128 0x9
 883 02ec 7E040000 		.4byte	.LASF58
 884 02f0 0A       		.byte	0xa
 885 02f1 9801     		.2byte	0x198
 886 02f3 45020000 		.4byte	0x245
 887 02f7 14       		.byte	0x14
 888 02f8 09       		.uleb128 0x9
 889 02f9 74040000 		.4byte	.LASF59
 890 02fd 0A       		.byte	0xa
 891 02fe 9B01     		.2byte	0x19b
 892 0300 45020000 		.4byte	0x245
ARM GAS  C:\Users\jo\AppData\Local\Temp\ccGI0iNg.s 			page 17


 893 0304 18       		.byte	0x18
 894 0305 00       		.byte	0
 895 0306 03       		.uleb128 0x3
 896 0307 DB050000 		.4byte	.LASF60
 897 030b 09       		.byte	0x9
 898 030c 5C       		.byte	0x5c
 899 030d 11030000 		.4byte	0x311
 900 0311 0A       		.uleb128 0xa
 901 0312 04       		.byte	0x4
 902 0313 17030000 		.4byte	0x317
 903 0317 0C       		.uleb128 0xc
 904 0318 22030000 		.4byte	0x322
 905 031c 0D       		.uleb128 0xd
 906 031d 22030000 		.4byte	0x322
 907 0321 00       		.byte	0
 908 0322 0E       		.uleb128 0xe
 909 0323 04       		.byte	0x4
 910 0324 03       		.uleb128 0x3
 911 0325 AB040000 		.4byte	.LASF61
 912 0329 09       		.byte	0x9
 913 032a 61       		.byte	0x61
 914 032b 2F030000 		.4byte	0x32f
 915 032f 0B       		.uleb128 0xb
 916 0330 39050000 		.4byte	.LASF62
 917 0334 14       		.byte	0x14
 918 0335 0A       		.byte	0xa
 919 0336 6B01     		.2byte	0x16b
 920 0338 7E030000 		.4byte	0x37e
 921 033c 09       		.uleb128 0x9
 922 033d 37020000 		.4byte	.LASF63
 923 0341 0A       		.byte	0xa
 924 0342 6C01     		.2byte	0x16c
 925 0344 CA060000 		.4byte	0x6ca
 926 0348 00       		.byte	0
 927 0349 09       		.uleb128 0x9
 928 034a E1010000 		.4byte	.LASF64
 929 034e 0A       		.byte	0xa
 930 034f 6D01     		.2byte	0x16d
 931 0351 CA060000 		.4byte	0x6ca
 932 0355 04       		.byte	0x4
 933 0356 09       		.uleb128 0x9
 934 0357 7A050000 		.4byte	.LASF65
 935 035b 0A       		.byte	0xa
 936 035c 6E01     		.2byte	0x16e
 937 035e 2B010000 		.4byte	0x12b
 938 0362 08       		.byte	0x8
 939 0363 09       		.uleb128 0x9
 940 0364 29070000 		.4byte	.LASF66
 941 0368 0A       		.byte	0xa
 942 0369 6F01     		.2byte	0x16f
 943 036b 06030000 		.4byte	0x306
 944 036f 0C       		.byte	0xc
 945 0370 09       		.uleb128 0x9
 946 0371 35060000 		.4byte	.LASF67
 947 0375 0A       		.byte	0xa
 948 0376 7101     		.2byte	0x171
 949 0378 22030000 		.4byte	0x322
ARM GAS  C:\Users\jo\AppData\Local\Temp\ccGI0iNg.s 			page 18


 950 037c 10       		.byte	0x10
 951 037d 00       		.byte	0
 952 037e 03       		.uleb128 0x3
 953 037f BE000000 		.4byte	.LASF68
 954 0383 09       		.byte	0x9
 955 0384 66       		.byte	0x66
 956 0385 89030000 		.4byte	0x389
 957 0389 0B       		.uleb128 0xb
 958 038a 07040000 		.4byte	.LASF69
 959 038e 10       		.byte	0x10
 960 038f 0A       		.byte	0xa
 961 0390 7B01     		.2byte	0x17b
 962 0392 CB030000 		.4byte	0x3cb
 963 0396 09       		.uleb128 0x9
 964 0397 37020000 		.4byte	.LASF63
 965 039b 0A       		.byte	0xa
 966 039c 7C01     		.2byte	0x17c
 967 039e CA060000 		.4byte	0x6ca
 968 03a2 00       		.byte	0
 969 03a3 09       		.uleb128 0x9
 970 03a4 E1010000 		.4byte	.LASF64
 971 03a8 0A       		.byte	0xa
 972 03a9 7E01     		.2byte	0x17e
 973 03ab CA060000 		.4byte	0x6ca
 974 03af 04       		.byte	0x4
 975 03b0 09       		.uleb128 0x9
 976 03b1 7A050000 		.4byte	.LASF65
 977 03b5 0A       		.byte	0xa
 978 03b6 8001     		.2byte	0x180
 979 03b8 2B010000 		.4byte	0x12b
 980 03bc 08       		.byte	0x8
 981 03bd 09       		.uleb128 0x9
 982 03be 3A040000 		.4byte	.LASF70
 983 03c2 0A       		.byte	0xa
 984 03c3 8801     		.2byte	0x188
 985 03c5 2B010000 		.4byte	0x12b
 986 03c9 0C       		.byte	0xc
 987 03ca 00       		.byte	0
 988 03cb 03       		.uleb128 0x3
 989 03cc 49000000 		.4byte	.LASF71
 990 03d0 09       		.byte	0x9
 991 03d1 6B       		.byte	0x6b
 992 03d2 D6030000 		.4byte	0x3d6
 993 03d6 0F       		.uleb128 0xf
 994 03d7 CA040000 		.4byte	.LASF72
 995 03db 1404     		.2byte	0x414
 996 03dd 0A       		.byte	0xa
 997 03de A201     		.2byte	0x1a2
 998 03e0 19040000 		.4byte	0x419
 999 03e4 09       		.uleb128 0x9
 1000 03e5 FD050000 		.4byte	.LASF73
 1001 03e9 0A       		.byte	0xa
 1002 03ea AA01     		.2byte	0x1aa
 1003 03ec D0060000 		.4byte	0x6d0
 1004 03f0 00       		.byte	0
 1005 03f1 09       		.uleb128 0x9
 1006 03f2 5F060000 		.4byte	.LASF74
ARM GAS  C:\Users\jo\AppData\Local\Temp\ccGI0iNg.s 			page 19


 1007 03f6 0A       		.byte	0xa
 1008 03f7 AF01     		.2byte	0x1af
 1009 03f9 20010000 		.4byte	0x120
 1010 03fd 04       		.byte	0x4
 1011 03fe 09       		.uleb128 0x9
 1012 03ff 01020000 		.4byte	.LASF75
 1013 0403 0A       		.byte	0xa
 1014 0404 B301     		.2byte	0x1b3
 1015 0406 20010000 		.4byte	0x120
 1016 040a 08       		.byte	0x8
 1017 040b 09       		.uleb128 0x9
 1018 040c C0060000 		.4byte	.LASF76
 1019 0410 0A       		.byte	0xa
 1020 0411 B901     		.2byte	0x1b9
 1021 0413 C2050000 		.4byte	0x5c2
 1022 0417 0C       		.byte	0xc
 1023 0418 00       		.byte	0
 1024 0419 03       		.uleb128 0x3
 1025 041a 99020000 		.4byte	.LASF77
 1026 041e 09       		.byte	0x9
 1027 041f 70       		.byte	0x70
 1028 0420 24040000 		.4byte	0x424
 1029 0424 0F       		.uleb128 0xf
 1030 0425 8A010000 		.4byte	.LASF78
 1031 0429 7005     		.2byte	0x570
 1032 042b 0A       		.byte	0xa
 1033 042c C201     		.2byte	0x1c2
 1034 042e 83040000 		.4byte	0x483
 1035 0432 09       		.uleb128 0x9
 1036 0433 67060000 		.4byte	.LASF79
 1037 0437 0A       		.byte	0xa
 1038 0438 C601     		.2byte	0x1c6
 1039 043a 9F020000 		.4byte	0x29f
 1040 043e 00       		.byte	0
 1041 043f 09       		.uleb128 0x9
 1042 0440 71010000 		.4byte	.LASF80
 1043 0444 0A       		.byte	0xa
 1044 0445 CA01     		.2byte	0x1ca
 1045 0447 7E030000 		.4byte	0x37e
 1046 044b 1C       		.byte	0x1c
 1047 044c 08       		.uleb128 0x8
 1048 044d 64626700 		.ascii	"dbg\000"
 1049 0451 0A       		.byte	0xa
 1050 0452 CE01     		.2byte	0x1ce
 1051 0454 CB030000 		.4byte	0x3cb
 1052 0458 2C       		.byte	0x2c
 1053 0459 10       		.uleb128 0x10
 1054 045a B3000000 		.4byte	.LASF81
 1055 045e 0A       		.byte	0xa
 1056 045f D201     		.2byte	0x1d2
 1057 0461 36010000 		.4byte	0x136
 1058 0465 4004     		.2byte	0x440
 1059 0467 11       		.uleb128 0x11
 1060 0468 746D00   		.ascii	"tm\000"
 1061 046b 0A       		.byte	0xa
 1062 046c D701     		.2byte	0x1d7
 1063 046e E2050000 		.4byte	0x5e2
ARM GAS  C:\Users\jo\AppData\Local\Temp\ccGI0iNg.s 			page 20


 1064 0472 8804     		.2byte	0x488
 1065 0474 10       		.uleb128 0x10
 1066 0475 0A020000 		.4byte	.LASF82
 1067 0479 0A       		.byte	0xa
 1068 047a E301     		.2byte	0x1e3
 1069 047c D5060000 		.4byte	0x6d5
 1070 0480 9004     		.2byte	0x490
 1071 0482 00       		.byte	0
 1072 0483 04       		.uleb128 0x4
 1073 0484 04       		.byte	0x4
 1074 0485 07       		.byte	0x7
 1075 0486 DB030000 		.4byte	.LASF83
 1076 048a 03       		.uleb128 0x3
 1077 048b D8010000 		.4byte	.LASF84
 1078 048f 0B       		.byte	0xb
 1079 0490 65       		.byte	0x65
 1080 0491 22030000 		.4byte	0x322
 1081 0495 03       		.uleb128 0x3
 1082 0496 C6030000 		.4byte	.LASF85
 1083 049a 0B       		.byte	0xb
 1084 049b 6D       		.byte	0x6d
 1085 049c C3000000 		.4byte	0xc3
 1086 04a0 06       		.uleb128 0x6
 1087 04a1 1F060000 		.4byte	.LASF86
 1088 04a5 04       		.byte	0x4
 1089 04a6 0B       		.byte	0xb
 1090 04a7 89       		.byte	0x89
 1091 04a8 B9040000 		.4byte	0x4b9
 1092 04ac 12       		.uleb128 0x12
 1093 04ad 72313300 		.ascii	"r13\000"
 1094 04b1 0B       		.byte	0xb
 1095 04b2 8A       		.byte	0x8a
 1096 04b3 34050000 		.4byte	0x534
 1097 04b7 00       		.byte	0
 1098 04b8 00       		.byte	0
 1099 04b9 06       		.uleb128 0x6
 1100 04ba 3D000000 		.4byte	.LASF87
 1101 04be 24       		.byte	0x24
 1102 04bf 0C       		.byte	0xc
 1103 04c0 F4       		.byte	0xf4
 1104 04c1 34050000 		.4byte	0x534
 1105 04c5 08       		.uleb128 0x8
 1106 04c6 723400   		.ascii	"r4\000"
 1107 04c9 0C       		.byte	0xc
 1108 04ca 0701     		.2byte	0x107
 1109 04cc 8A040000 		.4byte	0x48a
 1110 04d0 00       		.byte	0
 1111 04d1 08       		.uleb128 0x8
 1112 04d2 723500   		.ascii	"r5\000"
 1113 04d5 0C       		.byte	0xc
 1114 04d6 0801     		.2byte	0x108
 1115 04d8 8A040000 		.4byte	0x48a
 1116 04dc 04       		.byte	0x4
 1117 04dd 08       		.uleb128 0x8
 1118 04de 723600   		.ascii	"r6\000"
 1119 04e1 0C       		.byte	0xc
 1120 04e2 0901     		.2byte	0x109
ARM GAS  C:\Users\jo\AppData\Local\Temp\ccGI0iNg.s 			page 21


 1121 04e4 8A040000 		.4byte	0x48a
 1122 04e8 08       		.byte	0x8
 1123 04e9 08       		.uleb128 0x8
 1124 04ea 723700   		.ascii	"r7\000"
 1125 04ed 0C       		.byte	0xc
 1126 04ee 0A01     		.2byte	0x10a
 1127 04f0 8A040000 		.4byte	0x48a
 1128 04f4 0C       		.byte	0xc
 1129 04f5 08       		.uleb128 0x8
 1130 04f6 723800   		.ascii	"r8\000"
 1131 04f9 0C       		.byte	0xc
 1132 04fa 0B01     		.2byte	0x10b
 1133 04fc 8A040000 		.4byte	0x48a
 1134 0500 10       		.byte	0x10
 1135 0501 08       		.uleb128 0x8
 1136 0502 723900   		.ascii	"r9\000"
 1137 0505 0C       		.byte	0xc
 1138 0506 0C01     		.2byte	0x10c
 1139 0508 8A040000 		.4byte	0x48a
 1140 050c 14       		.byte	0x14
 1141 050d 08       		.uleb128 0x8
 1142 050e 72313000 		.ascii	"r10\000"
 1143 0512 0C       		.byte	0xc
 1144 0513 0D01     		.2byte	0x10d
 1145 0515 8A040000 		.4byte	0x48a
 1146 0519 18       		.byte	0x18
 1147 051a 08       		.uleb128 0x8
 1148 051b 72313100 		.ascii	"r11\000"
 1149 051f 0C       		.byte	0xc
 1150 0520 0E01     		.2byte	0x10e
 1151 0522 8A040000 		.4byte	0x48a
 1152 0526 1C       		.byte	0x1c
 1153 0527 08       		.uleb128 0x8
 1154 0528 6C7200   		.ascii	"lr\000"
 1155 052b 0C       		.byte	0xc
 1156 052c 0F01     		.2byte	0x10f
 1157 052e 8A040000 		.4byte	0x48a
 1158 0532 20       		.byte	0x20
 1159 0533 00       		.byte	0
 1160 0534 0A       		.uleb128 0xa
 1161 0535 04       		.byte	0x4
 1162 0536 B9040000 		.4byte	0x4b9
 1163 053a 13       		.uleb128 0x13
 1164 053b 10       		.byte	0x10
 1165 053c 0D       		.byte	0xd
 1166 053d 51       		.byte	0x51
 1167 053e 73050000 		.4byte	0x573
 1168 0542 07       		.uleb128 0x7
 1169 0543 14000000 		.4byte	.LASF88
 1170 0547 0D       		.byte	0xd
 1171 0548 55       		.byte	0x55
 1172 0549 2B010000 		.4byte	0x12b
 1173 054d 00       		.byte	0
 1174 054e 07       		.uleb128 0x7
 1175 054f A6010000 		.4byte	.LASF89
 1176 0553 0D       		.byte	0xd
 1177 0554 59       		.byte	0x59
ARM GAS  C:\Users\jo\AppData\Local\Temp\ccGI0iNg.s 			page 22


 1178 0555 45020000 		.4byte	0x245
 1179 0559 04       		.byte	0x4
 1180 055a 07       		.uleb128 0x7
 1181 055b 19070000 		.4byte	.LASF90
 1182 055f 0D       		.byte	0xd
 1183 0560 5D       		.byte	0x5d
 1184 0561 22030000 		.4byte	0x322
 1185 0565 08       		.byte	0x8
 1186 0566 07       		.uleb128 0x7
 1187 0567 A1000000 		.4byte	.LASF91
 1188 056b 0D       		.byte	0xd
 1189 056c 61       		.byte	0x61
 1190 056d A2000000 		.4byte	0xa2
 1191 0571 0C       		.byte	0xc
 1192 0572 00       		.byte	0
 1193 0573 03       		.uleb128 0x3
 1194 0574 2B040000 		.4byte	.LASF92
 1195 0578 0D       		.byte	0xd
 1196 0579 62       		.byte	0x62
 1197 057a 3A050000 		.4byte	0x53a
 1198 057e 14       		.uleb128 0x14
 1199 057f 0804     		.2byte	0x408
 1200 0581 0D       		.byte	0xd
 1201 0582 67       		.byte	0x67
 1202 0583 AC050000 		.4byte	0x5ac
 1203 0587 07       		.uleb128 0x7
 1204 0588 BC010000 		.4byte	.LASF93
 1205 058c 0D       		.byte	0xd
 1206 058d 6B       		.byte	0x6b
 1207 058e 37000000 		.4byte	0x37
 1208 0592 00       		.byte	0
 1209 0593 07       		.uleb128 0x7
 1210 0594 00000000 		.4byte	.LASF94
 1211 0598 0D       		.byte	0xd
 1212 0599 6F       		.byte	0x6f
 1213 059a AC050000 		.4byte	0x5ac
 1214 059e 04       		.byte	0x4
 1215 059f 07       		.uleb128 0x7
 1216 05a0 A1040000 		.4byte	.LASF95
 1217 05a4 0D       		.byte	0xd
 1218 05a5 73       		.byte	0x73
 1219 05a6 B2050000 		.4byte	0x5b2
 1220 05aa 08       		.byte	0x8
 1221 05ab 00       		.byte	0
 1222 05ac 0A       		.uleb128 0xa
 1223 05ad 04       		.byte	0x4
 1224 05ae 73050000 		.4byte	0x573
 1225 05b2 15       		.uleb128 0x15
 1226 05b3 73050000 		.4byte	0x573
 1227 05b7 C2050000 		.4byte	0x5c2
 1228 05bb 16       		.uleb128 0x16
 1229 05bc 83040000 		.4byte	0x483
 1230 05c0 3F       		.byte	0x3f
 1231 05c1 00       		.byte	0
 1232 05c2 03       		.uleb128 0x3
 1233 05c3 8F000000 		.4byte	.LASF96
 1234 05c7 0D       		.byte	0xd
ARM GAS  C:\Users\jo\AppData\Local\Temp\ccGI0iNg.s 			page 23


 1235 05c8 74       		.byte	0x74
 1236 05c9 7E050000 		.4byte	0x57e
 1237 05cd 13       		.uleb128 0x13
 1238 05ce 04       		.byte	0x4
 1239 05cf 0E       		.byte	0xe
 1240 05d0 38       		.byte	0x38
 1241 05d1 E2050000 		.4byte	0x5e2
 1242 05d5 07       		.uleb128 0x7
 1243 05d6 07060000 		.4byte	.LASF97
 1244 05da 0E       		.byte	0xe
 1245 05db 3C       		.byte	0x3c
 1246 05dc D3000000 		.4byte	0xd3
 1247 05e0 00       		.byte	0
 1248 05e1 00       		.byte	0
 1249 05e2 03       		.uleb128 0x3
 1250 05e3 63040000 		.4byte	.LASF98
 1251 05e7 0E       		.byte	0xe
 1252 05e8 3D       		.byte	0x3d
 1253 05e9 CD050000 		.4byte	0x5cd
 1254 05ed 17       		.uleb128 0x17
 1255 05ee 04       		.byte	0x4
 1256 05ef 0A       		.byte	0xa
 1257 05f0 FA       		.byte	0xfa
 1258 05f1 4A060000 		.4byte	0x64a
 1259 05f5 18       		.uleb128 0x18
 1260 05f6 23000000 		.4byte	.LASF99
 1261 05fa 0A       		.byte	0xa
 1262 05fb 0101     		.2byte	0x101
 1263 05fd 0A010000 		.4byte	0x10a
 1264 0601 18       		.uleb128 0x18
 1265 0602 AA000000 		.4byte	.LASF100
 1266 0606 0A       		.byte	0xa
 1267 0607 0801     		.2byte	0x108
 1268 0609 0A010000 		.4byte	0x10a
 1269 060d 18       		.uleb128 0x18
 1270 060e 9E060000 		.4byte	.LASF101
 1271 0612 0A       		.byte	0xa
 1272 0613 0F01     		.2byte	0x10f
 1273 0615 22030000 		.4byte	0x322
 1274 0619 18       		.uleb128 0x18
 1275 061a 84010000 		.4byte	.LASF102
 1276 061e 0A       		.byte	0xa
 1277 061f 1601     		.2byte	0x116
 1278 0621 4A060000 		.4byte	0x64a
 1279 0625 18       		.uleb128 0x18
 1280 0626 3F020000 		.4byte	.LASF103
 1281 062a 0A       		.byte	0xa
 1282 062b 1E01     		.2byte	0x11e
 1283 062d 75060000 		.4byte	0x675
 1284 0631 18       		.uleb128 0x18
 1285 0632 6B050000 		.4byte	.LASF104
 1286 0636 0A       		.byte	0xa
 1287 0637 2701     		.2byte	0x127
 1288 0639 AC060000 		.4byte	0x6ac
 1289 063d 18       		.uleb128 0x18
 1290 063e 13050000 		.4byte	.LASF105
 1291 0642 0A       		.byte	0xa
ARM GAS  C:\Users\jo\AppData\Local\Temp\ccGI0iNg.s 			page 24


 1292 0643 2F01     		.2byte	0x12f
 1293 0645 15010000 		.4byte	0x115
 1294 0649 00       		.byte	0
 1295 064a 0A       		.uleb128 0xa
 1296 064b 04       		.byte	0x4
 1297 064c 3A020000 		.4byte	0x23a
 1298 0650 06       		.uleb128 0x6
 1299 0651 4A050000 		.4byte	.LASF106
 1300 0655 0C       		.byte	0xc
 1301 0656 0F       		.byte	0xf
 1302 0657 34       		.byte	0x34
 1303 0658 75060000 		.4byte	0x675
 1304 065c 07       		.uleb128 0x7
 1305 065d B4010000 		.4byte	.LASF107
 1306 0661 0F       		.byte	0xf
 1307 0662 35       		.byte	0x35
 1308 0663 6F020000 		.4byte	0x26f
 1309 0667 00       		.byte	0
 1310 0668 07       		.uleb128 0x7
 1311 0669 5F020000 		.4byte	.LASF108
 1312 066d 0F       		.byte	0xf
 1313 066e 37       		.byte	0x37
 1314 066f 20010000 		.4byte	0x120
 1315 0673 08       		.byte	0x8
 1316 0674 00       		.byte	0
 1317 0675 0A       		.uleb128 0xa
 1318 0676 04       		.byte	0x4
 1319 0677 50060000 		.4byte	0x650
 1320 067b 06       		.uleb128 0x6
 1321 067c 0E060000 		.4byte	.LASF109
 1322 0680 10       		.byte	0x10
 1323 0681 10       		.byte	0x10
 1324 0682 39       		.byte	0x39
 1325 0683 AC060000 		.4byte	0x6ac
 1326 0687 07       		.uleb128 0x7
 1327 0688 69010000 		.4byte	.LASF110
 1328 068c 10       		.byte	0x10
 1329 068d 3A       		.byte	0x3a
 1330 068e 6F020000 		.4byte	0x26f
 1331 0692 00       		.byte	0
 1332 0693 07       		.uleb128 0x7
 1333 0694 F1060000 		.4byte	.LASF111
 1334 0698 10       		.byte	0x10
 1335 0699 3C       		.byte	0x3c
 1336 069a 45020000 		.4byte	0x245
 1337 069e 08       		.byte	0x8
 1338 069f 07       		.uleb128 0x7
 1339 06a0 BF050000 		.4byte	.LASF112
 1340 06a4 10       		.byte	0x10
 1341 06a5 3E       		.byte	0x3e
 1342 06a6 F0060000 		.4byte	0x6f0
 1343 06aa 0C       		.byte	0xc
 1344 06ab 00       		.byte	0
 1345 06ac 0A       		.uleb128 0xa
 1346 06ad 04       		.byte	0x4
 1347 06ae 7B060000 		.4byte	0x67b
 1348 06b2 0A       		.uleb128 0xa
ARM GAS  C:\Users\jo\AppData\Local\Temp\ccGI0iNg.s 			page 25


 1349 06b3 04       		.byte	0x4
 1350 06b4 B8060000 		.4byte	0x6b8
 1351 06b8 19       		.uleb128 0x19
 1352 06b9 BD060000 		.4byte	0x6bd
 1353 06bd 04       		.uleb128 0x4
 1354 06be 01       		.byte	0x1
 1355 06bf 08       		.byte	0x8
 1356 06c0 A5050000 		.4byte	.LASF113
 1357 06c4 0A       		.uleb128 0xa
 1358 06c5 04       		.byte	0x4
 1359 06c6 95040000 		.4byte	0x495
 1360 06ca 0A       		.uleb128 0xa
 1361 06cb 04       		.byte	0x4
 1362 06cc 24030000 		.4byte	0x324
 1363 06d0 05       		.uleb128 0x5
 1364 06d1 B2060000 		.4byte	0x6b2
 1365 06d5 15       		.uleb128 0x15
 1366 06d6 95040000 		.4byte	0x495
 1367 06da E5060000 		.4byte	0x6e5
 1368 06de 16       		.uleb128 0x16
 1369 06df 83040000 		.4byte	0x483
 1370 06e3 1B       		.byte	0x1b
 1371 06e4 00       		.byte	0
 1372 06e5 03       		.uleb128 0x3
 1373 06e6 F3010000 		.4byte	.LASF114
 1374 06ea 10       		.byte	0x10
 1375 06eb 34       		.byte	0x34
 1376 06ec 7B060000 		.4byte	0x67b
 1377 06f0 0A       		.uleb128 0xa
 1378 06f1 04       		.byte	0x4
 1379 06f2 E5060000 		.4byte	0x6e5
 1380 06f6 03       		.uleb128 0x3
 1381 06f7 6B000000 		.4byte	.LASF115
 1382 06fb 11       		.byte	0x11
 1383 06fc 36       		.byte	0x36
 1384 06fd 01070000 		.4byte	0x701
 1385 0701 0A       		.uleb128 0xa
 1386 0702 04       		.byte	0x4
 1387 0703 07070000 		.4byte	0x707
 1388 0707 1A       		.uleb128 0x1a
 1389 0708 22030000 		.4byte	0x322
 1390 070c 16070000 		.4byte	0x716
 1391 0710 0D       		.uleb128 0xd
 1392 0711 2C000000 		.4byte	0x2c
 1393 0715 00       		.byte	0
 1394 0716 06       		.uleb128 0x6
 1395 0717 4C060000 		.4byte	.LASF116
 1396 071b 04       		.byte	0x4
 1397 071c 04       		.byte	0x4
 1398 071d 38       		.byte	0x38
 1399 071e 2F070000 		.4byte	0x72f
 1400 0722 07       		.uleb128 0x7
 1401 0723 91040000 		.4byte	.LASF117
 1402 0727 04       		.byte	0x4
 1403 0728 39       		.byte	0x39
 1404 0729 2F070000 		.4byte	0x72f
 1405 072d 00       		.byte	0
ARM GAS  C:\Users\jo\AppData\Local\Temp\ccGI0iNg.s 			page 26


 1406 072e 00       		.byte	0
 1407 072f 0A       		.uleb128 0xa
 1408 0730 04       		.byte	0x4
 1409 0731 16070000 		.4byte	0x716
 1410 0735 13       		.uleb128 0x13
 1411 0736 0C       		.byte	0xc
 1412 0737 04       		.byte	0x4
 1413 0738 40       		.byte	0x40
 1414 0739 62070000 		.4byte	0x762
 1415 073d 07       		.uleb128 0x7
 1416 073e 17060000 		.4byte	.LASF118
 1417 0742 04       		.byte	0x4
 1418 0743 41       		.byte	0x41
 1419 0744 2F070000 		.4byte	0x72f
 1420 0748 00       		.byte	0
 1421 0749 07       		.uleb128 0x7
 1422 074a 54040000 		.4byte	.LASF119
 1423 074e 04       		.byte	0x4
 1424 074f 42       		.byte	0x42
 1425 0750 2C000000 		.4byte	0x2c
 1426 0754 04       		.byte	0x4
 1427 0755 07       		.uleb128 0x7
 1428 0756 CC010000 		.4byte	.LASF120
 1429 075a 04       		.byte	0x4
 1430 075b 44       		.byte	0x44
 1431 075c F6060000 		.4byte	0x6f6
 1432 0760 08       		.byte	0x8
 1433 0761 00       		.byte	0
 1434 0762 03       		.uleb128 0x3
 1435 0763 51020000 		.4byte	.LASF121
 1436 0767 04       		.byte	0x4
 1437 0768 46       		.byte	0x46
 1438 0769 35070000 		.4byte	0x735
 1439 076d 1B       		.uleb128 0x1b
 1440 076e EF050000 		.4byte	.LASF125
 1441 0772 02       		.byte	0x2
 1442 0773 2002     		.2byte	0x220
 1443 0775 03       		.byte	0x3
 1444 0776 87070000 		.4byte	0x787
 1445 077a 1C       		.uleb128 0x1c
 1446 077b FB010000 		.4byte	.LASF127
 1447 077f 02       		.byte	0x2
 1448 0780 2002     		.2byte	0x220
 1449 0782 B8000000 		.4byte	0xb8
 1450 0786 00       		.byte	0
 1451 0787 1D       		.uleb128 0x1d
 1452 0788 61000000 		.4byte	.LASF122
 1453 078c 0C       		.byte	0xc
 1454 078d BC01     		.2byte	0x1bc
 1455 078f 03       		.byte	0x3
 1456 0790 1D       		.uleb128 0x1d
 1457 0791 78010000 		.4byte	.LASF123
 1458 0795 0C       		.byte	0xc
 1459 0796 CA01     		.2byte	0x1ca
 1460 0798 03       		.byte	0x3
 1461 0799 1D       		.uleb128 0x1d
 1462 079a 2A050000 		.4byte	.LASF124
ARM GAS  C:\Users\jo\AppData\Local\Temp\ccGI0iNg.s 			page 27


 1463 079e 03       		.byte	0x3
 1464 079f 5A01     		.2byte	0x15a
 1465 07a1 03       		.byte	0x3
 1466 07a2 1E       		.uleb128 0x1e
 1467 07a3 A5020000 		.4byte	.LASF126
 1468 07a7 04       		.byte	0x4
 1469 07a8 89       		.byte	0x89
 1470 07a9 03       		.byte	0x3
 1471 07aa C4070000 		.4byte	0x7c4
 1472 07ae 1F       		.uleb128 0x1f
 1473 07af 6D7000   		.ascii	"mp\000"
 1474 07b2 04       		.byte	0x4
 1475 07b3 89       		.byte	0x89
 1476 07b4 C4070000 		.4byte	0x7c4
 1477 07b8 20       		.uleb128 0x20
 1478 07b9 34050000 		.4byte	.LASF128
 1479 07bd 04       		.byte	0x4
 1480 07be 89       		.byte	0x89
 1481 07bf 22030000 		.4byte	0x322
 1482 07c3 00       		.byte	0
 1483 07c4 0A       		.uleb128 0xa
 1484 07c5 04       		.byte	0x4
 1485 07c6 62070000 		.4byte	0x762
 1486 07ca 21       		.uleb128 0x21
 1487 07cb B7020000 		.4byte	.LASF131
 1488 07cf 01       		.byte	0x1
 1489 07d0 4B       		.byte	0x4b
 1490 07d1 00000000 		.4byte	.LFB228
 1491 07d5 20000000 		.4byte	.LFE228-.LFB228
 1492 07d9 01       		.uleb128 0x1
 1493 07da 9C       		.byte	0x9c
 1494 07db 2E080000 		.4byte	0x82e
 1495 07df 22       		.uleb128 0x22
 1496 07e0 6D7000   		.ascii	"mp\000"
 1497 07e3 01       		.byte	0x1
 1498 07e4 4B       		.byte	0x4b
 1499 07e5 C4070000 		.4byte	0x7c4
 1500 07e9 00000000 		.4byte	.LLST0
 1501 07ed 23       		.uleb128 0x23
 1502 07ee AC060000 		.4byte	.LASF129
 1503 07f2 01       		.byte	0x1
 1504 07f3 4B       		.byte	0x4b
 1505 07f4 2C000000 		.4byte	0x2c
 1506 07f8 2C000000 		.4byte	.LLST1
 1507 07fc 23       		.uleb128 0x23
 1508 07fd 58000000 		.4byte	.LASF130
 1509 0801 01       		.byte	0x1
 1510 0802 4B       		.byte	0x4b
 1511 0803 F6060000 		.4byte	0x6f6
 1512 0807 59000000 		.4byte	.LLST2
 1513 080b 24       		.uleb128 0x24
 1514 080c 21050000 		.4byte	.LASF133
 1515 0810 3E080000 		.4byte	0x83e
 1516 0814 05       		.uleb128 0x5
 1517 0815 03       		.byte	0x3
 1518 0816 00000000 		.4byte	__func__.6548
 1519 081a 25       		.uleb128 0x25
ARM GAS  C:\Users\jo\AppData\Local\Temp\ccGI0iNg.s 			page 28


 1520 081b 14000000 		.4byte	.LVL2
 1521 081f 3F0C0000 		.4byte	0xc3f
 1522 0823 26       		.uleb128 0x26
 1523 0824 01       		.uleb128 0x1
 1524 0825 50       		.byte	0x50
 1525 0826 05       		.uleb128 0x5
 1526 0827 03       		.byte	0x3
 1527 0828 00000000 		.4byte	.LANCHOR0
 1528 082c 00       		.byte	0
 1529 082d 00       		.byte	0
 1530 082e 15       		.uleb128 0x15
 1531 082f BD060000 		.4byte	0x6bd
 1532 0833 3E080000 		.4byte	0x83e
 1533 0837 16       		.uleb128 0x16
 1534 0838 83040000 		.4byte	0x483
 1535 083c 10       		.byte	0x10
 1536 083d 00       		.byte	0
 1537 083e 19       		.uleb128 0x19
 1538 083f 2E080000 		.4byte	0x82e
 1539 0843 27       		.uleb128 0x27
 1540 0844 1E040000 		.4byte	.LASF132
 1541 0848 01       		.byte	0x1
 1542 0849 78       		.byte	0x78
 1543 084a 22030000 		.4byte	0x322
 1544 084e 00000000 		.4byte	.LFB230
 1545 0852 30000000 		.4byte	.LFE230-.LFB230
 1546 0856 01       		.uleb128 0x1
 1547 0857 9C       		.byte	0x9c
 1548 0858 A5080000 		.4byte	0x8a5
 1549 085c 22       		.uleb128 0x22
 1550 085d 6D7000   		.ascii	"mp\000"
 1551 0860 01       		.byte	0x1
 1552 0861 78       		.byte	0x78
 1553 0862 C4070000 		.4byte	0x7c4
 1554 0866 86000000 		.4byte	.LLST3
 1555 086a 28       		.uleb128 0x28
 1556 086b 34050000 		.4byte	.LASF128
 1557 086f 01       		.byte	0x1
 1558 0870 79       		.byte	0x79
 1559 0871 22030000 		.4byte	0x322
 1560 0875 BD000000 		.4byte	.LLST4
 1561 0879 24       		.uleb128 0x24
 1562 087a 21050000 		.4byte	.LASF133
 1563 087e B5080000 		.4byte	0x8b5
 1564 0882 05       		.uleb128 0x5
 1565 0883 03       		.byte	0x3
 1566 0884 00000000 		.4byte	__func__.6562
 1567 0888 29       		.uleb128 0x29
 1568 0889 08000000 		.4byte	.LVL5
 1569 088d 510C0000 		.4byte	0xc51
 1570 0891 25       		.uleb128 0x25
 1571 0892 28000000 		.4byte	.LVL12
 1572 0896 3F0C0000 		.4byte	0xc3f
 1573 089a 26       		.uleb128 0x26
 1574 089b 01       		.uleb128 0x1
 1575 089c 50       		.byte	0x50
 1576 089d 05       		.uleb128 0x5
ARM GAS  C:\Users\jo\AppData\Local\Temp\ccGI0iNg.s 			page 29


 1577 089e 03       		.byte	0x3
 1578 089f 00000000 		.4byte	.LANCHOR1
 1579 08a3 00       		.byte	0
 1580 08a4 00       		.byte	0
 1581 08a5 15       		.uleb128 0x15
 1582 08a6 BD060000 		.4byte	0x6bd
 1583 08aa B5080000 		.4byte	0x8b5
 1584 08ae 16       		.uleb128 0x16
 1585 08af 83040000 		.4byte	0x483
 1586 08b3 0C       		.byte	0xc
 1587 08b4 00       		.byte	0
 1588 08b5 19       		.uleb128 0x19
 1589 08b6 A5080000 		.4byte	0x8a5
 1590 08ba 1B       		.uleb128 0x1b
 1591 08bb D5060000 		.4byte	.LASF134
 1592 08bf 03       		.byte	0x3
 1593 08c0 6601     		.2byte	0x166
 1594 08c2 03       		.byte	0x3
 1595 08c3 D5080000 		.4byte	0x8d5
 1596 08c7 2A       		.uleb128 0x2a
 1597 08c8 21050000 		.4byte	.LASF133
 1598 08cc E5080000 		.4byte	0x8e5
 1599 08d0 D5060000 		.4byte	.LASF134
 1600 08d4 00       		.byte	0
 1601 08d5 15       		.uleb128 0x15
 1602 08d6 BD060000 		.4byte	0x6bd
 1603 08da E5080000 		.4byte	0x8e5
 1604 08de 16       		.uleb128 0x16
 1605 08df 83040000 		.4byte	0x483
 1606 08e3 0B       		.byte	0xb
 1607 08e4 00       		.byte	0
 1608 08e5 19       		.uleb128 0x19
 1609 08e6 D5080000 		.4byte	0x8d5
 1610 08ea 2B       		.uleb128 0x2b
 1611 08eb 75060000 		.4byte	.LASF145
 1612 08ef 01       		.byte	0x1
 1613 08f0 95       		.byte	0x95
 1614 08f1 22030000 		.4byte	0x322
 1615 08f5 00000000 		.4byte	.LFB231
 1616 08f9 44000000 		.4byte	.LFE231-.LFB231
 1617 08fd 01       		.uleb128 0x1
 1618 08fe 9C       		.byte	0x9c
 1619 08ff EB090000 		.4byte	0x9eb
 1620 0903 22       		.uleb128 0x22
 1621 0904 6D7000   		.ascii	"mp\000"
 1622 0907 01       		.byte	0x1
 1623 0908 95       		.byte	0x95
 1624 0909 C4070000 		.4byte	0x7c4
 1625 090d F4000000 		.4byte	.LLST5
 1626 0911 28       		.uleb128 0x28
 1627 0912 34050000 		.4byte	.LASF128
 1628 0916 01       		.byte	0x1
 1629 0917 96       		.byte	0x96
 1630 0918 22030000 		.4byte	0x322
 1631 091c 20010000 		.4byte	.LLST6
 1632 0920 2C       		.uleb128 0x2c
 1633 0921 99070000 		.4byte	0x799
ARM GAS  C:\Users\jo\AppData\Local\Temp\ccGI0iNg.s 			page 30


 1634 0925 02000000 		.4byte	.LBB36
 1635 0929 00000000 		.4byte	.Ldebug_ranges0+0
 1636 092d 01       		.byte	0x1
 1637 092e 98       		.byte	0x98
 1638 092f 69090000 		.4byte	0x969
 1639 0933 2D       		.uleb128 0x2d
 1640 0934 87070000 		.4byte	0x787
 1641 0938 02000000 		.4byte	.LBB38
 1642 093c 18000000 		.4byte	.Ldebug_ranges0+0x18
 1643 0940 03       		.byte	0x3
 1644 0941 5C01     		.2byte	0x15c
 1645 0943 5F090000 		.4byte	0x95f
 1646 0947 2E       		.uleb128 0x2e
 1647 0948 6D070000 		.4byte	0x76d
 1648 094c 02000000 		.4byte	.LBB39
 1649 0950 18000000 		.4byte	.Ldebug_ranges0+0x18
 1650 0954 0C       		.byte	0xc
 1651 0955 BF01     		.2byte	0x1bf
 1652 0957 2F       		.uleb128 0x2f
 1653 0958 7A070000 		.4byte	0x77a
 1654 095c 20       		.byte	0x20
 1655 095d 00       		.byte	0
 1656 095e 00       		.byte	0
 1657 095f 29       		.uleb128 0x29
 1658 0960 0E000000 		.4byte	.LVL14
 1659 0964 580C0000 		.4byte	0xc58
 1660 0968 00       		.byte	0
 1661 0969 30       		.uleb128 0x30
 1662 096a BA080000 		.4byte	0x8ba
 1663 096e 16000000 		.4byte	.LBB46
 1664 0972 22000000 		.4byte	.LBE46-.LBB46
 1665 0976 01       		.byte	0x1
 1666 0977 9A       		.byte	0x9a
 1667 0978 DA090000 		.4byte	0x9da
 1668 097c 31       		.uleb128 0x31
 1669 097d 16000000 		.4byte	.LBB47
 1670 0981 22000000 		.4byte	.LBE47-.LBB47
 1671 0985 32       		.uleb128 0x32
 1672 0986 C7080000 		.4byte	0x8c7
 1673 098a 05       		.uleb128 0x5
 1674 098b 03       		.byte	0x3
 1675 098c 00000000 		.4byte	__func__.5854
 1676 0990 33       		.uleb128 0x33
 1677 0991 90070000 		.4byte	0x790
 1678 0995 32000000 		.4byte	.LBB48
 1679 0999 06000000 		.4byte	.LBE48-.LBB48
 1680 099d 03       		.byte	0x3
 1681 099e 7301     		.2byte	0x173
 1682 09a0 BC090000 		.4byte	0x9bc
 1683 09a4 34       		.uleb128 0x34
 1684 09a5 6D070000 		.4byte	0x76d
 1685 09a9 32000000 		.4byte	.LBB49
 1686 09ad 06000000 		.4byte	.LBE49-.LBB49
 1687 09b1 0C       		.byte	0xc
 1688 09b2 CD01     		.2byte	0x1cd
 1689 09b4 2F       		.uleb128 0x2f
 1690 09b5 7A070000 		.4byte	0x77a
ARM GAS  C:\Users\jo\AppData\Local\Temp\ccGI0iNg.s 			page 31


 1691 09b9 00       		.byte	0
 1692 09ba 00       		.byte	0
 1693 09bb 00       		.byte	0
 1694 09bc 29       		.uleb128 0x29
 1695 09bd 1A000000 		.4byte	.LVL17
 1696 09c1 5F0C0000 		.4byte	0xc5f
 1697 09c5 25       		.uleb128 0x25
 1698 09c6 32000000 		.4byte	.LVL18
 1699 09ca 3F0C0000 		.4byte	0xc3f
 1700 09ce 26       		.uleb128 0x26
 1701 09cf 01       		.uleb128 0x1
 1702 09d0 50       		.byte	0x50
 1703 09d1 05       		.uleb128 0x5
 1704 09d2 03       		.byte	0x3
 1705 09d3 00000000 		.4byte	.LANCHOR2
 1706 09d7 00       		.byte	0
 1707 09d8 00       		.byte	0
 1708 09d9 00       		.byte	0
 1709 09da 25       		.uleb128 0x25
 1710 09db 14000000 		.4byte	.LVL15
 1711 09df 43080000 		.4byte	0x843
 1712 09e3 26       		.uleb128 0x26
 1713 09e4 01       		.uleb128 0x1
 1714 09e5 50       		.byte	0x50
 1715 09e6 02       		.uleb128 0x2
 1716 09e7 74       		.byte	0x74
 1717 09e8 00       		.sleb128 0
 1718 09e9 00       		.byte	0
 1719 09ea 00       		.byte	0
 1720 09eb 21       		.uleb128 0x21
 1721 09ec AA050000 		.4byte	.LASF135
 1722 09f0 01       		.byte	0x1
 1723 09f1 AB       		.byte	0xab
 1724 09f2 00000000 		.4byte	.LFB232
 1725 09f6 28000000 		.4byte	.LFE232-.LFB232
 1726 09fa 01       		.uleb128 0x1
 1727 09fb 9C       		.byte	0x9c
 1728 09fc 580A0000 		.4byte	0xa58
 1729 0a00 22       		.uleb128 0x22
 1730 0a01 6D7000   		.ascii	"mp\000"
 1731 0a04 01       		.byte	0x1
 1732 0a05 AB       		.byte	0xab
 1733 0a06 C4070000 		.4byte	0x7c4
 1734 0a0a 49010000 		.4byte	.LLST7
 1735 0a0e 23       		.uleb128 0x23
 1736 0a0f 34050000 		.4byte	.LASF128
 1737 0a13 01       		.byte	0x1
 1738 0a14 AB       		.byte	0xab
 1739 0a15 22030000 		.4byte	0x322
 1740 0a19 75010000 		.4byte	.LLST8
 1741 0a1d 35       		.uleb128 0x35
 1742 0a1e 70687000 		.ascii	"php\000"
 1743 0a22 01       		.byte	0x1
 1744 0a23 AC       		.byte	0xac
 1745 0a24 2F070000 		.4byte	0x72f
 1746 0a28 A0010000 		.4byte	.LLST9
 1747 0a2c 24       		.uleb128 0x24
ARM GAS  C:\Users\jo\AppData\Local\Temp\ccGI0iNg.s 			page 32


 1748 0a2d 21050000 		.4byte	.LASF133
 1749 0a31 580A0000 		.4byte	0xa58
 1750 0a35 05       		.uleb128 0x5
 1751 0a36 03       		.byte	0x3
 1752 0a37 00000000 		.4byte	__func__.6572
 1753 0a3b 29       		.uleb128 0x29
 1754 0a3c 0A000000 		.4byte	.LVL22
 1755 0a40 510C0000 		.4byte	0xc51
 1756 0a44 25       		.uleb128 0x25
 1757 0a45 1C000000 		.4byte	.LVL24
 1758 0a49 3F0C0000 		.4byte	0xc3f
 1759 0a4d 26       		.uleb128 0x26
 1760 0a4e 01       		.uleb128 0x1
 1761 0a4f 50       		.byte	0x50
 1762 0a50 05       		.uleb128 0x5
 1763 0a51 03       		.byte	0x3
 1764 0a52 00000000 		.4byte	.LANCHOR3
 1765 0a56 00       		.byte	0
 1766 0a57 00       		.byte	0
 1767 0a58 19       		.uleb128 0x19
 1768 0a59 D5080000 		.4byte	0x8d5
 1769 0a5d 21       		.uleb128 0x21
 1770 0a5e 81060000 		.4byte	.LASF136
 1771 0a62 01       		.byte	0x1
 1772 0a63 C1       		.byte	0xc1
 1773 0a64 00000000 		.4byte	.LFB233
 1774 0a68 44000000 		.4byte	.LFE233-.LFB233
 1775 0a6c 01       		.uleb128 0x1
 1776 0a6d 9C       		.byte	0x9c
 1777 0a6e 600B0000 		.4byte	0xb60
 1778 0a72 22       		.uleb128 0x22
 1779 0a73 6D7000   		.ascii	"mp\000"
 1780 0a76 01       		.byte	0x1
 1781 0a77 C1       		.byte	0xc1
 1782 0a78 C4070000 		.4byte	0x7c4
 1783 0a7c CB010000 		.4byte	.LLST10
 1784 0a80 23       		.uleb128 0x23
 1785 0a81 34050000 		.4byte	.LASF128
 1786 0a85 01       		.byte	0x1
 1787 0a86 C1       		.byte	0xc1
 1788 0a87 22030000 		.4byte	0x322
 1789 0a8b F7010000 		.4byte	.LLST11
 1790 0a8f 30       		.uleb128 0x30
 1791 0a90 99070000 		.4byte	0x799
 1792 0a94 06000000 		.4byte	.LBB61
 1793 0a98 0A000000 		.4byte	.LBE61-.LBB61
 1794 0a9c 01       		.byte	0x1
 1795 0a9d C3       		.byte	0xc3
 1796 0a9e D80A0000 		.4byte	0xad8
 1797 0aa2 33       		.uleb128 0x33
 1798 0aa3 87070000 		.4byte	0x787
 1799 0aa7 06000000 		.4byte	.LBB63
 1800 0aab 06000000 		.4byte	.LBE63-.LBB63
 1801 0aaf 03       		.byte	0x3
 1802 0ab0 5C01     		.2byte	0x15c
 1803 0ab2 CE0A0000 		.4byte	0xace
 1804 0ab6 34       		.uleb128 0x34
ARM GAS  C:\Users\jo\AppData\Local\Temp\ccGI0iNg.s 			page 33


 1805 0ab7 6D070000 		.4byte	0x76d
 1806 0abb 06000000 		.4byte	.LBB64
 1807 0abf 06000000 		.4byte	.LBE64-.LBB64
 1808 0ac3 0C       		.byte	0xc
 1809 0ac4 BF01     		.2byte	0x1bf
 1810 0ac6 2F       		.uleb128 0x2f
 1811 0ac7 7A070000 		.4byte	0x77a
 1812 0acb 20       		.byte	0x20
 1813 0acc 00       		.byte	0
 1814 0acd 00       		.byte	0
 1815 0ace 29       		.uleb128 0x29
 1816 0acf 10000000 		.4byte	.LVL27
 1817 0ad3 580C0000 		.4byte	0xc58
 1818 0ad7 00       		.byte	0
 1819 0ad8 30       		.uleb128 0x30
 1820 0ad9 BA080000 		.4byte	0x8ba
 1821 0add 18000000 		.4byte	.LBB66
 1822 0ae1 2C000000 		.4byte	.LBE66-.LBB66
 1823 0ae5 01       		.byte	0x1
 1824 0ae6 C5       		.byte	0xc5
 1825 0ae7 490B0000 		.4byte	0xb49
 1826 0aeb 31       		.uleb128 0x31
 1827 0aec 18000000 		.4byte	.LBB67
 1828 0af0 2C000000 		.4byte	.LBE67-.LBB67
 1829 0af4 32       		.uleb128 0x32
 1830 0af5 C7080000 		.4byte	0x8c7
 1831 0af9 05       		.uleb128 0x5
 1832 0afa 03       		.byte	0x3
 1833 0afb 00000000 		.4byte	__func__.5854
 1834 0aff 33       		.uleb128 0x33
 1835 0b00 90070000 		.4byte	0x790
 1836 0b04 34000000 		.4byte	.LBB68
 1837 0b08 10000000 		.4byte	.LBE68-.LBB68
 1838 0b0c 03       		.byte	0x3
 1839 0b0d 7301     		.2byte	0x173
 1840 0b0f 2B0B0000 		.4byte	0xb2b
 1841 0b13 34       		.uleb128 0x34
 1842 0b14 6D070000 		.4byte	0x76d
 1843 0b18 34000000 		.4byte	.LBB69
 1844 0b1c 10000000 		.4byte	.LBE69-.LBB69
 1845 0b20 0C       		.byte	0xc
 1846 0b21 CD01     		.2byte	0x1cd
 1847 0b23 2F       		.uleb128 0x2f
 1848 0b24 7A070000 		.4byte	0x77a
 1849 0b28 00       		.byte	0
 1850 0b29 00       		.byte	0
 1851 0b2a 00       		.byte	0
 1852 0b2b 29       		.uleb128 0x29
 1853 0b2c 1C000000 		.4byte	.LVL29
 1854 0b30 5F0C0000 		.4byte	0xc5f
 1855 0b34 25       		.uleb128 0x25
 1856 0b35 34000000 		.4byte	.LVL30
 1857 0b39 3F0C0000 		.4byte	0xc3f
 1858 0b3d 26       		.uleb128 0x26
 1859 0b3e 01       		.uleb128 0x1
 1860 0b3f 50       		.byte	0x50
 1861 0b40 05       		.uleb128 0x5
ARM GAS  C:\Users\jo\AppData\Local\Temp\ccGI0iNg.s 			page 34


 1862 0b41 03       		.byte	0x3
 1863 0b42 00000000 		.4byte	.LANCHOR2
 1864 0b46 00       		.byte	0
 1865 0b47 00       		.byte	0
 1866 0b48 00       		.byte	0
 1867 0b49 25       		.uleb128 0x25
 1868 0b4a 18000000 		.4byte	.LVL28
 1869 0b4e EB090000 		.4byte	0x9eb
 1870 0b52 26       		.uleb128 0x26
 1871 0b53 01       		.uleb128 0x1
 1872 0b54 51       		.byte	0x51
 1873 0b55 02       		.uleb128 0x2
 1874 0b56 74       		.byte	0x74
 1875 0b57 00       		.sleb128 0
 1876 0b58 26       		.uleb128 0x26
 1877 0b59 01       		.uleb128 0x1
 1878 0b5a 50       		.byte	0x50
 1879 0b5b 02       		.uleb128 0x2
 1880 0b5c 75       		.byte	0x75
 1881 0b5d 00       		.sleb128 0
 1882 0b5e 00       		.byte	0
 1883 0b5f 00       		.byte	0
 1884 0b60 21       		.uleb128 0x21
 1885 0b61 E1060000 		.4byte	.LASF137
 1886 0b65 01       		.byte	0x1
 1887 0b66 61       		.byte	0x61
 1888 0b67 00000000 		.4byte	.LFB229
 1889 0b6b 38000000 		.4byte	.LFE229-.LFB229
 1890 0b6f 01       		.uleb128 0x1
 1891 0b70 9C       		.byte	0x9c
 1892 0b71 130C0000 		.4byte	0xc13
 1893 0b75 22       		.uleb128 0x22
 1894 0b76 6D7000   		.ascii	"mp\000"
 1895 0b79 01       		.byte	0x1
 1896 0b7a 61       		.byte	0x61
 1897 0b7b C4070000 		.4byte	0x7c4
 1898 0b7f 23020000 		.4byte	.LLST12
 1899 0b83 22       		.uleb128 0x22
 1900 0b84 7000     		.ascii	"p\000"
 1901 0b86 01       		.byte	0x1
 1902 0b87 61       		.byte	0x61
 1903 0b88 22030000 		.4byte	0x322
 1904 0b8c 73020000 		.4byte	.LLST13
 1905 0b90 22       		.uleb128 0x22
 1906 0b91 6E00     		.ascii	"n\000"
 1907 0b93 01       		.byte	0x1
 1908 0b94 61       		.byte	0x61
 1909 0b95 2C000000 		.4byte	0x2c
 1910 0b99 B8020000 		.4byte	.LLST14
 1911 0b9d 24       		.uleb128 0x24
 1912 0b9e 21050000 		.4byte	.LASF133
 1913 0ba2 230C0000 		.4byte	0xc23
 1914 0ba6 05       		.uleb128 0x5
 1915 0ba7 03       		.byte	0x3
 1916 0ba8 00000000 		.4byte	__func__.6554
 1917 0bac 30       		.uleb128 0x30
 1918 0bad A2070000 		.4byte	0x7a2
ARM GAS  C:\Users\jo\AppData\Local\Temp\ccGI0iNg.s 			page 35


 1919 0bb1 1E000000 		.4byte	.LBB71
 1920 0bb5 08000000 		.4byte	.LBE71-.LBB71
 1921 0bb9 01       		.byte	0x1
 1922 0bba 66       		.byte	0x66
 1923 0bbb E80B0000 		.4byte	0xbe8
 1924 0bbf 36       		.uleb128 0x36
 1925 0bc0 B8070000 		.4byte	0x7b8
 1926 0bc4 15030000 		.4byte	.LLST15
 1927 0bc8 36       		.uleb128 0x36
 1928 0bc9 AE070000 		.4byte	0x7ae
 1929 0bcd 28030000 		.4byte	.LLST16
 1930 0bd1 25       		.uleb128 0x25
 1931 0bd2 26000000 		.4byte	.LVL39
 1932 0bd6 5D0A0000 		.4byte	0xa5d
 1933 0bda 26       		.uleb128 0x26
 1934 0bdb 01       		.uleb128 0x1
 1935 0bdc 51       		.byte	0x51
 1936 0bdd 02       		.uleb128 0x2
 1937 0bde 75       		.byte	0x75
 1938 0bdf 00       		.sleb128 0
 1939 0be0 26       		.uleb128 0x26
 1940 0be1 01       		.uleb128 0x1
 1941 0be2 50       		.byte	0x50
 1942 0be3 02       		.uleb128 0x2
 1943 0be4 76       		.byte	0x76
 1944 0be5 00       		.sleb128 0
 1945 0be6 00       		.byte	0
 1946 0be7 00       		.byte	0
 1947 0be8 37       		.uleb128 0x37
 1948 0be9 16000000 		.4byte	.LVL35
 1949 0bed 3F0C0000 		.4byte	0xc3f
 1950 0bf1 FF0B0000 		.4byte	0xbff
 1951 0bf5 26       		.uleb128 0x26
 1952 0bf6 01       		.uleb128 0x1
 1953 0bf7 50       		.byte	0x50
 1954 0bf8 05       		.uleb128 0x5
 1955 0bf9 03       		.byte	0x3
 1956 0bfa 00000000 		.4byte	.LANCHOR4
 1957 0bfe 00       		.byte	0
 1958 0bff 25       		.uleb128 0x25
 1959 0c00 1C000000 		.4byte	.LVL37
 1960 0c04 3F0C0000 		.4byte	0xc3f
 1961 0c08 26       		.uleb128 0x26
 1962 0c09 01       		.uleb128 0x1
 1963 0c0a 50       		.byte	0x50
 1964 0c0b 05       		.uleb128 0x5
 1965 0c0c 03       		.byte	0x3
 1966 0c0d 00000000 		.4byte	.LANCHOR4
 1967 0c11 00       		.byte	0
 1968 0c12 00       		.byte	0
 1969 0c13 15       		.uleb128 0x15
 1970 0c14 BD060000 		.4byte	0x6bd
 1971 0c18 230C0000 		.4byte	0xc23
 1972 0c1c 16       		.uleb128 0x16
 1973 0c1d 83040000 		.4byte	0x483
 1974 0c21 0F       		.byte	0xf
 1975 0c22 00       		.byte	0
ARM GAS  C:\Users\jo\AppData\Local\Temp\ccGI0iNg.s 			page 36


 1976 0c23 19       		.uleb128 0x19
 1977 0c24 130C0000 		.4byte	0xc13
 1978 0c28 38       		.uleb128 0x38
 1979 0c29 D4000000 		.4byte	.LASF138
 1980 0c2d 12       		.byte	0x12
 1981 0c2e A706     		.2byte	0x6a7
 1982 0c30 CE000000 		.4byte	0xce
 1983 0c34 39       		.uleb128 0x39
 1984 0c35 636800   		.ascii	"ch\000"
 1985 0c38 0A       		.byte	0xa
 1986 0c39 0902     		.2byte	0x209
 1987 0c3b 19040000 		.4byte	0x419
 1988 0c3f 3A       		.uleb128 0x3a
 1989 0c40 E9010000 		.4byte	.LASF146
 1990 0c44 03       		.byte	0x3
 1991 0c45 1601     		.2byte	0x116
 1992 0c47 510C0000 		.4byte	0xc51
 1993 0c4b 0D       		.uleb128 0xd
 1994 0c4c B2060000 		.4byte	0x6b2
 1995 0c50 00       		.byte	0
 1996 0c51 3B       		.uleb128 0x3b
 1997 0c52 88020000 		.4byte	.LASF139
 1998 0c56 0D       		.byte	0xd
 1999 0c57 DE       		.byte	0xde
 2000 0c58 3B       		.uleb128 0x3b
 2001 0c59 F7030000 		.4byte	.LASF140
 2002 0c5d 0D       		.byte	0xd
 2003 0c5e D8       		.byte	0xd8
 2004 0c5f 3B       		.uleb128 0x3b
 2005 0c60 8C060000 		.4byte	.LASF141
 2006 0c64 0D       		.byte	0xd
 2007 0c65 D9       		.byte	0xd9
 2008 0c66 00       		.byte	0
 2009              		.section	.debug_abbrev,"",%progbits
 2010              	.Ldebug_abbrev0:
 2011 0000 01       		.uleb128 0x1
 2012 0001 11       		.uleb128 0x11
 2013 0002 01       		.byte	0x1
 2014 0003 25       		.uleb128 0x25
 2015 0004 0E       		.uleb128 0xe
 2016 0005 13       		.uleb128 0x13
 2017 0006 0B       		.uleb128 0xb
 2018 0007 03       		.uleb128 0x3
 2019 0008 0E       		.uleb128 0xe
 2020 0009 1B       		.uleb128 0x1b
 2021 000a 0E       		.uleb128 0xe
 2022 000b 55       		.uleb128 0x55
 2023 000c 17       		.uleb128 0x17
 2024 000d 11       		.uleb128 0x11
 2025 000e 01       		.uleb128 0x1
 2026 000f 10       		.uleb128 0x10
 2027 0010 17       		.uleb128 0x17
 2028 0011 00       		.byte	0
 2029 0012 00       		.byte	0
 2030 0013 02       		.uleb128 0x2
 2031 0014 24       		.uleb128 0x24
 2032 0015 00       		.byte	0
ARM GAS  C:\Users\jo\AppData\Local\Temp\ccGI0iNg.s 			page 37


 2033 0016 0B       		.uleb128 0xb
 2034 0017 0B       		.uleb128 0xb
 2035 0018 3E       		.uleb128 0x3e
 2036 0019 0B       		.uleb128 0xb
 2037 001a 03       		.uleb128 0x3
 2038 001b 08       		.uleb128 0x8
 2039 001c 00       		.byte	0
 2040 001d 00       		.byte	0
 2041 001e 03       		.uleb128 0x3
 2042 001f 16       		.uleb128 0x16
 2043 0020 00       		.byte	0
 2044 0021 03       		.uleb128 0x3
 2045 0022 0E       		.uleb128 0xe
 2046 0023 3A       		.uleb128 0x3a
 2047 0024 0B       		.uleb128 0xb
 2048 0025 3B       		.uleb128 0x3b
 2049 0026 0B       		.uleb128 0xb
 2050 0027 49       		.uleb128 0x49
 2051 0028 13       		.uleb128 0x13
 2052 0029 00       		.byte	0
 2053 002a 00       		.byte	0
 2054 002b 04       		.uleb128 0x4
 2055 002c 24       		.uleb128 0x24
 2056 002d 00       		.byte	0
 2057 002e 0B       		.uleb128 0xb
 2058 002f 0B       		.uleb128 0xb
 2059 0030 3E       		.uleb128 0x3e
 2060 0031 0B       		.uleb128 0xb
 2061 0032 03       		.uleb128 0x3
 2062 0033 0E       		.uleb128 0xe
 2063 0034 00       		.byte	0
 2064 0035 00       		.byte	0
 2065 0036 05       		.uleb128 0x5
 2066 0037 35       		.uleb128 0x35
 2067 0038 00       		.byte	0
 2068 0039 49       		.uleb128 0x49
 2069 003a 13       		.uleb128 0x13
 2070 003b 00       		.byte	0
 2071 003c 00       		.byte	0
 2072 003d 06       		.uleb128 0x6
 2073 003e 13       		.uleb128 0x13
 2074 003f 01       		.byte	0x1
 2075 0040 03       		.uleb128 0x3
 2076 0041 0E       		.uleb128 0xe
 2077 0042 0B       		.uleb128 0xb
 2078 0043 0B       		.uleb128 0xb
 2079 0044 3A       		.uleb128 0x3a
 2080 0045 0B       		.uleb128 0xb
 2081 0046 3B       		.uleb128 0x3b
 2082 0047 0B       		.uleb128 0xb
 2083 0048 01       		.uleb128 0x1
 2084 0049 13       		.uleb128 0x13
 2085 004a 00       		.byte	0
 2086 004b 00       		.byte	0
 2087 004c 07       		.uleb128 0x7
 2088 004d 0D       		.uleb128 0xd
 2089 004e 00       		.byte	0
ARM GAS  C:\Users\jo\AppData\Local\Temp\ccGI0iNg.s 			page 38


 2090 004f 03       		.uleb128 0x3
 2091 0050 0E       		.uleb128 0xe
 2092 0051 3A       		.uleb128 0x3a
 2093 0052 0B       		.uleb128 0xb
 2094 0053 3B       		.uleb128 0x3b
 2095 0054 0B       		.uleb128 0xb
 2096 0055 49       		.uleb128 0x49
 2097 0056 13       		.uleb128 0x13
 2098 0057 38       		.uleb128 0x38
 2099 0058 0B       		.uleb128 0xb
 2100 0059 00       		.byte	0
 2101 005a 00       		.byte	0
 2102 005b 08       		.uleb128 0x8
 2103 005c 0D       		.uleb128 0xd
 2104 005d 00       		.byte	0
 2105 005e 03       		.uleb128 0x3
 2106 005f 08       		.uleb128 0x8
 2107 0060 3A       		.uleb128 0x3a
 2108 0061 0B       		.uleb128 0xb
 2109 0062 3B       		.uleb128 0x3b
 2110 0063 05       		.uleb128 0x5
 2111 0064 49       		.uleb128 0x49
 2112 0065 13       		.uleb128 0x13
 2113 0066 38       		.uleb128 0x38
 2114 0067 0B       		.uleb128 0xb
 2115 0068 00       		.byte	0
 2116 0069 00       		.byte	0
 2117 006a 09       		.uleb128 0x9
 2118 006b 0D       		.uleb128 0xd
 2119 006c 00       		.byte	0
 2120 006d 03       		.uleb128 0x3
 2121 006e 0E       		.uleb128 0xe
 2122 006f 3A       		.uleb128 0x3a
 2123 0070 0B       		.uleb128 0xb
 2124 0071 3B       		.uleb128 0x3b
 2125 0072 05       		.uleb128 0x5
 2126 0073 49       		.uleb128 0x49
 2127 0074 13       		.uleb128 0x13
 2128 0075 38       		.uleb128 0x38
 2129 0076 0B       		.uleb128 0xb
 2130 0077 00       		.byte	0
 2131 0078 00       		.byte	0
 2132 0079 0A       		.uleb128 0xa
 2133 007a 0F       		.uleb128 0xf
 2134 007b 00       		.byte	0
 2135 007c 0B       		.uleb128 0xb
 2136 007d 0B       		.uleb128 0xb
 2137 007e 49       		.uleb128 0x49
 2138 007f 13       		.uleb128 0x13
 2139 0080 00       		.byte	0
 2140 0081 00       		.byte	0
 2141 0082 0B       		.uleb128 0xb
 2142 0083 13       		.uleb128 0x13
 2143 0084 01       		.byte	0x1
 2144 0085 03       		.uleb128 0x3
 2145 0086 0E       		.uleb128 0xe
 2146 0087 0B       		.uleb128 0xb
ARM GAS  C:\Users\jo\AppData\Local\Temp\ccGI0iNg.s 			page 39


 2147 0088 0B       		.uleb128 0xb
 2148 0089 3A       		.uleb128 0x3a
 2149 008a 0B       		.uleb128 0xb
 2150 008b 3B       		.uleb128 0x3b
 2151 008c 05       		.uleb128 0x5
 2152 008d 01       		.uleb128 0x1
 2153 008e 13       		.uleb128 0x13
 2154 008f 00       		.byte	0
 2155 0090 00       		.byte	0
 2156 0091 0C       		.uleb128 0xc
 2157 0092 15       		.uleb128 0x15
 2158 0093 01       		.byte	0x1
 2159 0094 27       		.uleb128 0x27
 2160 0095 19       		.uleb128 0x19
 2161 0096 01       		.uleb128 0x1
 2162 0097 13       		.uleb128 0x13
 2163 0098 00       		.byte	0
 2164 0099 00       		.byte	0
 2165 009a 0D       		.uleb128 0xd
 2166 009b 05       		.uleb128 0x5
 2167 009c 00       		.byte	0
 2168 009d 49       		.uleb128 0x49
 2169 009e 13       		.uleb128 0x13
 2170 009f 00       		.byte	0
 2171 00a0 00       		.byte	0
 2172 00a1 0E       		.uleb128 0xe
 2173 00a2 0F       		.uleb128 0xf
 2174 00a3 00       		.byte	0
 2175 00a4 0B       		.uleb128 0xb
 2176 00a5 0B       		.uleb128 0xb
 2177 00a6 00       		.byte	0
 2178 00a7 00       		.byte	0
 2179 00a8 0F       		.uleb128 0xf
 2180 00a9 13       		.uleb128 0x13
 2181 00aa 01       		.byte	0x1
 2182 00ab 03       		.uleb128 0x3
 2183 00ac 0E       		.uleb128 0xe
 2184 00ad 0B       		.uleb128 0xb
 2185 00ae 05       		.uleb128 0x5
 2186 00af 3A       		.uleb128 0x3a
 2187 00b0 0B       		.uleb128 0xb
 2188 00b1 3B       		.uleb128 0x3b
 2189 00b2 05       		.uleb128 0x5
 2190 00b3 01       		.uleb128 0x1
 2191 00b4 13       		.uleb128 0x13
 2192 00b5 00       		.byte	0
 2193 00b6 00       		.byte	0
 2194 00b7 10       		.uleb128 0x10
 2195 00b8 0D       		.uleb128 0xd
 2196 00b9 00       		.byte	0
 2197 00ba 03       		.uleb128 0x3
 2198 00bb 0E       		.uleb128 0xe
 2199 00bc 3A       		.uleb128 0x3a
 2200 00bd 0B       		.uleb128 0xb
 2201 00be 3B       		.uleb128 0x3b
 2202 00bf 05       		.uleb128 0x5
 2203 00c0 49       		.uleb128 0x49
ARM GAS  C:\Users\jo\AppData\Local\Temp\ccGI0iNg.s 			page 40


 2204 00c1 13       		.uleb128 0x13
 2205 00c2 38       		.uleb128 0x38
 2206 00c3 05       		.uleb128 0x5
 2207 00c4 00       		.byte	0
 2208 00c5 00       		.byte	0
 2209 00c6 11       		.uleb128 0x11
 2210 00c7 0D       		.uleb128 0xd
 2211 00c8 00       		.byte	0
 2212 00c9 03       		.uleb128 0x3
 2213 00ca 08       		.uleb128 0x8
 2214 00cb 3A       		.uleb128 0x3a
 2215 00cc 0B       		.uleb128 0xb
 2216 00cd 3B       		.uleb128 0x3b
 2217 00ce 05       		.uleb128 0x5
 2218 00cf 49       		.uleb128 0x49
 2219 00d0 13       		.uleb128 0x13
 2220 00d1 38       		.uleb128 0x38
 2221 00d2 05       		.uleb128 0x5
 2222 00d3 00       		.byte	0
 2223 00d4 00       		.byte	0
 2224 00d5 12       		.uleb128 0x12
 2225 00d6 0D       		.uleb128 0xd
 2226 00d7 00       		.byte	0
 2227 00d8 03       		.uleb128 0x3
 2228 00d9 08       		.uleb128 0x8
 2229 00da 3A       		.uleb128 0x3a
 2230 00db 0B       		.uleb128 0xb
 2231 00dc 3B       		.uleb128 0x3b
 2232 00dd 0B       		.uleb128 0xb
 2233 00de 49       		.uleb128 0x49
 2234 00df 13       		.uleb128 0x13
 2235 00e0 38       		.uleb128 0x38
 2236 00e1 0B       		.uleb128 0xb
 2237 00e2 00       		.byte	0
 2238 00e3 00       		.byte	0
 2239 00e4 13       		.uleb128 0x13
 2240 00e5 13       		.uleb128 0x13
 2241 00e6 01       		.byte	0x1
 2242 00e7 0B       		.uleb128 0xb
 2243 00e8 0B       		.uleb128 0xb
 2244 00e9 3A       		.uleb128 0x3a
 2245 00ea 0B       		.uleb128 0xb
 2246 00eb 3B       		.uleb128 0x3b
 2247 00ec 0B       		.uleb128 0xb
 2248 00ed 01       		.uleb128 0x1
 2249 00ee 13       		.uleb128 0x13
 2250 00ef 00       		.byte	0
 2251 00f0 00       		.byte	0
 2252 00f1 14       		.uleb128 0x14
 2253 00f2 13       		.uleb128 0x13
 2254 00f3 01       		.byte	0x1
 2255 00f4 0B       		.uleb128 0xb
 2256 00f5 05       		.uleb128 0x5
 2257 00f6 3A       		.uleb128 0x3a
 2258 00f7 0B       		.uleb128 0xb
 2259 00f8 3B       		.uleb128 0x3b
 2260 00f9 0B       		.uleb128 0xb
ARM GAS  C:\Users\jo\AppData\Local\Temp\ccGI0iNg.s 			page 41


 2261 00fa 01       		.uleb128 0x1
 2262 00fb 13       		.uleb128 0x13
 2263 00fc 00       		.byte	0
 2264 00fd 00       		.byte	0
 2265 00fe 15       		.uleb128 0x15
 2266 00ff 01       		.uleb128 0x1
 2267 0100 01       		.byte	0x1
 2268 0101 49       		.uleb128 0x49
 2269 0102 13       		.uleb128 0x13
 2270 0103 01       		.uleb128 0x1
 2271 0104 13       		.uleb128 0x13
 2272 0105 00       		.byte	0
 2273 0106 00       		.byte	0
 2274 0107 16       		.uleb128 0x16
 2275 0108 21       		.uleb128 0x21
 2276 0109 00       		.byte	0
 2277 010a 49       		.uleb128 0x49
 2278 010b 13       		.uleb128 0x13
 2279 010c 2F       		.uleb128 0x2f
 2280 010d 0B       		.uleb128 0xb
 2281 010e 00       		.byte	0
 2282 010f 00       		.byte	0
 2283 0110 17       		.uleb128 0x17
 2284 0111 17       		.uleb128 0x17
 2285 0112 01       		.byte	0x1
 2286 0113 0B       		.uleb128 0xb
 2287 0114 0B       		.uleb128 0xb
 2288 0115 3A       		.uleb128 0x3a
 2289 0116 0B       		.uleb128 0xb
 2290 0117 3B       		.uleb128 0x3b
 2291 0118 0B       		.uleb128 0xb
 2292 0119 01       		.uleb128 0x1
 2293 011a 13       		.uleb128 0x13
 2294 011b 00       		.byte	0
 2295 011c 00       		.byte	0
 2296 011d 18       		.uleb128 0x18
 2297 011e 0D       		.uleb128 0xd
 2298 011f 00       		.byte	0
 2299 0120 03       		.uleb128 0x3
 2300 0121 0E       		.uleb128 0xe
 2301 0122 3A       		.uleb128 0x3a
 2302 0123 0B       		.uleb128 0xb
 2303 0124 3B       		.uleb128 0x3b
 2304 0125 05       		.uleb128 0x5
 2305 0126 49       		.uleb128 0x49
 2306 0127 13       		.uleb128 0x13
 2307 0128 00       		.byte	0
 2308 0129 00       		.byte	0
 2309 012a 19       		.uleb128 0x19
 2310 012b 26       		.uleb128 0x26
 2311 012c 00       		.byte	0
 2312 012d 49       		.uleb128 0x49
 2313 012e 13       		.uleb128 0x13
 2314 012f 00       		.byte	0
 2315 0130 00       		.byte	0
 2316 0131 1A       		.uleb128 0x1a
 2317 0132 15       		.uleb128 0x15
ARM GAS  C:\Users\jo\AppData\Local\Temp\ccGI0iNg.s 			page 42


 2318 0133 01       		.byte	0x1
 2319 0134 27       		.uleb128 0x27
 2320 0135 19       		.uleb128 0x19
 2321 0136 49       		.uleb128 0x49
 2322 0137 13       		.uleb128 0x13
 2323 0138 01       		.uleb128 0x1
 2324 0139 13       		.uleb128 0x13
 2325 013a 00       		.byte	0
 2326 013b 00       		.byte	0
 2327 013c 1B       		.uleb128 0x1b
 2328 013d 2E       		.uleb128 0x2e
 2329 013e 01       		.byte	0x1
 2330 013f 03       		.uleb128 0x3
 2331 0140 0E       		.uleb128 0xe
 2332 0141 3A       		.uleb128 0x3a
 2333 0142 0B       		.uleb128 0xb
 2334 0143 3B       		.uleb128 0x3b
 2335 0144 05       		.uleb128 0x5
 2336 0145 27       		.uleb128 0x27
 2337 0146 19       		.uleb128 0x19
 2338 0147 20       		.uleb128 0x20
 2339 0148 0B       		.uleb128 0xb
 2340 0149 01       		.uleb128 0x1
 2341 014a 13       		.uleb128 0x13
 2342 014b 00       		.byte	0
 2343 014c 00       		.byte	0
 2344 014d 1C       		.uleb128 0x1c
 2345 014e 05       		.uleb128 0x5
 2346 014f 00       		.byte	0
 2347 0150 03       		.uleb128 0x3
 2348 0151 0E       		.uleb128 0xe
 2349 0152 3A       		.uleb128 0x3a
 2350 0153 0B       		.uleb128 0xb
 2351 0154 3B       		.uleb128 0x3b
 2352 0155 05       		.uleb128 0x5
 2353 0156 49       		.uleb128 0x49
 2354 0157 13       		.uleb128 0x13
 2355 0158 00       		.byte	0
 2356 0159 00       		.byte	0
 2357 015a 1D       		.uleb128 0x1d
 2358 015b 2E       		.uleb128 0x2e
 2359 015c 00       		.byte	0
 2360 015d 03       		.uleb128 0x3
 2361 015e 0E       		.uleb128 0xe
 2362 015f 3A       		.uleb128 0x3a
 2363 0160 0B       		.uleb128 0xb
 2364 0161 3B       		.uleb128 0x3b
 2365 0162 05       		.uleb128 0x5
 2366 0163 27       		.uleb128 0x27
 2367 0164 19       		.uleb128 0x19
 2368 0165 20       		.uleb128 0x20
 2369 0166 0B       		.uleb128 0xb
 2370 0167 00       		.byte	0
 2371 0168 00       		.byte	0
 2372 0169 1E       		.uleb128 0x1e
 2373 016a 2E       		.uleb128 0x2e
 2374 016b 01       		.byte	0x1
ARM GAS  C:\Users\jo\AppData\Local\Temp\ccGI0iNg.s 			page 43


 2375 016c 03       		.uleb128 0x3
 2376 016d 0E       		.uleb128 0xe
 2377 016e 3A       		.uleb128 0x3a
 2378 016f 0B       		.uleb128 0xb
 2379 0170 3B       		.uleb128 0x3b
 2380 0171 0B       		.uleb128 0xb
 2381 0172 27       		.uleb128 0x27
 2382 0173 19       		.uleb128 0x19
 2383 0174 20       		.uleb128 0x20
 2384 0175 0B       		.uleb128 0xb
 2385 0176 01       		.uleb128 0x1
 2386 0177 13       		.uleb128 0x13
 2387 0178 00       		.byte	0
 2388 0179 00       		.byte	0
 2389 017a 1F       		.uleb128 0x1f
 2390 017b 05       		.uleb128 0x5
 2391 017c 00       		.byte	0
 2392 017d 03       		.uleb128 0x3
 2393 017e 08       		.uleb128 0x8
 2394 017f 3A       		.uleb128 0x3a
 2395 0180 0B       		.uleb128 0xb
 2396 0181 3B       		.uleb128 0x3b
 2397 0182 0B       		.uleb128 0xb
 2398 0183 49       		.uleb128 0x49
 2399 0184 13       		.uleb128 0x13
 2400 0185 00       		.byte	0
 2401 0186 00       		.byte	0
 2402 0187 20       		.uleb128 0x20
 2403 0188 05       		.uleb128 0x5
 2404 0189 00       		.byte	0
 2405 018a 03       		.uleb128 0x3
 2406 018b 0E       		.uleb128 0xe
 2407 018c 3A       		.uleb128 0x3a
 2408 018d 0B       		.uleb128 0xb
 2409 018e 3B       		.uleb128 0x3b
 2410 018f 0B       		.uleb128 0xb
 2411 0190 49       		.uleb128 0x49
 2412 0191 13       		.uleb128 0x13
 2413 0192 00       		.byte	0
 2414 0193 00       		.byte	0
 2415 0194 21       		.uleb128 0x21
 2416 0195 2E       		.uleb128 0x2e
 2417 0196 01       		.byte	0x1
 2418 0197 3F       		.uleb128 0x3f
 2419 0198 19       		.uleb128 0x19
 2420 0199 03       		.uleb128 0x3
 2421 019a 0E       		.uleb128 0xe
 2422 019b 3A       		.uleb128 0x3a
 2423 019c 0B       		.uleb128 0xb
 2424 019d 3B       		.uleb128 0x3b
 2425 019e 0B       		.uleb128 0xb
 2426 019f 27       		.uleb128 0x27
 2427 01a0 19       		.uleb128 0x19
 2428 01a1 11       		.uleb128 0x11
 2429 01a2 01       		.uleb128 0x1
 2430 01a3 12       		.uleb128 0x12
 2431 01a4 06       		.uleb128 0x6
ARM GAS  C:\Users\jo\AppData\Local\Temp\ccGI0iNg.s 			page 44


 2432 01a5 40       		.uleb128 0x40
 2433 01a6 18       		.uleb128 0x18
 2434 01a7 9742     		.uleb128 0x2117
 2435 01a9 19       		.uleb128 0x19
 2436 01aa 01       		.uleb128 0x1
 2437 01ab 13       		.uleb128 0x13
 2438 01ac 00       		.byte	0
 2439 01ad 00       		.byte	0
 2440 01ae 22       		.uleb128 0x22
 2441 01af 05       		.uleb128 0x5
 2442 01b0 00       		.byte	0
 2443 01b1 03       		.uleb128 0x3
 2444 01b2 08       		.uleb128 0x8
 2445 01b3 3A       		.uleb128 0x3a
 2446 01b4 0B       		.uleb128 0xb
 2447 01b5 3B       		.uleb128 0x3b
 2448 01b6 0B       		.uleb128 0xb
 2449 01b7 49       		.uleb128 0x49
 2450 01b8 13       		.uleb128 0x13
 2451 01b9 02       		.uleb128 0x2
 2452 01ba 17       		.uleb128 0x17
 2453 01bb 00       		.byte	0
 2454 01bc 00       		.byte	0
 2455 01bd 23       		.uleb128 0x23
 2456 01be 05       		.uleb128 0x5
 2457 01bf 00       		.byte	0
 2458 01c0 03       		.uleb128 0x3
 2459 01c1 0E       		.uleb128 0xe
 2460 01c2 3A       		.uleb128 0x3a
 2461 01c3 0B       		.uleb128 0xb
 2462 01c4 3B       		.uleb128 0x3b
 2463 01c5 0B       		.uleb128 0xb
 2464 01c6 49       		.uleb128 0x49
 2465 01c7 13       		.uleb128 0x13
 2466 01c8 02       		.uleb128 0x2
 2467 01c9 17       		.uleb128 0x17
 2468 01ca 00       		.byte	0
 2469 01cb 00       		.byte	0
 2470 01cc 24       		.uleb128 0x24
 2471 01cd 34       		.uleb128 0x34
 2472 01ce 00       		.byte	0
 2473 01cf 03       		.uleb128 0x3
 2474 01d0 0E       		.uleb128 0xe
 2475 01d1 49       		.uleb128 0x49
 2476 01d2 13       		.uleb128 0x13
 2477 01d3 34       		.uleb128 0x34
 2478 01d4 19       		.uleb128 0x19
 2479 01d5 02       		.uleb128 0x2
 2480 01d6 18       		.uleb128 0x18
 2481 01d7 00       		.byte	0
 2482 01d8 00       		.byte	0
 2483 01d9 25       		.uleb128 0x25
 2484 01da 898201   		.uleb128 0x4109
 2485 01dd 01       		.byte	0x1
 2486 01de 11       		.uleb128 0x11
 2487 01df 01       		.uleb128 0x1
 2488 01e0 31       		.uleb128 0x31
ARM GAS  C:\Users\jo\AppData\Local\Temp\ccGI0iNg.s 			page 45


 2489 01e1 13       		.uleb128 0x13
 2490 01e2 00       		.byte	0
 2491 01e3 00       		.byte	0
 2492 01e4 26       		.uleb128 0x26
 2493 01e5 8A8201   		.uleb128 0x410a
 2494 01e8 00       		.byte	0
 2495 01e9 02       		.uleb128 0x2
 2496 01ea 18       		.uleb128 0x18
 2497 01eb 9142     		.uleb128 0x2111
 2498 01ed 18       		.uleb128 0x18
 2499 01ee 00       		.byte	0
 2500 01ef 00       		.byte	0
 2501 01f0 27       		.uleb128 0x27
 2502 01f1 2E       		.uleb128 0x2e
 2503 01f2 01       		.byte	0x1
 2504 01f3 3F       		.uleb128 0x3f
 2505 01f4 19       		.uleb128 0x19
 2506 01f5 03       		.uleb128 0x3
 2507 01f6 0E       		.uleb128 0xe
 2508 01f7 3A       		.uleb128 0x3a
 2509 01f8 0B       		.uleb128 0xb
 2510 01f9 3B       		.uleb128 0x3b
 2511 01fa 0B       		.uleb128 0xb
 2512 01fb 27       		.uleb128 0x27
 2513 01fc 19       		.uleb128 0x19
 2514 01fd 49       		.uleb128 0x49
 2515 01fe 13       		.uleb128 0x13
 2516 01ff 11       		.uleb128 0x11
 2517 0200 01       		.uleb128 0x1
 2518 0201 12       		.uleb128 0x12
 2519 0202 06       		.uleb128 0x6
 2520 0203 40       		.uleb128 0x40
 2521 0204 18       		.uleb128 0x18
 2522 0205 01       		.uleb128 0x1
 2523 0206 13       		.uleb128 0x13
 2524 0207 00       		.byte	0
 2525 0208 00       		.byte	0
 2526 0209 28       		.uleb128 0x28
 2527 020a 34       		.uleb128 0x34
 2528 020b 00       		.byte	0
 2529 020c 03       		.uleb128 0x3
 2530 020d 0E       		.uleb128 0xe
 2531 020e 3A       		.uleb128 0x3a
 2532 020f 0B       		.uleb128 0xb
 2533 0210 3B       		.uleb128 0x3b
 2534 0211 0B       		.uleb128 0xb
 2535 0212 49       		.uleb128 0x49
 2536 0213 13       		.uleb128 0x13
 2537 0214 02       		.uleb128 0x2
 2538 0215 17       		.uleb128 0x17
 2539 0216 00       		.byte	0
 2540 0217 00       		.byte	0
 2541 0218 29       		.uleb128 0x29
 2542 0219 898201   		.uleb128 0x4109
 2543 021c 00       		.byte	0
 2544 021d 11       		.uleb128 0x11
 2545 021e 01       		.uleb128 0x1
ARM GAS  C:\Users\jo\AppData\Local\Temp\ccGI0iNg.s 			page 46


 2546 021f 31       		.uleb128 0x31
 2547 0220 13       		.uleb128 0x13
 2548 0221 00       		.byte	0
 2549 0222 00       		.byte	0
 2550 0223 2A       		.uleb128 0x2a
 2551 0224 34       		.uleb128 0x34
 2552 0225 00       		.byte	0
 2553 0226 03       		.uleb128 0x3
 2554 0227 0E       		.uleb128 0xe
 2555 0228 49       		.uleb128 0x49
 2556 0229 13       		.uleb128 0x13
 2557 022a 34       		.uleb128 0x34
 2558 022b 19       		.uleb128 0x19
 2559 022c 1C       		.uleb128 0x1c
 2560 022d 0E       		.uleb128 0xe
 2561 022e 00       		.byte	0
 2562 022f 00       		.byte	0
 2563 0230 2B       		.uleb128 0x2b
 2564 0231 2E       		.uleb128 0x2e
 2565 0232 01       		.byte	0x1
 2566 0233 3F       		.uleb128 0x3f
 2567 0234 19       		.uleb128 0x19
 2568 0235 03       		.uleb128 0x3
 2569 0236 0E       		.uleb128 0xe
 2570 0237 3A       		.uleb128 0x3a
 2571 0238 0B       		.uleb128 0xb
 2572 0239 3B       		.uleb128 0x3b
 2573 023a 0B       		.uleb128 0xb
 2574 023b 27       		.uleb128 0x27
 2575 023c 19       		.uleb128 0x19
 2576 023d 49       		.uleb128 0x49
 2577 023e 13       		.uleb128 0x13
 2578 023f 11       		.uleb128 0x11
 2579 0240 01       		.uleb128 0x1
 2580 0241 12       		.uleb128 0x12
 2581 0242 06       		.uleb128 0x6
 2582 0243 40       		.uleb128 0x40
 2583 0244 18       		.uleb128 0x18
 2584 0245 9742     		.uleb128 0x2117
 2585 0247 19       		.uleb128 0x19
 2586 0248 01       		.uleb128 0x1
 2587 0249 13       		.uleb128 0x13
 2588 024a 00       		.byte	0
 2589 024b 00       		.byte	0
 2590 024c 2C       		.uleb128 0x2c
 2591 024d 1D       		.uleb128 0x1d
 2592 024e 01       		.byte	0x1
 2593 024f 31       		.uleb128 0x31
 2594 0250 13       		.uleb128 0x13
 2595 0251 52       		.uleb128 0x52
 2596 0252 01       		.uleb128 0x1
 2597 0253 55       		.uleb128 0x55
 2598 0254 17       		.uleb128 0x17
 2599 0255 58       		.uleb128 0x58
 2600 0256 0B       		.uleb128 0xb
 2601 0257 59       		.uleb128 0x59
 2602 0258 0B       		.uleb128 0xb
ARM GAS  C:\Users\jo\AppData\Local\Temp\ccGI0iNg.s 			page 47


 2603 0259 01       		.uleb128 0x1
 2604 025a 13       		.uleb128 0x13
 2605 025b 00       		.byte	0
 2606 025c 00       		.byte	0
 2607 025d 2D       		.uleb128 0x2d
 2608 025e 1D       		.uleb128 0x1d
 2609 025f 01       		.byte	0x1
 2610 0260 31       		.uleb128 0x31
 2611 0261 13       		.uleb128 0x13
 2612 0262 52       		.uleb128 0x52
 2613 0263 01       		.uleb128 0x1
 2614 0264 55       		.uleb128 0x55
 2615 0265 17       		.uleb128 0x17
 2616 0266 58       		.uleb128 0x58
 2617 0267 0B       		.uleb128 0xb
 2618 0268 59       		.uleb128 0x59
 2619 0269 05       		.uleb128 0x5
 2620 026a 01       		.uleb128 0x1
 2621 026b 13       		.uleb128 0x13
 2622 026c 00       		.byte	0
 2623 026d 00       		.byte	0
 2624 026e 2E       		.uleb128 0x2e
 2625 026f 1D       		.uleb128 0x1d
 2626 0270 01       		.byte	0x1
 2627 0271 31       		.uleb128 0x31
 2628 0272 13       		.uleb128 0x13
 2629 0273 52       		.uleb128 0x52
 2630 0274 01       		.uleb128 0x1
 2631 0275 55       		.uleb128 0x55
 2632 0276 17       		.uleb128 0x17
 2633 0277 58       		.uleb128 0x58
 2634 0278 0B       		.uleb128 0xb
 2635 0279 59       		.uleb128 0x59
 2636 027a 05       		.uleb128 0x5
 2637 027b 00       		.byte	0
 2638 027c 00       		.byte	0
 2639 027d 2F       		.uleb128 0x2f
 2640 027e 05       		.uleb128 0x5
 2641 027f 00       		.byte	0
 2642 0280 31       		.uleb128 0x31
 2643 0281 13       		.uleb128 0x13
 2644 0282 1C       		.uleb128 0x1c
 2645 0283 0B       		.uleb128 0xb
 2646 0284 00       		.byte	0
 2647 0285 00       		.byte	0
 2648 0286 30       		.uleb128 0x30
 2649 0287 1D       		.uleb128 0x1d
 2650 0288 01       		.byte	0x1
 2651 0289 31       		.uleb128 0x31
 2652 028a 13       		.uleb128 0x13
 2653 028b 11       		.uleb128 0x11
 2654 028c 01       		.uleb128 0x1
 2655 028d 12       		.uleb128 0x12
 2656 028e 06       		.uleb128 0x6
 2657 028f 58       		.uleb128 0x58
 2658 0290 0B       		.uleb128 0xb
 2659 0291 59       		.uleb128 0x59
ARM GAS  C:\Users\jo\AppData\Local\Temp\ccGI0iNg.s 			page 48


 2660 0292 0B       		.uleb128 0xb
 2661 0293 01       		.uleb128 0x1
 2662 0294 13       		.uleb128 0x13
 2663 0295 00       		.byte	0
 2664 0296 00       		.byte	0
 2665 0297 31       		.uleb128 0x31
 2666 0298 0B       		.uleb128 0xb
 2667 0299 01       		.byte	0x1
 2668 029a 11       		.uleb128 0x11
 2669 029b 01       		.uleb128 0x1
 2670 029c 12       		.uleb128 0x12
 2671 029d 06       		.uleb128 0x6
 2672 029e 00       		.byte	0
 2673 029f 00       		.byte	0
 2674 02a0 32       		.uleb128 0x32
 2675 02a1 34       		.uleb128 0x34
 2676 02a2 00       		.byte	0
 2677 02a3 31       		.uleb128 0x31
 2678 02a4 13       		.uleb128 0x13
 2679 02a5 02       		.uleb128 0x2
 2680 02a6 18       		.uleb128 0x18
 2681 02a7 00       		.byte	0
 2682 02a8 00       		.byte	0
 2683 02a9 33       		.uleb128 0x33
 2684 02aa 1D       		.uleb128 0x1d
 2685 02ab 01       		.byte	0x1
 2686 02ac 31       		.uleb128 0x31
 2687 02ad 13       		.uleb128 0x13
 2688 02ae 11       		.uleb128 0x11
 2689 02af 01       		.uleb128 0x1
 2690 02b0 12       		.uleb128 0x12
 2691 02b1 06       		.uleb128 0x6
 2692 02b2 58       		.uleb128 0x58
 2693 02b3 0B       		.uleb128 0xb
 2694 02b4 59       		.uleb128 0x59
 2695 02b5 05       		.uleb128 0x5
 2696 02b6 01       		.uleb128 0x1
 2697 02b7 13       		.uleb128 0x13
 2698 02b8 00       		.byte	0
 2699 02b9 00       		.byte	0
 2700 02ba 34       		.uleb128 0x34
 2701 02bb 1D       		.uleb128 0x1d
 2702 02bc 01       		.byte	0x1
 2703 02bd 31       		.uleb128 0x31
 2704 02be 13       		.uleb128 0x13
 2705 02bf 11       		.uleb128 0x11
 2706 02c0 01       		.uleb128 0x1
 2707 02c1 12       		.uleb128 0x12
 2708 02c2 06       		.uleb128 0x6
 2709 02c3 58       		.uleb128 0x58
 2710 02c4 0B       		.uleb128 0xb
 2711 02c5 59       		.uleb128 0x59
 2712 02c6 05       		.uleb128 0x5
 2713 02c7 00       		.byte	0
 2714 02c8 00       		.byte	0
 2715 02c9 35       		.uleb128 0x35
 2716 02ca 34       		.uleb128 0x34
ARM GAS  C:\Users\jo\AppData\Local\Temp\ccGI0iNg.s 			page 49


 2717 02cb 00       		.byte	0
 2718 02cc 03       		.uleb128 0x3
 2719 02cd 08       		.uleb128 0x8
 2720 02ce 3A       		.uleb128 0x3a
 2721 02cf 0B       		.uleb128 0xb
 2722 02d0 3B       		.uleb128 0x3b
 2723 02d1 0B       		.uleb128 0xb
 2724 02d2 49       		.uleb128 0x49
 2725 02d3 13       		.uleb128 0x13
 2726 02d4 02       		.uleb128 0x2
 2727 02d5 17       		.uleb128 0x17
 2728 02d6 00       		.byte	0
 2729 02d7 00       		.byte	0
 2730 02d8 36       		.uleb128 0x36
 2731 02d9 05       		.uleb128 0x5
 2732 02da 00       		.byte	0
 2733 02db 31       		.uleb128 0x31
 2734 02dc 13       		.uleb128 0x13
 2735 02dd 02       		.uleb128 0x2
 2736 02de 17       		.uleb128 0x17
 2737 02df 00       		.byte	0
 2738 02e0 00       		.byte	0
 2739 02e1 37       		.uleb128 0x37
 2740 02e2 898201   		.uleb128 0x4109
 2741 02e5 01       		.byte	0x1
 2742 02e6 11       		.uleb128 0x11
 2743 02e7 01       		.uleb128 0x1
 2744 02e8 9542     		.uleb128 0x2115
 2745 02ea 19       		.uleb128 0x19
 2746 02eb 31       		.uleb128 0x31
 2747 02ec 13       		.uleb128 0x13
 2748 02ed 01       		.uleb128 0x1
 2749 02ee 13       		.uleb128 0x13
 2750 02ef 00       		.byte	0
 2751 02f0 00       		.byte	0
 2752 02f1 38       		.uleb128 0x38
 2753 02f2 34       		.uleb128 0x34
 2754 02f3 00       		.byte	0
 2755 02f4 03       		.uleb128 0x3
 2756 02f5 0E       		.uleb128 0xe
 2757 02f6 3A       		.uleb128 0x3a
 2758 02f7 0B       		.uleb128 0xb
 2759 02f8 3B       		.uleb128 0x3b
 2760 02f9 05       		.uleb128 0x5
 2761 02fa 49       		.uleb128 0x49
 2762 02fb 13       		.uleb128 0x13
 2763 02fc 3F       		.uleb128 0x3f
 2764 02fd 19       		.uleb128 0x19
 2765 02fe 3C       		.uleb128 0x3c
 2766 02ff 19       		.uleb128 0x19
 2767 0300 00       		.byte	0
 2768 0301 00       		.byte	0
 2769 0302 39       		.uleb128 0x39
 2770 0303 34       		.uleb128 0x34
 2771 0304 00       		.byte	0
 2772 0305 03       		.uleb128 0x3
 2773 0306 08       		.uleb128 0x8
ARM GAS  C:\Users\jo\AppData\Local\Temp\ccGI0iNg.s 			page 50


 2774 0307 3A       		.uleb128 0x3a
 2775 0308 0B       		.uleb128 0xb
 2776 0309 3B       		.uleb128 0x3b
 2777 030a 05       		.uleb128 0x5
 2778 030b 49       		.uleb128 0x49
 2779 030c 13       		.uleb128 0x13
 2780 030d 3F       		.uleb128 0x3f
 2781 030e 19       		.uleb128 0x19
 2782 030f 3C       		.uleb128 0x3c
 2783 0310 19       		.uleb128 0x19
 2784 0311 00       		.byte	0
 2785 0312 00       		.byte	0
 2786 0313 3A       		.uleb128 0x3a
 2787 0314 2E       		.uleb128 0x2e
 2788 0315 01       		.byte	0x1
 2789 0316 3F       		.uleb128 0x3f
 2790 0317 19       		.uleb128 0x19
 2791 0318 03       		.uleb128 0x3
 2792 0319 0E       		.uleb128 0xe
 2793 031a 3A       		.uleb128 0x3a
 2794 031b 0B       		.uleb128 0xb
 2795 031c 3B       		.uleb128 0x3b
 2796 031d 05       		.uleb128 0x5
 2797 031e 27       		.uleb128 0x27
 2798 031f 19       		.uleb128 0x19
 2799 0320 3C       		.uleb128 0x3c
 2800 0321 19       		.uleb128 0x19
 2801 0322 01       		.uleb128 0x1
 2802 0323 13       		.uleb128 0x13
 2803 0324 00       		.byte	0
 2804 0325 00       		.byte	0
 2805 0326 3B       		.uleb128 0x3b
 2806 0327 2E       		.uleb128 0x2e
 2807 0328 00       		.byte	0
 2808 0329 3F       		.uleb128 0x3f
 2809 032a 19       		.uleb128 0x19
 2810 032b 03       		.uleb128 0x3
 2811 032c 0E       		.uleb128 0xe
 2812 032d 3A       		.uleb128 0x3a
 2813 032e 0B       		.uleb128 0xb
 2814 032f 3B       		.uleb128 0x3b
 2815 0330 0B       		.uleb128 0xb
 2816 0331 27       		.uleb128 0x27
 2817 0332 19       		.uleb128 0x19
 2818 0333 3C       		.uleb128 0x3c
 2819 0334 19       		.uleb128 0x19
 2820 0335 00       		.byte	0
 2821 0336 00       		.byte	0
 2822 0337 00       		.byte	0
 2823              		.section	.debug_loc,"",%progbits
 2824              	.Ldebug_loc0:
 2825              	.LLST0:
 2826 0000 00000000 		.4byte	.LVL0
 2827 0004 10000000 		.4byte	.LVL1
 2828 0008 0100     		.2byte	0x1
 2829 000a 50       		.byte	0x50
 2830 000b 10000000 		.4byte	.LVL1
ARM GAS  C:\Users\jo\AppData\Local\Temp\ccGI0iNg.s 			page 51


 2831 000f 1C000000 		.4byte	.LVL3
 2832 0013 0100     		.2byte	0x1
 2833 0015 54       		.byte	0x54
 2834 0016 1C000000 		.4byte	.LVL3
 2835 001a 20000000 		.4byte	.LFE228
 2836 001e 0400     		.2byte	0x4
 2837 0020 F3       		.byte	0xf3
 2838 0021 01       		.uleb128 0x1
 2839 0022 50       		.byte	0x50
 2840 0023 9F       		.byte	0x9f
 2841 0024 00000000 		.4byte	0
 2842 0028 00000000 		.4byte	0
 2843              	.LLST1:
 2844 002c 00000000 		.4byte	.LVL0
 2845 0030 13000000 		.4byte	.LVL2-1
 2846 0034 0100     		.2byte	0x1
 2847 0036 51       		.byte	0x51
 2848 0037 13000000 		.4byte	.LVL2-1
 2849 003b 1C000000 		.4byte	.LVL3
 2850 003f 0100     		.2byte	0x1
 2851 0041 55       		.byte	0x55
 2852 0042 1C000000 		.4byte	.LVL3
 2853 0046 20000000 		.4byte	.LFE228
 2854 004a 0500     		.2byte	0x5
 2855 004c F3       		.byte	0xf3
 2856 004d 01       		.uleb128 0x1
 2857 004e 50       		.byte	0x50
 2858 004f 23       		.byte	0x23
 2859 0050 04       		.uleb128 0x4
 2860 0051 00000000 		.4byte	0
 2861 0055 00000000 		.4byte	0
 2862              	.LLST2:
 2863 0059 00000000 		.4byte	.LVL0
 2864 005d 13000000 		.4byte	.LVL2-1
 2865 0061 0100     		.2byte	0x1
 2866 0063 52       		.byte	0x52
 2867 0064 13000000 		.4byte	.LVL2-1
 2868 0068 1C000000 		.4byte	.LVL3
 2869 006c 0100     		.2byte	0x1
 2870 006e 56       		.byte	0x56
 2871 006f 1C000000 		.4byte	.LVL3
 2872 0073 20000000 		.4byte	.LFE228
 2873 0077 0500     		.2byte	0x5
 2874 0079 F3       		.byte	0xf3
 2875 007a 01       		.uleb128 0x1
 2876 007b 50       		.byte	0x50
 2877 007c 23       		.byte	0x23
 2878 007d 08       		.uleb128 0x8
 2879 007e 00000000 		.4byte	0
 2880 0082 00000000 		.4byte	0
 2881              	.LLST3:
 2882 0086 00000000 		.4byte	.LVL4
 2883 008a 07000000 		.4byte	.LVL5-1
 2884 008e 0100     		.2byte	0x1
 2885 0090 50       		.byte	0x50
 2886 0091 07000000 		.4byte	.LVL5-1
 2887 0095 1E000000 		.4byte	.LVL9
ARM GAS  C:\Users\jo\AppData\Local\Temp\ccGI0iNg.s 			page 52


 2888 0099 0100     		.2byte	0x1
 2889 009b 54       		.byte	0x54
 2890 009c 1E000000 		.4byte	.LVL9
 2891 00a0 20000000 		.4byte	.LVL10
 2892 00a4 0400     		.2byte	0x4
 2893 00a6 F3       		.byte	0xf3
 2894 00a7 01       		.uleb128 0x1
 2895 00a8 50       		.byte	0x50
 2896 00a9 9F       		.byte	0x9f
 2897 00aa 20000000 		.4byte	.LVL10
 2898 00ae 30000000 		.4byte	.LFE230
 2899 00b2 0100     		.2byte	0x1
 2900 00b4 54       		.byte	0x54
 2901 00b5 00000000 		.4byte	0
 2902 00b9 00000000 		.4byte	0
 2903              	.LLST4:
 2904 00bd 0C000000 		.4byte	.LVL6
 2905 00c1 1A000000 		.4byte	.LVL8
 2906 00c5 0100     		.2byte	0x1
 2907 00c7 50       		.byte	0x50
 2908 00c8 1A000000 		.4byte	.LVL8
 2909 00cc 1E000000 		.4byte	.LVL9
 2910 00d0 0200     		.2byte	0x2
 2911 00d2 74       		.byte	0x74
 2912 00d3 00       		.sleb128 0
 2913 00d4 1E000000 		.4byte	.LVL9
 2914 00d8 1F000000 		.4byte	.LVL10-1
 2915 00dc 0300     		.2byte	0x3
 2916 00de F3       		.byte	0xf3
 2917 00df 01       		.uleb128 0x1
 2918 00e0 50       		.byte	0x50
 2919 00e1 20000000 		.4byte	.LVL10
 2920 00e5 22000000 		.4byte	.LVL11
 2921 00e9 0100     		.2byte	0x1
 2922 00eb 50       		.byte	0x50
 2923 00ec 00000000 		.4byte	0
 2924 00f0 00000000 		.4byte	0
 2925              	.LLST5:
 2926 00f4 00000000 		.4byte	.LVL13
 2927 00f8 0D000000 		.4byte	.LVL14-1
 2928 00fc 0100     		.2byte	0x1
 2929 00fe 50       		.byte	0x50
 2930 00ff 0D000000 		.4byte	.LVL14-1
 2931 0103 16000000 		.4byte	.LVL16
 2932 0107 0100     		.2byte	0x1
 2933 0109 54       		.byte	0x54
 2934 010a 16000000 		.4byte	.LVL16
 2935 010e 44000000 		.4byte	.LFE231
 2936 0112 0400     		.2byte	0x4
 2937 0114 F3       		.byte	0xf3
 2938 0115 01       		.uleb128 0x1
 2939 0116 50       		.byte	0x50
 2940 0117 9F       		.byte	0x9f
 2941 0118 00000000 		.4byte	0
 2942 011c 00000000 		.4byte	0
 2943              	.LLST6:
 2944 0120 16000000 		.4byte	.LVL16
ARM GAS  C:\Users\jo\AppData\Local\Temp\ccGI0iNg.s 			page 53


 2945 0124 19000000 		.4byte	.LVL17-1
 2946 0128 0100     		.2byte	0x1
 2947 012a 50       		.byte	0x50
 2948 012b 19000000 		.4byte	.LVL17-1
 2949 012f 3C000000 		.4byte	.LVL19
 2950 0133 0100     		.2byte	0x1
 2951 0135 54       		.byte	0x54
 2952 0136 3C000000 		.4byte	.LVL19
 2953 013a 44000000 		.4byte	.LFE231
 2954 013e 0100     		.2byte	0x1
 2955 0140 50       		.byte	0x50
 2956 0141 00000000 		.4byte	0
 2957 0145 00000000 		.4byte	0
 2958              	.LLST7:
 2959 0149 00000000 		.4byte	.LVL20
 2960 014d 09000000 		.4byte	.LVL22-1
 2961 0151 0100     		.2byte	0x1
 2962 0153 50       		.byte	0x50
 2963 0154 09000000 		.4byte	.LVL22-1
 2964 0158 24000000 		.4byte	.LVL25
 2965 015c 0100     		.2byte	0x1
 2966 015e 54       		.byte	0x54
 2967 015f 24000000 		.4byte	.LVL25
 2968 0163 28000000 		.4byte	.LFE232
 2969 0167 0400     		.2byte	0x4
 2970 0169 F3       		.byte	0xf3
 2971 016a 01       		.uleb128 0x1
 2972 016b 50       		.byte	0x50
 2973 016c 9F       		.byte	0x9f
 2974 016d 00000000 		.4byte	0
 2975 0171 00000000 		.4byte	0
 2976              	.LLST8:
 2977 0175 00000000 		.4byte	.LVL20
 2978 0179 09000000 		.4byte	.LVL22-1
 2979 017d 0100     		.2byte	0x1
 2980 017f 51       		.byte	0x51
 2981 0180 09000000 		.4byte	.LVL22-1
 2982 0184 24000000 		.4byte	.LVL25
 2983 0188 0100     		.2byte	0x1
 2984 018a 55       		.byte	0x55
 2985 018b 24000000 		.4byte	.LVL25
 2986 018f 28000000 		.4byte	.LFE232
 2987 0193 0300     		.2byte	0x3
 2988 0195 F3       		.byte	0xf3
 2989 0196 01       		.uleb128 0x1
 2990 0197 50       		.byte	0x50
 2991 0198 00000000 		.4byte	0
 2992 019c 00000000 		.4byte	0
 2993              	.LLST9:
 2994 01a0 06000000 		.4byte	.LVL21
 2995 01a4 09000000 		.4byte	.LVL22-1
 2996 01a8 0100     		.2byte	0x1
 2997 01aa 51       		.byte	0x51
 2998 01ab 09000000 		.4byte	.LVL22-1
 2999 01af 24000000 		.4byte	.LVL25
 3000 01b3 0100     		.2byte	0x1
 3001 01b5 55       		.byte	0x55
ARM GAS  C:\Users\jo\AppData\Local\Temp\ccGI0iNg.s 			page 54


 3002 01b6 24000000 		.4byte	.LVL25
 3003 01ba 28000000 		.4byte	.LFE232
 3004 01be 0300     		.2byte	0x3
 3005 01c0 F3       		.byte	0xf3
 3006 01c1 01       		.uleb128 0x1
 3007 01c2 50       		.byte	0x50
 3008 01c3 00000000 		.4byte	0
 3009 01c7 00000000 		.4byte	0
 3010              	.LLST10:
 3011 01cb 00000000 		.4byte	.LVL26
 3012 01cf 0F000000 		.4byte	.LVL27-1
 3013 01d3 0100     		.2byte	0x1
 3014 01d5 50       		.byte	0x50
 3015 01d6 0F000000 		.4byte	.LVL27-1
 3016 01da 3C000000 		.4byte	.LVL31
 3017 01de 0100     		.2byte	0x1
 3018 01e0 55       		.byte	0x55
 3019 01e1 3C000000 		.4byte	.LVL31
 3020 01e5 44000000 		.4byte	.LFE233
 3021 01e9 0400     		.2byte	0x4
 3022 01eb F3       		.byte	0xf3
 3023 01ec 01       		.uleb128 0x1
 3024 01ed 50       		.byte	0x50
 3025 01ee 9F       		.byte	0x9f
 3026 01ef 00000000 		.4byte	0
 3027 01f3 00000000 		.4byte	0
 3028              	.LLST11:
 3029 01f7 00000000 		.4byte	.LVL26
 3030 01fb 0F000000 		.4byte	.LVL27-1
 3031 01ff 0100     		.2byte	0x1
 3032 0201 51       		.byte	0x51
 3033 0202 0F000000 		.4byte	.LVL27-1
 3034 0206 3C000000 		.4byte	.LVL31
 3035 020a 0100     		.2byte	0x1
 3036 020c 54       		.byte	0x54
 3037 020d 3C000000 		.4byte	.LVL31
 3038 0211 44000000 		.4byte	.LFE233
 3039 0215 0400     		.2byte	0x4
 3040 0217 F3       		.byte	0xf3
 3041 0218 01       		.uleb128 0x1
 3042 0219 51       		.byte	0x51
 3043 021a 9F       		.byte	0x9f
 3044 021b 00000000 		.4byte	0
 3045 021f 00000000 		.4byte	0
 3046              	.LLST12:
 3047 0223 00000000 		.4byte	.LVL32
 3048 0227 0E000000 		.4byte	.LVL33
 3049 022b 0100     		.2byte	0x1
 3050 022d 50       		.byte	0x50
 3051 022e 0E000000 		.4byte	.LVL33
 3052 0232 12000000 		.4byte	.LVL34
 3053 0236 0100     		.2byte	0x1
 3054 0238 56       		.byte	0x56
 3055 0239 12000000 		.4byte	.LVL34
 3056 023d 16000000 		.4byte	.LVL35
 3057 0241 0400     		.2byte	0x4
 3058 0243 F3       		.byte	0xf3
ARM GAS  C:\Users\jo\AppData\Local\Temp\ccGI0iNg.s 			page 55


 3059 0244 01       		.uleb128 0x1
 3060 0245 50       		.byte	0x50
 3061 0246 9F       		.byte	0x9f
 3062 0247 16000000 		.4byte	.LVL35
 3063 024b 18000000 		.4byte	.LVL36
 3064 024f 0100     		.2byte	0x1
 3065 0251 50       		.byte	0x50
 3066 0252 18000000 		.4byte	.LVL36
 3067 0256 32000000 		.4byte	.LVL43
 3068 025a 0100     		.2byte	0x1
 3069 025c 56       		.byte	0x56
 3070 025d 32000000 		.4byte	.LVL43
 3071 0261 38000000 		.4byte	.LFE229
 3072 0265 0400     		.2byte	0x4
 3073 0267 F3       		.byte	0xf3
 3074 0268 01       		.uleb128 0x1
 3075 0269 50       		.byte	0x50
 3076 026a 9F       		.byte	0x9f
 3077 026b 00000000 		.4byte	0
 3078 026f 00000000 		.4byte	0
 3079              	.LLST13:
 3080 0273 00000000 		.4byte	.LVL32
 3081 0277 15000000 		.4byte	.LVL35-1
 3082 027b 0100     		.2byte	0x1
 3083 027d 51       		.byte	0x51
 3084 027e 15000000 		.4byte	.LVL35-1
 3085 0282 16000000 		.4byte	.LVL35
 3086 0286 0400     		.2byte	0x4
 3087 0288 F3       		.byte	0xf3
 3088 0289 01       		.uleb128 0x1
 3089 028a 51       		.byte	0x51
 3090 028b 9F       		.byte	0x9f
 3091 028c 16000000 		.4byte	.LVL35
 3092 0290 1B000000 		.4byte	.LVL37-1
 3093 0294 0100     		.2byte	0x1
 3094 0296 51       		.byte	0x51
 3095 0297 1B000000 		.4byte	.LVL37-1
 3096 029b 32000000 		.4byte	.LVL43
 3097 029f 0100     		.2byte	0x1
 3098 02a1 55       		.byte	0x55
 3099 02a2 32000000 		.4byte	.LVL43
 3100 02a6 38000000 		.4byte	.LFE229
 3101 02aa 0400     		.2byte	0x4
 3102 02ac F3       		.byte	0xf3
 3103 02ad 01       		.uleb128 0x1
 3104 02ae 51       		.byte	0x51
 3105 02af 9F       		.byte	0x9f
 3106 02b0 00000000 		.4byte	0
 3107 02b4 00000000 		.4byte	0
 3108              	.LLST14:
 3109 02b8 00000000 		.4byte	.LVL32
 3110 02bc 15000000 		.4byte	.LVL35-1
 3111 02c0 0100     		.2byte	0x1
 3112 02c2 52       		.byte	0x52
 3113 02c3 15000000 		.4byte	.LVL35-1
 3114 02c7 16000000 		.4byte	.LVL35
 3115 02cb 0400     		.2byte	0x4
ARM GAS  C:\Users\jo\AppData\Local\Temp\ccGI0iNg.s 			page 56


 3116 02cd F3       		.byte	0xf3
 3117 02ce 01       		.uleb128 0x1
 3118 02cf 52       		.byte	0x52
 3119 02d0 9F       		.byte	0x9f
 3120 02d1 16000000 		.4byte	.LVL35
 3121 02d5 1B000000 		.4byte	.LVL37-1
 3122 02d9 0100     		.2byte	0x1
 3123 02db 52       		.byte	0x52
 3124 02dc 1B000000 		.4byte	.LVL37-1
 3125 02e0 2A000000 		.4byte	.LVL40
 3126 02e4 0100     		.2byte	0x1
 3127 02e6 54       		.byte	0x54
 3128 02e7 2A000000 		.4byte	.LVL40
 3129 02eb 2C000000 		.4byte	.LVL41
 3130 02ef 0300     		.2byte	0x3
 3131 02f1 74       		.byte	0x74
 3132 02f2 01       		.sleb128 1
 3133 02f3 9F       		.byte	0x9f
 3134 02f4 30000000 		.4byte	.LVL42
 3135 02f8 32000000 		.4byte	.LVL43
 3136 02fc 0100     		.2byte	0x1
 3137 02fe 54       		.byte	0x54
 3138 02ff 32000000 		.4byte	.LVL43
 3139 0303 38000000 		.4byte	.LFE229
 3140 0307 0400     		.2byte	0x4
 3141 0309 F3       		.byte	0xf3
 3142 030a 01       		.uleb128 0x1
 3143 030b 52       		.byte	0x52
 3144 030c 9F       		.byte	0x9f
 3145 030d 00000000 		.4byte	0
 3146 0311 00000000 		.4byte	0
 3147              	.LLST15:
 3148 0315 1E000000 		.4byte	.LVL38
 3149 0319 2C000000 		.4byte	.LVL41
 3150 031d 0100     		.2byte	0x1
 3151 031f 55       		.byte	0x55
 3152 0320 00000000 		.4byte	0
 3153 0324 00000000 		.4byte	0
 3154              	.LLST16:
 3155 0328 1E000000 		.4byte	.LVL38
 3156 032c 30000000 		.4byte	.LVL42
 3157 0330 0100     		.2byte	0x1
 3158 0332 56       		.byte	0x56
 3159 0333 00000000 		.4byte	0
 3160 0337 00000000 		.4byte	0
 3161              		.section	.debug_aranges,"",%progbits
 3162 0000 44000000 		.4byte	0x44
 3163 0004 0200     		.2byte	0x2
 3164 0006 00000000 		.4byte	.Ldebug_info0
 3165 000a 04       		.byte	0x4
 3166 000b 00       		.byte	0
 3167 000c 0000     		.2byte	0
 3168 000e 0000     		.2byte	0
 3169 0010 00000000 		.4byte	.LFB228
 3170 0014 20000000 		.4byte	.LFE228-.LFB228
 3171 0018 00000000 		.4byte	.LFB230
 3172 001c 30000000 		.4byte	.LFE230-.LFB230
ARM GAS  C:\Users\jo\AppData\Local\Temp\ccGI0iNg.s 			page 57


 3173 0020 00000000 		.4byte	.LFB231
 3174 0024 44000000 		.4byte	.LFE231-.LFB231
 3175 0028 00000000 		.4byte	.LFB232
 3176 002c 28000000 		.4byte	.LFE232-.LFB232
 3177 0030 00000000 		.4byte	.LFB233
 3178 0034 44000000 		.4byte	.LFE233-.LFB233
 3179 0038 00000000 		.4byte	.LFB229
 3180 003c 38000000 		.4byte	.LFE229-.LFB229
 3181 0040 00000000 		.4byte	0
 3182 0044 00000000 		.4byte	0
 3183              		.section	.debug_ranges,"",%progbits
 3184              	.Ldebug_ranges0:
 3185 0000 02000000 		.4byte	.LBB36
 3186 0004 04000000 		.4byte	.LBE36
 3187 0008 06000000 		.4byte	.LBB45
 3188 000c 0E000000 		.4byte	.LBE45
 3189 0010 00000000 		.4byte	0
 3190 0014 00000000 		.4byte	0
 3191 0018 02000000 		.4byte	.LBB38
 3192 001c 04000000 		.4byte	.LBE38
 3193 0020 06000000 		.4byte	.LBB43
 3194 0024 0A000000 		.4byte	.LBE43
 3195 0028 00000000 		.4byte	0
 3196 002c 00000000 		.4byte	0
 3197 0030 00000000 		.4byte	.LFB228
 3198 0034 20000000 		.4byte	.LFE228
 3199 0038 00000000 		.4byte	.LFB230
 3200 003c 30000000 		.4byte	.LFE230
 3201 0040 00000000 		.4byte	.LFB231
 3202 0044 44000000 		.4byte	.LFE231
 3203 0048 00000000 		.4byte	.LFB232
 3204 004c 28000000 		.4byte	.LFE232
 3205 0050 00000000 		.4byte	.LFB233
 3206 0054 44000000 		.4byte	.LFE233
 3207 0058 00000000 		.4byte	.LFB229
 3208 005c 38000000 		.4byte	.LFE229
 3209 0060 00000000 		.4byte	0
 3210 0064 00000000 		.4byte	0
 3211              		.section	.debug_line,"",%progbits
 3212              	.Ldebug_line0:
 3213 0000 A5030000 		.section	.debug_str,"MS",%progbits,1
 3213      02008902 
 3213      00000201 
 3213      FB0E0D00 
 3213      01010101 
 3214              	.LASF94:
 3215 0000 74625F70 		.ascii	"tb_ptr\000"
 3215      747200
 3216              	.LASF52:
 3217 0007 72656164 		.ascii	"ready_list_t\000"
 3217      795F6C69 
 3217      73745F74 
 3217      00
 3218              	.LASF88:
 3219 0014 73655F74 		.ascii	"se_time\000"
 3219      696D6500 
 3220              	.LASF2:
ARM GAS  C:\Users\jo\AppData\Local\Temp\ccGI0iNg.s 			page 58


 3221 001c 73697A65 		.ascii	"size_t\000"
 3221      5F7400
 3222              	.LASF99:
 3223 0023 7264796D 		.ascii	"rdymsg\000"
 3223      736700
 3224              	.LASF17:
 3225 002a 75696E74 		.ascii	"uint64_t\000"
 3225      36345F74 
 3225      00
 3226              	.LASF3:
 3227 0033 5F5F7569 		.ascii	"__uint8_t\000"
 3227      6E74385F 
 3227      7400
 3228              	.LASF87:
 3229 003d 706F7274 		.ascii	"port_intctx\000"
 3229      5F696E74 
 3229      63747800 
 3230              	.LASF71:
 3231 0049 73797374 		.ascii	"system_debug_t\000"
 3231      656D5F64 
 3231      65627567 
 3231      5F7400
 3232              	.LASF130:
 3233 0058 70726F76 		.ascii	"provider\000"
 3233      69646572 
 3233      00
 3234              	.LASF122:
 3235 0061 706F7274 		.ascii	"port_lock\000"
 3235      5F6C6F63 
 3235      6B00
 3236              	.LASF115:
 3237 006b 6D656D67 		.ascii	"memgetfunc_t\000"
 3237      65746675 
 3237      6E635F74 
 3237      00
 3238              	.LASF13:
 3239 0078 6C6F6E67 		.ascii	"long long unsigned int\000"
 3239      206C6F6E 
 3239      6720756E 
 3239      7369676E 
 3239      65642069 
 3240              	.LASF96:
 3241 008f 63685F74 		.ascii	"ch_trace_buffer_t\000"
 3241      72616365 
 3241      5F627566 
 3241      6665725F 
 3241      7400
 3242              	.LASF91:
 3243 00a1 73655F73 		.ascii	"se_state\000"
 3243      74617465 
 3243      00
 3244              	.LASF100:
 3245 00aa 65786974 		.ascii	"exitcode\000"
 3245      636F6465 
 3245      00
 3246              	.LASF81:
 3247 00b3 6D61696E 		.ascii	"mainthread\000"
ARM GAS  C:\Users\jo\AppData\Local\Temp\ccGI0iNg.s 			page 59


 3247      74687265 
 3247      616400
 3248              	.LASF68:
 3249 00be 76697274 		.ascii	"virtual_timers_list_t\000"
 3249      75616C5F 
 3249      74696D65 
 3249      72735F6C 
 3249      6973745F 
 3250              	.LASF138:
 3251 00d4 49544D5F 		.ascii	"ITM_RxBuffer\000"
 3251      52784275 
 3251      66666572 
 3251      00
 3252              	.LASF51:
 3253 00e1 63685F74 		.ascii	"ch_threads_queue\000"
 3253      68726561 
 3253      64735F71 
 3253      75657565 
 3253      00
 3254              	.LASF30:
 3255 00f2 705F7072 		.ascii	"p_prio\000"
 3255      696F00
 3256              	.LASF144:
 3257 00f9 433A5C55 		.ascii	"C:\\Users\\jo\\Documents\\GitHub\\ChibiOS\\demos\\S"
 3257      73657273 
 3257      5C6A6F5C 
 3257      446F6375 
 3257      6D656E74 
 3258 0125 544D3332 		.ascii	"TM32\\RT-STM32F407-DISCOVERY-uHttp\000"
 3258      5C52542D 
 3258      53544D33 
 3258      32463430 
 3258      372D4449 
 3259              	.LASF11:
 3260 0147 6C6F6E67 		.ascii	"long long int\000"
 3260      206C6F6E 
 3260      6720696E 
 3260      7400
 3261              	.LASF1:
 3262 0155 7369676E 		.ascii	"signed char\000"
 3262      65642063 
 3262      68617200 
 3263              	.LASF45:
 3264 0161 705F6D70 		.ascii	"p_mpool\000"
 3264      6F6F6C00 
 3265              	.LASF110:
 3266 0169 6D5F7175 		.ascii	"m_queue\000"
 3266      65756500 
 3267              	.LASF80:
 3268 0171 76746C69 		.ascii	"vtlist\000"
 3268      737400
 3269              	.LASF123:
 3270 0178 706F7274 		.ascii	"port_unlock\000"
 3270      5F756E6C 
 3270      6F636B00 
 3271              	.LASF102:
 3272 0184 77747472 		.ascii	"wttrp\000"
ARM GAS  C:\Users\jo\AppData\Local\Temp\ccGI0iNg.s 			page 60


 3272      7000
 3273              	.LASF78:
 3274 018a 63685F73 		.ascii	"ch_system\000"
 3274      79737465 
 3274      6D00
 3275              	.LASF8:
 3276 0194 6C6F6E67 		.ascii	"long int\000"
 3276      20696E74 
 3276      00
 3277              	.LASF20:
 3278 019d 74737461 		.ascii	"tstate_t\000"
 3278      74655F74 
 3278      00
 3279              	.LASF89:
 3280 01a6 73655F74 		.ascii	"se_tp\000"
 3280      7000
 3281              	.LASF32:
 3282 01ac 705F6E65 		.ascii	"p_newer\000"
 3282      77657200 
 3283              	.LASF107:
 3284 01b4 735F7175 		.ascii	"s_queue\000"
 3284      65756500 
 3285              	.LASF93:
 3286 01bc 74625F73 		.ascii	"tb_size\000"
 3286      697A6500 
 3287              	.LASF57:
 3288 01c4 725F6E65 		.ascii	"r_newer\000"
 3288      77657200 
 3289              	.LASF120:
 3290 01cc 6D705F70 		.ascii	"mp_provider\000"
 3290      726F7669 
 3290      64657200 
 3291              	.LASF84:
 3292 01d8 72656761 		.ascii	"regarm_t\000"
 3292      726D5F74 
 3292      00
 3293              	.LASF64:
 3294 01e1 76745F70 		.ascii	"vt_prev\000"
 3294      72657600 
 3295              	.LASF146:
 3296 01e9 63685379 		.ascii	"chSysHalt\000"
 3296      7348616C 
 3296      7400
 3297              	.LASF114:
 3298 01f3 6D757465 		.ascii	"mutex_t\000"
 3298      785F7400 
 3299              	.LASF127:
 3300 01fb 76616C75 		.ascii	"value\000"
 3300      6500
 3301              	.LASF75:
 3302 0201 6C6F636B 		.ascii	"lock_cnt\000"
 3302      5F636E74 
 3302      00
 3303              	.LASF82:
 3304 020a 69646C65 		.ascii	"idle_thread_wa\000"
 3304      5F746872 
 3304      6561645F 
ARM GAS  C:\Users\jo\AppData\Local\Temp\ccGI0iNg.s 			page 61


 3304      776100
 3305              	.LASF25:
 3306 0219 636E745F 		.ascii	"cnt_t\000"
 3306      7400
 3307              	.LASF35:
 3308 021f 705F7374 		.ascii	"p_stklimit\000"
 3308      6B6C696D 
 3308      697400
 3309              	.LASF0:
 3310 022a 756E7369 		.ascii	"unsigned int\000"
 3310      676E6564 
 3310      20696E74 
 3310      00
 3311              	.LASF63:
 3312 0237 76745F6E 		.ascii	"vt_next\000"
 3312      65787400 
 3313              	.LASF103:
 3314 023f 77747365 		.ascii	"wtsemp\000"
 3314      6D7000
 3315              	.LASF40:
 3316 0246 705F6D73 		.ascii	"p_msgqueue\000"
 3316      67717565 
 3316      756500
 3317              	.LASF121:
 3318 0251 6D656D6F 		.ascii	"memory_pool_t\000"
 3318      72795F70 
 3318      6F6F6C5F 
 3318      7400
 3319              	.LASF108:
 3320 025f 735F636E 		.ascii	"s_cnt\000"
 3320      7400
 3321              	.LASF6:
 3322 0265 73686F72 		.ascii	"short unsigned int\000"
 3322      7420756E 
 3322      7369676E 
 3322      65642069 
 3322      6E7400
 3323              	.LASF48:
 3324 0278 63685F74 		.ascii	"ch_thread\000"
 3324      68726561 
 3324      6400
 3325              	.LASF23:
 3326 0282 6D73675F 		.ascii	"msg_t\000"
 3326      7400
 3327              	.LASF139:
 3328 0288 63684462 		.ascii	"chDbgCheckClassI\000"
 3328      67436865 
 3328      636B436C 
 3328      61737349 
 3328      00
 3329              	.LASF77:
 3330 0299 63685F73 		.ascii	"ch_system_t\000"
 3330      79737465 
 3330      6D5F7400 
 3331              	.LASF126:
 3332 02a5 6368506F 		.ascii	"chPoolAdd\000"
 3332      6F6C4164 
ARM GAS  C:\Users\jo\AppData\Local\Temp\ccGI0iNg.s 			page 62


 3332      6400
 3333              	.LASF19:
 3334 02af 746D6F64 		.ascii	"tmode_t\000"
 3334      655F7400 
 3335              	.LASF131:
 3336 02b7 6368506F 		.ascii	"chPoolObjectInit\000"
 3336      6F6C4F62 
 3336      6A656374 
 3336      496E6974 
 3336      00
 3337              	.LASF53:
 3338 02c8 63685F72 		.ascii	"ch_ready_list\000"
 3338      65616479 
 3338      5F6C6973 
 3338      7400
 3339              	.LASF24:
 3340 02d6 6576656E 		.ascii	"eventmask_t\000"
 3340      746D6173 
 3340      6B5F7400 
 3341              	.LASF7:
 3342 02e2 5F5F696E 		.ascii	"__int32_t\000"
 3342      7433325F 
 3342      7400
 3343              	.LASF142:
 3344 02ec 474E5520 		.ascii	"GNU C 4.9.3 20141119 (release) [ARM/embedded-4_9-br"
 3344      4320342E 
 3344      392E3320 
 3344      32303134 
 3344      31313139 
 3345 031f 616E6368 		.ascii	"anch revision 218278] -mcpu=cortex-m4 -mno-thumb-in"
 3345      20726576 
 3345      6973696F 
 3345      6E203231 
 3345      38323738 
 3346 0352 74657277 		.ascii	"terwork -mthumb -ggdb -O2 -fomit-frame-pointer -fal"
 3346      6F726B20 
 3346      2D6D7468 
 3346      756D6220 
 3346      2D676764 
 3347 0385 69676E2D 		.ascii	"ign-functions=16 -ffunction-sections -fdata-section"
 3347      66756E63 
 3347      74696F6E 
 3347      733D3136 
 3347      202D6666 
 3348 03b8 73202D66 		.ascii	"s -fno-common\000"
 3348      6E6F2D63 
 3348      6F6D6D6F 
 3348      6E00
 3349              	.LASF85:
 3350 03c6 73746B61 		.ascii	"stkalign_t\000"
 3350      6C69676E 
 3350      5F7400
 3351              	.LASF39:
 3352 03d1 705F7761 		.ascii	"p_waiting\000"
 3352      6974696E 
 3352      6700
 3353              	.LASF83:
ARM GAS  C:\Users\jo\AppData\Local\Temp\ccGI0iNg.s 			page 63


 3354 03db 73697A65 		.ascii	"sizetype\000"
 3354      74797065 
 3354      00
 3355              	.LASF46:
 3356 03e4 74687265 		.ascii	"thread_reference_t\000"
 3356      61645F72 
 3356      65666572 
 3356      656E6365 
 3356      5F7400
 3357              	.LASF140:
 3358 03f7 5F646267 		.ascii	"_dbg_check_lock\000"
 3358      5F636865 
 3358      636B5F6C 
 3358      6F636B00 
 3359              	.LASF69:
 3360 0407 63685F76 		.ascii	"ch_virtual_timers_list\000"
 3360      69727475 
 3360      616C5F74 
 3360      696D6572 
 3360      735F6C69 
 3361              	.LASF132:
 3362 041e 6368506F 		.ascii	"chPoolAllocI\000"
 3362      6F6C416C 
 3362      6C6F6349 
 3362      00
 3363              	.LASF92:
 3364 042b 63685F73 		.ascii	"ch_swc_event_t\000"
 3364      77635F65 
 3364      76656E74 
 3364      5F7400
 3365              	.LASF70:
 3366 043a 76745F6C 		.ascii	"vt_lasttime\000"
 3366      61737474 
 3366      696D6500 
 3367              	.LASF33:
 3368 0446 705F6F6C 		.ascii	"p_older\000"
 3368      64657200 
 3369              	.LASF56:
 3370 044e 725F6374 		.ascii	"r_ctx\000"
 3370      7800
 3371              	.LASF119:
 3372 0454 6D705F6F 		.ascii	"mp_object_size\000"
 3372      626A6563 
 3372      745F7369 
 3372      7A6500
 3373              	.LASF98:
 3374 0463 746D5F63 		.ascii	"tm_calibration_t\000"
 3374      616C6962 
 3374      72617469 
 3374      6F6E5F74 
 3374      00
 3375              	.LASF59:
 3376 0474 725F6375 		.ascii	"r_current\000"
 3376      7272656E 
 3376      7400
 3377              	.LASF58:
 3378 047e 725F6F6C 		.ascii	"r_older\000"
ARM GAS  C:\Users\jo\AppData\Local\Temp\ccGI0iNg.s 			page 64


 3378      64657200 
 3379              	.LASF12:
 3380 0486 5F5F7569 		.ascii	"__uint64_t\000"
 3380      6E743634 
 3380      5F7400
 3381              	.LASF117:
 3382 0491 70685F6E 		.ascii	"ph_next\000"
 3382      65787400 
 3383              	.LASF21:
 3384 0499 74726566 		.ascii	"trefs_t\000"
 3384      735F7400 
 3385              	.LASF95:
 3386 04a1 74625F62 		.ascii	"tb_buffer\000"
 3386      75666665 
 3386      7200
 3387              	.LASF61:
 3388 04ab 76697274 		.ascii	"virtual_timer_t\000"
 3388      75616C5F 
 3388      74696D65 
 3388      725F7400 
 3389              	.LASF29:
 3390 04bb 705F7072 		.ascii	"p_prev\000"
 3390      657600
 3391              	.LASF22:
 3392 04c2 74707269 		.ascii	"tprio_t\000"
 3392      6F5F7400 
 3393              	.LASF72:
 3394 04ca 63685F73 		.ascii	"ch_system_debug\000"
 3394      79737465 
 3394      6D5F6465 
 3394      62756700 
 3395              	.LASF15:
 3396 04da 696E7433 		.ascii	"int32_t\000"
 3396      325F7400 
 3397              	.LASF4:
 3398 04e2 756E7369 		.ascii	"unsigned char\000"
 3398      676E6564 
 3398      20636861 
 3398      7200
 3399              	.LASF43:
 3400 04f0 705F6D74 		.ascii	"p_mtxlist\000"
 3400      786C6973 
 3400      7400
 3401              	.LASF5:
 3402 04fa 73686F72 		.ascii	"short int\000"
 3402      7420696E 
 3402      7400
 3403              	.LASF36:
 3404 0504 705F7374 		.ascii	"p_state\000"
 3404      61746500 
 3405              	.LASF55:
 3406 050c 725F7072 		.ascii	"r_prio\000"
 3406      696F00
 3407              	.LASF105:
 3408 0513 65776D61 		.ascii	"ewmask\000"
 3408      736B00
 3409              	.LASF28:
ARM GAS  C:\Users\jo\AppData\Local\Temp\ccGI0iNg.s 			page 65


 3410 051a 705F6E65 		.ascii	"p_next\000"
 3410      787400
 3411              	.LASF133:
 3412 0521 5F5F6675 		.ascii	"__func__\000"
 3412      6E635F5F 
 3412      00
 3413              	.LASF124:
 3414 052a 63685379 		.ascii	"chSysLock\000"
 3414      734C6F63 
 3414      6B00
 3415              	.LASF128:
 3416 0534 6F626A70 		.ascii	"objp\000"
 3416      00
 3417              	.LASF62:
 3418 0539 63685F76 		.ascii	"ch_virtual_timer\000"
 3418      69727475 
 3418      616C5F74 
 3418      696D6572 
 3418      00
 3419              	.LASF106:
 3420 054a 63685F73 		.ascii	"ch_semaphore\000"
 3420      656D6170 
 3420      686F7265 
 3420      00
 3421              	.LASF42:
 3422 0557 705F6570 		.ascii	"p_epending\000"
 3422      656E6469 
 3422      6E6700
 3423              	.LASF16:
 3424 0562 75696E74 		.ascii	"uint32_t\000"
 3424      33325F74 
 3424      00
 3425              	.LASF104:
 3426 056b 77746D74 		.ascii	"wtmtxp\000"
 3426      787000
 3427              	.LASF54:
 3428 0572 725F7175 		.ascii	"r_queue\000"
 3428      65756500 
 3429              	.LASF65:
 3430 057a 76745F64 		.ascii	"vt_delta\000"
 3430      656C7461 
 3430      00
 3431              	.LASF49:
 3432 0583 63685F74 		.ascii	"ch_threads_list\000"
 3432      68726561 
 3432      64735F6C 
 3432      69737400 
 3433              	.LASF10:
 3434 0593 6C6F6E67 		.ascii	"long unsigned int\000"
 3434      20756E73 
 3434      69676E65 
 3434      6420696E 
 3434      7400
 3435              	.LASF113:
 3436 05a5 63686172 		.ascii	"char\000"
 3436      00
 3437              	.LASF135:
ARM GAS  C:\Users\jo\AppData\Local\Temp\ccGI0iNg.s 			page 66


 3438 05aa 6368506F 		.ascii	"chPoolFreeI\000"
 3438      6F6C4672 
 3438      65654900 
 3439              	.LASF27:
 3440 05b6 74687265 		.ascii	"thread_t\000"
 3440      61645F74 
 3440      00
 3441              	.LASF112:
 3442 05bf 6D5F6E65 		.ascii	"m_next\000"
 3442      787400
 3443              	.LASF26:
 3444 05c6 73797374 		.ascii	"systime_t\000"
 3444      696D655F 
 3444      7400
 3445              	.LASF44:
 3446 05d0 705F7265 		.ascii	"p_realprio\000"
 3446      616C7072 
 3446      696F00
 3447              	.LASF60:
 3448 05db 76746675 		.ascii	"vtfunc_t\000"
 3448      6E635F74 
 3448      00
 3449              	.LASF9:
 3450 05e4 5F5F7569 		.ascii	"__uint32_t\000"
 3450      6E743332 
 3450      5F7400
 3451              	.LASF125:
 3452 05ef 5F5F7365 		.ascii	"__set_BASEPRI\000"
 3452      745F4241 
 3452      53455052 
 3452      4900
 3453              	.LASF73:
 3454 05fd 70616E69 		.ascii	"panic_msg\000"
 3454      635F6D73 
 3454      6700
 3455              	.LASF97:
 3456 0607 6F666673 		.ascii	"offset\000"
 3456      657400
 3457              	.LASF109:
 3458 060e 63685F6D 		.ascii	"ch_mutex\000"
 3458      75746578 
 3458      00
 3459              	.LASF118:
 3460 0617 6D705F6E 		.ascii	"mp_next\000"
 3460      65787400 
 3461              	.LASF86:
 3462 061f 636F6E74 		.ascii	"context\000"
 3462      65787400 
 3463              	.LASF41:
 3464 0627 705F6D73 		.ascii	"p_msg\000"
 3464      6700
 3465              	.LASF18:
 3466 062d 7274636E 		.ascii	"rtcnt_t\000"
 3466      745F7400 
 3467              	.LASF67:
 3468 0635 76745F70 		.ascii	"vt_par\000"
 3468      617200
ARM GAS  C:\Users\jo\AppData\Local\Temp\ccGI0iNg.s 			page 67


 3469              	.LASF50:
 3470 063c 74687265 		.ascii	"threads_queue_t\000"
 3470      6164735F 
 3470      71756575 
 3470      655F7400 
 3471              	.LASF116:
 3472 064c 706F6F6C 		.ascii	"pool_header\000"
 3472      5F686561 
 3472      64657200 
 3473              	.LASF38:
 3474 0658 705F7265 		.ascii	"p_refs\000"
 3474      667300
 3475              	.LASF74:
 3476 065f 6973725F 		.ascii	"isr_cnt\000"
 3476      636E7400 
 3477              	.LASF79:
 3478 0667 726C6973 		.ascii	"rlist\000"
 3478      7400
 3479              	.LASF14:
 3480 066d 75696E74 		.ascii	"uint8_t\000"
 3480      385F7400 
 3481              	.LASF145:
 3482 0675 6368506F 		.ascii	"chPoolAlloc\000"
 3482      6F6C416C 
 3482      6C6F6300 
 3483              	.LASF136:
 3484 0681 6368506F 		.ascii	"chPoolFree\000"
 3484      6F6C4672 
 3484      656500
 3485              	.LASF141:
 3486 068c 5F646267 		.ascii	"_dbg_check_unlock\000"
 3486      5F636865 
 3486      636B5F75 
 3486      6E6C6F63 
 3486      6B00
 3487              	.LASF101:
 3488 069e 77746F62 		.ascii	"wtobjp\000"
 3488      6A7000
 3489              	.LASF34:
 3490 06a5 705F6E61 		.ascii	"p_name\000"
 3490      6D6500
 3491              	.LASF129:
 3492 06ac 73697A65 		.ascii	"size\000"
 3492      00
 3493              	.LASF47:
 3494 06b1 74687265 		.ascii	"threads_list_t\000"
 3494      6164735F 
 3494      6C697374 
 3494      5F7400
 3495              	.LASF76:
 3496 06c0 74726163 		.ascii	"trace_buffer\000"
 3496      655F6275 
 3496      66666572 
 3496      00
 3497              	.LASF37:
 3498 06cd 705F666C 		.ascii	"p_flags\000"
 3498      61677300 
ARM GAS  C:\Users\jo\AppData\Local\Temp\ccGI0iNg.s 			page 68


 3499              	.LASF134:
 3500 06d5 63685379 		.ascii	"chSysUnlock\000"
 3500      73556E6C 
 3500      6F636B00 
 3501              	.LASF137:
 3502 06e1 6368506F 		.ascii	"chPoolLoadArray\000"
 3502      6F6C4C6F 
 3502      61644172 
 3502      72617900 
 3503              	.LASF111:
 3504 06f1 6D5F6F77 		.ascii	"m_owner\000"
 3504      6E657200 
 3505              	.LASF143:
 3506 06f9 2E2E2F2E 		.ascii	"../../../os/rt/src/chmempools.c\000"
 3506      2E2F2E2E 
 3506      2F6F732F 
 3506      72742F73 
 3506      72632F63 
 3507              	.LASF90:
 3508 0719 73655F77 		.ascii	"se_wtobjp\000"
 3508      746F626A 
 3508      7000
 3509              	.LASF31:
 3510 0723 705F6374 		.ascii	"p_ctx\000"
 3510      7800
 3511              	.LASF66:
 3512 0729 76745F66 		.ascii	"vt_func\000"
 3512      756E6300 
 3513              		.ident	"GCC: (GNU Tools for ARM Embedded Processors) 4.9.3 20141119 (release) [ARM/embedded-4_9-br
ARM GAS  C:\Users\jo\AppData\Local\Temp\ccGI0iNg.s 			page 69


DEFINED SYMBOLS
                            *ABS*:00000000 chmempools.c
C:\Users\jo\AppData\Local\Temp\ccGI0iNg.s:19     .text.chPoolObjectInit:00000000 $t
C:\Users\jo\AppData\Local\Temp\ccGI0iNg.s:25     .text.chPoolObjectInit:00000000 chPoolObjectInit
C:\Users\jo\AppData\Local\Temp\ccGI0iNg.s:63     .text.chPoolObjectInit:0000001c $d
C:\Users\jo\AppData\Local\Temp\ccGI0iNg.s:68     .text.chPoolAllocI:00000000 $t
C:\Users\jo\AppData\Local\Temp\ccGI0iNg.s:74     .text.chPoolAllocI:00000000 chPoolAllocI
C:\Users\jo\AppData\Local\Temp\ccGI0iNg.s:134    .text.chPoolAllocI:0000002c $d
C:\Users\jo\AppData\Local\Temp\ccGI0iNg.s:139    .text.chPoolAlloc:00000000 $t
C:\Users\jo\AppData\Local\Temp\ccGI0iNg.s:145    .text.chPoolAlloc:00000000 chPoolAlloc
C:\Users\jo\AppData\Local\Temp\ccGI0iNg.s:236    .text.chPoolAlloc:0000003c $d
C:\Users\jo\AppData\Local\Temp\ccGI0iNg.s:242    .text.chPoolFreeI:00000000 $t
C:\Users\jo\AppData\Local\Temp\ccGI0iNg.s:248    .text.chPoolFreeI:00000000 chPoolFreeI
C:\Users\jo\AppData\Local\Temp\ccGI0iNg.s:294    .text.chPoolFreeI:00000024 $d
C:\Users\jo\AppData\Local\Temp\ccGI0iNg.s:299    .text.chPoolFree:00000000 $t
C:\Users\jo\AppData\Local\Temp\ccGI0iNg.s:305    .text.chPoolFree:00000000 chPoolFree
C:\Users\jo\AppData\Local\Temp\ccGI0iNg.s:378    .text.chPoolFree:0000003c $d
C:\Users\jo\AppData\Local\Temp\ccGI0iNg.s:389    .text.chPoolLoadArray:00000000 $t
C:\Users\jo\AppData\Local\Temp\ccGI0iNg.s:395    .text.chPoolLoadArray:00000000 chPoolLoadArray
C:\Users\jo\AppData\Local\Temp\ccGI0iNg.s:470    .text.chPoolLoadArray:00000034 $d
C:\Users\jo\AppData\Local\Temp\ccGI0iNg.s:475    .rodata.__func__.6548:00000000 $d
C:\Users\jo\AppData\Local\Temp\ccGI0iNg.s:479    .rodata.__func__.6548:00000000 __func__.6548
C:\Users\jo\AppData\Local\Temp\ccGI0iNg.s:482    .rodata.__func__.6554:00000000 $d
C:\Users\jo\AppData\Local\Temp\ccGI0iNg.s:486    .rodata.__func__.6554:00000000 __func__.6554
C:\Users\jo\AppData\Local\Temp\ccGI0iNg.s:489    .rodata.__func__.6562:00000000 $d
C:\Users\jo\AppData\Local\Temp\ccGI0iNg.s:493    .rodata.__func__.6562:00000000 __func__.6562
C:\Users\jo\AppData\Local\Temp\ccGI0iNg.s:496    .rodata.__func__.6572:00000000 $d
C:\Users\jo\AppData\Local\Temp\ccGI0iNg.s:500    .rodata.__func__.6572:00000000 __func__.6572
C:\Users\jo\AppData\Local\Temp\ccGI0iNg.s:503    .rodata.__func__.5854:00000000 $d
C:\Users\jo\AppData\Local\Temp\ccGI0iNg.s:507    .rodata.__func__.5854:00000000 __func__.5854
                     .debug_frame:00000010 $d
C:\Users\jo\AppData\Local\Temp\ccGI0iNg.s:241    .text.chPoolAlloc:00000044 $t
C:\Users\jo\AppData\Local\Temp\ccGI0iNg.s:298    .text.chPoolFreeI:00000028 $t
C:\Users\jo\AppData\Local\Temp\ccGI0iNg.s:388    .text.chPoolFree:00000044 $t
C:\Users\jo\AppData\Local\Temp\ccGI0iNg.s:474    .text.chPoolLoadArray:00000038 $t

UNDEFINED SYMBOLS
chSysHalt
chDbgCheckClassI
_dbg_check_lock
_dbg_check_unlock
ch
