ARM GAS  C:\Users\jo\AppData\Local\Temp\ccTlnx0O.s 			page 1


   1              		.syntax unified
   2              		.cpu cortex-m4
   3              		.fpu softvfp
   4              		.eabi_attribute 20, 1
   5              		.eabi_attribute 21, 1
   6              		.eabi_attribute 23, 3
   7              		.eabi_attribute 24, 1
   8              		.eabi_attribute 25, 1
   9              		.eabi_attribute 26, 1
  10              		.eabi_attribute 30, 2
  11              		.eabi_attribute 34, 1
  12              		.eabi_attribute 18, 4
  13              		.thumb
  14              		.file	"chmemcore.c"
  15              		.text
  16              	.Ltext0:
  17              		.cfi_sections	.debug_frame
  18              		.section	.text._core_init,"ax",%progbits
  19              		.align	2
  20              		.p2align 4,,15
  21              		.global	_core_init
  22              		.thumb
  23              		.thumb_func
  24              		.type	_core_init, %function
  25              	_core_init:
  26              	.LFB228:
  27              		.file 1 "../../../os/rt/src/chmemcore.c"
  28              		.loc 1 78 0
  29              		.cfi_startproc
  30              		@ args = 0, pretend = 0, frame = 0
  31              		@ frame_needed = 0, uses_anonymous_args = 0
  32              		@ link register save eliminated.
  33              		.loc 1 84 0
  34 0000 054A     		ldr	r2, .L2
  35              		.loc 1 85 0
  36 0002 064B     		ldr	r3, .L2+4
  37              		.loc 1 84 0
  38 0004 0648     		ldr	r0, .L2+8
  39              		.loc 1 85 0
  40 0006 0749     		ldr	r1, .L2+12
  41              		.loc 1 84 0
  42 0008 22F00702 		bic	r2, r2, #7
  43              		.loc 1 85 0
  44 000c 23F00703 		bic	r3, r3, #7
  45              		.loc 1 84 0
  46 0010 0260     		str	r2, [r0]
  47              		.loc 1 85 0
  48 0012 0B60     		str	r3, [r1]
  49 0014 7047     		bx	lr
  50              	.L3:
  51 0016 00BF     		.align	2
  52              	.L2:
  53 0018 07000000 		.word	__heap_base__+7
  54 001c 00000000 		.word	__heap_end__
  55 0020 00000000 		.word	.LANCHOR0
  56 0024 00000000 		.word	.LANCHOR1
  57              		.cfi_endproc
ARM GAS  C:\Users\jo\AppData\Local\Temp\ccTlnx0O.s 			page 2


  58              	.LFE228:
  59              		.size	_core_init, .-_core_init
  60 0028 AFF30080 		.section	.text.chCoreAllocI,"ax",%progbits
  60      AFF30080 
  61              		.align	2
  62              		.p2align 4,,15
  63              		.global	chCoreAllocI
  64              		.thumb
  65              		.thumb_func
  66              		.type	chCoreAllocI, %function
  67              	chCoreAllocI:
  68              	.LFB230:
  69              		.loc 1 131 0
  70              		.cfi_startproc
  71              		@ args = 0, pretend = 0, frame = 0
  72              		@ frame_needed = 0, uses_anonymous_args = 0
  73              	.LVL0:
  74 0000 10B5     		push	{r4, lr}
  75              		.cfi_def_cfa_offset 8
  76              		.cfi_offset 4, -8
  77              		.cfi_offset 14, -4
  78              		.loc 1 131 0
  79 0002 0446     		mov	r4, r0
  80              		.loc 1 134 0
  81 0004 FFF7FEFF 		bl	chDbgCheckClassI
  82              	.LVL1:
  83              		.loc 1 138 0
  84 0008 0649     		ldr	r1, .L8
  85 000a 074B     		ldr	r3, .L8+4
  86 000c 0868     		ldr	r0, [r1]
  87 000e 1A68     		ldr	r2, [r3]
  88              		.loc 1 136 0
  89 0010 E31D     		adds	r3, r4, #7
  90 0012 23F00703 		bic	r3, r3, #7
  91              	.LVL2:
  92              		.loc 1 138 0
  93 0016 121A     		subs	r2, r2, r0
  94 0018 9342     		cmp	r3, r2
  95              	.LVL3:
  96              		.loc 1 143 0
  97 001a 9ABF     		itte	ls
  98 001c 1B18     		addls	r3, r3, r0
  99              	.LVL4:
 100 001e 0B60     		strls	r3, [r1]
 101              		.loc 1 140 0
 102 0020 0020     		movhi	r0, #0
 103              	.LVL5:
 104              		.loc 1 146 0
 105 0022 10BD     		pop	{r4, pc}
 106              	.LVL6:
 107              	.L9:
 108              		.align	2
 109              	.L8:
 110 0024 00000000 		.word	.LANCHOR0
 111 0028 00000000 		.word	.LANCHOR1
 112              		.cfi_endproc
 113              	.LFE230:
ARM GAS  C:\Users\jo\AppData\Local\Temp\ccTlnx0O.s 			page 3


 114              		.size	chCoreAllocI, .-chCoreAllocI
 115 002c AFF30080 		.section	.text.chCoreAlloc,"ax",%progbits
 116              		.align	2
 117              		.p2align 4,,15
 118              		.global	chCoreAlloc
 119              		.thumb
 120              		.thumb_func
 121              		.type	chCoreAlloc, %function
 122              	chCoreAlloc:
 123              	.LFB229:
 124              		.loc 1 109 0
 125              		.cfi_startproc
 126              		@ args = 0, pretend = 0, frame = 0
 127              		@ frame_needed = 0, uses_anonymous_args = 0
 128              	.LVL7:
 129 0000 10B5     		push	{r4, lr}
 130              		.cfi_def_cfa_offset 8
 131              		.cfi_offset 4, -8
 132              		.cfi_offset 14, -4
 133              	.LBB29:
 134              	.LBB30:
 135              	.LBB31:
 136              	.LBB32:
 137              	.LBB33:
 138              		.file 2 "../../../os/ext/CMSIS/include/core_cmFunc.h"
 139              		.loc 2 546 0
 140 0002 2023     		movs	r3, #32
 141              	.LBE33:
 142              	.LBE32:
 143              	.LBE31:
 144              	.LBE30:
 145              	.LBE29:
 146              		.loc 1 109 0
 147 0004 0446     		mov	r4, r0
 148              	.LBB38:
 149              	.LBB37:
 150              	.LBB36:
 151              	.LBB35:
 152              	.LBB34:
 153              		.loc 2 546 0
 154              	@ 546 "../../../os/ext/CMSIS/include/core_cmFunc.h" 1
 155 0006 83F31188 		MSR basepri, r3
 156              	@ 0 "" 2
 157              		.thumb
 158              	.LBE34:
 159              	.LBE35:
 160              	.LBE36:
 161              		.file 3 "../../../os/rt/include/chsys.h"
 162              		.loc 3 350 0
 163 000a FFF7FEFF 		bl	_dbg_check_lock
 164              	.LVL8:
 165              	.LBE37:
 166              	.LBE38:
 167              		.loc 1 113 0
 168 000e 2046     		mov	r0, r4
 169 0010 FFF7FEFF 		bl	chCoreAllocI
 170              	.LVL9:
ARM GAS  C:\Users\jo\AppData\Local\Temp\ccTlnx0O.s 			page 4


 171 0014 0446     		mov	r4, r0
 172              	.LVL10:
 173              	.LBB39:
 174              	.LBB40:
 175              		.loc 3 360 0
 176 0016 FFF7FEFF 		bl	_dbg_check_unlock
 177              	.LVL11:
 178              		.loc 3 367 0
 179 001a 084B     		ldr	r3, .L14
 180 001c 1A68     		ldr	r2, [r3]
 181 001e 9A42     		cmp	r2, r3
 182 0020 07D0     		beq	.L11
 183 0022 9969     		ldr	r1, [r3, #24]
 184 0024 9368     		ldr	r3, [r2, #8]
 185 0026 8A68     		ldr	r2, [r1, #8]
 186 0028 9A42     		cmp	r2, r3
 187 002a 02D2     		bcs	.L11
 188 002c 0448     		ldr	r0, .L14+4
 189 002e FFF7FEFF 		bl	chSysHalt
 190              	.LVL12:
 191              	.L11:
 192              	.LBB41:
 193              	.LBB42:
 194              	.LBB43:
 195              		.loc 2 546 0
 196 0032 0023     		movs	r3, #0
 197              	@ 546 "../../../os/ext/CMSIS/include/core_cmFunc.h" 1
 198 0034 83F31188 		MSR basepri, r3
 199              	@ 0 "" 2
 200              		.thumb
 201              	.LBE43:
 202              	.LBE42:
 203              	.LBE41:
 204              	.LBE40:
 205              	.LBE39:
 206              		.loc 1 117 0
 207 0038 2046     		mov	r0, r4
 208 003a 10BD     		pop	{r4, pc}
 209              	.LVL13:
 210              	.L15:
 211              		.align	2
 212              	.L14:
 213 003c 00000000 		.word	ch
 214 0040 00000000 		.word	.LANCHOR2
 215              		.cfi_endproc
 216              	.LFE229:
 217              		.size	chCoreAlloc, .-chCoreAlloc
 218 0044 AFF30080 		.section	.text.chCoreGetStatusX,"ax",%progbits
 218      AFF30080 
 218      AFF30080 
 219              		.align	2
 220              		.p2align 4,,15
 221              		.global	chCoreGetStatusX
 222              		.thumb
 223              		.thumb_func
 224              		.type	chCoreGetStatusX, %function
 225              	chCoreGetStatusX:
ARM GAS  C:\Users\jo\AppData\Local\Temp\ccTlnx0O.s 			page 5


 226              	.LFB231:
 227              		.loc 1 155 0
 228              		.cfi_startproc
 229              		@ args = 0, pretend = 0, frame = 0
 230              		@ frame_needed = 0, uses_anonymous_args = 0
 231              		@ link register save eliminated.
 232              		.loc 1 158 0
 233 0000 024A     		ldr	r2, .L17
 234 0002 034B     		ldr	r3, .L17+4
 235 0004 1068     		ldr	r0, [r2]
 236 0006 1B68     		ldr	r3, [r3]
 237              		.loc 1 160 0
 238 0008 C01A     		subs	r0, r0, r3
 239 000a 7047     		bx	lr
 240              	.L18:
 241              		.align	2
 242              	.L17:
 243 000c 00000000 		.word	.LANCHOR1
 244 0010 00000000 		.word	.LANCHOR0
 245              		.cfi_endproc
 246              	.LFE231:
 247              		.size	chCoreGetStatusX, .-chCoreGetStatusX
 248 0014 AFF30080 		.section	.bss.endmem,"aw",%nobits
 248      AFF30080 
 248      AFF30080 
 249              		.align	2
 250              		.set	.LANCHOR1,. + 0
 251              		.type	endmem, %object
 252              		.size	endmem, 4
 253              	endmem:
 254 0000 00000000 		.space	4
 255              		.section	.rodata.__func__.5854,"a",%progbits
 256              		.align	2
 257              		.set	.LANCHOR2,. + 0
 258              		.type	__func__.5854, %object
 259              		.size	__func__.5854, 12
 260              	__func__.5854:
 261 0000 63685379 		.ascii	"chSysUnlock\000"
 261      73556E6C 
 261      6F636B00 
 262              		.section	.bss.nextmem,"aw",%nobits
 263              		.align	2
 264              		.set	.LANCHOR0,. + 0
 265              		.type	nextmem, %object
 266              		.size	nextmem, 4
 267              	nextmem:
 268 0000 00000000 		.space	4
 269              		.text
 270              	.Letext0:
 271              		.file 4 "c:\\program files\\gnu tools arm embedded\\4.9 2014q4\\lib\\gcc\\arm-none-eabi\\4.9.3\\in
 272              		.file 5 "c:\\program files\\gnu tools arm embedded\\4.9 2014q4\\arm-none-eabi\\include\\machine\\_
 273              		.file 6 "c:\\program files\\gnu tools arm embedded\\4.9 2014q4\\arm-none-eabi\\include\\stdint.h"
 274              		.file 7 "../../../os/rt/ports/ARMCMx/compilers/GCC/chtypes.h"
 275              		.file 8 "../../../os/rt/include/chsystypes.h"
 276              		.file 9 "../../../os/rt/include/chschd.h"
 277              		.file 10 "../../../os/rt/ports/ARMCMx/chcore.h"
 278              		.file 11 "../../../os/rt/ports/ARMCMx/chcore_v7m.h"
ARM GAS  C:\Users\jo\AppData\Local\Temp\ccTlnx0O.s 			page 6


 279              		.file 12 "../../../os/rt/include/chdebug.h"
 280              		.file 13 "../../../os/rt/include/chtm.h"
 281              		.file 14 "../../../os/rt/include/chsem.h"
 282              		.file 15 "../../../os/rt/include/chmtx.h"
 283              		.file 16 "../../../os/ext/CMSIS/include/core_cm4.h"