ARM GAS  C:\Users\jo\AppData\Local\Temp\ccGI0iNg.s 			page 1


   1              		.syntax unified
   2              		.cpu cortex-m4
   3              		.fpu softvfp
   4              		.eabi_attribute 20, 1
   5              		.eabi_attribute 21, 1
   6              		.eabi_attribute 23, 3
   7              		.eabi_attribute 24, 1
   8              		.eabi_attribute 25, 1
   9              		.eabi_attribute 26, 1
  10              		.eabi_attribute 30, 2
  11              		.eabi_attribute 34, 1
  12              		.eabi_attribute 18, 4
  13              		.thumb
  14              		.file	"chmempools.c"
  15              		.text
  16              	.Ltext0:
  17              		.cfi_sections	.debug_frame
  18              		.section	.text.chPoolObjectInit,"ax",%progbits
  19              		.align	2
  20              		.p2align 4,,15
  21              		.global	chPoolObjectInit
  22              		.thumb
  23              		.thumb_func
  24              		.type	chPoolObjectInit, %function
  25              	chPoolObjectInit:
  26              	.LFB228:
  27              		.file 1 "../../../os/rt/src/chmempools.c"
  28              		.loc 1 75 0
  29              		.cfi_startproc
  30              		@ args = 0, pretend = 0, frame = 0
  31              		@ frame_needed = 0, uses_anonymous_args = 0
  32              	.LVL0:
  33 0000 70B5     		push	{r4, r5, r6, lr}
  34              		.cfi_def_cfa_offset 16
  35              		.cfi_offset 4, -16
  36              		.cfi_offset 5, -12
  37              		.cfi_offset 6, -8
  38              		.cfi_offset 14, -4
  39              		.loc 1 75 0
  40 0002 0D46     		mov	r5, r1
  41 0004 1646     		mov	r6, r2
  42              		.loc 1 77 0
  43 0006 0446     		mov	r4, r0
  44 0008 08B1     		cbz	r0, .L2
  45              		.loc 1 77 0 is_stmt 0 discriminator 3
  46 000a 0329     		cmp	r1, #3
  47 000c 02D8     		bhi	.L3
  48              	.L2:
  49              		.loc 1 77 0 discriminator 4
  50 000e 0348     		ldr	r0, .L9
  51              	.LVL1:
  52 0010 FFF7FEFF 		bl	chSysHalt
  53              	.LVL2:
  54              	.L3:
  55              		.loc 1 79 0 is_stmt 1
  56 0014 0023     		movs	r3, #0
  57 0016 84E86800 		stmia	r4, {r3, r5, r6}
ARM GAS  C:\Users\jo\AppData\Local\Temp\ccGI0iNg.s 			page 2


  58 001a 70BD     		pop	{r4, r5, r6, pc}
  59              	.LVL3:
  60              	.L10:
  61              		.align	2
  62              	.L9:
  63 001c 00000000 		.word	.LANCHOR0
  64              		.cfi_endproc
  65              	.LFE228:
  66              		.size	chPoolObjectInit, .-chPoolObjectInit
  67              		.section	.text.chPoolAllocI,"ax",%progbits
  68              		.align	2
  69              		.p2align 4,,15
  70              		.global	chPoolAllocI
  71              		.thumb
  72              		.thumb_func
  73              		.type	chPoolAllocI, %function
  74              	chPoolAllocI:
  75              	.LFB230:
  76              		.loc 1 120 0
  77              		.cfi_startproc
  78              		@ args = 0, pretend = 0, frame = 0
  79              		@ frame_needed = 0, uses_anonymous_args = 0
  80              	.LVL4:
  81 0000 10B5     		push	{r4, lr}
  82              		.cfi_def_cfa_offset 8
  83              		.cfi_offset 4, -8
  84              		.cfi_offset 14, -4
  85              		.loc 1 120 0
  86 0002 0446     		mov	r4, r0
  87              		.loc 1 123 0
  88 0004 FFF7FEFF 		bl	chDbgCheckClassI
  89              	.LVL5:
  90              		.loc 1 124 0
  91 0008 5CB1     		cbz	r4, .L19
  92              	.L12:
  93              		.loc 1 126 0
  94 000a 2068     		ldr	r0, [r4]
  95              	.LVL6:
  96              		.loc 1 128 0
  97 000c 10B1     		cbz	r0, .L13
  98              		.loc 1 129 0
  99 000e 0368     		ldr	r3, [r0]
 100 0010 2360     		str	r3, [r4]
 101 0012 10BD     		pop	{r4, pc}
 102              	.LVL7:
 103              	.L13:
 104              		.loc 1 131 0
 105 0014 A368     		ldr	r3, [r4, #8]
 106 0016 1BB1     		cbz	r3, .L14
 107              		.loc 1 132 0
 108 0018 6068     		ldr	r0, [r4, #4]
 109              	.LVL8:
 110              		.loc 1 137 0
 111 001a BDE81040 		pop	{r4, lr}
 112              		.cfi_remember_state
 113              		.cfi_restore 14
 114              		.cfi_restore 4
ARM GAS  C:\Users\jo\AppData\Local\Temp\ccGI0iNg.s 			page 3


 115              		.cfi_def_cfa_offset 0
 116              	.LVL9:
 117              		.loc 1 132 0
 118 001e 1847     		bx	r3
 119              	.LVL10:
 120              	.L14:
 121              		.cfi_restore_state
 122              		.loc 1 137 0
 123 0020 10BD     		pop	{r4, pc}
 124              	.LVL11:
 125              	.L19:
 126              		.loc 1 124 0 discriminator 2
 127 0022 0248     		ldr	r0, .L20
 128 0024 FFF7FEFF 		bl	chSysHalt
 129              	.LVL12:
 130 0028 EFE7     		b	.L12
 131              	.L21:
 132 002a 00BF     		.align	2
 133              	.L20:
 134 002c 00000000 		.word	.LANCHOR1
 135              		.cfi_endproc
 136              	.LFE230:
 137              		.size	chPoolAllocI, .-chPoolAllocI
 138              		.section	.text.chPoolAlloc,"ax",%progbits
 139              		.align	2
 140              		.p2align 4,,15
 141              		.global	chPoolAlloc
 142              		.thumb
 143              		.thumb_func
 144              		.type	chPoolAlloc, %function
 145              	chPoolAlloc:
 146              	.LFB231:
 147              		.loc 1 149 0
 148              		.cfi_startproc
 149              		@ args = 0, pretend = 0, frame = 0
 150              		@ frame_needed = 0, uses_anonymous_args = 0
 151              	.LVL13:
 152 0000 10B5     		push	{r4, lr}
 153              		.cfi_def_cfa_offset 8
 154              		.cfi_offset 4, -8
 155              		.cfi_offset 14, -4
 156              	.LBB36:
 157              	.LBB37:
 158              	.LBB38:
 159              	.LBB39:
 160              	.LBB40:
 161              		.file 2 "../../../os/ext/CMSIS/include/core_cmFunc.h"
 162              		.loc 2 546 0
 163 0002 2023     		movs	r3, #32
 164              	.LBE40:
 165              	.LBE39:
 166              	.LBE38:
 167              	.LBE37:
 168              	.LBE36:
 169              		.loc 1 149 0
 170 0004 0446     		mov	r4, r0
 171              	.LBB45:
ARM GAS  C:\Users\jo\AppData\Local\Temp\ccGI0iNg.s 			page 4


 172              	.LBB44:
 173              	.LBB43:
 174              	.LBB42:
 175              	.LBB41:
 176              		.loc 2 546 0
 177              	@ 546 "../../../os/ext/CMSIS/include/core_cmFunc.h" 1
 178 0006 83F31188 		MSR basepri, r3
 179              	@ 0 "" 2
 180              		.thumb
 181              	.LBE41:
 182              	.LBE42:
 183              	.LBE43:
 184              		.file 3 "../../../os/rt/include/chsys.h"
 185              		.loc 3 350 0
 186 000a FFF7FEFF 		bl	_dbg_check_lock
 187              	.LVL14:
 188              	.LBE44:
 189              	.LBE45:
 190              		.loc 1 153 0
 191 000e 2046     		mov	r0, r4
 192 0010 FFF7FEFF 		bl	chPoolAllocI
 193              	.LVL15:
 194 0014 0446     		mov	r4, r0
 195              	.LVL16:
 196              	.LBB46:
 197              	.LBB47:
 198              		.loc 3 360 0
 199 0016 FFF7FEFF 		bl	_dbg_check_unlock
 200              	.LVL17:
 201              		.loc 3 367 0
 202 001a 084B     		ldr	r3, .L25
 203 001c 1A68     		ldr	r2, [r3]
 204 001e 9A42     		cmp	r2, r3
 205 0020 07D0     		beq	.L23
 206 0022 9969     		ldr	r1, [r3, #24]
 207 0024 9368     		ldr	r3, [r2, #8]
 208 0026 8A68     		ldr	r2, [r1, #8]
 209 0028 9A42     		cmp	r2, r3
 210 002a 02D2     		bcs	.L23
 211 002c 0448     		ldr	r0, .L25+4
 212 002e FFF7FEFF 		bl	chSysHalt
 213              	.LVL18:
 214              	.L23:
 215              	.LBB48:
 216              	.LBB49:
 217              	.LBB50:
 218              		.loc 2 546 0
 219 0032 0023     		movs	r3, #0
 220              	@ 546 "../../../os/ext/CMSIS/include/core_cmFunc.h" 1
 221 0034 83F31188 		MSR basepri, r3
 222              	@ 0 "" 2
 223              		.thumb
 224              	.LBE50:
 225              	.LBE49:
 226              	.LBE48:
 227              	.LBE47:
 228              	.LBE46:
ARM GAS  C:\Users\jo\AppData\Local\Temp\ccGI0iNg.s 			page 5


 229              		.loc 1 157 0
 230 0038 2046     		mov	r0, r4
 231 003a 10BD     		pop	{r4, pc}
 232              	.LVL19:
 233              	.L26:
 234              		.align	2
 235              	.L25:
 236 003c 00000000 		.word	ch
 237 0040 00000000 		.word	.LANCHOR2
 238              		.cfi_endproc
 239              	.LFE231:
 240              		.size	chPoolAlloc, .-chPoolAlloc
 241 0044 AFF30080 		.section	.text.chPoolFreeI,"ax",%progbits
 241      AFF30080 
 241      AFF30080 
 242              		.align	2
 243              		.p2align 4,,15
 244              		.global	chPoolFreeI
 245              		.thumb
 246              		.thumb_func
 247              		.type	chPoolFreeI, %function
 248              	chPoolFreeI:
 249              	.LFB232:
 250              		.loc 1 171 0
 251              		.cfi_startproc
 252              		@ args = 0, pretend = 0, frame = 0
 253              		@ frame_needed = 0, uses_anonymous_args = 0
 254              	.LVL20:
 255 0000 38B5     		push	{r3, r4, r5, lr}
 256              		.cfi_def_cfa_offset 16
 257              		.cfi_offset 3, -16
 258              		.cfi_offset 4, -12
 259              		.cfi_offset 5, -8
 260              		.cfi_offset 14, -4
 261              		.loc 1 171 0
 262 0002 0446     		mov	r4, r0
 263 0004 0D46     		mov	r5, r1
 264              	.LVL21:
 265              		.loc 1 174 0
 266 0006 FFF7FEFF 		bl	chDbgCheckClassI
 267              	.LVL22:
 268              		.loc 1 175 0
 269 000a 24B1     		cbz	r4, .L28
 270              		.loc 1 175 0 is_stmt 0 discriminator 3
 271 000c 1DB1     		cbz	r5, .L28
 272              		.loc 1 177 0 is_stmt 1
 273 000e 2368     		ldr	r3, [r4]
 274 0010 2B60     		str	r3, [r5]
 275              		.loc 1 178 0
 276 0012 2560     		str	r5, [r4]
 277 0014 38BD     		pop	{r3, r4, r5, pc}
 278              	.LVL23:
 279              	.L28:
 280              		.loc 1 175 0 discriminator 4
 281 0016 0348     		ldr	r0, .L34
 282 0018 FFF7FEFF 		bl	chSysHalt
 283              	.LVL24:
ARM GAS  C:\Users\jo\AppData\Local\Temp\ccGI0iNg.s 			page 6


 284              		.loc 1 177 0 discriminator 4
 285 001c 2368     		ldr	r3, [r4]
 286 001e 2B60     		str	r3, [r5]
 287              		.loc 1 178 0 discriminator 4
 288 0020 2560     		str	r5, [r4]
 289 0022 38BD     		pop	{r3, r4, r5, pc}
 290              	.LVL25:
 291              	.L35:
 292              		.align	2
 293              	.L34:
 294 0024 00000000 		.word	.LANCHOR3
 295              		.cfi_endproc
 296              	.LFE232:
 297              		.size	chPoolFreeI, .-chPoolFreeI
 298 0028 AFF30080 		.section	.text.chPoolFree,"ax",%progbits
 298      AFF30080 
 299              		.align	2
 300              		.p2align 4,,15
 301              		.global	chPoolFree
 302              		.thumb
 303              		.thumb_func
 304              		.type	chPoolFree, %function
 305              	chPoolFree:
 306              	.LFB233:
 307              		.loc 1 193 0
 308              		.cfi_startproc
 309              		@ args = 0, pretend = 0, frame = 0
 310              		@ frame_needed = 0, uses_anonymous_args = 0
 311              	.LVL26:
 312 0000 38B5     		push	{r3, r4, r5, lr}
 313              		.cfi_def_cfa_offset 16
 314              		.cfi_offset 3, -16
 315              		.cfi_offset 4, -12
 316              		.cfi_offset 5, -8
 317              		.cfi_offset 14, -4
 318              		.loc 1 193 0
 319 0002 0546     		mov	r5, r0
 320 0004 0C46     		mov	r4, r1
 321              	.LBB61:
 322              	.LBB62:
 323              	.LBB63:
 324              	.LBB64:
 325              	.LBB65:
 326              		.loc 2 546 0
 327 0006 2023     		movs	r3, #32
 328              	@ 546 "../../../os/ext/CMSIS/include/core_cmFunc.h" 1
 329 0008 83F31188 		MSR basepri, r3
 330              	@ 0 "" 2
 331              		.thumb
 332              	.LBE65:
 333              	.LBE64:
 334              	.LBE63:
 335              		.loc 3 350 0
 336 000c FFF7FEFF 		bl	_dbg_check_lock
 337              	.LVL27:
 338              	.LBE62:
 339              	.LBE61:
ARM GAS  C:\Users\jo\AppData\Local\Temp\ccGI0iNg.s 			page 7


 340              		.loc 1 196 0
 341 0010 2846     		mov	r0, r5
 342 0012 2146     		mov	r1, r4
 343 0014 FFF7FEFF 		bl	chPoolFreeI
 344              	.LVL28:
 345              	.LBB66:
 346              	.LBB67:
 347              		.loc 3 360 0
 348 0018 FFF7FEFF 		bl	_dbg_check_unlock
 349              	.LVL29:
 350              		.loc 3 367 0
 351 001c 074B     		ldr	r3, .L39
 352 001e 1A68     		ldr	r2, [r3]
 353 0020 9A42     		cmp	r2, r3
 354 0022 07D0     		beq	.L37
 355 0024 9969     		ldr	r1, [r3, #24]
 356 0026 9368     		ldr	r3, [r2, #8]
 357 0028 8A68     		ldr	r2, [r1, #8]
 358 002a 9A42     		cmp	r2, r3
 359 002c 02D2     		bcs	.L37
 360 002e 0448     		ldr	r0, .L39+4
 361 0030 FFF7FEFF 		bl	chSysHalt
 362              	.LVL30:
 363              	.L37:
 364              	.LBB68:
 365              	.LBB69:
 366              	.LBB70:
 367              		.loc 2 546 0
 368 0034 0023     		movs	r3, #0
 369              	@ 546 "../../../os/ext/CMSIS/include/core_cmFunc.h" 1
 370 0036 83F31188 		MSR basepri, r3
 371              	@ 0 "" 2
 372              		.thumb
 373 003a 38BD     		pop	{r3, r4, r5, pc}
 374              	.LVL31:
 375              	.L40:
 376              		.align	2
 377              	.L39:
 378 003c 00000000 		.word	ch
 379 0040 00000000 		.word	.LANCHOR2
 380              	.LBE70:
 381              	.LBE69:
 382              	.LBE68:
 383              	.LBE67:
 384              	.LBE66:
 385              		.cfi_endproc
 386              	.LFE233:
 387              		.size	chPoolFree, .-chPoolFree
 388 0044 AFF30080 		.section	.text.chPoolLoadArray,"ax",%progbits
 388      AFF30080 
 388      AFF30080 
 389              		.align	2
 390              		.p2align 4,,15
 391              		.global	chPoolLoadArray
 392              		.thumb
 393              		.thumb_func
 394              		.type	chPoolLoadArray, %function
ARM GAS  C:\Users\jo\AppData\Local\Temp\ccGI0iNg.s 			page 8


 395              	chPoolLoadArray:
 396              	.LFB229:
 397              		.loc 1 97 0
 398              		.cfi_startproc
 399              		@ args = 0, pretend = 0, frame = 0
 400              		@ frame_needed = 0, uses_anonymous_args = 0
 401              	.LVL32:
 402 0000 70B5     		push	{r4, r5, r6, lr}
 403              		.cfi_def_cfa_offset 16
 404              		.cfi_offset 4, -16
 405              		.cfi_offset 5, -12
 406              		.cfi_offset 6, -8
 407              		.cfi_offset 14, -4
 408              		.loc 1 97 0
 409 0002 0D46     		mov	r5, r1
 410 0004 1446     		mov	r4, r2
 411              		.loc 1 99 0
 412 0006 0646     		mov	r6, r0
 413 0008 28B1     		cbz	r0, .L42
 414              		.loc 1 99 0 is_stmt 0 discriminator 3
 415 000a 42B9     		cbnz	r2, .L44
 416              		.loc 1 99 0
 417 000c 0948     		ldr	r0, .L49
 418              	.LVL33:
 419              		.loc 1 108 0 is_stmt 1
 420 000e BDE87040 		pop	{r4, r5, r6, lr}
 421              		.cfi_remember_state
 422              		.cfi_restore 14
 423              		.cfi_restore 6
 424              		.cfi_restore 5
 425              		.cfi_restore 4
 426              		.cfi_def_cfa_offset 0
 427              	.LVL34:
 428              		.loc 1 99 0
 429 0012 FFF7FEBF 		b	chSysHalt
 430              	.LVL35:
 431              	.L42:
 432              		.cfi_restore_state
 433              		.loc 1 99 0 is_stmt 0 discriminator 4
 434 0016 0748     		ldr	r0, .L49
 435              	.LVL36:
 436 0018 FFF7FEFF 		bl	chSysHalt
 437              	.LVL37:
 438              		.loc 1 101 0 is_stmt 1 discriminator 4
 439 001c 44B1     		cbz	r4, .L41
 440              	.LVL38:
 441              	.L44:
 442              	.LBB71:
 443              	.LBB72:
 444              		.file 4 "../../../os/rt/include/chmempools.h"
 445              		.loc 4 139 0
 446 001e 2946     		mov	r1, r5
 447 0020 3046     		mov	r0, r6
 448 0022 FFF7FEFF 		bl	chPoolFree
 449              	.LVL39:
 450              	.LBE72:
 451              	.LBE71:
ARM GAS  C:\Users\jo\AppData\Local\Temp\ccGI0iNg.s 			page 9


 452              		.loc 1 104 0
 453 0026 7368     		ldr	r3, [r6, #4]
 454              		.loc 1 101 0
 455 0028 013C     		subs	r4, r4, #1
 456              	.LVL40:
 457              		.loc 1 104 0
 458 002a 1D44     		add	r5, r5, r3
 459              	.LVL41:
 460              		.loc 1 101 0
 461 002c F7D1     		bne	.L44
 462 002e 70BD     		pop	{r4, r5, r6, pc}
 463              	.LVL42:
 464              	.L41:
 465 0030 70BD     		pop	{r4, r5, r6, pc}
 466              	.LVL43:
 467              	.L50:
 468 0032 00BF     		.align	2
 469              	.L49:
 470 0034 00000000 		.word	.LANCHOR4
 471              		.cfi_endproc
 472              	.LFE229:
 473              		.size	chPoolLoadArray, .-chPoolLoadArray
 474 0038 AFF30080 		.section	.rodata.__func__.6548,"a",%progbits
 474      AFF30080 
 475              		.align	2
 476              		.set	.LANCHOR0,. + 0
 477              		.type	__func__.6548, %object
 478              		.size	__func__.6548, 17
 479              	__func__.6548:
 480 0000 6368506F 		.ascii	"chPoolObjectInit\000"
 480      6F6C4F62 
 480      6A656374 
 480      496E6974 
 480      00
 481 0011 000000   		.section	.rodata.__func__.6554,"a",%progbits
 482              		.align	2
 483              		.set	.LANCHOR4,. + 0
 484              		.type	__func__.6554, %object
 485              		.size	__func__.6554, 16
 486              	__func__.6554:
 487 0000 6368506F 		.ascii	"chPoolLoadArray\000"
 487      6F6C4C6F 
 487      61644172 
 487      72617900 
 488              		.section	.rodata.__func__.6562,"a",%progbits
 489              		.align	2
 490              		.set	.LANCHOR1,. + 0
 491              		.type	__func__.6562, %object
 492              		.size	__func__.6562, 13
 493              	__func__.6562:
 494 0000 6368506F 		.ascii	"chPoolAllocI\000"
 494      6F6C416C 
 494      6C6F6349 
 494      00
 495 000d 000000   		.section	.rodata.__func__.6572,"a",%progbits
 496              		.align	2
 497              		.set	.LANCHOR3,. + 0
ARM GAS  C:\Users\jo\AppData\Local\Temp\ccGI0iNg.s 			page 10


 498              		.type	__func__.6572, %object
 499              		.size	__func__.6572, 12
 500              	__func__.6572:
 501 0000 6368506F 		.ascii	"chPoolFreeI\000"
 501      6F6C4672 
 501      65654900 
 502              		.section	.rodata.__func__.5854,"a",%progbits
 503              		.align	2
 504              		.set	.LANCHOR2,. + 0
 505              		.type	__func__.5854, %object
 506              		.size	__func__.5854, 12
 507              	__func__.5854:
 508 0000 63685379 		.ascii	"chSysUnlock\000"
 508      73556E6C 
 508      6F636B00 
 509              		.text
 510              	.Letext0:
 511              		.file 5 "c:\\program files\\gnu tools arm embedded\\4.9 2014q4\\lib\\gcc\\arm-none-eabi\\4.9.3\\in
 512              		.file 6 "c:\\program files\\gnu tools arm embedded\\4.9 2014q4\\arm-none-eabi\\include\\machine\\_
 513              		.file 7 "c:\\program files\\gnu tools arm embedded\\4.9 2014q4\\arm-none-eabi\\include\\stdint.h"
 514              		.file 8 "../../../os/rt/ports/ARMCMx/compilers/GCC/chtypes.h"
 515              		.file 9 "../../../os/rt/include/chsystypes.h"
 516              		.file 10 "../../../os/rt/include/chschd.h"
 517              		.file 11 "../../../os/rt/ports/ARMCMx/chcore.h"
 518              		.file 12 "../../../os/rt/ports/ARMCMx/chcore_v7m.h"
 519              		.file 13 "../../../os/rt/include/chdebug.h"
 520              		.file 14 "../../../os/rt/include/chtm.h"
 521              		.file 15 "../../../os/rt/include/chsem.h"
 522              		.file 16 "../../../os/rt/include/chmtx.h"
 523              		.file 17 "../../../os/rt/include/chmemcore.h"
 524              		.file 18 "../../../os/ext/CMSIS/include/core_cm4.h"