ARM GAS  C:\Users\jo\AppData\Local\Temp\ccyZVHuW.s 			page 1


   1              		.syntax unified
   2              		.cpu cortex-m4
   3              		.fpu softvfp
   4              		.eabi_attribute 20, 1
   5              		.eabi_attribute 21, 1
   6              		.eabi_attribute 23, 3
   7              		.eabi_attribute 24, 1
   8              		.eabi_attribute 25, 1
   9              		.eabi_attribute 26, 1
  10              		.eabi_attribute 30, 2
  11              		.eabi_attribute 34, 1
  12              		.eabi_attribute 18, 4
  13              		.thumb
  14              		.file	"chmsg.c"
  15              		.text
  16              	.Ltext0:
  17              		.cfi_sections	.debug_frame
  18              		.section	.text.chMsgSend,"ax",%progbits
  19              		.align	2
  20              		.p2align 4,,15
  21              		.global	chMsgSend
  22              		.thumb
  23              		.thumb_func
  24              		.type	chMsgSend, %function
  25              	chMsgSend:
  26              	.LFB228:
  27              		.file 1 "../../../os/rt/src/chmsg.c"
  28              		.loc 1 87 0
  29              		.cfi_startproc
  30              		@ args = 0, pretend = 0, frame = 0
  31              		@ frame_needed = 0, uses_anonymous_args = 0
  32              	.LVL0:
  33 0000 F8B5     		push	{r3, r4, r5, r6, r7, lr}
  34              		.cfi_def_cfa_offset 24
  35              		.cfi_offset 3, -24
  36              		.cfi_offset 4, -20
  37              		.cfi_offset 5, -16
  38              		.cfi_offset 6, -12
  39              		.cfi_offset 7, -8
  40              		.cfi_offset 14, -4
  41              		.loc 1 88 0
  42 0002 1B4E     		ldr	r6, .L9
  43              		.loc 1 87 0
  44 0004 0F46     		mov	r7, r1
  45              		.loc 1 88 0
  46 0006 B469     		ldr	r4, [r6, #24]
  47              	.LVL1:
  48              		.loc 1 90 0
  49 0008 0546     		mov	r5, r0
  50 000a 60B3     		cbz	r0, .L7
  51              	.LVL2:
  52              	.L2:
  53              	.LBB49:
  54              	.LBB50:
  55              	.LBB51:
  56              	.LBB52:
  57              	.LBB53:
ARM GAS  C:\Users\jo\AppData\Local\Temp\ccyZVHuW.s 			page 2


  58              		.file 2 "../../../os/ext/CMSIS/include/core_cmFunc.h"
  59              		.loc 2 546 0
  60 000c 2023     		movs	r3, #32
  61              	@ 546 "../../../os/ext/CMSIS/include/core_cmFunc.h" 1
  62 000e 83F31188 		MSR basepri, r3
  63              	@ 0 "" 2
  64              		.thumb
  65              	.LBE53:
  66              	.LBE52:
  67              	.LBE51:
  68              		.file 3 "../../../os/rt/include/chsys.h"
  69              		.loc 3 350 0
  70 0012 FFF7FEFF 		bl	_dbg_check_lock
  71              	.LVL3:
  72              	.LBE50:
  73              	.LBE49:
  74              		.loc 1 94 0
  75 0016 05F12C02 		add	r2, r5, #44
  76              		.loc 1 96 0
  77 001a 95F82000 		ldrb	r0, [r5, #32]	@ zero_extendqisi2
  78              		.loc 1 94 0
  79 001e 6262     		str	r2, [r4, #36]
  80              	.LVL4:
  81              	.LBB54:
  82              	.LBB55:
  83              		.file 4 "../../../os/rt/include/chschd.h"
  84              		.loc 4 666 0
  85 0020 2B6B     		ldr	r3, [r5, #48]
  86              	.LBE55:
  87              	.LBE54:
  88              		.loc 1 93 0
  89 0022 6763     		str	r7, [r4, #52]
  90              		.loc 1 96 0
  91 0024 0E28     		cmp	r0, #14
  92              	.LBB57:
  93              	.LBB56:
  94              		.loc 4 666 0
  95 0026 84E80C00 		stmia	r4, {r2, r3}
  96              		.loc 4 667 0
  97 002a 1C60     		str	r4, [r3]
  98              		.loc 4 668 0
  99 002c 2C63     		str	r4, [r5, #48]
 100              	.LBE56:
 101              	.LBE57:
 102              		.loc 1 96 0
 103 002e 16D0     		beq	.L8
 104              	.LVL5:
 105              	.L3:
 106              		.loc 1 99 0
 107 0030 0C20     		movs	r0, #12
 108 0032 FFF7FEFF 		bl	chSchGoSleepS
 109              	.LVL6:
 110              		.loc 1 100 0
 111 0036 646A     		ldr	r4, [r4, #36]
 112              	.LVL7:
 113              	.LBB58:
 114              	.LBB59:
ARM GAS  C:\Users\jo\AppData\Local\Temp\ccyZVHuW.s 			page 3


 115              		.loc 3 360 0
 116 0038 FFF7FEFF 		bl	_dbg_check_unlock
 117              	.LVL8:
 118              		.loc 3 367 0
 119 003c 3368     		ldr	r3, [r6]
 120 003e 0C4A     		ldr	r2, .L9
 121 0040 B342     		cmp	r3, r6
 122 0042 07D0     		beq	.L4
 123 0044 9269     		ldr	r2, [r2, #24]
 124 0046 9B68     		ldr	r3, [r3, #8]
 125 0048 9268     		ldr	r2, [r2, #8]
 126 004a 9A42     		cmp	r2, r3
 127 004c 02D2     		bcs	.L4
 128 004e 0948     		ldr	r0, .L9+4
 129 0050 FFF7FEFF 		bl	chSysHalt
 130              	.LVL9:
 131              	.L4:
 132              	.LBB60:
 133              	.LBB61:
 134              	.LBB62:
 135              		.loc 2 546 0
 136 0054 0023     		movs	r3, #0
 137              	@ 546 "../../../os/ext/CMSIS/include/core_cmFunc.h" 1
 138 0056 83F31188 		MSR basepri, r3
 139              	@ 0 "" 2
 140              		.thumb
 141              	.LBE62:
 142              	.LBE61:
 143              	.LBE60:
 144              	.LBE59:
 145              	.LBE58:
 146              		.loc 1 104 0
 147 005a 2046     		mov	r0, r4
 148 005c F8BD     		pop	{r3, r4, r5, r6, r7, pc}
 149              	.LVL10:
 150              	.L8:
 151              		.loc 1 97 0
 152 005e 2846     		mov	r0, r5
 153 0060 FFF7FEFF 		bl	chSchReadyI
 154              	.LVL11:
 155 0064 E4E7     		b	.L3
 156              	.LVL12:
 157              	.L7:
 158              		.loc 1 90 0 discriminator 2
 159 0066 0448     		ldr	r0, .L9+8
 160              	.LVL13:
 161 0068 FFF7FEFF 		bl	chSysHalt
 162              	.LVL14:
 163 006c CEE7     		b	.L2
 164              	.L10:
 165 006e 00BF     		.align	2
 166              	.L9:
 167 0070 00000000 		.word	ch
 168 0074 00000000 		.word	.LANCHOR1
 169 0078 00000000 		.word	.LANCHOR0
 170              		.cfi_endproc
 171              	.LFE228:
ARM GAS  C:\Users\jo\AppData\Local\Temp\ccyZVHuW.s 			page 4


 172              		.size	chMsgSend, .-chMsgSend
 173 007c AFF30080 		.section	.text.chMsgWait,"ax",%progbits
 174              		.align	2
 175              		.p2align 4,,15
 176              		.global	chMsgWait
 177              		.thumb
 178              		.thumb_func
 179              		.type	chMsgWait, %function
 180              	chMsgWait:
 181              	.LFB229:
 182              		.loc 1 120 0
 183              		.cfi_startproc
 184              		@ args = 0, pretend = 0, frame = 0
 185              		@ frame_needed = 0, uses_anonymous_args = 0
 186              	.LVL15:
 187 0000 70B5     		push	{r4, r5, r6, lr}
 188              		.cfi_def_cfa_offset 16
 189              		.cfi_offset 4, -16
 190              		.cfi_offset 5, -12
 191              		.cfi_offset 6, -8
 192              		.cfi_offset 14, -4
 193              	.LBB77:
 194              	.LBB78:
 195              	.LBB79:
 196              	.LBB80:
 197              	.LBB81:
 198              		.loc 2 546 0
 199 0002 2023     		movs	r3, #32
 200              	@ 546 "../../../os/ext/CMSIS/include/core_cmFunc.h" 1
 201 0004 83F31188 		MSR basepri, r3
 202              	@ 0 "" 2
 203              		.thumb
 204              	.LBE81:
 205              	.LBE80:
 206              	.LBE79:
 207              	.LBE78:
 208              	.LBE77:
 209              		.loc 1 124 0
 210 0008 144C     		ldr	r4, .L16
 211              	.LBB83:
 212              	.LBB82:
 213              		.loc 3 350 0
 214 000a FFF7FEFF 		bl	_dbg_check_lock
 215              	.LVL16:
 216              	.LBE82:
 217              	.LBE83:
 218              		.loc 1 124 0
 219 000e A569     		ldr	r5, [r4, #24]
 220              	.LVL17:
 221              	.LBB84:
 222              	.LBB85:
 223              		.file 5 "../../../os/rt/include/chmsg.h"
 224              		.loc 5 81 0
 225 0010 FFF7FEFF 		bl	chDbgCheckClassI
 226              	.LVL18:
 227              	.LBE85:
 228              	.LBE84:
ARM GAS  C:\Users\jo\AppData\Local\Temp\ccyZVHuW.s 			page 5


 229              		.loc 1 124 0
 230 0014 EB6A     		ldr	r3, [r5, #44]
 231              	.LBB87:
 232              	.LBB86:
 233              		.loc 5 83 0
 234 0016 2C35     		adds	r5, r5, #44
 235              	.LVL19:
 236              	.LBE86:
 237              	.LBE87:
 238              		.loc 1 124 0
 239 0018 AB42     		cmp	r3, r5
 240 001a 1BD0     		beq	.L15
 241              	.L12:
 242              		.loc 1 127 0
 243 001c A369     		ldr	r3, [r4, #24]
 244              	.LVL20:
 245 001e 0F4E     		ldr	r6, .L16
 246              	.LBB88:
 247              	.LBB89:
 248              		.loc 4 672 0
 249 0020 DD6A     		ldr	r5, [r3, #44]
 250              	.LVL21:
 251              		.loc 4 674 0
 252 0022 2A68     		ldr	r2, [r5]
 253 0024 43F82C2F 		str	r2, [r3, #44]!
 254              	.LVL22:
 255              	.LBE89:
 256              	.LBE88:
 257              		.loc 1 128 0
 258 0028 0D21     		movs	r1, #13
 259              	.LBB91:
 260              	.LBB90:
 261              		.loc 4 675 0
 262 002a 5360     		str	r3, [r2, #4]
 263              	.LBE90:
 264              	.LBE91:
 265              		.loc 1 128 0
 266 002c 85F82010 		strb	r1, [r5, #32]
 267              	.LBB92:
 268              	.LBB93:
 269              		.loc 3 360 0
 270 0030 FFF7FEFF 		bl	_dbg_check_unlock
 271              	.LVL23:
 272              		.loc 3 367 0
 273 0034 2368     		ldr	r3, [r4]
 274 0036 A342     		cmp	r3, r4
 275 0038 07D0     		beq	.L13
 276 003a B269     		ldr	r2, [r6, #24]
 277 003c 9B68     		ldr	r3, [r3, #8]
 278 003e 9268     		ldr	r2, [r2, #8]
 279 0040 9A42     		cmp	r2, r3
 280 0042 02D2     		bcs	.L13
 281 0044 0648     		ldr	r0, .L16+4
 282 0046 FFF7FEFF 		bl	chSysHalt
 283              	.LVL24:
 284              	.L13:
 285              	.LBB94:
ARM GAS  C:\Users\jo\AppData\Local\Temp\ccyZVHuW.s 			page 6


 286              	.LBB95:
 287              	.LBB96:
 288              		.loc 2 546 0
 289 004a 0023     		movs	r3, #0
 290              	@ 546 "../../../os/ext/CMSIS/include/core_cmFunc.h" 1
 291 004c 83F31188 		MSR basepri, r3
 292              	@ 0 "" 2
 293              		.thumb
 294              	.LBE96:
 295              	.LBE95:
 296              	.LBE94:
 297              	.LBE93:
 298              	.LBE92:
 299              		.loc 1 132 0
 300 0050 2846     		mov	r0, r5
 301 0052 70BD     		pop	{r4, r5, r6, pc}
 302              	.LVL25:
 303              	.L15:
 304              		.loc 1 125 0
 305 0054 0E20     		movs	r0, #14
 306 0056 FFF7FEFF 		bl	chSchGoSleepS
 307              	.LVL26:
 308 005a DFE7     		b	.L12
 309              	.L17:
 310              		.align	2
 311              	.L16:
 312 005c 00000000 		.word	ch
 313 0060 00000000 		.word	.LANCHOR1
 314              		.cfi_endproc
 315              	.LFE229:
 316              		.size	chMsgWait, .-chMsgWait
 317 0064 AFF30080 		.section	.text.chMsgRelease,"ax",%progbits
 317      AFF30080 
 317      AFF30080 
 318              		.align	2
 319              		.p2align 4,,15
 320              		.global	chMsgRelease
 321              		.thumb
 322              		.thumb_func
 323              		.type	chMsgRelease, %function
 324              	chMsgRelease:
 325              	.LFB230:
 326              		.loc 1 144 0
 327              		.cfi_startproc
 328              		@ args = 0, pretend = 0, frame = 0
 329              		@ frame_needed = 0, uses_anonymous_args = 0
 330              	.LVL27:
 331 0000 38B5     		push	{r3, r4, r5, lr}
 332              		.cfi_def_cfa_offset 16
 333              		.cfi_offset 3, -16
 334              		.cfi_offset 4, -12
 335              		.cfi_offset 5, -8
 336              		.cfi_offset 14, -4
 337              		.loc 1 144 0
 338 0002 0446     		mov	r4, r0
 339 0004 0D46     		mov	r5, r1
 340              	.LBB109:
ARM GAS  C:\Users\jo\AppData\Local\Temp\ccyZVHuW.s 			page 7


 341              	.LBB110:
 342              	.LBB111:
 343              	.LBB112:
 344              	.LBB113:
 345              		.loc 2 546 0
 346 0006 2023     		movs	r3, #32
 347              	@ 546 "../../../os/ext/CMSIS/include/core_cmFunc.h" 1
 348 0008 83F31188 		MSR basepri, r3
 349              	@ 0 "" 2
 350              		.thumb
 351              	.LBE113:
 352              	.LBE112:
 353              	.LBE111:
 354              		.loc 3 350 0
 355 000c FFF7FEFF 		bl	_dbg_check_lock
 356              	.LVL28:
 357              	.LBE110:
 358              	.LBE109:
 359              		.loc 1 147 0
 360 0010 94F82030 		ldrb	r3, [r4, #32]	@ zero_extendqisi2
 361 0014 0D2B     		cmp	r3, #13
 362 0016 02D0     		beq	.L19
 363              		.loc 1 147 0 is_stmt 0 discriminator 2
 364 0018 0D48     		ldr	r0, .L25
 365 001a FFF7FEFF 		bl	chSysHalt
 366              	.LVL29:
 367              	.L19:
 368              	.LBB114:
 369              	.LBB115:
 370              		.loc 5 113 0 is_stmt 1
 371 001e FFF7FEFF 		bl	chDbgCheckClassS
 372              	.LVL30:
 373              		.loc 5 115 0
 374 0022 2046     		mov	r0, r4
 375 0024 2946     		mov	r1, r5
 376 0026 FFF7FEFF 		bl	chSchWakeupS
 377              	.LVL31:
 378              	.LBE115:
 379              	.LBE114:
 380              	.LBB116:
 381              	.LBB117:
 382              		.loc 3 360 0
 383 002a FFF7FEFF 		bl	_dbg_check_unlock
 384              	.LVL32:
 385              		.loc 3 367 0
 386 002e 094B     		ldr	r3, .L25+4
 387 0030 1A68     		ldr	r2, [r3]
 388 0032 9A42     		cmp	r2, r3
 389 0034 07D0     		beq	.L20
 390 0036 9969     		ldr	r1, [r3, #24]
 391 0038 9368     		ldr	r3, [r2, #8]
 392 003a 8A68     		ldr	r2, [r1, #8]
 393 003c 9A42     		cmp	r2, r3
 394 003e 02D2     		bcs	.L20
 395 0040 0548     		ldr	r0, .L25+8
 396 0042 FFF7FEFF 		bl	chSysHalt
 397              	.LVL33:
ARM GAS  C:\Users\jo\AppData\Local\Temp\ccyZVHuW.s 			page 8


 398              	.L20:
 399              	.LBB118:
 400              	.LBB119:
 401              	.LBB120:
 402              		.loc 2 546 0
 403 0046 0023     		movs	r3, #0
 404              	@ 546 "../../../os/ext/CMSIS/include/core_cmFunc.h" 1
 405 0048 83F31188 		MSR basepri, r3
 406              	@ 0 "" 2
 407              		.thumb
 408 004c 38BD     		pop	{r3, r4, r5, pc}
 409              	.LVL34:
 410              	.L26:
 411 004e 00BF     		.align	2
 412              	.L25:
 413 0050 00000000 		.word	.LANCHOR2
 414 0054 00000000 		.word	ch
 415 0058 00000000 		.word	.LANCHOR1
 416              	.LBE120:
 417              	.LBE119:
 418              	.LBE118:
 419              	.LBE117:
 420              	.LBE116:
 421              		.cfi_endproc
 422              	.LFE230:
 423              		.size	chMsgRelease, .-chMsgRelease
 424 005c AFF30080 		.section	.rodata.__func__.6548,"a",%progbits
 425              		.align	2
 426              		.set	.LANCHOR0,. + 0
 427              		.type	__func__.6548, %object
 428              		.size	__func__.6548, 10
 429              	__func__.6548:
 430 0000 63684D73 		.ascii	"chMsgSend\000"
 430      6753656E 
 430      6400
 431 000a 0000     		.section	.rodata.__func__.6557,"a",%progbits
 432              		.align	2
 433              		.set	.LANCHOR2,. + 0
 434              		.type	__func__.6557, %object
 435              		.size	__func__.6557, 13
 436              	__func__.6557:
 437 0000 63684D73 		.ascii	"chMsgRelease\000"
 437      6752656C 
 437      65617365 
 437      00
 438 000d 000000   		.section	.rodata.__func__.5854,"a",%progbits
 439              		.align	2
 440              		.set	.LANCHOR1,. + 0
 441              		.type	__func__.5854, %object
 442              		.size	__func__.5854, 12
 443              	__func__.5854:
 444 0000 63685379 		.ascii	"chSysUnlock\000"
 444      73556E6C 
 444      6F636B00 
 445              		.text
 446              	.Letext0:
 447              		.file 6 "c:\\program files\\gnu tools arm embedded\\4.9 2014q4\\arm-none-eabi\\include\\machine\\_
ARM GAS  C:\Users\jo\AppData\Local\Temp\ccyZVHuW.s 			page 9


 448              		.file 7 "c:\\program files\\gnu tools arm embedded\\4.9 2014q4\\arm-none-eabi\\include\\stdint.h"
 449              		.file 8 "../../../os/rt/ports/ARMCMx/compilers/GCC/chtypes.h"
 450              		.file 9 "../../../os/rt/include/chsystypes.h"
 451              		.file 10 "../../../os/rt/ports/ARMCMx/chcore.h"
 452              		.file 11 "../../../os/rt/ports/ARMCMx/chcore_v7m.h"
 453              		.file 12 "../../../os/rt/include/chdebug.h"
 454              		.file 13 "../../../os/rt/include/chtm.h"
 455              		.file 14 "../../../os/rt/include/chsem.h"
 456              		.file 15 "../../../os/rt/include/chmtx.h"
 457              		.file 16 "../../../os/ext/CMSIS/include/core_cm4.h"