ARM GAS  C:\Users\jo\AppData\Local\Temp\ccyZVHuW.s 			page 1


   1              		.syntax unified
   2              		.cpu cortex-m4
   3              		.fpu softvfp
   4              		.eabi_attribute 20, 1
   5              		.eabi_attribute 21, 1
   6              		.eabi_attribute 23, 3
   7              		.eabi_attribute 24, 1
   8              		.eabi_attribute 25, 1
   9              		.eabi_attribute 26, 1
  10              		.eabi_attribute 30, 2
  11              		.eabi_attribute 34, 1
  12              		.eabi_attribute 18, 4
  13              		.thumb
  14              		.file	"chmsg.c"
  15              		.text
  16              	.Ltext0:
  17              		.cfi_sections	.debug_frame
  18              		.section	.text.chMsgSend,"ax",%progbits
  19              		.align	2
  20              		.p2align 4,,15
  21              		.global	chMsgSend
  22              		.thumb
  23              		.thumb_func
  24              		.type	chMsgSend, %function
  25              	chMsgSend:
  26              	.LFB228:
  27              		.file 1 "../../../os/rt/src/chmsg.c"
  28              		.loc 1 87 0
  29              		.cfi_startproc
  30              		@ args = 0, pretend = 0, frame = 0
  31              		@ frame_needed = 0, uses_anonymous_args = 0
  32              	.LVL0:
  33 0000 F8B5     		push	{r3, r4, r5, r6, r7, lr}
  34              		.cfi_def_cfa_offset 24
  35              		.cfi_offset 3, -24
  36              		.cfi_offset 4, -20
  37              		.cfi_offset 5, -16
  38              		.cfi_offset 6, -12
  39              		.cfi_offset 7, -8
  40              		.cfi_offset 14, -4
  41              		.loc 1 88 0
  42 0002 1B4E     		ldr	r6, .L9
  43              		.loc 1 87 0
  44 0004 0F46     		mov	r7, r1
  45              		.loc 1 88 0
  46 0006 B469     		ldr	r4, [r6, #24]
  47              	.LVL1:
  48              		.loc 1 90 0
  49 0008 0546     		mov	r5, r0
  50 000a 60B3     		cbz	r0, .L7
  51              	.LVL2:
  52              	.L2:
  53              	.LBB49:
  54              	.LBB50:
  55              	.LBB51:
  56              	.LBB52:
  57              	.LBB53:
ARM GAS  C:\Users\jo\AppData\Local\Temp\ccyZVHuW.s 			page 2


  58              		.file 2 "../../../os/ext/CMSIS/include/core_cmFunc.h"
  59              		.loc 2 546 0
  60 000c 2023     		movs	r3, #32
  61              	@ 546 "../../../os/ext/CMSIS/include/core_cmFunc.h" 1
  62 000e 83F31188 		MSR basepri, r3
  63              	@ 0 "" 2
  64              		.thumb
  65              	.LBE53:
  66              	.LBE52:
  67              	.LBE51:
  68              		.file 3 "../../../os/rt/include/chsys.h"
  69              		.loc 3 350 0
  70 0012 FFF7FEFF 		bl	_dbg_check_lock
  71              	.LVL3:
  72              	.LBE50:
  73              	.LBE49:
  74              		.loc 1 94 0
  75 0016 05F12C02 		add	r2, r5, #44
  76              		.loc 1 96 0
  77 001a 95F82000 		ldrb	r0, [r5, #32]	@ zero_extendqisi2
  78              		.loc 1 94 0
  79 001e 6262     		str	r2, [r4, #36]
  80              	.LVL4:
  81              	.LBB54:
  82              	.LBB55:
  83              		.file 4 "../../../os/rt/include/chschd.h"
  84              		.loc 4 666 0
  85 0020 2B6B     		ldr	r3, [r5, #48]
  86              	.LBE55:
  87              	.LBE54:
  88              		.loc 1 93 0
  89 0022 6763     		str	r7, [r4, #52]
  90              		.loc 1 96 0
  91 0024 0E28     		cmp	r0, #14
  92              	.LBB57:
  93              	.LBB56:
  94              		.loc 4 666 0
  95 0026 84E80C00 		stmia	r4, {r2, r3}
  96              		.loc 4 667 0
  97 002a 1C60     		str	r4, [r3]
  98              		.loc 4 668 0
  99 002c 2C63     		str	r4, [r5, #48]
 100              	.LBE56:
 101              	.LBE57:
 102              		.loc 1 96 0
 103 002e 16D0     		beq	.L8
 104              	.LVL5:
 105              	.L3:
 106              		.loc 1 99 0
 107 0030 0C20     		movs	r0, #12
 108 0032 FFF7FEFF 		bl	chSchGoSleepS
 109              	.LVL6:
 110              		.loc 1 100 0
 111 0036 646A     		ldr	r4, [r4, #36]
 112              	.LVL7:
 113              	.LBB58:
 114              	.LBB59:
ARM GAS  C:\Users\jo\AppData\Local\Temp\ccyZVHuW.s 			page 3


 115              		.loc 3 360 0
 116 0038 FFF7FEFF 		bl	_dbg_check_unlock
 117              	.LVL8:
 118              		.loc 3 367 0
 119 003c 3368     		ldr	r3, [r6]
 120 003e 0C4A     		ldr	r2, .L9
 121 0040 B342     		cmp	r3, r6
 122 0042 07D0     		beq	.L4
 123 0044 9269     		ldr	r2, [r2, #24]
 124 0046 9B68     		ldr	r3, [r3, #8]
 125 0048 9268     		ldr	r2, [r2, #8]
 126 004a 9A42     		cmp	r2, r3
 127 004c 02D2     		bcs	.L4
 128 004e 0948     		ldr	r0, .L9+4
 129 0050 FFF7FEFF 		bl	chSysHalt
 130              	.LVL9:
 131              	.L4:
 132              	.LBB60:
 133              	.LBB61:
 134              	.LBB62:
 135              		.loc 2 546 0
 136 0054 0023     		movs	r3, #0
 137              	@ 546 "../../../os/ext/CMSIS/include/core_cmFunc.h" 1
 138 0056 83F31188 		MSR basepri, r3
 139              	@ 0 "" 2
 140              		.thumb
 141              	.LBE62:
 142              	.LBE61:
 143              	.LBE60:
 144              	.LBE59:
 145              	.LBE58:
 146              		.loc 1 104 0
 147 005a 2046     		mov	r0, r4
 148 005c F8BD     		pop	{r3, r4, r5, r6, r7, pc}
 149              	.LVL10:
 150              	.L8:
 151              		.loc 1 97 0
 152 005e 2846     		mov	r0, r5
 153 0060 FFF7FEFF 		bl	chSchReadyI
 154              	.LVL11:
 155 0064 E4E7     		b	.L3
 156              	.LVL12:
 157              	.L7:
 158              		.loc 1 90 0 discriminator 2
 159 0066 0448     		ldr	r0, .L9+8
 160              	.LVL13:
 161 0068 FFF7FEFF 		bl	chSysHalt
 162              	.LVL14:
 163 006c CEE7     		b	.L2
 164              	.L10:
 165 006e 00BF     		.align	2
 166              	.L9:
 167 0070 00000000 		.word	ch
 168 0074 00000000 		.word	.LANCHOR1
 169 0078 00000000 		.word	.LANCHOR0
 170              		.cfi_endproc
 171              	.LFE228:
ARM GAS  C:\Users\jo\AppData\Local\Temp\ccyZVHuW.s 			page 4


 172              		.size	chMsgSend, .-chMsgSend
 173 007c AFF30080 		.section	.text.chMsgWait,"ax",%progbits
 174              		.align	2
 175              		.p2align 4,,15
 176              		.global	chMsgWait
 177              		.thumb
 178              		.thumb_func
 179              		.type	chMsgWait, %function
 180              	chMsgWait:
 181              	.LFB229:
 182              		.loc 1 120 0
 183              		.cfi_startproc
 184              		@ args = 0, pretend = 0, frame = 0
 185              		@ frame_needed = 0, uses_anonymous_args = 0
 186              	.LVL15:
 187 0000 70B5     		push	{r4, r5, r6, lr}
 188              		.cfi_def_cfa_offset 16
 189              		.cfi_offset 4, -16
 190              		.cfi_offset 5, -12
 191              		.cfi_offset 6, -8
 192              		.cfi_offset 14, -4
 193              	.LBB77:
 194              	.LBB78:
 195              	.LBB79:
 196              	.LBB80:
 197              	.LBB81:
 198              		.loc 2 546 0
 199 0002 2023     		movs	r3, #32
 200              	@ 546 "../../../os/ext/CMSIS/include/core_cmFunc.h" 1
 201 0004 83F31188 		MSR basepri, r3
 202              	@ 0 "" 2
 203              		.thumb
 204              	.LBE81:
 205              	.LBE80:
 206              	.LBE79:
 207              	.LBE78:
 208              	.LBE77:
 209              		.loc 1 124 0
 210 0008 144C     		ldr	r4, .L16
 211              	.LBB83:
 212              	.LBB82:
 213              		.loc 3 350 0
 214 000a FFF7FEFF 		bl	_dbg_check_lock
 215              	.LVL16:
 216              	.LBE82:
 217              	.LBE83:
 218              		.loc 1 124 0
 219 000e A569     		ldr	r5, [r4, #24]
 220              	.LVL17:
 221              	.LBB84:
 222              	.LBB85:
 223              		.file 5 "../../../os/rt/include/chmsg.h"
 224              		.loc 5 81 0
 225 0010 FFF7FEFF 		bl	chDbgCheckClassI
 226              	.LVL18:
 227              	.LBE85:
 228              	.LBE84:
ARM GAS  C:\Users\jo\AppData\Local\Temp\ccyZVHuW.s 			page 5


 229              		.loc 1 124 0
 230 0014 EB6A     		ldr	r3, [r5, #44]
 231              	.LBB87:
 232              	.LBB86:
 233              		.loc 5 83 0
 234 0016 2C35     		adds	r5, r5, #44
 235              	.LVL19:
 236              	.LBE86:
 237              	.LBE87:
 238              		.loc 1 124 0
 239 0018 AB42     		cmp	r3, r5
 240 001a 1BD0     		beq	.L15
 241              	.L12:
 242              		.loc 1 127 0
 243 001c A369     		ldr	r3, [r4, #24]
 244              	.LVL20:
 245 001e 0F4E     		ldr	r6, .L16
 246              	.LBB88:
 247              	.LBB89:
 248              		.loc 4 672 0
 249 0020 DD6A     		ldr	r5, [r3, #44]
 250              	.LVL21:
 251              		.loc 4 674 0
 252 0022 2A68     		ldr	r2, [r5]
 253 0024 43F82C2F 		str	r2, [r3, #44]!
 254              	.LVL22:
 255              	.LBE89:
 256              	.LBE88:
 257              		.loc 1 128 0
 258 0028 0D21     		movs	r1, #13
 259              	.LBB91:
 260              	.LBB90:
 261              		.loc 4 675 0
 262 002a 5360     		str	r3, [r2, #4]
 263              	.LBE90:
 264              	.LBE91:
 265              		.loc 1 128 0
 266 002c 85F82010 		strb	r1, [r5, #32]
 267              	.LBB92:
 268              	.LBB93:
 269              		.loc 3 360 0
 270 0030 FFF7FEFF 		bl	_dbg_check_unlock
 271              	.LVL23:
 272              		.loc 3 367 0
 273 0034 2368     		ldr	r3, [r4]
 274 0036 A342     		cmp	r3, r4
 275 0038 07D0     		beq	.L13
 276 003a B269     		ldr	r2, [r6, #24]
 277 003c 9B68     		ldr	r3, [r3, #8]
 278 003e 9268     		ldr	r2, [r2, #8]
 279 0040 9A42     		cmp	r2, r3
 280 0042 02D2     		bcs	.L13
 281 0044 0648     		ldr	r0, .L16+4
 282 0046 FFF7FEFF 		bl	chSysHalt
 283              	.LVL24:
 284              	.L13:
 285              	.LBB94:
ARM GAS  C:\Users\jo\AppData\Local\Temp\ccyZVHuW.s 			page 6


 286              	.LBB95:
 287              	.LBB96:
 288              		.loc 2 546 0
 289 004a 0023     		movs	r3, #0
 290              	@ 546 "../../../os/ext/CMSIS/include/core_cmFunc.h" 1
 291 004c 83F31188 		MSR basepri, r3
 292              	@ 0 "" 2
 293              		.thumb
 294              	.LBE96:
 295              	.LBE95:
 296              	.LBE94:
 297              	.LBE93:
 298              	.LBE92:
 299              		.loc 1 132 0
 300 0050 2846     		mov	r0, r5
 301 0052 70BD     		pop	{r4, r5, r6, pc}
 302              	.LVL25:
 303              	.L15:
 304              		.loc 1 125 0
 305 0054 0E20     		movs	r0, #14
 306 0056 FFF7FEFF 		bl	chSchGoSleepS
 307              	.LVL26:
 308 005a DFE7     		b	.L12
 309              	.L17:
 310              		.align	2
 311              	.L16:
 312 005c 00000000 		.word	ch
 313 0060 00000000 		.word	.LANCHOR1
 314              		.cfi_endproc
 315              	.LFE229:
 316              		.size	chMsgWait, .-chMsgWait
 317 0064 AFF30080 		.section	.text.chMsgRelease,"ax",%progbits
 317      AFF30080 
 317      AFF30080 
 318              		.align	2
 319              		.p2align 4,,15
 320              		.global	chMsgRelease
 321              		.thumb
 322              		.thumb_func
 323              		.type	chMsgRelease, %function
 324              	chMsgRelease:
 325              	.LFB230:
 326              		.loc 1 144 0
 327              		.cfi_startproc
 328              		@ args = 0, pretend = 0, frame = 0
 329              		@ frame_needed = 0, uses_anonymous_args = 0
 330              	.LVL27:
 331 0000 38B5     		push	{r3, r4, r5, lr}
 332              		.cfi_def_cfa_offset 16
 333              		.cfi_offset 3, -16
 334              		.cfi_offset 4, -12
 335              		.cfi_offset 5, -8
 336              		.cfi_offset 14, -4
 337              		.loc 1 144 0
 338 0002 0446     		mov	r4, r0
 339 0004 0D46     		mov	r5, r1
 340              	.LBB109:
ARM GAS  C:\Users\jo\AppData\Local\Temp\ccyZVHuW.s 			page 7


 341              	.LBB110:
 342              	.LBB111:
 343              	.LBB112:
 344              	.LBB113:
 345              		.loc 2 546 0
 346 0006 2023     		movs	r3, #32
 347              	@ 546 "../../../os/ext/CMSIS/include/core_cmFunc.h" 1
 348 0008 83F31188 		MSR basepri, r3
 349              	@ 0 "" 2
 350              		.thumb
 351              	.LBE113:
 352              	.LBE112:
 353              	.LBE111:
 354              		.loc 3 350 0
 355 000c FFF7FEFF 		bl	_dbg_check_lock
 356              	.LVL28:
 357              	.LBE110:
 358              	.LBE109:
 359              		.loc 1 147 0
 360 0010 94F82030 		ldrb	r3, [r4, #32]	@ zero_extendqisi2
 361 0014 0D2B     		cmp	r3, #13
 362 0016 02D0     		beq	.L19
 363              		.loc 1 147 0 is_stmt 0 discriminator 2
 364 0018 0D48     		ldr	r0, .L25
 365 001a FFF7FEFF 		bl	chSysHalt
 366              	.LVL29:
 367              	.L19:
 368              	.LBB114:
 369              	.LBB115:
 370              		.loc 5 113 0 is_stmt 1
 371 001e FFF7FEFF 		bl	chDbgCheckClassS
 372              	.LVL30:
 373              		.loc 5 115 0
 374 0022 2046     		mov	r0, r4
 375 0024 2946     		mov	r1, r5
 376 0026 FFF7FEFF 		bl	chSchWakeupS
 377              	.LVL31:
 378              	.LBE115:
 379              	.LBE114:
 380              	.LBB116:
 381              	.LBB117:
 382              		.loc 3 360 0
 383 002a FFF7FEFF 		bl	_dbg_check_unlock
 384              	.LVL32:
 385              		.loc 3 367 0
 386 002e 094B     		ldr	r3, .L25+4
 387 0030 1A68     		ldr	r2, [r3]
 388 0032 9A42     		cmp	r2, r3
 389 0034 07D0     		beq	.L20
 390 0036 9969     		ldr	r1, [r3, #24]
 391 0038 9368     		ldr	r3, [r2, #8]
 392 003a 8A68     		ldr	r2, [r1, #8]
 393 003c 9A42     		cmp	r2, r3
 394 003e 02D2     		bcs	.L20
 395 0040 0548     		ldr	r0, .L25+8
 396 0042 FFF7FEFF 		bl	chSysHalt
 397              	.LVL33:
ARM GAS  C:\Users\jo\AppData\Local\Temp\ccyZVHuW.s 			page 8


 398              	.L20:
 399              	.LBB118:
 400              	.LBB119:
 401              	.LBB120:
 402              		.loc 2 546 0
 403 0046 0023     		movs	r3, #0
 404              	@ 546 "../../../os/ext/CMSIS/include/core_cmFunc.h" 1
 405 0048 83F31188 		MSR basepri, r3
 406              	@ 0 "" 2
 407              		.thumb
 408 004c 38BD     		pop	{r3, r4, r5, pc}
 409              	.LVL34:
 410              	.L26:
 411 004e 00BF     		.align	2
 412              	.L25:
 413 0050 00000000 		.word	.LANCHOR2
 414 0054 00000000 		.word	ch
 415 0058 00000000 		.word	.LANCHOR1
 416              	.LBE120:
 417              	.LBE119:
 418              	.LBE118:
 419              	.LBE117:
 420              	.LBE116:
 421              		.cfi_endproc
 422              	.LFE230:
 423              		.size	chMsgRelease, .-chMsgRelease
 424 005c AFF30080 		.section	.rodata.__func__.6548,"a",%progbits
 425              		.align	2
 426              		.set	.LANCHOR0,. + 0
 427              		.type	__func__.6548, %object
 428              		.size	__func__.6548, 10
 429              	__func__.6548:
 430 0000 63684D73 		.ascii	"chMsgSend\000"
 430      6753656E 
 430      6400
 431 000a 0000     		.section	.rodata.__func__.6557,"a",%progbits
 432              		.align	2
 433              		.set	.LANCHOR2,. + 0
 434              		.type	__func__.6557, %object
 435              		.size	__func__.6557, 13
 436              	__func__.6557:
 437 0000 63684D73 		.ascii	"chMsgRelease\000"
 437      6752656C 
 437      65617365 
 437      00
 438 000d 000000   		.section	.rodata.__func__.5854,"a",%progbits
 439              		.align	2
 440              		.set	.LANCHOR1,. + 0
 441              		.type	__func__.5854, %object
 442              		.size	__func__.5854, 12
 443              	__func__.5854:
 444 0000 63685379 		.ascii	"chSysUnlock\000"
 444      73556E6C 
 444      6F636B00 
 445              		.text
 446              	.Letext0:
 447              		.file 6 "c:\\program files\\gnu tools arm embedded\\4.9 2014q4\\arm-none-eabi\\include\\machine\\_
ARM GAS  C:\Users\jo\AppData\Local\Temp\ccyZVHuW.s 			page 9


 448              		.file 7 "c:\\program files\\gnu tools arm embedded\\4.9 2014q4\\arm-none-eabi\\include\\stdint.h"
 449              		.file 8 "../../../os/rt/ports/ARMCMx/compilers/GCC/chtypes.h"
 450              		.file 9 "../../../os/rt/include/chsystypes.h"
 451              		.file 10 "../../../os/rt/ports/ARMCMx/chcore.h"
 452              		.file 11 "../../../os/rt/ports/ARMCMx/chcore_v7m.h"
 453              		.file 12 "../../../os/rt/include/chdebug.h"
 454              		.file 13 "../../../os/rt/include/chtm.h"
 455              		.file 14 "../../../os/rt/include/chsem.h"
 456              		.file 15 "../../../os/rt/include/chmtx.h"
 457              		.file 16 "../../../os/ext/CMSIS/include/core_cm4.h"
 458              		.section	.debug_info,"",%progbits
 459              	.Ldebug_info0:
 460 0000 9C0C0000 		.4byte	0xc9c
 461 0004 0400     		.2byte	0x4
 462 0006 00000000 		.4byte	.Ldebug_abbrev0
 463 000a 04       		.byte	0x4
 464 000b 01       		.uleb128 0x1
 465 000c E8020000 		.4byte	.LASF135
 466 0010 01       		.byte	0x1
 467 0011 B8060000 		.4byte	.LASF136
 468 0015 F1000000 		.4byte	.LASF137
 469 0019 60000000 		.4byte	.Ldebug_ranges0+0x60
 470 001d 00000000 		.4byte	0
 471 0021 00000000 		.4byte	.Ldebug_line0
 472 0025 02       		.uleb128 0x2
 473 0026 04       		.byte	0x4
 474 0027 05       		.byte	0x5
 475 0028 696E7400 		.ascii	"int\000"
 476 002c 03       		.uleb128 0x3
 477 002d 04       		.byte	0x4
 478 002e 07       		.byte	0x7
 479 002f 28020000 		.4byte	.LASF0
 480 0033 03       		.uleb128 0x3
 481 0034 01       		.byte	0x1
 482 0035 06       		.byte	0x6
 483 0036 4D010000 		.4byte	.LASF1
 484 003a 04       		.uleb128 0x4
 485 003b 37000000 		.4byte	.LASF5
 486 003f 06       		.byte	0x6
 487 0040 1D       		.byte	0x1d
 488 0041 45000000 		.4byte	0x45
 489 0045 03       		.uleb128 0x3
 490 0046 01       		.byte	0x1
 491 0047 08       		.byte	0x8
 492 0048 C7040000 		.4byte	.LASF2
 493 004c 03       		.uleb128 0x3
 494 004d 02       		.byte	0x2
 495 004e 05       		.byte	0x5
 496 004f DF040000 		.4byte	.LASF3
 497 0053 03       		.uleb128 0x3
 498 0054 02       		.byte	0x2
 499 0055 07       		.byte	0x7
 500 0056 5E020000 		.4byte	.LASF4
 501 005a 04       		.uleb128 0x4
 502 005b DE020000 		.4byte	.LASF6
 503 005f 06       		.byte	0x6
 504 0060 3F       		.byte	0x3f
ARM GAS  C:\Users\jo\AppData\Local\Temp\ccyZVHuW.s 			page 10


 505 0061 65000000 		.4byte	0x65
 506 0065 03       		.uleb128 0x3
 507 0066 04       		.byte	0x4
 508 0067 05       		.byte	0x5
 509 0068 8E010000 		.4byte	.LASF7
 510 006c 04       		.uleb128 0x4
 511 006d E9050000 		.4byte	.LASF8
 512 0071 06       		.byte	0x6
 513 0072 41       		.byte	0x41
 514 0073 77000000 		.4byte	0x77
 515 0077 03       		.uleb128 0x3
 516 0078 04       		.byte	0x4
 517 0079 07       		.byte	0x7
 518 007a 99050000 		.4byte	.LASF9
 519 007e 03       		.uleb128 0x3
 520 007f 08       		.byte	0x8
 521 0080 05       		.byte	0x5
 522 0081 3F010000 		.4byte	.LASF10
 523 0085 04       		.uleb128 0x4
 524 0086 6D040000 		.4byte	.LASF11
 525 008a 06       		.byte	0x6
 526 008b 5B       		.byte	0x5b
 527 008c 90000000 		.4byte	0x90
 528 0090 03       		.uleb128 0x3
 529 0091 08       		.byte	0x8
 530 0092 07       		.byte	0x7
 531 0093 70000000 		.4byte	.LASF12
 532 0097 04       		.uleb128 0x4
 533 0098 62060000 		.4byte	.LASF13
 534 009c 07       		.byte	0x7
 535 009d 15       		.byte	0x15
 536 009e 3A000000 		.4byte	0x3a
 537 00a2 04       		.uleb128 0x4
 538 00a3 BF040000 		.4byte	.LASF14
 539 00a7 07       		.byte	0x7
 540 00a8 2C       		.byte	0x2c
 541 00a9 5A000000 		.4byte	0x5a
 542 00ad 04       		.uleb128 0x4
 543 00ae 65050000 		.4byte	.LASF15
 544 00b2 07       		.byte	0x7
 545 00b3 2D       		.byte	0x2d
 546 00b4 6C000000 		.4byte	0x6c
 547 00b8 04       		.uleb128 0x4
 548 00b9 2E000000 		.4byte	.LASF16
 549 00bd 07       		.byte	0x7
 550 00be 39       		.byte	0x39
 551 00bf 85000000 		.4byte	0x85
 552 00c3 05       		.uleb128 0x5
 553 00c4 A2000000 		.4byte	0xa2
 554 00c8 04       		.uleb128 0x4
 555 00c9 1B060000 		.4byte	.LASF17
 556 00cd 08       		.byte	0x8
 557 00ce 45       		.byte	0x45
 558 00cf AD000000 		.4byte	0xad
 559 00d3 04       		.uleb128 0x4
 560 00d4 AB020000 		.4byte	.LASF18
 561 00d8 08       		.byte	0x8
ARM GAS  C:\Users\jo\AppData\Local\Temp\ccyZVHuW.s 			page 11


 562 00d9 48       		.byte	0x48
 563 00da 97000000 		.4byte	0x97
 564 00de 04       		.uleb128 0x4
 565 00df A1010000 		.4byte	.LASF19
 566 00e3 08       		.byte	0x8
 567 00e4 49       		.byte	0x49
 568 00e5 97000000 		.4byte	0x97
 569 00e9 04       		.uleb128 0x4
 570 00ea 78040000 		.4byte	.LASF20
 571 00ee 08       		.byte	0x8
 572 00ef 4A       		.byte	0x4a
 573 00f0 97000000 		.4byte	0x97
 574 00f4 04       		.uleb128 0x4
 575 00f5 A1040000 		.4byte	.LASF21
 576 00f9 08       		.byte	0x8
 577 00fa 4C       		.byte	0x4c
 578 00fb AD000000 		.4byte	0xad
 579 00ff 04       		.uleb128 0x4
 580 0100 88020000 		.4byte	.LASF22
 581 0104 08       		.byte	0x8
 582 0105 4D       		.byte	0x4d
 583 0106 A2000000 		.4byte	0xa2
 584 010a 04       		.uleb128 0x4
 585 010b D2020000 		.4byte	.LASF23
 586 010f 08       		.byte	0x8
 587 0110 4F       		.byte	0x4f
 588 0111 AD000000 		.4byte	0xad
 589 0115 04       		.uleb128 0x4
 590 0116 17020000 		.4byte	.LASF24
 591 011a 08       		.byte	0x8
 592 011b 51       		.byte	0x51
 593 011c A2000000 		.4byte	0xa2
 594 0120 04       		.uleb128 0x4
 595 0121 CB050000 		.4byte	.LASF25
 596 0125 09       		.byte	0x9
 597 0126 33       		.byte	0x33
 598 0127 AD000000 		.4byte	0xad
 599 012b 04       		.uleb128 0x4
 600 012c B0050000 		.4byte	.LASF26
 601 0130 09       		.byte	0x9
 602 0131 3F       		.byte	0x3f
 603 0132 36010000 		.4byte	0x136
 604 0136 06       		.uleb128 0x6
 605 0137 71020000 		.4byte	.LASF47
 606 013b 48       		.byte	0x48
 607 013c 04       		.byte	0x4
 608 013d C2       		.byte	0xc2
 609 013e 2F020000 		.4byte	0x22f
 610 0142 07       		.uleb128 0x7
 611 0143 FF040000 		.4byte	.LASF27
 612 0147 04       		.byte	0x4
 613 0148 C3       		.byte	0xc3
 614 0149 3A020000 		.4byte	0x23a
 615 014d 00       		.byte	0
 616 014e 07       		.uleb128 0x7
 617 014f 9A040000 		.4byte	.LASF28
 618 0153 04       		.byte	0x4
ARM GAS  C:\Users\jo\AppData\Local\Temp\ccyZVHuW.s 			page 12


 619 0154 C5       		.byte	0xc5
 620 0155 3A020000 		.4byte	0x23a
 621 0159 04       		.byte	0x4
 622 015a 07       		.uleb128 0x7
 623 015b EA000000 		.4byte	.LASF29
 624 015f 04       		.byte	0x4
 625 0160 C7       		.byte	0xc7
 626 0161 F4000000 		.4byte	0xf4
 627 0165 08       		.byte	0x8
 628 0166 07       		.uleb128 0x7
 629 0167 F3060000 		.4byte	.LASF30
 630 016b 04       		.byte	0x4
 631 016c C8       		.byte	0xc8
 632 016d 95040000 		.4byte	0x495
 633 0171 0C       		.byte	0xc
 634 0172 07       		.uleb128 0x7
 635 0173 C0010000 		.4byte	.LASF31
 636 0177 04       		.byte	0x4
 637 0178 CA       		.byte	0xca
 638 0179 3A020000 		.4byte	0x23a
 639 017d 10       		.byte	0x10
 640 017e 07       		.uleb128 0x7
 641 017f 35040000 		.4byte	.LASF32
 642 0183 04       		.byte	0x4
 643 0184 CB       		.byte	0xcb
 644 0185 3A020000 		.4byte	0x23a
 645 0189 14       		.byte	0x14
 646 018a 07       		.uleb128 0x7
 647 018b 83060000 		.4byte	.LASF33
 648 018f 04       		.byte	0x4
 649 0190 D2       		.byte	0xd2
 650 0191 A7060000 		.4byte	0x6a7
 651 0195 18       		.byte	0x18
 652 0196 07       		.uleb128 0x7
 653 0197 1D020000 		.4byte	.LASF34
 654 019b 04       		.byte	0x4
 655 019c D8       		.byte	0xd8
 656 019d B9060000 		.4byte	0x6b9
 657 01a1 1C       		.byte	0x1c
 658 01a2 07       		.uleb128 0x7
 659 01a3 E9040000 		.4byte	.LASF35
 660 01a7 04       		.byte	0x4
 661 01a8 DD       		.byte	0xdd
 662 01a9 DE000000 		.4byte	0xde
 663 01ad 20       		.byte	0x20
 664 01ae 07       		.uleb128 0x7
 665 01af 06050000 		.4byte	.LASF36
 666 01b3 04       		.byte	0x4
 667 01b4 E1       		.byte	0xe1
 668 01b5 D3000000 		.4byte	0xd3
 669 01b9 21       		.byte	0x21
 670 01ba 07       		.uleb128 0x7
 671 01bb 4D060000 		.4byte	.LASF37
 672 01bf 04       		.byte	0x4
 673 01c0 E6       		.byte	0xe6
 674 01c1 E9000000 		.4byte	0xe9
 675 01c5 22       		.byte	0x22
ARM GAS  C:\Users\jo\AppData\Local\Temp\ccyZVHuW.s 			page 13


 676 01c6 08       		.uleb128 0x8
 677 01c7 705F7500 		.ascii	"p_u\000"
 678 01cb 04       		.byte	0x4
 679 01cc 3101     		.2byte	0x131
 680 01ce E2050000 		.4byte	0x5e2
 681 01d2 24       		.byte	0x24
 682 01d3 09       		.uleb128 0x9
 683 01d4 CD030000 		.4byte	.LASF38
 684 01d8 04       		.byte	0x4
 685 01d9 3601     		.2byte	0x136
 686 01db 40020000 		.4byte	0x240
 687 01df 28       		.byte	0x28
 688 01e0 09       		.uleb128 0x9
 689 01e1 4D020000 		.4byte	.LASF39
 690 01e5 04       		.byte	0x4
 691 01e6 3C01     		.2byte	0x13c
 692 01e8 64020000 		.4byte	0x264
 693 01ec 2C       		.byte	0x2c
 694 01ed 09       		.uleb128 0x9
 695 01ee B2060000 		.4byte	.LASF40
 696 01f2 04       		.byte	0x4
 697 01f3 4001     		.2byte	0x140
 698 01f5 FF000000 		.4byte	0xff
 699 01f9 34       		.byte	0x34
 700 01fa 09       		.uleb128 0x9
 701 01fb 5A050000 		.4byte	.LASF41
 702 01ff 04       		.byte	0x4
 703 0200 4601     		.2byte	0x146
 704 0202 0A010000 		.4byte	0x10a
 705 0206 38       		.byte	0x38
 706 0207 09       		.uleb128 0x9
 707 0208 D5040000 		.4byte	.LASF42
 708 020c 04       		.byte	0x4
 709 020d 4D01     		.2byte	0x14d
 710 020f A1060000 		.4byte	0x6a1
 711 0213 3C       		.byte	0x3c
 712 0214 09       		.uleb128 0x9
 713 0215 D5050000 		.4byte	.LASF43
 714 0219 04       		.byte	0x4
 715 021a 5101     		.2byte	0x151
 716 021c F4000000 		.4byte	0xf4
 717 0220 40       		.byte	0x40
 718 0221 09       		.uleb128 0x9
 719 0222 61010000 		.4byte	.LASF44
 720 0226 04       		.byte	0x4
 721 0227 5801     		.2byte	0x158
 722 0229 17030000 		.4byte	0x317
 723 022d 44       		.byte	0x44
 724 022e 00       		.byte	0
 725 022f 04       		.uleb128 0x4
 726 0230 E0030000 		.4byte	.LASF45
 727 0234 09       		.byte	0x9
 728 0235 44       		.byte	0x44
 729 0236 3A020000 		.4byte	0x23a
 730 023a 0A       		.uleb128 0xa
 731 023b 04       		.byte	0x4
 732 023c 2B010000 		.4byte	0x12b
ARM GAS  C:\Users\jo\AppData\Local\Temp\ccyZVHuW.s 			page 14


 733 0240 04       		.uleb128 0x4
 734 0241 8A060000 		.4byte	.LASF46
 735 0245 09       		.byte	0x9
 736 0246 49       		.byte	0x49
 737 0247 4B020000 		.4byte	0x24b
 738 024b 06       		.uleb128 0x6
 739 024c 89050000 		.4byte	.LASF48
 740 0250 04       		.byte	0x4
 741 0251 04       		.byte	0x4
 742 0252 B0       		.byte	0xb0
 743 0253 64020000 		.4byte	0x264
 744 0257 07       		.uleb128 0x7
 745 0258 FF040000 		.4byte	.LASF27
 746 025c 04       		.byte	0x4
 747 025d B1       		.byte	0xb1
 748 025e 3A020000 		.4byte	0x23a
 749 0262 00       		.byte	0
 750 0263 00       		.byte	0
 751 0264 04       		.uleb128 0x4
 752 0265 34060000 		.4byte	.LASF49
 753 0269 09       		.byte	0x9
 754 026a 50       		.byte	0x50
 755 026b 6F020000 		.4byte	0x26f
 756 026f 06       		.uleb128 0x6
 757 0270 D9000000 		.4byte	.LASF50
 758 0274 08       		.byte	0x8
 759 0275 04       		.byte	0x4
 760 0276 B7       		.byte	0xb7
 761 0277 94020000 		.4byte	0x294
 762 027b 07       		.uleb128 0x7
 763 027c FF040000 		.4byte	.LASF27
 764 0280 04       		.byte	0x4
 765 0281 B8       		.byte	0xb8
 766 0282 3A020000 		.4byte	0x23a
 767 0286 00       		.byte	0
 768 0287 07       		.uleb128 0x7
 769 0288 9A040000 		.4byte	.LASF28
 770 028c 04       		.byte	0x4
 771 028d B9       		.byte	0xb9
 772 028e 3A020000 		.4byte	0x23a
 773 0292 04       		.byte	0x4
 774 0293 00       		.byte	0
 775 0294 04       		.uleb128 0x4
 776 0295 07000000 		.4byte	.LASF51
 777 0299 09       		.byte	0x9
 778 029a 57       		.byte	0x57
 779 029b 9F020000 		.4byte	0x29f
 780 029f 0B       		.uleb128 0xb
 781 02a0 C4020000 		.4byte	.LASF52
 782 02a4 1C       		.byte	0x1c
 783 02a5 04       		.byte	0x4
 784 02a6 9001     		.2byte	0x190
 785 02a8 FB020000 		.4byte	0x2fb
 786 02ac 09       		.uleb128 0x9
 787 02ad 75050000 		.4byte	.LASF53
 788 02b1 04       		.byte	0x4
 789 02b2 9101     		.2byte	0x191
ARM GAS  C:\Users\jo\AppData\Local\Temp\ccyZVHuW.s 			page 15


 790 02b4 64020000 		.4byte	0x264
 791 02b8 00       		.byte	0
 792 02b9 09       		.uleb128 0x9
 793 02ba F1040000 		.4byte	.LASF54
 794 02be 04       		.byte	0x4
 795 02bf 9201     		.2byte	0x192
 796 02c1 F4000000 		.4byte	0xf4
 797 02c5 08       		.byte	0x8
 798 02c6 09       		.uleb128 0x9
 799 02c7 3D040000 		.4byte	.LASF55
 800 02cb 04       		.byte	0x4
 801 02cc 9401     		.2byte	0x194
 802 02ce 95040000 		.4byte	0x495
 803 02d2 0C       		.byte	0xc
 804 02d3 09       		.uleb128 0x9
 805 02d4 D8010000 		.4byte	.LASF56
 806 02d8 04       		.byte	0x4
 807 02d9 9701     		.2byte	0x197
 808 02db 3A020000 		.4byte	0x23a
 809 02df 10       		.byte	0x10
 810 02e0 09       		.uleb128 0x9
 811 02e1 65040000 		.4byte	.LASF57
 812 02e5 04       		.byte	0x4
 813 02e6 9801     		.2byte	0x198
 814 02e8 3A020000 		.4byte	0x23a
 815 02ec 14       		.byte	0x14
 816 02ed 09       		.uleb128 0x9
 817 02ee 5B040000 		.4byte	.LASF58
 818 02f2 04       		.byte	0x4
 819 02f3 9B01     		.2byte	0x19b
 820 02f5 3A020000 		.4byte	0x23a
 821 02f9 18       		.byte	0x18
 822 02fa 00       		.byte	0
 823 02fb 04       		.uleb128 0x4
 824 02fc E0050000 		.4byte	.LASF59
 825 0300 09       		.byte	0x9
 826 0301 5C       		.byte	0x5c
 827 0302 06030000 		.4byte	0x306
 828 0306 0A       		.uleb128 0xa
 829 0307 04       		.byte	0x4
 830 0308 0C030000 		.4byte	0x30c
 831 030c 0C       		.uleb128 0xc
 832 030d 17030000 		.4byte	0x317
 833 0311 0D       		.uleb128 0xd
 834 0312 17030000 		.4byte	0x317
 835 0316 00       		.byte	0
 836 0317 0E       		.uleb128 0xe
 837 0318 04       		.byte	0x4
 838 0319 04       		.uleb128 0x4
 839 031a 8A040000 		.4byte	.LASF60
 840 031e 09       		.byte	0x9
 841 031f 61       		.byte	0x61
 842 0320 24030000 		.4byte	0x324
 843 0324 0B       		.uleb128 0xb
 844 0325 21050000 		.4byte	.LASF61
 845 0329 14       		.byte	0x14
 846 032a 04       		.byte	0x4
ARM GAS  C:\Users\jo\AppData\Local\Temp\ccyZVHuW.s 			page 16


 847 032b 6B01     		.2byte	0x16b
 848 032d 73030000 		.4byte	0x373
 849 0331 09       		.uleb128 0x9
 850 0332 35020000 		.4byte	.LASF62
 851 0336 04       		.byte	0x4
 852 0337 6C01     		.2byte	0x16c
 853 0339 BF060000 		.4byte	0x6bf
 854 033d 00       		.byte	0
 855 033e 09       		.uleb128 0x9
 856 033f E9010000 		.4byte	.LASF63
 857 0343 04       		.byte	0x4
 858 0344 6D01     		.2byte	0x16d
 859 0346 BF060000 		.4byte	0x6bf
 860 034a 04       		.byte	0x4
 861 034b 09       		.uleb128 0x9
 862 034c 44020000 		.4byte	.LASF64
 863 0350 04       		.byte	0x4
 864 0351 6E01     		.2byte	0x16e
 865 0353 20010000 		.4byte	0x120
 866 0357 08       		.byte	0x8
 867 0358 09       		.uleb128 0x9
 868 0359 F9060000 		.4byte	.LASF65
 869 035d 04       		.byte	0x4
 870 035e 6F01     		.2byte	0x16f
 871 0360 FB020000 		.4byte	0x2fb
 872 0364 0C       		.byte	0xc
 873 0365 09       		.uleb128 0x9
 874 0366 23060000 		.4byte	.LASF66
 875 036a 04       		.byte	0x4
 876 036b 7101     		.2byte	0x171
 877 036d 17030000 		.4byte	0x317
 878 0371 10       		.byte	0x10
 879 0372 00       		.byte	0
 880 0373 04       		.uleb128 0x4
 881 0374 B6000000 		.4byte	.LASF67
 882 0378 09       		.byte	0x9
 883 0379 66       		.byte	0x66
 884 037a 7E030000 		.4byte	0x37e
 885 037e 0B       		.uleb128 0xb
 886 037f 03040000 		.4byte	.LASF68
 887 0383 10       		.byte	0x10
 888 0384 04       		.byte	0x4
 889 0385 7B01     		.2byte	0x17b
 890 0387 C0030000 		.4byte	0x3c0
 891 038b 09       		.uleb128 0x9
 892 038c 35020000 		.4byte	.LASF62
 893 0390 04       		.byte	0x4
 894 0391 7C01     		.2byte	0x17c
 895 0393 BF060000 		.4byte	0x6bf
 896 0397 00       		.byte	0
 897 0398 09       		.uleb128 0x9
 898 0399 E9010000 		.4byte	.LASF63
 899 039d 04       		.byte	0x4
 900 039e 7E01     		.2byte	0x17e
 901 03a0 BF060000 		.4byte	0x6bf
 902 03a4 04       		.byte	0x4
 903 03a5 09       		.uleb128 0x9
ARM GAS  C:\Users\jo\AppData\Local\Temp\ccyZVHuW.s 			page 17


 904 03a6 44020000 		.4byte	.LASF64
 905 03aa 04       		.byte	0x4
 906 03ab 8001     		.2byte	0x180
 907 03ad 20010000 		.4byte	0x120
 908 03b1 08       		.byte	0x8
 909 03b2 09       		.uleb128 0x9
 910 03b3 29040000 		.4byte	.LASF69
 911 03b7 04       		.byte	0x4
 912 03b8 8801     		.2byte	0x188
 913 03ba 20010000 		.4byte	0x120
 914 03be 0C       		.byte	0xc
 915 03bf 00       		.byte	0
 916 03c0 04       		.uleb128 0x4
 917 03c1 4D000000 		.4byte	.LASF70
 918 03c5 09       		.byte	0x9
 919 03c6 6B       		.byte	0x6b
 920 03c7 CB030000 		.4byte	0x3cb
 921 03cb 0F       		.uleb128 0xf
 922 03cc A9040000 		.4byte	.LASF71
 923 03d0 1404     		.2byte	0x414
 924 03d2 04       		.byte	0x4
 925 03d3 A201     		.2byte	0x1a2
 926 03d5 0E040000 		.4byte	0x40e
 927 03d9 09       		.uleb128 0x9
 928 03da 02060000 		.4byte	.LASF72
 929 03de 04       		.byte	0x4
 930 03df AA01     		.2byte	0x1aa
 931 03e1 C5060000 		.4byte	0x6c5
 932 03e5 00       		.byte	0
 933 03e6 09       		.uleb128 0x9
 934 03e7 54060000 		.4byte	.LASF73
 935 03eb 04       		.byte	0x4
 936 03ec AF01     		.2byte	0x1af
 937 03ee 15010000 		.4byte	0x115
 938 03f2 04       		.byte	0x4
 939 03f3 09       		.uleb128 0x9
 940 03f4 FF010000 		.4byte	.LASF74
 941 03f8 04       		.byte	0x4
 942 03f9 B301     		.2byte	0x1b3
 943 03fb 15010000 		.4byte	0x115
 944 03ff 08       		.byte	0x8
 945 0400 09       		.uleb128 0x9
 946 0401 99060000 		.4byte	.LASF75
 947 0405 04       		.byte	0x4
 948 0406 B901     		.2byte	0x1b9
 949 0408 B7050000 		.4byte	0x5b7
 950 040c 0C       		.byte	0xc
 951 040d 00       		.byte	0
 952 040e 04       		.uleb128 0x4
 953 040f 9F020000 		.4byte	.LASF76
 954 0413 09       		.byte	0x9
 955 0414 70       		.byte	0x70
 956 0415 19040000 		.4byte	0x419
 957 0419 0F       		.uleb128 0xf
 958 041a 84010000 		.4byte	.LASF77
 959 041e 7005     		.2byte	0x570
 960 0420 04       		.byte	0x4
ARM GAS  C:\Users\jo\AppData\Local\Temp\ccyZVHuW.s 			page 18


 961 0421 C201     		.2byte	0x1c2
 962 0423 78040000 		.4byte	0x478
 963 0427 09       		.uleb128 0x9
 964 0428 5C060000 		.4byte	.LASF78
 965 042c 04       		.byte	0x4
 966 042d C601     		.2byte	0x1c6
 967 042f 94020000 		.4byte	0x294
 968 0433 00       		.byte	0
 969 0434 09       		.uleb128 0x9
 970 0435 71010000 		.4byte	.LASF79
 971 0439 04       		.byte	0x4
 972 043a CA01     		.2byte	0x1ca
 973 043c 73030000 		.4byte	0x373
 974 0440 1C       		.byte	0x1c
 975 0441 08       		.uleb128 0x8
 976 0442 64626700 		.ascii	"dbg\000"
 977 0446 04       		.byte	0x4
 978 0447 CE01     		.2byte	0x1ce
 979 0449 C0030000 		.4byte	0x3c0
 980 044d 2C       		.byte	0x2c
 981 044e 10       		.uleb128 0x10
 982 044f AB000000 		.4byte	.LASF80
 983 0453 04       		.byte	0x4
 984 0454 D201     		.2byte	0x1d2
 985 0456 2B010000 		.4byte	0x12b
 986 045a 4004     		.2byte	0x440
 987 045c 11       		.uleb128 0x11
 988 045d 746D00   		.ascii	"tm\000"
 989 0460 04       		.byte	0x4
 990 0461 D701     		.2byte	0x1d7
 991 0463 D7050000 		.4byte	0x5d7
 992 0467 8804     		.2byte	0x488
 993 0469 10       		.uleb128 0x10
 994 046a 08020000 		.4byte	.LASF81
 995 046e 04       		.byte	0x4
 996 046f E301     		.2byte	0x1e3
 997 0471 CA060000 		.4byte	0x6ca
 998 0475 9004     		.2byte	0x490
 999 0477 00       		.byte	0
 1000 0478 03       		.uleb128 0x3
 1001 0479 04       		.byte	0x4
 1002 047a 07       		.byte	0x7
 1003 047b D7030000 		.4byte	.LASF82
 1004 047f 04       		.uleb128 0x4
 1005 0480 E0010000 		.4byte	.LASF83
 1006 0484 0A       		.byte	0xa
 1007 0485 65       		.byte	0x65
 1008 0486 17030000 		.4byte	0x317
 1009 048a 04       		.uleb128 0x4
 1010 048b C2030000 		.4byte	.LASF84
 1011 048f 0A       		.byte	0xa
 1012 0490 6D       		.byte	0x6d
 1013 0491 B8000000 		.4byte	0xb8
 1014 0495 06       		.uleb128 0x6
 1015 0496 13060000 		.4byte	.LASF85
 1016 049a 04       		.byte	0x4
 1017 049b 0A       		.byte	0xa
ARM GAS  C:\Users\jo\AppData\Local\Temp\ccyZVHuW.s 			page 19


 1018 049c 89       		.byte	0x89
 1019 049d AE040000 		.4byte	0x4ae
 1020 04a1 12       		.uleb128 0x12
 1021 04a2 72313300 		.ascii	"r13\000"
 1022 04a6 0A       		.byte	0xa
 1023 04a7 8A       		.byte	0x8a
 1024 04a8 29050000 		.4byte	0x529
 1025 04ac 00       		.byte	0
 1026 04ad 00       		.byte	0
 1027 04ae 06       		.uleb128 0x6
 1028 04af 41000000 		.4byte	.LASF86
 1029 04b3 24       		.byte	0x24
 1030 04b4 0B       		.byte	0xb
 1031 04b5 F4       		.byte	0xf4
 1032 04b6 29050000 		.4byte	0x529
 1033 04ba 08       		.uleb128 0x8
 1034 04bb 723400   		.ascii	"r4\000"
 1035 04be 0B       		.byte	0xb
 1036 04bf 0701     		.2byte	0x107
 1037 04c1 7F040000 		.4byte	0x47f
 1038 04c5 00       		.byte	0
 1039 04c6 08       		.uleb128 0x8
 1040 04c7 723500   		.ascii	"r5\000"
 1041 04ca 0B       		.byte	0xb
 1042 04cb 0801     		.2byte	0x108
 1043 04cd 7F040000 		.4byte	0x47f
 1044 04d1 04       		.byte	0x4
 1045 04d2 08       		.uleb128 0x8
 1046 04d3 723600   		.ascii	"r6\000"
 1047 04d6 0B       		.byte	0xb
 1048 04d7 0901     		.2byte	0x109
 1049 04d9 7F040000 		.4byte	0x47f
 1050 04dd 08       		.byte	0x8
 1051 04de 08       		.uleb128 0x8
 1052 04df 723700   		.ascii	"r7\000"
 1053 04e2 0B       		.byte	0xb
 1054 04e3 0A01     		.2byte	0x10a
 1055 04e5 7F040000 		.4byte	0x47f
 1056 04e9 0C       		.byte	0xc
 1057 04ea 08       		.uleb128 0x8
 1058 04eb 723800   		.ascii	"r8\000"
 1059 04ee 0B       		.byte	0xb
 1060 04ef 0B01     		.2byte	0x10b
 1061 04f1 7F040000 		.4byte	0x47f
 1062 04f5 10       		.byte	0x10
 1063 04f6 08       		.uleb128 0x8
 1064 04f7 723900   		.ascii	"r9\000"
 1065 04fa 0B       		.byte	0xb
 1066 04fb 0C01     		.2byte	0x10c
 1067 04fd 7F040000 		.4byte	0x47f
 1068 0501 14       		.byte	0x14
 1069 0502 08       		.uleb128 0x8
 1070 0503 72313000 		.ascii	"r10\000"
 1071 0507 0B       		.byte	0xb
 1072 0508 0D01     		.2byte	0x10d
 1073 050a 7F040000 		.4byte	0x47f
 1074 050e 18       		.byte	0x18
ARM GAS  C:\Users\jo\AppData\Local\Temp\ccyZVHuW.s 			page 20


 1075 050f 08       		.uleb128 0x8
 1076 0510 72313100 		.ascii	"r11\000"
 1077 0514 0B       		.byte	0xb
 1078 0515 0E01     		.2byte	0x10e
 1079 0517 7F040000 		.4byte	0x47f
 1080 051b 1C       		.byte	0x1c
 1081 051c 08       		.uleb128 0x8
 1082 051d 6C7200   		.ascii	"lr\000"
 1083 0520 0B       		.byte	0xb
 1084 0521 0F01     		.2byte	0x10f
 1085 0523 7F040000 		.4byte	0x47f
 1086 0527 20       		.byte	0x20
 1087 0528 00       		.byte	0
 1088 0529 0A       		.uleb128 0xa
 1089 052a 04       		.byte	0x4
 1090 052b AE040000 		.4byte	0x4ae
 1091 052f 13       		.uleb128 0x13
 1092 0530 10       		.byte	0x10
 1093 0531 0C       		.byte	0xc
 1094 0532 51       		.byte	0x51
 1095 0533 68050000 		.4byte	0x568
 1096 0537 07       		.uleb128 0x7
 1097 0538 59010000 		.4byte	.LASF87
 1098 053c 0C       		.byte	0xc
 1099 053d 55       		.byte	0x55
 1100 053e 20010000 		.4byte	0x120
 1101 0542 00       		.byte	0
 1102 0543 07       		.uleb128 0x7
 1103 0544 AA010000 		.4byte	.LASF88
 1104 0548 0C       		.byte	0xc
 1105 0549 59       		.byte	0x59
 1106 054a 3A020000 		.4byte	0x23a
 1107 054e 04       		.byte	0x4
 1108 054f 07       		.uleb128 0x7
 1109 0550 E9060000 		.4byte	.LASF89
 1110 0554 0C       		.byte	0xc
 1111 0555 5D       		.byte	0x5d
 1112 0556 17030000 		.4byte	0x317
 1113 055a 08       		.byte	0x8
 1114 055b 07       		.uleb128 0x7
 1115 055c 99000000 		.4byte	.LASF90
 1116 0560 0C       		.byte	0xc
 1117 0561 61       		.byte	0x61
 1118 0562 97000000 		.4byte	0x97
 1119 0566 0C       		.byte	0xc
 1120 0567 00       		.byte	0
 1121 0568 04       		.uleb128 0x4
 1122 0569 1A040000 		.4byte	.LASF91
 1123 056d 0C       		.byte	0xc
 1124 056e 62       		.byte	0x62
 1125 056f 2F050000 		.4byte	0x52f
 1126 0573 14       		.uleb128 0x14
 1127 0574 0804     		.2byte	0x408
 1128 0576 0C       		.byte	0xc
 1129 0577 67       		.byte	0x67
 1130 0578 A1050000 		.4byte	0x5a1
 1131 057c 07       		.uleb128 0x7
ARM GAS  C:\Users\jo\AppData\Local\Temp\ccyZVHuW.s 			page 21


 1132 057d D0010000 		.4byte	.LASF92
 1133 0581 0C       		.byte	0xc
 1134 0582 6B       		.byte	0x6b
 1135 0583 2C000000 		.4byte	0x2c
 1136 0587 00       		.byte	0
 1137 0588 07       		.uleb128 0x7
 1138 0589 00000000 		.4byte	.LASF93
 1139 058d 0C       		.byte	0xc
 1140 058e 6F       		.byte	0x6f
 1141 058f A1050000 		.4byte	0x5a1
 1142 0593 04       		.byte	0x4
 1143 0594 07       		.uleb128 0x7
 1144 0595 80040000 		.4byte	.LASF94
 1145 0599 0C       		.byte	0xc
 1146 059a 73       		.byte	0x73
 1147 059b A7050000 		.4byte	0x5a7
 1148 059f 08       		.byte	0x8
 1149 05a0 00       		.byte	0
 1150 05a1 0A       		.uleb128 0xa
 1151 05a2 04       		.byte	0x4
 1152 05a3 68050000 		.4byte	0x568
 1153 05a7 15       		.uleb128 0x15
 1154 05a8 68050000 		.4byte	0x568
 1155 05ac B7050000 		.4byte	0x5b7
 1156 05b0 16       		.uleb128 0x16
 1157 05b1 78040000 		.4byte	0x478
 1158 05b5 3F       		.byte	0x3f
 1159 05b6 00       		.byte	0
 1160 05b7 04       		.uleb128 0x4
 1161 05b8 87000000 		.4byte	.LASF95
 1162 05bc 0C       		.byte	0xc
 1163 05bd 74       		.byte	0x74
 1164 05be 73050000 		.4byte	0x573
 1165 05c2 13       		.uleb128 0x13
 1166 05c3 04       		.byte	0x4
 1167 05c4 0D       		.byte	0xd
 1168 05c5 38       		.byte	0x38
 1169 05c6 D7050000 		.4byte	0x5d7
 1170 05ca 07       		.uleb128 0x7
 1171 05cb 0C060000 		.4byte	.LASF96
 1172 05cf 0D       		.byte	0xd
 1173 05d0 3C       		.byte	0x3c
 1174 05d1 C8000000 		.4byte	0xc8
 1175 05d5 00       		.byte	0
 1176 05d6 00       		.byte	0
 1177 05d7 04       		.uleb128 0x4
 1178 05d8 43040000 		.4byte	.LASF97
 1179 05dc 0D       		.byte	0xd
 1180 05dd 3D       		.byte	0x3d
 1181 05de C2050000 		.4byte	0x5c2
 1182 05e2 17       		.uleb128 0x17
 1183 05e3 04       		.byte	0x4
 1184 05e4 04       		.byte	0x4
 1185 05e5 FA       		.byte	0xfa
 1186 05e6 3F060000 		.4byte	0x63f
 1187 05ea 18       		.uleb128 0x18
 1188 05eb 27000000 		.4byte	.LASF98
ARM GAS  C:\Users\jo\AppData\Local\Temp\ccyZVHuW.s 			page 22


 1189 05ef 04       		.byte	0x4
 1190 05f0 0101     		.2byte	0x101
 1191 05f2 FF000000 		.4byte	0xff
 1192 05f6 18       		.uleb128 0x18
 1193 05f7 A2000000 		.4byte	.LASF99
 1194 05fb 04       		.byte	0x4
 1195 05fc 0801     		.2byte	0x108
 1196 05fe FF000000 		.4byte	0xff
 1197 0602 18       		.uleb128 0x18
 1198 0603 7C060000 		.4byte	.LASF100
 1199 0607 04       		.byte	0x4
 1200 0608 0F01     		.2byte	0x10f
 1201 060a 17030000 		.4byte	0x317
 1202 060e 18       		.uleb128 0x18
 1203 060f 21000000 		.4byte	.LASF101
 1204 0613 04       		.byte	0x4
 1205 0614 1601     		.2byte	0x116
 1206 0616 3F060000 		.4byte	0x63f
 1207 061a 18       		.uleb128 0x18
 1208 061b 3D020000 		.4byte	.LASF102
 1209 061f 04       		.byte	0x4
 1210 0620 1E01     		.2byte	0x11e
 1211 0622 6A060000 		.4byte	0x66a
 1212 0626 18       		.uleb128 0x18
 1213 0627 6E050000 		.4byte	.LASF103
 1214 062b 04       		.byte	0x4
 1215 062c 2701     		.2byte	0x127
 1216 062e A1060000 		.4byte	0x6a1
 1217 0632 18       		.uleb128 0x18
 1218 0633 F8040000 		.4byte	.LASF104
 1219 0637 04       		.byte	0x4
 1220 0638 2F01     		.2byte	0x12f
 1221 063a 0A010000 		.4byte	0x10a
 1222 063e 00       		.byte	0
 1223 063f 0A       		.uleb128 0xa
 1224 0640 04       		.byte	0x4
 1225 0641 2F020000 		.4byte	0x22f
 1226 0645 06       		.uleb128 0x6
 1227 0646 3F050000 		.4byte	.LASF105
 1228 064a 0C       		.byte	0xc
 1229 064b 0E       		.byte	0xe
 1230 064c 34       		.byte	0x34
 1231 064d 6A060000 		.4byte	0x66a
 1232 0651 07       		.uleb128 0x7
 1233 0652 C8010000 		.4byte	.LASF106
 1234 0656 0E       		.byte	0xe
 1235 0657 35       		.byte	0x35
 1236 0658 64020000 		.4byte	0x264
 1237 065c 00       		.byte	0
 1238 065d 07       		.uleb128 0x7
 1239 065e 58020000 		.4byte	.LASF107
 1240 0662 0E       		.byte	0xe
 1241 0663 37       		.byte	0x37
 1242 0664 15010000 		.4byte	0x115
 1243 0668 08       		.byte	0x8
 1244 0669 00       		.byte	0
 1245 066a 0A       		.uleb128 0xa
ARM GAS  C:\Users\jo\AppData\Local\Temp\ccyZVHuW.s 			page 23


 1246 066b 04       		.byte	0x4
 1247 066c 45060000 		.4byte	0x645
 1248 0670 06       		.uleb128 0x6
 1249 0671 44060000 		.4byte	.LASF108
 1250 0675 10       		.byte	0x10
 1251 0676 0F       		.byte	0xf
 1252 0677 39       		.byte	0x39
 1253 0678 A1060000 		.4byte	0x6a1
 1254 067c 07       		.uleb128 0x7
 1255 067d 69010000 		.4byte	.LASF109
 1256 0681 0F       		.byte	0xf
 1257 0682 3A       		.byte	0x3a
 1258 0683 64020000 		.4byte	0x264
 1259 0687 00       		.byte	0
 1260 0688 07       		.uleb128 0x7
 1261 0689 E1060000 		.4byte	.LASF110
 1262 068d 0F       		.byte	0xf
 1263 068e 3C       		.byte	0x3c
 1264 068f 3A020000 		.4byte	0x23a
 1265 0693 08       		.byte	0x8
 1266 0694 07       		.uleb128 0x7
 1267 0695 54040000 		.4byte	.LASF111
 1268 0699 0F       		.byte	0xf
 1269 069a 3E       		.byte	0x3e
 1270 069b E5060000 		.4byte	0x6e5
 1271 069f 0C       		.byte	0xc
 1272 06a0 00       		.byte	0
 1273 06a1 0A       		.uleb128 0xa
 1274 06a2 04       		.byte	0x4
 1275 06a3 70060000 		.4byte	0x670
 1276 06a7 0A       		.uleb128 0xa
 1277 06a8 04       		.byte	0x4
 1278 06a9 AD060000 		.4byte	0x6ad
 1279 06ad 19       		.uleb128 0x19
 1280 06ae B2060000 		.4byte	0x6b2
 1281 06b2 03       		.uleb128 0x3
 1282 06b3 01       		.byte	0x1
 1283 06b4 08       		.byte	0x8
 1284 06b5 AB050000 		.4byte	.LASF112
 1285 06b9 0A       		.uleb128 0xa
 1286 06ba 04       		.byte	0x4
 1287 06bb 8A040000 		.4byte	0x48a
 1288 06bf 0A       		.uleb128 0xa
 1289 06c0 04       		.byte	0x4
 1290 06c1 19030000 		.4byte	0x319
 1291 06c5 05       		.uleb128 0x5
 1292 06c6 A7060000 		.4byte	0x6a7
 1293 06ca 15       		.uleb128 0x15
 1294 06cb 8A040000 		.4byte	0x48a
 1295 06cf DA060000 		.4byte	0x6da
 1296 06d3 16       		.uleb128 0x16
 1297 06d4 78040000 		.4byte	0x478
 1298 06d8 1B       		.byte	0x1b
 1299 06d9 00       		.byte	0
 1300 06da 04       		.uleb128 0x4
 1301 06db F1010000 		.4byte	.LASF113
 1302 06df 0F       		.byte	0xf
ARM GAS  C:\Users\jo\AppData\Local\Temp\ccyZVHuW.s 			page 24


 1303 06e0 34       		.byte	0x34
 1304 06e1 70060000 		.4byte	0x670
 1305 06e5 0A       		.uleb128 0xa
 1306 06e6 04       		.byte	0x4
 1307 06e7 DA060000 		.4byte	0x6da
 1308 06eb 1A       		.uleb128 0x1a
 1309 06ec F4050000 		.4byte	.LASF117
 1310 06f0 02       		.byte	0x2
 1311 06f1 2002     		.2byte	0x220
 1312 06f3 03       		.byte	0x3
 1313 06f4 05070000 		.4byte	0x705
 1314 06f8 1B       		.uleb128 0x1b
 1315 06f9 F9010000 		.4byte	.LASF119
 1316 06fd 02       		.byte	0x2
 1317 06fe 2002     		.2byte	0x220
 1318 0700 AD000000 		.4byte	0xad
 1319 0704 00       		.byte	0
 1320 0705 1C       		.uleb128 0x1c
 1321 0706 5C000000 		.4byte	.LASF114
 1322 070a 0B       		.byte	0xb
 1323 070b BC01     		.2byte	0x1bc
 1324 070d 03       		.byte	0x3
 1325 070e 1C       		.uleb128 0x1c
 1326 070f 78010000 		.4byte	.LASF115
 1327 0713 0B       		.byte	0xb
 1328 0714 CA01     		.2byte	0x1ca
 1329 0716 03       		.byte	0x3
 1330 0717 1C       		.uleb128 0x1c
 1331 0718 17050000 		.4byte	.LASF116
 1332 071c 03       		.byte	0x3
 1333 071d 5A01     		.2byte	0x15a
 1334 071f 03       		.byte	0x3
 1335 0720 1A       		.uleb128 0x1a
 1336 0721 14000000 		.4byte	.LASF118
 1337 0725 04       		.byte	0x4
 1338 0726 9702     		.2byte	0x297
 1339 0728 03       		.byte	0x3
 1340 0729 45070000 		.4byte	0x745
 1341 072d 1D       		.uleb128 0x1d
 1342 072e 747000   		.ascii	"tp\000"
 1343 0731 04       		.byte	0x4
 1344 0732 9702     		.2byte	0x297
 1345 0734 3A020000 		.4byte	0x23a
 1346 0738 1D       		.uleb128 0x1d
 1347 0739 74717000 		.ascii	"tqp\000"
 1348 073d 04       		.byte	0x4
 1349 073e 9702     		.2byte	0x297
 1350 0740 45070000 		.4byte	0x745
 1351 0744 00       		.byte	0
 1352 0745 0A       		.uleb128 0xa
 1353 0746 04       		.byte	0x4
 1354 0747 64020000 		.4byte	0x264
 1355 074b 1E       		.uleb128 0x1e
 1356 074c B0010000 		.4byte	.LASF121
 1357 0750 05       		.byte	0x5
 1358 0751 4F       		.byte	0x4f
 1359 0752 66070000 		.4byte	0x766
ARM GAS  C:\Users\jo\AppData\Local\Temp\ccyZVHuW.s 			page 25


 1360 0756 03       		.byte	0x3
 1361 0757 66070000 		.4byte	0x766
 1362 075b 1F       		.uleb128 0x1f
 1363 075c 747000   		.ascii	"tp\000"
 1364 075f 05       		.byte	0x5
 1365 0760 4F       		.byte	0x4f
 1366 0761 3A020000 		.4byte	0x23a
 1367 0765 00       		.byte	0
 1368 0766 03       		.uleb128 0x3
 1369 0767 01       		.byte	0x1
 1370 0768 02       		.byte	0x2
 1371 0769 B9040000 		.4byte	.LASF120
 1372 076d 20       		.uleb128 0x20
 1373 076e B9050000 		.4byte	.LASF122
 1374 0772 04       		.byte	0x4
 1375 0773 9F02     		.2byte	0x29f
 1376 0775 3A020000 		.4byte	0x23a
 1377 0779 03       		.byte	0x3
 1378 077a 96070000 		.4byte	0x796
 1379 077e 1D       		.uleb128 0x1d
 1380 077f 74717000 		.ascii	"tqp\000"
 1381 0783 04       		.byte	0x4
 1382 0784 9F02     		.2byte	0x29f
 1383 0786 45070000 		.4byte	0x745
 1384 078a 21       		.uleb128 0x21
 1385 078b 747000   		.ascii	"tp\000"
 1386 078e 04       		.byte	0x4
 1387 078f A002     		.2byte	0x2a0
 1388 0791 3A020000 		.4byte	0x23a
 1389 0795 00       		.byte	0
 1390 0796 22       		.uleb128 0x22
 1391 0797 D3060000 		.4byte	.LASF123
 1392 079b 05       		.byte	0x5
 1393 079c 6F       		.byte	0x6f
 1394 079d 03       		.byte	0x3
 1395 079e B8070000 		.4byte	0x7b8
 1396 07a2 1F       		.uleb128 0x1f
 1397 07a3 747000   		.ascii	"tp\000"
 1398 07a6 05       		.byte	0x5
 1399 07a7 6F       		.byte	0x6f
 1400 07a8 3A020000 		.4byte	0x23a
 1401 07ac 1F       		.uleb128 0x1f
 1402 07ad 6D736700 		.ascii	"msg\000"
 1403 07b1 05       		.byte	0x5
 1404 07b2 6F       		.byte	0x6f
 1405 07b3 FF000000 		.4byte	0xff
 1406 07b7 00       		.byte	0
 1407 07b8 1A       		.uleb128 0x1a
 1408 07b9 A6060000 		.4byte	.LASF124
 1409 07bd 03       		.byte	0x3
 1410 07be 6601     		.2byte	0x166
 1411 07c0 03       		.byte	0x3
 1412 07c1 D3070000 		.4byte	0x7d3
 1413 07c5 23       		.uleb128 0x23
 1414 07c6 0E050000 		.4byte	.LASF125
 1415 07ca E3070000 		.4byte	0x7e3
 1416 07ce A6060000 		.4byte	.LASF124
ARM GAS  C:\Users\jo\AppData\Local\Temp\ccyZVHuW.s 			page 26


 1417 07d2 00       		.byte	0
 1418 07d3 15       		.uleb128 0x15
 1419 07d4 B2060000 		.4byte	0x6b2
 1420 07d8 E3070000 		.4byte	0x7e3
 1421 07dc 16       		.uleb128 0x16
 1422 07dd 78040000 		.4byte	0x478
 1423 07e1 0B       		.byte	0xb
 1424 07e2 00       		.byte	0
 1425 07e3 19       		.uleb128 0x19
 1426 07e4 D3070000 		.4byte	0x7d3
 1427 07e8 24       		.uleb128 0x24
 1428 07e9 97010000 		.4byte	.LASF126
 1429 07ed 01       		.byte	0x1
 1430 07ee 57       		.byte	0x57
 1431 07ef FF000000 		.4byte	0xff
 1432 07f3 00000000 		.4byte	.LFB228
 1433 07f7 7C000000 		.4byte	.LFE228-.LFB228
 1434 07fb 01       		.uleb128 0x1
 1435 07fc 9C       		.byte	0x9c
 1436 07fd 5D090000 		.4byte	0x95d
 1437 0801 25       		.uleb128 0x25
 1438 0802 747000   		.ascii	"tp\000"
 1439 0805 01       		.byte	0x1
 1440 0806 57       		.byte	0x57
 1441 0807 3A020000 		.4byte	0x23a
 1442 080b 00000000 		.4byte	.LLST0
 1443 080f 25       		.uleb128 0x25
 1444 0810 6D736700 		.ascii	"msg\000"
 1445 0814 01       		.byte	0x1
 1446 0815 57       		.byte	0x57
 1447 0816 FF000000 		.4byte	0xff
 1448 081a 34000000 		.4byte	.LLST1
 1449 081e 26       		.uleb128 0x26
 1450 081f 63747000 		.ascii	"ctp\000"
 1451 0823 01       		.byte	0x1
 1452 0824 58       		.byte	0x58
 1453 0825 3A020000 		.4byte	0x23a
 1454 0829 7E000000 		.4byte	.LLST2
 1455 082d 27       		.uleb128 0x27
 1456 082e 0E050000 		.4byte	.LASF125
 1457 0832 6D090000 		.4byte	0x96d
 1458 0836 05       		.uleb128 0x5
 1459 0837 03       		.byte	0x3
 1460 0838 00000000 		.4byte	__func__.6548
 1461 083c 28       		.uleb128 0x28
 1462 083d 17070000 		.4byte	0x717
 1463 0841 0C000000 		.4byte	.LBB49
 1464 0845 0A000000 		.4byte	.LBE49-.LBB49
 1465 0849 01       		.byte	0x1
 1466 084a 5C       		.byte	0x5c
 1467 084b 88080000 		.4byte	0x888
 1468 084f 29       		.uleb128 0x29
 1469 0850 05070000 		.4byte	0x705
 1470 0854 0C000000 		.4byte	.LBB51
 1471 0858 06000000 		.4byte	.LBE51-.LBB51
 1472 085c 03       		.byte	0x3
 1473 085d 5C01     		.2byte	0x15c
ARM GAS  C:\Users\jo\AppData\Local\Temp\ccyZVHuW.s 			page 27


 1474 085f 7E080000 		.4byte	0x87e
 1475 0863 2A       		.uleb128 0x2a
 1476 0864 EB060000 		.4byte	0x6eb
 1477 0868 0C000000 		.4byte	.LBB52
 1478 086c 06000000 		.4byte	.LBE52-.LBB52
 1479 0870 0B       		.byte	0xb
 1480 0871 BF01     		.2byte	0x1bf
 1481 0873 2B       		.uleb128 0x2b
 1482 0874 F8060000 		.4byte	0x6f8
 1483 0878 9C000000 		.4byte	.LLST3
 1484 087c 00       		.byte	0
 1485 087d 00       		.byte	0
 1486 087e 2C       		.uleb128 0x2c
 1487 087f 16000000 		.4byte	.LVL3
 1488 0883 360C0000 		.4byte	0xc36
 1489 0887 00       		.byte	0
 1490 0888 2D       		.uleb128 0x2d
 1491 0889 20070000 		.4byte	0x720
 1492 088d 20000000 		.4byte	.LBB54
 1493 0891 00000000 		.4byte	.Ldebug_ranges0+0
 1494 0895 01       		.byte	0x1
 1495 0896 5F       		.byte	0x5f
 1496 0897 AE080000 		.4byte	0x8ae
 1497 089b 2B       		.uleb128 0x2b
 1498 089c 38070000 		.4byte	0x738
 1499 08a0 B1000000 		.4byte	.LLST4
 1500 08a4 2B       		.uleb128 0x2b
 1501 08a5 2D070000 		.4byte	0x72d
 1502 08a9 E9000000 		.4byte	.LLST5
 1503 08ad 00       		.byte	0
 1504 08ae 28       		.uleb128 0x28
 1505 08af B8070000 		.4byte	0x7b8
 1506 08b3 38000000 		.4byte	.LBB58
 1507 08b7 22000000 		.4byte	.LBE58-.LBB58
 1508 08bb 01       		.byte	0x1
 1509 08bc 65       		.byte	0x65
 1510 08bd 22090000 		.4byte	0x922
 1511 08c1 2E       		.uleb128 0x2e
 1512 08c2 38000000 		.4byte	.LBB59
 1513 08c6 22000000 		.4byte	.LBE59-.LBB59
 1514 08ca 2F       		.uleb128 0x2f
 1515 08cb C5070000 		.4byte	0x7c5
 1516 08cf 05       		.uleb128 0x5
 1517 08d0 03       		.byte	0x3
 1518 08d1 00000000 		.4byte	__func__.5854
 1519 08d5 29       		.uleb128 0x29
 1520 08d6 0E070000 		.4byte	0x70e
 1521 08da 54000000 		.4byte	.LBB60
 1522 08de 06000000 		.4byte	.LBE60-.LBB60
 1523 08e2 03       		.byte	0x3
 1524 08e3 7301     		.2byte	0x173
 1525 08e5 04090000 		.4byte	0x904
 1526 08e9 2A       		.uleb128 0x2a
 1527 08ea EB060000 		.4byte	0x6eb
 1528 08ee 54000000 		.4byte	.LBB61
 1529 08f2 06000000 		.4byte	.LBE61-.LBB61
 1530 08f6 0B       		.byte	0xb
ARM GAS  C:\Users\jo\AppData\Local\Temp\ccyZVHuW.s 			page 28


 1531 08f7 CD01     		.2byte	0x1cd
 1532 08f9 2B       		.uleb128 0x2b
 1533 08fa F8060000 		.4byte	0x6f8
 1534 08fe 07010000 		.4byte	.LLST6
 1535 0902 00       		.byte	0
 1536 0903 00       		.byte	0
 1537 0904 2C       		.uleb128 0x2c
 1538 0905 3C000000 		.4byte	.LVL8
 1539 0909 3D0C0000 		.4byte	0xc3d
 1540 090d 30       		.uleb128 0x30
 1541 090e 54000000 		.4byte	.LVL9
 1542 0912 440C0000 		.4byte	0xc44
 1543 0916 31       		.uleb128 0x31
 1544 0917 01       		.uleb128 0x1
 1545 0918 50       		.byte	0x50
 1546 0919 05       		.uleb128 0x5
 1547 091a 03       		.byte	0x3
 1548 091b 00000000 		.4byte	.LANCHOR1
 1549 091f 00       		.byte	0
 1550 0920 00       		.byte	0
 1551 0921 00       		.byte	0
 1552 0922 32       		.uleb128 0x32
 1553 0923 36000000 		.4byte	.LVL6
 1554 0927 560C0000 		.4byte	0xc56
 1555 092b 35090000 		.4byte	0x935
 1556 092f 31       		.uleb128 0x31
 1557 0930 01       		.uleb128 0x1
 1558 0931 50       		.byte	0x50
 1559 0932 01       		.uleb128 0x1
 1560 0933 3C       		.byte	0x3c
 1561 0934 00       		.byte	0
 1562 0935 32       		.uleb128 0x32
 1563 0936 64000000 		.4byte	.LVL11
 1564 093a 680C0000 		.4byte	0xc68
 1565 093e 49090000 		.4byte	0x949
 1566 0942 31       		.uleb128 0x31
 1567 0943 01       		.uleb128 0x1
 1568 0944 50       		.byte	0x50
 1569 0945 02       		.uleb128 0x2
 1570 0946 75       		.byte	0x75
 1571 0947 00       		.sleb128 0
 1572 0948 00       		.byte	0
 1573 0949 30       		.uleb128 0x30
 1574 094a 6C000000 		.4byte	.LVL14
 1575 094e 440C0000 		.4byte	0xc44
 1576 0952 31       		.uleb128 0x31
 1577 0953 01       		.uleb128 0x1
 1578 0954 50       		.byte	0x50
 1579 0955 05       		.uleb128 0x5
 1580 0956 03       		.byte	0x3
 1581 0957 00000000 		.4byte	.LANCHOR0
 1582 095b 00       		.byte	0
 1583 095c 00       		.byte	0
 1584 095d 15       		.uleb128 0x15
 1585 095e B2060000 		.4byte	0x6b2
 1586 0962 6D090000 		.4byte	0x96d
 1587 0966 16       		.uleb128 0x16
ARM GAS  C:\Users\jo\AppData\Local\Temp\ccyZVHuW.s 			page 29


 1588 0967 78040000 		.4byte	0x478
 1589 096b 09       		.byte	0x9
 1590 096c 00       		.byte	0
 1591 096d 19       		.uleb128 0x19
 1592 096e 5D090000 		.4byte	0x95d
 1593 0972 24       		.uleb128 0x24
 1594 0973 2A060000 		.4byte	.LASF127
 1595 0977 01       		.byte	0x1
 1596 0978 78       		.byte	0x78
 1597 0979 3A020000 		.4byte	0x23a
 1598 097d 00000000 		.4byte	.LFB229
 1599 0981 64000000 		.4byte	.LFE229-.LFB229
 1600 0985 01       		.uleb128 0x1
 1601 0986 9C       		.byte	0x9c
 1602 0987 B60A0000 		.4byte	0xab6
 1603 098b 33       		.uleb128 0x33
 1604 098c 747000   		.ascii	"tp\000"
 1605 098f 01       		.byte	0x1
 1606 0990 79       		.byte	0x79
 1607 0991 3A020000 		.4byte	0x23a
 1608 0995 01       		.uleb128 0x1
 1609 0996 55       		.byte	0x55
 1610 0997 2D       		.uleb128 0x2d
 1611 0998 17070000 		.4byte	0x717
 1612 099c 02000000 		.4byte	.LBB77
 1613 09a0 18000000 		.4byte	.Ldebug_ranges0+0x18
 1614 09a4 01       		.byte	0x1
 1615 09a5 7B       		.byte	0x7b
 1616 09a6 E0090000 		.4byte	0x9e0
 1617 09aa 29       		.uleb128 0x29
 1618 09ab 05070000 		.4byte	0x705
 1619 09af 02000000 		.4byte	.LBB79
 1620 09b3 06000000 		.4byte	.LBE79-.LBB79
 1621 09b7 03       		.byte	0x3
 1622 09b8 5C01     		.2byte	0x15c
 1623 09ba D6090000 		.4byte	0x9d6
 1624 09be 2A       		.uleb128 0x2a
 1625 09bf EB060000 		.4byte	0x6eb
 1626 09c3 02000000 		.4byte	.LBB80
 1627 09c7 06000000 		.4byte	.LBE80-.LBB80
 1628 09cb 0B       		.byte	0xb
 1629 09cc BF01     		.2byte	0x1bf
 1630 09ce 34       		.uleb128 0x34
 1631 09cf F8060000 		.4byte	0x6f8
 1632 09d3 20       		.byte	0x20
 1633 09d4 00       		.byte	0
 1634 09d5 00       		.byte	0
 1635 09d6 2C       		.uleb128 0x2c
 1636 09d7 0E000000 		.4byte	.LVL16
 1637 09db 360C0000 		.4byte	0xc36
 1638 09df 00       		.byte	0
 1639 09e0 2D       		.uleb128 0x2d
 1640 09e1 4B070000 		.4byte	0x74b
 1641 09e5 10000000 		.4byte	.LBB84
 1642 09e9 30000000 		.4byte	.Ldebug_ranges0+0x30
 1643 09ed 01       		.byte	0x1
 1644 09ee 7C       		.byte	0x7c
ARM GAS  C:\Users\jo\AppData\Local\Temp\ccyZVHuW.s 			page 30


 1645 09ef 060A0000 		.4byte	0xa06
 1646 09f3 2B       		.uleb128 0x2b
 1647 09f4 5B070000 		.4byte	0x75b
 1648 09f8 1B010000 		.4byte	.LLST7
 1649 09fc 2C       		.uleb128 0x2c
 1650 09fd 14000000 		.4byte	.LVL18
 1651 0a01 7E0C0000 		.4byte	0xc7e
 1652 0a05 00       		.byte	0
 1653 0a06 2D       		.uleb128 0x2d
 1654 0a07 6D070000 		.4byte	0x76d
 1655 0a0b 20000000 		.4byte	.LBB88
 1656 0a0f 48000000 		.4byte	.Ldebug_ranges0+0x48
 1657 0a13 01       		.byte	0x1
 1658 0a14 7F       		.byte	0x7f
 1659 0a15 320A0000 		.4byte	0xa32
 1660 0a19 2B       		.uleb128 0x2b
 1661 0a1a 7E070000 		.4byte	0x77e
 1662 0a1e 48010000 		.4byte	.LLST8
 1663 0a22 35       		.uleb128 0x35
 1664 0a23 48000000 		.4byte	.Ldebug_ranges0+0x48
 1665 0a27 36       		.uleb128 0x36
 1666 0a28 8A070000 		.4byte	0x78a
 1667 0a2c 68010000 		.4byte	.LLST9
 1668 0a30 00       		.byte	0
 1669 0a31 00       		.byte	0
 1670 0a32 28       		.uleb128 0x28
 1671 0a33 B8070000 		.4byte	0x7b8
 1672 0a37 30000000 		.4byte	.LBB92
 1673 0a3b 20000000 		.4byte	.LBE92-.LBB92
 1674 0a3f 01       		.byte	0x1
 1675 0a40 81       		.byte	0x81
 1676 0a41 A60A0000 		.4byte	0xaa6
 1677 0a45 2E       		.uleb128 0x2e
 1678 0a46 30000000 		.4byte	.LBB93
 1679 0a4a 20000000 		.4byte	.LBE93-.LBB93
 1680 0a4e 2F       		.uleb128 0x2f
 1681 0a4f C5070000 		.4byte	0x7c5
 1682 0a53 05       		.uleb128 0x5
 1683 0a54 03       		.byte	0x3
 1684 0a55 00000000 		.4byte	__func__.5854
 1685 0a59 29       		.uleb128 0x29
 1686 0a5a 0E070000 		.4byte	0x70e
 1687 0a5e 4A000000 		.4byte	.LBB94
 1688 0a62 06000000 		.4byte	.LBE94-.LBB94
 1689 0a66 03       		.byte	0x3
 1690 0a67 7301     		.2byte	0x173
 1691 0a69 880A0000 		.4byte	0xa88
 1692 0a6d 2A       		.uleb128 0x2a
 1693 0a6e EB060000 		.4byte	0x6eb
 1694 0a72 4A000000 		.4byte	.LBB95
 1695 0a76 06000000 		.4byte	.LBE95-.LBB95
 1696 0a7a 0B       		.byte	0xb
 1697 0a7b CD01     		.2byte	0x1cd
 1698 0a7d 2B       		.uleb128 0x2b
 1699 0a7e F8060000 		.4byte	0x6f8
 1700 0a82 7B010000 		.4byte	.LLST10
 1701 0a86 00       		.byte	0
ARM GAS  C:\Users\jo\AppData\Local\Temp\ccyZVHuW.s 			page 31


 1702 0a87 00       		.byte	0
 1703 0a88 2C       		.uleb128 0x2c
 1704 0a89 34000000 		.4byte	.LVL23
 1705 0a8d 3D0C0000 		.4byte	0xc3d
 1706 0a91 30       		.uleb128 0x30
 1707 0a92 4A000000 		.4byte	.LVL24
 1708 0a96 440C0000 		.4byte	0xc44
 1709 0a9a 31       		.uleb128 0x31
 1710 0a9b 01       		.uleb128 0x1
 1711 0a9c 50       		.byte	0x50
 1712 0a9d 05       		.uleb128 0x5
 1713 0a9e 03       		.byte	0x3
 1714 0a9f 00000000 		.4byte	.LANCHOR1
 1715 0aa3 00       		.byte	0
 1716 0aa4 00       		.byte	0
 1717 0aa5 00       		.byte	0
 1718 0aa6 30       		.uleb128 0x30
 1719 0aa7 5A000000 		.4byte	.LVL26
 1720 0aab 560C0000 		.4byte	0xc56
 1721 0aaf 31       		.uleb128 0x31
 1722 0ab0 01       		.uleb128 0x1
 1723 0ab1 50       		.byte	0x50
 1724 0ab2 01       		.uleb128 0x1
 1725 0ab3 3E       		.byte	0x3e
 1726 0ab4 00       		.byte	0
 1727 0ab5 00       		.byte	0
 1728 0ab6 37       		.uleb128 0x37
 1729 0ab7 32050000 		.4byte	.LASF138
 1730 0abb 01       		.byte	0x1
 1731 0abc 90       		.byte	0x90
 1732 0abd 00000000 		.4byte	.LFB230
 1733 0ac1 5C000000 		.4byte	.LFE230-.LFB230
 1734 0ac5 01       		.uleb128 0x1
 1735 0ac6 9C       		.byte	0x9c
 1736 0ac7 0A0C0000 		.4byte	0xc0a
 1737 0acb 25       		.uleb128 0x25
 1738 0acc 747000   		.ascii	"tp\000"
 1739 0acf 01       		.byte	0x1
 1740 0ad0 90       		.byte	0x90
 1741 0ad1 3A020000 		.4byte	0x23a
 1742 0ad5 8F010000 		.4byte	.LLST11
 1743 0ad9 25       		.uleb128 0x25
 1744 0ada 6D736700 		.ascii	"msg\000"
 1745 0ade 01       		.byte	0x1
 1746 0adf 90       		.byte	0x90
 1747 0ae0 FF000000 		.4byte	0xff
 1748 0ae4 BB010000 		.4byte	.LLST12
 1749 0ae8 27       		.uleb128 0x27
 1750 0ae9 0E050000 		.4byte	.LASF125
 1751 0aed 1A0C0000 		.4byte	0xc1a
 1752 0af1 05       		.uleb128 0x5
 1753 0af2 03       		.byte	0x3
 1754 0af3 00000000 		.4byte	__func__.6557
 1755 0af7 28       		.uleb128 0x28
 1756 0af8 17070000 		.4byte	0x717
 1757 0afc 06000000 		.4byte	.LBB109
 1758 0b00 0A000000 		.4byte	.LBE109-.LBB109
ARM GAS  C:\Users\jo\AppData\Local\Temp\ccyZVHuW.s 			page 32


 1759 0b04 01       		.byte	0x1
 1760 0b05 92       		.byte	0x92
 1761 0b06 400B0000 		.4byte	0xb40
 1762 0b0a 29       		.uleb128 0x29
 1763 0b0b 05070000 		.4byte	0x705
 1764 0b0f 06000000 		.4byte	.LBB111
 1765 0b13 06000000 		.4byte	.LBE111-.LBB111
 1766 0b17 03       		.byte	0x3
 1767 0b18 5C01     		.2byte	0x15c
 1768 0b1a 360B0000 		.4byte	0xb36
 1769 0b1e 2A       		.uleb128 0x2a
 1770 0b1f EB060000 		.4byte	0x6eb
 1771 0b23 06000000 		.4byte	.LBB112
 1772 0b27 06000000 		.4byte	.LBE112-.LBB112
 1773 0b2b 0B       		.byte	0xb
 1774 0b2c BF01     		.2byte	0x1bf
 1775 0b2e 34       		.uleb128 0x34
 1776 0b2f F8060000 		.4byte	0x6f8
 1777 0b33 20       		.byte	0x20
 1778 0b34 00       		.byte	0
 1779 0b35 00       		.byte	0
 1780 0b36 2C       		.uleb128 0x2c
 1781 0b37 10000000 		.4byte	.LVL28
 1782 0b3b 360C0000 		.4byte	0xc36
 1783 0b3f 00       		.byte	0
 1784 0b40 28       		.uleb128 0x28
 1785 0b41 96070000 		.4byte	0x796
 1786 0b45 1E000000 		.4byte	.LBB114
 1787 0b49 0C000000 		.4byte	.LBE114-.LBB114
 1788 0b4d 01       		.byte	0x1
 1789 0b4e 94       		.byte	0x94
 1790 0b4f 850B0000 		.4byte	0xb85
 1791 0b53 2B       		.uleb128 0x2b
 1792 0b54 AC070000 		.4byte	0x7ac
 1793 0b58 E7010000 		.4byte	.LLST13
 1794 0b5c 2B       		.uleb128 0x2b
 1795 0b5d A2070000 		.4byte	0x7a2
 1796 0b61 08020000 		.4byte	.LLST14
 1797 0b65 2C       		.uleb128 0x2c
 1798 0b66 22000000 		.4byte	.LVL30
 1799 0b6a 850C0000 		.4byte	0xc85
 1800 0b6e 30       		.uleb128 0x30
 1801 0b6f 2A000000 		.4byte	.LVL31
 1802 0b73 8C0C0000 		.4byte	0xc8c
 1803 0b77 31       		.uleb128 0x31
 1804 0b78 01       		.uleb128 0x1
 1805 0b79 51       		.byte	0x51
 1806 0b7a 02       		.uleb128 0x2
 1807 0b7b 75       		.byte	0x75
 1808 0b7c 00       		.sleb128 0
 1809 0b7d 31       		.uleb128 0x31
 1810 0b7e 01       		.uleb128 0x1
 1811 0b7f 50       		.byte	0x50
 1812 0b80 02       		.uleb128 0x2
 1813 0b81 74       		.byte	0x74
 1814 0b82 00       		.sleb128 0
 1815 0b83 00       		.byte	0
ARM GAS  C:\Users\jo\AppData\Local\Temp\ccyZVHuW.s 			page 33


 1816 0b84 00       		.byte	0
 1817 0b85 28       		.uleb128 0x28
 1818 0b86 B8070000 		.4byte	0x7b8
 1819 0b8a 2A000000 		.4byte	.LBB116
 1820 0b8e 32000000 		.4byte	.LBE116-.LBB116
 1821 0b92 01       		.byte	0x1
 1822 0b93 95       		.byte	0x95
 1823 0b94 F60B0000 		.4byte	0xbf6
 1824 0b98 2E       		.uleb128 0x2e
 1825 0b99 2A000000 		.4byte	.LBB117
 1826 0b9d 32000000 		.4byte	.LBE117-.LBB117
 1827 0ba1 2F       		.uleb128 0x2f
 1828 0ba2 C5070000 		.4byte	0x7c5
 1829 0ba6 05       		.uleb128 0x5
 1830 0ba7 03       		.byte	0x3
 1831 0ba8 00000000 		.4byte	__func__.5854
 1832 0bac 29       		.uleb128 0x29
 1833 0bad 0E070000 		.4byte	0x70e
 1834 0bb1 46000000 		.4byte	.LBB118
 1835 0bb5 16000000 		.4byte	.LBE118-.LBB118
 1836 0bb9 03       		.byte	0x3
 1837 0bba 7301     		.2byte	0x173
 1838 0bbc D80B0000 		.4byte	0xbd8
 1839 0bc0 2A       		.uleb128 0x2a
 1840 0bc1 EB060000 		.4byte	0x6eb
 1841 0bc5 46000000 		.4byte	.LBB119
 1842 0bc9 16000000 		.4byte	.LBE119-.LBB119
 1843 0bcd 0B       		.byte	0xb
 1844 0bce CD01     		.2byte	0x1cd
 1845 0bd0 34       		.uleb128 0x34
 1846 0bd1 F8060000 		.4byte	0x6f8
 1847 0bd5 00       		.byte	0
 1848 0bd6 00       		.byte	0
 1849 0bd7 00       		.byte	0
 1850 0bd8 2C       		.uleb128 0x2c
 1851 0bd9 2E000000 		.4byte	.LVL32
 1852 0bdd 3D0C0000 		.4byte	0xc3d
 1853 0be1 30       		.uleb128 0x30
 1854 0be2 46000000 		.4byte	.LVL33
 1855 0be6 440C0000 		.4byte	0xc44
 1856 0bea 31       		.uleb128 0x31
 1857 0beb 01       		.uleb128 0x1
 1858 0bec 50       		.byte	0x50
 1859 0bed 05       		.uleb128 0x5
 1860 0bee 03       		.byte	0x3
 1861 0bef 00000000 		.4byte	.LANCHOR1
 1862 0bf3 00       		.byte	0
 1863 0bf4 00       		.byte	0
 1864 0bf5 00       		.byte	0
 1865 0bf6 30       		.uleb128 0x30
 1866 0bf7 1E000000 		.4byte	.LVL29
 1867 0bfb 440C0000 		.4byte	0xc44
 1868 0bff 31       		.uleb128 0x31
 1869 0c00 01       		.uleb128 0x1
 1870 0c01 50       		.byte	0x50
 1871 0c02 05       		.uleb128 0x5
 1872 0c03 03       		.byte	0x3
ARM GAS  C:\Users\jo\AppData\Local\Temp\ccyZVHuW.s 			page 34


 1873 0c04 00000000 		.4byte	.LANCHOR2
 1874 0c08 00       		.byte	0
 1875 0c09 00       		.byte	0
 1876 0c0a 15       		.uleb128 0x15
 1877 0c0b B2060000 		.4byte	0x6b2
 1878 0c0f 1A0C0000 		.4byte	0xc1a
 1879 0c13 16       		.uleb128 0x16
 1880 0c14 78040000 		.4byte	0x478
 1881 0c18 0C       		.byte	0xc
 1882 0c19 00       		.byte	0
 1883 0c1a 19       		.uleb128 0x19
 1884 0c1b 0A0C0000 		.4byte	0xc0a
 1885 0c1f 38       		.uleb128 0x38
 1886 0c20 CC000000 		.4byte	.LASF128
 1887 0c24 10       		.byte	0x10
 1888 0c25 A706     		.2byte	0x6a7
 1889 0c27 C3000000 		.4byte	0xc3
 1890 0c2b 39       		.uleb128 0x39
 1891 0c2c 636800   		.ascii	"ch\000"
 1892 0c2f 04       		.byte	0x4
 1893 0c30 0902     		.2byte	0x209
 1894 0c32 0E040000 		.4byte	0x40e
 1895 0c36 3A       		.uleb128 0x3a
 1896 0c37 F3030000 		.4byte	.LASF129
 1897 0c3b 0C       		.byte	0xc
 1898 0c3c D8       		.byte	0xd8
 1899 0c3d 3A       		.uleb128 0x3a
 1900 0c3e 6A060000 		.4byte	.LASF130
 1901 0c42 0C       		.byte	0xc
 1902 0c43 D9       		.byte	0xd9
 1903 0c44 3B       		.uleb128 0x3b
 1904 0c45 66000000 		.4byte	.LASF131
 1905 0c49 03       		.byte	0x3
 1906 0c4a 1601     		.2byte	0x116
 1907 0c4c 560C0000 		.4byte	0xc56
 1908 0c50 0D       		.uleb128 0xd
 1909 0c51 A7060000 		.4byte	0x6a7
 1910 0c55 00       		.byte	0
 1911 0c56 3B       		.uleb128 0x3b
 1912 0c57 4C050000 		.4byte	.LASF132
 1913 0c5b 04       		.byte	0x4
 1914 0c5c 1402     		.2byte	0x214
 1915 0c5e 680C0000 		.4byte	0xc68
 1916 0c62 0D       		.uleb128 0xd
 1917 0c63 DE000000 		.4byte	0xde
 1918 0c67 00       		.byte	0
 1919 0c68 3C       		.uleb128 0x3c
 1920 0c69 7D050000 		.4byte	.LASF139
 1921 0c6d 04       		.byte	0x4
 1922 0c6e 1302     		.2byte	0x213
 1923 0c70 3A020000 		.4byte	0x23a
 1924 0c74 7E0C0000 		.4byte	0xc7e
 1925 0c78 0D       		.uleb128 0xd
 1926 0c79 3A020000 		.4byte	0x23a
 1927 0c7d 00       		.byte	0
 1928 0c7e 3A       		.uleb128 0x3a
 1929 0c7f 8E020000 		.4byte	.LASF133
ARM GAS  C:\Users\jo\AppData\Local\Temp\ccyZVHuW.s 			page 35


 1930 0c83 0C       		.byte	0xc
 1931 0c84 DE       		.byte	0xde
 1932 0c85 3A       		.uleb128 0x3a
 1933 0c86 B3020000 		.4byte	.LASF134
 1934 0c8a 0C       		.byte	0xc
 1935 0c8b DF       		.byte	0xdf
 1936 0c8c 3D       		.uleb128 0x3d
 1937 0c8d 7B020000 		.4byte	.LASF140
 1938 0c91 04       		.byte	0x4
 1939 0c92 1602     		.2byte	0x216
 1940 0c94 0D       		.uleb128 0xd
 1941 0c95 3A020000 		.4byte	0x23a
 1942 0c99 0D       		.uleb128 0xd
 1943 0c9a FF000000 		.4byte	0xff
 1944 0c9e 00       		.byte	0
 1945 0c9f 00       		.byte	0
 1946              		.section	.debug_abbrev,"",%progbits
 1947              	.Ldebug_abbrev0:
 1948 0000 01       		.uleb128 0x1
 1949 0001 11       		.uleb128 0x11
 1950 0002 01       		.byte	0x1
 1951 0003 25       		.uleb128 0x25
 1952 0004 0E       		.uleb128 0xe
 1953 0005 13       		.uleb128 0x13
 1954 0006 0B       		.uleb128 0xb
 1955 0007 03       		.uleb128 0x3
 1956 0008 0E       		.uleb128 0xe
 1957 0009 1B       		.uleb128 0x1b
 1958 000a 0E       		.uleb128 0xe
 1959 000b 55       		.uleb128 0x55
 1960 000c 17       		.uleb128 0x17
 1961 000d 11       		.uleb128 0x11
 1962 000e 01       		.uleb128 0x1
 1963 000f 10       		.uleb128 0x10
 1964 0010 17       		.uleb128 0x17
 1965 0011 00       		.byte	0
 1966 0012 00       		.byte	0
 1967 0013 02       		.uleb128 0x2
 1968 0014 24       		.uleb128 0x24
 1969 0015 00       		.byte	0
 1970 0016 0B       		.uleb128 0xb
 1971 0017 0B       		.uleb128 0xb
 1972 0018 3E       		.uleb128 0x3e
 1973 0019 0B       		.uleb128 0xb
 1974 001a 03       		.uleb128 0x3
 1975 001b 08       		.uleb128 0x8
 1976 001c 00       		.byte	0
 1977 001d 00       		.byte	0
 1978 001e 03       		.uleb128 0x3
 1979 001f 24       		.uleb128 0x24
 1980 0020 00       		.byte	0
 1981 0021 0B       		.uleb128 0xb
 1982 0022 0B       		.uleb128 0xb
 1983 0023 3E       		.uleb128 0x3e
 1984 0024 0B       		.uleb128 0xb
 1985 0025 03       		.uleb128 0x3
 1986 0026 0E       		.uleb128 0xe
ARM GAS  C:\Users\jo\AppData\Local\Temp\ccyZVHuW.s 			page 36


 1987 0027 00       		.byte	0
 1988 0028 00       		.byte	0
 1989 0029 04       		.uleb128 0x4
 1990 002a 16       		.uleb128 0x16
 1991 002b 00       		.byte	0
 1992 002c 03       		.uleb128 0x3
 1993 002d 0E       		.uleb128 0xe
 1994 002e 3A       		.uleb128 0x3a
 1995 002f 0B       		.uleb128 0xb
 1996 0030 3B       		.uleb128 0x3b
 1997 0031 0B       		.uleb128 0xb
 1998 0032 49       		.uleb128 0x49
 1999 0033 13       		.uleb128 0x13
 2000 0034 00       		.byte	0
 2001 0035 00       		.byte	0
 2002 0036 05       		.uleb128 0x5
 2003 0037 35       		.uleb128 0x35
 2004 0038 00       		.byte	0
 2005 0039 49       		.uleb128 0x49
 2006 003a 13       		.uleb128 0x13
 2007 003b 00       		.byte	0
 2008 003c 00       		.byte	0
 2009 003d 06       		.uleb128 0x6
 2010 003e 13       		.uleb128 0x13
 2011 003f 01       		.byte	0x1
 2012 0040 03       		.uleb128 0x3
 2013 0041 0E       		.uleb128 0xe
 2014 0042 0B       		.uleb128 0xb
 2015 0043 0B       		.uleb128 0xb
 2016 0044 3A       		.uleb128 0x3a
 2017 0045 0B       		.uleb128 0xb
 2018 0046 3B       		.uleb128 0x3b
 2019 0047 0B       		.uleb128 0xb
 2020 0048 01       		.uleb128 0x1
 2021 0049 13       		.uleb128 0x13
 2022 004a 00       		.byte	0
 2023 004b 00       		.byte	0
 2024 004c 07       		.uleb128 0x7
 2025 004d 0D       		.uleb128 0xd
 2026 004e 00       		.byte	0
 2027 004f 03       		.uleb128 0x3
 2028 0050 0E       		.uleb128 0xe
 2029 0051 3A       		.uleb128 0x3a
 2030 0052 0B       		.uleb128 0xb
 2031 0053 3B       		.uleb128 0x3b
 2032 0054 0B       		.uleb128 0xb
 2033 0055 49       		.uleb128 0x49
 2034 0056 13       		.uleb128 0x13
 2035 0057 38       		.uleb128 0x38
 2036 0058 0B       		.uleb128 0xb
 2037 0059 00       		.byte	0
 2038 005a 00       		.byte	0
 2039 005b 08       		.uleb128 0x8
 2040 005c 0D       		.uleb128 0xd
 2041 005d 00       		.byte	0
 2042 005e 03       		.uleb128 0x3
 2043 005f 08       		.uleb128 0x8
ARM GAS  C:\Users\jo\AppData\Local\Temp\ccyZVHuW.s 			page 37


 2044 0060 3A       		.uleb128 0x3a
 2045 0061 0B       		.uleb128 0xb
 2046 0062 3B       		.uleb128 0x3b
 2047 0063 05       		.uleb128 0x5
 2048 0064 49       		.uleb128 0x49
 2049 0065 13       		.uleb128 0x13
 2050 0066 38       		.uleb128 0x38
 2051 0067 0B       		.uleb128 0xb
 2052 0068 00       		.byte	0
 2053 0069 00       		.byte	0
 2054 006a 09       		.uleb128 0x9
 2055 006b 0D       		.uleb128 0xd
 2056 006c 00       		.byte	0
 2057 006d 03       		.uleb128 0x3
 2058 006e 0E       		.uleb128 0xe
 2059 006f 3A       		.uleb128 0x3a
 2060 0070 0B       		.uleb128 0xb
 2061 0071 3B       		.uleb128 0x3b
 2062 0072 05       		.uleb128 0x5
 2063 0073 49       		.uleb128 0x49
 2064 0074 13       		.uleb128 0x13
 2065 0075 38       		.uleb128 0x38
 2066 0076 0B       		.uleb128 0xb
 2067 0077 00       		.byte	0
 2068 0078 00       		.byte	0
 2069 0079 0A       		.uleb128 0xa
 2070 007a 0F       		.uleb128 0xf
 2071 007b 00       		.byte	0
 2072 007c 0B       		.uleb128 0xb
 2073 007d 0B       		.uleb128 0xb
 2074 007e 49       		.uleb128 0x49
 2075 007f 13       		.uleb128 0x13
 2076 0080 00       		.byte	0
 2077 0081 00       		.byte	0
 2078 0082 0B       		.uleb128 0xb
 2079 0083 13       		.uleb128 0x13
 2080 0084 01       		.byte	0x1
 2081 0085 03       		.uleb128 0x3
 2082 0086 0E       		.uleb128 0xe
 2083 0087 0B       		.uleb128 0xb
 2084 0088 0B       		.uleb128 0xb
 2085 0089 3A       		.uleb128 0x3a
 2086 008a 0B       		.uleb128 0xb
 2087 008b 3B       		.uleb128 0x3b
 2088 008c 05       		.uleb128 0x5
 2089 008d 01       		.uleb128 0x1
 2090 008e 13       		.uleb128 0x13
 2091 008f 00       		.byte	0
 2092 0090 00       		.byte	0
 2093 0091 0C       		.uleb128 0xc
 2094 0092 15       		.uleb128 0x15
 2095 0093 01       		.byte	0x1
 2096 0094 27       		.uleb128 0x27
 2097 0095 19       		.uleb128 0x19
 2098 0096 01       		.uleb128 0x1
 2099 0097 13       		.uleb128 0x13
 2100 0098 00       		.byte	0
ARM GAS  C:\Users\jo\AppData\Local\Temp\ccyZVHuW.s 			page 38


 2101 0099 00       		.byte	0
 2102 009a 0D       		.uleb128 0xd
 2103 009b 05       		.uleb128 0x5
 2104 009c 00       		.byte	0
 2105 009d 49       		.uleb128 0x49
 2106 009e 13       		.uleb128 0x13
 2107 009f 00       		.byte	0
 2108 00a0 00       		.byte	0
 2109 00a1 0E       		.uleb128 0xe
 2110 00a2 0F       		.uleb128 0xf
 2111 00a3 00       		.byte	0
 2112 00a4 0B       		.uleb128 0xb
 2113 00a5 0B       		.uleb128 0xb
 2114 00a6 00       		.byte	0
 2115 00a7 00       		.byte	0
 2116 00a8 0F       		.uleb128 0xf
 2117 00a9 13       		.uleb128 0x13
 2118 00aa 01       		.byte	0x1
 2119 00ab 03       		.uleb128 0x3
 2120 00ac 0E       		.uleb128 0xe
 2121 00ad 0B       		.uleb128 0xb
 2122 00ae 05       		.uleb128 0x5
 2123 00af 3A       		.uleb128 0x3a
 2124 00b0 0B       		.uleb128 0xb
 2125 00b1 3B       		.uleb128 0x3b
 2126 00b2 05       		.uleb128 0x5
 2127 00b3 01       		.uleb128 0x1
 2128 00b4 13       		.uleb128 0x13
 2129 00b5 00       		.byte	0
 2130 00b6 00       		.byte	0
 2131 00b7 10       		.uleb128 0x10
 2132 00b8 0D       		.uleb128 0xd
 2133 00b9 00       		.byte	0
 2134 00ba 03       		.uleb128 0x3
 2135 00bb 0E       		.uleb128 0xe
 2136 00bc 3A       		.uleb128 0x3a
 2137 00bd 0B       		.uleb128 0xb
 2138 00be 3B       		.uleb128 0x3b
 2139 00bf 05       		.uleb128 0x5
 2140 00c0 49       		.uleb128 0x49
 2141 00c1 13       		.uleb128 0x13
 2142 00c2 38       		.uleb128 0x38
 2143 00c3 05       		.uleb128 0x5
 2144 00c4 00       		.byte	0
 2145 00c5 00       		.byte	0
 2146 00c6 11       		.uleb128 0x11
 2147 00c7 0D       		.uleb128 0xd
 2148 00c8 00       		.byte	0
 2149 00c9 03       		.uleb128 0x3
 2150 00ca 08       		.uleb128 0x8
 2151 00cb 3A       		.uleb128 0x3a
 2152 00cc 0B       		.uleb128 0xb
 2153 00cd 3B       		.uleb128 0x3b
 2154 00ce 05       		.uleb128 0x5
 2155 00cf 49       		.uleb128 0x49
 2156 00d0 13       		.uleb128 0x13
 2157 00d1 38       		.uleb128 0x38
ARM GAS  C:\Users\jo\AppData\Local\Temp\ccyZVHuW.s 			page 39


 2158 00d2 05       		.uleb128 0x5
 2159 00d3 00       		.byte	0
 2160 00d4 00       		.byte	0
 2161 00d5 12       		.uleb128 0x12
 2162 00d6 0D       		.uleb128 0xd
 2163 00d7 00       		.byte	0
 2164 00d8 03       		.uleb128 0x3
 2165 00d9 08       		.uleb128 0x8
 2166 00da 3A       		.uleb128 0x3a
 2167 00db 0B       		.uleb128 0xb
 2168 00dc 3B       		.uleb128 0x3b
 2169 00dd 0B       		.uleb128 0xb
 2170 00de 49       		.uleb128 0x49
 2171 00df 13       		.uleb128 0x13
 2172 00e0 38       		.uleb128 0x38
 2173 00e1 0B       		.uleb128 0xb
 2174 00e2 00       		.byte	0
 2175 00e3 00       		.byte	0
 2176 00e4 13       		.uleb128 0x13
 2177 00e5 13       		.uleb128 0x13
 2178 00e6 01       		.byte	0x1
 2179 00e7 0B       		.uleb128 0xb
 2180 00e8 0B       		.uleb128 0xb
 2181 00e9 3A       		.uleb128 0x3a
 2182 00ea 0B       		.uleb128 0xb
 2183 00eb 3B       		.uleb128 0x3b
 2184 00ec 0B       		.uleb128 0xb
 2185 00ed 01       		.uleb128 0x1
 2186 00ee 13       		.uleb128 0x13
 2187 00ef 00       		.byte	0
 2188 00f0 00       		.byte	0
 2189 00f1 14       		.uleb128 0x14
 2190 00f2 13       		.uleb128 0x13
 2191 00f3 01       		.byte	0x1
 2192 00f4 0B       		.uleb128 0xb
 2193 00f5 05       		.uleb128 0x5
 2194 00f6 3A       		.uleb128 0x3a
 2195 00f7 0B       		.uleb128 0xb
 2196 00f8 3B       		.uleb128 0x3b
 2197 00f9 0B       		.uleb128 0xb
 2198 00fa 01       		.uleb128 0x1
 2199 00fb 13       		.uleb128 0x13
 2200 00fc 00       		.byte	0
 2201 00fd 00       		.byte	0
 2202 00fe 15       		.uleb128 0x15
 2203 00ff 01       		.uleb128 0x1
 2204 0100 01       		.byte	0x1
 2205 0101 49       		.uleb128 0x49
 2206 0102 13       		.uleb128 0x13
 2207 0103 01       		.uleb128 0x1
 2208 0104 13       		.uleb128 0x13
 2209 0105 00       		.byte	0
 2210 0106 00       		.byte	0
 2211 0107 16       		.uleb128 0x16
 2212 0108 21       		.uleb128 0x21
 2213 0109 00       		.byte	0
 2214 010a 49       		.uleb128 0x49
ARM GAS  C:\Users\jo\AppData\Local\Temp\ccyZVHuW.s 			page 40


 2215 010b 13       		.uleb128 0x13
 2216 010c 2F       		.uleb128 0x2f
 2217 010d 0B       		.uleb128 0xb
 2218 010e 00       		.byte	0
 2219 010f 00       		.byte	0
 2220 0110 17       		.uleb128 0x17
 2221 0111 17       		.uleb128 0x17
 2222 0112 01       		.byte	0x1
 2223 0113 0B       		.uleb128 0xb
 2224 0114 0B       		.uleb128 0xb
 2225 0115 3A       		.uleb128 0x3a
 2226 0116 0B       		.uleb128 0xb
 2227 0117 3B       		.uleb128 0x3b
 2228 0118 0B       		.uleb128 0xb
 2229 0119 01       		.uleb128 0x1
 2230 011a 13       		.uleb128 0x13
 2231 011b 00       		.byte	0
 2232 011c 00       		.byte	0
 2233 011d 18       		.uleb128 0x18
 2234 011e 0D       		.uleb128 0xd
 2235 011f 00       		.byte	0
 2236 0120 03       		.uleb128 0x3
 2237 0121 0E       		.uleb128 0xe
 2238 0122 3A       		.uleb128 0x3a
 2239 0123 0B       		.uleb128 0xb
 2240 0124 3B       		.uleb128 0x3b
 2241 0125 05       		.uleb128 0x5
 2242 0126 49       		.uleb128 0x49
 2243 0127 13       		.uleb128 0x13
 2244 0128 00       		.byte	0
 2245 0129 00       		.byte	0
 2246 012a 19       		.uleb128 0x19
 2247 012b 26       		.uleb128 0x26
 2248 012c 00       		.byte	0
 2249 012d 49       		.uleb128 0x49
 2250 012e 13       		.uleb128 0x13
 2251 012f 00       		.byte	0
 2252 0130 00       		.byte	0
 2253 0131 1A       		.uleb128 0x1a
 2254 0132 2E       		.uleb128 0x2e
 2255 0133 01       		.byte	0x1
 2256 0134 03       		.uleb128 0x3
 2257 0135 0E       		.uleb128 0xe
 2258 0136 3A       		.uleb128 0x3a
 2259 0137 0B       		.uleb128 0xb
 2260 0138 3B       		.uleb128 0x3b
 2261 0139 05       		.uleb128 0x5
 2262 013a 27       		.uleb128 0x27
 2263 013b 19       		.uleb128 0x19
 2264 013c 20       		.uleb128 0x20
 2265 013d 0B       		.uleb128 0xb
 2266 013e 01       		.uleb128 0x1
 2267 013f 13       		.uleb128 0x13
 2268 0140 00       		.byte	0
 2269 0141 00       		.byte	0
 2270 0142 1B       		.uleb128 0x1b
 2271 0143 05       		.uleb128 0x5
ARM GAS  C:\Users\jo\AppData\Local\Temp\ccyZVHuW.s 			page 41


 2272 0144 00       		.byte	0
 2273 0145 03       		.uleb128 0x3
 2274 0146 0E       		.uleb128 0xe
 2275 0147 3A       		.uleb128 0x3a
 2276 0148 0B       		.uleb128 0xb
 2277 0149 3B       		.uleb128 0x3b
 2278 014a 05       		.uleb128 0x5
 2279 014b 49       		.uleb128 0x49
 2280 014c 13       		.uleb128 0x13
 2281 014d 00       		.byte	0
 2282 014e 00       		.byte	0
 2283 014f 1C       		.uleb128 0x1c
 2284 0150 2E       		.uleb128 0x2e
 2285 0151 00       		.byte	0
 2286 0152 03       		.uleb128 0x3
 2287 0153 0E       		.uleb128 0xe
 2288 0154 3A       		.uleb128 0x3a
 2289 0155 0B       		.uleb128 0xb
 2290 0156 3B       		.uleb128 0x3b
 2291 0157 05       		.uleb128 0x5
 2292 0158 27       		.uleb128 0x27
 2293 0159 19       		.uleb128 0x19
 2294 015a 20       		.uleb128 0x20
 2295 015b 0B       		.uleb128 0xb
 2296 015c 00       		.byte	0
 2297 015d 00       		.byte	0
 2298 015e 1D       		.uleb128 0x1d
 2299 015f 05       		.uleb128 0x5
 2300 0160 00       		.byte	0
 2301 0161 03       		.uleb128 0x3
 2302 0162 08       		.uleb128 0x8
 2303 0163 3A       		.uleb128 0x3a
 2304 0164 0B       		.uleb128 0xb
 2305 0165 3B       		.uleb128 0x3b
 2306 0166 05       		.uleb128 0x5
 2307 0167 49       		.uleb128 0x49
 2308 0168 13       		.uleb128 0x13
 2309 0169 00       		.byte	0
 2310 016a 00       		.byte	0
 2311 016b 1E       		.uleb128 0x1e
 2312 016c 2E       		.uleb128 0x2e
 2313 016d 01       		.byte	0x1
 2314 016e 03       		.uleb128 0x3
 2315 016f 0E       		.uleb128 0xe
 2316 0170 3A       		.uleb128 0x3a
 2317 0171 0B       		.uleb128 0xb
 2318 0172 3B       		.uleb128 0x3b
 2319 0173 0B       		.uleb128 0xb
 2320 0174 27       		.uleb128 0x27
 2321 0175 19       		.uleb128 0x19
 2322 0176 49       		.uleb128 0x49
 2323 0177 13       		.uleb128 0x13
 2324 0178 20       		.uleb128 0x20
 2325 0179 0B       		.uleb128 0xb
 2326 017a 01       		.uleb128 0x1
 2327 017b 13       		.uleb128 0x13
 2328 017c 00       		.byte	0
ARM GAS  C:\Users\jo\AppData\Local\Temp\ccyZVHuW.s 			page 42


 2329 017d 00       		.byte	0
 2330 017e 1F       		.uleb128 0x1f
 2331 017f 05       		.uleb128 0x5
 2332 0180 00       		.byte	0
 2333 0181 03       		.uleb128 0x3
 2334 0182 08       		.uleb128 0x8
 2335 0183 3A       		.uleb128 0x3a
 2336 0184 0B       		.uleb128 0xb
 2337 0185 3B       		.uleb128 0x3b
 2338 0186 0B       		.uleb128 0xb
 2339 0187 49       		.uleb128 0x49
 2340 0188 13       		.uleb128 0x13
 2341 0189 00       		.byte	0
 2342 018a 00       		.byte	0
 2343 018b 20       		.uleb128 0x20
 2344 018c 2E       		.uleb128 0x2e
 2345 018d 01       		.byte	0x1
 2346 018e 03       		.uleb128 0x3
 2347 018f 0E       		.uleb128 0xe
 2348 0190 3A       		.uleb128 0x3a
 2349 0191 0B       		.uleb128 0xb
 2350 0192 3B       		.uleb128 0x3b
 2351 0193 05       		.uleb128 0x5
 2352 0194 27       		.uleb128 0x27
 2353 0195 19       		.uleb128 0x19
 2354 0196 49       		.uleb128 0x49
 2355 0197 13       		.uleb128 0x13
 2356 0198 20       		.uleb128 0x20
 2357 0199 0B       		.uleb128 0xb
 2358 019a 01       		.uleb128 0x1
 2359 019b 13       		.uleb128 0x13
 2360 019c 00       		.byte	0
 2361 019d 00       		.byte	0
 2362 019e 21       		.uleb128 0x21
 2363 019f 34       		.uleb128 0x34
 2364 01a0 00       		.byte	0
 2365 01a1 03       		.uleb128 0x3
 2366 01a2 08       		.uleb128 0x8
 2367 01a3 3A       		.uleb128 0x3a
 2368 01a4 0B       		.uleb128 0xb
 2369 01a5 3B       		.uleb128 0x3b
 2370 01a6 05       		.uleb128 0x5
 2371 01a7 49       		.uleb128 0x49
 2372 01a8 13       		.uleb128 0x13
 2373 01a9 00       		.byte	0
 2374 01aa 00       		.byte	0
 2375 01ab 22       		.uleb128 0x22
 2376 01ac 2E       		.uleb128 0x2e
 2377 01ad 01       		.byte	0x1
 2378 01ae 03       		.uleb128 0x3
 2379 01af 0E       		.uleb128 0xe
 2380 01b0 3A       		.uleb128 0x3a
 2381 01b1 0B       		.uleb128 0xb
 2382 01b2 3B       		.uleb128 0x3b
 2383 01b3 0B       		.uleb128 0xb
 2384 01b4 27       		.uleb128 0x27
 2385 01b5 19       		.uleb128 0x19
ARM GAS  C:\Users\jo\AppData\Local\Temp\ccyZVHuW.s 			page 43


 2386 01b6 20       		.uleb128 0x20
 2387 01b7 0B       		.uleb128 0xb
 2388 01b8 01       		.uleb128 0x1
 2389 01b9 13       		.uleb128 0x13
 2390 01ba 00       		.byte	0
 2391 01bb 00       		.byte	0
 2392 01bc 23       		.uleb128 0x23
 2393 01bd 34       		.uleb128 0x34
 2394 01be 00       		.byte	0
 2395 01bf 03       		.uleb128 0x3
 2396 01c0 0E       		.uleb128 0xe
 2397 01c1 49       		.uleb128 0x49
 2398 01c2 13       		.uleb128 0x13
 2399 01c3 34       		.uleb128 0x34
 2400 01c4 19       		.uleb128 0x19
 2401 01c5 1C       		.uleb128 0x1c
 2402 01c6 0E       		.uleb128 0xe
 2403 01c7 00       		.byte	0
 2404 01c8 00       		.byte	0
 2405 01c9 24       		.uleb128 0x24
 2406 01ca 2E       		.uleb128 0x2e
 2407 01cb 01       		.byte	0x1
 2408 01cc 3F       		.uleb128 0x3f
 2409 01cd 19       		.uleb128 0x19
 2410 01ce 03       		.uleb128 0x3
 2411 01cf 0E       		.uleb128 0xe
 2412 01d0 3A       		.uleb128 0x3a
 2413 01d1 0B       		.uleb128 0xb
 2414 01d2 3B       		.uleb128 0x3b
 2415 01d3 0B       		.uleb128 0xb
 2416 01d4 27       		.uleb128 0x27
 2417 01d5 19       		.uleb128 0x19
 2418 01d6 49       		.uleb128 0x49
 2419 01d7 13       		.uleb128 0x13
 2420 01d8 11       		.uleb128 0x11
 2421 01d9 01       		.uleb128 0x1
 2422 01da 12       		.uleb128 0x12
 2423 01db 06       		.uleb128 0x6
 2424 01dc 40       		.uleb128 0x40
 2425 01dd 18       		.uleb128 0x18
 2426 01de 9742     		.uleb128 0x2117
 2427 01e0 19       		.uleb128 0x19
 2428 01e1 01       		.uleb128 0x1
 2429 01e2 13       		.uleb128 0x13
 2430 01e3 00       		.byte	0
 2431 01e4 00       		.byte	0
 2432 01e5 25       		.uleb128 0x25
 2433 01e6 05       		.uleb128 0x5
 2434 01e7 00       		.byte	0
 2435 01e8 03       		.uleb128 0x3
 2436 01e9 08       		.uleb128 0x8
 2437 01ea 3A       		.uleb128 0x3a
 2438 01eb 0B       		.uleb128 0xb
 2439 01ec 3B       		.uleb128 0x3b
 2440 01ed 0B       		.uleb128 0xb
 2441 01ee 49       		.uleb128 0x49
 2442 01ef 13       		.uleb128 0x13
ARM GAS  C:\Users\jo\AppData\Local\Temp\ccyZVHuW.s 			page 44


 2443 01f0 02       		.uleb128 0x2
 2444 01f1 17       		.uleb128 0x17
 2445 01f2 00       		.byte	0
 2446 01f3 00       		.byte	0
 2447 01f4 26       		.uleb128 0x26
 2448 01f5 34       		.uleb128 0x34
 2449 01f6 00       		.byte	0
 2450 01f7 03       		.uleb128 0x3
 2451 01f8 08       		.uleb128 0x8
 2452 01f9 3A       		.uleb128 0x3a
 2453 01fa 0B       		.uleb128 0xb
 2454 01fb 3B       		.uleb128 0x3b
 2455 01fc 0B       		.uleb128 0xb
 2456 01fd 49       		.uleb128 0x49
 2457 01fe 13       		.uleb128 0x13
 2458 01ff 02       		.uleb128 0x2
 2459 0200 17       		.uleb128 0x17
 2460 0201 00       		.byte	0
 2461 0202 00       		.byte	0
 2462 0203 27       		.uleb128 0x27
 2463 0204 34       		.uleb128 0x34
 2464 0205 00       		.byte	0
 2465 0206 03       		.uleb128 0x3
 2466 0207 0E       		.uleb128 0xe
 2467 0208 49       		.uleb128 0x49
 2468 0209 13       		.uleb128 0x13
 2469 020a 34       		.uleb128 0x34
 2470 020b 19       		.uleb128 0x19
 2471 020c 02       		.uleb128 0x2
 2472 020d 18       		.uleb128 0x18
 2473 020e 00       		.byte	0
 2474 020f 00       		.byte	0
 2475 0210 28       		.uleb128 0x28
 2476 0211 1D       		.uleb128 0x1d
 2477 0212 01       		.byte	0x1
 2478 0213 31       		.uleb128 0x31
 2479 0214 13       		.uleb128 0x13
 2480 0215 11       		.uleb128 0x11
 2481 0216 01       		.uleb128 0x1
 2482 0217 12       		.uleb128 0x12
 2483 0218 06       		.uleb128 0x6
 2484 0219 58       		.uleb128 0x58
 2485 021a 0B       		.uleb128 0xb
 2486 021b 59       		.uleb128 0x59
 2487 021c 0B       		.uleb128 0xb
 2488 021d 01       		.uleb128 0x1
 2489 021e 13       		.uleb128 0x13
 2490 021f 00       		.byte	0
 2491 0220 00       		.byte	0
 2492 0221 29       		.uleb128 0x29
 2493 0222 1D       		.uleb128 0x1d
 2494 0223 01       		.byte	0x1
 2495 0224 31       		.uleb128 0x31
 2496 0225 13       		.uleb128 0x13
 2497 0226 11       		.uleb128 0x11
 2498 0227 01       		.uleb128 0x1
 2499 0228 12       		.uleb128 0x12
ARM GAS  C:\Users\jo\AppData\Local\Temp\ccyZVHuW.s 			page 45


 2500 0229 06       		.uleb128 0x6
 2501 022a 58       		.uleb128 0x58
 2502 022b 0B       		.uleb128 0xb
 2503 022c 59       		.uleb128 0x59
 2504 022d 05       		.uleb128 0x5
 2505 022e 01       		.uleb128 0x1
 2506 022f 13       		.uleb128 0x13
 2507 0230 00       		.byte	0
 2508 0231 00       		.byte	0
 2509 0232 2A       		.uleb128 0x2a
 2510 0233 1D       		.uleb128 0x1d
 2511 0234 01       		.byte	0x1
 2512 0235 31       		.uleb128 0x31
 2513 0236 13       		.uleb128 0x13
 2514 0237 11       		.uleb128 0x11
 2515 0238 01       		.uleb128 0x1
 2516 0239 12       		.uleb128 0x12
 2517 023a 06       		.uleb128 0x6
 2518 023b 58       		.uleb128 0x58
 2519 023c 0B       		.uleb128 0xb
 2520 023d 59       		.uleb128 0x59
 2521 023e 05       		.uleb128 0x5
 2522 023f 00       		.byte	0
 2523 0240 00       		.byte	0
 2524 0241 2B       		.uleb128 0x2b
 2525 0242 05       		.uleb128 0x5
 2526 0243 00       		.byte	0
 2527 0244 31       		.uleb128 0x31
 2528 0245 13       		.uleb128 0x13
 2529 0246 02       		.uleb128 0x2
 2530 0247 17       		.uleb128 0x17
 2531 0248 00       		.byte	0
 2532 0249 00       		.byte	0
 2533 024a 2C       		.uleb128 0x2c
 2534 024b 898201   		.uleb128 0x4109
 2535 024e 00       		.byte	0
 2536 024f 11       		.uleb128 0x11
 2537 0250 01       		.uleb128 0x1
 2538 0251 31       		.uleb128 0x31
 2539 0252 13       		.uleb128 0x13
 2540 0253 00       		.byte	0
 2541 0254 00       		.byte	0
 2542 0255 2D       		.uleb128 0x2d
 2543 0256 1D       		.uleb128 0x1d
 2544 0257 01       		.byte	0x1
 2545 0258 31       		.uleb128 0x31
 2546 0259 13       		.uleb128 0x13
 2547 025a 52       		.uleb128 0x52
 2548 025b 01       		.uleb128 0x1
 2549 025c 55       		.uleb128 0x55
 2550 025d 17       		.uleb128 0x17
 2551 025e 58       		.uleb128 0x58
 2552 025f 0B       		.uleb128 0xb
 2553 0260 59       		.uleb128 0x59
 2554 0261 0B       		.uleb128 0xb
 2555 0262 01       		.uleb128 0x1
 2556 0263 13       		.uleb128 0x13
ARM GAS  C:\Users\jo\AppData\Local\Temp\ccyZVHuW.s 			page 46


 2557 0264 00       		.byte	0
 2558 0265 00       		.byte	0
 2559 0266 2E       		.uleb128 0x2e
 2560 0267 0B       		.uleb128 0xb
 2561 0268 01       		.byte	0x1
 2562 0269 11       		.uleb128 0x11
 2563 026a 01       		.uleb128 0x1
 2564 026b 12       		.uleb128 0x12
 2565 026c 06       		.uleb128 0x6
 2566 026d 00       		.byte	0
 2567 026e 00       		.byte	0
 2568 026f 2F       		.uleb128 0x2f
 2569 0270 34       		.uleb128 0x34
 2570 0271 00       		.byte	0
 2571 0272 31       		.uleb128 0x31
 2572 0273 13       		.uleb128 0x13
 2573 0274 02       		.uleb128 0x2
 2574 0275 18       		.uleb128 0x18
 2575 0276 00       		.byte	0
 2576 0277 00       		.byte	0
 2577 0278 30       		.uleb128 0x30
 2578 0279 898201   		.uleb128 0x4109
 2579 027c 01       		.byte	0x1
 2580 027d 11       		.uleb128 0x11
 2581 027e 01       		.uleb128 0x1
 2582 027f 31       		.uleb128 0x31
 2583 0280 13       		.uleb128 0x13
 2584 0281 00       		.byte	0
 2585 0282 00       		.byte	0
 2586 0283 31       		.uleb128 0x31
 2587 0284 8A8201   		.uleb128 0x410a
 2588 0287 00       		.byte	0
 2589 0288 02       		.uleb128 0x2
 2590 0289 18       		.uleb128 0x18
 2591 028a 9142     		.uleb128 0x2111
 2592 028c 18       		.uleb128 0x18
 2593 028d 00       		.byte	0
 2594 028e 00       		.byte	0
 2595 028f 32       		.uleb128 0x32
 2596 0290 898201   		.uleb128 0x4109
 2597 0293 01       		.byte	0x1
 2598 0294 11       		.uleb128 0x11
 2599 0295 01       		.uleb128 0x1
 2600 0296 31       		.uleb128 0x31
 2601 0297 13       		.uleb128 0x13
 2602 0298 01       		.uleb128 0x1
 2603 0299 13       		.uleb128 0x13
 2604 029a 00       		.byte	0
 2605 029b 00       		.byte	0
 2606 029c 33       		.uleb128 0x33
 2607 029d 34       		.uleb128 0x34
 2608 029e 00       		.byte	0
 2609 029f 03       		.uleb128 0x3
 2610 02a0 08       		.uleb128 0x8
 2611 02a1 3A       		.uleb128 0x3a
 2612 02a2 0B       		.uleb128 0xb
 2613 02a3 3B       		.uleb128 0x3b
ARM GAS  C:\Users\jo\AppData\Local\Temp\ccyZVHuW.s 			page 47


 2614 02a4 0B       		.uleb128 0xb
 2615 02a5 49       		.uleb128 0x49
 2616 02a6 13       		.uleb128 0x13
 2617 02a7 02       		.uleb128 0x2
 2618 02a8 18       		.uleb128 0x18
 2619 02a9 00       		.byte	0
 2620 02aa 00       		.byte	0
 2621 02ab 34       		.uleb128 0x34
 2622 02ac 05       		.uleb128 0x5
 2623 02ad 00       		.byte	0
 2624 02ae 31       		.uleb128 0x31
 2625 02af 13       		.uleb128 0x13
 2626 02b0 1C       		.uleb128 0x1c
 2627 02b1 0B       		.uleb128 0xb
 2628 02b2 00       		.byte	0
 2629 02b3 00       		.byte	0
 2630 02b4 35       		.uleb128 0x35
 2631 02b5 0B       		.uleb128 0xb
 2632 02b6 01       		.byte	0x1
 2633 02b7 55       		.uleb128 0x55
 2634 02b8 17       		.uleb128 0x17
 2635 02b9 00       		.byte	0
 2636 02ba 00       		.byte	0
 2637 02bb 36       		.uleb128 0x36
 2638 02bc 34       		.uleb128 0x34
 2639 02bd 00       		.byte	0
 2640 02be 31       		.uleb128 0x31
 2641 02bf 13       		.uleb128 0x13
 2642 02c0 02       		.uleb128 0x2
 2643 02c1 17       		.uleb128 0x17
 2644 02c2 00       		.byte	0
 2645 02c3 00       		.byte	0
 2646 02c4 37       		.uleb128 0x37
 2647 02c5 2E       		.uleb128 0x2e
 2648 02c6 01       		.byte	0x1
 2649 02c7 3F       		.uleb128 0x3f
 2650 02c8 19       		.uleb128 0x19
 2651 02c9 03       		.uleb128 0x3
 2652 02ca 0E       		.uleb128 0xe
 2653 02cb 3A       		.uleb128 0x3a
 2654 02cc 0B       		.uleb128 0xb
 2655 02cd 3B       		.uleb128 0x3b
 2656 02ce 0B       		.uleb128 0xb
 2657 02cf 27       		.uleb128 0x27
 2658 02d0 19       		.uleb128 0x19
 2659 02d1 11       		.uleb128 0x11
 2660 02d2 01       		.uleb128 0x1
 2661 02d3 12       		.uleb128 0x12
 2662 02d4 06       		.uleb128 0x6
 2663 02d5 40       		.uleb128 0x40
 2664 02d6 18       		.uleb128 0x18
 2665 02d7 9742     		.uleb128 0x2117
 2666 02d9 19       		.uleb128 0x19
 2667 02da 01       		.uleb128 0x1
 2668 02db 13       		.uleb128 0x13
 2669 02dc 00       		.byte	0
 2670 02dd 00       		.byte	0
ARM GAS  C:\Users\jo\AppData\Local\Temp\ccyZVHuW.s 			page 48


 2671 02de 38       		.uleb128 0x38
 2672 02df 34       		.uleb128 0x34
 2673 02e0 00       		.byte	0
 2674 02e1 03       		.uleb128 0x3
 2675 02e2 0E       		.uleb128 0xe
 2676 02e3 3A       		.uleb128 0x3a
 2677 02e4 0B       		.uleb128 0xb
 2678 02e5 3B       		.uleb128 0x3b
 2679 02e6 05       		.uleb128 0x5
 2680 02e7 49       		.uleb128 0x49
 2681 02e8 13       		.uleb128 0x13
 2682 02e9 3F       		.uleb128 0x3f
 2683 02ea 19       		.uleb128 0x19
 2684 02eb 3C       		.uleb128 0x3c
 2685 02ec 19       		.uleb128 0x19
 2686 02ed 00       		.byte	0
 2687 02ee 00       		.byte	0
 2688 02ef 39       		.uleb128 0x39
 2689 02f0 34       		.uleb128 0x34
 2690 02f1 00       		.byte	0
 2691 02f2 03       		.uleb128 0x3
 2692 02f3 08       		.uleb128 0x8
 2693 02f4 3A       		.uleb128 0x3a
 2694 02f5 0B       		.uleb128 0xb
 2695 02f6 3B       		.uleb128 0x3b
 2696 02f7 05       		.uleb128 0x5
 2697 02f8 49       		.uleb128 0x49
 2698 02f9 13       		.uleb128 0x13
 2699 02fa 3F       		.uleb128 0x3f
 2700 02fb 19       		.uleb128 0x19
 2701 02fc 3C       		.uleb128 0x3c
 2702 02fd 19       		.uleb128 0x19
 2703 02fe 00       		.byte	0
 2704 02ff 00       		.byte	0
 2705 0300 3A       		.uleb128 0x3a
 2706 0301 2E       		.uleb128 0x2e
 2707 0302 00       		.byte	0
 2708 0303 3F       		.uleb128 0x3f
 2709 0304 19       		.uleb128 0x19
 2710 0305 03       		.uleb128 0x3
 2711 0306 0E       		.uleb128 0xe
 2712 0307 3A       		.uleb128 0x3a
 2713 0308 0B       		.uleb128 0xb
 2714 0309 3B       		.uleb128 0x3b
 2715 030a 0B       		.uleb128 0xb
 2716 030b 27       		.uleb128 0x27
 2717 030c 19       		.uleb128 0x19
 2718 030d 3C       		.uleb128 0x3c
 2719 030e 19       		.uleb128 0x19
 2720 030f 00       		.byte	0
 2721 0310 00       		.byte	0
 2722 0311 3B       		.uleb128 0x3b
 2723 0312 2E       		.uleb128 0x2e
 2724 0313 01       		.byte	0x1
 2725 0314 3F       		.uleb128 0x3f
 2726 0315 19       		.uleb128 0x19
 2727 0316 03       		.uleb128 0x3
ARM GAS  C:\Users\jo\AppData\Local\Temp\ccyZVHuW.s 			page 49


 2728 0317 0E       		.uleb128 0xe
 2729 0318 3A       		.uleb128 0x3a
 2730 0319 0B       		.uleb128 0xb
 2731 031a 3B       		.uleb128 0x3b
 2732 031b 05       		.uleb128 0x5
 2733 031c 27       		.uleb128 0x27
 2734 031d 19       		.uleb128 0x19
 2735 031e 3C       		.uleb128 0x3c
 2736 031f 19       		.uleb128 0x19
 2737 0320 01       		.uleb128 0x1
 2738 0321 13       		.uleb128 0x13
 2739 0322 00       		.byte	0
 2740 0323 00       		.byte	0
 2741 0324 3C       		.uleb128 0x3c
 2742 0325 2E       		.uleb128 0x2e
 2743 0326 01       		.byte	0x1
 2744 0327 3F       		.uleb128 0x3f
 2745 0328 19       		.uleb128 0x19
 2746 0329 03       		.uleb128 0x3
 2747 032a 0E       		.uleb128 0xe
 2748 032b 3A       		.uleb128 0x3a
 2749 032c 0B       		.uleb128 0xb
 2750 032d 3B       		.uleb128 0x3b
 2751 032e 05       		.uleb128 0x5
 2752 032f 27       		.uleb128 0x27
 2753 0330 19       		.uleb128 0x19
 2754 0331 49       		.uleb128 0x49
 2755 0332 13       		.uleb128 0x13
 2756 0333 3C       		.uleb128 0x3c
 2757 0334 19       		.uleb128 0x19
 2758 0335 01       		.uleb128 0x1
 2759 0336 13       		.uleb128 0x13
 2760 0337 00       		.byte	0
 2761 0338 00       		.byte	0
 2762 0339 3D       		.uleb128 0x3d
 2763 033a 2E       		.uleb128 0x2e
 2764 033b 01       		.byte	0x1
 2765 033c 3F       		.uleb128 0x3f
 2766 033d 19       		.uleb128 0x19
 2767 033e 03       		.uleb128 0x3
 2768 033f 0E       		.uleb128 0xe
 2769 0340 3A       		.uleb128 0x3a
 2770 0341 0B       		.uleb128 0xb
 2771 0342 3B       		.uleb128 0x3b
 2772 0343 05       		.uleb128 0x5
 2773 0344 27       		.uleb128 0x27
 2774 0345 19       		.uleb128 0x19
 2775 0346 3C       		.uleb128 0x3c
 2776 0347 19       		.uleb128 0x19
 2777 0348 00       		.byte	0
 2778 0349 00       		.byte	0
 2779 034a 00       		.byte	0
 2780              		.section	.debug_loc,"",%progbits
 2781              	.Ldebug_loc0:
 2782              	.LLST0:
 2783 0000 00000000 		.4byte	.LVL0
 2784 0004 0C000000 		.4byte	.LVL2
ARM GAS  C:\Users\jo\AppData\Local\Temp\ccyZVHuW.s 			page 50


 2785 0008 0100     		.2byte	0x1
 2786 000a 50       		.byte	0x50
 2787 000b 0C000000 		.4byte	.LVL2
 2788 000f 66000000 		.4byte	.LVL12
 2789 0013 0100     		.2byte	0x1
 2790 0015 55       		.byte	0x55
 2791 0016 66000000 		.4byte	.LVL12
 2792 001a 68000000 		.4byte	.LVL13
 2793 001e 0100     		.2byte	0x1
 2794 0020 50       		.byte	0x50
 2795 0021 68000000 		.4byte	.LVL13
 2796 0025 7C000000 		.4byte	.LFE228
 2797 0029 0100     		.2byte	0x1
 2798 002b 55       		.byte	0x55
 2799 002c 00000000 		.4byte	0
 2800 0030 00000000 		.4byte	0
 2801              	.LLST1:
 2802 0034 00000000 		.4byte	.LVL0
 2803 0038 0C000000 		.4byte	.LVL2
 2804 003c 0100     		.2byte	0x1
 2805 003e 51       		.byte	0x51
 2806 003f 0C000000 		.4byte	.LVL2
 2807 0043 38000000 		.4byte	.LVL7
 2808 0047 0100     		.2byte	0x1
 2809 0049 57       		.byte	0x57
 2810 004a 38000000 		.4byte	.LVL7
 2811 004e 5E000000 		.4byte	.LVL10
 2812 0052 0100     		.2byte	0x1
 2813 0054 54       		.byte	0x54
 2814 0055 5E000000 		.4byte	.LVL10
 2815 0059 66000000 		.4byte	.LVL12
 2816 005d 0100     		.2byte	0x1
 2817 005f 57       		.byte	0x57
 2818 0060 66000000 		.4byte	.LVL12
 2819 0064 6B000000 		.4byte	.LVL14-1
 2820 0068 0100     		.2byte	0x1
 2821 006a 51       		.byte	0x51
 2822 006b 6B000000 		.4byte	.LVL14-1
 2823 006f 7C000000 		.4byte	.LFE228
 2824 0073 0100     		.2byte	0x1
 2825 0075 57       		.byte	0x57
 2826 0076 00000000 		.4byte	0
 2827 007a 00000000 		.4byte	0
 2828              	.LLST2:
 2829 007e 08000000 		.4byte	.LVL1
 2830 0082 38000000 		.4byte	.LVL7
 2831 0086 0100     		.2byte	0x1
 2832 0088 54       		.byte	0x54
 2833 0089 5E000000 		.4byte	.LVL10
 2834 008d 7C000000 		.4byte	.LFE228
 2835 0091 0100     		.2byte	0x1
 2836 0093 54       		.byte	0x54
 2837 0094 00000000 		.4byte	0
 2838 0098 00000000 		.4byte	0
 2839              	.LLST3:
 2840 009c 0C000000 		.4byte	.LVL2
 2841 00a0 66000000 		.4byte	.LVL12
ARM GAS  C:\Users\jo\AppData\Local\Temp\ccyZVHuW.s 			page 51


 2842 00a4 0300     		.2byte	0x3
 2843 00a6 08       		.byte	0x8
 2844 00a7 20       		.byte	0x20
 2845 00a8 9F       		.byte	0x9f
 2846 00a9 00000000 		.4byte	0
 2847 00ad 00000000 		.4byte	0
 2848              	.LLST4:
 2849 00b1 20000000 		.4byte	.LVL4
 2850 00b5 30000000 		.4byte	.LVL5
 2851 00b9 0100     		.2byte	0x1
 2852 00bb 52       		.byte	0x52
 2853 00bc 30000000 		.4byte	.LVL5
 2854 00c0 5E000000 		.4byte	.LVL10
 2855 00c4 0300     		.2byte	0x3
 2856 00c6 75       		.byte	0x75
 2857 00c7 2C       		.sleb128 44
 2858 00c8 9F       		.byte	0x9f
 2859 00c9 5E000000 		.4byte	.LVL10
 2860 00cd 63000000 		.4byte	.LVL11-1
 2861 00d1 0100     		.2byte	0x1
 2862 00d3 52       		.byte	0x52
 2863 00d4 63000000 		.4byte	.LVL11-1
 2864 00d8 66000000 		.4byte	.LVL12
 2865 00dc 0300     		.2byte	0x3
 2866 00de 75       		.byte	0x75
 2867 00df 2C       		.sleb128 44
 2868 00e0 9F       		.byte	0x9f
 2869 00e1 00000000 		.4byte	0
 2870 00e5 00000000 		.4byte	0
 2871              	.LLST5:
 2872 00e9 20000000 		.4byte	.LVL4
 2873 00ed 38000000 		.4byte	.LVL7
 2874 00f1 0100     		.2byte	0x1
 2875 00f3 54       		.byte	0x54
 2876 00f4 5E000000 		.4byte	.LVL10
 2877 00f8 66000000 		.4byte	.LVL12
 2878 00fc 0100     		.2byte	0x1
 2879 00fe 54       		.byte	0x54
 2880 00ff 00000000 		.4byte	0
 2881 0103 00000000 		.4byte	0
 2882              	.LLST6:
 2883 0107 54000000 		.4byte	.LVL9
 2884 010b 5E000000 		.4byte	.LVL10
 2885 010f 0200     		.2byte	0x2
 2886 0111 30       		.byte	0x30
 2887 0112 9F       		.byte	0x9f
 2888 0113 00000000 		.4byte	0
 2889 0117 00000000 		.4byte	0
 2890              	.LLST7:
 2891 011b 10000000 		.4byte	.LVL17
 2892 011f 18000000 		.4byte	.LVL19
 2893 0123 0100     		.2byte	0x1
 2894 0125 55       		.byte	0x55
 2895 0126 18000000 		.4byte	.LVL19
 2896 012a 22000000 		.4byte	.LVL21
 2897 012e 0300     		.2byte	0x3
 2898 0130 75       		.byte	0x75
ARM GAS  C:\Users\jo\AppData\Local\Temp\ccyZVHuW.s 			page 52


 2899 0131 54       		.sleb128 -44
 2900 0132 9F       		.byte	0x9f
 2901 0133 54000000 		.4byte	.LVL25
 2902 0137 64000000 		.4byte	.LFE229
 2903 013b 0300     		.2byte	0x3
 2904 013d 75       		.byte	0x75
 2905 013e 54       		.sleb128 -44
 2906 013f 9F       		.byte	0x9f
 2907 0140 00000000 		.4byte	0
 2908 0144 00000000 		.4byte	0
 2909              	.LLST8:
 2910 0148 1E000000 		.4byte	.LVL20
 2911 014c 28000000 		.4byte	.LVL22
 2912 0150 0300     		.2byte	0x3
 2913 0152 73       		.byte	0x73
 2914 0153 2C       		.sleb128 44
 2915 0154 9F       		.byte	0x9f
 2916 0155 28000000 		.4byte	.LVL22
 2917 0159 33000000 		.4byte	.LVL23-1
 2918 015d 0100     		.2byte	0x1
 2919 015f 53       		.byte	0x53
 2920 0160 00000000 		.4byte	0
 2921 0164 00000000 		.4byte	0
 2922              	.LLST9:
 2923 0168 22000000 		.4byte	.LVL21
 2924 016c 54000000 		.4byte	.LVL25
 2925 0170 0100     		.2byte	0x1
 2926 0172 55       		.byte	0x55
 2927 0173 00000000 		.4byte	0
 2928 0177 00000000 		.4byte	0
 2929              	.LLST10:
 2930 017b 4A000000 		.4byte	.LVL24
 2931 017f 54000000 		.4byte	.LVL25
 2932 0183 0200     		.2byte	0x2
 2933 0185 30       		.byte	0x30
 2934 0186 9F       		.byte	0x9f
 2935 0187 00000000 		.4byte	0
 2936 018b 00000000 		.4byte	0
 2937              	.LLST11:
 2938 018f 00000000 		.4byte	.LVL27
 2939 0193 0F000000 		.4byte	.LVL28-1
 2940 0197 0100     		.2byte	0x1
 2941 0199 50       		.byte	0x50
 2942 019a 0F000000 		.4byte	.LVL28-1
 2943 019e 4E000000 		.4byte	.LVL34
 2944 01a2 0100     		.2byte	0x1
 2945 01a4 54       		.byte	0x54
 2946 01a5 4E000000 		.4byte	.LVL34
 2947 01a9 5C000000 		.4byte	.LFE230
 2948 01ad 0400     		.2byte	0x4
 2949 01af F3       		.byte	0xf3
 2950 01b0 01       		.uleb128 0x1
 2951 01b1 50       		.byte	0x50
 2952 01b2 9F       		.byte	0x9f
 2953 01b3 00000000 		.4byte	0
 2954 01b7 00000000 		.4byte	0
 2955              	.LLST12:
ARM GAS  C:\Users\jo\AppData\Local\Temp\ccyZVHuW.s 			page 53


 2956 01bb 00000000 		.4byte	.LVL27
 2957 01bf 0F000000 		.4byte	.LVL28-1
 2958 01c3 0100     		.2byte	0x1
 2959 01c5 51       		.byte	0x51
 2960 01c6 0F000000 		.4byte	.LVL28-1
 2961 01ca 4E000000 		.4byte	.LVL34
 2962 01ce 0100     		.2byte	0x1
 2963 01d0 55       		.byte	0x55
 2964 01d1 4E000000 		.4byte	.LVL34
 2965 01d5 5C000000 		.4byte	.LFE230
 2966 01d9 0400     		.2byte	0x4
 2967 01db F3       		.byte	0xf3
 2968 01dc 01       		.uleb128 0x1
 2969 01dd 51       		.byte	0x51
 2970 01de 9F       		.byte	0x9f
 2971 01df 00000000 		.4byte	0
 2972 01e3 00000000 		.4byte	0
 2973              	.LLST13:
 2974 01e7 1E000000 		.4byte	.LVL29
 2975 01eb 4E000000 		.4byte	.LVL34
 2976 01ef 0100     		.2byte	0x1
 2977 01f1 55       		.byte	0x55
 2978 01f2 4E000000 		.4byte	.LVL34
 2979 01f6 5C000000 		.4byte	.LFE230
 2980 01fa 0400     		.2byte	0x4
 2981 01fc F3       		.byte	0xf3
 2982 01fd 01       		.uleb128 0x1
 2983 01fe 51       		.byte	0x51
 2984 01ff 9F       		.byte	0x9f
 2985 0200 00000000 		.4byte	0
 2986 0204 00000000 		.4byte	0
 2987              	.LLST14:
 2988 0208 1E000000 		.4byte	.LVL29
 2989 020c 4E000000 		.4byte	.LVL34
 2990 0210 0100     		.2byte	0x1
 2991 0212 54       		.byte	0x54
 2992 0213 4E000000 		.4byte	.LVL34
 2993 0217 5C000000 		.4byte	.LFE230
 2994 021b 0400     		.2byte	0x4
 2995 021d F3       		.byte	0xf3
 2996 021e 01       		.uleb128 0x1
 2997 021f 50       		.byte	0x50
 2998 0220 9F       		.byte	0x9f
 2999 0221 00000000 		.4byte	0
 3000 0225 00000000 		.4byte	0
 3001              		.section	.debug_aranges,"",%progbits
 3002 0000 2C000000 		.4byte	0x2c
 3003 0004 0200     		.2byte	0x2
 3004 0006 00000000 		.4byte	.Ldebug_info0
 3005 000a 04       		.byte	0x4
 3006 000b 00       		.byte	0
 3007 000c 0000     		.2byte	0
 3008 000e 0000     		.2byte	0
 3009 0010 00000000 		.4byte	.LFB228
 3010 0014 7C000000 		.4byte	.LFE228-.LFB228
 3011 0018 00000000 		.4byte	.LFB229
 3012 001c 64000000 		.4byte	.LFE229-.LFB229
ARM GAS  C:\Users\jo\AppData\Local\Temp\ccyZVHuW.s 			page 54


 3013 0020 00000000 		.4byte	.LFB230
 3014 0024 5C000000 		.4byte	.LFE230-.LFB230
 3015 0028 00000000 		.4byte	0
 3016 002c 00000000 		.4byte	0
 3017              		.section	.debug_ranges,"",%progbits
 3018              	.Ldebug_ranges0:
 3019 0000 20000000 		.4byte	.LBB54
 3020 0004 22000000 		.4byte	.LBE54
 3021 0008 26000000 		.4byte	.LBB57
 3022 000c 2E000000 		.4byte	.LBE57
 3023 0010 00000000 		.4byte	0
 3024 0014 00000000 		.4byte	0
 3025 0018 02000000 		.4byte	.LBB77
 3026 001c 08000000 		.4byte	.LBE77
 3027 0020 0A000000 		.4byte	.LBB83
 3028 0024 0E000000 		.4byte	.LBE83
 3029 0028 00000000 		.4byte	0
 3030 002c 00000000 		.4byte	0
 3031 0030 10000000 		.4byte	.LBB84
 3032 0034 14000000 		.4byte	.LBE84
 3033 0038 16000000 		.4byte	.LBB87
 3034 003c 18000000 		.4byte	.LBE87
 3035 0040 00000000 		.4byte	0
 3036 0044 00000000 		.4byte	0
 3037 0048 20000000 		.4byte	.LBB88
 3038 004c 28000000 		.4byte	.LBE88
 3039 0050 2A000000 		.4byte	.LBB91
 3040 0054 2C000000 		.4byte	.LBE91
 3041 0058 00000000 		.4byte	0
 3042 005c 00000000 		.4byte	0
 3043 0060 00000000 		.4byte	.LFB228
 3044 0064 7C000000 		.4byte	.LFE228
 3045 0068 00000000 		.4byte	.LFB229
 3046 006c 64000000 		.4byte	.LFE229
 3047 0070 00000000 		.4byte	.LFB230
 3048 0074 5C000000 		.4byte	.LFE230
 3049 0078 00000000 		.4byte	0
 3050 007c 00000000 		.4byte	0
 3051              		.section	.debug_line,"",%progbits
 3052              	.Ldebug_line0:
 3053 0000 1E030000 		.section	.debug_str,"MS",%progbits,1
 3053      02000D02 
 3053      00000201 
 3053      FB0E0D00 
 3053      01010101 
 3054              	.LASF93:
 3055 0000 74625F70 		.ascii	"tb_ptr\000"
 3055      747200
 3056              	.LASF51:
 3057 0007 72656164 		.ascii	"ready_list_t\000"
 3057      795F6C69 
 3057      73745F74 
 3057      00
 3058              	.LASF118:
 3059 0014 71756575 		.ascii	"queue_insert\000"
 3059      655F696E 
 3059      73657274 
ARM GAS  C:\Users\jo\AppData\Local\Temp\ccyZVHuW.s 			page 55


 3059      00
 3060              	.LASF101:
 3061 0021 77747472 		.ascii	"wttrp\000"
 3061      7000
 3062              	.LASF98:
 3063 0027 7264796D 		.ascii	"rdymsg\000"
 3063      736700
 3064              	.LASF16:
 3065 002e 75696E74 		.ascii	"uint64_t\000"
 3065      36345F74 
 3065      00
 3066              	.LASF5:
 3067 0037 5F5F7569 		.ascii	"__uint8_t\000"
 3067      6E74385F 
 3067      7400
 3068              	.LASF86:
 3069 0041 706F7274 		.ascii	"port_intctx\000"
 3069      5F696E74 
 3069      63747800 
 3070              	.LASF70:
 3071 004d 73797374 		.ascii	"system_debug_t\000"
 3071      656D5F64 
 3071      65627567 
 3071      5F7400
 3072              	.LASF114:
 3073 005c 706F7274 		.ascii	"port_lock\000"
 3073      5F6C6F63 
 3073      6B00
 3074              	.LASF131:
 3075 0066 63685379 		.ascii	"chSysHalt\000"
 3075      7348616C 
 3075      7400
 3076              	.LASF12:
 3077 0070 6C6F6E67 		.ascii	"long long unsigned int\000"
 3077      206C6F6E 
 3077      6720756E 
 3077      7369676E 
 3077      65642069 
 3078              	.LASF95:
 3079 0087 63685F74 		.ascii	"ch_trace_buffer_t\000"
 3079      72616365 
 3079      5F627566 
 3079      6665725F 
 3079      7400
 3080              	.LASF90:
 3081 0099 73655F73 		.ascii	"se_state\000"
 3081      74617465 
 3081      00
 3082              	.LASF99:
 3083 00a2 65786974 		.ascii	"exitcode\000"
 3083      636F6465 
 3083      00
 3084              	.LASF80:
 3085 00ab 6D61696E 		.ascii	"mainthread\000"
 3085      74687265 
 3085      616400
 3086              	.LASF67:
ARM GAS  C:\Users\jo\AppData\Local\Temp\ccyZVHuW.s 			page 56


 3087 00b6 76697274 		.ascii	"virtual_timers_list_t\000"
 3087      75616C5F 
 3087      74696D65 
 3087      72735F6C 
 3087      6973745F 
 3088              	.LASF128:
 3089 00cc 49544D5F 		.ascii	"ITM_RxBuffer\000"
 3089      52784275 
 3089      66666572 
 3089      00
 3090              	.LASF50:
 3091 00d9 63685F74 		.ascii	"ch_threads_queue\000"
 3091      68726561 
 3091      64735F71 
 3091      75657565 
 3091      00
 3092              	.LASF29:
 3093 00ea 705F7072 		.ascii	"p_prio\000"
 3093      696F00
 3094              	.LASF137:
 3095 00f1 433A5C55 		.ascii	"C:\\Users\\jo\\Documents\\GitHub\\ChibiOS\\demos\\S"
 3095      73657273 
 3095      5C6A6F5C 
 3095      446F6375 
 3095      6D656E74 
 3096 011d 544D3332 		.ascii	"TM32\\RT-STM32F407-DISCOVERY-uHttp\000"
 3096      5C52542D 
 3096      53544D33 
 3096      32463430 
 3096      372D4449 
 3097              	.LASF10:
 3098 013f 6C6F6E67 		.ascii	"long long int\000"
 3098      206C6F6E 
 3098      6720696E 
 3098      7400
 3099              	.LASF1:
 3100 014d 7369676E 		.ascii	"signed char\000"
 3100      65642063 
 3100      68617200 
 3101              	.LASF87:
 3102 0159 73655F74 		.ascii	"se_time\000"
 3102      696D6500 
 3103              	.LASF44:
 3104 0161 705F6D70 		.ascii	"p_mpool\000"
 3104      6F6F6C00 
 3105              	.LASF109:
 3106 0169 6D5F7175 		.ascii	"m_queue\000"
 3106      65756500 
 3107              	.LASF79:
 3108 0171 76746C69 		.ascii	"vtlist\000"
 3108      737400
 3109              	.LASF115:
 3110 0178 706F7274 		.ascii	"port_unlock\000"
 3110      5F756E6C 
 3110      6F636B00 
 3111              	.LASF77:
 3112 0184 63685F73 		.ascii	"ch_system\000"
ARM GAS  C:\Users\jo\AppData\Local\Temp\ccyZVHuW.s 			page 57


 3112      79737465 
 3112      6D00
 3113              	.LASF7:
 3114 018e 6C6F6E67 		.ascii	"long int\000"
 3114      20696E74 
 3114      00
 3115              	.LASF126:
 3116 0197 63684D73 		.ascii	"chMsgSend\000"
 3116      6753656E 
 3116      6400
 3117              	.LASF19:
 3118 01a1 74737461 		.ascii	"tstate_t\000"
 3118      74655F74 
 3118      00
 3119              	.LASF88:
 3120 01aa 73655F74 		.ascii	"se_tp\000"
 3120      7000
 3121              	.LASF121:
 3122 01b0 63684D73 		.ascii	"chMsgIsPendingI\000"
 3122      67497350 
 3122      656E6469 
 3122      6E674900 
 3123              	.LASF31:
 3124 01c0 705F6E65 		.ascii	"p_newer\000"
 3124      77657200 
 3125              	.LASF106:
 3126 01c8 735F7175 		.ascii	"s_queue\000"
 3126      65756500 
 3127              	.LASF92:
 3128 01d0 74625F73 		.ascii	"tb_size\000"
 3128      697A6500 
 3129              	.LASF56:
 3130 01d8 725F6E65 		.ascii	"r_newer\000"
 3130      77657200 
 3131              	.LASF83:
 3132 01e0 72656761 		.ascii	"regarm_t\000"
 3132      726D5F74 
 3132      00
 3133              	.LASF63:
 3134 01e9 76745F70 		.ascii	"vt_prev\000"
 3134      72657600 
 3135              	.LASF113:
 3136 01f1 6D757465 		.ascii	"mutex_t\000"
 3136      785F7400 
 3137              	.LASF119:
 3138 01f9 76616C75 		.ascii	"value\000"
 3138      6500
 3139              	.LASF74:
 3140 01ff 6C6F636B 		.ascii	"lock_cnt\000"
 3140      5F636E74 
 3140      00
 3141              	.LASF81:
 3142 0208 69646C65 		.ascii	"idle_thread_wa\000"
 3142      5F746872 
 3142      6561645F 
 3142      776100
 3143              	.LASF24:
ARM GAS  C:\Users\jo\AppData\Local\Temp\ccyZVHuW.s 			page 58


 3144 0217 636E745F 		.ascii	"cnt_t\000"
 3144      7400
 3145              	.LASF34:
 3146 021d 705F7374 		.ascii	"p_stklimit\000"
 3146      6B6C696D 
 3146      697400
 3147              	.LASF0:
 3148 0228 756E7369 		.ascii	"unsigned int\000"
 3148      676E6564 
 3148      20696E74 
 3148      00
 3149              	.LASF62:
 3150 0235 76745F6E 		.ascii	"vt_next\000"
 3150      65787400 
 3151              	.LASF102:
 3152 023d 77747365 		.ascii	"wtsemp\000"
 3152      6D7000
 3153              	.LASF64:
 3154 0244 76745F64 		.ascii	"vt_delta\000"
 3154      656C7461 
 3154      00
 3155              	.LASF39:
 3156 024d 705F6D73 		.ascii	"p_msgqueue\000"
 3156      67717565 
 3156      756500
 3157              	.LASF107:
 3158 0258 735F636E 		.ascii	"s_cnt\000"
 3158      7400
 3159              	.LASF4:
 3160 025e 73686F72 		.ascii	"short unsigned int\000"
 3160      7420756E 
 3160      7369676E 
 3160      65642069 
 3160      6E7400
 3161              	.LASF47:
 3162 0271 63685F74 		.ascii	"ch_thread\000"
 3162      68726561 
 3162      6400
 3163              	.LASF140:
 3164 027b 63685363 		.ascii	"chSchWakeupS\000"
 3164      6857616B 
 3164      65757053 
 3164      00
 3165              	.LASF22:
 3166 0288 6D73675F 		.ascii	"msg_t\000"
 3166      7400
 3167              	.LASF133:
 3168 028e 63684462 		.ascii	"chDbgCheckClassI\000"
 3168      67436865 
 3168      636B436C 
 3168      61737349 
 3168      00
 3169              	.LASF76:
 3170 029f 63685F73 		.ascii	"ch_system_t\000"
 3170      79737465 
 3170      6D5F7400 
 3171              	.LASF18:
ARM GAS  C:\Users\jo\AppData\Local\Temp\ccyZVHuW.s 			page 59


 3172 02ab 746D6F64 		.ascii	"tmode_t\000"
 3172      655F7400 
 3173              	.LASF134:
 3174 02b3 63684462 		.ascii	"chDbgCheckClassS\000"
 3174      67436865 
 3174      636B436C 
 3174      61737353 
 3174      00
 3175              	.LASF52:
 3176 02c4 63685F72 		.ascii	"ch_ready_list\000"
 3176      65616479 
 3176      5F6C6973 
 3176      7400
 3177              	.LASF23:
 3178 02d2 6576656E 		.ascii	"eventmask_t\000"
 3178      746D6173 
 3178      6B5F7400 
 3179              	.LASF6:
 3180 02de 5F5F696E 		.ascii	"__int32_t\000"
 3180      7433325F 
 3180      7400
 3181              	.LASF135:
 3182 02e8 474E5520 		.ascii	"GNU C 4.9.3 20141119 (release) [ARM/embedded-4_9-br"
 3182      4320342E 
 3182      392E3320 
 3182      32303134 
 3182      31313139 
 3183 031b 616E6368 		.ascii	"anch revision 218278] -mcpu=cortex-m4 -mno-thumb-in"
 3183      20726576 
 3183      6973696F 
 3183      6E203231 
 3183      38323738 
 3184 034e 74657277 		.ascii	"terwork -mthumb -ggdb -O2 -fomit-frame-pointer -fal"
 3184      6F726B20 
 3184      2D6D7468 
 3184      756D6220 
 3184      2D676764 
 3185 0381 69676E2D 		.ascii	"ign-functions=16 -ffunction-sections -fdata-section"
 3185      66756E63 
 3185      74696F6E 
 3185      733D3136 
 3185      202D6666 
 3186 03b4 73202D66 		.ascii	"s -fno-common\000"
 3186      6E6F2D63 
 3186      6F6D6D6F 
 3186      6E00
 3187              	.LASF84:
 3188 03c2 73746B61 		.ascii	"stkalign_t\000"
 3188      6C69676E 
 3188      5F7400
 3189              	.LASF38:
 3190 03cd 705F7761 		.ascii	"p_waiting\000"
 3190      6974696E 
 3190      6700
 3191              	.LASF82:
 3192 03d7 73697A65 		.ascii	"sizetype\000"
 3192      74797065 
ARM GAS  C:\Users\jo\AppData\Local\Temp\ccyZVHuW.s 			page 60


 3192      00
 3193              	.LASF45:
 3194 03e0 74687265 		.ascii	"thread_reference_t\000"
 3194      61645F72 
 3194      65666572 
 3194      656E6365 
 3194      5F7400
 3195              	.LASF129:
 3196 03f3 5F646267 		.ascii	"_dbg_check_lock\000"
 3196      5F636865 
 3196      636B5F6C 
 3196      6F636B00 
 3197              	.LASF68:
 3198 0403 63685F76 		.ascii	"ch_virtual_timers_list\000"
 3198      69727475 
 3198      616C5F74 
 3198      696D6572 
 3198      735F6C69 
 3199              	.LASF91:
 3200 041a 63685F73 		.ascii	"ch_swc_event_t\000"
 3200      77635F65 
 3200      76656E74 
 3200      5F7400
 3201              	.LASF69:
 3202 0429 76745F6C 		.ascii	"vt_lasttime\000"
 3202      61737474 
 3202      696D6500 
 3203              	.LASF32:
 3204 0435 705F6F6C 		.ascii	"p_older\000"
 3204      64657200 
 3205              	.LASF55:
 3206 043d 725F6374 		.ascii	"r_ctx\000"
 3206      7800
 3207              	.LASF97:
 3208 0443 746D5F63 		.ascii	"tm_calibration_t\000"
 3208      616C6962 
 3208      72617469 
 3208      6F6E5F74 
 3208      00
 3209              	.LASF111:
 3210 0454 6D5F6E65 		.ascii	"m_next\000"
 3210      787400
 3211              	.LASF58:
 3212 045b 725F6375 		.ascii	"r_current\000"
 3212      7272656E 
 3212      7400
 3213              	.LASF57:
 3214 0465 725F6F6C 		.ascii	"r_older\000"
 3214      64657200 
 3215              	.LASF11:
 3216 046d 5F5F7569 		.ascii	"__uint64_t\000"
 3216      6E743634 
 3216      5F7400
 3217              	.LASF20:
 3218 0478 74726566 		.ascii	"trefs_t\000"
 3218      735F7400 
 3219              	.LASF94:
ARM GAS  C:\Users\jo\AppData\Local\Temp\ccyZVHuW.s 			page 61


 3220 0480 74625F62 		.ascii	"tb_buffer\000"
 3220      75666665 
 3220      7200
 3221              	.LASF60:
 3222 048a 76697274 		.ascii	"virtual_timer_t\000"
 3222      75616C5F 
 3222      74696D65 
 3222      725F7400 
 3223              	.LASF28:
 3224 049a 705F7072 		.ascii	"p_prev\000"
 3224      657600
 3225              	.LASF21:
 3226 04a1 74707269 		.ascii	"tprio_t\000"
 3226      6F5F7400 
 3227              	.LASF71:
 3228 04a9 63685F73 		.ascii	"ch_system_debug\000"
 3228      79737465 
 3228      6D5F6465 
 3228      62756700 
 3229              	.LASF120:
 3230 04b9 5F426F6F 		.ascii	"_Bool\000"
 3230      6C00
 3231              	.LASF14:
 3232 04bf 696E7433 		.ascii	"int32_t\000"
 3232      325F7400 
 3233              	.LASF2:
 3234 04c7 756E7369 		.ascii	"unsigned char\000"
 3234      676E6564 
 3234      20636861 
 3234      7200
 3235              	.LASF42:
 3236 04d5 705F6D74 		.ascii	"p_mtxlist\000"
 3236      786C6973 
 3236      7400
 3237              	.LASF3:
 3238 04df 73686F72 		.ascii	"short int\000"
 3238      7420696E 
 3238      7400
 3239              	.LASF35:
 3240 04e9 705F7374 		.ascii	"p_state\000"
 3240      61746500 
 3241              	.LASF54:
 3242 04f1 725F7072 		.ascii	"r_prio\000"
 3242      696F00
 3243              	.LASF104:
 3244 04f8 65776D61 		.ascii	"ewmask\000"
 3244      736B00
 3245              	.LASF27:
 3246 04ff 705F6E65 		.ascii	"p_next\000"
 3246      787400
 3247              	.LASF36:
 3248 0506 705F666C 		.ascii	"p_flags\000"
 3248      61677300 
 3249              	.LASF125:
 3250 050e 5F5F6675 		.ascii	"__func__\000"
 3250      6E635F5F 
 3250      00
ARM GAS  C:\Users\jo\AppData\Local\Temp\ccyZVHuW.s 			page 62


 3251              	.LASF116:
 3252 0517 63685379 		.ascii	"chSysLock\000"
 3252      734C6F63 
 3252      6B00
 3253              	.LASF61:
 3254 0521 63685F76 		.ascii	"ch_virtual_timer\000"
 3254      69727475 
 3254      616C5F74 
 3254      696D6572 
 3254      00
 3255              	.LASF138:
 3256 0532 63684D73 		.ascii	"chMsgRelease\000"
 3256      6752656C 
 3256      65617365 
 3256      00
 3257              	.LASF105:
 3258 053f 63685F73 		.ascii	"ch_semaphore\000"
 3258      656D6170 
 3258      686F7265 
 3258      00
 3259              	.LASF132:
 3260 054c 63685363 		.ascii	"chSchGoSleepS\000"
 3260      68476F53 
 3260      6C656570 
 3260      5300
 3261              	.LASF41:
 3262 055a 705F6570 		.ascii	"p_epending\000"
 3262      656E6469 
 3262      6E6700
 3263              	.LASF15:
 3264 0565 75696E74 		.ascii	"uint32_t\000"
 3264      33325F74 
 3264      00
 3265              	.LASF103:
 3266 056e 77746D74 		.ascii	"wtmtxp\000"
 3266      787000
 3267              	.LASF53:
 3268 0575 725F7175 		.ascii	"r_queue\000"
 3268      65756500 
 3269              	.LASF139:
 3270 057d 63685363 		.ascii	"chSchReadyI\000"
 3270      68526561 
 3270      64794900 
 3271              	.LASF48:
 3272 0589 63685F74 		.ascii	"ch_threads_list\000"
 3272      68726561 
 3272      64735F6C 
 3272      69737400 
 3273              	.LASF9:
 3274 0599 6C6F6E67 		.ascii	"long unsigned int\000"
 3274      20756E73 
 3274      69676E65 
 3274      6420696E 
 3274      7400
 3275              	.LASF112:
 3276 05ab 63686172 		.ascii	"char\000"
 3276      00
ARM GAS  C:\Users\jo\AppData\Local\Temp\ccyZVHuW.s 			page 63


 3277              	.LASF26:
 3278 05b0 74687265 		.ascii	"thread_t\000"
 3278      61645F74 
 3278      00
 3279              	.LASF122:
 3280 05b9 71756575 		.ascii	"queue_fifo_remove\000"
 3280      655F6669 
 3280      666F5F72 
 3280      656D6F76 
 3280      6500
 3281              	.LASF25:
 3282 05cb 73797374 		.ascii	"systime_t\000"
 3282      696D655F 
 3282      7400
 3283              	.LASF43:
 3284 05d5 705F7265 		.ascii	"p_realprio\000"
 3284      616C7072 
 3284      696F00
 3285              	.LASF59:
 3286 05e0 76746675 		.ascii	"vtfunc_t\000"
 3286      6E635F74 
 3286      00
 3287              	.LASF8:
 3288 05e9 5F5F7569 		.ascii	"__uint32_t\000"
 3288      6E743332 
 3288      5F7400
 3289              	.LASF117:
 3290 05f4 5F5F7365 		.ascii	"__set_BASEPRI\000"
 3290      745F4241 
 3290      53455052 
 3290      4900
 3291              	.LASF72:
 3292 0602 70616E69 		.ascii	"panic_msg\000"
 3292      635F6D73 
 3292      6700
 3293              	.LASF96:
 3294 060c 6F666673 		.ascii	"offset\000"
 3294      657400
 3295              	.LASF85:
 3296 0613 636F6E74 		.ascii	"context\000"
 3296      65787400 
 3297              	.LASF17:
 3298 061b 7274636E 		.ascii	"rtcnt_t\000"
 3298      745F7400 
 3299              	.LASF66:
 3300 0623 76745F70 		.ascii	"vt_par\000"
 3300      617200
 3301              	.LASF127:
 3302 062a 63684D73 		.ascii	"chMsgWait\000"
 3302      67576169 
 3302      7400
 3303              	.LASF49:
 3304 0634 74687265 		.ascii	"threads_queue_t\000"
 3304      6164735F 
 3304      71756575 
 3304      655F7400 
 3305              	.LASF108:
ARM GAS  C:\Users\jo\AppData\Local\Temp\ccyZVHuW.s 			page 64


 3306 0644 63685F6D 		.ascii	"ch_mutex\000"
 3306      75746578 
 3306      00
 3307              	.LASF37:
 3308 064d 705F7265 		.ascii	"p_refs\000"
 3308      667300
 3309              	.LASF73:
 3310 0654 6973725F 		.ascii	"isr_cnt\000"
 3310      636E7400 
 3311              	.LASF78:
 3312 065c 726C6973 		.ascii	"rlist\000"
 3312      7400
 3313              	.LASF13:
 3314 0662 75696E74 		.ascii	"uint8_t\000"
 3314      385F7400 
 3315              	.LASF130:
 3316 066a 5F646267 		.ascii	"_dbg_check_unlock\000"
 3316      5F636865 
 3316      636B5F75 
 3316      6E6C6F63 
 3316      6B00
 3317              	.LASF100:
 3318 067c 77746F62 		.ascii	"wtobjp\000"
 3318      6A7000
 3319              	.LASF33:
 3320 0683 705F6E61 		.ascii	"p_name\000"
 3320      6D6500
 3321              	.LASF46:
 3322 068a 74687265 		.ascii	"threads_list_t\000"
 3322      6164735F 
 3322      6C697374 
 3322      5F7400
 3323              	.LASF75:
 3324 0699 74726163 		.ascii	"trace_buffer\000"
 3324      655F6275 
 3324      66666572 
 3324      00
 3325              	.LASF124:
 3326 06a6 63685379 		.ascii	"chSysUnlock\000"
 3326      73556E6C 
 3326      6F636B00 
 3327              	.LASF40:
 3328 06b2 705F6D73 		.ascii	"p_msg\000"
 3328      6700
 3329              	.LASF136:
 3330 06b8 2E2E2F2E 		.ascii	"../../../os/rt/src/chmsg.c\000"
 3330      2E2F2E2E 
 3330      2F6F732F 
 3330      72742F73 
 3330      72632F63 
 3331              	.LASF123:
 3332 06d3 63684D73 		.ascii	"chMsgReleaseS\000"
 3332      6752656C 
 3332      65617365 
 3332      5300
 3333              	.LASF110:
 3334 06e1 6D5F6F77 		.ascii	"m_owner\000"
ARM GAS  C:\Users\jo\AppData\Local\Temp\ccyZVHuW.s 			page 65


 3334      6E657200 
 3335              	.LASF89:
 3336 06e9 73655F77 		.ascii	"se_wtobjp\000"
 3336      746F626A 
 3336      7000
 3337              	.LASF30:
 3338 06f3 705F6374 		.ascii	"p_ctx\000"
 3338      7800
 3339              	.LASF65:
 3340 06f9 76745F66 		.ascii	"vt_func\000"
 3340      756E6300 
 3341              		.ident	"GCC: (GNU Tools for ARM Embedded Processors) 4.9.3 20141119 (release) [ARM/embedded-4_9-br
ARM GAS  C:\Users\jo\AppData\Local\Temp\ccyZVHuW.s 			page 66


DEFINED SYMBOLS
                            *ABS*:00000000 chmsg.c
C:\Users\jo\AppData\Local\Temp\ccyZVHuW.s:19     .text.chMsgSend:00000000 $t
C:\Users\jo\AppData\Local\Temp\ccyZVHuW.s:25     .text.chMsgSend:00000000 chMsgSend
C:\Users\jo\AppData\Local\Temp\ccyZVHuW.s:167    .text.chMsgSend:00000070 $d
C:\Users\jo\AppData\Local\Temp\ccyZVHuW.s:174    .text.chMsgWait:00000000 $t
C:\Users\jo\AppData\Local\Temp\ccyZVHuW.s:180    .text.chMsgWait:00000000 chMsgWait
C:\Users\jo\AppData\Local\Temp\ccyZVHuW.s:312    .text.chMsgWait:0000005c $d
C:\Users\jo\AppData\Local\Temp\ccyZVHuW.s:318    .text.chMsgRelease:00000000 $t
C:\Users\jo\AppData\Local\Temp\ccyZVHuW.s:324    .text.chMsgRelease:00000000 chMsgRelease
C:\Users\jo\AppData\Local\Temp\ccyZVHuW.s:413    .text.chMsgRelease:00000050 $d
C:\Users\jo\AppData\Local\Temp\ccyZVHuW.s:425    .rodata.__func__.6548:00000000 $d
C:\Users\jo\AppData\Local\Temp\ccyZVHuW.s:429    .rodata.__func__.6548:00000000 __func__.6548
C:\Users\jo\AppData\Local\Temp\ccyZVHuW.s:432    .rodata.__func__.6557:00000000 $d
C:\Users\jo\AppData\Local\Temp\ccyZVHuW.s:436    .rodata.__func__.6557:00000000 __func__.6557
C:\Users\jo\AppData\Local\Temp\ccyZVHuW.s:439    .rodata.__func__.5854:00000000 $d
C:\Users\jo\AppData\Local\Temp\ccyZVHuW.s:443    .rodata.__func__.5854:00000000 __func__.5854
                     .debug_frame:00000010 $d
C:\Users\jo\AppData\Local\Temp\ccyZVHuW.s:173    .text.chMsgSend:0000007c $t
C:\Users\jo\AppData\Local\Temp\ccyZVHuW.s:317    .text.chMsgWait:00000064 $t
C:\Users\jo\AppData\Local\Temp\ccyZVHuW.s:424    .text.chMsgRelease:0000005c $t

UNDEFINED SYMBOLS
_dbg_check_lock
chSchGoSleepS
_dbg_check_unlock
chSysHalt
chSchReadyI
ch
chDbgCheckClassI
chDbgCheckClassS
chSchWakeupS
