ARM GAS  C:\Users\jo\AppData\Local\Temp\ccfyyxNU.s 			page 1


   1              		.syntax unified
   2              		.cpu cortex-m4
   3              		.fpu softvfp
   4              		.eabi_attribute 20, 1
   5              		.eabi_attribute 21, 1
   6              		.eabi_attribute 23, 3
   7              		.eabi_attribute 24, 1
   8              		.eabi_attribute 25, 1
   9              		.eabi_attribute 26, 1
  10              		.eabi_attribute 30, 2
  11              		.eabi_attribute 34, 1
  12              		.eabi_attribute 18, 4
  13              		.thumb
  14              		.file	"chmtx.c"
  15              		.text
  16              	.Ltext0:
  17              		.cfi_sections	.debug_frame
  18              		.section	.text.chMtxObjectInit,"ax",%progbits
  19              		.align	2
  20              		.p2align 4,,15
  21              		.global	chMtxObjectInit
  22              		.thumb
  23              		.thumb_func
  24              		.type	chMtxObjectInit, %function
  25              	chMtxObjectInit:
  26              	.LFB228:
  27              		.file 1 "../../../os/rt/src/chmtx.c"
  28              		.loc 1 103 0
  29              		.cfi_startproc
  30              		@ args = 0, pretend = 0, frame = 0
  31              		@ frame_needed = 0, uses_anonymous_args = 0
  32              	.LVL0:
  33 0000 10B5     		push	{r4, lr}
  34              		.cfi_def_cfa_offset 8
  35              		.cfi_offset 4, -8
  36              		.cfi_offset 14, -4
  37              		.loc 1 105 0
  38 0002 0446     		mov	r4, r0
  39 0004 20B1     		cbz	r0, .L5
  40              	.LVL1:
  41              	.L2:
  42              		.loc 1 108 0
  43 0006 0023     		movs	r3, #0
  44              	.LBB81:
  45              	.LBB82:
  46              		.file 2 "../../../os/rt/include/chschd.h"
  47              		.loc 2 604 0
  48 0008 2460     		str	r4, [r4]
  49              		.loc 2 605 0
  50 000a 6460     		str	r4, [r4, #4]
  51              	.LBE82:
  52              	.LBE81:
  53              		.loc 1 108 0
  54 000c A360     		str	r3, [r4, #8]
  55 000e 10BD     		pop	{r4, pc}
  56              	.LVL2:
  57              	.L5:
ARM GAS  C:\Users\jo\AppData\Local\Temp\ccfyyxNU.s 			page 2


  58              		.loc 1 105 0 discriminator 2
  59 0010 0148     		ldr	r0, .L6
  60              	.LVL3:
  61 0012 FFF7FEFF 		bl	chSysHalt
  62              	.LVL4:
  63 0016 F6E7     		b	.L2
  64              	.L7:
  65              		.align	2
  66              	.L6:
  67 0018 00000000 		.word	.LANCHOR0
  68              		.cfi_endproc
  69              	.LFE228:
  70              		.size	chMtxObjectInit, .-chMtxObjectInit
  71 001c AFF30080 		.section	.text.chMtxLockS,"ax",%progbits
  72              		.align	2
  73              		.p2align 4,,15
  74              		.global	chMtxLockS
  75              		.thumb
  76              		.thumb_func
  77              		.type	chMtxLockS, %function
  78              	chMtxLockS:
  79              	.LFB230:
  80              		.loc 1 139 0
  81              		.cfi_startproc
  82              		@ args = 0, pretend = 0, frame = 0
  83              		@ frame_needed = 0, uses_anonymous_args = 0
  84              	.LVL5:
  85              		.loc 1 140 0
  86 0000 3B4B     		ldr	r3, .L38
  87              		.loc 1 139 0
  88 0002 70B5     		push	{r4, r5, r6, lr}
  89              		.cfi_def_cfa_offset 16
  90              		.cfi_offset 4, -16
  91              		.cfi_offset 5, -12
  92              		.cfi_offset 6, -8
  93              		.cfi_offset 14, -4
  94              		.loc 1 139 0
  95 0004 0546     		mov	r5, r0
  96              		.loc 1 140 0
  97 0006 9C69     		ldr	r4, [r3, #24]
  98              	.LVL6:
  99              		.loc 1 142 0
 100 0008 FFF7FEFF 		bl	chDbgCheckClassS
 101              	.LVL7:
 102              		.loc 1 143 0
 103 000c 002D     		cmp	r5, #0
 104 000e 6BD0     		beq	.L36
 105              	.L9:
 106              		.loc 1 146 0
 107 0010 A868     		ldr	r0, [r5, #8]
 108 0012 0028     		cmp	r0, #0
 109 0014 36D0     		beq	.L10
 110              	.LVL8:
 111              	.LBB83:
 112              		.loc 1 165 0
 113 0016 A268     		ldr	r2, [r4, #8]
 114 0018 8368     		ldr	r3, [r0, #8]
ARM GAS  C:\Users\jo\AppData\Local\Temp\ccfyyxNU.s 			page 3


 115 001a 9A42     		cmp	r2, r3
 116 001c 07D9     		bls	.L12
 117              	.L17:
 118              		.loc 1 170 0
 119 001e 90F82030 		ldrb	r3, [r0, #32]	@ zero_extendqisi2
 120              		.loc 1 167 0
 121 0022 8260     		str	r2, [r0, #8]
 122              		.loc 1 170 0
 123 0024 062B     		cmp	r3, #6
 124 0026 46D0     		beq	.L13
 125 0028 072B     		cmp	r3, #7
 126 002a 30D0     		beq	.L14
 127 002c FBB1     		cbz	r3, .L37
 128              	.LVL9:
 129              	.L12:
 130              	.LBB84:
 131              	.LBB85:
 132              		.loc 2 653 0
 133 002e 2B46     		mov	r3, r5
 134 0030 03E0     		b	.L27
 135              	.LVL10:
 136              	.L24:
 137              		.loc 2 656 0
 138 0032 9968     		ldr	r1, [r3, #8]
 139 0034 A268     		ldr	r2, [r4, #8]
 140 0036 9142     		cmp	r1, r2
 141 0038 02D3     		bcc	.L28
 142              	.L27:
 143              		.loc 2 655 0
 144 003a 1B68     		ldr	r3, [r3]
 145              	.LVL11:
 146              		.loc 2 656 0
 147 003c 9D42     		cmp	r5, r3
 148 003e F8D1     		bne	.L24
 149              	.L28:
 150              		.loc 2 658 0
 151 0040 5A68     		ldr	r2, [r3, #4]
 152 0042 6260     		str	r2, [r4, #4]
 153              		.loc 2 657 0
 154 0044 2360     		str	r3, [r4]
 155              	.LBE85:
 156              	.LBE84:
 157              		.loc 1 214 0
 158 0046 0620     		movs	r0, #6
 159              	.LBB87:
 160              	.LBB86:
 161              		.loc 2 659 0
 162 0048 1460     		str	r4, [r2]
 163              		.loc 2 660 0
 164 004a 5C60     		str	r4, [r3, #4]
 165              	.LBE86:
 166              	.LBE87:
 167              		.loc 1 213 0
 168 004c 6562     		str	r5, [r4, #36]
 169              		.loc 1 214 0
 170 004e FFF7FEFF 		bl	chSchGoSleepS
 171              	.LVL12:
ARM GAS  C:\Users\jo\AppData\Local\Temp\ccfyyxNU.s 			page 4


 172              		.loc 1 218 0
 173 0052 AB68     		ldr	r3, [r5, #8]
 174 0054 A342     		cmp	r3, r4
 175 0056 02D0     		beq	.L26
 176              		.loc 1 218 0 is_stmt 0 discriminator 2
 177 0058 2648     		ldr	r0, .L38+4
 178 005a FFF7FEFF 		bl	chSysHalt
 179              	.LVL13:
 180              	.L26:
 181              		.loc 1 219 0 is_stmt 1 discriminator 1
 182 005e E36B     		ldr	r3, [r4, #60]
 183 0060 AB42     		cmp	r3, r5
 184 0062 13D0     		beq	.L8
 185              		.loc 1 219 0 is_stmt 0 discriminator 2
 186 0064 2348     		ldr	r0, .L38+4
 187              	.LBE83:
 188              		.loc 1 236 0 is_stmt 1 discriminator 2
 189 0066 BDE87040 		pop	{r4, r5, r6, lr}
 190              		.cfi_remember_state
 191              		.cfi_restore 14
 192              		.cfi_restore 6
 193              		.cfi_restore 5
 194              		.cfi_restore 4
 195              		.cfi_def_cfa_offset 0
 196              	.LVL14:
 197              	.LBB104:
 198              		.loc 1 219 0 discriminator 2
 199 006a FFF7FEBF 		b	chSysHalt
 200              	.LVL15:
 201              	.L37:
 202              		.cfi_restore_state
 203              	.LBB88:
 204              	.LBB89:
 205              		.loc 2 691 0
 206 006e 90E80C00 		ldmia	r0, {r2, r3}
 207              	.LBE89:
 208              	.LBE88:
 209              		.loc 1 199 0
 210 0072 0121     		movs	r1, #1
 211 0074 80F82010 		strb	r1, [r0, #32]
 212              	.LVL16:
 213              	.LBB91:
 214              	.LBB90:
 215              		.loc 2 691 0
 216 0078 1A60     		str	r2, [r3]
 217              		.loc 2 692 0
 218 007a 0268     		ldr	r2, [r0]
 219 007c 5360     		str	r3, [r2, #4]
 220              	.LBE90:
 221              	.LBE91:
 222              		.loc 1 202 0
 223 007e FFF7FEFF 		bl	chSchReadyI
 224              	.LVL17:
 225              		.loc 1 203 0
 226 0082 D4E7     		b	.L12
 227              	.L10:
 228              	.LBE104:
ARM GAS  C:\Users\jo\AppData\Local\Temp\ccfyyxNU.s 			page 5


 229              		.loc 1 233 0
 230 0084 E36B     		ldr	r3, [r4, #60]
 231 0086 EB60     		str	r3, [r5, #12]
 232              		.loc 1 232 0
 233 0088 AC60     		str	r4, [r5, #8]
 234              		.loc 1 234 0
 235 008a E563     		str	r5, [r4, #60]
 236              	.L8:
 237 008c 70BD     		pop	{r4, r5, r6, pc}
 238              	.LVL18:
 239              	.L14:
 240              	.LBB105:
 241              	.LBB92:
 242              	.LBB93:
 243              		.loc 2 691 0
 244 008e 90E80A00 		ldmia	r0, {r1, r3}
 245 0092 1960     		str	r1, [r3]
 246              	.LBE93:
 247              	.LBE92:
 248              		.loc 1 193 0
 249 0094 466A     		ldr	r6, [r0, #36]
 250              	.LVL19:
 251              	.LBB95:
 252              	.LBB94:
 253              		.loc 2 692 0
 254 0096 0168     		ldr	r1, [r0]
 255 0098 4B60     		str	r3, [r1, #4]
 256              	.LBE94:
 257              	.LBE95:
 258              	.LBB96:
 259              	.LBB97:
 260              		.loc 2 653 0
 261 009a 3346     		mov	r3, r6
 262 009c 02E0     		b	.L22
 263              	.LVL20:
 264              	.L21:
 265              		.loc 2 656 0
 266 009e 9968     		ldr	r1, [r3, #8]
 267 00a0 9142     		cmp	r1, r2
 268 00a2 02D3     		bcc	.L23
 269              	.L22:
 270              		.loc 2 655 0
 271 00a4 1B68     		ldr	r3, [r3]
 272              	.LVL21:
 273              		.loc 2 656 0
 274 00a6 9E42     		cmp	r6, r3
 275 00a8 F9D1     		bne	.L21
 276              	.L23:
 277              		.loc 2 658 0
 278 00aa 5A68     		ldr	r2, [r3, #4]
 279 00ac 4260     		str	r2, [r0, #4]
 280              		.loc 2 657 0
 281 00ae 0360     		str	r3, [r0]
 282              		.loc 2 659 0
 283 00b0 1060     		str	r0, [r2]
 284              		.loc 2 660 0
 285 00b2 5860     		str	r0, [r3, #4]
ARM GAS  C:\Users\jo\AppData\Local\Temp\ccfyyxNU.s 			page 6


 286 00b4 BBE7     		b	.L12
 287              	.LVL22:
 288              	.L13:
 289              	.LBE97:
 290              	.LBE96:
 291              	.LBB98:
 292              	.LBB99:
 293              		.loc 2 691 0
 294 00b6 90E80A00 		ldmia	r0, {r1, r3}
 295 00ba 1960     		str	r1, [r3]
 296              	.LBE99:
 297              	.LBE98:
 298              		.loc 1 173 0
 299 00bc 466A     		ldr	r6, [r0, #36]
 300              	.LVL23:
 301              	.LBB101:
 302              	.LBB100:
 303              		.loc 2 692 0
 304 00be 0168     		ldr	r1, [r0]
 305 00c0 4B60     		str	r3, [r1, #4]
 306              	.LBE100:
 307              	.LBE101:
 308              	.LBB102:
 309              	.LBB103:
 310              		.loc 2 653 0
 311 00c2 3346     		mov	r3, r6
 312 00c4 02E0     		b	.L19
 313              	.LVL24:
 314              	.L16:
 315              		.loc 2 656 0
 316 00c6 9968     		ldr	r1, [r3, #8]
 317 00c8 9142     		cmp	r1, r2
 318 00ca 02D3     		bcc	.L20
 319              	.L19:
 320              		.loc 2 655 0
 321 00cc 1B68     		ldr	r3, [r3]
 322              	.LVL25:
 323              		.loc 2 656 0
 324 00ce 9E42     		cmp	r6, r3
 325 00d0 F9D1     		bne	.L16
 326              	.L20:
 327              		.loc 2 658 0
 328 00d2 5A68     		ldr	r2, [r3, #4]
 329 00d4 4260     		str	r2, [r0, #4]
 330              		.loc 2 657 0
 331 00d6 0360     		str	r3, [r0]
 332              		.loc 2 659 0
 333 00d8 1060     		str	r0, [r2]
 334              		.loc 2 660 0
 335 00da 5860     		str	r0, [r3, #4]
 336              	.LBE103:
 337              	.LBE102:
 338              		.loc 1 174 0
 339 00dc B068     		ldr	r0, [r6, #8]
 340              	.LVL26:
 341              		.loc 1 165 0
 342 00de A268     		ldr	r2, [r4, #8]
ARM GAS  C:\Users\jo\AppData\Local\Temp\ccfyyxNU.s 			page 7


 343 00e0 8368     		ldr	r3, [r0, #8]
 344              	.LVL27:
 345 00e2 9342     		cmp	r3, r2
 346 00e4 9BD3     		bcc	.L17
 347 00e6 A2E7     		b	.L12
 348              	.LVL28:
 349              	.L36:
 350              	.LBE105:
 351              		.loc 1 143 0 discriminator 2
 352 00e8 0248     		ldr	r0, .L38+4
 353 00ea FFF7FEFF 		bl	chSysHalt
 354              	.LVL29:
 355 00ee 8FE7     		b	.L9
 356              	.L39:
 357              		.align	2
 358              	.L38:
 359 00f0 00000000 		.word	ch
 360 00f4 00000000 		.word	.LANCHOR1
 361              		.cfi_endproc
 362              	.LFE230:
 363              		.size	chMtxLockS, .-chMtxLockS
 364 00f8 AFF30080 		.section	.text.chMtxLock,"ax",%progbits
 364      AFF30080 
 365              		.align	2
 366              		.p2align 4,,15
 367              		.global	chMtxLock
 368              		.thumb
 369              		.thumb_func
 370              		.type	chMtxLock, %function
 371              	chMtxLock:
 372              	.LFB229:
 373              		.loc 1 123 0
 374              		.cfi_startproc
 375              		@ args = 0, pretend = 0, frame = 0
 376              		@ frame_needed = 0, uses_anonymous_args = 0
 377              	.LVL30:
 378 0000 10B5     		push	{r4, lr}
 379              		.cfi_def_cfa_offset 8
 380              		.cfi_offset 4, -8
 381              		.cfi_offset 14, -4
 382              	.LBB116:
 383              	.LBB117:
 384              	.LBB118:
 385              	.LBB119:
 386              	.LBB120:
 387              		.file 3 "../../../os/ext/CMSIS/include/core_cmFunc.h"
 388              		.loc 3 546 0
 389 0002 2023     		movs	r3, #32
 390              	.LBE120:
 391              	.LBE119:
 392              	.LBE118:
 393              	.LBE117:
 394              	.LBE116:
 395              		.loc 1 123 0
 396 0004 0446     		mov	r4, r0
 397              	.LBB125:
 398              	.LBB124:
ARM GAS  C:\Users\jo\AppData\Local\Temp\ccfyyxNU.s 			page 8


 399              	.LBB123:
 400              	.LBB122:
 401              	.LBB121:
 402              		.loc 3 546 0
 403              	@ 546 "../../../os/ext/CMSIS/include/core_cmFunc.h" 1
 404 0006 83F31188 		MSR basepri, r3
 405              	@ 0 "" 2
 406              		.thumb
 407              	.LBE121:
 408              	.LBE122:
 409              	.LBE123:
 410              		.file 4 "../../../os/rt/include/chsys.h"
 411              		.loc 4 350 0
 412 000a FFF7FEFF 		bl	_dbg_check_lock
 413              	.LVL31:
 414              	.LBE124:
 415              	.LBE125:
 416              		.loc 1 126 0
 417 000e 2046     		mov	r0, r4
 418 0010 FFF7FEFF 		bl	chMtxLockS
 419              	.LVL32:
 420              	.LBB126:
 421              	.LBB127:
 422              		.loc 4 360 0
 423 0014 FFF7FEFF 		bl	_dbg_check_unlock
 424              	.LVL33:
 425              		.loc 4 367 0
 426 0018 074B     		ldr	r3, .L43
 427 001a 1A68     		ldr	r2, [r3]
 428 001c 9A42     		cmp	r2, r3
 429 001e 07D0     		beq	.L41
 430 0020 9969     		ldr	r1, [r3, #24]
 431 0022 9368     		ldr	r3, [r2, #8]
 432 0024 8A68     		ldr	r2, [r1, #8]
 433 0026 9A42     		cmp	r2, r3
 434 0028 02D2     		bcs	.L41
 435 002a 0448     		ldr	r0, .L43+4
 436 002c FFF7FEFF 		bl	chSysHalt
 437              	.LVL34:
 438              	.L41:
 439              	.LBB128:
 440              	.LBB129:
 441              	.LBB130:
 442              		.loc 3 546 0
 443 0030 0023     		movs	r3, #0
 444              	@ 546 "../../../os/ext/CMSIS/include/core_cmFunc.h" 1
 445 0032 83F31188 		MSR basepri, r3
 446              	@ 0 "" 2
 447              		.thumb
 448 0036 10BD     		pop	{r4, pc}
 449              	.LVL35:
 450              	.L44:
 451              		.align	2
 452              	.L43:
 453 0038 00000000 		.word	ch
 454 003c 00000000 		.word	.LANCHOR2
 455              	.LBE130:
ARM GAS  C:\Users\jo\AppData\Local\Temp\ccfyyxNU.s 			page 9


 456              	.LBE129:
 457              	.LBE128:
 458              	.LBE127:
 459              	.LBE126:
 460              		.cfi_endproc
 461              	.LFE229:
 462              		.size	chMtxLock, .-chMtxLock
 463              		.section	.text.chMtxTryLockS,"ax",%progbits
 464              		.align	2
 465              		.p2align 4,,15
 466              		.global	chMtxTryLockS
 467              		.thumb
 468              		.thumb_func
 469              		.type	chMtxTryLockS, %function
 470              	chMtxTryLockS:
 471              	.LFB232:
 472              		.loc 1 282 0
 473              		.cfi_startproc
 474              		@ args = 0, pretend = 0, frame = 0
 475              		@ frame_needed = 0, uses_anonymous_args = 0
 476              	.LVL36:
 477 0000 10B5     		push	{r4, lr}
 478              		.cfi_def_cfa_offset 8
 479              		.cfi_offset 4, -8
 480              		.cfi_offset 14, -4
 481              		.loc 1 282 0
 482 0002 0446     		mov	r4, r0
 483              		.loc 1 284 0
 484 0004 FFF7FEFF 		bl	chDbgCheckClassS
 485              	.LVL37:
 486              		.loc 1 285 0
 487 0008 5CB1     		cbz	r4, .L50
 488              	.L46:
 489              		.loc 1 287 0
 490 000a A368     		ldr	r3, [r4, #8]
 491 000c 0BB1     		cbz	r3, .L51
 492              		.loc 1 297 0
 493 000e 0020     		movs	r0, #0
 494              		.loc 1 309 0
 495 0010 10BD     		pop	{r4, pc}
 496              	.LVL38:
 497              	.L51:
 498              	.LBB133:
 499              	.LBB134:
 500              		.loc 1 305 0
 501 0012 064B     		ldr	r3, .L52
 502 0014 9B69     		ldr	r3, [r3, #24]
 503 0016 A360     		str	r3, [r4, #8]
 504              		.loc 1 306 0
 505 0018 DA6B     		ldr	r2, [r3, #60]
 506 001a E260     		str	r2, [r4, #12]
 507              		.loc 1 307 0
 508 001c 0120     		movs	r0, #1
 509 001e DC63     		str	r4, [r3, #60]
 510 0020 10BD     		pop	{r4, pc}
 511              	.LVL39:
 512              	.L50:
ARM GAS  C:\Users\jo\AppData\Local\Temp\ccfyyxNU.s 			page 10


 513              	.LBE134:
 514              	.LBE133:
 515              		.loc 1 285 0 discriminator 2
 516 0022 0348     		ldr	r0, .L52+4
 517 0024 FFF7FEFF 		bl	chSysHalt
 518              	.LVL40:
 519 0028 EFE7     		b	.L46
 520              	.L53:
 521 002a 00BF     		.align	2
 522              	.L52:
 523 002c 00000000 		.word	ch
 524 0030 00000000 		.word	.LANCHOR3
 525              		.cfi_endproc
 526              	.LFE232:
 527              		.size	chMtxTryLockS, .-chMtxTryLockS
 528 0034 AFF30080 		.section	.text.chMtxTryLock,"ax",%progbits
 528      AFF30080 
 528      AFF30080 
 529              		.align	2
 530              		.p2align 4,,15
 531              		.global	chMtxTryLock
 532              		.thumb
 533              		.thumb_func
 534              		.type	chMtxTryLock, %function
 535              	chMtxTryLock:
 536              	.LFB231:
 537              		.loc 1 255 0
 538              		.cfi_startproc
 539              		@ args = 0, pretend = 0, frame = 0
 540              		@ frame_needed = 0, uses_anonymous_args = 0
 541              	.LVL41:
 542 0000 10B5     		push	{r4, lr}
 543              		.cfi_def_cfa_offset 8
 544              		.cfi_offset 4, -8
 545              		.cfi_offset 14, -4
 546              	.LBB145:
 547              	.LBB146:
 548              	.LBB147:
 549              	.LBB148:
 550              	.LBB149:
 551              		.loc 3 546 0
 552 0002 2023     		movs	r3, #32
 553              	.LBE149:
 554              	.LBE148:
 555              	.LBE147:
 556              	.LBE146:
 557              	.LBE145:
 558              		.loc 1 255 0
 559 0004 0446     		mov	r4, r0
 560              	.LBB154:
 561              	.LBB153:
 562              	.LBB152:
 563              	.LBB151:
 564              	.LBB150:
 565              		.loc 3 546 0
 566              	@ 546 "../../../os/ext/CMSIS/include/core_cmFunc.h" 1
 567 0006 83F31188 		MSR basepri, r3
ARM GAS  C:\Users\jo\AppData\Local\Temp\ccfyyxNU.s 			page 11


 568              	@ 0 "" 2
 569              		.thumb
 570              	.LBE150:
 571              	.LBE151:
 572              	.LBE152:
 573              		.loc 4 350 0
 574 000a FFF7FEFF 		bl	_dbg_check_lock
 575              	.LVL42:
 576              	.LBE153:
 577              	.LBE154:
 578              		.loc 1 259 0
 579 000e 2046     		mov	r0, r4
 580 0010 FFF7FEFF 		bl	chMtxTryLockS
 581              	.LVL43:
 582 0014 0446     		mov	r4, r0
 583              	.LVL44:
 584              	.LBB155:
 585              	.LBB156:
 586              		.loc 4 360 0
 587 0016 FFF7FEFF 		bl	_dbg_check_unlock
 588              	.LVL45:
 589              		.loc 4 367 0
 590 001a 084B     		ldr	r3, .L57
 591 001c 1A68     		ldr	r2, [r3]
 592 001e 9A42     		cmp	r2, r3
 593 0020 07D0     		beq	.L55
 594 0022 9969     		ldr	r1, [r3, #24]
 595 0024 9368     		ldr	r3, [r2, #8]
 596 0026 8A68     		ldr	r2, [r1, #8]
 597 0028 9A42     		cmp	r2, r3
 598 002a 02D2     		bcs	.L55
 599 002c 0448     		ldr	r0, .L57+4
 600 002e FFF7FEFF 		bl	chSysHalt
 601              	.LVL46:
 602              	.L55:
 603              	.LBB157:
 604              	.LBB158:
 605              	.LBB159:
 606              		.loc 3 546 0
 607 0032 0023     		movs	r3, #0
 608              	@ 546 "../../../os/ext/CMSIS/include/core_cmFunc.h" 1
 609 0034 83F31188 		MSR basepri, r3
 610              	@ 0 "" 2
 611              		.thumb
 612              	.LBE159:
 613              	.LBE158:
 614              	.LBE157:
 615              	.LBE156:
 616              	.LBE155:
 617              		.loc 1 263 0
 618 0038 2046     		mov	r0, r4
 619 003a 10BD     		pop	{r4, pc}
 620              	.LVL47:
 621              	.L58:
 622              		.align	2
 623              	.L57:
 624 003c 00000000 		.word	ch
ARM GAS  C:\Users\jo\AppData\Local\Temp\ccfyyxNU.s 			page 12


 625 0040 00000000 		.word	.LANCHOR2
 626              		.cfi_endproc
 627              	.LFE231:
 628              		.size	chMtxTryLock, .-chMtxTryLock
 629 0044 AFF30080 		.section	.text.chMtxUnlock,"ax",%progbits
 629      AFF30080 
 629      AFF30080 
 630              		.align	2
 631              		.p2align 4,,15
 632              		.global	chMtxUnlock
 633              		.thumb
 634              		.thumb_func
 635              		.type	chMtxUnlock, %function
 636              	chMtxUnlock:
 637              	.LFB233:
 638              		.loc 1 323 0
 639              		.cfi_startproc
 640              		@ args = 0, pretend = 0, frame = 0
 641              		@ frame_needed = 0, uses_anonymous_args = 0
 642              	.LVL48:
 643 0000 2DE9F041 		push	{r4, r5, r6, r7, r8, lr}
 644              		.cfi_def_cfa_offset 24
 645              		.cfi_offset 4, -24
 646              		.cfi_offset 5, -20
 647              		.cfi_offset 6, -16
 648              		.cfi_offset 7, -12
 649              		.cfi_offset 8, -8
 650              		.cfi_offset 14, -4
 651              		.loc 1 324 0
 652 0004 DFF8BC80 		ldr	r8, .L77+4
 653              		.loc 1 327 0
 654 0008 0646     		mov	r6, r0
 655              		.loc 1 324 0
 656 000a D8F81870 		ldr	r7, [r8, #24]
 657              	.LVL49:
 658              		.loc 1 327 0
 659 000e 0028     		cmp	r0, #0
 660 0010 4DD0     		beq	.L75
 661              	.LVL50:
 662              	.L60:
 663              	.LBB181:
 664              	.LBB182:
 665              	.LBB183:
 666              	.LBB184:
 667              	.LBB185:
 668              		.loc 3 546 0
 669 0012 2023     		movs	r3, #32
 670              	@ 546 "../../../os/ext/CMSIS/include/core_cmFunc.h" 1
 671 0014 83F31188 		MSR basepri, r3
 672              	@ 0 "" 2
 673              		.thumb
 674              	.LBE185:
 675              	.LBE184:
 676              	.LBE183:
 677              		.loc 4 350 0
 678 0018 FFF7FEFF 		bl	_dbg_check_lock
 679              	.LVL51:
ARM GAS  C:\Users\jo\AppData\Local\Temp\ccfyyxNU.s 			page 13


 680              	.LBE182:
 681              	.LBE181:
 682              		.loc 1 331 0
 683 001c FB6B     		ldr	r3, [r7, #60]
 684 001e 002B     		cmp	r3, #0
 685 0020 49D0     		beq	.L76
 686              	.L61:
 687              		.loc 1 332 0 discriminator 1
 688 0022 9A68     		ldr	r2, [r3, #8]
 689 0024 BA42     		cmp	r2, r7
 690 0026 03D0     		beq	.L62
 691              		.loc 1 332 0 is_stmt 0 discriminator 2
 692 0028 2548     		ldr	r0, .L77
 693 002a FFF7FEFF 		bl	chSysHalt
 694              	.LVL52:
 695 002e FB6B     		ldr	r3, [r7, #60]
 696              	.L62:
 697              		.loc 1 339 0 is_stmt 1 discriminator 1
 698 0030 9E42     		cmp	r6, r3
 699 0032 02D0     		beq	.L63
 700              		.loc 1 339 0 is_stmt 0 discriminator 2
 701 0034 2248     		ldr	r0, .L77
 702 0036 FFF7FEFF 		bl	chSysHalt
 703              	.LVL53:
 704              	.L63:
 705              		.loc 1 344 0 is_stmt 1
 706 003a F368     		ldr	r3, [r6, #12]
 707 003c FB63     		str	r3, [r7, #60]
 708              	.LVL54:
 709              	.LBB186:
 710              	.LBB187:
 711              		.file 5 "../../../os/rt/include/chmtx.h"
 712              		.loc 5 131 0
 713 003e FFF7FEFF 		bl	chDbgCheckClassS
 714              	.LVL55:
 715              	.LBB188:
 716              	.LBB189:
 717              		.loc 2 631 0
 718 0042 3368     		ldr	r3, [r6]
 719              	.LBE189:
 720              	.LBE188:
 721              	.LBE187:
 722              	.LBE186:
 723              		.loc 1 347 0
 724 0044 9E42     		cmp	r6, r3
 725 0046 2FD0     		beq	.L64
 726              	.LBB190:
 727              		.loc 1 353 0
 728 0048 FC6B     		ldr	r4, [r7, #60]
 729              		.loc 1 352 0
 730 004a 3D6C     		ldr	r5, [r7, #64]
 731              	.LVL56:
 732              		.loc 1 354 0
 733 004c 64B1     		cbz	r4, .L65
 734              	.L67:
 735              	.LVL57:
 736              	.LBB191:
ARM GAS  C:\Users\jo\AppData\Local\Temp\ccfyyxNU.s 			page 14


 737              	.LBB192:
 738              		.loc 5 131 0
 739 004e FFF7FEFF 		bl	chDbgCheckClassS
 740              	.LVL58:
 741              	.LBB193:
 742              	.LBB194:
 743              		.loc 2 631 0
 744 0052 2368     		ldr	r3, [r4]
 745              	.LBE194:
 746              	.LBE193:
 747              	.LBE192:
 748              	.LBE191:
 749              		.loc 1 358 0
 750 0054 9C42     		cmp	r4, r3
 751 0056 03D0     		beq	.L66
 752              		.loc 1 359 0 discriminator 1
 753 0058 9B68     		ldr	r3, [r3, #8]
 754 005a 9D42     		cmp	r5, r3
 755 005c 38BF     		it	cc
 756 005e 1D46     		movcc	r5, r3
 757              	.LVL59:
 758              	.L66:
 759              		.loc 1 362 0
 760 0060 E468     		ldr	r4, [r4, #12]
 761              	.LVL60:
 762              		.loc 1 354 0
 763 0062 002C     		cmp	r4, #0
 764 0064 F3D1     		bne	.L67
 765 0066 3368     		ldr	r3, [r6]
 766              	.L65:
 767              	.LBB195:
 768              	.LBB196:
 769              		.loc 2 674 0
 770 0068 1A68     		ldr	r2, [r3]
 771              	.LBE196:
 772              	.LBE195:
 773              		.loc 1 376 0
 774 006a DC6B     		ldr	r4, [r3, #60]
 775              	.LVL61:
 776              		.loc 1 367 0
 777 006c BD60     		str	r5, [r7, #8]
 778              	.LVL62:
 779              		.loc 1 378 0
 780 006e 1846     		mov	r0, r3
 781              	.LBB199:
 782              	.LBB197:
 783              		.loc 2 674 0
 784 0070 3260     		str	r2, [r6]
 785              	.LBE197:
 786              	.LBE199:
 787              		.loc 1 378 0
 788 0072 0021     		movs	r1, #0
 789              	.LBB200:
 790              	.LBB198:
 791              		.loc 2 675 0
 792 0074 5660     		str	r6, [r2, #4]
 793              	.LBE198:
ARM GAS  C:\Users\jo\AppData\Local\Temp\ccfyyxNU.s 			page 15


 794              	.LBE200:
 795              		.loc 1 375 0
 796 0076 B360     		str	r3, [r6, #8]
 797              		.loc 1 376 0
 798 0078 F460     		str	r4, [r6, #12]
 799              		.loc 1 377 0
 800 007a DE63     		str	r6, [r3, #60]
 801              		.loc 1 378 0
 802 007c FFF7FEFF 		bl	chSchWakeupS
 803              	.LVL63:
 804              	.L68:
 805              	.LBE190:
 806              	.LBB201:
 807              	.LBB202:
 808              		.loc 4 360 0
 809 0080 FFF7FEFF 		bl	_dbg_check_unlock
 810              	.LVL64:
 811              		.loc 4 367 0
 812 0084 D8F80030 		ldr	r3, [r8]
 813 0088 0E4A     		ldr	r2, .L77+4
 814 008a 4345     		cmp	r3, r8
 815 008c 07D0     		beq	.L69
 816 008e 9269     		ldr	r2, [r2, #24]
 817 0090 9B68     		ldr	r3, [r3, #8]
 818 0092 9268     		ldr	r2, [r2, #8]
 819 0094 9A42     		cmp	r2, r3
 820 0096 02D2     		bcs	.L69
 821 0098 0B48     		ldr	r0, .L77+8
 822 009a FFF7FEFF 		bl	chSysHalt
 823              	.LVL65:
 824              	.L69:
 825              	.LBB203:
 826              	.LBB204:
 827              	.LBB205:
 828              		.loc 3 546 0
 829 009e 0023     		movs	r3, #0
 830              	@ 546 "../../../os/ext/CMSIS/include/core_cmFunc.h" 1
 831 00a0 83F31188 		MSR basepri, r3
 832              	@ 0 "" 2
 833              		.thumb
 834 00a4 BDE8F081 		pop	{r4, r5, r6, r7, r8, pc}
 835              	.LVL66:
 836              	.L64:
 837              	.LBE205:
 838              	.LBE204:
 839              	.LBE203:
 840              	.LBE202:
 841              	.LBE201:
 842              		.loc 1 381 0
 843 00a8 0023     		movs	r3, #0
 844 00aa B360     		str	r3, [r6, #8]
 845 00ac E8E7     		b	.L68
 846              	.LVL67:
 847              	.L75:
 848              		.loc 1 327 0 discriminator 2
 849 00ae 0448     		ldr	r0, .L77
 850              	.LVL68:
ARM GAS  C:\Users\jo\AppData\Local\Temp\ccfyyxNU.s 			page 16


 851 00b0 FFF7FEFF 		bl	chSysHalt
 852              	.LVL69:
 853 00b4 ADE7     		b	.L60
 854              	.LVL70:
 855              	.L76:
 856              		.loc 1 331 0 discriminator 2
 857 00b6 0248     		ldr	r0, .L77
 858 00b8 FFF7FEFF 		bl	chSysHalt
 859              	.LVL71:
 860 00bc FB6B     		ldr	r3, [r7, #60]
 861 00be B0E7     		b	.L61
 862              	.L78:
 863              		.align	2
 864              	.L77:
 865 00c0 00000000 		.word	.LANCHOR4
 866 00c4 00000000 		.word	ch
 867 00c8 00000000 		.word	.LANCHOR2
 868              		.cfi_endproc
 869              	.LFE233:
 870              		.size	chMtxUnlock, .-chMtxUnlock
 871 00cc AFF30080 		.section	.text.chMtxUnlockS,"ax",%progbits
 872              		.align	2
 873              		.p2align 4,,15
 874              		.global	chMtxUnlockS
 875              		.thumb
 876              		.thumb_func
 877              		.type	chMtxUnlockS, %function
 878              	chMtxUnlockS:
 879              	.LFB234:
 880              		.loc 1 404 0
 881              		.cfi_startproc
 882              		@ args = 0, pretend = 0, frame = 0
 883              		@ frame_needed = 0, uses_anonymous_args = 0
 884              	.LVL72:
 885 0000 F8B5     		push	{r3, r4, r5, r6, r7, lr}
 886              		.cfi_def_cfa_offset 24
 887              		.cfi_offset 3, -24
 888              		.cfi_offset 4, -20
 889              		.cfi_offset 5, -16
 890              		.cfi_offset 6, -12
 891              		.cfi_offset 7, -8
 892              		.cfi_offset 14, -4
 893              		.loc 1 405 0
 894 0002 234B     		ldr	r3, .L95
 895              		.loc 1 404 0
 896 0004 0646     		mov	r6, r0
 897              		.loc 1 405 0
 898 0006 9F69     		ldr	r7, [r3, #24]
 899              	.LVL73:
 900              		.loc 1 408 0
 901 0008 FFF7FEFF 		bl	chDbgCheckClassS
 902              	.LVL74:
 903              		.loc 1 409 0
 904 000c 002E     		cmp	r6, #0
 905 000e 35D0     		beq	.L93
 906              	.L80:
 907              		.loc 1 411 0 discriminator 1
ARM GAS  C:\Users\jo\AppData\Local\Temp\ccfyyxNU.s 			page 17


 908 0010 FB6B     		ldr	r3, [r7, #60]
 909 0012 002B     		cmp	r3, #0
 910 0014 36D0     		beq	.L94
 911              	.L81:
 912              		.loc 1 412 0 discriminator 1
 913 0016 9A68     		ldr	r2, [r3, #8]
 914 0018 BA42     		cmp	r2, r7
 915 001a 03D0     		beq	.L82
 916              		.loc 1 412 0 is_stmt 0 discriminator 2
 917 001c 1D48     		ldr	r0, .L95+4
 918 001e FFF7FEFF 		bl	chSysHalt
 919              	.LVL75:
 920 0022 FB6B     		ldr	r3, [r7, #60]
 921              	.L82:
 922              		.loc 1 419 0 is_stmt 1 discriminator 1
 923 0024 9E42     		cmp	r6, r3
 924 0026 02D0     		beq	.L83
 925              		.loc 1 419 0 is_stmt 0 discriminator 2
 926 0028 1A48     		ldr	r0, .L95+4
 927 002a FFF7FEFF 		bl	chSysHalt
 928              	.LVL76:
 929              	.L83:
 930              		.loc 1 424 0 is_stmt 1
 931 002e F368     		ldr	r3, [r6, #12]
 932 0030 FB63     		str	r3, [r7, #60]
 933              	.LVL77:
 934              	.LBB206:
 935              	.LBB207:
 936              		.loc 5 131 0
 937 0032 FFF7FEFF 		bl	chDbgCheckClassS
 938              	.LVL78:
 939              	.LBB208:
 940              	.LBB209:
 941              		.loc 2 631 0
 942 0036 3368     		ldr	r3, [r6]
 943              	.LBE209:
 944              	.LBE208:
 945              	.LBE207:
 946              	.LBE206:
 947              		.loc 1 427 0
 948 0038 9E42     		cmp	r6, r3
 949 003a 1CD0     		beq	.L84
 950              	.LBB210:
 951              		.loc 1 433 0
 952 003c FC6B     		ldr	r4, [r7, #60]
 953              		.loc 1 432 0
 954 003e 3D6C     		ldr	r5, [r7, #64]
 955              	.LVL79:
 956              		.loc 1 434 0
 957 0040 64B1     		cbz	r4, .L85
 958              	.L87:
 959              	.LVL80:
 960              	.LBB211:
 961              	.LBB212:
 962              		.loc 5 131 0
 963 0042 FFF7FEFF 		bl	chDbgCheckClassS
 964              	.LVL81:
ARM GAS  C:\Users\jo\AppData\Local\Temp\ccfyyxNU.s 			page 18


 965              	.LBB213:
 966              	.LBB214:
 967              		.loc 2 631 0
 968 0046 2368     		ldr	r3, [r4]
 969              	.LBE214:
 970              	.LBE213:
 971              	.LBE212:
 972              	.LBE211:
 973              		.loc 1 438 0
 974 0048 9C42     		cmp	r4, r3
 975 004a 03D0     		beq	.L86
 976              		.loc 1 439 0 discriminator 1
 977 004c 9B68     		ldr	r3, [r3, #8]
 978 004e 9D42     		cmp	r5, r3
 979 0050 38BF     		it	cc
 980 0052 1D46     		movcc	r5, r3
 981              	.LVL82:
 982              	.L86:
 983              		.loc 1 442 0
 984 0054 E468     		ldr	r4, [r4, #12]
 985              	.LVL83:
 986              		.loc 1 434 0
 987 0056 002C     		cmp	r4, #0
 988 0058 F3D1     		bne	.L87
 989 005a 3368     		ldr	r3, [r6]
 990              	.L85:
 991              	.LBB215:
 992              	.LBB216:
 993              		.loc 2 674 0
 994 005c 1A68     		ldr	r2, [r3]
 995              	.LBE216:
 996              	.LBE215:
 997              		.loc 1 456 0
 998 005e D96B     		ldr	r1, [r3, #60]
 999              		.loc 1 447 0
 1000 0060 BD60     		str	r5, [r7, #8]
 1001              	.LVL84:
 1002              		.loc 1 458 0
 1003 0062 1846     		mov	r0, r3
 1004              	.LBB218:
 1005              	.LBB217:
 1006              		.loc 2 674 0
 1007 0064 3260     		str	r2, [r6]
 1008              		.loc 2 675 0
 1009 0066 5660     		str	r6, [r2, #4]
 1010              	.LBE217:
 1011              	.LBE218:
 1012              		.loc 1 455 0
 1013 0068 B360     		str	r3, [r6, #8]
 1014              		.loc 1 456 0
 1015 006a F160     		str	r1, [r6, #12]
 1016              		.loc 1 457 0
 1017 006c DE63     		str	r6, [r3, #60]
 1018              	.LBE210:
 1019              		.loc 1 466 0
 1020 006e BDE8F840 		pop	{r3, r4, r5, r6, r7, lr}
 1021              		.cfi_remember_state
ARM GAS  C:\Users\jo\AppData\Local\Temp\ccfyyxNU.s 			page 19


 1022              		.cfi_restore 14
 1023              		.cfi_restore 7
 1024              		.cfi_restore 6
 1025              		.cfi_restore 5
 1026              		.cfi_restore 4
 1027              		.cfi_restore 3
 1028              		.cfi_def_cfa_offset 0
 1029              	.LVL85:
 1030              	.LBB219:
 1031              		.loc 1 458 0
 1032 0072 FFF7FEBF 		b	chSchReadyI
 1033              	.LVL86:
 1034              	.L84:
 1035              		.cfi_restore_state
 1036              	.LBE219:
 1037              		.loc 1 461 0
 1038 0076 0023     		movs	r3, #0
 1039 0078 B360     		str	r3, [r6, #8]
 1040 007a F8BD     		pop	{r3, r4, r5, r6, r7, pc}
 1041              	.LVL87:
 1042              	.L93:
 1043              		.loc 1 409 0 discriminator 2
 1044 007c 0548     		ldr	r0, .L95+4
 1045 007e FFF7FEFF 		bl	chSysHalt
 1046              	.LVL88:
 1047 0082 C5E7     		b	.L80
 1048              	.L94:
 1049              		.loc 1 411 0 discriminator 2
 1050 0084 0348     		ldr	r0, .L95+4
 1051 0086 FFF7FEFF 		bl	chSysHalt
 1052              	.LVL89:
 1053 008a FB6B     		ldr	r3, [r7, #60]
 1054 008c C3E7     		b	.L81
 1055              	.L96:
 1056 008e 00BF     		.align	2
 1057              	.L95:
 1058 0090 00000000 		.word	ch
 1059 0094 00000000 		.word	.LANCHOR5
 1060              		.cfi_endproc
 1061              	.LFE234:
 1062              		.size	chMtxUnlockS, .-chMtxUnlockS
 1063 0098 AFF30080 		.section	.text.chMtxUnlockAll,"ax",%progbits
 1063      AFF30080 
 1064              		.align	2
 1065              		.p2align 4,,15
 1066              		.global	chMtxUnlockAll
 1067              		.thumb
 1068              		.thumb_func
 1069              		.type	chMtxUnlockAll, %function
 1070              	chMtxUnlockAll:
 1071              	.LFB235:
 1072              		.loc 1 479 0
 1073              		.cfi_startproc
 1074              		@ args = 0, pretend = 0, frame = 0
 1075              		@ frame_needed = 0, uses_anonymous_args = 0
 1076 0000 F8B5     		push	{r3, r4, r5, r6, r7, lr}
 1077              		.cfi_def_cfa_offset 24
ARM GAS  C:\Users\jo\AppData\Local\Temp\ccfyyxNU.s 			page 20


 1078              		.cfi_offset 3, -24
 1079              		.cfi_offset 4, -20
 1080              		.cfi_offset 5, -16
 1081              		.cfi_offset 6, -12
 1082              		.cfi_offset 7, -8
 1083              		.cfi_offset 14, -4
 1084              		.loc 1 480 0
 1085 0002 1C4E     		ldr	r6, .L110
 1086              	.LBB238:
 1087              	.LBB239:
 1088              	.LBB240:
 1089              	.LBB241:
 1090              	.LBB242:
 1091              		.loc 3 546 0
 1092 0004 2023     		movs	r3, #32
 1093              	.LBE242:
 1094              	.LBE241:
 1095              	.LBE240:
 1096              	.LBE239:
 1097              	.LBE238:
 1098              		.loc 1 480 0
 1099 0006 B569     		ldr	r5, [r6, #24]
 1100              	.LVL90:
 1101              	.LBB247:
 1102              	.LBB246:
 1103              	.LBB245:
 1104              	.LBB244:
 1105              	.LBB243:
 1106              		.loc 3 546 0
 1107              	@ 546 "../../../os/ext/CMSIS/include/core_cmFunc.h" 1
 1108 0008 83F31188 		MSR basepri, r3
 1109              	@ 0 "" 2
 1110              		.thumb
 1111              	.LBE243:
 1112              	.LBE244:
 1113              	.LBE245:
 1114              		.loc 4 350 0
 1115 000c FFF7FEFF 		bl	_dbg_check_lock
 1116              	.LVL91:
 1117              	.LBE246:
 1118              	.LBE247:
 1119              		.loc 1 483 0
 1120 0010 EC6B     		ldr	r4, [r5, #60]
 1121 0012 E4B1     		cbz	r4, .L98
 1122              	.LBB248:
 1123              		.loc 1 501 0
 1124 0014 0027     		movs	r7, #0
 1125 0016 0AE0     		b	.L101
 1126              	.LVL92:
 1127              	.L109:
 1128              	.LBB249:
 1129              	.LBB250:
 1130              	.LBB251:
 1131              		.loc 2 674 0
 1132 0018 1A68     		ldr	r2, [r3]
 1133              	.LBE251:
 1134              	.LBE250:
ARM GAS  C:\Users\jo\AppData\Local\Temp\ccfyyxNU.s 			page 21


 1135              		.loc 1 493 0
 1136 001a D96B     		ldr	r1, [r3, #60]
 1137              	.LBB253:
 1138              	.LBB252:
 1139              		.loc 2 674 0
 1140 001c 2260     		str	r2, [r4]
 1141              		.loc 2 675 0
 1142 001e 5460     		str	r4, [r2, #4]
 1143              	.LBE252:
 1144              	.LBE253:
 1145              		.loc 1 492 0
 1146 0020 A360     		str	r3, [r4, #8]
 1147              		.loc 1 493 0
 1148 0022 E160     		str	r1, [r4, #12]
 1149              		.loc 1 494 0
 1150 0024 DC63     		str	r4, [r3, #60]
 1151              		.loc 1 495 0
 1152 0026 FFF7FEFF 		bl	chSchReadyI
 1153              	.LVL93:
 1154              	.LBE249:
 1155              	.LBE248:
 1156              		.loc 1 503 0
 1157 002a EC6B     		ldr	r4, [r5, #60]
 1158              	.LVL94:
 1159 002c 5CB1     		cbz	r4, .L108
 1160              	.L101:
 1161              	.LVL95:
 1162              	.LBB259:
 1163              		.loc 1 486 0
 1164 002e E368     		ldr	r3, [r4, #12]
 1165 0030 EB63     		str	r3, [r5, #60]
 1166              	.LVL96:
 1167              	.LBB254:
 1168              	.LBB255:
 1169              		.loc 5 131 0
 1170 0032 FFF7FEFF 		bl	chDbgCheckClassS
 1171              	.LVL97:
 1172              	.LBB256:
 1173              	.LBB257:
 1174              		.loc 2 631 0
 1175 0036 2368     		ldr	r3, [r4]
 1176              	.LVL98:
 1177              	.LBE257:
 1178              	.LBE256:
 1179              	.LBE255:
 1180              	.LBE254:
 1181              		.loc 1 487 0
 1182 0038 9C42     		cmp	r4, r3
 1183              	.LBB258:
 1184              		.loc 1 495 0
 1185 003a 1846     		mov	r0, r3
 1186              	.LBE258:
 1187              		.loc 1 487 0
 1188 003c ECD1     		bne	.L109
 1189              		.loc 1 501 0
 1190 003e A760     		str	r7, [r4, #8]
 1191              	.LBE259:
ARM GAS  C:\Users\jo\AppData\Local\Temp\ccfyyxNU.s 			page 22


 1192              		.loc 1 503 0
 1193 0040 EC6B     		ldr	r4, [r5, #60]
 1194              	.LVL99:
 1195 0042 002C     		cmp	r4, #0
 1196 0044 F3D1     		bne	.L101
 1197              	.LVL100:
 1198              	.L108:
 1199              		.loc 1 504 0
 1200 0046 2B6C     		ldr	r3, [r5, #64]
 1201 0048 AB60     		str	r3, [r5, #8]
 1202              		.loc 1 505 0
 1203 004a FFF7FEFF 		bl	chSchRescheduleS
 1204              	.LVL101:
 1205              	.L98:
 1206              	.LBB260:
 1207              	.LBB261:
 1208              		.loc 4 360 0
 1209 004e FFF7FEFF 		bl	_dbg_check_unlock
 1210              	.LVL102:
 1211              		.loc 4 367 0
 1212 0052 3368     		ldr	r3, [r6]
 1213 0054 074A     		ldr	r2, .L110
 1214 0056 B342     		cmp	r3, r6
 1215 0058 07D0     		beq	.L102
 1216 005a 9269     		ldr	r2, [r2, #24]
 1217 005c 9B68     		ldr	r3, [r3, #8]
 1218 005e 9268     		ldr	r2, [r2, #8]
 1219 0060 9A42     		cmp	r2, r3
 1220 0062 02D2     		bcs	.L102
 1221 0064 0448     		ldr	r0, .L110+4
 1222 0066 FFF7FEFF 		bl	chSysHalt
 1223              	.LVL103:
 1224              	.L102:
 1225              	.LBB262:
 1226              	.LBB263:
 1227              	.LBB264:
 1228              		.loc 3 546 0
 1229 006a 0023     		movs	r3, #0
 1230              	@ 546 "../../../os/ext/CMSIS/include/core_cmFunc.h" 1
 1231 006c 83F31188 		MSR basepri, r3
 1232              	@ 0 "" 2
 1233              		.thumb
 1234 0070 F8BD     		pop	{r3, r4, r5, r6, r7, pc}
 1235              	.LVL104:
 1236              	.L111:
 1237 0072 00BF     		.align	2
 1238              	.L110:
 1239 0074 00000000 		.word	ch
 1240 0078 00000000 		.word	.LANCHOR2
 1241              	.LBE264:
 1242              	.LBE263:
 1243              	.LBE262:
 1244              	.LBE261:
 1245              	.LBE260:
 1246              		.cfi_endproc
 1247              	.LFE235:
 1248              		.size	chMtxUnlockAll, .-chMtxUnlockAll
ARM GAS  C:\Users\jo\AppData\Local\Temp\ccfyyxNU.s 			page 23


 1249 007c AFF30080 		.section	.rodata.__func__.6546,"a",%progbits
 1250              		.align	2
 1251              		.set	.LANCHOR0,. + 0
 1252              		.type	__func__.6546, %object
 1253              		.size	__func__.6546, 16
 1254              	__func__.6546:
 1255 0000 63684D74 		.ascii	"chMtxObjectInit\000"
 1255      784F626A 
 1255      65637449 
 1255      6E697400 
 1256              		.section	.rodata.__func__.6554,"a",%progbits
 1257              		.align	2
 1258              		.set	.LANCHOR1,. + 0
 1259              		.type	__func__.6554, %object
 1260              		.size	__func__.6554, 11
 1261              	__func__.6554:
 1262 0000 63684D74 		.ascii	"chMtxLockS\000"
 1262      784C6F63 
 1262      6B5300
 1263 000b 00       		.section	.rodata.__func__.6571,"a",%progbits
 1264              		.align	2
 1265              		.set	.LANCHOR3,. + 0
 1266              		.type	__func__.6571, %object
 1267              		.size	__func__.6571, 14
 1268              	__func__.6571:
 1269 0000 63684D74 		.ascii	"chMtxTryLockS\000"
 1269      78547279 
 1269      4C6F636B 
 1269      5300
 1270 000e 0000     		.section	.rodata.__func__.5854,"a",%progbits
 1271              		.align	2
 1272              		.set	.LANCHOR2,. + 0
 1273              		.type	__func__.5854, %object
 1274              		.size	__func__.5854, 12
 1275              	__func__.5854:
 1276 0000 63685379 		.ascii	"chSysUnlock\000"
 1276      73556E6C 
 1276      6F636B00 
 1277              		.section	.rodata.__func__.6577,"a",%progbits
 1278              		.align	2
 1279              		.set	.LANCHOR4,. + 0
 1280              		.type	__func__.6577, %object
 1281              		.size	__func__.6577, 12
 1282              	__func__.6577:
 1283 0000 63684D74 		.ascii	"chMtxUnlock\000"
 1283      78556E6C 
 1283      6F636B00 
 1284              		.section	.rodata.__func__.6588,"a",%progbits
 1285              		.align	2
 1286              		.set	.LANCHOR5,. + 0
 1287              		.type	__func__.6588, %object
 1288              		.size	__func__.6588, 13
 1289              	__func__.6588:
 1290 0000 63684D74 		.ascii	"chMtxUnlockS\000"
 1290      78556E6C 
 1290      6F636B53 
 1290      00
ARM GAS  C:\Users\jo\AppData\Local\Temp\ccfyyxNU.s 			page 24


 1291 000d 000000   		.text
 1292              	.Letext0:
 1293              		.file 6 "c:\\program files\\gnu tools arm embedded\\4.9 2014q4\\arm-none-eabi\\include\\machine\\_
 1294              		.file 7 "c:\\program files\\gnu tools arm embedded\\4.9 2014q4\\arm-none-eabi\\include\\stdint.h"
 1295              		.file 8 "../../../os/rt/ports/ARMCMx/compilers/GCC/chtypes.h"
 1296              		.file 9 "../../../os/rt/include/chsystypes.h"
 1297              		.file 10 "../../../os/rt/ports/ARMCMx/chcore.h"
 1298              		.file 11 "../../../os/rt/ports/ARMCMx/chcore_v7m.h"
 1299              		.file 12 "../../../os/rt/include/chdebug.h"
 1300              		.file 13 "../../../os/rt/include/chtm.h"
 1301              		.file 14 "../../../os/rt/include/chsem.h"
 1302              		.file 15 "../../../os/ext/CMSIS/include/core_cm4.h"