ARM GAS  C:\Users\jo\AppData\Local\Temp\ccSDbvNP.s 			page 1


   1              		.syntax unified
   2              		.cpu cortex-m4
   3              		.fpu softvfp
   4              		.eabi_attribute 20, 1
   5              		.eabi_attribute 21, 1
   6              		.eabi_attribute 23, 3
   7              		.eabi_attribute 24, 1
   8              		.eabi_attribute 25, 1
   9              		.eabi_attribute 26, 1
  10              		.eabi_attribute 30, 2
  11              		.eabi_attribute 34, 1
  12              		.eabi_attribute 18, 4
  13              		.thumb
  14              		.file	"chprintf.c"
  15              		.text
  16              	.Ltext0:
  17              		.cfi_sections	.debug_frame
  18              		.section	.text.long_to_string_with_divisor.constprop.0,"ax",%progbits
  19              		.align	2
  20              		.p2align 4,,15
  21              		.thumb
  22              		.thumb_func
  23              		.type	long_to_string_with_divisor.constprop.0, %function
  24              	long_to_string_with_divisor.constprop.0:
  25              	.LFB264:
  26              		.file 1 "../../../os/hal/lib/streams/chprintf.c"
  27              		.loc 1 37 0
  28              		.cfi_startproc
  29              		@ args = 0, pretend = 0, frame = 0
  30              		@ frame_needed = 0, uses_anonymous_args = 0
  31              		@ link register save eliminated.
  32              	.LVL0:
  33 0000 F0B4     		push	{r4, r5, r6, r7}
  34              		.cfi_def_cfa_offset 16
  35              		.cfi_offset 4, -16
  36              		.cfi_offset 5, -12
  37              		.cfi_offset 6, -8
  38              		.cfi_offset 7, -4
  39              		.loc 1 52 0
  40 0002 00F10B07 		add	r7, r0, #11
  41              	.LVL1:
  42 0006 3C46     		mov	r4, r7
  43 0008 0D46     		mov	r5, r1
  44              	.LVL2:
  45              	.L3:
  46              		.loc 1 54 0
  47 000a B1FBF2F6 		udiv	r6, r1, r2
  48 000e 02FB1611 		mls	r1, r2, r6, r1
  49              	.LVL3:
  50              		.loc 1 55 0
  51 0012 01F13003 		add	r3, r1, #48
  52              	.LVL4:
  53              		.loc 1 56 0
  54 0016 392B     		cmp	r3, #57
  55              		.loc 1 57 0
  56 0018 C8BF     		it	gt
  57 001a 01F13703 		addgt	r3, r1, #55
ARM GAS  C:\Users\jo\AppData\Local\Temp\ccSDbvNP.s 			page 2


  58              	.LVL5:
  59              		.loc 1 58 0
  60 001e DBB2     		uxtb	r3, r3
  61              	.LVL6:
  62 0020 04F8013D 		strb	r3, [r4, #-1]!
  63              	.LVL7:
  64              		.loc 1 60 0
  65 0024 B5FBF2F5 		udiv	r5, r5, r2
  66              	.LVL8:
  67              		.loc 1 59 0
  68 0028 3146     		mov	r1, r6
  69              	.LVL9:
  70              		.loc 1 60 0
  71 002a 002D     		cmp	r5, #0
  72 002c EDD1     		bne	.L3
  73              	.LVL10:
  74              		.loc 1 62 0
  75 002e 3A1B     		subs	r2, r7, r4
  76              	.LVL11:
  77 0030 0244     		add	r2, r2, r0
  78 0032 01E0     		b	.L5
  79              	.LVL12:
  80              	.L10:
  81 0034 14F8013F 		ldrb	r3, [r4, #1]!	@ zero_extendqisi2
  82              	.LVL13:
  83              	.L5:
  84              		.loc 1 64 0
  85 0038 00F8013B 		strb	r3, [r0], #1
  86              	.LVL14:
  87              		.loc 1 65 0
  88 003c 9042     		cmp	r0, r2
  89 003e F9D1     		bne	.L10
  90              		.loc 1 68 0
  91 0040 F0BC     		pop	{r4, r5, r6, r7}
  92              		.cfi_restore 7
  93              		.cfi_restore 6
  94              		.cfi_restore 5
  95              		.cfi_restore 4
  96              		.cfi_def_cfa_offset 0
  97              	.LVL15:
  98 0042 7047     		bx	lr
  99              		.cfi_endproc
 100              	.LFE264:
 101              		.size	long_to_string_with_divisor.constprop.0, .-long_to_string_with_divisor.constprop.0
 102 0044 AFF30080 		.section	.text.chvprintf,"ax",%progbits
 102      AFF30080 
 102      AFF30080 
 103              		.align	2
 104              		.p2align 4,,15
 105              		.global	chvprintf
 106              		.thumb
 107              		.thumb_func
 108              		.type	chvprintf, %function
 109              	chvprintf:
 110              	.LFB262:
 111              		.loc 1 121 0
 112              		.cfi_startproc
ARM GAS  C:\Users\jo\AppData\Local\Temp\ccSDbvNP.s 			page 3


 113              		@ args = 0, pretend = 0, frame = 24
 114              		@ frame_needed = 0, uses_anonymous_args = 0
 115              	.LVL16:
 116 0000 2DE9F04F 		push	{r4, r5, r6, r7, r8, r9, r10, fp, lr}
 117              		.cfi_def_cfa_offset 36
 118              		.cfi_offset 4, -36
 119              		.cfi_offset 5, -32
 120              		.cfi_offset 6, -28
 121              		.cfi_offset 7, -24
 122              		.cfi_offset 8, -20
 123              		.cfi_offset 9, -16
 124              		.cfi_offset 10, -12
 125              		.cfi_offset 11, -8
 126              		.cfi_offset 14, -4
 127 0004 87B0     		sub	sp, sp, #28
 128              		.cfi_def_cfa_offset 64
 129              		.loc 1 121 0
 130 0006 1546     		mov	r5, r2
 131              	.LVL17:
 132 0008 0DF10D03 		add	r3, sp, #13
 133 000c 03AA     		add	r2, sp, #12
 134              	.LVL18:
 135 000e 9B1A     		subs	r3, r3, r2
 136 0010 8146     		mov	r9, r0
 137 0012 8A46     		mov	r10, r1
 138 0014 0193     		str	r3, [sp, #4]
 139              		.loc 1 124 0
 140 0016 4FF00008 		mov	r8, #0
 141 001a 8B46     		mov	fp, r1
 142              	.LVL19:
 143              	.L12:
 144              		.loc 1 135 0
 145 001c 9BF80010 		ldrb	r1, [fp]	@ zero_extendqisi2
 146 0020 0BF10103 		add	r3, fp, #1
 147              	.LVL20:
 148              		.loc 1 136 0
 149 0024 79B1     		cbz	r1, .L82
 150              	.L93:
 151              		.loc 1 138 0
 152 0026 2529     		cmp	r1, #37
 153 0028 11D0     		beq	.L14
 154              		.loc 1 139 0
 155 002a D9F80020 		ldr	r2, [r9]
 156              		.loc 1 135 0
 157 002e 9B46     		mov	fp, r3
 158              		.loc 1 139 0
 159 0030 9268     		ldr	r2, [r2, #8]
 160 0032 4846     		mov	r0, r9
 161 0034 9047     		blx	r2
 162              	.LVL21:
 163              		.loc 1 135 0
 164 0036 9BF80010 		ldrb	r1, [fp]	@ zero_extendqisi2
 165              		.loc 1 140 0
 166 003a 08F10108 		add	r8, r8, #1
 167              	.LVL22:
 168              		.loc 1 135 0
 169 003e 0BF10103 		add	r3, fp, #1
ARM GAS  C:\Users\jo\AppData\Local\Temp\ccSDbvNP.s 			page 4


 170              	.LVL23:
 171              		.loc 1 136 0
 172 0042 0029     		cmp	r1, #0
 173 0044 EFD1     		bne	.L93
 174              	.L82:
 175              		.loc 1 277 0
 176 0046 4046     		mov	r0, r8
 177 0048 07B0     		add	sp, sp, #28
 178              		.cfi_remember_state
 179              		.cfi_def_cfa_offset 36
 180              		@ sp needed
 181 004a BDE8F08F 		pop	{r4, r5, r6, r7, r8, r9, r10, fp, pc}
 182              	.LVL24:
 183              	.L14:
 184              		.cfi_restore_state
 185              		.loc 1 146 0
 186 004e 9BF80120 		ldrb	r2, [fp, #1]	@ zero_extendqisi2
 187 0052 2D2A     		cmp	r2, #45
 188 0054 03BF     		ittte	eq
 189 0056 9BF80220 		ldrbeq	r2, [fp, #2]	@ zero_extendqisi2
 190              		.loc 1 147 0
 191 005a 0BF10203 		addeq	r3, fp, #2
 192              	.LVL25:
 193              		.loc 1 148 0
 194 005e 4FF0010A 		moveq	r10, #1
 195              		.loc 1 145 0
 196 0062 4FF0000A 		movne	r10, #0
 197              	.LVL26:
 198              		.loc 1 151 0
 199 0066 302A     		cmp	r2, #48
 200 0068 03BF     		ittte	eq
 201 006a 5A78     		ldrbeq	r2, [r3, #1]	@ zero_extendqisi2
 202              		.loc 1 152 0
 203 006c 0133     		addeq	r3, r3, #1
 204              	.LVL27:
 205              		.loc 1 153 0
 206 006e 3027     		moveq	r7, #48
 207              		.loc 1 150 0
 208 0070 2027     		movne	r7, #32
 209              	.LVL28:
 210 0072 591C     		adds	r1, r3, #1
 211              	.LVL29:
 212              		.loc 1 155 0
 213 0074 0026     		movs	r6, #0
 214 0076 06E0     		b	.L20
 215              	.LVL30:
 216              	.L94:
 217              		.loc 1 161 0
 218 0078 2B78     		ldrb	r3, [r5]	@ zero_extendqisi2
 219              	.LVL31:
 220 007a 0435     		adds	r5, r5, #4
 221              	.LVL32:
 222              	.L18:
 223 007c 9BF80020 		ldrb	r2, [fp]	@ zero_extendqisi2
 224              		.loc 1 164 0
 225 0080 03EB4006 		add	r6, r3, r0, lsl #1
 226              	.LVL33:
ARM GAS  C:\Users\jo\AppData\Local\Temp\ccSDbvNP.s 			page 5


 227 0084 0131     		adds	r1, r1, #1
 228              	.LVL34:
 229              	.L20:
 230              		.loc 1 158 0
 231 0086 A2F13003 		sub	r3, r2, #48
 232 008a DBB2     		uxtb	r3, r3
 233 008c 092B     		cmp	r3, #9
 234              		.loc 1 157 0
 235 008e 8B46     		mov	fp, r1
 236              	.LVL35:
 237              		.loc 1 164 0
 238 0090 06EB8600 		add	r0, r6, r6, lsl #2
 239              		.loc 1 158 0
 240 0094 F2D9     		bls	.L18
 241              		.loc 1 160 0
 242 0096 2A2A     		cmp	r2, #42
 243 0098 EED0     		beq	.L94
 244              	.LVL36:
 245              		.loc 1 167 0
 246 009a 2E2A     		cmp	r2, #46
 247 009c 4FF00001 		mov	r1, #0
 248              	.LVL37:
 249 00a0 43D0     		beq	.L23
 250              	.LVL38:
 251              		.loc 1 181 0
 252 00a2 02F0DF03 		and	r3, r2, #223
 253 00a6 4C2B     		cmp	r3, #76
 254 00a8 4ED0     		beq	.L95
 255              	.L83:
 256              		.loc 1 190 0
 257 00aa A2F14400 		sub	r0, r2, #68
 258 00ae 3428     		cmp	r0, #52
 259 00b0 00F2F780 		bhi	.L26
 260 00b4 DFE810F0 		tbh	[pc, r0, lsl #1]
 261              	.L35:
 262 00b8 EA00     		.2byte	(.L43-.L35)/2
 263 00ba F500     		.2byte	(.L26-.L35)/2
 264 00bc F500     		.2byte	(.L26-.L35)/2
 265 00be F500     		.2byte	(.L26-.L35)/2
 266 00c0 F500     		.2byte	(.L26-.L35)/2
 267 00c2 EA00     		.2byte	(.L43-.L35)/2
 268 00c4 F500     		.2byte	(.L26-.L35)/2
 269 00c6 F500     		.2byte	(.L26-.L35)/2
 270 00c8 F500     		.2byte	(.L26-.L35)/2
 271 00ca F500     		.2byte	(.L26-.L35)/2
 272 00cc F500     		.2byte	(.L26-.L35)/2
 273 00ce E800     		.2byte	(.L29-.L35)/2
 274 00d0 F500     		.2byte	(.L26-.L35)/2
 275 00d2 F500     		.2byte	(.L26-.L35)/2
 276 00d4 F500     		.2byte	(.L26-.L35)/2
 277 00d6 F500     		.2byte	(.L26-.L35)/2
 278 00d8 F500     		.2byte	(.L26-.L35)/2
 279 00da DD00     		.2byte	(.L30-.L35)/2
 280 00dc F500     		.2byte	(.L26-.L35)/2
 281 00de F500     		.2byte	(.L26-.L35)/2
 282 00e0 F200     		.2byte	(.L68-.L35)/2
 283 00e2 F500     		.2byte	(.L26-.L35)/2
ARM GAS  C:\Users\jo\AppData\Local\Temp\ccSDbvNP.s 			page 6


 284 00e4 F500     		.2byte	(.L26-.L35)/2
 285 00e6 F500     		.2byte	(.L26-.L35)/2
 286 00e8 F500     		.2byte	(.L26-.L35)/2
 287 00ea F500     		.2byte	(.L26-.L35)/2
 288 00ec F500     		.2byte	(.L26-.L35)/2
 289 00ee F500     		.2byte	(.L26-.L35)/2
 290 00f0 F500     		.2byte	(.L26-.L35)/2
 291 00f2 F500     		.2byte	(.L26-.L35)/2
 292 00f4 F500     		.2byte	(.L26-.L35)/2
 293 00f6 A100     		.2byte	(.L32-.L35)/2
 294 00f8 EA00     		.2byte	(.L43-.L35)/2
 295 00fa F500     		.2byte	(.L26-.L35)/2
 296 00fc F500     		.2byte	(.L26-.L35)/2
 297 00fe F500     		.2byte	(.L26-.L35)/2
 298 0100 F500     		.2byte	(.L26-.L35)/2
 299 0102 EA00     		.2byte	(.L43-.L35)/2
 300 0104 F500     		.2byte	(.L26-.L35)/2
 301 0106 F500     		.2byte	(.L26-.L35)/2
 302 0108 F500     		.2byte	(.L26-.L35)/2
 303 010a F500     		.2byte	(.L26-.L35)/2
 304 010c F500     		.2byte	(.L26-.L35)/2
 305 010e E800     		.2byte	(.L29-.L35)/2
 306 0110 F500     		.2byte	(.L26-.L35)/2
 307 0112 F500     		.2byte	(.L26-.L35)/2
 308 0114 F500     		.2byte	(.L26-.L35)/2
 309 0116 7100     		.2byte	(.L33-.L35)/2
 310 0118 F500     		.2byte	(.L26-.L35)/2
 311 011a DD00     		.2byte	(.L30-.L35)/2
 312 011c F500     		.2byte	(.L26-.L35)/2
 313 011e F500     		.2byte	(.L26-.L35)/2
 314 0120 F200     		.2byte	(.L68-.L35)/2
 315              	.LVL39:
 316              		.p2align 1
 317              	.L96:
 318              		.loc 1 173 0
 319 0122 2B78     		ldrb	r3, [r5]	@ zero_extendqisi2
 320              	.LVL40:
 321 0124 0435     		adds	r5, r5, #4
 322              	.LVL41:
 323              	.L22:
 324              		.loc 1 177 0
 325 0126 03EB4001 		add	r1, r3, r0, lsl #1
 326              	.LVL42:
 327              	.L23:
 328              		.loc 1 169 0
 329 012a 1BF8012B 		ldrb	r2, [fp], #1	@ zero_extendqisi2
 330              	.LVL43:
 331              		.loc 1 170 0
 332 012e A2F13003 		sub	r3, r2, #48
 333 0132 DBB2     		uxtb	r3, r3
 334 0134 092B     		cmp	r3, #9
 335              		.loc 1 176 0
 336 0136 01EB8100 		add	r0, r1, r1, lsl #2
 337              		.loc 1 170 0
 338 013a F4D9     		bls	.L22
 339              		.loc 1 172 0
 340 013c 2A2A     		cmp	r2, #42
ARM GAS  C:\Users\jo\AppData\Local\Temp\ccSDbvNP.s 			page 7


 341 013e F0D0     		beq	.L96
 342              	.LVL44:
 343              		.loc 1 181 0
 344 0140 02F0DF03 		and	r3, r2, #223
 345 0144 4C2B     		cmp	r3, #76
 346 0146 B0D1     		bne	.L83
 347              	.L95:
 348              	.LVL45:
 349              		.loc 1 183 0
 350 0148 9BF80030 		ldrb	r3, [fp]	@ zero_extendqisi2
 351 014c 002B     		cmp	r3, #0
 352 014e 00F0A880 		beq	.L26
 353              		.loc 1 190 0
 354 0152 A3F14402 		sub	r2, r3, #68
 355              	.LVL46:
 356              		.loc 1 184 0
 357 0156 0BF1010B 		add	fp, fp, #1
 358              	.LVL47:
 359              		.loc 1 190 0
 360 015a 342A     		cmp	r2, #52
 361 015c 00F2A080 		bhi	.L65
 362 0160 DFE802F0 		tbb	[pc, r2]
 363              	.L28:
 364 0164 94       		.byte	(.L43-.L28)/2
 365 0165 9E       		.byte	(.L65-.L28)/2
 366 0166 9E       		.byte	(.L65-.L28)/2
 367 0167 9E       		.byte	(.L65-.L28)/2
 368 0168 9E       		.byte	(.L65-.L28)/2
 369 0169 94       		.byte	(.L43-.L28)/2
 370 016a 9E       		.byte	(.L65-.L28)/2
 371 016b 9E       		.byte	(.L65-.L28)/2
 372 016c 9E       		.byte	(.L65-.L28)/2
 373 016d 9E       		.byte	(.L65-.L28)/2
 374 016e 9E       		.byte	(.L65-.L28)/2
 375 016f 92       		.byte	(.L29-.L28)/2
 376 0170 9E       		.byte	(.L65-.L28)/2
 377 0171 9E       		.byte	(.L65-.L28)/2
 378 0172 9E       		.byte	(.L65-.L28)/2
 379 0173 9E       		.byte	(.L65-.L28)/2
 380 0174 9E       		.byte	(.L65-.L28)/2
 381 0175 87       		.byte	(.L30-.L28)/2
 382 0176 9E       		.byte	(.L65-.L28)/2
 383 0177 9E       		.byte	(.L65-.L28)/2
 384 0178 9C       		.byte	(.L68-.L28)/2
 385 0179 9E       		.byte	(.L65-.L28)/2
 386 017a 9E       		.byte	(.L65-.L28)/2
 387 017b 9E       		.byte	(.L65-.L28)/2
 388 017c 9E       		.byte	(.L65-.L28)/2
 389 017d 9E       		.byte	(.L65-.L28)/2
 390 017e 9E       		.byte	(.L65-.L28)/2
 391 017f 9E       		.byte	(.L65-.L28)/2
 392 0180 9E       		.byte	(.L65-.L28)/2
 393 0181 9E       		.byte	(.L65-.L28)/2
 394 0182 9E       		.byte	(.L65-.L28)/2
 395 0183 4B       		.byte	(.L32-.L28)/2
 396 0184 94       		.byte	(.L43-.L28)/2
 397 0185 9E       		.byte	(.L65-.L28)/2
ARM GAS  C:\Users\jo\AppData\Local\Temp\ccSDbvNP.s 			page 8


 398 0186 9E       		.byte	(.L65-.L28)/2
 399 0187 9E       		.byte	(.L65-.L28)/2
 400 0188 9E       		.byte	(.L65-.L28)/2
 401 0189 94       		.byte	(.L43-.L28)/2
 402 018a 9E       		.byte	(.L65-.L28)/2
 403 018b 9E       		.byte	(.L65-.L28)/2
 404 018c 9E       		.byte	(.L65-.L28)/2
 405 018d 9E       		.byte	(.L65-.L28)/2
 406 018e 9E       		.byte	(.L65-.L28)/2
 407 018f 92       		.byte	(.L29-.L28)/2
 408 0190 9E       		.byte	(.L65-.L28)/2
 409 0191 9E       		.byte	(.L65-.L28)/2
 410 0192 9E       		.byte	(.L65-.L28)/2
 411 0193 1B       		.byte	(.L33-.L28)/2
 412 0194 9E       		.byte	(.L65-.L28)/2
 413 0195 87       		.byte	(.L30-.L28)/2
 414 0196 9E       		.byte	(.L65-.L28)/2
 415 0197 9E       		.byte	(.L65-.L28)/2
 416 0198 9C       		.byte	(.L68-.L28)/2
 417              	.LVL48:
 418 0199 00       		.p2align 1
 419              	.L33:
 420              		.loc 1 197 0
 421 019a 2C68     		ldr	r4, [r5]
 422              		.loc 1 198 0
 423 019c 5A4B     		ldr	r3, .L101
 424 019e 002C     		cmp	r4, #0
 425 01a0 08BF     		it	eq
 426 01a2 1C46     		moveq	r4, r3
 427              		.loc 1 197 0
 428 01a4 0435     		adds	r5, r5, #4
 429              	.LVL49:
 430              		.loc 1 201 0
 431 01a6 2378     		ldrb	r3, [r4]	@ zero_extendqisi2
 432              		.loc 1 199 0
 433 01a8 0029     		cmp	r1, #0
 434 01aa 00F09480 		beq	.L39
 435              	.LVL50:
 436              		.loc 1 201 0 discriminator 1
 437 01ae 002B     		cmp	r3, #0
 438 01b0 00F09680 		beq	.L40
 439              		.loc 1 201 0 is_stmt 0
 440 01b4 0139     		subs	r1, r1, #1
 441              	.LVL51:
 442              	.L57:
 443              		.loc 1 201 0 discriminator 4
 444 01b6 2046     		mov	r0, r4
 445 01b8 01E0     		b	.L42
 446              	.LVL52:
 447              	.L97:
 448              		.loc 1 201 0 discriminator 3
 449 01ba 0139     		subs	r1, r1, #1
 450              	.LVL53:
 451 01bc 03D4     		bmi	.L87
 452              	.LVL54:
 453              	.L42:
 454              		.loc 1 201 0 discriminator 4
ARM GAS  C:\Users\jo\AppData\Local\Temp\ccSDbvNP.s 			page 9


 455 01be 10F8013F 		ldrb	r3, [r0, #1]!	@ zero_extendqisi2
 456              	.LVL55:
 457 01c2 002B     		cmp	r3, #0
 458 01c4 F9D1     		bne	.L97
 459              	.LVL56:
 460              	.L87:
 461 01c6 001B     		subs	r0, r0, r4
 462              	.LVL57:
 463              		.loc 1 251 0 is_stmt 1
 464 01c8 361A     		subs	r6, r6, r0
 465              	.LVL58:
 466 01ca 431E     		subs	r3, r0, #1
 467              		.loc 1 196 0
 468 01cc 2027     		movs	r7, #32
 469              	.LVL59:
 470 01ce 26EAE676 		bic	r6, r6, r6, asr #31
 471              	.LVL60:
 472              		.loc 1 253 0
 473 01d2 BAF1000F 		cmp	r10, #0
 474 01d6 1FD0     		beq	.L98
 475              	.L48:
 476              	.LVL61:
 477              		.loc 1 266 0
 478 01d8 002B     		cmp	r3, #0
 479 01da 0093     		str	r3, [sp]
 480 01dc 34DA     		bge	.L58
 481              	.LVL62:
 482              	.L53:
 483              		.loc 1 271 0
 484 01de 002E     		cmp	r6, #0
 485 01e0 3FF41CAF 		beq	.L12
 486 01e4 3446     		mov	r4, r6
 487              	.LVL63:
 488              	.L55:
 489              		.loc 1 272 0
 490 01e6 D9F80030 		ldr	r3, [r9]
 491 01ea 4846     		mov	r0, r9
 492 01ec 9B68     		ldr	r3, [r3, #8]
 493 01ee 3946     		mov	r1, r7
 494 01f0 9847     		blx	r3
 495              	.LVL64:
 496              		.loc 1 271 0
 497 01f2 013C     		subs	r4, r4, #1
 498              	.LVL65:
 499 01f4 F7D1     		bne	.L55
 500 01f6 B044     		add	r8, r8, r6
 501 01f8 10E7     		b	.L12
 502              	.LVL66:
 503              	.L32:
 504              		.loc 1 193 0
 505 01fa 2B68     		ldr	r3, [r5]
 506 01fc 8DF80C30 		strb	r3, [sp, #12]
 507 0200 019B     		ldr	r3, [sp, #4]
 508 0202 0435     		adds	r5, r5, #4
 509 0204 1846     		mov	r0, r3
 510              		.loc 1 192 0
 511 0206 2027     		movs	r7, #32
ARM GAS  C:\Users\jo\AppData\Local\Temp\ccSDbvNP.s 			page 10


 512 0208 013B     		subs	r3, r3, #1
 513              		.loc 1 144 0
 514 020a 03AC     		add	r4, sp, #12
 515              	.LVL67:
 516              	.L37:
 517              		.loc 1 251 0
 518 020c 361A     		subs	r6, r6, r0
 519              	.LVL68:
 520 020e 26EAE676 		bic	r6, r6, r6, asr #31
 521              	.LVL69:
 522              		.loc 1 253 0
 523 0212 BAF1000F 		cmp	r10, #0
 524 0216 DFD1     		bne	.L48
 525              	.L98:
 526 0218 0093     		str	r3, [sp]
 527              	.LVL70:
 528              	.L59:
 529              		.loc 1 254 0
 530 021a C6F1000A 		rsb	r10, r6, #0
 531              	.LVL71:
 532              		.loc 1 255 0
 533 021e BAF1000F 		cmp	r10, #0
 534 0222 45D0     		beq	.L49
 535              		.loc 1 256 0
 536 0224 2178     		ldrb	r1, [r4]	@ zero_extendqisi2
 537 0226 2D29     		cmp	r1, #45
 538 0228 47D0     		beq	.L99
 539              	.L50:
 540              		.loc 1 258 0 discriminator 1
 541 022a 5646     		mov	r6, r10
 542              	.LVL72:
 543              	.L51:
 544              		.loc 1 262 0 discriminator 1
 545 022c D9F80030 		ldr	r3, [r9]
 546 0230 4846     		mov	r0, r9
 547 0232 9B68     		ldr	r3, [r3, #8]
 548 0234 3946     		mov	r1, r7
 549 0236 9847     		blx	r3
 550              	.LVL73:
 551              		.loc 1 264 0 discriminator 1
 552 0238 0136     		adds	r6, r6, #1
 553              	.LVL74:
 554 023a F7D1     		bne	.L51
 555              		.loc 1 266 0
 556 023c 009B     		ldr	r3, [sp]
 557 023e 002B     		cmp	r3, #0
 558 0240 CAEB0808 		rsb	r8, r10, r8
 559              	.LVL75:
 560 0244 FFF6EAAE 		blt	.L12
 561              	.LVL76:
 562              	.L58:
 563 0248 DDF800A0 		ldr	r10, [sp]
 564              	.LVL77:
 565              	.L54:
 566              		.loc 1 267 0
 567 024c D9F80030 		ldr	r3, [r9]
 568 0250 14F8011B 		ldrb	r1, [r4], #1	@ zero_extendqisi2
ARM GAS  C:\Users\jo\AppData\Local\Temp\ccSDbvNP.s 			page 11


 569              	.LVL78:
 570 0254 9B68     		ldr	r3, [r3, #8]
 571              		.loc 1 266 0
 572 0256 0AF1FF3A 		add	r10, r10, #-1
 573              	.LVL79:
 574              		.loc 1 267 0
 575 025a 4846     		mov	r0, r9
 576 025c 9847     		blx	r3
 577              	.LVL80:
 578              		.loc 1 266 0
 579 025e BAF1FF3F 		cmp	r10, #-1
 580 0262 F3D1     		bne	.L54
 581 0264 009B     		ldr	r3, [sp]
 582 0266 08F10108 		add	r8, r8, #1
 583 026a 002B     		cmp	r3, #0
 584 026c A8BF     		it	ge
 585 026e 9844     		addge	r8, r8, r3
 586 0270 B5E7     		b	.L53
 587              	.LVL81:
 588              	.L30:
 589              		.loc 1 235 0
 590 0272 0A22     		movs	r2, #10
 591              	.LVL82:
 592              	.L89:
 593              		.loc 1 243 0
 594 0274 2968     		ldr	r1, [r5]
 595              	.LVL83:
 596              	.LBB6:
 597              	.LBB7:
 598              		.loc 1 72 0
 599 0276 03A8     		add	r0, sp, #12
 600              	.LVL84:
 601              	.LBE7:
 602              	.LBE6:
 603              		.loc 1 243 0
 604 0278 0435     		adds	r5, r5, #4
 605              	.LVL85:
 606              	.L88:
 607              	.LBB9:
 608              	.LBB8:
 609              		.loc 1 72 0
 610 027a FFF7FEFF 		bl	long_to_string_with_divisor.constprop.0
 611              	.LVL86:
 612 027e 03AB     		add	r3, sp, #12
 613              	.LVL87:
 614 0280 C01A     		subs	r0, r0, r3
 615 0282 431E     		subs	r3, r0, #1
 616              	.LVL88:
 617              	.LBE8:
 618              	.LBE9:
 619              		.loc 1 144 0
 620 0284 03AC     		add	r4, sp, #12
 621              	.LVL89:
 622              		.loc 1 245 0
 623 0286 C1E7     		b	.L37
 624              	.LVL90:
 625              	.L29:
ARM GAS  C:\Users\jo\AppData\Local\Temp\ccSDbvNP.s 			page 12


 626 0288 0822     		movs	r2, #8
 627 028a F3E7     		b	.L89
 628              	.LVL91:
 629              	.L43:
 630              		.loc 1 211 0
 631 028c 2968     		ldr	r1, [r5]
 632              	.LVL92:
 633              		.loc 1 212 0
 634 028e 0029     		cmp	r1, #0
 635              		.loc 1 211 0
 636 0290 05F10405 		add	r5, r5, #4
 637              		.loc 1 212 0
 638 0294 2EDB     		blt	.L100
 639              		.loc 1 143 0
 640 0296 03A8     		add	r0, sp, #12
 641              	.LVL93:
 642              	.L45:
 643              	.LBB10:
 644              	.LBB11:
 645              		.loc 1 72 0
 646 0298 0A22     		movs	r2, #10
 647 029a EEE7     		b	.L88
 648              	.LVL94:
 649              	.L68:
 650              	.L36:
 651              	.LBE11:
 652              	.LBE10:
 653              		.loc 1 190 0
 654 029c 1022     		movs	r2, #16
 655 029e E9E7     		b	.L89
 656              	.LVL95:
 657              	.L65:
 658 02a0 1A46     		mov	r2, r3
 659              	.LVL96:
 660              	.L26:
 661 02a2 019B     		ldr	r3, [sp, #4]
 662              		.loc 1 247 0
 663 02a4 8DF80C20 		strb	r2, [sp, #12]
 664 02a8 1846     		mov	r0, r3
 665              		.loc 1 144 0
 666 02aa 03AC     		add	r4, sp, #12
 667              	.LVL97:
 668 02ac 013B     		subs	r3, r3, #1
 669              		.loc 1 248 0
 670 02ae ADE7     		b	.L37
 671              	.LVL98:
 672              	.L49:
 673              		.loc 1 266 0
 674 02b0 009B     		ldr	r3, [sp]
 675 02b2 002B     		cmp	r3, #0
 676 02b4 5646     		mov	r6, r10
 677              	.LVL99:
 678 02b6 C7DA     		bge	.L58
 679              	.LVL100:
 680 02b8 B0E6     		b	.L12
 681              	.LVL101:
 682              	.L99:
ARM GAS  C:\Users\jo\AppData\Local\Temp\ccSDbvNP.s 			page 13


 683              		.loc 1 256 0 discriminator 1
 684 02ba 302F     		cmp	r7, #48
 685 02bc B5D1     		bne	.L50
 686              		.loc 1 257 0
 687 02be D9F80030 		ldr	r3, [r9]
 688 02c2 4846     		mov	r0, r9
 689 02c4 9B68     		ldr	r3, [r3, #8]
 690 02c6 9847     		blx	r3
 691              	.LVL102:
 692 02c8 009B     		ldr	r3, [sp]
 693 02ca 013B     		subs	r3, r3, #1
 694 02cc 0134     		adds	r4, r4, #1
 695              	.LVL103:
 696              		.loc 1 258 0
 697 02ce 08F10108 		add	r8, r8, #1
 698              	.LVL104:
 699 02d2 0093     		str	r3, [sp]
 700              	.LVL105:
 701 02d4 A9E7     		b	.L50
 702              	.LVL106:
 703              	.L39:
 704              		.loc 1 201 0
 705 02d6 47F6FE71 		movw	r1, #32766
 706 02da 002B     		cmp	r3, #0
 707 02dc 7FF46BAF 		bne	.L57
 708              	.LVL107:
 709              	.L40:
 710 02e0 26EAE676 		bic	r6, r6, r6, asr #31
 711              	.LVL108:
 712              		.loc 1 253 0
 713 02e4 BAF1000F 		cmp	r10, #0
 714 02e8 0BD1     		bne	.L71
 715 02ea 4FF0FF33 		mov	r3, #-1
 716 02ee 0093     		str	r3, [sp]
 717 02f0 2027     		movs	r7, #32
 718 02f2 92E7     		b	.L59
 719              	.LVL109:
 720              	.L100:
 721              		.loc 1 213 0
 722 02f4 2D23     		movs	r3, #45
 723              		.loc 1 214 0
 724 02f6 4942     		negs	r1, r1
 725              	.LVL110:
 726              		.loc 1 213 0
 727 02f8 8DF80C30 		strb	r3, [sp, #12]
 728 02fc 0DF10D00 		add	r0, sp, #13
 729              	.LVL111:
 730 0300 CAE7     		b	.L45
 731              	.LVL112:
 732              	.L71:
 733              		.loc 1 253 0
 734 0302 2027     		movs	r7, #32
 735 0304 6BE7     		b	.L53
 736              	.L102:
 737 0306 00BF     		.align	2
 738              	.L101:
 739 0308 00000000 		.word	.LC0
ARM GAS  C:\Users\jo\AppData\Local\Temp\ccSDbvNP.s 			page 14


 740              		.cfi_endproc
 741              	.LFE262:
 742              		.size	chvprintf, .-chvprintf
 743 030c AFF30080 		.section	.text.chsnprintf,"ax",%progbits
 744              		.align	2
 745              		.p2align 4,,15
 746              		.global	chsnprintf
 747              		.thumb
 748              		.thumb_func
 749              		.type	chsnprintf, %function
 750              	chsnprintf:
 751              	.LFB263:
 752              		.loc 1 307 0
 753              		.cfi_startproc
 754              		@ args = 4, pretend = 8, frame = 24
 755              		@ frame_needed = 0, uses_anonymous_args = 1
 756              	.LVL113:
 757 0000 0CB4     		push	{r2, r3}
 758              		.cfi_def_cfa_offset 8
 759              		.cfi_offset 2, -8
 760              		.cfi_offset 3, -4
 761 0002 30B5     		push	{r4, r5, lr}
 762              		.cfi_def_cfa_offset 20
 763              		.cfi_offset 4, -20
 764              		.cfi_offset 5, -16
 765              		.cfi_offset 14, -12
 766 0004 0546     		mov	r5, r0
 767 0006 87B0     		sub	sp, sp, #28
 768              		.cfi_def_cfa_offset 48
 769              		.loc 1 314 0
 770 0008 0C46     		mov	r4, r1
 771 000a B1B1     		cbz	r1, .L104
 772              	.LVL114:
 773              		.loc 1 321 0
 774 000c 01A8     		add	r0, sp, #4
 775              	.LVL115:
 776 000e 2946     		mov	r1, r5
 777              	.LVL116:
 778 0010 621E     		subs	r2, r4, #1
 779              	.LVL117:
 780 0012 0023     		movs	r3, #0
 781 0014 FFF7FEFF 		bl	msObjectInit
 782              	.LVL118:
 783              		.loc 1 325 0
 784 0018 0BAB     		add	r3, sp, #44
 785              		.loc 1 326 0
 786 001a 1A46     		mov	r2, r3
 787 001c 01A8     		add	r0, sp, #4
 788              	.LVL119:
 789 001e 0A99     		ldr	r1, [sp, #40]
 790              		.loc 1 325 0
 791 0020 0093     		str	r3, [sp]
 792              		.loc 1 326 0
 793 0022 FFF7FEFF 		bl	chvprintf
 794              	.LVL120:
 795              		.loc 1 330 0
 796 0026 049B     		ldr	r3, [sp, #16]
ARM GAS  C:\Users\jo\AppData\Local\Temp\ccSDbvNP.s 			page 15


 797 0028 9C42     		cmp	r4, r3
 798 002a 01D9     		bls	.L106
 799              		.loc 1 331 0
 800 002c 0022     		movs	r2, #0
 801 002e EA54     		strb	r2, [r5, r3]
 802              	.L106:
 803              		.loc 1 335 0
 804 0030 07B0     		add	sp, sp, #28
 805              		.cfi_remember_state
 806              		.cfi_def_cfa_offset 20
 807              		@ sp needed
 808 0032 BDE83040 		pop	{r4, r5, lr}
 809              		.cfi_restore 14
 810              		.cfi_restore 5
 811              		.cfi_restore 4
 812              		.cfi_def_cfa_offset 8
 813              	.LVL121:
 814 0036 02B0     		add	sp, sp, #8
 815              		.cfi_restore 3
 816              		.cfi_restore 2
 817              		.cfi_def_cfa_offset 0
 818 0038 7047     		bx	lr
 819              	.LVL122:
 820              	.L104:
 821              		.cfi_restore_state
 822              		.loc 1 321 0
 823 003a 0146     		mov	r1, r0
 824              	.LVL123:
 825 003c 2246     		mov	r2, r4
 826 003e 01A8     		add	r0, sp, #4
 827              	.LVL124:
 828 0040 2346     		mov	r3, r4
 829 0042 FFF7FEFF 		bl	msObjectInit
 830              	.LVL125:
 831              		.loc 1 325 0
 832 0046 0BAB     		add	r3, sp, #44
 833              		.loc 1 326 0
 834 0048 01A8     		add	r0, sp, #4
 835              	.LVL126:
 836 004a 1A46     		mov	r2, r3
 837 004c 0A99     		ldr	r1, [sp, #40]
 838              		.loc 1 325 0
 839 004e 0093     		str	r3, [sp]
 840              		.loc 1 326 0
 841 0050 FFF7FEFF 		bl	chvprintf
 842              	.LVL127:
 843              		.loc 1 335 0
 844 0054 07B0     		add	sp, sp, #28
 845              		.cfi_def_cfa_offset 20
 846              		@ sp needed
 847 0056 BDE83040 		pop	{r4, r5, lr}
 848              		.cfi_restore 4
 849              		.cfi_restore 5
 850              		.cfi_restore 14
 851              		.cfi_def_cfa_offset 8
 852              	.LVL128:
 853 005a 02B0     		add	sp, sp, #8
ARM GAS  C:\Users\jo\AppData\Local\Temp\ccSDbvNP.s 			page 16


 854              		.cfi_restore 2
 855              		.cfi_restore 3
 856              		.cfi_def_cfa_offset 0
 857 005c 7047     		bx	lr
 858              		.cfi_endproc
 859              	.LFE263:
 860              		.size	chsnprintf, .-chsnprintf
 861 005e 00BF     		.section	.rodata.str1.4,"aMS",%progbits,1
 862              		.align	2
 863              	.LC0:
 864 0000 286E756C 		.ascii	"(null)\000"
 864      6C2900
 865 0007 00       		.text
 866              	.Letext0:
 867              		.file 2 "c:\\program files\\gnu tools arm embedded\\4.9 2014q4\\lib\\gcc\\arm-none-eabi\\4.9.3\\in
 868              		.file 3 "c:\\program files\\gnu tools arm embedded\\4.9 2014q4\\arm-none-eabi\\include\\machine\\_
 869              		.file 4 "c:\\program files\\gnu tools arm embedded\\4.9 2014q4\\arm-none-eabi\\include\\stdint.h"
 870              		.file 5 "../../../os/rt/ports/ARMCMx/compilers/GCC/chtypes.h"
 871              		.file 6 "../../../os/rt/include/chsystypes.h"
 872              		.file 7 "../../../os/rt/include/chschd.h"
 873              		.file 8 "../../../os/rt/ports/ARMCMx/chcore.h"
 874              		.file 9 "../../../os/rt/ports/ARMCMx/chcore_v7m.h"
 875              		.file 10 "../../../os/rt/include/chdebug.h"
 876              		.file 11 "../../../os/rt/include/chtm.h"
 877              		.file 12 "../../../os/rt/include/chsem.h"
 878              		.file 13 "../../../os/rt/include/chmtx.h"
 879              		.file 14 "../../../os/rt/include/chstreams.h"
 880              		.file 15 "c:\\program files\\gnu tools arm embedded\\4.9 2014q4\\lib\\gcc\\arm-none-eabi\\4.9.3\\i
 881              		.file 16 "<built-in>"
 882              		.file 17 "../../../os/hal/lib/streams/memstreams.h"
 883              		.file 18 "../../../os/ext/CMSIS/include/core_cm4.h"