ARM GAS  C:\Users\jo\AppData\Local\Temp\ccV5Mo2f.s 			page 1


   1              		.syntax unified
   2              		.cpu cortex-m4
   3              		.fpu softvfp
   4              		.eabi_attribute 20, 1
   5              		.eabi_attribute 21, 1
   6              		.eabi_attribute 23, 3
   7              		.eabi_attribute 24, 1
   8              		.eabi_attribute 25, 1
   9              		.eabi_attribute 26, 1
  10              		.eabi_attribute 30, 2
  11              		.eabi_attribute 34, 1
  12              		.eabi_attribute 18, 4
  13              		.thumb
  14              		.file	"chregistry.c"
  15              		.text
  16              	.Ltext0:
  17              		.cfi_sections	.debug_frame
  18              		.section	.text.chRegFirstThread,"ax",%progbits
  19              		.align	2
  20              		.p2align 4,,15
  21              		.global	chRegFirstThread
  22              		.thumb
  23              		.thumb_func
  24              		.type	chRegFirstThread, %function
  25              	chRegFirstThread:
  26              	.LFB228:
  27              		.file 1 "../../../os/rt/src/chregistry.c"
  28              		.loc 1 131 0
  29              		.cfi_startproc
  30              		@ args = 0, pretend = 0, frame = 0
  31              		@ frame_needed = 0, uses_anonymous_args = 0
  32              	.LVL0:
  33 0000 38B5     		push	{r3, r4, r5, lr}
  34              		.cfi_def_cfa_offset 16
  35              		.cfi_offset 3, -16
  36              		.cfi_offset 4, -12
  37              		.cfi_offset 5, -8
  38              		.cfi_offset 14, -4
  39              	.LBB34:
  40              	.LBB35:
  41              	.LBB36:
  42              	.LBB37:
  43              	.LBB38:
  44              		.file 2 "../../../os/ext/CMSIS/include/core_cmFunc.h"
  45              		.loc 2 546 0
  46 0002 2023     		movs	r3, #32
  47              	@ 546 "../../../os/ext/CMSIS/include/core_cmFunc.h" 1
  48 0004 83F31188 		MSR basepri, r3
  49              	@ 0 "" 2
  50              		.thumb
  51              	.LBE38:
  52              	.LBE37:
  53              	.LBE36:
  54              	.LBE35:
  55              	.LBE34:
  56              		.loc 1 135 0
  57 0008 0D4C     		ldr	r4, .L5
ARM GAS  C:\Users\jo\AppData\Local\Temp\ccV5Mo2f.s 			page 2


  58              	.LBB40:
  59              	.LBB39:
  60              		.file 3 "../../../os/rt/include/chsys.h"
  61              		.loc 3 350 0
  62 000a FFF7FEFF 		bl	_dbg_check_lock
  63              	.LVL1:
  64              	.LBE39:
  65              	.LBE40:
  66              		.loc 1 135 0
  67 000e 2569     		ldr	r5, [r4, #16]
  68              	.LVL2:
  69              		.loc 1 137 0
  70 0010 95F82230 		ldrb	r3, [r5, #34]	@ zero_extendqisi2
  71 0014 0133     		adds	r3, r3, #1
  72 0016 85F82230 		strb	r3, [r5, #34]
  73              	.LBB41:
  74              	.LBB42:
  75              		.loc 3 360 0
  76 001a FFF7FEFF 		bl	_dbg_check_unlock
  77              	.LVL3:
  78              		.loc 3 367 0
  79 001e 2368     		ldr	r3, [r4]
  80 0020 A342     		cmp	r3, r4
  81 0022 07D0     		beq	.L2
  82 0024 A269     		ldr	r2, [r4, #24]
  83 0026 9B68     		ldr	r3, [r3, #8]
  84 0028 9268     		ldr	r2, [r2, #8]
  85 002a 9A42     		cmp	r2, r3
  86 002c 02D2     		bcs	.L2
  87 002e 0548     		ldr	r0, .L5+4
  88 0030 FFF7FEFF 		bl	chSysHalt
  89              	.LVL4:
  90              	.L2:
  91              	.LBB43:
  92              	.LBB44:
  93              	.LBB45:
  94              		.loc 2 546 0
  95 0034 0023     		movs	r3, #0
  96              	@ 546 "../../../os/ext/CMSIS/include/core_cmFunc.h" 1
  97 0036 83F31188 		MSR basepri, r3
  98              	@ 0 "" 2
  99              		.thumb
 100              	.LBE45:
 101              	.LBE44:
 102              	.LBE43:
 103              	.LBE42:
 104              	.LBE41:
 105              		.loc 1 142 0
 106 003a 2846     		mov	r0, r5
 107 003c 38BD     		pop	{r3, r4, r5, pc}
 108              	.LVL5:
 109              	.L6:
 110 003e 00BF     		.align	2
 111              	.L5:
 112 0040 00000000 		.word	ch
 113 0044 00000000 		.word	.LANCHOR0
 114              		.cfi_endproc
ARM GAS  C:\Users\jo\AppData\Local\Temp\ccV5Mo2f.s 			page 3


 115              	.LFE228:
 116              		.size	chRegFirstThread, .-chRegFirstThread
 117 0048 AFF30080 		.section	.text.chRegNextThread,"ax",%progbits
 117      AFF30080 
 118              		.align	2
 119              		.p2align 4,,15
 120              		.global	chRegNextThread
 121              		.thumb
 122              		.thumb_func
 123              		.type	chRegNextThread, %function
 124              	chRegNextThread:
 125              	.LFB229:
 126              		.loc 1 155 0
 127              		.cfi_startproc
 128              		@ args = 0, pretend = 0, frame = 0
 129              		@ frame_needed = 0, uses_anonymous_args = 0
 130              	.LVL6:
 131 0000 70B5     		push	{r4, r5, r6, lr}
 132              		.cfi_def_cfa_offset 16
 133              		.cfi_offset 4, -16
 134              		.cfi_offset 5, -12
 135              		.cfi_offset 6, -8
 136              		.cfi_offset 14, -4
 137              	.LBB56:
 138              	.LBB57:
 139              	.LBB58:
 140              	.LBB59:
 141              	.LBB60:
 142              		.loc 2 546 0
 143 0002 2023     		movs	r3, #32
 144              	.LBE60:
 145              	.LBE59:
 146              	.LBE58:
 147              	.LBE57:
 148              	.LBE56:
 149              		.loc 1 155 0
 150 0004 0646     		mov	r6, r0
 151              	.LBB65:
 152              	.LBB64:
 153              	.LBB63:
 154              	.LBB62:
 155              	.LBB61:
 156              		.loc 2 546 0
 157              	@ 546 "../../../os/ext/CMSIS/include/core_cmFunc.h" 1
 158 0006 83F31188 		MSR basepri, r3
 159              	@ 0 "" 2
 160              		.thumb
 161              	.LBE61:
 162              	.LBE62:
 163              	.LBE63:
 164              		.loc 3 350 0
 165 000a FFF7FEFF 		bl	_dbg_check_lock
 166              	.LVL7:
 167              	.LBE64:
 168              	.LBE65:
 169              		.loc 1 161 0
 170 000e 144D     		ldr	r5, .L14
ARM GAS  C:\Users\jo\AppData\Local\Temp\ccV5Mo2f.s 			page 4


 171              		.loc 1 159 0
 172 0010 3469     		ldr	r4, [r6, #16]
 173              	.LVL8:
 174              		.loc 1 161 0
 175 0012 AC42     		cmp	r4, r5
 176 0014 22D0     		beq	.L11
 177              		.loc 1 167 0 discriminator 1
 178 0016 94F82230 		ldrb	r3, [r4, #34]	@ zero_extendqisi2
 179 001a FF2B     		cmp	r3, #255
 180 001c 18D0     		beq	.L13
 181              	.L9:
 182              		.loc 1 168 0
 183 001e 0133     		adds	r3, r3, #1
 184 0020 84F82230 		strb	r3, [r4, #34]
 185              	.LVL9:
 186              	.L8:
 187              	.LBB66:
 188              	.LBB67:
 189              		.loc 3 360 0
 190 0024 FFF7FEFF 		bl	_dbg_check_unlock
 191              	.LVL10:
 192              		.loc 3 367 0
 193 0028 2B68     		ldr	r3, [r5]
 194 002a 0D4A     		ldr	r2, .L14
 195 002c AB42     		cmp	r3, r5
 196 002e 07D0     		beq	.L10
 197 0030 9269     		ldr	r2, [r2, #24]
 198 0032 9B68     		ldr	r3, [r3, #8]
 199 0034 9268     		ldr	r2, [r2, #8]
 200 0036 9A42     		cmp	r2, r3
 201 0038 02D2     		bcs	.L10
 202 003a 0A48     		ldr	r0, .L14+4
 203 003c FFF7FEFF 		bl	chSysHalt
 204              	.LVL11:
 205              	.L10:
 206              	.LBB68:
 207              	.LBB69:
 208              	.LBB70:
 209              		.loc 2 546 0
 210 0040 0023     		movs	r3, #0
 211              	@ 546 "../../../os/ext/CMSIS/include/core_cmFunc.h" 1
 212 0042 83F31188 		MSR basepri, r3
 213              	@ 0 "" 2
 214              		.thumb
 215              	.LBE70:
 216              	.LBE69:
 217              	.LBE68:
 218              	.LBE67:
 219              	.LBE66:
 220              		.loc 1 173 0
 221 0046 3046     		mov	r0, r6
 222 0048 FFF7FEFF 		bl	chThdRelease
 223              	.LVL12:
 224              		.loc 1 177 0
 225 004c 2046     		mov	r0, r4
 226 004e 70BD     		pop	{r4, r5, r6, pc}
 227              	.LVL13:
ARM GAS  C:\Users\jo\AppData\Local\Temp\ccV5Mo2f.s 			page 5


 228              	.L13:
 229              		.loc 1 167 0 discriminator 2
 230 0050 0548     		ldr	r0, .L14+8
 231 0052 FFF7FEFF 		bl	chSysHalt
 232              	.LVL14:
 233 0056 94F82230 		ldrb	r3, [r4, #34]	@ zero_extendqisi2
 234 005a E0E7     		b	.L9
 235              	.L11:
 236              		.loc 1 163 0
 237 005c 0024     		movs	r4, #0
 238              	.LVL15:
 239 005e E1E7     		b	.L8
 240              	.L15:
 241              		.align	2
 242              	.L14:
 243 0060 00000000 		.word	ch
 244 0064 00000000 		.word	.LANCHOR0
 245 0068 00000000 		.word	.LANCHOR1
 246              		.cfi_endproc
 247              	.LFE229:
 248              		.size	chRegNextThread, .-chRegNextThread
 249              		.global	ch_debug
 250 006c AFF30080 		.section	.rodata.ch_debug,"a",%progbits
 251              		.align	2
 252              		.type	ch_debug, %object
 253              		.size	ch_debug, 22
 254              	ch_debug:
 255 0000 6D       		.byte	109
 256 0001 61       		.byte	97
 257 0002 69       		.byte	105
 258 0003 6E       		.byte	110
 259 0004 00       		.byte	0
 260 0005 16       		.byte	22
 261 0006 0018     		.short	6144
 262 0008 04       		.byte	4
 263 0009 04       		.byte	4
 264 000a 48       		.byte	72
 265 000b 08       		.byte	8
 266 000c 0C       		.byte	12
 267 000d 10       		.byte	16
 268 000e 14       		.byte	20
 269 000f 18       		.byte	24
 270 0010 1C       		.byte	28
 271 0011 20       		.byte	32
 272 0012 21       		.byte	33
 273 0013 22       		.byte	34
 274 0014 00       		.byte	0
 275 0015 00       		.byte	0
 276 0016 0000     		.section	.rodata.__func__.6552,"a",%progbits
 277              		.align	2
 278              		.set	.LANCHOR1,. + 0
 279              		.type	__func__.6552, %object
 280              		.size	__func__.6552, 16
 281              	__func__.6552:
 282 0000 63685265 		.ascii	"chRegNextThread\000"
 282      674E6578 
 282      74546872 
ARM GAS  C:\Users\jo\AppData\Local\Temp\ccV5Mo2f.s 			page 6


 282      65616400 
 283              		.section	.rodata.__func__.5854,"a",%progbits
 284              		.align	2
 285              		.set	.LANCHOR0,. + 0
 286              		.type	__func__.5854, %object
 287              		.size	__func__.5854, 12
 288              	__func__.5854:
 289 0000 63685379 		.ascii	"chSysUnlock\000"
 289      73556E6C 
 289      6F636B00 
 290              		.text
 291              	.Letext0:
 292              		.file 4 "c:\\program files\\gnu tools arm embedded\\4.9 2014q4\\lib\\gcc\\arm-none-eabi\\4.9.3\\in
 293              		.file 5 "c:\\program files\\gnu tools arm embedded\\4.9 2014q4\\arm-none-eabi\\include\\machine\\_
 294              		.file 6 "c:\\program files\\gnu tools arm embedded\\4.9 2014q4\\arm-none-eabi\\include\\stdint.h"
 295              		.file 7 "../../../os/rt/ports/ARMCMx/compilers/GCC/chtypes.h"
 296              		.file 8 "../../../os/rt/include/chsystypes.h"
 297              		.file 9 "../../../os/rt/include/chschd.h"
 298              		.file 10 "../../../os/rt/ports/ARMCMx/chcore.h"
 299              		.file 11 "../../../os/rt/ports/ARMCMx/chcore_v7m.h"
 300              		.file 12 "../../../os/rt/include/chdebug.h"
 301              		.file 13 "../../../os/rt/include/chtm.h"
 302              		.file 14 "../../../os/rt/include/chsem.h"
 303              		.file 15 "../../../os/rt/include/chmtx.h"
 304              		.file 16 "../../../os/rt/include/chregistry.h"
 305              		.file 17 "../../../os/ext/CMSIS/include/core_cm4.h"
 306              		.file 18 "../../../os/rt/include/chdynamic.h"