ARM GAS  C:\Users\jo\AppData\Local\Temp\ccPv0WR1.s 			page 1


   1              		.syntax unified
   2              		.cpu cortex-m4
   3              		.fpu softvfp
   4              		.eabi_attribute 20, 1
   5              		.eabi_attribute 21, 1
   6              		.eabi_attribute 23, 3
   7              		.eabi_attribute 24, 1
   8              		.eabi_attribute 25, 1
   9              		.eabi_attribute 26, 1
  10              		.eabi_attribute 30, 2
  11              		.eabi_attribute 34, 1
  12              		.eabi_attribute 18, 4
  13              		.thumb
  14              		.file	"chschd.c"
  15              		.text
  16              	.Ltext0:
  17              		.cfi_sections	.debug_frame
  18              		.section	.text._scheduler_init,"ax",%progbits
  19              		.align	2
  20              		.p2align 4,,15
  21              		.global	_scheduler_init
  22              		.thumb
  23              		.thumb_func
  24              		.type	_scheduler_init, %function
  25              	_scheduler_init:
  26              	.LFB228:
  27              		.file 1 "../../../os/rt/src/chschd.c"
  28              		.loc 1 65 0
  29              		.cfi_startproc
  30              		@ args = 0, pretend = 0, frame = 0
  31              		@ frame_needed = 0, uses_anonymous_args = 0
  32              		@ link register save eliminated.
  33              	.LVL0:
  34              	.LBB72:
  35              	.LBB73:
  36              		.file 2 "../../../os/rt/include/chschd.h"
  37              		.loc 2 604 0
  38 0000 034B     		ldr	r3, .L2
  39              	.LBE73:
  40              	.LBE72:
  41              		.loc 1 68 0
  42 0002 0022     		movs	r2, #0
  43              	.LBB75:
  44              	.LBB74:
  45              		.loc 2 604 0
  46 0004 1B60     		str	r3, [r3]
  47              		.loc 2 605 0
  48 0006 5B60     		str	r3, [r3, #4]
  49              	.LBE74:
  50              	.LBE75:
  51              		.loc 1 70 0
  52 0008 1B61     		str	r3, [r3, #16]
  53              		.loc 1 71 0
  54 000a 5B61     		str	r3, [r3, #20]
  55              		.loc 1 68 0
  56 000c 9A60     		str	r2, [r3, #8]
  57 000e 7047     		bx	lr
ARM GAS  C:\Users\jo\AppData\Local\Temp\ccPv0WR1.s 			page 2


  58              	.L3:
  59              		.align	2
  60              	.L2:
  61 0010 00000000 		.word	.LANCHOR0
  62              		.cfi_endproc
  63              	.LFE228:
  64              		.size	_scheduler_init, .-_scheduler_init
  65 0014 AFF30080 		.section	.text.chSchReadyI,"ax",%progbits
  65      AFF30080 
  65      AFF30080 
  66              		.align	2
  67              		.p2align 4,,15
  68              		.global	chSchReadyI
  69              		.thumb
  70              		.thumb_func
  71              		.type	chSchReadyI, %function
  72              	chSchReadyI:
  73              	.LFB229:
  74              		.loc 1 218 0
  75              		.cfi_startproc
  76              		@ args = 0, pretend = 0, frame = 0
  77              		@ frame_needed = 0, uses_anonymous_args = 0
  78              	.LVL1:
  79 0000 10B5     		push	{r4, lr}
  80              		.cfi_def_cfa_offset 8
  81              		.cfi_offset 4, -8
  82              		.cfi_offset 14, -4
  83              		.loc 1 218 0
  84 0002 0446     		mov	r4, r0
  85              		.loc 1 221 0
  86 0004 FFF7FEFF 		bl	chDbgCheckClassI
  87              	.LVL2:
  88              		.loc 1 222 0
  89 0008 C4B1     		cbz	r4, .L15
  90              	.L5:
  91              		.loc 1 223 0 discriminator 1
  92 000a 94F82030 		ldrb	r3, [r4, #32]	@ zero_extendqisi2
  93 000e 8BB1     		cbz	r3, .L6
  94              		.loc 1 223 0 is_stmt 0 discriminator 3
  95 0010 0F2B     		cmp	r3, #15
  96 0012 0FD0     		beq	.L6
  97              	.L7:
  98              		.loc 1 227 0 is_stmt 1
  99 0014 0022     		movs	r2, #0
 100 0016 A168     		ldr	r1, [r4, #8]
 101              		.loc 1 228 0
 102 0018 0A4B     		ldr	r3, .L16
 103              		.loc 1 227 0
 104 001a 84F82020 		strb	r2, [r4, #32]
 105              	.LVL3:
 106              	.L8:
 107              		.loc 1 230 0 discriminator 1
 108 001e 1B68     		ldr	r3, [r3]
 109              	.LVL4:
 110              		.loc 1 231 0 discriminator 1
 111 0020 9A68     		ldr	r2, [r3, #8]
 112 0022 8A42     		cmp	r2, r1
ARM GAS  C:\Users\jo\AppData\Local\Temp\ccPv0WR1.s 			page 3


 113 0024 FBD2     		bcs	.L8
 114              		.loc 1 234 0
 115 0026 5A68     		ldr	r2, [r3, #4]
 116 0028 6260     		str	r2, [r4, #4]
 117              		.loc 1 233 0
 118 002a 2360     		str	r3, [r4]
 119              		.loc 1 239 0
 120 002c 2046     		mov	r0, r4
 121              		.loc 1 235 0
 122 002e 1460     		str	r4, [r2]
 123              		.loc 1 236 0
 124 0030 5C60     		str	r4, [r3, #4]
 125              		.loc 1 239 0
 126 0032 10BD     		pop	{r4, pc}
 127              	.LVL5:
 128              	.L6:
 129              		.loc 1 223 0 discriminator 4
 130 0034 0448     		ldr	r0, .L16+4
 131 0036 FFF7FEFF 		bl	chSysHalt
 132              	.LVL6:
 133 003a EBE7     		b	.L7
 134              	.L15:
 135              		.loc 1 222 0 discriminator 2
 136 003c 0248     		ldr	r0, .L16+4
 137 003e FFF7FEFF 		bl	chSysHalt
 138              	.LVL7:
 139 0042 E2E7     		b	.L5
 140              	.L17:
 141              		.align	2
 142              	.L16:
 143 0044 00000000 		.word	.LANCHOR0
 144 0048 00000000 		.word	.LANCHOR1
 145              		.cfi_endproc
 146              	.LFE229:
 147              		.size	chSchReadyI, .-chSchReadyI
 148 004c AFF30080 		.section	.text.wakeup,"ax",%progbits
 149              		.align	2
 150              		.p2align 4,,15
 151              		.thumb
 152              		.thumb_func
 153              		.type	wakeup, %function
 154              	wakeup:
 155              	.LFB231:
 156              		.loc 1 275 0
 157              		.cfi_startproc
 158              		@ args = 0, pretend = 0, frame = 0
 159              		@ frame_needed = 0, uses_anonymous_args = 0
 160              	.LVL8:
 161 0000 38B5     		push	{r3, r4, r5, lr}
 162              		.cfi_def_cfa_offset 16
 163              		.cfi_offset 3, -16
 164              		.cfi_offset 4, -12
 165              		.cfi_offset 5, -8
 166              		.cfi_offset 14, -4
 167              		.loc 1 275 0
 168 0002 0446     		mov	r4, r0
 169              	.LVL9:
ARM GAS  C:\Users\jo\AppData\Local\Temp\ccPv0WR1.s 			page 4


 170              	.LBB76:
 171              	.LBB77:
 172              	.LBB78:
 173              	.LBB79:
 174              	.LBB80:
 175              	.LBB81:
 176              		.file 3 "../../../os/ext/CMSIS/include/core_cmFunc.h"
 177              		.loc 3 546 0
 178 0004 2023     		movs	r3, #32
 179              	@ 546 "../../../os/ext/CMSIS/include/core_cmFunc.h" 1
 180 0006 83F31188 		MSR basepri, r3
 181              	@ 0 "" 2
 182              		.thumb
 183              	.LBE81:
 184              	.LBE80:
 185              	.LBE79:
 186              	.LBE78:
 187              		.file 4 "../../../os/rt/include/chsys.h"
 188              		.loc 4 390 0
 189 000a FFF7FEFF 		bl	_dbg_check_lock_from_isr
 190              	.LVL10:
 191              	.LBE77:
 192              	.LBE76:
 193              		.loc 1 279 0
 194 000e 94F82030 		ldrb	r3, [r4, #32]	@ zero_extendqisi2
 195 0012 072B     		cmp	r3, #7
 196 0014 10D8     		bhi	.L19
 197 0016 DFE803F0 		tbb	[pc, r3]
 198              	.L21:
 199 001a 15       		.byte	(.L27-.L21)/2
 200 001b 0F       		.byte	(.L19-.L21)/2
 201 001c 0F       		.byte	(.L19-.L21)/2
 202 001d 1B       		.byte	(.L22-.L21)/2
 203 001e 0A       		.byte	(.L23-.L21)/2
 204 001f 04       		.byte	(.L24-.L21)/2
 205 0020 0F       		.byte	(.L19-.L21)/2
 206 0021 0A       		.byte	(.L23-.L21)/2
 207              		.p2align 1
 208              	.L24:
 209              		.loc 1 290 0
 210 0022 656A     		ldr	r5, [r4, #36]
 211              	.LVL11:
 212              	.LBB82:
 213              	.LBB83:
 214              		.file 5 "../../../os/rt/include/chsem.h"
 215              		.loc 5 136 0
 216 0024 FFF7FEFF 		bl	chDbgCheckClassI
 217              	.LVL12:
 218              		.loc 5 138 0
 219 0028 AB68     		ldr	r3, [r5, #8]
 220 002a 0133     		adds	r3, r3, #1
 221 002c AB60     		str	r3, [r5, #8]
 222              	.LVL13:
 223              	.L23:
 224              	.LBE83:
 225              	.LBE82:
 226              	.LBB84:
ARM GAS  C:\Users\jo\AppData\Local\Temp\ccPv0WR1.s 			page 5


 227              	.LBB85:
 228              		.loc 2 691 0
 229 002e 94E80C00 		ldmia	r4, {r2, r3}
 230 0032 1A60     		str	r2, [r3]
 231              		.loc 2 692 0
 232 0034 2268     		ldr	r2, [r4]
 233 0036 5360     		str	r3, [r2, #4]
 234              	.LVL14:
 235              	.L19:
 236              	.LBE85:
 237              	.LBE84:
 238              		.loc 1 304 0
 239 0038 4FF0FF33 		mov	r3, #-1
 240 003c 6362     		str	r3, [r4, #36]
 241              		.loc 1 305 0
 242 003e 2046     		mov	r0, r4
 243 0040 FFF7FEFF 		bl	chSchReadyI
 244              	.LVL15:
 245              	.L27:
 246              	.LBB86:
 247              	.LBB87:
 248              		.loc 4 408 0
 249 0044 FFF7FEFF 		bl	_dbg_check_unlock_from_isr
 250              	.LVL16:
 251              	.LBB88:
 252              	.LBB89:
 253              	.LBB90:
 254              	.LBB91:
 255              		.loc 3 546 0
 256 0048 0023     		movs	r3, #0
 257              	@ 546 "../../../os/ext/CMSIS/include/core_cmFunc.h" 1
 258 004a 83F31188 		MSR basepri, r3
 259              	@ 0 "" 2
 260              		.thumb
 261 004e 38BD     		pop	{r3, r4, r5, pc}
 262              	.LVL17:
 263              	.L22:
 264              	.LBE91:
 265              	.LBE90:
 266              	.LBE89:
 267              	.LBE88:
 268              	.LBE87:
 269              	.LBE86:
 270              		.loc 1 286 0
 271 0050 636A     		ldr	r3, [r4, #36]
 272 0052 0022     		movs	r2, #0
 273 0054 1A60     		str	r2, [r3]
 274              		.loc 1 304 0
 275 0056 4FF0FF33 		mov	r3, #-1
 276 005a 6362     		str	r3, [r4, #36]
 277              		.loc 1 305 0
 278 005c 2046     		mov	r0, r4
 279 005e FFF7FEFF 		bl	chSchReadyI
 280              	.LVL18:
 281 0062 EFE7     		b	.L27
 282              		.cfi_endproc
 283              	.LFE231:
ARM GAS  C:\Users\jo\AppData\Local\Temp\ccPv0WR1.s 			page 6


 284              		.size	wakeup, .-wakeup
 285 0064 AFF30080 		.section	.text.chSchGoSleepS,"ax",%progbits
 285      AFF30080 
 285      AFF30080 
 286              		.align	2
 287              		.p2align 4,,15
 288              		.global	chSchGoSleepS
 289              		.thumb
 290              		.thumb_func
 291              		.type	chSchGoSleepS, %function
 292              	chSchGoSleepS:
 293              	.LFB230:
 294              		.loc 1 250 0
 295              		.cfi_startproc
 296              		@ args = 0, pretend = 0, frame = 0
 297              		@ frame_needed = 0, uses_anonymous_args = 0
 298              	.LVL19:
 299 0000 70B5     		push	{r4, r5, r6, lr}
 300              		.cfi_def_cfa_offset 16
 301              		.cfi_offset 4, -16
 302              		.cfi_offset 5, -12
 303              		.cfi_offset 6, -8
 304              		.cfi_offset 14, -4
 305              		.loc 1 255 0
 306 0002 104C     		ldr	r4, .L31
 307              		.loc 1 250 0
 308 0004 0646     		mov	r6, r0
 309              		.loc 1 253 0
 310 0006 FFF7FEFF 		bl	chDbgCheckClassS
 311              	.LVL20:
 312              	.LBB92:
 313              	.LBB93:
 314              		.loc 2 672 0
 315 000a 2368     		ldr	r3, [r4]
 316              	.LBE93:
 317              	.LBE92:
 318              		.loc 1 255 0
 319 000c A569     		ldr	r5, [r4, #24]
 320              	.LVL21:
 321              	.LBB97:
 322              	.LBB94:
 323              		.loc 2 674 0
 324 000e 1A68     		ldr	r2, [r3]
 325              	.LBE94:
 326              	.LBE97:
 327              		.loc 1 256 0
 328 0010 85F82060 		strb	r6, [r5, #32]
 329              	.LVL22:
 330              		.loc 1 268 0
 331 0014 0121     		movs	r1, #1
 332              	.LBB98:
 333              	.LBB95:
 334              		.loc 2 675 0
 335 0016 5460     		str	r4, [r2, #4]
 336              	.LBE95:
 337              	.LBE98:
 338              		.loc 1 269 0
ARM GAS  C:\Users\jo\AppData\Local\Temp\ccPv0WR1.s 			page 7


 339 0018 2846     		mov	r0, r5
 340              		.loc 1 268 0
 341 001a 83F82010 		strb	r1, [r3, #32]
 342              	.LBB99:
 343              	.LBB96:
 344              		.loc 2 674 0
 345 001e 2260     		str	r2, [r4]
 346              	.LBE96:
 347              	.LBE99:
 348              		.loc 1 262 0
 349 0020 A361     		str	r3, [r4, #24]
 350              		.loc 1 269 0
 351 0022 FFF7FEFF 		bl	_dbg_trace
 352              	.LVL23:
 353              	.LBB100:
 354              	.LBB101:
 355              	.LBB102:
 356              		.loc 3 428 0
 357              	@ 428 "../../../os/ext/CMSIS/include/core_cmFunc.h" 1
 358 0026 EFF30983 		MRS r3, psp
 359              	
 360              	@ 0 "" 2
 361              		.thumb
 362              	.LBE102:
 363              	.LBE101:
 364              		.loc 1 269 0
 365 002a EA69     		ldr	r2, [r5, #28]
 366 002c 243B     		subs	r3, r3, #36
 367 002e 9A42     		cmp	r2, r3
 368 0030 02D9     		bls	.L29
 369              		.loc 1 269 0 is_stmt 0 discriminator 1
 370 0032 0548     		ldr	r0, .L31+4
 371 0034 FFF7FEFF 		bl	chSysHalt
 372              	.LVL24:
 373              	.L29:
 374              		.loc 1 269 0 discriminator 3
 375 0038 A069     		ldr	r0, [r4, #24]
 376 003a 2946     		mov	r1, r5
 377              	.LBE100:
 378              		.loc 1 270 0 is_stmt 1 discriminator 3
 379 003c BDE87040 		pop	{r4, r5, r6, lr}
 380              		.cfi_restore 14
 381              		.cfi_restore 6
 382              		.cfi_restore 5
 383              		.cfi_restore 4
 384              		.cfi_def_cfa_offset 0
 385              	.LVL25:
 386              	.LBB103:
 387              		.loc 1 269 0 discriminator 3
 388 0040 FFF7FEBF 		b	_port_switch
 389              	.LVL26:
 390              	.L32:
 391              		.align	2
 392              	.L31:
 393 0044 00000000 		.word	.LANCHOR0
 394 0048 00000000 		.word	.LC0
 395              	.LBE103:
ARM GAS  C:\Users\jo\AppData\Local\Temp\ccPv0WR1.s 			page 8


 396              		.cfi_endproc
 397              	.LFE230:
 398              		.size	chSchGoSleepS, .-chSchGoSleepS
 399 004c AFF30080 		.section	.text.chSchGoSleepTimeoutS,"ax",%progbits
 400              		.align	2
 401              		.p2align 4,,15
 402              		.global	chSchGoSleepTimeoutS
 403              		.thumb
 404              		.thumb_func
 405              		.type	chSchGoSleepTimeoutS, %function
 406              	chSchGoSleepTimeoutS:
 407              	.LFB232:
 408              		.loc 1 330 0
 409              		.cfi_startproc
 410              		@ args = 0, pretend = 0, frame = 24
 411              		@ frame_needed = 0, uses_anonymous_args = 0
 412              	.LVL27:
 413 0000 70B5     		push	{r4, r5, r6, lr}
 414              		.cfi_def_cfa_offset 16
 415              		.cfi_offset 4, -16
 416              		.cfi_offset 5, -12
 417              		.cfi_offset 6, -8
 418              		.cfi_offset 14, -4
 419 0002 0C46     		mov	r4, r1
 420 0004 86B0     		sub	sp, sp, #24
 421              		.cfi_def_cfa_offset 40
 422              		.loc 1 330 0
 423 0006 0646     		mov	r6, r0
 424              		.loc 1 332 0
 425 0008 FFF7FEFF 		bl	chDbgCheckClassS
 426              	.LVL28:
 427              		.loc 1 334 0
 428 000c 631C     		adds	r3, r4, #1
 429 000e 14D0     		beq	.L34
 430              	.LBB104:
 431              		.loc 1 337 0
 432 0010 0E4D     		ldr	r5, .L41
 433 0012 0F4A     		ldr	r2, .L41+4
 434 0014 AB69     		ldr	r3, [r5, #24]
 435 0016 2146     		mov	r1, r4
 436 0018 01A8     		add	r0, sp, #4
 437 001a FFF7FEFF 		bl	chVTDoSetI
 438              	.LVL29:
 439              		.loc 1 338 0
 440 001e 3046     		mov	r0, r6
 441 0020 FFF7FEFF 		bl	chSchGoSleepS
 442              	.LVL30:
 443              	.LBB105:
 444              	.LBB106:
 445              		.file 6 "../../../os/rt/include/chvt.h"
 446              		.loc 6 339 0
 447 0024 FFF7FEFF 		bl	chDbgCheckClassI
 448              	.LVL31:
 449              	.LBE106:
 450              	.LBE105:
 451              		.loc 1 339 0
 452 0028 049B     		ldr	r3, [sp, #16]
ARM GAS  C:\Users\jo\AppData\Local\Temp\ccPv0WR1.s 			page 9


 453 002a 13B1     		cbz	r3, .L36
 454              		.loc 1 340 0
 455 002c 01A8     		add	r0, sp, #4
 456              	.LVL32:
 457 002e FFF7FEFF 		bl	chVTDoResetI
 458              	.LVL33:
 459              	.L36:
 460              	.LBE104:
 461              		.loc 1 347 0
 462 0032 AB69     		ldr	r3, [r5, #24]
 463              		.loc 1 348 0
 464 0034 586A     		ldr	r0, [r3, #36]
 465 0036 06B0     		add	sp, sp, #24
 466              		.cfi_remember_state
 467              		.cfi_def_cfa_offset 16
 468              		@ sp needed
 469 0038 70BD     		pop	{r4, r5, r6, pc}
 470              	.LVL34:
 471              	.L34:
 472              		.cfi_restore_state
 473 003a 044D     		ldr	r5, .L41
 474              		.loc 1 344 0
 475 003c 3046     		mov	r0, r6
 476 003e FFF7FEFF 		bl	chSchGoSleepS
 477              	.LVL35:
 478              		.loc 1 347 0
 479 0042 AB69     		ldr	r3, [r5, #24]
 480              		.loc 1 348 0
 481 0044 586A     		ldr	r0, [r3, #36]
 482 0046 06B0     		add	sp, sp, #24
 483              		.cfi_def_cfa_offset 16
 484              		@ sp needed
 485 0048 70BD     		pop	{r4, r5, r6, pc}
 486              	.LVL36:
 487              	.L42:
 488 004a 00BF     		.align	2
 489              	.L41:
 490 004c 00000000 		.word	.LANCHOR0
 491 0050 00000000 		.word	wakeup
 492              		.cfi_endproc
 493              	.LFE232:
 494              		.size	chSchGoSleepTimeoutS, .-chSchGoSleepTimeoutS
 495 0054 AFF30080 		.section	.text.chSchWakeupS,"ax",%progbits
 495      AFF30080 
 495      AFF30080 
 496              		.align	2
 497              		.p2align 4,,15
 498              		.global	chSchWakeupS
 499              		.thumb
 500              		.thumb_func
 501              		.type	chSchWakeupS, %function
 502              	chSchWakeupS:
 503              	.LFB233:
 504              		.loc 1 367 0
 505              		.cfi_startproc
 506              		@ args = 0, pretend = 0, frame = 0
 507              		@ frame_needed = 0, uses_anonymous_args = 0
ARM GAS  C:\Users\jo\AppData\Local\Temp\ccPv0WR1.s 			page 10


 508              	.LVL37:
 509 0000 70B5     		push	{r4, r5, r6, lr}
 510              		.cfi_def_cfa_offset 16
 511              		.cfi_offset 4, -16
 512              		.cfi_offset 5, -12
 513              		.cfi_offset 6, -8
 514              		.cfi_offset 14, -4
 515              		.loc 1 379 0
 516 0002 174D     		ldr	r5, .L49
 517              		.loc 1 367 0
 518 0004 0446     		mov	r4, r0
 519 0006 0E46     		mov	r6, r1
 520              		.loc 1 369 0
 521 0008 FFF7FEFF 		bl	chDbgCheckClassS
 522              	.LVL38:
 523              		.loc 1 379 0
 524 000c A869     		ldr	r0, [r5, #24]
 525 000e A268     		ldr	r2, [r4, #8]
 526 0010 8368     		ldr	r3, [r0, #8]
 527              		.loc 1 373 0
 528 0012 6662     		str	r6, [r4, #36]
 529              		.loc 1 379 0
 530 0014 9A42     		cmp	r2, r3
 531 0016 14D9     		bls	.L47
 532              	.LBB107:
 533              		.loc 1 383 0
 534 0018 FFF7FEFF 		bl	chSchReadyI
 535              	.LVL39:
 536              		.loc 1 390 0
 537 001c 0123     		movs	r3, #1
 538 001e 84F82030 		strb	r3, [r4, #32]
 539              		.loc 1 383 0
 540 0022 0646     		mov	r6, r0
 541              	.LVL40:
 542              		.loc 1 384 0
 543 0024 AC61     		str	r4, [r5, #24]
 544              		.loc 1 391 0
 545 0026 FFF7FEFF 		bl	_dbg_trace
 546              	.LVL41:
 547              	.LBB108:
 548              	.LBB109:
 549              	.LBB110:
 550              		.loc 3 428 0
 551              	@ 428 "../../../os/ext/CMSIS/include/core_cmFunc.h" 1
 552 002a EFF30983 		MRS r3, psp
 553              	
 554              	@ 0 "" 2
 555              		.thumb
 556              	.LBE110:
 557              	.LBE109:
 558              		.loc 1 391 0
 559 002e F269     		ldr	r2, [r6, #28]
 560 0030 243B     		subs	r3, r3, #36
 561 0032 9A42     		cmp	r2, r3
 562 0034 0AD8     		bhi	.L48
 563              		.loc 1 391 0 is_stmt 0 discriminator 3
 564 0036 2046     		mov	r0, r4
ARM GAS  C:\Users\jo\AppData\Local\Temp\ccPv0WR1.s 			page 11


 565 0038 3146     		mov	r1, r6
 566              	.LBE108:
 567              	.LBE107:
 568              		.loc 1 393 0 is_stmt 1 discriminator 3
 569 003a BDE87040 		pop	{r4, r5, r6, lr}
 570              		.cfi_remember_state
 571              		.cfi_restore 14
 572              		.cfi_restore 6
 573              		.cfi_restore 5
 574              		.cfi_restore 4
 575              		.cfi_def_cfa_offset 0
 576              	.LVL42:
 577              	.LBB114:
 578              	.LBB111:
 579              		.loc 1 391 0 discriminator 3
 580 003e FFF7FEBF 		b	_port_switch
 581              	.LVL43:
 582              	.L47:
 583              		.cfi_restore_state
 584              	.LBE111:
 585              	.LBE114:
 586              		.loc 1 380 0
 587 0042 2046     		mov	r0, r4
 588              		.loc 1 393 0
 589 0044 BDE87040 		pop	{r4, r5, r6, lr}
 590              		.cfi_remember_state
 591              		.cfi_restore 14
 592              		.cfi_restore 6
 593              		.cfi_restore 5
 594              		.cfi_restore 4
 595              		.cfi_def_cfa_offset 0
 596              	.LVL44:
 597              		.loc 1 380 0
 598 0048 FFF7FEBF 		b	chSchReadyI
 599              	.LVL45:
 600              	.L48:
 601              		.cfi_restore_state
 602              	.LBB115:
 603              	.LBB112:
 604              		.loc 1 391 0 discriminator 1
 605 004c 0548     		ldr	r0, .L49+4
 606 004e FFF7FEFF 		bl	chSysHalt
 607              	.LVL46:
 608 0052 2046     		mov	r0, r4
 609 0054 3146     		mov	r1, r6
 610              	.LBE112:
 611              	.LBE115:
 612              		.loc 1 393 0 discriminator 1
 613 0056 BDE87040 		pop	{r4, r5, r6, lr}
 614              		.cfi_restore 4
 615              		.cfi_restore 5
 616              		.cfi_restore 6
 617              		.cfi_restore 14
 618              		.cfi_def_cfa_offset 0
 619              	.LVL47:
 620              	.LBB116:
 621              	.LBB113:
ARM GAS  C:\Users\jo\AppData\Local\Temp\ccPv0WR1.s 			page 12


 622              		.loc 1 391 0 discriminator 1
 623 005a FFF7FEBF 		b	_port_switch
 624              	.LVL48:
 625              	.L50:
 626 005e 00BF     		.align	2
 627              	.L49:
 628 0060 00000000 		.word	.LANCHOR0
 629 0064 00000000 		.word	.LC0
 630              	.LBE113:
 631              	.LBE116:
 632              		.cfi_endproc
 633              	.LFE233:
 634              		.size	chSchWakeupS, .-chSchWakeupS
 635 0068 AFF30080 		.section	.text.chSchIsPreemptionRequired,"ax",%progbits
 635      AFF30080 
 636              		.align	2
 637              		.p2align 4,,15
 638              		.global	chSchIsPreemptionRequired
 639              		.thumb
 640              		.thumb_func
 641              		.type	chSchIsPreemptionRequired, %function
 642              	chSchIsPreemptionRequired:
 643              	.LFB235:
 644              		.loc 1 424 0
 645              		.cfi_startproc
 646              		@ args = 0, pretend = 0, frame = 0
 647              		@ frame_needed = 0, uses_anonymous_args = 0
 648              		@ link register save eliminated.
 649              	.LVL49:
 650              		.loc 1 425 0
 651 0000 044B     		ldr	r3, .L52
 652 0002 1A68     		ldr	r2, [r3]
 653              		.loc 1 426 0
 654 0004 9B69     		ldr	r3, [r3, #24]
 655              		.loc 1 437 0
 656 0006 9068     		ldr	r0, [r2, #8]
 657 0008 9B68     		ldr	r3, [r3, #8]
 658              		.loc 1 439 0
 659 000a 9842     		cmp	r0, r3
 660 000c 94BF     		ite	ls
 661 000e 0020     		movls	r0, #0
 662 0010 0120     		movhi	r0, #1
 663 0012 7047     		bx	lr
 664              	.L53:
 665              		.align	2
 666              	.L52:
 667 0014 00000000 		.word	.LANCHOR0
 668              		.cfi_endproc
 669              	.LFE235:
 670              		.size	chSchIsPreemptionRequired, .-chSchIsPreemptionRequired
 671 0018 AFF30080 		.section	.text.chSchDoRescheduleBehind,"ax",%progbits
 671      AFF30080 
 672              		.align	2
 673              		.p2align 4,,15
 674              		.global	chSchDoRescheduleBehind
 675              		.thumb
 676              		.thumb_func
ARM GAS  C:\Users\jo\AppData\Local\Temp\ccPv0WR1.s 			page 13


 677              		.type	chSchDoRescheduleBehind, %function
 678              	chSchDoRescheduleBehind:
 679              	.LFB236:
 680              		.loc 1 451 0
 681              		.cfi_startproc
 682              		@ args = 0, pretend = 0, frame = 0
 683              		@ frame_needed = 0, uses_anonymous_args = 0
 684 0000 38B5     		push	{r3, r4, r5, lr}
 685              		.cfi_def_cfa_offset 16
 686              		.cfi_offset 3, -16
 687              		.cfi_offset 4, -12
 688              		.cfi_offset 5, -8
 689              		.cfi_offset 14, -4
 690              		.loc 1 454 0
 691 0002 0F4C     		ldr	r4, .L57
 692              	.LBB117:
 693              	.LBB118:
 694              		.loc 2 672 0
 695 0004 2368     		ldr	r3, [r4]
 696              	.LBE118:
 697              	.LBE117:
 698              		.loc 1 454 0
 699 0006 A569     		ldr	r5, [r4, #24]
 700              	.LVL50:
 701              	.LBB121:
 702              	.LBB119:
 703              		.loc 2 674 0
 704 0008 1A68     		ldr	r2, [r3]
 705 000a 2260     		str	r2, [r4]
 706              	.LBE119:
 707              	.LBE121:
 708              		.loc 1 462 0
 709 000c 0121     		movs	r1, #1
 710              	.LBB122:
 711              	.LBB120:
 712              		.loc 2 675 0
 713 000e 5460     		str	r4, [r2, #4]
 714              	.LBE120:
 715              	.LBE122:
 716              		.loc 1 466 0
 717 0010 2846     		mov	r0, r5
 718              		.loc 1 462 0
 719 0012 83F82010 		strb	r1, [r3, #32]
 720              		.loc 1 456 0
 721 0016 A361     		str	r3, [r4, #24]
 722              		.loc 1 466 0
 723 0018 FFF7FEFF 		bl	chSchReadyI
 724              	.LVL51:
 725              		.loc 1 467 0
 726 001c 2846     		mov	r0, r5
 727 001e FFF7FEFF 		bl	_dbg_trace
 728              	.LVL52:
 729              	.LBB123:
 730              	.LBB124:
 731              	.LBB125:
 732              		.loc 3 428 0
 733              	@ 428 "../../../os/ext/CMSIS/include/core_cmFunc.h" 1
ARM GAS  C:\Users\jo\AppData\Local\Temp\ccPv0WR1.s 			page 14


 734 0022 EFF30983 		MRS r3, psp
 735              	
 736              	@ 0 "" 2
 737              		.thumb
 738              	.LBE125:
 739              	.LBE124:
 740              		.loc 1 467 0
 741 0026 EA69     		ldr	r2, [r5, #28]
 742 0028 243B     		subs	r3, r3, #36
 743 002a 9A42     		cmp	r2, r3
 744 002c 02D9     		bls	.L55
 745              		.loc 1 467 0 is_stmt 0 discriminator 1
 746 002e 0548     		ldr	r0, .L57+4
 747 0030 FFF7FEFF 		bl	chSysHalt
 748              	.LVL53:
 749              	.L55:
 750              		.loc 1 467 0 discriminator 3
 751 0034 A069     		ldr	r0, [r4, #24]
 752 0036 2946     		mov	r1, r5
 753              	.LBE123:
 754              		.loc 1 468 0 is_stmt 1 discriminator 3
 755 0038 BDE83840 		pop	{r3, r4, r5, lr}
 756              		.cfi_restore 14
 757              		.cfi_restore 5
 758              		.cfi_restore 4
 759              		.cfi_restore 3
 760              		.cfi_def_cfa_offset 0
 761              	.LVL54:
 762              	.LBB126:
 763              		.loc 1 467 0 discriminator 3
 764 003c FFF7FEBF 		b	_port_switch
 765              	.LVL55:
 766              	.L58:
 767              		.align	2
 768              	.L57:
 769 0040 00000000 		.word	.LANCHOR0
 770 0044 00000000 		.word	.LC0
 771              	.LBE126:
 772              		.cfi_endproc
 773              	.LFE236:
 774              		.size	chSchDoRescheduleBehind, .-chSchDoRescheduleBehind
 775 0048 AFF30080 		.section	.text.chSchDoRescheduleAhead,"ax",%progbits
 775      AFF30080 
 776              		.align	2
 777              		.p2align 4,,15
 778              		.global	chSchDoRescheduleAhead
 779              		.thumb
 780              		.thumb_func
 781              		.type	chSchDoRescheduleAhead, %function
 782              	chSchDoRescheduleAhead:
 783              	.LFB237:
 784              		.loc 1 479 0
 785              		.cfi_startproc
 786              		@ args = 0, pretend = 0, frame = 0
 787              		@ frame_needed = 0, uses_anonymous_args = 0
 788 0000 70B5     		push	{r4, r5, r6, lr}
 789              		.cfi_def_cfa_offset 16
ARM GAS  C:\Users\jo\AppData\Local\Temp\ccPv0WR1.s 			page 15


 790              		.cfi_offset 4, -16
 791              		.cfi_offset 5, -12
 792              		.cfi_offset 6, -8
 793              		.cfi_offset 14, -4
 794              		.loc 1 482 0
 795 0002 154D     		ldr	r5, .L65
 796              	.LBB127:
 797              	.LBB128:
 798              		.loc 2 672 0
 799 0004 2A68     		ldr	r2, [r5]
 800              	.LBE128:
 801              	.LBE127:
 802              		.loc 1 482 0
 803 0006 AC69     		ldr	r4, [r5, #24]
 804              	.LVL56:
 805              	.LBB131:
 806              	.LBB129:
 807              		.loc 2 674 0
 808 0008 1368     		ldr	r3, [r2]
 809 000a A068     		ldr	r0, [r4, #8]
 810 000c 2B60     		str	r3, [r5]
 811              	.LBE129:
 812              	.LBE131:
 813              		.loc 1 490 0
 814 000e 0126     		movs	r6, #1
 815              		.loc 1 492 0
 816 0010 0021     		movs	r1, #0
 817              	.LBB132:
 818              	.LBB130:
 819              		.loc 2 675 0
 820 0012 5D60     		str	r5, [r3, #4]
 821              	.LBE130:
 822              	.LBE132:
 823              		.loc 1 490 0
 824 0014 82F82060 		strb	r6, [r2, #32]
 825              		.loc 1 484 0
 826 0018 AA61     		str	r2, [r5, #24]
 827              		.loc 1 492 0
 828 001a 84F82010 		strb	r1, [r4, #32]
 829              	.LVL57:
 830 001e 00E0     		b	.L61
 831              	.LVL58:
 832              	.L64:
 833 0020 1B68     		ldr	r3, [r3]
 834              	.LVL59:
 835              	.L61:
 836              		.loc 1 496 0 discriminator 1
 837 0022 9A68     		ldr	r2, [r3, #8]
 838 0024 8242     		cmp	r2, r0
 839 0026 FBD8     		bhi	.L64
 840              		.loc 1 499 0
 841 0028 5A68     		ldr	r2, [r3, #4]
 842 002a 6260     		str	r2, [r4, #4]
 843              		.loc 1 498 0
 844 002c 2360     		str	r3, [r4]
 845              		.loc 1 503 0
 846 002e 2046     		mov	r0, r4
ARM GAS  C:\Users\jo\AppData\Local\Temp\ccPv0WR1.s 			page 16


 847              		.loc 1 500 0
 848 0030 1460     		str	r4, [r2]
 849              		.loc 1 501 0
 850 0032 5C60     		str	r4, [r3, #4]
 851              		.loc 1 503 0
 852 0034 FFF7FEFF 		bl	_dbg_trace
 853              	.LVL60:
 854              	.LBB133:
 855              	.LBB134:
 856              	.LBB135:
 857              		.loc 3 428 0
 858              	@ 428 "../../../os/ext/CMSIS/include/core_cmFunc.h" 1
 859 0038 EFF30983 		MRS r3, psp
 860              	
 861              	@ 0 "" 2
 862              		.thumb
 863              	.LBE135:
 864              	.LBE134:
 865              		.loc 1 503 0
 866 003c E269     		ldr	r2, [r4, #28]
 867 003e 243B     		subs	r3, r3, #36
 868 0040 9A42     		cmp	r2, r3
 869 0042 02D9     		bls	.L62
 870              		.loc 1 503 0 is_stmt 0 discriminator 1
 871 0044 0548     		ldr	r0, .L65+4
 872 0046 FFF7FEFF 		bl	chSysHalt
 873              	.LVL61:
 874              	.L62:
 875              		.loc 1 503 0 discriminator 3
 876 004a A869     		ldr	r0, [r5, #24]
 877 004c 2146     		mov	r1, r4
 878              	.LBE133:
 879              		.loc 1 504 0 is_stmt 1 discriminator 3
 880 004e BDE87040 		pop	{r4, r5, r6, lr}
 881              		.cfi_restore 14
 882              		.cfi_restore 6
 883              		.cfi_restore 5
 884              		.cfi_restore 4
 885              		.cfi_def_cfa_offset 0
 886              	.LVL62:
 887              	.LBB136:
 888              		.loc 1 503 0 discriminator 3
 889 0052 FFF7FEBF 		b	_port_switch
 890              	.LVL63:
 891              	.L66:
 892 0056 00BF     		.align	2
 893              	.L65:
 894 0058 00000000 		.word	.LANCHOR0
 895 005c 00000000 		.word	.LC0
 896              	.LBE136:
 897              		.cfi_endproc
 898              	.LFE237:
 899              		.size	chSchDoRescheduleAhead, .-chSchDoRescheduleAhead
 900              		.section	.text.chSchRescheduleS,"ax",%progbits
 901              		.align	2
 902              		.p2align 4,,15
 903              		.global	chSchRescheduleS
ARM GAS  C:\Users\jo\AppData\Local\Temp\ccPv0WR1.s 			page 17


 904              		.thumb
 905              		.thumb_func
 906              		.type	chSchRescheduleS, %function
 907              	chSchRescheduleS:
 908              	.LFB234:
 909              		.loc 1 402 0
 910              		.cfi_startproc
 911              		@ args = 0, pretend = 0, frame = 0
 912              		@ frame_needed = 0, uses_anonymous_args = 0
 913 0000 08B5     		push	{r3, lr}
 914              		.cfi_def_cfa_offset 8
 915              		.cfi_offset 3, -8
 916              		.cfi_offset 14, -4
 917              		.loc 1 404 0
 918 0002 FFF7FEFF 		bl	chDbgCheckClassS
 919              	.LVL64:
 920              	.LBB137:
 921              	.LBB138:
 922              		.loc 2 711 0
 923 0006 FFF7FEFF 		bl	chDbgCheckClassI
 924              	.LVL65:
 925              		.loc 2 713 0
 926 000a 064B     		ldr	r3, .L71
 927 000c 1A68     		ldr	r2, [r3]
 928 000e 9B69     		ldr	r3, [r3, #24]
 929              	.LBE138:
 930              	.LBE137:
 931              		.loc 1 406 0
 932 0010 9268     		ldr	r2, [r2, #8]
 933 0012 9B68     		ldr	r3, [r3, #8]
 934 0014 9A42     		cmp	r2, r3
 935 0016 00D8     		bhi	.L70
 936 0018 08BD     		pop	{r3, pc}
 937              	.L70:
 938              		.loc 1 409 0
 939 001a BDE80840 		pop	{r3, lr}
 940              		.cfi_restore 14
 941              		.cfi_restore 3
 942              		.cfi_def_cfa_offset 0
 943              		.loc 1 407 0
 944 001e FFF7FEBF 		b	chSchDoRescheduleAhead
 945              	.LVL66:
 946              	.L72:
 947 0022 00BF     		.align	2
 948              	.L71:
 949 0024 00000000 		.word	.LANCHOR0
 950              		.cfi_endproc
 951              	.LFE234:
 952              		.size	chSchRescheduleS, .-chSchRescheduleS
 953 0028 AFF30080 		.section	.text.chSchDoReschedule,"ax",%progbits
 953      AFF30080 
 954              		.align	2
 955              		.p2align 4,,15
 956              		.global	chSchDoReschedule
 957              		.thumb
 958              		.thumb_func
 959              		.type	chSchDoReschedule, %function
ARM GAS  C:\Users\jo\AppData\Local\Temp\ccPv0WR1.s 			page 18


 960              	chSchDoReschedule:
 961              	.LFB238:
 962              		.loc 1 516 0
 963              		.cfi_startproc
 964              		@ args = 0, pretend = 0, frame = 0
 965              		@ frame_needed = 0, uses_anonymous_args = 0
 966              		@ link register save eliminated.
 967              		.loc 1 534 0
 968 0000 FFF7FEBF 		b	chSchDoRescheduleAhead
 969              	.LVL67:
 970              		.cfi_endproc
 971              	.LFE238:
 972              		.size	chSchDoReschedule, .-chSchDoReschedule
 973              		.global	ch
 974 0004 AFF30080 		.section	.rodata.__func__.6551,"a",%progbits
 974      AFF30080 
 974      AFF30080 
 975              		.align	2
 976              		.set	.LANCHOR1,. + 0
 977              		.type	__func__.6551, %object
 978              		.size	__func__.6551, 12
 979              	__func__.6551:
 980 0000 63685363 		.ascii	"chSchReadyI\000"
 980      68526561 
 980      64794900 
 981              		.section	.bss.ch,"aw",%nobits
 982              		.align	3
 983              		.set	.LANCHOR0,. + 0
 984              		.type	ch, %object
 985              		.size	ch, 1392
 986              	ch:
 987 0000 00000000 		.space	1392
 987      00000000 
 987      00000000 
 987      00000000 
 987      00000000 
 988              		.section	.rodata.str1.4,"aMS",%progbits,1
 989              		.align	2
 990              	.LC0:
 991 0000 73746163 		.ascii	"stack overflow\000"
 991      6B206F76 
 991      6572666C 
 991      6F7700
 992 000f 00       		.text
 993              	.Letext0:
 994              		.file 7 "c:\\program files\\gnu tools arm embedded\\4.9 2014q4\\lib\\gcc\\arm-none-eabi\\4.9.3\\in
 995              		.file 8 "c:\\program files\\gnu tools arm embedded\\4.9 2014q4\\arm-none-eabi\\include\\machine\\_
 996              		.file 9 "c:\\program files\\gnu tools arm embedded\\4.9 2014q4\\arm-none-eabi\\include\\stdint.h"
 997              		.file 10 "../../../os/rt/ports/ARMCMx/compilers/GCC/chtypes.h"
 998              		.file 11 "../../../os/rt/include/chsystypes.h"
 999              		.file 12 "../../../os/rt/ports/ARMCMx/chcore.h"
 1000              		.file 13 "../../../os/rt/ports/ARMCMx/chcore_v7m.h"
 1001              		.file 14 "../../../os/rt/include/chdebug.h"
 1002              		.file 15 "../../../os/rt/include/chtm.h"
 1003              		.file 16 "../../../os/rt/include/chmtx.h"
 1004              		.file 17 "../../../os/ext/CMSIS/include/core_cm4.h"