ARM GAS  C:\Users\jo\AppData\Local\Temp\ccOVhqF9.s 			page 1


   1              		.syntax unified
   2              		.cpu cortex-m4
   3              		.fpu softvfp
   4              		.eabi_attribute 20, 1
   5              		.eabi_attribute 21, 1
   6              		.eabi_attribute 23, 3
   7              		.eabi_attribute 24, 1
   8              		.eabi_attribute 25, 1
   9              		.eabi_attribute 26, 1
  10              		.eabi_attribute 30, 2
  11              		.eabi_attribute 34, 1
  12              		.eabi_attribute 18, 4
  13              		.thumb
  14              		.file	"chsys.c"
  15              		.text
  16              	.Ltext0:
  17              		.cfi_sections	.debug_frame
  18              		.section	.text._idle_thread,"ax",%progbits
  19              		.align	2
  20              		.p2align 4,,15
  21              		.thumb
  22              		.thumb_func
  23              		.type	_idle_thread, %function
  24              	_idle_thread:
  25              	.LFB228:
  26              		.file 1 "../../../os/rt/src/chsys.c"
  27              		.loc 1 65 0
  28              		.cfi_startproc
  29              		@ Volatile: function does not return.
  30              		@ args = 0, pretend = 0, frame = 0
  31              		@ frame_needed = 0, uses_anonymous_args = 0
  32              		@ link register save eliminated.
  33              	.LVL0:
  34              	.L2:
  35 0000 FEE7     		b	.L2
  36              		.cfi_endproc
  37              	.LFE228:
  38              		.size	_idle_thread, .-_idle_thread
  39 0002 00BFAFF3 		.section	.text.chSysInit,"ax",%progbits
  39      0080AFF3 
  39      0080AFF3 
  39      0080
  40              		.align	2
  41              		.p2align 4,,15
  42              		.global	chSysInit
  43              		.thumb
  44              		.thumb_func
  45              		.type	chSysInit, %function
  46              	chSysInit:
  47              	.LFB229:
  48              		.loc 1 93 0
  49              		.cfi_startproc
  50              		@ args = 0, pretend = 0, frame = 0
  51              		@ frame_needed = 0, uses_anonymous_args = 0
  52              	.LBB166:
  53              	.LBB167:
  54              		.file 2 "../../../os/rt/ports/ARMCMx/chcore_v7m.h"
ARM GAS  C:\Users\jo\AppData\Local\Temp\ccOVhqF9.s 			page 2


  55              		.loc 2 377 0
  56 0000 234B     		ldr	r3, .L5
  57              	.LBB168:
  58              	.LBB169:
  59              		.file 3 "../../../os/ext/CMSIS/include/core_cm4.h"
  60              		.loc 3 1442 0
  61 0002 244A     		ldr	r2, .L5+4
  62              	.LBE169:
  63              	.LBE168:
  64              		.loc 2 384 0
  65 0004 2448     		ldr	r0, .L5+8
  66              	.LBE167:
  67              	.LBE166:
  68              		.loc 1 93 0
  69 0006 F0B5     		push	{r4, r5, r6, r7, lr}
  70              		.cfi_def_cfa_offset 20
  71              		.cfi_offset 4, -20
  72              		.cfi_offset 5, -16
  73              		.cfi_offset 6, -12
  74              		.cfi_offset 7, -8
  75              		.cfi_offset 14, -4
  76              	.LBB185:
  77              	.LBB182:
  78              		.loc 2 377 0
  79 0008 0024     		movs	r4, #0
  80 000a 9C60     		str	r4, [r3, #8]
  81              	.LVL1:
  82              	.LBB172:
  83              	.LBB170:
  84              		.loc 3 1440 0
  85 000c DF68     		ldr	r7, [r3, #12]
  86              	.LVL2:
  87              	.LBE170:
  88              	.LBE172:
  89              		.loc 2 383 0
  90 000e 234E     		ldr	r6, .L5+12
  91              	.LBE182:
  92              	.LBE185:
  93              		.loc 1 119 0
  94 0010 234D     		ldr	r5, .L5+16
  95              	.LBB186:
  96              	.LBB183:
  97              	.LBB173:
  98              	.LBB171:
  99              		.loc 3 1441 0
 100 0012 4FF6FF01 		movw	r1, #63743
 101 0016 3940     		ands	r1, r1, r7
 102              	.LVL3:
 103              		.loc 3 1442 0
 104 0018 0A43     		orrs	r2, r2, r1
 105              	.LVL4:
 106              		.loc 3 1445 0
 107 001a DA60     		str	r2, [r3, #12]
 108              	.LBE171:
 109              	.LBE173:
 110              		.loc 2 383 0
 111 001c F268     		ldr	r2, [r6, #12]
ARM GAS  C:\Users\jo\AppData\Local\Temp\ccOVhqF9.s 			page 3


 112              	.LVL5:
 113 001e 42F08072 		orr	r2, r2, #16777216
 114 0022 F260     		str	r2, [r6, #12]
 115              	.LVL6:
 116              		.loc 2 384 0
 117 0024 0268     		ldr	r2, [r0]
 118              	.LBB174:
 119              	.LBB175:
 120              		.loc 3 1553 0
 121 0026 2021     		movs	r1, #32
 122              	.LVL7:
 123              	.LBE175:
 124              	.LBE174:
 125              		.loc 2 384 0
 126 0028 42F00102 		orr	r2, r2, #1
 127              	.LBB177:
 128              	.LBB178:
 129              		.loc 3 1553 0
 130 002c 1026     		movs	r6, #16
 131              	.LBE178:
 132              	.LBE177:
 133              		.loc 2 384 0
 134 002e 0260     		str	r2, [r0]
 135              	.LVL8:
 136              	.LBE183:
 137              	.LBE186:
 138              		.loc 1 93 0
 139 0030 83B0     		sub	sp, sp, #12
 140              		.cfi_def_cfa_offset 32
 141              	.LBB187:
 142              	.LBB184:
 143              	.LBB180:
 144              	.LBB179:
 145              		.loc 3 1553 0
 146 0032 DE77     		strb	r6, [r3, #31]
 147              	.LVL9:
 148              	.LBE179:
 149              	.LBE180:
 150              	.LBB181:
 151              	.LBB176:
 152 0034 83F82210 		strb	r1, [r3, #34]
 153              	.LBE176:
 154              	.LBE181:
 155              	.LBE184:
 156              	.LBE187:
 157              		.loc 1 99 0
 158 0038 FFF7FEFF 		bl	_scheduler_init
 159              	.LVL10:
 160              		.loc 1 100 0
 161 003c FFF7FEFF 		bl	_vt_init
 162              	.LVL11:
 163              		.loc 1 102 0
 164 0040 FFF7FEFF 		bl	_tm_init
 165              	.LVL12:
 166              		.loc 1 105 0
 167 0044 FFF7FEFF 		bl	_core_init
 168              	.LVL13:
ARM GAS  C:\Users\jo\AppData\Local\Temp\ccOVhqF9.s 			page 4


 169              		.loc 1 108 0
 170 0048 FFF7FEFF 		bl	_heap_init
 171              	.LVL14:
 172              		.loc 1 114 0
 173 004c FFF7FEFF 		bl	_dbg_trace_init
 174              	.LVL15:
 175              		.loc 1 119 0
 176 0050 4021     		movs	r1, #64
 177 0052 2846     		mov	r0, r5
 178 0054 FFF7FEFF 		bl	_thread_init
 179              	.LVL16:
 180 0058 A5F58867 		sub	r7, r5, #1088
 181              	.LVL17:
 182              		.loc 1 129 0
 183 005c 114B     		ldr	r3, .L5+20
 184 005e C361     		str	r3, [r0, #28]
 185              		.loc 1 125 0
 186 0060 0126     		movs	r6, #1
 187 0062 80F82060 		strb	r6, [r0, #32]
 188              		.loc 1 119 0
 189 0066 B861     		str	r0, [r7, #24]
 190              	.LBB188:
 191              	.LBB189:
 192              		.file 4 "../../../os/rt/include/chsys.h"
 193              		.loc 4 337 0
 194 0068 FFF7FEFF 		bl	_dbg_check_enable
 195              	.LVL18:
 196              	.LBB190:
 197              	.LBB191:
 198              	.LBB192:
 199              		.file 5 "../../../os/ext/CMSIS/include/core_cmFunc.h"
 200              		.loc 5 546 0
 201              	@ 546 "../../../os/ext/CMSIS/include/core_cmFunc.h" 1
 202 006c 84F31188 		MSR basepri, r4
 203              	@ 0 "" 2
 204              		.thumb
 205              	.LBE192:
 206              	.LBE191:
 207              	.LBB193:
 208              	.LBB194:
 209              		.loc 5 331 0
 210              	@ 331 "../../../os/ext/CMSIS/include/core_cmFunc.h" 1
 211 0070 62B6     		cpsie i
 212              	@ 0 "" 2
 213              		.thumb
 214              	.LBE194:
 215              	.LBE193:
 216              	.LBE190:
 217              	.LBE189:
 218              	.LBE188:
 219              		.loc 1 135 0
 220 0072 BB69     		ldr	r3, [r7, #24]
 221 0074 0C4A     		ldr	r2, .L5+24
 222 0076 9A61     		str	r2, [r3, #24]
 223              	.LBB195:
 224              		.loc 1 142 0
 225 0078 05F15000 		add	r0, r5, #80
ARM GAS  C:\Users\jo\AppData\Local\Temp\ccOVhqF9.s 			page 5


 226 007c 3246     		mov	r2, r6
 227 007e 0094     		str	r4, [sp]
 228 0080 E021     		movs	r1, #224
 229 0082 0A4B     		ldr	r3, .L5+28
 230 0084 FFF7FEFF 		bl	chThdCreateStatic
 231              	.LVL19:
 232              	.LBB196:
 233              	.LBB197:
 234              		.file 6 "../../../os/rt/include/chregistry.h"
 235              		.loc 6 176 0
 236 0088 094B     		ldr	r3, .L5+32
 237 008a 8361     		str	r3, [r0, #24]
 238              	.LBE197:
 239              	.LBE196:
 240              	.LBE195:
 241              		.loc 1 150 0
 242 008c 03B0     		add	sp, sp, #12
 243              		.cfi_def_cfa_offset 20
 244              		@ sp needed
 245 008e F0BD     		pop	{r4, r5, r6, r7, pc}
 246              	.L6:
 247              		.align	2
 248              	.L5:
 249 0090 00ED00E0 		.word	-536810240
 250 0094 0003FA05 		.word	100270848
 251 0098 001000E0 		.word	-536866816
 252 009c F0ED00E0 		.word	-536810000
 253 00a0 40040000 		.word	ch+1088
 254 00a4 00000000 		.word	__main_thread_stack_base__
 255 00a8 00000000 		.word	ch_debug
 256 00ac 00000000 		.word	_idle_thread
 257 00b0 00000000 		.word	.LC0
 258              		.cfi_endproc
 259              	.LFE229:
 260              		.size	chSysInit, .-chSysInit
 261 00b4 AFF30080 		.section	.text.chSysHalt,"ax",%progbits
 261      AFF30080 
 261      AFF30080 
 262              		.align	2
 263              		.p2align 4,,15
 264              		.global	chSysHalt
 265              		.thumb
 266              		.thumb_func
 267              		.type	chSysHalt, %function
 268              	chSysHalt:
 269              	.LFB230:
 270              		.loc 1 164 0
 271              		.cfi_startproc
 272              		@ Volatile: function does not return.
 273              		@ args = 0, pretend = 0, frame = 0
 274              		@ frame_needed = 0, uses_anonymous_args = 0
 275              	.LVL20:
 276 0000 08B5     		push	{r3, lr}
 277              		.cfi_def_cfa_offset 8
 278              		.cfi_offset 3, -8
 279              		.cfi_offset 14, -4
 280              		.loc 1 164 0
ARM GAS  C:\Users\jo\AppData\Local\Temp\ccOVhqF9.s 			page 6


 281 0002 0446     		mov	r4, r0
 282              		.loc 1 166 0
 283              	@ 166 "../../../os/rt/src/chsys.c" 1
 284 0004 01BE     		BKPT #1
 285              	
 286              	@ 0 "" 2
 287              		.thumb
 288              	.LBB198:
 289              	.LBB199:
 290              	.LBB200:
 291              		.loc 5 342 0
 292              	@ 342 "../../../os/ext/CMSIS/include/core_cmFunc.h" 1
 293 0006 72B6     		cpsid i
 294              	@ 0 "" 2
 295              		.thumb
 296              	.LBE200:
 297              	.LBE199:
 298              	.LBE198:
 299              	.LBB201:
 300              		.loc 1 170 0
 301 0008 FFF7FEFF 		bl	puts
 302              	.LVL21:
 303              	.LBE201:
 304              		.loc 1 174 0
 305 000c 014B     		ldr	r3, .L11
 306 000e DC62     		str	r4, [r3, #44]
 307              	.L8:
 308              		.loc 1 178 0 discriminator 1
 309 0010 FEE7     		b	.L8
 310              	.L12:
 311 0012 00BF     		.align	2
 312              	.L11:
 313 0014 00000000 		.word	ch
 314              		.cfi_endproc
 315              	.LFE230:
 316              		.size	chSysHalt, .-chSysHalt
 317 0018 AFF30080 		.section	.text.chSysIntegrityCheckI,"ax",%progbits
 317      AFF30080 
 318              		.align	2
 319              		.p2align 4,,15
 320              		.global	chSysIntegrityCheckI
 321              		.thumb
 322              		.thumb_func
 323              		.type	chSysIntegrityCheckI, %function
 324              	chSysIntegrityCheckI:
 325              	.LFB231:
 326              		.loc 1 205 0
 327              		.cfi_startproc
 328              		@ args = 0, pretend = 0, frame = 0
 329              		@ frame_needed = 0, uses_anonymous_args = 0
 330              	.LVL22:
 331 0000 10B5     		push	{r4, lr}
 332              		.cfi_def_cfa_offset 8
 333              		.cfi_offset 4, -8
 334              		.cfi_offset 14, -4
 335              		.loc 1 205 0
 336 0002 0446     		mov	r4, r0
ARM GAS  C:\Users\jo\AppData\Local\Temp\ccOVhqF9.s 			page 7


 337              		.loc 1 208 0
 338 0004 FFF7FEFF 		bl	chDbgCheckClassI
 339              	.LVL23:
 340              		.loc 1 211 0
 341 0008 E207     		lsls	r2, r4, #31
 342 000a 13D5     		bpl	.L14
 343              	.LVL24:
 344              	.LBB202:
 345              		.loc 1 216 0
 346 000c 2B4A     		ldr	r2, .L52
 347 000e 1168     		ldr	r1, [r2]
 348              	.LVL25:
 349              		.loc 1 217 0
 350 0010 9142     		cmp	r1, r2
 351 0012 47D0     		beq	.L15
 352 0014 0023     		movs	r3, #0
 353              	.LVL26:
 354              	.L16:
 355              		.loc 1 219 0
 356 0016 0968     		ldr	r1, [r1]
 357              	.LVL27:
 358              		.loc 1 217 0
 359 0018 9142     		cmp	r1, r2
 360              		.loc 1 218 0
 361 001a 03F10103 		add	r3, r3, #1
 362              	.LVL28:
 363              		.loc 1 217 0
 364 001e FAD1     		bne	.L16
 365              		.loc 1 223 0
 366 0020 4868     		ldr	r0, [r1, #4]
 367              	.LVL29:
 368              		.loc 1 224 0
 369 0022 8842     		cmp	r0, r1
 370 0024 3CD0     		beq	.L34
 371              	.LVL30:
 372              	.L18:
 373              		.loc 1 226 0
 374 0026 4068     		ldr	r0, [r0, #4]
 375              	.LVL31:
 376              		.loc 1 224 0
 377 0028 9042     		cmp	r0, r2
 378              		.loc 1 225 0
 379 002a 03F1FF33 		add	r3, r3, #-1
 380              	.LVL32:
 381              		.loc 1 224 0
 382 002e FAD1     		bne	.L18
 383              		.loc 1 230 0
 384 0030 002B     		cmp	r3, #0
 385 0032 35D1     		bne	.L34
 386              	.LVL33:
 387              	.L14:
 388              	.LBE202:
 389              		.loc 1 236 0
 390 0034 A307     		lsls	r3, r4, #30
 391 0036 14D5     		bpl	.L19
 392              	.LVL34:
 393              	.LBB203:
ARM GAS  C:\Users\jo\AppData\Local\Temp\ccOVhqF9.s 			page 8


 394              		.loc 1 241 0
 395 0038 204A     		ldr	r2, .L52
 396 003a 1046     		mov	r0, r2
 397 003c 50F81C1F 		ldr	r1, [r0, #28]!
 398              	.LVL35:
 399              		.loc 1 242 0
 400 0040 8142     		cmp	r1, r0
 401 0042 35D0     		beq	.L20
 402 0044 0023     		movs	r3, #0
 403              	.LVL36:
 404              	.L21:
 405              		.loc 1 244 0
 406 0046 0968     		ldr	r1, [r1]
 407              	.LVL37:
 408              		.loc 1 242 0
 409 0048 8142     		cmp	r1, r0
 410              		.loc 1 243 0
 411 004a 03F10103 		add	r3, r3, #1
 412              	.LVL38:
 413              		.loc 1 242 0
 414 004e FAD1     		bne	.L21
 415              		.loc 1 248 0
 416 0050 126A     		ldr	r2, [r2, #32]
 417              	.LVL39:
 418              		.loc 1 249 0
 419 0052 8A42     		cmp	r2, r1
 420 0054 24D0     		beq	.L34
 421              	.LVL40:
 422              	.L22:
 423              		.loc 1 251 0
 424 0056 5268     		ldr	r2, [r2, #4]
 425              	.LVL41:
 426              		.loc 1 249 0
 427 0058 8242     		cmp	r2, r0
 428              		.loc 1 250 0
 429 005a 03F1FF33 		add	r3, r3, #-1
 430              	.LVL42:
 431              		.loc 1 249 0
 432 005e FAD1     		bne	.L22
 433              		.loc 1 255 0
 434 0060 F3B9     		cbnz	r3, .L34
 435              	.LVL43:
 436              	.L19:
 437              	.LBE203:
 438              		.loc 1 261 0
 439 0062 14F00400 		ands	r0, r4, #4
 440 0066 1AD0     		beq	.L50
 441              	.LVL44:
 442              	.LBB204:
 443              		.loc 1 266 0
 444 0068 144A     		ldr	r2, .L52
 445 006a 1369     		ldr	r3, [r2, #16]
 446              	.LVL45:
 447              		.loc 1 267 0
 448 006c 9342     		cmp	r3, r2
 449 006e 11D0     		beq	.L23
 450 0070 0020     		movs	r0, #0
ARM GAS  C:\Users\jo\AppData\Local\Temp\ccOVhqF9.s 			page 9


 451              	.LVL46:
 452              	.L24:
 453              		.loc 1 269 0
 454 0072 1B69     		ldr	r3, [r3, #16]
 455              	.LVL47:
 456              		.loc 1 267 0
 457 0074 9342     		cmp	r3, r2
 458              		.loc 1 268 0
 459 0076 00F10100 		add	r0, r0, #1
 460              	.LVL48:
 461              		.loc 1 267 0
 462 007a FAD1     		bne	.L24
 463              		.loc 1 273 0
 464 007c 5969     		ldr	r1, [r3, #20]
 465              	.LVL49:
 466              		.loc 1 274 0
 467 007e 9942     		cmp	r1, r3
 468 0080 0ED0     		beq	.L34
 469              	.LVL50:
 470              	.L25:
 471              		.loc 1 276 0
 472 0082 4969     		ldr	r1, [r1, #20]
 473              	.LVL51:
 474              		.loc 1 274 0
 475 0084 9142     		cmp	r1, r2
 476              		.loc 1 275 0
 477 0086 00F1FF30 		add	r0, r0, #-1
 478              	.LVL52:
 479              		.loc 1 274 0
 480 008a FAD1     		bne	.L25
 481              		.loc 1 280 0
 482 008c 0030     		adds	r0, r0, #0
 483 008e 18BF     		it	ne
 484 0090 0120     		movne	r0, #1
 485              	.LVL53:
 486 0092 10BD     		pop	{r4, pc}
 487              	.LVL54:
 488              	.L23:
 489              		.loc 1 273 0
 490 0094 5969     		ldr	r1, [r3, #20]
 491              	.LVL55:
 492              		.loc 1 274 0
 493 0096 9942     		cmp	r1, r3
 494              		.loc 1 265 0
 495 0098 4FF00000 		mov	r0, #0
 496              		.loc 1 274 0
 497 009c F1D1     		bne	.L25
 498              	.LVL56:
 499              	.L50:
 500              	.LBE204:
 501              		.loc 1 293 0
 502 009e 10BD     		pop	{r4, pc}
 503              	.LVL57:
 504              	.L34:
 505              	.LBB205:
 506              		.loc 1 231 0
 507 00a0 0120     		movs	r0, #1
ARM GAS  C:\Users\jo\AppData\Local\Temp\ccOVhqF9.s 			page 10


 508 00a2 10BD     		pop	{r4, pc}
 509              	.LVL58:
 510              	.L15:
 511              		.loc 1 223 0
 512 00a4 5068     		ldr	r0, [r2, #4]
 513              	.LVL59:
 514              		.loc 1 224 0
 515 00a6 9042     		cmp	r0, r2
 516              		.loc 1 215 0
 517 00a8 18BF     		it	ne
 518 00aa 0023     		movne	r3, #0
 519              		.loc 1 224 0
 520 00ac BBD1     		bne	.L18
 521 00ae C1E7     		b	.L14
 522              	.LVL60:
 523              	.L20:
 524              	.LBE205:
 525              	.LBB206:
 526              		.loc 1 248 0
 527 00b0 126A     		ldr	r2, [r2, #32]
 528              	.LVL61:
 529              		.loc 1 249 0
 530 00b2 8242     		cmp	r2, r0
 531              		.loc 1 240 0
 532 00b4 18BF     		it	ne
 533 00b6 0023     		movne	r3, #0
 534              		.loc 1 249 0
 535 00b8 CDD1     		bne	.L22
 536 00ba D2E7     		b	.L19
 537              	.L53:
 538              		.align	2
 539              	.L52:
 540 00bc 00000000 		.word	ch
 541              	.LBE206:
 542              		.cfi_endproc
 543              	.LFE231:
 544              		.size	chSysIntegrityCheckI, .-chSysIntegrityCheckI
 545              		.section	.text.chSysTimerHandlerI,"ax",%progbits
 546              		.align	2
 547              		.p2align 4,,15
 548              		.global	chSysTimerHandlerI
 549              		.thumb
 550              		.thumb_func
 551              		.type	chSysTimerHandlerI, %function
 552              	chSysTimerHandlerI:
 553              	.LFB232:
 554              		.loc 1 306 0
 555              		.cfi_startproc
 556              		@ args = 0, pretend = 0, frame = 0
 557              		@ frame_needed = 0, uses_anonymous_args = 0
 558 0000 2DE9F047 		push	{r4, r5, r6, r7, r8, r9, r10, lr}
 559              		.cfi_def_cfa_offset 32
 560              		.cfi_offset 4, -32
 561              		.cfi_offset 5, -28
 562              		.cfi_offset 6, -24
 563              		.cfi_offset 7, -20
 564              		.cfi_offset 8, -16
ARM GAS  C:\Users\jo\AppData\Local\Temp\ccOVhqF9.s 			page 11


 565              		.cfi_offset 9, -12
 566              		.cfi_offset 10, -8
 567              		.cfi_offset 14, -4
 568              	.LBB238:
 569              	.LBB239:
 570              		.file 7 "../../../os/rt/include/chvt.h"
 571              		.loc 7 494 0
 572 0004 254D     		ldr	r5, .L66
 573              	.LBB240:
 574              	.LBB241:
 575              	.LBB242:
 576              	.LBB243:
 577              		.file 8 "../../../os/hal/ports/STM32/LLD/TIMv1/st_lld.h"
 578              		.loc 8 129 0
 579 0006 4FF08048 		mov	r8, #1073741824
 580              	.LBE243:
 581              	.LBE242:
 582              	.LBE241:
 583              	.LBE240:
 584              	.LBE239:
 585              	.LBE238:
 586              		.loc 1 308 0
 587 000a FFF7FEFF 		bl	chDbgCheckClassI
 588              	.LVL62:
 589              	.LBB285:
 590              	.LBB284:
 591              		.loc 7 468 0
 592 000e FFF7FEFF 		bl	chDbgCheckClassI
 593              	.LVL63:
 594              		.loc 7 494 0
 595 0012 EC69     		ldr	r4, [r5, #28]
 596              	.LVL64:
 597              		.loc 7 501 0
 598 0014 A96A     		ldr	r1, [r5, #40]
 599              	.LBB247:
 600              	.LBB246:
 601              	.LBB245:
 602              	.LBB244:
 603              		.loc 8 129 0
 604 0016 D8F82400 		ldr	r0, [r8, #36]
 605              	.LVL65:
 606              	.LBE244:
 607              	.LBE245:
 608              	.LBE246:
 609              	.LBE247:
 610              		.loc 7 501 0
 611 001a A368     		ldr	r3, [r4, #8]
 612 001c 421A     		subs	r2, r0, r1
 613 001e 9A42     		cmp	r2, r3
 614 0020 05F11C0A 		add	r10, r5, #28
 615 0024 1ED3     		bcc	.L55
 616              	.LBB248:
 617              		.loc 7 510 0
 618 0026 0026     		movs	r6, #0
 619              	.LBB249:
 620              	.LBB250:
 621              	.LBB251:
ARM GAS  C:\Users\jo\AppData\Local\Temp\ccOVhqF9.s 			page 12


 622              	.LBB252:
 623              	.LBB253:
 624              	.LBB254:
 625              		.loc 5 546 0
 626 0028 4FF02009 		mov	r9, #32
 627              	.L57:
 628              	.LBE254:
 629              	.LBE253:
 630              	.LBE252:
 631              	.LBE251:
 632              	.LBE250:
 633              	.LBE249:
 634              		.loc 7 507 0
 635 002c 2268     		ldr	r2, [r4]
 636              		.loc 7 509 0
 637 002e E768     		ldr	r7, [r4, #12]
 638              	.LVL66:
 639              		.loc 7 505 0
 640 0030 0B44     		add	r3, r3, r1
 641              		.loc 7 513 0
 642 0032 5245     		cmp	r2, r10
 643              		.loc 7 505 0
 644 0034 AB62     		str	r3, [r5, #40]
 645              		.loc 7 507 0
 646 0036 C2F804A0 		str	r10, [r2, #4]
 647              		.loc 7 508 0
 648 003a EA61     		str	r2, [r5, #28]
 649              		.loc 7 510 0
 650 003c E660     		str	r6, [r4, #12]
 651              		.loc 7 513 0
 652 003e 26D0     		beq	.L64
 653              	.L56:
 654              	.LBB260:
 655              	.LBB261:
 656              		.loc 4 408 0
 657 0040 FFF7FEFF 		bl	_dbg_check_unlock_from_isr
 658              	.LVL67:
 659              	.LBB262:
 660              	.LBB263:
 661              	.LBB264:
 662              	.LBB265:
 663              		.loc 5 546 0
 664              	@ 546 "../../../os/ext/CMSIS/include/core_cmFunc.h" 1
 665 0044 86F31188 		MSR basepri, r6
 666              	@ 0 "" 2
 667              		.thumb
 668              	.LBE265:
 669              	.LBE264:
 670              	.LBE263:
 671              	.LBE262:
 672              	.LBE261:
 673              	.LBE260:
 674              		.loc 7 523 0
 675 0048 2069     		ldr	r0, [r4, #16]
 676 004a B847     		blx	r7
 677              	.LVL68:
 678              	.LBB266:
ARM GAS  C:\Users\jo\AppData\Local\Temp\ccOVhqF9.s 			page 13


 679              	.LBB259:
 680              	.LBB258:
 681              	.LBB257:
 682              	.LBB256:
 683              	.LBB255:
 684              		.loc 5 546 0
 685              	@ 546 "../../../os/ext/CMSIS/include/core_cmFunc.h" 1
 686 004c 89F31188 		MSR basepri, r9
 687              	@ 0 "" 2
 688              		.thumb
 689              	.LBE255:
 690              	.LBE256:
 691              	.LBE257:
 692              	.LBE258:
 693              		.loc 4 390 0
 694 0050 FFF7FEFF 		bl	_dbg_check_lock_from_isr
 695              	.LVL69:
 696              	.LBE259:
 697              	.LBE266:
 698              		.loc 7 531 0
 699 0054 EC69     		ldr	r4, [r5, #28]
 700              	.LVL70:
 701              	.LBB267:
 702              	.LBB268:
 703              	.LBB269:
 704              	.LBB270:
 705              		.loc 8 129 0
 706 0056 D8F82400 		ldr	r0, [r8, #36]
 707              	.LBE270:
 708              	.LBE269:
 709              	.LBE268:
 710              	.LBE267:
 711              	.LBE248:
 712              		.loc 7 501 0
 713 005a A96A     		ldr	r1, [r5, #40]
 714 005c A368     		ldr	r3, [r4, #8]
 715 005e 421A     		subs	r2, r0, r1
 716 0060 9342     		cmp	r3, r2
 717 0062 E3D9     		bls	.L57
 718              	.LVL71:
 719              	.L55:
 720              		.loc 7 536 0
 721 0064 5445     		cmp	r4, r10
 722 0066 10D0     		beq	.L54
 723              		.loc 7 541 0
 724 0068 0B44     		add	r3, r3, r1
 725 006a 1B1A     		subs	r3, r3, r0
 726              	.LVL72:
 727              		.loc 7 543 0
 728 006c 012B     		cmp	r3, #1
 729 006e 98BF     		it	ls
 730 0070 0223     		movls	r3, #2
 731              	.LVL73:
 732              		.loc 7 545 0
 733 0072 1C18     		adds	r4, r3, r0
 734              	.LVL74:
 735              	.LBB273:
ARM GAS  C:\Users\jo\AppData\Local\Temp\ccOVhqF9.s 			page 14


 736              	.LBB274:
 737              		.file 9 "../../../os/rt/ports/ARMCMx/chcore_timer.h"
 738              		.loc 9 95 0
 739 0074 2046     		mov	r0, r4
 740 0076 FFF7FEFF 		bl	stSetAlarm
 741              	.LVL75:
 742              	.LBE274:
 743              	.LBE273:
 744              	.LBB275:
 745              	.LBB276:
 746              	.LBB277:
 747              	.LBB278:
 748              		.loc 8 129 0
 749 007a 4FF08043 		mov	r3, #1073741824
 750              	.LBE278:
 751              	.LBE277:
 752              	.LBE276:
 753              	.LBE275:
 754              		.loc 7 547 0
 755 007e A96A     		ldr	r1, [r5, #40]
 756              	.LBB282:
 757              	.LBB281:
 758              	.LBB280:
 759              	.LBB279:
 760              		.loc 8 129 0
 761 0080 5A6A     		ldr	r2, [r3, #36]
 762              	.LBE279:
 763              	.LBE280:
 764              	.LBE281:
 765              	.LBE282:
 766              		.loc 7 547 0
 767 0082 631A     		subs	r3, r4, r1
 768 0084 521A     		subs	r2, r2, r1
 769 0086 9A42     		cmp	r2, r3
 770 0088 04D8     		bhi	.L65
 771              	.LVL76:
 772              	.L54:
 773 008a BDE8F087 		pop	{r4, r5, r6, r7, r8, r9, r10, pc}
 774              	.LVL77:
 775              	.L64:
 776              	.LBB283:
 777              	.LBB271:
 778              	.LBB272:
 779              		.loc 9 83 0
 780 008e FFF7FEFF 		bl	stStopAlarm
 781              	.LVL78:
 782 0092 D5E7     		b	.L56
 783              	.LVL79:
 784              	.L65:
 785              	.LBE272:
 786              	.LBE271:
 787              	.LBE283:
 788              		.loc 7 547 0
 789 0094 0248     		ldr	r0, .L66+4
 790 0096 FFF7FEFF 		bl	chSysHalt
 791              	.LVL80:
 792              	.L67:
ARM GAS  C:\Users\jo\AppData\Local\Temp\ccOVhqF9.s 			page 15


 793 009a 00BF     		.align	2
 794              	.L66:
 795 009c 00000000 		.word	ch
 796 00a0 00000000 		.word	.LANCHOR0
 797              	.LBE284:
 798              	.LBE285:
 799              		.cfi_endproc
 800              	.LFE232:
 801              		.size	chSysTimerHandlerI, .-chSysTimerHandlerI
 802 00a4 AFF30080 		.section	.text.chSysGetStatusAndLockX,"ax",%progbits
 802      AFF30080 
 802      AFF30080 
 803              		.align	2
 804              		.p2align 4,,15
 805              		.global	chSysGetStatusAndLockX
 806              		.thumb
 807              		.thumb_func
 808              		.type	chSysGetStatusAndLockX, %function
 809              	chSysGetStatusAndLockX:
 810              	.LFB233:
 811              		.loc 1 339 0
 812              		.cfi_startproc
 813              		@ args = 0, pretend = 0, frame = 0
 814              		@ frame_needed = 0, uses_anonymous_args = 0
 815 0000 10B5     		push	{r4, lr}
 816              		.cfi_def_cfa_offset 8
 817              		.cfi_offset 4, -8
 818              		.cfi_offset 14, -4
 819              	.LBB286:
 820              	.LBB287:
 821              	.LBB288:
 822              	.LBB289:
 823              		.loc 5 533 0
 824              	@ 533 "../../../os/ext/CMSIS/include/core_cmFunc.h" 1
 825 0002 EFF31284 		MRS r4, basepri_max
 826              	@ 0 "" 2
 827              	.LVL81:
 828              		.thumb
 829              	.LBE289:
 830              	.LBE288:
 831              	.LBE287:
 832              	.LBE286:
 833              		.loc 1 342 0
 834 0006 4CB9     		cbnz	r4, .L69
 835              	.LBB290:
 836              	.LBB291:
 837              	.LBB292:
 838              	.LBB293:
 839              		.loc 5 383 0
 840              	@ 383 "../../../os/ext/CMSIS/include/core_cmFunc.h" 1
 841 0008 EFF30583 		MRS r3, ipsr
 842              	@ 0 "" 2
 843              	.LVL82:
 844              		.thumb
 845              	.LBE293:
 846              	.LBE292:
 847              		.loc 2 436 0
ARM GAS  C:\Users\jo\AppData\Local\Temp\ccOVhqF9.s 			page 16


 848 000c C3F30803 		ubfx	r3, r3, #0, #9
 849              	.LVL83:
 850              	.LBE291:
 851              	.LBE290:
 852              		.loc 1 343 0
 853 0010 33B9     		cbnz	r3, .L72
 854              	.LVL84:
 855              	.LBB294:
 856              	.LBB295:
 857              	.LBB296:
 858              	.LBB297:
 859              	.LBB298:
 860              		.loc 5 546 0
 861 0012 2023     		movs	r3, #32
 862              	@ 546 "../../../os/ext/CMSIS/include/core_cmFunc.h" 1
 863 0014 83F31188 		MSR basepri, r3
 864              	@ 0 "" 2
 865              		.thumb
 866              	.LBE298:
 867              	.LBE297:
 868              	.LBE296:
 869              		.loc 4 350 0
 870 0018 FFF7FEFF 		bl	_dbg_check_lock
 871              	.LVL85:
 872              	.L69:
 873              	.LBE295:
 874              	.LBE294:
 875              		.loc 1 351 0
 876 001c 2046     		mov	r0, r4
 877 001e 10BD     		pop	{r4, pc}
 878              	.LVL86:
 879              	.L72:
 880              	.LBB299:
 881              	.LBB300:
 882              	.LBB301:
 883              	.LBB302:
 884              	.LBB303:
 885              	.LBB304:
 886              		.loc 5 546 0
 887 0020 2023     		movs	r3, #32
 888              	@ 546 "../../../os/ext/CMSIS/include/core_cmFunc.h" 1
 889 0022 83F31188 		MSR basepri, r3
 890              	@ 0 "" 2
 891              		.thumb
 892              	.LBE304:
 893              	.LBE303:
 894              	.LBE302:
 895              	.LBE301:
 896              		.loc 4 390 0
 897 0026 FFF7FEFF 		bl	_dbg_check_lock_from_isr
 898              	.LVL87:
 899              	.LBE300:
 900              	.LBE299:
 901              		.loc 1 351 0
 902 002a 2046     		mov	r0, r4
 903 002c 10BD     		pop	{r4, pc}
 904              		.cfi_endproc
ARM GAS  C:\Users\jo\AppData\Local\Temp\ccOVhqF9.s 			page 17


 905              	.LFE233:
 906              		.size	chSysGetStatusAndLockX, .-chSysGetStatusAndLockX
 907 002e 00BF     		.section	.text.chSysRestoreStatusX,"ax",%progbits
 908              		.align	2
 909              		.p2align 4,,15
 910              		.global	chSysRestoreStatusX
 911              		.thumb
 912              		.thumb_func
 913              		.type	chSysRestoreStatusX, %function
 914              	chSysRestoreStatusX:
 915              	.LFB234:
 916              		.loc 1 362 0
 917              		.cfi_startproc
 918              		@ args = 0, pretend = 0, frame = 0
 919              		@ frame_needed = 0, uses_anonymous_args = 0
 920              	.LVL88:
 921              		.loc 1 364 0
 922 0000 E0B9     		cbnz	r0, .L78
 923              		.loc 1 362 0
 924 0002 10B5     		push	{r4, lr}
 925              		.cfi_def_cfa_offset 8
 926              		.cfi_offset 4, -8
 927              		.cfi_offset 14, -4
 928 0004 0446     		mov	r4, r0
 929              	.LBB320:
 930              	.LBB321:
 931              	.LBB322:
 932              	.LBB323:
 933              		.loc 5 383 0
 934              	@ 383 "../../../os/ext/CMSIS/include/core_cmFunc.h" 1
 935 0006 EFF30583 		MRS r3, ipsr
 936              	@ 0 "" 2
 937              	.LVL89:
 938              		.thumb
 939              	.LBE323:
 940              	.LBE322:
 941              		.loc 2 436 0
 942 000a C3F30803 		ubfx	r3, r3, #0, #9
 943              	.LVL90:
 944              	.LBE321:
 945              	.LBE320:
 946              		.loc 1 365 0
 947 000e 83B9     		cbnz	r3, .L79
 948              		.loc 1 369 0
 949 0010 FFF7FEFF 		bl	chSchRescheduleS
 950              	.LVL91:
 951              	.LBB324:
 952              	.LBB325:
 953              		.loc 4 360 0
 954 0014 FFF7FEFF 		bl	_dbg_check_unlock
 955              	.LVL92:
 956              		.loc 4 367 0
 957 0018 0A4B     		ldr	r3, .L81
 958 001a 1A68     		ldr	r2, [r3]
 959 001c 9A42     		cmp	r2, r3
 960 001e 04D0     		beq	.L76
 961 0020 9969     		ldr	r1, [r3, #24]
ARM GAS  C:\Users\jo\AppData\Local\Temp\ccOVhqF9.s 			page 18


 962 0022 9368     		ldr	r3, [r2, #8]
 963 0024 8A68     		ldr	r2, [r1, #8]
 964 0026 9A42     		cmp	r2, r3
 965 0028 09D3     		bcc	.L80
 966              	.L76:
 967              	.LVL93:
 968              	.LBB326:
 969              	.LBB327:
 970              	.LBB328:
 971              		.loc 5 546 0
 972 002a 0023     		movs	r3, #0
 973              	@ 546 "../../../os/ext/CMSIS/include/core_cmFunc.h" 1
 974 002c 83F31188 		MSR basepri, r3
 975              	@ 0 "" 2
 976              		.thumb
 977 0030 10BD     		pop	{r4, pc}
 978              	.LVL94:
 979              	.L79:
 980              	.LBE328:
 981              	.LBE327:
 982              	.LBE326:
 983              	.LBE325:
 984              	.LBE324:
 985              	.LBB330:
 986              	.LBB331:
 987              		.loc 4 408 0
 988 0032 FFF7FEFF 		bl	_dbg_check_unlock_from_isr
 989              	.LVL95:
 990              	.LBB332:
 991              	.LBB333:
 992              	.LBB334:
 993              	.LBB335:
 994              		.loc 5 546 0
 995              	@ 546 "../../../os/ext/CMSIS/include/core_cmFunc.h" 1
 996 0036 84F31188 		MSR basepri, r4
 997              	@ 0 "" 2
 998              		.thumb
 999 003a 10BD     		pop	{r4, pc}
 1000              	.LVL96:
 1001              	.L78:
 1002              		.cfi_def_cfa_offset 0
 1003              		.cfi_restore 4
 1004              		.cfi_restore 14
 1005 003c 7047     		bx	lr
 1006              	.LVL97:
 1007              	.L80:
 1008              		.cfi_def_cfa_offset 8
 1009              		.cfi_offset 4, -8
 1010              		.cfi_offset 14, -4
 1011              	.LBE335:
 1012              	.LBE334:
 1013              	.LBE333:
 1014              	.LBE332:
 1015              	.LBE331:
 1016              	.LBE330:
 1017              	.LBB336:
 1018              	.LBB329:
ARM GAS  C:\Users\jo\AppData\Local\Temp\ccOVhqF9.s 			page 19


 1019              		.loc 4 367 0
 1020 003e 0248     		ldr	r0, .L81+4
 1021 0040 FFF7FEFF 		bl	chSysHalt
 1022              	.LVL98:
 1023              	.L82:
 1024              		.align	2
 1025              	.L81:
 1026 0044 00000000 		.word	ch
 1027 0048 00000000 		.word	.LANCHOR1
 1028              	.LBE329:
 1029              	.LBE336:
 1030              		.cfi_endproc
 1031              	.LFE234:
 1032              		.size	chSysRestoreStatusX, .-chSysRestoreStatusX
 1033 004c AFF30080 		.section	.text.chSysIsCounterWithinX,"ax",%progbits
 1034              		.align	2
 1035              		.p2align 4,,15
 1036              		.global	chSysIsCounterWithinX
 1037              		.thumb
 1038              		.thumb_func
 1039              		.type	chSysIsCounterWithinX, %function
 1040              	chSysIsCounterWithinX:
 1041              	.LFB235:
 1042              		.loc 1 394 0
 1043              		.cfi_startproc
 1044              		@ args = 0, pretend = 0, frame = 0
 1045              		@ frame_needed = 0, uses_anonymous_args = 0
 1046              		@ link register save eliminated.
 1047              	.LVL99:
 1048              		.loc 1 396 0
 1049 0000 401A     		subs	r0, r0, r1
 1050              	.LVL100:
 1051 0002 521A     		subs	r2, r2, r1
 1052              	.LVL101:
 1053              		.loc 1 397 0
 1054 0004 9042     		cmp	r0, r2
 1055 0006 2CBF     		ite	cs
 1056 0008 0020     		movcs	r0, #0
 1057 000a 0120     		movcc	r0, #1
 1058 000c 7047     		bx	lr
 1059              		.cfi_endproc
 1060              	.LFE235:
 1061              		.size	chSysIsCounterWithinX, .-chSysIsCounterWithinX
 1062 000e 00BF     		.section	.text.chSysPolledDelayX,"ax",%progbits
 1063              		.align	2
 1064              		.p2align 4,,15
 1065              		.global	chSysPolledDelayX
 1066              		.thumb
 1067              		.thumb_func
 1068              		.type	chSysPolledDelayX, %function
 1069              	chSysPolledDelayX:
 1070              	.LFB236:
 1071              		.loc 1 410 0
 1072              		.cfi_startproc
 1073              		@ args = 0, pretend = 0, frame = 0
 1074              		@ frame_needed = 0, uses_anonymous_args = 0
 1075              		@ link register save eliminated.
ARM GAS  C:\Users\jo\AppData\Local\Temp\ccOVhqF9.s 			page 20


 1076              	.LVL102:
 1077              	.LBB337:
 1078              	.LBB338:
 1079              		.loc 2 548 0
 1080 0000 034A     		ldr	r2, .L87
 1081 0002 5168     		ldr	r1, [r2, #4]
 1082              	.LVL103:
 1083              	.L85:
 1084              	.LBE338:
 1085              	.LBE337:
 1086              	.LBB339:
 1087              	.LBB340:
 1088              		.loc 2 548 0 is_stmt 0 discriminator 1
 1089 0004 5368     		ldr	r3, [r2, #4]
 1090              	.LVL104:
 1091              	.LBE340:
 1092              	.LBE339:
 1093              	.LBB341:
 1094              	.LBB342:
 1095              		.loc 1 396 0 is_stmt 1 discriminator 1
 1096 0006 5B1A     		subs	r3, r3, r1
 1097              	.LVL105:
 1098              	.LBE342:
 1099              	.LBE341:
 1100              		.loc 1 414 0 discriminator 1
 1101 0008 9842     		cmp	r0, r3
 1102 000a FBD8     		bhi	.L85
 1103              		.loc 1 416 0
 1104 000c 7047     		bx	lr
 1105              	.L88:
 1106 000e 00BF     		.align	2
 1107              	.L87:
 1108 0010 001000E0 		.word	-536866816
 1109              		.cfi_endproc
 1110              	.LFE236:
 1111              		.size	chSysPolledDelayX, .-chSysPolledDelayX
 1112 0014 AFF30080 		.section	.rodata.__func__.5940,"a",%progbits
 1112      AFF30080 
 1112      AFF30080 
 1113              		.align	2
 1114              		.set	.LANCHOR0,. + 0
 1115              		.type	__func__.5940, %object
 1116              		.size	__func__.5940, 12
 1117              	__func__.5940:
 1118 0000 63685654 		.ascii	"chVTDoTickI\000"
 1118      446F5469 
 1118      636B4900 
 1119              		.section	.rodata.str1.4,"aMS",%progbits,1
 1120              		.align	2
 1121              	.LC0:
 1122 0000 69646C65 		.ascii	"idle\000"
 1122      00
 1123 0005 000000   		.section	.rodata.__func__.5854,"a",%progbits
 1124              		.align	2
 1125              		.set	.LANCHOR1,. + 0
 1126              		.type	__func__.5854, %object
 1127              		.size	__func__.5854, 12
ARM GAS  C:\Users\jo\AppData\Local\Temp\ccOVhqF9.s 			page 21


 1128              	__func__.5854:
 1129 0000 63685379 		.ascii	"chSysUnlock\000"
 1129      73556E6C 
 1129      6F636B00 
 1130              		.text
 1131              	.Letext0:
 1132              		.file 10 "c:\\program files\\gnu tools arm embedded\\4.9 2014q4\\lib\\gcc\\arm-none-eabi\\4.9.3\\i
 1133              		.file 11 "c:\\program files\\gnu tools arm embedded\\4.9 2014q4\\arm-none-eabi\\include\\machine\\
 1134              		.file 12 "c:\\program files\\gnu tools arm embedded\\4.9 2014q4\\arm-none-eabi\\include\\stdint.h"
 1135              		.file 13 "../../../os/rt/ports/ARMCMx/compilers/GCC/chtypes.h"
 1136              		.file 14 "../../../os/rt/include/chsystypes.h"
 1137              		.file 15 "../../../os/rt/include/chschd.h"
 1138              		.file 16 "../../../os/ext/CMSIS/ST/stm32f407xx.h"
 1139              		.file 17 "../../../os/rt/ports/ARMCMx/chcore.h"
 1140              		.file 18 "../../../os/hal/ports/STM32/LLD/TIMv1/stm32_tim.h"
 1141              		.file 19 "../../../os/rt/include/chdebug.h"
 1142              		.file 20 "../../../os/rt/include/chtm.h"
 1143              		.file 21 "../../../os/rt/include/chsem.h"
 1144              		.file 22 "../../../os/rt/include/chmtx.h"
 1145              		.file 23 "../../../os/rt/include/chthreads.h"
 1146              		.file 24 "<built-in>"
 1147              		.file 25 "../../../os/rt/include/chmemcore.h"
 1148              		.file 26 "../../../os/rt/include/chheap.h"
 1149              		.file 27 "../../../os/hal/include/st.h"