ARM GAS  C:\Users\jo\AppData\Local\Temp\ccotli2K.s 			page 1


   1              		.syntax unified
   2              		.cpu cortex-m4
   3              		.fpu softvfp
   4              		.eabi_attribute 20, 1
   5              		.eabi_attribute 21, 1
   6              		.eabi_attribute 23, 3
   7              		.eabi_attribute 24, 1
   8              		.eabi_attribute 25, 1
   9              		.eabi_attribute 26, 1
  10              		.eabi_attribute 30, 2
  11              		.eabi_attribute 34, 1
  12              		.eabi_attribute 18, 4
  13              		.thumb
  14              		.file	"chtm.c"
  15              		.text
  16              	.Ltext0:
  17              		.cfi_sections	.debug_frame
  18              		.section	.text.chTMObjectInit,"ax",%progbits
  19              		.align	2
  20              		.p2align 4,,15
  21              		.global	chTMObjectInit
  22              		.thumb
  23              		.thumb_func
  24              		.type	chTMObjectInit, %function
  25              	chTMObjectInit:
  26              	.LFB230:
  27              		.file 1 "../../../os/rt/src/chtm.c"
  28              		.loc 1 99 0
  29              		.cfi_startproc
  30              		@ args = 0, pretend = 0, frame = 0
  31              		@ frame_needed = 0, uses_anonymous_args = 0
  32              		@ link register save eliminated.
  33              	.LVL0:
  34              		.loc 1 105 0
  35 0000 0022     		movs	r2, #0
  36 0002 0023     		movs	r3, #0
  37 0004 C0E90423 		strd	r2, [r0, #16]
  38              		.loc 1 102 0
  39 0008 0023     		movs	r3, #0
  40 000a 4FF0FF32 		mov	r2, #-1
  41 000e 80E80C00 		stmia	r0, {r2, r3}
  42              		.loc 1 103 0
  43 0012 8360     		str	r3, [r0, #8]
  44              		.loc 1 104 0
  45 0014 C360     		str	r3, [r0, #12]
  46 0016 7047     		bx	lr
  47              		.cfi_endproc
  48              	.LFE230:
  49              		.size	chTMObjectInit, .-chTMObjectInit
  50 0018 AFF30080 		.section	.text.chTMStartMeasurementX,"ax",%progbits
  50      AFF30080 
  51              		.align	2
  52              		.p2align 4,,15
  53              		.global	chTMStartMeasurementX
  54              		.thumb
  55              		.thumb_func
  56              		.type	chTMStartMeasurementX, %function
ARM GAS  C:\Users\jo\AppData\Local\Temp\ccotli2K.s 			page 2


  57              	chTMStartMeasurementX:
  58              	.LFB231:
  59              		.loc 1 116 0
  60              		.cfi_startproc
  61              		@ args = 0, pretend = 0, frame = 0
  62              		@ frame_needed = 0, uses_anonymous_args = 0
  63              		@ link register save eliminated.
  64              	.LVL1:
  65              	.LBB14:
  66              	.LBB15:
  67              		.file 2 "../../../os/rt/ports/ARMCMx/chcore_v7m.h"
  68              		.loc 2 548 0
  69 0000 014B     		ldr	r3, .L3
  70 0002 5B68     		ldr	r3, [r3, #4]
  71              	.LBE15:
  72              	.LBE14:
  73              		.loc 1 118 0
  74 0004 8360     		str	r3, [r0, #8]
  75 0006 7047     		bx	lr
  76              	.L4:
  77              		.align	2
  78              	.L3:
  79 0008 001000E0 		.word	-536866816
  80              		.cfi_endproc
  81              	.LFE231:
  82              		.size	chTMStartMeasurementX, .-chTMStartMeasurementX
  83 000c AFF30080 		.section	.text.chTMStopMeasurementX,"ax",%progbits
  84              		.align	2
  85              		.p2align 4,,15
  86              		.global	chTMStopMeasurementX
  87              		.thumb
  88              		.thumb_func
  89              		.type	chTMStopMeasurementX, %function
  90              	chTMStopMeasurementX:
  91              	.LFB232:
  92              		.loc 1 129 0
  93              		.cfi_startproc
  94              		@ args = 0, pretend = 0, frame = 0
  95              		@ frame_needed = 0, uses_anonymous_args = 0
  96              		@ link register save eliminated.
  97              	.LVL2:
  98              	.LBB16:
  99              	.LBB17:
 100              		.loc 2 548 0
 101 0000 0F4B     		ldr	r3, .L11
 102              	.LBE17:
 103              	.LBE16:
 104              		.loc 1 131 0
 105 0002 1049     		ldr	r1, .L11+4
 106              	.LBB19:
 107              	.LBB18:
 108              		.loc 2 548 0
 109 0004 5A68     		ldr	r2, [r3, #4]
 110              	.LBE18:
 111              	.LBE19:
 112              	.LBB20:
 113              	.LBB21:
ARM GAS  C:\Users\jo\AppData\Local\Temp\ccotli2K.s 			page 3


 114              		.loc 1 58 0
 115 0006 8368     		ldr	r3, [r0, #8]
 116              	.LBE21:
 117              	.LBE20:
 118              		.loc 1 129 0
 119 0008 F0B4     		push	{r4, r5, r6, r7}
 120              		.cfi_def_cfa_offset 16
 121              		.cfi_offset 4, -16
 122              		.cfi_offset 5, -12
 123              		.cfi_offset 6, -8
 124              		.cfi_offset 7, -4
 125              		.loc 1 131 0
 126 000a D1F88874 		ldr	r7, [r1, #1160]
 127              	.LVL3:
 128              	.LBB24:
 129              	.LBB22:
 130              		.loc 1 57 0
 131 000e C668     		ldr	r6, [r0, #12]
 132              		.loc 1 61 0
 133 0010 4168     		ldr	r1, [r0, #4]
 134              		.loc 1 59 0
 135 0012 D0E90445 		ldrd	r4, [r0, #16]
 136              		.loc 1 58 0
 137 0016 D31A     		subs	r3, r2, r3
 138 0018 DB1B     		subs	r3, r3, r7
 139              		.loc 1 59 0
 140 001a E418     		adds	r4, r4, r3
 141 001c 45F10005 		adc	r5, r5, #0
 142              		.loc 1 57 0
 143 0020 0136     		adds	r6, r6, #1
 144              		.loc 1 61 0
 145 0022 8B42     		cmp	r3, r1
 146              		.loc 1 57 0
 147 0024 C660     		str	r6, [r0, #12]
 148              		.loc 1 58 0
 149 0026 8360     		str	r3, [r0, #8]
 150              		.loc 1 59 0
 151 0028 C0E90445 		strd	r4, [r0, #16]
 152              		.loc 1 61 0
 153 002c 05D8     		bhi	.L10
 154              		.loc 1 64 0
 155 002e 0268     		ldr	r2, [r0]
 156              	.LVL4:
 157 0030 9342     		cmp	r3, r2
 158              		.loc 1 65 0
 159 0032 38BF     		it	cc
 160 0034 0360     		strcc	r3, [r0]
 161              	.LBE22:
 162              	.LBE24:
 163              		.loc 1 132 0
 164 0036 F0BC     		pop	{r4, r5, r6, r7}
 165              		.cfi_remember_state
 166              		.cfi_restore 7
 167              		.cfi_restore 6
 168              		.cfi_restore 5
 169              		.cfi_restore 4
 170              		.cfi_def_cfa_offset 0
ARM GAS  C:\Users\jo\AppData\Local\Temp\ccotli2K.s 			page 4


 171              	.LVL5:
 172 0038 7047     		bx	lr
 173              	.LVL6:
 174              	.L10:
 175              		.cfi_restore_state
 176              	.LBB25:
 177              	.LBB23:
 178              		.loc 1 62 0
 179 003a 4360     		str	r3, [r0, #4]
 180              	.LBE23:
 181              	.LBE25:
 182              		.loc 1 132 0
 183 003c F0BC     		pop	{r4, r5, r6, r7}
 184              		.cfi_restore 4
 185              		.cfi_restore 5
 186              		.cfi_restore 6
 187              		.cfi_restore 7
 188              		.cfi_def_cfa_offset 0
 189              	.LVL7:
 190 003e 7047     		bx	lr
 191              	.L12:
 192              		.align	2
 193              	.L11:
 194 0040 001000E0 		.word	-536866816
 195 0044 00000000 		.word	ch
 196              		.cfi_endproc
 197              	.LFE232:
 198              		.size	chTMStopMeasurementX, .-chTMStopMeasurementX
 199 0048 AFF30080 		.section	.text._tm_init,"ax",%progbits
 199      AFF30080 
 200              		.align	2
 201              		.p2align 4,,15
 202              		.global	_tm_init
 203              		.thumb
 204              		.thumb_func
 205              		.type	_tm_init, %function
 206              	_tm_init:
 207              	.LFB229:
 208              		.loc 1 79 0
 209              		.cfi_startproc
 210              		@ args = 0, pretend = 0, frame = 24
 211              		@ frame_needed = 0, uses_anonymous_args = 0
 212 0000 D0B5     		push	{r4, r6, r7, lr}
 213              		.cfi_def_cfa_offset 16
 214              		.cfi_offset 4, -16
 215              		.cfi_offset 6, -12
 216              		.cfi_offset 7, -8
 217              		.cfi_offset 14, -4
 218              		.loc 1 85 0
 219 0002 0D4C     		ldr	r4, .L15
 220              		.loc 1 79 0
 221 0004 86B0     		sub	sp, sp, #24
 222              		.cfi_def_cfa_offset 40
 223              		.loc 1 85 0
 224 0006 0023     		movs	r3, #0
 225              	.LBB26:
 226              	.LBB27:
ARM GAS  C:\Users\jo\AppData\Local\Temp\ccotli2K.s 			page 5


 227              		.loc 1 101 0
 228 0008 4FF0FF32 		mov	r2, #-1
 229              	.LBE27:
 230              	.LBE26:
 231              		.loc 1 87 0
 232 000c 6846     		mov	r0, sp
 233              	.LBB30:
 234              	.LBB28:
 235              		.loc 1 105 0
 236 000e 0026     		movs	r6, #0
 237 0010 0027     		movs	r7, #0
 238              	.LBE28:
 239              	.LBE30:
 240              		.loc 1 85 0
 241 0012 C4F88834 		str	r3, [r4, #1160]
 242              	.LVL8:
 243              	.LBB31:
 244              	.LBB29:
 245              		.loc 1 102 0
 246 0016 0193     		str	r3, [sp, #4]
 247              		.loc 1 103 0
 248 0018 0293     		str	r3, [sp, #8]
 249              		.loc 1 104 0
 250 001a 0393     		str	r3, [sp, #12]
 251              		.loc 1 101 0
 252 001c 0092     		str	r2, [sp]
 253              		.loc 1 105 0
 254 001e CDE90467 		strd	r6, [sp, #16]
 255              	.LBE29:
 256              	.LBE31:
 257              		.loc 1 87 0
 258 0022 FFF7FEFF 		bl	chTMStartMeasurementX
 259              	.LVL9:
 260              		.loc 1 88 0
 261 0026 6846     		mov	r0, sp
 262 0028 FFF7FEFF 		bl	chTMStopMeasurementX
 263              	.LVL10:
 264              		.loc 1 89 0
 265 002c 029B     		ldr	r3, [sp, #8]
 266 002e C4F88834 		str	r3, [r4, #1160]
 267              		.loc 1 90 0
 268 0032 06B0     		add	sp, sp, #24
 269              		.cfi_def_cfa_offset 16
 270              	.LVL11:
 271              		@ sp needed
 272 0034 D0BD     		pop	{r4, r6, r7, pc}
 273              	.LVL12:
 274              	.L16:
 275 0036 00BF     		.align	2
 276              	.L15:
 277 0038 00000000 		.word	ch
 278              		.cfi_endproc
 279              	.LFE229:
 280              		.size	_tm_init, .-_tm_init
 281 003c AFF30080 		.section	.text.chTMChainMeasurementToX,"ax",%progbits
 282              		.align	2
 283              		.p2align 4,,15
ARM GAS  C:\Users\jo\AppData\Local\Temp\ccotli2K.s 			page 6


 284              		.global	chTMChainMeasurementToX
 285              		.thumb
 286              		.thumb_func
 287              		.type	chTMChainMeasurementToX, %function
 288              	chTMChainMeasurementToX:
 289              	.LFB233:
 290              		.loc 1 147 0
 291              		.cfi_startproc
 292              		@ args = 0, pretend = 0, frame = 0
 293              		@ frame_needed = 0, uses_anonymous_args = 0
 294              		@ link register save eliminated.
 295              	.LVL13:
 296              	.LBB32:
 297              	.LBB33:
 298              		.loc 2 548 0
 299 0000 0E4B     		ldr	r3, .L22
 300              	.LBE33:
 301              	.LBE32:
 302              	.LBB35:
 303              	.LBB36:
 304              		.loc 1 61 0
 305 0002 4268     		ldr	r2, [r0, #4]
 306              	.LBE36:
 307              	.LBE35:
 308              	.LBB39:
 309              	.LBB34:
 310              		.loc 2 548 0
 311 0004 5B68     		ldr	r3, [r3, #4]
 312              	.LBE34:
 313              	.LBE39:
 314              		.loc 1 147 0
 315 0006 70B4     		push	{r4, r5, r6}
 316              		.cfi_def_cfa_offset 12
 317              		.cfi_offset 4, -12
 318              		.cfi_offset 5, -8
 319              		.cfi_offset 6, -4
 320              		.loc 1 150 0
 321 0008 8B60     		str	r3, [r1, #8]
 322              	.LVL14:
 323              	.LBB40:
 324              	.LBB37:
 325              		.loc 1 59 0
 326 000a D0E90445 		ldrd	r4, [r0, #16]
 327              		.loc 1 58 0
 328 000e 8668     		ldr	r6, [r0, #8]
 329              		.loc 1 57 0
 330 0010 C168     		ldr	r1, [r0, #12]
 331              	.LVL15:
 332              		.loc 1 58 0
 333 0012 9B1B     		subs	r3, r3, r6
 334              	.LVL16:
 335              		.loc 1 59 0
 336 0014 E418     		adds	r4, r4, r3
 337 0016 45F10005 		adc	r5, r5, #0
 338              		.loc 1 57 0
 339 001a 0131     		adds	r1, r1, #1
 340              		.loc 1 61 0
ARM GAS  C:\Users\jo\AppData\Local\Temp\ccotli2K.s 			page 7


 341 001c 9342     		cmp	r3, r2
 342              		.loc 1 57 0
 343 001e C160     		str	r1, [r0, #12]
 344              		.loc 1 58 0
 345 0020 8360     		str	r3, [r0, #8]
 346              	.LVL17:
 347              		.loc 1 59 0
 348 0022 C0E90445 		strd	r4, [r0, #16]
 349              		.loc 1 61 0
 350 0026 05D8     		bhi	.L21
 351              		.loc 1 64 0
 352 0028 0268     		ldr	r2, [r0]
 353 002a 9342     		cmp	r3, r2
 354              		.loc 1 65 0
 355 002c 38BF     		it	cc
 356 002e 0360     		strcc	r3, [r0]
 357              	.LBE37:
 358              	.LBE40:
 359              		.loc 1 154 0
 360 0030 70BC     		pop	{r4, r5, r6}
 361              		.cfi_remember_state
 362              		.cfi_restore 6
 363              		.cfi_restore 5
 364              		.cfi_restore 4
 365              		.cfi_def_cfa_offset 0
 366 0032 7047     		bx	lr
 367              	.L21:
 368              		.cfi_restore_state
 369              	.LBB41:
 370              	.LBB38:
 371              		.loc 1 62 0
 372 0034 4360     		str	r3, [r0, #4]
 373              	.LBE38:
 374              	.LBE41:
 375              		.loc 1 154 0
 376 0036 70BC     		pop	{r4, r5, r6}
 377              		.cfi_restore 4
 378              		.cfi_restore 5
 379              		.cfi_restore 6
 380              		.cfi_def_cfa_offset 0
 381 0038 7047     		bx	lr
 382              	.L23:
 383 003a 00BF     		.align	2
 384              	.L22:
 385 003c 001000E0 		.word	-536866816
 386              		.cfi_endproc
 387              	.LFE233:
 388              		.size	chTMChainMeasurementToX, .-chTMChainMeasurementToX
 389              		.text
 390              	.Letext0:
 391              		.file 3 "c:\\program files\\gnu tools arm embedded\\4.9 2014q4\\arm-none-eabi\\include\\machine\\_
 392              		.file 4 "c:\\program files\\gnu tools arm embedded\\4.9 2014q4\\arm-none-eabi\\include\\stdint.h"
 393              		.file 5 "../../../os/rt/ports/ARMCMx/compilers/GCC/chtypes.h"
 394              		.file 6 "../../../os/rt/include/chsystypes.h"
 395              		.file 7 "../../../os/rt/include/chschd.h"
 396              		.file 8 "../../../os/ext/CMSIS/include/core_cm4.h"
 397              		.file 9 "../../../os/rt/ports/ARMCMx/chcore.h"
ARM GAS  C:\Users\jo\AppData\Local\Temp\ccotli2K.s 			page 8


 398              		.file 10 "../../../os/rt/include/chdebug.h"
 399              		.file 11 "../../../os/rt/include/chtm.h"
 400              		.file 12 "../../../os/rt/include/chsem.h"
 401              		.file 13 "../../../os/rt/include/chmtx.h"
 402              		.section	.debug_info,"",%progbits
 403              	.Ldebug_info0:
 404 0000 8A0A0000 		.4byte	0xa8a
 405 0004 0400     		.2byte	0x4
 406 0006 00000000 		.4byte	.Ldebug_abbrev0
 407 000a 04       		.byte	0x4
 408 000b 01       		.uleb128 0x1
 409 000c 47030000 		.4byte	.LASF152
 410 0010 01       		.byte	0x1
 411 0011 85020000 		.4byte	.LASF153
 412 0015 68000000 		.4byte	.LASF154
 413 0019 90000000 		.4byte	.Ldebug_ranges0+0x90
 414 001d 00000000 		.4byte	0
 415 0021 00000000 		.4byte	.Ldebug_line0
 416 0025 02       		.uleb128 0x2
 417 0026 04       		.byte	0x4
 418 0027 05       		.byte	0x5
 419 0028 696E7400 		.ascii	"int\000"
 420 002c 03       		.uleb128 0x3
 421 002d 04       		.byte	0x4
 422 002e 07       		.byte	0x7
 423 002f 52020000 		.4byte	.LASF0
 424 0033 03       		.uleb128 0x3
 425 0034 01       		.byte	0x1
 426 0035 06       		.byte	0x6
 427 0036 6A010000 		.4byte	.LASF1
 428 003a 04       		.uleb128 0x4
 429 003b 32000000 		.4byte	.LASF5
 430 003f 03       		.byte	0x3
 431 0040 1D       		.byte	0x1d
 432 0041 45000000 		.4byte	0x45
 433 0045 03       		.uleb128 0x3
 434 0046 01       		.byte	0x1
 435 0047 08       		.byte	0x8
 436 0048 3D050000 		.4byte	.LASF2
 437 004c 03       		.uleb128 0x3
 438 004d 02       		.byte	0x2
 439 004e 05       		.byte	0x5
 440 004f 80050000 		.4byte	.LASF3
 441 0053 03       		.uleb128 0x3
 442 0054 02       		.byte	0x2
 443 0055 07       		.byte	0x7
 444 0056 B8020000 		.4byte	.LASF4
 445 005a 04       		.uleb128 0x4
 446 005b 1A030000 		.4byte	.LASF6
 447 005f 03       		.byte	0x3
 448 0060 3F       		.byte	0x3f
 449 0061 65000000 		.4byte	0x65
 450 0065 03       		.uleb128 0x3
 451 0066 04       		.byte	0x4
 452 0067 05       		.byte	0x5
 453 0068 BF010000 		.4byte	.LASF7
 454 006c 04       		.uleb128 0x4
ARM GAS  C:\Users\jo\AppData\Local\Temp\ccotli2K.s 			page 9


 455 006d 81060000 		.4byte	.LASF8
 456 0071 03       		.byte	0x3
 457 0072 41       		.byte	0x41
 458 0073 77000000 		.4byte	0x77
 459 0077 03       		.uleb128 0x3
 460 0078 04       		.byte	0x4
 461 0079 07       		.byte	0x7
 462 007a 22060000 		.4byte	.LASF9
 463 007e 03       		.uleb128 0x3
 464 007f 08       		.byte	0x8
 465 0080 05       		.byte	0x5
 466 0081 5C010000 		.4byte	.LASF10
 467 0085 04       		.uleb128 0x4
 468 0086 C9040000 		.4byte	.LASF11
 469 008a 03       		.byte	0x3
 470 008b 5B       		.byte	0x5b
 471 008c 90000000 		.4byte	0x90
 472 0090 03       		.uleb128 0x3
 473 0091 08       		.byte	0x8
 474 0092 07       		.byte	0x7
 475 0093 CF000000 		.4byte	.LASF12
 476 0097 04       		.uleb128 0x4
 477 0098 F6060000 		.4byte	.LASF13
 478 009c 04       		.byte	0x4
 479 009d 15       		.byte	0x15
 480 009e 3A000000 		.4byte	0x3a
 481 00a2 04       		.uleb128 0x4
 482 00a3 35050000 		.4byte	.LASF14
 483 00a7 04       		.byte	0x4
 484 00a8 2C       		.byte	0x2c
 485 00a9 5A000000 		.4byte	0x5a
 486 00ad 04       		.uleb128 0x4
 487 00ae F1050000 		.4byte	.LASF15
 488 00b2 04       		.byte	0x4
 489 00b3 2D       		.byte	0x2d
 490 00b4 6C000000 		.4byte	0x6c
 491 00b8 04       		.uleb128 0x4
 492 00b9 29000000 		.4byte	.LASF16
 493 00bd 04       		.byte	0x4
 494 00be 39       		.byte	0x39
 495 00bf 85000000 		.4byte	0x85
 496 00c3 05       		.uleb128 0x5
 497 00c4 A2000000 		.4byte	0xa2
 498 00c8 05       		.uleb128 0x5
 499 00c9 AD000000 		.4byte	0xad
 500 00cd 04       		.uleb128 0x4
 501 00ce AE060000 		.4byte	.LASF17
 502 00d2 05       		.byte	0x5
 503 00d3 45       		.byte	0x45
 504 00d4 AD000000 		.4byte	0xad
 505 00d8 04       		.uleb128 0x4
 506 00d9 42010000 		.4byte	.LASF18
 507 00dd 05       		.byte	0x5
 508 00de 46       		.byte	0x46
 509 00df B8000000 		.4byte	0xb8
 510 00e3 04       		.uleb128 0x4
 511 00e4 A7050000 		.4byte	.LASF19
ARM GAS  C:\Users\jo\AppData\Local\Temp\ccotli2K.s 			page 10


 512 00e8 05       		.byte	0x5
 513 00e9 48       		.byte	0x48
 514 00ea 97000000 		.4byte	0x97
 515 00ee 04       		.uleb128 0x4
 516 00ef C8010000 		.4byte	.LASF20
 517 00f3 05       		.byte	0x5
 518 00f4 49       		.byte	0x49
 519 00f5 97000000 		.4byte	0x97
 520 00f9 04       		.uleb128 0x4
 521 00fa DF040000 		.4byte	.LASF21
 522 00fe 05       		.byte	0x5
 523 00ff 4A       		.byte	0x4a
 524 0100 97000000 		.4byte	0x97
 525 0104 04       		.uleb128 0x4
 526 0105 1C050000 		.4byte	.LASF22
 527 0109 05       		.byte	0x5
 528 010a 4C       		.byte	0x4c
 529 010b AD000000 		.4byte	0xad
 530 010f 04       		.uleb128 0x4
 531 0110 DC020000 		.4byte	.LASF23
 532 0114 05       		.byte	0x5
 533 0115 4D       		.byte	0x4d
 534 0116 A2000000 		.4byte	0xa2
 535 011a 04       		.uleb128 0x4
 536 011b 0E030000 		.4byte	.LASF24
 537 011f 05       		.byte	0x5
 538 0120 4F       		.byte	0x4f
 539 0121 AD000000 		.4byte	0xad
 540 0125 04       		.uleb128 0x4
 541 0126 41020000 		.4byte	.LASF25
 542 012a 05       		.byte	0x5
 543 012b 51       		.byte	0x51
 544 012c A2000000 		.4byte	0xa2
 545 0130 04       		.uleb128 0x4
 546 0131 E7020000 		.4byte	.LASF26
 547 0135 05       		.byte	0x5
 548 0136 52       		.byte	0x52
 549 0137 AD000000 		.4byte	0xad
 550 013b 04       		.uleb128 0x4
 551 013c 63060000 		.4byte	.LASF27
 552 0140 06       		.byte	0x6
 553 0141 33       		.byte	0x33
 554 0142 AD000000 		.4byte	0xad
 555 0146 04       		.uleb128 0x4
 556 0147 39060000 		.4byte	.LASF28
 557 014b 06       		.byte	0x6
 558 014c 3F       		.byte	0x3f
 559 014d 51010000 		.4byte	0x151
 560 0151 06       		.uleb128 0x6
 561 0152 CB020000 		.4byte	.LASF49
 562 0156 48       		.byte	0x48
 563 0157 07       		.byte	0x7
 564 0158 C2       		.byte	0xc2
 565 0159 4A020000 		.4byte	0x24a
 566 015d 07       		.uleb128 0x7
 567 015e A0050000 		.4byte	.LASF29
 568 0162 07       		.byte	0x7
ARM GAS  C:\Users\jo\AppData\Local\Temp\ccotli2K.s 			page 11


 569 0163 C3       		.byte	0xc3
 570 0164 55020000 		.4byte	0x255
 571 0168 00       		.byte	0
 572 0169 07       		.uleb128 0x7
 573 016a 15050000 		.4byte	.LASF30
 574 016e 07       		.byte	0x7
 575 016f C5       		.byte	0xc5
 576 0170 55020000 		.4byte	0x255
 577 0174 04       		.byte	0x4
 578 0175 07       		.uleb128 0x7
 579 0176 4B010000 		.4byte	.LASF31
 580 017a 07       		.byte	0x7
 581 017b C7       		.byte	0xc7
 582 017c 04010000 		.4byte	0x104
 583 0180 08       		.byte	0x8
 584 0181 07       		.uleb128 0x7
 585 0182 9F040000 		.4byte	.LASF32
 586 0186 07       		.byte	0x7
 587 0187 C8       		.byte	0xc8
 588 0188 06060000 		.4byte	0x606
 589 018c 0C       		.byte	0xc
 590 018d 07       		.uleb128 0x7
 591 018e E0010000 		.4byte	.LASF33
 592 0192 07       		.byte	0x7
 593 0193 CA       		.byte	0xca
 594 0194 55020000 		.4byte	0x255
 595 0198 10       		.byte	0x10
 596 0199 07       		.uleb128 0x7
 597 019a 91040000 		.4byte	.LASF34
 598 019e 07       		.byte	0x7
 599 019f CB       		.byte	0xcb
 600 01a0 55020000 		.4byte	0x255
 601 01a4 14       		.byte	0x14
 602 01a5 07       		.uleb128 0x7
 603 01a6 0D070000 		.4byte	.LASF35
 604 01aa 07       		.byte	0x7
 605 01ab D2       		.byte	0xd2
 606 01ac 66080000 		.4byte	0x866
 607 01b0 18       		.byte	0x18
 608 01b1 07       		.uleb128 0x7
 609 01b2 47020000 		.4byte	.LASF36
 610 01b6 07       		.byte	0x7
 611 01b7 D8       		.byte	0xd8
 612 01b8 78080000 		.4byte	0x878
 613 01bc 1C       		.byte	0x1c
 614 01bd 07       		.uleb128 0x7
 615 01be 8A050000 		.4byte	.LASF37
 616 01c2 07       		.byte	0x7
 617 01c3 DD       		.byte	0xdd
 618 01c4 EE000000 		.4byte	0xee
 619 01c8 20       		.byte	0x20
 620 01c9 07       		.uleb128 0x7
 621 01ca AF050000 		.4byte	.LASF38
 622 01ce 07       		.byte	0x7
 623 01cf E1       		.byte	0xe1
 624 01d0 E3000000 		.4byte	0xe3
 625 01d4 21       		.byte	0x21
ARM GAS  C:\Users\jo\AppData\Local\Temp\ccotli2K.s 			page 12


 626 01d5 07       		.uleb128 0x7
 627 01d6 E1060000 		.4byte	.LASF39
 628 01da 07       		.byte	0x7
 629 01db E6       		.byte	0xe6
 630 01dc F9000000 		.4byte	0xf9
 631 01e0 22       		.byte	0x22
 632 01e1 08       		.uleb128 0x8
 633 01e2 705F7500 		.ascii	"p_u\000"
 634 01e6 07       		.byte	0x7
 635 01e7 3101     		.2byte	0x131
 636 01e9 A1070000 		.4byte	0x7a1
 637 01ed 24       		.byte	0x24
 638 01ee 09       		.uleb128 0x9
 639 01ef 28040000 		.4byte	.LASF40
 640 01f3 07       		.byte	0x7
 641 01f4 3601     		.2byte	0x136
 642 01f6 5B020000 		.4byte	0x25b
 643 01fa 28       		.byte	0x28
 644 01fb 09       		.uleb128 0x9
 645 01fc 7A020000 		.4byte	.LASF41
 646 0200 07       		.byte	0x7
 647 0201 3C01     		.2byte	0x13c
 648 0203 7F020000 		.4byte	0x27f
 649 0207 2C       		.byte	0x2c
 650 0208 09       		.uleb128 0x9
 651 0209 30070000 		.4byte	.LASF42
 652 020d 07       		.byte	0x7
 653 020e 4001     		.2byte	0x140
 654 0210 0F010000 		.4byte	0x10f
 655 0214 34       		.byte	0x34
 656 0215 09       		.uleb128 0x9
 657 0216 DF050000 		.4byte	.LASF43
 658 021a 07       		.byte	0x7
 659 021b 4601     		.2byte	0x146
 660 021d 1A010000 		.4byte	0x11a
 661 0221 38       		.byte	0x38
 662 0222 09       		.uleb128 0x9
 663 0223 04030000 		.4byte	.LASF44
 664 0227 07       		.byte	0x7
 665 0228 4D01     		.2byte	0x14d
 666 022a 60080000 		.4byte	0x860
 667 022e 3C       		.byte	0x3c
 668 022f 09       		.uleb128 0x9
 669 0230 6D060000 		.4byte	.LASF45
 670 0234 07       		.byte	0x7
 671 0235 5101     		.2byte	0x151
 672 0237 04010000 		.4byte	0x104
 673 023b 40       		.byte	0x40
 674 023c 09       		.uleb128 0x9
 675 023d 76010000 		.4byte	.LASF46
 676 0241 07       		.byte	0x7
 677 0242 5801     		.2byte	0x158
 678 0244 32030000 		.4byte	0x332
 679 0248 44       		.byte	0x44
 680 0249 00       		.byte	0
 681 024a 04       		.uleb128 0x4
 682 024b 3B040000 		.4byte	.LASF47
ARM GAS  C:\Users\jo\AppData\Local\Temp\ccotli2K.s 			page 13


 683 024f 06       		.byte	0x6
 684 0250 44       		.byte	0x44
 685 0251 55020000 		.4byte	0x255
 686 0255 0A       		.uleb128 0xa
 687 0256 04       		.byte	0x4
 688 0257 46010000 		.4byte	0x146
 689 025b 04       		.uleb128 0x4
 690 025c 14070000 		.4byte	.LASF48
 691 0260 06       		.byte	0x6
 692 0261 49       		.byte	0x49
 693 0262 66020000 		.4byte	0x266
 694 0266 06       		.uleb128 0x6
 695 0267 12060000 		.4byte	.LASF50
 696 026b 04       		.byte	0x4
 697 026c 07       		.byte	0x7
 698 026d B0       		.byte	0xb0
 699 026e 7F020000 		.4byte	0x27f
 700 0272 07       		.uleb128 0x7
 701 0273 A0050000 		.4byte	.LASF29
 702 0277 07       		.byte	0x7
 703 0278 B1       		.byte	0xb1
 704 0279 55020000 		.4byte	0x255
 705 027d 00       		.byte	0
 706 027e 00       		.byte	0
 707 027f 04       		.uleb128 0x4
 708 0280 C8060000 		.4byte	.LASF51
 709 0284 06       		.byte	0x6
 710 0285 50       		.byte	0x50
 711 0286 8A020000 		.4byte	0x28a
 712 028a 06       		.uleb128 0x6
 713 028b 48000000 		.4byte	.LASF52
 714 028f 08       		.byte	0x8
 715 0290 07       		.byte	0x7
 716 0291 B7       		.byte	0xb7
 717 0292 AF020000 		.4byte	0x2af
 718 0296 07       		.uleb128 0x7
 719 0297 A0050000 		.4byte	.LASF29
 720 029b 07       		.byte	0x7
 721 029c B8       		.byte	0xb8
 722 029d 55020000 		.4byte	0x255
 723 02a1 00       		.byte	0
 724 02a2 07       		.uleb128 0x7
 725 02a3 15050000 		.4byte	.LASF30
 726 02a7 07       		.byte	0x7
 727 02a8 B9       		.byte	0xb9
 728 02a9 55020000 		.4byte	0x255
 729 02ad 04       		.byte	0x4
 730 02ae 00       		.byte	0
 731 02af 04       		.uleb128 0x4
 732 02b0 07000000 		.4byte	.LASF53
 733 02b4 06       		.byte	0x6
 734 02b5 57       		.byte	0x57
 735 02b6 BA020000 		.4byte	0x2ba
 736 02ba 0B       		.uleb128 0xb
 737 02bb 9F020000 		.4byte	.LASF54
 738 02bf 1C       		.byte	0x1c
 739 02c0 07       		.byte	0x7
ARM GAS  C:\Users\jo\AppData\Local\Temp\ccotli2K.s 			page 14


 740 02c1 9001     		.2byte	0x190
 741 02c3 16030000 		.4byte	0x316
 742 02c7 09       		.uleb128 0x9
 743 02c8 01060000 		.4byte	.LASF55
 744 02cc 07       		.byte	0x7
 745 02cd 9101     		.2byte	0x191
 746 02cf 7F020000 		.4byte	0x27f
 747 02d3 00       		.byte	0
 748 02d4 09       		.uleb128 0x9
 749 02d5 92050000 		.4byte	.LASF56
 750 02d9 07       		.byte	0x7
 751 02da 9201     		.2byte	0x192
 752 02dc 04010000 		.4byte	0x104
 753 02e0 08       		.byte	0x8
 754 02e1 09       		.uleb128 0x9
 755 02e2 99040000 		.4byte	.LASF57
 756 02e6 07       		.byte	0x7
 757 02e7 9401     		.2byte	0x194
 758 02e9 06060000 		.4byte	0x606
 759 02ed 0C       		.byte	0xc
 760 02ee 09       		.uleb128 0x9
 761 02ef F8010000 		.4byte	.LASF58
 762 02f3 07       		.byte	0x7
 763 02f4 9701     		.2byte	0x197
 764 02f6 55020000 		.4byte	0x255
 765 02fa 10       		.byte	0x10
 766 02fb 09       		.uleb128 0x9
 767 02fc C1040000 		.4byte	.LASF59
 768 0300 07       		.byte	0x7
 769 0301 9801     		.2byte	0x198
 770 0303 55020000 		.4byte	0x255
 771 0307 14       		.byte	0x14
 772 0308 09       		.uleb128 0x9
 773 0309 B7040000 		.4byte	.LASF60
 774 030d 07       		.byte	0x7
 775 030e 9B01     		.2byte	0x19b
 776 0310 55020000 		.4byte	0x255
 777 0314 18       		.byte	0x18
 778 0315 00       		.byte	0
 779 0316 04       		.uleb128 0x4
 780 0317 78060000 		.4byte	.LASF61
 781 031b 06       		.byte	0x6
 782 031c 5C       		.byte	0x5c
 783 031d 21030000 		.4byte	0x321
 784 0321 0A       		.uleb128 0xa
 785 0322 04       		.byte	0x4
 786 0323 27030000 		.4byte	0x327
 787 0327 0C       		.uleb128 0xc
 788 0328 32030000 		.4byte	0x332
 789 032c 0D       		.uleb128 0xd
 790 032d 32030000 		.4byte	0x332
 791 0331 00       		.byte	0
 792 0332 0E       		.uleb128 0xe
 793 0333 04       		.byte	0x4
 794 0334 04       		.uleb128 0x4
 795 0335 05050000 		.4byte	.LASF62
 796 0339 06       		.byte	0x6
ARM GAS  C:\Users\jo\AppData\Local\Temp\ccotli2K.s 			page 15


 797 033a 61       		.byte	0x61
 798 033b 3F030000 		.4byte	0x33f
 799 033f 0B       		.uleb128 0xb
 800 0340 C1050000 		.4byte	.LASF63
 801 0344 14       		.byte	0x14
 802 0345 07       		.byte	0x7
 803 0346 6B01     		.2byte	0x16b
 804 0348 8E030000 		.4byte	0x38e
 805 034c 09       		.uleb128 0x9
 806 034d 5F020000 		.4byte	.LASF64
 807 0351 07       		.byte	0x7
 808 0352 6C01     		.2byte	0x16c
 809 0354 7E080000 		.4byte	0x87e
 810 0358 00       		.byte	0
 811 0359 09       		.uleb128 0x9
 812 035a 09020000 		.4byte	.LASF65
 813 035e 07       		.byte	0x7
 814 035f 6D01     		.2byte	0x16d
 815 0361 7E080000 		.4byte	0x87e
 816 0365 04       		.byte	0x4
 817 0366 09       		.uleb128 0x9
 818 0367 09060000 		.4byte	.LASF66
 819 036b 07       		.byte	0x7
 820 036c 6E01     		.2byte	0x16e
 821 036e 3B010000 		.4byte	0x13b
 822 0372 08       		.byte	0x8
 823 0373 09       		.uleb128 0x9
 824 0374 48070000 		.4byte	.LASF67
 825 0378 07       		.byte	0x7
 826 0379 6F01     		.2byte	0x16f
 827 037b 16030000 		.4byte	0x316
 828 037f 0C       		.byte	0xc
 829 0380 09       		.uleb128 0x9
 830 0381 BB060000 		.4byte	.LASF68
 831 0385 07       		.byte	0x7
 832 0386 7101     		.2byte	0x171
 833 0388 32030000 		.4byte	0x332
 834 038c 10       		.byte	0x10
 835 038d 00       		.byte	0
 836 038e 04       		.uleb128 0x4
 837 038f 1D010000 		.4byte	.LASF69
 838 0393 06       		.byte	0x6
 839 0394 66       		.byte	0x66
 840 0395 99030000 		.4byte	0x399
 841 0399 0B       		.uleb128 0xb
 842 039a 5F040000 		.4byte	.LASF70
 843 039e 10       		.byte	0x10
 844 039f 07       		.byte	0x7
 845 03a0 7B01     		.2byte	0x17b
 846 03a2 DB030000 		.4byte	0x3db
 847 03a6 09       		.uleb128 0x9
 848 03a7 5F020000 		.4byte	.LASF64
 849 03ab 07       		.byte	0x7
 850 03ac 7C01     		.2byte	0x17c
 851 03ae 7E080000 		.4byte	0x87e
 852 03b2 00       		.byte	0
 853 03b3 09       		.uleb128 0x9
ARM GAS  C:\Users\jo\AppData\Local\Temp\ccotli2K.s 			page 16


 854 03b4 09020000 		.4byte	.LASF65
 855 03b8 07       		.byte	0x7
 856 03b9 7E01     		.2byte	0x17e
 857 03bb 7E080000 		.4byte	0x87e
 858 03bf 04       		.byte	0x4
 859 03c0 09       		.uleb128 0x9
 860 03c1 09060000 		.4byte	.LASF66
 861 03c5 07       		.byte	0x7
 862 03c6 8001     		.2byte	0x180
 863 03c8 3B010000 		.4byte	0x13b
 864 03cc 08       		.byte	0x8
 865 03cd 09       		.uleb128 0x9
 866 03ce 85040000 		.4byte	.LASF71
 867 03d2 07       		.byte	0x7
 868 03d3 8801     		.2byte	0x188
 869 03d5 3B010000 		.4byte	0x13b
 870 03d9 0C       		.byte	0xc
 871 03da 00       		.byte	0
 872 03db 04       		.uleb128 0x4
 873 03dc 59000000 		.4byte	.LASF72
 874 03e0 06       		.byte	0x6
 875 03e1 6B       		.byte	0x6b
 876 03e2 E6030000 		.4byte	0x3e6
 877 03e6 0F       		.uleb128 0xf
 878 03e7 11020000 		.4byte	.LASF73
 879 03eb 1404     		.2byte	0x414
 880 03ed 07       		.byte	0x7
 881 03ee A201     		.2byte	0x1a2
 882 03f0 29040000 		.4byte	0x429
 883 03f4 09       		.uleb128 0x9
 884 03f5 8C060000 		.4byte	.LASF74
 885 03f9 07       		.byte	0x7
 886 03fa AA01     		.2byte	0x1aa
 887 03fc 84080000 		.4byte	0x884
 888 0400 00       		.byte	0
 889 0401 09       		.uleb128 0x9
 890 0402 E8060000 		.4byte	.LASF75
 891 0406 07       		.byte	0x7
 892 0407 AF01     		.2byte	0x1af
 893 0409 25010000 		.4byte	0x125
 894 040d 04       		.byte	0x4
 895 040e 09       		.uleb128 0x9
 896 040f 29020000 		.4byte	.LASF76
 897 0413 07       		.byte	0x7
 898 0414 B301     		.2byte	0x1b3
 899 0416 25010000 		.4byte	0x125
 900 041a 08       		.byte	0x8
 901 041b 09       		.uleb128 0x9
 902 041c 23070000 		.4byte	.LASF77
 903 0420 07       		.byte	0x7
 904 0421 B901     		.2byte	0x1b9
 905 0423 28070000 		.4byte	0x728
 906 0427 0C       		.byte	0xc
 907 0428 00       		.byte	0
 908 0429 04       		.uleb128 0x4
 909 042a EE020000 		.4byte	.LASF78
 910 042e 06       		.byte	0x6
ARM GAS  C:\Users\jo\AppData\Local\Temp\ccotli2K.s 			page 17


 911 042f 70       		.byte	0x70
 912 0430 34040000 		.4byte	0x434
 913 0434 0F       		.uleb128 0xf
 914 0435 B7050000 		.4byte	.LASF79
 915 0439 7005     		.2byte	0x570
 916 043b 07       		.byte	0x7
 917 043c C201     		.2byte	0x1c2
 918 043e 93040000 		.4byte	0x493
 919 0442 09       		.uleb128 0x9
 920 0443 F0060000 		.4byte	.LASF80
 921 0447 07       		.byte	0x7
 922 0448 C601     		.2byte	0x1c6
 923 044a AF020000 		.4byte	0x2af
 924 044e 00       		.byte	0
 925 044f 09       		.uleb128 0x9
 926 0450 8D010000 		.4byte	.LASF81
 927 0454 07       		.byte	0x7
 928 0455 CA01     		.2byte	0x1ca
 929 0457 8E030000 		.4byte	0x38e
 930 045b 1C       		.byte	0x1c
 931 045c 08       		.uleb128 0x8
 932 045d 64626700 		.ascii	"dbg\000"
 933 0461 07       		.byte	0x7
 934 0462 CE01     		.2byte	0x1ce
 935 0464 DB030000 		.4byte	0x3db
 936 0468 2C       		.byte	0x2c
 937 0469 10       		.uleb128 0x10
 938 046a 0A010000 		.4byte	.LASF82
 939 046e 07       		.byte	0x7
 940 046f D201     		.2byte	0x1d2
 941 0471 46010000 		.4byte	0x146
 942 0475 4004     		.2byte	0x440
 943 0477 11       		.uleb128 0x11
 944 0478 746D00   		.ascii	"tm\000"
 945 047b 07       		.byte	0x7
 946 047c D701     		.2byte	0x1d7
 947 047e 48070000 		.4byte	0x748
 948 0482 8804     		.2byte	0x488
 949 0484 10       		.uleb128 0x10
 950 0485 32020000 		.4byte	.LASF83
 951 0489 07       		.byte	0x7
 952 048a E301     		.2byte	0x1e3
 953 048c 89080000 		.4byte	0x889
 954 0490 9004     		.2byte	0x490
 955 0492 00       		.byte	0
 956 0493 03       		.uleb128 0x3
 957 0494 04       		.byte	0x4
 958 0495 07       		.byte	0x7
 959 0496 32040000 		.4byte	.LASF84
 960 049a 12       		.uleb128 0x12
 961 049b C8000000 		.4byte	0xc8
 962 049f 13       		.uleb128 0x13
 963 04a0 AD000000 		.4byte	0xad
 964 04a4 AF040000 		.4byte	0x4af
 965 04a8 14       		.uleb128 0x14
 966 04a9 93040000 		.4byte	0x493
 967 04ad 00       		.byte	0
ARM GAS  C:\Users\jo\AppData\Local\Temp\ccotli2K.s 			page 18


 968 04ae 00       		.byte	0
 969 04af 15       		.uleb128 0x15
 970 04b0 5C       		.byte	0x5c
 971 04b1 08       		.byte	0x8
 972 04b2 0603     		.2byte	0x306
 973 04b4 E4050000 		.4byte	0x5e4
 974 04b8 09       		.uleb128 0x9
 975 04b9 B6060000 		.4byte	.LASF85
 976 04bd 08       		.byte	0x8
 977 04be 0803     		.2byte	0x308
 978 04c0 C8000000 		.4byte	0xc8
 979 04c4 00       		.byte	0
 980 04c5 09       		.uleb128 0x9
 981 04c6 21040000 		.4byte	.LASF86
 982 04ca 08       		.byte	0x8
 983 04cb 0903     		.2byte	0x309
 984 04cd C8000000 		.4byte	0xc8
 985 04d1 04       		.byte	0x4
 986 04d2 09       		.uleb128 0x9
 987 04d3 7E010000 		.4byte	.LASF87
 988 04d7 08       		.byte	0x8
 989 04d8 0A03     		.2byte	0x30a
 990 04da C8000000 		.4byte	0xc8
 991 04de 08       		.byte	0x8
 992 04df 09       		.uleb128 0x9
 993 04e0 D5020000 		.4byte	.LASF88
 994 04e4 08       		.byte	0x8
 995 04e5 0B03     		.2byte	0x30b
 996 04e7 C8000000 		.4byte	0xc8
 997 04eb 0C       		.byte	0xc
 998 04ec 09       		.uleb128 0x9
 999 04ed D7010000 		.4byte	.LASF89
 1000 04f1 08       		.byte	0x8
 1001 04f2 0C03     		.2byte	0x30c
 1002 04f4 C8000000 		.4byte	0xc8
 1003 04f8 10       		.byte	0x10
 1004 04f9 09       		.uleb128 0x9
 1005 04fa EA050000 		.4byte	.LASF90
 1006 04fe 08       		.byte	0x8
 1007 04ff 0D03     		.2byte	0x30d
 1008 0501 C8000000 		.4byte	0xc8
 1009 0505 14       		.byte	0x14
 1010 0506 09       		.uleb128 0x9
 1011 0507 FE060000 		.4byte	.LASF91
 1012 050b 08       		.byte	0x8
 1013 050c 0E03     		.2byte	0x30e
 1014 050e C8000000 		.4byte	0xc8
 1015 0512 18       		.byte	0x18
 1016 0513 09       		.uleb128 0x9
 1017 0514 24050000 		.4byte	.LASF92
 1018 0518 08       		.byte	0x8
 1019 0519 0F03     		.2byte	0x30f
 1020 051b 9A040000 		.4byte	0x49a
 1021 051f 1C       		.byte	0x1c
 1022 0520 09       		.uleb128 0x9
 1023 0521 C2060000 		.4byte	.LASF93
 1024 0525 08       		.byte	0x8
ARM GAS  C:\Users\jo\AppData\Local\Temp\ccotli2K.s 			page 19


 1025 0526 1003     		.2byte	0x310
 1026 0528 C8000000 		.4byte	0xc8
 1027 052c 20       		.byte	0x20
 1028 052d 09       		.uleb128 0x9
 1029 052e 29050000 		.4byte	.LASF94
 1030 0532 08       		.byte	0x8
 1031 0533 1103     		.2byte	0x311
 1032 0535 C8000000 		.4byte	0xc8
 1033 0539 24       		.byte	0x24
 1034 053a 09       		.uleb128 0x9
 1035 053b 58050000 		.4byte	.LASF95
 1036 053f 08       		.byte	0x8
 1037 0540 1203     		.2byte	0x312
 1038 0542 C8000000 		.4byte	0xc8
 1039 0546 28       		.byte	0x28
 1040 0547 09       		.uleb128 0x9
 1041 0548 E7040000 		.4byte	.LASF96
 1042 054c 08       		.byte	0x8
 1043 054d 1303     		.2byte	0x313
 1044 054f 9F040000 		.4byte	0x49f
 1045 0553 2C       		.byte	0x2c
 1046 0554 09       		.uleb128 0x9
 1047 0555 A5040000 		.4byte	.LASF97
 1048 0559 08       		.byte	0x8
 1049 055a 1403     		.2byte	0x314
 1050 055c C8000000 		.4byte	0xc8
 1051 0560 30       		.byte	0x30
 1052 0561 09       		.uleb128 0x9
 1053 0562 2F050000 		.4byte	.LASF98
 1054 0566 08       		.byte	0x8
 1055 0567 1503     		.2byte	0x315
 1056 0569 C8000000 		.4byte	0xc8
 1057 056d 34       		.byte	0x34
 1058 056e 09       		.uleb128 0x9
 1059 056f 62050000 		.4byte	.LASF99
 1060 0573 08       		.byte	0x8
 1061 0574 1603     		.2byte	0x316
 1062 0576 C8000000 		.4byte	0xc8
 1063 057a 38       		.byte	0x38
 1064 057b 09       		.uleb128 0x9
 1065 057c F1040000 		.4byte	.LASF100
 1066 0580 08       		.byte	0x8
 1067 0581 1703     		.2byte	0x317
 1068 0583 9F040000 		.4byte	0x49f
 1069 0587 3C       		.byte	0x3c
 1070 0588 09       		.uleb128 0x9
 1071 0589 AB040000 		.4byte	.LASF101
 1072 058d 08       		.byte	0x8
 1073 058e 1803     		.2byte	0x318
 1074 0590 C8000000 		.4byte	0xc8
 1075 0594 40       		.byte	0x40
 1076 0595 09       		.uleb128 0x9
 1077 0596 67020000 		.4byte	.LASF102
 1078 059a 08       		.byte	0x8
 1079 059b 1903     		.2byte	0x319
 1080 059d C8000000 		.4byte	0xc8
 1081 05a1 44       		.byte	0x44
ARM GAS  C:\Users\jo\AppData\Local\Temp\ccotli2K.s 			page 20


 1082 05a2 09       		.uleb128 0x9
 1083 05a3 6C050000 		.4byte	.LASF103
 1084 05a7 08       		.byte	0x8
 1085 05a8 1A03     		.2byte	0x31a
 1086 05aa C8000000 		.4byte	0xc8
 1087 05ae 48       		.byte	0x48
 1088 05af 09       		.uleb128 0x9
 1089 05b0 FB040000 		.4byte	.LASF104
 1090 05b4 08       		.byte	0x8
 1091 05b5 1B03     		.2byte	0x31b
 1092 05b7 9F040000 		.4byte	0x49f
 1093 05bb 4C       		.byte	0x4c
 1094 05bc 09       		.uleb128 0x9
 1095 05bd B1040000 		.4byte	.LASF105
 1096 05c1 08       		.byte	0x8
 1097 05c2 1C03     		.2byte	0x31c
 1098 05c4 C8000000 		.4byte	0xc8
 1099 05c8 50       		.byte	0x50
 1100 05c9 09       		.uleb128 0x9
 1101 05ca 6D020000 		.4byte	.LASF106
 1102 05ce 08       		.byte	0x8
 1103 05cf 1D03     		.2byte	0x31d
 1104 05d1 C8000000 		.4byte	0xc8
 1105 05d5 54       		.byte	0x54
 1106 05d6 09       		.uleb128 0x9
 1107 05d7 76050000 		.4byte	.LASF107
 1108 05db 08       		.byte	0x8
 1109 05dc 1E03     		.2byte	0x31e
 1110 05de C8000000 		.4byte	0xc8
 1111 05e2 58       		.byte	0x58
 1112 05e3 00       		.byte	0
 1113 05e4 16       		.uleb128 0x16
 1114 05e5 A5060000 		.4byte	.LASF108
 1115 05e9 08       		.byte	0x8
 1116 05ea 1F03     		.2byte	0x31f
 1117 05ec AF040000 		.4byte	0x4af
 1118 05f0 04       		.uleb128 0x4
 1119 05f1 00020000 		.4byte	.LASF109
 1120 05f5 09       		.byte	0x9
 1121 05f6 65       		.byte	0x65
 1122 05f7 32030000 		.4byte	0x332
 1123 05fb 04       		.uleb128 0x4
 1124 05fc 3C030000 		.4byte	.LASF110
 1125 0600 09       		.byte	0x9
 1126 0601 6D       		.byte	0x6d
 1127 0602 B8000000 		.4byte	0xb8
 1128 0606 06       		.uleb128 0x6
 1129 0607 9D060000 		.4byte	.LASF111
 1130 060b 04       		.byte	0x4
 1131 060c 09       		.byte	0x9
 1132 060d 89       		.byte	0x89
 1133 060e 1F060000 		.4byte	0x61f
 1134 0612 17       		.uleb128 0x17
 1135 0613 72313300 		.ascii	"r13\000"
 1136 0617 09       		.byte	0x9
 1137 0618 8A       		.byte	0x8a
 1138 0619 9A060000 		.4byte	0x69a
ARM GAS  C:\Users\jo\AppData\Local\Temp\ccotli2K.s 			page 21


 1139 061d 00       		.byte	0
 1140 061e 00       		.byte	0
 1141 061f 06       		.uleb128 0x6
 1142 0620 3C000000 		.4byte	.LASF112
 1143 0624 24       		.byte	0x24
 1144 0625 02       		.byte	0x2
 1145 0626 F4       		.byte	0xf4
 1146 0627 9A060000 		.4byte	0x69a
 1147 062b 08       		.uleb128 0x8
 1148 062c 723400   		.ascii	"r4\000"
 1149 062f 02       		.byte	0x2
 1150 0630 0701     		.2byte	0x107
 1151 0632 F0050000 		.4byte	0x5f0
 1152 0636 00       		.byte	0
 1153 0637 08       		.uleb128 0x8
 1154 0638 723500   		.ascii	"r5\000"
 1155 063b 02       		.byte	0x2
 1156 063c 0801     		.2byte	0x108
 1157 063e F0050000 		.4byte	0x5f0
 1158 0642 04       		.byte	0x4
 1159 0643 08       		.uleb128 0x8
 1160 0644 723600   		.ascii	"r6\000"
 1161 0647 02       		.byte	0x2
 1162 0648 0901     		.2byte	0x109
 1163 064a F0050000 		.4byte	0x5f0
 1164 064e 08       		.byte	0x8
 1165 064f 08       		.uleb128 0x8
 1166 0650 723700   		.ascii	"r7\000"
 1167 0653 02       		.byte	0x2
 1168 0654 0A01     		.2byte	0x10a
 1169 0656 F0050000 		.4byte	0x5f0
 1170 065a 0C       		.byte	0xc
 1171 065b 08       		.uleb128 0x8
 1172 065c 723800   		.ascii	"r8\000"
 1173 065f 02       		.byte	0x2
 1174 0660 0B01     		.2byte	0x10b
 1175 0662 F0050000 		.4byte	0x5f0
 1176 0666 10       		.byte	0x10
 1177 0667 08       		.uleb128 0x8
 1178 0668 723900   		.ascii	"r9\000"
 1179 066b 02       		.byte	0x2
 1180 066c 0C01     		.2byte	0x10c
 1181 066e F0050000 		.4byte	0x5f0
 1182 0672 14       		.byte	0x14
 1183 0673 08       		.uleb128 0x8
 1184 0674 72313000 		.ascii	"r10\000"
 1185 0678 02       		.byte	0x2
 1186 0679 0D01     		.2byte	0x10d
 1187 067b F0050000 		.4byte	0x5f0
 1188 067f 18       		.byte	0x18
 1189 0680 08       		.uleb128 0x8
 1190 0681 72313100 		.ascii	"r11\000"
 1191 0685 02       		.byte	0x2
 1192 0686 0E01     		.2byte	0x10e
 1193 0688 F0050000 		.4byte	0x5f0
 1194 068c 1C       		.byte	0x1c
 1195 068d 08       		.uleb128 0x8
ARM GAS  C:\Users\jo\AppData\Local\Temp\ccotli2K.s 			page 22


 1196 068e 6C7200   		.ascii	"lr\000"
 1197 0691 02       		.byte	0x2
 1198 0692 0F01     		.2byte	0x10f
 1199 0694 F0050000 		.4byte	0x5f0
 1200 0698 20       		.byte	0x20
 1201 0699 00       		.byte	0
 1202 069a 0A       		.uleb128 0xa
 1203 069b 04       		.byte	0x4
 1204 069c 1F060000 		.4byte	0x61f
 1205 06a0 18       		.uleb128 0x18
 1206 06a1 10       		.byte	0x10
 1207 06a2 0A       		.byte	0xa
 1208 06a3 51       		.byte	0x51
 1209 06a4 D9060000 		.4byte	0x6d9
 1210 06a8 07       		.uleb128 0x7
 1211 06a9 14000000 		.4byte	.LASF113
 1212 06ad 0A       		.byte	0xa
 1213 06ae 55       		.byte	0x55
 1214 06af 3B010000 		.4byte	0x13b
 1215 06b3 00       		.byte	0
 1216 06b4 07       		.uleb128 0x7
 1217 06b5 D1010000 		.4byte	.LASF114
 1218 06b9 0A       		.byte	0xa
 1219 06ba 59       		.byte	0x59
 1220 06bb 55020000 		.4byte	0x255
 1221 06bf 04       		.byte	0x4
 1222 06c0 07       		.uleb128 0x7
 1223 06c1 3E070000 		.4byte	.LASF115
 1224 06c5 0A       		.byte	0xa
 1225 06c6 5D       		.byte	0x5d
 1226 06c7 32030000 		.4byte	0x332
 1227 06cb 08       		.byte	0x8
 1228 06cc 07       		.uleb128 0x7
 1229 06cd F8000000 		.4byte	.LASF116
 1230 06d1 0A       		.byte	0xa
 1231 06d2 61       		.byte	0x61
 1232 06d3 97000000 		.4byte	0x97
 1233 06d7 0C       		.byte	0xc
 1234 06d8 00       		.byte	0
 1235 06d9 04       		.uleb128 0x4
 1236 06da 76040000 		.4byte	.LASF117
 1237 06de 0A       		.byte	0xa
 1238 06df 62       		.byte	0x62
 1239 06e0 A0060000 		.4byte	0x6a0
 1240 06e4 19       		.uleb128 0x19
 1241 06e5 0804     		.2byte	0x408
 1242 06e7 0A       		.byte	0xa
 1243 06e8 67       		.byte	0x67
 1244 06e9 12070000 		.4byte	0x712
 1245 06ed 07       		.uleb128 0x7
 1246 06ee F0010000 		.4byte	.LASF118
 1247 06f2 0A       		.byte	0xa
 1248 06f3 6B       		.byte	0x6b
 1249 06f4 2C000000 		.4byte	0x2c
 1250 06f8 00       		.byte	0
 1251 06f9 07       		.uleb128 0x7
 1252 06fa 00000000 		.4byte	.LASF119
ARM GAS  C:\Users\jo\AppData\Local\Temp\ccotli2K.s 			page 23


 1253 06fe 0A       		.byte	0xa
 1254 06ff 6F       		.byte	0x6f
 1255 0700 12070000 		.4byte	0x712
 1256 0704 04       		.byte	0x4
 1257 0705 07       		.uleb128 0x7
 1258 0706 FA020000 		.4byte	.LASF120
 1259 070a 0A       		.byte	0xa
 1260 070b 73       		.byte	0x73
 1261 070c 18070000 		.4byte	0x718
 1262 0710 08       		.byte	0x8
 1263 0711 00       		.byte	0
 1264 0712 0A       		.uleb128 0xa
 1265 0713 04       		.byte	0x4
 1266 0714 D9060000 		.4byte	0x6d9
 1267 0718 13       		.uleb128 0x13
 1268 0719 D9060000 		.4byte	0x6d9
 1269 071d 28070000 		.4byte	0x728
 1270 0721 14       		.uleb128 0x14
 1271 0722 93040000 		.4byte	0x493
 1272 0726 3F       		.byte	0x3f
 1273 0727 00       		.byte	0
 1274 0728 04       		.uleb128 0x4
 1275 0729 E6000000 		.4byte	.LASF121
 1276 072d 0A       		.byte	0xa
 1277 072e 74       		.byte	0x74
 1278 072f E4060000 		.4byte	0x6e4
 1279 0733 18       		.uleb128 0x18
 1280 0734 04       		.byte	0x4
 1281 0735 0B       		.byte	0xb
 1282 0736 38       		.byte	0x38
 1283 0737 48070000 		.4byte	0x748
 1284 073b 07       		.uleb128 0x7
 1285 073c 96060000 		.4byte	.LASF122
 1286 0740 0B       		.byte	0xb
 1287 0741 3C       		.byte	0x3c
 1288 0742 CD000000 		.4byte	0xcd
 1289 0746 00       		.byte	0
 1290 0747 00       		.byte	0
 1291 0748 04       		.uleb128 0x4
 1292 0749 4E040000 		.4byte	.LASF123
 1293 074d 0B       		.byte	0xb
 1294 074e 3D       		.byte	0x3d
 1295 074f 33070000 		.4byte	0x733
 1296 0753 18       		.uleb128 0x18
 1297 0754 18       		.byte	0x18
 1298 0755 0B       		.byte	0xb
 1299 0756 48       		.byte	0x48
 1300 0757 96070000 		.4byte	0x796
 1301 075b 07       		.uleb128 0x7
 1302 075c B3020000 		.4byte	.LASF124
 1303 0760 0B       		.byte	0xb
 1304 0761 49       		.byte	0x49
 1305 0762 CD000000 		.4byte	0xcd
 1306 0766 00       		.byte	0
 1307 0767 07       		.uleb128 0x7
 1308 0768 B6000000 		.4byte	.LASF125
 1309 076c 0B       		.byte	0xb
ARM GAS  C:\Users\jo\AppData\Local\Temp\ccotli2K.s 			page 24


 1310 076d 4A       		.byte	0x4a
 1311 076e CD000000 		.4byte	0xcd
 1312 0772 04       		.byte	0x4
 1313 0773 07       		.uleb128 0x7
 1314 0774 E2020000 		.4byte	.LASF126
 1315 0778 0B       		.byte	0xb
 1316 0779 4B       		.byte	0x4b
 1317 077a CD000000 		.4byte	0xcd
 1318 077e 08       		.byte	0x8
 1319 077f 17       		.uleb128 0x17
 1320 0780 6E00     		.ascii	"n\000"
 1321 0782 0B       		.byte	0xb
 1322 0783 4C       		.byte	0x4c
 1323 0784 30010000 		.4byte	0x130
 1324 0788 0C       		.byte	0xc
 1325 0789 07       		.uleb128 0x7
 1326 078a D4040000 		.4byte	.LASF127
 1327 078e 0B       		.byte	0xb
 1328 078f 4D       		.byte	0x4d
 1329 0790 D8000000 		.4byte	0xd8
 1330 0794 10       		.byte	0x10
 1331 0795 00       		.byte	0
 1332 0796 04       		.uleb128 0x4
 1333 0797 BC000000 		.4byte	.LASF128
 1334 079b 0B       		.byte	0xb
 1335 079c 4E       		.byte	0x4e
 1336 079d 53070000 		.4byte	0x753
 1337 07a1 1A       		.uleb128 0x1a
 1338 07a2 04       		.byte	0x4
 1339 07a3 07       		.byte	0x7
 1340 07a4 FA       		.byte	0xfa
 1341 07a5 FE070000 		.4byte	0x7fe
 1342 07a9 1B       		.uleb128 0x1b
 1343 07aa 22000000 		.4byte	.LASF129
 1344 07ae 07       		.byte	0x7
 1345 07af 0101     		.2byte	0x101
 1346 07b1 0F010000 		.4byte	0x10f
 1347 07b5 1B       		.uleb128 0x1b
 1348 07b6 01010000 		.4byte	.LASF130
 1349 07ba 07       		.byte	0x7
 1350 07bb 0801     		.2byte	0x108
 1351 07bd 0F010000 		.4byte	0x10f
 1352 07c1 1B       		.uleb128 0x1b
 1353 07c2 06070000 		.4byte	.LASF131
 1354 07c6 07       		.byte	0x7
 1355 07c7 0F01     		.2byte	0x10f
 1356 07c9 32030000 		.4byte	0x332
 1357 07cd 1B       		.uleb128 0x1b
 1358 07ce 1C000000 		.4byte	.LASF132
 1359 07d2 07       		.byte	0x7
 1360 07d3 1601     		.2byte	0x116
 1361 07d5 FE070000 		.4byte	0x7fe
 1362 07d9 1B       		.uleb128 0x1b
 1363 07da 73020000 		.4byte	.LASF133
 1364 07de 07       		.byte	0x7
 1365 07df 1E01     		.2byte	0x11e
 1366 07e1 29080000 		.4byte	0x829
ARM GAS  C:\Users\jo\AppData\Local\Temp\ccotli2K.s 			page 25


 1367 07e5 1B       		.uleb128 0x1b
 1368 07e6 FA050000 		.4byte	.LASF134
 1369 07ea 07       		.byte	0x7
 1370 07eb 2701     		.2byte	0x127
 1371 07ed 60080000 		.4byte	0x860
 1372 07f1 1B       		.uleb128 0x1b
 1373 07f2 99050000 		.4byte	.LASF135
 1374 07f6 07       		.byte	0x7
 1375 07f7 2F01     		.2byte	0x12f
 1376 07f9 1A010000 		.4byte	0x11a
 1377 07fd 00       		.byte	0
 1378 07fe 0A       		.uleb128 0xa
 1379 07ff 04       		.byte	0x4
 1380 0800 4A020000 		.4byte	0x24a
 1381 0804 06       		.uleb128 0x6
 1382 0805 D2050000 		.4byte	.LASF136
 1383 0809 0C       		.byte	0xc
 1384 080a 0C       		.byte	0xc
 1385 080b 34       		.byte	0x34
 1386 080c 29080000 		.4byte	0x829
 1387 0810 07       		.uleb128 0x7
 1388 0811 E8010000 		.4byte	.LASF137
 1389 0815 0C       		.byte	0xc
 1390 0816 35       		.byte	0x35
 1391 0817 7F020000 		.4byte	0x27f
 1392 081b 00       		.byte	0
 1393 081c 07       		.uleb128 0x7
 1394 081d AD020000 		.4byte	.LASF138
 1395 0821 0C       		.byte	0xc
 1396 0822 37       		.byte	0x37
 1397 0823 25010000 		.4byte	0x125
 1398 0827 08       		.byte	0x8
 1399 0828 00       		.byte	0
 1400 0829 0A       		.uleb128 0xa
 1401 082a 04       		.byte	0x4
 1402 082b 04080000 		.4byte	0x804
 1403 082f 06       		.uleb128 0x6
 1404 0830 D8060000 		.4byte	.LASF139
 1405 0834 10       		.byte	0x10
 1406 0835 0D       		.byte	0xd
 1407 0836 39       		.byte	0x39
 1408 0837 60080000 		.4byte	0x860
 1409 083b 07       		.uleb128 0x7
 1410 083c 85010000 		.4byte	.LASF140
 1411 0840 0D       		.byte	0xd
 1412 0841 3A       		.byte	0x3a
 1413 0842 7F020000 		.4byte	0x27f
 1414 0846 00       		.byte	0
 1415 0847 07       		.uleb128 0x7
 1416 0848 36070000 		.4byte	.LASF141
 1417 084c 0D       		.byte	0xd
 1418 084d 3C       		.byte	0x3c
 1419 084e 55020000 		.4byte	0x255
 1420 0852 08       		.byte	0x8
 1421 0853 07       		.uleb128 0x7
 1422 0854 5C060000 		.4byte	.LASF142
 1423 0858 0D       		.byte	0xd
ARM GAS  C:\Users\jo\AppData\Local\Temp\ccotli2K.s 			page 26


 1424 0859 3E       		.byte	0x3e
 1425 085a A4080000 		.4byte	0x8a4
 1426 085e 0C       		.byte	0xc
 1427 085f 00       		.byte	0
 1428 0860 0A       		.uleb128 0xa
 1429 0861 04       		.byte	0x4
 1430 0862 2F080000 		.4byte	0x82f
 1431 0866 0A       		.uleb128 0xa
 1432 0867 04       		.byte	0x4
 1433 0868 6C080000 		.4byte	0x86c
 1434 086c 12       		.uleb128 0x12
 1435 086d 71080000 		.4byte	0x871
 1436 0871 03       		.uleb128 0x3
 1437 0872 01       		.byte	0x1
 1438 0873 08       		.byte	0x8
 1439 0874 34060000 		.4byte	.LASF143
 1440 0878 0A       		.uleb128 0xa
 1441 0879 04       		.byte	0x4
 1442 087a FB050000 		.4byte	0x5fb
 1443 087e 0A       		.uleb128 0xa
 1444 087f 04       		.byte	0x4
 1445 0880 34030000 		.4byte	0x334
 1446 0884 05       		.uleb128 0x5
 1447 0885 66080000 		.4byte	0x866
 1448 0889 13       		.uleb128 0x13
 1449 088a FB050000 		.4byte	0x5fb
 1450 088e 99080000 		.4byte	0x899
 1451 0892 14       		.uleb128 0x14
 1452 0893 93040000 		.4byte	0x493
 1453 0897 1B       		.byte	0x1b
 1454 0898 00       		.byte	0
 1455 0899 04       		.uleb128 0x4
 1456 089a 21020000 		.4byte	.LASF144
 1457 089e 0D       		.byte	0xd
 1458 089f 34       		.byte	0x34
 1459 08a0 2F080000 		.4byte	0x82f
 1460 08a4 0A       		.uleb128 0xa
 1461 08a5 04       		.byte	0x4
 1462 08a6 99080000 		.4byte	0x899
 1463 08aa 1C       		.uleb128 0x1c
 1464 08ab 42060000 		.4byte	.LASF155
 1465 08af 02       		.byte	0x2
 1466 08b0 2202     		.2byte	0x222
 1467 08b2 CD000000 		.4byte	0xcd
 1468 08b6 03       		.byte	0x3
 1469 08b7 1D       		.uleb128 0x1d
 1470 08b8 15010000 		.4byte	.LASF156
 1471 08bc 01       		.byte	0x1
 1472 08bd 35       		.byte	0x35
 1473 08be 03       		.byte	0x3
 1474 08bf E5080000 		.4byte	0x8e5
 1475 08c3 1E       		.uleb128 0x1e
 1476 08c4 746D7000 		.ascii	"tmp\000"
 1477 08c8 01       		.byte	0x1
 1478 08c9 35       		.byte	0x35
 1479 08ca E5080000 		.4byte	0x8e5
 1480 08ce 1E       		.uleb128 0x1e
ARM GAS  C:\Users\jo\AppData\Local\Temp\ccotli2K.s 			page 27


 1481 08cf 6E6F7700 		.ascii	"now\000"
 1482 08d3 01       		.byte	0x1
 1483 08d4 36       		.byte	0x36
 1484 08d5 CD000000 		.4byte	0xcd
 1485 08d9 1F       		.uleb128 0x1f
 1486 08da 96060000 		.4byte	.LASF122
 1487 08de 01       		.byte	0x1
 1488 08df 37       		.byte	0x37
 1489 08e0 CD000000 		.4byte	0xcd
 1490 08e4 00       		.byte	0
 1491 08e5 0A       		.uleb128 0xa
 1492 08e6 04       		.byte	0x4
 1493 08e7 96070000 		.4byte	0x796
 1494 08eb 20       		.uleb128 0x20
 1495 08ec 33010000 		.4byte	.LASF157
 1496 08f0 01       		.byte	0x1
 1497 08f1 63       		.byte	0x63
 1498 08f2 01       		.byte	0x1
 1499 08f3 03090000 		.4byte	0x903
 1500 08f7 1E       		.uleb128 0x1e
 1501 08f8 746D7000 		.ascii	"tmp\000"
 1502 08fc 01       		.byte	0x1
 1503 08fd 63       		.byte	0x63
 1504 08fe E5080000 		.4byte	0x8e5
 1505 0902 00       		.byte	0
 1506 0903 21       		.uleb128 0x21
 1507 0904 EB080000 		.4byte	0x8eb
 1508 0908 00000000 		.4byte	.LFB230
 1509 090c 18000000 		.4byte	.LFE230-.LFB230
 1510 0910 01       		.uleb128 0x1
 1511 0911 9C       		.byte	0x9c
 1512 0912 1E090000 		.4byte	0x91e
 1513 0916 22       		.uleb128 0x22
 1514 0917 F7080000 		.4byte	0x8f7
 1515 091b 01       		.uleb128 0x1
 1516 091c 50       		.byte	0x50
 1517 091d 00       		.byte	0
 1518 091e 23       		.uleb128 0x23
 1519 091f 94010000 		.4byte	.LASF145
 1520 0923 01       		.byte	0x1
 1521 0924 74       		.byte	0x74
 1522 0925 00000000 		.4byte	.LFB231
 1523 0929 0C000000 		.4byte	.LFE231-.LFB231
 1524 092d 01       		.uleb128 0x1
 1525 092e 9C       		.byte	0x9c
 1526 092f 50090000 		.4byte	0x950
 1527 0933 24       		.uleb128 0x24
 1528 0934 746D7000 		.ascii	"tmp\000"
 1529 0938 01       		.byte	0x1
 1530 0939 74       		.byte	0x74
 1531 093a E5080000 		.4byte	0x8e5
 1532 093e 01       		.uleb128 0x1
 1533 093f 50       		.byte	0x50
 1534 0940 25       		.uleb128 0x25
 1535 0941 AA080000 		.4byte	0x8aa
 1536 0945 00000000 		.4byte	.LBB14
 1537 0949 04000000 		.4byte	.LBE14-.LBB14
ARM GAS  C:\Users\jo\AppData\Local\Temp\ccotli2K.s 			page 28


 1538 094d 01       		.byte	0x1
 1539 094e 76       		.byte	0x76
 1540 094f 00       		.byte	0
 1541 0950 23       		.uleb128 0x23
 1542 0951 AA010000 		.4byte	.LASF146
 1543 0955 01       		.byte	0x1
 1544 0956 81       		.byte	0x81
 1545 0957 00000000 		.4byte	.LFB232
 1546 095b 48000000 		.4byte	.LFE232-.LFB232
 1547 095f 01       		.uleb128 0x1
 1548 0960 9C       		.byte	0x9c
 1549 0961 AB090000 		.4byte	0x9ab
 1550 0965 24       		.uleb128 0x24
 1551 0966 746D7000 		.ascii	"tmp\000"
 1552 096a 01       		.byte	0x1
 1553 096b 81       		.byte	0x81
 1554 096c E5080000 		.4byte	0x8e5
 1555 0970 01       		.uleb128 0x1
 1556 0971 50       		.byte	0x50
 1557 0972 26       		.uleb128 0x26
 1558 0973 AA080000 		.4byte	0x8aa
 1559 0977 00000000 		.4byte	.LBB16
 1560 097b 00000000 		.4byte	.Ldebug_ranges0+0
 1561 097f 01       		.byte	0x1
 1562 0980 83       		.byte	0x83
 1563 0981 27       		.uleb128 0x27
 1564 0982 B7080000 		.4byte	0x8b7
 1565 0986 06000000 		.4byte	.LBB20
 1566 098a 18000000 		.4byte	.Ldebug_ranges0+0x18
 1567 098e 01       		.byte	0x1
 1568 098f 83       		.byte	0x83
 1569 0990 28       		.uleb128 0x28
 1570 0991 D9080000 		.4byte	0x8d9
 1571 0995 00000000 		.4byte	.LLST0
 1572 0999 28       		.uleb128 0x28
 1573 099a CE080000 		.4byte	0x8ce
 1574 099e 1E000000 		.4byte	.LLST1
 1575 09a2 22       		.uleb128 0x22
 1576 09a3 C3080000 		.4byte	0x8c3
 1577 09a7 01       		.uleb128 0x1
 1578 09a8 50       		.byte	0x50
 1579 09a9 00       		.byte	0
 1580 09aa 00       		.byte	0
 1581 09ab 23       		.uleb128 0x23
 1582 09ac 50070000 		.4byte	.LASF147
 1583 09b0 01       		.byte	0x1
 1584 09b1 4F       		.byte	0x4f
 1585 09b2 00000000 		.4byte	.LFB229
 1586 09b6 3C000000 		.4byte	.LFE229-.LFB229
 1587 09ba 01       		.uleb128 0x1
 1588 09bb 9C       		.byte	0x9c
 1589 09bc 0F0A0000 		.4byte	0xa0f
 1590 09c0 29       		.uleb128 0x29
 1591 09c1 746D00   		.ascii	"tm\000"
 1592 09c4 01       		.byte	0x1
 1593 09c5 50       		.byte	0x50
 1594 09c6 96070000 		.4byte	0x796
ARM GAS  C:\Users\jo\AppData\Local\Temp\ccotli2K.s 			page 29


 1595 09ca 02       		.uleb128 0x2
 1596 09cb 91       		.byte	0x91
 1597 09cc 58       		.sleb128 -40
 1598 09cd 2A       		.uleb128 0x2a
 1599 09ce EB080000 		.4byte	0x8eb
 1600 09d2 08000000 		.4byte	.LBB26
 1601 09d6 38000000 		.4byte	.Ldebug_ranges0+0x38
 1602 09da 01       		.byte	0x1
 1603 09db 56       		.byte	0x56
 1604 09dc EA090000 		.4byte	0x9ea
 1605 09e0 28       		.uleb128 0x28
 1606 09e1 F7080000 		.4byte	0x8f7
 1607 09e5 3C000000 		.4byte	.LLST2
 1608 09e9 00       		.byte	0
 1609 09ea 2B       		.uleb128 0x2b
 1610 09eb 26000000 		.4byte	.LVL9
 1611 09ef 1E090000 		.4byte	0x91e
 1612 09f3 FE090000 		.4byte	0x9fe
 1613 09f7 2C       		.uleb128 0x2c
 1614 09f8 01       		.uleb128 0x1
 1615 09f9 50       		.byte	0x50
 1616 09fa 02       		.uleb128 0x2
 1617 09fb 7D       		.byte	0x7d
 1618 09fc 00       		.sleb128 0
 1619 09fd 00       		.byte	0
 1620 09fe 2D       		.uleb128 0x2d
 1621 09ff 2C000000 		.4byte	.LVL10
 1622 0a03 50090000 		.4byte	0x950
 1623 0a07 2C       		.uleb128 0x2c
 1624 0a08 01       		.uleb128 0x1
 1625 0a09 50       		.byte	0x50
 1626 0a0a 02       		.uleb128 0x2
 1627 0a0b 7D       		.byte	0x7d
 1628 0a0c 00       		.sleb128 0
 1629 0a0d 00       		.byte	0
 1630 0a0e 00       		.byte	0
 1631 0a0f 23       		.uleb128 0x23
 1632 0a10 24030000 		.4byte	.LASF148
 1633 0a14 01       		.byte	0x1
 1634 0a15 92       		.byte	0x92
 1635 0a16 00000000 		.4byte	.LFB233
 1636 0a1a 40000000 		.4byte	.LFE233-.LFB233
 1637 0a1e 01       		.uleb128 0x1
 1638 0a1f 9C       		.byte	0x9c
 1639 0a20 760A0000 		.4byte	0xa76
 1640 0a24 2E       		.uleb128 0x2e
 1641 0a25 52010000 		.4byte	.LASF149
 1642 0a29 01       		.byte	0x1
 1643 0a2a 92       		.byte	0x92
 1644 0a2b E5080000 		.4byte	0x8e5
 1645 0a2f 01       		.uleb128 0x1
 1646 0a30 50       		.byte	0x50
 1647 0a31 2F       		.uleb128 0x2f
 1648 0a32 57010000 		.4byte	.LASF150
 1649 0a36 01       		.byte	0x1
 1650 0a37 93       		.byte	0x93
 1651 0a38 E5080000 		.4byte	0x8e5
ARM GAS  C:\Users\jo\AppData\Local\Temp\ccotli2K.s 			page 30


 1652 0a3c 74000000 		.4byte	.LLST3
 1653 0a40 26       		.uleb128 0x26
 1654 0a41 AA080000 		.4byte	0x8aa
 1655 0a45 00000000 		.4byte	.LBB32
 1656 0a49 58000000 		.4byte	.Ldebug_ranges0+0x58
 1657 0a4d 01       		.byte	0x1
 1658 0a4e 96       		.byte	0x96
 1659 0a4f 27       		.uleb128 0x27
 1660 0a50 B7080000 		.4byte	0x8b7
 1661 0a54 02000000 		.4byte	.LBB35
 1662 0a58 70000000 		.4byte	.Ldebug_ranges0+0x70
 1663 0a5c 01       		.byte	0x1
 1664 0a5d 99       		.byte	0x99
 1665 0a5e 30       		.uleb128 0x30
 1666 0a5f D9080000 		.4byte	0x8d9
 1667 0a63 00       		.byte	0
 1668 0a64 28       		.uleb128 0x28
 1669 0a65 CE080000 		.4byte	0x8ce
 1670 0a69 95000000 		.4byte	.LLST4
 1671 0a6d 22       		.uleb128 0x22
 1672 0a6e C3080000 		.4byte	0x8c3
 1673 0a72 01       		.uleb128 0x1
 1674 0a73 50       		.byte	0x50
 1675 0a74 00       		.byte	0
 1676 0a75 00       		.byte	0
 1677 0a76 31       		.uleb128 0x31
 1678 0a77 4B050000 		.4byte	.LASF151
 1679 0a7b 08       		.byte	0x8
 1680 0a7c A706     		.2byte	0x6a7
 1681 0a7e C3000000 		.4byte	0xc3
 1682 0a82 32       		.uleb128 0x32
 1683 0a83 636800   		.ascii	"ch\000"
 1684 0a86 07       		.byte	0x7
 1685 0a87 0902     		.2byte	0x209
 1686 0a89 29040000 		.4byte	0x429
 1687 0a8d 00       		.byte	0
 1688              		.section	.debug_abbrev,"",%progbits
 1689              	.Ldebug_abbrev0:
 1690 0000 01       		.uleb128 0x1
 1691 0001 11       		.uleb128 0x11
 1692 0002 01       		.byte	0x1
 1693 0003 25       		.uleb128 0x25
 1694 0004 0E       		.uleb128 0xe
 1695 0005 13       		.uleb128 0x13
 1696 0006 0B       		.uleb128 0xb
 1697 0007 03       		.uleb128 0x3
 1698 0008 0E       		.uleb128 0xe
 1699 0009 1B       		.uleb128 0x1b
 1700 000a 0E       		.uleb128 0xe
 1701 000b 55       		.uleb128 0x55
 1702 000c 17       		.uleb128 0x17
 1703 000d 11       		.uleb128 0x11
 1704 000e 01       		.uleb128 0x1
 1705 000f 10       		.uleb128 0x10
 1706 0010 17       		.uleb128 0x17
 1707 0011 00       		.byte	0
 1708 0012 00       		.byte	0
ARM GAS  C:\Users\jo\AppData\Local\Temp\ccotli2K.s 			page 31


 1709 0013 02       		.uleb128 0x2
 1710 0014 24       		.uleb128 0x24
 1711 0015 00       		.byte	0
 1712 0016 0B       		.uleb128 0xb
 1713 0017 0B       		.uleb128 0xb
 1714 0018 3E       		.uleb128 0x3e
 1715 0019 0B       		.uleb128 0xb
 1716 001a 03       		.uleb128 0x3
 1717 001b 08       		.uleb128 0x8
 1718 001c 00       		.byte	0
 1719 001d 00       		.byte	0
 1720 001e 03       		.uleb128 0x3
 1721 001f 24       		.uleb128 0x24
 1722 0020 00       		.byte	0
 1723 0021 0B       		.uleb128 0xb
 1724 0022 0B       		.uleb128 0xb
 1725 0023 3E       		.uleb128 0x3e
 1726 0024 0B       		.uleb128 0xb
 1727 0025 03       		.uleb128 0x3
 1728 0026 0E       		.uleb128 0xe
 1729 0027 00       		.byte	0
 1730 0028 00       		.byte	0
 1731 0029 04       		.uleb128 0x4
 1732 002a 16       		.uleb128 0x16
 1733 002b 00       		.byte	0
 1734 002c 03       		.uleb128 0x3
 1735 002d 0E       		.uleb128 0xe
 1736 002e 3A       		.uleb128 0x3a
 1737 002f 0B       		.uleb128 0xb
 1738 0030 3B       		.uleb128 0x3b
 1739 0031 0B       		.uleb128 0xb
 1740 0032 49       		.uleb128 0x49
 1741 0033 13       		.uleb128 0x13
 1742 0034 00       		.byte	0
 1743 0035 00       		.byte	0
 1744 0036 05       		.uleb128 0x5
 1745 0037 35       		.uleb128 0x35
 1746 0038 00       		.byte	0
 1747 0039 49       		.uleb128 0x49
 1748 003a 13       		.uleb128 0x13
 1749 003b 00       		.byte	0
 1750 003c 00       		.byte	0
 1751 003d 06       		.uleb128 0x6
 1752 003e 13       		.uleb128 0x13
 1753 003f 01       		.byte	0x1
 1754 0040 03       		.uleb128 0x3
 1755 0041 0E       		.uleb128 0xe
 1756 0042 0B       		.uleb128 0xb
 1757 0043 0B       		.uleb128 0xb
 1758 0044 3A       		.uleb128 0x3a
 1759 0045 0B       		.uleb128 0xb
 1760 0046 3B       		.uleb128 0x3b
 1761 0047 0B       		.uleb128 0xb
 1762 0048 01       		.uleb128 0x1
 1763 0049 13       		.uleb128 0x13
 1764 004a 00       		.byte	0
 1765 004b 00       		.byte	0
ARM GAS  C:\Users\jo\AppData\Local\Temp\ccotli2K.s 			page 32


 1766 004c 07       		.uleb128 0x7
 1767 004d 0D       		.uleb128 0xd
 1768 004e 00       		.byte	0
 1769 004f 03       		.uleb128 0x3
 1770 0050 0E       		.uleb128 0xe
 1771 0051 3A       		.uleb128 0x3a
 1772 0052 0B       		.uleb128 0xb
 1773 0053 3B       		.uleb128 0x3b
 1774 0054 0B       		.uleb128 0xb
 1775 0055 49       		.uleb128 0x49
 1776 0056 13       		.uleb128 0x13
 1777 0057 38       		.uleb128 0x38
 1778 0058 0B       		.uleb128 0xb
 1779 0059 00       		.byte	0
 1780 005a 00       		.byte	0
 1781 005b 08       		.uleb128 0x8
 1782 005c 0D       		.uleb128 0xd
 1783 005d 00       		.byte	0
 1784 005e 03       		.uleb128 0x3
 1785 005f 08       		.uleb128 0x8
 1786 0060 3A       		.uleb128 0x3a
 1787 0061 0B       		.uleb128 0xb
 1788 0062 3B       		.uleb128 0x3b
 1789 0063 05       		.uleb128 0x5
 1790 0064 49       		.uleb128 0x49
 1791 0065 13       		.uleb128 0x13
 1792 0066 38       		.uleb128 0x38
 1793 0067 0B       		.uleb128 0xb
 1794 0068 00       		.byte	0
 1795 0069 00       		.byte	0
 1796 006a 09       		.uleb128 0x9
 1797 006b 0D       		.uleb128 0xd
 1798 006c 00       		.byte	0
 1799 006d 03       		.uleb128 0x3
 1800 006e 0E       		.uleb128 0xe
 1801 006f 3A       		.uleb128 0x3a
 1802 0070 0B       		.uleb128 0xb
 1803 0071 3B       		.uleb128 0x3b
 1804 0072 05       		.uleb128 0x5
 1805 0073 49       		.uleb128 0x49
 1806 0074 13       		.uleb128 0x13
 1807 0075 38       		.uleb128 0x38
 1808 0076 0B       		.uleb128 0xb
 1809 0077 00       		.byte	0
 1810 0078 00       		.byte	0
 1811 0079 0A       		.uleb128 0xa
 1812 007a 0F       		.uleb128 0xf
 1813 007b 00       		.byte	0
 1814 007c 0B       		.uleb128 0xb
 1815 007d 0B       		.uleb128 0xb
 1816 007e 49       		.uleb128 0x49
 1817 007f 13       		.uleb128 0x13
 1818 0080 00       		.byte	0
 1819 0081 00       		.byte	0
 1820 0082 0B       		.uleb128 0xb
 1821 0083 13       		.uleb128 0x13
 1822 0084 01       		.byte	0x1
ARM GAS  C:\Users\jo\AppData\Local\Temp\ccotli2K.s 			page 33


 1823 0085 03       		.uleb128 0x3
 1824 0086 0E       		.uleb128 0xe
 1825 0087 0B       		.uleb128 0xb
 1826 0088 0B       		.uleb128 0xb
 1827 0089 3A       		.uleb128 0x3a
 1828 008a 0B       		.uleb128 0xb
 1829 008b 3B       		.uleb128 0x3b
 1830 008c 05       		.uleb128 0x5
 1831 008d 01       		.uleb128 0x1
 1832 008e 13       		.uleb128 0x13
 1833 008f 00       		.byte	0
 1834 0090 00       		.byte	0
 1835 0091 0C       		.uleb128 0xc
 1836 0092 15       		.uleb128 0x15
 1837 0093 01       		.byte	0x1
 1838 0094 27       		.uleb128 0x27
 1839 0095 19       		.uleb128 0x19
 1840 0096 01       		.uleb128 0x1
 1841 0097 13       		.uleb128 0x13
 1842 0098 00       		.byte	0
 1843 0099 00       		.byte	0
 1844 009a 0D       		.uleb128 0xd
 1845 009b 05       		.uleb128 0x5
 1846 009c 00       		.byte	0
 1847 009d 49       		.uleb128 0x49
 1848 009e 13       		.uleb128 0x13
 1849 009f 00       		.byte	0
 1850 00a0 00       		.byte	0
 1851 00a1 0E       		.uleb128 0xe
 1852 00a2 0F       		.uleb128 0xf
 1853 00a3 00       		.byte	0
 1854 00a4 0B       		.uleb128 0xb
 1855 00a5 0B       		.uleb128 0xb
 1856 00a6 00       		.byte	0
 1857 00a7 00       		.byte	0
 1858 00a8 0F       		.uleb128 0xf
 1859 00a9 13       		.uleb128 0x13
 1860 00aa 01       		.byte	0x1
 1861 00ab 03       		.uleb128 0x3
 1862 00ac 0E       		.uleb128 0xe
 1863 00ad 0B       		.uleb128 0xb
 1864 00ae 05       		.uleb128 0x5
 1865 00af 3A       		.uleb128 0x3a
 1866 00b0 0B       		.uleb128 0xb
 1867 00b1 3B       		.uleb128 0x3b
 1868 00b2 05       		.uleb128 0x5
 1869 00b3 01       		.uleb128 0x1
 1870 00b4 13       		.uleb128 0x13
 1871 00b5 00       		.byte	0
 1872 00b6 00       		.byte	0
 1873 00b7 10       		.uleb128 0x10
 1874 00b8 0D       		.uleb128 0xd
 1875 00b9 00       		.byte	0
 1876 00ba 03       		.uleb128 0x3
 1877 00bb 0E       		.uleb128 0xe
 1878 00bc 3A       		.uleb128 0x3a
 1879 00bd 0B       		.uleb128 0xb
ARM GAS  C:\Users\jo\AppData\Local\Temp\ccotli2K.s 			page 34


 1880 00be 3B       		.uleb128 0x3b
 1881 00bf 05       		.uleb128 0x5
 1882 00c0 49       		.uleb128 0x49
 1883 00c1 13       		.uleb128 0x13
 1884 00c2 38       		.uleb128 0x38
 1885 00c3 05       		.uleb128 0x5
 1886 00c4 00       		.byte	0
 1887 00c5 00       		.byte	0
 1888 00c6 11       		.uleb128 0x11
 1889 00c7 0D       		.uleb128 0xd
 1890 00c8 00       		.byte	0
 1891 00c9 03       		.uleb128 0x3
 1892 00ca 08       		.uleb128 0x8
 1893 00cb 3A       		.uleb128 0x3a
 1894 00cc 0B       		.uleb128 0xb
 1895 00cd 3B       		.uleb128 0x3b
 1896 00ce 05       		.uleb128 0x5
 1897 00cf 49       		.uleb128 0x49
 1898 00d0 13       		.uleb128 0x13
 1899 00d1 38       		.uleb128 0x38
 1900 00d2 05       		.uleb128 0x5
 1901 00d3 00       		.byte	0
 1902 00d4 00       		.byte	0
 1903 00d5 12       		.uleb128 0x12
 1904 00d6 26       		.uleb128 0x26
 1905 00d7 00       		.byte	0
 1906 00d8 49       		.uleb128 0x49
 1907 00d9 13       		.uleb128 0x13
 1908 00da 00       		.byte	0
 1909 00db 00       		.byte	0
 1910 00dc 13       		.uleb128 0x13
 1911 00dd 01       		.uleb128 0x1
 1912 00de 01       		.byte	0x1
 1913 00df 49       		.uleb128 0x49
 1914 00e0 13       		.uleb128 0x13
 1915 00e1 01       		.uleb128 0x1
 1916 00e2 13       		.uleb128 0x13
 1917 00e3 00       		.byte	0
 1918 00e4 00       		.byte	0
 1919 00e5 14       		.uleb128 0x14
 1920 00e6 21       		.uleb128 0x21
 1921 00e7 00       		.byte	0
 1922 00e8 49       		.uleb128 0x49
 1923 00e9 13       		.uleb128 0x13
 1924 00ea 2F       		.uleb128 0x2f
 1925 00eb 0B       		.uleb128 0xb
 1926 00ec 00       		.byte	0
 1927 00ed 00       		.byte	0
 1928 00ee 15       		.uleb128 0x15
 1929 00ef 13       		.uleb128 0x13
 1930 00f0 01       		.byte	0x1
 1931 00f1 0B       		.uleb128 0xb
 1932 00f2 0B       		.uleb128 0xb
 1933 00f3 3A       		.uleb128 0x3a
 1934 00f4 0B       		.uleb128 0xb
 1935 00f5 3B       		.uleb128 0x3b
 1936 00f6 05       		.uleb128 0x5
ARM GAS  C:\Users\jo\AppData\Local\Temp\ccotli2K.s 			page 35


 1937 00f7 01       		.uleb128 0x1
 1938 00f8 13       		.uleb128 0x13
 1939 00f9 00       		.byte	0
 1940 00fa 00       		.byte	0
 1941 00fb 16       		.uleb128 0x16
 1942 00fc 16       		.uleb128 0x16
 1943 00fd 00       		.byte	0
 1944 00fe 03       		.uleb128 0x3
 1945 00ff 0E       		.uleb128 0xe
 1946 0100 3A       		.uleb128 0x3a
 1947 0101 0B       		.uleb128 0xb
 1948 0102 3B       		.uleb128 0x3b
 1949 0103 05       		.uleb128 0x5
 1950 0104 49       		.uleb128 0x49
 1951 0105 13       		.uleb128 0x13
 1952 0106 00       		.byte	0
 1953 0107 00       		.byte	0
 1954 0108 17       		.uleb128 0x17
 1955 0109 0D       		.uleb128 0xd
 1956 010a 00       		.byte	0
 1957 010b 03       		.uleb128 0x3
 1958 010c 08       		.uleb128 0x8
 1959 010d 3A       		.uleb128 0x3a
 1960 010e 0B       		.uleb128 0xb
 1961 010f 3B       		.uleb128 0x3b
 1962 0110 0B       		.uleb128 0xb
 1963 0111 49       		.uleb128 0x49
 1964 0112 13       		.uleb128 0x13
 1965 0113 38       		.uleb128 0x38
 1966 0114 0B       		.uleb128 0xb
 1967 0115 00       		.byte	0
 1968 0116 00       		.byte	0
 1969 0117 18       		.uleb128 0x18
 1970 0118 13       		.uleb128 0x13
 1971 0119 01       		.byte	0x1
 1972 011a 0B       		.uleb128 0xb
 1973 011b 0B       		.uleb128 0xb
 1974 011c 3A       		.uleb128 0x3a
 1975 011d 0B       		.uleb128 0xb
 1976 011e 3B       		.uleb128 0x3b
 1977 011f 0B       		.uleb128 0xb
 1978 0120 01       		.uleb128 0x1
 1979 0121 13       		.uleb128 0x13
 1980 0122 00       		.byte	0
 1981 0123 00       		.byte	0
 1982 0124 19       		.uleb128 0x19
 1983 0125 13       		.uleb128 0x13
 1984 0126 01       		.byte	0x1
 1985 0127 0B       		.uleb128 0xb
 1986 0128 05       		.uleb128 0x5
 1987 0129 3A       		.uleb128 0x3a
 1988 012a 0B       		.uleb128 0xb
 1989 012b 3B       		.uleb128 0x3b
 1990 012c 0B       		.uleb128 0xb
 1991 012d 01       		.uleb128 0x1
 1992 012e 13       		.uleb128 0x13
 1993 012f 00       		.byte	0
ARM GAS  C:\Users\jo\AppData\Local\Temp\ccotli2K.s 			page 36


 1994 0130 00       		.byte	0
 1995 0131 1A       		.uleb128 0x1a
 1996 0132 17       		.uleb128 0x17
 1997 0133 01       		.byte	0x1
 1998 0134 0B       		.uleb128 0xb
 1999 0135 0B       		.uleb128 0xb
 2000 0136 3A       		.uleb128 0x3a
 2001 0137 0B       		.uleb128 0xb
 2002 0138 3B       		.uleb128 0x3b
 2003 0139 0B       		.uleb128 0xb
 2004 013a 01       		.uleb128 0x1
 2005 013b 13       		.uleb128 0x13
 2006 013c 00       		.byte	0
 2007 013d 00       		.byte	0
 2008 013e 1B       		.uleb128 0x1b
 2009 013f 0D       		.uleb128 0xd
 2010 0140 00       		.byte	0
 2011 0141 03       		.uleb128 0x3
 2012 0142 0E       		.uleb128 0xe
 2013 0143 3A       		.uleb128 0x3a
 2014 0144 0B       		.uleb128 0xb
 2015 0145 3B       		.uleb128 0x3b
 2016 0146 05       		.uleb128 0x5
 2017 0147 49       		.uleb128 0x49
 2018 0148 13       		.uleb128 0x13
 2019 0149 00       		.byte	0
 2020 014a 00       		.byte	0
 2021 014b 1C       		.uleb128 0x1c
 2022 014c 2E       		.uleb128 0x2e
 2023 014d 00       		.byte	0
 2024 014e 03       		.uleb128 0x3
 2025 014f 0E       		.uleb128 0xe
 2026 0150 3A       		.uleb128 0x3a
 2027 0151 0B       		.uleb128 0xb
 2028 0152 3B       		.uleb128 0x3b
 2029 0153 05       		.uleb128 0x5
 2030 0154 27       		.uleb128 0x27
 2031 0155 19       		.uleb128 0x19
 2032 0156 49       		.uleb128 0x49
 2033 0157 13       		.uleb128 0x13
 2034 0158 20       		.uleb128 0x20
 2035 0159 0B       		.uleb128 0xb
 2036 015a 00       		.byte	0
 2037 015b 00       		.byte	0
 2038 015c 1D       		.uleb128 0x1d
 2039 015d 2E       		.uleb128 0x2e
 2040 015e 01       		.byte	0x1
 2041 015f 03       		.uleb128 0x3
 2042 0160 0E       		.uleb128 0xe
 2043 0161 3A       		.uleb128 0x3a
 2044 0162 0B       		.uleb128 0xb
 2045 0163 3B       		.uleb128 0x3b
 2046 0164 0B       		.uleb128 0xb
 2047 0165 27       		.uleb128 0x27
 2048 0166 19       		.uleb128 0x19
 2049 0167 20       		.uleb128 0x20
 2050 0168 0B       		.uleb128 0xb
ARM GAS  C:\Users\jo\AppData\Local\Temp\ccotli2K.s 			page 37


 2051 0169 01       		.uleb128 0x1
 2052 016a 13       		.uleb128 0x13
 2053 016b 00       		.byte	0
 2054 016c 00       		.byte	0
 2055 016d 1E       		.uleb128 0x1e
 2056 016e 05       		.uleb128 0x5
 2057 016f 00       		.byte	0
 2058 0170 03       		.uleb128 0x3
 2059 0171 08       		.uleb128 0x8
 2060 0172 3A       		.uleb128 0x3a
 2061 0173 0B       		.uleb128 0xb
 2062 0174 3B       		.uleb128 0x3b
 2063 0175 0B       		.uleb128 0xb
 2064 0176 49       		.uleb128 0x49
 2065 0177 13       		.uleb128 0x13
 2066 0178 00       		.byte	0
 2067 0179 00       		.byte	0
 2068 017a 1F       		.uleb128 0x1f
 2069 017b 05       		.uleb128 0x5
 2070 017c 00       		.byte	0
 2071 017d 03       		.uleb128 0x3
 2072 017e 0E       		.uleb128 0xe
 2073 017f 3A       		.uleb128 0x3a
 2074 0180 0B       		.uleb128 0xb
 2075 0181 3B       		.uleb128 0x3b
 2076 0182 0B       		.uleb128 0xb
 2077 0183 49       		.uleb128 0x49
 2078 0184 13       		.uleb128 0x13
 2079 0185 00       		.byte	0
 2080 0186 00       		.byte	0
 2081 0187 20       		.uleb128 0x20
 2082 0188 2E       		.uleb128 0x2e
 2083 0189 01       		.byte	0x1
 2084 018a 3F       		.uleb128 0x3f
 2085 018b 19       		.uleb128 0x19
 2086 018c 03       		.uleb128 0x3
 2087 018d 0E       		.uleb128 0xe
 2088 018e 3A       		.uleb128 0x3a
 2089 018f 0B       		.uleb128 0xb
 2090 0190 3B       		.uleb128 0x3b
 2091 0191 0B       		.uleb128 0xb
 2092 0192 27       		.uleb128 0x27
 2093 0193 19       		.uleb128 0x19
 2094 0194 20       		.uleb128 0x20
 2095 0195 0B       		.uleb128 0xb
 2096 0196 01       		.uleb128 0x1
 2097 0197 13       		.uleb128 0x13
 2098 0198 00       		.byte	0
 2099 0199 00       		.byte	0
 2100 019a 21       		.uleb128 0x21
 2101 019b 2E       		.uleb128 0x2e
 2102 019c 01       		.byte	0x1
 2103 019d 31       		.uleb128 0x31
 2104 019e 13       		.uleb128 0x13
 2105 019f 11       		.uleb128 0x11
 2106 01a0 01       		.uleb128 0x1
 2107 01a1 12       		.uleb128 0x12
ARM GAS  C:\Users\jo\AppData\Local\Temp\ccotli2K.s 			page 38


 2108 01a2 06       		.uleb128 0x6
 2109 01a3 40       		.uleb128 0x40
 2110 01a4 18       		.uleb128 0x18
 2111 01a5 9742     		.uleb128 0x2117
 2112 01a7 19       		.uleb128 0x19
 2113 01a8 01       		.uleb128 0x1
 2114 01a9 13       		.uleb128 0x13
 2115 01aa 00       		.byte	0
 2116 01ab 00       		.byte	0
 2117 01ac 22       		.uleb128 0x22
 2118 01ad 05       		.uleb128 0x5
 2119 01ae 00       		.byte	0
 2120 01af 31       		.uleb128 0x31
 2121 01b0 13       		.uleb128 0x13
 2122 01b1 02       		.uleb128 0x2
 2123 01b2 18       		.uleb128 0x18
 2124 01b3 00       		.byte	0
 2125 01b4 00       		.byte	0
 2126 01b5 23       		.uleb128 0x23
 2127 01b6 2E       		.uleb128 0x2e
 2128 01b7 01       		.byte	0x1
 2129 01b8 3F       		.uleb128 0x3f
 2130 01b9 19       		.uleb128 0x19
 2131 01ba 03       		.uleb128 0x3
 2132 01bb 0E       		.uleb128 0xe
 2133 01bc 3A       		.uleb128 0x3a
 2134 01bd 0B       		.uleb128 0xb
 2135 01be 3B       		.uleb128 0x3b
 2136 01bf 0B       		.uleb128 0xb
 2137 01c0 27       		.uleb128 0x27
 2138 01c1 19       		.uleb128 0x19
 2139 01c2 11       		.uleb128 0x11
 2140 01c3 01       		.uleb128 0x1
 2141 01c4 12       		.uleb128 0x12
 2142 01c5 06       		.uleb128 0x6
 2143 01c6 40       		.uleb128 0x40
 2144 01c7 18       		.uleb128 0x18
 2145 01c8 9742     		.uleb128 0x2117
 2146 01ca 19       		.uleb128 0x19
 2147 01cb 01       		.uleb128 0x1
 2148 01cc 13       		.uleb128 0x13
 2149 01cd 00       		.byte	0
 2150 01ce 00       		.byte	0
 2151 01cf 24       		.uleb128 0x24
 2152 01d0 05       		.uleb128 0x5
 2153 01d1 00       		.byte	0
 2154 01d2 03       		.uleb128 0x3
 2155 01d3 08       		.uleb128 0x8
 2156 01d4 3A       		.uleb128 0x3a
 2157 01d5 0B       		.uleb128 0xb
 2158 01d6 3B       		.uleb128 0x3b
 2159 01d7 0B       		.uleb128 0xb
 2160 01d8 49       		.uleb128 0x49
 2161 01d9 13       		.uleb128 0x13
 2162 01da 02       		.uleb128 0x2
 2163 01db 18       		.uleb128 0x18
 2164 01dc 00       		.byte	0
ARM GAS  C:\Users\jo\AppData\Local\Temp\ccotli2K.s 			page 39


 2165 01dd 00       		.byte	0
 2166 01de 25       		.uleb128 0x25
 2167 01df 1D       		.uleb128 0x1d
 2168 01e0 00       		.byte	0
 2169 01e1 31       		.uleb128 0x31
 2170 01e2 13       		.uleb128 0x13
 2171 01e3 11       		.uleb128 0x11
 2172 01e4 01       		.uleb128 0x1
 2173 01e5 12       		.uleb128 0x12
 2174 01e6 06       		.uleb128 0x6
 2175 01e7 58       		.uleb128 0x58
 2176 01e8 0B       		.uleb128 0xb
 2177 01e9 59       		.uleb128 0x59
 2178 01ea 0B       		.uleb128 0xb
 2179 01eb 00       		.byte	0
 2180 01ec 00       		.byte	0
 2181 01ed 26       		.uleb128 0x26
 2182 01ee 1D       		.uleb128 0x1d
 2183 01ef 00       		.byte	0
 2184 01f0 31       		.uleb128 0x31
 2185 01f1 13       		.uleb128 0x13
 2186 01f2 52       		.uleb128 0x52
 2187 01f3 01       		.uleb128 0x1
 2188 01f4 55       		.uleb128 0x55
 2189 01f5 17       		.uleb128 0x17
 2190 01f6 58       		.uleb128 0x58
 2191 01f7 0B       		.uleb128 0xb
 2192 01f8 59       		.uleb128 0x59
 2193 01f9 0B       		.uleb128 0xb
 2194 01fa 00       		.byte	0
 2195 01fb 00       		.byte	0
 2196 01fc 27       		.uleb128 0x27
 2197 01fd 1D       		.uleb128 0x1d
 2198 01fe 01       		.byte	0x1
 2199 01ff 31       		.uleb128 0x31
 2200 0200 13       		.uleb128 0x13
 2201 0201 52       		.uleb128 0x52
 2202 0202 01       		.uleb128 0x1
 2203 0203 55       		.uleb128 0x55
 2204 0204 17       		.uleb128 0x17
 2205 0205 58       		.uleb128 0x58
 2206 0206 0B       		.uleb128 0xb
 2207 0207 59       		.uleb128 0x59
 2208 0208 0B       		.uleb128 0xb
 2209 0209 00       		.byte	0
 2210 020a 00       		.byte	0
 2211 020b 28       		.uleb128 0x28
 2212 020c 05       		.uleb128 0x5
 2213 020d 00       		.byte	0
 2214 020e 31       		.uleb128 0x31
 2215 020f 13       		.uleb128 0x13
 2216 0210 02       		.uleb128 0x2
 2217 0211 17       		.uleb128 0x17
 2218 0212 00       		.byte	0
 2219 0213 00       		.byte	0
 2220 0214 29       		.uleb128 0x29
 2221 0215 34       		.uleb128 0x34
ARM GAS  C:\Users\jo\AppData\Local\Temp\ccotli2K.s 			page 40


 2222 0216 00       		.byte	0
 2223 0217 03       		.uleb128 0x3
 2224 0218 08       		.uleb128 0x8
 2225 0219 3A       		.uleb128 0x3a
 2226 021a 0B       		.uleb128 0xb
 2227 021b 3B       		.uleb128 0x3b
 2228 021c 0B       		.uleb128 0xb
 2229 021d 49       		.uleb128 0x49
 2230 021e 13       		.uleb128 0x13
 2231 021f 02       		.uleb128 0x2
 2232 0220 18       		.uleb128 0x18
 2233 0221 00       		.byte	0
 2234 0222 00       		.byte	0
 2235 0223 2A       		.uleb128 0x2a
 2236 0224 1D       		.uleb128 0x1d
 2237 0225 01       		.byte	0x1
 2238 0226 31       		.uleb128 0x31
 2239 0227 13       		.uleb128 0x13
 2240 0228 52       		.uleb128 0x52
 2241 0229 01       		.uleb128 0x1
 2242 022a 55       		.uleb128 0x55
 2243 022b 17       		.uleb128 0x17
 2244 022c 58       		.uleb128 0x58
 2245 022d 0B       		.uleb128 0xb
 2246 022e 59       		.uleb128 0x59
 2247 022f 0B       		.uleb128 0xb
 2248 0230 01       		.uleb128 0x1
 2249 0231 13       		.uleb128 0x13
 2250 0232 00       		.byte	0
 2251 0233 00       		.byte	0
 2252 0234 2B       		.uleb128 0x2b
 2253 0235 898201   		.uleb128 0x4109
 2254 0238 01       		.byte	0x1
 2255 0239 11       		.uleb128 0x11
 2256 023a 01       		.uleb128 0x1
 2257 023b 31       		.uleb128 0x31
 2258 023c 13       		.uleb128 0x13
 2259 023d 01       		.uleb128 0x1
 2260 023e 13       		.uleb128 0x13
 2261 023f 00       		.byte	0
 2262 0240 00       		.byte	0
 2263 0241 2C       		.uleb128 0x2c
 2264 0242 8A8201   		.uleb128 0x410a
 2265 0245 00       		.byte	0
 2266 0246 02       		.uleb128 0x2
 2267 0247 18       		.uleb128 0x18
 2268 0248 9142     		.uleb128 0x2111
 2269 024a 18       		.uleb128 0x18
 2270 024b 00       		.byte	0
 2271 024c 00       		.byte	0
 2272 024d 2D       		.uleb128 0x2d
 2273 024e 898201   		.uleb128 0x4109
 2274 0251 01       		.byte	0x1
 2275 0252 11       		.uleb128 0x11
 2276 0253 01       		.uleb128 0x1
 2277 0254 31       		.uleb128 0x31
 2278 0255 13       		.uleb128 0x13
ARM GAS  C:\Users\jo\AppData\Local\Temp\ccotli2K.s 			page 41


 2279 0256 00       		.byte	0
 2280 0257 00       		.byte	0
 2281 0258 2E       		.uleb128 0x2e
 2282 0259 05       		.uleb128 0x5
 2283 025a 00       		.byte	0
 2284 025b 03       		.uleb128 0x3
 2285 025c 0E       		.uleb128 0xe
 2286 025d 3A       		.uleb128 0x3a
 2287 025e 0B       		.uleb128 0xb
 2288 025f 3B       		.uleb128 0x3b
 2289 0260 0B       		.uleb128 0xb
 2290 0261 49       		.uleb128 0x49
 2291 0262 13       		.uleb128 0x13
 2292 0263 02       		.uleb128 0x2
 2293 0264 18       		.uleb128 0x18
 2294 0265 00       		.byte	0
 2295 0266 00       		.byte	0
 2296 0267 2F       		.uleb128 0x2f
 2297 0268 05       		.uleb128 0x5
 2298 0269 00       		.byte	0
 2299 026a 03       		.uleb128 0x3
 2300 026b 0E       		.uleb128 0xe
 2301 026c 3A       		.uleb128 0x3a
 2302 026d 0B       		.uleb128 0xb
 2303 026e 3B       		.uleb128 0x3b
 2304 026f 0B       		.uleb128 0xb
 2305 0270 49       		.uleb128 0x49
 2306 0271 13       		.uleb128 0x13
 2307 0272 02       		.uleb128 0x2
 2308 0273 17       		.uleb128 0x17
 2309 0274 00       		.byte	0
 2310 0275 00       		.byte	0
 2311 0276 30       		.uleb128 0x30
 2312 0277 05       		.uleb128 0x5
 2313 0278 00       		.byte	0
 2314 0279 31       		.uleb128 0x31
 2315 027a 13       		.uleb128 0x13
 2316 027b 1C       		.uleb128 0x1c
 2317 027c 0B       		.uleb128 0xb
 2318 027d 00       		.byte	0
 2319 027e 00       		.byte	0
 2320 027f 31       		.uleb128 0x31
 2321 0280 34       		.uleb128 0x34
 2322 0281 00       		.byte	0
 2323 0282 03       		.uleb128 0x3
 2324 0283 0E       		.uleb128 0xe
 2325 0284 3A       		.uleb128 0x3a
 2326 0285 0B       		.uleb128 0xb
 2327 0286 3B       		.uleb128 0x3b
 2328 0287 05       		.uleb128 0x5
 2329 0288 49       		.uleb128 0x49
 2330 0289 13       		.uleb128 0x13
 2331 028a 3F       		.uleb128 0x3f
 2332 028b 19       		.uleb128 0x19
 2333 028c 3C       		.uleb128 0x3c
 2334 028d 19       		.uleb128 0x19
 2335 028e 00       		.byte	0
ARM GAS  C:\Users\jo\AppData\Local\Temp\ccotli2K.s 			page 42


 2336 028f 00       		.byte	0
 2337 0290 32       		.uleb128 0x32
 2338 0291 34       		.uleb128 0x34
 2339 0292 00       		.byte	0
 2340 0293 03       		.uleb128 0x3
 2341 0294 08       		.uleb128 0x8
 2342 0295 3A       		.uleb128 0x3a
 2343 0296 0B       		.uleb128 0xb
 2344 0297 3B       		.uleb128 0x3b
 2345 0298 05       		.uleb128 0x5
 2346 0299 49       		.uleb128 0x49
 2347 029a 13       		.uleb128 0x13
 2348 029b 3F       		.uleb128 0x3f
 2349 029c 19       		.uleb128 0x19
 2350 029d 3C       		.uleb128 0x3c
 2351 029e 19       		.uleb128 0x19
 2352 029f 00       		.byte	0
 2353 02a0 00       		.byte	0
 2354 02a1 00       		.byte	0
 2355              		.section	.debug_loc,"",%progbits
 2356              	.Ldebug_loc0:
 2357              	.LLST0:
 2358 0000 0E000000 		.4byte	.LVL3
 2359 0004 38000000 		.4byte	.LVL5
 2360 0008 0100     		.2byte	0x1
 2361 000a 57       		.byte	0x57
 2362 000b 3A000000 		.4byte	.LVL6
 2363 000f 3E000000 		.4byte	.LVL7
 2364 0013 0100     		.2byte	0x1
 2365 0015 57       		.byte	0x57
 2366 0016 00000000 		.4byte	0
 2367 001a 00000000 		.4byte	0
 2368              	.LLST1:
 2369 001e 0E000000 		.4byte	.LVL3
 2370 0022 30000000 		.4byte	.LVL4
 2371 0026 0100     		.2byte	0x1
 2372 0028 52       		.byte	0x52
 2373 0029 3A000000 		.4byte	.LVL6
 2374 002d 48000000 		.4byte	.LFE232
 2375 0031 0100     		.2byte	0x1
 2376 0033 52       		.byte	0x52
 2377 0034 00000000 		.4byte	0
 2378 0038 00000000 		.4byte	0
 2379              	.LLST2:
 2380 003c 16000000 		.4byte	.LVL8
 2381 0040 25000000 		.4byte	.LVL9-1
 2382 0044 0100     		.2byte	0x1
 2383 0046 50       		.byte	0x50
 2384 0047 25000000 		.4byte	.LVL9-1
 2385 004b 34000000 		.4byte	.LVL11
 2386 004f 0100     		.2byte	0x1
 2387 0051 5D       		.byte	0x5d
 2388 0052 34000000 		.4byte	.LVL11
 2389 0056 36000000 		.4byte	.LVL12
 2390 005a 0300     		.2byte	0x3
 2391 005c 91       		.byte	0x91
 2392 005d 58       		.sleb128 -40
ARM GAS  C:\Users\jo\AppData\Local\Temp\ccotli2K.s 			page 43


 2393 005e 9F       		.byte	0x9f
 2394 005f 36000000 		.4byte	.LVL12
 2395 0063 3C000000 		.4byte	.LFE229
 2396 0067 0300     		.2byte	0x3
 2397 0069 7D       		.byte	0x7d
 2398 006a 58       		.sleb128 -40
 2399 006b 9F       		.byte	0x9f
 2400 006c 00000000 		.4byte	0
 2401 0070 00000000 		.4byte	0
 2402              	.LLST3:
 2403 0074 00000000 		.4byte	.LVL13
 2404 0078 12000000 		.4byte	.LVL15
 2405 007c 0100     		.2byte	0x1
 2406 007e 51       		.byte	0x51
 2407 007f 12000000 		.4byte	.LVL15
 2408 0083 40000000 		.4byte	.LFE233
 2409 0087 0400     		.2byte	0x4
 2410 0089 F3       		.byte	0xf3
 2411 008a 01       		.uleb128 0x1
 2412 008b 51       		.byte	0x51
 2413 008c 9F       		.byte	0x9f
 2414 008d 00000000 		.4byte	0
 2415 0091 00000000 		.4byte	0
 2416              	.LLST4:
 2417 0095 0A000000 		.4byte	.LVL14
 2418 0099 14000000 		.4byte	.LVL16
 2419 009d 0100     		.2byte	0x1
 2420 009f 53       		.byte	0x53
 2421 00a0 14000000 		.4byte	.LVL16
 2422 00a4 22000000 		.4byte	.LVL17
 2423 00a8 0500     		.2byte	0x5
 2424 00aa F3       		.byte	0xf3
 2425 00ab 01       		.uleb128 0x1
 2426 00ac 51       		.byte	0x51
 2427 00ad 23       		.byte	0x23
 2428 00ae 08       		.uleb128 0x8
 2429 00af 00000000 		.4byte	0
 2430 00b3 00000000 		.4byte	0
 2431              		.section	.debug_aranges,"",%progbits
 2432 0000 3C000000 		.4byte	0x3c
 2433 0004 0200     		.2byte	0x2
 2434 0006 00000000 		.4byte	.Ldebug_info0
 2435 000a 04       		.byte	0x4
 2436 000b 00       		.byte	0
 2437 000c 0000     		.2byte	0
 2438 000e 0000     		.2byte	0
 2439 0010 00000000 		.4byte	.LFB230
 2440 0014 18000000 		.4byte	.LFE230-.LFB230
 2441 0018 00000000 		.4byte	.LFB231
 2442 001c 0C000000 		.4byte	.LFE231-.LFB231
 2443 0020 00000000 		.4byte	.LFB232
 2444 0024 48000000 		.4byte	.LFE232-.LFB232
 2445 0028 00000000 		.4byte	.LFB229
 2446 002c 3C000000 		.4byte	.LFE229-.LFB229
 2447 0030 00000000 		.4byte	.LFB233
 2448 0034 40000000 		.4byte	.LFE233-.LFB233
 2449 0038 00000000 		.4byte	0
ARM GAS  C:\Users\jo\AppData\Local\Temp\ccotli2K.s 			page 44


 2450 003c 00000000 		.4byte	0
 2451              		.section	.debug_ranges,"",%progbits
 2452              	.Ldebug_ranges0:
 2453 0000 00000000 		.4byte	.LBB16
 2454 0004 02000000 		.4byte	.LBE16
 2455 0008 04000000 		.4byte	.LBB19
 2456 000c 06000000 		.4byte	.LBE19
 2457 0010 00000000 		.4byte	0
 2458 0014 00000000 		.4byte	0
 2459 0018 06000000 		.4byte	.LBB20
 2460 001c 08000000 		.4byte	.LBE20
 2461 0020 0E000000 		.4byte	.LBB24
 2462 0024 36000000 		.4byte	.LBE24
 2463 0028 3A000000 		.4byte	.LBB25
 2464 002c 3C000000 		.4byte	.LBE25
 2465 0030 00000000 		.4byte	0
 2466 0034 00000000 		.4byte	0
 2467 0038 08000000 		.4byte	.LBB26
 2468 003c 0C000000 		.4byte	.LBE26
 2469 0040 0E000000 		.4byte	.LBB30
 2470 0044 12000000 		.4byte	.LBE30
 2471 0048 16000000 		.4byte	.LBB31
 2472 004c 22000000 		.4byte	.LBE31
 2473 0050 00000000 		.4byte	0
 2474 0054 00000000 		.4byte	0
 2475 0058 00000000 		.4byte	.LBB32
 2476 005c 02000000 		.4byte	.LBE32
 2477 0060 04000000 		.4byte	.LBB39
 2478 0064 06000000 		.4byte	.LBE39
 2479 0068 00000000 		.4byte	0
 2480 006c 00000000 		.4byte	0
 2481 0070 02000000 		.4byte	.LBB35
 2482 0074 04000000 		.4byte	.LBE35
 2483 0078 0A000000 		.4byte	.LBB40
 2484 007c 30000000 		.4byte	.LBE40
 2485 0080 34000000 		.4byte	.LBB41
 2486 0084 36000000 		.4byte	.LBE41
 2487 0088 00000000 		.4byte	0
 2488 008c 00000000 		.4byte	0
 2489 0090 00000000 		.4byte	.LFB230
 2490 0094 18000000 		.4byte	.LFE230
 2491 0098 00000000 		.4byte	.LFB231
 2492 009c 0C000000 		.4byte	.LFE231
 2493 00a0 00000000 		.4byte	.LFB232
 2494 00a4 48000000 		.4byte	.LFE232
 2495 00a8 00000000 		.4byte	.LFB229
 2496 00ac 3C000000 		.4byte	.LFE229
 2497 00b0 00000000 		.4byte	.LFB233
 2498 00b4 40000000 		.4byte	.LFE233
 2499 00b8 00000000 		.4byte	0
 2500 00bc 00000000 		.4byte	0
 2501              		.section	.debug_line,"",%progbits
 2502              	.Ldebug_line0:
 2503 0000 D7020000 		.section	.debug_str,"MS",%progbits,1
 2503      0200E501 
 2503      00000201 
 2503      FB0E0D00 
ARM GAS  C:\Users\jo\AppData\Local\Temp\ccotli2K.s 			page 45


 2503      01010101 
 2504              	.LASF119:
 2505 0000 74625F70 		.ascii	"tb_ptr\000"
 2505      747200
 2506              	.LASF53:
 2507 0007 72656164 		.ascii	"ready_list_t\000"
 2507      795F6C69 
 2507      73745F74 
 2507      00
 2508              	.LASF113:
 2509 0014 73655F74 		.ascii	"se_time\000"
 2509      696D6500 
 2510              	.LASF132:
 2511 001c 77747472 		.ascii	"wttrp\000"
 2511      7000
 2512              	.LASF129:
 2513 0022 7264796D 		.ascii	"rdymsg\000"
 2513      736700
 2514              	.LASF16:
 2515 0029 75696E74 		.ascii	"uint64_t\000"
 2515      36345F74 
 2515      00
 2516              	.LASF5:
 2517 0032 5F5F7569 		.ascii	"__uint8_t\000"
 2517      6E74385F 
 2517      7400
 2518              	.LASF112:
 2519 003c 706F7274 		.ascii	"port_intctx\000"
 2519      5F696E74 
 2519      63747800 
 2520              	.LASF52:
 2521 0048 63685F74 		.ascii	"ch_threads_queue\000"
 2521      68726561 
 2521      64735F71 
 2521      75657565 
 2521      00
 2522              	.LASF72:
 2523 0059 73797374 		.ascii	"system_debug_t\000"
 2523      656D5F64 
 2523      65627567 
 2523      5F7400
 2524              	.LASF154:
 2525 0068 433A5C55 		.ascii	"C:\\Users\\jo\\Documents\\GitHub\\ChibiOS\\demos\\S"
 2525      73657273 
 2525      5C6A6F5C 
 2525      446F6375 
 2525      6D656E74 
 2526 0094 544D3332 		.ascii	"TM32\\RT-STM32F407-DISCOVERY-uHttp\000"
 2526      5C52542D 
 2526      53544D33 
 2526      32463430 
 2526      372D4449 
 2527              	.LASF125:
 2528 00b6 776F7273 		.ascii	"worst\000"
 2528      7400
 2529              	.LASF128:
 2530 00bc 74696D65 		.ascii	"time_measurement_t\000"
ARM GAS  C:\Users\jo\AppData\Local\Temp\ccotli2K.s 			page 46


 2530      5F6D6561 
 2530      73757265 
 2530      6D656E74 
 2530      5F7400
 2531              	.LASF12:
 2532 00cf 6C6F6E67 		.ascii	"long long unsigned int\000"
 2532      206C6F6E 
 2532      6720756E 
 2532      7369676E 
 2532      65642069 
 2533              	.LASF121:
 2534 00e6 63685F74 		.ascii	"ch_trace_buffer_t\000"
 2534      72616365 
 2534      5F627566 
 2534      6665725F 
 2534      7400
 2535              	.LASF116:
 2536 00f8 73655F73 		.ascii	"se_state\000"
 2536      74617465 
 2536      00
 2537              	.LASF130:
 2538 0101 65786974 		.ascii	"exitcode\000"
 2538      636F6465 
 2538      00
 2539              	.LASF82:
 2540 010a 6D61696E 		.ascii	"mainthread\000"
 2540      74687265 
 2540      616400
 2541              	.LASF156:
 2542 0115 746D5F73 		.ascii	"tm_stop\000"
 2542      746F7000 
 2543              	.LASF69:
 2544 011d 76697274 		.ascii	"virtual_timers_list_t\000"
 2544      75616C5F 
 2544      74696D65 
 2544      72735F6C 
 2544      6973745F 
 2545              	.LASF157:
 2546 0133 6368544D 		.ascii	"chTMObjectInit\000"
 2546      4F626A65 
 2546      6374496E 
 2546      697400
 2547              	.LASF18:
 2548 0142 72747469 		.ascii	"rttime_t\000"
 2548      6D655F74 
 2548      00
 2549              	.LASF31:
 2550 014b 705F7072 		.ascii	"p_prio\000"
 2550      696F00
 2551              	.LASF149:
 2552 0152 746D7031 		.ascii	"tmp1\000"
 2552      00
 2553              	.LASF150:
 2554 0157 746D7032 		.ascii	"tmp2\000"
 2554      00
 2555              	.LASF10:
 2556 015c 6C6F6E67 		.ascii	"long long int\000"
ARM GAS  C:\Users\jo\AppData\Local\Temp\ccotli2K.s 			page 47


 2556      206C6F6E 
 2556      6720696E 
 2556      7400
 2557              	.LASF1:
 2558 016a 7369676E 		.ascii	"signed char\000"
 2558      65642063 
 2558      68617200 
 2559              	.LASF46:
 2560 0176 705F6D70 		.ascii	"p_mpool\000"
 2560      6F6F6C00 
 2561              	.LASF87:
 2562 017e 43504943 		.ascii	"CPICNT\000"
 2562      4E5400
 2563              	.LASF140:
 2564 0185 6D5F7175 		.ascii	"m_queue\000"
 2564      65756500 
 2565              	.LASF81:
 2566 018d 76746C69 		.ascii	"vtlist\000"
 2566      737400
 2567              	.LASF145:
 2568 0194 6368544D 		.ascii	"chTMStartMeasurementX\000"
 2568      53746172 
 2568      744D6561 
 2568      73757265 
 2568      6D656E74 
 2569              	.LASF146:
 2570 01aa 6368544D 		.ascii	"chTMStopMeasurementX\000"
 2570      53746F70 
 2570      4D656173 
 2570      7572656D 
 2570      656E7458 
 2571              	.LASF7:
 2572 01bf 6C6F6E67 		.ascii	"long int\000"
 2572      20696E74 
 2572      00
 2573              	.LASF20:
 2574 01c8 74737461 		.ascii	"tstate_t\000"
 2574      74655F74 
 2574      00
 2575              	.LASF114:
 2576 01d1 73655F74 		.ascii	"se_tp\000"
 2576      7000
 2577              	.LASF89:
 2578 01d7 534C4545 		.ascii	"SLEEPCNT\000"
 2578      50434E54 
 2578      00
 2579              	.LASF33:
 2580 01e0 705F6E65 		.ascii	"p_newer\000"
 2580      77657200 
 2581              	.LASF137:
 2582 01e8 735F7175 		.ascii	"s_queue\000"
 2582      65756500 
 2583              	.LASF118:
 2584 01f0 74625F73 		.ascii	"tb_size\000"
 2584      697A6500 
 2585              	.LASF58:
 2586 01f8 725F6E65 		.ascii	"r_newer\000"
ARM GAS  C:\Users\jo\AppData\Local\Temp\ccotli2K.s 			page 48


 2586      77657200 
 2587              	.LASF109:
 2588 0200 72656761 		.ascii	"regarm_t\000"
 2588      726D5F74 
 2588      00
 2589              	.LASF65:
 2590 0209 76745F70 		.ascii	"vt_prev\000"
 2590      72657600 
 2591              	.LASF73:
 2592 0211 63685F73 		.ascii	"ch_system_debug\000"
 2592      79737465 
 2592      6D5F6465 
 2592      62756700 
 2593              	.LASF144:
 2594 0221 6D757465 		.ascii	"mutex_t\000"
 2594      785F7400 
 2595              	.LASF76:
 2596 0229 6C6F636B 		.ascii	"lock_cnt\000"
 2596      5F636E74 
 2596      00
 2597              	.LASF83:
 2598 0232 69646C65 		.ascii	"idle_thread_wa\000"
 2598      5F746872 
 2598      6561645F 
 2598      776100
 2599              	.LASF25:
 2600 0241 636E745F 		.ascii	"cnt_t\000"
 2600      7400
 2601              	.LASF36:
 2602 0247 705F7374 		.ascii	"p_stklimit\000"
 2602      6B6C696D 
 2602      697400
 2603              	.LASF0:
 2604 0252 756E7369 		.ascii	"unsigned int\000"
 2604      676E6564 
 2604      20696E74 
 2604      00
 2605              	.LASF64:
 2606 025f 76745F6E 		.ascii	"vt_next\000"
 2606      65787400 
 2607              	.LASF102:
 2608 0267 4D41534B 		.ascii	"MASK2\000"
 2608      3200
 2609              	.LASF106:
 2610 026d 4D41534B 		.ascii	"MASK3\000"
 2610      3300
 2611              	.LASF133:
 2612 0273 77747365 		.ascii	"wtsemp\000"
 2612      6D7000
 2613              	.LASF41:
 2614 027a 705F6D73 		.ascii	"p_msgqueue\000"
 2614      67717565 
 2614      756500
 2615              	.LASF153:
 2616 0285 2E2E2F2E 		.ascii	"../../../os/rt/src/chtm.c\000"
 2616      2E2F2E2E 
 2616      2F6F732F 
ARM GAS  C:\Users\jo\AppData\Local\Temp\ccotli2K.s 			page 49


 2616      72742F73 
 2616      72632F63 
 2617              	.LASF54:
 2618 029f 63685F72 		.ascii	"ch_ready_list\000"
 2618      65616479 
 2618      5F6C6973 
 2618      7400
 2619              	.LASF138:
 2620 02ad 735F636E 		.ascii	"s_cnt\000"
 2620      7400
 2621              	.LASF124:
 2622 02b3 62657374 		.ascii	"best\000"
 2622      00
 2623              	.LASF4:
 2624 02b8 73686F72 		.ascii	"short unsigned int\000"
 2624      7420756E 
 2624      7369676E 
 2624      65642069 
 2624      6E7400
 2625              	.LASF49:
 2626 02cb 63685F74 		.ascii	"ch_thread\000"
 2626      68726561 
 2626      6400
 2627              	.LASF88:
 2628 02d5 45584343 		.ascii	"EXCCNT\000"
 2628      4E5400
 2629              	.LASF23:
 2630 02dc 6D73675F 		.ascii	"msg_t\000"
 2630      7400
 2631              	.LASF126:
 2632 02e2 6C617374 		.ascii	"last\000"
 2632      00
 2633              	.LASF26:
 2634 02e7 75636E74 		.ascii	"ucnt_t\000"
 2634      5F7400
 2635              	.LASF78:
 2636 02ee 63685F73 		.ascii	"ch_system_t\000"
 2636      79737465 
 2636      6D5F7400 
 2637              	.LASF120:
 2638 02fa 74625F62 		.ascii	"tb_buffer\000"
 2638      75666665 
 2638      7200
 2639              	.LASF44:
 2640 0304 705F6D74 		.ascii	"p_mtxlist\000"
 2640      786C6973 
 2640      7400
 2641              	.LASF24:
 2642 030e 6576656E 		.ascii	"eventmask_t\000"
 2642      746D6173 
 2642      6B5F7400 
 2643              	.LASF6:
 2644 031a 5F5F696E 		.ascii	"__int32_t\000"
 2644      7433325F 
 2644      7400
 2645              	.LASF148:
 2646 0324 6368544D 		.ascii	"chTMChainMeasurementToX\000"
ARM GAS  C:\Users\jo\AppData\Local\Temp\ccotli2K.s 			page 50


 2646      43686169 
 2646      6E4D6561 
 2646      73757265 
 2646      6D656E74 
 2647              	.LASF110:
 2648 033c 73746B61 		.ascii	"stkalign_t\000"
 2648      6C69676E 
 2648      5F7400
 2649              	.LASF152:
 2650 0347 474E5520 		.ascii	"GNU C 4.9.3 20141119 (release) [ARM/embedded-4_9-br"
 2650      4320342E 
 2650      392E3320 
 2650      32303134 
 2650      31313139 
 2651 037a 616E6368 		.ascii	"anch revision 218278] -mcpu=cortex-m4 -mno-thumb-in"
 2651      20726576 
 2651      6973696F 
 2651      6E203231 
 2651      38323738 
 2652 03ad 74657277 		.ascii	"terwork -mthumb -ggdb -O2 -fomit-frame-pointer -fal"
 2652      6F726B20 
 2652      2D6D7468 
 2652      756D6220 
 2652      2D676764 
 2653 03e0 69676E2D 		.ascii	"ign-functions=16 -ffunction-sections -fdata-section"
 2653      66756E63 
 2653      74696F6E 
 2653      733D3136 
 2653      202D6666 
 2654 0413 73202D66 		.ascii	"s -fno-common\000"
 2654      6E6F2D63 
 2654      6F6D6D6F 
 2654      6E00
 2655              	.LASF86:
 2656 0421 43594343 		.ascii	"CYCCNT\000"
 2656      4E5400
 2657              	.LASF40:
 2658 0428 705F7761 		.ascii	"p_waiting\000"
 2658      6974696E 
 2658      6700
 2659              	.LASF84:
 2660 0432 73697A65 		.ascii	"sizetype\000"
 2660      74797065 
 2660      00
 2661              	.LASF47:
 2662 043b 74687265 		.ascii	"thread_reference_t\000"
 2662      61645F72 
 2662      65666572 
 2662      656E6365 
 2662      5F7400
 2663              	.LASF123:
 2664 044e 746D5F63 		.ascii	"tm_calibration_t\000"
 2664      616C6962 
 2664      72617469 
 2664      6F6E5F74 
 2664      00
 2665              	.LASF70:
ARM GAS  C:\Users\jo\AppData\Local\Temp\ccotli2K.s 			page 51


 2666 045f 63685F76 		.ascii	"ch_virtual_timers_list\000"
 2666      69727475 
 2666      616C5F74 
 2666      696D6572 
 2666      735F6C69 
 2667              	.LASF117:
 2668 0476 63685F73 		.ascii	"ch_swc_event_t\000"
 2668      77635F65 
 2668      76656E74 
 2668      5F7400
 2669              	.LASF71:
 2670 0485 76745F6C 		.ascii	"vt_lasttime\000"
 2670      61737474 
 2670      696D6500 
 2671              	.LASF34:
 2672 0491 705F6F6C 		.ascii	"p_older\000"
 2672      64657200 
 2673              	.LASF57:
 2674 0499 725F6374 		.ascii	"r_ctx\000"
 2674      7800
 2675              	.LASF32:
 2676 049f 705F6374 		.ascii	"p_ctx\000"
 2676      7800
 2677              	.LASF97:
 2678 04a5 434F4D50 		.ascii	"COMP1\000"
 2678      3100
 2679              	.LASF101:
 2680 04ab 434F4D50 		.ascii	"COMP2\000"
 2680      3200
 2681              	.LASF105:
 2682 04b1 434F4D50 		.ascii	"COMP3\000"
 2682      3300
 2683              	.LASF60:
 2684 04b7 725F6375 		.ascii	"r_current\000"
 2684      7272656E 
 2684      7400
 2685              	.LASF59:
 2686 04c1 725F6F6C 		.ascii	"r_older\000"
 2686      64657200 
 2687              	.LASF11:
 2688 04c9 5F5F7569 		.ascii	"__uint64_t\000"
 2688      6E743634 
 2688      5F7400
 2689              	.LASF127:
 2690 04d4 63756D75 		.ascii	"cumulative\000"
 2690      6C617469 
 2690      766500
 2691              	.LASF21:
 2692 04df 74726566 		.ascii	"trefs_t\000"
 2692      735F7400 
 2693              	.LASF96:
 2694 04e7 52455345 		.ascii	"RESERVED0\000"
 2694      52564544 
 2694      3000
 2695              	.LASF100:
 2696 04f1 52455345 		.ascii	"RESERVED1\000"
 2696      52564544 
ARM GAS  C:\Users\jo\AppData\Local\Temp\ccotli2K.s 			page 52


 2696      3100
 2697              	.LASF104:
 2698 04fb 52455345 		.ascii	"RESERVED2\000"
 2698      52564544 
 2698      3200
 2699              	.LASF62:
 2700 0505 76697274 		.ascii	"virtual_timer_t\000"
 2700      75616C5F 
 2700      74696D65 
 2700      725F7400 
 2701              	.LASF30:
 2702 0515 705F7072 		.ascii	"p_prev\000"
 2702      657600
 2703              	.LASF22:
 2704 051c 74707269 		.ascii	"tprio_t\000"
 2704      6F5F7400 
 2705              	.LASF92:
 2706 0524 50435352 		.ascii	"PCSR\000"
 2706      00
 2707              	.LASF94:
 2708 0529 4D41534B 		.ascii	"MASK0\000"
 2708      3000
 2709              	.LASF98:
 2710 052f 4D41534B 		.ascii	"MASK1\000"
 2710      3100
 2711              	.LASF14:
 2712 0535 696E7433 		.ascii	"int32_t\000"
 2712      325F7400 
 2713              	.LASF2:
 2714 053d 756E7369 		.ascii	"unsigned char\000"
 2714      676E6564 
 2714      20636861 
 2714      7200
 2715              	.LASF151:
 2716 054b 49544D5F 		.ascii	"ITM_RxBuffer\000"
 2716      52784275 
 2716      66666572 
 2716      00
 2717              	.LASF95:
 2718 0558 46554E43 		.ascii	"FUNCTION0\000"
 2718      54494F4E 
 2718      3000
 2719              	.LASF99:
 2720 0562 46554E43 		.ascii	"FUNCTION1\000"
 2720      54494F4E 
 2720      3100
 2721              	.LASF103:
 2722 056c 46554E43 		.ascii	"FUNCTION2\000"
 2722      54494F4E 
 2722      3200
 2723              	.LASF107:
 2724 0576 46554E43 		.ascii	"FUNCTION3\000"
 2724      54494F4E 
 2724      3300
 2725              	.LASF3:
 2726 0580 73686F72 		.ascii	"short int\000"
 2726      7420696E 
ARM GAS  C:\Users\jo\AppData\Local\Temp\ccotli2K.s 			page 53


 2726      7400
 2727              	.LASF37:
 2728 058a 705F7374 		.ascii	"p_state\000"
 2728      61746500 
 2729              	.LASF56:
 2730 0592 725F7072 		.ascii	"r_prio\000"
 2730      696F00
 2731              	.LASF135:
 2732 0599 65776D61 		.ascii	"ewmask\000"
 2732      736B00
 2733              	.LASF29:
 2734 05a0 705F6E65 		.ascii	"p_next\000"
 2734      787400
 2735              	.LASF19:
 2736 05a7 746D6F64 		.ascii	"tmode_t\000"
 2736      655F7400 
 2737              	.LASF38:
 2738 05af 705F666C 		.ascii	"p_flags\000"
 2738      61677300 
 2739              	.LASF79:
 2740 05b7 63685F73 		.ascii	"ch_system\000"
 2740      79737465 
 2740      6D00
 2741              	.LASF63:
 2742 05c1 63685F76 		.ascii	"ch_virtual_timer\000"
 2742      69727475 
 2742      616C5F74 
 2742      696D6572 
 2742      00
 2743              	.LASF136:
 2744 05d2 63685F73 		.ascii	"ch_semaphore\000"
 2744      656D6170 
 2744      686F7265 
 2744      00
 2745              	.LASF43:
 2746 05df 705F6570 		.ascii	"p_epending\000"
 2746      656E6469 
 2746      6E6700
 2747              	.LASF90:
 2748 05ea 4C535543 		.ascii	"LSUCNT\000"
 2748      4E5400
 2749              	.LASF15:
 2750 05f1 75696E74 		.ascii	"uint32_t\000"
 2750      33325F74 
 2750      00
 2751              	.LASF134:
 2752 05fa 77746D74 		.ascii	"wtmtxp\000"
 2752      787000
 2753              	.LASF55:
 2754 0601 725F7175 		.ascii	"r_queue\000"
 2754      65756500 
 2755              	.LASF66:
 2756 0609 76745F64 		.ascii	"vt_delta\000"
 2756      656C7461 
 2756      00
 2757              	.LASF50:
 2758 0612 63685F74 		.ascii	"ch_threads_list\000"
ARM GAS  C:\Users\jo\AppData\Local\Temp\ccotli2K.s 			page 54


 2758      68726561 
 2758      64735F6C 
 2758      69737400 
 2759              	.LASF9:
 2760 0622 6C6F6E67 		.ascii	"long unsigned int\000"
 2760      20756E73 
 2760      69676E65 
 2760      6420696E 
 2760      7400
 2761              	.LASF143:
 2762 0634 63686172 		.ascii	"char\000"
 2762      00
 2763              	.LASF28:
 2764 0639 74687265 		.ascii	"thread_t\000"
 2764      61645F74 
 2764      00
 2765              	.LASF155:
 2766 0642 706F7274 		.ascii	"port_rt_get_counter_value\000"
 2766      5F72745F 
 2766      6765745F 
 2766      636F756E 
 2766      7465725F 
 2767              	.LASF142:
 2768 065c 6D5F6E65 		.ascii	"m_next\000"
 2768      787400
 2769              	.LASF27:
 2770 0663 73797374 		.ascii	"systime_t\000"
 2770      696D655F 
 2770      7400
 2771              	.LASF45:
 2772 066d 705F7265 		.ascii	"p_realprio\000"
 2772      616C7072 
 2772      696F00
 2773              	.LASF61:
 2774 0678 76746675 		.ascii	"vtfunc_t\000"
 2774      6E635F74 
 2774      00
 2775              	.LASF8:
 2776 0681 5F5F7569 		.ascii	"__uint32_t\000"
 2776      6E743332 
 2776      5F7400
 2777              	.LASF74:
 2778 068c 70616E69 		.ascii	"panic_msg\000"
 2778      635F6D73 
 2778      6700
 2779              	.LASF122:
 2780 0696 6F666673 		.ascii	"offset\000"
 2780      657400
 2781              	.LASF111:
 2782 069d 636F6E74 		.ascii	"context\000"
 2782      65787400 
 2783              	.LASF108:
 2784 06a5 4457545F 		.ascii	"DWT_Type\000"
 2784      54797065 
 2784      00
 2785              	.LASF17:
 2786 06ae 7274636E 		.ascii	"rtcnt_t\000"
ARM GAS  C:\Users\jo\AppData\Local\Temp\ccotli2K.s 			page 55


 2786      745F7400 
 2787              	.LASF85:
 2788 06b6 4354524C 		.ascii	"CTRL\000"
 2788      00
 2789              	.LASF68:
 2790 06bb 76745F70 		.ascii	"vt_par\000"
 2790      617200
 2791              	.LASF93:
 2792 06c2 434F4D50 		.ascii	"COMP0\000"
 2792      3000
 2793              	.LASF51:
 2794 06c8 74687265 		.ascii	"threads_queue_t\000"
 2794      6164735F 
 2794      71756575 
 2794      655F7400 
 2795              	.LASF139:
 2796 06d8 63685F6D 		.ascii	"ch_mutex\000"
 2796      75746578 
 2796      00
 2797              	.LASF39:
 2798 06e1 705F7265 		.ascii	"p_refs\000"
 2798      667300
 2799              	.LASF75:
 2800 06e8 6973725F 		.ascii	"isr_cnt\000"
 2800      636E7400 
 2801              	.LASF80:
 2802 06f0 726C6973 		.ascii	"rlist\000"
 2802      7400
 2803              	.LASF13:
 2804 06f6 75696E74 		.ascii	"uint8_t\000"
 2804      385F7400 
 2805              	.LASF91:
 2806 06fe 464F4C44 		.ascii	"FOLDCNT\000"
 2806      434E5400 
 2807              	.LASF131:
 2808 0706 77746F62 		.ascii	"wtobjp\000"
 2808      6A7000
 2809              	.LASF35:
 2810 070d 705F6E61 		.ascii	"p_name\000"
 2810      6D6500
 2811              	.LASF48:
 2812 0714 74687265 		.ascii	"threads_list_t\000"
 2812      6164735F 
 2812      6C697374 
 2812      5F7400
 2813              	.LASF77:
 2814 0723 74726163 		.ascii	"trace_buffer\000"
 2814      655F6275 
 2814      66666572 
 2814      00
 2815              	.LASF42:
 2816 0730 705F6D73 		.ascii	"p_msg\000"
 2816      6700
 2817              	.LASF141:
 2818 0736 6D5F6F77 		.ascii	"m_owner\000"
 2818      6E657200 
 2819              	.LASF115:
ARM GAS  C:\Users\jo\AppData\Local\Temp\ccotli2K.s 			page 56


 2820 073e 73655F77 		.ascii	"se_wtobjp\000"
 2820      746F626A 
 2820      7000
 2821              	.LASF67:
 2822 0748 76745F66 		.ascii	"vt_func\000"
 2822      756E6300 
 2823              	.LASF147:
 2824 0750 5F746D5F 		.ascii	"_tm_init\000"
 2824      696E6974 
 2824      00
 2825              		.ident	"GCC: (GNU Tools for ARM Embedded Processors) 4.9.3 20141119 (release) [ARM/embedded-4_9-br
ARM GAS  C:\Users\jo\AppData\Local\Temp\ccotli2K.s 			page 57


DEFINED SYMBOLS
                            *ABS*:00000000 chtm.c
C:\Users\jo\AppData\Local\Temp\ccotli2K.s:19     .text.chTMObjectInit:00000000 $t
C:\Users\jo\AppData\Local\Temp\ccotli2K.s:25     .text.chTMObjectInit:00000000 chTMObjectInit
C:\Users\jo\AppData\Local\Temp\ccotli2K.s:51     .text.chTMStartMeasurementX:00000000 $t
C:\Users\jo\AppData\Local\Temp\ccotli2K.s:57     .text.chTMStartMeasurementX:00000000 chTMStartMeasurementX
C:\Users\jo\AppData\Local\Temp\ccotli2K.s:79     .text.chTMStartMeasurementX:00000008 $d
C:\Users\jo\AppData\Local\Temp\ccotli2K.s:84     .text.chTMStopMeasurementX:00000000 $t
C:\Users\jo\AppData\Local\Temp\ccotli2K.s:90     .text.chTMStopMeasurementX:00000000 chTMStopMeasurementX
C:\Users\jo\AppData\Local\Temp\ccotli2K.s:194    .text.chTMStopMeasurementX:00000040 $d
C:\Users\jo\AppData\Local\Temp\ccotli2K.s:200    .text._tm_init:00000000 $t
C:\Users\jo\AppData\Local\Temp\ccotli2K.s:206    .text._tm_init:00000000 _tm_init
C:\Users\jo\AppData\Local\Temp\ccotli2K.s:277    .text._tm_init:00000038 $d
C:\Users\jo\AppData\Local\Temp\ccotli2K.s:282    .text.chTMChainMeasurementToX:00000000 $t
C:\Users\jo\AppData\Local\Temp\ccotli2K.s:288    .text.chTMChainMeasurementToX:00000000 chTMChainMeasurementToX
C:\Users\jo\AppData\Local\Temp\ccotli2K.s:385    .text.chTMChainMeasurementToX:0000003c $d
                     .debug_frame:00000010 $d
C:\Users\jo\AppData\Local\Temp\ccotli2K.s:83     .text.chTMStartMeasurementX:0000000c $t
C:\Users\jo\AppData\Local\Temp\ccotli2K.s:199    .text.chTMStopMeasurementX:00000048 $t
C:\Users\jo\AppData\Local\Temp\ccotli2K.s:281    .text._tm_init:0000003c $t

UNDEFINED SYMBOLS
ch
