ARM GAS  C:\Users\jo\AppData\Local\Temp\cclGmtUV.s 			page 1


   1              		.syntax unified
   2              		.cpu cortex-m4
   3              		.fpu softvfp
   4              		.eabi_attribute 20, 1
   5              		.eabi_attribute 21, 1
   6              		.eabi_attribute 23, 3
   7              		.eabi_attribute 24, 1
   8              		.eabi_attribute 25, 1
   9              		.eabi_attribute 26, 1
  10              		.eabi_attribute 30, 2
  11              		.eabi_attribute 34, 1
  12              		.eabi_attribute 18, 4
  13              		.thumb
  14              		.file	"cipher.c"
  15              		.text
  16              	.Ltext0:
  17              		.cfi_sections	.debug_frame
  18              		.section	.text.add_pkcs_padding,"ax",%progbits
  19              		.align	2
  20              		.p2align 4,,15
  21              		.thumb
  22              		.thumb_func
  23              		.type	add_pkcs_padding, %function
  24              	add_pkcs_padding:
  25              	.LFB21:
  26              		.file 1 "../../../ext/mbedtls-1.3.11/library/cipher.c"
  27              		.loc 1 445 0
  28              		.cfi_startproc
  29              		@ args = 0, pretend = 0, frame = 0
  30              		@ frame_needed = 0, uses_anonymous_args = 0
  31              		@ link register save eliminated.
  32              	.LVL0:
  33              		.loc 1 449 0
  34 0000 891A     		subs	r1, r1, r2
  35              	.LVL1:
  36 0002 0BD0     		beq	.L8
  37              		.loc 1 445 0
  38 0004 30B4     		push	{r4, r5}
  39              		.cfi_def_cfa_offset 8
  40              		.cfi_offset 4, -8
  41              		.cfi_offset 5, -4
  42              		.loc 1 449 0
  43 0006 0024     		movs	r4, #0
  44 0008 2346     		mov	r3, r4
  45 000a CDB2     		uxtb	r5, r1
  46              	.LVL2:
  47              	.L3:
  48              		.loc 1 449 0 is_stmt 0 discriminator 3
  49 000c 0133     		adds	r3, r3, #1
  50              	.LVL3:
  51              		.loc 1 450 0 is_stmt 1 discriminator 3
  52 000e 0444     		add	r4, r4, r0
  53              		.loc 1 449 0 discriminator 3
  54 0010 DBB2     		uxtb	r3, r3
  55              	.LVL4:
  56 0012 9942     		cmp	r1, r3
  57              		.loc 1 450 0 discriminator 3
ARM GAS  C:\Users\jo\AppData\Local\Temp\cclGmtUV.s 			page 2


  58 0014 A554     		strb	r5, [r4, r2]
  59              		.loc 1 449 0 discriminator 3
  60 0016 1C46     		mov	r4, r3
  61 0018 F8D8     		bhi	.L3
  62              		.loc 1 451 0
  63 001a 30BC     		pop	{r4, r5}
  64              		.cfi_restore 5
  65              		.cfi_restore 4
  66              		.cfi_def_cfa_offset 0
  67              	.LVL5:
  68              	.L8:
  69 001c 7047     		bx	lr
  70              		.cfi_endproc
  71              	.LFE21:
  72              		.size	add_pkcs_padding, .-add_pkcs_padding
  73 001e 00BF     		.section	.text.get_pkcs_padding,"ax",%progbits
  74              		.align	2
  75              		.p2align 4,,15
  76              		.thumb
  77              		.thumb_func
  78              		.type	get_pkcs_padding, %function
  79              	get_pkcs_padding:
  80              	.LFB22:
  81              		.loc 1 455 0
  82              		.cfi_startproc
  83              		@ args = 0, pretend = 0, frame = 0
  84              		@ frame_needed = 0, uses_anonymous_args = 0
  85              		@ link register save eliminated.
  86              	.LVL6:
  87              		.loc 1 459 0
  88 0000 20B3     		cbz	r0, .L15
  89              		.loc 1 459 0 is_stmt 0 discriminator 1
  90 0002 1AB3     		cbz	r2, .L15
  91              		.loc 1 455 0 is_stmt 1
  92 0004 F0B4     		push	{r4, r5, r6, r7}
  93              		.cfi_def_cfa_offset 16
  94              		.cfi_offset 4, -16
  95              		.cfi_offset 5, -12
  96              		.cfi_offset 6, -8
  97              		.cfi_offset 7, -4
  98              		.loc 1 462 0
  99 0006 4318     		adds	r3, r0, r1
 100 0008 13F8016C 		ldrb	r6, [r3, #-1]	@ zero_extendqisi2
 101              	.LVL7:
 102              		.loc 1 467 0
 103 000c B6FA86F4 		clz	r4, r6
 104              		.loc 1 463 0
 105 0010 8F1B     		subs	r7, r1, r6
 106              		.loc 1 467 0
 107 0012 6409     		lsrs	r4, r4, #5
 108 0014 B142     		cmp	r1, r6
 109 0016 38BF     		it	cc
 110 0018 44F00104 		orrcc	r4, r4, #1
 111              		.loc 1 463 0
 112 001c 1760     		str	r7, [r2]
 113              	.LVL8:
 114              		.loc 1 472 0
ARM GAS  C:\Users\jo\AppData\Local\Temp\cclGmtUV.s 			page 3


 115 001e 79B1     		cbz	r1, .L12
 116 0020 0138     		subs	r0, r0, #1
 117              	.LVL9:
 118 0022 0025     		movs	r5, #0
 119              	.LVL10:
 120              	.L13:
 121              		.loc 1 473 0 discriminator 3
 122 0024 10F8012F 		ldrb	r2, [r0, #1]!	@ zero_extendqisi2
 123 0028 BD42     		cmp	r5, r7
 124 002a 34BF     		ite	cc
 125 002c 0023     		movcc	r3, #0
 126 002e 0123     		movcs	r3, #1
 127 0030 7240     		eors	r2, r2, r6
 128 0032 13FB02F3 		smulbb	r3, r3, r2
 129              		.loc 1 472 0 discriminator 3
 130 0036 0135     		adds	r5, r5, #1
 131              	.LVL11:
 132              		.loc 1 473 0 discriminator 3
 133 0038 1C43     		orrs	r4, r4, r3
 134              	.LVL12:
 135              		.loc 1 472 0 discriminator 3
 136 003a 8D42     		cmp	r5, r1
 137              		.loc 1 473 0 discriminator 3
 138 003c E4B2     		uxtb	r4, r4
 139              	.LVL13:
 140              		.loc 1 472 0 discriminator 3
 141 003e F1D1     		bne	.L13
 142              	.LVL14:
 143              	.L12:
 144              		.loc 1 475 0
 145 0040 002C     		cmp	r4, #0
 146 0042 0348     		ldr	r0, .L23
 147              		.loc 1 476 0
 148 0044 F0BC     		pop	{r4, r5, r6, r7}
 149              		.cfi_restore 7
 150              		.cfi_restore 6
 151              		.cfi_restore 5
 152              		.cfi_restore 4
 153              		.cfi_def_cfa_offset 0
 154              	.LVL15:
 155              		.loc 1 475 0
 156 0046 08BF     		it	eq
 157 0048 0020     		moveq	r0, #0
 158              		.loc 1 476 0
 159 004a 7047     		bx	lr
 160              	.LVL16:
 161              	.L15:
 162              		.loc 1 460 0
 163 004c 0148     		ldr	r0, .L23+4
 164              	.LVL17:
 165 004e 7047     		bx	lr
 166              	.L24:
 167              		.align	2
 168              	.L23:
 169 0050 009EFFFF 		.word	-25088
 170 0054 009FFFFF 		.word	-24832
 171              		.cfi_endproc
ARM GAS  C:\Users\jo\AppData\Local\Temp\cclGmtUV.s 			page 4


 172              	.LFE22:
 173              		.size	get_pkcs_padding, .-get_pkcs_padding
 174 0058 AFF30080 		.section	.text.add_one_and_zeros_padding,"ax",%progbits
 174      AFF30080 
 175              		.align	2
 176              		.p2align 4,,15
 177              		.thumb
 178              		.thumb_func
 179              		.type	add_one_and_zeros_padding, %function
 180              	add_one_and_zeros_padding:
 181              	.LFB23:
 182              		.loc 1 485 0
 183              		.cfi_startproc
 184              		@ args = 0, pretend = 0, frame = 0
 185              		@ frame_needed = 0, uses_anonymous_args = 0
 186              		@ link register save eliminated.
 187              	.LVL18:
 188              		.loc 1 486 0
 189 0000 891A     		subs	r1, r1, r2
 190              	.LVL19:
 191              		.loc 1 489 0
 192 0002 8023     		movs	r3, #128
 193              		.loc 1 490 0
 194 0004 0129     		cmp	r1, #1
 195              		.loc 1 489 0
 196 0006 8354     		strb	r3, [r0, r2]
 197              	.LVL20:
 198              		.loc 1 490 0
 199 0008 0BD9     		bls	.L32
 200              		.loc 1 485 0
 201 000a 30B4     		push	{r4, r5}
 202              		.cfi_def_cfa_offset 8
 203              		.cfi_offset 4, -8
 204              		.cfi_offset 5, -4
 205              		.loc 1 490 0
 206 000c 0124     		movs	r4, #1
 207 000e 2346     		mov	r3, r4
 208              		.loc 1 491 0
 209 0010 0025     		movs	r5, #0
 210              	.LVL21:
 211              	.L26:
 212              		.loc 1 490 0 discriminator 3
 213 0012 0133     		adds	r3, r3, #1
 214              	.LVL22:
 215              		.loc 1 491 0 discriminator 3
 216 0014 0444     		add	r4, r4, r0
 217              		.loc 1 490 0 discriminator 3
 218 0016 DBB2     		uxtb	r3, r3
 219              	.LVL23:
 220 0018 9942     		cmp	r1, r3
 221              		.loc 1 491 0 discriminator 3
 222 001a A554     		strb	r5, [r4, r2]
 223              		.loc 1 490 0 discriminator 3
 224 001c 1C46     		mov	r4, r3
 225 001e F8D8     		bhi	.L26
 226              		.loc 1 492 0
 227 0020 30BC     		pop	{r4, r5}
ARM GAS  C:\Users\jo\AppData\Local\Temp\cclGmtUV.s 			page 5


 228              		.cfi_restore 5
 229              		.cfi_restore 4
 230              		.cfi_def_cfa_offset 0
 231              	.LVL24:
 232              	.L32:
 233 0022 7047     		bx	lr
 234              		.cfi_endproc
 235              	.LFE23:
 236              		.size	add_one_and_zeros_padding, .-add_one_and_zeros_padding
 237 0024 AFF30080 		.section	.text.add_zeros_and_len_padding,"ax",%progbits
 237      AFF30080 
 237      AFF30080 
 238              		.align	2
 239              		.p2align 4,,15
 240              		.thumb
 241              		.thumb_func
 242              		.type	add_zeros_and_len_padding, %function
 243              	add_zeros_and_len_padding:
 244              	.LFB25:
 245              		.loc 1 524 0
 246              		.cfi_startproc
 247              		@ args = 0, pretend = 0, frame = 0
 248              		@ frame_needed = 0, uses_anonymous_args = 0
 249              		@ link register save eliminated.
 250              	.LVL25:
 251 0000 70B4     		push	{r4, r5, r6}
 252              		.cfi_def_cfa_offset 12
 253              		.cfi_offset 4, -12
 254              		.cfi_offset 5, -8
 255              		.cfi_offset 6, -4
 256              		.loc 1 525 0
 257 0002 8D1A     		subs	r5, r1, r2
 258              	.LVL26:
 259              		.loc 1 528 0
 260 0004 012D     		cmp	r5, #1
 261 0006 0AD9     		bls	.L36
 262 0008 0124     		movs	r4, #1
 263 000a 013A     		subs	r2, r2, #1
 264              	.LVL27:
 265 000c 2346     		mov	r3, r4
 266              		.loc 1 529 0
 267 000e 0026     		movs	r6, #0
 268              	.LVL28:
 269              	.L35:
 270              		.loc 1 528 0 discriminator 3
 271 0010 0133     		adds	r3, r3, #1
 272              	.LVL29:
 273              		.loc 1 529 0 discriminator 3
 274 0012 0444     		add	r4, r4, r0
 275              		.loc 1 528 0 discriminator 3
 276 0014 DBB2     		uxtb	r3, r3
 277              	.LVL30:
 278 0016 9D42     		cmp	r5, r3
 279              		.loc 1 529 0 discriminator 3
 280 0018 A654     		strb	r6, [r4, r2]
 281              		.loc 1 528 0 discriminator 3
 282 001a 1C46     		mov	r4, r3
ARM GAS  C:\Users\jo\AppData\Local\Temp\cclGmtUV.s 			page 6


 283 001c F8D8     		bhi	.L35
 284              	.LVL31:
 285              	.L36:
 286              		.loc 1 530 0
 287 001e 0844     		add	r0, r0, r1
 288              	.LVL32:
 289 0020 00F8015C 		strb	r5, [r0, #-1]
 290              		.loc 1 531 0
 291 0024 70BC     		pop	{r4, r5, r6}
 292              		.cfi_restore 6
 293              		.cfi_restore 5
 294              		.cfi_restore 4
 295              		.cfi_def_cfa_offset 0
 296              	.LVL33:
 297 0026 7047     		bx	lr
 298              		.cfi_endproc
 299              	.LFE25:
 300              		.size	add_zeros_and_len_padding, .-add_zeros_and_len_padding
 301 0028 AFF30080 		.section	.text.get_zeros_and_len_padding,"ax",%progbits
 301      AFF30080 
 302              		.align	2
 303              		.p2align 4,,15
 304              		.thumb
 305              		.thumb_func
 306              		.type	get_zeros_and_len_padding, %function
 307              	get_zeros_and_len_padding:
 308              	.LFB26:
 309              		.loc 1 535 0
 310              		.cfi_startproc
 311              		@ args = 0, pretend = 0, frame = 0
 312              		@ frame_needed = 0, uses_anonymous_args = 0
 313              		@ link register save eliminated.
 314              	.LVL34:
 315              		.loc 1 539 0
 316 0000 18B3     		cbz	r0, .L45
 317              		.loc 1 539 0 is_stmt 0 discriminator 1
 318 0002 12B3     		cbz	r2, .L45
 319              		.loc 1 535 0 is_stmt 1
 320 0004 70B4     		push	{r4, r5, r6}
 321              		.cfi_def_cfa_offset 12
 322              		.cfi_offset 4, -12
 323              		.cfi_offset 5, -8
 324              		.cfi_offset 6, -4
 325              		.loc 1 542 0
 326 0006 4D1E     		subs	r5, r1, #1
 327 0008 445D     		ldrb	r4, [r0, r5]	@ zero_extendqisi2
 328              	.LVL35:
 329              		.loc 1 547 0
 330 000a B4FA84F3 		clz	r3, r4
 331              		.loc 1 543 0
 332 000e 0E1B     		subs	r6, r1, r4
 333              		.loc 1 547 0
 334 0010 5B09     		lsrs	r3, r3, #5
 335 0012 A142     		cmp	r1, r4
 336 0014 2CBF     		ite	cs
 337 0016 1946     		movcs	r1, r3
 338 0018 43F00101 		orrcc	r1, r3, #1
ARM GAS  C:\Users\jo\AppData\Local\Temp\cclGmtUV.s 			page 7


 339              	.LVL36:
 340              		.loc 1 543 0
 341 001c 1660     		str	r6, [r2]
 342              	.LVL37:
 343              		.loc 1 551 0
 344 001e 75B1     		cbz	r5, .L42
 345 0020 0138     		subs	r0, r0, #1
 346              	.LVL38:
 347 0022 0023     		movs	r3, #0
 348              	.LVL39:
 349              	.L43:
 350              		.loc 1 552 0 discriminator 3
 351 0024 B342     		cmp	r3, r6
 352 0026 10F8012F 		ldrb	r2, [r0, #1]!	@ zero_extendqisi2
 353 002a 34BF     		ite	cc
 354 002c 0024     		movcc	r4, #0
 355 002e 0124     		movcs	r4, #1
 356 0030 14FB02F2 		smulbb	r2, r4, r2
 357              		.loc 1 551 0 discriminator 3
 358 0034 0133     		adds	r3, r3, #1
 359              	.LVL40:
 360              		.loc 1 552 0 discriminator 3
 361 0036 1143     		orrs	r1, r1, r2
 362              	.LVL41:
 363              		.loc 1 551 0 discriminator 3
 364 0038 9D42     		cmp	r5, r3
 365              		.loc 1 552 0 discriminator 3
 366 003a C9B2     		uxtb	r1, r1
 367              	.LVL42:
 368              		.loc 1 551 0 discriminator 3
 369 003c F2D1     		bne	.L43
 370              	.LVL43:
 371              	.L42:
 372              		.loc 1 554 0
 373 003e 0029     		cmp	r1, #0
 374 0040 0348     		ldr	r0, .L53
 375              		.loc 1 555 0
 376 0042 70BC     		pop	{r4, r5, r6}
 377              		.cfi_restore 6
 378              		.cfi_restore 5
 379              		.cfi_restore 4
 380              		.cfi_def_cfa_offset 0
 381              	.LVL44:
 382              		.loc 1 554 0
 383 0044 08BF     		it	eq
 384 0046 0020     		moveq	r0, #0
 385              		.loc 1 555 0
 386 0048 7047     		bx	lr
 387              	.LVL45:
 388              	.L45:
 389              		.loc 1 540 0
 390 004a 0248     		ldr	r0, .L53+4
 391              	.LVL46:
 392 004c 7047     		bx	lr
 393              	.L54:
 394 004e 00BF     		.align	2
 395              	.L53:
ARM GAS  C:\Users\jo\AppData\Local\Temp\cclGmtUV.s 			page 8


 396 0050 009EFFFF 		.word	-25088
 397 0054 009FFFFF 		.word	-24832
 398              		.cfi_endproc
 399              	.LFE26:
 400              		.size	get_zeros_and_len_padding, .-get_zeros_and_len_padding
 401 0058 AFF30080 		.section	.text.add_zeros_padding,"ax",%progbits
 401      AFF30080 
 402              		.align	2
 403              		.p2align 4,,15
 404              		.thumb
 405              		.thumb_func
 406              		.type	add_zeros_padding, %function
 407              	add_zeros_padding:
 408              	.LFB27:
 409              		.loc 1 564 0
 410              		.cfi_startproc
 411              		@ args = 0, pretend = 0, frame = 0
 412              		@ frame_needed = 0, uses_anonymous_args = 0
 413              		@ link register save eliminated.
 414              	.LVL47:
 415              		.loc 1 567 0
 416 0000 8A42     		cmp	r2, r1
 417 0002 06D2     		bcs	.L55
 418 0004 0244     		add	r2, r2, r0
 419              	.LVL48:
 420 0006 0144     		add	r1, r1, r0
 421              	.LVL49:
 422              		.loc 1 568 0
 423 0008 0023     		movs	r3, #0
 424              	.LVL50:
 425              	.L57:
 426              		.loc 1 568 0 is_stmt 0 discriminator 3
 427 000a 02F8013B 		strb	r3, [r2], #1
 428              	.LVL51:
 429              		.loc 1 567 0 is_stmt 1 discriminator 3
 430 000e 8A42     		cmp	r2, r1
 431 0010 FBD1     		bne	.L57
 432              	.LVL52:
 433              	.L55:
 434 0012 7047     		bx	lr
 435              		.cfi_endproc
 436              	.LFE27:
 437              		.size	add_zeros_padding, .-add_zeros_padding
 438 0014 AFF30080 		.section	.text.get_no_padding,"ax",%progbits
 438      AFF30080 
 438      AFF30080 
 439              		.align	2
 440              		.p2align 4,,15
 441              		.thumb
 442              		.thumb_func
 443              		.type	get_no_padding, %function
 444              	get_no_padding:
 445              	.LFB29:
 446              		.loc 1 600 0
 447              		.cfi_startproc
 448              		@ args = 0, pretend = 0, frame = 0
 449              		@ frame_needed = 0, uses_anonymous_args = 0
ARM GAS  C:\Users\jo\AppData\Local\Temp\cclGmtUV.s 			page 9


 450              		@ link register save eliminated.
 451              	.LVL53:
 452              		.loc 1 601 0
 453 0000 18B1     		cbz	r0, .L63
 454              		.loc 1 601 0 is_stmt 0 discriminator 1
 455 0002 12B1     		cbz	r2, .L63
 456              		.loc 1 604 0 is_stmt 1
 457 0004 1160     		str	r1, [r2]
 458              		.loc 1 606 0
 459 0006 0020     		movs	r0, #0
 460              	.LVL54:
 461 0008 7047     		bx	lr
 462              	.LVL55:
 463              	.L63:
 464              		.loc 1 602 0
 465 000a 0148     		ldr	r0, .L64
 466              	.LVL56:
 467              		.loc 1 607 0
 468 000c 7047     		bx	lr
 469              	.L65:
 470 000e 00BF     		.align	2
 471              	.L64:
 472 0010 009FFFFF 		.word	-24832
 473              		.cfi_endproc
 474              	.LFE29:
 475              		.size	get_no_padding, .-get_no_padding
 476 0014 AFF30080 		.section	.text.get_one_and_zeros_padding,"ax",%progbits
 476      AFF30080 
 476      AFF30080 
 477              		.align	2
 478              		.p2align 4,,15
 479              		.thumb
 480              		.thumb_func
 481              		.type	get_one_and_zeros_padding, %function
 482              	get_one_and_zeros_padding:
 483              	.LFB24:
 484              		.loc 1 496 0
 485              		.cfi_startproc
 486              		@ args = 0, pretend = 0, frame = 0
 487              		@ frame_needed = 0, uses_anonymous_args = 0
 488              		@ link register save eliminated.
 489              	.LVL57:
 490              		.loc 1 500 0
 491 0000 30B3     		cbz	r0, .L72
 492              		.loc 1 500 0 is_stmt 0 discriminator 1
 493 0002 2AB3     		cbz	r2, .L72
 494              	.LVL58:
 495              		.loc 1 496 0 is_stmt 1
 496 0004 F0B4     		push	{r4, r5, r6, r7}
 497              		.cfi_def_cfa_offset 16
 498              		.cfi_offset 4, -16
 499              		.cfi_offset 5, -12
 500              		.cfi_offset 6, -8
 501              		.cfi_offset 7, -4
 502              		.loc 1 504 0
 503 0006 0026     		movs	r6, #0
 504 0008 1660     		str	r6, [r2]
ARM GAS  C:\Users\jo\AppData\Local\Temp\cclGmtUV.s 			page 10


 505              	.LVL59:
 506              	.LBB40:
 507              	.LBB41:
 508              		.loc 1 505 0
 509 000a F1B1     		cbz	r1, .L70
 510 000c 4718     		adds	r7, r0, r1
 511 000e 3546     		mov	r5, r6
 512 0010 FF20     		movs	r0, #255
 513              	.LVL60:
 514              	.L69:
 515              		.loc 1 508 0
 516 0012 17F8013D 		ldrb	r3, [r7, #-1]!	@ zero_extendqisi2
 517 0016 002B     		cmp	r3, #0
 518 0018 0CBF     		ite	eq
 519 001a 2B46     		moveq	r3, r5
 520 001c 45F00103 		orrne	r3, r5, #1
 521              	.LVL61:
 522              		.loc 1 509 0
 523 0020 83EA0504 		eor	r4, r3, r5
 524              		.loc 1 508 0
 525 0024 0139     		subs	r1, r1, #1
 526              	.LVL62:
 527              		.loc 1 509 0
 528 0026 01FB04F4 		mul	r4, r1, r4
 529 002a 2643     		orrs	r6, r6, r4
 530 002c 1660     		str	r6, [r2]
 531              		.loc 1 510 0
 532 002e 3C78     		ldrb	r4, [r7]	@ zero_extendqisi2
 533 0030 84F08004 		eor	r4, r4, #128
 534 0034 9D42     		cmp	r5, r3
 535 0036 08BF     		it	eq
 536 0038 44F00104 		orreq	r4, r4, #1
 537 003c 2040     		ands	r0, r0, r4
 538              	.LVL63:
 539              		.loc 1 508 0
 540 003e 1D46     		mov	r5, r3
 541              	.LVL64:
 542              		.loc 1 505 0
 543 0040 0029     		cmp	r1, #0
 544 0042 E6D1     		bne	.L69
 545              		.loc 1 513 0
 546 0044 08B9     		cbnz	r0, .L70
 547              	.LBE41:
 548              	.LBE40:
 549              		.loc 1 515 0
 550 0046 F0BC     		pop	{r4, r5, r6, r7}
 551              		.cfi_remember_state
 552              		.cfi_restore 7
 553              		.cfi_restore 6
 554              		.cfi_restore 5
 555              		.cfi_restore 4
 556              		.cfi_def_cfa_offset 0
 557 0048 7047     		bx	lr
 558              	.LVL65:
 559              	.L70:
 560              		.cfi_restore_state
 561              	.LBB43:
ARM GAS  C:\Users\jo\AppData\Local\Temp\cclGmtUV.s 			page 11


 562              	.LBB42:
 563              		.loc 1 513 0
 564 004a 0248     		ldr	r0, .L76
 565              	.LBE42:
 566              	.LBE43:
 567              		.loc 1 515 0
 568 004c F0BC     		pop	{r4, r5, r6, r7}
 569              		.cfi_restore 4
 570              		.cfi_restore 5
 571              		.cfi_restore 6
 572              		.cfi_restore 7
 573              		.cfi_def_cfa_offset 0
 574 004e 7047     		bx	lr
 575              	.LVL66:
 576              	.L72:
 577              		.loc 1 501 0
 578 0050 0148     		ldr	r0, .L76+4
 579              	.LVL67:
 580 0052 7047     		bx	lr
 581              	.L77:
 582              		.align	2
 583              	.L76:
 584 0054 009EFFFF 		.word	-25088
 585 0058 009FFFFF 		.word	-24832
 586              		.cfi_endproc
 587              	.LFE24:
 588              		.size	get_one_and_zeros_padding, .-get_one_and_zeros_padding
 589 005c AFF30080 		.section	.text.get_zeros_padding,"ax",%progbits
 590              		.align	2
 591              		.p2align 4,,15
 592              		.thumb
 593              		.thumb_func
 594              		.type	get_zeros_padding, %function
 595              	get_zeros_padding:
 596              	.LFB28:
 597              		.loc 1 573 0
 598              		.cfi_startproc
 599              		@ args = 0, pretend = 0, frame = 0
 600              		@ frame_needed = 0, uses_anonymous_args = 0
 601              		@ link register save eliminated.
 602              	.LVL68:
 603              		.loc 1 577 0
 604 0000 C0B1     		cbz	r0, .L84
 605              		.loc 1 577 0 is_stmt 0 discriminator 1
 606 0002 BAB1     		cbz	r2, .L84
 607              		.loc 1 573 0 is_stmt 1
 608 0004 30B4     		push	{r4, r5}
 609              		.cfi_def_cfa_offset 8
 610              		.cfi_offset 4, -8
 611              		.cfi_offset 5, -4
 612              		.loc 1 580 0
 613 0006 0025     		movs	r5, #0
 614 0008 1560     		str	r5, [r2]
 615              	.LVL69:
 616              	.LBB46:
 617              	.LBB47:
 618              		.loc 1 581 0
ARM GAS  C:\Users\jo\AppData\Local\Temp\cclGmtUV.s 			page 12


 619 000a 81B1     		cbz	r1, .L82
 620 000c 0844     		add	r0, r0, r1
 621              	.LVL70:
 622 000e 2B46     		mov	r3, r5
 623              	.LVL71:
 624              	.L81:
 625              		.loc 1 584 0
 626 0010 10F8014D 		ldrb	r4, [r0, #-1]!	@ zero_extendqisi2
 627 0014 002C     		cmp	r4, #0
 628 0016 0CBF     		ite	eq
 629 0018 1C46     		moveq	r4, r3
 630 001a 43F00104 		orrne	r4, r3, #1
 631              	.LVL72:
 632              		.loc 1 585 0
 633 001e 6340     		eors	r3, r3, r4
 634              	.LVL73:
 635 0020 01FB03F3 		mul	r3, r1, r3
 636 0024 1D43     		orrs	r5, r5, r3
 637              		.loc 1 581 0
 638 0026 0139     		subs	r1, r1, #1
 639              	.LVL74:
 640              		.loc 1 585 0
 641 0028 1560     		str	r5, [r2]
 642              	.LVL75:
 643              		.loc 1 584 0
 644 002a 2346     		mov	r3, r4
 645              		.loc 1 581 0
 646 002c F0D1     		bne	.L81
 647              	.LVL76:
 648              	.L82:
 649 002e 0020     		movs	r0, #0
 650              	.LBE47:
 651              	.LBE46:
 652              		.loc 1 589 0
 653 0030 30BC     		pop	{r4, r5}
 654              		.cfi_restore 5
 655              		.cfi_restore 4
 656              		.cfi_def_cfa_offset 0
 657 0032 7047     		bx	lr
 658              	.LVL77:
 659              	.L84:
 660              		.loc 1 578 0
 661 0034 0048     		ldr	r0, .L88
 662              	.LVL78:
 663 0036 7047     		bx	lr
 664              	.L89:
 665              		.align	2
 666              	.L88:
 667 0038 009FFFFF 		.word	-24832
 668              		.cfi_endproc
 669              	.LFE28:
 670              		.size	get_zeros_padding, .-get_zeros_padding
 671 003c AFF30080 		.section	.text.cipher_list,"ax",%progbits
 672              		.align	2
 673              		.p2align 4,,15
 674              		.global	cipher_list
 675              		.thumb
ARM GAS  C:\Users\jo\AppData\Local\Temp\cclGmtUV.s 			page 13


 676              		.thumb_func
 677              		.type	cipher_list, %function
 678              	cipher_list:
 679              	.LFB8:
 680              		.loc 1 66 0
 681              		.cfi_startproc
 682              		@ args = 0, pretend = 0, frame = 0
 683              		@ frame_needed = 0, uses_anonymous_args = 0
 684              		@ link register save eliminated.
 685              		.loc 1 70 0
 686 0000 0948     		ldr	r0, .L96
 687 0002 0368     		ldr	r3, [r0]
 688 0004 6BB9     		cbnz	r3, .L91
 689              	.LVL79:
 690              		.loc 1 75 0
 691 0006 094A     		ldr	r2, .L96+4
 692 0008 0949     		ldr	r1, .L96+8
 693 000a 1378     		ldrb	r3, [r2]	@ zero_extendqisi2
 694 000c 2BB1     		cbz	r3, .L92
 695              	.LVL80:
 696              	.L93:
 697              		.loc 1 76 0
 698 000e 41F8043B 		str	r3, [r1], #4
 699              	.LVL81:
 700              		.loc 1 75 0
 701 0012 12F8083F 		ldrb	r3, [r2, #8]!	@ zero_extendqisi2
 702              	.LVL82:
 703 0016 002B     		cmp	r3, #0
 704 0018 F9D1     		bne	.L93
 705              	.LVL83:
 706              	.L92:
 707              		.loc 1 78 0
 708 001a 0022     		movs	r2, #0
 709              		.loc 1 80 0
 710 001c 0123     		movs	r3, #1
 711              		.loc 1 78 0
 712 001e 0A60     		str	r2, [r1]
 713              		.loc 1 80 0
 714 0020 0360     		str	r3, [r0]
 715              	.L91:
 716              		.loc 1 84 0
 717 0022 0348     		ldr	r0, .L96+8
 718 0024 7047     		bx	lr
 719              	.L97:
 720 0026 00BF     		.align	2
 721              	.L96:
 722 0028 00000000 		.word	.LANCHOR0
 723 002c 00000000 		.word	cipher_definitions
 724 0030 00000000 		.word	supported_ciphers
 725              		.cfi_endproc
 726              	.LFE8:
 727              		.size	cipher_list, .-cipher_list
 728 0034 AFF30080 		.section	.text.cipher_info_from_type,"ax",%progbits
 728      AFF30080 
 728      AFF30080 
 729              		.align	2
 730              		.p2align 4,,15
ARM GAS  C:\Users\jo\AppData\Local\Temp\cclGmtUV.s 			page 14


 731              		.global	cipher_info_from_type
 732              		.thumb
 733              		.thumb_func
 734              		.type	cipher_info_from_type, %function
 735              	cipher_info_from_type:
 736              	.LFB9:
 737              		.loc 1 87 0
 738              		.cfi_startproc
 739              		@ args = 0, pretend = 0, frame = 0
 740              		@ frame_needed = 0, uses_anonymous_args = 0
 741              		@ link register save eliminated.
 742              	.LVL84:
 743              		.loc 1 90 0
 744 0000 074B     		ldr	r3, .L109
 745 0002 5A68     		ldr	r2, [r3, #4]
 746 0004 52B1     		cbz	r2, .L99
 747              		.loc 1 91 0
 748 0006 1978     		ldrb	r1, [r3]	@ zero_extendqisi2
 749 0008 8142     		cmp	r1, r0
 750 000a 04D1     		bne	.L102
 751 000c 06E0     		b	.L99
 752              	.LVL85:
 753              	.L103:
 754 000e 13F8081F 		ldrb	r1, [r3, #8]!	@ zero_extendqisi2
 755              	.LVL86:
 756 0012 8142     		cmp	r1, r0
 757 0014 02D0     		beq	.L99
 758              	.LVL87:
 759              	.L102:
 760              		.loc 1 90 0 discriminator 2
 761 0016 DA68     		ldr	r2, [r3, #12]
 762 0018 002A     		cmp	r2, #0
 763 001a F8D1     		bne	.L103
 764              	.LVL88:
 765              	.L99:
 766              		.loc 1 95 0
 767 001c 1046     		mov	r0, r2
 768              	.LVL89:
 769 001e 7047     		bx	lr
 770              	.L110:
 771              		.align	2
 772              	.L109:
 773 0020 00000000 		.word	cipher_definitions
 774              		.cfi_endproc
 775              	.LFE9:
 776              		.size	cipher_info_from_type, .-cipher_info_from_type
 777 0024 AFF30080 		.section	.text.cipher_info_from_string,"ax",%progbits
 777      AFF30080 
 777      AFF30080 
 778              		.align	2
 779              		.p2align 4,,15
 780              		.global	cipher_info_from_string
 781              		.thumb
 782              		.thumb_func
 783              		.type	cipher_info_from_string, %function
 784              	cipher_info_from_string:
 785              	.LFB10:
ARM GAS  C:\Users\jo\AppData\Local\Temp\cclGmtUV.s 			page 15


 786              		.loc 1 98 0
 787              		.cfi_startproc
 788              		@ args = 0, pretend = 0, frame = 0
 789              		@ frame_needed = 0, uses_anonymous_args = 0
 790              	.LVL90:
 791 0000 70B5     		push	{r4, r5, r6, lr}
 792              		.cfi_def_cfa_offset 16
 793              		.cfi_offset 4, -16
 794              		.cfi_offset 5, -12
 795              		.cfi_offset 6, -8
 796              		.cfi_offset 14, -4
 797              		.loc 1 101 0
 798 0002 78B1     		cbz	r0, .L114
 799              	.LVL91:
 800              		.loc 1 104 0 discriminator 1
 801 0004 084C     		ldr	r4, .L124
 802 0006 6568     		ldr	r5, [r4, #4]
 803 0008 55B1     		cbz	r5, .L112
 804 000a 0646     		mov	r6, r0
 805 000c 01E0     		b	.L113
 806              	.LVL92:
 807              	.L123:
 808              		.loc 1 104 0 is_stmt 0 discriminator 2
 809 000e 6568     		ldr	r5, [r4, #4]
 810 0010 35B1     		cbz	r5, .L112
 811              	.LVL93:
 812              	.L113:
 813              		.loc 1 105 0 is_stmt 1
 814 0012 A868     		ldr	r0, [r5, #8]
 815 0014 3146     		mov	r1, r6
 816              		.loc 1 104 0
 817 0016 0834     		adds	r4, r4, #8
 818              	.LVL94:
 819              		.loc 1 105 0
 820 0018 FFF7FEFF 		bl	strcasecmp
 821              	.LVL95:
 822 001c 0028     		cmp	r0, #0
 823 001e F6D1     		bne	.L123
 824              	.LVL96:
 825              	.L112:
 826              		.loc 1 109 0
 827 0020 2846     		mov	r0, r5
 828 0022 70BD     		pop	{r4, r5, r6, pc}
 829              	.LVL97:
 830              	.L114:
 831              		.loc 1 102 0
 832 0024 0546     		mov	r5, r0
 833 0026 FBE7     		b	.L112
 834              	.L125:
 835              		.align	2
 836              	.L124:
 837 0028 00000000 		.word	cipher_definitions
 838              		.cfi_endproc
 839              	.LFE10:
 840              		.size	cipher_info_from_string, .-cipher_info_from_string
 841 002c AFF30080 		.section	.text.cipher_info_from_values,"ax",%progbits
 842              		.align	2
ARM GAS  C:\Users\jo\AppData\Local\Temp\cclGmtUV.s 			page 16


 843              		.p2align 4,,15
 844              		.global	cipher_info_from_values
 845              		.thumb
 846              		.thumb_func
 847              		.type	cipher_info_from_values, %function
 848              	cipher_info_from_values:
 849              	.LFB11:
 850              		.loc 1 114 0
 851              		.cfi_startproc
 852              		@ args = 0, pretend = 0, frame = 0
 853              		@ frame_needed = 0, uses_anonymous_args = 0
 854              		@ link register save eliminated.
 855              	.LVL98:
 856 0000 30B4     		push	{r4, r5}
 857              		.cfi_def_cfa_offset 8
 858              		.cfi_offset 4, -8
 859              		.cfi_offset 5, -4
 860              		.loc 1 117 0
 861 0002 094C     		ldr	r4, .L136
 862              	.LVL99:
 863              	.L135:
 864 0004 6368     		ldr	r3, [r4, #4]
 865 0006 5BB1     		cbz	r3, .L127
 866              	.LVL100:
 867              		.loc 1 118 0
 868 0008 9D69     		ldr	r5, [r3, #24]
 869 000a 2D78     		ldrb	r5, [r5]	@ zero_extendqisi2
 870 000c 8542     		cmp	r5, r0
 871              		.loc 1 117 0
 872 000e 04F10804 		add	r4, r4, #8
 873              	.LVL101:
 874              		.loc 1 118 0
 875 0012 F7D1     		bne	.L135
 876              		.loc 1 118 0 is_stmt 0 discriminator 1
 877 0014 5D68     		ldr	r5, [r3, #4]
 878 0016 8D42     		cmp	r5, r1
 879 0018 F4D1     		bne	.L135
 880              		.loc 1 119 0 is_stmt 1
 881 001a 5D78     		ldrb	r5, [r3, #1]	@ zero_extendqisi2
 882 001c 9542     		cmp	r5, r2
 883 001e F1D1     		bne	.L135
 884              	.LVL102:
 885              	.L127:
 886              		.loc 1 124 0
 887 0020 1846     		mov	r0, r3
 888              	.LVL103:
 889 0022 30BC     		pop	{r4, r5}
 890              		.cfi_restore 5
 891              		.cfi_restore 4
 892              		.cfi_def_cfa_offset 0
 893 0024 7047     		bx	lr
 894              	.L137:
 895 0026 00BF     		.align	2
 896              	.L136:
 897 0028 00000000 		.word	cipher_definitions
 898              		.cfi_endproc
 899              	.LFE11:
ARM GAS  C:\Users\jo\AppData\Local\Temp\cclGmtUV.s 			page 17


 900              		.size	cipher_info_from_values, .-cipher_info_from_values
 901 002c AFF30080 		.section	.text.cipher_init,"ax",%progbits
 902              		.align	2
 903              		.p2align 4,,15
 904              		.global	cipher_init
 905              		.thumb
 906              		.thumb_func
 907              		.type	cipher_init, %function
 908              	cipher_init:
 909              	.LFB12:
 910              		.loc 1 127 0
 911              		.cfi_startproc
 912              		@ args = 0, pretend = 0, frame = 0
 913              		@ frame_needed = 0, uses_anonymous_args = 0
 914              		@ link register save eliminated.
 915              	.LVL104:
 916              		.loc 1 128 0
 917 0000 0021     		movs	r1, #0
 918 0002 4022     		movs	r2, #64
 919 0004 FFF7FEBF 		b	memset
 920              	.LVL105:
 921              		.cfi_endproc
 922              	.LFE12:
 923              		.size	cipher_init, .-cipher_init
 924 0008 AFF30080 		.section	.text.cipher_free,"ax",%progbits
 924      AFF30080 
 925              		.align	2
 926              		.p2align 4,,15
 927              		.global	cipher_free
 928              		.thumb
 929              		.thumb_func
 930              		.type	cipher_free, %function
 931              	cipher_free:
 932              	.LFB13:
 933              		.loc 1 132 0
 934              		.cfi_startproc
 935              		@ args = 0, pretend = 0, frame = 0
 936              		@ frame_needed = 0, uses_anonymous_args = 0
 937              	.LVL106:
 938 0000 10B5     		push	{r4, lr}
 939              		.cfi_def_cfa_offset 8
 940              		.cfi_offset 4, -8
 941              		.cfi_offset 14, -4
 942              		.loc 1 133 0
 943 0002 0446     		mov	r4, r0
 944 0004 60B1     		cbz	r0, .L139
 945              		.loc 1 136 0
 946 0006 C06B     		ldr	r0, [r0, #60]
 947              	.LVL107:
 948 0008 18B1     		cbz	r0, .L141
 949              		.loc 1 137 0
 950 000a 2368     		ldr	r3, [r4]
 951 000c 9B69     		ldr	r3, [r3, #24]
 952 000e 5B6A     		ldr	r3, [r3, #36]
 953 0010 9847     		blx	r3
 954              	.LVL108:
 955              	.L141:
ARM GAS  C:\Users\jo\AppData\Local\Temp\cclGmtUV.s 			page 18


 956 0012 04F14002 		add	r2, r4, #64
 957              	.LBB48:
 958              	.LBB49:
 959              		.loc 1 60 0
 960 0016 0023     		movs	r3, #0
 961              	.LVL109:
 962              	.L142:
 963 0018 2370     		strb	r3, [r4]
 964              	.LVL110:
 965 001a 0134     		adds	r4, r4, #1
 966              	.LVL111:
 967 001c 9442     		cmp	r4, r2
 968 001e FBD1     		bne	.L142
 969              	.LVL112:
 970              	.L139:
 971 0020 10BD     		pop	{r4, pc}
 972              	.LBE49:
 973              	.LBE48:
 974              		.cfi_endproc
 975              	.LFE13:
 976              		.size	cipher_free, .-cipher_free
 977 0022 00BFAFF3 		.section	.text.cipher_free_ctx,"ax",%progbits
 977      0080AFF3 
 977      0080AFF3 
 977      0080
 978              		.align	2
 979              		.p2align 4,,15
 980              		.global	cipher_free_ctx
 981              		.thumb
 982              		.thumb_func
 983              		.type	cipher_free_ctx, %function
 984              	cipher_free_ctx:
 985              	.LFB15:
 986              		.loc 1 170 0
 987              		.cfi_startproc
 988              		@ args = 0, pretend = 0, frame = 0
 989              		@ frame_needed = 0, uses_anonymous_args = 0
 990              	.LVL113:
 991 0000 08B5     		push	{r3, lr}
 992              		.cfi_def_cfa_offset 8
 993              		.cfi_offset 3, -8
 994              		.cfi_offset 14, -4
 995              		.loc 1 171 0
 996 0002 FFF7FEFF 		bl	cipher_free
 997              	.LVL114:
 998              		.loc 1 174 0
 999 0006 0020     		movs	r0, #0
 1000 0008 08BD     		pop	{r3, pc}
 1001              		.cfi_endproc
 1002              	.LFE15:
 1003              		.size	cipher_free_ctx, .-cipher_free_ctx
 1004 000a 00BFAFF3 		.section	.text.cipher_setkey,"ax",%progbits
 1004      0080
 1005              		.align	2
 1006              		.p2align 4,,15
 1007              		.global	cipher_setkey
 1008              		.thumb
ARM GAS  C:\Users\jo\AppData\Local\Temp\cclGmtUV.s 			page 19


 1009              		.thumb_func
 1010              		.type	cipher_setkey, %function
 1011              	cipher_setkey:
 1012              	.LFB16:
 1013              		.loc 1 179 0
 1014              		.cfi_startproc
 1015              		@ args = 0, pretend = 0, frame = 0
 1016              		@ frame_needed = 0, uses_anonymous_args = 0
 1017              		@ link register save eliminated.
 1018              	.LVL115:
 1019              		.loc 1 180 0
 1020 0000 F8B1     		cbz	r0, .L168
 1021              		.loc 1 179 0 discriminator 1
 1022 0002 30B4     		push	{r4, r5}
 1023              		.cfi_def_cfa_offset 8
 1024              		.cfi_offset 4, -8
 1025              		.cfi_offset 5, -4
 1026              		.loc 1 180 0 discriminator 1
 1027 0004 0468     		ldr	r4, [r0]
 1028 0006 A4B1     		cbz	r4, .L153
 1029              		.loc 1 183 0
 1030 0008 2569     		ldr	r5, [r4, #16]
 1031 000a AD07     		lsls	r5, r5, #30
 1032 000c 0ED5     		bpl	.L169
 1033              	.L155:
 1034              		.loc 1 195 0
 1035 000e 012B     		cmp	r3, #1
 1036              		.loc 1 189 0
 1037 0010 4260     		str	r2, [r0, #4]
 1038              		.loc 1 190 0
 1039 0012 0372     		strb	r3, [r0, #8]
 1040              		.loc 1 195 0
 1041 0014 10D0     		beq	.L156
 1042              		.loc 1 196 0 discriminator 1
 1043 0016 6578     		ldrb	r5, [r4, #1]	@ zero_extendqisi2
 1044              		.loc 1 195 0 discriminator 1
 1045 0018 032D     		cmp	r5, #3
 1046 001a 0DD0     		beq	.L156
 1047              		.loc 1 196 0
 1048 001c 052D     		cmp	r5, #5
 1049 001e 0BD0     		beq	.L156
 1050              		.loc 1 203 0
 1051 0020 3BB9     		cbnz	r3, .L153
 1052              		.loc 1 204 0
 1053 0022 A369     		ldr	r3, [r4, #24]
 1054              	.LVL116:
 1055 0024 C06B     		ldr	r0, [r0, #60]
 1056              	.LVL117:
 1057 0026 DB69     		ldr	r3, [r3, #28]
 1058              		.loc 1 208 0
 1059 0028 30BC     		pop	{r4, r5}
 1060              		.cfi_remember_state
 1061              		.cfi_restore 5
 1062              		.cfi_restore 4
 1063              		.cfi_def_cfa_offset 0
 1064              		.loc 1 204 0
 1065 002a 1847     		bx	r3
ARM GAS  C:\Users\jo\AppData\Local\Temp\cclGmtUV.s 			page 20


 1066              	.LVL118:
 1067              	.L169:
 1068              		.cfi_restore_state
 1069              		.loc 1 183 0 discriminator 1
 1070 002c 6568     		ldr	r5, [r4, #4]
 1071 002e 9542     		cmp	r5, r2
 1072 0030 EDD0     		beq	.L155
 1073              	.L153:
 1074              		.loc 1 208 0
 1075 0032 0548     		ldr	r0, .L170
 1076              	.LVL119:
 1077 0034 30BC     		pop	{r4, r5}
 1078              		.cfi_remember_state
 1079              		.cfi_restore 5
 1080              		.cfi_restore 4
 1081              		.cfi_def_cfa_offset 0
 1082 0036 7047     		bx	lr
 1083              	.LVL120:
 1084              	.L156:
 1085              		.cfi_restore_state
 1086              		.loc 1 199 0
 1087 0038 A369     		ldr	r3, [r4, #24]
 1088              	.LVL121:
 1089 003a C06B     		ldr	r0, [r0, #60]
 1090              	.LVL122:
 1091 003c 9B69     		ldr	r3, [r3, #24]
 1092              		.loc 1 208 0
 1093 003e 30BC     		pop	{r4, r5}
 1094              		.cfi_restore 5
 1095              		.cfi_restore 4
 1096              		.cfi_def_cfa_offset 0
 1097              		.loc 1 199 0
 1098 0040 1847     		bx	r3
 1099              	.LVL123:
 1100              	.L168:
 1101              		.loc 1 208 0
 1102 0042 0148     		ldr	r0, .L170
 1103              	.LVL124:
 1104 0044 7047     		bx	lr
 1105              	.L171:
 1106 0046 00BF     		.align	2
 1107              	.L170:
 1108 0048 009FFFFF 		.word	-24832
 1109              		.cfi_endproc
 1110              	.LFE16:
 1111              		.size	cipher_setkey, .-cipher_setkey
 1112 004c AFF30080 		.section	.text.cipher_set_iv,"ax",%progbits
 1113              		.align	2
 1114              		.p2align 4,,15
 1115              		.global	cipher_set_iv
 1116              		.thumb
 1117              		.thumb_func
 1118              		.type	cipher_set_iv, %function
 1119              	cipher_set_iv:
 1120              	.LFB17:
 1121              		.loc 1 212 0
 1122              		.cfi_startproc
ARM GAS  C:\Users\jo\AppData\Local\Temp\cclGmtUV.s 			page 21


 1123              		@ args = 0, pretend = 0, frame = 0
 1124              		@ frame_needed = 0, uses_anonymous_args = 0
 1125              	.LVL125:
 1126              		.loc 1 215 0
 1127 0000 C8B1     		cbz	r0, .L175
 1128              		.loc 1 212 0 discriminator 1
 1129 0002 38B5     		push	{r3, r4, r5, lr}
 1130              		.cfi_def_cfa_offset 16
 1131              		.cfi_offset 3, -16
 1132              		.cfi_offset 4, -12
 1133              		.cfi_offset 5, -8
 1134              		.cfi_offset 14, -4
 1135              		.loc 1 215 0 discriminator 1
 1136 0004 0368     		ldr	r3, [r0]
 1137 0006 93B1     		cbz	r3, .L180
 1138              		.loc 1 215 0 is_stmt 0 discriminator 2
 1139 0008 89B1     		cbz	r1, .L180
 1140              		.loc 1 219 0 is_stmt 1
 1141 000a 102A     		cmp	r2, #16
 1142 000c 11D8     		bhi	.L178
 1143              		.loc 1 222 0
 1144 000e 1C69     		ldr	r4, [r3, #16]
 1145 0010 E407     		lsls	r4, r4, #31
 1146 0012 0AD4     		bmi	.L179
 1147              		.loc 1 226 0
 1148 0014 DD68     		ldr	r5, [r3, #12]
 1149              	.LVL126:
 1150              		.loc 1 229 0
 1151 0016 AA42     		cmp	r2, r5
 1152 0018 09D3     		bcc	.L180
 1153              	.LVL127:
 1154              	.L174:
 1155 001a 0446     		mov	r4, r0
 1156              		.loc 1 233 0
 1157 001c 2A46     		mov	r2, r5
 1158              	.LVL128:
 1159 001e 2830     		adds	r0, r0, #40
 1160              	.LVL129:
 1161 0020 FFF7FEFF 		bl	memcpy
 1162              	.LVL130:
 1163              		.loc 1 234 0
 1164 0024 A563     		str	r5, [r4, #56]
 1165              		.loc 1 236 0
 1166 0026 0020     		movs	r0, #0
 1167 0028 38BD     		pop	{r3, r4, r5, pc}
 1168              	.LVL131:
 1169              	.L179:
 1170 002a 1546     		mov	r5, r2
 1171 002c F5E7     		b	.L174
 1172              	.L180:
 1173              		.loc 1 216 0
 1174 002e 0348     		ldr	r0, .L182
 1175              	.LVL132:
 1176              		.loc 1 237 0
 1177 0030 38BD     		pop	{r3, r4, r5, pc}
 1178              	.LVL133:
 1179              	.L178:
ARM GAS  C:\Users\jo\AppData\Local\Temp\cclGmtUV.s 			page 22


 1180              		.loc 1 220 0
 1181 0032 0348     		ldr	r0, .L182+4
 1182              	.LVL134:
 1183 0034 38BD     		pop	{r3, r4, r5, pc}
 1184              	.LVL135:
 1185              	.L175:
 1186              		.cfi_def_cfa_offset 0
 1187              		.cfi_restore 3
 1188              		.cfi_restore 4
 1189              		.cfi_restore 5
 1190              		.cfi_restore 14
 1191              		.loc 1 216 0
 1192 0036 0148     		ldr	r0, .L182
 1193              	.LVL136:
 1194              		.loc 1 237 0
 1195 0038 7047     		bx	lr
 1196              	.L183:
 1197 003a 00BF     		.align	2
 1198              	.L182:
 1199 003c 009FFFFF 		.word	-24832
 1200 0040 809FFFFF 		.word	-24704
 1201              		.cfi_endproc
 1202              	.LFE17:
 1203              		.size	cipher_set_iv, .-cipher_set_iv
 1204 0044 AFF30080 		.section	.text.cipher_reset,"ax",%progbits
 1204      AFF30080 
 1204      AFF30080 
 1205              		.align	2
 1206              		.p2align 4,,15
 1207              		.global	cipher_reset
 1208              		.thumb
 1209              		.thumb_func
 1210              		.type	cipher_reset, %function
 1211              	cipher_reset:
 1212              	.LFB18:
 1213              		.loc 1 240 0
 1214              		.cfi_startproc
 1215              		@ args = 0, pretend = 0, frame = 0
 1216              		@ frame_needed = 0, uses_anonymous_args = 0
 1217              		@ link register save eliminated.
 1218              	.LVL137:
 1219              		.loc 1 241 0
 1220 0000 28B1     		cbz	r0, .L187
 1221              		.loc 1 241 0 is_stmt 0 discriminator 1
 1222 0002 0368     		ldr	r3, [r0]
 1223 0004 1BB1     		cbz	r3, .L187
 1224              		.loc 1 244 0 is_stmt 1
 1225 0006 0023     		movs	r3, #0
 1226 0008 4362     		str	r3, [r0, #36]
 1227              		.loc 1 246 0
 1228 000a 1846     		mov	r0, r3
 1229              	.LVL138:
 1230 000c 7047     		bx	lr
 1231              	.LVL139:
 1232              	.L187:
 1233              		.loc 1 242 0
 1234 000e 0148     		ldr	r0, .L188
ARM GAS  C:\Users\jo\AppData\Local\Temp\cclGmtUV.s 			page 23


 1235              	.LVL140:
 1236              		.loc 1 247 0
 1237 0010 7047     		bx	lr
 1238              	.L189:
 1239 0012 00BF     		.align	2
 1240              	.L188:
 1241 0014 009FFFFF 		.word	-24832
 1242              		.cfi_endproc
 1243              	.LFE18:
 1244              		.size	cipher_reset, .-cipher_reset
 1245 0018 AFF30080 		.section	.text.cipher_update_ad,"ax",%progbits
 1245      AFF30080 
 1246              		.align	2
 1247              		.p2align 4,,15
 1248              		.global	cipher_update_ad
 1249              		.thumb
 1250              		.thumb_func
 1251              		.type	cipher_update_ad, %function
 1252              	cipher_update_ad:
 1253              	.LFB19:
 1254              		.loc 1 252 0
 1255              		.cfi_startproc
 1256              		@ args = 0, pretend = 0, frame = 0
 1257              		@ frame_needed = 0, uses_anonymous_args = 0
 1258              	.LVL141:
 1259              		.loc 1 253 0
 1260 0000 B0B1     		cbz	r0, .L193
 1261              		.loc 1 253 0 is_stmt 0 discriminator 1
 1262 0002 0368     		ldr	r3, [r0]
 1263 0004 A3B1     		cbz	r3, .L193
 1264              		.loc 1 256 0 is_stmt 1
 1265 0006 5B78     		ldrb	r3, [r3, #1]	@ zero_extendqisi2
 1266 0008 062B     		cmp	r3, #6
 1267 000a 01D0     		beq	.L197
 1268              		.loc 1 262 0
 1269 000c 0020     		movs	r0, #0
 1270              	.LVL142:
 1271 000e 7047     		bx	lr
 1272              	.LVL143:
 1273              	.L197:
 1274              		.loc 1 252 0
 1275 0010 30B5     		push	{r4, r5, lr}
 1276              		.cfi_def_cfa_offset 12
 1277              		.cfi_offset 4, -12
 1278              		.cfi_offset 5, -8
 1279              		.cfi_offset 14, -4
 1280 0012 0446     		mov	r4, r0
 1281 0014 83B0     		sub	sp, sp, #12
 1282              		.cfi_def_cfa_offset 24
 1283 0016 0D46     		mov	r5, r1
 1284              		.loc 1 258 0
 1285 0018 A36B     		ldr	r3, [r4, #56]
 1286 001a 94F90810 		ldrsb	r1, [r4, #8]
 1287              	.LVL144:
 1288 001e C06B     		ldr	r0, [r0, #60]
 1289              	.LVL145:
 1290 0020 0192     		str	r2, [sp, #4]
ARM GAS  C:\Users\jo\AppData\Local\Temp\cclGmtUV.s 			page 24


 1291 0022 0095     		str	r5, [sp]
 1292 0024 04F12802 		add	r2, r4, #40
 1293              	.LVL146:
 1294 0028 FFF7FEFF 		bl	gcm_starts
 1295              	.LVL147:
 1296              		.loc 1 263 0
 1297 002c 03B0     		add	sp, sp, #12
 1298              		.cfi_def_cfa_offset 12
 1299              		@ sp needed
 1300 002e 30BD     		pop	{r4, r5, pc}
 1301              	.LVL148:
 1302              	.L193:
 1303              		.cfi_def_cfa_offset 0
 1304              		.cfi_restore 4
 1305              		.cfi_restore 5
 1306              		.cfi_restore 14
 1307              		.loc 1 254 0
 1308 0030 0048     		ldr	r0, .L198
 1309              	.LVL149:
 1310 0032 7047     		bx	lr
 1311              	.L199:
 1312              		.align	2
 1313              	.L198:
 1314 0034 009FFFFF 		.word	-24832
 1315              		.cfi_endproc
 1316              	.LFE19:
 1317              		.size	cipher_update_ad, .-cipher_update_ad
 1318 0038 AFF30080 		.section	.text.cipher_update,"ax",%progbits
 1318      AFF30080 
 1319              		.align	2
 1320              		.p2align 4,,15
 1321              		.global	cipher_update
 1322              		.thumb
 1323              		.thumb_func
 1324              		.type	cipher_update, %function
 1325              	cipher_update:
 1326              	.LFB20:
 1327              		.loc 1 268 0
 1328              		.cfi_startproc
 1329              		@ args = 4, pretend = 0, frame = 0
 1330              		@ frame_needed = 0, uses_anonymous_args = 0
 1331              	.LVL150:
 1332 0000 2DE9F047 		push	{r4, r5, r6, r7, r8, r9, r10, lr}
 1333              		.cfi_def_cfa_offset 32
 1334              		.cfi_offset 4, -32
 1335              		.cfi_offset 5, -28
 1336              		.cfi_offset 6, -24
 1337              		.cfi_offset 7, -20
 1338              		.cfi_offset 8, -16
 1339              		.cfi_offset 9, -12
 1340              		.cfi_offset 10, -8
 1341              		.cfi_offset 14, -4
 1342 0004 84B0     		sub	sp, sp, #16
 1343              		.cfi_def_cfa_offset 48
 1344              		.loc 1 271 0
 1345 0006 0446     		mov	r4, r0
 1346              		.loc 1 268 0
ARM GAS  C:\Users\jo\AppData\Local\Temp\cclGmtUV.s 			page 25


 1347 0008 0C9E     		ldr	r6, [sp, #48]
 1348              		.loc 1 271 0
 1349 000a 0028     		cmp	r0, #0
 1350 000c 00F0BC80 		beq	.L203
 1351              		.loc 1 271 0 is_stmt 0 discriminator 1
 1352 0010 0568     		ldr	r5, [r0]
 1353 0012 002D     		cmp	r5, #0
 1354 0014 00F0B880 		beq	.L203
 1355              		.loc 1 271 0 discriminator 2
 1356 0018 002E     		cmp	r6, #0
 1357 001a 00F0B580 		beq	.L203
 1358 001e 8846     		mov	r8, r1
 1359              		.loc 1 278 0 is_stmt 1
 1360 0020 6978     		ldrb	r1, [r5, #1]	@ zero_extendqisi2
 1361              	.LVL151:
 1362 0022 1746     		mov	r7, r2
 1363 0024 0129     		cmp	r1, #1
 1364              		.loc 1 276 0
 1365 0026 4FF00002 		mov	r2, #0
 1366              	.LVL152:
 1367 002a 3260     		str	r2, [r6]
 1368              		.loc 1 278 0
 1369 002c 00F09380 		beq	.L261
 1370              		.loc 1 295 0
 1371 0030 0629     		cmp	r1, #6
 1372 0032 00F0B880 		beq	.L262
 1373              		.loc 1 303 0
 1374 0036 9845     		cmp	r8, r3
 1375 0038 9946     		mov	r9, r3
 1376 003a 00F09B80 		beq	.L263
 1377              	.LVL153:
 1378              	.L206:
 1379              		.loc 1 310 0
 1380 003e 0229     		cmp	r1, #2
 1381 0040 14D0     		beq	.L264
 1382              		.loc 1 389 0
 1383 0042 0329     		cmp	r1, #3
 1384 0044 00F0B880 		beq	.L265
 1385              		.loc 1 405 0
 1386 0048 0529     		cmp	r1, #5
 1387 004a 00F0C980 		beq	.L266
 1388              		.loc 1 421 0
 1389 004e 0729     		cmp	r1, #7
 1390 0050 40F0A780 		bne	.L233
 1391              		.loc 1 423 0
 1392 0054 AB69     		ldr	r3, [r5, #24]
 1393 0056 E06B     		ldr	r0, [r4, #60]
 1394              	.LVL154:
 1395 0058 5C69     		ldr	r4, [r3, #20]
 1396              	.LVL155:
 1397 005a 4246     		mov	r2, r8
 1398 005c 4B46     		mov	r3, r9
 1399 005e 3946     		mov	r1, r7
 1400 0060 A047     		blx	r4
 1401              	.LVL156:
 1402 0062 00B9     		cbnz	r0, .L252
 1403              	.L258:
ARM GAS  C:\Users\jo\AppData\Local\Temp\cclGmtUV.s 			page 26


 1404              		.loc 1 429 0
 1405 0064 3760     		str	r7, [r6]
 1406              	.LVL157:
 1407              	.L252:
 1408              		.loc 1 436 0
 1409 0066 04B0     		add	sp, sp, #16
 1410              		.cfi_remember_state
 1411              		.cfi_def_cfa_offset 32
 1412              		@ sp needed
 1413 0068 BDE8F087 		pop	{r4, r5, r6, r7, r8, r9, r10, pc}
 1414              	.LVL158:
 1415              	.L264:
 1416              		.cfi_restore_state
 1417              	.LBB50:
 1418              		.loc 1 317 0
 1419 006c 237A     		ldrb	r3, [r4, #8]	@ zero_extendqisi2
 1420              		.loc 1 318 0
 1421 006e 606A     		ldr	r0, [r4, #36]
 1422              	.LVL159:
 1423              		.loc 1 317 0
 1424 0070 002B     		cmp	r3, #0
 1425 0072 40F08B80 		bne	.L208
 1426              	.LVL160:
 1427              		.loc 1 317 0 is_stmt 0 discriminator 1
 1428 0076 6B69     		ldr	r3, [r5, #20]
 1429              		.loc 1 318 0 is_stmt 1 discriminator 1
 1430 0078 3A18     		adds	r2, r7, r0
 1431              		.loc 1 317 0 discriminator 1
 1432 007a 9A42     		cmp	r2, r3
 1433 007c 5ED9     		bls	.L217
 1434              	.LVL161:
 1435              	.L209:
 1436              		.loc 1 332 0
 1437 007e 40B3     		cbz	r0, .L210
 1438 0080 6B69     		ldr	r3, [r5, #20]
 1439              	.L220:
 1440              	.LVL162:
 1441              		.loc 1 334 0
 1442 0082 C0EB030A 		rsb	r10, r0, r3
 1443              	.LVL163:
 1444              		.loc 1 336 0
 1445 0086 2044     		add	r0, r0, r4
 1446 0088 5246     		mov	r2, r10
 1447 008a 4146     		mov	r1, r8
 1448 008c 1430     		adds	r0, r0, #20
 1449 008e FFF7FEFF 		bl	memcpy
 1450              	.LVL164:
 1451              		.loc 1 339 0
 1452 0092 2368     		ldr	r3, [r4]
 1453              	.LVL165:
 1454 0094 E06B     		ldr	r0, [r4, #60]
 1455 0096 9D69     		ldr	r5, [r3, #24]
 1456 0098 5A69     		ldr	r2, [r3, #20]
 1457 009a 94F90810 		ldrsb	r1, [r4, #8]
 1458 009e CDF80490 		str	r9, [sp, #4]
 1459              		.loc 1 341 0
 1460 00a2 04F11403 		add	r3, r4, #20
ARM GAS  C:\Users\jo\AppData\Local\Temp\cclGmtUV.s 			page 27


 1461              		.loc 1 339 0
 1462 00a6 0093     		str	r3, [sp]
 1463 00a8 AD68     		ldr	r5, [r5, #8]
 1464 00aa 04F12803 		add	r3, r4, #40
 1465 00ae A847     		blx	r5
 1466              	.LVL166:
 1467 00b0 0028     		cmp	r0, #0
 1468 00b2 D8D1     		bne	.L252
 1469              	.LVL167:
 1470              	.LBB51:
 1471              	.LBB52:
 1472              		.file 2 "../../../ext/mbedtls-1.3.11/library/../include/polarssl/cipher.h"
 1473              		.loc 2 405 0
 1474 00b4 2568     		ldr	r5, [r4]
 1475 00b6 002D     		cmp	r5, #0
 1476 00b8 00F0B480 		beq	.L211
 1477              	.LBE52:
 1478              	.LBE51:
 1479              		.loc 1 346 0
 1480 00bc 3268     		ldr	r2, [r6]
 1481 00be 6B69     		ldr	r3, [r5, #20]
 1482 00c0 1344     		add	r3, r3, r2
 1483 00c2 3360     		str	r3, [r6]
 1484              	.LVL168:
 1485              	.LBB53:
 1486              	.LBB54:
 1487              		.loc 2 408 0
 1488 00c4 6A69     		ldr	r2, [r5, #20]
 1489              	.L224:
 1490              	.LBE54:
 1491              	.LBE53:
 1492              		.loc 1 348 0
 1493 00c6 0023     		movs	r3, #0
 1494              		.loc 1 347 0
 1495 00c8 9144     		add	r9, r9, r2
 1496              	.LVL169:
 1497              		.loc 1 350 0
 1498 00ca D044     		add	r8, r8, r10
 1499              	.LVL170:
 1500              		.loc 1 351 0
 1501 00cc CAEB0707 		rsb	r7, r10, r7
 1502              	.LVL171:
 1503              		.loc 1 348 0
 1504 00d0 6362     		str	r3, [r4, #36]
 1505              	.LVL172:
 1506              	.L210:
 1507              		.loc 1 357 0
 1508 00d2 002F     		cmp	r7, #0
 1509 00d4 3BD0     		beq	.L256
 1510              	.LVL173:
 1511              	.LBB56:
 1512              	.LBB57:
 1513              		.loc 2 406 0
 1514 00d6 2A46     		mov	r2, r5
 1515              		.loc 2 405 0
 1516 00d8 002D     		cmp	r5, #0
 1517 00da 40F09780 		bne	.L212
ARM GAS  C:\Users\jo\AppData\Local\Temp\cclGmtUV.s 			page 28


 1518              	.L223:
 1519              	.LBE57:
 1520              	.LBE56:
 1521              		.loc 1 359 0
 1522 00de B7FBF2F3 		udiv	r3, r7, r2
 1523 00e2 02FB137A 		mls	r10, r2, r3, r7
 1524              	.LVL174:
 1525              		.loc 1 360 0
 1526 00e6 BAF1000F 		cmp	r10, #0
 1527 00ea 09D1     		bne	.L213
 1528              		.loc 1 360 0 is_stmt 0 discriminator 1
 1529 00ec 94F90830 		ldrsb	r3, [r4, #8]
 1530              	.LVL175:
 1531 00f0 002B     		cmp	r3, #0
 1532 00f2 40F08F80 		bne	.L214
 1533              	.LVL176:
 1534              	.LBB59:
 1535              	.LBB60:
 1536              		.loc 2 405 0 is_stmt 1
 1537 00f6 002D     		cmp	r5, #0
 1538 00f8 00F08C80 		beq	.L214
 1539              	.LVL177:
 1540              		.loc 2 408 0
 1541 00fc D5F814A0 		ldr	r10, [r5, #20]
 1542              	.LVL178:
 1543              	.L213:
 1544              	.LBE60:
 1545              	.LBE59:
 1546              		.loc 1 363 0
 1547 0100 CAEB0707 		rsb	r7, r10, r7
 1548              	.LVL179:
 1549 0104 08EB0701 		add	r1, r8, r7
 1550 0108 04F11400 		add	r0, r4, #20
 1551 010c 5246     		mov	r2, r10
 1552 010e FFF7FEFF 		bl	memcpy
 1553              	.LVL180:
 1554              		.loc 1 366 0
 1555 0112 636A     		ldr	r3, [r4, #36]
 1556 0114 5344     		add	r3, r3, r10
 1557 0116 6362     		str	r3, [r4, #36]
 1558              	.LVL181:
 1559              		.loc 1 373 0
 1560 0118 CFB1     		cbz	r7, .L256
 1561              	.LVL182:
 1562              	.L225:
 1563              		.loc 1 375 0
 1564 011a AB69     		ldr	r3, [r5, #24]
 1565 011c E06B     		ldr	r0, [r4, #60]
 1566 011e 94F90810 		ldrsb	r1, [r4, #8]
 1567 0122 8DE80003 		stmia	sp, {r8, r9}
 1568 0126 3A46     		mov	r2, r7
 1569 0128 9D68     		ldr	r5, [r3, #8]
 1570 012a 04F12803 		add	r3, r4, #40
 1571 012e A847     		blx	r5
 1572              	.LVL183:
 1573 0130 0028     		cmp	r0, #0
 1574 0132 98D1     		bne	.L252
ARM GAS  C:\Users\jo\AppData\Local\Temp\cclGmtUV.s 			page 29


 1575              		.loc 1 381 0
 1576 0134 3368     		ldr	r3, [r6]
 1577 0136 1F44     		add	r7, r7, r3
 1578              	.LVL184:
 1579 0138 3760     		str	r7, [r6]
 1580 013a 94E7     		b	.L252
 1581              	.LVL185:
 1582              	.L217:
 1583              		.loc 1 322 0
 1584 013c 2044     		add	r0, r0, r4
 1585 013e 3A46     		mov	r2, r7
 1586 0140 1430     		adds	r0, r0, #20
 1587 0142 4146     		mov	r1, r8
 1588 0144 FFF7FEFF 		bl	memcpy
 1589              	.LVL186:
 1590              		.loc 1 325 0
 1591 0148 636A     		ldr	r3, [r4, #36]
 1592 014a 1F44     		add	r7, r7, r3
 1593              	.LVL187:
 1594 014c 6762     		str	r7, [r4, #36]
 1595              	.LVL188:
 1596              	.L256:
 1597              		.loc 1 326 0
 1598 014e 0020     		movs	r0, #0
 1599              	.LBE50:
 1600              		.loc 1 436 0
 1601 0150 04B0     		add	sp, sp, #16
 1602              		.cfi_remember_state
 1603              		.cfi_def_cfa_offset 32
 1604              		@ sp needed
 1605 0152 BDE8F087 		pop	{r4, r5, r6, r7, r8, r9, r10, pc}
 1606              	.LVL189:
 1607              	.L261:
 1608              		.cfi_restore_state
 1609              		.loc 1 280 0
 1610 0156 6A69     		ldr	r2, [r5, #20]
 1611 0158 9742     		cmp	r7, r2
 1612 015a 59D1     		bne	.L226
 1613              		.loc 1 285 0
 1614 015c AA69     		ldr	r2, [r5, #24]
 1615 015e C06B     		ldr	r0, [r0, #60]
 1616              	.LVL190:
 1617 0160 5568     		ldr	r5, [r2, #4]
 1618 0162 94F90810 		ldrsb	r1, [r4, #8]
 1619              		.loc 1 283 0
 1620 0166 3760     		str	r7, [r6]
 1621              		.loc 1 285 0
 1622 0168 4246     		mov	r2, r8
 1623 016a AC46     		mov	ip, r5
 1624              		.loc 1 436 0
 1625 016c 04B0     		add	sp, sp, #16
 1626              		.cfi_remember_state
 1627              		.cfi_def_cfa_offset 32
 1628              		@ sp needed
 1629 016e BDE8F047 		pop	{r4, r5, r6, r7, r8, r9, r10, lr}
 1630              		.cfi_restore 14
 1631              		.cfi_restore 10
ARM GAS  C:\Users\jo\AppData\Local\Temp\cclGmtUV.s 			page 30


 1632              		.cfi_restore 9
 1633              		.cfi_restore 8
 1634              		.cfi_restore 7
 1635              		.cfi_restore 6
 1636              		.cfi_restore 5
 1637              		.cfi_restore 4
 1638              		.cfi_def_cfa_offset 0
 1639              	.LVL191:
 1640              		.loc 1 285 0
 1641 0172 6047     		bx	ip
 1642              	.LVL192:
 1643              	.L263:
 1644              		.cfi_restore_state
 1645              		.loc 1 303 0 discriminator 1
 1646 0174 436A     		ldr	r3, [r0, #36]
 1647              	.LVL193:
 1648 0176 3BB9     		cbnz	r3, .L203
 1649              	.LVL194:
 1650              		.loc 1 304 0
 1651 0178 6A69     		ldr	r2, [r5, #20]
 1652 017a B7FBF2F3 		udiv	r3, r7, r2
 1653 017e 02FB1373 		mls	r3, r2, r3, r7
 1654 0182 002B     		cmp	r3, #0
 1655 0184 3FF45BAF 		beq	.L206
 1656              	.LVL195:
 1657              	.L203:
 1658              		.loc 1 273 0
 1659 0188 2748     		ldr	r0, .L268
 1660              	.LVL196:
 1661 018a 6CE7     		b	.L252
 1662              	.LVL197:
 1663              	.L208:
 1664              	.LBB65:
 1665              		.loc 1 318 0
 1666 018c 012B     		cmp	r3, #1
 1667 018e 7FF476AF 		bne	.L209
 1668              	.LVL198:
 1669              	.LBB61:
 1670              	.LBB62:
 1671              		.loc 2 408 0
 1672 0192 6A69     		ldr	r2, [r5, #20]
 1673              	.LBE62:
 1674              	.LBE61:
 1675              		.loc 1 320 0
 1676 0194 3B18     		adds	r3, r7, r0
 1677              		.loc 1 319 0
 1678 0196 9A42     		cmp	r2, r3
 1679 0198 D0D8     		bhi	.L217
 1680              		.loc 1 332 0
 1681 019a 0028     		cmp	r0, #0
 1682 019c 34D0     		beq	.L267
 1683 019e 1346     		mov	r3, r2
 1684 01a0 6FE7     		b	.L220
 1685              	.LVL199:
 1686              	.L233:
 1687              	.LBE65:
 1688              		.loc 1 435 0
ARM GAS  C:\Users\jo\AppData\Local\Temp\cclGmtUV.s 			page 31


 1689 01a2 2248     		ldr	r0, .L268+4
 1690              	.LVL200:
 1691 01a4 5FE7     		b	.L252
 1692              	.LVL201:
 1693              	.L262:
 1694              		.loc 1 298 0
 1695 01a6 C06B     		ldr	r0, [r0, #60]
 1696              	.LVL202:
 1697              		.loc 1 297 0
 1698 01a8 3760     		str	r7, [r6]
 1699              		.loc 1 298 0
 1700 01aa 3946     		mov	r1, r7
 1701 01ac 4246     		mov	r2, r8
 1702              		.loc 1 436 0
 1703 01ae 04B0     		add	sp, sp, #16
 1704              		.cfi_remember_state
 1705              		.cfi_def_cfa_offset 32
 1706              		@ sp needed
 1707 01b0 BDE8F047 		pop	{r4, r5, r6, r7, r8, r9, r10, lr}
 1708              		.cfi_restore 14
 1709              		.cfi_restore 10
 1710              		.cfi_restore 9
 1711              		.cfi_restore 8
 1712              		.cfi_restore 7
 1713              		.cfi_restore 6
 1714              		.cfi_restore 5
 1715              		.cfi_restore 4
 1716              		.cfi_def_cfa_offset 0
 1717              	.LVL203:
 1718              		.loc 1 298 0
 1719 01b4 FFF7FEBF 		b	gcm_update
 1720              	.LVL204:
 1721              	.L265:
 1722              		.cfi_restore_state
 1723              		.loc 1 391 0
 1724 01b8 AB69     		ldr	r3, [r5, #24]
 1725 01ba E06B     		ldr	r0, [r4, #60]
 1726              	.LVL205:
 1727 01bc 94F90810 		ldrsb	r1, [r4, #8]
 1728 01c0 CDF80480 		str	r8, [sp, #4]
 1729              		.loc 1 392 0
 1730 01c4 04F12802 		add	r2, r4, #40
 1731              		.loc 1 391 0
 1732 01c8 0092     		str	r2, [sp]
 1733 01ca CDF80890 		str	r9, [sp, #8]
 1734 01ce DD68     		ldr	r5, [r3, #12]
 1735 01d0 3A46     		mov	r2, r7
 1736 01d2 04F12403 		add	r3, r4, #36
 1737 01d6 A847     		blx	r5
 1738              	.LVL206:
 1739 01d8 0028     		cmp	r0, #0
 1740 01da 7FF444AF 		bne	.L252
 1741 01de 41E7     		b	.L258
 1742              	.LVL207:
 1743              	.L266:
 1744              		.loc 1 407 0
 1745 01e0 AB69     		ldr	r3, [r5, #24]
ARM GAS  C:\Users\jo\AppData\Local\Temp\cclGmtUV.s 			page 32


 1746 01e2 E06B     		ldr	r0, [r4, #60]
 1747              	.LVL208:
 1748 01e4 CDF80480 		str	r8, [sp, #4]
 1749              		.loc 1 409 0
 1750 01e8 04F11402 		add	r2, r4, #20
 1751              		.loc 1 407 0
 1752 01ec 0092     		str	r2, [sp]
 1753 01ee CDF80890 		str	r9, [sp, #8]
 1754 01f2 1D69     		ldr	r5, [r3, #16]
 1755 01f4 3946     		mov	r1, r7
 1756 01f6 04F12402 		add	r2, r4, #36
 1757 01fa 04F12803 		add	r3, r4, #40
 1758 01fe A847     		blx	r5
 1759              	.LVL209:
 1760 0200 0028     		cmp	r0, #0
 1761 0202 7FF430AF 		bne	.L252
 1762 0206 2DE7     		b	.L258
 1763              	.LVL210:
 1764              	.L267:
 1765              	.LBB66:
 1766              		.loc 1 357 0
 1767 0208 002F     		cmp	r7, #0
 1768 020a A0D0     		beq	.L256
 1769              	.LVL211:
 1770              	.L212:
 1771              	.LBB63:
 1772              	.LBB58:
 1773              		.loc 2 408 0
 1774 020c 6A69     		ldr	r2, [r5, #20]
 1775 020e 66E7     		b	.L223
 1776              	.LVL212:
 1777              	.L226:
 1778              	.LBE58:
 1779              	.LBE63:
 1780              	.LBE66:
 1781              		.loc 1 281 0
 1782 0210 0748     		ldr	r0, .L268+8
 1783              	.LVL213:
 1784 0212 28E7     		b	.L252
 1785              	.LVL214:
 1786              	.L214:
 1787              	.LBB67:
 1788              		.loc 1 363 0
 1789 0214 08EB0701 		add	r1, r8, r7
 1790 0218 04F11400 		add	r0, r4, #20
 1791 021c 0022     		movs	r2, #0
 1792              	.LVL215:
 1793 021e FFF7FEFF 		bl	memcpy
 1794              	.LVL216:
 1795 0222 7AE7     		b	.L225
 1796              	.LVL217:
 1797              	.L211:
 1798              	.LBB64:
 1799              	.LBB55:
 1800              		.loc 2 406 0
 1801 0224 2A46     		mov	r2, r5
 1802 0226 4EE7     		b	.L224
ARM GAS  C:\Users\jo\AppData\Local\Temp\cclGmtUV.s 			page 33


 1803              	.L269:
 1804              		.align	2
 1805              	.L268:
 1806 0228 009FFFFF 		.word	-24832
 1807 022c 809FFFFF 		.word	-24704
 1808 0230 809DFFFF 		.word	-25216
 1809              	.LBE55:
 1810              	.LBE64:
 1811              	.LBE67:
 1812              		.cfi_endproc
 1813              	.LFE20:
 1814              		.size	cipher_update, .-cipher_update
 1815 0234 AFF30080 		.section	.text.cipher_finish,"ax",%progbits
 1815      AFF30080 
 1815      AFF30080 
 1816              		.align	2
 1817              		.p2align 4,,15
 1818              		.global	cipher_finish
 1819              		.thumb
 1820              		.thumb_func
 1821              		.type	cipher_finish, %function
 1822              	cipher_finish:
 1823              	.LFB30:
 1824              		.loc 1 612 0
 1825              		.cfi_startproc
 1826              		@ args = 0, pretend = 0, frame = 0
 1827              		@ frame_needed = 0, uses_anonymous_args = 0
 1828              	.LVL218:
 1829              		.loc 1 613 0
 1830 0000 0028     		cmp	r0, #0
 1831 0002 64D0     		beq	.L282
 1832              		.loc 1 612 0 discriminator 1
 1833 0004 2DE9F041 		push	{r4, r5, r6, r7, r8, lr}
 1834              		.cfi_def_cfa_offset 24
 1835              		.cfi_offset 4, -24
 1836              		.cfi_offset 5, -20
 1837              		.cfi_offset 6, -16
 1838              		.cfi_offset 7, -12
 1839              		.cfi_offset 8, -8
 1840              		.cfi_offset 14, -4
 1841              		.loc 1 613 0 discriminator 1
 1842 0008 0568     		ldr	r5, [r0]
 1843              		.loc 1 612 0 discriminator 1
 1844 000a 82B0     		sub	sp, sp, #8
 1845              		.cfi_def_cfa_offset 32
 1846              		.loc 1 613 0 discriminator 1
 1847 000c 002D     		cmp	r5, #0
 1848 000e 5CD0     		beq	.L284
 1849              		.loc 1 613 0 is_stmt 0 discriminator 2
 1850 0010 002A     		cmp	r2, #0
 1851 0012 5AD0     		beq	.L284
 1852              		.loc 1 618 0 is_stmt 1
 1853 0014 6C78     		ldrb	r4, [r5, #1]	@ zero_extendqisi2
 1854              		.loc 1 616 0
 1855 0016 0023     		movs	r3, #0
 1856              		.loc 1 618 0
 1857 0018 032C     		cmp	r4, #3
ARM GAS  C:\Users\jo\AppData\Local\Temp\cclGmtUV.s 			page 34


 1858              		.loc 1 616 0
 1859 001a 1360     		str	r3, [r2]
 1860              		.loc 1 618 0
 1861 001c 1CD0     		beq	.L286
 1862              		.loc 1 618 0 is_stmt 0 discriminator 1
 1863 001e 661F     		subs	r6, r4, #5
 1864 0020 022E     		cmp	r6, #2
 1865 0022 19D9     		bls	.L286
 1866              		.loc 1 626 0 is_stmt 1
 1867 0024 012C     		cmp	r4, #1
 1868 0026 1BD0     		beq	.L274
 1869              		.loc 1 635 0
 1870 0028 022C     		cmp	r4, #2
 1871 002a 4AD1     		bne	.L288
 1872              	.LVL219:
 1873 002c 0E46     		mov	r6, r1
 1874              	.LBB68:
 1875              		.loc 1 639 0
 1876 002e 90F90810 		ldrsb	r1, [r0, #8]
 1877              	.LVL220:
 1878 0032 0129     		cmp	r1, #1
 1879 0034 0746     		mov	r7, r0
 1880 0036 1446     		mov	r4, r2
 1881 0038 14D0     		beq	.L300
 1882              	.LVL221:
 1883              		.loc 1 653 0
 1884 003a 426A     		ldr	r2, [r0, #36]
 1885              	.LVL222:
 1886 003c 6B69     		ldr	r3, [r5, #20]
 1887 003e 9342     		cmp	r3, r2
 1888 0040 47D0     		beq	.L278
 1889              		.loc 1 659 0
 1890 0042 C368     		ldr	r3, [r0, #12]
 1891 0044 002B     		cmp	r3, #0
 1892 0046 3ED1     		bne	.L301
 1893              	.LVL223:
 1894              	.L299:
 1895              	.LBE68:
 1896              		.loc 1 631 0
 1897 0048 254B     		ldr	r3, .L303
 1898 004a 002A     		cmp	r2, #0
 1899 004c 14BF     		ite	ne
 1900 004e 1846     		movne	r0, r3
 1901              	.LVL224:
 1902 0050 0020     		moveq	r0, #0
 1903              		.loc 1 687 0
 1904 0052 02B0     		add	sp, sp, #8
 1905              		.cfi_remember_state
 1906              		.cfi_def_cfa_offset 24
 1907              		@ sp needed
 1908 0054 BDE8F081 		pop	{r4, r5, r6, r7, r8, pc}
 1909              	.LVL225:
 1910              	.L286:
 1911              		.cfi_restore_state
 1912              		.loc 1 623 0
 1913 0058 1846     		mov	r0, r3
 1914              	.LVL226:
ARM GAS  C:\Users\jo\AppData\Local\Temp\cclGmtUV.s 			page 35


 1915              	.L297:
 1916              		.loc 1 687 0
 1917 005a 02B0     		add	sp, sp, #8
 1918              		.cfi_remember_state
 1919              		.cfi_def_cfa_offset 24
 1920              		@ sp needed
 1921 005c BDE8F081 		pop	{r4, r5, r6, r7, r8, pc}
 1922              	.LVL227:
 1923              	.L274:
 1924              		.cfi_restore_state
 1925              		.loc 1 628 0
 1926 0060 426A     		ldr	r2, [r0, #36]
 1927              	.LVL228:
 1928 0062 F1E7     		b	.L299
 1929              	.LVL229:
 1930              	.L300:
 1931              	.LBB81:
 1932              		.loc 1 642 0
 1933 0064 C368     		ldr	r3, [r0, #12]
 1934 0066 002B     		cmp	r3, #0
 1935 0068 FAD0     		beq	.L274
 1936              	.LBB69:
 1937              	.LBB70:
 1938              		.loc 2 442 0
 1939 006a 816B     		ldr	r1, [r0, #56]
 1940              	.LBE70:
 1941              	.LBE69:
 1942              		.loc 1 650 0
 1943 006c 00F11408 		add	r8, r0, #20
 1944              	.LVL230:
 1945              	.LBB73:
 1946              	.LBB71:
 1947              		.loc 2 442 0
 1948 0070 29B3     		cbz	r1, .L302
 1949              	.L276:
 1950              	.LBE71:
 1951              	.LBE73:
 1952              		.loc 1 650 0
 1953 0072 4046     		mov	r0, r8
 1954              	.LVL231:
 1955 0074 7A6A     		ldr	r2, [r7, #36]
 1956              	.LVL232:
 1957 0076 9847     		blx	r3
 1958              	.LVL233:
 1959              		.loc 1 666 0
 1960 0078 3D68     		ldr	r5, [r7]
 1961 007a F86B     		ldr	r0, [r7, #60]
 1962 007c AB69     		ldr	r3, [r5, #24]
 1963 007e 97F90810 		ldrsb	r1, [r7, #8]
 1964 0082 D3F808C0 		ldr	ip, [r3, #8]
 1965              	.LVL234:
 1966              	.L277:
 1967 0086 6A69     		ldr	r2, [r5, #20]
 1968 0088 CDF80080 		str	r8, [sp]
 1969 008c 0196     		str	r6, [sp, #4]
 1970 008e 07F12803 		add	r3, r7, #40
 1971 0092 E047     		blx	ip
ARM GAS  C:\Users\jo\AppData\Local\Temp\cclGmtUV.s 			page 36


 1972              	.LVL235:
 1973 0094 0028     		cmp	r0, #0
 1974 0096 E0D1     		bne	.L297
 1975              		.loc 1 674 0
 1976 0098 97F90830 		ldrsb	r3, [r7, #8]
 1977 009c 4BB9     		cbnz	r3, .L279
 1978              	.LBB74:
 1979              	.LBB75:
 1980              		.loc 2 405 0
 1981 009e 3968     		ldr	r1, [r7]
 1982              	.LBE75:
 1983              	.LBE74:
 1984              		.loc 1 675 0
 1985 00a0 3B69     		ldr	r3, [r7, #16]
 1986              	.LVL236:
 1987              	.LBB77:
 1988              	.LBB76:
 1989              		.loc 2 405 0
 1990 00a2 01B1     		cbz	r1, .L280
 1991              		.loc 2 408 0
 1992 00a4 4969     		ldr	r1, [r1, #20]
 1993              	.L280:
 1994              	.LBE76:
 1995              	.LBE77:
 1996              		.loc 1 675 0
 1997 00a6 3046     		mov	r0, r6
 1998              	.LVL237:
 1999 00a8 2246     		mov	r2, r4
 2000              	.LBE81:
 2001              		.loc 1 687 0
 2002 00aa 02B0     		add	sp, sp, #8
 2003              		.cfi_remember_state
 2004              		.cfi_def_cfa_offset 24
 2005              		@ sp needed
 2006 00ac BDE8F041 		pop	{r4, r5, r6, r7, r8, lr}
 2007              		.cfi_restore 14
 2008              		.cfi_restore 8
 2009              		.cfi_restore 7
 2010              		.cfi_restore 6
 2011              		.cfi_restore 5
 2012              		.cfi_restore 4
 2013              		.cfi_def_cfa_offset 0
 2014              	.LVL238:
 2015              	.LBB82:
 2016              		.loc 1 675 0
 2017 00b0 1847     		bx	r3
 2018              	.LVL239:
 2019              	.L279:
 2020              		.cfi_restore_state
 2021              	.LBB78:
 2022              	.LBB79:
 2023              		.loc 2 405 0
 2024 00b2 3B68     		ldr	r3, [r7]
 2025 00b4 03B1     		cbz	r3, .L281
 2026              		.loc 2 408 0
 2027 00b6 5B69     		ldr	r3, [r3, #20]
 2028              	.L281:
ARM GAS  C:\Users\jo\AppData\Local\Temp\cclGmtUV.s 			page 37


 2029              	.LBE79:
 2030              	.LBE78:
 2031              		.loc 1 679 0
 2032 00b8 2360     		str	r3, [r4]
 2033              		.loc 1 680 0
 2034 00ba 0020     		movs	r0, #0
 2035              	.LVL240:
 2036 00bc CDE7     		b	.L297
 2037              	.LVL241:
 2038              	.L302:
 2039              	.LBB80:
 2040              	.LBB72:
 2041              		.loc 2 445 0
 2042 00be E968     		ldr	r1, [r5, #12]
 2043 00c0 D7E7     		b	.L276
 2044              	.LVL242:
 2045              	.L288:
 2046              	.LBE72:
 2047              	.LBE80:
 2048              	.LBE82:
 2049              		.loc 1 686 0
 2050 00c2 0848     		ldr	r0, .L303+4
 2051              	.LVL243:
 2052 00c4 C9E7     		b	.L297
 2053              	.LVL244:
 2054              	.L301:
 2055              	.LBB83:
 2056              		.loc 1 662 0
 2057 00c6 0648     		ldr	r0, .L303
 2058              	.LVL245:
 2059 00c8 C7E7     		b	.L297
 2060              	.LVL246:
 2061              	.L284:
 2062              	.LBE83:
 2063              		.loc 1 614 0
 2064 00ca 0748     		ldr	r0, .L303+8
 2065              	.LVL247:
 2066 00cc C5E7     		b	.L297
 2067              	.LVL248:
 2068              	.L282:
 2069              		.cfi_def_cfa_offset 0
 2070              		.cfi_restore 4
 2071              		.cfi_restore 5
 2072              		.cfi_restore 6
 2073              		.cfi_restore 7
 2074              		.cfi_restore 8
 2075              		.cfi_restore 14
 2076 00ce 0648     		ldr	r0, .L303+8
 2077              	.LVL249:
 2078              		.loc 1 687 0
 2079 00d0 7047     		bx	lr
 2080              	.LVL250:
 2081              	.L278:
 2082              		.cfi_def_cfa_offset 32
 2083              		.cfi_offset 4, -24
 2084              		.cfi_offset 5, -20
 2085              		.cfi_offset 6, -16
ARM GAS  C:\Users\jo\AppData\Local\Temp\cclGmtUV.s 			page 38


 2086              		.cfi_offset 7, -12
 2087              		.cfi_offset 8, -8
 2088              		.cfi_offset 14, -4
 2089              	.LBB84:
 2090              		.loc 1 666 0
 2091 00d2 AB69     		ldr	r3, [r5, #24]
 2092 00d4 C06B     		ldr	r0, [r0, #60]
 2093              	.LVL251:
 2094 00d6 D3F808C0 		ldr	ip, [r3, #8]
 2095 00da 07F11408 		add	r8, r7, #20
 2096 00de D2E7     		b	.L277
 2097              	.L304:
 2098              		.align	2
 2099              	.L303:
 2100 00e0 809DFFFF 		.word	-25216
 2101 00e4 809FFFFF 		.word	-24704
 2102 00e8 009FFFFF 		.word	-24832
 2103              	.LBE84:
 2104              		.cfi_endproc
 2105              	.LFE30:
 2106              		.size	cipher_finish, .-cipher_finish
 2107 00ec AFF30080 		.section	.text.cipher_set_padding_mode,"ax",%progbits
 2108              		.align	2
 2109              		.p2align 4,,15
 2110              		.global	cipher_set_padding_mode
 2111              		.thumb
 2112              		.thumb_func
 2113              		.type	cipher_set_padding_mode, %function
 2114              	cipher_set_padding_mode:
 2115              	.LFB31:
 2116              		.loc 1 691 0
 2117              		.cfi_startproc
 2118              		@ args = 0, pretend = 0, frame = 0
 2119              		@ frame_needed = 0, uses_anonymous_args = 0
 2120              		@ link register save eliminated.
 2121              	.LVL252:
 2122              		.loc 1 692 0
 2123 0000 0346     		mov	r3, r0
 2124 0002 0028     		cmp	r0, #0
 2125 0004 27D0     		beq	.L314
 2126              		.loc 1 693 0 discriminator 1
 2127 0006 0268     		ldr	r2, [r0]
 2128              		.loc 1 692 0 discriminator 1
 2129 0008 5278     		ldrb	r2, [r2, #1]	@ zero_extendqisi2
 2130 000a 022A     		cmp	r2, #2
 2131 000c 23D1     		bne	.L314
 2132              		.loc 1 698 0
 2133 000e 0429     		cmp	r1, #4
 2134 0010 23D8     		bhi	.L315
 2135 0012 DFE801F0 		tbb	[pc, r1]
 2136              	.L308:
 2137 0016 08       		.byte	(.L307-.L308)/2
 2138 0017 0E       		.byte	(.L309-.L308)/2
 2139 0018 14       		.byte	(.L310-.L308)/2
 2140 0019 1A       		.byte	(.L311-.L308)/2
 2141 001a 03       		.byte	(.L312-.L308)/2
 2142 001b 00       		.p2align 1
ARM GAS  C:\Users\jo\AppData\Local\Temp\cclGmtUV.s 			page 39


 2143              	.L312:
 2144              		.loc 1 725 0
 2145 001c 0020     		movs	r0, #0
 2146              	.LVL253:
 2147              		.loc 1 726 0
 2148 001e 104A     		ldr	r2, .L316
 2149              		.loc 1 725 0
 2150 0020 D860     		str	r0, [r3, #12]
 2151              		.loc 1 726 0
 2152 0022 1A61     		str	r2, [r3, #16]
 2153              		.loc 1 727 0
 2154 0024 7047     		bx	lr
 2155              	.LVL254:
 2156              	.L307:
 2157              		.loc 1 702 0
 2158 0026 0F49     		ldr	r1, .L316+4
 2159              	.LVL255:
 2160              		.loc 1 703 0
 2161 0028 0F4A     		ldr	r2, .L316+8
 2162              		.loc 1 702 0
 2163 002a C160     		str	r1, [r0, #12]
 2164              		.loc 1 703 0
 2165 002c 0261     		str	r2, [r0, #16]
 2166              		.loc 1 733 0
 2167 002e 0020     		movs	r0, #0
 2168              	.LVL256:
 2169              		.loc 1 704 0
 2170 0030 7047     		bx	lr
 2171              	.LVL257:
 2172              	.L309:
 2173              		.loc 1 708 0
 2174 0032 0E49     		ldr	r1, .L316+12
 2175              	.LVL258:
 2176              		.loc 1 709 0
 2177 0034 0E4A     		ldr	r2, .L316+16
 2178              		.loc 1 708 0
 2179 0036 C160     		str	r1, [r0, #12]
 2180              		.loc 1 709 0
 2181 0038 0261     		str	r2, [r0, #16]
 2182              		.loc 1 733 0
 2183 003a 0020     		movs	r0, #0
 2184              	.LVL259:
 2185              		.loc 1 710 0
 2186 003c 7047     		bx	lr
 2187              	.LVL260:
 2188              	.L310:
 2189              		.loc 1 714 0
 2190 003e 0D49     		ldr	r1, .L316+20
 2191              	.LVL261:
 2192              		.loc 1 715 0
 2193 0040 0D4A     		ldr	r2, .L316+24
 2194              		.loc 1 714 0
 2195 0042 C160     		str	r1, [r0, #12]
 2196              		.loc 1 715 0
 2197 0044 0261     		str	r2, [r0, #16]
 2198              		.loc 1 733 0
 2199 0046 0020     		movs	r0, #0
ARM GAS  C:\Users\jo\AppData\Local\Temp\cclGmtUV.s 			page 40


 2200              	.LVL262:
 2201              		.loc 1 716 0
 2202 0048 7047     		bx	lr
 2203              	.LVL263:
 2204              	.L311:
 2205              		.loc 1 720 0
 2206 004a 0C49     		ldr	r1, .L316+28
 2207              	.LVL264:
 2208              		.loc 1 721 0
 2209 004c 0C4A     		ldr	r2, .L316+32
 2210              		.loc 1 720 0
 2211 004e C160     		str	r1, [r0, #12]
 2212              		.loc 1 721 0
 2213 0050 0261     		str	r2, [r0, #16]
 2214              		.loc 1 733 0
 2215 0052 0020     		movs	r0, #0
 2216              	.LVL265:
 2217              		.loc 1 722 0
 2218 0054 7047     		bx	lr
 2219              	.LVL266:
 2220              	.L314:
 2221              		.loc 1 695 0
 2222 0056 0B48     		ldr	r0, .L316+36
 2223              	.LVL267:
 2224 0058 7047     		bx	lr
 2225              	.LVL268:
 2226              	.L315:
 2227              		.loc 1 730 0
 2228 005a 0B48     		ldr	r0, .L316+40
 2229              	.LVL269:
 2230              		.loc 1 734 0
 2231 005c 7047     		bx	lr
 2232              	.L317:
 2233 005e 00BF     		.align	2
 2234              	.L316:
 2235 0060 00000000 		.word	get_no_padding
 2236 0064 00000000 		.word	add_pkcs_padding
 2237 0068 00000000 		.word	get_pkcs_padding
 2238 006c 00000000 		.word	add_one_and_zeros_padding
 2239 0070 00000000 		.word	get_one_and_zeros_padding
 2240 0074 00000000 		.word	add_zeros_and_len_padding
 2241 0078 00000000 		.word	get_zeros_and_len_padding
 2242 007c 00000000 		.word	add_zeros_padding
 2243 0080 00000000 		.word	get_zeros_padding
 2244 0084 009FFFFF 		.word	-24832
 2245 0088 809FFFFF 		.word	-24704
 2246              		.cfi_endproc
 2247              	.LFE31:
 2248              		.size	cipher_set_padding_mode, .-cipher_set_padding_mode
 2249 008c AFF30080 		.section	.text.cipher_init_ctx,"ax",%progbits
 2250              		.align	2
 2251              		.p2align 4,,15
 2252              		.global	cipher_init_ctx
 2253              		.thumb
 2254              		.thumb_func
 2255              		.type	cipher_init_ctx, %function
 2256              	cipher_init_ctx:
ARM GAS  C:\Users\jo\AppData\Local\Temp\cclGmtUV.s 			page 41


 2257              	.LFB14:
 2258              		.loc 1 143 0
 2259              		.cfi_startproc
 2260              		@ args = 0, pretend = 0, frame = 0
 2261              		@ frame_needed = 0, uses_anonymous_args = 0
 2262              	.LVL270:
 2263              		.loc 1 144 0
 2264 0000 B9B1     		cbz	r1, .L320
 2265              		.loc 1 143 0 discriminator 1
 2266 0002 38B5     		push	{r3, r4, r5, lr}
 2267              		.cfi_def_cfa_offset 16
 2268              		.cfi_offset 3, -16
 2269              		.cfi_offset 4, -12
 2270              		.cfi_offset 5, -8
 2271              		.cfi_offset 14, -4
 2272 0004 0446     		mov	r4, r0
 2273              		.loc 1 144 0 discriminator 1
 2274 0006 80B1     		cbz	r0, .L321
 2275 0008 0D46     		mov	r5, r1
 2276              		.loc 1 147 0
 2277 000a 4022     		movs	r2, #64
 2278 000c 0021     		movs	r1, #0
 2279              	.LVL271:
 2280 000e FFF7FEFF 		bl	memset
 2281              	.LVL272:
 2282              		.loc 1 149 0
 2283 0012 AB69     		ldr	r3, [r5, #24]
 2284 0014 1B6A     		ldr	r3, [r3, #32]
 2285 0016 9847     		blx	r3
 2286              	.LVL273:
 2287 0018 E063     		str	r0, [r4, #60]
 2288 001a 40B1     		cbz	r0, .L322
 2289              		.loc 1 152 0
 2290 001c 2560     		str	r5, [r4]
 2291              		.loc 1 159 0
 2292 001e 2046     		mov	r0, r4
 2293 0020 0021     		movs	r1, #0
 2294 0022 FFF7FEFF 		bl	cipher_set_padding_mode
 2295              	.LVL274:
 2296              		.loc 1 165 0
 2297 0026 0020     		movs	r0, #0
 2298 0028 38BD     		pop	{r3, r4, r5, pc}
 2299              	.LVL275:
 2300              	.L321:
 2301              		.loc 1 145 0
 2302 002a 0348     		ldr	r0, .L324
 2303              	.LVL276:
 2304 002c 38BD     		pop	{r3, r4, r5, pc}
 2305              	.LVL277:
 2306              	.L322:
 2307              		.loc 1 150 0
 2308 002e 0348     		ldr	r0, .L324+4
 2309              		.loc 1 166 0
 2310 0030 38BD     		pop	{r3, r4, r5, pc}
 2311              	.LVL278:
 2312              	.L320:
 2313              		.cfi_def_cfa_offset 0
ARM GAS  C:\Users\jo\AppData\Local\Temp\cclGmtUV.s 			page 42


 2314              		.cfi_restore 3
 2315              		.cfi_restore 4
 2316              		.cfi_restore 5
 2317              		.cfi_restore 14
 2318              		.loc 1 145 0
 2319 0032 0148     		ldr	r0, .L324
 2320              	.LVL279:
 2321              		.loc 1 166 0
 2322 0034 7047     		bx	lr
 2323              	.L325:
 2324 0036 00BF     		.align	2
 2325              	.L324:
 2326 0038 009FFFFF 		.word	-24832
 2327 003c 809EFFFF 		.word	-24960
 2328              		.cfi_endproc
 2329              	.LFE14:
 2330              		.size	cipher_init_ctx, .-cipher_init_ctx
 2331              		.section	.text.cipher_write_tag,"ax",%progbits
 2332              		.align	2
 2333              		.p2align 4,,15
 2334              		.global	cipher_write_tag
 2335              		.thumb
 2336              		.thumb_func
 2337              		.type	cipher_write_tag, %function
 2338              	cipher_write_tag:
 2339              	.LFB32:
 2340              		.loc 1 740 0
 2341              		.cfi_startproc
 2342              		@ args = 0, pretend = 0, frame = 0
 2343              		@ frame_needed = 0, uses_anonymous_args = 0
 2344              		@ link register save eliminated.
 2345              	.LVL280:
 2346              		.loc 1 741 0
 2347 0000 B8B1     		cbz	r0, .L329
 2348              		.loc 1 741 0 is_stmt 0 discriminator 1
 2349 0002 0368     		ldr	r3, [r0]
 2350 0004 ABB1     		cbz	r3, .L329
 2351              		.loc 1 740 0 is_stmt 1 discriminator 2
 2352 0006 10B4     		push	{r4}
 2353              		.cfi_def_cfa_offset 4
 2354              		.cfi_offset 4, -4
 2355              		.loc 1 741 0 discriminator 2
 2356 0008 79B1     		cbz	r1, .L331
 2357              		.loc 1 744 0
 2358 000a 90F90840 		ldrsb	r4, [r0, #8]
 2359 000e 012C     		cmp	r4, #1
 2360 0010 0BD1     		bne	.L331
 2361              		.loc 1 747 0
 2362 0012 5B78     		ldrb	r3, [r3, #1]	@ zero_extendqisi2
 2363 0014 062B     		cmp	r3, #6
 2364 0016 03D0     		beq	.L335
 2365              		.loc 1 750 0
 2366 0018 0020     		movs	r0, #0
 2367              	.LVL281:
 2368              		.loc 1 751 0
 2369 001a 5DF8044B 		ldr	r4, [sp], #4
 2370              		.cfi_remember_state
ARM GAS  C:\Users\jo\AppData\Local\Temp\cclGmtUV.s 			page 43


 2371              		.cfi_restore 4
 2372              		.cfi_def_cfa_offset 0
 2373 001e 7047     		bx	lr
 2374              	.LVL282:
 2375              	.L335:
 2376              		.cfi_restore_state
 2377              		.loc 1 748 0
 2378 0020 C06B     		ldr	r0, [r0, #60]
 2379              	.LVL283:
 2380              		.loc 1 751 0
 2381 0022 5DF8044B 		ldr	r4, [sp], #4
 2382              		.cfi_remember_state
 2383              		.cfi_restore 4
 2384              		.cfi_def_cfa_offset 0
 2385              		.loc 1 748 0
 2386 0026 FFF7FEBF 		b	gcm_finish
 2387              	.LVL284:
 2388              	.L331:
 2389              		.cfi_restore_state
 2390              		.loc 1 742 0
 2391 002a 0348     		ldr	r0, .L336
 2392              	.LVL285:
 2393              		.loc 1 751 0
 2394 002c 5DF8044B 		ldr	r4, [sp], #4
 2395              		.cfi_restore 4
 2396              		.cfi_def_cfa_offset 0
 2397 0030 7047     		bx	lr
 2398              	.LVL286:
 2399              	.L329:
 2400              		.loc 1 742 0
 2401 0032 0148     		ldr	r0, .L336
 2402              	.LVL287:
 2403 0034 7047     		bx	lr
 2404              	.L337:
 2405 0036 00BF     		.align	2
 2406              	.L336:
 2407 0038 009FFFFF 		.word	-24832
 2408              		.cfi_endproc
 2409              	.LFE32:
 2410              		.size	cipher_write_tag, .-cipher_write_tag
 2411 003c AFF30080 		.section	.text.cipher_check_tag,"ax",%progbits
 2412              		.align	2
 2413              		.p2align 4,,15
 2414              		.global	cipher_check_tag
 2415              		.thumb
 2416              		.thumb_func
 2417              		.type	cipher_check_tag, %function
 2418              	cipher_check_tag:
 2419              	.LFB33:
 2420              		.loc 1 755 0
 2421              		.cfi_startproc
 2422              		@ args = 0, pretend = 0, frame = 16
 2423              		@ frame_needed = 0, uses_anonymous_args = 0
 2424              	.LVL288:
 2425              		.loc 1 758 0
 2426 0000 88B3     		cbz	r0, .L342
 2427              		.loc 1 755 0 discriminator 1
ARM GAS  C:\Users\jo\AppData\Local\Temp\cclGmtUV.s 			page 44


 2428 0002 30B5     		push	{r4, r5, lr}
 2429              		.cfi_def_cfa_offset 12
 2430              		.cfi_offset 4, -12
 2431              		.cfi_offset 5, -8
 2432              		.cfi_offset 14, -4
 2433              		.loc 1 758 0 discriminator 1
 2434 0004 0468     		ldr	r4, [r0]
 2435              		.loc 1 755 0 discriminator 1
 2436 0006 85B0     		sub	sp, sp, #20
 2437              		.cfi_def_cfa_offset 32
 2438              		.loc 1 758 0 discriminator 1
 2439 0008 5CB1     		cbz	r4, .L344
 2440              		.loc 1 758 0 is_stmt 0 discriminator 2
 2441 000a 90F90830 		ldrsb	r3, [r0, #8]
 2442 000e 43B9     		cbnz	r3, .L344
 2443              		.loc 1 764 0 is_stmt 1
 2444 0010 6478     		ldrb	r4, [r4, #1]	@ zero_extendqisi2
 2445 0012 062C     		cmp	r4, #6
 2446 0014 02D0     		beq	.L352
 2447              		.loc 1 789 0
 2448 0016 1846     		mov	r0, r3
 2449              	.LVL289:
 2450              	.L339:
 2451              		.loc 1 790 0 discriminator 1
 2452 0018 05B0     		add	sp, sp, #20
 2453              		.cfi_remember_state
 2454              		.cfi_def_cfa_offset 12
 2455              		@ sp needed
 2456 001a 30BD     		pop	{r4, r5, pc}
 2457              	.LVL290:
 2458              	.L352:
 2459              		.cfi_restore_state
 2460              	.LBB85:
 2461              		.loc 1 770 0
 2462 001c 102A     		cmp	r2, #16
 2463 001e 1546     		mov	r5, r2
 2464 0020 02D9     		bls	.L353
 2465              	.L344:
 2466              	.LBE85:
 2467              		.loc 1 761 0
 2468 0022 1248     		ldr	r0, .L354
 2469              	.LVL291:
 2470              		.loc 1 790 0
 2471 0024 05B0     		add	sp, sp, #20
 2472              		.cfi_remember_state
 2473              		.cfi_def_cfa_offset 12
 2474              		@ sp needed
 2475 0026 30BD     		pop	{r4, r5, pc}
 2476              	.LVL292:
 2477              	.L353:
 2478              		.cfi_restore_state
 2479 0028 0C46     		mov	r4, r1
 2480              	.LBB86:
 2481              		.loc 1 773 0
 2482 002a C06B     		ldr	r0, [r0, #60]
 2483              	.LVL293:
 2484 002c 6946     		mov	r1, sp
ARM GAS  C:\Users\jo\AppData\Local\Temp\cclGmtUV.s 			page 45


 2485              	.LVL294:
 2486 002e FFF7FEFF 		bl	gcm_finish
 2487              	.LVL295:
 2488 0032 0028     		cmp	r0, #0
 2489 0034 F0D1     		bne	.L339
 2490              	.LVL296:
 2491              		.loc 1 780 0 discriminator 1
 2492 0036 A5B1     		cbz	r5, .L348
 2493 0038 013D     		subs	r5, r5, #1
 2494              	.LVL297:
 2495 003a 6119     		adds	r1, r4, r5
 2496 003c 631E     		subs	r3, r4, #1
 2497 003e 0DF1FF34 		add	r4, sp, #-1
 2498              	.LVL298:
 2499              	.L341:
 2500              		.loc 1 781 0 discriminator 3
 2501 0042 13F8012F 		ldrb	r2, [r3, #1]!	@ zero_extendqisi2
 2502              	.LVL299:
 2503 0046 14F8015F 		ldrb	r5, [r4, #1]!	@ zero_extendqisi2
 2504              		.loc 1 780 0 discriminator 3
 2505 004a 8B42     		cmp	r3, r1
 2506              		.loc 1 781 0 discriminator 3
 2507 004c 82EA0502 		eor	r2, r2, r5
 2508 0050 40EA0200 		orr	r0, r0, r2
 2509              	.LVL300:
 2510              		.loc 1 780 0 discriminator 3
 2511 0054 F5D1     		bne	.L341
 2512              		.loc 1 786 0
 2513 0056 064B     		ldr	r3, .L354+4
 2514              	.LVL301:
 2515 0058 0028     		cmp	r0, #0
 2516 005a 14BF     		ite	ne
 2517 005c 1846     		movne	r0, r3
 2518              	.LVL302:
 2519 005e 0020     		moveq	r0, #0
 2520 0060 DAE7     		b	.L339
 2521              	.LVL303:
 2522              	.L348:
 2523 0062 2846     		mov	r0, r5
 2524              	.LVL304:
 2525 0064 D8E7     		b	.L339
 2526              	.LVL305:
 2527              	.L342:
 2528              		.cfi_def_cfa_offset 0
 2529              		.cfi_restore 4
 2530              		.cfi_restore 5
 2531              		.cfi_restore 14
 2532              	.LBE86:
 2533              		.loc 1 761 0
 2534 0066 0148     		ldr	r0, .L354
 2535              	.LVL306:
 2536              		.loc 1 790 0
 2537 0068 7047     		bx	lr
 2538              	.L355:
 2539 006a 00BF     		.align	2
 2540              	.L354:
 2541 006c 009FFFFF 		.word	-24832
ARM GAS  C:\Users\jo\AppData\Local\Temp\cclGmtUV.s 			page 46


 2542 0070 009DFFFF 		.word	-25344
 2543              		.cfi_endproc
 2544              	.LFE33:
 2545              		.size	cipher_check_tag, .-cipher_check_tag
 2546 0074 AFF30080 		.section	.text.cipher_crypt,"ax",%progbits
 2546      AFF30080 
 2546      AFF30080 
 2547              		.align	2
 2548              		.p2align 4,,15
 2549              		.global	cipher_crypt
 2550              		.thumb
 2551              		.thumb_func
 2552              		.type	cipher_crypt, %function
 2553              	cipher_crypt:
 2554              	.LFB34:
 2555              		.loc 1 800 0
 2556              		.cfi_startproc
 2557              		@ args = 12, pretend = 0, frame = 8
 2558              		@ frame_needed = 0, uses_anonymous_args = 0
 2559              	.LVL307:
 2560 0000 30B5     		push	{r4, r5, lr}
 2561              		.cfi_def_cfa_offset 12
 2562              		.cfi_offset 4, -12
 2563              		.cfi_offset 5, -8
 2564              		.cfi_offset 14, -4
 2565 0002 85B0     		sub	sp, sp, #20
 2566              		.cfi_def_cfa_offset 32
 2567              		.loc 1 800 0
 2568 0004 1D46     		mov	r5, r3
 2569 0006 0446     		mov	r4, r0
 2570              		.loc 1 804 0
 2571 0008 FFF7FEFF 		bl	cipher_set_iv
 2572              	.LVL308:
 2573 000c 60B9     		cbnz	r0, .L357
 2574              	.LVL309:
 2575              	.LBB87:
 2576              	.LBB88:
 2577              		.loc 1 241 0
 2578 000e F4B1     		cbz	r4, .L360
 2579 0010 2368     		ldr	r3, [r4]
 2580 0012 E3B1     		cbz	r3, .L360
 2581              	.LBE88:
 2582              	.LBE87:
 2583              		.loc 1 810 0
 2584 0014 0A9B     		ldr	r3, [sp, #40]
 2585              	.LBB91:
 2586              	.LBB89:
 2587              		.loc 1 244 0
 2588 0016 6062     		str	r0, [r4, #36]
 2589              	.LVL310:
 2590              	.LBE89:
 2591              	.LBE91:
 2592              		.loc 1 810 0
 2593 0018 2946     		mov	r1, r5
 2594 001a 0093     		str	r3, [sp]
 2595 001c 2046     		mov	r0, r4
 2596 001e 089A     		ldr	r2, [sp, #32]
ARM GAS  C:\Users\jo\AppData\Local\Temp\cclGmtUV.s 			page 47


 2597 0020 099B     		ldr	r3, [sp, #36]
 2598 0022 FFF7FEFF 		bl	cipher_update
 2599              	.LVL311:
 2600 0026 08B1     		cbz	r0, .L364
 2601              	.LVL312:
 2602              	.L357:
 2603              		.loc 1 819 0
 2604 0028 05B0     		add	sp, sp, #20
 2605              		.cfi_remember_state
 2606              		.cfi_def_cfa_offset 12
 2607              		@ sp needed
 2608 002a 30BD     		pop	{r4, r5, pc}
 2609              	.LVL313:
 2610              	.L364:
 2611              		.cfi_restore_state
 2612              		.loc 1 813 0
 2613 002c 0A9B     		ldr	r3, [sp, #40]
 2614 002e 1968     		ldr	r1, [r3]
 2615 0030 099B     		ldr	r3, [sp, #36]
 2616 0032 2046     		mov	r0, r4
 2617              	.LVL314:
 2618 0034 1944     		add	r1, r1, r3
 2619 0036 03AA     		add	r2, sp, #12
 2620 0038 FFF7FEFF 		bl	cipher_finish
 2621              	.LVL315:
 2622 003c 0028     		cmp	r0, #0
 2623 003e F3D1     		bne	.L357
 2624              		.loc 1 816 0
 2625 0040 0A9B     		ldr	r3, [sp, #40]
 2626 0042 1A68     		ldr	r2, [r3]
 2627 0044 039B     		ldr	r3, [sp, #12]
 2628 0046 1344     		add	r3, r3, r2
 2629 0048 0A9A     		ldr	r2, [sp, #40]
 2630 004a 1360     		str	r3, [r2]
 2631              		.loc 1 818 0
 2632 004c ECE7     		b	.L357
 2633              	.L360:
 2634              	.LBB92:
 2635              	.LBB90:
 2636              		.loc 1 241 0
 2637 004e 0148     		ldr	r0, .L365
 2638              	.LVL316:
 2639              	.LBE90:
 2640              	.LBE92:
 2641              		.loc 1 819 0
 2642 0050 05B0     		add	sp, sp, #20
 2643              		.cfi_def_cfa_offset 12
 2644              		@ sp needed
 2645 0052 30BD     		pop	{r4, r5, pc}
 2646              	.LVL317:
 2647              	.L366:
 2648              		.align	2
 2649              	.L365:
 2650 0054 009FFFFF 		.word	-24832
 2651              		.cfi_endproc
 2652              	.LFE34:
 2653              		.size	cipher_crypt, .-cipher_crypt
ARM GAS  C:\Users\jo\AppData\Local\Temp\cclGmtUV.s 			page 48


 2654 0058 AFF30080 		.section	.text.cipher_auth_encrypt,"ax",%progbits
 2654      AFF30080 
 2655              		.align	2
 2656              		.p2align 4,,15
 2657              		.global	cipher_auth_encrypt
 2658              		.thumb
 2659              		.thumb_func
 2660              		.type	cipher_auth_encrypt, %function
 2661              	cipher_auth_encrypt:
 2662              	.LFB35:
 2663              		.loc 1 831 0
 2664              		.cfi_startproc
 2665              		@ args = 28, pretend = 0, frame = 0
 2666              		@ frame_needed = 0, uses_anonymous_args = 0
 2667              	.LVL318:
 2668 0000 2DE9F047 		push	{r4, r5, r6, r7, r8, r9, r10, lr}
 2669              		.cfi_def_cfa_offset 32
 2670              		.cfi_offset 4, -32
 2671              		.cfi_offset 5, -28
 2672              		.cfi_offset 6, -24
 2673              		.cfi_offset 7, -20
 2674              		.cfi_offset 8, -16
 2675              		.cfi_offset 9, -12
 2676              		.cfi_offset 10, -8
 2677              		.cfi_offset 14, -4
 2678              		.loc 1 831 0
 2679 0004 0E46     		mov	r6, r1
 2680              		.loc 1 833 0
 2681 0006 0168     		ldr	r1, [r0]
 2682              	.LVL319:
 2683              		.loc 1 831 0
 2684 0008 DDF82090 		ldr	r9, [sp, #32]
 2685              		.loc 1 833 0
 2686 000c 4C78     		ldrb	r4, [r1, #1]	@ zero_extendqisi2
 2687              		.loc 1 831 0
 2688 000e DDF82480 		ldr	r8, [sp, #36]
 2689 0012 0A99     		ldr	r1, [sp, #40]
 2690 0014 DDF82CC0 		ldr	ip, [sp, #44]
 2691 0018 DDF830A0 		ldr	r10, [sp, #48]
 2692 001c DDF834E0 		ldr	lr, [sp, #52]
 2693 0020 0E9F     		ldr	r7, [sp, #56]
 2694              		.loc 1 833 0
 2695 0022 062C     		cmp	r4, #6
 2696              		.loc 1 831 0
 2697 0024 1546     		mov	r5, r2
 2698              		.loc 1 833 0
 2699 0026 17D0     		beq	.L371
 2700              		.loc 1 842 0
 2701 0028 082C     		cmp	r4, #8
 2702 002a 12D1     		bne	.L369
 2703              		.loc 1 845 0
 2704 002c C06B     		ldr	r0, [r0, #60]
 2705              	.LVL320:
 2706              		.loc 1 844 0
 2707 002e CAF80010 		str	r1, [r10]
 2708              		.loc 1 845 0
 2709 0032 3246     		mov	r2, r6
ARM GAS  C:\Users\jo\AppData\Local\Temp\cclGmtUV.s 			page 49


 2710              	.LVL321:
 2711 0034 0893     		str	r3, [sp, #32]
 2712              	.LVL322:
 2713 0036 CDF82490 		str	r9, [sp, #36]
 2714              	.LVL323:
 2715 003a CDF82880 		str	r8, [sp, #40]
 2716              	.LVL324:
 2717 003e CDF82CC0 		str	ip, [sp, #44]
 2718              	.LVL325:
 2719 0042 CDF830E0 		str	lr, [sp, #48]
 2720              	.LVL326:
 2721 0046 0D97     		str	r7, [sp, #52]
 2722              	.LVL327:
 2723 0048 2B46     		mov	r3, r5
 2724              	.LVL328:
 2725              		.loc 1 852 0
 2726 004a BDE8F047 		pop	{r4, r5, r6, r7, r8, r9, r10, lr}
 2727              		.cfi_remember_state
 2728              		.cfi_restore 14
 2729              		.cfi_restore 10
 2730              		.cfi_restore 9
 2731              		.cfi_restore 8
 2732              		.cfi_restore 7
 2733              		.cfi_restore 6
 2734              		.cfi_restore 5
 2735              		.cfi_restore 4
 2736              		.cfi_def_cfa_offset 0
 2737              	.LVL329:
 2738              		.loc 1 845 0
 2739 004e FFF7FEBF 		b	ccm_encrypt_and_tag
 2740              	.LVL330:
 2741              	.L369:
 2742              		.cfi_restore_state
 2743              		.loc 1 852 0
 2744 0052 0C48     		ldr	r0, .L372
 2745              	.LVL331:
 2746 0054 BDE8F087 		pop	{r4, r5, r6, r7, r8, r9, r10, pc}
 2747              	.LVL332:
 2748              	.L371:
 2749              		.loc 1 836 0
 2750 0058 C06B     		ldr	r0, [r0, #60]
 2751              	.LVL333:
 2752              		.loc 1 835 0
 2753 005a CAF80010 		str	r1, [r10]
 2754              		.loc 1 836 0
 2755 005e 0892     		str	r2, [sp, #32]
 2756              	.LVL334:
 2757 0060 0993     		str	r3, [sp, #36]
 2758              	.LVL335:
 2759 0062 CDF82890 		str	r9, [sp, #40]
 2760              	.LVL336:
 2761 0066 CDF82C80 		str	r8, [sp, #44]
 2762              	.LVL337:
 2763 006a CDF830C0 		str	ip, [sp, #48]
 2764              	.LVL338:
 2765 006e 0D97     		str	r7, [sp, #52]
 2766              	.LVL339:
ARM GAS  C:\Users\jo\AppData\Local\Temp\cclGmtUV.s 			page 50


 2767 0070 CDF838E0 		str	lr, [sp, #56]
 2768              	.LVL340:
 2769 0074 0A46     		mov	r2, r1
 2770              	.LVL341:
 2771 0076 3346     		mov	r3, r6
 2772              	.LVL342:
 2773 0078 0121     		movs	r1, #1
 2774              		.loc 1 852 0
 2775 007a BDE8F047 		pop	{r4, r5, r6, r7, r8, r9, r10, lr}
 2776              		.cfi_restore 14
 2777              		.cfi_restore 10
 2778              		.cfi_restore 9
 2779              		.cfi_restore 8
 2780              		.cfi_restore 7
 2781              		.cfi_restore 6
 2782              		.cfi_restore 5
 2783              		.cfi_restore 4
 2784              		.cfi_def_cfa_offset 0
 2785              	.LVL343:
 2786              		.loc 1 836 0
 2787 007e FFF7FEBF 		b	gcm_crypt_and_tag
 2788              	.LVL344:
 2789              	.L373:
 2790 0082 00BF     		.align	2
 2791              	.L372:
 2792 0084 809FFFFF 		.word	-24704
 2793              		.cfi_endproc
 2794              	.LFE35:
 2795              		.size	cipher_auth_encrypt, .-cipher_auth_encrypt
 2796 0088 AFF30080 		.section	.text.cipher_auth_decrypt,"ax",%progbits
 2796      AFF30080 
 2797              		.align	2
 2798              		.p2align 4,,15
 2799              		.global	cipher_auth_decrypt
 2800              		.thumb
 2801              		.thumb_func
 2802              		.type	cipher_auth_decrypt, %function
 2803              	cipher_auth_decrypt:
 2804              	.LFB36:
 2805              		.loc 1 863 0
 2806              		.cfi_startproc
 2807              		@ args = 28, pretend = 0, frame = 0
 2808              		@ frame_needed = 0, uses_anonymous_args = 0
 2809              	.LVL345:
 2810 0000 30B5     		push	{r4, r5, lr}
 2811              		.cfi_def_cfa_offset 12
 2812              		.cfi_offset 4, -12
 2813              		.cfi_offset 5, -8
 2814              		.cfi_offset 14, -4
 2815              		.loc 1 865 0
 2816 0002 0468     		ldr	r4, [r0]
 2817 0004 6478     		ldrb	r4, [r4, #1]	@ zero_extendqisi2
 2818 0006 062C     		cmp	r4, #6
 2819              		.loc 1 863 0
 2820 0008 87B0     		sub	sp, sp, #28
 2821              		.cfi_def_cfa_offset 40
 2822              		.loc 1 863 0
ARM GAS  C:\Users\jo\AppData\Local\Temp\cclGmtUV.s 			page 51


 2823 000a 1546     		mov	r5, r2
 2824              		.loc 1 865 0
 2825 000c 1BD0     		beq	.L384
 2826              		.loc 1 881 0
 2827 000e 082C     		cmp	r4, #8
 2828 0010 34D1     		bne	.L379
 2829              	.LBB93:
 2830              		.loc 1 885 0
 2831 0012 0E9A     		ldr	r2, [sp, #56]
 2832              	.LVL346:
 2833              		.loc 1 886 0
 2834 0014 C06B     		ldr	r0, [r0, #60]
 2835              	.LVL347:
 2836              		.loc 1 885 0
 2837 0016 1446     		mov	r4, r2
 2838 0018 0C9A     		ldr	r2, [sp, #48]
 2839 001a 2260     		str	r2, [r4]
 2840              		.loc 1 886 0
 2841 001c 0093     		str	r3, [sp]
 2842 001e 0A9B     		ldr	r3, [sp, #40]
 2843              	.LVL348:
 2844 0020 0193     		str	r3, [sp, #4]
 2845 0022 0B9B     		ldr	r3, [sp, #44]
 2846 0024 0293     		str	r3, [sp, #8]
 2847 0026 0D9B     		ldr	r3, [sp, #52]
 2848 0028 0393     		str	r3, [sp, #12]
 2849 002a 0F9B     		ldr	r3, [sp, #60]
 2850 002c 0493     		str	r3, [sp, #16]
 2851 002e 109B     		ldr	r3, [sp, #64]
 2852 0030 0593     		str	r3, [sp, #20]
 2853 0032 0A46     		mov	r2, r1
 2854 0034 2B46     		mov	r3, r5
 2855 0036 0C99     		ldr	r1, [sp, #48]
 2856              	.LVL349:
 2857 0038 FFF7FEFF 		bl	ccm_auth_decrypt
 2858              	.LVL350:
 2859              		.loc 1 890 0
 2860 003c 10F10F0F 		cmn	r0, #15
 2861 0040 19D0     		beq	.L377
 2862              	.LVL351:
 2863              	.L376:
 2864              	.LBE93:
 2865              		.loc 1 898 0
 2866 0042 07B0     		add	sp, sp, #28
 2867              		.cfi_remember_state
 2868              		.cfi_def_cfa_offset 12
 2869              		@ sp needed
 2870 0044 30BD     		pop	{r4, r5, pc}
 2871              	.LVL352:
 2872              	.L384:
 2873              		.cfi_restore_state
 2874              	.LBB94:
 2875              		.loc 1 869 0
 2876 0046 0E9A     		ldr	r2, [sp, #56]
 2877              	.LVL353:
 2878              		.loc 1 870 0
 2879 0048 C06B     		ldr	r0, [r0, #60]
ARM GAS  C:\Users\jo\AppData\Local\Temp\cclGmtUV.s 			page 52


 2880              	.LVL354:
 2881              		.loc 1 869 0
 2882 004a 1446     		mov	r4, r2
 2883 004c 0C9A     		ldr	r2, [sp, #48]
 2884 004e 2260     		str	r2, [r4]
 2885              		.loc 1 870 0
 2886 0050 0093     		str	r3, [sp]
 2887 0052 0A9B     		ldr	r3, [sp, #40]
 2888              	.LVL355:
 2889 0054 0193     		str	r3, [sp, #4]
 2890 0056 0F9B     		ldr	r3, [sp, #60]
 2891 0058 0293     		str	r3, [sp, #8]
 2892 005a 109B     		ldr	r3, [sp, #64]
 2893 005c 0393     		str	r3, [sp, #12]
 2894 005e 0B9B     		ldr	r3, [sp, #44]
 2895 0060 0493     		str	r3, [sp, #16]
 2896 0062 0D9B     		ldr	r3, [sp, #52]
 2897 0064 0593     		str	r3, [sp, #20]
 2898 0066 0A46     		mov	r2, r1
 2899 0068 2B46     		mov	r3, r5
 2900 006a 0C99     		ldr	r1, [sp, #48]
 2901              	.LVL356:
 2902 006c FFF7FEFF 		bl	gcm_auth_decrypt
 2903              	.LVL357:
 2904              		.loc 1 874 0
 2905 0070 10F1120F 		cmn	r0, #18
 2906 0074 E5D1     		bne	.L376
 2907              	.LVL358:
 2908              	.L377:
 2909              		.loc 1 875 0
 2910 0076 0348     		ldr	r0, .L385
 2911              	.LBE94:
 2912              		.loc 1 898 0
 2913 0078 07B0     		add	sp, sp, #28
 2914              		.cfi_remember_state
 2915              		.cfi_def_cfa_offset 12
 2916              		@ sp needed
 2917 007a 30BD     		pop	{r4, r5, pc}
 2918              	.LVL359:
 2919              	.L379:
 2920              		.cfi_restore_state
 2921              		.loc 1 897 0
 2922 007c 0248     		ldr	r0, .L385+4
 2923              	.LVL360:
 2924              		.loc 1 898 0
 2925 007e 07B0     		add	sp, sp, #28
 2926              		.cfi_def_cfa_offset 12
 2927              		@ sp needed
 2928 0080 30BD     		pop	{r4, r5, pc}
 2929              	.LVL361:
 2930              	.L386:
 2931 0082 00BF     		.align	2
 2932              	.L385:
 2933 0084 009DFFFF 		.word	-25344
 2934 0088 809FFFFF 		.word	-24704
 2935              		.cfi_endproc
 2936              	.LFE36:
ARM GAS  C:\Users\jo\AppData\Local\Temp\cclGmtUV.s 			page 53


 2937              		.size	cipher_auth_decrypt, .-cipher_auth_decrypt
 2938 008c AFF30080 		.section	.text.cipher_self_test,"ax",%progbits
 2939              		.align	2
 2940              		.p2align 4,,15
 2941              		.global	cipher_self_test
 2942              		.thumb
 2943              		.thumb_func
 2944              		.type	cipher_self_test, %function
 2945              	cipher_self_test:
 2946              	.LFB37:
 2947              		.loc 1 908 0
 2948              		.cfi_startproc
 2949              		@ args = 0, pretend = 0, frame = 0
 2950              		@ frame_needed = 0, uses_anonymous_args = 0
 2951              		@ link register save eliminated.
 2952              	.LVL362:
 2953              		.loc 1 912 0
 2954 0000 0020     		movs	r0, #0
 2955              	.LVL363:
 2956 0002 7047     		bx	lr
 2957              		.cfi_endproc
 2958              	.LFE37:
 2959              		.size	cipher_self_test, .-cipher_self_test
 2960 0004 AFF30080 		.section	.bss.supported_init,"aw",%nobits
 2960      AFF30080 
 2960      AFF30080 
 2961              		.align	2
 2962              		.set	.LANCHOR0,. + 0
 2963              		.type	supported_init, %object
 2964              		.size	supported_init, 4
 2965              	supported_init:
 2966 0000 00000000 		.space	4
 2967              		.text
 2968              	.Letext0:
 2969              		.file 3 "c:\\program files\\gnu tools arm embedded\\4.9 2014q4\\lib\\gcc\\arm-none-eabi\\4.9.3\\in
 2970              		.file 4 "../../../ext/mbedtls-1.3.11/library/../include/polarssl/cipher_wrap.h"
 2971              		.file 5 "c:\\program files\\gnu tools arm embedded\\4.9 2014q4\\arm-none-eabi\\include\\machine\\_
 2972              		.file 6 "c:\\program files\\gnu tools arm embedded\\4.9 2014q4\\arm-none-eabi\\include\\stdint.h"
 2973              		.file 7 "../../../ext/mbedtls-1.3.11/library/../include/polarssl/gcm.h"
 2974              		.file 8 "../../../ext/mbedtls-1.3.11/library/../include/polarssl/ccm.h"
 2975              		.file 9 "c:\\program files\\gnu tools arm embedded\\4.9 2014q4\\arm-none-eabi\\include\\string.h"