ARM GAS  C:\Users\jo\AppData\Local\Temp\cc5Cdgym.s 			page 1


   1              		.syntax unified
   2              		.cpu cortex-m4
   3              		.fpu softvfp
   4              		.eabi_attribute 20, 1
   5              		.eabi_attribute 21, 1
   6              		.eabi_attribute 23, 3
   7              		.eabi_attribute 24, 1
   8              		.eabi_attribute 25, 1
   9              		.eabi_attribute 26, 1
  10              		.eabi_attribute 30, 2
  11              		.eabi_attribute 34, 1
  12              		.eabi_attribute 18, 4
  13              		.thumb
  14              		.file	"debug.c"
  15              		.text
  16              	.Ltext0:
  17              		.cfi_sections	.debug_frame
  18              		.section	.text.debug_set_log_mode,"ax",%progbits
  19              		.align	2
  20              		.p2align 4,,15
  21              		.global	debug_set_log_mode
  22              		.thumb
  23              		.thumb_func
  24              		.type	debug_set_log_mode, %function
  25              	debug_set_log_mode:
  26              	.LFB14:
  27              		.file 1 "../../../ext/mbedtls-1.3.11/library/debug.c"
  28              		.loc 1 57 0
  29              		.cfi_startproc
  30              		@ args = 0, pretend = 0, frame = 0
  31              		@ frame_needed = 0, uses_anonymous_args = 0
  32              		@ link register save eliminated.
  33              	.LVL0:
  34              		.loc 1 58 0
  35 0000 014B     		ldr	r3, .L2
  36 0002 1860     		str	r0, [r3]
  37 0004 7047     		bx	lr
  38              	.L3:
  39 0006 00BF     		.align	2
  40              	.L2:
  41 0008 00000000 		.word	.LANCHOR0
  42              		.cfi_endproc
  43              	.LFE14:
  44              		.size	debug_set_log_mode, .-debug_set_log_mode
  45 000c AFF30080 		.section	.text.debug_set_threshold,"ax",%progbits
  46              		.align	2
  47              		.p2align 4,,15
  48              		.global	debug_set_threshold
  49              		.thumb
  50              		.thumb_func
  51              		.type	debug_set_threshold, %function
  52              	debug_set_threshold:
  53              	.LFB15:
  54              		.loc 1 62 0
  55              		.cfi_startproc
  56              		@ args = 0, pretend = 0, frame = 0
  57              		@ frame_needed = 0, uses_anonymous_args = 0
ARM GAS  C:\Users\jo\AppData\Local\Temp\cc5Cdgym.s 			page 2


  58              		@ link register save eliminated.
  59              	.LVL1:
  60              		.loc 1 63 0
  61 0000 014B     		ldr	r3, .L5
  62 0002 1860     		str	r0, [r3]
  63 0004 7047     		bx	lr
  64              	.L6:
  65 0006 00BF     		.align	2
  66              	.L5:
  67 0008 00000000 		.word	.LANCHOR1
  68              		.cfi_endproc
  69              	.LFE15:
  70              		.size	debug_set_threshold, .-debug_set_threshold
  71 000c AFF30080 		.section	.text.debug_fmt,"ax",%progbits
  72              		.align	2
  73              		.p2align 4,,15
  74              		.global	debug_fmt
  75              		.thumb
  76              		.thumb_func
  77              		.type	debug_fmt, %function
  78              	debug_fmt:
  79              	.LFB16:
  80              		.loc 1 67 0
  81              		.cfi_startproc
  82              		@ args = 4, pretend = 16, frame = 8
  83              		@ frame_needed = 0, uses_anonymous_args = 1
  84              	.LVL2:
  85 0000 0FB4     		push	{r0, r1, r2, r3}
  86              		.cfi_def_cfa_offset 16
  87              		.cfi_offset 0, -16
  88              		.cfi_offset 1, -12
  89              		.cfi_offset 2, -8
  90              		.cfi_offset 3, -4
  91 0002 10B5     		push	{r4, lr}
  92              		.cfi_def_cfa_offset 24
  93              		.cfi_offset 4, -24
  94              		.cfi_offset 14, -20
  95 0004 82B0     		sub	sp, sp, #8
  96              		.cfi_def_cfa_offset 32
  97              		.loc 1 67 0
  98 0006 04AB     		add	r3, sp, #16
  99              		.loc 1 73 0
 100 0008 084C     		ldr	r4, .L9
 101              		.loc 1 67 0
 102 000a 53F8042B 		ldr	r2, [r3], #4
 103              		.loc 1 72 0
 104 000e 0193     		str	r3, [sp, #4]
 105              		.loc 1 73 0
 106 0010 2046     		mov	r0, r4
 107 0012 40F2FF11 		movw	r1, #511
 108 0016 FFF7FEFF 		bl	vsnprintf
 109              	.LVL3:
 110              		.loc 1 76 0
 111 001a 0023     		movs	r3, #0
 112              		.loc 1 78 0
 113 001c 2046     		mov	r0, r4
 114              		.loc 1 76 0
ARM GAS  C:\Users\jo\AppData\Local\Temp\cc5Cdgym.s 			page 3


 115 001e 84F8FF31 		strb	r3, [r4, #511]
 116              		.loc 1 78 0
 117 0022 02B0     		add	sp, sp, #8
 118              		.cfi_def_cfa_offset 24
 119              		@ sp needed
 120 0024 BDE81040 		pop	{r4, lr}
 121              		.cfi_restore 14
 122              		.cfi_restore 4
 123              		.cfi_def_cfa_offset 16
 124 0028 04B0     		add	sp, sp, #16
 125              		.cfi_restore 3
 126              		.cfi_restore 2
 127              		.cfi_restore 1
 128              		.cfi_restore 0
 129              		.cfi_def_cfa_offset 0
 130 002a 7047     		bx	lr
 131              	.L10:
 132              		.align	2
 133              	.L9:
 134 002c 00000000 		.word	.LANCHOR2
 135              		.cfi_endproc
 136              	.LFE16:
 137              		.size	debug_fmt, .-debug_fmt
 138              		.section	.text.debug_print_msg,"ax",%progbits
 139              		.align	2
 140              		.p2align 4,,15
 141              		.global	debug_print_msg
 142              		.thumb
 143              		.thumb_func
 144              		.type	debug_print_msg, %function
 145              	debug_print_msg:
 146              	.LFB17:
 147              		.loc 1 82 0
 148              		.cfi_startproc
 149              		@ args = 4, pretend = 0, frame = 512
 150              		@ frame_needed = 0, uses_anonymous_args = 0
 151              	.LVL4:
 152 0000 00B5     		push	{lr}
 153              		.cfi_def_cfa_offset 4
 154              		.cfi_offset 14, -4
 155              		.loc 1 89 0
 156 0002 1149     		ldr	r1, .L17
 157              	.LVL5:
 158 0004 0968     		ldr	r1, [r1]
 159 0006 0129     		cmp	r1, #1
 160              		.loc 1 82 0
 161 0008 ADF5037D 		sub	sp, sp, #524
 162              		.cfi_def_cfa_offset 528
 163              	.LVL6:
 164              		.loc 1 89 0
 165 000c 14D0     		beq	.L16
 166              		.loc 1 96 0
 167 000e 0093     		str	r3, [sp]
 168 0010 849B     		ldr	r3, [sp, #528]
 169              	.LVL7:
 170 0012 0193     		str	r3, [sp, #4]
 171 0014 02A8     		add	r0, sp, #8
ARM GAS  C:\Users\jo\AppData\Local\Temp\cc5Cdgym.s 			page 4


 172              	.LVL8:
 173 0016 1346     		mov	r3, r2
 174 0018 40F2FF11 		movw	r1, #511
 175 001c 0B4A     		ldr	r2, .L17+4
 176              	.LVL9:
 177 001e FFF7FEFF 		bl	snprintf
 178              	.LVL10:
 179              		.loc 1 97 0
 180 0022 0023     		movs	r3, #0
 181              		.loc 1 99 0
 182 0024 02A9     		add	r1, sp, #8
 183 0026 0A48     		ldr	r0, .L17+8
 184              		.loc 1 97 0
 185 0028 8DF80732 		strb	r3, [sp, #519]
 186              		.loc 1 99 0
 187 002c FFF7FEFF 		bl	printf
 188              	.LVL11:
 189              		.loc 1 100 0
 190 0030 0DF5037D 		add	sp, sp, #524
 191              		.cfi_remember_state
 192              		.cfi_def_cfa_offset 4
 193              		@ sp needed
 194 0034 5DF804FB 		ldr	pc, [sp], #4
 195              	.LVL12:
 196              	.L16:
 197              		.cfi_restore_state
 198              	.LBB4:
 199              	.LBB5:
 200              		.loc 1 92 0
 201 0038 02A9     		add	r1, sp, #8
 202 003a 0548     		ldr	r0, .L17+8
 203              	.LVL13:
 204 003c FFF7FEFF 		bl	printf
 205              	.LVL14:
 206              	.LBE5:
 207              	.LBE4:
 208              		.loc 1 100 0
 209 0040 0DF5037D 		add	sp, sp, #524
 210              		.cfi_def_cfa_offset 4
 211              		@ sp needed
 212 0044 5DF804FB 		ldr	pc, [sp], #4
 213              	.LVL15:
 214              	.L18:
 215              		.align	2
 216              	.L17:
 217 0048 00000000 		.word	.LANCHOR0
 218 004c 04000000 		.word	.LC1
 219 0050 00000000 		.word	.LC0
 220              		.cfi_endproc
 221              	.LFE17:
 222              		.size	debug_print_msg, .-debug_print_msg
 223 0054 AFF30080 		.section	.text.debug_print_ret,"ax",%progbits
 223      AFF30080 
 223      AFF30080 
 224              		.align	2
 225              		.p2align 4,,15
 226              		.global	debug_print_ret
ARM GAS  C:\Users\jo\AppData\Local\Temp\cc5Cdgym.s 			page 5


 227              		.thumb
 228              		.thumb_func
 229              		.type	debug_print_ret, %function
 230              	debug_print_ret:
 231              	.LFB18:
 232              		.loc 1 105 0
 233              		.cfi_startproc
 234              		@ args = 8, pretend = 0, frame = 512
 235              		@ frame_needed = 0, uses_anonymous_args = 0
 236              	.LVL16:
 237 0000 30B5     		push	{r4, r5, lr}
 238              		.cfi_def_cfa_offset 12
 239              		.cfi_offset 4, -12
 240              		.cfi_offset 5, -8
 241              		.cfi_offset 14, -4
 242              		.loc 1 113 0
 243 0002 1449     		ldr	r1, .L24
 244              	.LVL17:
 245              		.loc 1 105 0
 246 0004 ADF5037D 		sub	sp, sp, #524
 247              		.cfi_def_cfa_offset 536
 248              		.loc 1 113 0
 249 0008 0968     		ldr	r1, [r1]
 250              		.loc 1 105 0
 251 000a 879D     		ldr	r5, [sp, #540]
 252              		.loc 1 114 0
 253 000c 02AC     		add	r4, sp, #8
 254              		.loc 1 113 0
 255 000e 99B1     		cbz	r1, .L23
 256 0010 2046     		mov	r0, r4
 257              	.LVL18:
 258 0012 40F2FF11 		movw	r1, #511
 259              	.LVL19:
 260              	.L20:
 261              		.loc 1 116 0
 262 0016 6B42     		negs	r3, r5
 263 0018 0193     		str	r3, [sp, #4]
 264 001a 0F4A     		ldr	r2, .L24+4
 265 001c 869B     		ldr	r3, [sp, #536]
 266 001e 0095     		str	r5, [sp]
 267 0020 FFF7FEFF 		bl	snprintf
 268              	.LVL20:
 269              		.loc 1 119 0
 270 0024 0023     		movs	r3, #0
 271              		.loc 1 121 0
 272 0026 2146     		mov	r1, r4
 273 0028 0C48     		ldr	r0, .L24+8
 274              		.loc 1 119 0
 275 002a 84F8FF31 		strb	r3, [r4, #511]
 276              		.loc 1 121 0
 277 002e FFF7FEFF 		bl	printf
 278              	.LVL21:
 279              		.loc 1 122 0
 280 0032 0DF5037D 		add	sp, sp, #524
 281              		.cfi_remember_state
 282              		.cfi_def_cfa_offset 12
 283              		@ sp needed
ARM GAS  C:\Users\jo\AppData\Local\Temp\cc5Cdgym.s 			page 6


 284 0036 30BD     		pop	{r4, r5, pc}
 285              	.LVL22:
 286              	.L23:
 287              		.cfi_restore_state
 288              		.loc 1 114 0
 289 0038 0093     		str	r3, [sp]
 290 003a 40F2FF11 		movw	r1, #511
 291 003e 1346     		mov	r3, r2
 292              	.LVL23:
 293 0040 2046     		mov	r0, r4
 294              	.LVL24:
 295 0042 074A     		ldr	r2, .L24+12
 296              	.LVL25:
 297 0044 FFF7FEFF 		bl	snprintf
 298              	.LVL26:
 299 0048 C0F5FF71 		rsb	r1, r0, #510
 300 004c 0131     		adds	r1, r1, #1
 301 004e 2044     		add	r0, r0, r4
 302              	.LVL27:
 303 0050 E1E7     		b	.L20
 304              	.L25:
 305 0052 00BF     		.align	2
 306              	.L24:
 307 0054 00000000 		.word	.LANCHOR0
 308 0058 20000000 		.word	.LC3
 309 005c 00000000 		.word	.LC0
 310 0060 14000000 		.word	.LC2
 311              		.cfi_endproc
 312              	.LFE18:
 313              		.size	debug_print_ret, .-debug_print_ret
 314 0064 AFF30080 		.section	.text.debug_print_buf,"ax",%progbits
 314      AFF30080 
 314      AFF30080 
 315              		.align	2
 316              		.p2align 4,,15
 317              		.global	debug_print_buf
 318              		.thumb
 319              		.thumb_func
 320              		.type	debug_print_buf, %function
 321              	debug_print_buf:
 322              	.LFB19:
 323              		.loc 1 127 0
 324              		.cfi_startproc
 325              		@ args = 12, pretend = 0, frame = 544
 326              		@ frame_needed = 0, uses_anonymous_args = 0
 327              	.LVL28:
 328 0000 2DE9F04F 		push	{r4, r5, r6, r7, r8, r9, r10, fp, lr}
 329              		.cfi_def_cfa_offset 36
 330              		.cfi_offset 4, -36
 331              		.cfi_offset 5, -32
 332              		.cfi_offset 6, -28
 333              		.cfi_offset 7, -24
 334              		.cfi_offset 8, -20
 335              		.cfi_offset 9, -16
 336              		.cfi_offset 10, -12
 337              		.cfi_offset 11, -8
 338              		.cfi_offset 14, -4
ARM GAS  C:\Users\jo\AppData\Local\Temp\cc5Cdgym.s 			page 7


 339              		.loc 1 135 0
 340 0004 DFF860A1 		ldr	r10, .L58+28
 341              		.loc 1 127 0
 342 0008 ADF50B7D 		sub	sp, sp, #556
 343              		.cfi_def_cfa_offset 592
 344              		.loc 1 135 0
 345 000c DAF80010 		ldr	r1, [r10]
 346              	.LVL29:
 347              		.loc 1 127 0
 348 0010 DDF85882 		ldr	r8, [sp, #600]
 349 0014 0292     		str	r2, [sp, #8]
 350 0016 0393     		str	r3, [sp, #12]
 351              		.loc 1 136 0
 352 0018 0AAE     		add	r6, sp, #40
 353              		.loc 1 135 0
 354 001a 0029     		cmp	r1, #0
 355 001c 00F08980 		beq	.L57
 356 0020 3046     		mov	r0, r6
 357              	.LVL30:
 358 0022 40F2FF11 		movw	r1, #511
 359              	.LVL31:
 360              	.L27:
 361              		.loc 1 138 0
 362 0026 494A     		ldr	r2, .L58
 363 0028 949B     		ldr	r3, [sp, #592]
 364 002a CDF80080 		str	r8, [sp]
 365              		.loc 1 146 0
 366 002e 0DF11409 		add	r9, sp, #20
 367              		.loc 1 141 0
 368 0032 0024     		movs	r4, #0
 369              		.loc 1 138 0
 370 0034 FFF7FEFF 		bl	snprintf
 371              	.LVL32:
 372              		.loc 1 143 0
 373 0038 4548     		ldr	r0, .L58+4
 374              		.loc 1 141 0
 375 003a 86F8FF41 		strb	r4, [r6, #511]
 376              		.loc 1 143 0
 377 003e 3146     		mov	r1, r6
 378 0040 FFF7FEFF 		bl	printf
 379              	.LVL33:
 380              		.loc 1 146 0
 381 0044 C9F80040 		str	r4, [r9]
 382 0048 0694     		str	r4, [sp, #24]
 383 004a 0794     		str	r4, [sp, #28]
 384 004c 0894     		str	r4, [sp, #32]
 385 004e 8DF82440 		strb	r4, [sp, #36]
 386              	.LVL34:
 387              		.loc 1 147 0
 388 0052 B8F1000F 		cmp	r8, #0
 389 0056 68D0     		beq	.L26
 390 0058 959B     		ldr	r3, [sp, #596]
 391 005a 2546     		mov	r5, r4
 392 005c 5F1E     		subs	r7, r3, #1
 393 005e 21E0     		b	.L29
 394              	.LVL35:
 395              	.L33:
ARM GAS  C:\Users\jo\AppData\Local\Temp\cc5Cdgym.s 			page 8


 396              		.loc 1 167 0
 397 0060 C4F5FF71 		rsb	r1, r4, #510
 398 0064 3019     		adds	r0, r6, r4
 399 0066 0131     		adds	r1, r1, #1
 400 0068 3A4A     		ldr	r2, .L58+8
 401 006a 2B46     		mov	r3, r5
 402 006c FFF7FEFF 		bl	snprintf
 403              	.LVL36:
 404 0070 0444     		add	r4, r4, r0
 405              	.LVL37:
 406              	.L31:
 407              		.loc 1 172 0
 408 0072 C4F5FF71 		rsb	r1, r4, #510
 409 0076 17F8013F 		ldrb	r3, [r7, #1]!	@ zero_extendqisi2
 410 007a 374A     		ldr	r2, .L58+12
 411 007c 3019     		adds	r0, r6, r4
 412 007e 0131     		adds	r1, r1, #1
 413 0080 FFF7FEFF 		bl	snprintf
 414              	.LVL38:
 415              		.loc 1 174 0
 416 0084 3B78     		ldrb	r3, [r7]	@ zero_extendqisi2
 417 0086 A3F12002 		sub	r2, r3, #32
 418 008a 5E2A     		cmp	r2, #94
 419              		.loc 1 147 0
 420 008c 05F10105 		add	r5, r5, #1
 421              	.LVL39:
 422              		.loc 1 174 0
 423 0090 88BF     		it	hi
 424 0092 2E23     		movhi	r3, #46
 425              		.loc 1 147 0
 426 0094 4545     		cmp	r5, r8
 427              		.loc 1 172 0
 428 0096 0444     		add	r4, r4, r0
 429              	.LVL40:
 430              		.loc 1 174 0
 431 0098 09F80B30 		strb	r3, [r9, fp]
 432              		.loc 1 147 0
 433 009c 36D0     		beq	.L56
 434              		.loc 1 149 0
 435 009e B5F5805F 		cmp	r5, #4096
 436 00a2 36D0     		beq	.L30
 437              	.LVL41:
 438              	.L29:
 439              		.loc 1 152 0
 440 00a4 15F00F0B 		ands	fp, r5, #15
 441              		.loc 1 156 0
 442 00a8 C4F5FF71 		rsb	r1, r4, #510
 443              		.loc 1 152 0
 444 00ac E1D1     		bne	.L31
 445              		.loc 1 154 0
 446 00ae A5B1     		cbz	r5, .L32
 447              		.loc 1 156 0
 448 00b0 3019     		adds	r0, r6, r4
 449 00b2 0131     		adds	r1, r1, #1
 450 00b4 294A     		ldr	r2, .L58+16
 451 00b6 4B46     		mov	r3, r9
 452 00b8 FFF7FEFF 		bl	snprintf
ARM GAS  C:\Users\jo\AppData\Local\Temp\cc5Cdgym.s 			page 9


 453              	.LVL42:
 454              		.loc 1 158 0
 455 00bc 2448     		ldr	r0, .L58+4
 456 00be 3146     		mov	r1, r6
 457 00c0 FFF7FEFF 		bl	printf
 458              	.LVL43:
 459              		.loc 1 160 0
 460 00c4 5C46     		mov	r4, fp
 461              		.loc 1 161 0
 462 00c6 C9F800B0 		str	fp, [r9]
 463 00ca CDF818B0 		str	fp, [sp, #24]
 464 00ce CDF81CB0 		str	fp, [sp, #28]
 465 00d2 CDF820B0 		str	fp, [sp, #32]
 466 00d6 8DF824B0 		strb	fp, [sp, #36]
 467              	.LVL44:
 468              	.L32:
 469              		.loc 1 164 0
 470 00da DAF80030 		ldr	r3, [r10]
 471 00de 002B     		cmp	r3, #0
 472 00e0 BED1     		bne	.L33
 473              		.loc 1 165 0
 474 00e2 039B     		ldr	r3, [sp, #12]
 475 00e4 0093     		str	r3, [sp]
 476 00e6 3046     		mov	r0, r6
 477 00e8 40F2FF11 		movw	r1, #511
 478 00ec 1C4A     		ldr	r2, .L58+20
 479 00ee 029B     		ldr	r3, [sp, #8]
 480 00f0 FFF7FEFF 		bl	snprintf
 481              	.LVL45:
 482 00f4 0446     		mov	r4, r0
 483              	.LVL46:
 484 00f6 B3E7     		b	.L33
 485              	.LVL47:
 486              	.L37:
 487              		.loc 1 180 0 discriminator 2
 488 00f8 C4F5FF71 		rsb	r1, r4, #510
 489 00fc 3019     		adds	r0, r6, r4
 490 00fe 0131     		adds	r1, r1, #1
 491 0100 184A     		ldr	r2, .L58+24
 492 0102 FFF7FEFF 		bl	snprintf
 493              	.LVL48:
 494              		.loc 1 179 0 discriminator 2
 495 0106 08F10108 		add	r8, r8, #1
 496              	.LVL49:
 497              		.loc 1 180 0 discriminator 2
 498 010a 0444     		add	r4, r4, r0
 499              	.LVL50:
 500              	.L56:
 501              		.loc 1 179 0 discriminator 2
 502 010c 18F00F0F 		tst	r8, #15
 503 0110 F2D1     		bne	.L37
 504              	.LVL51:
 505              	.L30:
 506              		.loc 1 182 0
 507 0112 C4F5FF71 		rsb	r1, r4, #510
 508 0116 0131     		adds	r1, r1, #1
 509 0118 4B46     		mov	r3, r9
ARM GAS  C:\Users\jo\AppData\Local\Temp\cc5Cdgym.s 			page 10


 510 011a 3019     		adds	r0, r6, r4
 511 011c 0F4A     		ldr	r2, .L58+16
 512 011e FFF7FEFF 		bl	snprintf
 513              	.LVL52:
 514              		.loc 1 184 0
 515 0122 3146     		mov	r1, r6
 516 0124 0A48     		ldr	r0, .L58+4
 517 0126 FFF7FEFF 		bl	printf
 518              	.LVL53:
 519              	.L26:
 520              		.loc 1 186 0
 521 012a 0DF50B7D 		add	sp, sp, #556
 522              		.cfi_remember_state
 523              		.cfi_def_cfa_offset 36
 524              		@ sp needed
 525 012e BDE8F08F 		pop	{r4, r5, r6, r7, r8, r9, r10, fp, pc}
 526              	.LVL54:
 527              	.L57:
 528              		.cfi_restore_state
 529              		.loc 1 136 0
 530 0132 0093     		str	r3, [sp]
 531 0134 40F2FF11 		movw	r1, #511
 532 0138 3046     		mov	r0, r6
 533              	.LVL55:
 534 013a 094A     		ldr	r2, .L58+20
 535              	.LVL56:
 536 013c 029B     		ldr	r3, [sp, #8]
 537              	.LVL57:
 538 013e FFF7FEFF 		bl	snprintf
 539              	.LVL58:
 540 0142 C0F5FF71 		rsb	r1, r0, #510
 541 0146 0131     		adds	r1, r1, #1
 542 0148 3044     		add	r0, r0, r6
 543              	.LVL59:
 544 014a 6CE7     		b	.L27
 545              	.L59:
 546              		.align	2
 547              	.L58:
 548 014c 3C000000 		.word	.LC4
 549 0150 00000000 		.word	.LC0
 550 0154 60000000 		.word	.LC6
 551 0158 68000000 		.word	.LC7
 552 015c 58000000 		.word	.LC5
 553 0160 14000000 		.word	.LC2
 554 0164 70000000 		.word	.LC8
 555 0168 00000000 		.word	.LANCHOR0
 556              		.cfi_endproc
 557              	.LFE19:
 558              		.size	debug_print_buf, .-debug_print_buf
 559 016c AFF30080 		.section	.text.debug_print_mpi,"ax",%progbits
 560              		.align	2
 561              		.p2align 4,,15
 562              		.global	debug_print_mpi
 563              		.thumb
 564              		.thumb_func
 565              		.type	debug_print_mpi, %function
 566              	debug_print_mpi:
ARM GAS  C:\Users\jo\AppData\Local\Temp\cc5Cdgym.s 			page 11


 567              	.LFB21:
 568              		.loc 1 213 0
 569              		.cfi_startproc
 570              		@ args = 8, pretend = 0, frame = 528
 571              		@ frame_needed = 0, uses_anonymous_args = 0
 572              	.LVL60:
 573 0000 2DE9F04F 		push	{r4, r5, r6, r7, r8, r9, r10, fp, lr}
 574              		.cfi_def_cfa_offset 36
 575              		.cfi_offset 4, -36
 576              		.cfi_offset 5, -32
 577              		.cfi_offset 6, -28
 578              		.cfi_offset 7, -24
 579              		.cfi_offset 8, -20
 580              		.cfi_offset 9, -16
 581              		.cfi_offset 10, -12
 582              		.cfi_offset 11, -8
 583              		.cfi_offset 14, -4
 584 0004 ADF5077D 		sub	sp, sp, #540
 585              		.cfi_def_cfa_offset 576
 586              		.loc 1 213 0
 587 0008 DDF84482 		ldr	r8, [sp, #580]
 588 000c 0492     		str	r2, [sp, #16]
 589              		.loc 1 221 0
 590 000e D8F80440 		ldr	r4, [r8, #4]
 591              	.LVL61:
 592              		.loc 1 213 0
 593 0012 0593     		str	r3, [sp, #20]
 594              		.loc 1 221 0
 595 0014 621E     		subs	r2, r4, #1
 596              	.LVL62:
 597              		.loc 1 222 0
 598 0016 D8F80800 		ldr	r0, [r8, #8]
 599              	.LVL63:
 600              		.loc 1 221 0
 601 001a 0CD0     		beq	.L67
 602              		.loc 1 222 0
 603 001c 50F82230 		ldr	r3, [r0, r2, lsl #2]
 604              	.LVL64:
 605 0020 9100     		lsls	r1, r2, #2
 606              	.LVL65:
 607 0022 0144     		add	r1, r1, r0
 608 0024 2BB1     		cbz	r3, .L64
 609 0026 C0E0     		b	.L101
 610              	.L66:
 611 0028 51F8043D 		ldr	r3, [r1, #-4]!
 612 002c 002B     		cmp	r3, #0
 613 002e 40F09080 		bne	.L102
 614              	.L64:
 615              	.LVL66:
 616              		.loc 1 221 0 discriminator 2
 617 0032 013A     		subs	r2, r2, #1
 618              	.LVL67:
 619 0034 F8D1     		bne	.L66
 620              	.L67:
 621              		.loc 1 222 0
 622 0036 0122     		movs	r2, #1
 623              	.LVL68:
ARM GAS  C:\Users\jo\AppData\Local\Temp\cc5Cdgym.s 			page 12


 624 0038 0368     		ldr	r3, [r0]
 625 003a 0292     		str	r2, [sp, #8]
 626 003c 1546     		mov	r5, r2
 627              	.L62:
 628              	.LVL69:
 629              		.loc 1 222 0 is_stmt 0 discriminator 1
 630 003e 1F24     		movs	r4, #31
 631 0040 02E0     		b	.L65
 632              	.LVL70:
 633              	.L103:
 634              		.loc 1 225 0 is_stmt 1 discriminator 2
 635 0042 14F1FF34 		adds	r4, r4, #-1
 636              	.LVL71:
 637 0046 03D3     		bcc	.L69
 638              	.LVL72:
 639              	.L65:
 640              		.loc 1 226 0
 641 0048 23FA04F2 		lsr	r2, r3, r4
 642 004c D207     		lsls	r2, r2, #31
 643 004e F8D5     		bpl	.L103
 644              	.LVL73:
 645              	.L69:
 646              		.loc 1 229 0
 647 0050 DFF878B1 		ldr	fp, .L107+24
 648 0054 DBF80030 		ldr	r3, [fp]
 649              		.loc 1 230 0
 650 0058 0DF1180A 		add	r10, sp, #24
 651              		.loc 1 229 0
 652 005c 002B     		cmp	r3, #0
 653 005e 00F08B80 		beq	.L104
 654 0062 5046     		mov	r0, r10
 655 0064 40F2FF11 		movw	r1, #511
 656              	.LVL74:
 657              	.L70:
 658              		.loc 1 233 0
 659 0068 2C44     		add	r4, r4, r5
 660              		.loc 1 232 0
 661 006a 909B     		ldr	r3, [sp, #576]
 662 006c 514A     		ldr	r2, .L107
 663 006e 0094     		str	r4, [sp]
 664 0070 FFF7FEFF 		bl	snprintf
 665              	.LVL75:
 666              		.loc 1 235 0
 667 0074 0025     		movs	r5, #0
 668              		.loc 1 237 0
 669 0076 5048     		ldr	r0, .L107+4
 670              		.loc 1 235 0
 671 0078 8AF8FF51 		strb	r5, [r10, #511]
 672              		.loc 1 237 0
 673 007c 5146     		mov	r1, r10
 674 007e FFF7FEFF 		bl	printf
 675              	.LVL76:
 676              		.loc 1 240 0
 677 0082 029B     		ldr	r3, [sp, #8]
 678 0084 002B     		cmp	r3, #0
 679 0086 69D0     		beq	.L85
 680 0088 03F18049 		add	r9, r3, #1073741824
ARM GAS  C:\Users\jo\AppData\Local\Temp\cc5Cdgym.s 			page 13


 681 008c 09F1FF39 		add	r9, r9, #-1
 682 0090 4FEA8909 		lsl	r9, r9, #2
 683 0094 2E46     		mov	r6, r5
 684 0096 0123     		movs	r3, #1
 685              	.LVL77:
 686              	.L81:
 687              		.loc 1 242 0
 688 0098 23B1     		cbz	r3, .L75
 689              		.loc 1 242 0 is_stmt 0 discriminator 1
 690 009a D8F80820 		ldr	r2, [r8, #8]
 691 009e 52F80920 		ldr	r2, [r2, r9]
 692 00a2 A2B3     		cbz	r2, .L74
 693              	.L75:
 694              	.LVL78:
 695              		.loc 1 240 0 is_stmt 1 discriminator 1
 696 00a4 0324     		movs	r4, #3
 697              	.LVL79:
 698              	.L73:
 699              		.loc 1 247 0
 700 00a6 E700     		lsls	r7, r4, #3
 701 00a8 3BB1     		cbz	r3, .L77
 702              		.loc 1 247 0 is_stmt 0 discriminator 1
 703 00aa D8F80820 		ldr	r2, [r8, #8]
 704 00ae 52F80920 		ldr	r2, [r2, r9]
 705 00b2 FA40     		lsrs	r2, r2, r7
 706 00b4 12F0FF0F 		tst	r2, #255
 707 00b8 26D0     		beq	.L78
 708              	.L77:
 709              		.loc 1 252 0 is_stmt 1
 710 00ba 16F00F03 		ands	r3, r6, #15
 711 00be 12D1     		bne	.L79
 712              		.loc 1 256 0
 713 00c0 C5F5FF71 		rsb	r1, r5, #510
 714 00c4 0393     		str	r3, [sp, #12]
 715 00c6 3D4A     		ldr	r2, .L107+8
 716 00c8 0AEB0500 		add	r0, r10, r5
 717 00cc 0131     		adds	r1, r1, #1
 718              		.loc 1 254 0
 719 00ce 3EB1     		cbz	r6, .L80
 720              		.loc 1 256 0
 721 00d0 FFF7FEFF 		bl	snprintf
 722              	.LVL80:
 723              		.loc 1 258 0
 724 00d4 3848     		ldr	r0, .L107+4
 725 00d6 5146     		mov	r1, r10
 726 00d8 FFF7FEFF 		bl	printf
 727              	.LVL81:
 728              		.loc 1 259 0
 729 00dc 039B     		ldr	r3, [sp, #12]
 730 00de 1D46     		mov	r5, r3
 731              	.LVL82:
 732              	.L80:
 733              		.loc 1 262 0
 734 00e0 DBF80030 		ldr	r3, [fp]
 735 00e4 53B3     		cbz	r3, .L105
 736              	.L79:
 737              		.loc 1 267 0
ARM GAS  C:\Users\jo\AppData\Local\Temp\cc5Cdgym.s 			page 14


 738 00e6 D8F80830 		ldr	r3, [r8, #8]
 739              		.loc 1 266 0
 740 00ea 354A     		ldr	r2, .L107+12
 741              		.loc 1 267 0
 742 00ec 53F80930 		ldr	r3, [r3, r9]
 743              		.loc 1 266 0
 744 00f0 C5F5FF71 		rsb	r1, r5, #510
 745              		.loc 1 267 0
 746 00f4 FB40     		lsrs	r3, r3, r7
 747              		.loc 1 266 0
 748 00f6 DBB2     		uxtb	r3, r3
 749 00f8 0AEB0500 		add	r0, r10, r5
 750 00fc 0131     		adds	r1, r1, #1
 751 00fe FFF7FEFF 		bl	snprintf
 752              	.LVL83:
 753              		.loc 1 269 0
 754 0102 0136     		adds	r6, r6, #1
 755              	.LVL84:
 756              		.loc 1 266 0
 757 0104 0544     		add	r5, r5, r0
 758              	.LVL85:
 759              		.loc 1 250 0
 760 0106 0023     		movs	r3, #0
 761              	.L78:
 762              	.LVL86:
 763              		.loc 1 245 0 discriminator 2
 764 0108 14F1FF34 		adds	r4, r4, #-1
 765              	.LVL87:
 766 010c CBD2     		bcs	.L73
 767              	.LVL88:
 768              	.L74:
 769              		.loc 1 240 0 discriminator 2
 770 010e 029A     		ldr	r2, [sp, #8]
 771 0110 013A     		subs	r2, r2, #1
 772              	.LVL89:
 773 0112 A9F10409 		sub	r9, r9, #4
 774 0116 0292     		str	r2, [sp, #8]
 775 0118 BED1     		bne	.L81
 776              		.loc 1 274 0
 777 011a 03BB     		cbnz	r3, .L71
 778              	.LVL90:
 779              	.L82:
 780              		.loc 1 284 0
 781 011c C5F5FF71 		rsb	r1, r5, #510
 782 0120 264A     		ldr	r2, .L107+8
 783 0122 0131     		adds	r1, r1, #1
 784 0124 0AEB0500 		add	r0, r10, r5
 785 0128 FFF7FEFF 		bl	snprintf
 786              	.LVL91:
 787              		.loc 1 286 0
 788 012c 5146     		mov	r1, r10
 789 012e 2248     		ldr	r0, .L107+4
 790 0130 FFF7FEFF 		bl	printf
 791              	.LVL92:
 792              		.loc 1 287 0
 793 0134 0DF5077D 		add	sp, sp, #540
 794              		.cfi_remember_state
ARM GAS  C:\Users\jo\AppData\Local\Temp\cc5Cdgym.s 			page 15


 795              		.cfi_def_cfa_offset 36
 796              		@ sp needed
 797 0138 BDE8F08F 		pop	{r4, r5, r6, r7, r8, r9, r10, fp, pc}
 798              	.LVL93:
 799              	.L105:
 800              		.cfi_restore_state
 801              		.loc 1 263 0
 802 013c 059B     		ldr	r3, [sp, #20]
 803 013e 0093     		str	r3, [sp]
 804 0140 5046     		mov	r0, r10
 805 0142 40F2FF11 		movw	r1, #511
 806 0146 1F4A     		ldr	r2, .L107+16
 807 0148 049B     		ldr	r3, [sp, #16]
 808 014a FFF7FEFF 		bl	snprintf
 809              	.LVL94:
 810 014e 0546     		mov	r5, r0
 811              	.LVL95:
 812 0150 C9E7     		b	.L79
 813              	.LVL96:
 814              	.L102:
 815 0152 5501     		lsls	r5, r2, #5
 816 0154 0132     		adds	r2, r2, #1
 817              	.LVL97:
 818 0156 0135     		adds	r5, r5, #1
 819 0158 0292     		str	r2, [sp, #8]
 820 015a 70E7     		b	.L62
 821              	.LVL98:
 822              	.L85:
 823              		.loc 1 239 0
 824 015c 029D     		ldr	r5, [sp, #8]
 825              	.LVL99:
 826              	.L71:
 827              		.loc 1 276 0
 828 015e DBF80030 		ldr	r3, [fp]
 829 0162 BBB1     		cbz	r3, .L106
 830              	.L83:
 831              	.LVL100:
 832              		.loc 1 281 0
 833 0164 C5F5FF71 		rsb	r1, r5, #510
 834 0168 0AEB0500 		add	r0, r10, r5
 835 016c 0131     		adds	r1, r1, #1
 836 016e 164A     		ldr	r2, .L107+20
 837 0170 FFF7FEFF 		bl	snprintf
 838              	.LVL101:
 839 0174 0544     		add	r5, r5, r0
 840              	.LVL102:
 841 0176 D1E7     		b	.L82
 842              	.LVL103:
 843              	.L104:
 844              		.loc 1 230 0
 845 0178 059B     		ldr	r3, [sp, #20]
 846 017a 0093     		str	r3, [sp]
 847 017c 40F2FF11 		movw	r1, #511
 848 0180 5046     		mov	r0, r10
 849 0182 104A     		ldr	r2, .L107+16
 850 0184 049B     		ldr	r3, [sp, #16]
 851 0186 FFF7FEFF 		bl	snprintf
ARM GAS  C:\Users\jo\AppData\Local\Temp\cc5Cdgym.s 			page 16


 852              	.LVL104:
 853 018a C0F5FF71 		rsb	r1, r0, #510
 854 018e 0131     		adds	r1, r1, #1
 855 0190 5044     		add	r0, r0, r10
 856              	.LVL105:
 857 0192 69E7     		b	.L70
 858              	.LVL106:
 859              	.L106:
 860              		.loc 1 278 0
 861 0194 059B     		ldr	r3, [sp, #20]
 862 0196 0093     		str	r3, [sp]
 863 0198 5046     		mov	r0, r10
 864 019a 049B     		ldr	r3, [sp, #16]
 865 019c 094A     		ldr	r2, .L107+16
 866 019e 40F2FF11 		movw	r1, #511
 867 01a2 FFF7FEFF 		bl	snprintf
 868              	.LVL107:
 869 01a6 0546     		mov	r5, r0
 870              	.LVL108:
 871 01a8 DCE7     		b	.L83
 872              	.LVL109:
 873              	.L101:
 874 01aa 5201     		lsls	r2, r2, #5
 875              	.LVL110:
 876 01ac 551C     		adds	r5, r2, #1
 877              		.loc 1 222 0
 878 01ae 0294     		str	r4, [sp, #8]
 879 01b0 45E7     		b	.L62
 880              	.L108:
 881 01b2 00BF     		.align	2
 882              	.L107:
 883 01b4 74000000 		.word	.LC9
 884 01b8 00000000 		.word	.LC0
 885 01bc 94000000 		.word	.LC10
 886 01c0 68000000 		.word	.LC7
 887 01c4 14000000 		.word	.LC2
 888 01c8 98000000 		.word	.LC11
 889 01cc 00000000 		.word	.LANCHOR0
 890              		.cfi_endproc
 891              	.LFE21:
 892              		.size	debug_print_mpi, .-debug_print_mpi
 893              		.section	.text.debug_print_ecp,"ax",%progbits
 894              		.align	2
 895              		.p2align 4,,15
 896              		.global	debug_print_ecp
 897              		.thumb
 898              		.thumb_func
 899              		.type	debug_print_ecp, %function
 900              	debug_print_ecp:
 901              	.LFB20:
 902              		.loc 1 192 0
 903              		.cfi_startproc
 904              		@ args = 8, pretend = 0, frame = 512
 905              		@ frame_needed = 0, uses_anonymous_args = 0
 906              	.LVL111:
 907 0000 2DE9F047 		push	{r4, r5, r6, r7, r8, r9, r10, lr}
 908              		.cfi_def_cfa_offset 32
ARM GAS  C:\Users\jo\AppData\Local\Temp\cc5Cdgym.s 			page 17


 909              		.cfi_offset 4, -32
 910              		.cfi_offset 5, -28
 911              		.cfi_offset 6, -24
 912              		.cfi_offset 7, -20
 913              		.cfi_offset 8, -16
 914              		.cfi_offset 9, -12
 915              		.cfi_offset 10, -8
 916              		.cfi_offset 14, -4
 917 0004 ADF5027D 		sub	sp, sp, #520
 918              		.cfi_def_cfa_offset 552
 919              		.loc 1 199 0
 920 0008 02AC     		add	r4, sp, #8
 921              		.loc 1 192 0
 922 000a 8B9D     		ldr	r5, [sp, #556]
 923 000c 8246     		mov	r10, r0
 924 000e 8946     		mov	r9, r1
 925 0010 9046     		mov	r8, r2
 926 0012 1F46     		mov	r7, r3
 927              		.loc 1 200 0
 928 0014 0026     		movs	r6, #0
 929              		.loc 1 199 0
 930 0016 8A9B     		ldr	r3, [sp, #552]
 931              	.LVL112:
 932 0018 124A     		ldr	r2, .L111
 933              	.LVL113:
 934 001a 2046     		mov	r0, r4
 935              	.LVL114:
 936 001c 40F2FF11 		movw	r1, #511
 937              	.LVL115:
 938 0020 FFF7FEFF 		bl	snprintf
 939              	.LVL116:
 940              		.loc 1 201 0
 941 0024 8DE83000 		stmia	sp, {r4, r5}
 942 0028 5046     		mov	r0, r10
 943 002a 4946     		mov	r1, r9
 944 002c 4246     		mov	r2, r8
 945 002e 3B46     		mov	r3, r7
 946              		.loc 1 200 0
 947 0030 84F8FF61 		strb	r6, [r4, #511]
 948              		.loc 1 201 0
 949 0034 FFF7FEFF 		bl	debug_print_mpi
 950              	.LVL117:
 951              		.loc 1 205 0
 952 0038 0C35     		adds	r5, r5, #12
 953              		.loc 1 203 0
 954 003a 8A9B     		ldr	r3, [sp, #552]
 955 003c 0A4A     		ldr	r2, .L111+4
 956 003e 2046     		mov	r0, r4
 957 0040 40F2FF11 		movw	r1, #511
 958 0044 FFF7FEFF 		bl	snprintf
 959              	.LVL118:
 960              		.loc 1 205 0
 961 0048 8DE83000 		stmia	sp, {r4, r5}
 962 004c 5046     		mov	r0, r10
 963 004e 4946     		mov	r1, r9
 964 0050 4246     		mov	r2, r8
 965 0052 3B46     		mov	r3, r7
ARM GAS  C:\Users\jo\AppData\Local\Temp\cc5Cdgym.s 			page 18


 966              		.loc 1 204 0
 967 0054 84F8FF61 		strb	r6, [r4, #511]
 968              		.loc 1 205 0
 969 0058 FFF7FEFF 		bl	debug_print_mpi
 970              	.LVL119:
 971              		.loc 1 206 0
 972 005c 0DF5027D 		add	sp, sp, #520
 973              		.cfi_def_cfa_offset 32
 974              		@ sp needed
 975 0060 BDE8F087 		pop	{r4, r5, r6, r7, r8, r9, r10, pc}
 976              	.LVL120:
 977              	.L112:
 978              		.align	2
 979              	.L111:
 980 0064 9C000000 		.word	.LC12
 981 0068 A4000000 		.word	.LC13
 982              		.cfi_endproc
 983              	.LFE20:
 984              		.size	debug_print_ecp, .-debug_print_ecp
 985 006c AFF30080 		.section	.text.debug_print_crt,"ax",%progbits
 986              		.align	2
 987              		.p2align 4,,15
 988              		.global	debug_print_crt
 989              		.thumb
 990              		.thumb_func
 991              		.type	debug_print_crt, %function
 992              	debug_print_crt:
 993              	.LFB23:
 994              		.loc 1 330 0
 995              		.cfi_startproc
 996              		@ args = 8, pretend = 0, frame = 2176
 997              		@ frame_needed = 0, uses_anonymous_args = 0
 998              	.LVL121:
 999 0000 2DE9F04F 		push	{r4, r5, r6, r7, r8, r9, r10, fp, lr}
 1000              		.cfi_def_cfa_offset 36
 1001              		.cfi_offset 4, -36
 1002              		.cfi_offset 5, -32
 1003              		.cfi_offset 6, -28
 1004              		.cfi_offset 7, -24
 1005              		.cfi_offset 8, -20
 1006              		.cfi_offset 9, -16
 1007              		.cfi_offset 10, -12
 1008              		.cfi_offset 11, -8
 1009              		.cfi_offset 14, -4
 1010              		.loc 1 334 0
 1011 0004 C76A     		ldr	r7, [r0, #44]
 1012              		.loc 1 330 0
 1013 0006 ADF68C0D 		subw	sp, sp, #2188
 1014              		.cfi_def_cfa_offset 2224
 1015              		.loc 1 330 0
 1016 000a DDF8B448 		ldr	r4, [sp, #2228]
 1017              		.loc 1 334 0
 1018 000e 002F     		cmp	r7, #0
 1019 0010 00F08C80 		beq	.L113
 1020              		.loc 1 334 0 is_stmt 0 discriminator 1
 1021 0014 002C     		cmp	r4, #0
 1022 0016 00F08980 		beq	.L113
ARM GAS  C:\Users\jo\AppData\Local\Temp\cc5Cdgym.s 			page 19


 1023              		.loc 1 334 0 discriminator 2
 1024 001a 614F     		ldr	r7, .L145
 1025 001c 3F68     		ldr	r7, [r7]
 1026 001e 8F42     		cmp	r7, r1
 1027 0020 C0F28480 		blt	.L113
 1028 0024 1E46     		mov	r6, r3
 1029              		.loc 1 337 0 is_stmt 1
 1030 0026 5F4B     		ldr	r3, .L145+4
 1031              	.LVL122:
 1032 0028 D3F80090 		ldr	r9, [r3]
 1033 002c 1546     		mov	r5, r2
 1034 002e 8846     		mov	r8, r1
 1035 0030 0746     		mov	r7, r0
 1036              		.loc 1 339 0
 1037 0032 12AB     		add	r3, sp, #72
 1038              		.loc 1 337 0
 1039 0034 B9F1000F 		cmp	r9, #0
 1040 0038 00F0A580 		beq	.L140
 1041              		.loc 1 343 0
 1042 003c 1A46     		mov	r2, r3
 1043              	.LVL123:
 1044 003e 0393     		str	r3, [sp, #12]
 1045 0040 0023     		movs	r3, #0
 1046 0042 1370     		strb	r3, [r2]
 1047              	.LVL124:
 1048              	.L116:
 1049              		.loc 1 330 0
 1050 0044 0023     		movs	r3, #0
 1051 0046 9946     		mov	r9, r3
 1052 0048 0293     		str	r3, [sp, #8]
 1053 004a 3B46     		mov	r3, r7
 1054 004c 4F46     		mov	r7, r9
 1055              	.LVL125:
 1056 004e 9946     		mov	r9, r3
 1057              	.LVL126:
 1058              	.L125:
 1059              	.LBB9:
 1060              		.loc 1 350 0
 1061 0050 2346     		mov	r3, r4
 1062 0052 0DF59160 		add	r0, sp, #1160
 1063 0056 40F2FF31 		movw	r1, #1023
 1064 005a 039A     		ldr	r2, [sp, #12]
 1065 005c FFF7FEFF 		bl	x509_crt_info
 1066              	.LVL127:
 1067              		.loc 1 352 0
 1068 0060 504B     		ldr	r3, .L145+4
 1069 0062 1B68     		ldr	r3, [r3]
 1070 0064 002B     		cmp	r3, #0
 1071 0066 7AD0     		beq	.L141
 1072              	.L117:
 1073              		.loc 1 355 0
 1074 0068 029A     		ldr	r2, [sp, #8]
 1075 006a 0DF59163 		add	r3, sp, #1160
 1076 006e C2F57F71 		rsb	r1, r2, #1020
 1077 0072 0137     		adds	r7, r7, #1
 1078              	.LVL128:
 1079 0074 22A8     		add	r0, sp, #136
ARM GAS  C:\Users\jo\AppData\Local\Temp\cc5Cdgym.s 			page 20


 1080 0076 0193     		str	r3, [sp, #4]
 1081 0078 0331     		adds	r1, r1, #3
 1082 007a 1044     		add	r0, r0, r2
 1083 007c DDF8B038 		ldr	r3, [sp, #2224]
 1084 0080 494A     		ldr	r2, .L145+8
 1085 0082 0097     		str	r7, [sp]
 1086              		.loc 1 358 0
 1087 0084 4FF0000A 		mov	r10, #0
 1088              		.loc 1 355 0
 1089 0088 FFF7FEFF 		bl	snprintf
 1090              	.LVL129:
 1091              		.loc 1 360 0
 1092 008c 22A9     		add	r1, sp, #136
 1093 008e 4748     		ldr	r0, .L145+12
 1094              		.loc 1 358 0
 1095 0090 8DF887A4 		strb	r10, [sp, #1159]
 1096              		.loc 1 360 0
 1097 0094 FFF7FEFF 		bl	printf
 1098              	.LVL130:
 1099              	.LBB10:
 1100              	.LBB11:
 1101              		.loc 1 301 0
 1102 0098 04F1BC00 		add	r0, r4, #188
 1103              	.LVL131:
 1104 009c 09A9     		add	r1, sp, #36
 1105              		.loc 1 299 0
 1106 009e CDF824A0 		str	r10, [sp, #36]
 1107 00a2 CDF828A0 		str	r10, [sp, #40]
 1108 00a6 CDF82CA0 		str	r10, [sp, #44]
 1109 00aa CDF830A0 		str	r10, [sp, #48]
 1110 00ae CDF834A0 		str	r10, [sp, #52]
 1111 00b2 CDF838A0 		str	r10, [sp, #56]
 1112 00b6 CDF83CA0 		str	r10, [sp, #60]
 1113 00ba CDF840A0 		str	r10, [sp, #64]
 1114 00be CDF844A0 		str	r10, [sp, #68]
 1115              		.loc 1 301 0
 1116 00c2 FFF7FEFF 		bl	pk_debug
 1117              	.LVL132:
 1118 00c6 0028     		cmp	r0, #0
 1119 00c8 40D1     		bne	.L142
 1120 00ca 0DF1280B 		add	fp, sp, #40
 1121 00ce 0DF14C0A 		add	r10, sp, #76
 1122 00d2 CDF8B448 		str	r4, [sp, #2228]
 1123              	.LVL133:
 1124              	.L123:
 1125              		.loc 1 309 0
 1126 00d6 1BF804EC 		ldrb	lr, [fp, #-4]	@ zero_extendqisi2
 1127              		.loc 1 312 0
 1128 00da 354A     		ldr	r2, .L145+16
 1129 00dc 354B     		ldr	r3, .L145+20
 1130 00de 1021     		movs	r1, #16
 1131 00e0 05A8     		add	r0, sp, #20
 1132              		.loc 1 309 0
 1133 00e2 BEF1000F 		cmp	lr, #0
 1134 00e6 1BD0     		beq	.L138
 1135              		.loc 1 312 0
 1136 00e8 DBF80040 		ldr	r4, [fp]
ARM GAS  C:\Users\jo\AppData\Local\Temp\cc5Cdgym.s 			page 21


 1137 00ec 0094     		str	r4, [sp]
 1138 00ee FFF7FEFF 		bl	snprintf
 1139              	.LVL134:
 1140              		.loc 1 315 0
 1141 00f2 1BF804EC 		ldrb	lr, [fp, #-4]	@ zero_extendqisi2
 1142              		.loc 1 313 0
 1143 00f6 0023     		movs	r3, #0
 1144              		.loc 1 315 0
 1145 00f8 BEF1010F 		cmp	lr, #1
 1146              		.loc 1 313 0
 1147 00fc 8DF82330 		strb	r3, [sp, #35]
 1148              		.loc 1 323 0
 1149 0100 4846     		mov	r0, r9
 1150 0102 4146     		mov	r1, r8
 1151 0104 2A46     		mov	r2, r5
 1152 0106 3346     		mov	r3, r6
 1153              		.loc 1 315 0
 1154 0108 33D0     		beq	.L143
 1155              	.LVL135:
 1156              		.loc 1 319 0
 1157 010a BEF1020F 		cmp	lr, #2
 1158 010e 11D0     		beq	.L144
 1159              		.loc 1 323 0
 1160 0110 294C     		ldr	r4, .L145+24
 1161 0112 0094     		str	r4, [sp]
 1162 0114 FFF7FEFF 		bl	debug_print_msg
 1163              	.LVL136:
 1164              	.L121:
 1165 0118 0BF10C0B 		add	fp, fp, #12
 1166              		.loc 1 307 0
 1167 011c D345     		cmp	fp, r10
 1168 011e DAD1     		bne	.L123
 1169              	.L138:
 1170 0120 DDF8B448 		ldr	r4, [sp, #2228]
 1171              	.LVL137:
 1172              	.L124:
 1173              	.LBE11:
 1174              	.LBE10:
 1175              		.loc 1 364 0
 1176 0124 D4F83C41 		ldr	r4, [r4, #316]
 1177              	.LVL138:
 1178              	.LBE9:
 1179              		.loc 1 347 0
 1180 0128 002C     		cmp	r4, #0
 1181 012a 91D1     		bne	.L125
 1182              	.LVL139:
 1183              	.L113:
 1184              		.loc 1 366 0
 1185 012c 0DF68C0D 		addw	sp, sp, #2188
 1186              		.cfi_remember_state
 1187              		.cfi_def_cfa_offset 36
 1188              		@ sp needed
 1189 0130 BDE8F08F 		pop	{r4, r5, r6, r7, r8, r9, r10, fp, pc}
 1190              	.LVL140:
 1191              	.L144:
 1192              		.cfi_restore_state
 1193              	.LBB16:
ARM GAS  C:\Users\jo\AppData\Local\Temp\cc5Cdgym.s 			page 22


 1194              	.LBB14:
 1195              	.LBB12:
 1196              		.loc 1 320 0
 1197 0134 DBF80430 		ldr	r3, [fp, #4]
 1198              	.LVL141:
 1199 0138 05AA     		add	r2, sp, #20
 1200              	.LVL142:
 1201 013a 8DE80C00 		stmia	sp, {r2, r3}
 1202 013e 4846     		mov	r0, r9
 1203              	.LVL143:
 1204 0140 4146     		mov	r1, r8
 1205              	.LVL144:
 1206 0142 2A46     		mov	r2, r5
 1207 0144 3346     		mov	r3, r6
 1208 0146 FFF7FEFF 		bl	debug_print_ecp
 1209              	.LVL145:
 1210 014a E5E7     		b	.L121
 1211              	.LVL146:
 1212              	.L142:
 1213              		.loc 1 303 0
 1214 014c 1B4B     		ldr	r3, .L145+28
 1215 014e 0093     		str	r3, [sp]
 1216 0150 4846     		mov	r0, r9
 1217 0152 4146     		mov	r1, r8
 1218 0154 2A46     		mov	r2, r5
 1219 0156 3346     		mov	r3, r6
 1220 0158 FFF7FEFF 		bl	debug_print_msg
 1221              	.LVL147:
 1222 015c E2E7     		b	.L124
 1223              	.LVL148:
 1224              	.L141:
 1225              	.LBE12:
 1226              	.LBE14:
 1227              		.loc 1 353 0
 1228 015e 0096     		str	r6, [sp]
 1229 0160 22A8     		add	r0, sp, #136
 1230 0162 40F2FF31 		movw	r1, #1023
 1231 0166 164A     		ldr	r2, .L145+32
 1232 0168 2B46     		mov	r3, r5
 1233 016a FFF7FEFF 		bl	snprintf
 1234              	.LVL149:
 1235 016e 0290     		str	r0, [sp, #8]
 1236              	.LVL150:
 1237 0170 7AE7     		b	.L117
 1238              	.LVL151:
 1239              	.L143:
 1240              	.LBB15:
 1241              	.LBB13:
 1242              		.loc 1 316 0
 1243 0172 DBF80430 		ldr	r3, [fp, #4]
 1244              	.LVL152:
 1245 0176 05AA     		add	r2, sp, #20
 1246              	.LVL153:
 1247 0178 8DE80C00 		stmia	sp, {r2, r3}
 1248 017c 2A46     		mov	r2, r5
 1249 017e 3346     		mov	r3, r6
 1250 0180 FFF7FEFF 		bl	debug_print_mpi
ARM GAS  C:\Users\jo\AppData\Local\Temp\cc5Cdgym.s 			page 23


 1251              	.LVL154:
 1252 0184 C8E7     		b	.L121
 1253              	.LVL155:
 1254              	.L140:
 1255              	.LBE13:
 1256              	.LBE15:
 1257              	.LBE16:
 1258              		.loc 1 339 0
 1259 0186 9A46     		mov	r10, r3
 1260 0188 0393     		str	r3, [sp, #12]
 1261 018a 1846     		mov	r0, r3
 1262              	.LVL156:
 1263 018c 0096     		str	r6, [sp]
 1264 018e 3F21     		movs	r1, #63
 1265              	.LVL157:
 1266 0190 0B4A     		ldr	r2, .L145+32
 1267              	.LVL158:
 1268 0192 2B46     		mov	r3, r5
 1269 0194 FFF7FEFF 		bl	snprintf
 1270              	.LVL159:
 1271              		.loc 1 340 0
 1272 0198 8AF83F90 		strb	r9, [r10, #63]
 1273 019c 52E7     		b	.L116
 1274              	.L146:
 1275 019e 00BF     		.align	2
 1276              	.L145:
 1277 01a0 00000000 		.word	.LANCHOR1
 1278 01a4 00000000 		.word	.LANCHOR0
 1279 01a8 AC000000 		.word	.LC14
 1280 01ac 00000000 		.word	.LC0
 1281 01b0 CC000000 		.word	.LC16
 1282 01b4 D4000000 		.word	.LC17
 1283 01b8 DC000000 		.word	.LC18
 1284 01bc B8000000 		.word	.LC15
 1285 01c0 14000000 		.word	.LC2
 1286              		.cfi_endproc
 1287              	.LFE23:
 1288              		.size	debug_print_crt, .-debug_print_crt
 1289 01c4 AFF30080 		.section	.bss.debug_log_mode,"aw",%nobits
 1289      AFF30080 
 1289      AFF30080 
 1290              		.align	2
 1291              		.set	.LANCHOR0,. + 0
 1292              		.type	debug_log_mode, %object
 1293              		.size	debug_log_mode, 4
 1294              	debug_log_mode:
 1295 0000 00000000 		.space	4
 1296              		.section	.bss.debug_threshold,"aw",%nobits
 1297              		.align	2
 1298              		.set	.LANCHOR1,. + 0
 1299              		.type	debug_threshold, %object
 1300              		.size	debug_threshold, 4
 1301              	debug_threshold:
 1302 0000 00000000 		.space	4
 1303              		.section	.bss.str.8425,"aw",%nobits
 1304              		.align	2
 1305              		.set	.LANCHOR2,. + 0
ARM GAS  C:\Users\jo\AppData\Local\Temp\cc5Cdgym.s 			page 24


 1306              		.type	str.8425, %object
 1307              		.size	str.8425, 512
 1308              	str.8425:
 1309 0000 00000000 		.space	512
 1309      00000000 
 1309      00000000 
 1309      00000000 
 1309      00000000 
 1310              		.section	.rodata.str1.4,"aMS",%progbits,1
 1311              		.align	2
 1312              	.LC0:
 1313 0000 257300   		.ascii	"%s\000"
 1314 0003 00       		.space	1
 1315              	.LC1:
 1316 0004 25732825 		.ascii	"%s(%04d): %s\012\000"
 1316      30346429 
 1316      3A202573 
 1316      0A00
 1317 0012 0000     		.space	2
 1318              	.LC2:
 1319 0014 25732825 		.ascii	"%s(%04d): \000"
 1319      30346429 
 1319      3A2000
 1320 001f 00       		.space	1
 1321              	.LC3:
 1322 0020 25732829 		.ascii	"%s() returned %d (-0x%04x)\012\000"
 1322      20726574 
 1322      75726E65 
 1322      64202564 
 1322      20282D30 
 1323              	.LC4:
 1324 003c 64756D70 		.ascii	"dumping '%s' (%u bytes)\012\000"
 1324      696E6720 
 1324      27257327 
 1324      20282575 
 1324      20627974 
 1325 0055 000000   		.space	3
 1326              	.LC5:
 1327 0058 20202573 		.ascii	"  %s\012\000"
 1327      0A00
 1328 005e 0000     		.space	2
 1329              	.LC6:
 1330 0060 25303478 		.ascii	"%04x: \000"
 1330      3A2000
 1331 0067 00       		.space	1
 1332              	.LC7:
 1333 0068 20253032 		.ascii	" %02x\000"
 1333      7800
 1334 006e 0000     		.space	2
 1335              	.LC8:
 1336 0070 20202000 		.ascii	"   \000"
 1337              	.LC9:
 1338 0074 76616C75 		.ascii	"value of '%s' (%d bits) is:\012\000"
 1338      65206F66 
 1338      20272573 
 1338      27202825 
 1338      64206269 
ARM GAS  C:\Users\jo\AppData\Local\Temp\cc5Cdgym.s 			page 25


 1339 0091 000000   		.space	3
 1340              	.LC10:
 1341 0094 0A00     		.ascii	"\012\000"
 1342 0096 0000     		.space	2
 1343              	.LC11:
 1344 0098 20303000 		.ascii	" 00\000"
 1345              	.LC12:
 1346 009c 25732858 		.ascii	"%s(X)\000"
 1346      2900
 1347 00a2 0000     		.space	2
 1348              	.LC13:
 1349 00a4 25732859 		.ascii	"%s(Y)\000"
 1349      2900
 1350 00aa 0000     		.space	2
 1351              	.LC14:
 1352 00ac 25732023 		.ascii	"%s #%d:\012%s\000"
 1352      25643A0A 
 1352      257300
 1353 00b7 00       		.space	1
 1354              	.LC15:
 1355 00b8 696E7661 		.ascii	"invalid PK context\000"
 1355      6C696420 
 1355      504B2063 
 1355      6F6E7465 
 1355      787400
 1356 00cb 00       		.space	1
 1357              	.LC16:
 1358 00cc 25732573 		.ascii	"%s%s\000"
 1358      00
 1359 00d1 000000   		.space	3
 1360              	.LC17:
 1361 00d4 6372742D 		.ascii	"crt->\000"
 1361      3E00
 1362 00da 0000     		.space	2
 1363              	.LC18:
 1364 00dc 73686F75 		.ascii	"should not happen\000"
 1364      6C64206E 
 1364      6F742068 
 1364      61707065 
 1364      6E00
 1365 00ee 0000     		.text
 1366              	.Letext0:
 1367              		.file 2 "c:\\program files\\gnu tools arm embedded\\4.9 2014q4\\lib\\gcc\\arm-none-eabi\\4.9.3\\in
 1368              		.file 3 "c:\\program files\\gnu tools arm embedded\\4.9 2014q4\\arm-none-eabi\\include\\machine\\_
 1369              		.file 4 "c:\\program files\\gnu tools arm embedded\\4.9 2014q4\\lib\\gcc\\arm-none-eabi\\4.9.3\\in
 1370              		.file 5 "c:\\program files\\gnu tools arm embedded\\4.9 2014q4\\arm-none-eabi\\include\\sys\\types
 1371              		.file 6 "c:\\program files\\gnu tools arm embedded\\4.9 2014q4\\arm-none-eabi\\include\\stdint.h"
 1372              		.file 7 "../../../ext/mbedtls-1.3.11/library/../include/polarssl/bignum.h"
 1373              		.file 8 "../../../ext/mbedtls-1.3.11/library/../include/polarssl/ecp.h"
 1374              		.file 9 "../../../ext/mbedtls-1.3.11/library/../include/polarssl/md.h"
 1375              		.file 10 "../../../ext/mbedtls-1.3.11/library/../include/polarssl/pk.h"
 1376              		.file 11 "../../../ext/mbedtls-1.3.11/library/../include/polarssl/cipher.h"
 1377              		.file 12 "../../../ext/mbedtls-1.3.11/library/../include/polarssl/ssl_ciphersuites.h"
 1378              		.file 13 "<built-in>"
 1379              		.file 14 "../../../ext/mbedtls-1.3.11/library/../include/polarssl/md5.h"
 1380              		.file 15 "../../../ext/mbedtls-1.3.11/library/../include/polarssl/sha1.h"
 1381              		.file 16 "../../../ext/mbedtls-1.3.11/library/../include/polarssl/sha256.h"
ARM GAS  C:\Users\jo\AppData\Local\Temp\cc5Cdgym.s 			page 26


 1382              		.file 17 "../../../ext/mbedtls-1.3.11/library/../include/polarssl/sha512.h"
 1383              		.file 18 "../../../ext/mbedtls-1.3.11/library/../include/polarssl/aes.h"
 1384              		.file 19 "../../../ext/mbedtls-1.3.11/library/../include/polarssl/asn1.h"
 1385              		.file 20 "../../../ext/mbedtls-1.3.11/library/../include/polarssl/x509.h"
 1386              		.file 21 "../../../ext/mbedtls-1.3.11/library/../include/polarssl/x509_crl.h"
 1387              		.file 22 "../../../ext/mbedtls-1.3.11/library/../include/polarssl/x509_crt.h"
 1388              		.file 23 "../../../ext/mbedtls-1.3.11/library/../include/polarssl/dhm.h"
 1389              		.file 24 "../../../ext/mbedtls-1.3.11/library/../include/polarssl/ecdh.h"
 1390              		.file 25 "../../../ext/mbedtls-1.3.11/library/../include/polarssl/ssl.h"
 1391              		.file 26 "c:\\program files\\gnu tools arm embedded\\4.9 2014q4\\arm-none-eabi\\include\\stdio.h"