ARM GAS  C:\Users\jo\AppData\Local\Temp\ccz5wZMS.s 			page 1


   1              		.syntax unified
   2              		.cpu cortex-m4
   3              		.fpu softvfp
   4              		.eabi_attribute 20, 1
   5              		.eabi_attribute 21, 1
   6              		.eabi_attribute 23, 3
   7              		.eabi_attribute 24, 1
   8              		.eabi_attribute 25, 1
   9              		.eabi_attribute 26, 1
  10              		.eabi_attribute 30, 2
  11              		.eabi_attribute 34, 1
  12              		.eabi_attribute 18, 4
  13              		.thumb
  14              		.file	"des.c"
  15              		.text
  16              	.Ltext0:
  17              		.cfi_sections	.debug_frame
  18              		.section	.text.des_setkey,"ax",%progbits
  19              		.align	2
  20              		.p2align 4,,15
  21              		.thumb
  22              		.thumb_func
  23              		.type	des_setkey, %function
  24              	des_setkey:
  25              	.LFB8:
  26              		.file 1 "../../../ext/mbedtls-1.3.11/library/des.c"
  27              		.loc 1 425 0
  28              		.cfi_startproc
  29              		@ args = 0, pretend = 0, frame = 0
  30              		@ frame_needed = 0, uses_anonymous_args = 0
  31              	.LVL0:
  32 0000 2DE9F04F 		push	{r4, r5, r6, r7, r8, r9, r10, fp, lr}
  33              		.cfi_def_cfa_offset 36
  34              		.cfi_offset 4, -36
  35              		.cfi_offset 5, -32
  36              		.cfi_offset 6, -28
  37              		.cfi_offset 7, -24
  38              		.cfi_offset 8, -20
  39              		.cfi_offset 9, -16
  40              		.cfi_offset 10, -12
  41              		.cfi_offset 11, -8
  42              		.cfi_offset 14, -4
  43              		.loc 1 429 0
  44 0004 4F78     		ldrb	r7, [r1, #1]	@ zero_extendqisi2
  45              		.loc 1 430 0
  46 0006 91F805C0 		ldrb	ip, [r1, #5]	@ zero_extendqisi2
  47              		.loc 1 429 0
  48 000a 0C78     		ldrb	r4, [r1]	@ zero_extendqisi2
  49              		.loc 1 430 0
  50 000c 0B79     		ldrb	r3, [r1, #4]	@ zero_extendqisi2
  51              		.loc 1 429 0
  52 000e 91F803E0 		ldrb	lr, [r1, #3]	@ zero_extendqisi2
  53              		.loc 1 430 0
  54 0012 CA79     		ldrb	r2, [r1, #7]	@ zero_extendqisi2
  55              		.loc 1 429 0
  56 0014 91F80280 		ldrb	r8, [r1, #2]	@ zero_extendqisi2
  57              		.loc 1 430 0
ARM GAS  C:\Users\jo\AppData\Local\Temp\ccz5wZMS.s 			page 2


  58 0018 8979     		ldrb	r1, [r1, #6]	@ zero_extendqisi2
  59              	.LVL1:
  60              		.loc 1 446 0
  61 001a C44D     		ldr	r5, .L12
  62              		.loc 1 441 0
  63 001c C44E     		ldr	r6, .L12+4
  64              		.loc 1 430 0
  65 001e 4FEA0C4C 		lsl	ip, ip, #16
  66              		.loc 1 429 0
  67 0022 3F04     		lsls	r7, r7, #16
  68 0024 47EA0467 		orr	r7, r7, r4, lsl #24
  69              		.loc 1 430 0
  70 0028 4CEA0363 		orr	r3, ip, r3, lsl #24
  71 002c 47EA0E07 		orr	r7, r7, lr
  72 0030 1343     		orrs	r3, r3, r2
  73 0032 43EA0124 		orr	r4, r3, r1, lsl #8
  74              		.loc 1 429 0
  75 0036 47EA0822 		orr	r2, r7, r8, lsl #8
  76              	.LVL2:
  77              		.loc 1 435 0
  78 003a 82EA1413 		eor	r3, r2, r4, lsr #4
  79 003e 03F00F33 		and	r3, r3, #252645135
  80              	.LVL3:
  81 0042 84EA0311 		eor	r1, r4, r3, lsl #4
  82 0046 5A40     		eors	r2, r2, r3
  83              	.LVL4:
  84              		.loc 1 436 0
  85 0048 81EA0203 		eor	r3, r1, r2
  86              	.LVL5:
  87 004c 03F01033 		and	r3, r3, #269488144
  88              	.LVL6:
  89 0050 5A40     		eors	r2, r2, r3
  90              	.LVL7:
  91 0052 4B40     		eors	r3, r3, r1
  92              	.LVL8:
  93              		.loc 1 438 0
  94 0054 02F00F08 		and	r8, r2, #15
  95              	.LVL9:
  96              		.loc 1 446 0
  97 0058 4FEA137C 		lsr	ip, r3, #28
  98              		.loc 1 441 0
  99 005c 4FEA527E 		lsr	lr, r2, #29
 100              		.loc 1 443 0
 101 0060 C3F34307 		ubfx	r7, r3, #1, #4
 102              	.LVL10:
 103              		.loc 1 439 0
 104 0064 C2F30364 		ubfx	r4, r2, #24, #4
 105              	.LVL11:
 106              		.loc 1 444 0
 107 0068 C3F34361 		ubfx	r1, r3, #25, #4
 108              	.LVL12:
 109              		.loc 1 438 0
 110 006c 56F82890 		ldr	r9, [r6, r8, lsl #2]
 111 0070 56F82440 		ldr	r4, [r6, r4, lsl #2]
 112              		.loc 1 446 0
 113 0074 55F82C80 		ldr	r8, [r5, ip, lsl #2]
 114              		.loc 1 441 0
ARM GAS  C:\Users\jo\AppData\Local\Temp\ccz5wZMS.s 			page 3


 115 0078 56F82EC0 		ldr	ip, [r6, lr, lsl #2]
 116              		.loc 1 443 0
 117 007c 55F827E0 		ldr	lr, [r5, r7, lsl #2]
 118 0080 55F82110 		ldr	r1, [r5, r1, lsl #2]
 119              		.loc 1 438 0
 120 0084 C2F30327 		ubfx	r7, r2, #8, #4
 121              		.loc 1 443 0
 122 0088 C3F3432B 		ubfx	fp, r3, #9, #4
 123              		.loc 1 439 0
 124 008c C2F3034A 		ubfx	r10, r2, #16, #4
 125 0090 44EAC904 		orr	r4, r4, r9, lsl #3
 126              		.loc 1 438 0
 127 0094 56F82770 		ldr	r7, [r6, r7, lsl #2]
 128              		.loc 1 443 0
 129 0098 55F82BB0 		ldr	fp, [r5, fp, lsl #2]
 130              		.loc 1 439 0
 131 009c 56F82AA0 		ldr	r10, [r6, r10, lsl #2]
 132              		.loc 1 444 0
 133 00a0 C3F34349 		ubfx	r9, r3, #17, #4
 134 00a4 41EA0811 		orr	r1, r1, r8, lsl #4
 135 00a8 44EA0C14 		orr	r4, r4, ip, lsl #4
 136              		.loc 1 440 0
 137 00ac C2F34318 		ubfx	r8, r2, #5, #4
 138              		.loc 1 445 0
 139 00b0 C3F3031C 		ubfx	ip, r3, #4, #4
 140              		.loc 1 444 0
 141 00b4 55F82990 		ldr	r9, [r5, r9, lsl #2]
 142              		.loc 1 445 0
 143 00b8 55F82CC0 		ldr	ip, [r5, ip, lsl #2]
 144              		.loc 1 440 0
 145 00bc 56F82880 		ldr	r8, [r6, r8, lsl #2]
 146 00c0 41EACE01 		orr	r1, r1, lr, lsl #3
 147 00c4 44EA8704 		orr	r4, r4, r7, lsl #2
 148 00c8 C2F3433E 		ubfx	lr, r2, #13, #4
 149              		.loc 1 445 0
 150 00cc C3F30337 		ubfx	r7, r3, #12, #4
 151              		.loc 1 441 0
 152 00d0 C2F34352 		ubfx	r2, r2, #21, #4
 153              	.LVL13:
 154 00d4 41EA8B01 		orr	r1, r1, fp, lsl #2
 155              		.loc 1 446 0
 156 00d8 C3F30353 		ubfx	r3, r3, #20, #4
 157              	.LVL14:
 158              		.loc 1 445 0
 159 00dc 55F82770 		ldr	r7, [r5, r7, lsl #2]
 160              		.loc 1 440 0
 161 00e0 56F82EE0 		ldr	lr, [r6, lr, lsl #2]
 162              		.loc 1 446 0
 163 00e4 55F82330 		ldr	r3, [r5, r3, lsl #2]
 164              		.loc 1 441 0
 165 00e8 56F82220 		ldr	r2, [r6, r2, lsl #2]
 166 00ec 44EA4A04 		orr	r4, r4, r10, lsl #1
 167 00f0 41EA4909 		orr	r9, r1, r9, lsl #1
 168 00f4 44EAC818 		orr	r8, r4, r8, lsl #7
 169 00f8 49EACC1C 		orr	ip, r9, ip, lsl #7
 170 00fc 48EA8E1E 		orr	lr, r8, lr, lsl #6
 171 0100 4CEA8717 		orr	r7, ip, r7, lsl #6
ARM GAS  C:\Users\jo\AppData\Local\Temp\ccz5wZMS.s 			page 4


 172              		.loc 1 438 0
 173 0104 4EEA4212 		orr	r2, lr, r2, lsl #5
 174              	.LVL15:
 175              		.loc 1 443 0
 176 0108 47EA4313 		orr	r3, r7, r3, lsl #5
 177              	.LVL16:
 178 010c 0830     		adds	r0, r0, #8
 179              	.LVL17:
 180              		.loc 1 448 0
 181 010e 22F07042 		bic	r2, r2, #-268435456
 182              	.LVL18:
 183              		.loc 1 449 0
 184 0112 23F07043 		bic	r3, r3, #-268435456
 185              	.LVL19:
 186              		.loc 1 454 0
 187 0116 0025     		movs	r5, #0
 188              	.LVL20:
 189              	.L5:
 190              		.loc 1 456 0
 191 0118 012D     		cmp	r5, #1
 192 011a 40F3FC80 		ble	.L2
 193              		.loc 1 456 0 is_stmt 0 discriminator 1
 194 011e 082D     		cmp	r5, #8
 195 0120 00F0F980 		beq	.L2
 196              		.loc 1 456 0 discriminator 2
 197 0124 0F2D     		cmp	r5, #15
 198 0126 00F0F680 		beq	.L2
 199              		.loc 1 463 0 is_stmt 1
 200 012a 9400     		lsls	r4, r2, #2
 201              		.loc 1 464 0
 202 012c 9900     		lsls	r1, r3, #2
 203              		.loc 1 463 0
 204 012e 44EA9262 		orr	r2, r4, r2, lsr #26
 205              	.LVL21:
 206              		.loc 1 464 0
 207 0132 41EA9363 		orr	r3, r1, r3, lsr #26
 208              	.LVL22:
 209              		.loc 1 463 0
 210 0136 22F07042 		bic	r2, r2, #-268435456
 211              	.LVL23:
 212              		.loc 1 464 0
 213 013a 23F07043 		bic	r3, r3, #-268435456
 214              	.LVL24:
 215              	.L4:
 216              		.loc 1 479 0 discriminator 2
 217 013e D703     		lsls	r7, r2, #15
 218              		.loc 1 467 0 discriminator 2
 219 0140 1401     		lsls	r4, r2, #4
 220 0142 1107     		lsls	r1, r2, #28
 221              		.loc 1 479 0 discriminator 2
 222 0144 5604     		lsls	r6, r2, #17
 223 0146 07F0005E 		and	lr, r7, #536870912
 224              		.loc 1 467 0 discriminator 2
 225 014a 01F08051 		and	r1, r1, #268435456
 226 014e 04F01054 		and	r4, r4, #603979776
 227              		.loc 1 479 0 discriminator 2
 228 0152 06F08056 		and	r6, r6, #268435456
ARM GAS  C:\Users\jo\AppData\Local\Temp\ccz5wZMS.s 			page 5


 229              		.loc 1 467 0 discriminator 2
 230 0156 0C43     		orrs	r4, r4, r1
 231              		.loc 1 479 0 discriminator 2
 232 0158 4EEA0606 		orr	r6, lr, r6
 233              		.loc 1 470 0 discriminator 2
 234 015c 9102     		lsls	r1, r2, #10
 235              		.loc 1 487 0 discriminator 2
 236 015e 03F4007E 		and	lr, r3, #512
 237              		.loc 1 474 0 discriminator 2
 238 0162 03F48078 		and	r8, r3, #256
 239              		.loc 1 468 0 discriminator 2
 240 0166 4FEA823B 		lsl	fp, r2, #14
 241 016a 46EA0E06 		orr	r6, r6, lr
 242 016e 44EA0808 		orr	r8, r4, r8
 243 0172 0BF0006B 		and	fp, fp, #134217728
 244              		.loc 1 480 0 discriminator 2
 245 0176 01F0006C 		and	ip, r1, #134217728
 246 017a 4FEA825E 		lsl	lr, r2, #22
 247              		.loc 1 468 0 discriminator 2
 248 017e 4FEA8249 		lsl	r9, r2, #18
 249 0182 48EA0B04 		orr	r4, r8, fp
 250 0186 46EA0C0C 		orr	ip, r6, ip
 251              		.loc 1 480 0 discriminator 2
 252 018a 0EF0806B 		and	fp, lr, #67108864
 253              		.loc 1 468 0 discriminator 2
 254 018e 09F00279 		and	r9, r9, #34078720
 255              		.loc 1 469 0 discriminator 2
 256 0192 4FEA821A 		lsl	r10, r2, #6
 257              		.loc 1 481 0 discriminator 2
 258 0196 4FEA920E 		lsr	lr, r2, #2
 259 019a 4CEA0B06 		orr	r6, ip, fp
 260 019e 44EA0909 		orr	r9, r4, r9
 261              		.loc 1 469 0 discriminator 2
 262 01a2 0AF0807A 		and	r10, r10, #16777216
 263 01a6 4FEA4228 		lsl	r8, r2, #9
 264              		.loc 1 481 0 discriminator 2
 265 01aa 0EF0007E 		and	lr, lr, #33554432
 266 01ae 4FEA420C 		lsl	ip, r2, #1
 267 01b2 49EA0A0A 		orr	r10, r9, r10
 268 01b6 46EA0E0E 		orr	lr, r6, lr
 269              		.loc 1 469 0 discriminator 2
 270 01ba 08F40018 		and	r8, r8, #2097152
 271              		.loc 1 470 0 discriminator 2
 272 01be 5408     		lsrs	r4, r2, #1
 273              		.loc 1 481 0 discriminator 2
 274 01c0 0CF0807C 		and	ip, ip, #16777216
 275              		.loc 1 482 0 discriminator 2
 276 01c4 1604     		lsls	r6, r2, #16
 277 01c6 4AEA0808 		orr	r8, r10, r8
 278 01ca 4EEA0C0C 		orr	ip, lr, ip
 279 01ce 06F40016 		and	r6, r6, #2097152
 280              		.loc 1 470 0 discriminator 2
 281 01d2 04F48014 		and	r4, r4, #1048576
 282              		.loc 1 482 0 discriminator 2
 283 01d6 4FEAC22E 		lsl	lr, r2, #11
 284 01da 48EA0404 		orr	r4, r8, r4
 285              		.loc 1 470 0 discriminator 2
ARM GAS  C:\Users\jo\AppData\Local\Temp\ccz5wZMS.s 			page 6


 286 01de 01F48029 		and	r9, r1, #262144
 287 01e2 4CEA060C 		orr	ip, ip, r6
 288              		.loc 1 483 0 discriminator 2
 289 01e6 4FEAC20A 		lsl	r10, r2, #3
 290              		.loc 1 471 0 discriminator 2
 291 01ea 4FEA820B 		lsl	fp, r2, #2
 292              		.loc 1 482 0 discriminator 2
 293 01ee 0EF4801E 		and	lr, lr, #1048576
 294 01f2 44EA0906 		orr	r6, r4, r9
 295 01f6 4CEA0E0E 		orr	lr, ip, lr
 296              		.loc 1 471 0 discriminator 2
 297 01fa 0BF4003B 		and	fp, fp, #131072
 298              		.loc 1 483 0 discriminator 2
 299 01fe 0AF4002C 		and	ip, r10, #524288
 300              		.loc 1 471 0 discriminator 2
 301 0202 940A     		lsrs	r4, r2, #10
 302              		.loc 1 483 0 discriminator 2
 303 0204 4FEA921A 		lsr	r10, r2, #6
 304 0208 46EA0B09 		orr	r9, r6, fp
 305 020c 4EEA0C0E 		orr	lr, lr, ip
 306 0210 0AF4802A 		and	r10, r10, #262144
 307              		.loc 1 471 0 discriminator 2
 308 0214 04F48034 		and	r4, r4, #65536
 309              		.loc 1 472 0 discriminator 2
 310 0218 5E0B     		lsrs	r6, r3, #13
 311 021a 49EA0404 		orr	r4, r9, r4
 312 021e 4EEA0A01 		orr	r1, lr, r10
 313              		.loc 1 484 0 discriminator 2
 314 0222 07F40037 		and	r7, r7, #131072
 315              		.loc 1 472 0 discriminator 2
 316 0226 06F40056 		and	r6, r6, #8192
 317 022a 4FEA1319 		lsr	r9, r3, #4
 318              		.loc 1 484 0 discriminator 2
 319 022e 4FEA1218 		lsr	r8, r2, #4
 320 0232 2643     		orrs	r6, r6, r4
 321 0234 3943     		orrs	r1, r1, r7
 322 0236 08F48038 		and	r8, r8, #65536
 323              		.loc 1 472 0 discriminator 2
 324 023a 09F48059 		and	r9, r9, #4096
 325              		.loc 1 473 0 discriminator 2
 326 023e 4FEA831C 		lsl	ip, r3, #6
 327              		.loc 1 485 0 discriminator 2
 328 0242 4FEA930E 		lsr	lr, r3, #2
 329 0246 46EA0909 		orr	r9, r6, r9
 330              		.loc 1 473 0 discriminator 2
 331 024a 0CF4006C 		and	ip, ip, #2048
 332 024e 41EA0801 		orr	r1, r1, r8
 333              		.loc 1 485 0 discriminator 2
 334 0252 0EF4005E 		and	lr, lr, #8192
 335              		.loc 1 473 0 discriminator 2
 336 0256 5E08     		lsrs	r6, r3, #1
 337              		.loc 1 485 0 discriminator 2
 338 0258 1C02     		lsls	r4, r3, #8
 339 025a 49EA0C09 		orr	r9, r9, ip
 340 025e 41EA0E01 		orr	r1, r1, lr
 341              		.loc 1 474 0 discriminator 2
 342 0262 4FEA933C 		lsr	ip, r3, #14
ARM GAS  C:\Users\jo\AppData\Local\Temp\ccz5wZMS.s 			page 7


 343              		.loc 1 473 0 discriminator 2
 344 0266 06F48066 		and	r6, r6, #1024
 345              		.loc 1 485 0 discriminator 2
 346 026a 04F48054 		and	r4, r4, #4096
 347              		.loc 1 486 0 discriminator 2
 348 026e 40F6080A 		movw	r10, #2056
 349              		.loc 1 474 0 discriminator 2
 350 0272 0CF40077 		and	r7, ip, #512
 351              		.loc 1 486 0 discriminator 2
 352 0276 0CEA0A0A 		and	r10, ip, r10
 353 027a 49EA0606 		orr	r6, r9, r6
 354 027e 0C43     		orrs	r4, r4, r1
 355              		.loc 1 475 0 discriminator 2
 356 0280 4FEA5318 		lsr	r8, r3, #5
 357              		.loc 1 486 0 discriminator 2
 358 0284 4FEA532C 		lsr	ip, r3, #9
 359 0288 44EA0A01 		orr	r1, r4, r10
 360              		.loc 1 474 0 discriminator 2
 361 028c 3E43     		orrs	r6, r6, r7
 362              		.loc 1 475 0 discriminator 2
 363 028e 08F02008 		and	r8, r8, #32
 364 0292 9F0A     		lsrs	r7, r3, #10
 365              		.loc 1 486 0 discriminator 2
 366 0294 0CF4806C 		and	ip, ip, #1024
 367              		.loc 1 487 0 discriminator 2
 368 0298 4FEAC31E 		lsl	lr, r3, #7
 369              		.loc 1 475 0 discriminator 2
 370 029c 46EA0806 		orr	r6, r6, r8
 371 02a0 07F01007 		and	r7, r7, #16
 372              		.loc 1 476 0 discriminator 2
 373 02a4 4FEAD309 		lsr	r9, r3, #3
 374              		.loc 1 487 0 discriminator 2
 375 02a8 41EA0C01 		orr	r1, r1, ip
 376 02ac 0EF4807E 		and	lr, lr, #256
 377              		.loc 1 488 0 discriminator 2
 378 02b0 4FEAD31A 		lsr	r10, r3, #7
 379              		.loc 1 475 0 discriminator 2
 380 02b4 46EA0708 		orr	r8, r6, r7
 381              		.loc 1 487 0 discriminator 2
 382 02b8 41EA0E0E 		orr	lr, r1, lr
 383              		.loc 1 476 0 discriminator 2
 384 02bc 09F00806 		and	r6, r9, #8
 385 02c0 9F0C     		lsrs	r7, r3, #18
 386              		.loc 1 488 0 discriminator 2
 387 02c2 0AF0200A 		and	r10, r10, #32
 388              		.loc 1 476 0 discriminator 2
 389 02c6 48EA0608 		orr	r8, r8, r6
 390              		.loc 1 488 0 discriminator 2
 391 02ca 09F01109 		and	r9, r9, #17
 392              		.loc 1 476 0 discriminator 2
 393 02ce 07F00407 		and	r7, r7, #4
 394              		.loc 1 477 0 discriminator 2
 395 02d2 9E0E     		lsrs	r6, r3, #26
 396              		.loc 1 488 0 discriminator 2
 397 02d4 4EEA0A0E 		orr	lr, lr, r10
 398              		.loc 1 489 0 discriminator 2
 399 02d8 9C00     		lsls	r4, r3, #2
ARM GAS  C:\Users\jo\AppData\Local\Temp\ccz5wZMS.s 			page 8


 400              		.loc 1 476 0 discriminator 2
 401 02da 48EA0707 		orr	r7, r8, r7
 402              		.loc 1 477 0 discriminator 2
 403 02de 06F00206 		and	r6, r6, #2
 404              		.loc 1 488 0 discriminator 2
 405 02e2 4EEA090E 		orr	lr, lr, r9
 406              		.loc 1 489 0 discriminator 2
 407 02e6 04F00404 		and	r4, r4, #4
 408 02ea 590D     		lsrs	r1, r3, #21
 409              		.loc 1 477 0 discriminator 2
 410 02ec 3E43     		orrs	r6, r6, r7
 411              		.loc 1 489 0 discriminator 2
 412 02ee 4EEA0404 		orr	r4, lr, r4
 413              		.loc 1 477 0 discriminator 2
 414 02f2 C3F30067 		ubfx	r7, r3, #24, #1
 415              		.loc 1 489 0 discriminator 2
 416 02f6 01F00201 		and	r1, r1, #2
 417              		.loc 1 454 0 discriminator 2
 418 02fa 0135     		adds	r5, r5, #1
 419              	.LVL25:
 420              		.loc 1 477 0 discriminator 2
 421 02fc 3E43     		orrs	r6, r6, r7
 422              		.loc 1 489 0 discriminator 2
 423 02fe 2143     		orrs	r1, r1, r4
 424              		.loc 1 454 0 discriminator 2
 425 0300 102D     		cmp	r5, #16
 426              		.loc 1 467 0 discriminator 2
 427 0302 40F8086C 		str	r6, [r0, #-8]
 428              	.LVL26:
 429              		.loc 1 479 0 discriminator 2
 430 0306 40F8041C 		str	r1, [r0, #-4]
 431 030a 00F10800 		add	r0, r0, #8
 432              	.LVL27:
 433              		.loc 1 454 0 discriminator 2
 434 030e 7FF403AF 		bne	.L5
 435              		.loc 1 491 0
 436 0312 BDE8F08F 		pop	{r4, r5, r6, r7, r8, r9, r10, fp, pc}
 437              	.LVL28:
 438              	.L2:
 439              		.loc 1 458 0
 440 0316 5400     		lsls	r4, r2, #1
 441              		.loc 1 459 0
 442 0318 5900     		lsls	r1, r3, #1
 443              		.loc 1 458 0
 444 031a 44EAD262 		orr	r2, r4, r2, lsr #27
 445              	.LVL29:
 446              		.loc 1 459 0
 447 031e 41EAD363 		orr	r3, r1, r3, lsr #27
 448              	.LVL30:
 449              		.loc 1 458 0
 450 0322 22F07042 		bic	r2, r2, #-268435456
 451              	.LVL31:
 452              		.loc 1 459 0
 453 0326 23F07043 		bic	r3, r3, #-268435456
 454              	.LVL32:
 455 032a 08E7     		b	.L4
 456              	.L13:
ARM GAS  C:\Users\jo\AppData\Local\Temp\ccz5wZMS.s 			page 9


 457              		.align	2
 458              	.L12:
 459 032c 00000000 		.word	.LANCHOR1
 460 0330 00000000 		.word	.LANCHOR0
 461              		.cfi_endproc
 462              	.LFE8:
 463              		.size	des_setkey, .-des_setkey
 464 0334 AFF30080 		.section	.text.des3_set2key,"ax",%progbits
 464      AFF30080 
 464      AFF30080 
 465              		.align	2
 466              		.p2align 4,,15
 467              		.thumb
 468              		.thumb_func
 469              		.type	des3_set2key, %function
 470              	des3_set2key:
 471              	.LFB11:
 472              		.loc 1 524 0
 473              		.cfi_startproc
 474              		@ args = 0, pretend = 0, frame = 0
 475              		@ frame_needed = 0, uses_anonymous_args = 0
 476              	.LVL33:
 477 0000 2DE9F041 		push	{r4, r5, r6, r7, r8, lr}
 478              		.cfi_def_cfa_offset 24
 479              		.cfi_offset 4, -24
 480              		.cfi_offset 5, -20
 481              		.cfi_offset 6, -16
 482              		.cfi_offset 7, -12
 483              		.cfi_offset 8, -8
 484              		.cfi_offset 14, -4
 485              		.loc 1 524 0
 486 0004 1446     		mov	r4, r2
 487 0006 0D46     		mov	r5, r1
 488              		.loc 1 527 0
 489 0008 1146     		mov	r1, r2
 490              	.LVL34:
 491              		.loc 1 524 0
 492 000a 8046     		mov	r8, r0
 493              		.loc 1 527 0
 494 000c FFF7FEFF 		bl	des_setkey
 495              	.LVL35:
 496              		.loc 1 528 0
 497 0010 04F10801 		add	r1, r4, #8
 498 0014 05F18000 		add	r0, r5, #128
 499 0018 FFF7FEFF 		bl	des_setkey
 500              	.LVL36:
 501 001c 2C46     		mov	r4, r5
 502              	.LVL37:
 503 001e 4346     		mov	r3, r8
 504 0020 2946     		mov	r1, r5
 505 0022 4046     		mov	r0, r8
 506              		.loc 1 530 0
 507 0024 0022     		movs	r2, #0
 508              	.LVL38:
 509              	.L15:
 510              		.loc 1 532 0 discriminator 3
 511 0026 866F     		ldr	r6, [r0, #120]
ARM GAS  C:\Users\jo\AppData\Local\Temp\ccz5wZMS.s 			page 10


 512 0028 45F82260 		str	r6, [r5, r2, lsl #2]
 513              		.loc 1 533 0 discriminator 3
 514 002c C66F     		ldr	r6, [r0, #124]
 515 002e 4E60     		str	r6, [r1, #4]
 516              		.loc 1 535 0 discriminator 3
 517 0030 D4F8F860 		ldr	r6, [r4, #248]
 518 0034 C3F88060 		str	r6, [r3, #128]
 519              		.loc 1 536 0 discriminator 3
 520 0038 D4F8FC60 		ldr	r6, [r4, #252]
 521 003c C3F88460 		str	r6, [r3, #132]
 522              		.loc 1 538 0 discriminator 3
 523 0040 58F82270 		ldr	r7, [r8, r2, lsl #2]
 524              		.loc 1 539 0 discriminator 3
 525 0044 5E68     		ldr	r6, [r3, #4]
 526              		.loc 1 538 0 discriminator 3
 527 0046 C3F80071 		str	r7, [r3, #256]
 528              		.loc 1 539 0 discriminator 3
 529 004a C3F80461 		str	r6, [r3, #260]
 530              		.loc 1 541 0 discriminator 3
 531 004e 55F82270 		ldr	r7, [r5, r2, lsl #2]
 532              		.loc 1 542 0 discriminator 3
 533 0052 4E68     		ldr	r6, [r1, #4]
 534              		.loc 1 541 0 discriminator 3
 535 0054 C1F80071 		str	r7, [r1, #256]
 536              		.loc 1 530 0 discriminator 3
 537 0058 0232     		adds	r2, r2, #2
 538              	.LVL39:
 539 005a 202A     		cmp	r2, #32
 540              		.loc 1 542 0 discriminator 3
 541 005c C1F80461 		str	r6, [r1, #260]
 542 0060 A0F10800 		sub	r0, r0, #8
 543 0064 A4F10804 		sub	r4, r4, #8
 544 0068 03F10803 		add	r3, r3, #8
 545 006c 01F10801 		add	r1, r1, #8
 546              		.loc 1 530 0 discriminator 3
 547 0070 D9D1     		bne	.L15
 548              		.loc 1 544 0
 549 0072 BDE8F081 		pop	{r4, r5, r6, r7, r8, pc}
 550              		.cfi_endproc
 551              	.LFE11:
 552              		.size	des3_set2key, .-des3_set2key
 553 0076 00BFAFF3 		.section	.text.des3_set3key,"ax",%progbits
 553      0080AFF3 
 553      0080
 554              		.align	2
 555              		.p2align 4,,15
 556              		.thumb
 557              		.thumb_func
 558              		.type	des3_set3key, %function
 559              	des3_set3key:
 560              	.LFB14:
 561              		.loc 1 577 0
 562              		.cfi_startproc
 563              		@ args = 0, pretend = 0, frame = 0
 564              		@ frame_needed = 0, uses_anonymous_args = 0
 565              	.LVL40:
 566 0000 70B5     		push	{r4, r5, r6, lr}
ARM GAS  C:\Users\jo\AppData\Local\Temp\ccz5wZMS.s 			page 11


 567              		.cfi_def_cfa_offset 16
 568              		.cfi_offset 4, -16
 569              		.cfi_offset 5, -12
 570              		.cfi_offset 6, -8
 571              		.cfi_offset 14, -4
 572              		.loc 1 577 0
 573 0002 1646     		mov	r6, r2
 574 0004 0D46     		mov	r5, r1
 575              		.loc 1 580 0
 576 0006 1146     		mov	r1, r2
 577              	.LVL41:
 578              		.loc 1 577 0
 579 0008 0446     		mov	r4, r0
 580              		.loc 1 580 0
 581 000a FFF7FEFF 		bl	des_setkey
 582              	.LVL42:
 583              		.loc 1 581 0
 584 000e 05F18000 		add	r0, r5, #128
 585 0012 06F10801 		add	r1, r6, #8
 586 0016 FFF7FEFF 		bl	des_setkey
 587              	.LVL43:
 588              		.loc 1 582 0
 589 001a 06F11001 		add	r1, r6, #16
 590 001e 04F58070 		add	r0, r4, #256
 591 0022 FFF7FEFF 		bl	des_setkey
 592              	.LVL44:
 593 0026 2946     		mov	r1, r5
 594 0028 2046     		mov	r0, r4
 595 002a A4F18005 		sub	r5, r4, #128
 596              	.LVL45:
 597 002e 0A46     		mov	r2, r1
 598 0030 2346     		mov	r3, r4
 599              	.LVL46:
 600              	.L19:
 601              		.loc 1 586 0 discriminator 3
 602 0032 D3F87841 		ldr	r4, [r3, #376]
 603 0036 1460     		str	r4, [r2]
 604              		.loc 1 587 0 discriminator 3
 605 0038 D3F87C41 		ldr	r4, [r3, #380]
 606 003c 5460     		str	r4, [r2, #4]
 607              		.loc 1 589 0 discriminator 3
 608 003e D1F8F840 		ldr	r4, [r1, #248]
 609 0042 C0F88040 		str	r4, [r0, #128]
 610              		.loc 1 590 0 discriminator 3
 611 0046 D1F8FC40 		ldr	r4, [r1, #252]
 612 004a C0F88440 		str	r4, [r0, #132]
 613              		.loc 1 592 0 discriminator 3
 614 004e 9C6F     		ldr	r4, [r3, #120]
 615 0050 C2F80041 		str	r4, [r2, #256]
 616              		.loc 1 593 0 discriminator 3
 617 0054 DC6F     		ldr	r4, [r3, #124]
 618 0056 C2F80441 		str	r4, [r2, #260]
 619 005a 083B     		subs	r3, r3, #8
 620              		.loc 1 584 0 discriminator 3
 621 005c AB42     		cmp	r3, r5
 622 005e A1F10801 		sub	r1, r1, #8
 623 0062 00F10800 		add	r0, r0, #8
ARM GAS  C:\Users\jo\AppData\Local\Temp\ccz5wZMS.s 			page 12


 624 0066 02F10802 		add	r2, r2, #8
 625 006a E2D1     		bne	.L19
 626              		.loc 1 595 0
 627 006c 70BD     		pop	{r4, r5, r6, pc}
 628              		.cfi_endproc
 629              	.LFE14:
 630              		.size	des3_set3key, .-des3_set3key
 631 006e 00BF     		.section	.text.des_init,"ax",%progbits
 632              		.align	2
 633              		.p2align 4,,15
 634              		.global	des_init
 635              		.thumb
 636              		.thumb_func
 637              		.type	des_init, %function
 638              	des_init:
 639              	.LFB1:
 640              		.loc 1 311 0
 641              		.cfi_startproc
 642              		@ args = 0, pretend = 0, frame = 0
 643              		@ frame_needed = 0, uses_anonymous_args = 0
 644              		@ link register save eliminated.
 645              	.LVL47:
 646              		.loc 1 312 0
 647 0000 0021     		movs	r1, #0
 648 0002 8422     		movs	r2, #132
 649 0004 FFF7FEBF 		b	memset
 650              	.LVL48:
 651              		.cfi_endproc
 652              	.LFE1:
 653              		.size	des_init, .-des_init
 654 0008 AFF30080 		.section	.text.des_free,"ax",%progbits
 654      AFF30080 
 655              		.align	2
 656              		.p2align 4,,15
 657              		.global	des_free
 658              		.thumb
 659              		.thumb_func
 660              		.type	des_free, %function
 661              	des_free:
 662              	.LFB2:
 663              		.loc 1 316 0
 664              		.cfi_startproc
 665              		@ args = 0, pretend = 0, frame = 0
 666              		@ frame_needed = 0, uses_anonymous_args = 0
 667              		@ link register save eliminated.
 668              	.LVL49:
 669              		.loc 1 317 0
 670 0000 30B1     		cbz	r0, .L23
 671 0002 00F18402 		add	r2, r0, #132
 672              	.LBB31:
 673              	.LBB32:
 674              		.loc 1 54 0
 675 0006 0023     		movs	r3, #0
 676              	.LVL50:
 677              	.L25:
 678 0008 0370     		strb	r3, [r0]
 679              	.LVL51:
ARM GAS  C:\Users\jo\AppData\Local\Temp\ccz5wZMS.s 			page 13


 680 000a 0130     		adds	r0, r0, #1
 681              	.LVL52:
 682 000c 9042     		cmp	r0, r2
 683 000e FBD1     		bne	.L25
 684              	.LVL53:
 685              	.L23:
 686 0010 7047     		bx	lr
 687              	.LBE32:
 688              	.LBE31:
 689              		.cfi_endproc
 690              	.LFE2:
 691              		.size	des_free, .-des_free
 692 0012 00BFAFF3 		.section	.text.des3_init,"ax",%progbits
 692      0080AFF3 
 692      0080AFF3 
 692      0080
 693              		.align	2
 694              		.p2align 4,,15
 695              		.global	des3_init
 696              		.thumb
 697              		.thumb_func
 698              		.type	des3_init, %function
 699              	des3_init:
 700              	.LFB3:
 701              		.loc 1 324 0
 702              		.cfi_startproc
 703              		@ args = 0, pretend = 0, frame = 0
 704              		@ frame_needed = 0, uses_anonymous_args = 0
 705              		@ link register save eliminated.
 706              	.LVL54:
 707              		.loc 1 325 0
 708 0000 0021     		movs	r1, #0
 709 0002 4FF4C272 		mov	r2, #388
 710 0006 FFF7FEBF 		b	memset
 711              	.LVL55:
 712              		.cfi_endproc
 713              	.LFE3:
 714              		.size	des3_init, .-des3_init
 715 000a 00BFAFF3 		.section	.text.des3_free,"ax",%progbits
 715      0080
 716              		.align	2
 717              		.p2align 4,,15
 718              		.global	des3_free
 719              		.thumb
 720              		.thumb_func
 721              		.type	des3_free, %function
 722              	des3_free:
 723              	.LFB4:
 724              		.loc 1 329 0
 725              		.cfi_startproc
 726              		@ args = 0, pretend = 0, frame = 0
 727              		@ frame_needed = 0, uses_anonymous_args = 0
 728              		@ link register save eliminated.
 729              	.LVL56:
 730              		.loc 1 330 0
 731 0000 30B1     		cbz	r0, .L29
 732 0002 00F5C272 		add	r2, r0, #388
ARM GAS  C:\Users\jo\AppData\Local\Temp\ccz5wZMS.s 			page 14


 733              	.LBB33:
 734              	.LBB34:
 735              		.loc 1 54 0
 736 0006 0023     		movs	r3, #0
 737              	.LVL57:
 738              	.L31:
 739 0008 0370     		strb	r3, [r0]
 740              	.LVL58:
 741 000a 0130     		adds	r0, r0, #1
 742              	.LVL59:
 743 000c 9042     		cmp	r0, r2
 744 000e FBD1     		bne	.L31
 745              	.LVL60:
 746              	.L29:
 747 0010 7047     		bx	lr
 748              	.LBE34:
 749              	.LBE33:
 750              		.cfi_endproc
 751              	.LFE4:
 752              		.size	des3_free, .-des3_free
 753 0012 00BFAFF3 		.section	.text.des_key_set_parity,"ax",%progbits
 753      0080AFF3 
 753      0080AFF3 
 753      0080
 754              		.align	2
 755              		.p2align 4,,15
 756              		.global	des_key_set_parity
 757              		.thumb
 758              		.thumb_func
 759              		.type	des_key_set_parity, %function
 760              	des_key_set_parity:
 761              	.LFB5:
 762              		.loc 1 348 0
 763              		.cfi_startproc
 764              		@ args = 0, pretend = 0, frame = 0
 765              		@ frame_needed = 0, uses_anonymous_args = 0
 766              		@ link register save eliminated.
 767              	.LVL61:
 768 0000 0549     		ldr	r1, .L37
 769 0002 431E     		subs	r3, r0, #1
 770 0004 0730     		adds	r0, r0, #7
 771              	.LVL62:
 772              	.L35:
 773              		.loc 1 352 0 discriminator 3
 774 0006 13F8012F 		ldrb	r2, [r3, #1]!	@ zero_extendqisi2
 775              	.LVL63:
 776 000a 5208     		lsrs	r2, r2, #1
 777              		.loc 1 351 0 discriminator 3
 778 000c 8342     		cmp	r3, r0
 779              		.loc 1 352 0 discriminator 3
 780 000e 8A5C     		ldrb	r2, [r1, r2]	@ zero_extendqisi2
 781 0010 1A70     		strb	r2, [r3]
 782              	.LVL64:
 783              		.loc 1 351 0 discriminator 3
 784 0012 F8D1     		bne	.L35
 785              		.loc 1 353 0
 786 0014 7047     		bx	lr
ARM GAS  C:\Users\jo\AppData\Local\Temp\ccz5wZMS.s 			page 15


 787              	.L38:
 788 0016 00BF     		.align	2
 789              	.L37:
 790 0018 00000000 		.word	.LANCHOR2
 791              		.cfi_endproc
 792              	.LFE5:
 793              		.size	des_key_set_parity, .-des_key_set_parity
 794 001c AFF30080 		.section	.text.des_key_check_key_parity,"ax",%progbits
 795              		.align	2
 796              		.p2align 4,,15
 797              		.global	des_key_check_key_parity
 798              		.thumb
 799              		.thumb_func
 800              		.type	des_key_check_key_parity, %function
 801              	des_key_check_key_parity:
 802              	.LFB6:
 803              		.loc 1 359 0
 804              		.cfi_startproc
 805              		@ args = 0, pretend = 0, frame = 0
 806              		@ frame_needed = 0, uses_anonymous_args = 0
 807              		@ link register save eliminated.
 808              	.LVL65:
 809 0000 10B4     		push	{r4}
 810              		.cfi_def_cfa_offset 4
 811              		.cfi_offset 4, -4
 812 0002 094C     		ldr	r4, .L45
 813 0004 431E     		subs	r3, r0, #1
 814 0006 0730     		adds	r0, r0, #7
 815              	.LVL66:
 816              	.L41:
 817              		.loc 1 363 0
 818 0008 13F8012F 		ldrb	r2, [r3, #1]!	@ zero_extendqisi2
 819              	.LVL67:
 820 000c 5108     		lsrs	r1, r2, #1
 821 000e 615C     		ldrb	r1, [r4, r1]	@ zero_extendqisi2
 822 0010 9142     		cmp	r1, r2
 823 0012 05D1     		bne	.L42
 824              		.loc 1 362 0 discriminator 2
 825 0014 8342     		cmp	r3, r0
 826 0016 F7D1     		bne	.L41
 827              		.loc 1 366 0
 828 0018 0020     		movs	r0, #0
 829              	.LVL68:
 830              		.loc 1 367 0
 831 001a 5DF8044B 		ldr	r4, [sp], #4
 832              		.cfi_remember_state
 833              		.cfi_restore 4
 834              		.cfi_def_cfa_offset 0
 835 001e 7047     		bx	lr
 836              	.L42:
 837              		.cfi_restore_state
 838              		.loc 1 364 0
 839 0020 0120     		movs	r0, #1
 840              		.loc 1 367 0
 841 0022 5DF8044B 		ldr	r4, [sp], #4
 842              		.cfi_restore 4
 843              		.cfi_def_cfa_offset 0
ARM GAS  C:\Users\jo\AppData\Local\Temp\ccz5wZMS.s 			page 16


 844 0026 7047     		bx	lr
 845              	.L46:
 846              		.align	2
 847              	.L45:
 848 0028 00000000 		.word	.LANCHOR2
 849              		.cfi_endproc
 850              	.LFE6:
 851              		.size	des_key_check_key_parity, .-des_key_check_key_parity
 852 002c AFF30080 		.section	.text.des_key_check_weak,"ax",%progbits
 853              		.align	2
 854              		.p2align 4,,15
 855              		.global	des_key_check_weak
 856              		.thumb
 857              		.thumb_func
 858              		.type	des_key_check_weak, %function
 859              	des_key_check_weak:
 860              	.LFB7:
 861              		.loc 1 414 0
 862              		.cfi_startproc
 863              		@ args = 0, pretend = 0, frame = 0
 864              		@ frame_needed = 0, uses_anonymous_args = 0
 865              	.LVL69:
 866 0000 70B5     		push	{r4, r5, r6, lr}
 867              		.cfi_def_cfa_offset 16
 868              		.cfi_offset 4, -16
 869              		.cfi_offset 5, -12
 870              		.cfi_offset 6, -8
 871              		.cfi_offset 14, -4
 872 0002 084C     		ldr	r4, .L53
 873              		.loc 1 414 0
 874 0004 0546     		mov	r5, r0
 875 0006 04F18006 		add	r6, r4, #128
 876              	.LVL70:
 877              	.L49:
 878              		.loc 1 418 0
 879 000a 2046     		mov	r0, r4
 880 000c 2946     		mov	r1, r5
 881 000e 0822     		movs	r2, #8
 882 0010 FFF7FEFF 		bl	memcmp
 883              	.LVL71:
 884 0014 0834     		adds	r4, r4, #8
 885 0016 18B1     		cbz	r0, .L50
 886              		.loc 1 417 0 discriminator 2
 887 0018 B442     		cmp	r4, r6
 888 001a F6D1     		bne	.L49
 889              		.loc 1 421 0
 890 001c 0020     		movs	r0, #0
 891 001e 70BD     		pop	{r4, r5, r6, pc}
 892              	.LVL72:
 893              	.L50:
 894              		.loc 1 419 0
 895 0020 0120     		movs	r0, #1
 896              		.loc 1 422 0
 897 0022 70BD     		pop	{r4, r5, r6, pc}
 898              	.LVL73:
 899              	.L54:
 900              		.align	2
ARM GAS  C:\Users\jo\AppData\Local\Temp\ccz5wZMS.s 			page 17


 901              	.L53:
 902 0024 00000000 		.word	.LANCHOR3
 903              		.cfi_endproc
 904              	.LFE7:
 905              		.size	des_key_check_weak, .-des_key_check_weak
 906 0028 AFF30080 		.section	.text.des_setkey_enc,"ax",%progbits
 906      AFF30080 
 907              		.align	2
 908              		.p2align 4,,15
 909              		.global	des_setkey_enc
 910              		.thumb
 911              		.thumb_func
 912              		.type	des_setkey_enc, %function
 913              	des_setkey_enc:
 914              	.LFB9:
 915              		.loc 1 497 0
 916              		.cfi_startproc
 917              		@ args = 0, pretend = 0, frame = 0
 918              		@ frame_needed = 0, uses_anonymous_args = 0
 919              	.LVL74:
 920 0000 08B5     		push	{r3, lr}
 921              		.cfi_def_cfa_offset 8
 922              		.cfi_offset 3, -8
 923              		.cfi_offset 14, -4
 924              		.loc 1 498 0
 925 0002 0430     		adds	r0, r0, #4
 926              	.LVL75:
 927 0004 FFF7FEFF 		bl	des_setkey
 928              	.LVL76:
 929              		.loc 1 501 0
 930 0008 0020     		movs	r0, #0
 931 000a 08BD     		pop	{r3, pc}
 932              		.cfi_endproc
 933              	.LFE9:
 934              		.size	des_setkey_enc, .-des_setkey_enc
 935 000c AFF30080 		.section	.text.des_setkey_dec,"ax",%progbits
 936              		.align	2
 937              		.p2align 4,,15
 938              		.global	des_setkey_dec
 939              		.thumb
 940              		.thumb_func
 941              		.type	des_setkey_dec, %function
 942              	des_setkey_dec:
 943              	.LFB10:
 944              		.loc 1 507 0
 945              		.cfi_startproc
 946              		@ args = 0, pretend = 0, frame = 0
 947              		@ frame_needed = 0, uses_anonymous_args = 0
 948              	.LVL77:
 949 0000 10B5     		push	{r4, lr}
 950              		.cfi_def_cfa_offset 8
 951              		.cfi_offset 4, -8
 952              		.cfi_offset 14, -4
 953              		.loc 1 507 0
 954 0002 0446     		mov	r4, r0
 955              		.loc 1 510 0
 956 0004 0430     		adds	r0, r0, #4
ARM GAS  C:\Users\jo\AppData\Local\Temp\ccz5wZMS.s 			page 18


 957              	.LVL78:
 958 0006 FFF7FEFF 		bl	des_setkey
 959              	.LVL79:
 960 000a 2046     		mov	r0, r4
 961 000c 0346     		mov	r3, r0
 962 000e 403C     		subs	r4, r4, #64
 963              	.LVL80:
 964              	.L58:
 965              	.LBB35:
 966              		.loc 1 514 0 discriminator 3
 967 0010 D96F     		ldr	r1, [r3, #124]
 968 0012 4268     		ldr	r2, [r0, #4]
 969              	.LVL81:
 970 0014 4160     		str	r1, [r0, #4]
 971 0016 DA67     		str	r2, [r3, #124]
 972              	.LVL82:
 973              	.LBE35:
 974              	.LBB36:
 975              		.loc 1 515 0 discriminator 3
 976 0018 D3F88010 		ldr	r1, [r3, #128]
 977 001c 8268     		ldr	r2, [r0, #8]
 978              	.LVL83:
 979 001e 40F8081F 		str	r1, [r0, #8]!
 980 0022 083B     		subs	r3, r3, #8
 981 0024 C3F88820 		str	r2, [r3, #136]
 982              	.LVL84:
 983              	.LBE36:
 984              		.loc 1 512 0 discriminator 3
 985 0028 A342     		cmp	r3, r4
 986 002a F1D1     		bne	.L58
 987              		.loc 1 519 0
 988 002c 0020     		movs	r0, #0
 989 002e 10BD     		pop	{r4, pc}
 990              		.cfi_endproc
 991              	.LFE10:
 992              		.size	des_setkey_dec, .-des_setkey_dec
 993              		.section	.text.des3_set2key_enc,"ax",%progbits
 994              		.align	2
 995              		.p2align 4,,15
 996              		.global	des3_set2key_enc
 997              		.thumb
 998              		.thumb_func
 999              		.type	des3_set2key_enc, %function
 1000              	des3_set2key_enc:
 1001              	.LFB12:
 1002              		.loc 1 551 0
 1003              		.cfi_startproc
 1004              		@ args = 0, pretend = 0, frame = 384
 1005              		@ frame_needed = 0, uses_anonymous_args = 0
 1006              	.LVL85:
 1007 0000 00B5     		push	{lr}
 1008              		.cfi_def_cfa_offset 4
 1009              		.cfi_offset 14, -4
 1010 0002 E1B0     		sub	sp, sp, #388
 1011              		.cfi_def_cfa_offset 392
 1012              		.loc 1 551 0
 1013 0004 0A46     		mov	r2, r1
ARM GAS  C:\Users\jo\AppData\Local\Temp\ccz5wZMS.s 			page 19


 1014              		.loc 1 554 0
 1015 0006 0430     		adds	r0, r0, #4
 1016              	.LVL86:
 1017 0008 6946     		mov	r1, sp
 1018              	.LVL87:
 1019 000a FFF7FEFF 		bl	des3_set2key
 1020              	.LVL88:
 1021              	.LBB37:
 1022              	.LBB38:
 1023              		.loc 1 54 0
 1024 000e 6B46     		mov	r3, sp
 1025 0010 0022     		movs	r2, #0
 1026              	.LVL89:
 1027              	.L62:
 1028 0012 1A70     		strb	r2, [r3]
 1029              	.LVL90:
 1030 0014 60A9     		add	r1, sp, #384
 1031 0016 0133     		adds	r3, r3, #1
 1032              	.LVL91:
 1033 0018 8B42     		cmp	r3, r1
 1034 001a FAD1     		bne	.L62
 1035              	.LBE38:
 1036              	.LBE37:
 1037              		.loc 1 558 0
 1038 001c 0020     		movs	r0, #0
 1039 001e 61B0     		add	sp, sp, #388
 1040              		.cfi_def_cfa_offset 4
 1041              	.LVL92:
 1042              		@ sp needed
 1043 0020 5DF804FB 		ldr	pc, [sp], #4
 1044              		.cfi_endproc
 1045              	.LFE12:
 1046              		.size	des3_set2key_enc, .-des3_set2key_enc
 1047 0024 AFF30080 		.section	.text.des3_set2key_dec,"ax",%progbits
 1047      AFF30080 
 1047      AFF30080 
 1048              		.align	2
 1049              		.p2align 4,,15
 1050              		.global	des3_set2key_dec
 1051              		.thumb
 1052              		.thumb_func
 1053              		.type	des3_set2key_dec, %function
 1054              	des3_set2key_dec:
 1055              	.LFB13:
 1056              		.loc 1 565 0
 1057              		.cfi_startproc
 1058              		@ args = 0, pretend = 0, frame = 384
 1059              		@ frame_needed = 0, uses_anonymous_args = 0
 1060              	.LVL93:
 1061 0000 00B5     		push	{lr}
 1062              		.cfi_def_cfa_offset 4
 1063              		.cfi_offset 14, -4
 1064 0002 E1B0     		sub	sp, sp, #388
 1065              		.cfi_def_cfa_offset 392
 1066              		.loc 1 565 0
 1067 0004 0A46     		mov	r2, r1
 1068              		.loc 1 568 0
ARM GAS  C:\Users\jo\AppData\Local\Temp\ccz5wZMS.s 			page 20


 1069 0006 011D     		adds	r1, r0, #4
 1070              	.LVL94:
 1071 0008 6846     		mov	r0, sp
 1072              	.LVL95:
 1073 000a FFF7FEFF 		bl	des3_set2key
 1074              	.LVL96:
 1075              	.LBB39:
 1076              	.LBB40:
 1077              		.loc 1 54 0
 1078 000e 6B46     		mov	r3, sp
 1079 0010 0022     		movs	r2, #0
 1080              	.LVL97:
 1081              	.L66:
 1082 0012 1A70     		strb	r2, [r3]
 1083              	.LVL98:
 1084 0014 60A9     		add	r1, sp, #384
 1085 0016 0133     		adds	r3, r3, #1
 1086              	.LVL99:
 1087 0018 8B42     		cmp	r3, r1
 1088 001a FAD1     		bne	.L66
 1089              	.LBE40:
 1090              	.LBE39:
 1091              		.loc 1 572 0
 1092 001c 0020     		movs	r0, #0
 1093 001e 61B0     		add	sp, sp, #388
 1094              		.cfi_def_cfa_offset 4
 1095              	.LVL100:
 1096              		@ sp needed
 1097 0020 5DF804FB 		ldr	pc, [sp], #4
 1098              		.cfi_endproc
 1099              	.LFE13:
 1100              		.size	des3_set2key_dec, .-des3_set2key_dec
 1101 0024 AFF30080 		.section	.text.des3_set3key_enc,"ax",%progbits
 1101      AFF30080 
 1101      AFF30080 
 1102              		.align	2
 1103              		.p2align 4,,15
 1104              		.global	des3_set3key_enc
 1105              		.thumb
 1106              		.thumb_func
 1107              		.type	des3_set3key_enc, %function
 1108              	des3_set3key_enc:
 1109              	.LFB15:
 1110              		.loc 1 602 0
 1111              		.cfi_startproc
 1112              		@ args = 0, pretend = 0, frame = 384
 1113              		@ frame_needed = 0, uses_anonymous_args = 0
 1114              	.LVL101:
 1115 0000 00B5     		push	{lr}
 1116              		.cfi_def_cfa_offset 4
 1117              		.cfi_offset 14, -4
 1118 0002 E1B0     		sub	sp, sp, #388
 1119              		.cfi_def_cfa_offset 392
 1120              		.loc 1 602 0
 1121 0004 0A46     		mov	r2, r1
 1122              		.loc 1 605 0
 1123 0006 0430     		adds	r0, r0, #4
ARM GAS  C:\Users\jo\AppData\Local\Temp\ccz5wZMS.s 			page 21


 1124              	.LVL102:
 1125 0008 6946     		mov	r1, sp
 1126              	.LVL103:
 1127 000a FFF7FEFF 		bl	des3_set3key
 1128              	.LVL104:
 1129              	.LBB41:
 1130              	.LBB42:
 1131              		.loc 1 54 0
 1132 000e 6B46     		mov	r3, sp
 1133 0010 0022     		movs	r2, #0
 1134              	.LVL105:
 1135              	.L70:
 1136 0012 1A70     		strb	r2, [r3]
 1137              	.LVL106:
 1138 0014 60A9     		add	r1, sp, #384
 1139 0016 0133     		adds	r3, r3, #1
 1140              	.LVL107:
 1141 0018 8B42     		cmp	r3, r1
 1142 001a FAD1     		bne	.L70
 1143              	.LBE42:
 1144              	.LBE41:
 1145              		.loc 1 609 0
 1146 001c 0020     		movs	r0, #0
 1147 001e 61B0     		add	sp, sp, #388
 1148              		.cfi_def_cfa_offset 4
 1149              	.LVL108:
 1150              		@ sp needed
 1151 0020 5DF804FB 		ldr	pc, [sp], #4
 1152              		.cfi_endproc
 1153              	.LFE15:
 1154              		.size	des3_set3key_enc, .-des3_set3key_enc
 1155 0024 AFF30080 		.section	.text.des3_set3key_dec,"ax",%progbits
 1155      AFF30080 
 1155      AFF30080 
 1156              		.align	2
 1157              		.p2align 4,,15
 1158              		.global	des3_set3key_dec
 1159              		.thumb
 1160              		.thumb_func
 1161              		.type	des3_set3key_dec, %function
 1162              	des3_set3key_dec:
 1163              	.LFB16:
 1164              		.loc 1 616 0
 1165              		.cfi_startproc
 1166              		@ args = 0, pretend = 0, frame = 384
 1167              		@ frame_needed = 0, uses_anonymous_args = 0
 1168              	.LVL109:
 1169 0000 00B5     		push	{lr}
 1170              		.cfi_def_cfa_offset 4
 1171              		.cfi_offset 14, -4
 1172 0002 E1B0     		sub	sp, sp, #388
 1173              		.cfi_def_cfa_offset 392
 1174              		.loc 1 616 0
 1175 0004 0A46     		mov	r2, r1
 1176              		.loc 1 619 0
 1177 0006 011D     		adds	r1, r0, #4
 1178              	.LVL110:
ARM GAS  C:\Users\jo\AppData\Local\Temp\ccz5wZMS.s 			page 22


 1179 0008 6846     		mov	r0, sp
 1180              	.LVL111:
 1181 000a FFF7FEFF 		bl	des3_set3key
 1182              	.LVL112:
 1183              	.LBB43:
 1184              	.LBB44:
 1185              		.loc 1 54 0
 1186 000e 6B46     		mov	r3, sp
 1187 0010 0022     		movs	r2, #0
 1188              	.LVL113:
 1189              	.L74:
 1190 0012 1A70     		strb	r2, [r3]
 1191              	.LVL114:
 1192 0014 60A9     		add	r1, sp, #384
 1193 0016 0133     		adds	r3, r3, #1
 1194              	.LVL115:
 1195 0018 8B42     		cmp	r3, r1
 1196 001a FAD1     		bne	.L74
 1197              	.LBE44:
 1198              	.LBE43:
 1199              		.loc 1 623 0
 1200 001c 0020     		movs	r0, #0
 1201 001e 61B0     		add	sp, sp, #388
 1202              		.cfi_def_cfa_offset 4
 1203              	.LVL116:
 1204              		@ sp needed
 1205 0020 5DF804FB 		ldr	pc, [sp], #4
 1206              		.cfi_endproc
 1207              	.LFE16:
 1208              		.size	des3_set3key_dec, .-des3_set3key_dec
 1209 0024 AFF30080 		.section	.text.des_crypt_ecb,"ax",%progbits
 1209      AFF30080 
 1209      AFF30080 
 1210              		.align	2
 1211              		.p2align 4,,15
 1212              		.global	des_crypt_ecb
 1213              		.thumb
 1214              		.thumb_func
 1215              		.type	des_crypt_ecb, %function
 1216              	des_crypt_ecb:
 1217              	.LFB17:
 1218              		.loc 1 631 0
 1219              		.cfi_startproc
 1220              		@ args = 0, pretend = 0, frame = 8
 1221              		@ frame_needed = 0, uses_anonymous_args = 0
 1222              	.LVL117:
 1223 0000 2DE9F04F 		push	{r4, r5, r6, r7, r8, r9, r10, fp, lr}
 1224              		.cfi_def_cfa_offset 36
 1225              		.cfi_offset 4, -36
 1226              		.cfi_offset 5, -32
 1227              		.cfi_offset 6, -28
 1228              		.cfi_offset 7, -24
 1229              		.cfi_offset 8, -20
 1230              		.cfi_offset 9, -16
 1231              		.cfi_offset 10, -12
 1232              		.cfi_offset 11, -8
 1233              		.cfi_offset 14, -4
ARM GAS  C:\Users\jo\AppData\Local\Temp\ccz5wZMS.s 			page 23


 1234 0004 0C46     		mov	r4, r1
 1235              	.LVL118:
 1236              		.loc 1 637 0
 1237 0006 4D78     		ldrb	r5, [r1, #1]	@ zero_extendqisi2
 1238              		.loc 1 638 0
 1239 0008 91F805B0 		ldrb	fp, [r1, #5]	@ zero_extendqisi2
 1240 000c 2379     		ldrb	r3, [r4, #4]	@ zero_extendqisi2
 1241              		.loc 1 637 0
 1242 000e 0978     		ldrb	r1, [r1]	@ zero_extendqisi2
 1243              	.LVL119:
 1244 0010 94F80390 		ldrb	r9, [r4, #3]	@ zero_extendqisi2
 1245              		.loc 1 638 0
 1246 0014 94F807A0 		ldrb	r10, [r4, #7]	@ zero_extendqisi2
 1247              		.loc 1 637 0
 1248 0018 A678     		ldrb	r6, [r4, #2]	@ zero_extendqisi2
 1249              		.loc 1 638 0
 1250 001a A479     		ldrb	r4, [r4, #6]	@ zero_extendqisi2
 1251              	.LVL120:
 1252 001c DFF80082 		ldr	r8, .L81+20
 1253 0020 DFF800C2 		ldr	ip, .L81+24
 1254 0024 DFF800E2 		ldr	lr, .L81+28
 1255 0028 784F     		ldr	r7, .L81
 1256              		.loc 1 637 0
 1257 002a 2D04     		lsls	r5, r5, #16
 1258              		.loc 1 638 0
 1259 002c 4FEA0B4B 		lsl	fp, fp, #16
 1260              		.loc 1 637 0
 1261 0030 45EA0165 		orr	r5, r5, r1, lsl #24
 1262              		.loc 1 638 0
 1263 0034 4BEA036B 		orr	fp, fp, r3, lsl #24
 1264 0038 4BEA0A01 		orr	r1, fp, r10
 1265 003c 45EA0903 		orr	r3, r5, r9
 1266              		.loc 1 637 0
 1267 0040 43EA0623 		orr	r3, r3, r6, lsl #8
 1268              	.LVL121:
 1269              		.loc 1 638 0
 1270 0044 41EA0429 		orr	r9, r1, r4, lsl #8
 1271              	.LVL122:
 1272              		.loc 1 640 0
 1273 0048 89EA1314 		eor	r4, r9, r3, lsr #4
 1274 004c 04F00F34 		and	r4, r4, #252645135
 1275              	.LVL123:
 1276 0050 83EA0416 		eor	r6, r3, r4, lsl #4
 1277 0054 84EA0909 		eor	r9, r4, r9
 1278              	.LVL124:
 1279 0058 89EA1644 		eor	r4, r9, r6, lsr #16
 1280              	.LVL125:
 1281 005c A4B2     		uxth	r4, r4
 1282              	.LVL126:
 1283 005e 84EA0909 		eor	r9, r4, r9
 1284              	.LVL127:
 1285 0062 86EA0444 		eor	r4, r6, r4, lsl #16
 1286              	.LVL128:
 1287 0066 84EA9903 		eor	r3, r4, r9, lsr #2
 1288              	.LVL129:
 1289 006a 03F03333 		and	r3, r3, #858993459
 1290              	.LVL130:
ARM GAS  C:\Users\jo\AppData\Local\Temp\ccz5wZMS.s 			page 24


 1291 006e 83EA0405 		eor	r5, r3, r4
 1292              	.LVL131:
 1293 0072 89EA8303 		eor	r3, r9, r3, lsl #2
 1294              	.LVL132:
 1295 0076 85EA1324 		eor	r4, r5, r3, lsr #8
 1296              	.LVL133:
 1297 007a 04F0FF14 		and	r4, r4, #16711935
 1298              	.LVL134:
 1299 007e 83EA0423 		eor	r3, r3, r4, lsl #8
 1300              	.LVL135:
 1301 0082 4FEAF371 		ror	r1, r3, #31
 1302              	.LVL136:
 1303 0086 6C40     		eors	r4, r4, r5
 1304              	.LVL137:
 1305              		.loc 1 631 0
 1306 0088 83B0     		sub	sp, sp, #12
 1307              		.cfi_def_cfa_offset 48
 1308              		.loc 1 640 0
 1309 008a 81EA0403 		eor	r3, r1, r4
 1310 008e 03F0AA33 		and	r3, r3, #-1431655766
 1311              	.LVL138:
 1312 0092 5C40     		eors	r4, r4, r3
 1313              	.LVL139:
 1314              		.loc 1 631 0
 1315 0094 0192     		str	r2, [sp, #4]
 1316 0096 5E4E     		ldr	r6, .L81+4
 1317              	.LVL140:
 1318 0098 5E4D     		ldr	r5, .L81+8
 1319              	.LVL141:
 1320 009a 00F19402 		add	r2, r0, #148
 1321              	.LVL142:
 1322              		.loc 1 640 0
 1323 009e 4FEAF474 		ror	r4, r4, #31
 1324 00a2 4B40     		eors	r3, r3, r1
 1325              	.LVL143:
 1326 00a4 00F11409 		add	r9, r0, #20
 1327 00a8 0092     		str	r2, [sp]
 1328              	.LVL144:
 1329              	.L78:
 1330              		.loc 1 644 0 discriminator 3
 1331 00aa 59F8100C 		ldr	r0, [r9, #-16]
 1332 00ae 59F80C2C 		ldr	r2, [r9, #-12]
 1333 00b2 5840     		eors	r0, r0, r3
 1334              	.LVL145:
 1335 00b4 82EA3312 		eor	r2, r2, r3, ror #4
 1336              	.LVL146:
 1337 00b8 00F03F01 		and	r1, r0, #63
 1338              	.LVL147:
 1339 00bc 02F03F0A 		and	r10, r2, #63
 1340 00c0 C0F3052B 		ubfx	fp, r0, #8, #6
 1341 00c4 5CF82110 		ldr	r1, [ip, r1, lsl #2]
 1342              	.LVL148:
 1343 00c8 58F82AA0 		ldr	r10, [r8, r10, lsl #2]
 1344 00cc 8AEA010A 		eor	r10, r10, r1
 1345 00d0 5EF82B10 		ldr	r1, [lr, fp, lsl #2]
 1346 00d4 C0F3054B 		ubfx	fp, r0, #16, #6
 1347 00d8 C0F30560 		ubfx	r0, r0, #24, #6
ARM GAS  C:\Users\jo\AppData\Local\Temp\ccz5wZMS.s 			page 25


 1348              	.LVL149:
 1349 00dc 57F82BB0 		ldr	fp, [r7, fp, lsl #2]
 1350 00e0 56F82000 		ldr	r0, [r6, r0, lsl #2]
 1351 00e4 8AEA0101 		eor	r1, r10, r1
 1352 00e8 81EA0B01 		eor	r1, r1, fp
 1353 00ec 81EA000B 		eor	fp, r1, r0
 1354 00f0 C2F3052A 		ubfx	r10, r2, #8, #6
 1355 00f4 C2F30540 		ubfx	r0, r2, #16, #6
 1356 00f8 4749     		ldr	r1, .L81+12
 1357 00fa 55F82AA0 		ldr	r10, [r5, r10, lsl #2]
 1358 00fe 51F82000 		ldr	r0, [r1, r0, lsl #2]
 1359 0102 4649     		ldr	r1, .L81+16
 1360 0104 C2F30562 		ubfx	r2, r2, #24, #6
 1361              	.LVL150:
 1362 0108 8BEA0A0A 		eor	r10, fp, r10
 1363 010c 51F82220 		ldr	r2, [r1, r2, lsl #2]
 1364              		.loc 1 645 0 discriminator 3
 1365 0110 59F8041C 		ldr	r1, [r9, #-4]
 1366 0114 8AEA000A 		eor	r10, r10, r0
 1367 0118 8AEA0202 		eor	r2, r10, r2
 1368              		.loc 1 644 0 discriminator 3
 1369 011c 5440     		eors	r4, r4, r2
 1370              	.LVL151:
 1371              		.loc 1 645 0 discriminator 3
 1372 011e 59F8082C 		ldr	r2, [r9, #-8]
 1373 0122 84EA0200 		eor	r0, r4, r2
 1374              	.LVL152:
 1375 0126 00F03F0A 		and	r10, r0, #63
 1376              	.LVL153:
 1377 012a C0F30522 		ubfx	r2, r0, #8, #6
 1378 012e 5CF82AB0 		ldr	fp, [ip, r10, lsl #2]
 1379 0132 5EF82220 		ldr	r2, [lr, r2, lsl #2]
 1380 0136 C0F3054A 		ubfx	r10, r0, #16, #6
 1381              	.LVL154:
 1382 013a C0F30560 		ubfx	r0, r0, #24, #6
 1383              	.LVL155:
 1384 013e 81EA3411 		eor	r1, r1, r4, ror #4
 1385              	.LVL156:
 1386 0142 8BEA0202 		eor	r2, fp, r2
 1387 0146 57F82AA0 		ldr	r10, [r7, r10, lsl #2]
 1388 014a 56F82000 		ldr	r0, [r6, r0, lsl #2]
 1389 014e 5A40     		eors	r2, r2, r3
 1390 0150 C1F30523 		ubfx	r3, r1, #8, #6
 1391              	.LVL157:
 1392 0154 01F03F0B 		and	fp, r1, #63
 1393 0158 82EA0A0A 		eor	r10, r2, r10
 1394 015c 8AEA000A 		eor	r10, r10, r0
 1395 0160 55F82320 		ldr	r2, [r5, r3, lsl #2]
 1396 0164 2C48     		ldr	r0, .L81+12
 1397 0166 58F82BB0 		ldr	fp, [r8, fp, lsl #2]
 1398 016a C1F30543 		ubfx	r3, r1, #16, #6
 1399 016e C1F30561 		ubfx	r1, r1, #24, #6
 1400              	.LVL158:
 1401 0172 50F82330 		ldr	r3, [r0, r3, lsl #2]
 1402 0176 2948     		ldr	r0, .L81+16
 1403 0178 8AEA0B0A 		eor	r10, r10, fp
 1404 017c 50F82110 		ldr	r1, [r0, r1, lsl #2]
ARM GAS  C:\Users\jo\AppData\Local\Temp\ccz5wZMS.s 			page 26


 1405 0180 8AEA0202 		eor	r2, r10, r2
 1406 0184 5A40     		eors	r2, r2, r3
 1407 0186 82EA0103 		eor	r3, r2, r1
 1408              	.LVL159:
 1409              		.loc 1 642 0 discriminator 3
 1410 018a 009A     		ldr	r2, [sp]
 1411 018c 09F11009 		add	r9, r9, #16
 1412              	.LVL160:
 1413 0190 9145     		cmp	r9, r2
 1414 0192 8AD1     		bne	.L78
 1415              		.loc 1 648 0
 1416 0194 4FEA7303 		ror	r3, r3, #1
 1417              	.LVL161:
 1418 0198 83EA0401 		eor	r1, r3, r4
 1419 019c 01F0AA31 		and	r1, r1, #-1431655766
 1420              	.LVL162:
 1421 01a0 4C40     		eors	r4, r4, r1
 1422              	.LVL163:
 1423 01a2 4FEA7402 		ror	r2, r4, #1
 1424 01a6 5940     		eors	r1, r1, r3
 1425              	.LVL164:
 1426 01a8 81EA1223 		eor	r3, r1, r2, lsr #8
 1427 01ac 03F0FF13 		and	r3, r3, #16711935
 1428              	.LVL165:
 1429 01b0 82EA0324 		eor	r4, r2, r3, lsl #8
 1430 01b4 5940     		eors	r1, r1, r3
 1431              	.LVL166:
 1432 01b6 81EA9403 		eor	r3, r1, r4, lsr #2
 1433              	.LVL167:
 1434 01ba 03F03333 		and	r3, r3, #858993459
 1435              	.LVL168:
 1436 01be 83EA0100 		eor	r0, r3, r1
 1437              	.LVL169:
 1438 01c2 84EA8303 		eor	r3, r4, r3, lsl #2
 1439              	.LVL170:
 1440 01c6 83EA1042 		eor	r2, r3, r0, lsr #16
 1441 01ca 92B2     		uxth	r2, r2
 1442              	.LVL171:
 1443 01cc 80EA0241 		eor	r1, r0, r2, lsl #16
 1444 01d0 5340     		eors	r3, r3, r2
 1445              	.LVL172:
 1446 01d2 83EA1112 		eor	r2, r3, r1, lsr #4
 1447              	.LVL173:
 1448 01d6 02F00F32 		and	r2, r2, #252645135
 1449              	.LVL174:
 1450 01da 5340     		eors	r3, r3, r2
 1451              	.LVL175:
 1452 01dc 81EA0212 		eor	r2, r1, r2, lsl #4
 1453              	.LVL176:
 1454              		.loc 1 650 0
 1455 01e0 0199     		ldr	r1, [sp, #4]
 1456              		.loc 1 651 0
 1457 01e2 180C     		lsrs	r0, r3, #16
 1458              		.loc 1 650 0
 1459 01e4 170E     		lsrs	r7, r2, #24
 1460 01e6 160C     		lsrs	r6, r2, #16
 1461 01e8 150A     		lsrs	r5, r2, #8
ARM GAS  C:\Users\jo\AppData\Local\Temp\ccz5wZMS.s 			page 27


 1462              		.loc 1 651 0
 1463 01ea 1C0E     		lsrs	r4, r3, #24
 1464 01ec 4FEA132E 		lsr	lr, r3, #8
 1465 01f0 4871     		strb	r0, [r1, #5]
 1466              		.loc 1 654 0
 1467 01f2 0020     		movs	r0, #0
 1468              		.loc 1 650 0
 1469 01f4 CA70     		strb	r2, [r1, #3]
 1470              		.loc 1 651 0
 1471 01f6 CB71     		strb	r3, [r1, #7]
 1472              		.loc 1 650 0
 1473 01f8 0F70     		strb	r7, [r1]
 1474 01fa 4E70     		strb	r6, [r1, #1]
 1475 01fc 8D70     		strb	r5, [r1, #2]
 1476              		.loc 1 651 0
 1477 01fe 0C71     		strb	r4, [r1, #4]
 1478 0200 81F806E0 		strb	lr, [r1, #6]
 1479              		.loc 1 654 0
 1480 0204 03B0     		add	sp, sp, #12
 1481              		.cfi_def_cfa_offset 36
 1482              	.LVL177:
 1483              		@ sp needed
 1484 0206 BDE8F08F 		pop	{r4, r5, r6, r7, r8, r9, r10, fp, pc}
 1485              	.LVL178:
 1486              	.L82:
 1487 020a 00BF     		.align	2
 1488              	.L81:
 1489 020c 00000000 		.word	.LANCHOR7
 1490 0210 00000000 		.word	.LANCHOR8
 1491 0214 00000000 		.word	.LANCHOR9
 1492 0218 00000000 		.word	.LANCHOR10
 1493 021c 00000000 		.word	.LANCHOR11
 1494 0220 00000000 		.word	.LANCHOR4
 1495 0224 00000000 		.word	.LANCHOR5
 1496 0228 00000000 		.word	.LANCHOR6
 1497              		.cfi_endproc
 1498              	.LFE17:
 1499              		.size	des_crypt_ecb, .-des_crypt_ecb
 1500 022c AFF30080 		.section	.text.des_crypt_cbc,"ax",%progbits
 1501              		.align	2
 1502              		.p2align 4,,15
 1503              		.global	des_crypt_cbc
 1504              		.thumb
 1505              		.thumb_func
 1506              		.type	des_crypt_cbc, %function
 1507              	des_crypt_cbc:
 1508              	.LFB18:
 1509              		.loc 1 666 0
 1510              		.cfi_startproc
 1511              		@ args = 8, pretend = 0, frame = 8
 1512              		@ frame_needed = 0, uses_anonymous_args = 0
 1513              	.LVL179:
 1514 0000 2DE9F043 		push	{r4, r5, r6, r7, r8, r9, lr}
 1515              		.cfi_def_cfa_offset 28
 1516              		.cfi_offset 4, -28
 1517              		.cfi_offset 5, -24
 1518              		.cfi_offset 6, -20
ARM GAS  C:\Users\jo\AppData\Local\Temp\ccz5wZMS.s 			page 28


 1519              		.cfi_offset 7, -16
 1520              		.cfi_offset 8, -12
 1521              		.cfi_offset 9, -8
 1522              		.cfi_offset 14, -4
 1523 0004 83B0     		sub	sp, sp, #12
 1524              		.cfi_def_cfa_offset 40
 1525              		.loc 1 670 0
 1526 0006 12F0070F 		tst	r2, #7
 1527              		.loc 1 666 0
 1528 000a 9046     		mov	r8, r2
 1529 000c 0A9C     		ldr	r4, [sp, #40]
 1530 000e 0B9D     		ldr	r5, [sp, #44]
 1531              		.loc 1 670 0
 1532 0010 4FD1     		bne	.L93
 1533              		.loc 1 673 0
 1534 0012 0129     		cmp	r1, #1
 1535 0014 0646     		mov	r6, r0
 1536 0016 9946     		mov	r9, r3
 1537 0018 28D0     		beq	.L100
 1538              	.LVL180:
 1539 001a 5F1E     		subs	r7, r3, #1
 1540              		.loc 1 690 0
 1541 001c 12B3     		cbz	r2, .L88
 1542              	.LVL181:
 1543              	.L92:
 1544              		.loc 1 692 0
 1545 001e 2068     		ldr	r0, [r4]	@ unaligned
 1546 0020 6168     		ldr	r1, [r4, #4]	@ unaligned
 1547 0022 6B46     		mov	r3, sp
 1548 0024 03C3     		stmia	r3!, {r0, r1}
 1549              		.loc 1 693 0
 1550 0026 2A46     		mov	r2, r5
 1551 0028 3046     		mov	r0, r6
 1552 002a 2146     		mov	r1, r4
 1553 002c FFF7FEFF 		bl	des_crypt_ecb
 1554              	.LVL182:
 1555 0030 6A1E     		subs	r2, r5, #1
 1556 0032 3846     		mov	r0, r7
 1557 0034 05F1070E 		add	lr, r5, #7
 1558              	.LVL183:
 1559              	.L91:
 1560              		.loc 1 696 0 discriminator 3
 1561 0038 12F8011F 		ldrb	r1, [r2, #1]!	@ zero_extendqisi2
 1562 003c 10F8013F 		ldrb	r3, [r0, #1]!	@ zero_extendqisi2
 1563              		.loc 1 695 0 discriminator 3
 1564 0040 7245     		cmp	r2, lr
 1565              		.loc 1 696 0 discriminator 3
 1566 0042 81EA0301 		eor	r1, r1, r3
 1567 0046 1170     		strb	r1, [r2]
 1568              		.loc 1 695 0 discriminator 3
 1569 0048 F6D1     		bne	.L91
 1570              		.loc 1 698 0
 1571 004a 6B46     		mov	r3, sp
 1572 004c 03CB     		ldmia	r3!, {r0, r1}
 1573              		.loc 1 690 0
 1574 004e B8F10808 		subs	r8, r8, #8
 1575              	.LVL184:
ARM GAS  C:\Users\jo\AppData\Local\Temp\ccz5wZMS.s 			page 29


 1576              		.loc 1 700 0
 1577 0052 04F10804 		add	r4, r4, #8
 1578              		.loc 1 701 0
 1579 0056 05F10805 		add	r5, r5, #8
 1580              		.loc 1 698 0
 1581 005a C9F80000 		str	r0, [r9]	@ unaligned
 1582 005e C9F80410 		str	r1, [r9, #4]	@ unaligned
 1583              	.LVL185:
 1584              		.loc 1 690 0
 1585 0062 DCD1     		bne	.L92
 1586              	.LVL186:
 1587              	.L88:
 1588              		.loc 1 671 0
 1589 0064 0020     		movs	r0, #0
 1590              	.LVL187:
 1591              	.L98:
 1592              		.loc 1 707 0
 1593 0066 03B0     		add	sp, sp, #12
 1594              		.cfi_remember_state
 1595              		.cfi_def_cfa_offset 28
 1596              		@ sp needed
 1597 0068 BDE8F083 		pop	{r4, r5, r6, r7, r8, r9, pc}
 1598              	.LVL188:
 1599              	.L100:
 1600              		.cfi_restore_state
 1601              	.LBB47:
 1602              	.LBB48:
 1603              		.loc 1 675 0
 1604 006c 002A     		cmp	r2, #0
 1605 006e F9D0     		beq	.L88
 1606 0070 013C     		subs	r4, r4, #1
 1607              	.LVL189:
 1608 0072 5F1E     		subs	r7, r3, #1
 1609              	.LVL190:
 1610              	.L90:
 1611 0074 3946     		mov	r1, r7
 1612 0076 6A1E     		subs	r2, r5, #1
 1613 0078 04F1080E 		add	lr, r4, #8
 1614              	.LVL191:
 1615              	.L89:
 1616              		.loc 1 678 0
 1617 007c 14F8013F 		ldrb	r3, [r4, #1]!	@ zero_extendqisi2
 1618              	.LVL192:
 1619 0080 11F8010F 		ldrb	r0, [r1, #1]!	@ zero_extendqisi2
 1620              		.loc 1 677 0
 1621 0084 A645     		cmp	lr, r4
 1622              		.loc 1 678 0
 1623 0086 83EA0003 		eor	r3, r3, r0
 1624 008a 02F8013F 		strb	r3, [r2, #1]!
 1625              	.LVL193:
 1626              		.loc 1 677 0
 1627 008e F5D1     		bne	.L89
 1628              		.loc 1 680 0
 1629 0090 2A46     		mov	r2, r5
 1630 0092 2946     		mov	r1, r5
 1631 0094 3046     		mov	r0, r6
 1632 0096 FFF7FEFF 		bl	des_crypt_ecb
ARM GAS  C:\Users\jo\AppData\Local\Temp\ccz5wZMS.s 			page 30


 1633              	.LVL194:
 1634              		.loc 1 681 0
 1635 009a 2B68     		ldr	r3, [r5]	@ unaligned
 1636 009c 6A68     		ldr	r2, [r5, #4]	@ unaligned
 1637 009e C9F80420 		str	r2, [r9, #4]	@ unaligned
 1638              	.LVL195:
 1639              		.loc 1 675 0
 1640 00a2 B8F10808 		subs	r8, r8, #8
 1641              	.LVL196:
 1642              		.loc 1 681 0
 1643 00a6 C9F80030 		str	r3, [r9]	@ unaligned
 1644              		.loc 1 684 0
 1645 00aa 05F10805 		add	r5, r5, #8
 1646              	.LVL197:
 1647              		.loc 1 675 0
 1648 00ae E1D1     		bne	.L90
 1649 00b0 D8E7     		b	.L88
 1650              	.LVL198:
 1651              	.L93:
 1652              	.LBE48:
 1653              	.LBE47:
 1654              		.loc 1 671 0
 1655 00b2 6FF03100 		mvn	r0, #49
 1656              	.LVL199:
 1657 00b6 D6E7     		b	.L98
 1658              		.cfi_endproc
 1659              	.LFE18:
 1660              		.size	des_crypt_cbc, .-des_crypt_cbc
 1661 00b8 AFF30080 		.section	.text.des3_crypt_ecb,"ax",%progbits
 1661      AFF30080 
 1662              		.align	2
 1663              		.p2align 4,,15
 1664              		.global	des3_crypt_ecb
 1665              		.thumb
 1666              		.thumb_func
 1667              		.type	des3_crypt_ecb, %function
 1668              	des3_crypt_ecb:
 1669              	.LFB19:
 1670              		.loc 1 716 0
 1671              		.cfi_startproc
 1672              		@ args = 0, pretend = 0, frame = 8
 1673              		@ frame_needed = 0, uses_anonymous_args = 0
 1674              	.LVL200:
 1675 0000 2DE9F04F 		push	{r4, r5, r6, r7, r8, r9, r10, fp, lr}
 1676              		.cfi_def_cfa_offset 36
 1677              		.cfi_offset 4, -36
 1678              		.cfi_offset 5, -32
 1679              		.cfi_offset 6, -28
 1680              		.cfi_offset 7, -24
 1681              		.cfi_offset 8, -20
 1682              		.cfi_offset 9, -16
 1683              		.cfi_offset 10, -12
 1684              		.cfi_offset 11, -8
 1685              		.cfi_offset 14, -4
 1686 0004 83B0     		sub	sp, sp, #12
 1687              		.cfi_def_cfa_offset 48
 1688              		.loc 1 722 0
ARM GAS  C:\Users\jo\AppData\Local\Temp\ccz5wZMS.s 			page 31


 1689 0006 4C78     		ldrb	r4, [r1, #1]	@ zero_extendqisi2
 1690              		.loc 1 723 0
 1691 0008 91F80590 		ldrb	r9, [r1, #5]	@ zero_extendqisi2
 1692              		.loc 1 722 0
 1693 000c 91F800C0 		ldrb	ip, [r1]	@ zero_extendqisi2
 1694              		.loc 1 723 0
 1695 0010 91F804E0 		ldrb	lr, [r1, #4]	@ zero_extendqisi2
 1696 0014 CB79     		ldrb	r3, [r1, #7]	@ zero_extendqisi2
 1697              		.loc 1 722 0
 1698 0016 8F78     		ldrb	r7, [r1, #2]	@ zero_extendqisi2
 1699              		.loc 1 723 0
 1700 0018 8D79     		ldrb	r5, [r1, #6]	@ zero_extendqisi2
 1701              		.loc 1 716 0
 1702 001a 0090     		str	r0, [sp]
 1703 001c 8246     		mov	r10, r0
 1704              	.LVL201:
 1705              		.loc 1 722 0
 1706 001e 2404     		lsls	r4, r4, #16
 1707 0020 C878     		ldrb	r0, [r1, #3]	@ zero_extendqisi2
 1708              	.LVL202:
 1709              		.loc 1 716 0
 1710 0022 0192     		str	r2, [sp, #4]
 1711              		.loc 1 723 0
 1712 0024 4FEA0941 		lsl	r1, r9, #16
 1713              	.LVL203:
 1714              		.loc 1 722 0
 1715 0028 44EA0C64 		orr	r4, r4, ip, lsl #24
 1716              		.loc 1 723 0
 1717 002c 41EA0E61 		orr	r1, r1, lr, lsl #24
 1718 0030 0B43     		orrs	r3, r3, r1
 1719 0032 2043     		orrs	r0, r0, r4
 1720              		.loc 1 722 0
 1721 0034 40EA0727 		orr	r7, r0, r7, lsl #8
 1722              	.LVL204:
 1723              		.loc 1 723 0
 1724 0038 43EA0525 		orr	r5, r3, r5, lsl #8
 1725              	.LVL205:
 1726              		.loc 1 725 0
 1727 003c 85EA1710 		eor	r0, r5, r7, lsr #4
 1728 0040 00F00F30 		and	r0, r0, #252645135
 1729              	.LVL206:
 1730 0044 80EA0503 		eor	r3, r0, r5
 1731              	.LVL207:
 1732 0048 87EA0010 		eor	r0, r7, r0, lsl #4
 1733              	.LVL208:
 1734 004c 83EA1047 		eor	r7, r3, r0, lsr #16
 1735              	.LVL209:
 1736 0050 BFB2     		uxth	r7, r7
 1737              	.LVL210:
 1738 0052 87EA0305 		eor	r5, r7, r3
 1739              	.LVL211:
 1740 0056 80EA0747 		eor	r7, r0, r7, lsl #16
 1741              	.LVL212:
 1742 005a 87EA9503 		eor	r3, r7, r5, lsr #2
 1743              	.LVL213:
 1744 005e 03F03333 		and	r3, r3, #858993459
 1745              	.LVL214:
ARM GAS  C:\Users\jo\AppData\Local\Temp\ccz5wZMS.s 			page 32


 1746 0062 5F40     		eors	r7, r7, r3
 1747              	.LVL215:
 1748 0064 85EA8303 		eor	r3, r5, r3, lsl #2
 1749              	.LVL216:
 1750 0068 87EA1320 		eor	r0, r7, r3, lsr #8
 1751              	.LVL217:
 1752 006c 00F0FF10 		and	r0, r0, #16711935
 1753              	.LVL218:
 1754 0070 83EA0023 		eor	r3, r3, r0, lsl #8
 1755              	.LVL219:
 1756 0074 4740     		eors	r7, r7, r0
 1757              	.LVL220:
 1758 0076 4FEAF371 		ror	r1, r3, #31
 1759              	.LVL221:
 1760 007a 81EA0703 		eor	r3, r1, r7
 1761 007e 03F0AA33 		and	r3, r3, #-1431655766
 1762              	.LVL222:
 1763 0082 83EA0700 		eor	r0, r3, r7
 1764 0086 4FEAF072 		ror	r2, r0, #31
 1765              	.LVL223:
 1766 008a DFF89883 		ldr	r8, .L113+28
 1767 008e DE4E     		ldr	r6, .L113
 1768 0090 DE4F     		ldr	r7, .L113+4
 1769              	.LVL224:
 1770 0092 DF4D     		ldr	r5, .L113+8
 1771              	.LVL225:
 1772 0094 5046     		mov	r0, r10
 1773 0096 4B40     		eors	r3, r3, r1
 1774              	.LVL226:
 1775 0098 0AF1140A 		add	r10, r10, #20
 1776              	.LVL227:
 1777 009c 00F1940C 		add	ip, r0, #148
 1778              	.LVL228:
 1779              	.L102:
 1780              		.loc 1 729 0 discriminator 3
 1781 00a0 5AF8100C 		ldr	r0, [r10, #-16]
 1782 00a4 5AF80C1C 		ldr	r1, [r10, #-12]
 1783 00a8 DA4C     		ldr	r4, .L113+12
 1784 00aa 5840     		eors	r0, r0, r3
 1785              	.LVL229:
 1786 00ac 00F03F0E 		and	lr, r0, #63
 1787              	.LVL230:
 1788 00b0 81EA3311 		eor	r1, r1, r3, ror #4
 1789              	.LVL231:
 1790 00b4 54F82EE0 		ldr	lr, [r4, lr, lsl #2]
 1791              	.LVL232:
 1792 00b8 D74C     		ldr	r4, .L113+16
 1793 00ba 01F03F09 		and	r9, r1, #63
 1794 00be C0F3052B 		ubfx	fp, r0, #8, #6
 1795 00c2 54F82990 		ldr	r9, [r4, r9, lsl #2]
 1796 00c6 D54C     		ldr	r4, .L113+20
 1797 00c8 89EA0E09 		eor	r9, r9, lr
 1798 00cc 54F82BE0 		ldr	lr, [r4, fp, lsl #2]
 1799 00d0 D34C     		ldr	r4, .L113+24
 1800 00d2 C0F3054B 		ubfx	fp, r0, #16, #6
 1801 00d6 C0F30560 		ubfx	r0, r0, #24, #6
 1802              	.LVL233:
ARM GAS  C:\Users\jo\AppData\Local\Temp\ccz5wZMS.s 			page 33


 1803 00da 58F82BB0 		ldr	fp, [r8, fp, lsl #2]
 1804 00de 56F82000 		ldr	r0, [r6, r0, lsl #2]
 1805 00e2 89EA0E0E 		eor	lr, r9, lr
 1806 00e6 C1F30529 		ubfx	r9, r1, #8, #6
 1807 00ea 8EEA0B0B 		eor	fp, lr, fp
 1808 00ee C1F3054E 		ubfx	lr, r1, #16, #6
 1809 00f2 57F82990 		ldr	r9, [r7, r9, lsl #2]
 1810 00f6 54F82EE0 		ldr	lr, [r4, lr, lsl #2]
 1811 00fa C84C     		ldr	r4, .L113+20
 1812 00fc C1F30561 		ubfx	r1, r1, #24, #6
 1813              	.LVL234:
 1814 0100 8BEA0000 		eor	r0, fp, r0
 1815 0104 80EA0900 		eor	r0, r0, r9
 1816 0108 55F82110 		ldr	r1, [r5, r1, lsl #2]
 1817 010c 80EA0E0E 		eor	lr, r0, lr
 1818 0110 8EEA010E 		eor	lr, lr, r1
 1819              		.loc 1 730 0 discriminator 3
 1820 0114 5AF8081C 		ldr	r1, [r10, #-8]
 1821              		.loc 1 729 0 discriminator 3
 1822 0118 82EA0E02 		eor	r2, r2, lr
 1823              	.LVL235:
 1824              		.loc 1 730 0 discriminator 3
 1825 011c 82EA010E 		eor	lr, r2, r1
 1826              	.LVL236:
 1827 0120 0EF03F09 		and	r9, lr, #63
 1828              	.LVL237:
 1829 0124 CEF30520 		ubfx	r0, lr, #8, #6
 1830 0128 BA49     		ldr	r1, .L113+12
 1831 012a 54F82000 		ldr	r0, [r4, r0, lsl #2]
 1832 012e 51F82910 		ldr	r1, [r1, r9, lsl #2]
 1833 0132 B94C     		ldr	r4, .L113+16
 1834 0134 4840     		eors	r0, r0, r1
 1835 0136 5AF8041C 		ldr	r1, [r10, #-4]
 1836 013a CEF3054B 		ubfx	fp, lr, #16, #6
 1837 013e 4FEA3219 		ror	r9, r2, #4
 1838              	.LVL238:
 1839 0142 89EA0101 		eor	r1, r9, r1
 1840              	.LVL239:
 1841 0146 CEF3056E 		ubfx	lr, lr, #24, #6
 1842              	.LVL240:
 1843 014a 4340     		eors	r3, r3, r0
 1844              	.LVL241:
 1845 014c 58F82BB0 		ldr	fp, [r8, fp, lsl #2]
 1846 0150 56F82EE0 		ldr	lr, [r6, lr, lsl #2]
 1847 0154 01F03F00 		and	r0, r1, #63
 1848 0158 83EA0B0B 		eor	fp, r3, fp
 1849 015c 54F82000 		ldr	r0, [r4, r0, lsl #2]
 1850 0160 C1F30523 		ubfx	r3, r1, #8, #6
 1851 0164 8BEA0E0B 		eor	fp, fp, lr
 1852 0168 8BEA000B 		eor	fp, fp, r0
 1853 016c C1F3054E 		ubfx	lr, r1, #16, #6
 1854 0170 AB48     		ldr	r0, .L113+24
 1855 0172 57F82330 		ldr	r3, [r7, r3, lsl #2]
 1856 0176 50F82E00 		ldr	r0, [r0, lr, lsl #2]
 1857 017a C1F30561 		ubfx	r1, r1, #24, #6
 1858              	.LVL242:
 1859 017e 8BEA030B 		eor	fp, fp, r3
ARM GAS  C:\Users\jo\AppData\Local\Temp\ccz5wZMS.s 			page 34


 1860 0182 55F82110 		ldr	r1, [r5, r1, lsl #2]
 1861 0186 0AF1100A 		add	r10, r10, #16
 1862              	.LVL243:
 1863 018a 8BEA000E 		eor	lr, fp, r0
 1864              		.loc 1 727 0 discriminator 3
 1865 018e E245     		cmp	r10, ip
 1866              		.loc 1 730 0 discriminator 3
 1867 0190 8EEA0103 		eor	r3, lr, r1
 1868              	.LVL244:
 1869              		.loc 1 727 0 discriminator 3
 1870 0194 84D1     		bne	.L102
 1871 0196 0099     		ldr	r1, [sp]
 1872 0198 01F58A7E 		add	lr, r1, #276
 1873 019c 01E0     		b	.L103
 1874              	.LVL245:
 1875              	.L111:
 1876 019e 4FEA3219 		ror	r9, r2, #4
 1877              	.LVL246:
 1878              	.L103:
 1879              		.loc 1 735 0 discriminator 3
 1880 01a2 5CF8101C 		ldr	r1, [ip, #-16]
 1881 01a6 5CF80C0C 		ldr	r0, [ip, #-12]
 1882 01aa 9A4C     		ldr	r4, .L113+12
 1883 01ac 5140     		eors	r1, r1, r2
 1884              	.LVL247:
 1885 01ae 89EA0009 		eor	r9, r9, r0
 1886              	.LVL248:
 1887 01b2 01F03F00 		and	r0, r1, #63
 1888              	.LVL249:
 1889 01b6 09F03F0A 		and	r10, r9, #63
 1890 01ba 54F82000 		ldr	r0, [r4, r0, lsl #2]
 1891              	.LVL250:
 1892 01be 964C     		ldr	r4, .L113+16
 1893 01c0 54F82AA0 		ldr	r10, [r4, r10, lsl #2]
 1894 01c4 964C     		ldr	r4, .L113+24
 1895 01c6 C1F3052B 		ubfx	fp, r1, #8, #6
 1896 01ca 8AEA000A 		eor	r10, r10, r0
 1897 01ce 9348     		ldr	r0, .L113+20
 1898 01d0 50F82B00 		ldr	r0, [r0, fp, lsl #2]
 1899 01d4 C1F3054B 		ubfx	fp, r1, #16, #6
 1900 01d8 C1F30561 		ubfx	r1, r1, #24, #6
 1901              	.LVL251:
 1902 01dc 58F82BB0 		ldr	fp, [r8, fp, lsl #2]
 1903 01e0 56F82110 		ldr	r1, [r6, r1, lsl #2]
 1904 01e4 8AEA0000 		eor	r0, r10, r0
 1905 01e8 C9F3052A 		ubfx	r10, r9, #8, #6
 1906 01ec 80EA0B0B 		eor	fp, r0, fp
 1907 01f0 C9F30540 		ubfx	r0, r9, #16, #6
 1908 01f4 57F82AA0 		ldr	r10, [r7, r10, lsl #2]
 1909 01f8 54F82000 		ldr	r0, [r4, r0, lsl #2]
 1910 01fc 874C     		ldr	r4, .L113+20
 1911 01fe C9F30569 		ubfx	r9, r9, #24, #6
 1912              	.LVL252:
 1913 0202 8BEA0101 		eor	r1, fp, r1
 1914 0206 81EA0A0A 		eor	r10, r1, r10
 1915 020a 55F82910 		ldr	r1, [r5, r9, lsl #2]
 1916 020e 8AEA0000 		eor	r0, r10, r0
ARM GAS  C:\Users\jo\AppData\Local\Temp\ccz5wZMS.s 			page 35


 1917 0212 4840     		eors	r0, r0, r1
 1918              		.loc 1 736 0 discriminator 3
 1919 0214 5CF8081C 		ldr	r1, [ip, #-8]
 1920              		.loc 1 735 0 discriminator 3
 1921 0218 4340     		eors	r3, r3, r0
 1922              	.LVL253:
 1923              		.loc 1 736 0 discriminator 3
 1924 021a 83EA0109 		eor	r9, r3, r1
 1925              	.LVL254:
 1926 021e 09F03F0A 		and	r10, r9, #63
 1927              	.LVL255:
 1928 0222 C9F30520 		ubfx	r0, r9, #8, #6
 1929 0226 7B49     		ldr	r1, .L113+12
 1930 0228 54F82000 		ldr	r0, [r4, r0, lsl #2]
 1931 022c 51F82A10 		ldr	r1, [r1, r10, lsl #2]
 1932 0230 794C     		ldr	r4, .L113+16
 1933 0232 4840     		eors	r0, r0, r1
 1934 0234 5CF8041C 		ldr	r1, [ip, #-4]
 1935 0238 C9F3054B 		ubfx	fp, r9, #16, #6
 1936 023c 4FEA331A 		ror	r10, r3, #4
 1937              	.LVL256:
 1938 0240 8AEA0101 		eor	r1, r10, r1
 1939              	.LVL257:
 1940 0244 C9F30569 		ubfx	r9, r9, #24, #6
 1941              	.LVL258:
 1942 0248 4240     		eors	r2, r2, r0
 1943              	.LVL259:
 1944 024a 58F82BB0 		ldr	fp, [r8, fp, lsl #2]
 1945 024e 56F82990 		ldr	r9, [r6, r9, lsl #2]
 1946 0252 01F03F00 		and	r0, r1, #63
 1947 0256 82EA0B0B 		eor	fp, r2, fp
 1948 025a 54F82000 		ldr	r0, [r4, r0, lsl #2]
 1949 025e C1F30522 		ubfx	r2, r1, #8, #6
 1950 0262 8BEA090B 		eor	fp, fp, r9
 1951 0266 8BEA000B 		eor	fp, fp, r0
 1952 026a C1F30549 		ubfx	r9, r1, #16, #6
 1953 026e 6C48     		ldr	r0, .L113+24
 1954 0270 57F82220 		ldr	r2, [r7, r2, lsl #2]
 1955 0274 50F82900 		ldr	r0, [r0, r9, lsl #2]
 1956 0278 C1F30561 		ubfx	r1, r1, #24, #6
 1957              	.LVL260:
 1958 027c 8BEA020B 		eor	fp, fp, r2
 1959 0280 55F82110 		ldr	r1, [r5, r1, lsl #2]
 1960 0284 0CF1100C 		add	ip, ip, #16
 1961              	.LVL261:
 1962 0288 8BEA0009 		eor	r9, fp, r0
 1963              		.loc 1 733 0 discriminator 3
 1964 028c F445     		cmp	ip, lr
 1965              		.loc 1 736 0 discriminator 3
 1966 028e 89EA0102 		eor	r2, r9, r1
 1967              	.LVL262:
 1968              		.loc 1 733 0 discriminator 3
 1969 0292 84D1     		bne	.L111
 1970 0294 0099     		ldr	r1, [sp]
 1971 0296 01F5CA71 		add	r1, r1, #404
 1972 029a 8C46     		mov	ip, r1
 1973              	.LVL263:
ARM GAS  C:\Users\jo\AppData\Local\Temp\ccz5wZMS.s 			page 36


 1974 029c 01E0     		b	.L104
 1975              	.LVL264:
 1976              	.L112:
 1977 029e 4FEA331A 		ror	r10, r3, #4
 1978              	.LVL265:
 1979              	.L104:
 1980              		.loc 1 741 0 discriminator 3
 1981 02a2 5EF8101C 		ldr	r1, [lr, #-16]
 1982 02a6 5EF80C0C 		ldr	r0, [lr, #-12]
 1983 02aa 5A4C     		ldr	r4, .L113+12
 1984 02ac 5940     		eors	r1, r1, r3
 1985              	.LVL266:
 1986 02ae 8AEA000A 		eor	r10, r10, r0
 1987              	.LVL267:
 1988 02b2 01F03F00 		and	r0, r1, #63
 1989              	.LVL268:
 1990 02b6 0AF03F09 		and	r9, r10, #63
 1991 02ba 54F82000 		ldr	r0, [r4, r0, lsl #2]
 1992              	.LVL269:
 1993 02be 564C     		ldr	r4, .L113+16
 1994 02c0 54F82990 		ldr	r9, [r4, r9, lsl #2]
 1995 02c4 564C     		ldr	r4, .L113+24
 1996 02c6 C1F3052B 		ubfx	fp, r1, #8, #6
 1997 02ca 89EA0009 		eor	r9, r9, r0
 1998 02ce 5348     		ldr	r0, .L113+20
 1999 02d0 50F82B00 		ldr	r0, [r0, fp, lsl #2]
 2000 02d4 C1F3054B 		ubfx	fp, r1, #16, #6
 2001 02d8 C1F30561 		ubfx	r1, r1, #24, #6
 2002              	.LVL270:
 2003 02dc 58F82BB0 		ldr	fp, [r8, fp, lsl #2]
 2004 02e0 56F82110 		ldr	r1, [r6, r1, lsl #2]
 2005 02e4 89EA0000 		eor	r0, r9, r0
 2006 02e8 CAF30529 		ubfx	r9, r10, #8, #6
 2007 02ec 80EA0B0B 		eor	fp, r0, fp
 2008 02f0 CAF30540 		ubfx	r0, r10, #16, #6
 2009 02f4 57F82990 		ldr	r9, [r7, r9, lsl #2]
 2010 02f8 54F82000 		ldr	r0, [r4, r0, lsl #2]
 2011 02fc CAF3056A 		ubfx	r10, r10, #24, #6
 2012              	.LVL271:
 2013 0300 8BEA0101 		eor	r1, fp, r1
 2014 0304 81EA0909 		eor	r9, r1, r9
 2015 0308 55F82A10 		ldr	r1, [r5, r10, lsl #2]
 2016 030c 89EA0000 		eor	r0, r9, r0
 2017 0310 4840     		eors	r0, r0, r1
 2018              		.loc 1 742 0 discriminator 3
 2019 0312 5EF8081C 		ldr	r1, [lr, #-8]
 2020              		.loc 1 741 0 discriminator 3
 2021 0316 4240     		eors	r2, r2, r0
 2022              	.LVL272:
 2023              		.loc 1 742 0 discriminator 3
 2024 0318 82EA0109 		eor	r9, r2, r1
 2025              	.LVL273:
 2026 031c 09F03F0A 		and	r10, r9, #63
 2027              	.LVL274:
 2028 0320 3C49     		ldr	r1, .L113+12
 2029 0322 C9F30520 		ubfx	r0, r9, #8, #6
 2030 0326 51F82AB0 		ldr	fp, [r1, r10, lsl #2]
ARM GAS  C:\Users\jo\AppData\Local\Temp\ccz5wZMS.s 			page 37


 2031 032a 3C49     		ldr	r1, .L113+20
 2032 032c C9F3054A 		ubfx	r10, r9, #16, #6
 2033              	.LVL275:
 2034 0330 51F82000 		ldr	r0, [r1, r0, lsl #2]
 2035 0334 5EF8041C 		ldr	r1, [lr, #-4]
 2036 0338 58F82AA0 		ldr	r10, [r8, r10, lsl #2]
 2037 033c 8BEA0000 		eor	r0, fp, r0
 2038 0340 81EA3211 		eor	r1, r1, r2, ror #4
 2039              	.LVL276:
 2040 0344 5840     		eors	r0, r0, r3
 2041 0346 C9F30569 		ubfx	r9, r9, #24, #6
 2042              	.LVL277:
 2043 034a 01F03F0B 		and	fp, r1, #63
 2044 034e 80EA0A0A 		eor	r10, r0, r10
 2045 0352 3148     		ldr	r0, .L113+16
 2046 0354 56F82990 		ldr	r9, [r6, r9, lsl #2]
 2047 0358 50F82B00 		ldr	r0, [r0, fp, lsl #2]
 2048 035c C1F30523 		ubfx	r3, r1, #8, #6
 2049              	.LVL278:
 2050 0360 C1F3054B 		ubfx	fp, r1, #16, #6
 2051 0364 57F82330 		ldr	r3, [r7, r3, lsl #2]
 2052 0368 8AEA090A 		eor	r10, r10, r9
 2053 036c C1F30561 		ubfx	r1, r1, #24, #6
 2054              	.LVL279:
 2055 0370 8AEA000A 		eor	r10, r10, r0
 2056 0374 54F82B00 		ldr	r0, [r4, fp, lsl #2]
 2057 0378 55F82110 		ldr	r1, [r5, r1, lsl #2]
 2058 037c 8AEA030A 		eor	r10, r10, r3
 2059 0380 0EF1100E 		add	lr, lr, #16
 2060              	.LVL280:
 2061 0384 8AEA000A 		eor	r10, r10, r0
 2062              		.loc 1 739 0 discriminator 3
 2063 0388 E645     		cmp	lr, ip
 2064              		.loc 1 742 0 discriminator 3
 2065 038a 8AEA0103 		eor	r3, r10, r1
 2066              	.LVL281:
 2067              		.loc 1 739 0 discriminator 3
 2068 038e 86D1     		bne	.L112
 2069              		.loc 1 745 0
 2070 0390 4FEA7303 		ror	r3, r3, #1
 2071              	.LVL282:
 2072 0394 83EA0201 		eor	r1, r3, r2
 2073 0398 01F0AA31 		and	r1, r1, #-1431655766
 2074              	.LVL283:
 2075 039c 4A40     		eors	r2, r2, r1
 2076              	.LVL284:
 2077 039e 4FEA7202 		ror	r2, r2, #1
 2078 03a2 5940     		eors	r1, r1, r3
 2079              	.LVL285:
 2080 03a4 81EA1223 		eor	r3, r1, r2, lsr #8
 2081 03a8 03F0FF13 		and	r3, r3, #16711935
 2082              	.LVL286:
 2083 03ac 5940     		eors	r1, r1, r3
 2084              	.LVL287:
 2085 03ae 82EA0322 		eor	r2, r2, r3, lsl #8
 2086              	.LVL288:
 2087 03b2 81EA9203 		eor	r3, r1, r2, lsr #2
ARM GAS  C:\Users\jo\AppData\Local\Temp\ccz5wZMS.s 			page 38


 2088              	.LVL289:
 2089 03b6 03F03333 		and	r3, r3, #858993459
 2090              	.LVL290:
 2091 03ba 83EA0100 		eor	r0, r3, r1
 2092              	.LVL291:
 2093 03be 82EA8303 		eor	r3, r2, r3, lsl #2
 2094              	.LVL292:
 2095 03c2 83EA1042 		eor	r2, r3, r0, lsr #16
 2096              	.LVL293:
 2097 03c6 92B2     		uxth	r2, r2
 2098              	.LVL294:
 2099 03c8 80EA0241 		eor	r1, r0, r2, lsl #16
 2100 03cc 5340     		eors	r3, r3, r2
 2101              	.LVL295:
 2102 03ce 83EA1112 		eor	r2, r3, r1, lsr #4
 2103              	.LVL296:
 2104 03d2 02F00F32 		and	r2, r2, #252645135
 2105              	.LVL297:
 2106 03d6 5340     		eors	r3, r3, r2
 2107              	.LVL298:
 2108 03d8 81EA0212 		eor	r2, r1, r2, lsl #4
 2109              	.LVL299:
 2110              		.loc 1 747 0
 2111 03dc 0199     		ldr	r1, [sp, #4]
 2112              		.loc 1 748 0
 2113 03de 180C     		lsrs	r0, r3, #16
 2114              		.loc 1 747 0
 2115 03e0 170E     		lsrs	r7, r2, #24
 2116 03e2 160C     		lsrs	r6, r2, #16
 2117 03e4 150A     		lsrs	r5, r2, #8
 2118              		.loc 1 748 0
 2119 03e6 1C0E     		lsrs	r4, r3, #24
 2120 03e8 4FEA132E 		lsr	lr, r3, #8
 2121              	.LVL300:
 2122 03ec 4871     		strb	r0, [r1, #5]
 2123              		.loc 1 751 0
 2124 03ee 0020     		movs	r0, #0
 2125              		.loc 1 747 0
 2126 03f0 CA70     		strb	r2, [r1, #3]
 2127              		.loc 1 748 0
 2128 03f2 CB71     		strb	r3, [r1, #7]
 2129              		.loc 1 747 0
 2130 03f4 0F70     		strb	r7, [r1]
 2131 03f6 4E70     		strb	r6, [r1, #1]
 2132 03f8 8D70     		strb	r5, [r1, #2]
 2133              		.loc 1 748 0
 2134 03fa 0C71     		strb	r4, [r1, #4]
 2135 03fc 81F806E0 		strb	lr, [r1, #6]
 2136              		.loc 1 751 0
 2137 0400 03B0     		add	sp, sp, #12
 2138              		.cfi_def_cfa_offset 36
 2139              	.LVL301:
 2140              		@ sp needed
 2141 0402 BDE8F08F 		pop	{r4, r5, r6, r7, r8, r9, r10, fp, pc}
 2142              	.LVL302:
 2143              	.L114:
 2144 0406 00BF     		.align	2
ARM GAS  C:\Users\jo\AppData\Local\Temp\ccz5wZMS.s 			page 39


 2145              	.L113:
 2146 0408 00000000 		.word	.LANCHOR8
 2147 040c 00000000 		.word	.LANCHOR9
 2148 0410 00000000 		.word	.LANCHOR11
 2149 0414 00000000 		.word	.LANCHOR5
 2150 0418 00000000 		.word	.LANCHOR4
 2151 041c 00000000 		.word	.LANCHOR6
 2152 0420 00000000 		.word	.LANCHOR10
 2153 0424 00000000 		.word	.LANCHOR7
 2154              		.cfi_endproc
 2155              	.LFE19:
 2156              		.size	des3_crypt_ecb, .-des3_crypt_ecb
 2157 0428 AFF30080 		.section	.text.des3_crypt_cbc,"ax",%progbits
 2157      AFF30080 
 2158              		.align	2
 2159              		.p2align 4,,15
 2160              		.global	des3_crypt_cbc
 2161              		.thumb
 2162              		.thumb_func
 2163              		.type	des3_crypt_cbc, %function
 2164              	des3_crypt_cbc:
 2165              	.LFB20:
 2166              		.loc 1 763 0
 2167              		.cfi_startproc
 2168              		@ args = 8, pretend = 0, frame = 8
 2169              		@ frame_needed = 0, uses_anonymous_args = 0
 2170              	.LVL303:
 2171 0000 2DE9F043 		push	{r4, r5, r6, r7, r8, r9, lr}
 2172              		.cfi_def_cfa_offset 28
 2173              		.cfi_offset 4, -28
 2174              		.cfi_offset 5, -24
 2175              		.cfi_offset 6, -20
 2176              		.cfi_offset 7, -16
 2177              		.cfi_offset 8, -12
 2178              		.cfi_offset 9, -8
 2179              		.cfi_offset 14, -4
 2180 0004 83B0     		sub	sp, sp, #12
 2181              		.cfi_def_cfa_offset 40
 2182              		.loc 1 767 0
 2183 0006 12F0070F 		tst	r2, #7
 2184              		.loc 1 763 0
 2185 000a 9046     		mov	r8, r2
 2186 000c 0A9C     		ldr	r4, [sp, #40]
 2187 000e 0B9D     		ldr	r5, [sp, #44]
 2188              		.loc 1 767 0
 2189 0010 4FD1     		bne	.L125
 2190              		.loc 1 770 0
 2191 0012 0129     		cmp	r1, #1
 2192 0014 0646     		mov	r6, r0
 2193 0016 9946     		mov	r9, r3
 2194 0018 28D0     		beq	.L132
 2195              	.LVL304:
 2196 001a 5F1E     		subs	r7, r3, #1
 2197              		.loc 1 787 0
 2198 001c 12B3     		cbz	r2, .L120
 2199              	.LVL305:
 2200              	.L124:
ARM GAS  C:\Users\jo\AppData\Local\Temp\ccz5wZMS.s 			page 40


 2201              		.loc 1 789 0
 2202 001e 2068     		ldr	r0, [r4]	@ unaligned
 2203 0020 6168     		ldr	r1, [r4, #4]	@ unaligned
 2204 0022 6B46     		mov	r3, sp
 2205 0024 03C3     		stmia	r3!, {r0, r1}
 2206              		.loc 1 790 0
 2207 0026 2A46     		mov	r2, r5
 2208 0028 3046     		mov	r0, r6
 2209 002a 2146     		mov	r1, r4
 2210 002c FFF7FEFF 		bl	des3_crypt_ecb
 2211              	.LVL306:
 2212 0030 6A1E     		subs	r2, r5, #1
 2213 0032 3846     		mov	r0, r7
 2214 0034 05F1070E 		add	lr, r5, #7
 2215              	.LVL307:
 2216              	.L123:
 2217              		.loc 1 793 0 discriminator 3
 2218 0038 12F8011F 		ldrb	r1, [r2, #1]!	@ zero_extendqisi2
 2219 003c 10F8013F 		ldrb	r3, [r0, #1]!	@ zero_extendqisi2
 2220              		.loc 1 792 0 discriminator 3
 2221 0040 7245     		cmp	r2, lr
 2222              		.loc 1 793 0 discriminator 3
 2223 0042 81EA0301 		eor	r1, r1, r3
 2224 0046 1170     		strb	r1, [r2]
 2225              		.loc 1 792 0 discriminator 3
 2226 0048 F6D1     		bne	.L123
 2227              		.loc 1 795 0
 2228 004a 6B46     		mov	r3, sp
 2229 004c 03CB     		ldmia	r3!, {r0, r1}
 2230              		.loc 1 787 0
 2231 004e B8F10808 		subs	r8, r8, #8
 2232              	.LVL308:
 2233              		.loc 1 797 0
 2234 0052 04F10804 		add	r4, r4, #8
 2235              		.loc 1 798 0
 2236 0056 05F10805 		add	r5, r5, #8
 2237              		.loc 1 795 0
 2238 005a C9F80000 		str	r0, [r9]	@ unaligned
 2239 005e C9F80410 		str	r1, [r9, #4]	@ unaligned
 2240              	.LVL309:
 2241              		.loc 1 787 0
 2242 0062 DCD1     		bne	.L124
 2243              	.LVL310:
 2244              	.L120:
 2245              		.loc 1 768 0
 2246 0064 0020     		movs	r0, #0
 2247              	.LVL311:
 2248              	.L130:
 2249              		.loc 1 804 0
 2250 0066 03B0     		add	sp, sp, #12
 2251              		.cfi_remember_state
 2252              		.cfi_def_cfa_offset 28
 2253              		@ sp needed
 2254 0068 BDE8F083 		pop	{r4, r5, r6, r7, r8, r9, pc}
 2255              	.LVL312:
 2256              	.L132:
 2257              		.cfi_restore_state
ARM GAS  C:\Users\jo\AppData\Local\Temp\ccz5wZMS.s 			page 41


 2258              	.LBB51:
 2259              	.LBB52:
 2260              		.loc 1 772 0
 2261 006c 002A     		cmp	r2, #0
 2262 006e F9D0     		beq	.L120
 2263 0070 013C     		subs	r4, r4, #1
 2264              	.LVL313:
 2265 0072 5F1E     		subs	r7, r3, #1
 2266              	.LVL314:
 2267              	.L122:
 2268 0074 3946     		mov	r1, r7
 2269 0076 6A1E     		subs	r2, r5, #1
 2270 0078 04F1080E 		add	lr, r4, #8
 2271              	.LVL315:
 2272              	.L121:
 2273              		.loc 1 775 0
 2274 007c 14F8013F 		ldrb	r3, [r4, #1]!	@ zero_extendqisi2
 2275              	.LVL316:
 2276 0080 11F8010F 		ldrb	r0, [r1, #1]!	@ zero_extendqisi2
 2277              		.loc 1 774 0
 2278 0084 A645     		cmp	lr, r4
 2279              		.loc 1 775 0
 2280 0086 83EA0003 		eor	r3, r3, r0
 2281 008a 02F8013F 		strb	r3, [r2, #1]!
 2282              	.LVL317:
 2283              		.loc 1 774 0
 2284 008e F5D1     		bne	.L121
 2285              		.loc 1 777 0
 2286 0090 2A46     		mov	r2, r5
 2287 0092 2946     		mov	r1, r5
 2288 0094 3046     		mov	r0, r6
 2289 0096 FFF7FEFF 		bl	des3_crypt_ecb
 2290              	.LVL318:
 2291              		.loc 1 778 0
 2292 009a 2B68     		ldr	r3, [r5]	@ unaligned
 2293 009c 6A68     		ldr	r2, [r5, #4]	@ unaligned
 2294 009e C9F80420 		str	r2, [r9, #4]	@ unaligned
 2295              	.LVL319:
 2296              		.loc 1 772 0
 2297 00a2 B8F10808 		subs	r8, r8, #8
 2298              	.LVL320:
 2299              		.loc 1 778 0
 2300 00a6 C9F80030 		str	r3, [r9]	@ unaligned
 2301              		.loc 1 781 0
 2302 00aa 05F10805 		add	r5, r5, #8
 2303              	.LVL321:
 2304              		.loc 1 772 0
 2305 00ae E1D1     		bne	.L122
 2306 00b0 D8E7     		b	.L120
 2307              	.LVL322:
 2308              	.L125:
 2309              	.LBE52:
 2310              	.LBE51:
 2311              		.loc 1 768 0
 2312 00b2 6FF03100 		mvn	r0, #49
 2313              	.LVL323:
 2314 00b6 D6E7     		b	.L130
ARM GAS  C:\Users\jo\AppData\Local\Temp\ccz5wZMS.s 			page 42


 2315              		.cfi_endproc
 2316              	.LFE20:
 2317              		.size	des3_crypt_cbc, .-des3_crypt_cbc
 2318 00b8 AFF30080 		.section	.text.des_self_test,"ax",%progbits
 2318      AFF30080 
 2319              		.align	2
 2320              		.p2align 4,,15
 2321              		.global	des_self_test
 2322              		.thumb
 2323              		.thumb_func
 2324              		.type	des_self_test, %function
 2325              	des_self_test:
 2326              	.LFB21:
 2327              		.loc 1 866 0
 2328              		.cfi_startproc
 2329              		@ args = 0, pretend = 0, frame = 560
 2330              		@ frame_needed = 0, uses_anonymous_args = 0
 2331              	.LVL324:
 2332 0000 2DE9F04F 		push	{r4, r5, r6, r7, r8, r9, r10, fp, lr}
 2333              		.cfi_def_cfa_offset 36
 2334              		.cfi_offset 4, -36
 2335              		.cfi_offset 5, -32
 2336              		.cfi_offset 6, -28
 2337              		.cfi_offset 7, -24
 2338              		.cfi_offset 8, -20
 2339              		.cfi_offset 9, -16
 2340              		.cfi_offset 10, -12
 2341              		.cfi_offset 11, -8
 2342              		.cfi_offset 14, -4
 2343 0004 ADF50F7D 		sub	sp, sp, #572
 2344              		.cfi_def_cfa_offset 608
 2345              	.LVL325:
 2346              	.LBB53:
 2347              	.LBB54:
 2348              		.loc 1 312 0
 2349 0008 0021     		movs	r1, #0
 2350              	.LBE54:
 2351              	.LBE53:
 2352              		.loc 1 866 0
 2353 000a 0390     		str	r0, [sp, #12]
 2354              	.LBB57:
 2355              	.LBB55:
 2356              		.loc 1 312 0
 2357 000c 8422     		movs	r2, #132
 2358 000e 0CA8     		add	r0, sp, #48
 2359              	.LVL326:
 2360              	.LBE55:
 2361              	.LBE57:
 2362              	.LBB58:
 2363              	.LBB59:
 2364              		.loc 1 325 0
 2365 0010 2DAF     		add	r7, sp, #180
 2366              	.LBE59:
 2367              	.LBE58:
 2368              	.LBB61:
 2369              	.LBB56:
 2370              		.loc 1 312 0
ARM GAS  C:\Users\jo\AppData\Local\Temp\ccz5wZMS.s 			page 43


 2371 0012 FFF7FEFF 		bl	memset
 2372              	.LVL327:
 2373              	.LBE56:
 2374              	.LBE61:
 2375              	.LBB62:
 2376              	.LBB60:
 2377              		.loc 1 325 0
 2378 0016 3846     		mov	r0, r7
 2379 0018 0021     		movs	r1, #0
 2380 001a 4FF4C272 		mov	r2, #388
 2381 001e FFF7FEFF 		bl	memset
 2382              	.LVL328:
 2383              	.LBE60:
 2384              	.LBE62:
 2385              		.loc 1 887 0
 2386 0022 DFF8B8B2 		ldr	fp, .L233+16
 2387 0026 DFF8B892 		ldr	r9, .L233+20
 2388              		.loc 1 881 0
 2389 002a 0026     		movs	r6, #0
 2390 002c 04AC     		add	r4, sp, #16
 2391              	.LVL329:
 2392              	.L153:
 2393              		.loc 1 886 0
 2394 002e 039B     		ldr	r3, [sp, #12]
 2395              		.loc 1 883 0
 2396 0030 7510     		asrs	r5, r6, #1
 2397              	.LVL330:
 2398              		.loc 1 884 0
 2399 0032 06F00108 		and	r8, r6, #1
 2400              	.LVL331:
 2401              		.loc 1 886 0
 2402 0036 7BB1     		cbz	r3, .L134
 2403              		.loc 1 888 0
 2404 0038 6A1C     		adds	r2, r5, #1
 2405              		.loc 1 887 0
 2406 003a 002D     		cmp	r5, #0
 2407 003c C2EBC202 		rsb	r2, r2, r2, lsl #3
 2408 0040 0CBF     		ite	eq
 2409 0042 2021     		moveq	r1, #32
 2410 0044 3321     		movne	r1, #51
 2411 0046 D200     		lsls	r2, r2, #3
 2412 0048 A048     		ldr	r0, .L233
 2413 004a B8F1000F 		cmp	r8, #0
 2414 004e 0CBF     		ite	eq
 2415 0050 5B46     		moveq	r3, fp
 2416 0052 4B46     		movne	r3, r9
 2417 0054 FFF7FEFF 		bl	printf
 2418              	.LVL332:
 2419              	.L134:
 2420              		.loc 1 891 0
 2421 0058 9D4B     		ldr	r3, .L233+4
 2422 005a 93E80300 		ldmia	r3, {r0, r1}
 2423              		.loc 1 893 0
 2424 005e 731E     		subs	r3, r6, #1
 2425              		.loc 1 891 0
 2426 0060 84E80300 		stmia	r4, {r0, r1}
 2427              		.loc 1 893 0
ARM GAS  C:\Users\jo\AppData\Local\Temp\ccz5wZMS.s 			page 44


 2428 0064 042B     		cmp	r3, #4
 2429 0066 7AD8     		bhi	.L137
 2430 0068 DFE813F0 		tbh	[pc, r3, lsl #1]
 2431              	.L139:
 2432 006c 7400     		.2byte	(.L138-.L139)/2
 2433 006e 6F00     		.2byte	(.L140-.L139)/2
 2434 0070 6A00     		.2byte	(.L141-.L139)/2
 2435 0072 0500     		.2byte	(.L142-.L139)/2
 2436 0074 1801     		.2byte	(.L143-.L139)/2
 2437              		.p2align 1
 2438              	.L142:
 2439              		.loc 1 912 0
 2440 0076 3846     		mov	r0, r7
 2441 0078 9649     		ldr	r1, .L233+8
 2442 007a FFF7FEFF 		bl	des3_set3key_dec
 2443              	.LVL333:
 2444              	.L145:
 2445              		.loc 1 887 0 discriminator 1
 2446 007e 42F2107A 		movw	r10, #10000
 2447 0082 04E0     		b	.L144
 2448              	.LVL334:
 2449              	.L223:
 2450              		.loc 1 926 0
 2451 0084 FFF7FEFF 		bl	des_crypt_ecb
 2452              	.LVL335:
 2453              		.loc 1 923 0
 2454 0088 BAF1010A 		subs	r10, r10, #1
 2455              	.LVL336:
 2456 008c 0CD0     		beq	.L222
 2457              	.LVL337:
 2458              	.L144:
 2459              		.loc 1 926 0
 2460 008e 0CA8     		add	r0, sp, #48
 2461              	.LVL338:
 2462 0090 2146     		mov	r1, r4
 2463 0092 2246     		mov	r2, r4
 2464              		.loc 1 925 0
 2465 0094 002D     		cmp	r5, #0
 2466 0096 F5D0     		beq	.L223
 2467              		.loc 1 928 0
 2468 0098 3846     		mov	r0, r7
 2469              	.LVL339:
 2470 009a 2146     		mov	r1, r4
 2471 009c 2246     		mov	r2, r4
 2472 009e FFF7FEFF 		bl	des3_crypt_ecb
 2473              	.LVL340:
 2474              		.loc 1 923 0
 2475 00a2 BAF1010A 		subs	r10, r10, #1
 2476              	.LVL341:
 2477 00a6 F2D1     		bne	.L144
 2478              	.LVL342:
 2479              	.L222:
 2480              		.loc 1 931 0
 2481 00a8 B8F1000F 		cmp	r8, #0
 2482 00ac 40F0DA80 		bne	.L148
 2483              		.loc 1 932 0 discriminator 1
 2484 00b0 8949     		ldr	r1, .L233+12
ARM GAS  C:\Users\jo\AppData\Local\Temp\ccz5wZMS.s 			page 45


 2485              	.L219:
 2486              		.loc 1 934 0
 2487 00b2 2046     		mov	r0, r4
 2488 00b4 01EBC501 		add	r1, r1, r5, lsl #3
 2489 00b8 0822     		movs	r2, #8
 2490 00ba FFF7FEFF 		bl	memcmp
 2491              	.LVL343:
 2492              		.loc 1 933 0
 2493 00be 0028     		cmp	r0, #0
 2494 00c0 40F0E380 		bne	.L149
 2495              		.loc 1 943 0
 2496 00c4 039B     		ldr	r3, [sp, #12]
 2497 00c6 002B     		cmp	r3, #0
 2498 00c8 40F0CE80 		bne	.L224
 2499              	.L152:
 2500              		.loc 1 881 0 discriminator 2
 2501 00cc 0136     		adds	r6, r6, #1
 2502              	.LVL344:
 2503 00ce 062E     		cmp	r6, #6
 2504 00d0 ADD1     		bne	.L153
 2505              		.loc 1 947 0
 2506 00d2 039B     		ldr	r3, [sp, #12]
 2507 00d4 002B     		cmp	r3, #0
 2508 00d6 40F0EF80 		bne	.L225
 2509              	.L154:
 2510              	.LVL345:
 2511              		.loc 1 887 0 discriminator 1
 2512 00da 4FF0000B 		mov	fp, #0
 2513 00de 0DF12009 		add	r9, sp, #32
 2514              	.LVL346:
 2515              	.L175:
 2516              		.loc 1 959 0
 2517 00e2 039B     		ldr	r3, [sp, #12]
 2518              		.loc 1 956 0
 2519 00e4 4FEA6B08 		asr	r8, fp, #1
 2520              	.LVL347:
 2521              		.loc 1 957 0
 2522 00e8 0BF00106 		and	r6, fp, #1
 2523              	.LVL348:
 2524              		.loc 1 959 0
 2525 00ec 8BB1     		cbz	r3, .L155
 2526              		.loc 1 961 0
 2527 00ee 08F10102 		add	r2, r8, #1
 2528              		.loc 1 960 0
 2529 00f2 7A4B     		ldr	r3, .L233+16
 2530 00f4 7A4D     		ldr	r5, .L233+20
 2531 00f6 7B48     		ldr	r0, .L233+24
 2532 00f8 B8F1000F 		cmp	r8, #0
 2533 00fc C2EBC202 		rsb	r2, r2, r2, lsl #3
 2534 0100 0CBF     		ite	eq
 2535 0102 2021     		moveq	r1, #32
 2536 0104 3321     		movne	r1, #51
 2537 0106 D200     		lsls	r2, r2, #3
 2538 0108 002E     		cmp	r6, #0
 2539 010a 18BF     		it	ne
 2540 010c 2B46     		movne	r3, r5
 2541 010e FFF7FEFF 		bl	printf
ARM GAS  C:\Users\jo\AppData\Local\Temp\ccz5wZMS.s 			page 46


 2542              	.LVL349:
 2543              	.L155:
 2544              		.loc 1 964 0
 2545 0112 754B     		ldr	r3, .L233+28
 2546 0114 93E80300 		ldmia	r3, {r0, r1}
 2547              		.loc 1 965 0
 2548 0118 06AB     		add	r3, sp, #24
 2549 011a 83E80300 		stmia	r3, {r0, r1}
 2550              		.loc 1 966 0
 2551 011e 6C4B     		ldr	r3, .L233+4
 2552              		.loc 1 964 0
 2553 0120 89E80300 		stmia	r9, {r0, r1}
 2554              		.loc 1 966 0
 2555 0124 93E80300 		ldmia	r3, {r0, r1}
 2556              		.loc 1 968 0
 2557 0128 0BF1FF33 		add	r3, fp, #-1
 2558              		.loc 1 966 0
 2559 012c 84E80300 		stmia	r4, {r0, r1}
 2560              		.loc 1 968 0
 2561 0130 042B     		cmp	r3, #4
 2562 0132 00F28D80 		bhi	.L158
 2563 0136 DFE803F0 		tbb	[pc, r3]
 2564              	.L160:
 2565 013a 86       		.byte	(.L159-.L160)/2
 2566 013b 90       		.byte	(.L161-.L160)/2
 2567 013c 5A       		.byte	(.L162-.L160)/2
 2568 013d 17       		.byte	(.L163-.L160)/2
 2569 013e BA       		.byte	(.L164-.L160)/2
 2570              	.LVL350:
 2571 013f 00       		.p2align 1
 2572              	.L141:
 2573              		.loc 1 908 0
 2574 0140 3846     		mov	r0, r7
 2575 0142 6449     		ldr	r1, .L233+8
 2576 0144 FFF7FEFF 		bl	des3_set2key_enc
 2577              	.LVL351:
 2578              		.loc 1 909 0
 2579 0148 99E7     		b	.L145
 2580              	.L140:
 2581              		.loc 1 904 0
 2582 014a 3846     		mov	r0, r7
 2583 014c 6149     		ldr	r1, .L233+8
 2584 014e FFF7FEFF 		bl	des3_set2key_dec
 2585              	.LVL352:
 2586              		.loc 1 905 0
 2587 0152 94E7     		b	.L145
 2588              	.L138:
 2589              	.LVL353:
 2590              	.LBB63:
 2591              	.LBB64:
 2592              		.loc 1 498 0
 2593 0154 0DA8     		add	r0, sp, #52
 2594 0156 5F49     		ldr	r1, .L233+8
 2595 0158 FFF7FEFF 		bl	des_setkey
 2596              	.LVL354:
 2597 015c 8FE7     		b	.L145
 2598              	.LVL355:
ARM GAS  C:\Users\jo\AppData\Local\Temp\ccz5wZMS.s 			page 47


 2599              	.L137:
 2600              	.LBE64:
 2601              	.LBE63:
 2602              		.loc 1 896 0
 2603 015e 0CA8     		add	r0, sp, #48
 2604              	.LVL356:
 2605 0160 5C49     		ldr	r1, .L233+8
 2606 0162 FFF7FEFF 		bl	des_setkey_dec
 2607              	.LVL357:
 2608              		.loc 1 897 0
 2609 0166 8AE7     		b	.L145
 2610              	.LVL358:
 2611              	.L163:
 2612              		.loc 1 987 0
 2613 0168 3846     		mov	r0, r7
 2614 016a 5A49     		ldr	r1, .L233+8
 2615 016c FFF7FEFF 		bl	des3_set3key_dec
 2616              	.LVL359:
 2617              	.L165:
 2618              		.loc 1 998 0
 2619 0170 002E     		cmp	r6, #0
 2620 0172 42D1     		bne	.L184
 2621              	.L230:
 2622 0174 42F21076 		movw	r6, #10000
 2623              	.LVL360:
 2624 0178 03E0     		b	.L169
 2625              	.LVL361:
 2626              	.L227:
 2627              		.loc 1 1003 0
 2628 017a FFF7FEFF 		bl	des_crypt_cbc
 2629              	.LVL362:
 2630              		.loc 1 1000 0
 2631 017e 013E     		subs	r6, r6, #1
 2632              	.LVL363:
 2633 0180 10D0     		beq	.L226
 2634              	.LVL364:
 2635              	.L169:
 2636              		.loc 1 1003 0
 2637 0182 0CA8     		add	r0, sp, #48
 2638              	.LVL365:
 2639 0184 4146     		mov	r1, r8
 2640 0186 0822     		movs	r2, #8
 2641 0188 4B46     		mov	r3, r9
 2642 018a 0094     		str	r4, [sp]
 2643 018c 0194     		str	r4, [sp, #4]
 2644              		.loc 1 1002 0
 2645 018e B8F1000F 		cmp	r8, #0
 2646 0192 F2D0     		beq	.L227
 2647              	.LVL366:
 2648              		.loc 1 1005 0
 2649 0194 3846     		mov	r0, r7
 2650              	.LVL367:
 2651 0196 0021     		movs	r1, #0
 2652              	.LVL368:
 2653 0198 0822     		movs	r2, #8
 2654 019a 4B46     		mov	r3, r9
 2655 019c FFF7FEFF 		bl	des3_crypt_cbc
ARM GAS  C:\Users\jo\AppData\Local\Temp\ccz5wZMS.s 			page 48


 2656              	.LVL369:
 2657              		.loc 1 1000 0
 2658 01a0 013E     		subs	r6, r6, #1
 2659              	.LVL370:
 2660 01a2 EED1     		bne	.L169
 2661              	.LVL371:
 2662              	.L226:
 2663              		.loc 1 1028 0
 2664 01a4 5149     		ldr	r1, .L233+32
 2665 01a6 2046     		mov	r0, r4
 2666 01a8 01EBC801 		add	r1, r1, r8, lsl #3
 2667 01ac 0822     		movs	r2, #8
 2668 01ae FFF7FEFF 		bl	memcmp
 2669              	.LVL372:
 2670              		.loc 1 1027 0
 2671 01b2 0028     		cmp	r0, #0
 2672 01b4 69D1     		bne	.L149
 2673              	.L173:
 2674              		.loc 1 1039 0
 2675 01b6 039B     		ldr	r3, [sp, #12]
 2676 01b8 002B     		cmp	r3, #0
 2677 01ba 74D1     		bne	.L228
 2678              	.L174:
 2679              		.loc 1 954 0 discriminator 2
 2680 01bc 0BF1010B 		add	fp, fp, #1
 2681              	.LVL373:
 2682 01c0 BBF1060F 		cmp	fp, #6
 2683 01c4 8DD1     		bne	.L175
 2684              		.loc 1 1044 0
 2685 01c6 039B     		ldr	r3, [sp, #12]
 2686 01c8 002B     		cmp	r3, #0
 2687 01ca 79D1     		bne	.L229
 2688              		.loc 1 867 0
 2689 01cc 0398     		ldr	r0, [sp, #12]
 2690              	.LVL374:
 2691              	.L151:
 2692 01ce 0CAB     		add	r3, sp, #48
 2693              	.LVL375:
 2694              	.LBB65:
 2695              	.LBB66:
 2696              	.LBB67:
 2697              		.loc 1 54 0
 2698 01d0 0022     		movs	r2, #0
 2699              	.LVL376:
 2700              	.L176:
 2701 01d2 1A70     		strb	r2, [r3]
 2702              	.LVL377:
 2703 01d4 0133     		adds	r3, r3, #1
 2704              	.LVL378:
 2705 01d6 BB42     		cmp	r3, r7
 2706 01d8 FBD1     		bne	.L176
 2707              	.LBE67:
 2708              	.LBE66:
 2709              	.LBE65:
 2710              	.LBB68:
 2711              	.LBB69:
 2712              	.LBB70:
ARM GAS  C:\Users\jo\AppData\Local\Temp\ccz5wZMS.s 			page 49


 2713 01da 0022     		movs	r2, #0
 2714              	.LVL379:
 2715              	.L177:
 2716 01dc 1A70     		strb	r2, [r3]
 2717              	.LVL380:
 2718 01de 8EA9     		add	r1, sp, #568
 2719 01e0 0133     		adds	r3, r3, #1
 2720              	.LVL381:
 2721 01e2 8B42     		cmp	r3, r1
 2722 01e4 FAD1     		bne	.L177
 2723              	.LBE70:
 2724              	.LBE69:
 2725              	.LBE68:
 2726              		.loc 1 1052 0
 2727 01e6 0DF50F7D 		add	sp, sp, #572
 2728              		.cfi_remember_state
 2729              		.cfi_def_cfa_offset 36
 2730              		@ sp needed
 2731 01ea BDE8F08F 		pop	{r4, r5, r6, r7, r8, r9, r10, fp, pc}
 2732              	.LVL382:
 2733              	.L162:
 2734              		.cfi_restore_state
 2735              		.loc 1 983 0
 2736 01ee 3846     		mov	r0, r7
 2737 01f0 3849     		ldr	r1, .L233+8
 2738 01f2 FFF7FEFF 		bl	des3_set2key_enc
 2739              	.LVL383:
 2740              		.loc 1 998 0
 2741 01f6 002E     		cmp	r6, #0
 2742 01f8 BCD0     		beq	.L230
 2743              	.L184:
 2744 01fa 42F2107A 		movw	r10, #10000
 2745 01fe 0AAE     		add	r6, sp, #40
 2746              	.LVL384:
 2747 0200 11E0     		b	.L166
 2748              	.LVL385:
 2749              	.L232:
 2750              	.LBB71:
 2751              		.loc 1 1015 0
 2752 0202 FFF7FEFF 		bl	des_crypt_cbc
 2753              	.LVL386:
 2754              	.L172:
 2755              		.loc 1 1019 0 discriminator 2
 2756 0206 06AB     		add	r3, sp, #24
 2757 0208 93E80300 		ldmia	r3, {r0, r1}
 2758 020c 86E80300 		stmia	r6, {r0, r1}
 2759              		.loc 1 1020 0 discriminator 2
 2760 0210 94E80300 		ldmia	r4, {r0, r1}
 2761 0214 83E80300 		stmia	r3, {r0, r1}
 2762              		.loc 1 1021 0 discriminator 2
 2763 0218 96E80300 		ldmia	r6, {r0, r1}
 2764              	.LBE71:
 2765              		.loc 1 1010 0 discriminator 2
 2766 021c BAF1010A 		subs	r10, r10, #1
 2767              	.LVL387:
 2768              	.LBB72:
 2769              		.loc 1 1021 0 discriminator 2
ARM GAS  C:\Users\jo\AppData\Local\Temp\ccz5wZMS.s 			page 50


 2770 0220 84E80300 		stmia	r4, {r0, r1}
 2771              	.LVL388:
 2772              	.LBE72:
 2773              		.loc 1 1010 0 discriminator 2
 2774 0224 24D0     		beq	.L231
 2775              	.L166:
 2776              	.LVL389:
 2777              	.LBB73:
 2778              		.loc 1 1015 0
 2779 0226 0CA8     		add	r0, sp, #48
 2780              	.LVL390:
 2781 0228 0121     		movs	r1, #1
 2782 022a 0822     		movs	r2, #8
 2783 022c 4B46     		mov	r3, r9
 2784 022e 0094     		str	r4, [sp]
 2785 0230 0194     		str	r4, [sp, #4]
 2786              		.loc 1 1014 0
 2787 0232 B8F1000F 		cmp	r8, #0
 2788 0236 E4D0     		beq	.L232
 2789              		.loc 1 1017 0
 2790 0238 3846     		mov	r0, r7
 2791              	.LVL391:
 2792 023a 0121     		movs	r1, #1
 2793 023c 0822     		movs	r2, #8
 2794 023e 4B46     		mov	r3, r9
 2795 0240 FFF7FEFF 		bl	des3_crypt_cbc
 2796              	.LVL392:
 2797 0244 DFE7     		b	.L172
 2798              	.LVL393:
 2799              	.L159:
 2800              	.LBE73:
 2801              	.LBB74:
 2802              	.LBB75:
 2803              		.loc 1 498 0
 2804 0246 0DA8     		add	r0, sp, #52
 2805 0248 2249     		ldr	r1, .L233+8
 2806 024a FFF7FEFF 		bl	des_setkey
 2807              	.LVL394:
 2808 024e 8FE7     		b	.L165
 2809              	.LVL395:
 2810              	.L158:
 2811              	.LBE75:
 2812              	.LBE74:
 2813              		.loc 1 971 0
 2814 0250 0CA8     		add	r0, sp, #48
 2815              	.LVL396:
 2816 0252 2049     		ldr	r1, .L233+8
 2817 0254 FFF7FEFF 		bl	des_setkey_dec
 2818              	.LVL397:
 2819              		.loc 1 972 0
 2820 0258 8AE7     		b	.L165
 2821              	.L161:
 2822              		.loc 1 979 0
 2823 025a 3846     		mov	r0, r7
 2824 025c 1D49     		ldr	r1, .L233+8
 2825 025e FFF7FEFF 		bl	des3_set2key_dec
 2826              	.LVL398:
ARM GAS  C:\Users\jo\AppData\Local\Temp\ccz5wZMS.s 			page 51


 2827              		.loc 1 980 0
 2828 0262 85E7     		b	.L165
 2829              	.LVL399:
 2830              	.L148:
 2831              		.loc 1 934 0
 2832 0264 2249     		ldr	r1, .L233+36
 2833 0266 24E7     		b	.L219
 2834              	.L224:
 2835              		.loc 1 944 0
 2836 0268 2248     		ldr	r0, .L233+40
 2837 026a FFF7FEFF 		bl	puts
 2838              	.LVL400:
 2839 026e 2DE7     		b	.L152
 2840              	.LVL401:
 2841              	.L231:
 2842              		.loc 1 1024 0
 2843 0270 93E80300 		ldmia	r3, {r0, r1}
 2844              		.loc 1 1030 0
 2845 0274 204B     		ldr	r3, .L233+44
 2846              		.loc 1 1024 0
 2847 0276 84E80300 		stmia	r4, {r0, r1}
 2848              		.loc 1 1030 0
 2849 027a 0822     		movs	r2, #8
 2850 027c 03EBC801 		add	r1, r3, r8, lsl #3
 2851 0280 2046     		mov	r0, r4
 2852 0282 FFF7FEFF 		bl	memcmp
 2853              	.LVL402:
 2854              		.loc 1 1029 0
 2855 0286 0028     		cmp	r0, #0
 2856 0288 95D0     		beq	.L173
 2857              	.LVL403:
 2858              	.L149:
 2859              		.loc 1 936 0
 2860 028a 039B     		ldr	r3, [sp, #12]
 2861              		.loc 1 939 0
 2862 028c 0120     		movs	r0, #1
 2863              		.loc 1 936 0
 2864 028e 002B     		cmp	r3, #0
 2865 0290 9DD0     		beq	.L151
 2866              		.loc 1 937 0
 2867 0292 1A48     		ldr	r0, .L233+48
 2868 0294 FFF7FEFF 		bl	puts
 2869              	.LVL404:
 2870              		.loc 1 939 0
 2871 0298 0120     		movs	r0, #1
 2872 029a 98E7     		b	.L151
 2873              	.LVL405:
 2874              	.L143:
 2875              		.loc 1 916 0
 2876 029c 3846     		mov	r0, r7
 2877 029e 0D49     		ldr	r1, .L233+8
 2878 02a0 FFF7FEFF 		bl	des3_set3key_enc
 2879              	.LVL406:
 2880              		.loc 1 917 0
 2881 02a4 EBE6     		b	.L145
 2882              	.LVL407:
 2883              	.L228:
ARM GAS  C:\Users\jo\AppData\Local\Temp\ccz5wZMS.s 			page 52


 2884              		.loc 1 1040 0
 2885 02a6 1348     		ldr	r0, .L233+40
 2886 02a8 FFF7FEFF 		bl	puts
 2887              	.LVL408:
 2888 02ac 86E7     		b	.L174
 2889              	.LVL409:
 2890              	.L164:
 2891              		.loc 1 991 0
 2892 02ae 3846     		mov	r0, r7
 2893 02b0 0849     		ldr	r1, .L233+8
 2894 02b2 FFF7FEFF 		bl	des3_set3key_enc
 2895              	.LVL410:
 2896              		.loc 1 992 0
 2897 02b6 5BE7     		b	.L165
 2898              	.LVL411:
 2899              	.L225:
 2900              		.loc 1 948 0
 2901 02b8 0A20     		movs	r0, #10
 2902 02ba FFF7FEFF 		bl	putchar
 2903              	.LVL412:
 2904 02be 0CE7     		b	.L154
 2905              	.LVL413:
 2906              	.L229:
 2907              		.loc 1 1045 0
 2908 02c0 0A20     		movs	r0, #10
 2909 02c2 FFF7FEFF 		bl	putchar
 2910              	.LVL414:
 2911              		.loc 1 867 0
 2912 02c6 0020     		movs	r0, #0
 2913 02c8 81E7     		b	.L151
 2914              	.L234:
 2915 02ca 00BF     		.align	2
 2916              	.L233:
 2917 02cc 08000000 		.word	.LC2
 2918 02d0 00000000 		.word	.LANCHOR12
 2919 02d4 00000000 		.word	.LANCHOR13
 2920 02d8 00000000 		.word	.LANCHOR14
 2921 02dc 00000000 		.word	.LC0
 2922 02e0 04000000 		.word	.LC1
 2923 02e4 30000000 		.word	.LC5
 2924 02e8 00000000 		.word	.LANCHOR16
 2925 02ec 00000000 		.word	.LANCHOR18
 2926 02f0 00000000 		.word	.LANCHOR15
 2927 02f4 28000000 		.word	.LC4
 2928 02f8 00000000 		.word	.LANCHOR17
 2929 02fc 20000000 		.word	.LC3
 2930              		.cfi_endproc
 2931              	.LFE21:
 2932              		.size	des_self_test, .-des_self_test
 2933              		.section	.rodata.des3_test_iv,"a",%progbits
 2934              		.align	2
 2935              		.set	.LANCHOR16,. + 0
 2936              		.type	des3_test_iv, %object
 2937              		.size	des3_test_iv, 8
 2938              	des3_test_iv:
 2939 0000 12       		.byte	18
 2940 0001 34       		.byte	52
ARM GAS  C:\Users\jo\AppData\Local\Temp\ccz5wZMS.s 			page 53


 2941 0002 56       		.byte	86
 2942 0003 78       		.byte	120
 2943 0004 90       		.byte	-112
 2944 0005 AB       		.byte	-85
 2945 0006 CD       		.byte	-51
 2946 0007 EF       		.byte	-17
 2947              		.section	.rodata.des3_test_ecb_dec,"a",%progbits
 2948              		.align	2
 2949              		.set	.LANCHOR14,. + 0
 2950              		.type	des3_test_ecb_dec, %object
 2951              		.size	des3_test_ecb_dec, 24
 2952              	des3_test_ecb_dec:
 2953 0000 CD       		.byte	-51
 2954 0001 D6       		.byte	-42
 2955 0002 4F       		.byte	79
 2956 0003 2F       		.byte	47
 2957 0004 94       		.byte	-108
 2958 0005 27       		.byte	39
 2959 0006 C1       		.byte	-63
 2960 0007 5D       		.byte	93
 2961 0008 69       		.byte	105
 2962 0009 96       		.byte	-106
 2963 000a C8       		.byte	-56
 2964 000b FA       		.byte	-6
 2965 000c 47       		.byte	71
 2966 000d A2       		.byte	-94
 2967 000e AB       		.byte	-85
 2968 000f EB       		.byte	-21
 2969 0010 83       		.byte	-125
 2970 0011 25       		.byte	37
 2971 0012 39       		.byte	57
 2972 0013 76       		.byte	118
 2973 0014 44       		.byte	68
 2974 0015 09       		.byte	9
 2975 0016 1A       		.byte	26
 2976 0017 0A       		.byte	10
 2977              		.section	.rodata.des3_test_keys,"a",%progbits
 2978              		.align	2
 2979              		.set	.LANCHOR13,. + 0
 2980              		.type	des3_test_keys, %object
 2981              		.size	des3_test_keys, 24
 2982              	des3_test_keys:
 2983 0000 01       		.byte	1
 2984 0001 23       		.byte	35
 2985 0002 45       		.byte	69
 2986 0003 67       		.byte	103
 2987 0004 89       		.byte	-119
 2988 0005 AB       		.byte	-85
 2989 0006 CD       		.byte	-51
 2990 0007 EF       		.byte	-17
 2991 0008 23       		.byte	35
 2992 0009 45       		.byte	69
 2993 000a 67       		.byte	103
 2994 000b 89       		.byte	-119
 2995 000c AB       		.byte	-85
 2996 000d CD       		.byte	-51
 2997 000e EF       		.byte	-17
ARM GAS  C:\Users\jo\AppData\Local\Temp\ccz5wZMS.s 			page 54


 2998 000f 01       		.byte	1
 2999 0010 45       		.byte	69
 3000 0011 67       		.byte	103
 3001 0012 89       		.byte	-119
 3002 0013 AB       		.byte	-85
 3003 0014 CD       		.byte	-51
 3004 0015 EF       		.byte	-17
 3005 0016 01       		.byte	1
 3006 0017 23       		.byte	35
 3007              		.section	.rodata.des3_test_ecb_enc,"a",%progbits
 3008              		.align	2
 3009              		.set	.LANCHOR15,. + 0
 3010              		.type	des3_test_ecb_enc, %object
 3011              		.size	des3_test_ecb_enc, 24
 3012              	des3_test_ecb_enc:
 3013 0000 6A       		.byte	106
 3014 0001 2A       		.byte	42
 3015 0002 19       		.byte	25
 3016 0003 F4       		.byte	-12
 3017 0004 1E       		.byte	30
 3018 0005 CA       		.byte	-54
 3019 0006 85       		.byte	-123
 3020 0007 4B       		.byte	75
 3021 0008 03       		.byte	3
 3022 0009 E6       		.byte	-26
 3023 000a 9F       		.byte	-97
 3024 000b 5B       		.byte	91
 3025 000c FA       		.byte	-6
 3026 000d 58       		.byte	88
 3027 000e EB       		.byte	-21
 3028 000f 42       		.byte	66
 3029 0010 DD       		.byte	-35
 3030 0011 17       		.byte	23
 3031 0012 E8       		.byte	-24
 3032 0013 B8       		.byte	-72
 3033 0014 B4       		.byte	-76
 3034 0015 37       		.byte	55
 3035 0016 D2       		.byte	-46
 3036 0017 32       		.byte	50
 3037              		.section	.rodata.des3_test_buf,"a",%progbits
 3038              		.align	2
 3039              		.set	.LANCHOR12,. + 0
 3040              		.type	des3_test_buf, %object
 3041              		.size	des3_test_buf, 8
 3042              	des3_test_buf:
 3043 0000 4E       		.byte	78
 3044 0001 6F       		.byte	111
 3045 0002 77       		.byte	119
 3046 0003 20       		.byte	32
 3047 0004 69       		.byte	105
 3048 0005 73       		.byte	115
 3049 0006 20       		.byte	32
 3050 0007 74       		.byte	116
 3051              		.section	.rodata.SB4,"a",%progbits
 3052              		.align	2
 3053              		.set	.LANCHOR7,. + 0
 3054              		.type	SB4, %object
ARM GAS  C:\Users\jo\AppData\Local\Temp\ccz5wZMS.s 			page 55


 3055              		.size	SB4, 256
 3056              	SB4:
 3057 0000 01208000 		.word	8396801
 3058 0004 81200000 		.word	8321
 3059 0008 81200000 		.word	8321
 3060 000c 80000000 		.word	128
 3061 0010 80208000 		.word	8396928
 3062 0014 81008000 		.word	8388737
 3063 0018 01008000 		.word	8388609
 3064 001c 01200000 		.word	8193
 3065 0020 00000000 		.word	0
 3066 0024 00208000 		.word	8396800
 3067 0028 00208000 		.word	8396800
 3068 002c 81208000 		.word	8396929
 3069 0030 81000000 		.word	129
 3070 0034 00000000 		.word	0
 3071 0038 80008000 		.word	8388736
 3072 003c 01008000 		.word	8388609
 3073 0040 01000000 		.word	1
 3074 0044 00200000 		.word	8192
 3075 0048 00008000 		.word	8388608
 3076 004c 01208000 		.word	8396801
 3077 0050 80000000 		.word	128
 3078 0054 00008000 		.word	8388608
 3079 0058 01200000 		.word	8193
 3080 005c 80200000 		.word	8320
 3081 0060 81008000 		.word	8388737
 3082 0064 01000000 		.word	1
 3083 0068 80200000 		.word	8320
 3084 006c 80008000 		.word	8388736
 3085 0070 00200000 		.word	8192
 3086 0074 80208000 		.word	8396928
 3087 0078 81208000 		.word	8396929
 3088 007c 81000000 		.word	129
 3089 0080 80008000 		.word	8388736
 3090 0084 01008000 		.word	8388609
 3091 0088 00208000 		.word	8396800
 3092 008c 81208000 		.word	8396929
 3093 0090 81000000 		.word	129
 3094 0094 00000000 		.word	0
 3095 0098 00000000 		.word	0
 3096 009c 00208000 		.word	8396800
 3097 00a0 80200000 		.word	8320
 3098 00a4 80008000 		.word	8388736
 3099 00a8 81008000 		.word	8388737
 3100 00ac 01000000 		.word	1
 3101 00b0 01208000 		.word	8396801
 3102 00b4 81200000 		.word	8321
 3103 00b8 81200000 		.word	8321
 3104 00bc 80000000 		.word	128
 3105 00c0 81208000 		.word	8396929
 3106 00c4 81000000 		.word	129
 3107 00c8 01000000 		.word	1
 3108 00cc 00200000 		.word	8192
 3109 00d0 01008000 		.word	8388609
 3110 00d4 01200000 		.word	8193
 3111 00d8 80208000 		.word	8396928
ARM GAS  C:\Users\jo\AppData\Local\Temp\ccz5wZMS.s 			page 56


 3112 00dc 81008000 		.word	8388737
 3113 00e0 01200000 		.word	8193
 3114 00e4 80200000 		.word	8320
 3115 00e8 00008000 		.word	8388608
 3116 00ec 01208000 		.word	8396801
 3117 00f0 80000000 		.word	128
 3118 00f4 00008000 		.word	8388608
 3119 00f8 00200000 		.word	8192
 3120 00fc 80208000 		.word	8396928
 3121              		.section	.rodata.SB1,"a",%progbits
 3122              		.align	2
 3123              		.set	.LANCHOR11,. + 0
 3124              		.type	SB1, %object
 3125              		.size	SB1, 256
 3126              	SB1:
 3127 0000 00040101 		.word	16843776
 3128 0004 00000000 		.word	0
 3129 0008 00000100 		.word	65536
 3130 000c 04040101 		.word	16843780
 3131 0010 04000101 		.word	16842756
 3132 0014 04040100 		.word	66564
 3133 0018 04000000 		.word	4
 3134 001c 00000100 		.word	65536
 3135 0020 00040000 		.word	1024
 3136 0024 00040101 		.word	16843776
 3137 0028 04040101 		.word	16843780
 3138 002c 00040000 		.word	1024
 3139 0030 04040001 		.word	16778244
 3140 0034 04000101 		.word	16842756
 3141 0038 00000001 		.word	16777216
 3142 003c 04000000 		.word	4
 3143 0040 04040000 		.word	1028
 3144 0044 00040001 		.word	16778240
 3145 0048 00040001 		.word	16778240
 3146 004c 00040100 		.word	66560
 3147 0050 00040100 		.word	66560
 3148 0054 00000101 		.word	16842752
 3149 0058 00000101 		.word	16842752
 3150 005c 04040001 		.word	16778244
 3151 0060 04000100 		.word	65540
 3152 0064 04000001 		.word	16777220
 3153 0068 04000001 		.word	16777220
 3154 006c 04000100 		.word	65540
 3155 0070 00000000 		.word	0
 3156 0074 04040000 		.word	1028
 3157 0078 04040100 		.word	66564
 3158 007c 00000001 		.word	16777216
 3159 0080 00000100 		.word	65536
 3160 0084 04040101 		.word	16843780
 3161 0088 04000000 		.word	4
 3162 008c 00000101 		.word	16842752
 3163 0090 00040101 		.word	16843776
 3164 0094 00000001 		.word	16777216
 3165 0098 00000001 		.word	16777216
 3166 009c 00040000 		.word	1024
 3167 00a0 04000101 		.word	16842756
 3168 00a4 00000100 		.word	65536
ARM GAS  C:\Users\jo\AppData\Local\Temp\ccz5wZMS.s 			page 57


 3169 00a8 00040100 		.word	66560
 3170 00ac 04000001 		.word	16777220
 3171 00b0 00040000 		.word	1024
 3172 00b4 04000000 		.word	4
 3173 00b8 04040001 		.word	16778244
 3174 00bc 04040100 		.word	66564
 3175 00c0 04040101 		.word	16843780
 3176 00c4 04000100 		.word	65540
 3177 00c8 00000101 		.word	16842752
 3178 00cc 04040001 		.word	16778244
 3179 00d0 04000001 		.word	16777220
 3180 00d4 04040000 		.word	1028
 3181 00d8 04040100 		.word	66564
 3182 00dc 00040101 		.word	16843776
 3183 00e0 04040000 		.word	1028
 3184 00e4 00040001 		.word	16778240
 3185 00e8 00040001 		.word	16778240
 3186 00ec 00000000 		.word	0
 3187 00f0 04000100 		.word	65540
 3188 00f4 00040100 		.word	66560
 3189 00f8 00000000 		.word	0
 3190 00fc 04000101 		.word	16842756
 3191              		.section	.rodata.SB2,"a",%progbits
 3192              		.align	2
 3193              		.set	.LANCHOR8,. + 0
 3194              		.type	SB2, %object
 3195              		.size	SB2, 256
 3196              	SB2:
 3197 0000 20801080 		.word	-2146402272
 3198 0004 00800080 		.word	-2147450880
 3199 0008 00800000 		.word	32768
 3200 000c 20801000 		.word	1081376
 3201 0010 00001000 		.word	1048576
 3202 0014 20000000 		.word	32
 3203 0018 20001080 		.word	-2146435040
 3204 001c 20800080 		.word	-2147450848
 3205 0020 20000080 		.word	-2147483616
 3206 0024 20801080 		.word	-2146402272
 3207 0028 00801080 		.word	-2146402304
 3208 002c 00000080 		.word	-2147483648
 3209 0030 00800080 		.word	-2147450880
 3210 0034 00001000 		.word	1048576
 3211 0038 20000000 		.word	32
 3212 003c 20001080 		.word	-2146435040
 3213 0040 00801000 		.word	1081344
 3214 0044 20001000 		.word	1048608
 3215 0048 20800080 		.word	-2147450848
 3216 004c 00000000 		.word	0
 3217 0050 00000080 		.word	-2147483648
 3218 0054 00800000 		.word	32768
 3219 0058 20801000 		.word	1081376
 3220 005c 00001080 		.word	-2146435072
 3221 0060 20001000 		.word	1048608
 3222 0064 20000080 		.word	-2147483616
 3223 0068 00000000 		.word	0
 3224 006c 00801000 		.word	1081344
 3225 0070 20800000 		.word	32800
ARM GAS  C:\Users\jo\AppData\Local\Temp\ccz5wZMS.s 			page 58


 3226 0074 00801080 		.word	-2146402304
 3227 0078 00001080 		.word	-2146435072
 3228 007c 20800000 		.word	32800
 3229 0080 00000000 		.word	0
 3230 0084 20801000 		.word	1081376
 3231 0088 20001080 		.word	-2146435040
 3232 008c 00001000 		.word	1048576
 3233 0090 20800080 		.word	-2147450848
 3234 0094 00001080 		.word	-2146435072
 3235 0098 00801080 		.word	-2146402304
 3236 009c 00800000 		.word	32768
 3237 00a0 00001080 		.word	-2146435072
 3238 00a4 00800080 		.word	-2147450880
 3239 00a8 20000000 		.word	32
 3240 00ac 20801080 		.word	-2146402272
 3241 00b0 20801000 		.word	1081376
 3242 00b4 20000000 		.word	32
 3243 00b8 00800000 		.word	32768
 3244 00bc 00000080 		.word	-2147483648
 3245 00c0 20800000 		.word	32800
 3246 00c4 00801080 		.word	-2146402304
 3247 00c8 00001000 		.word	1048576
 3248 00cc 20000080 		.word	-2147483616
 3249 00d0 20001000 		.word	1048608
 3250 00d4 20800080 		.word	-2147450848
 3251 00d8 20000080 		.word	-2147483616
 3252 00dc 20001000 		.word	1048608
 3253 00e0 00801000 		.word	1081344
 3254 00e4 00000000 		.word	0
 3255 00e8 00800080 		.word	-2147450880
 3256 00ec 20800000 		.word	32800
 3257 00f0 00000080 		.word	-2147483648
 3258 00f4 20001080 		.word	-2146435040
 3259 00f8 20801080 		.word	-2146402272
 3260 00fc 00801000 		.word	1081344
 3261              		.section	.rodata.SB3,"a",%progbits
 3262              		.align	2
 3263              		.set	.LANCHOR10,. + 0
 3264              		.type	SB3, %object
 3265              		.size	SB3, 256
 3266              	SB3:
 3267 0000 08020000 		.word	520
 3268 0004 00020208 		.word	134349312
 3269 0008 00000000 		.word	0
 3270 000c 08000208 		.word	134348808
 3271 0010 00020008 		.word	134218240
 3272 0014 00000000 		.word	0
 3273 0018 08020200 		.word	131592
 3274 001c 00020008 		.word	134218240
 3275 0020 08000200 		.word	131080
 3276 0024 08000008 		.word	134217736
 3277 0028 08000008 		.word	134217736
 3278 002c 00000200 		.word	131072
 3279 0030 08020208 		.word	134349320
 3280 0034 08000200 		.word	131080
 3281 0038 00000208 		.word	134348800
 3282 003c 08020000 		.word	520
ARM GAS  C:\Users\jo\AppData\Local\Temp\ccz5wZMS.s 			page 59


 3283 0040 00000008 		.word	134217728
 3284 0044 08000000 		.word	8
 3285 0048 00020208 		.word	134349312
 3286 004c 00020000 		.word	512
 3287 0050 00020200 		.word	131584
 3288 0054 00000208 		.word	134348800
 3289 0058 08000208 		.word	134348808
 3290 005c 08020200 		.word	131592
 3291 0060 08020008 		.word	134218248
 3292 0064 00020200 		.word	131584
 3293 0068 00000200 		.word	131072
 3294 006c 08020008 		.word	134218248
 3295 0070 08000000 		.word	8
 3296 0074 08020208 		.word	134349320
 3297 0078 00020000 		.word	512
 3298 007c 00000008 		.word	134217728
 3299 0080 00020208 		.word	134349312
 3300 0084 00000008 		.word	134217728
 3301 0088 08000200 		.word	131080
 3302 008c 08020000 		.word	520
 3303 0090 00000200 		.word	131072
 3304 0094 00020208 		.word	134349312
 3305 0098 00020008 		.word	134218240
 3306 009c 00000000 		.word	0
 3307 00a0 00020000 		.word	512
 3308 00a4 08000200 		.word	131080
 3309 00a8 08020208 		.word	134349320
 3310 00ac 00020008 		.word	134218240
 3311 00b0 08000008 		.word	134217736
 3312 00b4 00020000 		.word	512
 3313 00b8 00000000 		.word	0
 3314 00bc 08000208 		.word	134348808
 3315 00c0 08020008 		.word	134218248
 3316 00c4 00000200 		.word	131072
 3317 00c8 00000008 		.word	134217728
 3318 00cc 08020208 		.word	134349320
 3319 00d0 08000000 		.word	8
 3320 00d4 08020200 		.word	131592
 3321 00d8 00020200 		.word	131584
 3322 00dc 08000008 		.word	134217736
 3323 00e0 00000208 		.word	134348800
 3324 00e4 08020008 		.word	134218248
 3325 00e8 08020000 		.word	520
 3326 00ec 00000208 		.word	134348800
 3327 00f0 08020200 		.word	131592
 3328 00f4 08000000 		.word	8
 3329 00f8 08000208 		.word	134348808
 3330 00fc 00020200 		.word	131584
 3331              		.section	.rodata.weak_key_table,"a",%progbits
 3332              		.align	2
 3333              		.set	.LANCHOR3,. + 0
 3334              		.type	weak_key_table, %object
 3335              		.size	weak_key_table, 128
 3336              	weak_key_table:
 3337 0000 01       		.byte	1
 3338 0001 01       		.byte	1
 3339 0002 01       		.byte	1
ARM GAS  C:\Users\jo\AppData\Local\Temp\ccz5wZMS.s 			page 60


 3340 0003 01       		.byte	1
 3341 0004 01       		.byte	1
 3342 0005 01       		.byte	1
 3343 0006 01       		.byte	1
 3344 0007 01       		.byte	1
 3345 0008 FE       		.byte	-2
 3346 0009 FE       		.byte	-2
 3347 000a FE       		.byte	-2
 3348 000b FE       		.byte	-2
 3349 000c FE       		.byte	-2
 3350 000d FE       		.byte	-2
 3351 000e FE       		.byte	-2
 3352 000f FE       		.byte	-2
 3353 0010 1F       		.byte	31
 3354 0011 1F       		.byte	31
 3355 0012 1F       		.byte	31
 3356 0013 1F       		.byte	31
 3357 0014 0E       		.byte	14
 3358 0015 0E       		.byte	14
 3359 0016 0E       		.byte	14
 3360 0017 0E       		.byte	14
 3361 0018 E0       		.byte	-32
 3362 0019 E0       		.byte	-32
 3363 001a E0       		.byte	-32
 3364 001b E0       		.byte	-32
 3365 001c F1       		.byte	-15
 3366 001d F1       		.byte	-15
 3367 001e F1       		.byte	-15
 3368 001f F1       		.byte	-15
 3369 0020 01       		.byte	1
 3370 0021 1F       		.byte	31
 3371 0022 01       		.byte	1
 3372 0023 1F       		.byte	31
 3373 0024 01       		.byte	1
 3374 0025 0E       		.byte	14
 3375 0026 01       		.byte	1
 3376 0027 0E       		.byte	14
 3377 0028 1F       		.byte	31
 3378 0029 01       		.byte	1
 3379 002a 1F       		.byte	31
 3380 002b 01       		.byte	1
 3381 002c 0E       		.byte	14
 3382 002d 01       		.byte	1
 3383 002e 0E       		.byte	14
 3384 002f 01       		.byte	1
 3385 0030 01       		.byte	1
 3386 0031 E0       		.byte	-32
 3387 0032 01       		.byte	1
 3388 0033 E0       		.byte	-32
 3389 0034 01       		.byte	1
 3390 0035 F1       		.byte	-15
 3391 0036 01       		.byte	1
 3392 0037 F1       		.byte	-15
 3393 0038 E0       		.byte	-32
 3394 0039 01       		.byte	1
 3395 003a E0       		.byte	-32
 3396 003b 01       		.byte	1
ARM GAS  C:\Users\jo\AppData\Local\Temp\ccz5wZMS.s 			page 61


 3397 003c F1       		.byte	-15
 3398 003d 01       		.byte	1
 3399 003e F1       		.byte	-15
 3400 003f 01       		.byte	1
 3401 0040 01       		.byte	1
 3402 0041 FE       		.byte	-2
 3403 0042 01       		.byte	1
 3404 0043 FE       		.byte	-2
 3405 0044 01       		.byte	1
 3406 0045 FE       		.byte	-2
 3407 0046 01       		.byte	1
 3408 0047 FE       		.byte	-2
 3409 0048 FE       		.byte	-2
 3410 0049 01       		.byte	1
 3411 004a FE       		.byte	-2
 3412 004b 01       		.byte	1
 3413 004c FE       		.byte	-2
 3414 004d 01       		.byte	1
 3415 004e FE       		.byte	-2
 3416 004f 01       		.byte	1
 3417 0050 1F       		.byte	31
 3418 0051 E0       		.byte	-32
 3419 0052 1F       		.byte	31
 3420 0053 E0       		.byte	-32
 3421 0054 0E       		.byte	14
 3422 0055 F1       		.byte	-15
 3423 0056 0E       		.byte	14
 3424 0057 F1       		.byte	-15
 3425 0058 E0       		.byte	-32
 3426 0059 1F       		.byte	31
 3427 005a E0       		.byte	-32
 3428 005b 1F       		.byte	31
 3429 005c F1       		.byte	-15
 3430 005d 0E       		.byte	14
 3431 005e F1       		.byte	-15
 3432 005f 0E       		.byte	14
 3433 0060 1F       		.byte	31
 3434 0061 FE       		.byte	-2
 3435 0062 1F       		.byte	31
 3436 0063 FE       		.byte	-2
 3437 0064 0E       		.byte	14
 3438 0065 FE       		.byte	-2
 3439 0066 0E       		.byte	14
 3440 0067 FE       		.byte	-2
 3441 0068 FE       		.byte	-2
 3442 0069 1F       		.byte	31
 3443 006a FE       		.byte	-2
 3444 006b 1F       		.byte	31
 3445 006c FE       		.byte	-2
 3446 006d 0E       		.byte	14
 3447 006e FE       		.byte	-2
 3448 006f 0E       		.byte	14
 3449 0070 E0       		.byte	-32
 3450 0071 FE       		.byte	-2
 3451 0072 E0       		.byte	-32
 3452 0073 FE       		.byte	-2
 3453 0074 F1       		.byte	-15
ARM GAS  C:\Users\jo\AppData\Local\Temp\ccz5wZMS.s 			page 62


 3454 0075 FE       		.byte	-2
 3455 0076 F1       		.byte	-15
 3456 0077 FE       		.byte	-2
 3457 0078 FE       		.byte	-2
 3458 0079 E0       		.byte	-32
 3459 007a FE       		.byte	-2
 3460 007b E0       		.byte	-32
 3461 007c FE       		.byte	-2
 3462 007d F1       		.byte	-15
 3463 007e FE       		.byte	-2
 3464 007f F1       		.byte	-15
 3465              		.section	.rodata.SB5,"a",%progbits
 3466              		.align	2
 3467              		.set	.LANCHOR9,. + 0
 3468              		.type	SB5, %object
 3469              		.size	SB5, 256
 3470              	SB5:
 3471 0000 00010000 		.word	256
 3472 0004 00010802 		.word	34078976
 3473 0008 00000802 		.word	34078720
 3474 000c 00010042 		.word	1107296512
 3475 0010 00000800 		.word	524288
 3476 0014 00010000 		.word	256
 3477 0018 00000040 		.word	1073741824
 3478 001c 00000802 		.word	34078720
 3479 0020 00010840 		.word	1074266368
 3480 0024 00000800 		.word	524288
 3481 0028 00010002 		.word	33554688
 3482 002c 00010840 		.word	1074266368
 3483 0030 00010042 		.word	1107296512
 3484 0034 00000842 		.word	1107820544
 3485 0038 00010800 		.word	524544
 3486 003c 00000040 		.word	1073741824
 3487 0040 00000002 		.word	33554432
 3488 0044 00000840 		.word	1074266112
 3489 0048 00000840 		.word	1074266112
 3490 004c 00000000 		.word	0
 3491 0050 00010040 		.word	1073742080
 3492 0054 00010842 		.word	1107820800
 3493 0058 00010842 		.word	1107820800
 3494 005c 00010002 		.word	33554688
 3495 0060 00000842 		.word	1107820544
 3496 0064 00010040 		.word	1073742080
 3497 0068 00000000 		.word	0
 3498 006c 00000042 		.word	1107296256
 3499 0070 00010802 		.word	34078976
 3500 0074 00000002 		.word	33554432
 3501 0078 00000042 		.word	1107296256
 3502 007c 00010800 		.word	524544
 3503 0080 00000800 		.word	524288
 3504 0084 00010042 		.word	1107296512
 3505 0088 00010000 		.word	256
 3506 008c 00000002 		.word	33554432
 3507 0090 00000040 		.word	1073741824
 3508 0094 00000802 		.word	34078720
 3509 0098 00010042 		.word	1107296512
 3510 009c 00010840 		.word	1074266368
ARM GAS  C:\Users\jo\AppData\Local\Temp\ccz5wZMS.s 			page 63


 3511 00a0 00010002 		.word	33554688
 3512 00a4 00000040 		.word	1073741824
 3513 00a8 00000842 		.word	1107820544
 3514 00ac 00010802 		.word	34078976
 3515 00b0 00010840 		.word	1074266368
 3516 00b4 00010000 		.word	256
 3517 00b8 00000002 		.word	33554432
 3518 00bc 00000842 		.word	1107820544
 3519 00c0 00010842 		.word	1107820800
 3520 00c4 00010800 		.word	524544
 3521 00c8 00000042 		.word	1107296256
 3522 00cc 00010842 		.word	1107820800
 3523 00d0 00000802 		.word	34078720
 3524 00d4 00000000 		.word	0
 3525 00d8 00000840 		.word	1074266112
 3526 00dc 00000042 		.word	1107296256
 3527 00e0 00010800 		.word	524544
 3528 00e4 00010002 		.word	33554688
 3529 00e8 00010040 		.word	1073742080
 3530 00ec 00000800 		.word	524288
 3531 00f0 00000000 		.word	0
 3532 00f4 00000840 		.word	1074266112
 3533 00f8 00010802 		.word	34078976
 3534 00fc 00010040 		.word	1073742080
 3535              		.section	.rodata.SB6,"a",%progbits
 3536              		.align	2
 3537              		.set	.LANCHOR6,. + 0
 3538              		.type	SB6, %object
 3539              		.size	SB6, 256
 3540              	SB6:
 3541 0000 10000020 		.word	536870928
 3542 0004 00004020 		.word	541065216
 3543 0008 00400000 		.word	16384
 3544 000c 10404020 		.word	541081616
 3545 0010 00004020 		.word	541065216
 3546 0014 10000000 		.word	16
 3547 0018 10404020 		.word	541081616
 3548 001c 00004000 		.word	4194304
 3549 0020 00400020 		.word	536887296
 3550 0024 10404000 		.word	4210704
 3551 0028 00004000 		.word	4194304
 3552 002c 10000020 		.word	536870928
 3553 0030 10004000 		.word	4194320
 3554 0034 00400020 		.word	536887296
 3555 0038 00000020 		.word	536870912
 3556 003c 10400000 		.word	16400
 3557 0040 00000000 		.word	0
 3558 0044 10004000 		.word	4194320
 3559 0048 10400020 		.word	536887312
 3560 004c 00400000 		.word	16384
 3561 0050 00404000 		.word	4210688
 3562 0054 10400020 		.word	536887312
 3563 0058 10000000 		.word	16
 3564 005c 10004020 		.word	541065232
 3565 0060 10004020 		.word	541065232
 3566 0064 00000000 		.word	0
 3567 0068 10404000 		.word	4210704
ARM GAS  C:\Users\jo\AppData\Local\Temp\ccz5wZMS.s 			page 64


 3568 006c 00404020 		.word	541081600
 3569 0070 10400000 		.word	16400
 3570 0074 00404000 		.word	4210688
 3571 0078 00404020 		.word	541081600
 3572 007c 00000020 		.word	536870912
 3573 0080 00400020 		.word	536887296
 3574 0084 10000000 		.word	16
 3575 0088 10004020 		.word	541065232
 3576 008c 00404000 		.word	4210688
 3577 0090 10404020 		.word	541081616
 3578 0094 00004000 		.word	4194304
 3579 0098 10400000 		.word	16400
 3580 009c 10000020 		.word	536870928
 3581 00a0 00004000 		.word	4194304
 3582 00a4 00400020 		.word	536887296
 3583 00a8 00000020 		.word	536870912
 3584 00ac 10400000 		.word	16400
 3585 00b0 10000020 		.word	536870928
 3586 00b4 10404020 		.word	541081616
 3587 00b8 00404000 		.word	4210688
 3588 00bc 00004020 		.word	541065216
 3589 00c0 10404000 		.word	4210704
 3590 00c4 00404020 		.word	541081600
 3591 00c8 00000000 		.word	0
 3592 00cc 10004020 		.word	541065232
 3593 00d0 10000000 		.word	16
 3594 00d4 00400000 		.word	16384
 3595 00d8 00004020 		.word	541065216
 3596 00dc 10404000 		.word	4210704
 3597 00e0 00400000 		.word	16384
 3598 00e4 10004000 		.word	4194320
 3599 00e8 10400020 		.word	536887312
 3600 00ec 00000000 		.word	0
 3601 00f0 00404020 		.word	541081600
 3602 00f4 00000020 		.word	536870912
 3603 00f8 10004000 		.word	4194320
 3604 00fc 10400020 		.word	536887312
 3605              		.section	.rodata.odd_parity_table,"a",%progbits
 3606              		.align	2
 3607              		.set	.LANCHOR2,. + 0
 3608              		.type	odd_parity_table, %object
 3609              		.size	odd_parity_table, 128
 3610              	odd_parity_table:
 3611 0000 01       		.byte	1
 3612 0001 02       		.byte	2
 3613 0002 04       		.byte	4
 3614 0003 07       		.byte	7
 3615 0004 08       		.byte	8
 3616 0005 0B       		.byte	11
 3617 0006 0D       		.byte	13
 3618 0007 0E       		.byte	14
 3619 0008 10       		.byte	16
 3620 0009 13       		.byte	19
 3621 000a 15       		.byte	21
 3622 000b 16       		.byte	22
 3623 000c 19       		.byte	25
 3624 000d 1A       		.byte	26
ARM GAS  C:\Users\jo\AppData\Local\Temp\ccz5wZMS.s 			page 65


 3625 000e 1C       		.byte	28
 3626 000f 1F       		.byte	31
 3627 0010 20       		.byte	32
 3628 0011 23       		.byte	35
 3629 0012 25       		.byte	37
 3630 0013 26       		.byte	38
 3631 0014 29       		.byte	41
 3632 0015 2A       		.byte	42
 3633 0016 2C       		.byte	44
 3634 0017 2F       		.byte	47
 3635 0018 31       		.byte	49
 3636 0019 32       		.byte	50
 3637 001a 34       		.byte	52
 3638 001b 37       		.byte	55
 3639 001c 38       		.byte	56
 3640 001d 3B       		.byte	59
 3641 001e 3D       		.byte	61
 3642 001f 3E       		.byte	62
 3643 0020 40       		.byte	64
 3644 0021 43       		.byte	67
 3645 0022 45       		.byte	69
 3646 0023 46       		.byte	70
 3647 0024 49       		.byte	73
 3648 0025 4A       		.byte	74
 3649 0026 4C       		.byte	76
 3650 0027 4F       		.byte	79
 3651 0028 51       		.byte	81
 3652 0029 52       		.byte	82
 3653 002a 54       		.byte	84
 3654 002b 57       		.byte	87
 3655 002c 58       		.byte	88
 3656 002d 5B       		.byte	91
 3657 002e 5D       		.byte	93
 3658 002f 5E       		.byte	94
 3659 0030 61       		.byte	97
 3660 0031 62       		.byte	98
 3661 0032 64       		.byte	100
 3662 0033 67       		.byte	103
 3663 0034 68       		.byte	104
 3664 0035 6B       		.byte	107
 3665 0036 6D       		.byte	109
 3666 0037 6E       		.byte	110
 3667 0038 70       		.byte	112
 3668 0039 73       		.byte	115
 3669 003a 75       		.byte	117
 3670 003b 76       		.byte	118
 3671 003c 79       		.byte	121
 3672 003d 7A       		.byte	122
 3673 003e 7C       		.byte	124
 3674 003f 7F       		.byte	127
 3675 0040 80       		.byte	-128
 3676 0041 83       		.byte	-125
 3677 0042 85       		.byte	-123
 3678 0043 86       		.byte	-122
 3679 0044 89       		.byte	-119
 3680 0045 8A       		.byte	-118
 3681 0046 8C       		.byte	-116
ARM GAS  C:\Users\jo\AppData\Local\Temp\ccz5wZMS.s 			page 66


 3682 0047 8F       		.byte	-113
 3683 0048 91       		.byte	-111
 3684 0049 92       		.byte	-110
 3685 004a 94       		.byte	-108
 3686 004b 97       		.byte	-105
 3687 004c 98       		.byte	-104
 3688 004d 9B       		.byte	-101
 3689 004e 9D       		.byte	-99
 3690 004f 9E       		.byte	-98
 3691 0050 A1       		.byte	-95
 3692 0051 A2       		.byte	-94
 3693 0052 A4       		.byte	-92
 3694 0053 A7       		.byte	-89
 3695 0054 A8       		.byte	-88
 3696 0055 AB       		.byte	-85
 3697 0056 AD       		.byte	-83
 3698 0057 AE       		.byte	-82
 3699 0058 B0       		.byte	-80
 3700 0059 B3       		.byte	-77
 3701 005a B5       		.byte	-75
 3702 005b B6       		.byte	-74
 3703 005c B9       		.byte	-71
 3704 005d BA       		.byte	-70
 3705 005e BC       		.byte	-68
 3706 005f BF       		.byte	-65
 3707 0060 C1       		.byte	-63
 3708 0061 C2       		.byte	-62
 3709 0062 C4       		.byte	-60
 3710 0063 C7       		.byte	-57
 3711 0064 C8       		.byte	-56
 3712 0065 CB       		.byte	-53
 3713 0066 CD       		.byte	-51
 3714 0067 CE       		.byte	-50
 3715 0068 D0       		.byte	-48
 3716 0069 D3       		.byte	-45
 3717 006a D5       		.byte	-43
 3718 006b D6       		.byte	-42
 3719 006c D9       		.byte	-39
 3720 006d DA       		.byte	-38
 3721 006e DC       		.byte	-36
 3722 006f DF       		.byte	-33
 3723 0070 E0       		.byte	-32
 3724 0071 E3       		.byte	-29
 3725 0072 E5       		.byte	-27
 3726 0073 E6       		.byte	-26
 3727 0074 E9       		.byte	-23
 3728 0075 EA       		.byte	-22
 3729 0076 EC       		.byte	-20
 3730 0077 EF       		.byte	-17
 3731 0078 F1       		.byte	-15
 3732 0079 F2       		.byte	-14
 3733 007a F4       		.byte	-12
 3734 007b F7       		.byte	-9
 3735 007c F8       		.byte	-8
 3736 007d FB       		.byte	-5
 3737 007e FD       		.byte	-3
 3738 007f FE       		.byte	-2
ARM GAS  C:\Users\jo\AppData\Local\Temp\ccz5wZMS.s 			page 67


 3739              		.section	.rodata.SB7,"a",%progbits
 3740              		.align	2
 3741              		.set	.LANCHOR4,. + 0
 3742              		.type	SB7, %object
 3743              		.size	SB7, 256
 3744              	SB7:
 3745 0000 00002000 		.word	2097152
 3746 0004 02002004 		.word	69206018
 3747 0008 02080004 		.word	67110914
 3748 000c 00000000 		.word	0
 3749 0010 00080000 		.word	2048
 3750 0014 02080004 		.word	67110914
 3751 0018 02082000 		.word	2099202
 3752 001c 00082004 		.word	69208064
 3753 0020 02082004 		.word	69208066
 3754 0024 00002000 		.word	2097152
 3755 0028 00000000 		.word	0
 3756 002c 02000004 		.word	67108866
 3757 0030 02000000 		.word	2
 3758 0034 00000004 		.word	67108864
 3759 0038 02002004 		.word	69206018
 3760 003c 02080000 		.word	2050
 3761 0040 00080004 		.word	67110912
 3762 0044 02082000 		.word	2099202
 3763 0048 02002000 		.word	2097154
 3764 004c 00080004 		.word	67110912
 3765 0050 02000004 		.word	67108866
 3766 0054 00002004 		.word	69206016
 3767 0058 00082004 		.word	69208064
 3768 005c 02002000 		.word	2097154
 3769 0060 00002004 		.word	69206016
 3770 0064 00080000 		.word	2048
 3771 0068 02080000 		.word	2050
 3772 006c 02082004 		.word	69208066
 3773 0070 00082000 		.word	2099200
 3774 0074 02000000 		.word	2
 3775 0078 00000004 		.word	67108864
 3776 007c 00082000 		.word	2099200
 3777 0080 00000004 		.word	67108864
 3778 0084 00082000 		.word	2099200
 3779 0088 00002000 		.word	2097152
 3780 008c 02080004 		.word	67110914
 3781 0090 02080004 		.word	67110914
 3782 0094 02002004 		.word	69206018
 3783 0098 02002004 		.word	69206018
 3784 009c 02000000 		.word	2
 3785 00a0 02002000 		.word	2097154
 3786 00a4 00000004 		.word	67108864
 3787 00a8 00080004 		.word	67110912
 3788 00ac 00002000 		.word	2097152
 3789 00b0 00082004 		.word	69208064
 3790 00b4 02080000 		.word	2050
 3791 00b8 02082000 		.word	2099202
 3792 00bc 00082004 		.word	69208064
 3793 00c0 02080000 		.word	2050
 3794 00c4 02000004 		.word	67108866
 3795 00c8 02082004 		.word	69208066
ARM GAS  C:\Users\jo\AppData\Local\Temp\ccz5wZMS.s 			page 68


 3796 00cc 00002004 		.word	69206016
 3797 00d0 00082000 		.word	2099200
 3798 00d4 00000000 		.word	0
 3799 00d8 02000000 		.word	2
 3800 00dc 02082004 		.word	69208066
 3801 00e0 00000000 		.word	0
 3802 00e4 02082000 		.word	2099202
 3803 00e8 00002004 		.word	69206016
 3804 00ec 00080000 		.word	2048
 3805 00f0 02000004 		.word	67108866
 3806 00f4 00080004 		.word	67110912
 3807 00f8 00080000 		.word	2048
 3808 00fc 02002000 		.word	2097154
 3809              		.section	.rodata.RHs,"a",%progbits
 3810              		.align	2
 3811              		.set	.LANCHOR1,. + 0
 3812              		.type	RHs, %object
 3813              		.size	RHs, 64
 3814              	RHs:
 3815 0000 00000000 		.word	0
 3816 0004 00000001 		.word	16777216
 3817 0008 00000100 		.word	65536
 3818 000c 00000101 		.word	16842752
 3819 0010 00010000 		.word	256
 3820 0014 00010001 		.word	16777472
 3821 0018 00010100 		.word	65792
 3822 001c 00010101 		.word	16843008
 3823 0020 01000000 		.word	1
 3824 0024 01000001 		.word	16777217
 3825 0028 01000100 		.word	65537
 3826 002c 01000101 		.word	16842753
 3827 0030 01010000 		.word	257
 3828 0034 01010001 		.word	16777473
 3829 0038 01010100 		.word	65793
 3830 003c 01010101 		.word	16843009
 3831              		.section	.rodata.str1.4,"aMS",%progbits,1
 3832              		.align	2
 3833              	.LC0:
 3834 0000 64656300 		.ascii	"dec\000"
 3835              	.LC1:
 3836 0004 656E6300 		.ascii	"enc\000"
 3837              	.LC2:
 3838 0008 20204445 		.ascii	"  DES%c-ECB-%3d (%s): \000"
 3838      5325632D 
 3838      4543422D 
 3838      25336420 
 3838      28257329 
 3839 001f 00       		.space	1
 3840              	.LC3:
 3841 0020 6661696C 		.ascii	"failed\000"
 3841      656400
 3842 0027 00       		.space	1
 3843              	.LC4:
 3844 0028 70617373 		.ascii	"passed\000"
 3844      656400
 3845 002f 00       		.space	1
 3846              	.LC5:
ARM GAS  C:\Users\jo\AppData\Local\Temp\ccz5wZMS.s 			page 69


 3847 0030 20204445 		.ascii	"  DES%c-CBC-%3d (%s): \000"
 3847      5325632D 
 3847      4342432D 
 3847      25336420 
 3847      28257329 
 3848 0047 00       		.section	.rodata.SB8,"a",%progbits
 3849              		.align	2
 3850              		.set	.LANCHOR5,. + 0
 3851              		.type	SB8, %object
 3852              		.size	SB8, 256
 3853              	SB8:
 3854 0000 40100010 		.word	268439616
 3855 0004 00100000 		.word	4096
 3856 0008 00000400 		.word	262144
 3857 000c 40100410 		.word	268701760
 3858 0010 00000010 		.word	268435456
 3859 0014 40100010 		.word	268439616
 3860 0018 40000000 		.word	64
 3861 001c 00000010 		.word	268435456
 3862 0020 40000400 		.word	262208
 3863 0024 00000410 		.word	268697600
 3864 0028 40100410 		.word	268701760
 3865 002c 00100400 		.word	266240
 3866 0030 00100410 		.word	268701696
 3867 0034 40100400 		.word	266304
 3868 0038 00100000 		.word	4096
 3869 003c 40000000 		.word	64
 3870 0040 00000410 		.word	268697600
 3871 0044 40000010 		.word	268435520
 3872 0048 00100010 		.word	268439552
 3873 004c 40100000 		.word	4160
 3874 0050 00100400 		.word	266240
 3875 0054 40000400 		.word	262208
 3876 0058 40000410 		.word	268697664
 3877 005c 00100410 		.word	268701696
 3878 0060 40100000 		.word	4160
 3879 0064 00000000 		.word	0
 3880 0068 00000000 		.word	0
 3881 006c 40000410 		.word	268697664
 3882 0070 40000010 		.word	268435520
 3883 0074 00100010 		.word	268439552
 3884 0078 40100400 		.word	266304
 3885 007c 00000400 		.word	262144
 3886 0080 40100400 		.word	266304
 3887 0084 00000400 		.word	262144
 3888 0088 00100410 		.word	268701696
 3889 008c 00100000 		.word	4096
 3890 0090 40000000 		.word	64
 3891 0094 40000410 		.word	268697664
 3892 0098 00100000 		.word	4096
 3893 009c 40100400 		.word	266304
 3894 00a0 00100010 		.word	268439552
 3895 00a4 40000000 		.word	64
 3896 00a8 40000010 		.word	268435520
 3897 00ac 00000410 		.word	268697600
 3898 00b0 40000410 		.word	268697664
 3899 00b4 00000010 		.word	268435456
ARM GAS  C:\Users\jo\AppData\Local\Temp\ccz5wZMS.s 			page 70


 3900 00b8 00000400 		.word	262144
 3901 00bc 40100010 		.word	268439616
 3902 00c0 00000000 		.word	0
 3903 00c4 40100410 		.word	268701760
 3904 00c8 40000400 		.word	262208
 3905 00cc 40000010 		.word	268435520
 3906 00d0 00000410 		.word	268697600
 3907 00d4 00100010 		.word	268439552
 3908 00d8 40100010 		.word	268439616
 3909 00dc 00000000 		.word	0
 3910 00e0 40100410 		.word	268701760
 3911 00e4 00100400 		.word	266240
 3912 00e8 00100400 		.word	266240
 3913 00ec 40100000 		.word	4160
 3914 00f0 40100000 		.word	4160
 3915 00f4 40000400 		.word	262208
 3916 00f8 00000010 		.word	268435456
 3917 00fc 00100410 		.word	268701696
 3918              		.section	.rodata.des3_test_cbc_enc,"a",%progbits
 3919              		.align	2
 3920              		.set	.LANCHOR17,. + 0
 3921              		.type	des3_test_cbc_enc, %object
 3922              		.size	des3_test_cbc_enc, 24
 3923              	des3_test_cbc_enc:
 3924 0000 54       		.byte	84
 3925 0001 F1       		.byte	-15
 3926 0002 5A       		.byte	90
 3927 0003 F6       		.byte	-10
 3928 0004 EB       		.byte	-21
 3929 0005 E3       		.byte	-29
 3930 0006 A4       		.byte	-92
 3931 0007 B4       		.byte	-76
 3932 0008 35       		.byte	53
 3933 0009 76       		.byte	118
 3934 000a 11       		.byte	17
 3935 000b 56       		.byte	86
 3936 000c 5F       		.byte	95
 3937 000d A1       		.byte	-95
 3938 000e 8E       		.byte	-114
 3939 000f 4D       		.byte	77
 3940 0010 CB       		.byte	-53
 3941 0011 19       		.byte	25
 3942 0012 1F       		.byte	31
 3943 0013 85       		.byte	-123
 3944 0014 D1       		.byte	-47
 3945 0015 ED       		.byte	-19
 3946 0016 84       		.byte	-124
 3947 0017 39       		.byte	57
 3948              		.section	.rodata.LHs,"a",%progbits
 3949              		.align	2
 3950              		.set	.LANCHOR0,. + 0
 3951              		.type	LHs, %object
 3952              		.size	LHs, 64
 3953              	LHs:
 3954 0000 00000000 		.word	0
 3955 0004 01000000 		.word	1
 3956 0008 00010000 		.word	256
ARM GAS  C:\Users\jo\AppData\Local\Temp\ccz5wZMS.s 			page 71


 3957 000c 01010000 		.word	257
 3958 0010 00000100 		.word	65536
 3959 0014 01000100 		.word	65537
 3960 0018 00010100 		.word	65792
 3961 001c 01010100 		.word	65793
 3962 0020 00000001 		.word	16777216
 3963 0024 01000001 		.word	16777217
 3964 0028 00010001 		.word	16777472
 3965 002c 01010001 		.word	16777473
 3966 0030 00000101 		.word	16842752
 3967 0034 01000101 		.word	16842753
 3968 0038 00010101 		.word	16843008
 3969 003c 01010101 		.word	16843009
 3970              		.section	.rodata.des3_test_cbc_dec,"a",%progbits
 3971              		.align	2
 3972              		.set	.LANCHOR18,. + 0
 3973              		.type	des3_test_cbc_dec, %object
 3974              		.size	des3_test_cbc_dec, 24
 3975              	des3_test_cbc_dec:
 3976 0000 12       		.byte	18
 3977 0001 9F       		.byte	-97
 3978 0002 40       		.byte	64
 3979 0003 B9       		.byte	-71
 3980 0004 D2       		.byte	-46
 3981 0005 00       		.byte	0
 3982 0006 56       		.byte	86
 3983 0007 B3       		.byte	-77
 3984 0008 47       		.byte	71
 3985 0009 0E       		.byte	14
 3986 000a FC       		.byte	-4
 3987 000b 9A       		.byte	-102
 3988 000c 6B       		.byte	107
 3989 000d 8E       		.byte	-114
 3990 000e E3       		.byte	-29
 3991 000f 93       		.byte	-109
 3992 0010 C5       		.byte	-59
 3993 0011 CE       		.byte	-50
 3994 0012 CF       		.byte	-49
 3995 0013 63       		.byte	99
 3996 0014 EC       		.byte	-20
 3997 0015 EC       		.byte	-20
 3998 0016 51       		.byte	81
 3999 0017 4C       		.byte	76
 4000              		.text
 4001              	.Letext0:
 4002              		.file 2 "c:\\program files\\gnu tools arm embedded\\4.9 2014q4\\lib\\gcc\\arm-none-eabi\\4.9.3\\in
 4003              		.file 3 "c:\\program files\\gnu tools arm embedded\\4.9 2014q4\\arm-none-eabi\\include\\machine\\_
 4004              		.file 4 "c:\\program files\\gnu tools arm embedded\\4.9 2014q4\\arm-none-eabi\\include\\stdint.h"
 4005              		.file 5 "../../../ext/mbedtls-1.3.11/library/../include/polarssl/des.h"
 4006              		.file 6 "c:\\program files\\gnu tools arm embedded\\4.9 2014q4\\arm-none-eabi\\include\\string.h"
 4007              		.file 7 "c:\\program files\\gnu tools arm embedded\\4.9 2014q4\\arm-none-eabi\\include\\stdio.h"
 4008              		.file 8 "<built-in>"