ARM GAS  C:\Users\jo\AppData\Local\Temp\cc5OnyVz.s 			page 1


   1              		.syntax unified
   2              		.cpu cortex-m4
   3              		.fpu softvfp
   4              		.eabi_attribute 20, 1
   5              		.eabi_attribute 21, 1
   6              		.eabi_attribute 23, 3
   7              		.eabi_attribute 24, 1
   8              		.eabi_attribute 25, 1
   9              		.eabi_attribute 26, 1
  10              		.eabi_attribute 30, 2
  11              		.eabi_attribute 34, 1
  12              		.eabi_attribute 18, 4
  13              		.thumb
  14              		.file	"dhm.c"
  15              		.text
  16              	.Ltext0:
  17              		.cfi_sections	.debug_frame
  18              		.section	.text.dhm_read_bignum,"ax",%progbits
  19              		.align	2
  20              		.p2align 4,,15
  21              		.thumb
  22              		.thumb_func
  23              		.type	dhm_read_bignum, %function
  24              	dhm_read_bignum:
  25              	.LFB1:
  26              		.file 1 "../../../ext/mbedtls-1.3.11/library/dhm.c"
  27              		.loc 1 69 0
  28              		.cfi_startproc
  29              		@ args = 0, pretend = 0, frame = 0
  30              		@ frame_needed = 0, uses_anonymous_args = 0
  31              	.LVL0:
  32 0000 38B5     		push	{r3, r4, r5, lr}
  33              		.cfi_def_cfa_offset 16
  34              		.cfi_offset 3, -16
  35              		.cfi_offset 4, -12
  36              		.cfi_offset 5, -8
  37              		.cfi_offset 14, -4
  38              		.loc 1 72 0
  39 0002 0B68     		ldr	r3, [r1]
  40 0004 D41A     		subs	r4, r2, r3
  41 0006 012C     		cmp	r4, #1
  42 0008 15DD     		ble	.L4
  43              		.loc 1 75 0
  44 000a 1D78     		ldrb	r5, [r3]	@ zero_extendqisi2
  45 000c 5C78     		ldrb	r4, [r3, #1]	@ zero_extendqisi2
  46              		.loc 1 76 0
  47 000e 0233     		adds	r3, r3, #2
  48              		.loc 1 75 0
  49 0010 44EA0524 		orr	r4, r4, r5, lsl #8
  50              	.LVL1:
  51              		.loc 1 78 0
  52 0014 D21A     		subs	r2, r2, r3
  53              	.LVL2:
  54 0016 9442     		cmp	r4, r2
  55              		.loc 1 76 0
  56 0018 0B60     		str	r3, [r1]
  57              		.loc 1 78 0
ARM GAS  C:\Users\jo\AppData\Local\Temp\cc5OnyVz.s 			page 2


  58 001a 0CDC     		bgt	.L4
  59 001c 0D46     		mov	r5, r1
  60              		.loc 1 81 0
  61 001e 2246     		mov	r2, r4
  62 0020 1946     		mov	r1, r3
  63              	.LVL3:
  64 0022 FFF7FEFF 		bl	mpi_read_binary
  65              	.LVL4:
  66 0026 18B9     		cbnz	r0, .L8
  67              		.loc 1 84 0
  68 0028 2B68     		ldr	r3, [r5]
  69 002a 1C44     		add	r4, r4, r3
  70              	.LVL5:
  71 002c 2C60     		str	r4, [r5]
  72              		.loc 1 87 0
  73 002e 38BD     		pop	{r3, r4, r5, pc}
  74              	.LVL6:
  75              	.L8:
  76              		.loc 1 82 0
  77 0030 A0F54450 		sub	r0, r0, #12544
  78              	.LVL7:
  79 0034 38BD     		pop	{r3, r4, r5, pc}
  80              	.LVL8:
  81              	.L4:
  82              		.loc 1 73 0
  83 0036 0148     		ldr	r0, .L9
  84              	.LVL9:
  85 0038 38BD     		pop	{r3, r4, r5, pc}
  86              	.L10:
  87 003a 00BF     		.align	2
  88              	.L9:
  89 003c 80CFFFFF 		.word	-12416
  90              		.cfi_endproc
  91              	.LFE1:
  92              		.size	dhm_read_bignum, .-dhm_read_bignum
  93              		.section	.text.dhm_check_range,"ax",%progbits
  94              		.align	2
  95              		.p2align 4,,15
  96              		.thumb
  97              		.thumb_func
  98              		.type	dhm_check_range, %function
  99              	dhm_check_range:
 100              	.LFB2:
 101              		.loc 1 99 0
 102              		.cfi_startproc
 103              		@ args = 0, pretend = 0, frame = 24
 104              		@ frame_needed = 0, uses_anonymous_args = 0
 105              	.LVL10:
 106 0000 70B5     		push	{r4, r5, r6, lr}
 107              		.cfi_def_cfa_offset 16
 108              		.cfi_offset 4, -16
 109              		.cfi_offset 5, -12
 110              		.cfi_offset 6, -8
 111              		.cfi_offset 14, -4
 112 0002 86B0     		sub	sp, sp, #24
 113              		.cfi_def_cfa_offset 40
 114              		.loc 1 99 0
ARM GAS  C:\Users\jo\AppData\Local\Temp\cc5OnyVz.s 			page 3


 115 0004 0646     		mov	r6, r0
 116              		.loc 1 103 0
 117 0006 6846     		mov	r0, sp
 118              	.LVL11:
 119              		.loc 1 99 0
 120 0008 0D46     		mov	r5, r1
 121              		.loc 1 103 0
 122 000a FFF7FEFF 		bl	mpi_init
 123              	.LVL12:
 124 000e 03A8     		add	r0, sp, #12
 125 0010 FFF7FEFF 		bl	mpi_init
 126              	.LVL13:
 127              		.loc 1 105 0
 128 0014 6846     		mov	r0, sp
 129 0016 0221     		movs	r1, #2
 130 0018 FFF7FEFF 		bl	mpi_lset
 131              	.LVL14:
 132 001c 0446     		mov	r4, r0
 133 001e 40B1     		cbz	r0, .L14
 134              	.LVL15:
 135              	.L12:
 136              		.loc 1 115 0
 137 0020 6846     		mov	r0, sp
 138 0022 FFF7FEFF 		bl	mpi_free
 139              	.LVL16:
 140 0026 03A8     		add	r0, sp, #12
 141 0028 FFF7FEFF 		bl	mpi_free
 142              	.LVL17:
 143              		.loc 1 117 0
 144 002c 2046     		mov	r0, r4
 145 002e 06B0     		add	sp, sp, #24
 146              		.cfi_remember_state
 147              		.cfi_def_cfa_offset 16
 148              		@ sp needed
 149 0030 70BD     		pop	{r4, r5, r6, pc}
 150              	.LVL18:
 151              	.L14:
 152              		.cfi_restore_state
 153              		.loc 1 106 0
 154 0032 2946     		mov	r1, r5
 155 0034 03A8     		add	r0, sp, #12
 156              	.LVL19:
 157 0036 0222     		movs	r2, #2
 158 0038 FFF7FEFF 		bl	mpi_sub_int
 159              	.LVL20:
 160 003c 0446     		mov	r4, r0
 161 003e 0028     		cmp	r0, #0
 162 0040 EED1     		bne	.L12
 163              		.loc 1 108 0
 164 0042 3046     		mov	r0, r6
 165              	.LVL21:
 166 0044 6946     		mov	r1, sp
 167 0046 FFF7FEFF 		bl	mpi_cmp_mpi
 168              	.LVL22:
 169 004a 0028     		cmp	r0, #0
 170 004c E8DB     		blt	.L12
 171              		.loc 1 109 0 discriminator 1
ARM GAS  C:\Users\jo\AppData\Local\Temp\cc5OnyVz.s 			page 4


 172 004e 3046     		mov	r0, r6
 173 0050 03A9     		add	r1, sp, #12
 174 0052 FFF7FEFF 		bl	mpi_cmp_mpi
 175              	.LVL23:
 176 0056 E3E7     		b	.L12
 177              		.cfi_endproc
 178              	.LFE2:
 179              		.size	dhm_check_range, .-dhm_check_range
 180 0058 AFF30080 		.section	.text.dhm_init,"ax",%progbits
 180      AFF30080 
 181              		.align	2
 182              		.p2align 4,,15
 183              		.global	dhm_init
 184              		.thumb
 185              		.thumb_func
 186              		.type	dhm_init, %function
 187              	dhm_init:
 188              	.LFB3:
 189              		.loc 1 120 0
 190              		.cfi_startproc
 191              		@ args = 0, pretend = 0, frame = 0
 192              		@ frame_needed = 0, uses_anonymous_args = 0
 193              		@ link register save eliminated.
 194              	.LVL24:
 195              		.loc 1 121 0
 196 0000 0021     		movs	r1, #0
 197 0002 7C22     		movs	r2, #124
 198 0004 FFF7FEBF 		b	memset
 199              	.LVL25:
 200              		.cfi_endproc
 201              	.LFE3:
 202              		.size	dhm_init, .-dhm_init
 203 0008 AFF30080 		.section	.text.dhm_read_params,"ax",%progbits
 203      AFF30080 
 204              		.align	2
 205              		.p2align 4,,15
 206              		.global	dhm_read_params
 207              		.thumb
 208              		.thumb_func
 209              		.type	dhm_read_params, %function
 210              	dhm_read_params:
 211              	.LFB4:
 212              		.loc 1 130 0
 213              		.cfi_startproc
 214              		@ args = 0, pretend = 0, frame = 0
 215              		@ frame_needed = 0, uses_anonymous_args = 0
 216              	.LVL26:
 217 0000 2DE9F041 		push	{r4, r5, r6, r7, r8, lr}
 218              		.cfi_def_cfa_offset 24
 219              		.cfi_offset 4, -24
 220              		.cfi_offset 5, -20
 221              		.cfi_offset 6, -16
 222              		.cfi_offset 7, -12
 223              		.cfi_offset 8, -8
 224              		.cfi_offset 14, -4
 225              		.loc 1 133 0
 226 0004 061D     		adds	r6, r0, #4
ARM GAS  C:\Users\jo\AppData\Local\Temp\cc5OnyVz.s 			page 5


 227              		.loc 1 130 0
 228 0006 0546     		mov	r5, r0
 229              		.loc 1 133 0
 230 0008 3046     		mov	r0, r6
 231              	.LVL27:
 232              		.loc 1 130 0
 233 000a 0F46     		mov	r7, r1
 234 000c 1446     		mov	r4, r2
 235              		.loc 1 133 0
 236 000e FFF7FEFF 		bl	dhm_read_bignum
 237              	.LVL28:
 238 0012 18B1     		cbz	r0, .L23
 239              	.L20:
 240 0014 0346     		mov	r3, r0
 241              	.LVL29:
 242              	.L17:
 243              		.loc 1 144 0
 244 0016 1846     		mov	r0, r3
 245 0018 BDE8F081 		pop	{r4, r5, r6, r7, r8, pc}
 246              	.LVL30:
 247              	.L23:
 248              		.loc 1 133 0 discriminator 1
 249 001c 05F11000 		add	r0, r5, #16
 250              	.LVL31:
 251 0020 3946     		mov	r1, r7
 252 0022 2246     		mov	r2, r4
 253 0024 FFF7FEFF 		bl	dhm_read_bignum
 254              	.LVL32:
 255 0028 0028     		cmp	r0, #0
 256 002a F3D1     		bne	.L20
 257              		.loc 1 135 0
 258 002c 05F13408 		add	r8, r5, #52
 259              		.loc 1 134 0
 260 0030 3946     		mov	r1, r7
 261 0032 2246     		mov	r2, r4
 262 0034 4046     		mov	r0, r8
 263              	.LVL33:
 264 0036 FFF7FEFF 		bl	dhm_read_bignum
 265              	.LVL34:
 266 003a 0028     		cmp	r0, #0
 267 003c EAD1     		bne	.L20
 268              		.loc 1 138 0
 269 003e 4046     		mov	r0, r8
 270              	.LVL35:
 271 0040 3146     		mov	r1, r6
 272 0042 FFF7FEFF 		bl	dhm_check_range
 273              	.LVL36:
 274 0046 0446     		mov	r4, r0
 275              	.LVL37:
 276 0048 08B1     		cbz	r0, .L24
 277 004a 0346     		mov	r3, r0
 278 004c E3E7     		b	.L17
 279              	.L24:
 280              		.loc 1 141 0
 281 004e 3046     		mov	r0, r6
 282              	.LVL38:
 283 0050 FFF7FEFF 		bl	mpi_size
ARM GAS  C:\Users\jo\AppData\Local\Temp\cc5OnyVz.s 			page 6


 284              	.LVL39:
 285              		.loc 1 143 0
 286 0054 2346     		mov	r3, r4
 287              		.loc 1 141 0
 288 0056 2860     		str	r0, [r5]
 289              		.loc 1 143 0
 290 0058 DDE7     		b	.L17
 291              		.cfi_endproc
 292              	.LFE4:
 293              		.size	dhm_read_params, .-dhm_read_params
 294 005a 00BFAFF3 		.section	.text.dhm_make_params,"ax",%progbits
 294      0080
 295              		.align	2
 296              		.p2align 4,,15
 297              		.global	dhm_make_params
 298              		.thumb
 299              		.thumb_func
 300              		.type	dhm_make_params, %function
 301              	dhm_make_params:
 302              	.LFB5:
 303              		.loc 1 153 0
 304              		.cfi_startproc
 305              		@ args = 8, pretend = 0, frame = 24
 306              		@ frame_needed = 0, uses_anonymous_args = 0
 307              	.LVL40:
 308 0000 2DE9F04F 		push	{r4, r5, r6, r7, r8, r9, r10, fp, lr}
 309              		.cfi_def_cfa_offset 36
 310              		.cfi_offset 4, -36
 311              		.cfi_offset 5, -32
 312              		.cfi_offset 6, -28
 313              		.cfi_offset 7, -24
 314              		.cfi_offset 8, -20
 315              		.cfi_offset 9, -16
 316              		.cfi_offset 10, -12
 317              		.cfi_offset 11, -8
 318              		.cfi_offset 14, -4
 319              		.loc 1 158 0
 320 0004 041D     		adds	r4, r0, #4
 321              		.loc 1 153 0
 322 0006 89B0     		sub	sp, sp, #36
 323              		.cfi_def_cfa_offset 72
 324              		.loc 1 153 0
 325 0008 0546     		mov	r5, r0
 326 000a 8A46     		mov	r10, r1
 327              		.loc 1 158 0
 328 000c 2046     		mov	r0, r4
 329              	.LVL41:
 330 000e 0021     		movs	r1, #0
 331              	.LVL42:
 332              		.loc 1 153 0
 333 0010 1646     		mov	r6, r2
 334 0012 1F46     		mov	r7, r3
 335              		.loc 1 158 0
 336 0014 FFF7FEFF 		bl	mpi_cmp_int
 337              	.LVL43:
 338 0018 0028     		cmp	r0, #0
 339 001a 3ED0     		beq	.L31
ARM GAS  C:\Users\jo\AppData\Local\Temp\cc5OnyVz.s 			page 7


 340 001c 05F11C08 		add	r8, r5, #28
 341 0020 4FF00C09 		mov	r9, #12
 342              	.LVL44:
 343              	.L30:
 344              		.loc 1 166 0
 345 0024 4046     		mov	r0, r8
 346 0026 5146     		mov	r1, r10
 347 0028 129A     		ldr	r2, [sp, #72]
 348 002a 139B     		ldr	r3, [sp, #76]
 349 002c FFF7FEFF 		bl	mpi_fill_random
 350              	.LVL45:
 351              		.loc 1 168 0
 352 0030 02E0     		b	.L27
 353              	.L29:
 354              		.loc 1 169 0
 355 0032 FFF7FEFF 		bl	mpi_shift_r
 356              	.LVL46:
 357 0036 38BB     		cbnz	r0, .L28
 358              	.LVL47:
 359              	.L27:
 360              		.loc 1 168 0
 361 0038 2146     		mov	r1, r4
 362 003a 4046     		mov	r0, r8
 363 003c FFF7FEFF 		bl	mpi_cmp_mpi
 364              	.LVL48:
 365 0040 0028     		cmp	r0, #0
 366              		.loc 1 169 0
 367 0042 4FF00101 		mov	r1, #1
 368 0046 4046     		mov	r0, r8
 369              		.loc 1 168 0
 370 0048 F3DA     		bge	.L29
 371              	.LVL49:
 372              		.loc 1 171 0
 373 004a B9F10109 		subs	r9, r9, #1
 374              	.LVL50:
 375 004e 21D0     		beq	.L32
 376              		.loc 1 174 0
 377 0050 2146     		mov	r1, r4
 378 0052 FFF7FEFF 		bl	dhm_check_range
 379              	.LVL51:
 380 0056 0028     		cmp	r0, #0
 381 0058 E4D1     		bne	.L30
 382              		.loc 1 179 0
 383 005a 05F11003 		add	r3, r5, #16
 384 005e 05F1280A 		add	r10, r5, #40
 385              	.LVL52:
 386 0062 1946     		mov	r1, r3
 387 0064 0493     		str	r3, [sp, #16]
 388 0066 05F14C03 		add	r3, r5, #76
 389 006a 8346     		mov	fp, r0
 390 006c 0093     		str	r3, [sp]
 391 006e 4246     		mov	r2, r8
 392 0070 5046     		mov	r0, r10
 393 0072 2346     		mov	r3, r4
 394 0074 FFF7FEFF 		bl	mpi_exp_mod
 395              	.LVL53:
 396 0078 30B9     		cbnz	r0, .L28
ARM GAS  C:\Users\jo\AppData\Local\Temp\cc5OnyVz.s 			page 8


 397              		.loc 1 182 0
 398 007a 5046     		mov	r0, r10
 399              	.LVL54:
 400 007c 2146     		mov	r1, r4
 401 007e FFF7FEFF 		bl	dhm_check_range
 402              	.LVL55:
 403 0082 68B1     		cbz	r0, .L38
 404 0084 8346     		mov	fp, r0
 405 0086 01E0     		b	.L35
 406              	.LVL56:
 407              	.L28:
 408              		.loc 1 209 0
 409 0088 A0F5465B 		sub	fp, r0, #12672
 410              	.LVL57:
 411              	.L35:
 412              		.loc 1 212 0
 413 008c 5846     		mov	r0, fp
 414 008e 09B0     		add	sp, sp, #36
 415              		.cfi_remember_state
 416              		.cfi_def_cfa_offset 36
 417              		@ sp needed
 418 0090 BDE8F08F 		pop	{r4, r5, r6, r7, r8, r9, r10, fp, pc}
 419              	.LVL58:
 420              	.L32:
 421              		.cfi_restore_state
 422              		.loc 1 172 0
 423 0094 DFF89CB0 		ldr	fp, .L39
 424 0098 F8E7     		b	.L35
 425              	.LVL59:
 426              	.L31:
 427              		.loc 1 159 0
 428 009a DFF89CB0 		ldr	fp, .L39+4
 429 009e F5E7     		b	.L35
 430              	.LVL60:
 431              	.L38:
 432              		.loc 1 193 0
 433 00a0 2046     		mov	r0, r4
 434              	.LVL61:
 435 00a2 FFF7FEFF 		bl	mpi_size
 436              	.LVL62:
 437 00a6 8046     		mov	r8, r0
 438              	.LVL63:
 439              		.loc 1 194 0
 440 00a8 0498     		ldr	r0, [sp, #16]
 441              	.LVL64:
 442 00aa FFF7FEFF 		bl	mpi_size
 443              	.LVL65:
 444              		.loc 1 198 0
 445 00ae B31C     		adds	r3, r6, #2
 446              		.loc 1 194 0
 447 00b0 8146     		mov	r9, r0
 448              	.LVL66:
 449              		.loc 1 195 0
 450 00b2 5046     		mov	r0, r10
 451              	.LVL67:
 452              		.loc 1 198 0
 453 00b4 0393     		str	r3, [sp, #12]
ARM GAS  C:\Users\jo\AppData\Local\Temp\cc5OnyVz.s 			page 9


 454              		.loc 1 195 0
 455 00b6 FFF7FEFF 		bl	mpi_size
 456              	.LVL68:
 457              		.loc 1 198 0
 458 00ba 4246     		mov	r2, r8
 459              		.loc 1 195 0
 460 00bc 0590     		str	r0, [sp, #20]
 461              	.LVL69:
 462              		.loc 1 198 0
 463 00be 0399     		ldr	r1, [sp, #12]
 464 00c0 2046     		mov	r0, r4
 465              	.LVL70:
 466 00c2 FFF7FEFF 		bl	mpi_write_binary
 467              	.LVL71:
 468 00c6 0028     		cmp	r0, #0
 469 00c8 DED1     		bne	.L28
 470              	.LVL72:
 471              		.loc 1 198 0 is_stmt 0 discriminator 1
 472 00ca 039B     		ldr	r3, [sp, #12]
 473 00cc 86F80180 		strb	r8, [r6, #1]
 474 00d0 4344     		add	r3, r3, r8
 475 00d2 4FEA1822 		lsr	r2, r8, #8
 476              		.loc 1 199 0 is_stmt 1 discriminator 1
 477 00d6 9C1C     		adds	r4, r3, #2
 478              		.loc 1 198 0 discriminator 1
 479 00d8 3270     		strb	r2, [r6]
 480              	.LVL73:
 481              		.loc 1 199 0 discriminator 1
 482 00da 0498     		ldr	r0, [sp, #16]
 483              	.LVL74:
 484              		.loc 1 198 0 discriminator 1
 485 00dc 0693     		str	r3, [sp, #24]
 486              	.LVL75:
 487              		.loc 1 199 0 discriminator 1
 488 00de 2146     		mov	r1, r4
 489 00e0 4A46     		mov	r2, r9
 490 00e2 FFF7FEFF 		bl	mpi_write_binary
 491              	.LVL76:
 492 00e6 0028     		cmp	r0, #0
 493 00e8 CED1     		bne	.L28
 494              	.LVL77:
 495 00ea 04EB0903 		add	r3, r4, r9
 496              		.loc 1 200 0 discriminator 1
 497 00ee 03F1020C 		add	ip, r3, #2
 498 00f2 0793     		str	r3, [sp, #28]
 499              		.loc 1 199 0 discriminator 1
 500 00f4 039B     		ldr	r3, [sp, #12]
 501              		.loc 1 200 0 discriminator 1
 502 00f6 CDF810C0 		str	ip, [sp, #16]
 503              		.loc 1 199 0 discriminator 1
 504 00fa 4FEA1922 		lsr	r2, r9, #8
 505 00fe 03F80820 		strb	r2, [r3, r8]
 506              	.LVL78:
 507 0102 069B     		ldr	r3, [sp, #24]
 508              		.loc 1 200 0 discriminator 1
 509 0104 059A     		ldr	r2, [sp, #20]
 510              		.loc 1 199 0 discriminator 1
ARM GAS  C:\Users\jo\AppData\Local\Temp\cc5OnyVz.s 			page 10


 511 0106 83F80190 		strb	r9, [r3, #1]
 512              		.loc 1 200 0 discriminator 1
 513 010a 6146     		mov	r1, ip
 514 010c 5046     		mov	r0, r10
 515              	.LVL79:
 516 010e FFF7FEFF 		bl	mpi_write_binary
 517              	.LVL80:
 518 0112 DDF810C0 		ldr	ip, [sp, #16]
 519 0116 079B     		ldr	r3, [sp, #28]
 520 0118 0028     		cmp	r0, #0
 521 011a B5D1     		bne	.L28
 522              	.LVL81:
 523 011c 0599     		ldr	r1, [sp, #20]
 524 011e 0CEB0102 		add	r2, ip, r1
 525              		.loc 1 202 0 discriminator 1
 526 0122 961B     		subs	r6, r2, r6
 527              	.LVL82:
 528              		.loc 1 200 0 discriminator 1
 529 0124 0A0A     		lsrs	r2, r1, #8
 530 0126 04F80920 		strb	r2, [r4, r9]
 531              	.LVL83:
 532 012a 5970     		strb	r1, [r3, #1]
 533              	.LVL84:
 534              		.loc 1 202 0 discriminator 1
 535 012c 3E60     		str	r6, [r7]
 536              		.loc 1 204 0 discriminator 1
 537 012e C5F80080 		str	r8, [r5]
 538              	.LVL85:
 539 0132 ABE7     		b	.L35
 540              	.L40:
 541              		.align	2
 542              	.L39:
 543 0134 80CEFFFF 		.word	-12672
 544 0138 80CFFFFF 		.word	-12416
 545              		.cfi_endproc
 546              	.LFE5:
 547              		.size	dhm_make_params, .-dhm_make_params
 548 013c AFF30080 		.section	.text.dhm_read_public,"ax",%progbits
 549              		.align	2
 550              		.p2align 4,,15
 551              		.global	dhm_read_public
 552              		.thumb
 553              		.thumb_func
 554              		.type	dhm_read_public, %function
 555              	dhm_read_public:
 556              	.LFB6:
 557              		.loc 1 219 0
 558              		.cfi_startproc
 559              		@ args = 0, pretend = 0, frame = 0
 560              		@ frame_needed = 0, uses_anonymous_args = 0
 561              	.LVL86:
 562              		.loc 1 222 0
 563 0000 68B1     		cbz	r0, .L44
 564              		.loc 1 222 0 is_stmt 0 discriminator 1
 565 0002 62B1     		cbz	r2, .L44
 566              		.loc 1 219 0 is_stmt 1 discriminator 2
 567 0004 10B5     		push	{r4, lr}
ARM GAS  C:\Users\jo\AppData\Local\Temp\cc5OnyVz.s 			page 11


 568              		.cfi_def_cfa_offset 8
 569              		.cfi_offset 4, -8
 570              		.cfi_offset 14, -4
 571              		.loc 1 222 0 discriminator 2
 572 0006 0468     		ldr	r4, [r0]
 573 0008 A242     		cmp	r2, r4
 574 000a 06D8     		bhi	.L45
 575              		.loc 1 225 0
 576 000c 3430     		adds	r0, r0, #52
 577              	.LVL87:
 578 000e FFF7FEFF 		bl	mpi_read_binary
 579              	.LVL88:
 580 0012 18B1     		cbz	r0, .L42
 581              		.loc 1 226 0
 582 0014 A0F54850 		sub	r0, r0, #12800
 583              	.LVL89:
 584 0018 10BD     		pop	{r4, pc}
 585              	.LVL90:
 586              	.L45:
 587              		.loc 1 223 0
 588 001a 0248     		ldr	r0, .L49
 589              	.LVL91:
 590              	.L42:
 591              		.loc 1 229 0
 592 001c 10BD     		pop	{r4, pc}
 593              	.LVL92:
 594              	.L44:
 595              		.cfi_def_cfa_offset 0
 596              		.cfi_restore 4
 597              		.cfi_restore 14
 598              		.loc 1 223 0
 599 001e 0148     		ldr	r0, .L49
 600              	.LVL93:
 601 0020 7047     		bx	lr
 602              	.L50:
 603 0022 00BF     		.align	2
 604              	.L49:
 605 0024 80CFFFFF 		.word	-12416
 606              		.cfi_endproc
 607              	.LFE6:
 608              		.size	dhm_read_public, .-dhm_read_public
 609 0028 AFF30080 		.section	.text.dhm_make_public,"ax",%progbits
 609      AFF30080 
 610              		.align	2
 611              		.p2align 4,,15
 612              		.global	dhm_make_public
 613              		.thumb
 614              		.thumb_func
 615              		.type	dhm_make_public, %function
 616              	dhm_make_public:
 617              	.LFB7:
 618              		.loc 1 238 0
 619              		.cfi_startproc
 620              		@ args = 8, pretend = 0, frame = 0
 621              		@ frame_needed = 0, uses_anonymous_args = 0
 622              	.LVL94:
 623 0000 2DE9F04F 		push	{r4, r5, r6, r7, r8, r9, r10, fp, lr}
ARM GAS  C:\Users\jo\AppData\Local\Temp\cc5OnyVz.s 			page 12


 624              		.cfi_def_cfa_offset 36
 625              		.cfi_offset 4, -36
 626              		.cfi_offset 5, -32
 627              		.cfi_offset 6, -28
 628              		.cfi_offset 7, -24
 629              		.cfi_offset 8, -20
 630              		.cfi_offset 9, -16
 631              		.cfi_offset 10, -12
 632              		.cfi_offset 11, -8
 633              		.cfi_offset 14, -4
 634 0004 83B0     		sub	sp, sp, #12
 635              		.cfi_def_cfa_offset 48
 636              		.loc 1 241 0
 637 0006 0028     		cmp	r0, #0
 638 0008 4FD0     		beq	.L54
 639              		.loc 1 241 0 is_stmt 0 discriminator 1
 640 000a 002B     		cmp	r3, #0
 641 000c 4DD0     		beq	.L54
 642              		.loc 1 241 0 discriminator 2
 643 000e 0468     		ldr	r4, [r0]
 644 0010 A342     		cmp	r3, r4
 645 0012 4AD8     		bhi	.L54
 646              		.loc 1 244 0 is_stmt 1
 647 0014 051D     		adds	r5, r0, #4
 648 0016 8046     		mov	r8, r0
 649 0018 0F46     		mov	r7, r1
 650 001a 2846     		mov	r0, r5
 651              	.LVL95:
 652 001c 0021     		movs	r1, #0
 653              	.LVL96:
 654 001e 1E46     		mov	r6, r3
 655 0020 9246     		mov	r10, r2
 656 0022 FFF7FEFF 		bl	mpi_cmp_int
 657              	.LVL97:
 658 0026 0028     		cmp	r0, #0
 659 0028 3FD0     		beq	.L54
 660 002a 08F11C04 		add	r4, r8, #28
 661 002e 4FF00C09 		mov	r9, #12
 662              	.LVL98:
 663              	.L58:
 664              		.loc 1 252 0
 665 0032 2046     		mov	r0, r4
 666 0034 3946     		mov	r1, r7
 667 0036 0C9A     		ldr	r2, [sp, #48]
 668 0038 0D9B     		ldr	r3, [sp, #52]
 669 003a FFF7FEFF 		bl	mpi_fill_random
 670              	.LVL99:
 671              		.loc 1 254 0
 672 003e 02E0     		b	.L55
 673              	.L57:
 674              		.loc 1 255 0
 675 0040 FFF7FEFF 		bl	mpi_shift_r
 676              	.LVL100:
 677 0044 58BB     		cbnz	r0, .L59
 678              	.LVL101:
 679              	.L55:
 680              		.loc 1 254 0
ARM GAS  C:\Users\jo\AppData\Local\Temp\cc5OnyVz.s 			page 13


 681 0046 2946     		mov	r1, r5
 682 0048 2046     		mov	r0, r4
 683 004a FFF7FEFF 		bl	mpi_cmp_mpi
 684              	.LVL102:
 685 004e 0028     		cmp	r0, #0
 686              		.loc 1 255 0
 687 0050 4FF00101 		mov	r1, #1
 688 0054 2046     		mov	r0, r4
 689              		.loc 1 254 0
 690 0056 F3DA     		bge	.L57
 691              	.LVL103:
 692              		.loc 1 257 0
 693 0058 B9F10109 		subs	r9, r9, #1
 694              	.LVL104:
 695 005c 2BD0     		beq	.L60
 696              		.loc 1 260 0
 697 005e 2946     		mov	r1, r5
 698 0060 FFF7FEFF 		bl	dhm_check_range
 699              	.LVL105:
 700 0064 8346     		mov	fp, r0
 701 0066 0028     		cmp	r0, #0
 702 0068 E3D1     		bne	.L58
 703              		.loc 1 262 0
 704 006a 08F14C03 		add	r3, r8, #76
 705 006e 08F12807 		add	r7, r8, #40
 706              	.LVL106:
 707 0072 0093     		str	r3, [sp]
 708 0074 2246     		mov	r2, r4
 709 0076 3846     		mov	r0, r7
 710 0078 08F11001 		add	r1, r8, #16
 711 007c 2B46     		mov	r3, r5
 712 007e FFF7FEFF 		bl	mpi_exp_mod
 713              	.LVL107:
 714 0082 60B9     		cbnz	r0, .L59
 715              		.loc 1 265 0
 716 0084 2946     		mov	r1, r5
 717 0086 3846     		mov	r0, r7
 718              	.LVL108:
 719 0088 FFF7FEFF 		bl	dhm_check_range
 720              	.LVL109:
 721 008c 08B1     		cbz	r0, .L73
 722 008e 8346     		mov	fp, r0
 723 0090 07E0     		b	.L53
 724              	.L73:
 725              		.loc 1 268 0
 726 0092 3846     		mov	r0, r7
 727              	.LVL110:
 728 0094 5146     		mov	r1, r10
 729 0096 3246     		mov	r2, r6
 730 0098 FFF7FEFF 		bl	mpi_write_binary
 731              	.LVL111:
 732              	.LDL1:
 733              		.loc 1 272 0
 734 009c 08B1     		cbz	r0, .L53
 735              	.LVL112:
 736              	.L59:
 737              		.loc 1 273 0
ARM GAS  C:\Users\jo\AppData\Local\Temp\cc5OnyVz.s 			page 14


 738 009e A0F54A5B 		sub	fp, r0, #12928
 739              	.LVL113:
 740              	.L53:
 741              		.loc 1 276 0
 742 00a2 5846     		mov	r0, fp
 743 00a4 03B0     		add	sp, sp, #12
 744              		.cfi_remember_state
 745              		.cfi_def_cfa_offset 36
 746              		@ sp needed
 747 00a6 BDE8F08F 		pop	{r4, r5, r6, r7, r8, r9, r10, fp, pc}
 748              	.LVL114:
 749              	.L54:
 750              		.cfi_restore_state
 751              		.loc 1 242 0
 752 00aa DFF810B0 		ldr	fp, .L74
 753              		.loc 1 276 0
 754 00ae 5846     		mov	r0, fp
 755 00b0 03B0     		add	sp, sp, #12
 756              		.cfi_remember_state
 757              		.cfi_def_cfa_offset 36
 758              		@ sp needed
 759 00b2 BDE8F08F 		pop	{r4, r5, r6, r7, r8, r9, r10, fp, pc}
 760              	.LVL115:
 761              	.L60:
 762              		.cfi_restore_state
 763              		.loc 1 258 0
 764 00b6 DFF808B0 		ldr	fp, .L74+4
 765 00ba F2E7     		b	.L53
 766              	.L75:
 767              		.align	2
 768              	.L74:
 769 00bc 80CFFFFF 		.word	-12416
 770 00c0 80CDFFFF 		.word	-12928
 771              		.cfi_endproc
 772              	.LFE7:
 773              		.size	dhm_make_public, .-dhm_make_public
 774 00c4 AFF30080 		.section	.text.dhm_calc_secret,"ax",%progbits
 774      AFF30080 
 774      AFF30080 
 775              		.align	2
 776              		.p2align 4,,15
 777              		.global	dhm_calc_secret
 778              		.thumb
 779              		.thumb_func
 780              		.type	dhm_calc_secret, %function
 781              	dhm_calc_secret:
 782              	.LFB9:
 783              		.loc 1 350 0
 784              		.cfi_startproc
 785              		@ args = 4, pretend = 0, frame = 24
 786              		@ frame_needed = 0, uses_anonymous_args = 0
 787              	.LVL116:
 788 0000 2DE9F04F 		push	{r4, r5, r6, r7, r8, r9, r10, fp, lr}
 789              		.cfi_def_cfa_offset 36
 790              		.cfi_offset 4, -36
 791              		.cfi_offset 5, -32
 792              		.cfi_offset 6, -28
ARM GAS  C:\Users\jo\AppData\Local\Temp\cc5OnyVz.s 			page 15


 793              		.cfi_offset 7, -24
 794              		.cfi_offset 8, -20
 795              		.cfi_offset 9, -16
 796              		.cfi_offset 10, -12
 797              		.cfi_offset 11, -8
 798              		.cfi_offset 14, -4
 799 0004 89B0     		sub	sp, sp, #36
 800              		.cfi_def_cfa_offset 72
 801              		.loc 1 354 0
 802 0006 0028     		cmp	r0, #0
 803 0008 00F09580 		beq	.L102
 804              		.loc 1 354 0 is_stmt 0 discriminator 1
 805 000c 1568     		ldr	r5, [r2]
 806 000e 0468     		ldr	r4, [r0]
 807 0010 A542     		cmp	r5, r4
 808 0012 C0F09080 		bcc	.L102
 809              		.loc 1 357 0 is_stmt 1
 810 0016 061D     		adds	r6, r0, #4
 811 0018 00F1340A 		add	r10, r0, #52
 812 001c 0446     		mov	r4, r0
 813 001e 8946     		mov	r9, r1
 814 0020 5046     		mov	r0, r10
 815              	.LVL117:
 816 0022 3146     		mov	r1, r6
 817              	.LVL118:
 818 0024 9846     		mov	r8, r3
 819 0026 1746     		mov	r7, r2
 820 0028 FFF7FEFF 		bl	dhm_check_range
 821              	.LVL119:
 822 002c 20B1     		cbz	r0, .L124
 823 002e 0446     		mov	r4, r0
 824              	.LVL120:
 825              	.L122:
 826              		.loc 1 394 0
 827 0030 2046     		mov	r0, r4
 828 0032 09B0     		add	sp, sp, #36
 829              		.cfi_remember_state
 830              		.cfi_def_cfa_offset 36
 831              		@ sp needed
 832 0034 BDE8F08F 		pop	{r4, r5, r6, r7, r8, r9, r10, fp, pc}
 833              	.LVL121:
 834              	.L124:
 835              		.cfi_restore_state
 836              		.loc 1 360 0
 837 0038 05A8     		add	r0, sp, #20
 838              	.LVL122:
 839 003a FFF7FEFF 		bl	mpi_init
 840              	.LVL123:
 841              		.loc 1 363 0
 842 003e B8F1000F 		cmp	r8, #0
 843 0042 7AD0     		beq	.L78
 844              	.LVL124:
 845              	.LBB10:
 846              	.LBB11:
 847              		.loc 1 293 0
 848 0044 04F11C0B 		add	fp, r4, #28
 849 0048 04F17005 		add	r5, r4, #112
ARM GAS  C:\Users\jo\AppData\Local\Temp\cc5OnyVz.s 			page 16


 850 004c 5846     		mov	r0, fp
 851 004e 2946     		mov	r1, r5
 852 0050 FFF7FEFF 		bl	mpi_cmp_mpi
 853              	.LVL125:
 854 0054 0028     		cmp	r0, #0
 855 0056 60D1     		bne	.L125
 856              		.loc 1 306 0
 857 0058 04F15805 		add	r5, r4, #88
 858 005c 2846     		mov	r0, r5
 859 005e 0121     		movs	r1, #1
 860 0060 FFF7FEFF 		bl	mpi_cmp_int
 861              	.LVL126:
 862 0064 0028     		cmp	r0, #0
 863 0066 40F0A080 		bne	.L126
 864 006a 0C23     		movs	r3, #12
 865 006c 0393     		str	r3, [sp, #12]
 866              	.L84:
 867              	.LVL127:
 868              		.loc 1 325 0
 869 006e 3046     		mov	r0, r6
 870 0070 FFF7FEFF 		bl	mpi_size
 871              	.LVL128:
 872 0074 4246     		mov	r2, r8
 873 0076 0146     		mov	r1, r0
 874 0078 129B     		ldr	r3, [sp, #72]
 875 007a 2846     		mov	r0, r5
 876 007c FFF7FEFF 		bl	mpi_fill_random
 877              	.LVL129:
 878 0080 03E0     		b	.L88
 879              	.L89:
 880              		.loc 1 328 0
 881 0082 FFF7FEFF 		bl	mpi_shift_r
 882              	.LVL130:
 883 0086 0028     		cmp	r0, #0
 884 0088 4CD1     		bne	.L91
 885              	.LVL131:
 886              	.L88:
 887              		.loc 1 327 0
 888 008a 3146     		mov	r1, r6
 889 008c 2846     		mov	r0, r5
 890 008e FFF7FEFF 		bl	mpi_cmp_mpi
 891              	.LVL132:
 892 0092 0028     		cmp	r0, #0
 893              		.loc 1 328 0
 894 0094 4FF00101 		mov	r1, #1
 895 0098 2846     		mov	r0, r5
 896              		.loc 1 327 0
 897 009a F2DA     		bge	.L89
 898              	.LVL133:
 899              		.loc 1 330 0
 900 009c 039B     		ldr	r3, [sp, #12]
 901 009e 013B     		subs	r3, r3, #1
 902 00a0 0393     		str	r3, [sp, #12]
 903              	.LVL134:
 904 00a2 00F0A180 		beq	.L105
 905              		.loc 1 333 0
 906 00a6 FFF7FEFF 		bl	mpi_cmp_int
ARM GAS  C:\Users\jo\AppData\Local\Temp\cc5OnyVz.s 			page 17


 907              	.LVL135:
 908 00aa 0028     		cmp	r0, #0
 909 00ac DFDD     		ble	.L84
 910              		.loc 1 336 0
 911 00ae 04F16408 		add	r8, r4, #100
 912              	.LVL136:
 913 00b2 4046     		mov	r0, r8
 914 00b4 2946     		mov	r1, r5
 915 00b6 3246     		mov	r2, r6
 916 00b8 FFF7FEFF 		bl	mpi_inv_mod
 917              	.LVL137:
 918 00bc 90BB     		cbnz	r0, .L91
 919              		.loc 1 337 0
 920 00be 04F14C03 		add	r3, r4, #76
 921 00c2 0093     		str	r3, [sp]
 922 00c4 4046     		mov	r0, r8
 923              	.LVL138:
 924 00c6 4146     		mov	r1, r8
 925 00c8 5A46     		mov	r2, fp
 926 00ca 3346     		mov	r3, r6
 927 00cc FFF7FEFF 		bl	mpi_exp_mod
 928              	.LVL139:
 929              	.LBE11:
 930              	.LBE10:
 931              		.loc 1 365 0
 932 00d0 40BB     		cbnz	r0, .L91
 933              	.LVL140:
 934              	.L98:
 935              		.loc 1 366 0
 936 00d2 5146     		mov	r1, r10
 937 00d4 2A46     		mov	r2, r5
 938 00d6 05A8     		add	r0, sp, #20
 939              	.LVL141:
 940 00d8 FFF7FEFF 		bl	mpi_mul_mpi
 941              	.LVL142:
 942 00dc 10BB     		cbnz	r0, .L91
 943              		.loc 1 367 0
 944 00de 05A8     		add	r0, sp, #20
 945              	.LVL143:
 946 00e0 0146     		mov	r1, r0
 947 00e2 3246     		mov	r2, r6
 948 00e4 FFF7FEFF 		bl	mpi_mod_mpi
 949              	.LVL144:
 950 00e8 E0B9     		cbnz	r0, .L91
 951              		.loc 1 373 0
 952 00ea 04F14005 		add	r5, r4, #64
 953 00ee 4C34     		adds	r4, r4, #76
 954              	.LVL145:
 955 00f0 5A46     		mov	r2, fp
 956 00f2 0094     		str	r4, [sp]
 957 00f4 2846     		mov	r0, r5
 958              	.LVL146:
 959 00f6 05A9     		add	r1, sp, #20
 960 00f8 3346     		mov	r3, r6
 961 00fa FFF7FEFF 		bl	mpi_exp_mod
 962              	.LVL147:
 963 00fe 88B9     		cbnz	r0, .L91
ARM GAS  C:\Users\jo\AppData\Local\Temp\cc5OnyVz.s 			page 18


 964              		.loc 1 379 0
 965 0100 4246     		mov	r2, r8
 966 0102 2846     		mov	r0, r5
 967              	.LVL148:
 968 0104 2946     		mov	r1, r5
 969 0106 FFF7FEFF 		bl	mpi_mul_mpi
 970              	.LVL149:
 971 010a 58B9     		cbnz	r0, .L91
 972              		.loc 1 380 0
 973 010c 3246     		mov	r2, r6
 974 010e 2846     		mov	r0, r5
 975              	.LVL150:
 976 0110 2946     		mov	r1, r5
 977 0112 FFF7FEFF 		bl	mpi_mod_mpi
 978              	.LVL151:
 979 0116 28B9     		cbnz	r0, .L91
 980 0118 23E0     		b	.L97
 981              	.LVL152:
 982              	.L125:
 983              	.LBB14:
 984              	.LBB12:
 985              		.loc 1 295 0
 986 011a 2846     		mov	r0, r5
 987 011c 5946     		mov	r1, fp
 988 011e FFF7FEFF 		bl	mpi_copy
 989              	.LVL153:
 990 0122 88B3     		cbz	r0, .L127
 991              	.LVL154:
 992              	.L91:
 993 0124 A0F54C54 		sub	r4, r0, #13056
 994              	.L93:
 995              	.LBE12:
 996              	.LBE14:
 997              		.loc 1 388 0
 998 0128 05A8     		add	r0, sp, #20
 999 012a FFF7FEFF 		bl	mpi_free
 1000              	.LVL155:
 1001              		.loc 1 394 0
 1002 012e 2046     		mov	r0, r4
 1003 0130 09B0     		add	sp, sp, #36
 1004              		.cfi_remember_state
 1005              		.cfi_def_cfa_offset 36
 1006              		@ sp needed
 1007 0132 BDE8F08F 		pop	{r4, r5, r6, r7, r8, r9, r10, fp, pc}
 1008              	.LVL156:
 1009              	.L102:
 1010              		.cfi_restore_state
 1011              		.loc 1 355 0
 1012 0136 2D4C     		ldr	r4, .L128
 1013 0138 7AE7     		b	.L122
 1014              	.LVL157:
 1015              	.L78:
 1016              		.loc 1 370 0
 1017 013a 5146     		mov	r1, r10
 1018 013c 05A8     		add	r0, sp, #20
 1019 013e FFF7FEFF 		bl	mpi_copy
 1020              	.LVL158:
ARM GAS  C:\Users\jo\AppData\Local\Temp\cc5OnyVz.s 			page 19


 1021 0142 0028     		cmp	r0, #0
 1022 0144 EED1     		bne	.L91
 1023              		.loc 1 373 0
 1024 0146 04F14C02 		add	r2, r4, #76
 1025 014a 04F14005 		add	r5, r4, #64
 1026 014e 0092     		str	r2, [sp]
 1027 0150 3346     		mov	r3, r6
 1028 0152 2846     		mov	r0, r5
 1029              	.LVL159:
 1030 0154 04F11C02 		add	r2, r4, #28
 1031 0158 05A9     		add	r1, sp, #20
 1032 015a FFF7FEFF 		bl	mpi_exp_mod
 1033              	.LVL160:
 1034 015e 0028     		cmp	r0, #0
 1035 0160 E0D1     		bne	.L91
 1036              	.LVL161:
 1037              	.L97:
 1038              		.loc 1 383 0
 1039 0162 2846     		mov	r0, r5
 1040              	.LVL162:
 1041 0164 FFF7FEFF 		bl	mpi_size
 1042              	.LVL163:
 1043              		.loc 1 385 0
 1044 0168 4946     		mov	r1, r9
 1045              		.loc 1 383 0
 1046 016a 0246     		mov	r2, r0
 1047 016c 3860     		str	r0, [r7]
 1048              		.loc 1 385 0
 1049 016e 2846     		mov	r0, r5
 1050 0170 FFF7FEFF 		bl	mpi_write_binary
 1051              	.LVL164:
 1052 0174 0446     		mov	r4, r0
 1053              	.LDL2:
 1054              	.LVL165:
 1055              		.loc 1 388 0
 1056 0176 05A8     		add	r0, sp, #20
 1057              	.LVL166:
 1058 0178 FFF7FEFF 		bl	mpi_free
 1059              	.LVL167:
 1060              		.loc 1 390 0
 1061 017c 002C     		cmp	r4, #0
 1062 017e 3FF457AF 		beq	.L122
 1063 0182 A4F54C54 		sub	r4, r4, #13056
 1064              	.LVL168:
 1065              		.loc 1 391 0
 1066 0186 53E7     		b	.L122
 1067              	.LVL169:
 1068              	.L127:
 1069              	.LBB15:
 1070              	.LBB13:
 1071              		.loc 1 296 0
 1072 0188 04F15805 		add	r5, r4, #88
 1073 018c 2846     		mov	r0, r5
 1074              	.LVL170:
 1075 018e 0121     		movs	r1, #1
 1076 0190 FFF7FEFF 		bl	mpi_lset
 1077              	.LVL171:
ARM GAS  C:\Users\jo\AppData\Local\Temp\cc5OnyVz.s 			page 20


 1078 0194 0028     		cmp	r0, #0
 1079 0196 C5D1     		bne	.L91
 1080              		.loc 1 297 0
 1081 0198 04F16408 		add	r8, r4, #100
 1082              	.LVL172:
 1083 019c 4046     		mov	r0, r8
 1084              	.LVL173:
 1085 019e 0121     		movs	r1, #1
 1086 01a0 FFF7FEFF 		bl	mpi_lset
 1087              	.LVL174:
 1088 01a4 0028     		cmp	r0, #0
 1089 01a6 BDD1     		bne	.L91
 1090 01a8 93E7     		b	.L98
 1091              	.LVL175:
 1092              	.L126:
 1093              		.loc 1 308 0
 1094 01aa 2846     		mov	r0, r5
 1095 01ac 2946     		mov	r1, r5
 1096 01ae 2A46     		mov	r2, r5
 1097 01b0 FFF7FEFF 		bl	mpi_mul_mpi
 1098              	.LVL176:
 1099 01b4 0028     		cmp	r0, #0
 1100 01b6 B5D1     		bne	.L91
 1101              		.loc 1 309 0
 1102 01b8 2846     		mov	r0, r5
 1103              	.LVL177:
 1104 01ba 2946     		mov	r1, r5
 1105 01bc 3246     		mov	r2, r6
 1106 01be FFF7FEFF 		bl	mpi_mod_mpi
 1107              	.LVL178:
 1108 01c2 0028     		cmp	r0, #0
 1109 01c4 AED1     		bne	.L91
 1110              		.loc 1 311 0
 1111 01c6 04F16408 		add	r8, r4, #100
 1112              	.LVL179:
 1113 01ca 4046     		mov	r0, r8
 1114              	.LVL180:
 1115 01cc 4146     		mov	r1, r8
 1116 01ce 4246     		mov	r2, r8
 1117 01d0 FFF7FEFF 		bl	mpi_mul_mpi
 1118              	.LVL181:
 1119 01d4 0028     		cmp	r0, #0
 1120 01d6 A5D1     		bne	.L91
 1121              		.loc 1 312 0
 1122 01d8 4046     		mov	r0, r8
 1123              	.LVL182:
 1124 01da 4146     		mov	r1, r8
 1125 01dc 3246     		mov	r2, r6
 1126 01de FFF7FEFF 		bl	mpi_mod_mpi
 1127              	.LVL183:
 1128 01e2 0028     		cmp	r0, #0
 1129 01e4 9ED1     		bne	.L91
 1130 01e6 74E7     		b	.L98
 1131              	.LVL184:
 1132              	.L105:
 1133              		.loc 1 330 0
 1134 01e8 014C     		ldr	r4, .L128+4
ARM GAS  C:\Users\jo\AppData\Local\Temp\cc5OnyVz.s 			page 21


 1135              	.LVL185:
 1136 01ea 9DE7     		b	.L93
 1137              	.L129:
 1138              		.align	2
 1139              	.L128:
 1140 01ec 80CFFFFF 		.word	-12416
 1141 01f0 F2CCFFFF 		.word	-13070
 1142              	.LBE13:
 1143              	.LBE15:
 1144              		.cfi_endproc
 1145              	.LFE9:
 1146              		.size	dhm_calc_secret, .-dhm_calc_secret
 1147 01f4 AFF30080 		.section	.text.dhm_free,"ax",%progbits
 1147      AFF30080 
 1147      AFF30080 
 1148              		.align	2
 1149              		.p2align 4,,15
 1150              		.global	dhm_free
 1151              		.thumb
 1152              		.thumb_func
 1153              		.type	dhm_free, %function
 1154              	dhm_free:
 1155              	.LFB10:
 1156              		.loc 1 400 0
 1157              		.cfi_startproc
 1158              		@ args = 0, pretend = 0, frame = 0
 1159              		@ frame_needed = 0, uses_anonymous_args = 0
 1160              	.LVL186:
 1161 0000 10B5     		push	{r4, lr}
 1162              		.cfi_def_cfa_offset 8
 1163              		.cfi_offset 4, -8
 1164              		.cfi_offset 14, -4
 1165              		.loc 1 400 0
 1166 0002 0446     		mov	r4, r0
 1167              		.loc 1 401 0
 1168 0004 7030     		adds	r0, r0, #112
 1169              	.LVL187:
 1170 0006 FFF7FEFF 		bl	mpi_free
 1171              	.LVL188:
 1172 000a 04F16400 		add	r0, r4, #100
 1173 000e FFF7FEFF 		bl	mpi_free
 1174              	.LVL189:
 1175 0012 04F15800 		add	r0, r4, #88
 1176 0016 FFF7FEFF 		bl	mpi_free
 1177              	.LVL190:
 1178              		.loc 1 402 0
 1179 001a 04F14C00 		add	r0, r4, #76
 1180 001e FFF7FEFF 		bl	mpi_free
 1181              	.LVL191:
 1182 0022 04F14000 		add	r0, r4, #64
 1183 0026 FFF7FEFF 		bl	mpi_free
 1184              	.LVL192:
 1185 002a 04F13400 		add	r0, r4, #52
 1186 002e FFF7FEFF 		bl	mpi_free
 1187              	.LVL193:
 1188              		.loc 1 403 0
 1189 0032 04F12800 		add	r0, r4, #40
ARM GAS  C:\Users\jo\AppData\Local\Temp\cc5OnyVz.s 			page 22


 1190 0036 FFF7FEFF 		bl	mpi_free
 1191              	.LVL194:
 1192 003a 04F11C00 		add	r0, r4, #28
 1193 003e FFF7FEFF 		bl	mpi_free
 1194              	.LVL195:
 1195 0042 04F11000 		add	r0, r4, #16
 1196 0046 FFF7FEFF 		bl	mpi_free
 1197              	.LVL196:
 1198              		.loc 1 404 0
 1199 004a 201D     		adds	r0, r4, #4
 1200 004c FFF7FEFF 		bl	mpi_free
 1201              	.LVL197:
 1202 0050 04F17C02 		add	r2, r4, #124
 1203              	.LBB16:
 1204              	.LBB17:
 1205              		.loc 1 60 0
 1206 0054 0023     		movs	r3, #0
 1207              	.LVL198:
 1208              	.L131:
 1209 0056 2370     		strb	r3, [r4]
 1210              	.LVL199:
 1211 0058 0134     		adds	r4, r4, #1
 1212              	.LVL200:
 1213 005a 9442     		cmp	r4, r2
 1214 005c FBD1     		bne	.L131
 1215              	.LBE17:
 1216              	.LBE16:
 1217              		.loc 1 407 0
 1218 005e 10BD     		pop	{r4, pc}
 1219              		.cfi_endproc
 1220              	.LFE10:
 1221              		.size	dhm_free, .-dhm_free
 1222              		.section	.text.dhm_parse_dhm,"ax",%progbits
 1223              		.align	2
 1224              		.p2align 4,,15
 1225              		.global	dhm_parse_dhm
 1226              		.thumb
 1227              		.thumb_func
 1228              		.type	dhm_parse_dhm, %function
 1229              	dhm_parse_dhm:
 1230              	.LFB11:
 1231              		.loc 1 415 0
 1232              		.cfi_startproc
 1233              		@ args = 0, pretend = 0, frame = 40
 1234              		@ frame_needed = 0, uses_anonymous_args = 0
 1235              	.LVL201:
 1236 0000 2DE9F041 		push	{r4, r5, r6, r7, r8, lr}
 1237              		.cfi_def_cfa_offset 24
 1238              		.cfi_offset 4, -24
 1239              		.cfi_offset 5, -20
 1240              		.cfi_offset 6, -16
 1241              		.cfi_offset 7, -12
 1242              		.cfi_offset 8, -8
 1243              		.cfi_offset 14, -4
 1244 0004 8EB0     		sub	sp, sp, #56
 1245              		.cfi_def_cfa_offset 80
 1246              		.loc 1 415 0
ARM GAS  C:\Users\jo\AppData\Local\Temp\cc5OnyVz.s 			page 23


 1247 0006 0746     		mov	r7, r0
 1248              		.loc 1 422 0
 1249 0008 08A8     		add	r0, sp, #32
 1250              	.LVL202:
 1251              		.loc 1 415 0
 1252 000a 0D46     		mov	r5, r1
 1253 000c 0592     		str	r2, [sp, #20]
 1254              		.loc 1 422 0
 1255 000e FFF7FEFF 		bl	pem_init
 1256              	.LVL203:
 1257              		.loc 1 424 0
 1258 0012 0022     		movs	r2, #0
 1259 0014 05A9     		add	r1, sp, #20
 1260              	.LVL204:
 1261 0016 0092     		str	r2, [sp]
 1262 0018 0192     		str	r2, [sp, #4]
 1263 001a 0291     		str	r1, [sp, #8]
 1264 001c 08A8     		add	r0, sp, #32
 1265 001e 2B46     		mov	r3, r5
 1266 0020 3149     		ldr	r1, .L155
 1267              	.LVL205:
 1268 0022 324A     		ldr	r2, .L155+4
 1269 0024 FFF7FEFF 		bl	pem_read_buffer
 1270              	.LVL206:
 1271              		.loc 1 429 0
 1272 0028 0446     		mov	r4, r0
 1273 002a B0B9     		cbnz	r0, .L135
 1274              		.loc 1 434 0
 1275 002c 0999     		ldr	r1, [sp, #36]
 1276              		.loc 1 439 0
 1277 002e 089D     		ldr	r5, [sp, #32]
 1278              	.LVL207:
 1279              		.loc 1 434 0
 1280 0030 0591     		str	r1, [sp, #20]
 1281              	.L136:
 1282              		.loc 1 439 0 discriminator 4
 1283 0032 0EAE     		add	r6, sp, #56
 1284              		.loc 1 452 0 discriminator 4
 1285 0034 2944     		add	r1, r1, r5
 1286              		.loc 1 439 0 discriminator 4
 1287 0036 46F81C5D 		str	r5, [r6, #-28]!
 1288              	.LVL208:
 1289              		.loc 1 452 0 discriminator 4
 1290 003a 06AA     		add	r2, sp, #24
 1291 003c 3046     		mov	r0, r6
 1292              	.LVL209:
 1293 003e 3023     		movs	r3, #48
 1294 0040 FFF7FEFF 		bl	asn1_get_tag
 1295              	.LVL210:
 1296 0044 B0B1     		cbz	r0, .L138
 1297              		.loc 1 455 0
 1298 0046 A0F54E54 		sub	r4, r0, #13184
 1299              	.LVL211:
 1300              	.L139:
 1301              		.loc 1 495 0
 1302 004a 08A8     		add	r0, sp, #32
 1303 004c FFF7FEFF 		bl	pem_free
ARM GAS  C:\Users\jo\AppData\Local\Temp\cc5OnyVz.s 			page 24


 1304              	.LVL212:
 1305              		.loc 1 497 0
 1306 0050 4CB9     		cbnz	r4, .L146
 1307              	.LVL213:
 1308              	.L149:
 1309              		.loc 1 501 0
 1310 0052 2046     		mov	r0, r4
 1311 0054 0EB0     		add	sp, sp, #56
 1312              		.cfi_remember_state
 1313              		.cfi_def_cfa_offset 24
 1314              		@ sp needed
 1315 0056 BDE8F081 		pop	{r4, r5, r6, r7, r8, pc}
 1316              	.LVL214:
 1317              	.L135:
 1318              		.cfi_restore_state
 1319              		.loc 1 436 0
 1320 005a 10F5845F 		cmn	r0, #4224
 1321 005e 18D0     		beq	.L153
 1322              		.loc 1 495 0
 1323 0060 08A8     		add	r0, sp, #32
 1324              	.LVL215:
 1325 0062 FFF7FEFF 		bl	pem_free
 1326              	.LVL216:
 1327              	.L146:
 1328              		.loc 1 498 0
 1329 0066 3846     		mov	r0, r7
 1330 0068 FFF7FEFF 		bl	dhm_free
 1331              	.LVL217:
 1332              		.loc 1 501 0
 1333 006c 2046     		mov	r0, r4
 1334 006e 0EB0     		add	sp, sp, #56
 1335              		.cfi_remember_state
 1336              		.cfi_def_cfa_offset 24
 1337              		@ sp needed
 1338 0070 BDE8F081 		pop	{r4, r5, r6, r7, r8, pc}
 1339              	.LVL218:
 1340              	.L138:
 1341              		.cfi_restore_state
 1342              		.loc 1 459 0
 1343 0074 079D     		ldr	r5, [sp, #28]
 1344 0076 069B     		ldr	r3, [sp, #24]
 1345              		.loc 1 461 0
 1346 0078 07F10408 		add	r8, r7, #4
 1347              		.loc 1 459 0
 1348 007c 1D44     		add	r5, r5, r3
 1349              	.LVL219:
 1350              		.loc 1 461 0
 1351 007e 2946     		mov	r1, r5
 1352 0080 4246     		mov	r2, r8
 1353 0082 3046     		mov	r0, r6
 1354              	.LVL220:
 1355 0084 FFF7FEFF 		bl	asn1_get_mpi
 1356              	.LVL221:
 1357 0088 0446     		mov	r4, r0
 1358 008a 20B1     		cbz	r0, .L154
 1359              	.L140:
 1360              		.loc 1 464 0
ARM GAS  C:\Users\jo\AppData\Local\Temp\cc5OnyVz.s 			page 25


 1361 008c A4F54E54 		sub	r4, r4, #13184
 1362              	.LVL222:
 1363              		.loc 1 465 0
 1364 0090 DBE7     		b	.L139
 1365              	.LVL223:
 1366              	.L153:
 1367 0092 0599     		ldr	r1, [sp, #20]
 1368 0094 CDE7     		b	.L136
 1369              	.LVL224:
 1370              	.L154:
 1371              		.loc 1 461 0 discriminator 1
 1372 0096 3046     		mov	r0, r6
 1373              	.LVL225:
 1374 0098 2946     		mov	r1, r5
 1375 009a 07F11002 		add	r2, r7, #16
 1376 009e FFF7FEFF 		bl	asn1_get_mpi
 1377              	.LVL226:
 1378 00a2 0446     		mov	r4, r0
 1379 00a4 0028     		cmp	r0, #0
 1380 00a6 F1D1     		bne	.L140
 1381              		.loc 1 468 0
 1382 00a8 079B     		ldr	r3, [sp, #28]
 1383 00aa AB42     		cmp	r3, r5
 1384 00ac 14D0     		beq	.L142
 1385              	.LBB18:
 1386              		.loc 1 473 0
 1387 00ae 0BA8     		add	r0, sp, #44
 1388              	.LVL227:
 1389 00b0 FFF7FEFF 		bl	mpi_init
 1390              	.LVL228:
 1391              		.loc 1 474 0
 1392 00b4 3046     		mov	r0, r6
 1393 00b6 2946     		mov	r1, r5
 1394 00b8 0BAA     		add	r2, sp, #44
 1395 00ba FFF7FEFF 		bl	asn1_get_mpi
 1396              	.LVL229:
 1397 00be 0646     		mov	r6, r0
 1398              	.LVL230:
 1399              		.loc 1 475 0
 1400 00c0 0BA8     		add	r0, sp, #44
 1401              	.LVL231:
 1402 00c2 FFF7FEFF 		bl	mpi_free
 1403              	.LVL232:
 1404              		.loc 1 476 0
 1405 00c6 16B1     		cbz	r6, .L143
 1406              		.loc 1 478 0
 1407 00c8 A6F54E54 		sub	r4, r6, #13184
 1408              	.LVL233:
 1409              		.loc 1 479 0
 1410 00cc BDE7     		b	.L139
 1411              	.LVL234:
 1412              	.L143:
 1413              		.loc 1 481 0
 1414 00ce 079B     		ldr	r3, [sp, #28]
 1415 00d0 AB42     		cmp	r3, r5
 1416 00d2 01D0     		beq	.L142
 1417              		.loc 1 483 0
ARM GAS  C:\Users\jo\AppData\Local\Temp\cc5OnyVz.s 			page 26


 1418 00d4 064C     		ldr	r4, .L155+8
 1419              	.LVL235:
 1420 00d6 B8E7     		b	.L139
 1421              	.LVL236:
 1422              	.L142:
 1423              	.LBE18:
 1424              		.loc 1 491 0
 1425 00d8 4046     		mov	r0, r8
 1426 00da FFF7FEFF 		bl	mpi_size
 1427              	.LVL237:
 1428 00de 3860     		str	r0, [r7]
 1429              		.loc 1 495 0
 1430 00e0 08A8     		add	r0, sp, #32
 1431 00e2 FFF7FEFF 		bl	pem_free
 1432              	.LVL238:
 1433 00e6 B4E7     		b	.L149
 1434              	.L156:
 1435              		.align	2
 1436              	.L155:
 1437 00e8 00000000 		.word	.LC0
 1438 00ec 20000000 		.word	.LC1
 1439 00f0 1ACCFFFF 		.word	-13286
 1440              		.cfi_endproc
 1441              	.LFE11:
 1442              		.size	dhm_parse_dhm, .-dhm_parse_dhm
 1443 00f4 AFF30080 		.section	.text.dhm_parse_dhmfile,"ax",%progbits
 1443      AFF30080 
 1443      AFF30080 
 1444              		.align	2
 1445              		.p2align 4,,15
 1446              		.global	dhm_parse_dhmfile
 1447              		.thumb
 1448              		.thumb_func
 1449              		.type	dhm_parse_dhmfile, %function
 1450              	dhm_parse_dhmfile:
 1451              	.LFB13:
 1452              		.loc 1 550 0
 1453              		.cfi_startproc
 1454              		@ args = 0, pretend = 0, frame = 0
 1455              		@ frame_needed = 0, uses_anonymous_args = 0
 1456              	.LVL239:
 1457 0000 2DE9F041 		push	{r4, r5, r6, r7, r8, lr}
 1458              		.cfi_def_cfa_offset 24
 1459              		.cfi_offset 4, -24
 1460              		.cfi_offset 5, -20
 1461              		.cfi_offset 6, -16
 1462              		.cfi_offset 7, -12
 1463              		.cfi_offset 8, -8
 1464              		.cfi_offset 14, -4
 1465              		.loc 1 550 0
 1466 0004 8046     		mov	r8, r0
 1467              	.LBB23:
 1468              	.LBB24:
 1469              		.loc 1 512 0
 1470 0006 0846     		mov	r0, r1
 1471              	.LVL240:
 1472 0008 2849     		ldr	r1, .L174
ARM GAS  C:\Users\jo\AppData\Local\Temp\cc5OnyVz.s 			page 27


 1473              	.LVL241:
 1474 000a FFF7FEFF 		bl	fopen
 1475              	.LVL242:
 1476 000e 0028     		cmp	r0, #0
 1477 0010 42D0     		beq	.L165
 1478 0012 0546     		mov	r5, r0
 1479              		.loc 1 515 0
 1480 0014 0021     		movs	r1, #0
 1481 0016 0222     		movs	r2, #2
 1482 0018 FFF7FEFF 		bl	fseek
 1483              	.LVL243:
 1484              		.loc 1 516 0
 1485 001c 2846     		mov	r0, r5
 1486 001e FFF7FEFF 		bl	ftell
 1487              	.LVL244:
 1488 0022 431C     		adds	r3, r0, #1
 1489 0024 0646     		mov	r6, r0
 1490              	.LVL245:
 1491 0026 3AD0     		beq	.L171
 1492              		.loc 1 521 0
 1493 0028 0021     		movs	r1, #0
 1494 002a 0A46     		mov	r2, r1
 1495 002c 2846     		mov	r0, r5
 1496              	.LVL246:
 1497              		.loc 1 526 0
 1498 002e 741C     		adds	r4, r6, #1
 1499              		.loc 1 521 0
 1500 0030 FFF7FEFF 		bl	fseek
 1501              	.LVL247:
 1502              		.loc 1 526 0
 1503 0034 2046     		mov	r0, r4
 1504 0036 FFF7FEFF 		bl	malloc
 1505              	.LVL248:
 1506              		.loc 1 525 0
 1507 003a 0746     		mov	r7, r0
 1508 003c 30B3     		cbz	r0, .L172
 1509              		.loc 1 532 0
 1510 003e 0121     		movs	r1, #1
 1511 0040 3246     		mov	r2, r6
 1512 0042 2B46     		mov	r3, r5
 1513 0044 FFF7FEFF 		bl	fread
 1514              	.LVL249:
 1515 0048 8642     		cmp	r6, r0
 1516              		.loc 1 534 0
 1517 004a 2846     		mov	r0, r5
 1518              		.loc 1 532 0
 1519 004c 16D1     		bne	.L173
 1520              		.loc 1 541 0
 1521 004e 0025     		movs	r5, #0
 1522              	.LVL250:
 1523              		.loc 1 539 0
 1524 0050 FFF7FEFF 		bl	fclose
 1525              	.LVL251:
 1526              	.LBE24:
 1527              	.LBE23:
 1528              		.loc 1 558 0
 1529 0054 3246     		mov	r2, r6
ARM GAS  C:\Users\jo\AppData\Local\Temp\cc5OnyVz.s 			page 28


 1530              	.LBB28:
 1531              	.LBB25:
 1532              		.loc 1 541 0
 1533 0056 BD55     		strb	r5, [r7, r6]
 1534              	.LBE25:
 1535              	.LBE28:
 1536              		.loc 1 558 0
 1537 0058 3946     		mov	r1, r7
 1538 005a 4046     		mov	r0, r8
 1539 005c FFF7FEFF 		bl	dhm_parse_dhm
 1540              	.LVL252:
 1541              	.LBB29:
 1542              	.LBB30:
 1543              		.loc 1 60 0
 1544 0060 2946     		mov	r1, r5
 1545              	.LBE30:
 1546              	.LBE29:
 1547              		.loc 1 558 0
 1548 0062 0646     		mov	r6, r0
 1549              	.LVL253:
 1550 0064 3A19     		adds	r2, r7, r4
 1551 0066 3B46     		mov	r3, r7
 1552              	.LVL254:
 1553              	.L162:
 1554              	.LBB32:
 1555              	.LBB31:
 1556              		.loc 1 60 0
 1557 0068 1970     		strb	r1, [r3]
 1558 006a 0133     		adds	r3, r3, #1
 1559              	.LVL255:
 1560 006c 9342     		cmp	r3, r2
 1561 006e FBD1     		bne	.L162
 1562              	.LBE31:
 1563              	.LBE32:
 1564              		.loc 1 561 0
 1565 0070 3846     		mov	r0, r7
 1566              	.LVL256:
 1567 0072 FFF7FEFF 		bl	free
 1568              	.LVL257:
 1569              		.loc 1 563 0
 1570 0076 3046     		mov	r0, r6
 1571 0078 BDE8F081 		pop	{r4, r5, r6, r7, r8, pc}
 1572              	.LVL258:
 1573              	.L173:
 1574              	.LBB33:
 1575              	.LBB26:
 1576              		.loc 1 534 0
 1577 007c FFF7FEFF 		bl	fclose
 1578              	.LVL259:
 1579              		.loc 1 535 0
 1580 0080 3846     		mov	r0, r7
 1581 0082 FFF7FEFF 		bl	free
 1582              	.LVL260:
 1583              		.loc 1 536 0
 1584 0086 0A48     		ldr	r0, .L174+4
 1585 0088 BDE8F081 		pop	{r4, r5, r6, r7, r8, pc}
 1586              	.LVL261:
ARM GAS  C:\Users\jo\AppData\Local\Temp\cc5OnyVz.s 			page 29


 1587              	.L172:
 1588              		.loc 1 528 0
 1589 008c 2846     		mov	r0, r5
 1590 008e FFF7FEFF 		bl	fclose
 1591              	.LVL262:
 1592              		.loc 1 529 0
 1593 0092 0848     		ldr	r0, .L174+8
 1594 0094 BDE8F081 		pop	{r4, r5, r6, r7, r8, pc}
 1595              	.LVL263:
 1596              	.L165:
 1597              		.loc 1 513 0
 1598 0098 0548     		ldr	r0, .L174+4
 1599              	.LVL264:
 1600              	.LBE26:
 1601              	.LBE33:
 1602              		.loc 1 564 0
 1603 009a BDE8F081 		pop	{r4, r5, r6, r7, r8, pc}
 1604              	.LVL265:
 1605              	.L171:
 1606              	.LBB34:
 1607              	.LBB27:
 1608              		.loc 1 518 0
 1609 009e 2846     		mov	r0, r5
 1610              	.LVL266:
 1611 00a0 FFF7FEFF 		bl	fclose
 1612              	.LVL267:
 1613              		.loc 1 519 0
 1614 00a4 0248     		ldr	r0, .L174+4
 1615 00a6 BDE8F081 		pop	{r4, r5, r6, r7, r8, pc}
 1616              	.LVL268:
 1617              	.L175:
 1618 00aa 00BF     		.align	2
 1619              	.L174:
 1620 00ac 3C000000 		.word	.LC2
 1621 00b0 80CBFFFF 		.word	-13440
 1622 00b4 00CCFFFF 		.word	-13312
 1623              	.LBE27:
 1624              	.LBE34:
 1625              		.cfi_endproc
 1626              	.LFE13:
 1627              		.size	dhm_parse_dhmfile, .-dhm_parse_dhmfile
 1628 00b8 AFF30080 		.section	.text.dhm_self_test,"ax",%progbits
 1628      AFF30080 
 1629              		.align	2
 1630              		.p2align 4,,15
 1631              		.global	dhm_self_test
 1632              		.thumb
 1633              		.thumb_func
 1634              		.type	dhm_self_test, %function
 1635              	dhm_self_test:
 1636              	.LFB14:
 1637              		.loc 1 576 0
 1638              		.cfi_startproc
 1639              		@ args = 0, pretend = 0, frame = 128
 1640              		@ frame_needed = 0, uses_anonymous_args = 0
 1641              	.LVL269:
 1642 0000 10B5     		push	{r4, lr}
ARM GAS  C:\Users\jo\AppData\Local\Temp\cc5OnyVz.s 			page 30


 1643              		.cfi_def_cfa_offset 8
 1644              		.cfi_offset 4, -8
 1645              		.cfi_offset 14, -4
 1646 0002 A0B0     		sub	sp, sp, #128
 1647              		.cfi_def_cfa_offset 136
 1648              	.LVL270:
 1649              		.loc 1 576 0
 1650 0004 0446     		mov	r4, r0
 1651              	.LBB35:
 1652              	.LBB36:
 1653              		.loc 1 121 0
 1654 0006 0021     		movs	r1, #0
 1655 0008 01A8     		add	r0, sp, #4
 1656              	.LVL271:
 1657 000a 7C22     		movs	r2, #124
 1658 000c FFF7FEFF 		bl	memset
 1659              	.LVL272:
 1660              	.LBE36:
 1661              	.LBE35:
 1662              		.loc 1 583 0
 1663 0010 84B9     		cbnz	r4, .L182
 1664              		.loc 1 586 0
 1665 0012 1348     		ldr	r0, .L183
 1666 0014 FFF7FEFF 		bl	strlen
 1667              	.LVL273:
 1668 0018 1149     		ldr	r1, .L183
 1669 001a 0246     		mov	r2, r0
 1670 001c 01A8     		add	r0, sp, #4
 1671              	.LVL274:
 1672 001e FFF7FEFF 		bl	dhm_parse_dhm
 1673              	.LVL275:
 1674 0022 041C     		adds	r4, r0, #0
 1675              	.LVL276:
 1676 0024 18BF     		it	ne
 1677 0026 0124     		movne	r4, #1
 1678              	.LVL277:
 1679              	.L179:
 1680              		.loc 1 600 0
 1681 0028 01A8     		add	r0, sp, #4
 1682              	.LVL278:
 1683 002a FFF7FEFF 		bl	dhm_free
 1684              	.LVL279:
 1685              		.loc 1 609 0
 1686 002e 2046     		mov	r0, r4
 1687 0030 20B0     		add	sp, sp, #128
 1688              		.cfi_remember_state
 1689              		.cfi_def_cfa_offset 8
 1690              		@ sp needed
 1691 0032 10BD     		pop	{r4, pc}
 1692              	.LVL280:
 1693              	.L182:
 1694              		.cfi_restore_state
 1695              		.loc 1 584 0
 1696 0034 0B48     		ldr	r0, .L183+4
 1697 0036 FFF7FEFF 		bl	printf
 1698              	.LVL281:
 1699              		.loc 1 586 0
ARM GAS  C:\Users\jo\AppData\Local\Temp\cc5OnyVz.s 			page 31


 1700 003a 0948     		ldr	r0, .L183
 1701 003c FFF7FEFF 		bl	strlen
 1702              	.LVL282:
 1703 0040 0749     		ldr	r1, .L183
 1704 0042 0246     		mov	r2, r0
 1705 0044 01A8     		add	r0, sp, #4
 1706              	.LVL283:
 1707 0046 FFF7FEFF 		bl	dhm_parse_dhm
 1708              	.LVL284:
 1709 004a 0446     		mov	r4, r0
 1710              	.LVL285:
 1711 004c 20B1     		cbz	r0, .L178
 1712              		.loc 1 590 0
 1713 004e 0648     		ldr	r0, .L183+8
 1714              	.LVL286:
 1715 0050 FFF7FEFF 		bl	puts
 1716              	.LVL287:
 1717              		.loc 1 592 0
 1718 0054 0124     		movs	r4, #1
 1719              	.LVL288:
 1720 0056 E7E7     		b	.L179
 1721              	.LVL289:
 1722              	.L178:
 1723              		.loc 1 597 0
 1724 0058 0448     		ldr	r0, .L183+12
 1725              	.LVL290:
 1726 005a FFF7FEFF 		bl	puts
 1727              	.LVL291:
 1728 005e E3E7     		b	.L179
 1729              	.L184:
 1730              		.align	2
 1731              	.L183:
 1732 0060 00000000 		.word	test_dhm_params
 1733 0064 40000000 		.word	.LC3
 1734 0068 58000000 		.word	.LC4
 1735 006c 60000000 		.word	.LC5
 1736              		.cfi_endproc
 1737              	.LFE14:
 1738              		.size	dhm_self_test, .-dhm_self_test
 1739              		.section	.rodata.str1.4,"aMS",%progbits,1
 1740              		.align	2
 1741              	.LC0:
 1742 0000 2D2D2D2D 		.ascii	"-----BEGIN DH PARAMETERS-----\000"
 1742      2D424547 
 1742      494E2044 
 1742      48205041 
 1742      52414D45 
 1743 001e 0000     		.space	2
 1744              	.LC1:
 1745 0020 2D2D2D2D 		.ascii	"-----END DH PARAMETERS-----\000"
 1745      2D454E44 
 1745      20444820 
 1745      50415241 
 1745      4D455445 
 1746              	.LC2:
 1747 003c 726200   		.ascii	"rb\000"
 1748 003f 00       		.space	1
ARM GAS  C:\Users\jo\AppData\Local\Temp\cc5OnyVz.s 			page 32


 1749              	.LC3:
 1750 0040 20204448 		.ascii	"  DHM parameter load: \000"
 1750      4D207061 
 1750      72616D65 
 1750      74657220 
 1750      6C6F6164 
 1751 0057 00       		.space	1
 1752              	.LC4:
 1753 0058 6661696C 		.ascii	"failed\000"
 1753      656400
 1754 005f 00       		.space	1
 1755              	.LC5:
 1756 0060 70617373 		.ascii	"passed\012\000"
 1756      65640A00 
 1757              		.text
 1758              	.Letext0:
 1759              		.file 2 "c:\\program files\\gnu tools arm embedded\\4.9 2014q4\\lib\\gcc\\arm-none-eabi\\4.9.3\\in
 1760              		.file 3 "c:\\program files\\gnu tools arm embedded\\4.9 2014q4\\arm-none-eabi\\include\\machine\\_
 1761              		.file 4 "c:\\program files\\gnu tools arm embedded\\4.9 2014q4\\arm-none-eabi\\include\\sys\\lock.
 1762              		.file 5 "c:\\program files\\gnu tools arm embedded\\4.9 2014q4\\arm-none-eabi\\include\\sys\\_type
 1763              		.file 6 "c:\\program files\\gnu tools arm embedded\\4.9 2014q4\\arm-none-eabi\\include\\sys\\reent
 1764              		.file 7 "c:\\program files\\gnu tools arm embedded\\4.9 2014q4\\arm-none-eabi\\include\\stdio.h"
 1765              		.file 8 "c:\\program files\\gnu tools arm embedded\\4.9 2014q4\\arm-none-eabi\\include\\stdint.h"
 1766              		.file 9 "../../../ext/mbedtls-1.3.11/library/../include/polarssl/bignum.h"
 1767              		.file 10 "../../../ext/mbedtls-1.3.11/library/../include/polarssl/dhm.h"
 1768              		.file 11 "../../../ext/mbedtls-1.3.11/library/../include/polarssl/pem.h"
 1769              		.file 12 "../../../ext/mbedtls-1.3.11/library/../include/polarssl/asn1.h"
 1770              		.file 13 "c:\\program files\\gnu tools arm embedded\\4.9 2014q4\\arm-none-eabi\\include\\stdlib.h"
 1771              		.file 14 "c:\\program files\\gnu tools arm embedded\\4.9 2014q4\\arm-none-eabi\\include\\string.h"
 1772              		.file 15 "<built-in>"
 1773              		.file 16 "../../../ext/mbedtls-1.3.11/library/../include/polarssl/certs.h"