ARM GAS  C:\Users\jo\AppData\Local\Temp\cc5J3dQf.s 			page 1


   1              		.syntax unified
   2              		.cpu cortex-m4
   3              		.fpu softvfp
   4              		.eabi_attribute 20, 1
   5              		.eabi_attribute 21, 1
   6              		.eabi_attribute 23, 3
   7              		.eabi_attribute 24, 1
   8              		.eabi_attribute 25, 1
   9              		.eabi_attribute 26, 1
  10              		.eabi_attribute 30, 2
  11              		.eabi_attribute 34, 1
  12              		.eabi_attribute 18, 4
  13              		.thumb
  14              		.file	"ecdh.c"
  15              		.text
  16              	.Ltext0:
  17              		.cfi_sections	.debug_frame
  18              		.section	.text.ecdh_gen_public,"ax",%progbits
  19              		.align	2
  20              		.p2align 4,,15
  21              		.global	ecdh_gen_public
  22              		.thumb
  23              		.thumb_func
  24              		.type	ecdh_gen_public, %function
  25              	ecdh_gen_public:
  26              	.LFB0:
  27              		.file 1 "../../../ext/mbedtls-1.3.11/library/ecdh.c"
  28              		.loc 1 48 0
  29              		.cfi_startproc
  30              		@ args = 4, pretend = 0, frame = 0
  31              		@ frame_needed = 0, uses_anonymous_args = 0
  32              		@ link register save eliminated.
  33              	.LVL0:
  34              		.loc 1 49 0
  35 0000 FFF7FEBF 		b	ecp_gen_keypair
  36              	.LVL1:
  37              		.cfi_endproc
  38              	.LFE0:
  39              		.size	ecdh_gen_public, .-ecdh_gen_public
  40 0004 AFF30080 		.section	.text.ecdh_compute_shared,"ax",%progbits
  40      AFF30080 
  40      AFF30080 
  41              		.align	2
  42              		.p2align 4,,15
  43              		.global	ecdh_compute_shared
  44              		.thumb
  45              		.thumb_func
  46              		.type	ecdh_compute_shared, %function
  47              	ecdh_compute_shared:
  48              	.LFB1:
  49              		.loc 1 59 0
  50              		.cfi_startproc
  51              		@ args = 8, pretend = 0, frame = 40
  52              		@ frame_needed = 0, uses_anonymous_args = 0
  53              	.LVL2:
  54 0000 2DE9F041 		push	{r4, r5, r6, r7, r8, lr}
  55              		.cfi_def_cfa_offset 24
ARM GAS  C:\Users\jo\AppData\Local\Temp\cc5J3dQf.s 			page 2


  56              		.cfi_offset 4, -24
  57              		.cfi_offset 5, -20
  58              		.cfi_offset 6, -16
  59              		.cfi_offset 7, -12
  60              		.cfi_offset 8, -8
  61              		.cfi_offset 14, -4
  62 0004 8CB0     		sub	sp, sp, #48
  63              		.cfi_def_cfa_offset 72
  64              		.loc 1 59 0
  65 0006 1546     		mov	r5, r2
  66 0008 0646     		mov	r6, r0
  67              		.loc 1 63 0
  68 000a 03A8     		add	r0, sp, #12
  69              	.LVL3:
  70              		.loc 1 59 0
  71 000c 8846     		mov	r8, r1
  72 000e 1F46     		mov	r7, r3
  73              		.loc 1 63 0
  74 0010 FFF7FEFF 		bl	ecp_point_init
  75              	.LVL4:
  76              		.loc 1 68 0
  77 0014 3046     		mov	r0, r6
  78 0016 2946     		mov	r1, r5
  79 0018 FFF7FEFF 		bl	ecp_check_pubkey
  80              	.LVL5:
  81 001c 0446     		mov	r4, r0
  82 001e 30B1     		cbz	r0, .L7
  83              	.LVL6:
  84              	.L3:
  85              		.loc 1 81 0
  86 0020 03A8     		add	r0, sp, #12
  87 0022 FFF7FEFF 		bl	ecp_point_free
  88              	.LVL7:
  89              		.loc 1 84 0
  90 0026 2046     		mov	r0, r4
  91 0028 0CB0     		add	sp, sp, #48
  92              		.cfi_remember_state
  93              		.cfi_def_cfa_offset 24
  94              		@ sp needed
  95 002a BDE8F081 		pop	{r4, r5, r6, r7, r8, pc}
  96              	.LVL8:
  97              	.L7:
  98              		.cfi_restore_state
  99              		.loc 1 70 0
 100 002e 129B     		ldr	r3, [sp, #72]
 101 0030 0093     		str	r3, [sp]
 102 0032 139B     		ldr	r3, [sp, #76]
 103 0034 0193     		str	r3, [sp, #4]
 104 0036 3046     		mov	r0, r6
 105              	.LVL9:
 106 0038 3A46     		mov	r2, r7
 107 003a 2B46     		mov	r3, r5
 108 003c 03A9     		add	r1, sp, #12
 109 003e FFF7FEFF 		bl	ecp_mul
 110              	.LVL10:
 111 0042 0446     		mov	r4, r0
 112 0044 0028     		cmp	r0, #0
ARM GAS  C:\Users\jo\AppData\Local\Temp\cc5J3dQf.s 			page 3


 113 0046 EBD1     		bne	.L3
 114              		.loc 1 72 0
 115 0048 03A8     		add	r0, sp, #12
 116              	.LVL11:
 117 004a FFF7FEFF 		bl	ecp_is_zero
 118              	.LVL12:
 119 004e 28B9     		cbnz	r0, .L4
 120              		.loc 1 78 0
 121 0050 4046     		mov	r0, r8
 122 0052 03A9     		add	r1, sp, #12
 123 0054 FFF7FEFF 		bl	mpi_copy
 124              	.LVL13:
 125 0058 0446     		mov	r4, r0
 126              	.LVL14:
 127 005a E1E7     		b	.L3
 128              	.LVL15:
 129              	.L4:
 130              		.loc 1 74 0
 131 005c 004C     		ldr	r4, .L8
 132              	.LVL16:
 133 005e DFE7     		b	.L3
 134              	.L9:
 135              		.align	2
 136              	.L8:
 137 0060 80B0FFFF 		.word	-20352
 138              		.cfi_endproc
 139              	.LFE1:
 140              		.size	ecdh_compute_shared, .-ecdh_compute_shared
 141 0064 AFF30080 		.section	.text.ecdh_init,"ax",%progbits
 141      AFF30080 
 141      AFF30080 
 142              		.align	2
 143              		.p2align 4,,15
 144              		.global	ecdh_init
 145              		.thumb
 146              		.thumb_func
 147              		.type	ecdh_init, %function
 148              	ecdh_init:
 149              	.LFB2:
 150              		.loc 1 90 0
 151              		.cfi_startproc
 152              		@ args = 0, pretend = 0, frame = 0
 153              		@ frame_needed = 0, uses_anonymous_args = 0
 154              		@ link register save eliminated.
 155              	.LVL17:
 156              		.loc 1 91 0
 157 0000 0021     		movs	r1, #0
 158 0002 4FF49A72 		mov	r2, #308
 159 0006 FFF7FEBF 		b	memset
 160              	.LVL18:
 161              		.cfi_endproc
 162              	.LFE2:
 163              		.size	ecdh_init, .-ecdh_init
 164 000a 00BFAFF3 		.section	.text.ecdh_free,"ax",%progbits
 164      0080
 165              		.align	2
 166              		.p2align 4,,15
ARM GAS  C:\Users\jo\AppData\Local\Temp\cc5J3dQf.s 			page 4


 167              		.global	ecdh_free
 168              		.thumb
 169              		.thumb_func
 170              		.type	ecdh_free, %function
 171              	ecdh_free:
 172              	.LFB3:
 173              		.loc 1 98 0
 174              		.cfi_startproc
 175              		@ args = 0, pretend = 0, frame = 0
 176              		@ frame_needed = 0, uses_anonymous_args = 0
 177              	.LVL19:
 178              		.loc 1 99 0
 179 0000 08B3     		cbz	r0, .L14
 180              		.loc 1 98 0
 181 0002 10B5     		push	{r4, lr}
 182              		.cfi_def_cfa_offset 8
 183              		.cfi_offset 4, -8
 184              		.cfi_offset 14, -4
 185 0004 0446     		mov	r4, r0
 186              		.loc 1 102 0
 187 0006 FFF7FEFF 		bl	ecp_group_free
 188              	.LVL20:
 189              		.loc 1 103 0
 190 000a 04F18800 		add	r0, r4, #136
 191 000e FFF7FEFF 		bl	ecp_point_free
 192              	.LVL21:
 193              		.loc 1 104 0
 194 0012 04F1AC00 		add	r0, r4, #172
 195 0016 FFF7FEFF 		bl	ecp_point_free
 196              	.LVL22:
 197              		.loc 1 105 0
 198 001a 04F1E000 		add	r0, r4, #224
 199 001e FFF7FEFF 		bl	ecp_point_free
 200              	.LVL23:
 201              		.loc 1 106 0
 202 0022 04F58270 		add	r0, r4, #260
 203 0026 FFF7FEFF 		bl	ecp_point_free
 204              	.LVL24:
 205              		.loc 1 107 0
 206 002a 04F17C00 		add	r0, r4, #124
 207 002e FFF7FEFF 		bl	mpi_free
 208              	.LVL25:
 209              		.loc 1 108 0
 210 0032 04F1D000 		add	r0, r4, #208
 211 0036 FFF7FEFF 		bl	mpi_free
 212              	.LVL26:
 213              		.loc 1 109 0
 214 003a 04F59470 		add	r0, r4, #296
 215              		.loc 1 110 0
 216 003e BDE81040 		pop	{r4, lr}
 217              		.cfi_restore 14
 218              		.cfi_restore 4
 219              		.cfi_def_cfa_offset 0
 220              	.LVL27:
 221              		.loc 1 109 0
 222 0042 FFF7FEBF 		b	mpi_free
 223              	.LVL28:
ARM GAS  C:\Users\jo\AppData\Local\Temp\cc5J3dQf.s 			page 5


 224              	.L14:
 225 0046 7047     		bx	lr
 226              		.cfi_endproc
 227              	.LFE3:
 228              		.size	ecdh_free, .-ecdh_free
 229 0048 AFF30080 		.section	.text.ecdh_make_params,"ax",%progbits
 229      AFF30080 
 230              		.align	2
 231              		.p2align 4,,15
 232              		.global	ecdh_make_params
 233              		.thumb
 234              		.thumb_func
 235              		.type	ecdh_make_params, %function
 236              	ecdh_make_params:
 237              	.LFB4:
 238              		.loc 1 123 0
 239              		.cfi_startproc
 240              		@ args = 8, pretend = 0, frame = 8
 241              		@ frame_needed = 0, uses_anonymous_args = 0
 242              	.LVL29:
 243 0000 2DE9F043 		push	{r4, r5, r6, r7, r8, r9, lr}
 244              		.cfi_def_cfa_offset 28
 245              		.cfi_offset 4, -28
 246              		.cfi_offset 5, -24
 247              		.cfi_offset 6, -20
 248              		.cfi_offset 7, -16
 249              		.cfi_offset 8, -12
 250              		.cfi_offset 9, -8
 251              		.cfi_offset 14, -4
 252 0004 85B0     		sub	sp, sp, #20
 253              		.cfi_def_cfa_offset 48
 254              		.loc 1 127 0
 255 0006 0028     		cmp	r0, #0
 256 0008 36D0     		beq	.L18
 257              		.loc 1 127 0 is_stmt 0 discriminator 1
 258 000a 856D     		ldr	r5, [r0, #88]
 259 000c 0446     		mov	r4, r0
 260 000e 002D     		cmp	r5, #0
 261 0010 32D0     		beq	.L18
 262              		.loc 1 130 0 is_stmt 1
 263 0012 00F18809 		add	r9, r0, #136
 264              	.LVL30:
 265 0016 1F46     		mov	r7, r3
 266              	.LBB6:
 267              	.LBB7:
 268              		.loc 1 49 0
 269 0018 0D9B     		ldr	r3, [sp, #52]
 270              	.LVL31:
 271 001a 0093     		str	r3, [sp]
 272 001c 1646     		mov	r6, r2
 273 001e 8846     		mov	r8, r1
 274 0020 4A46     		mov	r2, r9
 275              	.LVL32:
 276 0022 00F17C01 		add	r1, r0, #124
 277              	.LVL33:
 278 0026 0C9B     		ldr	r3, [sp, #48]
 279 0028 FFF7FEFF 		bl	ecp_gen_keypair
ARM GAS  C:\Users\jo\AppData\Local\Temp\cc5J3dQf.s 			page 6


 280              	.LVL34:
 281              	.LBE7:
 282              	.LBE6:
 283              		.loc 1 130 0
 284 002c 0546     		mov	r5, r0
 285 002e 18B1     		cbz	r0, .L22
 286              	.LVL35:
 287              	.L16:
 288              		.loc 1 147 0
 289 0030 2846     		mov	r0, r5
 290 0032 05B0     		add	sp, sp, #20
 291              		.cfi_remember_state
 292              		.cfi_def_cfa_offset 28
 293              		@ sp needed
 294 0034 BDE8F083 		pop	{r4, r5, r6, r7, r8, r9, pc}
 295              	.LVL36:
 296              	.L22:
 297              		.cfi_restore_state
 298              		.loc 1 134 0
 299 0038 2046     		mov	r0, r4
 300 003a 02A9     		add	r1, sp, #8
 301 003c 3246     		mov	r2, r6
 302 003e 3B46     		mov	r3, r7
 303 0040 FFF7FEFF 		bl	ecp_tls_write_group
 304              	.LVL37:
 305 0044 20B1     		cbz	r0, .L23
 306              	.LVL38:
 307              	.L20:
 308 0046 0546     		mov	r5, r0
 309              		.loc 1 147 0
 310 0048 2846     		mov	r0, r5
 311 004a 05B0     		add	sp, sp, #20
 312              		.cfi_remember_state
 313              		.cfi_def_cfa_offset 28
 314              		@ sp needed
 315 004c BDE8F083 		pop	{r4, r5, r6, r7, r8, r9, pc}
 316              	.LVL39:
 317              	.L23:
 318              		.cfi_restore_state
 319              		.loc 1 138 0
 320 0050 029B     		ldr	r3, [sp, #8]
 321              	.LVL40:
 322              		.loc 1 141 0
 323 0052 D4F8DC20 		ldr	r2, [r4, #220]
 324              		.loc 1 138 0
 325 0056 1E44     		add	r6, r6, r3
 326              	.LVL41:
 327              		.loc 1 139 0
 328 0058 FB1A     		subs	r3, r7, r3
 329              	.LVL42:
 330              		.loc 1 141 0
 331 005a 0193     		str	r3, [sp, #4]
 332 005c 4946     		mov	r1, r9
 333 005e 0096     		str	r6, [sp]
 334 0060 2046     		mov	r0, r4
 335              	.LVL43:
 336 0062 03AB     		add	r3, sp, #12
ARM GAS  C:\Users\jo\AppData\Local\Temp\cc5J3dQf.s 			page 7


 337              	.LVL44:
 338 0064 FFF7FEFF 		bl	ecp_tls_write_point
 339              	.LVL45:
 340 0068 0028     		cmp	r0, #0
 341 006a ECD1     		bne	.L20
 342              		.loc 1 145 0
 343 006c 039A     		ldr	r2, [sp, #12]
 344 006e 029B     		ldr	r3, [sp, #8]
 345 0070 1344     		add	r3, r3, r2
 346 0072 C8F80030 		str	r3, [r8]
 347              		.loc 1 146 0
 348 0076 DBE7     		b	.L16
 349              	.LVL46:
 350              	.L18:
 351              		.loc 1 128 0
 352 0078 004D     		ldr	r5, .L24
 353 007a D9E7     		b	.L16
 354              	.L25:
 355              		.align	2
 356              	.L24:
 357 007c 80B0FFFF 		.word	-20352
 358              		.cfi_endproc
 359              	.LFE4:
 360              		.size	ecdh_make_params, .-ecdh_make_params
 361              		.section	.text.ecdh_read_params,"ax",%progbits
 362              		.align	2
 363              		.p2align 4,,15
 364              		.global	ecdh_read_params
 365              		.thumb
 366              		.thumb_func
 367              		.type	ecdh_read_params, %function
 368              	ecdh_read_params:
 369              	.LFB5:
 370              		.loc 1 158 0
 371              		.cfi_startproc
 372              		@ args = 0, pretend = 0, frame = 0
 373              		@ frame_needed = 0, uses_anonymous_args = 0
 374              	.LVL47:
 375 0000 70B5     		push	{r4, r5, r6, lr}
 376              		.cfi_def_cfa_offset 16
 377              		.cfi_offset 4, -16
 378              		.cfi_offset 5, -12
 379              		.cfi_offset 6, -8
 380              		.cfi_offset 14, -4
 381              		.loc 1 158 0
 382 0002 1546     		mov	r5, r2
 383              		.loc 1 161 0
 384 0004 0A68     		ldr	r2, [r1]
 385              	.LVL48:
 386 0006 AA1A     		subs	r2, r5, r2
 387              		.loc 1 158 0
 388 0008 0C46     		mov	r4, r1
 389 000a 0646     		mov	r6, r0
 390              		.loc 1 161 0
 391 000c FFF7FEFF 		bl	ecp_tls_read_group
 392              	.LVL49:
 393 0010 00B1     		cbz	r0, .L29
ARM GAS  C:\Users\jo\AppData\Local\Temp\cc5J3dQf.s 			page 8


 394              		.loc 1 169 0
 395 0012 70BD     		pop	{r4, r5, r6, pc}
 396              	.LVL50:
 397              	.L29:
 398              		.loc 1 164 0
 399 0014 2368     		ldr	r3, [r4]
 400 0016 2246     		mov	r2, r4
 401 0018 EB1A     		subs	r3, r5, r3
 402 001a 3046     		mov	r0, r6
 403              	.LVL51:
 404 001c 06F1AC01 		add	r1, r6, #172
 405              		.loc 1 169 0
 406 0020 BDE87040 		pop	{r4, r5, r6, lr}
 407              		.cfi_restore 14
 408              		.cfi_restore 6
 409              		.cfi_restore 5
 410              		.cfi_restore 4
 411              		.cfi_def_cfa_offset 0
 412              	.LVL52:
 413              		.loc 1 164 0
 414 0024 FFF7FEBF 		b	ecp_tls_read_point
 415              	.LVL53:
 416              		.cfi_endproc
 417              	.LFE5:
 418              		.size	ecdh_read_params, .-ecdh_read_params
 419 0028 AFF30080 		.section	.text.ecdh_get_params,"ax",%progbits
 419      AFF30080 
 420              		.align	2
 421              		.p2align 4,,15
 422              		.global	ecdh_get_params
 423              		.thumb
 424              		.thumb_func
 425              		.type	ecdh_get_params, %function
 426              	ecdh_get_params:
 427              	.LFB6:
 428              		.loc 1 176 0
 429              		.cfi_startproc
 430              		@ args = 0, pretend = 0, frame = 0
 431              		@ frame_needed = 0, uses_anonymous_args = 0
 432              	.LVL54:
 433 0000 70B5     		push	{r4, r5, r6, lr}
 434              		.cfi_def_cfa_offset 16
 435              		.cfi_offset 4, -16
 436              		.cfi_offset 5, -12
 437              		.cfi_offset 6, -8
 438              		.cfi_offset 14, -4
 439              		.loc 1 176 0
 440 0002 1446     		mov	r4, r2
 441 0004 0646     		mov	r6, r0
 442 0006 0D46     		mov	r5, r1
 443              		.loc 1 179 0
 444 0008 FFF7FEFF 		bl	ecp_group_copy
 445              	.LVL55:
 446 000c 48B9     		cbnz	r0, .L31
 447              		.loc 1 183 0
 448 000e 012C     		cmp	r4, #1
 449 0010 10D0     		beq	.L37
ARM GAS  C:\Users\jo\AppData\Local\Temp\cc5J3dQf.s 			page 9


 450              		.loc 1 187 0
 451 0012 BCB9     		cbnz	r4, .L34
 452              		.loc 1 190 0
 453 0014 06F18800 		add	r0, r6, #136
 454              	.LVL56:
 455 0018 05F18801 		add	r1, r5, #136
 456 001c FFF7FEFF 		bl	ecp_copy
 457              	.LVL57:
 458 0020 00B1     		cbz	r0, .L38
 459              	.LVL58:
 460              	.L31:
 461              		.loc 1 195 0
 462 0022 70BD     		pop	{r4, r5, r6, pc}
 463              	.LVL59:
 464              	.L38:
 465              		.loc 1 190 0 discriminator 1
 466 0024 06F17C00 		add	r0, r6, #124
 467              	.LVL60:
 468 0028 05F17C01 		add	r1, r5, #124
 469              		.loc 1 195 0 discriminator 1
 470 002c BDE87040 		pop	{r4, r5, r6, lr}
 471              		.cfi_remember_state
 472              		.cfi_restore 14
 473              		.cfi_restore 6
 474              		.cfi_restore 5
 475              		.cfi_restore 4
 476              		.cfi_def_cfa_offset 0
 477              	.LVL61:
 478              		.loc 1 190 0 discriminator 1
 479 0030 FFF7FEBF 		b	mpi_copy
 480              	.LVL62:
 481              	.L37:
 482              		.cfi_restore_state
 483              		.loc 1 184 0
 484 0034 06F1AC00 		add	r0, r6, #172
 485              	.LVL63:
 486 0038 05F18801 		add	r1, r5, #136
 487              		.loc 1 195 0
 488 003c BDE87040 		pop	{r4, r5, r6, lr}
 489              		.cfi_remember_state
 490              		.cfi_restore 14
 491              		.cfi_restore 6
 492              		.cfi_restore 5
 493              		.cfi_restore 4
 494              		.cfi_def_cfa_offset 0
 495              	.LVL64:
 496              		.loc 1 184 0
 497 0040 FFF7FEBF 		b	ecp_copy
 498              	.LVL65:
 499              	.L34:
 500              		.cfi_restore_state
 501              		.loc 1 188 0
 502 0044 0048     		ldr	r0, .L39
 503              	.LVL66:
 504 0046 ECE7     		b	.L31
 505              	.L40:
 506              		.align	2
ARM GAS  C:\Users\jo\AppData\Local\Temp\cc5J3dQf.s 			page 10


 507              	.L39:
 508 0048 80B0FFFF 		.word	-20352
 509              		.cfi_endproc
 510              	.LFE6:
 511              		.size	ecdh_get_params, .-ecdh_get_params
 512 004c AFF30080 		.section	.text.ecdh_make_public,"ax",%progbits
 513              		.align	2
 514              		.p2align 4,,15
 515              		.global	ecdh_make_public
 516              		.thumb
 517              		.thumb_func
 518              		.type	ecdh_make_public, %function
 519              	ecdh_make_public:
 520              	.LFB7:
 521              		.loc 1 204 0
 522              		.cfi_startproc
 523              		@ args = 8, pretend = 0, frame = 0
 524              		@ frame_needed = 0, uses_anonymous_args = 0
 525              	.LVL67:
 526 0000 2DE9F043 		push	{r4, r5, r6, r7, r8, r9, lr}
 527              		.cfi_def_cfa_offset 28
 528              		.cfi_offset 4, -28
 529              		.cfi_offset 5, -24
 530              		.cfi_offset 6, -20
 531              		.cfi_offset 7, -16
 532              		.cfi_offset 8, -12
 533              		.cfi_offset 9, -8
 534              		.cfi_offset 14, -4
 535 0004 83B0     		sub	sp, sp, #12
 536              		.cfi_def_cfa_offset 40
 537              		.loc 1 204 0
 538 0006 0A9F     		ldr	r7, [sp, #40]
 539 0008 DDF82CE0 		ldr	lr, [sp, #44]
 540              		.loc 1 207 0
 541 000c 00B3     		cbz	r0, .L44
 542              		.loc 1 207 0 is_stmt 0 discriminator 1
 543 000e 866D     		ldr	r6, [r0, #88]
 544 0010 0446     		mov	r4, r0
 545 0012 EEB1     		cbz	r6, .L44
 546              		.loc 1 210 0 is_stmt 1
 547 0014 00F18806 		add	r6, r0, #136
 548              	.LVL68:
 549 0018 1D46     		mov	r5, r3
 550 001a 9046     		mov	r8, r2
 551 001c 8946     		mov	r9, r1
 552              	.LBB8:
 553              	.LBB9:
 554              		.loc 1 49 0
 555 001e CDF800E0 		str	lr, [sp]
 556 0022 3B46     		mov	r3, r7
 557              	.LVL69:
 558 0024 3246     		mov	r2, r6
 559              	.LVL70:
 560 0026 00F17C01 		add	r1, r0, #124
 561              	.LVL71:
 562 002a FFF7FEFF 		bl	ecp_gen_keypair
 563              	.LVL72:
ARM GAS  C:\Users\jo\AppData\Local\Temp\cc5J3dQf.s 			page 11


 564              	.LBE9:
 565              	.LBE8:
 566              		.loc 1 210 0
 567 002e 10B1     		cbz	r0, .L46
 568              	.LVL73:
 569              	.L42:
 570              		.loc 1 216 0
 571 0030 03B0     		add	sp, sp, #12
 572              		.cfi_remember_state
 573              		.cfi_def_cfa_offset 28
 574              		@ sp needed
 575 0032 BDE8F083 		pop	{r4, r5, r6, r7, r8, r9, pc}
 576              	.LVL74:
 577              	.L46:
 578              		.cfi_restore_state
 579              		.loc 1 214 0
 580 0036 D4F8DC20 		ldr	r2, [r4, #220]
 581 003a CDF82880 		str	r8, [sp, #40]
 582 003e 3146     		mov	r1, r6
 583 0040 4B46     		mov	r3, r9
 584 0042 2046     		mov	r0, r4
 585 0044 0B95     		str	r5, [sp, #44]
 586              	.LVL75:
 587              		.loc 1 216 0
 588 0046 03B0     		add	sp, sp, #12
 589              		.cfi_remember_state
 590              		.cfi_def_cfa_offset 28
 591              		@ sp needed
 592 0048 BDE8F043 		pop	{r4, r5, r6, r7, r8, r9, lr}
 593              		.cfi_restore 14
 594              		.cfi_restore 9
 595              		.cfi_restore 8
 596              		.cfi_restore 7
 597              		.cfi_restore 6
 598              		.cfi_restore 5
 599              		.cfi_restore 4
 600              		.cfi_def_cfa_offset 0
 601              	.LVL76:
 602              		.loc 1 214 0
 603 004c FFF7FEBF 		b	ecp_tls_write_point
 604              	.LVL77:
 605              	.L44:
 606              		.cfi_restore_state
 607              		.loc 1 208 0
 608 0050 0048     		ldr	r0, .L47
 609              	.LVL78:
 610 0052 EDE7     		b	.L42
 611              	.L48:
 612              		.align	2
 613              	.L47:
 614 0054 80B0FFFF 		.word	-20352
 615              		.cfi_endproc
 616              	.LFE7:
 617              		.size	ecdh_make_public, .-ecdh_make_public
 618 0058 AFF30080 		.section	.text.ecdh_read_public,"ax",%progbits
 618      AFF30080 
 619              		.align	2
ARM GAS  C:\Users\jo\AppData\Local\Temp\cc5J3dQf.s 			page 12


 620              		.p2align 4,,15
 621              		.global	ecdh_read_public
 622              		.thumb
 623              		.thumb_func
 624              		.type	ecdh_read_public, %function
 625              	ecdh_read_public:
 626              	.LFB8:
 627              		.loc 1 223 0
 628              		.cfi_startproc
 629              		@ args = 0, pretend = 0, frame = 8
 630              		@ frame_needed = 0, uses_anonymous_args = 0
 631              	.LVL79:
 632 0000 30B5     		push	{r4, r5, lr}
 633              		.cfi_def_cfa_offset 12
 634              		.cfi_offset 4, -12
 635              		.cfi_offset 5, -8
 636              		.cfi_offset 14, -4
 637 0002 83B0     		sub	sp, sp, #12
 638              		.cfi_def_cfa_offset 24
 639              		.loc 1 225 0
 640 0004 0191     		str	r1, [sp, #4]
 641              		.loc 1 227 0
 642 0006 70B1     		cbz	r0, .L52
 643 0008 1546     		mov	r5, r2
 644 000a 0C46     		mov	r4, r1
 645              		.loc 1 230 0
 646 000c 01AA     		add	r2, sp, #4
 647              	.LVL80:
 648 000e 00F1AC01 		add	r1, r0, #172
 649              	.LVL81:
 650 0012 2B46     		mov	r3, r5
 651 0014 FFF7FEFF 		bl	ecp_tls_read_point
 652              	.LVL82:
 653 0018 18B9     		cbnz	r0, .L51
 654              		.loc 1 233 0
 655 001a 0199     		ldr	r1, [sp, #4]
 656 001c 091B     		subs	r1, r1, r4
 657 001e A942     		cmp	r1, r5
 658 0020 01D1     		bne	.L52
 659              	.LVL83:
 660              	.L51:
 661              		.loc 1 237 0
 662 0022 03B0     		add	sp, sp, #12
 663              		.cfi_remember_state
 664              		.cfi_def_cfa_offset 12
 665              		@ sp needed
 666 0024 30BD     		pop	{r4, r5, pc}
 667              	.L52:
 668              		.cfi_restore_state
 669              		.loc 1 228 0
 670 0026 0148     		ldr	r0, .L55
 671 0028 FBE7     		b	.L51
 672              	.L56:
 673 002a 00BF     		.align	2
 674              	.L55:
 675 002c 80B0FFFF 		.word	-20352
 676              		.cfi_endproc
ARM GAS  C:\Users\jo\AppData\Local\Temp\cc5J3dQf.s 			page 13


 677              	.LFE8:
 678              		.size	ecdh_read_public, .-ecdh_read_public
 679              		.section	.text.ecdh_calc_secret,"ax",%progbits
 680              		.align	2
 681              		.p2align 4,,15
 682              		.global	ecdh_calc_secret
 683              		.thumb
 684              		.thumb_func
 685              		.type	ecdh_calc_secret, %function
 686              	ecdh_calc_secret:
 687              	.LFB9:
 688              		.loc 1 246 0
 689              		.cfi_startproc
 690              		@ args = 8, pretend = 0, frame = 0
 691              		@ frame_needed = 0, uses_anonymous_args = 0
 692              	.LVL84:
 693 0000 2DE9F041 		push	{r4, r5, r6, r7, r8, lr}
 694              		.cfi_def_cfa_offset 24
 695              		.cfi_offset 4, -24
 696              		.cfi_offset 5, -20
 697              		.cfi_offset 6, -16
 698              		.cfi_offset 7, -12
 699              		.cfi_offset 8, -8
 700              		.cfi_offset 14, -4
 701 0004 82B0     		sub	sp, sp, #8
 702              		.cfi_def_cfa_offset 32
 703              		.loc 1 246 0
 704 0006 DDF820C0 		ldr	ip, [sp, #32]
 705 000a DDF824E0 		ldr	lr, [sp, #36]
 706              		.loc 1 249 0
 707 000e 30B3     		cbz	r0, .L60
 708              		.loc 1 252 0
 709 0010 00F1D008 		add	r8, r0, #208
 710 0014 1D46     		mov	r5, r3
 711 0016 1746     		mov	r7, r2
 712 0018 0E46     		mov	r6, r1
 713 001a 8DE80050 		stmia	sp, {ip, lr}
 714 001e 4146     		mov	r1, r8
 715              	.LVL85:
 716 0020 00F1AC02 		add	r2, r0, #172
 717              	.LVL86:
 718 0024 00F17C03 		add	r3, r0, #124
 719              	.LVL87:
 720 0028 0446     		mov	r4, r0
 721 002a FFF7FEFF 		bl	ecdh_compute_shared
 722              	.LVL88:
 723 002e 10B1     		cbz	r0, .L63
 724              	.LVL89:
 725              	.L59:
 726              		.loc 1 263 0
 727 0030 02B0     		add	sp, sp, #8
 728              		.cfi_remember_state
 729              		.cfi_def_cfa_offset 24
 730              		@ sp needed
 731 0032 BDE8F081 		pop	{r4, r5, r6, r7, r8, pc}
 732              	.LVL90:
 733              	.L63:
ARM GAS  C:\Users\jo\AppData\Local\Temp\cc5J3dQf.s 			page 14


 734              		.cfi_restore_state
 735              		.loc 1 258 0
 736 0036 4046     		mov	r0, r8
 737              	.LVL91:
 738 0038 FFF7FEFF 		bl	mpi_size
 739              	.LVL92:
 740 003c A842     		cmp	r0, r5
 741 003e 0ED8     		bhi	.L60
 742              		.loc 1 261 0
 743 0040 A26D     		ldr	r2, [r4, #88]
 744 0042 12F00703 		ands	r3, r2, #7
 745 0046 18BF     		it	ne
 746 0048 0123     		movne	r3, #1
 747 004a 03EBD202 		add	r2, r3, r2, lsr #3
 748              		.loc 1 262 0
 749 004e 4046     		mov	r0, r8
 750 0050 3946     		mov	r1, r7
 751              		.loc 1 261 0
 752 0052 3260     		str	r2, [r6]
 753              		.loc 1 263 0
 754 0054 02B0     		add	sp, sp, #8
 755              		.cfi_remember_state
 756              		.cfi_def_cfa_offset 24
 757              		@ sp needed
 758 0056 BDE8F041 		pop	{r4, r5, r6, r7, r8, lr}
 759              		.cfi_restore 14
 760              		.cfi_restore 8
 761              		.cfi_restore 7
 762              		.cfi_restore 6
 763              		.cfi_restore 5
 764              		.cfi_restore 4
 765              		.cfi_def_cfa_offset 0
 766              	.LVL93:
 767              		.loc 1 262 0
 768 005a FFF7FEBF 		b	mpi_write_binary
 769              	.LVL94:
 770              	.L60:
 771              		.cfi_restore_state
 772              		.loc 1 250 0
 773 005e 0148     		ldr	r0, .L64
 774 0060 E6E7     		b	.L59
 775              	.L65:
 776 0062 00BF     		.align	2
 777              	.L64:
 778 0064 80B0FFFF 		.word	-20352
 779              		.cfi_endproc
 780              	.LFE9:
 781              		.size	ecdh_calc_secret, .-ecdh_calc_secret
 782 0068 AFF30080 		.section	.text.ecdh_self_test,"ax",%progbits
 782      AFF30080 
 783              		.align	2
 784              		.p2align 4,,15
 785              		.global	ecdh_self_test
 786              		.thumb
 787              		.thumb_func
 788              		.type	ecdh_self_test, %function
 789              	ecdh_self_test:
ARM GAS  C:\Users\jo\AppData\Local\Temp\cc5J3dQf.s 			page 15


 790              	.LFB10:
 791              		.loc 1 272 0
 792              		.cfi_startproc
 793              		@ args = 0, pretend = 0, frame = 0
 794              		@ frame_needed = 0, uses_anonymous_args = 0
 795              		@ link register save eliminated.
 796              	.LVL95:
 797              		.loc 1 275 0
 798 0000 0020     		movs	r0, #0
 799              	.LVL96:
 800 0002 7047     		bx	lr
 801              		.cfi_endproc
 802              	.LFE10:
 803              		.size	ecdh_self_test, .-ecdh_self_test
 804 0004 AFF30080 		.text
 804      AFF30080 
 804      AFF30080 
 805              	.Letext0:
 806              		.file 2 "c:\\program files\\gnu tools arm embedded\\4.9 2014q4\\lib\\gcc\\arm-none-eabi\\4.9.3\\in
 807              		.file 3 "c:\\program files\\gnu tools arm embedded\\4.9 2014q4\\arm-none-eabi\\include\\machine\\_
 808              		.file 4 "c:\\program files\\gnu tools arm embedded\\4.9 2014q4\\arm-none-eabi\\include\\stdint.h"
 809              		.file 5 "../../../ext/mbedtls-1.3.11/library/../include/polarssl/bignum.h"
 810              		.file 6 "../../../ext/mbedtls-1.3.11/library/../include/polarssl/ecp.h"
 811              		.file 7 "../../../ext/mbedtls-1.3.11/library/../include/polarssl/ecdh.h"