ARM GAS  C:\Users\jo\AppData\Local\Temp\ccy0MFBs.s 			page 1


   1              		.syntax unified
   2              		.cpu cortex-m4
   3              		.fpu softvfp
   4              		.eabi_attribute 20, 1
   5              		.eabi_attribute 21, 1
   6              		.eabi_attribute 23, 3
   7              		.eabi_attribute 24, 1
   8              		.eabi_attribute 25, 1
   9              		.eabi_attribute 26, 1
  10              		.eabi_attribute 30, 2
  11              		.eabi_attribute 34, 1
  12              		.eabi_attribute 18, 4
  13              		.thumb
  14              		.file	"ecdsa.c"
  15              		.text
  16              	.Ltext0:
  17              		.cfi_sections	.debug_frame
  18              		.section	.text.derive_mpi,"ax",%progbits
  19              		.align	2
  20              		.p2align 4,,15
  21              		.thumb
  22              		.thumb_func
  23              		.type	derive_mpi, %function
  24              	derive_mpi:
  25              	.LFB4:
  26              		.file 1 "../../../ext/mbedtls-1.3.11/library/ecdsa.c"
  27              		.loc 1 80 0
  28              		.cfi_startproc
  29              		@ args = 0, pretend = 0, frame = 0
  30              		@ frame_needed = 0, uses_anonymous_args = 0
  31              	.LVL0:
  32 0000 F8B5     		push	{r3, r4, r5, r6, r7, lr}
  33              		.cfi_def_cfa_offset 24
  34              		.cfi_offset 3, -24
  35              		.cfi_offset 4, -20
  36              		.cfi_offset 5, -16
  37              		.cfi_offset 6, -12
  38              		.cfi_offset 7, -8
  39              		.cfi_offset 14, -4
  40              		.loc 1 82 0
  41 0002 C46D     		ldr	r4, [r0, #92]
  42 0004 0734     		adds	r4, r4, #7
  43 0006 E408     		lsrs	r4, r4, #3
  44              		.loc 1 83 0
  45 0008 9C42     		cmp	r4, r3
  46              		.loc 1 80 0
  47 000a 0E46     		mov	r6, r1
  48              		.loc 1 83 0
  49 000c 28BF     		it	cs
  50 000e 1C46     		movcs	r4, r3
  51              		.loc 1 85 0
  52 0010 1146     		mov	r1, r2
  53              	.LVL1:
  54              		.loc 1 80 0
  55 0012 0546     		mov	r5, r0
  56              	.LVL2:
  57              		.loc 1 85 0
ARM GAS  C:\Users\jo\AppData\Local\Temp\ccy0MFBs.s 			page 2


  58 0014 2246     		mov	r2, r4
  59              	.LVL3:
  60 0016 3046     		mov	r0, r6
  61              	.LVL4:
  62 0018 FFF7FEFF 		bl	mpi_read_binary
  63              	.LVL5:
  64 001c 0746     		mov	r7, r0
  65 001e C0B9     		cbnz	r0, .L2
  66              		.loc 1 86 0
  67 0020 E96D     		ldr	r1, [r5, #92]
  68 0022 E400     		lsls	r4, r4, #3
  69              	.LVL6:
  70 0024 8C42     		cmp	r4, r1
  71 0026 0DD8     		bhi	.L3
  72              	.L5:
  73              	.LVL7:
  74              		.loc 1 90 0
  75 0028 4C35     		adds	r5, r5, #76
  76              	.LVL8:
  77 002a 2946     		mov	r1, r5
  78 002c 3046     		mov	r0, r6
  79 002e FFF7FEFF 		bl	mpi_cmp_mpi
  80              	.LVL9:
  81 0032 0028     		cmp	r0, #0
  82 0034 0DDB     		blt	.L2
  83              		.loc 1 91 0
  84 0036 2A46     		mov	r2, r5
  85 0038 3046     		mov	r0, r6
  86 003a 3146     		mov	r1, r6
  87              		.loc 1 95 0
  88 003c BDE8F840 		pop	{r3, r4, r5, r6, r7, lr}
  89              		.cfi_remember_state
  90              		.cfi_restore 14
  91              		.cfi_restore 7
  92              		.cfi_restore 6
  93              		.cfi_restore 5
  94              		.cfi_restore 4
  95              		.cfi_restore 3
  96              		.cfi_def_cfa_offset 0
  97              	.LVL10:
  98              		.loc 1 91 0
  99 0040 FFF7FEBF 		b	mpi_sub_mpi
 100              	.LVL11:
 101              	.L3:
 102              		.cfi_restore_state
 103              		.loc 1 87 0
 104 0044 611A     		subs	r1, r4, r1
 105 0046 3046     		mov	r0, r6
 106              	.LVL12:
 107 0048 FFF7FEFF 		bl	mpi_shift_r
 108              	.LVL13:
 109 004c 0028     		cmp	r0, #0
 110 004e EBD0     		beq	.L5
 111 0050 0746     		mov	r7, r0
 112              	.LVL14:
 113              	.L2:
 114              		.loc 1 95 0
ARM GAS  C:\Users\jo\AppData\Local\Temp\ccy0MFBs.s 			page 3


 115 0052 3846     		mov	r0, r7
 116 0054 F8BD     		pop	{r3, r4, r5, r6, r7, pc}
 117              		.cfi_endproc
 118              	.LFE4:
 119              		.size	derive_mpi, .-derive_mpi
 120 0056 00BFAFF3 		.section	.text.ecdsa_signature_to_asn1,"ax",%progbits
 120      0080AFF3 
 120      0080
 121              		.align	2
 122              		.p2align 4,,15
 123              		.thumb
 124              		.thumb_func
 125              		.type	ecdsa_signature_to_asn1, %function
 126              	ecdsa_signature_to_asn1:
 127              	.LFB8:
 128              		.loc 1 342 0
 129              		.cfi_startproc
 130              		@ args = 0, pretend = 0, frame = 152
 131              		@ frame_needed = 0, uses_anonymous_args = 0
 132              	.LVL15:
 133 0000 2DE9F041 		push	{r4, r5, r6, r7, r8, lr}
 134              		.cfi_def_cfa_offset 24
 135              		.cfi_offset 4, -24
 136              		.cfi_offset 5, -20
 137              		.cfi_offset 6, -16
 138              		.cfi_offset 7, -12
 139              		.cfi_offset 8, -8
 140              		.cfi_offset 14, -4
 141 0004 A6B0     		sub	sp, sp, #152
 142              		.cfi_def_cfa_offset 176
 143              		.loc 1 345 0
 144 0006 26AC     		add	r4, sp, #152
 145 0008 0DF19503 		add	r3, sp, #149
 146 000c 44F8943D 		str	r3, [r4, #-148]!
 147              	.LVL16:
 148              		.loc 1 342 0
 149 0010 0646     		mov	r6, r0
 150 0012 8846     		mov	r8, r1
 151 0014 1746     		mov	r7, r2
 152              		.loc 1 348 0
 153 0016 2046     		mov	r0, r4
 154              	.LVL17:
 155 0018 06F1B802 		add	r2, r6, #184
 156              	.LVL18:
 157 001c 02A9     		add	r1, sp, #8
 158              	.LVL19:
 159 001e FFF7FEFF 		bl	asn1_write_mpi
 160              	.LVL20:
 161 0022 051E     		subs	r5, r0, #0
 162 0024 22DB     		blt	.L12
 163              	.LVL21:
 164              		.loc 1 349 0 discriminator 2
 165 0026 06F1AC02 		add	r2, r6, #172
 166 002a 2046     		mov	r0, r4
 167              	.LVL22:
 168 002c 02A9     		add	r1, sp, #8
 169 002e FFF7FEFF 		bl	asn1_write_mpi
ARM GAS  C:\Users\jo\AppData\Local\Temp\ccy0MFBs.s 			page 4


 170              	.LVL23:
 171 0032 0028     		cmp	r0, #0
 172 0034 17DB     		blt	.L11
 173 0036 0544     		add	r5, r5, r0
 174              	.LVL24:
 175              		.loc 1 351 0 discriminator 2
 176 0038 2A46     		mov	r2, r5
 177 003a 2046     		mov	r0, r4
 178              	.LVL25:
 179 003c 02A9     		add	r1, sp, #8
 180 003e FFF7FEFF 		bl	asn1_write_len
 181              	.LVL26:
 182 0042 061E     		subs	r6, r0, #0
 183              	.LVL27:
 184 0044 16DB     		blt	.L14
 185              	.LVL28:
 186              		.loc 1 352 0 discriminator 2
 187 0046 2046     		mov	r0, r4
 188              	.LVL29:
 189 0048 02A9     		add	r1, sp, #8
 190 004a 3022     		movs	r2, #48
 191 004c FFF7FEFF 		bl	asn1_write_tag
 192              	.LVL30:
 193 0050 0028     		cmp	r0, #0
 194 0052 08DB     		blt	.L11
 195              		.loc 1 351 0 discriminator 2
 196 0054 3544     		add	r5, r5, r6
 197              	.LVL31:
 198              		.loc 1 352 0 discriminator 2
 199 0056 0544     		add	r5, r5, r0
 200              	.LVL32:
 201              		.loc 1 355 0 discriminator 2
 202 0058 2A46     		mov	r2, r5
 203 005a 4046     		mov	r0, r8
 204              	.LVL33:
 205 005c 0199     		ldr	r1, [sp, #4]
 206 005e FFF7FEFF 		bl	memcpy
 207              	.LVL34:
 208              		.loc 1 356 0 discriminator 2
 209 0062 3D60     		str	r5, [r7]
 210              		.loc 1 358 0 discriminator 2
 211 0064 0020     		movs	r0, #0
 212              	.LVL35:
 213              	.L11:
 214              		.loc 1 359 0
 215 0066 26B0     		add	sp, sp, #152
 216              		.cfi_remember_state
 217              		.cfi_def_cfa_offset 24
 218              		@ sp needed
 219 0068 BDE8F081 		pop	{r4, r5, r6, r7, r8, pc}
 220              	.LVL36:
 221              	.L12:
 222              		.cfi_restore_state
 223 006c 2846     		mov	r0, r5
 224              	.LVL37:
 225 006e 26B0     		add	sp, sp, #152
 226              		.cfi_remember_state
ARM GAS  C:\Users\jo\AppData\Local\Temp\ccy0MFBs.s 			page 5


 227              		.cfi_def_cfa_offset 24
 228              		@ sp needed
 229 0070 BDE8F081 		pop	{r4, r5, r6, r7, r8, pc}
 230              	.LVL38:
 231              	.L14:
 232              		.cfi_restore_state
 233 0074 3046     		mov	r0, r6
 234              	.LVL39:
 235 0076 26B0     		add	sp, sp, #152
 236              		.cfi_def_cfa_offset 24
 237              		@ sp needed
 238 0078 BDE8F081 		pop	{r4, r5, r6, r7, r8, pc}
 239              		.cfi_endproc
 240              	.LFE8:
 241              		.size	ecdsa_signature_to_asn1, .-ecdsa_signature_to_asn1
 242 007c AFF30080 		.section	.text.ecdsa_sign,"ax",%progbits
 243              		.align	2
 244              		.p2align 4,,15
 245              		.global	ecdsa_sign
 246              		.thumb
 247              		.thumb_func
 248              		.type	ecdsa_sign, %function
 249              	ecdsa_sign:
 250              	.LFB5:
 251              		.loc 1 104 0
 252              		.cfi_startproc
 253              		@ args = 16, pretend = 0, frame = 80
 254              		@ frame_needed = 0, uses_anonymous_args = 0
 255              	.LVL40:
 256 0000 2DE9F04F 		push	{r4, r5, r6, r7, r8, r9, r10, fp, lr}
 257              		.cfi_def_cfa_offset 36
 258              		.cfi_offset 4, -36
 259              		.cfi_offset 5, -32
 260              		.cfi_offset 6, -28
 261              		.cfi_offset 7, -24
 262              		.cfi_offset 8, -20
 263              		.cfi_offset 9, -16
 264              		.cfi_offset 10, -12
 265              		.cfi_offset 11, -8
 266              		.cfi_offset 14, -4
 267              		.loc 1 110 0
 268 0004 446D     		ldr	r4, [r0, #84]
 269              		.loc 1 104 0
 270 0006 97B0     		sub	sp, sp, #92
 271              		.cfi_def_cfa_offset 128
 272              		.loc 1 104 0
 273 0008 239F     		ldr	r7, [sp, #140]
 274              		.loc 1 110 0
 275 000a 002C     		cmp	r4, #0
 276 000c 00F0B580 		beq	.L24
 277 0010 0646     		mov	r6, r0
 278              		.loc 1 113 0
 279 0012 0DA8     		add	r0, sp, #52
 280              	.LVL41:
 281 0014 0293     		str	r3, [sp, #8]
 282 0016 9146     		mov	r9, r2
 283 0018 0D46     		mov	r5, r1
ARM GAS  C:\Users\jo\AppData\Local\Temp\ccy0MFBs.s 			page 6


 284 001a FFF7FEFF 		bl	ecp_point_init
 285              	.LVL42:
 286              		.loc 1 114 0
 287 001e 04A8     		add	r0, sp, #16
 288 0020 FFF7FEFF 		bl	mpi_init
 289              	.LVL43:
 290 0024 07A8     		add	r0, sp, #28
 291 0026 FFF7FEFF 		bl	mpi_init
 292              	.LVL44:
 293 002a 0AA8     		add	r0, sp, #40
 294 002c FFF7FEFF 		bl	mpi_init
 295              	.LVL45:
 296 0030 4FF00C0B 		mov	fp, #12
 297              		.loc 1 127 0
 298 0034 06F14C08 		add	r8, r6, #76
 299              	.LVL46:
 300              	.L23:
 301              		.loc 1 114 0
 302 0038 0C24     		movs	r4, #12
 303 003a 02E0     		b	.L20
 304              	.LVL47:
 305              	.L34:
 306              		.loc 1 135 0
 307 003c FFF7FEFF 		bl	mpi_cmp_int
 308              	.LVL48:
 309 0040 30BB     		cbnz	r0, .L33
 310              	.LVL49:
 311              	.L20:
 312              		.loc 1 126 0
 313 0042 04A9     		add	r1, sp, #16
 314 0044 0DAA     		add	r2, sp, #52
 315 0046 229B     		ldr	r3, [sp, #136]
 316 0048 0097     		str	r7, [sp]
 317 004a 3046     		mov	r0, r6
 318 004c FFF7FEFF 		bl	ecp_gen_keypair
 319              	.LVL50:
 320              		.loc 1 127 0
 321 0050 0DA9     		add	r1, sp, #52
 322              		.loc 1 126 0
 323 0052 0346     		mov	r3, r0
 324              		.loc 1 127 0
 325 0054 4246     		mov	r2, r8
 326              		.loc 1 126 0
 327 0056 48B9     		cbnz	r0, .L19
 328              		.loc 1 127 0
 329 0058 2846     		mov	r0, r5
 330              	.LVL51:
 331 005a FFF7FEFF 		bl	mpi_mod_mpi
 332              	.LVL52:
 333 005e 0346     		mov	r3, r0
 334              		.loc 1 135 0
 335 0060 0146     		mov	r1, r0
 336              		.loc 1 127 0
 337 0062 18B9     		cbnz	r0, .L19
 338              		.loc 1 129 0
 339 0064 013C     		subs	r4, r4, #1
 340              	.LVL53:
ARM GAS  C:\Users\jo\AppData\Local\Temp\ccy0MFBs.s 			page 7


 341              		.loc 1 135 0
 342 0066 2846     		mov	r0, r5
 343              	.LVL54:
 344              		.loc 1 129 0
 345 0068 E8D1     		bne	.L34
 346              	.LVL55:
 347              	.L27:
 348              		.loc 1 173 0
 349 006a 454B     		ldr	r3, .L35
 350              	.LVL56:
 351              	.L19:
 352 006c 0293     		str	r3, [sp, #8]
 353              	.LVL57:
 354              		.loc 1 180 0
 355 006e 0DA8     		add	r0, sp, #52
 356 0070 FFF7FEFF 		bl	ecp_point_free
 357              	.LVL58:
 358              		.loc 1 181 0
 359 0074 04A8     		add	r0, sp, #16
 360 0076 FFF7FEFF 		bl	mpi_free
 361              	.LVL59:
 362 007a 07A8     		add	r0, sp, #28
 363 007c FFF7FEFF 		bl	mpi_free
 364              	.LVL60:
 365 0080 0AA8     		add	r0, sp, #40
 366 0082 FFF7FEFF 		bl	mpi_free
 367              	.LVL61:
 368              		.loc 1 183 0
 369 0086 029B     		ldr	r3, [sp, #8]
 370 0088 1846     		mov	r0, r3
 371              	.LVL62:
 372              	.L18:
 373              		.loc 1 184 0
 374 008a 17B0     		add	sp, sp, #92
 375              		.cfi_remember_state
 376              		.cfi_def_cfa_offset 36
 377              		@ sp needed
 378 008c BDE8F08F 		pop	{r4, r5, r6, r7, r8, r9, r10, fp, pc}
 379              	.LVL63:
 380              	.L33:
 381              		.cfi_restore_state
 382              		.loc 1 140 0
 383 0090 219B     		ldr	r3, [sp, #132]
 384 0092 209A     		ldr	r2, [sp, #128]
 385 0094 3046     		mov	r0, r6
 386 0096 07A9     		add	r1, sp, #28
 387 0098 FFF7FEFF 		bl	derive_mpi
 388              	.LVL64:
 389 009c 0346     		mov	r3, r0
 390 009e 0028     		cmp	r0, #0
 391 00a0 E4D1     		bne	.L19
 392 00a2 1F24     		movs	r4, #31
 393              	.LVL65:
 394              	.L21:
 395              	.LBB2:
 396              		.loc 1 149 0
 397 00a4 F36D     		ldr	r3, [r6, #92]
ARM GAS  C:\Users\jo\AppData\Local\Temp\ccy0MFBs.s 			page 8


 398              		.loc 1 150 0
 399 00a6 229A     		ldr	r2, [sp, #136]
 400              		.loc 1 149 0
 401 00a8 0733     		adds	r3, r3, #7
 402 00aa 4FEAD30A 		lsr	r10, r3, #3
 403              	.LVL66:
 404              		.loc 1 150 0
 405 00ae 5146     		mov	r1, r10
 406 00b0 3B46     		mov	r3, r7
 407 00b2 0AA8     		add	r0, sp, #40
 408 00b4 FFF7FEFF 		bl	mpi_fill_random
 409              	.LVL67:
 410 00b8 0346     		mov	r3, r0
 411 00ba 0028     		cmp	r0, #0
 412 00bc D6D1     		bne	.L19
 413              		.loc 1 151 0
 414 00be F16D     		ldr	r1, [r6, #92]
 415 00c0 0AA8     		add	r0, sp, #40
 416              	.LVL68:
 417 00c2 C1EBCA01 		rsb	r1, r1, r10, lsl #3
 418 00c6 FFF7FEFF 		bl	mpi_shift_r
 419              	.LVL69:
 420              	.LBE2:
 421              		.loc 1 157 0
 422 00ca 0121     		movs	r1, #1
 423              	.LBB3:
 424              		.loc 1 151 0
 425 00cc 0346     		mov	r3, r0
 426 00ce 0028     		cmp	r0, #0
 427 00d0 CCD1     		bne	.L19
 428              		.loc 1 154 0
 429 00d2 013C     		subs	r4, r4, #1
 430              	.LVL70:
 431              	.LBE3:
 432              		.loc 1 157 0
 433 00d4 0AA8     		add	r0, sp, #40
 434              	.LVL71:
 435              	.LBB4:
 436              		.loc 1 154 0
 437 00d6 4ED0     		beq	.L26
 438              	.LBE4:
 439              		.loc 1 157 0
 440 00d8 FFF7FEFF 		bl	mpi_cmp_int
 441              	.LVL72:
 442              		.loc 1 158 0
 443 00dc 0028     		cmp	r0, #0
 444 00de 4146     		mov	r1, r8
 445 00e0 0AA8     		add	r0, sp, #40
 446 00e2 DFDB     		blt	.L21
 447              		.loc 1 158 0 is_stmt 0 discriminator 1
 448 00e4 FFF7FEFF 		bl	mpi_cmp_mpi
 449              	.LVL73:
 450              		.loc 1 157 0 is_stmt 1 discriminator 1
 451 00e8 0028     		cmp	r0, #0
 452 00ea DBDA     		bge	.L21
 453              		.loc 1 163 0
 454 00ec 4846     		mov	r0, r9
ARM GAS  C:\Users\jo\AppData\Local\Temp\ccy0MFBs.s 			page 9


 455 00ee 2946     		mov	r1, r5
 456 00f0 029A     		ldr	r2, [sp, #8]
 457 00f2 FFF7FEFF 		bl	mpi_mul_mpi
 458              	.LVL74:
 459 00f6 0346     		mov	r3, r0
 460 00f8 0028     		cmp	r0, #0
 461 00fa B7D1     		bne	.L19
 462              		.loc 1 164 0
 463 00fc 07A8     		add	r0, sp, #28
 464              	.LVL75:
 465 00fe 0146     		mov	r1, r0
 466 0100 4A46     		mov	r2, r9
 467 0102 FFF7FEFF 		bl	mpi_add_mpi
 468              	.LVL76:
 469 0106 0346     		mov	r3, r0
 470 0108 0028     		cmp	r0, #0
 471 010a AFD1     		bne	.L19
 472              		.loc 1 165 0
 473 010c 07A8     		add	r0, sp, #28
 474              	.LVL77:
 475 010e 0146     		mov	r1, r0
 476 0110 0AAA     		add	r2, sp, #40
 477 0112 FFF7FEFF 		bl	mpi_mul_mpi
 478              	.LVL78:
 479 0116 0346     		mov	r3, r0
 480 0118 0028     		cmp	r0, #0
 481 011a A7D1     		bne	.L19
 482              		.loc 1 166 0
 483 011c 04A8     		add	r0, sp, #16
 484              	.LVL79:
 485 011e 0146     		mov	r1, r0
 486 0120 0AAA     		add	r2, sp, #40
 487 0122 FFF7FEFF 		bl	mpi_mul_mpi
 488              	.LVL80:
 489 0126 0346     		mov	r3, r0
 490 0128 0028     		cmp	r0, #0
 491 012a 9FD1     		bne	.L19
 492              		.loc 1 167 0
 493 012c 4846     		mov	r0, r9
 494              	.LVL81:
 495 012e 04A9     		add	r1, sp, #16
 496 0130 4246     		mov	r2, r8
 497 0132 FFF7FEFF 		bl	mpi_inv_mod
 498              	.LVL82:
 499 0136 0346     		mov	r3, r0
 500 0138 0028     		cmp	r0, #0
 501 013a 97D1     		bne	.L19
 502              		.loc 1 168 0
 503 013c 4846     		mov	r0, r9
 504              	.LVL83:
 505 013e 4946     		mov	r1, r9
 506 0140 07AA     		add	r2, sp, #28
 507 0142 FFF7FEFF 		bl	mpi_mul_mpi
 508              	.LVL84:
 509 0146 0346     		mov	r3, r0
 510 0148 0028     		cmp	r0, #0
 511 014a 8FD1     		bne	.L19
ARM GAS  C:\Users\jo\AppData\Local\Temp\ccy0MFBs.s 			page 10


 512              		.loc 1 169 0
 513 014c 4846     		mov	r0, r9
 514              	.LVL85:
 515 014e 4946     		mov	r1, r9
 516 0150 4246     		mov	r2, r8
 517 0152 FFF7FEFF 		bl	mpi_mod_mpi
 518              	.LVL86:
 519 0156 0346     		mov	r3, r0
 520 0158 0028     		cmp	r0, #0
 521 015a 87D1     		bne	.L19
 522              	.LVL87:
 523              		.loc 1 171 0
 524 015c BBF1010B 		subs	fp, fp, #1
 525              	.LVL88:
 526 0160 83D0     		beq	.L27
 527              		.loc 1 177 0
 528 0162 1946     		mov	r1, r3
 529 0164 4846     		mov	r0, r9
 530              	.LVL89:
 531 0166 0393     		str	r3, [sp, #12]
 532 0168 FFF7FEFF 		bl	mpi_cmp_int
 533              	.LVL90:
 534 016c 039B     		ldr	r3, [sp, #12]
 535 016e 0028     		cmp	r0, #0
 536 0170 3FF462AF 		beq	.L23
 537 0174 7AE7     		b	.L19
 538              	.LVL91:
 539              	.L26:
 540              	.LBB5:
 541              		.loc 1 155 0
 542 0176 0248     		ldr	r0, .L35
 543 0178 87E7     		b	.L18
 544              	.LVL92:
 545              	.L24:
 546              	.LBE5:
 547              		.loc 1 111 0
 548 017a 0248     		ldr	r0, .L35+4
 549              	.LVL93:
 550 017c 85E7     		b	.L18
 551              	.L36:
 552 017e 00BF     		.align	2
 553              	.L35:
 554 0180 00B3FFFF 		.word	-19712
 555 0184 80B0FFFF 		.word	-20352
 556              		.cfi_endproc
 557              	.LFE5:
 558              		.size	ecdsa_sign, .-ecdsa_sign
 559 0188 AFF30080 		.section	.text.ecdsa_sign_det,"ax",%progbits
 559      AFF30080 
 560              		.align	2
 561              		.p2align 4,,15
 562              		.global	ecdsa_sign_det
 563              		.thumb
 564              		.thumb_func
 565              		.type	ecdsa_sign_det, %function
 566              	ecdsa_sign_det:
 567              	.LFB6:
ARM GAS  C:\Users\jo\AppData\Local\Temp\ccy0MFBs.s 			page 11


 568              		.loc 1 193 0
 569              		.cfi_startproc
 570              		@ args = 12, pretend = 0, frame = 240
 571              		@ frame_needed = 0, uses_anonymous_args = 0
 572              	.LVL94:
 573 0000 2DE9F04F 		push	{r4, r5, r6, r7, r8, r9, r10, fp, lr}
 574              		.cfi_def_cfa_offset 36
 575              		.cfi_offset 4, -36
 576              		.cfi_offset 5, -32
 577              		.cfi_offset 6, -28
 578              		.cfi_offset 7, -24
 579              		.cfi_offset 8, -20
 580              		.cfi_offset 9, -16
 581              		.cfi_offset 10, -12
 582              		.cfi_offset 11, -8
 583              		.cfi_offset 14, -4
 584 0004 C1B0     		sub	sp, sp, #260
 585              		.cfi_def_cfa_offset 296
 586              		.loc 1 197 0
 587 0006 C56D     		ldr	r5, [r0, #92]
 588              		.loc 1 193 0
 589 0008 9DF83041 		ldrb	r4, [sp, #304]	@ zero_extendqisi2
 590 000c 4B9E     		ldr	r6, [sp, #300]
 591              		.loc 1 197 0
 592 000e 0735     		adds	r5, r5, #7
 593              		.loc 1 193 0
 594 0010 0746     		mov	r7, r0
 595 0012 8A46     		mov	r10, r1
 596 0014 9146     		mov	r9, r2
 597 0016 9846     		mov	r8, r3
 598              		.loc 1 197 0
 599 0018 ED08     		lsrs	r5, r5, #3
 600              	.LVL95:
 601              		.loc 1 202 0
 602 001a 002C     		cmp	r4, #0
 603 001c 30D1     		bne	.L38
 604              	.LVL96:
 605              	.LBB8:
 606              	.LBB9:
 607              		.loc 1 60 0
 608 001e FFF7FEFF 		bl	md_list
 609              	.LVL97:
 610 0022 8346     		mov	fp, r0
 611              	.LVL98:
 612 0024 0068     		ldr	r0, [r0]
 613              	.LVL99:
 614 0026 0028     		cmp	r0, #0
 615 0028 58D0     		beq	.L47
 616              	.LVL100:
 617              	.L41:
 618              		.loc 1 62 0
 619 002a C0B2     		uxtb	r0, r0
 620 002c FFF7FEFF 		bl	md_info_from_type
 621              	.LVL101:
 622 0030 38B1     		cbz	r0, .L40
 623              		.loc 1 63 0
 624 0032 8368     		ldr	r3, [r0, #8]
ARM GAS  C:\Users\jo\AppData\Local\Temp\ccy0MFBs.s 			page 12


 625              		.loc 1 62 0
 626 0034 9E42     		cmp	r6, r3
 627 0036 04D8     		bhi	.L40
 628              		.loc 1 63 0
 629 0038 3CB3     		cbz	r4, .L46
 630              		.loc 1 64 0
 631 003a A268     		ldr	r2, [r4, #8]
 632 003c 9342     		cmp	r3, r2
 633 003e D8BF     		it	le
 634 0040 0446     		movle	r4, r0
 635              	.LVL102:
 636              	.L40:
 637              		.loc 1 60 0
 638 0042 5BF8040F 		ldr	r0, [fp, #4]!
 639              	.LVL103:
 640 0046 0028     		cmp	r0, #0
 641 0048 EFD1     		bne	.L41
 642              	.LVL104:
 643              	.L42:
 644              	.LBE9:
 645              	.LBE8:
 646              		.loc 1 207 0
 647 004a 002C     		cmp	r4, #0
 648 004c 46D0     		beq	.L47
 649              		.loc 1 210 0
 650 004e 04A8     		add	r0, sp, #16
 651 0050 FFF7FEFF 		bl	mpi_init
 652              	.LVL105:
 653              		.loc 1 211 0
 654 0054 0021     		movs	r1, #0
 655 0056 6022     		movs	r2, #96
 656 0058 07A8     		add	r0, sp, #28
 657 005a FFF7FEFF 		bl	memset
 658              	.LVL106:
 659              		.loc 1 214 0
 660 005e 1FA9     		add	r1, sp, #124
 661 0060 4046     		mov	r0, r8
 662 0062 2A46     		mov	r2, r5
 663 0064 FFF7FEFF 		bl	mpi_write_binary
 664              	.LVL107:
 665 0068 8346     		mov	fp, r0
 666 006a 80B1     		cbz	r0, .L56
 667              	.LVL108:
 668              	.L44:
 669              		.loc 1 223 0
 670 006c 07A8     		add	r0, sp, #28
 671              	.LVL109:
 672 006e FFF7FEFF 		bl	hmac_drbg_free
 673              	.LVL110:
 674              		.loc 1 224 0
 675 0072 04A8     		add	r0, sp, #16
 676 0074 FFF7FEFF 		bl	mpi_free
 677              	.LVL111:
 678              		.loc 1 226 0
 679 0078 5846     		mov	r0, fp
 680              	.LVL112:
 681              	.L43:
ARM GAS  C:\Users\jo\AppData\Local\Temp\ccy0MFBs.s 			page 13


 682              		.loc 1 227 0
 683 007a 41B0     		add	sp, sp, #260
 684              		.cfi_remember_state
 685              		.cfi_def_cfa_offset 36
 686              		@ sp needed
 687 007c BDE8F08F 		pop	{r4, r5, r6, r7, r8, r9, r10, fp, pc}
 688              	.LVL113:
 689              	.L38:
 690              		.cfi_restore_state
 691              		.loc 1 205 0
 692 0080 2046     		mov	r0, r4
 693              	.LVL114:
 694 0082 FFF7FEFF 		bl	md_info_from_type
 695              	.LVL115:
 696 0086 0446     		mov	r4, r0
 697              	.LVL116:
 698 0088 DFE7     		b	.L42
 699              	.LVL117:
 700              	.L46:
 701              	.LBB11:
 702              	.LBB10:
 703              		.loc 1 63 0
 704 008a 0446     		mov	r4, r0
 705              	.LVL118:
 706 008c D9E7     		b	.L40
 707              	.LVL119:
 708              	.L56:
 709              	.LBE10:
 710              	.LBE11:
 711              		.loc 1 215 0
 712 008e 3846     		mov	r0, r7
 713              	.LVL120:
 714 0090 04A9     		add	r1, sp, #16
 715 0092 4A9A     		ldr	r2, [sp, #296]
 716 0094 3346     		mov	r3, r6
 717 0096 FFF7FEFF 		bl	derive_mpi
 718              	.LVL121:
 719 009a 8346     		mov	fp, r0
 720 009c 0028     		cmp	r0, #0
 721 009e E5D1     		bne	.L44
 722              		.loc 1 216 0
 723 00a0 1FAB     		add	r3, sp, #124
 724 00a2 04A8     		add	r0, sp, #16
 725              	.LVL122:
 726 00a4 5919     		adds	r1, r3, r5
 727 00a6 2A46     		mov	r2, r5
 728 00a8 FFF7FEFF 		bl	mpi_write_binary
 729              	.LVL123:
 730 00ac 8346     		mov	fp, r0
 731 00ae 0028     		cmp	r0, #0
 732 00b0 DCD1     		bne	.L44
 733              		.loc 1 217 0
 734 00b2 2146     		mov	r1, r4
 735 00b4 1FAA     		add	r2, sp, #124
 736 00b6 6B00     		lsls	r3, r5, #1
 737 00b8 07A8     		add	r0, sp, #28
 738              	.LVL124:
ARM GAS  C:\Users\jo\AppData\Local\Temp\ccy0MFBs.s 			page 14


 739 00ba FFF7FEFF 		bl	hmac_drbg_init_buf
 740              	.LVL125:
 741              		.loc 1 219 0
 742 00be 4A9B     		ldr	r3, [sp, #296]
 743 00c0 074C     		ldr	r4, .L57
 744              	.LVL126:
 745 00c2 0294     		str	r4, [sp, #8]
 746 00c4 8DE84800 		stmia	sp, {r3, r6}
 747 00c8 07AB     		add	r3, sp, #28
 748 00ca 0393     		str	r3, [sp, #12]
 749 00cc 3846     		mov	r0, r7
 750 00ce 5146     		mov	r1, r10
 751 00d0 4A46     		mov	r2, r9
 752 00d2 4346     		mov	r3, r8
 753 00d4 FFF7FEFF 		bl	ecdsa_sign
 754              	.LVL127:
 755 00d8 8346     		mov	fp, r0
 756              	.LVL128:
 757 00da C7E7     		b	.L44
 758              	.LVL129:
 759              	.L47:
 760              		.loc 1 208 0
 761 00dc 0148     		ldr	r0, .L57+4
 762 00de CCE7     		b	.L43
 763              	.L58:
 764              		.align	2
 765              	.L57:
 766 00e0 00000000 		.word	hmac_drbg_random
 767 00e4 80B0FFFF 		.word	-20352
 768              		.cfi_endproc
 769              	.LFE6:
 770              		.size	ecdsa_sign_det, .-ecdsa_sign_det
 771 00e8 AFF30080 		.section	.text.ecdsa_verify,"ax",%progbits
 771      AFF30080 
 772              		.align	2
 773              		.p2align 4,,15
 774              		.global	ecdsa_verify
 775              		.thumb
 776              		.thumb_func
 777              		.type	ecdsa_verify, %function
 778              	ecdsa_verify:
 779              	.LFB7:
 780              		.loc 1 237 0
 781              		.cfi_startproc
 782              		@ args = 8, pretend = 0, frame = 120
 783              		@ frame_needed = 0, uses_anonymous_args = 0
 784              	.LVL130:
 785 0000 2DE9F043 		push	{r4, r5, r6, r7, r8, r9, lr}
 786              		.cfi_def_cfa_offset 28
 787              		.cfi_offset 4, -28
 788              		.cfi_offset 5, -24
 789              		.cfi_offset 6, -20
 790              		.cfi_offset 7, -16
 791              		.cfi_offset 8, -12
 792              		.cfi_offset 9, -8
 793              		.cfi_offset 14, -4
 794 0004 A1B0     		sub	sp, sp, #132
ARM GAS  C:\Users\jo\AppData\Local\Temp\ccy0MFBs.s 			page 15


 795              		.cfi_def_cfa_offset 160
 796              		.loc 1 237 0
 797 0006 0546     		mov	r5, r0
 798              		.loc 1 242 0
 799 0008 0EA8     		add	r0, sp, #56
 800              	.LVL131:
 801              		.loc 1 237 0
 802 000a 1F46     		mov	r7, r3
 803 000c 8946     		mov	r9, r1
 804 000e 9046     		mov	r8, r2
 805              		.loc 1 242 0
 806 0010 FFF7FEFF 		bl	ecp_point_init
 807              	.LVL132:
 808 0014 17A8     		add	r0, sp, #92
 809 0016 FFF7FEFF 		bl	ecp_point_init
 810              	.LVL133:
 811              		.loc 1 243 0
 812 001a 02A8     		add	r0, sp, #8
 813 001c FFF7FEFF 		bl	mpi_init
 814              	.LVL134:
 815 0020 05A8     		add	r0, sp, #20
 816 0022 FFF7FEFF 		bl	mpi_init
 817              	.LVL135:
 818 0026 08A8     		add	r0, sp, #32
 819 0028 FFF7FEFF 		bl	mpi_init
 820              	.LVL136:
 821 002c 0BA8     		add	r0, sp, #44
 822 002e FFF7FEFF 		bl	mpi_init
 823              	.LVL137:
 824              		.loc 1 246 0
 825 0032 6B6D     		ldr	r3, [r5, #84]
 826 0034 002B     		cmp	r3, #0
 827 0036 00F0A180 		beq	.L64
 828              		.loc 1 252 0
 829 003a 2898     		ldr	r0, [sp, #160]
 830 003c 0121     		movs	r1, #1
 831 003e FFF7FEFF 		bl	mpi_cmp_int
 832              	.LVL138:
 833 0042 0028     		cmp	r0, #0
 834 0044 07DB     		blt	.L65
 835              		.loc 1 252 0 is_stmt 0 discriminator 1
 836 0046 05F14C06 		add	r6, r5, #76
 837 004a 3146     		mov	r1, r6
 838 004c 2898     		ldr	r0, [sp, #160]
 839 004e FFF7FEFF 		bl	mpi_cmp_mpi
 840              	.LVL139:
 841 0052 0028     		cmp	r0, #0
 842 0054 16DB     		blt	.L69
 843              	.L65:
 844              		.loc 1 292 0 is_stmt 1
 845 0056 4A4C     		ldr	r4, .L70
 846              	.L62:
 847              	.LVL140:
 848              		.loc 1 312 0
 849 0058 0EA8     		add	r0, sp, #56
 850 005a FFF7FEFF 		bl	ecp_point_free
 851              	.LVL141:
ARM GAS  C:\Users\jo\AppData\Local\Temp\ccy0MFBs.s 			page 16


 852 005e 17A8     		add	r0, sp, #92
 853 0060 FFF7FEFF 		bl	ecp_point_free
 854              	.LVL142:
 855              		.loc 1 313 0
 856 0064 02A8     		add	r0, sp, #8
 857 0066 FFF7FEFF 		bl	mpi_free
 858              	.LVL143:
 859 006a 05A8     		add	r0, sp, #20
 860 006c FFF7FEFF 		bl	mpi_free
 861              	.LVL144:
 862 0070 08A8     		add	r0, sp, #32
 863 0072 FFF7FEFF 		bl	mpi_free
 864              	.LVL145:
 865 0076 0BA8     		add	r0, sp, #44
 866 0078 FFF7FEFF 		bl	mpi_free
 867              	.LVL146:
 868              		.loc 1 315 0
 869 007c 2046     		mov	r0, r4
 870              	.LVL147:
 871              	.L60:
 872              		.loc 1 316 0
 873 007e 21B0     		add	sp, sp, #132
 874              		.cfi_remember_state
 875              		.cfi_def_cfa_offset 28
 876              		@ sp needed
 877 0080 BDE8F083 		pop	{r4, r5, r6, r7, r8, r9, pc}
 878              	.LVL148:
 879              	.L69:
 880              		.cfi_restore_state
 881              		.loc 1 253 0 discriminator 2
 882 0084 2998     		ldr	r0, [sp, #164]
 883 0086 0121     		movs	r1, #1
 884 0088 FFF7FEFF 		bl	mpi_cmp_int
 885              	.LVL149:
 886              		.loc 1 252 0 discriminator 2
 887 008c 0028     		cmp	r0, #0
 888 008e E2DB     		blt	.L65
 889              		.loc 1 253 0
 890 0090 2998     		ldr	r0, [sp, #164]
 891 0092 3146     		mov	r1, r6
 892 0094 FFF7FEFF 		bl	mpi_cmp_mpi
 893              	.LVL150:
 894 0098 0028     		cmp	r0, #0
 895 009a DCDA     		bge	.L65
 896              		.loc 1 262 0
 897 009c 2846     		mov	r0, r5
 898 009e 3946     		mov	r1, r7
 899 00a0 FFF7FEFF 		bl	ecp_check_pubkey
 900              	.LVL151:
 901 00a4 0446     		mov	r4, r0
 902 00a6 0028     		cmp	r0, #0
 903 00a8 D6D1     		bne	.L62
 904              		.loc 1 267 0
 905 00aa 4A46     		mov	r2, r9
 906 00ac 4346     		mov	r3, r8
 907 00ae 2846     		mov	r0, r5
 908              	.LVL152:
ARM GAS  C:\Users\jo\AppData\Local\Temp\ccy0MFBs.s 			page 17


 909 00b0 02A9     		add	r1, sp, #8
 910 00b2 FFF7FEFF 		bl	derive_mpi
 911              	.LVL153:
 912 00b6 0446     		mov	r4, r0
 913 00b8 0028     		cmp	r0, #0
 914 00ba CDD1     		bne	.L62
 915              		.loc 1 272 0
 916 00bc 05A8     		add	r0, sp, #20
 917              	.LVL154:
 918 00be 2999     		ldr	r1, [sp, #164]
 919 00c0 3246     		mov	r2, r6
 920 00c2 FFF7FEFF 		bl	mpi_inv_mod
 921              	.LVL155:
 922 00c6 0446     		mov	r4, r0
 923 00c8 0028     		cmp	r0, #0
 924 00ca C5D1     		bne	.L62
 925              		.loc 1 274 0
 926 00cc 08A8     		add	r0, sp, #32
 927              	.LVL156:
 928 00ce 02A9     		add	r1, sp, #8
 929 00d0 05AA     		add	r2, sp, #20
 930 00d2 FFF7FEFF 		bl	mpi_mul_mpi
 931              	.LVL157:
 932 00d6 0446     		mov	r4, r0
 933 00d8 0028     		cmp	r0, #0
 934 00da BDD1     		bne	.L62
 935              		.loc 1 275 0
 936 00dc 08A8     		add	r0, sp, #32
 937              	.LVL158:
 938 00de 0146     		mov	r1, r0
 939 00e0 3246     		mov	r2, r6
 940 00e2 FFF7FEFF 		bl	mpi_mod_mpi
 941              	.LVL159:
 942 00e6 0446     		mov	r4, r0
 943 00e8 0028     		cmp	r0, #0
 944 00ea B5D1     		bne	.L62
 945              		.loc 1 277 0
 946 00ec 0BA8     		add	r0, sp, #44
 947              	.LVL160:
 948 00ee 2899     		ldr	r1, [sp, #160]
 949 00f0 05AA     		add	r2, sp, #20
 950 00f2 FFF7FEFF 		bl	mpi_mul_mpi
 951              	.LVL161:
 952 00f6 0446     		mov	r4, r0
 953 00f8 0028     		cmp	r0, #0
 954 00fa ADD1     		bne	.L62
 955              		.loc 1 278 0
 956 00fc 0BA8     		add	r0, sp, #44
 957              	.LVL162:
 958 00fe 0146     		mov	r1, r0
 959 0100 3246     		mov	r2, r6
 960 0102 FFF7FEFF 		bl	mpi_mod_mpi
 961              	.LVL163:
 962 0106 0446     		mov	r4, r0
 963 0108 0028     		cmp	r0, #0
 964 010a A5D1     		bne	.L62
 965              		.loc 1 286 0
ARM GAS  C:\Users\jo\AppData\Local\Temp\ccy0MFBs.s 			page 18


 966 010c 0090     		str	r0, [sp]
 967 010e 0190     		str	r0, [sp, #4]
 968 0110 0EA9     		add	r1, sp, #56
 969 0112 2846     		mov	r0, r5
 970              	.LVL164:
 971 0114 08AA     		add	r2, sp, #32
 972 0116 05F12803 		add	r3, r5, #40
 973 011a FFF7FEFF 		bl	ecp_mul
 974              	.LVL165:
 975 011e 0446     		mov	r4, r0
 976 0120 0028     		cmp	r0, #0
 977 0122 99D1     		bne	.L62
 978              		.loc 1 287 0
 979 0124 0090     		str	r0, [sp]
 980 0126 0190     		str	r0, [sp, #4]
 981 0128 3B46     		mov	r3, r7
 982 012a 2846     		mov	r0, r5
 983              	.LVL166:
 984 012c 17A9     		add	r1, sp, #92
 985 012e 0BAA     		add	r2, sp, #44
 986 0130 FFF7FEFF 		bl	ecp_mul
 987              	.LVL167:
 988 0134 0446     		mov	r4, r0
 989 0136 0028     		cmp	r0, #0
 990 0138 8ED1     		bne	.L62
 991              		.loc 1 288 0
 992 013a 0EA9     		add	r1, sp, #56
 993 013c 2846     		mov	r0, r5
 994              	.LVL168:
 995 013e 0A46     		mov	r2, r1
 996 0140 17AB     		add	r3, sp, #92
 997 0142 FFF7FEFF 		bl	ecp_add
 998              	.LVL169:
 999 0146 0446     		mov	r4, r0
 1000 0148 0028     		cmp	r0, #0
 1001 014a 85D1     		bne	.L62
 1002              		.loc 1 290 0
 1003 014c 0EA8     		add	r0, sp, #56
 1004              	.LVL170:
 1005 014e FFF7FEFF 		bl	ecp_is_zero
 1006              	.LVL171:
 1007 0152 0028     		cmp	r0, #0
 1008 0154 7FF47FAF 		bne	.L65
 1009              		.loc 1 300 0
 1010 0158 0EA8     		add	r0, sp, #56
 1011 015a 3246     		mov	r2, r6
 1012 015c 0146     		mov	r1, r0
 1013 015e FFF7FEFF 		bl	mpi_mod_mpi
 1014              	.LVL172:
 1015 0162 0446     		mov	r4, r0
 1016 0164 0028     		cmp	r0, #0
 1017 0166 7FF477AF 		bne	.L62
 1018              		.loc 1 305 0
 1019 016a 0EA8     		add	r0, sp, #56
 1020              	.LVL173:
 1021 016c 2899     		ldr	r1, [sp, #160]
 1022 016e FFF7FEFF 		bl	mpi_cmp_mpi
ARM GAS  C:\Users\jo\AppData\Local\Temp\ccy0MFBs.s 			page 19


 1023              	.LVL174:
 1024              		.loc 1 307 0
 1025 0172 034B     		ldr	r3, .L70
 1026 0174 0028     		cmp	r0, #0
 1027 0176 18BF     		it	ne
 1028 0178 1C46     		movne	r4, r3
 1029              	.LVL175:
 1030 017a 6DE7     		b	.L62
 1031              	.L64:
 1032              		.loc 1 247 0
 1033 017c 0148     		ldr	r0, .L70+4
 1034 017e 7EE7     		b	.L60
 1035              	.L71:
 1036              		.align	2
 1037              	.L70:
 1038 0180 00B2FFFF 		.word	-19968
 1039 0184 80B0FFFF 		.word	-20352
 1040              		.cfi_endproc
 1041              	.LFE7:
 1042              		.size	ecdsa_verify, .-ecdsa_verify
 1043              		.section	.text.ecdsa_write_signature,"ax",%progbits
 1044              		.align	2
 1045              		.p2align 4,,15
 1046              		.global	ecdsa_write_signature
 1047              		.thumb
 1048              		.thumb_func
 1049              		.type	ecdsa_write_signature, %function
 1050              	ecdsa_write_signature:
 1051              	.LFB9:
 1052              		.loc 1 369 0
 1053              		.cfi_startproc
 1054              		@ args = 12, pretend = 0, frame = 0
 1055              		@ frame_needed = 0, uses_anonymous_args = 0
 1056              	.LVL176:
 1057 0000 F0B5     		push	{r4, r5, r6, r7, lr}
 1058              		.cfi_def_cfa_offset 20
 1059              		.cfi_offset 4, -20
 1060              		.cfi_offset 5, -16
 1061              		.cfi_offset 6, -12
 1062              		.cfi_offset 7, -8
 1063              		.cfi_offset 14, -4
 1064 0002 85B0     		sub	sp, sp, #20
 1065              		.cfi_def_cfa_offset 40
 1066              		.loc 1 369 0
 1067 0004 1F46     		mov	r7, r3
 1068 0006 0C9D     		ldr	r5, [sp, #48]
 1069 0008 0B9E     		ldr	r6, [sp, #44]
 1070              		.loc 1 372 0
 1071 000a 0091     		str	r1, [sp]
 1072 000c 0192     		str	r2, [sp, #4]
 1073 000e 0395     		str	r5, [sp, #12]
 1074 0010 00F1AC01 		add	r1, r0, #172
 1075              	.LVL177:
 1076 0014 00F1B802 		add	r2, r0, #184
 1077              	.LVL178:
 1078 0018 00F17C03 		add	r3, r0, #124
 1079              	.LVL179:
ARM GAS  C:\Users\jo\AppData\Local\Temp\ccy0MFBs.s 			page 20


 1080 001c 0296     		str	r6, [sp, #8]
 1081              		.loc 1 369 0
 1082 001e 0446     		mov	r4, r0
 1083 0020 0A9D     		ldr	r5, [sp, #40]
 1084              		.loc 1 372 0
 1085 0022 FFF7FEFF 		bl	ecdsa_sign
 1086              	.LVL180:
 1087 0026 08B1     		cbz	r0, .L75
 1088              		.loc 1 379 0
 1089 0028 05B0     		add	sp, sp, #20
 1090              		.cfi_remember_state
 1091              		.cfi_def_cfa_offset 20
 1092              		@ sp needed
 1093 002a F0BD     		pop	{r4, r5, r6, r7, pc}
 1094              	.LVL181:
 1095              	.L75:
 1096              		.cfi_restore_state
 1097              		.loc 1 378 0
 1098 002c 2046     		mov	r0, r4
 1099              	.LVL182:
 1100 002e 3946     		mov	r1, r7
 1101 0030 2A46     		mov	r2, r5
 1102              		.loc 1 379 0
 1103 0032 05B0     		add	sp, sp, #20
 1104              		.cfi_def_cfa_offset 20
 1105              		@ sp needed
 1106 0034 BDE8F040 		pop	{r4, r5, r6, r7, lr}
 1107              		.cfi_restore 14
 1108              		.cfi_restore 7
 1109              		.cfi_restore 6
 1110              		.cfi_restore 5
 1111              		.cfi_restore 4
 1112              		.cfi_def_cfa_offset 0
 1113              	.LVL183:
 1114              		.loc 1 378 0
 1115 0038 FFF7FEBF 		b	ecdsa_signature_to_asn1
 1116              	.LVL184:
 1117              		.cfi_endproc
 1118              	.LFE9:
 1119              		.size	ecdsa_write_signature, .-ecdsa_write_signature
 1120 003c AFF30080 		.section	.text.ecdsa_write_signature_det,"ax",%progbits
 1121              		.align	2
 1122              		.p2align 4,,15
 1123              		.global	ecdsa_write_signature_det
 1124              		.thumb
 1125              		.thumb_func
 1126              		.type	ecdsa_write_signature_det, %function
 1127              	ecdsa_write_signature_det:
 1128              	.LFB10:
 1129              		.loc 1 389 0
 1130              		.cfi_startproc
 1131              		@ args = 8, pretend = 0, frame = 0
 1132              		@ frame_needed = 0, uses_anonymous_args = 0
 1133              	.LVL185:
 1134 0000 70B5     		push	{r4, r5, r6, lr}
 1135              		.cfi_def_cfa_offset 16
 1136              		.cfi_offset 4, -16
ARM GAS  C:\Users\jo\AppData\Local\Temp\ccy0MFBs.s 			page 21


 1137              		.cfi_offset 5, -12
 1138              		.cfi_offset 6, -8
 1139              		.cfi_offset 14, -4
 1140 0002 84B0     		sub	sp, sp, #16
 1141              		.cfi_def_cfa_offset 32
 1142              		.loc 1 389 0
 1143 0004 1E46     		mov	r6, r3
 1144 0006 9DF82450 		ldrb	r5, [sp, #36]	@ zero_extendqisi2
 1145              		.loc 1 392 0
 1146 000a 0091     		str	r1, [sp]
 1147 000c 0192     		str	r2, [sp, #4]
 1148 000e 0295     		str	r5, [sp, #8]
 1149 0010 00F1AC01 		add	r1, r0, #172
 1150              	.LVL186:
 1151 0014 00F1B802 		add	r2, r0, #184
 1152              	.LVL187:
 1153 0018 00F17C03 		add	r3, r0, #124
 1154              	.LVL188:
 1155              		.loc 1 389 0
 1156 001c 0446     		mov	r4, r0
 1157 001e 089D     		ldr	r5, [sp, #32]
 1158              		.loc 1 392 0
 1159 0020 FFF7FEFF 		bl	ecdsa_sign_det
 1160              	.LVL189:
 1161 0024 08B1     		cbz	r0, .L79
 1162              		.loc 1 399 0
 1163 0026 04B0     		add	sp, sp, #16
 1164              		.cfi_remember_state
 1165              		.cfi_def_cfa_offset 16
 1166              		@ sp needed
 1167 0028 70BD     		pop	{r4, r5, r6, pc}
 1168              	.LVL190:
 1169              	.L79:
 1170              		.cfi_restore_state
 1171              		.loc 1 398 0
 1172 002a 2046     		mov	r0, r4
 1173              	.LVL191:
 1174 002c 3146     		mov	r1, r6
 1175 002e 2A46     		mov	r2, r5
 1176              		.loc 1 399 0
 1177 0030 04B0     		add	sp, sp, #16
 1178              		.cfi_def_cfa_offset 16
 1179              		@ sp needed
 1180 0032 BDE87040 		pop	{r4, r5, r6, lr}
 1181              		.cfi_restore 14
 1182              		.cfi_restore 6
 1183              		.cfi_restore 5
 1184              		.cfi_restore 4
 1185              		.cfi_def_cfa_offset 0
 1186              	.LVL192:
 1187              		.loc 1 398 0
 1188 0036 FFF7FEBF 		b	ecdsa_signature_to_asn1
 1189              	.LVL193:
 1190              		.cfi_endproc
 1191              	.LFE10:
 1192              		.size	ecdsa_write_signature_det, .-ecdsa_write_signature_det
 1193              		.section	.text.ecdsa_read_signature,"ax",%progbits
ARM GAS  C:\Users\jo\AppData\Local\Temp\ccy0MFBs.s 			page 22


 1194              		.align	2
 1195              		.p2align 4,,15
 1196              		.global	ecdsa_read_signature
 1197              		.thumb
 1198              		.thumb_func
 1199              		.type	ecdsa_read_signature, %function
 1200              	ecdsa_read_signature:
 1201              	.LFB11:
 1202              		.loc 1 408 0
 1203              		.cfi_startproc
 1204              		@ args = 4, pretend = 0, frame = 8
 1205              		@ frame_needed = 0, uses_anonymous_args = 0
 1206              	.LVL194:
 1207 0000 2DE9F047 		push	{r4, r5, r6, r7, r8, r9, r10, lr}
 1208              		.cfi_def_cfa_offset 32
 1209              		.cfi_offset 4, -32
 1210              		.cfi_offset 5, -28
 1211              		.cfi_offset 6, -24
 1212              		.cfi_offset 7, -20
 1213              		.cfi_offset 8, -16
 1214              		.cfi_offset 9, -12
 1215              		.cfi_offset 10, -8
 1216              		.cfi_offset 14, -4
 1217 0004 84B0     		sub	sp, sp, #16
 1218              		.cfi_def_cfa_offset 48
 1219              		.loc 1 410 0
 1220 0006 04AD     		add	r5, sp, #16
 1221              		.loc 1 408 0
 1222 0008 0C9C     		ldr	r4, [sp, #48]
 1223              		.loc 1 410 0
 1224 000a 45F8083D 		str	r3, [r5, #-8]!
 1225              		.loc 1 411 0
 1226 000e 1C44     		add	r4, r4, r3
 1227              	.LVL195:
 1228              		.loc 1 408 0
 1229 0010 0746     		mov	r7, r0
 1230 0012 8946     		mov	r9, r1
 1231 0014 9046     		mov	r8, r2
 1232              		.loc 1 414 0
 1233 0016 2846     		mov	r0, r5
 1234              	.LVL196:
 1235 0018 2146     		mov	r1, r4
 1236              	.LVL197:
 1237 001a 03AA     		add	r2, sp, #12
 1238              	.LVL198:
 1239 001c 3023     		movs	r3, #48
 1240              	.LVL199:
 1241 001e FFF7FEFF 		bl	asn1_get_tag
 1242              	.LVL200:
 1243 0022 60B9     		cbnz	r0, .L83
 1244              		.loc 1 420 0
 1245 0024 0298     		ldr	r0, [sp, #8]
 1246              	.LVL201:
 1247 0026 039B     		ldr	r3, [sp, #12]
 1248 0028 C618     		adds	r6, r0, r3
 1249 002a A642     		cmp	r6, r4
 1250 002c 0CD1     		bne	.L85
ARM GAS  C:\Users\jo\AppData\Local\Temp\ccy0MFBs.s 			page 23


 1251              		.loc 1 424 0
 1252 002e 07F1AC04 		add	r4, r7, #172
 1253              	.LVL202:
 1254 0032 2246     		mov	r2, r4
 1255 0034 2846     		mov	r0, r5
 1256 0036 3146     		mov	r1, r6
 1257 0038 FFF7FEFF 		bl	asn1_get_mpi
 1258              	.LVL203:
 1259 003c 40B1     		cbz	r0, .L89
 1260              	.L83:
 1261              		.loc 1 426 0
 1262 003e A0F59F40 		sub	r0, r0, #20352
 1263              	.LVL204:
 1264              	.L82:
 1265              		.loc 1 436 0
 1266 0042 04B0     		add	sp, sp, #16
 1267              		.cfi_remember_state
 1268              		.cfi_def_cfa_offset 32
 1269              		@ sp needed
 1270 0044 BDE8F087 		pop	{r4, r5, r6, r7, r8, r9, r10, pc}
 1271              	.LVL205:
 1272              	.L85:
 1273              		.cfi_restore_state
 1274              		.loc 1 421 0
 1275 0048 0F48     		ldr	r0, .L90
 1276              		.loc 1 436 0
 1277 004a 04B0     		add	sp, sp, #16
 1278              		.cfi_remember_state
 1279              		.cfi_def_cfa_offset 32
 1280              		@ sp needed
 1281 004c BDE8F087 		pop	{r4, r5, r6, r7, r8, r9, r10, pc}
 1282              	.LVL206:
 1283              	.L89:
 1284              		.cfi_restore_state
 1285              		.loc 1 425 0 discriminator 1
 1286 0050 07F1B80A 		add	r10, r7, #184
 1287              		.loc 1 424 0 discriminator 1
 1288 0054 2846     		mov	r0, r5
 1289              	.LVL207:
 1290 0056 5246     		mov	r2, r10
 1291 0058 3146     		mov	r1, r6
 1292 005a FFF7FEFF 		bl	asn1_get_mpi
 1293              	.LVL208:
 1294 005e 0028     		cmp	r0, #0
 1295 0060 EDD1     		bne	.L83
 1296              		.loc 1 428 0
 1297 0062 8DE81004 		stmia	sp, {r4, r10}
 1298 0066 4946     		mov	r1, r9
 1299 0068 4246     		mov	r2, r8
 1300 006a 3846     		mov	r0, r7
 1301              	.LVL209:
 1302 006c 07F18803 		add	r3, r7, #136
 1303 0070 FFF7FEFF 		bl	ecdsa_verify
 1304              	.LVL210:
 1305 0074 0028     		cmp	r0, #0
 1306 0076 E4D1     		bne	.L82
 1307              		.loc 1 432 0
ARM GAS  C:\Users\jo\AppData\Local\Temp\ccy0MFBs.s 			page 24


 1308 0078 0298     		ldr	r0, [sp, #8]
 1309              	.LVL211:
 1310              		.loc 1 435 0
 1311 007a 044B     		ldr	r3, .L90+4
 1312 007c 8642     		cmp	r6, r0
 1313 007e 14BF     		ite	ne
 1314 0080 1846     		movne	r0, r3
 1315 0082 0020     		moveq	r0, #0
 1316 0084 DDE7     		b	.L82
 1317              	.L91:
 1318 0086 00BF     		.align	2
 1319              	.L90:
 1320 0088 1AB0FFFF 		.word	-20454
 1321 008c 00B4FFFF 		.word	-19456
 1322              		.cfi_endproc
 1323              	.LFE11:
 1324              		.size	ecdsa_read_signature, .-ecdsa_read_signature
 1325              		.section	.text.ecdsa_genkey,"ax",%progbits
 1326              		.align	2
 1327              		.p2align 4,,15
 1328              		.global	ecdsa_genkey
 1329              		.thumb
 1330              		.thumb_func
 1331              		.type	ecdsa_genkey, %function
 1332              	ecdsa_genkey:
 1333              	.LFB12:
 1334              		.loc 1 443 0
 1335              		.cfi_startproc
 1336              		@ args = 0, pretend = 0, frame = 0
 1337              		@ frame_needed = 0, uses_anonymous_args = 0
 1338              	.LVL212:
 1339 0000 70B5     		push	{r4, r5, r6, lr}
 1340              		.cfi_def_cfa_offset 16
 1341              		.cfi_offset 4, -16
 1342              		.cfi_offset 5, -12
 1343              		.cfi_offset 6, -8
 1344              		.cfi_offset 14, -4
 1345 0002 82B0     		sub	sp, sp, #8
 1346              		.cfi_def_cfa_offset 24
 1347              		.loc 1 443 0
 1348 0004 1546     		mov	r5, r2
 1349 0006 1E46     		mov	r6, r3
 1350 0008 0446     		mov	r4, r0
 1351              		.loc 1 444 0
 1352 000a FFF7FEFF 		bl	ecp_use_known_dp
 1353              	.LVL213:
 1354 000e 10B1     		cbz	r0, .L96
 1355 0010 0120     		movs	r0, #1
 1356              		.loc 1 446 0
 1357 0012 02B0     		add	sp, sp, #8
 1358              		.cfi_remember_state
 1359              		.cfi_def_cfa_offset 16
 1360              		@ sp needed
 1361 0014 70BD     		pop	{r4, r5, r6, pc}
 1362              	.LVL214:
 1363              	.L96:
 1364              		.cfi_restore_state
ARM GAS  C:\Users\jo\AppData\Local\Temp\ccy0MFBs.s 			page 25


 1365              		.loc 1 445 0 discriminator 2
 1366 0016 0096     		str	r6, [sp]
 1367 0018 2B46     		mov	r3, r5
 1368 001a 2046     		mov	r0, r4
 1369 001c 04F17C01 		add	r1, r4, #124
 1370 0020 04F18802 		add	r2, r4, #136
 1371 0024 FFF7FEFF 		bl	ecp_gen_keypair
 1372              	.LVL215:
 1373              		.loc 1 444 0 discriminator 2
 1374 0028 0030     		adds	r0, r0, #0
 1375 002a 18BF     		it	ne
 1376 002c 0120     		movne	r0, #1
 1377              		.loc 1 446 0 discriminator 2
 1378 002e 02B0     		add	sp, sp, #8
 1379              		.cfi_def_cfa_offset 16
 1380              		@ sp needed
 1381 0030 70BD     		pop	{r4, r5, r6, pc}
 1382              		.cfi_endproc
 1383              	.LFE12:
 1384              		.size	ecdsa_genkey, .-ecdsa_genkey
 1385 0032 00BFAFF3 		.section	.text.ecdsa_init,"ax",%progbits
 1385      0080AFF3 
 1385      0080AFF3 
 1385      0080
 1386              		.align	2
 1387              		.p2align 4,,15
 1388              		.global	ecdsa_init
 1389              		.thumb
 1390              		.thumb_func
 1391              		.type	ecdsa_init, %function
 1392              	ecdsa_init:
 1393              	.LFB14:
 1394              		.loc 1 469 0
 1395              		.cfi_startproc
 1396              		@ args = 0, pretend = 0, frame = 0
 1397              		@ frame_needed = 0, uses_anonymous_args = 0
 1398              	.LVL216:
 1399 0000 10B5     		push	{r4, lr}
 1400              		.cfi_def_cfa_offset 8
 1401              		.cfi_offset 4, -8
 1402              		.cfi_offset 14, -4
 1403              		.loc 1 469 0
 1404 0002 0446     		mov	r4, r0
 1405              		.loc 1 470 0
 1406 0004 FFF7FEFF 		bl	ecp_group_init
 1407              	.LVL217:
 1408              		.loc 1 471 0
 1409 0008 04F17C00 		add	r0, r4, #124
 1410 000c FFF7FEFF 		bl	mpi_init
 1411              	.LVL218:
 1412              		.loc 1 472 0
 1413 0010 04F18800 		add	r0, r4, #136
 1414 0014 FFF7FEFF 		bl	ecp_point_init
 1415              	.LVL219:
 1416              		.loc 1 473 0
 1417 0018 04F1AC00 		add	r0, r4, #172
 1418 001c FFF7FEFF 		bl	mpi_init
ARM GAS  C:\Users\jo\AppData\Local\Temp\ccy0MFBs.s 			page 26


 1419              	.LVL220:
 1420              		.loc 1 474 0
 1421 0020 04F1B800 		add	r0, r4, #184
 1422              		.loc 1 475 0
 1423 0024 BDE81040 		pop	{r4, lr}
 1424              		.cfi_restore 14
 1425              		.cfi_restore 4
 1426              		.cfi_def_cfa_offset 0
 1427              	.LVL221:
 1428              		.loc 1 474 0
 1429 0028 FFF7FEBF 		b	mpi_init
 1430              	.LVL222:
 1431              		.cfi_endproc
 1432              	.LFE14:
 1433              		.size	ecdsa_init, .-ecdsa_init
 1434 002c AFF30080 		.section	.text.ecdsa_free,"ax",%progbits
 1435              		.align	2
 1436              		.p2align 4,,15
 1437              		.global	ecdsa_free
 1438              		.thumb
 1439              		.thumb_func
 1440              		.type	ecdsa_free, %function
 1441              	ecdsa_free:
 1442              	.LFB15:
 1443              		.loc 1 481 0
 1444              		.cfi_startproc
 1445              		@ args = 0, pretend = 0, frame = 0
 1446              		@ frame_needed = 0, uses_anonymous_args = 0
 1447              	.LVL223:
 1448 0000 10B5     		push	{r4, lr}
 1449              		.cfi_def_cfa_offset 8
 1450              		.cfi_offset 4, -8
 1451              		.cfi_offset 14, -4
 1452              		.loc 1 481 0
 1453 0002 0446     		mov	r4, r0
 1454              		.loc 1 482 0
 1455 0004 FFF7FEFF 		bl	ecp_group_free
 1456              	.LVL224:
 1457              		.loc 1 483 0
 1458 0008 04F17C00 		add	r0, r4, #124
 1459 000c FFF7FEFF 		bl	mpi_free
 1460              	.LVL225:
 1461              		.loc 1 484 0
 1462 0010 04F18800 		add	r0, r4, #136
 1463 0014 FFF7FEFF 		bl	ecp_point_free
 1464              	.LVL226:
 1465              		.loc 1 485 0
 1466 0018 04F1AC00 		add	r0, r4, #172
 1467 001c FFF7FEFF 		bl	mpi_free
 1468              	.LVL227:
 1469              		.loc 1 486 0
 1470 0020 04F1B800 		add	r0, r4, #184
 1471              		.loc 1 487 0
 1472 0024 BDE81040 		pop	{r4, lr}
 1473              		.cfi_restore 14
 1474              		.cfi_restore 4
 1475              		.cfi_def_cfa_offset 0
ARM GAS  C:\Users\jo\AppData\Local\Temp\ccy0MFBs.s 			page 27


 1476              	.LVL228:
 1477              		.loc 1 486 0
 1478 0028 FFF7FEBF 		b	mpi_free
 1479              	.LVL229:
 1480              		.cfi_endproc
 1481              	.LFE15:
 1482              		.size	ecdsa_free, .-ecdsa_free
 1483 002c AFF30080 		.section	.text.ecdsa_from_keypair,"ax",%progbits
 1484              		.align	2
 1485              		.p2align 4,,15
 1486              		.global	ecdsa_from_keypair
 1487              		.thumb
 1488              		.thumb_func
 1489              		.type	ecdsa_from_keypair, %function
 1490              	ecdsa_from_keypair:
 1491              	.LFB13:
 1492              		.loc 1 452 0
 1493              		.cfi_startproc
 1494              		@ args = 0, pretend = 0, frame = 0
 1495              		@ frame_needed = 0, uses_anonymous_args = 0
 1496              	.LVL230:
 1497 0000 70B5     		push	{r4, r5, r6, lr}
 1498              		.cfi_def_cfa_offset 16
 1499              		.cfi_offset 4, -16
 1500              		.cfi_offset 5, -12
 1501              		.cfi_offset 6, -8
 1502              		.cfi_offset 14, -4
 1503              		.loc 1 452 0
 1504 0002 0546     		mov	r5, r0
 1505 0004 0E46     		mov	r6, r1
 1506              		.loc 1 455 0
 1507 0006 FFF7FEFF 		bl	ecp_group_copy
 1508              	.LVL231:
 1509 000a 0446     		mov	r4, r0
 1510 000c 38B9     		cbnz	r0, .L102
 1511              		.loc 1 455 0 is_stmt 0 discriminator 1
 1512 000e 05F17C00 		add	r0, r5, #124
 1513              	.LVL232:
 1514 0012 06F17C01 		add	r1, r6, #124
 1515 0016 FFF7FEFF 		bl	mpi_copy
 1516              	.LVL233:
 1517 001a 0446     		mov	r4, r0
 1518 001c 20B1     		cbz	r0, .L108
 1519              	.L102:
 1520              		.loc 1 459 0 is_stmt 1
 1521 001e 2846     		mov	r0, r5
 1522              	.LVL234:
 1523 0020 FFF7FEFF 		bl	ecdsa_free
 1524              	.LVL235:
 1525              	.L103:
 1526              		.loc 1 463 0
 1527 0024 2046     		mov	r0, r4
 1528 0026 70BD     		pop	{r4, r5, r6, pc}
 1529              	.LVL236:
 1530              	.L108:
 1531              		.loc 1 456 0
 1532 0028 06F18801 		add	r1, r6, #136
ARM GAS  C:\Users\jo\AppData\Local\Temp\ccy0MFBs.s 			page 28


 1533 002c 05F18800 		add	r0, r5, #136
 1534              	.LVL237:
 1535 0030 FFF7FEFF 		bl	ecp_copy
 1536              	.LVL238:
 1537 0034 0446     		mov	r4, r0
 1538 0036 0028     		cmp	r0, #0
 1539 0038 F1D1     		bne	.L102
 1540 003a F3E7     		b	.L103
 1541              		.cfi_endproc
 1542              	.LFE13:
 1543              		.size	ecdsa_from_keypair, .-ecdsa_from_keypair
 1544 003c AFF30080 		.section	.text.ecdsa_self_test,"ax",%progbits
 1545              		.align	2
 1546              		.p2align 4,,15
 1547              		.global	ecdsa_self_test
 1548              		.thumb
 1549              		.thumb_func
 1550              		.type	ecdsa_self_test, %function
 1551              	ecdsa_self_test:
 1552              	.LFB16:
 1553              		.loc 1 495 0
 1554              		.cfi_startproc
 1555              		@ args = 0, pretend = 0, frame = 0
 1556              		@ frame_needed = 0, uses_anonymous_args = 0
 1557              		@ link register save eliminated.
 1558              	.LVL239:
 1559              		.loc 1 498 0
 1560 0000 0020     		movs	r0, #0
 1561              	.LVL240:
 1562 0002 7047     		bx	lr
 1563              		.cfi_endproc
 1564              	.LFE16:
 1565              		.size	ecdsa_self_test, .-ecdsa_self_test
 1566 0004 AFF30080 		.text
 1566      AFF30080 
 1566      AFF30080 
 1567              	.Letext0:
 1568              		.file 2 "c:\\program files\\gnu tools arm embedded\\4.9 2014q4\\lib\\gcc\\arm-none-eabi\\4.9.3\\in
 1569              		.file 3 "c:\\program files\\gnu tools arm embedded\\4.9 2014q4\\arm-none-eabi\\include\\machine\\_
 1570              		.file 4 "c:\\program files\\gnu tools arm embedded\\4.9 2014q4\\arm-none-eabi\\include\\stdint.h"
 1571              		.file 5 "../../../ext/mbedtls-1.3.11/library/../include/polarssl/bignum.h"
 1572              		.file 6 "../../../ext/mbedtls-1.3.11/library/../include/polarssl/ecp.h"
 1573              		.file 7 "../../../ext/mbedtls-1.3.11/library/../include/polarssl/md.h"
 1574              		.file 8 "../../../ext/mbedtls-1.3.11/library/../include/polarssl/ecdsa.h"
 1575              		.file 9 "../../../ext/mbedtls-1.3.11/library/../include/polarssl/hmac_drbg.h"
 1576              		.file 10 "../../../ext/mbedtls-1.3.11/library/../include/polarssl/asn1write.h"
 1577              		.file 11 "../../../ext/mbedtls-1.3.11/library/../include/polarssl/asn1.h"