ARM GAS  C:\Users\jo\AppData\Local\Temp\ccCDYYSi.s 			page 1


   1              		.syntax unified
   2              		.cpu cortex-m4
   3              		.fpu softvfp
   4              		.eabi_attribute 20, 1
   5              		.eabi_attribute 21, 1
   6              		.eabi_attribute 23, 3
   7              		.eabi_attribute 24, 1
   8              		.eabi_attribute 25, 1
   9              		.eabi_attribute 26, 1
  10              		.eabi_attribute 30, 2
  11              		.eabi_attribute 34, 1
  12              		.eabi_attribute 18, 4
  13              		.thumb
  14              		.file	"ecp_curves.c"
  15              		.text
  16              	.Ltext0:
  17              		.cfi_sections	.debug_frame
  18              		.section	.text.ecp_mod_p255,"ax",%progbits
  19              		.align	2
  20              		.p2align 4,,15
  21              		.thumb
  22              		.thumb_func
  23              		.type	ecp_mod_p255, %function
  24              	ecp_mod_p255:
  25              	.LFB15:
  26              		.file 1 "../../../ext/mbedtls-1.3.11/library/ecp_curves.c"
  27              		.loc 1 1218 0
  28              		.cfi_startproc
  29              		@ args = 0, pretend = 0, frame = 56
  30              		@ frame_needed = 0, uses_anonymous_args = 0
  31              	.LVL0:
  32              		.loc 1 1224 0
  33 0000 4268     		ldr	r2, [r0, #4]
  34 0002 072A     		cmp	r2, #7
  35 0004 26D9     		bls	.L9
  36              		.loc 1 1218 0
  37 0006 30B5     		push	{r4, r5, lr}
  38              		.cfi_def_cfa_offset 12
  39              		.cfi_offset 4, -12
  40              		.cfi_offset 5, -8
  41              		.cfi_offset 14, -4
  42              		.loc 1 1229 0
  43 0008 073A     		subs	r2, r2, #7
  44              		.loc 1 1218 0
  45 000a 8FB0     		sub	sp, sp, #60
  46              		.cfi_def_cfa_offset 72
  47              		.loc 1 1228 0
  48 000c 0123     		movs	r3, #1
  49              		.loc 1 1230 0
  50 000e 092A     		cmp	r2, #9
  51              		.loc 1 1228 0
  52 0010 0193     		str	r3, [sp, #4]
  53              		.loc 1 1230 0
  54 0012 1BD8     		bhi	.L3
  55              		.loc 1 1229 0
  56 0014 0292     		str	r2, [sp, #8]
  57 0016 9200     		lsls	r2, r2, #2
ARM GAS  C:\Users\jo\AppData\Local\Temp\ccCDYYSi.s 			page 2


  58              	.L4:
  59              		.loc 1 1234 0
  60 0018 8168     		ldr	r1, [r0, #8]
  61              		.loc 1 1232 0
  62 001a 04AD     		add	r5, sp, #16
  63              		.loc 1 1233 0
  64 001c 0023     		movs	r3, #0
  65              		.loc 1 1234 0
  66 001e 1C31     		adds	r1, r1, #28
  67 0020 0446     		mov	r4, r0
  68 0022 2846     		mov	r0, r5
  69              	.LVL1:
  70              		.loc 1 1232 0
  71 0024 0395     		str	r5, [sp, #12]
  72              		.loc 1 1233 0
  73 0026 0493     		str	r3, [sp, #16]
  74 0028 0593     		str	r3, [sp, #20]
  75 002a 0693     		str	r3, [sp, #24]
  76 002c 0793     		str	r3, [sp, #28]
  77 002e 0893     		str	r3, [sp, #32]
  78 0030 0993     		str	r3, [sp, #36]
  79 0032 0A93     		str	r3, [sp, #40]
  80 0034 0B93     		str	r3, [sp, #44]
  81 0036 0C93     		str	r3, [sp, #48]
  82 0038 0D93     		str	r3, [sp, #52]
  83              		.loc 1 1234 0
  84 003a FFF7FEFF 		bl	memcpy
  85              	.LVL2:
  86              		.loc 1 1235 0
  87 003e 01A8     		add	r0, sp, #4
  88 0040 1F21     		movs	r1, #31
  89 0042 FFF7FEFF 		bl	mpi_shift_r
  90              	.LVL3:
  91 0046 38B1     		cbz	r0, .L19
  92              	.LVL4:
  93              	.L2:
  94              		.loc 1 1249 0
  95 0048 0FB0     		add	sp, sp, #60
  96              		.cfi_remember_state
  97              		.cfi_def_cfa_offset 12
  98              		@ sp needed
  99 004a 30BD     		pop	{r4, r5, pc}
 100              	.LVL5:
 101              	.L3:
 102              		.cfi_restore_state
 103              		.loc 1 1231 0
 104 004c 0923     		movs	r3, #9
 105 004e 0293     		str	r3, [sp, #8]
 106 0050 2422     		movs	r2, #36
 107 0052 E1E7     		b	.L4
 108              	.L9:
 109              		.cfi_def_cfa_offset 0
 110              		.cfi_restore 4
 111              		.cfi_restore 5
 112              		.cfi_restore 14
 113              		.loc 1 1225 0
 114 0054 0020     		movs	r0, #0
ARM GAS  C:\Users\jo\AppData\Local\Temp\ccCDYYSi.s 			page 3


 115              	.LVL6:
 116 0056 7047     		bx	lr
 117              	.LVL7:
 118              	.L19:
 119              		.cfi_def_cfa_offset 72
 120              		.cfi_offset 4, -12
 121              		.cfi_offset 5, -8
 122              		.cfi_offset 14, -4
 123              		.loc 1 1236 0
 124 0058 029B     		ldr	r3, [sp, #8]
 125              		.loc 1 1239 0
 126 005a 0246     		mov	r2, r0
 127              		.loc 1 1236 0
 128 005c 0133     		adds	r3, r3, #1
 129              		.loc 1 1239 0
 130 005e 2046     		mov	r0, r4
 131              	.LVL8:
 132 0060 FF21     		movs	r1, #255
 133              		.loc 1 1236 0
 134 0062 0293     		str	r3, [sp, #8]
 135              		.loc 1 1239 0
 136 0064 FFF7FEFF 		bl	mpi_set_bit
 137              	.LVL9:
 138 0068 0028     		cmp	r0, #0
 139 006a EDD1     		bne	.L2
 140              	.LVL10:
 141              		.loc 1 1240 0 discriminator 1
 142 006c 6168     		ldr	r1, [r4, #4]
 143 006e 0829     		cmp	r1, #8
 144 0070 08D9     		bls	.L8
 145 0072 A368     		ldr	r3, [r4, #8]
 146              		.loc 1 1241 0
 147 0074 0246     		mov	r2, r0
 148 0076 03EB8101 		add	r1, r3, r1, lsl #2
 149 007a 2033     		adds	r3, r3, #32
 150              	.LVL11:
 151              	.L7:
 152              		.loc 1 1241 0 is_stmt 0 discriminator 3
 153 007c 43F8042B 		str	r2, [r3], #4
 154              		.loc 1 1240 0 is_stmt 1 discriminator 3
 155 0080 8B42     		cmp	r3, r1
 156 0082 FBD1     		bne	.L7
 157              	.L8:
 158              		.loc 1 1244 0
 159 0084 01A8     		add	r0, sp, #4
 160              	.LVL12:
 161 0086 0146     		mov	r1, r0
 162 0088 1322     		movs	r2, #19
 163 008a FFF7FEFF 		bl	mpi_mul_int
 164              	.LVL13:
 165 008e 0028     		cmp	r0, #0
 166 0090 DAD1     		bne	.L2
 167              		.loc 1 1245 0
 168 0092 01AA     		add	r2, sp, #4
 169 0094 2046     		mov	r0, r4
 170              	.LVL14:
 171 0096 2146     		mov	r1, r4
ARM GAS  C:\Users\jo\AppData\Local\Temp\ccCDYYSi.s 			page 4


 172 0098 FFF7FEFF 		bl	mpi_add_abs
 173              	.LVL15:
 174 009c D4E7     		b	.L2
 175              		.cfi_endproc
 176              	.LFE15:
 177              		.size	ecp_mod_p255, .-ecp_mod_p255
 178 009e 00BF     		.section	.text.ecp_mod_p521,"ax",%progbits
 179              		.align	2
 180              		.p2align 4,,15
 181              		.thumb
 182              		.thumb_func
 183              		.type	ecp_mod_p521, %function
 184              	ecp_mod_p521:
 185              	.LFB14:
 186              		.loc 1 1169 0
 187              		.cfi_startproc
 188              		@ args = 0, pretend = 0, frame = 88
 189              		@ frame_needed = 0, uses_anonymous_args = 0
 190              	.LVL16:
 191              		.loc 1 1178 0
 192 0000 4268     		ldr	r2, [r0, #4]
 193 0002 102A     		cmp	r2, #16
 194 0004 2FD9     		bls	.L27
 195              		.loc 1 1169 0
 196 0006 10B5     		push	{r4, lr}
 197              		.cfi_def_cfa_offset 8
 198              		.cfi_offset 4, -8
 199              		.cfi_offset 14, -4
 200              		.loc 1 1183 0
 201 0008 103A     		subs	r2, r2, #16
 202              		.loc 1 1169 0
 203 000a 96B0     		sub	sp, sp, #88
 204              		.cfi_def_cfa_offset 96
 205              		.loc 1 1182 0
 206 000c 0123     		movs	r3, #1
 207              		.loc 1 1184 0
 208 000e 122A     		cmp	r2, #18
 209              		.loc 1 1182 0
 210 0010 0193     		str	r3, [sp, #4]
 211              		.loc 1 1184 0
 212 0012 24D8     		bhi	.L22
 213              		.loc 1 1183 0
 214 0014 0292     		str	r2, [sp, #8]
 215 0016 9200     		lsls	r2, r2, #2
 216              	.L23:
 217              		.loc 1 1187 0
 218 0018 8168     		ldr	r1, [r0, #8]
 219              		.loc 1 1186 0
 220 001a 04AB     		add	r3, sp, #16
 221              		.loc 1 1187 0
 222 001c 4031     		adds	r1, r1, #64
 223 001e 0446     		mov	r4, r0
 224 0020 1846     		mov	r0, r3
 225              	.LVL17:
 226              		.loc 1 1186 0
 227 0022 0393     		str	r3, [sp, #12]
 228              		.loc 1 1187 0
ARM GAS  C:\Users\jo\AppData\Local\Temp\ccCDYYSi.s 			page 5


 229 0024 FFF7FEFF 		bl	memcpy
 230              	.LVL18:
 231              		.loc 1 1188 0
 232 0028 01A8     		add	r0, sp, #4
 233 002a 0921     		movs	r1, #9
 234 002c FFF7FEFF 		bl	mpi_shift_r
 235              	.LVL19:
 236 0030 98B9     		cbnz	r0, .L21
 237              		.loc 1 1191 0
 238 0032 A368     		ldr	r3, [r4, #8]
 239              		.loc 1 1192 0
 240 0034 6268     		ldr	r2, [r4, #4]
 241              		.loc 1 1191 0
 242 0036 196C     		ldr	r1, [r3, #64]
 243              		.loc 1 1192 0
 244 0038 112A     		cmp	r2, #17
 245              		.loc 1 1191 0
 246 003a C1F30801 		ubfx	r1, r1, #0, #9
 247 003e 1964     		str	r1, [r3, #64]
 248              	.LVL20:
 249              		.loc 1 1192 0
 250 0040 06D9     		bls	.L26
 251 0042 03EB8202 		add	r2, r3, r2, lsl #2
 252 0046 4433     		adds	r3, r3, #68
 253              	.LVL21:
 254              	.L25:
 255              		.loc 1 1193 0 discriminator 3
 256 0048 43F8040B 		str	r0, [r3], #4
 257              		.loc 1 1192 0 discriminator 3
 258 004c 9342     		cmp	r3, r2
 259 004e FBD1     		bne	.L25
 260              	.L26:
 261              		.loc 1 1196 0
 262 0050 01AA     		add	r2, sp, #4
 263 0052 2046     		mov	r0, r4
 264              	.LVL22:
 265 0054 2146     		mov	r1, r4
 266 0056 FFF7FEFF 		bl	mpi_add_abs
 267              	.LVL23:
 268              	.L21:
 269              		.loc 1 1200 0
 270 005a 16B0     		add	sp, sp, #88
 271              		.cfi_remember_state
 272              		.cfi_def_cfa_offset 8
 273              		@ sp needed
 274 005c 10BD     		pop	{r4, pc}
 275              	.LVL24:
 276              	.L22:
 277              		.cfi_restore_state
 278              		.loc 1 1185 0
 279 005e 1223     		movs	r3, #18
 280 0060 0293     		str	r3, [sp, #8]
 281 0062 4822     		movs	r2, #72
 282 0064 D8E7     		b	.L23
 283              	.L27:
 284              		.cfi_def_cfa_offset 0
 285              		.cfi_restore 4
ARM GAS  C:\Users\jo\AppData\Local\Temp\ccCDYYSi.s 			page 6


 286              		.cfi_restore 14
 287              		.loc 1 1179 0
 288 0066 0020     		movs	r0, #0
 289              	.LVL25:
 290 0068 7047     		bx	lr
 291              		.cfi_endproc
 292              	.LFE14:
 293              		.size	ecp_mod_p521, .-ecp_mod_p521
 294 006a 00BFAFF3 		.section	.text.ecp_mod_p384,"ax",%progbits
 294      0080
 295              		.align	2
 296              		.p2align 4,,15
 297              		.thumb
 298              		.thumb_func
 299              		.type	ecp_mod_p384, %function
 300              	ecp_mod_p384:
 301              	.LFB13:
 302              		.loc 1 1092 0
 303              		.cfi_startproc
 304              		@ args = 0, pretend = 0, frame = 72
 305              		@ frame_needed = 0, uses_anonymous_args = 0
 306              	.LVL26:
 307 0000 2DE9F04F 		push	{r4, r5, r6, r7, r8, r9, r10, fp, lr}
 308              		.cfi_def_cfa_offset 36
 309              		.cfi_offset 4, -36
 310              		.cfi_offset 5, -32
 311              		.cfi_offset 6, -28
 312              		.cfi_offset 7, -24
 313              		.cfi_offset 8, -20
 314              		.cfi_offset 9, -16
 315              		.cfi_offset 10, -12
 316              		.cfi_offset 11, -8
 317              		.cfi_offset 14, -4
 318 0004 93B0     		sub	sp, sp, #76
 319              		.cfi_def_cfa_offset 112
 320              		.loc 1 1093 0
 321 0006 0023     		movs	r3, #0
 322 0008 0D24     		movs	r4, #13
 323 000a 05AA     		add	r2, sp, #20
 324 000c 0125     		movs	r5, #1
 325 000e 1821     		movs	r1, #24
 326 0010 0394     		str	r4, [sp, #12]
 327 0012 0295     		str	r5, [sp, #8]
 328 0014 0492     		str	r2, [sp, #16]
 329 0016 0593     		str	r3, [sp, #20]
 330 0018 0693     		str	r3, [sp, #24]
 331 001a 0793     		str	r3, [sp, #28]
 332 001c 0893     		str	r3, [sp, #32]
 333 001e 0993     		str	r3, [sp, #36]
 334 0020 0A93     		str	r3, [sp, #40]
 335 0022 0B93     		str	r3, [sp, #44]
 336 0024 0C93     		str	r3, [sp, #48]
 337 0026 0D93     		str	r3, [sp, #52]
 338 0028 0E93     		str	r3, [sp, #56]
 339 002a 0F93     		str	r3, [sp, #60]
 340 002c 1093     		str	r3, [sp, #64]
 341 002e 1193     		str	r3, [sp, #68]
ARM GAS  C:\Users\jo\AppData\Local\Temp\ccCDYYSi.s 			page 7


 342              		.loc 1 1092 0
 343 0030 0446     		mov	r4, r0
 344 0032 0190     		str	r0, [sp, #4]
 345              		.loc 1 1093 0
 346 0034 FFF7FEFF 		bl	mpi_grow
 347              	.LVL27:
 348 0038 8046     		mov	r8, r0
 349 003a 0028     		cmp	r0, #0
 350 003c 40F0CD81 		bne	.L34
 351              		.loc 1 1093 0 is_stmt 0 discriminator 1
 352 0040 A368     		ldr	r3, [r4, #8]
 353 0042 1968     		ldr	r1, [r3]
 354              	.LVL28:
 355              		.loc 1 1095 0 is_stmt 1 discriminator 1
 356 0044 D3F830B0 		ldr	fp, [r3, #48]
 357              	.LVL29:
 358 0048 5E6D     		ldr	r6, [r3, #84]
 359 004a 1F6D     		ldr	r7, [r3, #80]
 360              		.loc 1 1096 0 discriminator 1
 361 004c DC6D     		ldr	r4, [r3, #92]
 362              	.LVL30:
 363 004e 5868     		ldr	r0, [r3, #4]
 364              	.LVL31:
 365              	.LBB570:
 366              	.LBB571:
 367              		.loc 1 955 0 discriminator 1
 368 0050 5944     		add	r1, r1, fp
 369              	.LVL32:
 370              		.loc 1 956 0 discriminator 1
 371 0052 8B45     		cmp	fp, r1
 372              	.LBE571:
 373              	.LBE570:
 374              	.LBB573:
 375              	.LBB574:
 376              		.loc 1 955 0 discriminator 1
 377 0054 01EB0602 		add	r2, r1, r6
 378              	.LVL33:
 379              	.LBE574:
 380              	.LBE573:
 381              	.LBB576:
 382              	.LBB572:
 383              		.loc 1 956 0 discriminator 1
 384 0058 94BF     		ite	ls
 385 005a 0021     		movls	r1, #0
 386              	.LVL34:
 387 005c 0121     		movhi	r1, #1
 388              	.LBE572:
 389              	.LBE576:
 390              	.LBB577:
 391              	.LBB575:
 392 005e 9642     		cmp	r6, r2
 393 0060 88BF     		it	hi
 394 0062 0131     		addhi	r1, r1, #1
 395              	.LBE575:
 396              	.LBE577:
 397              	.LBB578:
 398              	.LBB579:
ARM GAS  C:\Users\jo\AppData\Local\Temp\ccCDYYSi.s 			page 8


 399 0064 D219     		adds	r2, r2, r7
 400              	.LVL35:
 401 0066 38BF     		it	cc
 402 0068 0025     		movcc	r5, #0
 403 006a 2944     		add	r1, r1, r5
 404              	.LVL36:
 405              	.LBE579:
 406              	.LBE578:
 407              	.LBB580:
 408              	.LBB581:
 409              		.loc 1 962 0 discriminator 1
 410 006c 151B     		subs	r5, r2, r4
 411              	.LVL37:
 412              	.LBE581:
 413              	.LBE580:
 414              		.loc 1 1096 0 discriminator 1
 415 006e 9442     		cmp	r4, r2
 416 0070 94BF     		ite	ls
 417 0072 0A46     		movls	r2, r1
 418 0074 4A1E     		subhi	r2, r1, #1
 419              	.LVL38:
 420 0076 511C     		adds	r1, r2, #1
 421              	.LVL39:
 422 0078 1D60     		str	r5, [r3]
 423              	.LVL40:
 424 007a 00F0B281 		beq	.L65
 425              	.LVL41:
 426              	.LBB582:
 427              	.LBB583:
 428              		.loc 1 956 0 discriminator 2
 429 007e 1218     		adds	r2, r2, r0
 430              	.LVL42:
 431 0080 2CBF     		ite	cs
 432 0082 4FF0010E 		movcs	lr, #1
 433 0086 4FF0000E 		movcc	lr, #0
 434              	.LVL43:
 435              	.L36:
 436              	.LBE583:
 437              	.LBE582:
 438              		.loc 1 1098 0
 439 008a D3F834A0 		ldr	r10, [r3, #52]
 440              	.LVL44:
 441 008e 9D6D     		ldr	r5, [r3, #88]
 442              		.loc 1 1099 0
 443 0090 9968     		ldr	r1, [r3, #8]
 444              	.LBB584:
 445              	.LBB585:
 446              		.loc 1 955 0
 447 0092 5244     		add	r2, r2, r10
 448              	.LVL45:
 449              		.loc 1 956 0
 450 0094 9245     		cmp	r10, r2
 451 0096 94BF     		ite	ls
 452 0098 7046     		movls	r0, lr
 453 009a 0EF10100 		addhi	r0, lr, #1
 454              	.LBE585:
 455              	.LBE584:
ARM GAS  C:\Users\jo\AppData\Local\Temp\ccCDYYSi.s 			page 9


 456              	.LBB586:
 457              	.LBB587:
 458              		.loc 1 955 0
 459 009e 2A44     		add	r2, r2, r5
 460              	.LVL46:
 461              		.loc 1 956 0
 462 00a0 9542     		cmp	r5, r2
 463 00a2 88BF     		it	hi
 464 00a4 0130     		addhi	r0, r0, #1
 465              	.LBE587:
 466              	.LBE586:
 467              	.LBB588:
 468              	.LBB589:
 469              		.loc 1 955 0
 470 00a6 2244     		add	r2, r2, r4
 471              	.LVL47:
 472              		.loc 1 956 0
 473 00a8 9442     		cmp	r4, r2
 474 00aa 88BF     		it	hi
 475 00ac 0130     		addhi	r0, r0, #1
 476              	.LBE589:
 477              	.LBE588:
 478              	.LBB590:
 479              	.LBB591:
 480              		.loc 1 961 0
 481 00ae 9345     		cmp	fp, r2
 482 00b0 88BF     		it	hi
 483 00b2 0138     		subhi	r0, r0, #1
 484              		.loc 1 962 0
 485 00b4 CBEB0202 		rsb	r2, fp, r2
 486              	.LVL48:
 487              	.LBE591:
 488              	.LBE590:
 489              	.LBB592:
 490              	.LBB593:
 491              		.loc 1 961 0
 492 00b8 9742     		cmp	r7, r2
 493 00ba 88BF     		it	hi
 494 00bc 0138     		subhi	r0, r0, #1
 495              	.LVL49:
 496              	.LBE593:
 497              	.LBE592:
 498              		.loc 1 1099 0
 499 00be 40B2     		sxtb	r0, r0
 500              	.LBB595:
 501              	.LBB594:
 502              		.loc 1 962 0
 503 00c0 D21B     		subs	r2, r2, r7
 504              	.LVL50:
 505              	.LBE594:
 506              	.LBE595:
 507              		.loc 1 1099 0
 508 00c2 0028     		cmp	r0, #0
 509 00c4 5A60     		str	r2, [r3, #4]
 510              	.LVL51:
 511 00c6 C0F2EB81 		blt	.L66
 512              	.LVL52:
ARM GAS  C:\Users\jo\AppData\Local\Temp\ccCDYYSi.s 			page 10


 513              	.LBB596:
 514              	.LBB597:
 515              		.loc 1 956 0 discriminator 2
 516 00ca 4218     		adds	r2, r0, r1
 517              	.LVL53:
 518 00cc 2CBF     		ite	cs
 519 00ce 4FF0010E 		movcs	lr, #1
 520 00d2 4FF0000E 		movcc	lr, #0
 521              	.LVL54:
 522              	.L38:
 523              	.LBE597:
 524              	.LBE596:
 525              		.loc 1 1101 0
 526 00d6 D3F83890 		ldr	r9, [r3, #56]
 527              	.LVL55:
 528              		.loc 1 1102 0
 529 00da D968     		ldr	r1, [r3, #12]
 530              	.LBB598:
 531              	.LBB599:
 532              		.loc 1 955 0
 533 00dc 4A44     		add	r2, r2, r9
 534              	.LVL56:
 535              		.loc 1 956 0
 536 00de 9145     		cmp	r9, r2
 537 00e0 94BF     		ite	ls
 538 00e2 7046     		movls	r0, lr
 539 00e4 0EF10100 		addhi	r0, lr, #1
 540              	.LBE599:
 541              	.LBE598:
 542              	.LBB600:
 543              	.LBB601:
 544              		.loc 1 955 0
 545 00e8 2244     		add	r2, r2, r4
 546              	.LVL57:
 547              		.loc 1 956 0
 548 00ea 9442     		cmp	r4, r2
 549 00ec 88BF     		it	hi
 550 00ee 0130     		addhi	r0, r0, #1
 551              	.LBE601:
 552              	.LBE600:
 553              	.LBB602:
 554              	.LBB603:
 555              		.loc 1 961 0
 556 00f0 9245     		cmp	r10, r2
 557 00f2 88BF     		it	hi
 558 00f4 0138     		subhi	r0, r0, #1
 559              		.loc 1 962 0
 560 00f6 CAEB0202 		rsb	r2, r10, r2
 561              	.LVL58:
 562              	.LBE603:
 563              	.LBE602:
 564              	.LBB604:
 565              	.LBB605:
 566              		.loc 1 961 0
 567 00fa 9642     		cmp	r6, r2
 568 00fc 88BF     		it	hi
 569 00fe 0138     		subhi	r0, r0, #1
ARM GAS  C:\Users\jo\AppData\Local\Temp\ccCDYYSi.s 			page 11


 570              	.LVL59:
 571              	.LBE605:
 572              	.LBE604:
 573              		.loc 1 1102 0
 574 0100 40B2     		sxtb	r0, r0
 575              	.LBB607:
 576              	.LBB606:
 577              		.loc 1 962 0
 578 0102 921B     		subs	r2, r2, r6
 579              	.LVL60:
 580              	.LBE606:
 581              	.LBE607:
 582              		.loc 1 1102 0
 583 0104 0028     		cmp	r0, #0
 584 0106 9A60     		str	r2, [r3, #8]
 585              	.LVL61:
 586 0108 C0F2C181 		blt	.L67
 587              	.LVL62:
 588              	.LBB608:
 589              	.LBB609:
 590              		.loc 1 956 0 discriminator 2
 591 010c 4118     		adds	r1, r0, r1
 592              	.LVL63:
 593 010e 2CBF     		ite	cs
 594 0110 4FF0010E 		movcs	lr, #1
 595 0114 4FF0000E 		movcc	lr, #0
 596              	.LVL64:
 597              	.L40:
 598              	.LBE609:
 599              	.LBE608:
 600              		.loc 1 1104 0
 601 0118 D3F83CC0 		ldr	ip, [r3, #60]
 602              	.LVL65:
 603              		.loc 1 1105 0
 604 011c 1A69     		ldr	r2, [r3, #16]
 605              	.LBB610:
 606              	.LBB611:
 607              		.loc 1 955 0
 608 011e 6144     		add	r1, r1, ip
 609              	.LVL66:
 610              		.loc 1 956 0
 611 0120 8C45     		cmp	ip, r1
 612 0122 94BF     		ite	ls
 613 0124 7046     		movls	r0, lr
 614 0126 0EF10100 		addhi	r0, lr, #1
 615              	.LBE611:
 616              	.LBE610:
 617              	.LBB612:
 618              	.LBB613:
 619              		.loc 1 955 0
 620 012a 5944     		add	r1, r1, fp
 621              	.LVL67:
 622              		.loc 1 956 0
 623 012c 8B45     		cmp	fp, r1
 624 012e 88BF     		it	hi
 625 0130 0130     		addhi	r0, r0, #1
 626              	.LBE613:
ARM GAS  C:\Users\jo\AppData\Local\Temp\ccCDYYSi.s 			page 12


 627              	.LBE612:
 628              	.LBB614:
 629              	.LBB615:
 630              		.loc 1 955 0
 631 0132 3944     		add	r1, r1, r7
 632              	.LVL68:
 633              		.loc 1 956 0
 634 0134 8F42     		cmp	r7, r1
 635 0136 88BF     		it	hi
 636 0138 0130     		addhi	r0, r0, #1
 637              	.LBE615:
 638              	.LBE614:
 639              	.LBB616:
 640              	.LBB617:
 641              		.loc 1 955 0
 642 013a 3144     		add	r1, r1, r6
 643              	.LVL69:
 644              		.loc 1 956 0
 645 013c 8E42     		cmp	r6, r1
 646 013e 88BF     		it	hi
 647 0140 0130     		addhi	r0, r0, #1
 648              	.LBE617:
 649              	.LBE616:
 650              	.LBB618:
 651              	.LBB619:
 652              		.loc 1 961 0
 653 0142 8945     		cmp	r9, r1
 654 0144 88BF     		it	hi
 655 0146 0138     		subhi	r0, r0, #1
 656              		.loc 1 962 0
 657 0148 C9EB0101 		rsb	r1, r9, r1
 658              	.LVL70:
 659              	.LBE619:
 660              	.LBE618:
 661              	.LBB620:
 662              	.LBB621:
 663              		.loc 1 961 0
 664 014c 8D42     		cmp	r5, r1
 665 014e 88BF     		it	hi
 666 0150 0138     		subhi	r0, r0, #1
 667              		.loc 1 962 0
 668 0152 491B     		subs	r1, r1, r5
 669              	.LVL71:
 670              	.LBE621:
 671              	.LBE620:
 672              	.LBB622:
 673              	.LBB623:
 674              		.loc 1 961 0
 675 0154 8C42     		cmp	r4, r1
 676 0156 88BF     		it	hi
 677 0158 0138     		subhi	r0, r0, #1
 678              	.LVL72:
 679              	.LBE623:
 680              	.LBE622:
 681              		.loc 1 1105 0
 682 015a 40B2     		sxtb	r0, r0
 683              	.LBB625:
ARM GAS  C:\Users\jo\AppData\Local\Temp\ccCDYYSi.s 			page 13


 684              	.LBB624:
 685              		.loc 1 962 0
 686 015c 091B     		subs	r1, r1, r4
 687              	.LVL73:
 688              	.LBE624:
 689              	.LBE625:
 690              		.loc 1 1105 0
 691 015e 0028     		cmp	r0, #0
 692 0160 D960     		str	r1, [r3, #12]
 693              	.LVL74:
 694 0162 C0F28D81 		blt	.L68
 695              	.LVL75:
 696              	.LBB626:
 697              	.LBB627:
 698              		.loc 1 956 0 discriminator 2
 699 0166 8218     		adds	r2, r0, r2
 700              	.LVL76:
 701 0168 2CBF     		ite	cs
 702 016a 0120     		movcs	r0, #1
 703              	.LVL77:
 704 016c 0020     		movcc	r0, #0
 705              	.LVL78:
 706              	.L42:
 707              	.LBE627:
 708              	.LBE626:
 709              	.LBB628:
 710              	.LBB629:
 711              		.loc 1 955 0
 712 016e 3244     		add	r2, r2, r6
 713              	.LVL79:
 714              	.LBE629:
 715              	.LBE628:
 716              		.loc 1 1107 0
 717 0170 D3F840E0 		ldr	lr, [r3, #64]
 718              		.loc 1 1108 0
 719 0174 5969     		ldr	r1, [r3, #20]
 720              	.LBB631:
 721              	.LBB630:
 722              		.loc 1 956 0
 723 0176 9642     		cmp	r6, r2
 724 0178 88BF     		it	hi
 725 017a 0130     		addhi	r0, r0, #1
 726              	.LVL80:
 727              	.LBE630:
 728              	.LBE631:
 729              	.LBB632:
 730              	.LBB633:
 731              		.loc 1 955 0
 732 017c 3244     		add	r2, r2, r6
 733              	.LVL81:
 734              		.loc 1 956 0
 735 017e 9642     		cmp	r6, r2
 736 0180 88BF     		it	hi
 737 0182 0130     		addhi	r0, r0, #1
 738              	.LBE633:
 739              	.LBE632:
 740              	.LBB634:
ARM GAS  C:\Users\jo\AppData\Local\Temp\ccCDYYSi.s 			page 14


 741              	.LBB635:
 742              		.loc 1 955 0
 743 0184 7244     		add	r2, r2, lr
 744              	.LVL82:
 745              		.loc 1 956 0
 746 0186 9645     		cmp	lr, r2
 747 0188 88BF     		it	hi
 748 018a 0130     		addhi	r0, r0, #1
 749              	.LBE635:
 750              	.LBE634:
 751              	.LBB636:
 752              	.LBB637:
 753              		.loc 1 955 0
 754 018c 5244     		add	r2, r2, r10
 755              	.LVL83:
 756              		.loc 1 956 0
 757 018e 9245     		cmp	r10, r2
 758 0190 88BF     		it	hi
 759 0192 0130     		addhi	r0, r0, #1
 760              	.LBE637:
 761              	.LBE636:
 762              	.LBB638:
 763              	.LBB639:
 764              		.loc 1 955 0
 765 0194 5A44     		add	r2, r2, fp
 766              	.LVL84:
 767              		.loc 1 956 0
 768 0196 9345     		cmp	fp, r2
 769 0198 88BF     		it	hi
 770 019a 0130     		addhi	r0, r0, #1
 771              	.LBE639:
 772              	.LBE638:
 773              	.LBB640:
 774              	.LBB641:
 775              		.loc 1 955 0
 776 019c 3A44     		add	r2, r2, r7
 777              	.LVL85:
 778              		.loc 1 956 0
 779 019e 9742     		cmp	r7, r2
 780 01a0 88BF     		it	hi
 781 01a2 0130     		addhi	r0, r0, #1
 782              	.LBE641:
 783              	.LBE640:
 784              	.LBB642:
 785              	.LBB643:
 786              		.loc 1 955 0
 787 01a4 2A44     		add	r2, r2, r5
 788              	.LVL86:
 789              		.loc 1 956 0
 790 01a6 9542     		cmp	r5, r2
 791 01a8 88BF     		it	hi
 792 01aa 0130     		addhi	r0, r0, #1
 793              	.LBE643:
 794              	.LBE642:
 795              	.LBB644:
 796              	.LBB645:
 797              		.loc 1 961 0
ARM GAS  C:\Users\jo\AppData\Local\Temp\ccCDYYSi.s 			page 15


 798 01ac 9445     		cmp	ip, r2
 799 01ae 88BF     		it	hi
 800 01b0 0138     		subhi	r0, r0, #1
 801              		.loc 1 962 0
 802 01b2 CCEB0202 		rsb	r2, ip, r2
 803              	.LVL87:
 804              	.LBE645:
 805              	.LBE644:
 806              	.LBB646:
 807              	.LBB647:
 808              		.loc 1 961 0
 809 01b6 9442     		cmp	r4, r2
 810 01b8 88BF     		it	hi
 811 01ba 0138     		subhi	r0, r0, #1
 812              		.loc 1 962 0
 813 01bc 121B     		subs	r2, r2, r4
 814              	.LVL88:
 815              	.LBE647:
 816              	.LBE646:
 817              	.LBB648:
 818              	.LBB649:
 819              		.loc 1 961 0
 820 01be 9442     		cmp	r4, r2
 821 01c0 88BF     		it	hi
 822 01c2 0138     		subhi	r0, r0, #1
 823              	.LVL89:
 824              	.LBE649:
 825              	.LBE648:
 826              		.loc 1 1108 0
 827 01c4 40B2     		sxtb	r0, r0
 828              	.LBB651:
 829              	.LBB650:
 830              		.loc 1 962 0
 831 01c6 121B     		subs	r2, r2, r4
 832              	.LVL90:
 833              	.LBE650:
 834              	.LBE651:
 835              		.loc 1 1108 0
 836 01c8 0028     		cmp	r0, #0
 837 01ca 1A61     		str	r2, [r3, #16]
 838              	.LVL91:
 839 01cc C0F25181 		blt	.L69
 840              	.LVL92:
 841              	.LBB652:
 842              	.LBB653:
 843              		.loc 1 956 0 discriminator 2
 844 01d0 4118     		adds	r1, r0, r1
 845              	.LVL93:
 846 01d2 2CBF     		ite	cs
 847 01d4 0122     		movcs	r2, #1
 848 01d6 0022     		movcc	r2, #0
 849              	.LVL94:
 850              	.L44:
 851              	.LBE653:
 852              	.LBE652:
 853              	.LBB654:
 854              	.LBB655:
ARM GAS  C:\Users\jo\AppData\Local\Temp\ccCDYYSi.s 			page 16


 855              		.loc 1 955 0
 856 01d8 2944     		add	r1, r1, r5
 857              	.LVL95:
 858              	.LBE655:
 859              	.LBE654:
 860              		.loc 1 1110 0
 861 01da D3F844B0 		ldr	fp, [r3, #68]
 862              	.LVL96:
 863              		.loc 1 1111 0
 864 01de 9869     		ldr	r0, [r3, #24]
 865              	.LBB657:
 866              	.LBB656:
 867              		.loc 1 956 0
 868 01e0 8D42     		cmp	r5, r1
 869 01e2 88BF     		it	hi
 870 01e4 0132     		addhi	r2, r2, #1
 871              	.LVL97:
 872              	.LBE656:
 873              	.LBE657:
 874              	.LBB658:
 875              	.LBB659:
 876              		.loc 1 955 0
 877 01e6 2944     		add	r1, r1, r5
 878              	.LVL98:
 879              		.loc 1 956 0
 880 01e8 8D42     		cmp	r5, r1
 881 01ea 88BF     		it	hi
 882 01ec 0132     		addhi	r2, r2, #1
 883              	.LBE659:
 884              	.LBE658:
 885              	.LBB660:
 886              	.LBB661:
 887              		.loc 1 955 0
 888 01ee 5944     		add	r1, r1, fp
 889              	.LVL99:
 890              		.loc 1 956 0
 891 01f0 8B45     		cmp	fp, r1
 892 01f2 88BF     		it	hi
 893 01f4 0132     		addhi	r2, r2, #1
 894              	.LBE661:
 895              	.LBE660:
 896              	.LBB662:
 897              	.LBB663:
 898              		.loc 1 955 0
 899 01f6 4944     		add	r1, r1, r9
 900              	.LVL100:
 901              		.loc 1 956 0
 902 01f8 8945     		cmp	r9, r1
 903 01fa 88BF     		it	hi
 904 01fc 0132     		addhi	r2, r2, #1
 905              	.LBE663:
 906              	.LBE662:
 907              	.LBB664:
 908              	.LBB665:
 909              		.loc 1 955 0
 910 01fe 5144     		add	r1, r1, r10
 911              	.LVL101:
ARM GAS  C:\Users\jo\AppData\Local\Temp\ccCDYYSi.s 			page 17


 912              		.loc 1 956 0
 913 0200 8A45     		cmp	r10, r1
 914 0202 94BF     		ite	ls
 915 0204 9246     		movls	r10, r2
 916 0206 02F1010A 		addhi	r10, r2, #1
 917              	.LVL102:
 918              	.LBE665:
 919              	.LBE664:
 920              	.LBB666:
 921              	.LBB667:
 922              		.loc 1 955 0
 923 020a 3144     		add	r1, r1, r6
 924              	.LVL103:
 925              		.loc 1 956 0
 926 020c 8E42     		cmp	r6, r1
 927 020e 88BF     		it	hi
 928 0210 0AF1010A 		addhi	r10, r10, #1
 929              	.LBE667:
 930              	.LBE666:
 931              	.LBB668:
 932              	.LBB669:
 933 0214 0919     		adds	r1, r1, r4
 934              	.LVL104:
 935 0216 2CBF     		ite	cs
 936 0218 0122     		movcs	r2, #1
 937 021a 0022     		movcc	r2, #0
 938 021c 9244     		add	r10, r10, r2
 939              	.LBE669:
 940              	.LBE668:
 941              	.LBB670:
 942              	.LBB671:
 943              		.loc 1 961 0
 944 021e 8E45     		cmp	lr, r1
 945 0220 88BF     		it	hi
 946 0222 AAF1010A 		subhi	r10, r10, #1
 947              	.LVL105:
 948              	.LBE671:
 949              	.LBE670:
 950              		.loc 1 1111 0
 951 0226 4FFA8AFA 		sxtb	r10, r10
 952              	.LBB673:
 953              	.LBB672:
 954              		.loc 1 962 0
 955 022a CEEB0101 		rsb	r1, lr, r1
 956              	.LVL106:
 957              	.LBE672:
 958              	.LBE673:
 959              		.loc 1 1111 0
 960 022e BAF1000F 		cmp	r10, #0
 961 0232 5961     		str	r1, [r3, #20]
 962              	.LVL107:
 963 0234 C0F21481 		blt	.L70
 964              	.LVL108:
 965              	.LBB674:
 966              	.LBB675:
 967              		.loc 1 956 0 discriminator 2
 968 0238 1AEB0000 		adds	r0, r10, r0
ARM GAS  C:\Users\jo\AppData\Local\Temp\ccCDYYSi.s 			page 18


 969              	.LVL109:
 970 023c 2CBF     		ite	cs
 971 023e 0121     		movcs	r1, #1
 972 0240 0021     		movcc	r1, #0
 973              	.LVL110:
 974              	.L46:
 975              	.LBE675:
 976              	.LBE674:
 977              	.LBB676:
 978              	.LBB677:
 979              		.loc 1 955 0
 980 0242 2044     		add	r0, r0, r4
 981              	.LVL111:
 982              	.LBE677:
 983              	.LBE676:
 984              		.loc 1 1113 0
 985 0244 D3F848A0 		ldr	r10, [r3, #72]
 986              		.loc 1 1114 0
 987 0248 DA69     		ldr	r2, [r3, #28]
 988              	.LBB679:
 989              	.LBB678:
 990              		.loc 1 956 0
 991 024a 8442     		cmp	r4, r0
 992 024c 88BF     		it	hi
 993 024e 0131     		addhi	r1, r1, #1
 994              	.LVL112:
 995              	.LBE678:
 996              	.LBE679:
 997              	.LBB680:
 998              	.LBB681:
 999              		.loc 1 955 0
 1000 0250 2044     		add	r0, r0, r4
 1001              	.LVL113:
 1002              		.loc 1 956 0
 1003 0252 8442     		cmp	r4, r0
 1004 0254 88BF     		it	hi
 1005 0256 0131     		addhi	r1, r1, #1
 1006              	.LBE681:
 1007              	.LBE680:
 1008              	.LBB682:
 1009              	.LBB683:
 1010              		.loc 1 955 0
 1011 0258 5044     		add	r0, r0, r10
 1012              	.LVL114:
 1013              		.loc 1 956 0
 1014 025a 8245     		cmp	r10, r0
 1015 025c 88BF     		it	hi
 1016 025e 0131     		addhi	r1, r1, #1
 1017              	.LBE683:
 1018              	.LBE682:
 1019              	.LBB684:
 1020              	.LBB685:
 1021              		.loc 1 955 0
 1022 0260 6044     		add	r0, r0, ip
 1023              	.LVL115:
 1024              		.loc 1 956 0
 1025 0262 8445     		cmp	ip, r0
ARM GAS  C:\Users\jo\AppData\Local\Temp\ccCDYYSi.s 			page 19


 1026 0264 88BF     		it	hi
 1027 0266 0131     		addhi	r1, r1, #1
 1028              	.LBE685:
 1029              	.LBE684:
 1030              	.LBB686:
 1031              	.LBB687:
 1032              		.loc 1 955 0
 1033 0268 4844     		add	r0, r0, r9
 1034              	.LVL116:
 1035              		.loc 1 956 0
 1036 026a 8145     		cmp	r9, r0
 1037 026c 88BF     		it	hi
 1038 026e 0131     		addhi	r1, r1, #1
 1039              	.LBE687:
 1040              	.LBE686:
 1041              	.LBB688:
 1042              	.LBB689:
 1043 0270 4019     		adds	r0, r0, r5
 1044              	.LVL117:
 1045 0272 2CBF     		ite	cs
 1046 0274 4FF00109 		movcs	r9, #1
 1047              	.LVL118:
 1048 0278 4FF00009 		movcc	r9, #0
 1049 027c 4944     		add	r1, r1, r9
 1050              	.LBE689:
 1051              	.LBE688:
 1052              	.LBB690:
 1053              	.LBB691:
 1054              		.loc 1 961 0
 1055 027e 8345     		cmp	fp, r0
 1056 0280 88BF     		it	hi
 1057 0282 0139     		subhi	r1, r1, #1
 1058              	.LVL119:
 1059              	.LBE691:
 1060              	.LBE690:
 1061              		.loc 1 1114 0
 1062 0284 49B2     		sxtb	r1, r1
 1063              	.LBB693:
 1064              	.LBB692:
 1065              		.loc 1 962 0
 1066 0286 CBEB0000 		rsb	r0, fp, r0
 1067              	.LVL120:
 1068              	.LBE692:
 1069              	.LBE693:
 1070              		.loc 1 1114 0
 1071 028a 0029     		cmp	r1, #0
 1072 028c 9861     		str	r0, [r3, #24]
 1073              	.LVL121:
 1074 028e C0F2E080 		blt	.L71
 1075              	.LVL122:
 1076              	.LBB694:
 1077              	.LBB695:
 1078              		.loc 1 956 0 discriminator 2
 1079 0292 8A18     		adds	r2, r1, r2
 1080              	.LVL123:
 1081 0294 2CBF     		ite	cs
 1082 0296 0120     		movcs	r0, #1
ARM GAS  C:\Users\jo\AppData\Local\Temp\ccCDYYSi.s 			page 20


 1083 0298 0020     		movcc	r0, #0
 1084              	.LVL124:
 1085              	.L48:
 1086              	.LBE695:
 1087              	.LBE694:
 1088              		.loc 1 1116 0
 1089 029a D3F84C90 		ldr	r9, [r3, #76]
 1090              	.LVL125:
 1091              		.loc 1 1117 0
 1092 029e 196A     		ldr	r1, [r3, #32]
 1093              	.LBB696:
 1094              	.LBB697:
 1095              		.loc 1 955 0
 1096 02a0 4A44     		add	r2, r2, r9
 1097              	.LVL126:
 1098              		.loc 1 956 0
 1099 02a2 9145     		cmp	r9, r2
 1100 02a4 88BF     		it	hi
 1101 02a6 0130     		addhi	r0, r0, #1
 1102              	.LVL127:
 1103              	.LBE697:
 1104              	.LBE696:
 1105              	.LBB698:
 1106              	.LBB699:
 1107              		.loc 1 955 0
 1108 02a8 7244     		add	r2, r2, lr
 1109              	.LVL128:
 1110              		.loc 1 956 0
 1111 02aa 9645     		cmp	lr, r2
 1112 02ac 88BF     		it	hi
 1113 02ae 0130     		addhi	r0, r0, #1
 1114              	.LBE699:
 1115              	.LBE698:
 1116              	.LBB700:
 1117              	.LBB701:
 1118              		.loc 1 955 0
 1119 02b0 6244     		add	r2, r2, ip
 1120              	.LVL129:
 1121              		.loc 1 956 0
 1122 02b2 9445     		cmp	ip, r2
 1123 02b4 88BF     		it	hi
 1124 02b6 0130     		addhi	r0, r0, #1
 1125              	.LBE701:
 1126              	.LBE700:
 1127              	.LBB702:
 1128              	.LBB703:
 1129 02b8 1219     		adds	r2, r2, r4
 1130              	.LVL130:
 1131 02ba 2CBF     		ite	cs
 1132 02bc 4FF0010C 		movcs	ip, #1
 1133              	.LVL131:
 1134 02c0 4FF0000C 		movcc	ip, #0
 1135 02c4 6044     		add	r0, r0, ip
 1136              	.LBE703:
 1137              	.LBE702:
 1138              	.LBB704:
 1139              	.LBB705:
ARM GAS  C:\Users\jo\AppData\Local\Temp\ccCDYYSi.s 			page 21


 1140              		.loc 1 961 0
 1141 02c6 9245     		cmp	r10, r2
 1142 02c8 88BF     		it	hi
 1143 02ca 0138     		subhi	r0, r0, #1
 1144              	.LVL132:
 1145              	.LBE705:
 1146              	.LBE704:
 1147              		.loc 1 1117 0
 1148 02cc 40B2     		sxtb	r0, r0
 1149              	.LBB707:
 1150              	.LBB706:
 1151              		.loc 1 962 0
 1152 02ce CAEB0202 		rsb	r2, r10, r2
 1153              	.LVL133:
 1154              	.LBE706:
 1155              	.LBE707:
 1156              		.loc 1 1117 0
 1157 02d2 0028     		cmp	r0, #0
 1158 02d4 DA61     		str	r2, [r3, #28]
 1159              	.LVL134:
 1160 02d6 C0F2B580 		blt	.L72
 1161              	.LVL135:
 1162              	.LBB708:
 1163              	.LBB709:
 1164              		.loc 1 956 0 discriminator 2
 1165 02da 4118     		adds	r1, r0, r1
 1166              	.LVL136:
 1167 02dc 2CBF     		ite	cs
 1168 02de 0122     		movcs	r2, #1
 1169 02e0 0022     		movcc	r2, #0
 1170              	.LVL137:
 1171              	.L50:
 1172              	.LBE709:
 1173              	.LBE708:
 1174              	.LBB710:
 1175              	.LBB711:
 1176              		.loc 1 955 0
 1177 02e2 3944     		add	r1, r1, r7
 1178              	.LVL138:
 1179              		.loc 1 956 0
 1180 02e4 8F42     		cmp	r7, r1
 1181 02e6 88BF     		it	hi
 1182 02e8 0132     		addhi	r2, r2, #1
 1183              	.LVL139:
 1184              	.LBE711:
 1185              	.LBE710:
 1186              	.LBB712:
 1187              	.LBB713:
 1188              		.loc 1 955 0
 1189 02ea 5944     		add	r1, r1, fp
 1190              	.LVL140:
 1191              		.loc 1 956 0
 1192 02ec 8B45     		cmp	fp, r1
 1193 02ee 88BF     		it	hi
 1194 02f0 0132     		addhi	r2, r2, #1
 1195              	.LBE713:
 1196              	.LBE712:
ARM GAS  C:\Users\jo\AppData\Local\Temp\ccCDYYSi.s 			page 22


 1197              	.LBB714:
 1198              	.LBB715:
 1199 02f2 11EB0E0E 		adds	lr, r1, lr
 1200              	.LVL141:
 1201 02f6 2CBF     		ite	cs
 1202 02f8 0121     		movcs	r1, #1
 1203 02fa 0021     		movcc	r1, #0
 1204 02fc 1144     		add	r1, r1, r2
 1205              	.LBE715:
 1206              	.LBE714:
 1207              	.LBB716:
 1208              	.LBB717:
 1209              		.loc 1 961 0
 1210 02fe F145     		cmp	r9, lr
 1211 0300 88BF     		it	hi
 1212 0302 0139     		subhi	r1, r1, #1
 1213              	.LVL142:
 1214              	.LBE717:
 1215              	.LBE716:
 1216              		.loc 1 1120 0
 1217 0304 4AB2     		sxtb	r2, r1
 1218 0306 002A     		cmp	r2, #0
 1219              	.LBB719:
 1220              	.LBB718:
 1221              		.loc 1 962 0
 1222 0308 C9EB0E01 		rsb	r1, r9, lr
 1223              	.LVL143:
 1224              	.LBE718:
 1225              	.LBE719:
 1226              		.loc 1 1120 0
 1227 030c 1962     		str	r1, [r3, #32]
 1228              	.LVL144:
 1229 030e 596A     		ldr	r1, [r3, #36]
 1230              	.LVL145:
 1231 0310 C0F29180 		blt	.L73
 1232              	.LVL146:
 1233              	.LBB720:
 1234              	.LBB721:
 1235              		.loc 1 956 0 discriminator 2
 1236 0314 5118     		adds	r1, r2, r1
 1237              	.LVL147:
 1238 0316 2CBF     		ite	cs
 1239 0318 0122     		movcs	r2, #1
 1240              	.LVL148:
 1241 031a 0022     		movcc	r2, #0
 1242              	.LVL149:
 1243              	.L52:
 1244              	.LBE721:
 1245              	.LBE720:
 1246              	.LBB722:
 1247              	.LBB723:
 1248              		.loc 1 955 0
 1249 031c 3144     		add	r1, r1, r6
 1250              	.LVL150:
 1251              		.loc 1 956 0
 1252 031e 8E42     		cmp	r6, r1
 1253 0320 88BF     		it	hi
ARM GAS  C:\Users\jo\AppData\Local\Temp\ccCDYYSi.s 			page 23


 1254 0322 0132     		addhi	r2, r2, #1
 1255              	.LVL151:
 1256              	.LBE723:
 1257              	.LBE722:
 1258              	.LBB724:
 1259              	.LBB725:
 1260              		.loc 1 955 0
 1261 0324 5144     		add	r1, r1, r10
 1262              	.LVL152:
 1263              		.loc 1 956 0
 1264 0326 8A45     		cmp	r10, r1
 1265 0328 88BF     		it	hi
 1266 032a 0132     		addhi	r2, r2, #1
 1267              	.LBE725:
 1268              	.LBE724:
 1269              	.LBB726:
 1270              	.LBB727:
 1271 032c 11EB0B0B 		adds	fp, r1, fp
 1272              	.LVL153:
 1273 0330 2CBF     		ite	cs
 1274 0332 0121     		movcs	r1, #1
 1275 0334 0021     		movcc	r1, #0
 1276 0336 0A44     		add	r2, r2, r1
 1277              	.LBE727:
 1278              	.LBE726:
 1279              	.LBB728:
 1280              	.LBB729:
 1281              		.loc 1 961 0
 1282 0338 5F45     		cmp	r7, fp
 1283 033a 88BF     		it	hi
 1284 033c 013A     		subhi	r2, r2, #1
 1285              	.LVL154:
 1286              	.LBE729:
 1287              	.LBE728:
 1288              		.loc 1 1123 0
 1289 033e 51B2     		sxtb	r1, r2
 1290 0340 0029     		cmp	r1, #0
 1291              	.LBB731:
 1292              	.LBB730:
 1293              		.loc 1 962 0
 1294 0342 C7EB0B02 		rsb	r2, r7, fp
 1295              	.LVL155:
 1296              	.LBE730:
 1297              	.LBE731:
 1298              		.loc 1 1123 0
 1299 0346 5A62     		str	r2, [r3, #36]
 1300              	.LVL156:
 1301 0348 9A6A     		ldr	r2, [r3, #40]
 1302              	.LVL157:
 1303 034a 6DDB     		blt	.L74
 1304              	.LVL158:
 1305              	.LBB732:
 1306              	.LBB733:
 1307              		.loc 1 956 0 discriminator 2
 1308 034c 8A18     		adds	r2, r1, r2
 1309              	.LVL159:
 1310 034e 2CBF     		ite	cs
ARM GAS  C:\Users\jo\AppData\Local\Temp\ccCDYYSi.s 			page 24


 1311 0350 0121     		movcs	r1, #1
 1312              	.LVL160:
 1313 0352 0021     		movcc	r1, #0
 1314              	.LVL161:
 1315              	.L54:
 1316              	.LBE733:
 1317              	.LBE732:
 1318              	.LBB734:
 1319              	.LBB735:
 1320              		.loc 1 955 0
 1321 0354 2A44     		add	r2, r2, r5
 1322              	.LVL162:
 1323              		.loc 1 956 0
 1324 0356 9542     		cmp	r5, r2
 1325 0358 88BF     		it	hi
 1326 035a 0131     		addhi	r1, r1, #1
 1327              	.LVL163:
 1328              	.LBE735:
 1329              	.LBE734:
 1330              	.LBB736:
 1331              	.LBB737:
 1332              		.loc 1 955 0
 1333 035c 4A44     		add	r2, r2, r9
 1334              	.LVL164:
 1335              		.loc 1 956 0
 1336 035e 9145     		cmp	r9, r2
 1337 0360 88BF     		it	hi
 1338 0362 0131     		addhi	r1, r1, #1
 1339              	.LBE737:
 1340              	.LBE736:
 1341              	.LBB738:
 1342              	.LBB739:
 1343 0364 12EB0A0A 		adds	r10, r2, r10
 1344              	.LVL165:
 1345 0368 2CBF     		ite	cs
 1346 036a 0122     		movcs	r2, #1
 1347 036c 0022     		movcc	r2, #0
 1348 036e 0A44     		add	r2, r2, r1
 1349              	.LBE739:
 1350              	.LBE738:
 1351              	.LBB740:
 1352              	.LBB741:
 1353              		.loc 1 961 0
 1354 0370 5645     		cmp	r6, r10
 1355 0372 88BF     		it	hi
 1356 0374 013A     		subhi	r2, r2, #1
 1357              	.LVL166:
 1358              	.LBE741:
 1359              	.LBE740:
 1360              		.loc 1 1126 0
 1361 0376 51B2     		sxtb	r1, r2
 1362              	.LBB743:
 1363              	.LBB742:
 1364              		.loc 1 962 0
 1365 0378 C6EB0A06 		rsb	r6, r6, r10
 1366              	.LVL167:
 1367              	.LBE742:
ARM GAS  C:\Users\jo\AppData\Local\Temp\ccCDYYSi.s 			page 25


 1368              	.LBE743:
 1369              		.loc 1 1126 0
 1370 037c 0029     		cmp	r1, #0
 1371 037e 9E62     		str	r6, [r3, #40]
 1372              	.LVL168:
 1373 0380 DA6A     		ldr	r2, [r3, #44]
 1374              	.LVL169:
 1375 0382 4ADB     		blt	.L75
 1376              	.LVL170:
 1377              	.LBB744:
 1378              	.LBB745:
 1379              		.loc 1 956 0 discriminator 2
 1380 0384 8A18     		adds	r2, r1, r2
 1381              	.LVL171:
 1382 0386 2CBF     		ite	cs
 1383 0388 0120     		movcs	r0, #1
 1384 038a 0020     		movcc	r0, #0
 1385              	.LVL172:
 1386              	.L56:
 1387              	.LBE745:
 1388              	.LBE744:
 1389              	.LBB746:
 1390              	.LBB747:
 1391              		.loc 1 955 0
 1392 038c 2244     		add	r2, r2, r4
 1393              	.LVL173:
 1394              		.loc 1 956 0
 1395 038e 9442     		cmp	r4, r2
 1396 0390 88BF     		it	hi
 1397 0392 0130     		addhi	r0, r0, #1
 1398              	.LVL174:
 1399              	.LBE747:
 1400              	.LBE746:
 1401              	.LBB748:
 1402              	.LBB749:
 1403              		.loc 1 955 0
 1404 0394 3A44     		add	r2, r2, r7
 1405              	.LVL175:
 1406              		.loc 1 956 0
 1407 0396 9742     		cmp	r7, r2
 1408 0398 94BF     		ite	ls
 1409 039a 0746     		movls	r7, r0
 1410 039c 471C     		addhi	r7, r0, #1
 1411              	.LVL176:
 1412              	.LBE749:
 1413              	.LBE748:
 1414              	.LBB750:
 1415              	.LBB751:
 1416 039e 12EB0909 		adds	r9, r2, r9
 1417              	.LVL177:
 1418 03a2 2CBF     		ite	cs
 1419 03a4 0120     		movcs	r0, #1
 1420 03a6 0020     		movcc	r0, #0
 1421              	.LBE751:
 1422              	.LBE750:
 1423              		.loc 1 1129 0
 1424 03a8 019A     		ldr	r2, [sp, #4]
ARM GAS  C:\Users\jo\AppData\Local\Temp\ccCDYYSi.s 			page 26


 1425              	.LBB753:
 1426              	.LBB752:
 1427              		.loc 1 956 0
 1428 03aa 3844     		add	r0, r0, r7
 1429              	.LBE752:
 1430              	.LBE753:
 1431              		.loc 1 1129 0
 1432 03ac 5168     		ldr	r1, [r2, #4]
 1433              	.LBB754:
 1434              	.LBB755:
 1435              		.loc 1 961 0
 1436 03ae 4D45     		cmp	r5, r9
 1437 03b0 88BF     		it	hi
 1438 03b2 0138     		subhi	r0, r0, #1
 1439              	.LVL178:
 1440              	.LBE755:
 1441              	.LBE754:
 1442              		.loc 1 1129 0
 1443 03b4 40B2     		sxtb	r0, r0
 1444              	.LBB757:
 1445              	.LBB756:
 1446              		.loc 1 962 0
 1447 03b6 C5EB0902 		rsb	r2, r5, r9
 1448              	.LVL179:
 1449              	.LBE756:
 1450              	.LBE757:
 1451              		.loc 1 1129 0
 1452 03ba 20EAE074 		bic	r4, r0, r0, asr #31
 1453              	.LVL180:
 1454 03be 0D29     		cmp	r1, #13
 1455 03c0 DA62     		str	r2, [r3, #44]
 1456              	.LVL181:
 1457 03c2 1C63     		str	r4, [r3, #48]
 1458              	.LVL182:
 1459 03c4 07D9     		bls	.L61
 1460 03c6 03EB8102 		add	r2, r3, r1, lsl #2
 1461 03ca 3433     		adds	r3, r3, #52
 1462              	.LVL183:
 1463 03cc 0021     		movs	r1, #0
 1464              	.LVL184:
 1465              	.L60:
 1466              		.loc 1 1129 0 is_stmt 0 discriminator 3
 1467 03ce 43F8041B 		str	r1, [r3], #4
 1468 03d2 9342     		cmp	r3, r2
 1469 03d4 FBD1     		bne	.L60
 1470              	.L61:
 1471              		.loc 1 1129 0
 1472 03d6 0028     		cmp	r0, #0
 1473 03d8 0BDB     		blt	.L76
 1474              	.LVL185:
 1475              	.L34:
 1476              		.loc 1 1133 0 is_stmt 1
 1477 03da 4046     		mov	r0, r8
 1478 03dc 13B0     		add	sp, sp, #76
 1479              		.cfi_remember_state
 1480              		.cfi_def_cfa_offset 36
 1481              		@ sp needed
ARM GAS  C:\Users\jo\AppData\Local\Temp\ccCDYYSi.s 			page 27


 1482 03de BDE8F08F 		pop	{r4, r5, r6, r7, r8, r9, r10, fp, pc}
 1483              	.LVL186:
 1484              	.L65:
 1485              		.cfi_restore_state
 1486              	.LBB758:
 1487              	.LBB759:
 1488              		.loc 1 961 0 discriminator 1
 1489 03e2 0028     		cmp	r0, #0
 1490 03e4 0CBF     		ite	eq
 1491 03e6 4FF0FF0E 		moveq	lr, #255
 1492 03ea 4FF0000E 		movne	lr, #0
 1493              	.LVL187:
 1494              		.loc 1 962 0 discriminator 1
 1495 03ee 421E     		subs	r2, r0, #1
 1496              	.LVL188:
 1497 03f0 4BE6     		b	.L36
 1498              	.LVL189:
 1499              	.L76:
 1500              	.LBE759:
 1501              	.LBE758:
 1502              	.LBB760:
 1503              	.LBB761:
 1504              		.loc 1 1018 0
 1505 03f2 039B     		ldr	r3, [sp, #12]
 1506 03f4 049A     		ldr	r2, [sp, #16]
 1507              		.loc 1 1021 0
 1508 03f6 019C     		ldr	r4, [sp, #4]
 1509              		.loc 1 1018 0
 1510 03f8 03F18043 		add	r3, r3, #1073741824
 1511 03fc 013B     		subs	r3, r3, #1
 1512 03fe 4042     		negs	r0, r0
 1513              	.LVL190:
 1514 0400 42F82300 		str	r0, [r2, r3, lsl #2]
 1515              		.loc 1 1021 0
 1516 0404 02A9     		add	r1, sp, #8
 1517              	.LVL191:
 1518 0406 2046     		mov	r0, r4
 1519              	.LVL192:
 1520 0408 2246     		mov	r2, r4
 1521              	.LVL193:
 1522 040a FFF7FEFF 		bl	mpi_sub_abs
 1523              	.LVL194:
 1524 040e 0028     		cmp	r0, #0
 1525 0410 E3D1     		bne	.L34
 1526              		.loc 1 1022 0
 1527 0412 4FF0FF33 		mov	r3, #-1
 1528 0416 2360     		str	r3, [r4]
 1529 0418 DFE7     		b	.L34
 1530              	.LVL195:
 1531              	.L75:
 1532              	.LBE761:
 1533              	.LBE760:
 1534              		.loc 1 1126 0 discriminator 1
 1535 041a 4942     		negs	r1, r1
 1536              	.LVL196:
 1537              	.LBB762:
 1538              	.LBB763:
ARM GAS  C:\Users\jo\AppData\Local\Temp\ccCDYYSi.s 			page 28


 1539              		.loc 1 961 0 discriminator 1
 1540 041c 8A42     		cmp	r2, r1
 1541 041e 34BF     		ite	cc
 1542 0420 FF20     		movcc	r0, #255
 1543 0422 0020     		movcs	r0, #0
 1544              	.LVL197:
 1545              		.loc 1 962 0 discriminator 1
 1546 0424 521A     		subs	r2, r2, r1
 1547              	.LVL198:
 1548 0426 B1E7     		b	.L56
 1549              	.LVL199:
 1550              	.L74:
 1551              	.LBE763:
 1552              	.LBE762:
 1553              		.loc 1 1123 0 discriminator 1
 1554 0428 4842     		negs	r0, r1
 1555              	.LVL200:
 1556              	.LBB764:
 1557              	.LBB765:
 1558              		.loc 1 961 0 discriminator 1
 1559 042a 8242     		cmp	r2, r0
 1560 042c 34BF     		ite	cc
 1561 042e FF21     		movcc	r1, #255
 1562 0430 0021     		movcs	r1, #0
 1563              	.LVL201:
 1564              		.loc 1 962 0 discriminator 1
 1565 0432 121A     		subs	r2, r2, r0
 1566              	.LVL202:
 1567 0434 8EE7     		b	.L54
 1568              	.LVL203:
 1569              	.L73:
 1570              	.LBE765:
 1571              	.LBE764:
 1572              		.loc 1 1120 0 discriminator 1
 1573 0436 5042     		negs	r0, r2
 1574              	.LVL204:
 1575              	.LBB766:
 1576              	.LBB767:
 1577              		.loc 1 961 0 discriminator 1
 1578 0438 8142     		cmp	r1, r0
 1579 043a 34BF     		ite	cc
 1580 043c FF22     		movcc	r2, #255
 1581 043e 0022     		movcs	r2, #0
 1582              	.LVL205:
 1583              		.loc 1 962 0 discriminator 1
 1584 0440 091A     		subs	r1, r1, r0
 1585              	.LVL206:
 1586 0442 6BE7     		b	.L52
 1587              	.LVL207:
 1588              	.L72:
 1589              	.LBE767:
 1590              	.LBE766:
 1591              		.loc 1 1117 0 discriminator 1
 1592 0444 4042     		negs	r0, r0
 1593              	.LVL208:
 1594              	.LBB768:
 1595              	.LBB769:
ARM GAS  C:\Users\jo\AppData\Local\Temp\ccCDYYSi.s 			page 29


 1596              		.loc 1 961 0 discriminator 1
 1597 0446 8142     		cmp	r1, r0
 1598 0448 34BF     		ite	cc
 1599 044a FF22     		movcc	r2, #255
 1600 044c 0022     		movcs	r2, #0
 1601              	.LVL209:
 1602              		.loc 1 962 0 discriminator 1
 1603 044e 091A     		subs	r1, r1, r0
 1604              	.LVL210:
 1605 0450 47E7     		b	.L50
 1606              	.LVL211:
 1607              	.L71:
 1608              	.LBE769:
 1609              	.LBE768:
 1610              		.loc 1 1114 0 discriminator 1
 1611 0452 4942     		negs	r1, r1
 1612              	.LVL212:
 1613              	.LBB770:
 1614              	.LBB771:
 1615              		.loc 1 961 0 discriminator 1
 1616 0454 8A42     		cmp	r2, r1
 1617 0456 34BF     		ite	cc
 1618 0458 FF20     		movcc	r0, #255
 1619 045a 0020     		movcs	r0, #0
 1620              	.LVL213:
 1621              		.loc 1 962 0 discriminator 1
 1622 045c 521A     		subs	r2, r2, r1
 1623              	.LVL214:
 1624 045e 1CE7     		b	.L48
 1625              	.LVL215:
 1626              	.L70:
 1627              	.LBE771:
 1628              	.LBE770:
 1629              		.loc 1 1111 0 discriminator 1
 1630 0460 CAF1000A 		rsb	r10, r10, #0
 1631              	.LVL216:
 1632              	.LBB772:
 1633              	.LBB773:
 1634              		.loc 1 961 0 discriminator 1
 1635 0464 5045     		cmp	r0, r10
 1636 0466 34BF     		ite	cc
 1637 0468 FF21     		movcc	r1, #255
 1638 046a 0021     		movcs	r1, #0
 1639              	.LVL217:
 1640              		.loc 1 962 0 discriminator 1
 1641 046c CAEB0000 		rsb	r0, r10, r0
 1642              	.LVL218:
 1643 0470 E7E6     		b	.L46
 1644              	.LVL219:
 1645              	.L69:
 1646              	.LBE773:
 1647              	.LBE772:
 1648              		.loc 1 1108 0 discriminator 1
 1649 0472 4042     		negs	r0, r0
 1650              	.LVL220:
 1651              	.LBB774:
 1652              	.LBB775:
ARM GAS  C:\Users\jo\AppData\Local\Temp\ccCDYYSi.s 			page 30


 1653              		.loc 1 961 0 discriminator 1
 1654 0474 8142     		cmp	r1, r0
 1655 0476 34BF     		ite	cc
 1656 0478 FF22     		movcc	r2, #255
 1657 047a 0022     		movcs	r2, #0
 1658              	.LVL221:
 1659              		.loc 1 962 0 discriminator 1
 1660 047c 091A     		subs	r1, r1, r0
 1661              	.LVL222:
 1662 047e ABE6     		b	.L44
 1663              	.LVL223:
 1664              	.L68:
 1665              	.LBE775:
 1666              	.LBE774:
 1667              		.loc 1 1105 0 discriminator 1
 1668 0480 4142     		negs	r1, r0
 1669              	.LVL224:
 1670              	.LBB776:
 1671              	.LBB777:
 1672              		.loc 1 961 0 discriminator 1
 1673 0482 8A42     		cmp	r2, r1
 1674 0484 34BF     		ite	cc
 1675 0486 FF20     		movcc	r0, #255
 1676 0488 0020     		movcs	r0, #0
 1677              	.LVL225:
 1678              		.loc 1 962 0 discriminator 1
 1679 048a 521A     		subs	r2, r2, r1
 1680              	.LVL226:
 1681 048c 6FE6     		b	.L42
 1682              	.LVL227:
 1683              	.L67:
 1684              	.LBE777:
 1685              	.LBE776:
 1686              		.loc 1 1102 0 discriminator 1
 1687 048e 4042     		negs	r0, r0
 1688              	.LVL228:
 1689              	.LBB778:
 1690              	.LBB779:
 1691              		.loc 1 961 0 discriminator 1
 1692 0490 8142     		cmp	r1, r0
 1693 0492 34BF     		ite	cc
 1694 0494 4FF0FF0E 		movcc	lr, #255
 1695 0498 4FF0000E 		movcs	lr, #0
 1696              	.LVL229:
 1697              		.loc 1 962 0 discriminator 1
 1698 049c 091A     		subs	r1, r1, r0
 1699              	.LVL230:
 1700 049e 3BE6     		b	.L40
 1701              	.LVL231:
 1702              	.L66:
 1703              	.LBE779:
 1704              	.LBE778:
 1705              		.loc 1 1099 0 discriminator 1
 1706 04a0 4042     		negs	r0, r0
 1707              	.LVL232:
 1708              	.LBB780:
 1709              	.LBB781:
ARM GAS  C:\Users\jo\AppData\Local\Temp\ccCDYYSi.s 			page 31


 1710              		.loc 1 961 0 discriminator 1
 1711 04a2 8142     		cmp	r1, r0
 1712 04a4 34BF     		ite	cc
 1713 04a6 4FF0FF0E 		movcc	lr, #255
 1714 04aa 4FF0000E 		movcs	lr, #0
 1715              	.LVL233:
 1716              		.loc 1 962 0 discriminator 1
 1717 04ae 0A1A     		subs	r2, r1, r0
 1718              	.LVL234:
 1719 04b0 11E6     		b	.L38
 1720              	.LBE781:
 1721              	.LBE780:
 1722              		.cfi_endproc
 1723              	.LFE13:
 1724              		.size	ecp_mod_p384, .-ecp_mod_p384
 1725 04b2 00BFAFF3 		.section	.text.ecp_mod_p256k1,"ax",%progbits
 1725      0080AFF3 
 1725      0080AFF3 
 1725      0080
 1726              		.align	2
 1727              		.p2align 4,,15
 1728              		.thumb
 1729              		.thumb_func
 1730              		.type	ecp_mod_p256k1, %function
 1731              	ecp_mod_p256k1:
 1732              	.LFB19:
 1733              		.loc 1 1372 0
 1734              		.cfi_startproc
 1735              		@ args = 0, pretend = 0, frame = 64
 1736              		@ frame_needed = 0, uses_anonymous_args = 0
 1737              	.LVL235:
 1738 0000 2DE9F047 		push	{r4, r5, r6, r7, r8, r9, r10, lr}
 1739              		.cfi_def_cfa_offset 32
 1740              		.cfi_offset 4, -32
 1741              		.cfi_offset 5, -28
 1742              		.cfi_offset 6, -24
 1743              		.cfi_offset 7, -20
 1744              		.cfi_offset 8, -16
 1745              		.cfi_offset 9, -12
 1746              		.cfi_offset 10, -8
 1747              		.cfi_offset 14, -4
 1748              	.LBB784:
 1749              	.LBB785:
 1750              		.loc 1 1272 0
 1751 0004 D0F80480 		ldr	r8, [r0, #4]
 1752 0008 B8F1070F 		cmp	r8, #7
 1753              	.LBE785:
 1754              	.LBE784:
 1755              		.loc 1 1372 0
 1756 000c 90B0     		sub	sp, sp, #64
 1757              		.cfi_def_cfa_offset 96
 1758              	.LBB789:
 1759              	.LBB786:
 1760              		.loc 1 1272 0
 1761 000e 56D9     		bls	.L89
 1762 0010 0646     		mov	r6, r0
 1763              		.loc 1 1285 0
ARM GAS  C:\Users\jo\AppData\Local\Temp\ccCDYYSi.s 			page 32


 1764 0012 A8F10802 		sub	r2, r8, #8
 1765              		.loc 1 1276 0
 1766 0016 0123     		movs	r3, #1
 1767              		.loc 1 1277 0
 1768 0018 4C48     		ldr	r0, .L102
 1769              	.LVL236:
 1770              		.loc 1 1276 0
 1771 001a 0393     		str	r3, [sp, #12]
 1772              		.loc 1 1278 0
 1773 001c 0221     		movs	r1, #2
 1774              		.loc 1 1282 0
 1775 001e 06AF     		add	r7, sp, #24
 1776              		.loc 1 1286 0
 1777 0020 082A     		cmp	r2, #8
 1778              		.loc 1 1281 0
 1779 0022 0093     		str	r3, [sp]
 1780              		.loc 1 1277 0
 1781 0024 0590     		str	r0, [sp, #20]
 1782              		.loc 1 1278 0
 1783 0026 0491     		str	r1, [sp, #16]
 1784              		.loc 1 1282 0
 1785 0028 0297     		str	r7, [sp, #8]
 1786              		.loc 1 1289 0
 1787 002a B568     		ldr	r5, [r6, #8]
 1788              		.loc 1 1286 0
 1789 002c 28D8     		bhi	.L79
 1790              		.loc 1 1289 0
 1791 002e 05F12004 		add	r4, r5, #32
 1792              		.loc 1 1288 0
 1793 0032 0023     		movs	r3, #0
 1794              		.loc 1 1289 0
 1795 0034 8A40     		lsls	r2, r2, r1
 1796 0036 3846     		mov	r0, r7
 1797 0038 2146     		mov	r1, r4
 1798              		.loc 1 1288 0
 1799 003a 0693     		str	r3, [sp, #24]
 1800 003c 0793     		str	r3, [sp, #28]
 1801 003e 0893     		str	r3, [sp, #32]
 1802 0040 0993     		str	r3, [sp, #36]
 1803 0042 0A93     		str	r3, [sp, #40]
 1804 0044 0B93     		str	r3, [sp, #44]
 1805 0046 0C93     		str	r3, [sp, #48]
 1806 0048 0D93     		str	r3, [sp, #52]
 1807 004a 0E93     		str	r3, [sp, #56]
 1808 004c 0F93     		str	r3, [sp, #60]
 1809              		.loc 1 1289 0
 1810 004e FFF7FEFF 		bl	memcpy
 1811              	.LVL237:
 1812 0052 A8F10603 		sub	r3, r8, #6
 1813              		.loc 1 1297 0
 1814 0056 B8F1080F 		cmp	r8, #8
 1815              		.loc 1 1292 0
 1816 005a 0193     		str	r3, [sp, #4]
 1817              	.LVL238:
 1818              		.loc 1 1297 0
 1819 005c 07D0     		beq	.L81
 1820              	.L80:
ARM GAS  C:\Users\jo\AppData\Local\Temp\ccCDYYSi.s 			page 33


 1821 005e 2146     		mov	r1, r4
 1822 0060 05EB8803 		add	r3, r5, r8, lsl #2
 1823              		.loc 1 1298 0
 1824 0064 0022     		movs	r2, #0
 1825              	.LVL239:
 1826              	.L83:
 1827 0066 41F8042B 		str	r2, [r1], #4
 1828              		.loc 1 1297 0
 1829 006a 9942     		cmp	r1, r3
 1830 006c FBD1     		bne	.L83
 1831              	.L81:
 1832              		.loc 1 1301 0
 1833 006e 6846     		mov	r0, sp
 1834 0070 6946     		mov	r1, sp
 1835 0072 03AA     		add	r2, sp, #12
 1836 0074 FFF7FEFF 		bl	mpi_mul_mpi
 1837              	.LVL240:
 1838 0078 28B3     		cbz	r0, .L101
 1839              	.LVL241:
 1840              	.L78:
 1841              	.LBE786:
 1842              	.LBE789:
 1843              		.loc 1 1376 0
 1844 007a 10B0     		add	sp, sp, #64
 1845              		.cfi_remember_state
 1846              		.cfi_def_cfa_offset 32
 1847              		@ sp needed
 1848 007c BDE8F087 		pop	{r4, r5, r6, r7, r8, r9, r10, pc}
 1849              	.LVL242:
 1850              	.L79:
 1851              		.cfi_restore_state
 1852              	.LBB790:
 1853              	.LBB787:
 1854              		.loc 1 1288 0
 1855 0080 0023     		movs	r3, #0
 1856              		.loc 1 1289 0
 1857 0082 2C46     		mov	r4, r5
 1858              		.loc 1 1288 0
 1859 0084 0693     		str	r3, [sp, #24]
 1860 0086 0793     		str	r3, [sp, #28]
 1861 0088 0893     		str	r3, [sp, #32]
 1862 008a 0993     		str	r3, [sp, #36]
 1863 008c 0A93     		str	r3, [sp, #40]
 1864 008e 0B93     		str	r3, [sp, #44]
 1865 0090 0C93     		str	r3, [sp, #48]
 1866 0092 0D93     		str	r3, [sp, #52]
 1867 0094 0E93     		str	r3, [sp, #56]
 1868 0096 0F93     		str	r3, [sp, #60]
 1869              		.loc 1 1289 0
 1870 0098 54F8200F 		ldr	r0, [r4, #32]!	@ unaligned
 1871 009c 6168     		ldr	r1, [r4, #4]	@ unaligned
 1872 009e A268     		ldr	r2, [r4, #8]	@ unaligned
 1873 00a0 E368     		ldr	r3, [r4, #12]	@ unaligned
 1874 00a2 BE46     		mov	lr, r7
 1875 00a4 AEE80F00 		stmia	lr!, {r0, r1, r2, r3}
 1876 00a8 2069     		ldr	r0, [r4, #16]	@ unaligned
 1877 00aa 6169     		ldr	r1, [r4, #20]	@ unaligned
ARM GAS  C:\Users\jo\AppData\Local\Temp\ccCDYYSi.s 			page 34


 1878 00ac A269     		ldr	r2, [r4, #24]	@ unaligned
 1879 00ae E369     		ldr	r3, [r4, #28]	@ unaligned
 1880              		.loc 1 1292 0
 1881 00b0 4FF00A0C 		mov	ip, #10
 1882              		.loc 1 1289 0
 1883 00b4 AEE80F00 		stmia	lr!, {r0, r1, r2, r3}
 1884              		.loc 1 1292 0
 1885 00b8 CDF804C0 		str	ip, [sp, #4]
 1886              	.LVL243:
 1887 00bc CFE7     		b	.L80
 1888              	.LVL244:
 1889              	.L89:
 1890              		.loc 1 1273 0
 1891 00be 0020     		movs	r0, #0
 1892              	.LVL245:
 1893              	.LBE787:
 1894              	.LBE790:
 1895              		.loc 1 1376 0
 1896 00c0 10B0     		add	sp, sp, #64
 1897              		.cfi_remember_state
 1898              		.cfi_def_cfa_offset 32
 1899              		@ sp needed
 1900 00c2 BDE8F087 		pop	{r4, r5, r6, r7, r8, r9, r10, pc}
 1901              	.LVL246:
 1902              	.L101:
 1903              		.cfi_restore_state
 1904              	.LBB791:
 1905              	.LBB788:
 1906              		.loc 1 1302 0
 1907 00c6 3046     		mov	r0, r6
 1908              	.LVL247:
 1909 00c8 3146     		mov	r1, r6
 1910 00ca 6A46     		mov	r2, sp
 1911 00cc FFF7FEFF 		bl	mpi_add_abs
 1912              	.LVL248:
 1913 00d0 0028     		cmp	r0, #0
 1914 00d2 D2D1     		bne	.L78
 1915              		.loc 1 1307 0
 1916 00d4 D6F804A0 		ldr	r10, [r6, #4]
 1917              		.loc 1 1311 0
 1918 00d8 D6F80880 		ldr	r8, [r6, #8]
 1919              		.loc 1 1307 0
 1920 00dc AAF10809 		sub	r9, r10, #8
 1921              		.loc 1 1308 0
 1922 00e0 B9F1080F 		cmp	r9, #8
 1923              		.loc 1 1311 0
 1924 00e4 08F12004 		add	r4, r8, #32
 1925              		.loc 1 1310 0
 1926 00e8 4FF00005 		mov	r5, #0
 1927 00ec 94BF     		ite	ls
 1928 00ee 4FEA8902 		lslls	r2, r9, #2
 1929              		.loc 1 1308 0
 1930 00f2 2022     		movhi	r2, #32
 1931              		.loc 1 1311 0
 1932 00f4 3846     		mov	r0, r7
 1933              	.LVL249:
 1934 00f6 2146     		mov	r1, r4
ARM GAS  C:\Users\jo\AppData\Local\Temp\ccCDYYSi.s 			page 35


 1935              		.loc 1 1308 0
 1936 00f8 88BF     		it	hi
 1937 00fa 4FF00809 		movhi	r9, #8
 1938              		.loc 1 1310 0
 1939 00fe 0695     		str	r5, [sp, #24]
 1940 0100 0795     		str	r5, [sp, #28]
 1941 0102 0895     		str	r5, [sp, #32]
 1942 0104 0995     		str	r5, [sp, #36]
 1943 0106 0A95     		str	r5, [sp, #40]
 1944 0108 0B95     		str	r5, [sp, #44]
 1945 010a 0C95     		str	r5, [sp, #48]
 1946 010c 0D95     		str	r5, [sp, #52]
 1947 010e 0E95     		str	r5, [sp, #56]
 1948 0110 0F95     		str	r5, [sp, #60]
 1949              		.loc 1 1311 0
 1950 0112 FFF7FEFF 		bl	memcpy
 1951              	.LVL250:
 1952              		.loc 1 1314 0
 1953 0116 049A     		ldr	r2, [sp, #16]
 1954              		.loc 1 1319 0
 1955 0118 BAF1080F 		cmp	r10, #8
 1956              		.loc 1 1314 0
 1957 011c 4A44     		add	r2, r2, r9
 1958 011e 0192     		str	r2, [sp, #4]
 1959              	.LVL251:
 1960              		.loc 1 1319 0
 1961 0120 06D9     		bls	.L88
 1962 0122 2146     		mov	r1, r4
 1963 0124 08EB8A03 		add	r3, r8, r10, lsl #2
 1964              	.LVL252:
 1965              	.L87:
 1966              		.loc 1 1320 0
 1967 0128 41F8045B 		str	r5, [r1], #4
 1968              		.loc 1 1319 0
 1969 012c 9942     		cmp	r1, r3
 1970 012e FBD1     		bne	.L87
 1971              	.L88:
 1972              		.loc 1 1323 0
 1973 0130 03AA     		add	r2, sp, #12
 1974 0132 6846     		mov	r0, sp
 1975 0134 6946     		mov	r1, sp
 1976 0136 FFF7FEFF 		bl	mpi_mul_mpi
 1977              	.LVL253:
 1978 013a 0028     		cmp	r0, #0
 1979 013c 9DD1     		bne	.L78
 1980              		.loc 1 1324 0
 1981 013e 6A46     		mov	r2, sp
 1982 0140 3046     		mov	r0, r6
 1983              	.LVL254:
 1984 0142 3146     		mov	r1, r6
 1985 0144 FFF7FEFF 		bl	mpi_add_abs
 1986              	.LVL255:
 1987 0148 97E7     		b	.L78
 1988              	.L103:
 1989 014a 00BF     		.align	2
 1990              	.L102:
 1991 014c 00000000 		.word	.LANCHOR0
ARM GAS  C:\Users\jo\AppData\Local\Temp\ccCDYYSi.s 			page 36


 1992              	.LBE788:
 1993              	.LBE791:
 1994              		.cfi_endproc
 1995              	.LFE19:
 1996              		.size	ecp_mod_p256k1, .-ecp_mod_p256k1
 1997              		.section	.text.ecp_mod_p224,"ax",%progbits
 1998              		.align	2
 1999              		.p2align 4,,15
 2000              		.thumb
 2001              		.thumb_func
 2002              		.type	ecp_mod_p224, %function
 2003              	ecp_mod_p224:
 2004              	.LFB11:
 2005              		.loc 1 1034 0
 2006              		.cfi_startproc
 2007              		@ args = 0, pretend = 0, frame = 48
 2008              		@ frame_needed = 0, uses_anonymous_args = 0
 2009              	.LVL256:
 2010 0000 2DE9F04F 		push	{r4, r5, r6, r7, r8, r9, r10, fp, lr}
 2011              		.cfi_def_cfa_offset 36
 2012              		.cfi_offset 4, -36
 2013              		.cfi_offset 5, -32
 2014              		.cfi_offset 6, -28
 2015              		.cfi_offset 7, -24
 2016              		.cfi_offset 8, -20
 2017              		.cfi_offset 9, -16
 2018              		.cfi_offset 10, -12
 2019              		.cfi_offset 11, -8
 2020              		.cfi_offset 14, -4
 2021 0004 8DB0     		sub	sp, sp, #52
 2022              		.cfi_def_cfa_offset 88
 2023              		.loc 1 1035 0
 2024 0006 0023     		movs	r3, #0
 2025 0008 0125     		movs	r5, #1
 2026 000a 0824     		movs	r4, #8
 2027 000c 04AA     		add	r2, sp, #16
 2028 000e 0E21     		movs	r1, #14
 2029 0010 0195     		str	r5, [sp, #4]
 2030 0012 0294     		str	r4, [sp, #8]
 2031 0014 0392     		str	r2, [sp, #12]
 2032 0016 0493     		str	r3, [sp, #16]
 2033 0018 0593     		str	r3, [sp, #20]
 2034 001a 0693     		str	r3, [sp, #24]
 2035 001c 0793     		str	r3, [sp, #28]
 2036 001e 0893     		str	r3, [sp, #32]
 2037 0020 0993     		str	r3, [sp, #36]
 2038 0022 0A93     		str	r3, [sp, #40]
 2039 0024 0B93     		str	r3, [sp, #44]
 2040              		.loc 1 1034 0
 2041 0026 0546     		mov	r5, r0
 2042              		.loc 1 1035 0
 2043 0028 FFF7FEFF 		bl	mpi_grow
 2044              	.LVL257:
 2045 002c 0446     		mov	r4, r0
 2046 002e 0028     		cmp	r0, #0
 2047 0030 40F0B980 		bne	.L106
 2048              		.loc 1 1035 0 is_stmt 0 discriminator 1
ARM GAS  C:\Users\jo\AppData\Local\Temp\ccCDYYSi.s 			page 37


 2049 0034 AB68     		ldr	r3, [r5, #8]
 2050 0036 1A68     		ldr	r2, [r3]
 2051              	.LVL258:
 2052              		.loc 1 1037 0 is_stmt 1 discriminator 1
 2053 0038 D3F81CC0 		ldr	ip, [r3, #28]
 2054              	.LVL259:
 2055 003c D86A     		ldr	r0, [r3, #44]
 2056              	.LVL260:
 2057 003e 5E68     		ldr	r6, [r3, #4]
 2058              	.LBB852:
 2059              	.LBB853:
 2060              		.loc 1 961 0 discriminator 1
 2061 0040 6245     		cmp	r2, ip
 2062              		.loc 1 962 0 discriminator 1
 2063 0042 CCEB0201 		rsb	r1, ip, r2
 2064              	.LVL261:
 2065              		.loc 1 961 0 discriminator 1
 2066 0046 2CBF     		ite	cs
 2067 0048 0022     		movcs	r2, #0
 2068              	.LVL262:
 2069 004a 0122     		movcc	r2, #1
 2070 004c 8842     		cmp	r0, r1
 2071 004e 88BF     		it	hi
 2072 0050 0132     		addhi	r2, r2, #1
 2073              	.LBE853:
 2074              	.LBE852:
 2075              	.LBB854:
 2076              	.LBB855:
 2077 0052 5242     		negs	r2, r2
 2078              	.LVL263:
 2079              		.loc 1 962 0 discriminator 1
 2080 0054 091A     		subs	r1, r1, r0
 2081              	.LVL264:
 2082              	.LBE855:
 2083              	.LBE854:
 2084              		.loc 1 1037 0 discriminator 1
 2085 0056 12F0FF02 		ands	r2, r2, #255
 2086              	.LVL265:
 2087 005a 1960     		str	r1, [r3]
 2088              	.LVL266:
 2089 005c 40F0A780 		bne	.L127
 2090 0060 2246     		mov	r2, r4
 2091              	.LVL267:
 2092              	.L107:
 2093              		.loc 1 1038 0
 2094 0062 D3F820E0 		ldr	lr, [r3, #32]
 2095              	.LVL268:
 2096 0066 196B     		ldr	r1, [r3, #48]
 2097 0068 D3F80880 		ldr	r8, [r3, #8]
 2098              	.LBB856:
 2099              	.LBB857:
 2100              		.loc 1 961 0
 2101 006c B645     		cmp	lr, r6
 2102 006e 88BF     		it	hi
 2103 0070 013A     		subhi	r2, r2, #1
 2104              	.LVL269:
 2105              		.loc 1 962 0
ARM GAS  C:\Users\jo\AppData\Local\Temp\ccCDYYSi.s 			page 38


 2106 0072 CEEB0606 		rsb	r6, lr, r6
 2107              	.LVL270:
 2108              	.LBE857:
 2109              	.LBE856:
 2110              	.LBB858:
 2111              	.LBB859:
 2112              		.loc 1 961 0
 2113 0076 B142     		cmp	r1, r6
 2114 0078 88BF     		it	hi
 2115 007a 013A     		subhi	r2, r2, #1
 2116              	.LVL271:
 2117              	.LBE859:
 2118              	.LBE858:
 2119              		.loc 1 1038 0
 2120 007c 12F0FF02 		ands	r2, r2, #255
 2121              	.LVL272:
 2122              	.LBB861:
 2123              	.LBB860:
 2124              		.loc 1 962 0
 2125 0080 A6EB0106 		sub	r6, r6, r1
 2126              	.LVL273:
 2127              	.LBE860:
 2128              	.LBE861:
 2129              		.loc 1 1038 0
 2130 0084 5E60     		str	r6, [r3, #4]
 2131              	.LVL274:
 2132 0086 40F0D280 		bne	.L128
 2133              	.LVL275:
 2134              	.L108:
 2135              		.loc 1 1039 0
 2136 008a D3F82490 		ldr	r9, [r3, #36]
 2137              	.LVL276:
 2138 008e 5F6B     		ldr	r7, [r3, #52]
 2139 0090 DE68     		ldr	r6, [r3, #12]
 2140              	.LBB862:
 2141              	.LBB863:
 2142              		.loc 1 961 0
 2143 0092 C145     		cmp	r9, r8
 2144 0094 88BF     		it	hi
 2145 0096 013A     		subhi	r2, r2, #1
 2146              	.LVL277:
 2147              		.loc 1 962 0
 2148 0098 C9EB0808 		rsb	r8, r9, r8
 2149              	.LVL278:
 2150              	.LBE863:
 2151              	.LBE862:
 2152              	.LBB864:
 2153              	.LBB865:
 2154              		.loc 1 961 0
 2155 009c 4745     		cmp	r7, r8
 2156 009e 88BF     		it	hi
 2157 00a0 013A     		subhi	r2, r2, #1
 2158              	.LVL279:
 2159              	.LBE865:
 2160              	.LBE864:
 2161              		.loc 1 1039 0
 2162 00a2 12F0FF02 		ands	r2, r2, #255
ARM GAS  C:\Users\jo\AppData\Local\Temp\ccCDYYSi.s 			page 39


 2163              	.LVL280:
 2164              	.LBB867:
 2165              	.LBB866:
 2166              		.loc 1 962 0
 2167 00a6 C7EB0808 		rsb	r8, r7, r8
 2168              	.LVL281:
 2169              	.LBE866:
 2170              	.LBE867:
 2171              		.loc 1 1039 0
 2172 00aa C3F80880 		str	r8, [r3, #8]
 2173              	.LVL282:
 2174 00ae 40F0B480 		bne	.L129
 2175              	.LVL283:
 2176              	.L109:
 2177              		.loc 1 1040 0
 2178 00b2 D3F82880 		ldr	r8, [r3, #40]
 2179              	.LVL284:
 2180 00b6 D3F810A0 		ldr	r10, [r3, #16]
 2181              	.LBB868:
 2182              	.LBB869:
 2183              		.loc 1 961 0
 2184 00ba B045     		cmp	r8, r6
 2185 00bc C8EB0C0B 		rsb	fp, r8, ip
 2186              	.LBE869:
 2187              	.LBE868:
 2188              	.LBB871:
 2189              	.LBB872:
 2190              		.loc 1 955 0
 2191 00c0 B344     		add	fp, fp, r6
 2192              	.LVL285:
 2193              	.LBE872:
 2194              	.LBE871:
 2195              	.LBB873:
 2196              	.LBB870:
 2197              		.loc 1 961 0
 2198 00c2 94BF     		ite	ls
 2199 00c4 0026     		movls	r6, #0
 2200              	.LVL286:
 2201 00c6 0126     		movhi	r6, #1
 2202 00c8 DC45     		cmp	ip, fp
 2203 00ca 94BF     		ite	ls
 2204 00cc C6F1000C 		rsbls	ip, r6, #0
 2205 00d0 C6F1010C 		rsbhi	ip, r6, #1
 2206              	.LVL287:
 2207              	.LBE870:
 2208              	.LBE873:
 2209              	.LBB874:
 2210              	.LBB875:
 2211              		.loc 1 956 0
 2212 00d4 1BEB0006 		adds	r6, fp, r0
 2213              	.LVL288:
 2214 00d8 42EB0C02 		adc	r2, r2, ip
 2215              	.LVL289:
 2216              	.LBE875:
 2217              	.LBE874:
 2218              		.loc 1 1040 0
 2219 00dc 52B2     		sxtb	r2, r2
ARM GAS  C:\Users\jo\AppData\Local\Temp\ccCDYYSi.s 			page 40


 2220 00de 002A     		cmp	r2, #0
 2221 00e0 DE60     		str	r6, [r3, #12]
 2222              	.LVL290:
 2223 00e2 C0F29280 		blt	.L130
 2224              	.LVL291:
 2225              	.LBB876:
 2226              	.LBB877:
 2227              		.loc 1 956 0 discriminator 2
 2228 00e6 12EB0A02 		adds	r2, r2, r10
 2229              	.LVL292:
 2230 00ea 2CBF     		ite	cs
 2231 00ec 0126     		movcs	r6, #1
 2232 00ee 0026     		movcc	r6, #0
 2233              	.LVL293:
 2234              	.L111:
 2235 00f0 C0EB0E0B 		rsb	fp, r0, lr
 2236              	.LBE877:
 2237              	.LBE876:
 2238              	.LBB878:
 2239              	.LBB879:
 2240              		.loc 1 961 0
 2241 00f4 9042     		cmp	r0, r2
 2242              	.LBE879:
 2243              	.LBE878:
 2244              	.LBB881:
 2245              	.LBB882:
 2246              		.loc 1 955 0
 2247 00f6 9344     		add	fp, fp, r2
 2248              	.LVL294:
 2249              	.LBE882:
 2250              	.LBE881:
 2251              	.LBB883:
 2252              	.LBB880:
 2253              		.loc 1 961 0
 2254 00f8 94BF     		ite	ls
 2255 00fa 0020     		movls	r0, #0
 2256              	.LVL295:
 2257 00fc 0120     		movhi	r0, #1
 2258 00fe DE45     		cmp	lr, fp
 2259 0100 94BF     		ite	ls
 2260 0102 C0F1000E 		rsbls	lr, r0, #0
 2261 0106 C0F1010E 		rsbhi	lr, r0, #1
 2262              	.LVL296:
 2263              	.LBE880:
 2264              	.LBE883:
 2265              	.LBB884:
 2266              	.LBB885:
 2267              		.loc 1 956 0
 2268 010a 1BEB0102 		adds	r2, fp, r1
 2269              	.LVL297:
 2270 010e 46EB0E0E 		adc	lr, r6, lr
 2271              	.LVL298:
 2272              	.LBE885:
 2273              	.LBE884:
 2274              		.loc 1 1041 0
 2275 0112 4FFA8EFE 		sxtb	lr, lr
 2276 0116 BEF1000F 		cmp	lr, #0
ARM GAS  C:\Users\jo\AppData\Local\Temp\ccCDYYSi.s 			page 41


 2277 011a 1A61     		str	r2, [r3, #16]
 2278              	.LVL299:
 2279 011c 5A69     		ldr	r2, [r3, #20]
 2280              	.LVL300:
 2281 011e 6BDB     		blt	.L131
 2282              	.LVL301:
 2283              	.LBB886:
 2284              	.LBB887:
 2285              		.loc 1 956 0 discriminator 2
 2286 0120 1EEB020E 		adds	lr, lr, r2
 2287              	.LVL302:
 2288 0124 2CBF     		ite	cs
 2289 0126 0120     		movcs	r0, #1
 2290              	.LVL303:
 2291 0128 0020     		movcc	r0, #0
 2292              	.LVL304:
 2293              	.L113:
 2294 012a C1EB0902 		rsb	r2, r1, r9
 2295              	.LBE887:
 2296              	.LBE886:
 2297              	.LBB888:
 2298              	.LBB889:
 2299              		.loc 1 961 0
 2300 012e 7145     		cmp	r1, lr
 2301 0130 94BF     		ite	ls
 2302 0132 0021     		movls	r1, #0
 2303              	.LVL305:
 2304 0134 0121     		movhi	r1, #1
 2305              	.LBE889:
 2306              	.LBE888:
 2307              	.LBB890:
 2308              	.LBB891:
 2309              		.loc 1 955 0
 2310 0136 7244     		add	r2, r2, lr
 2311              	.LVL306:
 2312 0138 9145     		cmp	r9, r2
 2313 013a 94BF     		ite	ls
 2314 013c C1F10009 		rsbls	r9, r1, #0
 2315 0140 C1F10109 		rsbhi	r9, r1, #1
 2316              	.LVL307:
 2317              	.LBE891:
 2318              	.LBE890:
 2319              	.LBB892:
 2320              	.LBB893:
 2321              		.loc 1 956 0
 2322 0144 D219     		adds	r2, r2, r7
 2323              	.LVL308:
 2324 0146 40EB0909 		adc	r9, r0, r9
 2325              	.LVL309:
 2326              	.LBE893:
 2327              	.LBE892:
 2328              		.loc 1 1042 0
 2329 014a 4FFA89F9 		sxtb	r9, r9
 2330 014e B9F1000F 		cmp	r9, #0
 2331 0152 5A61     		str	r2, [r3, #20]
 2332              	.LVL310:
 2333 0154 9969     		ldr	r1, [r3, #24]
ARM GAS  C:\Users\jo\AppData\Local\Temp\ccCDYYSi.s 			page 42


 2334              	.LVL311:
 2335 0156 46DB     		blt	.L132
 2336              	.LVL312:
 2337              	.LBB894:
 2338              	.LBB895:
 2339              		.loc 1 956 0 discriminator 2
 2340 0158 19EB0109 		adds	r9, r9, r1
 2341              	.LVL313:
 2342 015c 2CBF     		ite	cs
 2343 015e 0122     		movcs	r2, #1
 2344 0160 0022     		movcc	r2, #0
 2345              	.LVL314:
 2346              	.L115:
 2347 0162 C7EB0801 		rsb	r1, r7, r8
 2348              	.LBE895:
 2349              	.LBE894:
 2350              	.LBB896:
 2351              	.LBB897:
 2352              		.loc 1 961 0
 2353 0166 4F45     		cmp	r7, r9
 2354              	.LBE897:
 2355              	.LBE896:
 2356              	.LBB899:
 2357              	.LBB900:
 2358              		.loc 1 955 0
 2359 0168 4944     		add	r1, r1, r9
 2360              	.LVL315:
 2361              	.LBE900:
 2362              	.LBE899:
 2363              	.LBB902:
 2364              	.LBB898:
 2365              		.loc 1 961 0
 2366 016a 94BF     		ite	ls
 2367 016c 0027     		movls	r7, #0
 2368              	.LVL316:
 2369 016e 0127     		movhi	r7, #1
 2370 0170 8845     		cmp	r8, r1
 2371 0172 94BF     		ite	ls
 2372 0174 C7F10008 		rsbls	r8, r7, #0
 2373 0178 C7F10108 		rsbhi	r8, r7, #1
 2374              	.LVL317:
 2375              	.LBE898:
 2376              	.LBE902:
 2377              	.LBB903:
 2378              	.LBB901:
 2379              		.loc 1 956 0
 2380 017c 9044     		add	r8, r8, r2
 2381              	.LVL318:
 2382              	.LBE901:
 2383              	.LBE903:
 2384              		.loc 1 1043 0
 2385 017e 6A68     		ldr	r2, [r5, #4]
 2386 0180 9961     		str	r1, [r3, #24]
 2387              	.LVL319:
 2388 0182 4FFA88F8 		sxtb	r8, r8
 2389              	.LVL320:
 2390 0186 28EAE871 		bic	r1, r8, r8, asr #31
ARM GAS  C:\Users\jo\AppData\Local\Temp\ccCDYYSi.s 			page 43


 2391 018a 082A     		cmp	r2, #8
 2392 018c D961     		str	r1, [r3, #28]
 2393              	.LVL321:
 2394 018e 07D9     		bls	.L120
 2395 0190 03EB8202 		add	r2, r3, r2, lsl #2
 2396 0194 0021     		movs	r1, #0
 2397 0196 2033     		adds	r3, r3, #32
 2398              	.LVL322:
 2399              	.L119:
 2400              		.loc 1 1043 0 is_stmt 0 discriminator 3
 2401 0198 43F8041B 		str	r1, [r3], #4
 2402 019c 9342     		cmp	r3, r2
 2403 019e FBD1     		bne	.L119
 2404              	.L120:
 2405              		.loc 1 1043 0
 2406 01a0 B8F1000F 		cmp	r8, #0
 2407 01a4 0BDB     		blt	.L133
 2408              	.LVL323:
 2409              	.L106:
 2410              		.loc 1 1047 0 is_stmt 1
 2411 01a6 2046     		mov	r0, r4
 2412 01a8 0DB0     		add	sp, sp, #52
 2413              		.cfi_remember_state
 2414              		.cfi_def_cfa_offset 36
 2415              		@ sp needed
 2416 01aa BDE8F08F 		pop	{r4, r5, r6, r7, r8, r9, r10, fp, pc}
 2417              	.LVL324:
 2418              	.L127:
 2419              		.cfi_restore_state
 2420              		.loc 1 1037 0 discriminator 1
 2421 01ae 52B2     		sxtb	r2, r2
 2422 01b0 5142     		negs	r1, r2
 2423              	.LVL325:
 2424              	.LBB904:
 2425              	.LBB905:
 2426              		.loc 1 961 0 discriminator 1
 2427 01b2 8E42     		cmp	r6, r1
 2428 01b4 34BF     		ite	cc
 2429 01b6 FF22     		movcc	r2, #255
 2430 01b8 0022     		movcs	r2, #0
 2431              	.LVL326:
 2432              		.loc 1 962 0 discriminator 1
 2433 01ba 761A     		subs	r6, r6, r1
 2434              	.LVL327:
 2435 01bc 51E7     		b	.L107
 2436              	.LVL328:
 2437              	.L133:
 2438              	.LBE905:
 2439              	.LBE904:
 2440              	.LBB906:
 2441              	.LBB907:
 2442              		.loc 1 1018 0
 2443 01be 029A     		ldr	r2, [sp, #8]
 2444 01c0 0399     		ldr	r1, [sp, #12]
 2445 01c2 02F18042 		add	r2, r2, #1073741824
 2446 01c6 013A     		subs	r2, r2, #1
 2447 01c8 C8F10003 		rsb	r3, r8, #0
ARM GAS  C:\Users\jo\AppData\Local\Temp\ccCDYYSi.s 			page 44


 2448 01cc 41F82230 		str	r3, [r1, r2, lsl #2]
 2449              		.loc 1 1021 0
 2450 01d0 2846     		mov	r0, r5
 2451 01d2 01A9     		add	r1, sp, #4
 2452              	.LVL329:
 2453 01d4 2A46     		mov	r2, r5
 2454 01d6 FFF7FEFF 		bl	mpi_sub_abs
 2455              	.LVL330:
 2456 01da 0028     		cmp	r0, #0
 2457 01dc E3D1     		bne	.L106
 2458              		.loc 1 1022 0
 2459 01de 4FF0FF33 		mov	r3, #-1
 2460 01e2 2B60     		str	r3, [r5]
 2461 01e4 DFE7     		b	.L106
 2462              	.LVL331:
 2463              	.L132:
 2464              	.LBE907:
 2465              	.LBE906:
 2466              		.loc 1 1042 0 discriminator 1
 2467 01e6 C9F10009 		rsb	r9, r9, #0
 2468              	.LVL332:
 2469              	.LBB908:
 2470              	.LBB909:
 2471              		.loc 1 961 0 discriminator 1
 2472 01ea 4945     		cmp	r1, r9
 2473 01ec 34BF     		ite	cc
 2474 01ee FF22     		movcc	r2, #255
 2475 01f0 0022     		movcs	r2, #0
 2476              	.LVL333:
 2477              		.loc 1 962 0 discriminator 1
 2478 01f2 C9EB0109 		rsb	r9, r9, r1
 2479              	.LVL334:
 2480 01f6 B4E7     		b	.L115
 2481              	.LVL335:
 2482              	.L131:
 2483              	.LBE909:
 2484              	.LBE908:
 2485              		.loc 1 1041 0 discriminator 1
 2486 01f8 CEF1000E 		rsb	lr, lr, #0
 2487              	.LVL336:
 2488              	.LBB910:
 2489              	.LBB911:
 2490              		.loc 1 961 0 discriminator 1
 2491 01fc 7245     		cmp	r2, lr
 2492 01fe 34BF     		ite	cc
 2493 0200 FF20     		movcc	r0, #255
 2494 0202 0020     		movcs	r0, #0
 2495              	.LVL337:
 2496              		.loc 1 962 0 discriminator 1
 2497 0204 CEEB020E 		rsb	lr, lr, r2
 2498              	.LVL338:
 2499 0208 8FE7     		b	.L113
 2500              	.LVL339:
 2501              	.L130:
 2502              	.LBE911:
 2503              	.LBE910:
 2504              		.loc 1 1040 0 discriminator 1
ARM GAS  C:\Users\jo\AppData\Local\Temp\ccCDYYSi.s 			page 45


 2505 020a 5242     		negs	r2, r2
 2506              	.LVL340:
 2507              	.LBB912:
 2508              	.LBB913:
 2509              		.loc 1 961 0 discriminator 1
 2510 020c 9245     		cmp	r10, r2
 2511 020e 34BF     		ite	cc
 2512 0210 FF26     		movcc	r6, #255
 2513 0212 0026     		movcs	r6, #0
 2514              	.LVL341:
 2515              		.loc 1 962 0 discriminator 1
 2516 0214 C2EB0A02 		rsb	r2, r2, r10
 2517              	.LVL342:
 2518 0218 6AE7     		b	.L111
 2519              	.LVL343:
 2520              	.L129:
 2521              	.LBE913:
 2522              	.LBE912:
 2523              		.loc 1 1039 0 discriminator 1
 2524 021a 52B2     		sxtb	r2, r2
 2525 021c C2F10008 		rsb	r8, r2, #0
 2526              	.LVL344:
 2527              	.LBB914:
 2528              	.LBB915:
 2529              		.loc 1 961 0 discriminator 1
 2530 0220 4645     		cmp	r6, r8
 2531 0222 34BF     		ite	cc
 2532 0224 FF22     		movcc	r2, #255
 2533 0226 0022     		movcs	r2, #0
 2534              	.LVL345:
 2535              		.loc 1 962 0 discriminator 1
 2536 0228 C8EB0606 		rsb	r6, r8, r6
 2537              	.LVL346:
 2538 022c 41E7     		b	.L109
 2539              	.LVL347:
 2540              	.L128:
 2541              	.LBE915:
 2542              	.LBE914:
 2543              		.loc 1 1038 0 discriminator 1
 2544 022e 52B2     		sxtb	r2, r2
 2545 0230 5642     		negs	r6, r2
 2546              	.LVL348:
 2547              	.LBB916:
 2548              	.LBB917:
 2549              		.loc 1 961 0 discriminator 1
 2550 0232 B045     		cmp	r8, r6
 2551 0234 34BF     		ite	cc
 2552 0236 FF22     		movcc	r2, #255
 2553 0238 0022     		movcs	r2, #0
 2554              	.LVL349:
 2555              		.loc 1 962 0 discriminator 1
 2556 023a C6EB0808 		rsb	r8, r6, r8
 2557              	.LVL350:
 2558 023e 24E7     		b	.L108
 2559              	.LBE917:
 2560              	.LBE916:
 2561              		.cfi_endproc
ARM GAS  C:\Users\jo\AppData\Local\Temp\ccCDYYSi.s 			page 46


 2562              	.LFE11:
 2563              		.size	ecp_mod_p224, .-ecp_mod_p224
 2564              		.section	.text.ecp_mod_p256,"ax",%progbits
 2565              		.align	2
 2566              		.p2align 4,,15
 2567              		.thumb
 2568              		.thumb_func
 2569              		.type	ecp_mod_p256, %function
 2570              	ecp_mod_p256:
 2571              	.LFB12:
 2572              		.loc 1 1055 0
 2573              		.cfi_startproc
 2574              		@ args = 0, pretend = 0, frame = 48
 2575              		@ frame_needed = 0, uses_anonymous_args = 0
 2576              	.LVL351:
 2577 0000 2DE9F04F 		push	{r4, r5, r6, r7, r8, r9, r10, fp, lr}
 2578              		.cfi_def_cfa_offset 36
 2579              		.cfi_offset 4, -36
 2580              		.cfi_offset 5, -32
 2581              		.cfi_offset 6, -28
 2582              		.cfi_offset 7, -24
 2583              		.cfi_offset 8, -20
 2584              		.cfi_offset 9, -16
 2585              		.cfi_offset 10, -12
 2586              		.cfi_offset 11, -8
 2587              		.cfi_offset 14, -4
 2588 0004 8DB0     		sub	sp, sp, #52
 2589              		.cfi_def_cfa_offset 88
 2590              		.loc 1 1056 0
 2591 0006 0023     		movs	r3, #0
 2592 0008 0125     		movs	r5, #1
 2593 000a 0924     		movs	r4, #9
 2594 000c 03AA     		add	r2, sp, #12
 2595 000e 1021     		movs	r1, #16
 2596 0010 0095     		str	r5, [sp]
 2597 0012 0194     		str	r4, [sp, #4]
 2598 0014 0292     		str	r2, [sp, #8]
 2599 0016 0393     		str	r3, [sp, #12]
 2600 0018 0493     		str	r3, [sp, #16]
 2601 001a 0593     		str	r3, [sp, #20]
 2602 001c 0693     		str	r3, [sp, #24]
 2603 001e 0793     		str	r3, [sp, #28]
 2604 0020 0893     		str	r3, [sp, #32]
 2605 0022 0993     		str	r3, [sp, #36]
 2606 0024 0A93     		str	r3, [sp, #40]
 2607 0026 0B93     		str	r3, [sp, #44]
 2608              		.loc 1 1055 0
 2609 0028 0546     		mov	r5, r0
 2610              		.loc 1 1056 0
 2611 002a FFF7FEFF 		bl	mpi_grow
 2612              	.LVL352:
 2613 002e 0446     		mov	r4, r0
 2614 0030 0028     		cmp	r0, #0
 2615 0032 40F0B781 		bne	.L136
 2616              		.loc 1 1056 0 is_stmt 0 discriminator 1
 2617 0036 AB68     		ldr	r3, [r5, #8]
 2618 0038 1A68     		ldr	r2, [r3]
ARM GAS  C:\Users\jo\AppData\Local\Temp\ccCDYYSi.s 			page 47


 2619              	.LVL353:
 2620              		.loc 1 1058 0 is_stmt 1 discriminator 1
 2621 003a D3F820C0 		ldr	ip, [r3, #32]
 2622              	.LVL354:
 2623 003e 586A     		ldr	r0, [r3, #36]
 2624              	.LVL355:
 2625              		.loc 1 1059 0 discriminator 1
 2626 0040 D3F82CE0 		ldr	lr, [r3, #44]
 2627 0044 1F6B     		ldr	r7, [r3, #48]
 2628 0046 5E6B     		ldr	r6, [r3, #52]
 2629 0048 D3F83890 		ldr	r9, [r3, #56]
 2630 004c 5968     		ldr	r1, [r3, #4]
 2631              	.LBB1058:
 2632              	.LBB1059:
 2633              		.loc 1 955 0 discriminator 1
 2634 004e 6244     		add	r2, r2, ip
 2635              	.LVL356:
 2636              		.loc 1 956 0 discriminator 1
 2637 0050 9445     		cmp	ip, r2
 2638              	.LBE1059:
 2639              	.LBE1058:
 2640              	.LBB1061:
 2641              	.LBB1062:
 2642              		.loc 1 955 0 discriminator 1
 2643 0052 02EB0008 		add	r8, r2, r0
 2644              	.LVL357:
 2645              	.LBE1062:
 2646              	.LBE1061:
 2647              	.LBB1064:
 2648              	.LBB1060:
 2649              		.loc 1 956 0 discriminator 1
 2650 0056 94BF     		ite	ls
 2651 0058 0022     		movls	r2, #0
 2652              	.LVL358:
 2653 005a 0122     		movhi	r2, #1
 2654              	.LBE1060:
 2655              	.LBE1064:
 2656              	.LBB1065:
 2657              	.LBB1063:
 2658 005c 4045     		cmp	r0, r8
 2659 005e 88BF     		it	hi
 2660 0060 0132     		addhi	r2, r2, #1
 2661              	.LBE1063:
 2662              	.LBE1065:
 2663              	.LBB1066:
 2664              	.LBB1067:
 2665              		.loc 1 961 0 discriminator 1
 2666 0062 C645     		cmp	lr, r8
 2667 0064 88BF     		it	hi
 2668 0066 013A     		subhi	r2, r2, #1
 2669              		.loc 1 962 0 discriminator 1
 2670 0068 CEEB0808 		rsb	r8, lr, r8
 2671              	.LVL359:
 2672              	.LBE1067:
 2673              	.LBE1066:
 2674              	.LBB1068:
 2675              	.LBB1069:
ARM GAS  C:\Users\jo\AppData\Local\Temp\ccCDYYSi.s 			page 48


 2676              		.loc 1 961 0 discriminator 1
 2677 006c 4745     		cmp	r7, r8
 2678 006e 88BF     		it	hi
 2679 0070 013A     		subhi	r2, r2, #1
 2680              		.loc 1 962 0 discriminator 1
 2681 0072 C7EB0808 		rsb	r8, r7, r8
 2682              	.LVL360:
 2683              	.LBE1069:
 2684              	.LBE1068:
 2685              	.LBB1070:
 2686              	.LBB1071:
 2687              		.loc 1 961 0 discriminator 1
 2688 0076 4645     		cmp	r6, r8
 2689 0078 88BF     		it	hi
 2690 007a 013A     		subhi	r2, r2, #1
 2691              		.loc 1 962 0 discriminator 1
 2692 007c C6EB0808 		rsb	r8, r6, r8
 2693              	.LVL361:
 2694              	.LBE1071:
 2695              	.LBE1070:
 2696              		.loc 1 1059 0 discriminator 1
 2697 0080 C145     		cmp	r9, r8
 2698 0082 88BF     		it	hi
 2699 0084 013A     		subhi	r2, r2, #1
 2700              	.LVL362:
 2701 0086 002A     		cmp	r2, #0
 2702              	.LBB1072:
 2703              	.LBB1073:
 2704              		.loc 1 962 0 discriminator 1
 2705 0088 C9EB0808 		rsb	r8, r9, r8
 2706              	.LVL363:
 2707              	.LBE1073:
 2708              	.LBE1072:
 2709              		.loc 1 1059 0 discriminator 1
 2710 008c C3F80080 		str	r8, [r3]
 2711              	.LVL364:
 2712 0090 C0F28C81 		blt	.L159
 2713              	.LVL365:
 2714              	.LBB1074:
 2715              	.LBB1075:
 2716              		.loc 1 956 0 discriminator 2
 2717 0094 12EB010A 		adds	r10, r2, r1
 2718              	.LVL366:
 2719 0098 2CBF     		ite	cs
 2720 009a 4FF00108 		movcs	r8, #1
 2721 009e 4FF00008 		movcc	r8, #0
 2722              	.LVL367:
 2723              	.L138:
 2724              	.LBE1075:
 2725              	.LBE1074:
 2726              		.loc 1 1061 0
 2727 00a2 996A     		ldr	r1, [r3, #40]
 2728              		.loc 1 1062 0
 2729 00a4 DA6B     		ldr	r2, [r3, #60]
 2730 00a6 D3F808B0 		ldr	fp, [r3, #8]
 2731              	.LBB1076:
 2732              	.LBB1077:
ARM GAS  C:\Users\jo\AppData\Local\Temp\ccCDYYSi.s 			page 49


 2733              		.loc 1 955 0
 2734 00aa 8244     		add	r10, r10, r0
 2735              	.LVL368:
 2736              		.loc 1 956 0
 2737 00ac 5045     		cmp	r0, r10
 2738 00ae 88BF     		it	hi
 2739 00b0 08F10108 		addhi	r8, r8, #1
 2740              	.LVL369:
 2741              	.LBE1077:
 2742              	.LBE1076:
 2743              	.LBB1078:
 2744              	.LBB1079:
 2745              		.loc 1 955 0
 2746 00b4 8A44     		add	r10, r10, r1
 2747              	.LVL370:
 2748              		.loc 1 956 0
 2749 00b6 5145     		cmp	r1, r10
 2750 00b8 88BF     		it	hi
 2751 00ba 08F10108 		addhi	r8, r8, #1
 2752              	.LBE1079:
 2753              	.LBE1078:
 2754              	.LBB1080:
 2755              	.LBB1081:
 2756              		.loc 1 961 0
 2757 00be 5745     		cmp	r7, r10
 2758 00c0 88BF     		it	hi
 2759 00c2 A8F10108 		subhi	r8, r8, #1
 2760              		.loc 1 962 0
 2761 00c6 C7EB0A0A 		rsb	r10, r7, r10
 2762              	.LVL371:
 2763              	.LBE1081:
 2764              	.LBE1080:
 2765              	.LBB1082:
 2766              	.LBB1083:
 2767              		.loc 1 961 0
 2768 00ca 5645     		cmp	r6, r10
 2769 00cc 88BF     		it	hi
 2770 00ce A8F10108 		subhi	r8, r8, #1
 2771              		.loc 1 962 0
 2772 00d2 C6EB0A0A 		rsb	r10, r6, r10
 2773              	.LVL372:
 2774              	.LBE1083:
 2775              	.LBE1082:
 2776              	.LBB1084:
 2777              	.LBB1085:
 2778              		.loc 1 961 0
 2779 00d6 D145     		cmp	r9, r10
 2780 00d8 88BF     		it	hi
 2781 00da A8F10108 		subhi	r8, r8, #1
 2782              		.loc 1 962 0
 2783 00de C9EB0A0A 		rsb	r10, r9, r10
 2784              	.LVL373:
 2785              	.LBE1085:
 2786              	.LBE1084:
 2787              	.LBB1086:
 2788              	.LBB1087:
 2789              		.loc 1 961 0
ARM GAS  C:\Users\jo\AppData\Local\Temp\ccCDYYSi.s 			page 50


 2790 00e2 5245     		cmp	r2, r10
 2791 00e4 88BF     		it	hi
 2792 00e6 A8F10108 		subhi	r8, r8, #1
 2793              	.LVL374:
 2794              	.LBE1087:
 2795              	.LBE1086:
 2796              		.loc 1 1062 0
 2797 00ea 4FFA88F8 		sxtb	r8, r8
 2798              	.LBB1089:
 2799              	.LBB1088:
 2800              		.loc 1 962 0
 2801 00ee C2EB0A0A 		rsb	r10, r2, r10
 2802              	.LVL375:
 2803              	.LBE1088:
 2804              	.LBE1089:
 2805              		.loc 1 1062 0
 2806 00f2 B8F1000F 		cmp	r8, #0
 2807 00f6 C3F804A0 		str	r10, [r3, #4]
 2808              	.LVL376:
 2809 00fa C0F2AB81 		blt	.L160
 2810              	.LVL377:
 2811              	.LBB1090:
 2812              	.LBB1091:
 2813              		.loc 1 956 0 discriminator 2
 2814 00fe 18EB0B08 		adds	r8, r8, fp
 2815              	.LVL378:
 2816 0102 2CBF     		ite	cs
 2817 0104 4FF0010A 		movcs	r10, #1
 2818 0108 4FF0000A 		movcc	r10, #0
 2819              	.LVL379:
 2820              	.L140:
 2821              	.LBE1091:
 2822              	.LBE1090:
 2823              	.LBB1092:
 2824              	.LBB1093:
 2825              		.loc 1 955 0
 2826 010c 8844     		add	r8, r8, r1
 2827              	.LVL380:
 2828              		.loc 1 956 0
 2829 010e 4145     		cmp	r1, r8
 2830 0110 88BF     		it	hi
 2831 0112 0AF1010A 		addhi	r10, r10, #1
 2832              	.LVL381:
 2833              	.LBE1093:
 2834              	.LBE1092:
 2835              	.LBB1094:
 2836              	.LBB1095:
 2837              		.loc 1 955 0
 2838 0116 F044     		add	r8, r8, lr
 2839              	.LVL382:
 2840              		.loc 1 956 0
 2841 0118 C645     		cmp	lr, r8
 2842 011a 88BF     		it	hi
 2843 011c 0AF1010A 		addhi	r10, r10, #1
 2844              	.LBE1095:
 2845              	.LBE1094:
 2846              	.LBB1096:
ARM GAS  C:\Users\jo\AppData\Local\Temp\ccCDYYSi.s 			page 51


 2847              	.LBB1097:
 2848              		.loc 1 961 0
 2849 0120 4645     		cmp	r6, r8
 2850 0122 88BF     		it	hi
 2851 0124 AAF1010A 		subhi	r10, r10, #1
 2852              		.loc 1 962 0
 2853 0128 C6EB080B 		rsb	fp, r6, r8
 2854              	.LVL383:
 2855              	.LBE1097:
 2856              	.LBE1096:
 2857              	.LBB1098:
 2858              	.LBB1099:
 2859              		.loc 1 961 0
 2860 012c D945     		cmp	r9, fp
 2861 012e 94BF     		ite	ls
 2862 0130 D046     		movls	r8, r10
 2863 0132 AAF10108 		subhi	r8, r10, #1
 2864              		.loc 1 962 0
 2865 0136 C9EB0B0B 		rsb	fp, r9, fp
 2866              	.LVL384:
 2867              	.LBE1099:
 2868              	.LBE1098:
 2869              	.LBB1100:
 2870              	.LBB1101:
 2871              		.loc 1 961 0
 2872 013a 5A45     		cmp	r2, fp
 2873 013c 88BF     		it	hi
 2874 013e A8F10108 		subhi	r8, r8, #1
 2875              	.LVL385:
 2876              	.LBE1101:
 2877              	.LBE1100:
 2878              		.loc 1 1065 0
 2879 0142 4FFA88F8 		sxtb	r8, r8
 2880              	.LBB1103:
 2881              	.LBB1102:
 2882              		.loc 1 962 0
 2883 0146 C2EB0B0B 		rsb	fp, r2, fp
 2884              	.LVL386:
 2885              	.LBE1102:
 2886              	.LBE1103:
 2887              		.loc 1 1065 0
 2888 014a B8F1000F 		cmp	r8, #0
 2889 014e C3F808B0 		str	fp, [r3, #8]
 2890              	.LVL387:
 2891 0152 D3F80CB0 		ldr	fp, [r3, #12]
 2892              	.LVL388:
 2893 0156 C0F27281 		blt	.L161
 2894              	.LVL389:
 2895              	.LBB1104:
 2896              	.LBB1105:
 2897              		.loc 1 956 0 discriminator 2
 2898 015a 18EB0B08 		adds	r8, r8, fp
 2899              	.LVL390:
 2900 015e 2CBF     		ite	cs
 2901 0160 4FF0010A 		movcs	r10, #1
 2902 0164 4FF0000A 		movcc	r10, #0
 2903              	.LVL391:
ARM GAS  C:\Users\jo\AppData\Local\Temp\ccCDYYSi.s 			page 52


 2904              	.L142:
 2905              	.LBE1105:
 2906              	.LBE1104:
 2907              	.LBB1106:
 2908              	.LBB1107:
 2909              		.loc 1 955 0
 2910 0168 F044     		add	r8, r8, lr
 2911              	.LVL392:
 2912              		.loc 1 956 0
 2913 016a C645     		cmp	lr, r8
 2914 016c 88BF     		it	hi
 2915 016e 0AF1010A 		addhi	r10, r10, #1
 2916              	.LVL393:
 2917              	.LBE1107:
 2918              	.LBE1106:
 2919              	.LBB1108:
 2920              	.LBB1109:
 2921              		.loc 1 955 0
 2922 0172 F044     		add	r8, r8, lr
 2923              	.LVL394:
 2924              		.loc 1 956 0
 2925 0174 C645     		cmp	lr, r8
 2926 0176 88BF     		it	hi
 2927 0178 0AF1010A 		addhi	r10, r10, #1
 2928              	.LBE1109:
 2929              	.LBE1108:
 2930              	.LBB1110:
 2931              	.LBB1111:
 2932              		.loc 1 955 0
 2933 017c B844     		add	r8, r8, r7
 2934              	.LVL395:
 2935              		.loc 1 956 0
 2936 017e 4745     		cmp	r7, r8
 2937 0180 88BF     		it	hi
 2938 0182 0AF1010A 		addhi	r10, r10, #1
 2939              	.LBE1111:
 2940              	.LBE1110:
 2941              	.LBB1112:
 2942              	.LBB1113:
 2943              		.loc 1 955 0
 2944 0186 B844     		add	r8, r8, r7
 2945              	.LVL396:
 2946              		.loc 1 956 0
 2947 0188 4745     		cmp	r7, r8
 2948 018a 88BF     		it	hi
 2949 018c 0AF1010A 		addhi	r10, r10, #1
 2950              	.LBE1113:
 2951              	.LBE1112:
 2952              	.LBB1114:
 2953              	.LBB1115:
 2954              		.loc 1 955 0
 2955 0190 B044     		add	r8, r8, r6
 2956              	.LVL397:
 2957              		.loc 1 956 0
 2958 0192 4645     		cmp	r6, r8
 2959 0194 88BF     		it	hi
 2960 0196 0AF1010A 		addhi	r10, r10, #1
ARM GAS  C:\Users\jo\AppData\Local\Temp\ccCDYYSi.s 			page 53


 2961              	.LBE1115:
 2962              	.LBE1114:
 2963              	.LBB1116:
 2964              	.LBB1117:
 2965              		.loc 1 961 0
 2966 019a 4245     		cmp	r2, r8
 2967 019c 88BF     		it	hi
 2968 019e AAF1010A 		subhi	r10, r10, #1
 2969              		.loc 1 962 0
 2970 01a2 C2EB0808 		rsb	r8, r2, r8
 2971              	.LVL398:
 2972              	.LBE1117:
 2973              	.LBE1116:
 2974              	.LBB1118:
 2975              	.LBB1119:
 2976              		.loc 1 961 0
 2977 01a6 C445     		cmp	ip, r8
 2978 01a8 88BF     		it	hi
 2979 01aa AAF1010A 		subhi	r10, r10, #1
 2980              		.loc 1 962 0
 2981 01ae CCEB0808 		rsb	r8, ip, r8
 2982              	.LVL399:
 2983              	.LBE1119:
 2984              	.LBE1118:
 2985              	.LBB1120:
 2986              	.LBB1121:
 2987              		.loc 1 961 0
 2988 01b2 4045     		cmp	r0, r8
 2989 01b4 88BF     		it	hi
 2990 01b6 AAF1010A 		subhi	r10, r10, #1
 2991              	.LVL400:
 2992              	.LBE1121:
 2993              	.LBE1120:
 2994              		.loc 1 1068 0
 2995 01ba 4FFA8AFA 		sxtb	r10, r10
 2996              	.LBB1123:
 2997              	.LBB1122:
 2998              		.loc 1 962 0
 2999 01be C0EB0808 		rsb	r8, r0, r8
 3000              	.LVL401:
 3001              	.LBE1122:
 3002              	.LBE1123:
 3003              		.loc 1 1068 0
 3004 01c2 BAF1000F 		cmp	r10, #0
 3005 01c6 C3F80C80 		str	r8, [r3, #12]
 3006              	.LVL402:
 3007 01ca D3F81080 		ldr	r8, [r3, #16]
 3008              	.LVL403:
 3009 01ce C0F22B81 		blt	.L162
 3010              	.LVL404:
 3011              	.LBB1124:
 3012              	.LBB1125:
 3013              		.loc 1 956 0 discriminator 2
 3014 01d2 1AEB0808 		adds	r8, r10, r8
 3015              	.LVL405:
 3016 01d6 2CBF     		ite	cs
 3017 01d8 4FF0010A 		movcs	r10, #1
ARM GAS  C:\Users\jo\AppData\Local\Temp\ccCDYYSi.s 			page 54


 3018              	.LVL406:
 3019 01dc 4FF0000A 		movcc	r10, #0
 3020              	.LVL407:
 3021              	.L144:
 3022              	.LBE1125:
 3023              	.LBE1124:
 3024              	.LBB1126:
 3025              	.LBB1127:
 3026              		.loc 1 955 0
 3027 01e0 B844     		add	r8, r8, r7
 3028              	.LVL408:
 3029              		.loc 1 956 0
 3030 01e2 4745     		cmp	r7, r8
 3031 01e4 88BF     		it	hi
 3032 01e6 0AF1010A 		addhi	r10, r10, #1
 3033              	.LVL409:
 3034              	.LBE1127:
 3035              	.LBE1126:
 3036              	.LBB1128:
 3037              	.LBB1129:
 3038              		.loc 1 955 0
 3039 01ea B844     		add	r8, r8, r7
 3040              	.LVL410:
 3041              		.loc 1 956 0
 3042 01ec 4745     		cmp	r7, r8
 3043 01ee 88BF     		it	hi
 3044 01f0 0AF1010A 		addhi	r10, r10, #1
 3045              	.LBE1129:
 3046              	.LBE1128:
 3047              	.LBB1130:
 3048              	.LBB1131:
 3049              		.loc 1 955 0
 3050 01f4 B044     		add	r8, r8, r6
 3051              	.LVL411:
 3052              		.loc 1 956 0
 3053 01f6 4645     		cmp	r6, r8
 3054 01f8 88BF     		it	hi
 3055 01fa 0AF1010A 		addhi	r10, r10, #1
 3056              	.LBE1131:
 3057              	.LBE1130:
 3058              	.LBB1132:
 3059              	.LBB1133:
 3060              		.loc 1 955 0
 3061 01fe B044     		add	r8, r8, r6
 3062              	.LVL412:
 3063              		.loc 1 956 0
 3064 0200 4645     		cmp	r6, r8
 3065 0202 88BF     		it	hi
 3066 0204 0AF1010A 		addhi	r10, r10, #1
 3067              	.LBE1133:
 3068              	.LBE1132:
 3069              	.LBB1134:
 3070              	.LBB1135:
 3071              		.loc 1 955 0
 3072 0208 C844     		add	r8, r8, r9
 3073              	.LVL413:
 3074              		.loc 1 956 0
ARM GAS  C:\Users\jo\AppData\Local\Temp\ccCDYYSi.s 			page 55


 3075 020a C145     		cmp	r9, r8
 3076 020c 88BF     		it	hi
 3077 020e 0AF1010A 		addhi	r10, r10, #1
 3078              	.LBE1135:
 3079              	.LBE1134:
 3080              	.LBB1136:
 3081              	.LBB1137:
 3082              		.loc 1 961 0
 3083 0212 4045     		cmp	r0, r8
 3084 0214 88BF     		it	hi
 3085 0216 AAF1010A 		subhi	r10, r10, #1
 3086              		.loc 1 962 0
 3087 021a C0EB0808 		rsb	r8, r0, r8
 3088              	.LVL414:
 3089              	.LBE1137:
 3090              	.LBE1136:
 3091              	.LBB1138:
 3092              	.LBB1139:
 3093              		.loc 1 961 0
 3094 021e 4145     		cmp	r1, r8
 3095 0220 88BF     		it	hi
 3096 0222 AAF1010A 		subhi	r10, r10, #1
 3097              	.LVL415:
 3098              	.LBE1139:
 3099              	.LBE1138:
 3100              		.loc 1 1071 0
 3101 0226 4FFA8AFA 		sxtb	r10, r10
 3102              	.LBB1141:
 3103              	.LBB1140:
 3104              		.loc 1 962 0
 3105 022a C1EB0808 		rsb	r8, r1, r8
 3106              	.LVL416:
 3107              	.LBE1140:
 3108              	.LBE1141:
 3109              		.loc 1 1071 0
 3110 022e BAF1000F 		cmp	r10, #0
 3111 0232 C3F81080 		str	r8, [r3, #16]
 3112              	.LVL417:
 3113 0236 D3F814B0 		ldr	fp, [r3, #20]
 3114              	.LVL418:
 3115 023a C0F2EA80 		blt	.L163
 3116              	.LVL419:
 3117              	.LBB1142:
 3118              	.LBB1143:
 3119              		.loc 1 956 0 discriminator 2
 3120 023e 1AEB0B0A 		adds	r10, r10, fp
 3121              	.LVL420:
 3122 0242 2CBF     		ite	cs
 3123 0244 4FF00108 		movcs	r8, #1
 3124 0248 4FF00008 		movcc	r8, #0
 3125              	.LVL421:
 3126              	.L146:
 3127              	.LBE1143:
 3128              	.LBE1142:
 3129              	.LBB1144:
 3130              	.LBB1145:
 3131              		.loc 1 955 0
ARM GAS  C:\Users\jo\AppData\Local\Temp\ccCDYYSi.s 			page 56


 3132 024c B244     		add	r10, r10, r6
 3133              	.LVL422:
 3134              		.loc 1 956 0
 3135 024e 5645     		cmp	r6, r10
 3136 0250 88BF     		it	hi
 3137 0252 08F10108 		addhi	r8, r8, #1
 3138              	.LVL423:
 3139              	.LBE1145:
 3140              	.LBE1144:
 3141              	.LBB1146:
 3142              	.LBB1147:
 3143              		.loc 1 955 0
 3144 0256 B244     		add	r10, r10, r6
 3145              	.LVL424:
 3146              		.loc 1 956 0
 3147 0258 5645     		cmp	r6, r10
 3148 025a 88BF     		it	hi
 3149 025c 08F10108 		addhi	r8, r8, #1
 3150              	.LBE1147:
 3151              	.LBE1146:
 3152              	.LBB1148:
 3153              	.LBB1149:
 3154              		.loc 1 955 0
 3155 0260 CA44     		add	r10, r10, r9
 3156              	.LVL425:
 3157              		.loc 1 956 0
 3158 0262 D145     		cmp	r9, r10
 3159 0264 88BF     		it	hi
 3160 0266 08F10108 		addhi	r8, r8, #1
 3161              	.LBE1149:
 3162              	.LBE1148:
 3163              	.LBB1150:
 3164              	.LBB1151:
 3165              		.loc 1 955 0
 3166 026a CA44     		add	r10, r10, r9
 3167              	.LVL426:
 3168              		.loc 1 956 0
 3169 026c D145     		cmp	r9, r10
 3170 026e 88BF     		it	hi
 3171 0270 08F10108 		addhi	r8, r8, #1
 3172              	.LBE1151:
 3173              	.LBE1150:
 3174              	.LBB1152:
 3175              	.LBB1153:
 3176              		.loc 1 955 0
 3177 0274 9244     		add	r10, r10, r2
 3178              	.LVL427:
 3179              		.loc 1 956 0
 3180 0276 5245     		cmp	r2, r10
 3181 0278 88BF     		it	hi
 3182 027a 08F10108 		addhi	r8, r8, #1
 3183              	.LBE1153:
 3184              	.LBE1152:
 3185              	.LBB1154:
 3186              	.LBB1155:
 3187              		.loc 1 961 0
 3188 027e 5145     		cmp	r1, r10
ARM GAS  C:\Users\jo\AppData\Local\Temp\ccCDYYSi.s 			page 57


 3189 0280 88BF     		it	hi
 3190 0282 A8F10108 		subhi	r8, r8, #1
 3191              		.loc 1 962 0
 3192 0286 C1EB0A0A 		rsb	r10, r1, r10
 3193              	.LVL428:
 3194              	.LBE1155:
 3195              	.LBE1154:
 3196              	.LBB1156:
 3197              	.LBB1157:
 3198              		.loc 1 961 0
 3199 028a D645     		cmp	lr, r10
 3200 028c 88BF     		it	hi
 3201 028e A8F10108 		subhi	r8, r8, #1
 3202              	.LVL429:
 3203              	.LBE1157:
 3204              	.LBE1156:
 3205              		.loc 1 1074 0
 3206 0292 4FFA88FB 		sxtb	fp, r8
 3207              	.LBB1159:
 3208              	.LBB1158:
 3209              		.loc 1 962 0
 3210 0296 CEEB0A0A 		rsb	r10, lr, r10
 3211              	.LVL430:
 3212              	.LBE1158:
 3213              	.LBE1159:
 3214              		.loc 1 1074 0
 3215 029a BBF1000F 		cmp	fp, #0
 3216 029e C3F814A0 		str	r10, [r3, #20]
 3217              	.LVL431:
 3218 02a2 D3F81880 		ldr	r8, [r3, #24]
 3219              	.LVL432:
 3220 02a6 C0F2A980 		blt	.L164
 3221              	.LVL433:
 3222              	.LBB1160:
 3223              	.LBB1161:
 3224              		.loc 1 956 0 discriminator 2
 3225 02aa 1BEB0808 		adds	r8, fp, r8
 3226              	.LVL434:
 3227 02ae 2CBF     		ite	cs
 3228 02b0 4FF0010A 		movcs	r10, #1
 3229 02b4 4FF0000A 		movcc	r10, #0
 3230              	.LVL435:
 3231              	.L148:
 3232              	.LBE1161:
 3233              	.LBE1160:
 3234              	.LBB1162:
 3235              	.LBB1163:
 3236              		.loc 1 955 0
 3237 02b8 C844     		add	r8, r8, r9
 3238              	.LVL436:
 3239              		.loc 1 956 0
 3240 02ba C145     		cmp	r9, r8
 3241 02bc 88BF     		it	hi
 3242 02be 0AF1010A 		addhi	r10, r10, #1
 3243              	.LVL437:
 3244              	.LBE1163:
 3245              	.LBE1162:
ARM GAS  C:\Users\jo\AppData\Local\Temp\ccCDYYSi.s 			page 58


 3246              	.LBB1164:
 3247              	.LBB1165:
 3248              		.loc 1 955 0
 3249 02c2 C844     		add	r8, r8, r9
 3250              	.LVL438:
 3251              		.loc 1 956 0
 3252 02c4 C145     		cmp	r9, r8
 3253 02c6 88BF     		it	hi
 3254 02c8 0AF1010A 		addhi	r10, r10, #1
 3255              	.LBE1165:
 3256              	.LBE1164:
 3257              	.LBB1166:
 3258              	.LBB1167:
 3259              		.loc 1 955 0
 3260 02cc 9044     		add	r8, r8, r2
 3261              	.LVL439:
 3262              		.loc 1 956 0
 3263 02ce 4245     		cmp	r2, r8
 3264 02d0 88BF     		it	hi
 3265 02d2 0AF1010A 		addhi	r10, r10, #1
 3266              	.LBE1167:
 3267              	.LBE1166:
 3268              	.LBB1168:
 3269              	.LBB1169:
 3270              		.loc 1 955 0
 3271 02d6 9044     		add	r8, r8, r2
 3272              	.LVL440:
 3273              		.loc 1 956 0
 3274 02d8 4245     		cmp	r2, r8
 3275 02da 88BF     		it	hi
 3276 02dc 0AF1010A 		addhi	r10, r10, #1
 3277              	.LBE1169:
 3278              	.LBE1168:
 3279              	.LBB1170:
 3280              	.LBB1171:
 3281              		.loc 1 955 0
 3282 02e0 C844     		add	r8, r8, r9
 3283              	.LVL441:
 3284              		.loc 1 956 0
 3285 02e2 C145     		cmp	r9, r8
 3286 02e4 94BF     		ite	ls
 3287 02e6 D146     		movls	r9, r10
 3288 02e8 0AF10109 		addhi	r9, r10, #1
 3289              	.LVL442:
 3290              	.LBE1171:
 3291              	.LBE1170:
 3292              	.LBB1172:
 3293              	.LBB1173:
 3294              		.loc 1 955 0
 3295 02ec B044     		add	r8, r8, r6
 3296              	.LVL443:
 3297              		.loc 1 956 0
 3298 02ee 4645     		cmp	r6, r8
 3299 02f0 88BF     		it	hi
 3300 02f2 09F10109 		addhi	r9, r9, #1
 3301              	.LBE1173:
 3302              	.LBE1172:
ARM GAS  C:\Users\jo\AppData\Local\Temp\ccCDYYSi.s 			page 59


 3303              	.LBB1174:
 3304              	.LBB1175:
 3305              		.loc 1 961 0
 3306 02f6 C445     		cmp	ip, r8
 3307 02f8 88BF     		it	hi
 3308 02fa A9F10109 		subhi	r9, r9, #1
 3309              		.loc 1 962 0
 3310 02fe CCEB0808 		rsb	r8, ip, r8
 3311              	.LVL444:
 3312              	.LBE1175:
 3313              	.LBE1174:
 3314              	.LBB1176:
 3315              	.LBB1177:
 3316              		.loc 1 961 0
 3317 0302 4045     		cmp	r0, r8
 3318 0304 88BF     		it	hi
 3319 0306 A9F10109 		subhi	r9, r9, #1
 3320              	.LVL445:
 3321              	.LBE1177:
 3322              	.LBE1176:
 3323              		.loc 1 1077 0
 3324 030a 4FFA89F9 		sxtb	r9, r9
 3325              	.LBB1179:
 3326              	.LBB1178:
 3327              		.loc 1 962 0
 3328 030e C0EB0800 		rsb	r0, r0, r8
 3329              	.LVL446:
 3330              	.LBE1178:
 3331              	.LBE1179:
 3332              		.loc 1 1077 0
 3333 0312 B9F1000F 		cmp	r9, #0
 3334 0316 9861     		str	r0, [r3, #24]
 3335              	.LVL447:
 3336 0318 D869     		ldr	r0, [r3, #28]
 3337              	.LVL448:
 3338 031a 64DB     		blt	.L165
 3339              	.LVL449:
 3340              	.LBB1180:
 3341              	.LBB1181:
 3342              		.loc 1 956 0 discriminator 2
 3343 031c 19EB0000 		adds	r0, r9, r0
 3344              	.LVL450:
 3345 0320 2CBF     		ite	cs
 3346 0322 4FF00108 		movcs	r8, #1
 3347 0326 4FF00008 		movcc	r8, #0
 3348              	.LVL451:
 3349              	.L150:
 3350              	.LBE1181:
 3351              	.LBE1180:
 3352              	.LBB1182:
 3353              	.LBB1183:
 3354              		.loc 1 955 0
 3355 032a 1044     		add	r0, r0, r2
 3356              	.LVL452:
 3357              		.loc 1 956 0
 3358 032c 8242     		cmp	r2, r0
 3359 032e 88BF     		it	hi
ARM GAS  C:\Users\jo\AppData\Local\Temp\ccCDYYSi.s 			page 60


 3360 0330 08F10108 		addhi	r8, r8, #1
 3361              	.LVL453:
 3362              	.LBE1183:
 3363              	.LBE1182:
 3364              	.LBB1184:
 3365              	.LBB1185:
 3366              		.loc 1 955 0
 3367 0334 1044     		add	r0, r0, r2
 3368              	.LVL454:
 3369              		.loc 1 956 0
 3370 0336 8242     		cmp	r2, r0
 3371 0338 88BF     		it	hi
 3372 033a 08F10108 		addhi	r8, r8, #1
 3373              	.LBE1185:
 3374              	.LBE1184:
 3375              	.LBB1186:
 3376              	.LBB1187:
 3377              		.loc 1 955 0
 3378 033e 1044     		add	r0, r0, r2
 3379              	.LVL455:
 3380              		.loc 1 956 0
 3381 0340 8242     		cmp	r2, r0
 3382 0342 88BF     		it	hi
 3383 0344 08F10108 		addhi	r8, r8, #1
 3384              	.LBE1187:
 3385              	.LBE1186:
 3386              	.LBB1188:
 3387              	.LBB1189:
 3388              		.loc 1 955 0
 3389 0348 00EB0C02 		add	r2, r0, ip
 3390              	.LVL456:
 3391              		.loc 1 956 0
 3392 034c 9445     		cmp	ip, r2
 3393 034e 94BF     		ite	ls
 3394 0350 C446     		movls	ip, r8
 3395 0352 08F1010C 		addhi	ip, r8, #1
 3396              	.LVL457:
 3397              	.LBE1189:
 3398              	.LBE1188:
 3399              	.LBB1190:
 3400              	.LBB1191:
 3401              		.loc 1 961 0
 3402 0356 9142     		cmp	r1, r2
 3403 0358 88BF     		it	hi
 3404 035a ACF1010C 		subhi	ip, ip, #1
 3405              		.loc 1 962 0
 3406 035e 511A     		subs	r1, r2, r1
 3407              	.LVL458:
 3408              	.LBE1191:
 3409              	.LBE1190:
 3410              	.LBB1192:
 3411              	.LBB1193:
 3412              		.loc 1 961 0
 3413 0360 8E45     		cmp	lr, r1
 3414 0362 88BF     		it	hi
 3415 0364 ACF1010C 		subhi	ip, ip, #1
 3416              		.loc 1 962 0
ARM GAS  C:\Users\jo\AppData\Local\Temp\ccCDYYSi.s 			page 61


 3417 0368 CEEB0102 		rsb	r2, lr, r1
 3418              	.LVL459:
 3419              	.LBE1193:
 3420              	.LBE1192:
 3421              	.LBB1194:
 3422              	.LBB1195:
 3423              		.loc 1 961 0
 3424 036c 9742     		cmp	r7, r2
 3425 036e 94BF     		ite	ls
 3426 0370 6146     		movls	r1, ip
 3427 0372 ACF10101 		subhi	r1, ip, #1
 3428              		.loc 1 962 0
 3429 0376 D21B     		subs	r2, r2, r7
 3430              	.LVL460:
 3431              	.LBE1195:
 3432              	.LBE1194:
 3433              	.LBB1196:
 3434              	.LBB1197:
 3435              		.loc 1 961 0
 3436 0378 9642     		cmp	r6, r2
 3437 037a 88BF     		it	hi
 3438 037c 0139     		subhi	r1, r1, #1
 3439              	.LVL461:
 3440              	.LBE1197:
 3441              	.LBE1196:
 3442              		.loc 1 1080 0
 3443 037e 6868     		ldr	r0, [r5, #4]
 3444 0380 49B2     		sxtb	r1, r1
 3445              	.LBB1199:
 3446              	.LBB1198:
 3447              		.loc 1 962 0
 3448 0382 921B     		subs	r2, r2, r6
 3449              	.LVL462:
 3450              	.LBE1198:
 3451              	.LBE1199:
 3452              		.loc 1 1080 0
 3453 0384 0928     		cmp	r0, #9
 3454 0386 21EAE176 		bic	r6, r1, r1, asr #31
 3455              	.LVL463:
 3456 038a DA61     		str	r2, [r3, #28]
 3457              	.LVL464:
 3458 038c 1E62     		str	r6, [r3, #32]
 3459              	.LVL465:
 3460 038e 07D9     		bls	.L155
 3461 0390 03EB8002 		add	r2, r3, r0, lsl #2
 3462 0394 2433     		adds	r3, r3, #36
 3463              	.LVL466:
 3464 0396 0020     		movs	r0, #0
 3465              	.LVL467:
 3466              	.L154:
 3467              		.loc 1 1080 0 is_stmt 0 discriminator 3
 3468 0398 43F8040B 		str	r0, [r3], #4
 3469 039c 9342     		cmp	r3, r2
 3470 039e FBD1     		bne	.L154
 3471              	.L155:
 3472              		.loc 1 1080 0
 3473 03a0 0029     		cmp	r1, #0
ARM GAS  C:\Users\jo\AppData\Local\Temp\ccCDYYSi.s 			page 62


 3474 03a2 0DDB     		blt	.L166
 3475              	.LVL468:
 3476              	.L136:
 3477              		.loc 1 1084 0 is_stmt 1
 3478 03a4 2046     		mov	r0, r4
 3479 03a6 0DB0     		add	sp, sp, #52
 3480              		.cfi_remember_state
 3481              		.cfi_def_cfa_offset 36
 3482              		@ sp needed
 3483 03a8 BDE8F08F 		pop	{r4, r5, r6, r7, r8, r9, r10, fp, pc}
 3484              	.LVL469:
 3485              	.L159:
 3486              		.cfi_restore_state
 3487              		.loc 1 1059 0 discriminator 1
 3488 03ac 5242     		negs	r2, r2
 3489              	.LVL470:
 3490              	.LBB1200:
 3491              	.LBB1201:
 3492              		.loc 1 961 0 discriminator 1
 3493 03ae 9142     		cmp	r1, r2
 3494 03b0 34BF     		ite	cc
 3495 03b2 4FF0FF08 		movcc	r8, #255
 3496 03b6 4FF00008 		movcs	r8, #0
 3497              	.LVL471:
 3498              		.loc 1 962 0 discriminator 1
 3499 03ba C2EB010A 		rsb	r10, r2, r1
 3500              	.LVL472:
 3501 03be 70E6     		b	.L138
 3502              	.LVL473:
 3503              	.L166:
 3504              	.LBE1201:
 3505              	.LBE1200:
 3506              	.LBB1202:
 3507              	.LBB1203:
 3508              		.loc 1 1018 0
 3509 03c0 019B     		ldr	r3, [sp, #4]
 3510 03c2 029A     		ldr	r2, [sp, #8]
 3511 03c4 03F18043 		add	r3, r3, #1073741824
 3512 03c8 013B     		subs	r3, r3, #1
 3513 03ca 4942     		negs	r1, r1
 3514              	.LVL474:
 3515 03cc 42F82310 		str	r1, [r2, r3, lsl #2]
 3516              		.loc 1 1021 0
 3517 03d0 2846     		mov	r0, r5
 3518 03d2 6946     		mov	r1, sp
 3519              	.LVL475:
 3520 03d4 2A46     		mov	r2, r5
 3521              	.LVL476:
 3522 03d6 FFF7FEFF 		bl	mpi_sub_abs
 3523              	.LVL477:
 3524 03da 0028     		cmp	r0, #0
 3525 03dc E2D1     		bne	.L136
 3526              		.loc 1 1022 0
 3527 03de 4FF0FF33 		mov	r3, #-1
 3528 03e2 2B60     		str	r3, [r5]
 3529 03e4 DEE7     		b	.L136
 3530              	.LVL478:
ARM GAS  C:\Users\jo\AppData\Local\Temp\ccCDYYSi.s 			page 63


 3531              	.L165:
 3532              	.LBE1203:
 3533              	.LBE1202:
 3534              		.loc 1 1077 0 discriminator 1
 3535 03e6 C9F10009 		rsb	r9, r9, #0
 3536              	.LVL479:
 3537              	.LBB1204:
 3538              	.LBB1205:
 3539              		.loc 1 961 0 discriminator 1
 3540 03ea 4845     		cmp	r0, r9
 3541 03ec 34BF     		ite	cc
 3542 03ee 4FF0FF08 		movcc	r8, #255
 3543 03f2 4FF00008 		movcs	r8, #0
 3544              	.LVL480:
 3545              		.loc 1 962 0 discriminator 1
 3546 03f6 C9EB0000 		rsb	r0, r9, r0
 3547              	.LVL481:
 3548 03fa 96E7     		b	.L150
 3549              	.LVL482:
 3550              	.L164:
 3551              	.LBE1205:
 3552              	.LBE1204:
 3553              		.loc 1 1074 0 discriminator 1
 3554 03fc CBF1000B 		rsb	fp, fp, #0
 3555              	.LVL483:
 3556              	.LBB1206:
 3557              	.LBB1207:
 3558              		.loc 1 961 0 discriminator 1
 3559 0400 D845     		cmp	r8, fp
 3560 0402 34BF     		ite	cc
 3561 0404 4FF0FF0A 		movcc	r10, #255
 3562 0408 4FF0000A 		movcs	r10, #0
 3563              	.LVL484:
 3564              		.loc 1 962 0 discriminator 1
 3565 040c CBEB0808 		rsb	r8, fp, r8
 3566              	.LVL485:
 3567 0410 52E7     		b	.L148
 3568              	.LVL486:
 3569              	.L163:
 3570              	.LBE1207:
 3571              	.LBE1206:
 3572              		.loc 1 1071 0 discriminator 1
 3573 0412 CAF1000A 		rsb	r10, r10, #0
 3574              	.LVL487:
 3575              	.LBB1208:
 3576              	.LBB1209:
 3577              		.loc 1 961 0 discriminator 1
 3578 0416 D345     		cmp	fp, r10
 3579 0418 34BF     		ite	cc
 3580 041a 4FF0FF08 		movcc	r8, #255
 3581 041e 4FF00008 		movcs	r8, #0
 3582              	.LVL488:
 3583              		.loc 1 962 0 discriminator 1
 3584 0422 CAEB0B0A 		rsb	r10, r10, fp
 3585              	.LVL489:
 3586 0426 11E7     		b	.L146
 3587              	.LVL490:
ARM GAS  C:\Users\jo\AppData\Local\Temp\ccCDYYSi.s 			page 64


 3588              	.L162:
 3589              	.LBE1209:
 3590              	.LBE1208:
 3591              		.loc 1 1068 0 discriminator 1
 3592 0428 CAF1000B 		rsb	fp, r10, #0
 3593              	.LVL491:
 3594              	.LBB1210:
 3595              	.LBB1211:
 3596              		.loc 1 961 0 discriminator 1
 3597 042c D845     		cmp	r8, fp
 3598 042e 34BF     		ite	cc
 3599 0430 4FF0FF0A 		movcc	r10, #255
 3600 0434 4FF0000A 		movcs	r10, #0
 3601              	.LVL492:
 3602              		.loc 1 962 0 discriminator 1
 3603 0438 CBEB0808 		rsb	r8, fp, r8
 3604              	.LVL493:
 3605 043c D0E6     		b	.L144
 3606              	.LVL494:
 3607              	.L161:
 3608              	.LBE1211:
 3609              	.LBE1210:
 3610              		.loc 1 1065 0 discriminator 1
 3611 043e C8F10008 		rsb	r8, r8, #0
 3612              	.LVL495:
 3613              	.LBB1212:
 3614              	.LBB1213:
 3615              		.loc 1 961 0 discriminator 1
 3616 0442 C345     		cmp	fp, r8
 3617 0444 34BF     		ite	cc
 3618 0446 4FF0FF0A 		movcc	r10, #255
 3619 044a 4FF0000A 		movcs	r10, #0
 3620              	.LVL496:
 3621              		.loc 1 962 0 discriminator 1
 3622 044e C8EB0B08 		rsb	r8, r8, fp
 3623              	.LVL497:
 3624 0452 89E6     		b	.L142
 3625              	.LVL498:
 3626              	.L160:
 3627              	.LBE1213:
 3628              	.LBE1212:
 3629              		.loc 1 1062 0 discriminator 1
 3630 0454 C8F10008 		rsb	r8, r8, #0
 3631              	.LVL499:
 3632              	.LBB1214:
 3633              	.LBB1215:
 3634              		.loc 1 961 0 discriminator 1
 3635 0458 C345     		cmp	fp, r8
 3636 045a 34BF     		ite	cc
 3637 045c 4FF0FF0A 		movcc	r10, #255
 3638 0460 4FF0000A 		movcs	r10, #0
 3639              	.LVL500:
 3640              		.loc 1 962 0 discriminator 1
 3641 0464 C8EB0B08 		rsb	r8, r8, fp
 3642              	.LVL501:
 3643 0468 50E6     		b	.L140
 3644              	.LBE1215:
ARM GAS  C:\Users\jo\AppData\Local\Temp\ccCDYYSi.s 			page 65


 3645              	.LBE1214:
 3646              		.cfi_endproc
 3647              	.LFE12:
 3648              		.size	ecp_mod_p256, .-ecp_mod_p256
 3649 046a 00BFAFF3 		.section	.text.ecp_mod_p192,"ax",%progbits
 3649      0080
 3650              		.align	2
 3651              		.p2align 4,,15
 3652              		.thumb
 3653              		.thumb_func
 3654              		.type	ecp_mod_p192, %function
 3655              	ecp_mod_p192:
 3656              	.LFB7:
 3657              		.loc 1 863 0
 3658              		.cfi_startproc
 3659              		@ args = 0, pretend = 0, frame = 0
 3660              		@ frame_needed = 0, uses_anonymous_args = 0
 3661              	.LVL502:
 3662 0000 2DE9F047 		push	{r4, r5, r6, r7, r8, r9, r10, lr}
 3663              		.cfi_def_cfa_offset 32
 3664              		.cfi_offset 4, -32
 3665              		.cfi_offset 5, -28
 3666              		.cfi_offset 6, -24
 3667              		.cfi_offset 7, -20
 3668              		.cfi_offset 8, -16
 3669              		.cfi_offset 9, -12
 3670              		.cfi_offset 10, -8
 3671              		.cfi_offset 14, -4
 3672              		.loc 1 869 0
 3673 0004 0C21     		movs	r1, #12
 3674              		.loc 1 863 0
 3675 0006 0446     		mov	r4, r0
 3676              		.loc 1 869 0
 3677 0008 FFF7FEFF 		bl	mpi_grow
 3678              	.LVL503:
 3679 000c 08B1     		cbz	r0, .L184
 3680              	.LVL504:
 3681              	.L176:
 3682              		.loc 1 880 0
 3683 000e BDE8F087 		pop	{r4, r5, r6, r7, r8, r9, r10, pc}
 3684              	.LVL505:
 3685              	.L184:
 3686              		.loc 1 871 0
 3687 0012 A268     		ldr	r2, [r4, #8]
 3688              	.LVL506:
 3689              		.loc 1 872 0
 3690 0014 6168     		ldr	r1, [r4, #4]
 3691              		.loc 1 874 0
 3692 0016 02F11807 		add	r7, r2, #24
 3693              		.loc 1 872 0
 3694 001a 02EB8101 		add	r1, r2, r1, lsl #2
 3695              	.LVL507:
 3696              		.loc 1 874 0
 3697 001e 3C46     		mov	r4, r7
 3698              	.LVL508:
 3699 0020 02F1200E 		add	lr, r2, #32
 3700              	.LBB1234:
ARM GAS  C:\Users\jo\AppData\Local\Temp\ccCDYYSi.s 			page 66


 3701              	.LBB1235:
 3702              		.loc 1 833 0
 3703 0024 8446     		mov	ip, r0
 3704              	.LVL509:
 3705              	.L169:
 3706              		.loc 1 836 0
 3707 0026 54F8183C 		ldr	r3, [r4, #-24]
 3708              		.loc 1 837 0
 3709 002a 2568     		ldr	r5, [r4]
 3710              		.loc 1 836 0
 3711 002c 1CEB030C 		adds	ip, ip, r3
 3712              	.LVL510:
 3713              		.loc 1 837 0
 3714 0030 0CEB0503 		add	r3, ip, r5
 3715 0034 44F8183C 		str	r3, [r4, #-24]
 3716              		.loc 1 836 0
 3717 0038 2CBF     		ite	cs
 3718 003a 4FF0010C 		movcs	ip, #1
 3719 003e 4FF0000C 		movcc	ip, #0
 3720              	.LVL511:
 3721              		.loc 1 834 0
 3722 0042 0434     		adds	r4, r4, #4
 3723              		.loc 1 837 0
 3724 0044 AB42     		cmp	r3, r5
 3725 0046 38BF     		it	cc
 3726 0048 0CF1010C 		addcc	ip, ip, #1
 3727              	.LVL512:
 3728              		.loc 1 834 0
 3729 004c 7445     		cmp	r4, lr
 3730 004e EAD1     		bne	.L169
 3731              	.LVL513:
 3732              	.LBE1235:
 3733              	.LBE1234:
 3734              		.loc 1 874 0
 3735 0050 02F12804 		add	r4, r2, #40
 3736              	.LVL514:
 3737 0054 2546     		mov	r5, r4
 3738 0056 02F13006 		add	r6, r2, #48
 3739              	.LBB1236:
 3740              	.LBB1237:
 3741              		.loc 1 833 0
 3742 005a 4FF0000A 		mov	r10, #0
 3743              	.LVL515:
 3744              	.L170:
 3745              		.loc 1 836 0
 3746 005e 55F8283C 		ldr	r3, [r5, #-40]
 3747              		.loc 1 837 0
 3748 0062 D5F80080 		ldr	r8, [r5]
 3749              		.loc 1 836 0
 3750 0066 1AEB0303 		adds	r3, r10, r3
 3751              		.loc 1 837 0
 3752 006a 4344     		add	r3, r3, r8
 3753 006c 45F8283C 		str	r3, [r5, #-40]
 3754              		.loc 1 836 0
 3755 0070 2CBF     		ite	cs
 3756 0072 4FF0010A 		movcs	r10, #1
 3757              	.LVL516:
ARM GAS  C:\Users\jo\AppData\Local\Temp\ccCDYYSi.s 			page 67


 3758 0076 4FF0000A 		movcc	r10, #0
 3759              	.LVL517:
 3760              		.loc 1 834 0
 3761 007a 0435     		adds	r5, r5, #4
 3762              	.LVL518:
 3763              		.loc 1 837 0
 3764 007c 4345     		cmp	r3, r8
 3765 007e 38BF     		it	cc
 3766 0080 0AF1010A 		addcc	r10, r10, #1
 3767              	.LVL519:
 3768              		.loc 1 834 0
 3769 0084 B542     		cmp	r5, r6
 3770 0086 EAD1     		bne	.L170
 3771              	.LBE1237:
 3772              	.LBE1236:
 3773              	.LBB1239:
 3774              	.LBB1240:
 3775              		.loc 1 849 0
 3776 0088 9368     		ldr	r3, [r2, #8]
 3777              	.LBE1240:
 3778              	.LBE1239:
 3779              	.LBB1244:
 3780              	.LBB1245:
 3781              		.loc 1 837 0
 3782 008a D2F81880 		ldr	r8, [r2, #24]
 3783              	.LBE1245:
 3784              	.LBE1244:
 3785              	.LBB1249:
 3786              	.LBB1241:
 3787              		.loc 1 848 0
 3788 008e D568     		ldr	r5, [r2, #12]
 3789              	.LVL520:
 3790              	.LBE1241:
 3791              	.LBE1249:
 3792              	.LBB1250:
 3793              	.LBB1246:
 3794              		.loc 1 837 0
 3795 0090 D2F81C90 		ldr	r9, [r2, #28]
 3796              	.LBE1246:
 3797              	.LBE1250:
 3798              	.LBB1251:
 3799              	.LBB1238:
 3800              		.loc 1 839 0
 3801 0094 D444     		add	ip, ip, r10
 3802              	.LVL521:
 3803              	.LBE1238:
 3804              	.LBE1251:
 3805              	.LBB1252:
 3806              	.LBB1242:
 3807              		.loc 1 849 0
 3808 0096 1CEB030C 		adds	ip, ip, r3
 3809              	.LVL522:
 3810 009a 2CBF     		ite	cs
 3811 009c 0123     		movcs	r3, #1
 3812 009e 0023     		movcc	r3, #0
 3813              	.LVL523:
 3814 00a0 5D19     		adds	r5, r3, r5
ARM GAS  C:\Users\jo\AppData\Local\Temp\ccCDYYSi.s 			page 68


 3815              	.LBE1242:
 3816              	.LBE1252:
 3817              	.LBB1253:
 3818              	.LBB1247:
 3819              		.loc 1 837 0
 3820 00a2 0CEB0803 		add	r3, ip, r8
 3821              	.LVL524:
 3822              	.LBE1247:
 3823              	.LBE1253:
 3824              	.LBB1254:
 3825              	.LBB1243:
 3826              		.loc 1 849 0
 3827 00a6 2CBF     		ite	cs
 3828 00a8 4FF0010C 		movcs	ip, #1
 3829 00ac 4FF0000C 		movcc	ip, #0
 3830              	.LVL525:
 3831              	.LBE1243:
 3832              	.LBE1254:
 3833              	.LBB1255:
 3834              	.LBB1248:
 3835              		.loc 1 837 0
 3836 00b0 4345     		cmp	r3, r8
 3837 00b2 2CBF     		ite	cs
 3838 00b4 4FF00008 		movcs	r8, #0
 3839 00b8 4FF00108 		movcc	r8, #1
 3840              	.LVL526:
 3841              		.loc 1 836 0
 3842 00bc 4544     		add	r5, r5, r8
 3843              	.LVL527:
 3844 00be A845     		cmp	r8, r5
 3845 00c0 94BF     		ite	ls
 3846 00c2 E046     		movls	r8, ip
 3847 00c4 0CF10108 		addhi	r8, ip, #1
 3848              	.LVL528:
 3849              		.loc 1 837 0
 3850 00c8 4D44     		add	r5, r5, r9
 3851              	.LVL529:
 3852 00ca 9360     		str	r3, [r2, #8]
 3853              		.loc 1 839 0
 3854 00cc 4D45     		cmp	r5, r9
 3855 00ce 2CBF     		ite	cs
 3856 00d0 C146     		movcs	r9, r8
 3857 00d2 08F10109 		addcc	r9, r8, #1
 3858              		.loc 1 837 0
 3859 00d6 D560     		str	r5, [r2, #12]
 3860              	.LVL530:
 3861              	.LBE1248:
 3862              	.LBE1255:
 3863              	.LBB1256:
 3864              	.LBB1257:
 3865              		.loc 1 833 0
 3866 00d8 0023     		movs	r3, #0
 3867              	.LVL531:
 3868              	.L171:
 3869              		.loc 1 836 0
 3870 00da 5EF8185C 		ldr	r5, [lr, #-24]
 3871              		.loc 1 837 0
ARM GAS  C:\Users\jo\AppData\Local\Temp\ccCDYYSi.s 			page 69


 3872 00de DEF800C0 		ldr	ip, [lr]
 3873              		.loc 1 836 0
 3874 00e2 5B19     		adds	r3, r3, r5
 3875              	.LVL532:
 3876              		.loc 1 837 0
 3877 00e4 6344     		add	r3, r3, ip
 3878 00e6 4EF8183C 		str	r3, [lr, #-24]
 3879              		.loc 1 836 0
 3880 00ea 2CBF     		ite	cs
 3881 00ec 0125     		movcs	r5, #1
 3882 00ee 0025     		movcc	r5, #0
 3883              	.LVL533:
 3884              		.loc 1 834 0
 3885 00f0 0EF1040E 		add	lr, lr, #4
 3886              		.loc 1 837 0
 3887 00f4 6345     		cmp	r3, ip
 3888 00f6 2CBF     		ite	cs
 3889 00f8 2B46     		movcs	r3, r5
 3890 00fa 6B1C     		addcc	r3, r5, #1
 3891              	.LVL534:
 3892              		.loc 1 834 0
 3893 00fc 7445     		cmp	r4, lr
 3894 00fe ECD1     		bne	.L171
 3895              		.loc 1 839 0
 3896 0100 09EB030E 		add	lr, r9, r3
 3897              	.LVL535:
 3898 0104 A446     		mov	ip, r4
 3899              	.LBE1257:
 3900              	.LBE1256:
 3901              	.LBB1258:
 3902              	.LBB1259:
 3903              		.loc 1 833 0
 3904 0106 0023     		movs	r3, #0
 3905              	.LVL536:
 3906              	.L172:
 3907              		.loc 1 836 0
 3908 0108 5CF8205C 		ldr	r5, [ip, #-32]
 3909              		.loc 1 837 0
 3910 010c DCF80080 		ldr	r8, [ip]
 3911              		.loc 1 836 0
 3912 0110 5B19     		adds	r3, r3, r5
 3913              	.LVL537:
 3914              		.loc 1 837 0
 3915 0112 4344     		add	r3, r3, r8
 3916 0114 4CF8203C 		str	r3, [ip, #-32]
 3917              		.loc 1 836 0
 3918 0118 2CBF     		ite	cs
 3919 011a 0125     		movcs	r5, #1
 3920 011c 0025     		movcc	r5, #0
 3921              	.LVL538:
 3922              		.loc 1 834 0
 3923 011e 0CF1040C 		add	ip, ip, #4
 3924              	.LVL539:
 3925              		.loc 1 837 0
 3926 0122 4345     		cmp	r3, r8
 3927 0124 2CBF     		ite	cs
 3928 0126 2B46     		movcs	r3, r5
ARM GAS  C:\Users\jo\AppData\Local\Temp\ccCDYYSi.s 			page 70


 3929 0128 6B1C     		addcc	r3, r5, #1
 3930              	.LVL540:
 3931              		.loc 1 834 0
 3932 012a 6645     		cmp	r6, ip
 3933 012c ECD1     		bne	.L172
 3934              	.LBE1259:
 3935              	.LBE1258:
 3936              	.LBB1261:
 3937              	.LBB1262:
 3938              		.loc 1 848 0
 3939 012e 1669     		ldr	r6, [r2, #16]
 3940              	.LBE1262:
 3941              	.LBE1261:
 3942              	.LBB1266:
 3943              	.LBB1267:
 3944              		.loc 1 837 0
 3945 0130 D2F820C0 		ldr	ip, [r2, #32]
 3946              	.LVL541:
 3947              	.LBE1267:
 3948              	.LBE1266:
 3949              	.LBB1271:
 3950              	.LBB1263:
 3951              		.loc 1 848 0
 3952 0134 5569     		ldr	r5, [r2, #20]
 3953              	.LBE1263:
 3954              	.LBE1271:
 3955              	.LBB1272:
 3956              	.LBB1268:
 3957              		.loc 1 837 0
 3958 0136 D2F82480 		ldr	r8, [r2, #36]
 3959              	.LBE1268:
 3960              	.LBE1272:
 3961              	.LBB1273:
 3962              	.LBB1260:
 3963              		.loc 1 839 0
 3964 013a 7344     		add	r3, r3, lr
 3965              	.LVL542:
 3966              	.LBE1260:
 3967              	.LBE1273:
 3968              	.LBB1274:
 3969              	.LBB1264:
 3970              		.loc 1 849 0
 3971 013c 9B19     		adds	r3, r3, r6
 3972              	.LVL543:
 3973 013e 2CBF     		ite	cs
 3974 0140 0126     		movcs	r6, #1
 3975 0142 0026     		movcc	r6, #0
 3976 0144 7519     		adds	r5, r6, r5
 3977              	.LBE1264:
 3978              	.LBE1274:
 3979              	.LBB1275:
 3980              	.LBB1269:
 3981              		.loc 1 837 0
 3982 0146 6344     		add	r3, r3, ip
 3983              	.LBE1269:
 3984              	.LBE1275:
 3985              	.LBB1276:
ARM GAS  C:\Users\jo\AppData\Local\Temp\ccCDYYSi.s 			page 71


 3986              	.LBB1265:
 3987              		.loc 1 849 0
 3988 0148 2CBF     		ite	cs
 3989 014a 4FF0010E 		movcs	lr, #1
 3990 014e 4FF0000E 		movcc	lr, #0
 3991              	.LBE1265:
 3992              	.LBE1276:
 3993              	.LBB1277:
 3994              	.LBB1270:
 3995              		.loc 1 837 0
 3996 0152 6345     		cmp	r3, ip
 3997 0154 2CBF     		ite	cs
 3998 0156 4FF0000C 		movcs	ip, #0
 3999 015a 4FF0010C 		movcc	ip, #1
 4000              		.loc 1 836 0
 4001 015e 6544     		add	r5, r5, ip
 4002 0160 AC45     		cmp	ip, r5
 4003 0162 94BF     		ite	ls
 4004 0164 F446     		movls	ip, lr
 4005 0166 0EF1010C 		addhi	ip, lr, #1
 4006              		.loc 1 837 0
 4007 016a 4544     		add	r5, r5, r8
 4008 016c 1361     		str	r3, [r2, #16]
 4009              		.loc 1 839 0
 4010 016e 4545     		cmp	r5, r8
 4011 0170 2CBF     		ite	cs
 4012 0172 E046     		movcs	r8, ip
 4013 0174 0CF10108 		addcc	r8, ip, #1
 4014              		.loc 1 837 0
 4015 0178 5561     		str	r5, [r2, #20]
 4016              	.LBE1270:
 4017              	.LBE1277:
 4018              		.loc 1 875 0
 4019 017a 02F11006 		add	r6, r2, #16
 4020              	.LVL544:
 4021              	.LBB1278:
 4022              	.LBB1279:
 4023              		.loc 1 833 0
 4024 017e 4FF0000E 		mov	lr, #0
 4025              	.LVL545:
 4026              	.L173:
 4027              		.loc 1 836 0
 4028 0182 3568     		ldr	r5, [r6]
 4029 0184 7544     		add	r5, r5, lr
 4030              	.LVL546:
 4031 0186 3560     		str	r5, [r6]
 4032              		.loc 1 837 0
 4033 0188 2368     		ldr	r3, [r4]
 4034 018a 2B44     		add	r3, r3, r5
 4035 018c 46F8043B 		str	r3, [r6], #4
 4036              	.LVL547:
 4037 0190 54F804CB 		ldr	ip, [r4], #4
 4038              	.LVL548:
 4039 0194 6345     		cmp	r3, ip
 4040 0196 2CBF     		ite	cs
 4041 0198 0023     		movcs	r3, #0
 4042 019a 0123     		movcc	r3, #1
ARM GAS  C:\Users\jo\AppData\Local\Temp\ccCDYYSi.s 			page 72


 4043 019c AE45     		cmp	lr, r5
 4044 019e 94BF     		ite	ls
 4045 01a0 9E46     		movls	lr, r3
 4046 01a2 03F1010E 		addhi	lr, r3, #1
 4047              	.LVL549:
 4048              		.loc 1 834 0
 4049 01a6 BE42     		cmp	r6, r7
 4050 01a8 EBD1     		bne	.L173
 4051              	.LVL550:
 4052              	.LBE1279:
 4053              	.LBE1278:
 4054              		.loc 1 876 0
 4055 01aa 02F11C03 		add	r3, r2, #28
 4056              	.LBB1281:
 4057              	.LBB1280:
 4058              		.loc 1 839 0
 4059 01ae 08EB0E04 		add	r4, r8, lr
 4060              	.LVL551:
 4061              	.LBE1280:
 4062              	.LBE1281:
 4063              		.loc 1 876 0
 4064 01b2 9942     		cmp	r1, r3
 4065 01b4 9461     		str	r4, [r2, #24]
 4066              	.LVL552:
 4067 01b6 7FF62AAF 		bls	.L176
 4068              		.loc 1 876 0 is_stmt 0 discriminator 3
 4069 01ba 0022     		movs	r2, #0
 4070              	.LVL553:
 4071              	.L175:
 4072 01bc 43F8042B 		str	r2, [r3], #4
 4073              	.LVL554:
 4074 01c0 9942     		cmp	r1, r3
 4075 01c2 FBD8     		bhi	.L175
 4076              		.loc 1 880 0 is_stmt 1
 4077 01c4 BDE8F087 		pop	{r4, r5, r6, r7, r8, r9, r10, pc}
 4078              		.cfi_endproc
 4079              	.LFE7:
 4080              		.size	ecp_mod_p192, .-ecp_mod_p192
 4081 01c8 AFF30080 		.section	.text.ecp_mod_p192k1,"ax",%progbits
 4081      AFF30080 
 4082              		.align	2
 4083              		.p2align 4,,15
 4084              		.thumb
 4085              		.thumb_func
 4086              		.type	ecp_mod_p192k1, %function
 4087              	ecp_mod_p192k1:
 4088              	.LFB17:
 4089              		.loc 1 1339 0
 4090              		.cfi_startproc
 4091              		@ args = 0, pretend = 0, frame = 64
 4092              		@ frame_needed = 0, uses_anonymous_args = 0
 4093              	.LVL555:
 4094 0000 2DE9F047 		push	{r4, r5, r6, r7, r8, r9, r10, lr}
 4095              		.cfi_def_cfa_offset 32
 4096              		.cfi_offset 4, -32
 4097              		.cfi_offset 5, -28
 4098              		.cfi_offset 6, -24
ARM GAS  C:\Users\jo\AppData\Local\Temp\ccCDYYSi.s 			page 73


 4099              		.cfi_offset 7, -20
 4100              		.cfi_offset 8, -16
 4101              		.cfi_offset 9, -12
 4102              		.cfi_offset 10, -8
 4103              		.cfi_offset 14, -4
 4104              	.LBB1284:
 4105              	.LBB1285:
 4106              		.loc 1 1272 0
 4107 0004 D0F80480 		ldr	r8, [r0, #4]
 4108 0008 B8F1050F 		cmp	r8, #5
 4109              	.LBE1285:
 4110              	.LBE1284:
 4111              		.loc 1 1339 0
 4112 000c 90B0     		sub	sp, sp, #64
 4113              		.cfi_def_cfa_offset 96
 4114              	.LBB1289:
 4115              	.LBB1286:
 4116              		.loc 1 1272 0
 4117 000e 52D9     		bls	.L197
 4118 0010 0646     		mov	r6, r0
 4119              		.loc 1 1285 0
 4120 0012 A8F10602 		sub	r2, r8, #6
 4121              		.loc 1 1276 0
 4122 0016 0123     		movs	r3, #1
 4123              		.loc 1 1277 0
 4124 0018 4A48     		ldr	r0, .L210
 4125              	.LVL556:
 4126              		.loc 1 1276 0
 4127 001a 0393     		str	r3, [sp, #12]
 4128              		.loc 1 1278 0
 4129 001c 0221     		movs	r1, #2
 4130              		.loc 1 1282 0
 4131 001e 06AF     		add	r7, sp, #24
 4132              		.loc 1 1286 0
 4133 0020 062A     		cmp	r2, #6
 4134              		.loc 1 1281 0
 4135 0022 0093     		str	r3, [sp]
 4136              		.loc 1 1277 0
 4137 0024 0590     		str	r0, [sp, #20]
 4138              		.loc 1 1278 0
 4139 0026 0491     		str	r1, [sp, #16]
 4140              		.loc 1 1282 0
 4141 0028 0297     		str	r7, [sp, #8]
 4142              		.loc 1 1289 0
 4143 002a B568     		ldr	r5, [r6, #8]
 4144              		.loc 1 1286 0
 4145 002c 28D8     		bhi	.L187
 4146              		.loc 1 1289 0
 4147 002e 05F11804 		add	r4, r5, #24
 4148              		.loc 1 1288 0
 4149 0032 0023     		movs	r3, #0
 4150              		.loc 1 1289 0
 4151 0034 8A40     		lsls	r2, r2, r1
 4152 0036 3846     		mov	r0, r7
 4153 0038 2146     		mov	r1, r4
 4154              		.loc 1 1288 0
 4155 003a 0693     		str	r3, [sp, #24]
ARM GAS  C:\Users\jo\AppData\Local\Temp\ccCDYYSi.s 			page 74


 4156 003c 0793     		str	r3, [sp, #28]
 4157 003e 0893     		str	r3, [sp, #32]
 4158 0040 0993     		str	r3, [sp, #36]
 4159 0042 0A93     		str	r3, [sp, #40]
 4160 0044 0B93     		str	r3, [sp, #44]
 4161 0046 0C93     		str	r3, [sp, #48]
 4162 0048 0D93     		str	r3, [sp, #52]
 4163 004a 0E93     		str	r3, [sp, #56]
 4164 004c 0F93     		str	r3, [sp, #60]
 4165              		.loc 1 1289 0
 4166 004e FFF7FEFF 		bl	memcpy
 4167              	.LVL557:
 4168 0052 A8F10403 		sub	r3, r8, #4
 4169              		.loc 1 1297 0
 4170 0056 B8F1060F 		cmp	r8, #6
 4171              		.loc 1 1292 0
 4172 005a 0193     		str	r3, [sp, #4]
 4173              	.LVL558:
 4174              		.loc 1 1297 0
 4175 005c 07D0     		beq	.L189
 4176              	.L188:
 4177 005e 2146     		mov	r1, r4
 4178 0060 05EB8803 		add	r3, r5, r8, lsl #2
 4179              		.loc 1 1298 0
 4180 0064 0022     		movs	r2, #0
 4181              	.LVL559:
 4182              	.L191:
 4183 0066 41F8042B 		str	r2, [r1], #4
 4184              		.loc 1 1297 0
 4185 006a 9942     		cmp	r1, r3
 4186 006c FBD1     		bne	.L191
 4187              	.L189:
 4188              		.loc 1 1301 0
 4189 006e 6846     		mov	r0, sp
 4190 0070 6946     		mov	r1, sp
 4191 0072 03AA     		add	r2, sp, #12
 4192 0074 FFF7FEFF 		bl	mpi_mul_mpi
 4193              	.LVL560:
 4194 0078 08B3     		cbz	r0, .L209
 4195              	.LVL561:
 4196              	.L186:
 4197              	.LBE1286:
 4198              	.LBE1289:
 4199              		.loc 1 1344 0
 4200 007a 10B0     		add	sp, sp, #64
 4201              		.cfi_remember_state
 4202              		.cfi_def_cfa_offset 32
 4203              		@ sp needed
 4204 007c BDE8F087 		pop	{r4, r5, r6, r7, r8, r9, r10, pc}
 4205              	.LVL562:
 4206              	.L187:
 4207              		.cfi_restore_state
 4208              	.LBB1290:
 4209              	.LBB1287:
 4210              		.loc 1 1288 0
 4211 0080 0023     		movs	r3, #0
 4212              		.loc 1 1289 0
ARM GAS  C:\Users\jo\AppData\Local\Temp\ccCDYYSi.s 			page 75


 4213 0082 2C46     		mov	r4, r5
 4214              		.loc 1 1288 0
 4215 0084 0693     		str	r3, [sp, #24]
 4216 0086 0793     		str	r3, [sp, #28]
 4217 0088 0893     		str	r3, [sp, #32]
 4218 008a 0993     		str	r3, [sp, #36]
 4219 008c 0A93     		str	r3, [sp, #40]
 4220 008e 0B93     		str	r3, [sp, #44]
 4221 0090 0C93     		str	r3, [sp, #48]
 4222 0092 0D93     		str	r3, [sp, #52]
 4223 0094 0E93     		str	r3, [sp, #56]
 4224 0096 0F93     		str	r3, [sp, #60]
 4225              		.loc 1 1289 0
 4226 0098 54F8180F 		ldr	r0, [r4, #24]!	@ unaligned
 4227 009c 6168     		ldr	r1, [r4, #4]	@ unaligned
 4228 009e E368     		ldr	r3, [r4, #12]	@ unaligned
 4229 00a0 A268     		ldr	r2, [r4, #8]	@ unaligned
 4230 00a2 BE46     		mov	lr, r7
 4231 00a4 AEE80F00 		stmia	lr!, {r0, r1, r2, r3}
 4232 00a8 2069     		ldr	r0, [r4, #16]	@ unaligned
 4233 00aa 6169     		ldr	r1, [r4, #20]	@ unaligned
 4234              		.loc 1 1292 0
 4235 00ac 0823     		movs	r3, #8
 4236              		.loc 1 1289 0
 4237 00ae AEE80300 		stmia	lr!, {r0, r1}
 4238              		.loc 1 1292 0
 4239 00b2 0193     		str	r3, [sp, #4]
 4240              	.LVL563:
 4241 00b4 D3E7     		b	.L188
 4242              	.LVL564:
 4243              	.L197:
 4244              		.loc 1 1273 0
 4245 00b6 0020     		movs	r0, #0
 4246              	.LVL565:
 4247              	.LBE1287:
 4248              	.LBE1290:
 4249              		.loc 1 1344 0
 4250 00b8 10B0     		add	sp, sp, #64
 4251              		.cfi_remember_state
 4252              		.cfi_def_cfa_offset 32
 4253              		@ sp needed
 4254 00ba BDE8F087 		pop	{r4, r5, r6, r7, r8, r9, r10, pc}
 4255              	.LVL566:
 4256              	.L209:
 4257              		.cfi_restore_state
 4258              	.LBB1291:
 4259              	.LBB1288:
 4260              		.loc 1 1302 0
 4261 00be 3046     		mov	r0, r6
 4262              	.LVL567:
 4263 00c0 3146     		mov	r1, r6
 4264 00c2 6A46     		mov	r2, sp
 4265 00c4 FFF7FEFF 		bl	mpi_add_abs
 4266              	.LVL568:
 4267 00c8 0028     		cmp	r0, #0
 4268 00ca D6D1     		bne	.L186
 4269              		.loc 1 1307 0
ARM GAS  C:\Users\jo\AppData\Local\Temp\ccCDYYSi.s 			page 76


 4270 00cc D6F804A0 		ldr	r10, [r6, #4]
 4271              		.loc 1 1311 0
 4272 00d0 D6F80880 		ldr	r8, [r6, #8]
 4273              		.loc 1 1307 0
 4274 00d4 AAF10609 		sub	r9, r10, #6
 4275              		.loc 1 1308 0
 4276 00d8 B9F1060F 		cmp	r9, #6
 4277              		.loc 1 1311 0
 4278 00dc 08F11804 		add	r4, r8, #24
 4279              		.loc 1 1310 0
 4280 00e0 4FF00005 		mov	r5, #0
 4281 00e4 94BF     		ite	ls
 4282 00e6 4FEA8902 		lslls	r2, r9, #2
 4283              		.loc 1 1308 0
 4284 00ea 1822     		movhi	r2, #24
 4285              		.loc 1 1311 0
 4286 00ec 3846     		mov	r0, r7
 4287              	.LVL569:
 4288 00ee 2146     		mov	r1, r4
 4289              		.loc 1 1308 0
 4290 00f0 88BF     		it	hi
 4291 00f2 4FF00609 		movhi	r9, #6
 4292              		.loc 1 1310 0
 4293 00f6 0695     		str	r5, [sp, #24]
 4294 00f8 0795     		str	r5, [sp, #28]
 4295 00fa 0895     		str	r5, [sp, #32]
 4296 00fc 0995     		str	r5, [sp, #36]
 4297 00fe 0A95     		str	r5, [sp, #40]
 4298 0100 0B95     		str	r5, [sp, #44]
 4299 0102 0C95     		str	r5, [sp, #48]
 4300 0104 0D95     		str	r5, [sp, #52]
 4301 0106 0E95     		str	r5, [sp, #56]
 4302 0108 0F95     		str	r5, [sp, #60]
 4303              		.loc 1 1311 0
 4304 010a FFF7FEFF 		bl	memcpy
 4305              	.LVL570:
 4306              		.loc 1 1314 0
 4307 010e 049A     		ldr	r2, [sp, #16]
 4308              		.loc 1 1319 0
 4309 0110 BAF1060F 		cmp	r10, #6
 4310              		.loc 1 1314 0
 4311 0114 4A44     		add	r2, r2, r9
 4312 0116 0192     		str	r2, [sp, #4]
 4313              	.LVL571:
 4314              		.loc 1 1319 0
 4315 0118 06D9     		bls	.L196
 4316 011a 2146     		mov	r1, r4
 4317 011c 08EB8A03 		add	r3, r8, r10, lsl #2
 4318              	.LVL572:
 4319              	.L195:
 4320              		.loc 1 1320 0
 4321 0120 41F8045B 		str	r5, [r1], #4
 4322              		.loc 1 1319 0
 4323 0124 9942     		cmp	r1, r3
 4324 0126 FBD1     		bne	.L195
 4325              	.L196:
 4326              		.loc 1 1323 0
ARM GAS  C:\Users\jo\AppData\Local\Temp\ccCDYYSi.s 			page 77


 4327 0128 03AA     		add	r2, sp, #12
 4328 012a 6846     		mov	r0, sp
 4329 012c 6946     		mov	r1, sp
 4330 012e FFF7FEFF 		bl	mpi_mul_mpi
 4331              	.LVL573:
 4332 0132 0028     		cmp	r0, #0
 4333 0134 A1D1     		bne	.L186
 4334              		.loc 1 1324 0
 4335 0136 6A46     		mov	r2, sp
 4336 0138 3046     		mov	r0, r6
 4337              	.LVL574:
 4338 013a 3146     		mov	r1, r6
 4339 013c FFF7FEFF 		bl	mpi_add_abs
 4340              	.LVL575:
 4341 0140 9BE7     		b	.L186
 4342              	.L211:
 4343 0142 00BF     		.align	2
 4344              	.L210:
 4345 0144 00000000 		.word	.LANCHOR1
 4346              	.LBE1288:
 4347              	.LBE1291:
 4348              		.cfi_endproc
 4349              	.LFE17:
 4350              		.size	ecp_mod_p192k1, .-ecp_mod_p192k1
 4351 0148 AFF30080 		.section	.text.ecp_mod_p224k1,"ax",%progbits
 4351      AFF30080 
 4352              		.align	2
 4353              		.p2align 4,,15
 4354              		.thumb
 4355              		.thumb_func
 4356              		.type	ecp_mod_p224k1, %function
 4357              	ecp_mod_p224k1:
 4358              	.LFB18:
 4359              		.loc 1 1353 0
 4360              		.cfi_startproc
 4361              		@ args = 0, pretend = 0, frame = 64
 4362              		@ frame_needed = 0, uses_anonymous_args = 0
 4363              	.LVL576:
 4364 0000 2DE9F047 		push	{r4, r5, r6, r7, r8, r9, r10, lr}
 4365              		.cfi_def_cfa_offset 32
 4366              		.cfi_offset 4, -32
 4367              		.cfi_offset 5, -28
 4368              		.cfi_offset 6, -24
 4369              		.cfi_offset 7, -20
 4370              		.cfi_offset 8, -16
 4371              		.cfi_offset 9, -12
 4372              		.cfi_offset 10, -8
 4373              		.cfi_offset 14, -4
 4374              	.LBB1294:
 4375              	.LBB1295:
 4376              		.loc 1 1272 0
 4377 0004 D0F80480 		ldr	r8, [r0, #4]
 4378 0008 B8F1060F 		cmp	r8, #6
 4379              	.LBE1295:
 4380              	.LBE1294:
 4381              		.loc 1 1353 0
 4382 000c 90B0     		sub	sp, sp, #64
ARM GAS  C:\Users\jo\AppData\Local\Temp\ccCDYYSi.s 			page 78


 4383              		.cfi_def_cfa_offset 96
 4384              	.LBB1299:
 4385              	.LBB1296:
 4386              		.loc 1 1272 0
 4387 000e 53D9     		bls	.L224
 4388 0010 0646     		mov	r6, r0
 4389              		.loc 1 1285 0
 4390 0012 A8F10702 		sub	r2, r8, #7
 4391              		.loc 1 1276 0
 4392 0016 0123     		movs	r3, #1
 4393              		.loc 1 1277 0
 4394 0018 4A48     		ldr	r0, .L237
 4395              	.LVL577:
 4396              		.loc 1 1276 0
 4397 001a 0393     		str	r3, [sp, #12]
 4398              		.loc 1 1278 0
 4399 001c 0221     		movs	r1, #2
 4400              		.loc 1 1282 0
 4401 001e 06AF     		add	r7, sp, #24
 4402              		.loc 1 1286 0
 4403 0020 072A     		cmp	r2, #7
 4404              		.loc 1 1281 0
 4405 0022 0093     		str	r3, [sp]
 4406              		.loc 1 1277 0
 4407 0024 0590     		str	r0, [sp, #20]
 4408              		.loc 1 1278 0
 4409 0026 0491     		str	r1, [sp, #16]
 4410              		.loc 1 1282 0
 4411 0028 0297     		str	r7, [sp, #8]
 4412              		.loc 1 1289 0
 4413 002a B568     		ldr	r5, [r6, #8]
 4414              		.loc 1 1286 0
 4415 002c 28D8     		bhi	.L214
 4416              		.loc 1 1289 0
 4417 002e 05F11C04 		add	r4, r5, #28
 4418              		.loc 1 1288 0
 4419 0032 0023     		movs	r3, #0
 4420              		.loc 1 1289 0
 4421 0034 8A40     		lsls	r2, r2, r1
 4422 0036 3846     		mov	r0, r7
 4423 0038 2146     		mov	r1, r4
 4424              		.loc 1 1288 0
 4425 003a 0693     		str	r3, [sp, #24]
 4426 003c 0793     		str	r3, [sp, #28]
 4427 003e 0893     		str	r3, [sp, #32]
 4428 0040 0993     		str	r3, [sp, #36]
 4429 0042 0A93     		str	r3, [sp, #40]
 4430 0044 0B93     		str	r3, [sp, #44]
 4431 0046 0C93     		str	r3, [sp, #48]
 4432 0048 0D93     		str	r3, [sp, #52]
 4433 004a 0E93     		str	r3, [sp, #56]
 4434 004c 0F93     		str	r3, [sp, #60]
 4435              		.loc 1 1289 0
 4436 004e FFF7FEFF 		bl	memcpy
 4437              	.LVL578:
 4438 0052 A8F10503 		sub	r3, r8, #5
 4439              		.loc 1 1297 0
ARM GAS  C:\Users\jo\AppData\Local\Temp\ccCDYYSi.s 			page 79


 4440 0056 B8F1070F 		cmp	r8, #7
 4441              		.loc 1 1292 0
 4442 005a 0193     		str	r3, [sp, #4]
 4443              	.LVL579:
 4444              		.loc 1 1297 0
 4445 005c 07D0     		beq	.L216
 4446              	.L215:
 4447 005e 2146     		mov	r1, r4
 4448 0060 05EB8803 		add	r3, r5, r8, lsl #2
 4449              		.loc 1 1298 0
 4450 0064 0022     		movs	r2, #0
 4451              	.LVL580:
 4452              	.L218:
 4453 0066 41F8042B 		str	r2, [r1], #4
 4454              		.loc 1 1297 0
 4455 006a 9942     		cmp	r1, r3
 4456 006c FBD1     		bne	.L218
 4457              	.L216:
 4458              		.loc 1 1301 0
 4459 006e 6846     		mov	r0, sp
 4460 0070 6946     		mov	r1, sp
 4461 0072 03AA     		add	r2, sp, #12
 4462 0074 FFF7FEFF 		bl	mpi_mul_mpi
 4463              	.LVL581:
 4464 0078 10B3     		cbz	r0, .L236
 4465              	.LVL582:
 4466              	.L213:
 4467              	.LBE1296:
 4468              	.LBE1299:
 4469              		.loc 1 1362 0
 4470 007a 10B0     		add	sp, sp, #64
 4471              		.cfi_remember_state
 4472              		.cfi_def_cfa_offset 32
 4473              		@ sp needed
 4474 007c BDE8F087 		pop	{r4, r5, r6, r7, r8, r9, r10, pc}
 4475              	.LVL583:
 4476              	.L214:
 4477              		.cfi_restore_state
 4478              	.LBB1300:
 4479              	.LBB1297:
 4480              		.loc 1 1288 0
 4481 0080 0023     		movs	r3, #0
 4482              		.loc 1 1289 0
 4483 0082 2C46     		mov	r4, r5
 4484              		.loc 1 1288 0
 4485 0084 0693     		str	r3, [sp, #24]
 4486 0086 0793     		str	r3, [sp, #28]
 4487 0088 0893     		str	r3, [sp, #32]
 4488 008a 0993     		str	r3, [sp, #36]
 4489 008c 0A93     		str	r3, [sp, #40]
 4490 008e 0B93     		str	r3, [sp, #44]
 4491 0090 0C93     		str	r3, [sp, #48]
 4492 0092 0D93     		str	r3, [sp, #52]
 4493 0094 0E93     		str	r3, [sp, #56]
 4494 0096 0F93     		str	r3, [sp, #60]
 4495              		.loc 1 1289 0
 4496 0098 54F81C0F 		ldr	r0, [r4, #28]!	@ unaligned
ARM GAS  C:\Users\jo\AppData\Local\Temp\ccCDYYSi.s 			page 80


 4497 009c 6168     		ldr	r1, [r4, #4]	@ unaligned
 4498 009e A268     		ldr	r2, [r4, #8]	@ unaligned
 4499 00a0 E368     		ldr	r3, [r4, #12]	@ unaligned
 4500 00a2 BE46     		mov	lr, r7
 4501 00a4 AEE80F00 		stmia	lr!, {r0, r1, r2, r3}
 4502 00a8 2069     		ldr	r0, [r4, #16]	@ unaligned
 4503 00aa 6169     		ldr	r1, [r4, #20]	@ unaligned
 4504 00ac A269     		ldr	r2, [r4, #24]	@ unaligned
 4505              		.loc 1 1292 0
 4506 00ae 0923     		movs	r3, #9
 4507              		.loc 1 1289 0
 4508 00b0 AEE80700 		stmia	lr!, {r0, r1, r2}
 4509              		.loc 1 1292 0
 4510 00b4 0193     		str	r3, [sp, #4]
 4511              	.LVL584:
 4512 00b6 D2E7     		b	.L215
 4513              	.LVL585:
 4514              	.L224:
 4515              		.loc 1 1273 0
 4516 00b8 0020     		movs	r0, #0
 4517              	.LVL586:
 4518              	.LBE1297:
 4519              	.LBE1300:
 4520              		.loc 1 1362 0
 4521 00ba 10B0     		add	sp, sp, #64
 4522              		.cfi_remember_state
 4523              		.cfi_def_cfa_offset 32
 4524              		@ sp needed
 4525 00bc BDE8F087 		pop	{r4, r5, r6, r7, r8, r9, r10, pc}
 4526              	.LVL587:
 4527              	.L236:
 4528              		.cfi_restore_state
 4529              	.LBB1301:
 4530              	.LBB1298:
 4531              		.loc 1 1302 0
 4532 00c0 3046     		mov	r0, r6
 4533              	.LVL588:
 4534 00c2 3146     		mov	r1, r6
 4535 00c4 6A46     		mov	r2, sp
 4536 00c6 FFF7FEFF 		bl	mpi_add_abs
 4537              	.LVL589:
 4538 00ca 0028     		cmp	r0, #0
 4539 00cc D5D1     		bne	.L213
 4540              		.loc 1 1307 0
 4541 00ce D6F804A0 		ldr	r10, [r6, #4]
 4542              		.loc 1 1311 0
 4543 00d2 D6F80880 		ldr	r8, [r6, #8]
 4544              		.loc 1 1307 0
 4545 00d6 AAF10709 		sub	r9, r10, #7
 4546              		.loc 1 1308 0
 4547 00da B9F1070F 		cmp	r9, #7
 4548              		.loc 1 1311 0
 4549 00de 08F11C04 		add	r4, r8, #28
 4550              		.loc 1 1310 0
 4551 00e2 4FF00005 		mov	r5, #0
 4552 00e6 94BF     		ite	ls
 4553 00e8 4FEA8902 		lslls	r2, r9, #2
ARM GAS  C:\Users\jo\AppData\Local\Temp\ccCDYYSi.s 			page 81


 4554              		.loc 1 1308 0
 4555 00ec 1C22     		movhi	r2, #28
 4556              		.loc 1 1311 0
 4557 00ee 3846     		mov	r0, r7
 4558              	.LVL590:
 4559 00f0 2146     		mov	r1, r4
 4560              		.loc 1 1308 0
 4561 00f2 88BF     		it	hi
 4562 00f4 4FF00709 		movhi	r9, #7
 4563              		.loc 1 1310 0
 4564 00f8 0695     		str	r5, [sp, #24]
 4565 00fa 0795     		str	r5, [sp, #28]
 4566 00fc 0895     		str	r5, [sp, #32]
 4567 00fe 0995     		str	r5, [sp, #36]
 4568 0100 0A95     		str	r5, [sp, #40]
 4569 0102 0B95     		str	r5, [sp, #44]
 4570 0104 0C95     		str	r5, [sp, #48]
 4571 0106 0D95     		str	r5, [sp, #52]
 4572 0108 0E95     		str	r5, [sp, #56]
 4573 010a 0F95     		str	r5, [sp, #60]
 4574              		.loc 1 1311 0
 4575 010c FFF7FEFF 		bl	memcpy
 4576              	.LVL591:
 4577              		.loc 1 1314 0
 4578 0110 049A     		ldr	r2, [sp, #16]
 4579              		.loc 1 1319 0
 4580 0112 BAF1070F 		cmp	r10, #7
 4581              		.loc 1 1314 0
 4582 0116 4A44     		add	r2, r2, r9
 4583 0118 0192     		str	r2, [sp, #4]
 4584              	.LVL592:
 4585              		.loc 1 1319 0
 4586 011a 06D9     		bls	.L223
 4587 011c 2146     		mov	r1, r4
 4588 011e 08EB8A03 		add	r3, r8, r10, lsl #2
 4589              	.LVL593:
 4590              	.L222:
 4591              		.loc 1 1320 0
 4592 0122 41F8045B 		str	r5, [r1], #4
 4593              		.loc 1 1319 0
 4594 0126 9942     		cmp	r1, r3
 4595 0128 FBD1     		bne	.L222
 4596              	.L223:
 4597              		.loc 1 1323 0
 4598 012a 03AA     		add	r2, sp, #12
 4599 012c 6846     		mov	r0, sp
 4600 012e 6946     		mov	r1, sp
 4601 0130 FFF7FEFF 		bl	mpi_mul_mpi
 4602              	.LVL594:
 4603 0134 0028     		cmp	r0, #0
 4604 0136 A0D1     		bne	.L213
 4605              		.loc 1 1324 0
 4606 0138 6A46     		mov	r2, sp
 4607 013a 3046     		mov	r0, r6
 4608              	.LVL595:
 4609 013c 3146     		mov	r1, r6
 4610 013e FFF7FEFF 		bl	mpi_add_abs
ARM GAS  C:\Users\jo\AppData\Local\Temp\ccCDYYSi.s 			page 82


 4611              	.LVL596:
 4612 0142 9AE7     		b	.L213
 4613              	.L238:
 4614              		.align	2
 4615              	.L237:
 4616 0144 00000000 		.word	.LANCHOR2
 4617              	.LBE1298:
 4618              	.LBE1301:
 4619              		.cfi_endproc
 4620              	.LFE18:
 4621              		.size	ecp_mod_p224k1, .-ecp_mod_p224k1
 4622 0148 AFF30080 		.section	.text.ecp_use_known_dp,"ax",%progbits
 4622      AFF30080 
 4623              		.align	2
 4624              		.p2align 4,,15
 4625              		.global	ecp_use_known_dp
 4626              		.thumb
 4627              		.thumb_func
 4628              		.type	ecp_use_known_dp, %function
 4629              	ecp_use_known_dp:
 4630              	.LFB4:
 4631              		.loc 1 723 0
 4632              		.cfi_startproc
 4633              		@ args = 0, pretend = 0, frame = 0
 4634              		@ frame_needed = 0, uses_anonymous_args = 0
 4635              	.LVL597:
 4636 0000 2DE9F041 		push	{r4, r5, r6, r7, r8, lr}
 4637              		.cfi_def_cfa_offset 24
 4638              		.cfi_offset 4, -24
 4639              		.cfi_offset 5, -20
 4640              		.cfi_offset 6, -16
 4641              		.cfi_offset 7, -12
 4642              		.cfi_offset 8, -8
 4643              		.cfi_offset 14, -4
 4644              		.loc 1 723 0
 4645 0004 0D46     		mov	r5, r1
 4646 0006 0446     		mov	r4, r0
 4647              		.loc 1 724 0
 4648 0008 FFF7FEFF 		bl	ecp_group_free
 4649              	.LVL598:
 4650              		.loc 1 728 0
 4651 000c 6B1E     		subs	r3, r5, #1
 4652              		.loc 1 726 0
 4653 000e 2570     		strb	r5, [r4]
 4654              		.loc 1 728 0
 4655 0010 0E2B     		cmp	r3, #14
 4656 0012 00F20D81 		bhi	.L240
 4657 0016 DFE813F0 		tbh	[pc, r3, lsl #1]
 4658              	.L242:
 4659 001a 4000     		.2byte	(.L241-.L242)/2
 4660 001c 5A00     		.2byte	(.L243-.L242)/2
 4661 001e 7700     		.2byte	(.L244-.L242)/2
 4662 0020 8300     		.2byte	(.L245-.L242)/2
 4663 0022 8F00     		.2byte	(.L246-.L242)/2
 4664 0024 9B00     		.2byte	(.L247-.L242)/2
 4665 0026 B200     		.2byte	(.L248-.L242)/2
 4666 0028 BD00     		.2byte	(.L249-.L242)/2
ARM GAS  C:\Users\jo\AppData\Local\Temp\ccCDYYSi.s 			page 83


 4667 002a 0B01     		.2byte	(.L240-.L242)/2
 4668 002c C800     		.2byte	(.L250-.L242)/2
 4669 002e 0B01     		.2byte	(.L240-.L242)/2
 4670 0030 0B01     		.2byte	(.L240-.L242)/2
 4671 0032 D900     		.2byte	(.L251-.L242)/2
 4672 0034 E700     		.2byte	(.L252-.L242)/2
 4673 0036 0F00     		.2byte	(.L253-.L242)/2
 4674              		.p2align 1
 4675              	.L253:
 4676              		.loc 1 774 0
 4677 0038 9A4B     		ldr	r3, .L265
 4678              	.LBB1480:
 4679              	.LBB1481:
 4680              	.LBB1482:
 4681              	.LBB1483:
 4682              		.loc 1 589 0
 4683 003a DFF844C3 		ldr	ip, .L265+220
 4684              	.LBE1483:
 4685              	.LBE1482:
 4686              	.LBB1486:
 4687              	.LBB1487:
 4688 003e DFF844E3 		ldr	lr, .L265+224
 4689              	.LBE1487:
 4690              	.LBE1486:
 4691              	.LBB1489:
 4692              	.LBB1490:
 4693 0042 994F     		ldr	r7, .L265+4
 4694              	.LBE1490:
 4695              	.LBE1489:
 4696              	.LBB1492:
 4697              	.LBB1493:
 4698 0044 994E     		ldr	r6, .L265+8
 4699              	.LBE1493:
 4700              	.LBE1492:
 4701              	.LBB1495:
 4702              	.LBB1496:
 4703 0046 9A48     		ldr	r0, .L265+12
 4704              	.LBE1496:
 4705              	.LBE1495:
 4706              	.LBB1498:
 4707              	.LBB1499:
 4708 0048 9A49     		ldr	r1, .L265+16
 4709              	.LBE1499:
 4710              	.LBE1498:
 4711              	.LBB1501:
 4712              	.LBB1502:
 4713              		.loc 1 600 0
 4714 004a 9B4A     		ldr	r2, .L265+20
 4715              	.LBE1502:
 4716              	.LBE1501:
 4717              	.LBE1481:
 4718              	.LBE1480:
 4719              		.loc 1 774 0
 4720 004c 6366     		str	r3, [r4, #100]
 4721              	.LVL599:
 4722              	.LBB1513:
 4723              	.LBB1512:
ARM GAS  C:\Users\jo\AppData\Local\Temp\ccCDYYSi.s 			page 84


 4724              	.LBB1504:
 4725              	.LBB1484:
 4726              		.loc 1 587 0
 4727 004e 0125     		movs	r5, #1
 4728              		.loc 1 588 0
 4729 0050 0823     		movs	r3, #8
 4730              	.LVL600:
 4731              	.L263:
 4732              		.loc 1 587 0
 4733 0052 6560     		str	r5, [r4, #4]
 4734              	.LBE1484:
 4735              	.LBE1504:
 4736              	.LBB1505:
 4737              	.LBB1488:
 4738 0054 2561     		str	r5, [r4, #16]
 4739              		.loc 1 588 0
 4740 0056 6561     		str	r5, [r4, #20]
 4741              	.LBE1488:
 4742              	.LBE1505:
 4743              	.LBB1506:
 4744              	.LBB1491:
 4745              		.loc 1 587 0
 4746 0058 E561     		str	r5, [r4, #28]
 4747              		.loc 1 588 0
 4748 005a 2562     		str	r5, [r4, #32]
 4749              	.LBE1491:
 4750              	.LBE1506:
 4751              	.LBB1507:
 4752              	.LBB1494:
 4753              		.loc 1 587 0
 4754 005c E564     		str	r5, [r4, #76]
 4755              	.LBE1494:
 4756              	.LBE1507:
 4757              	.LBB1508:
 4758              	.LBB1497:
 4759 005e A562     		str	r5, [r4, #40]
 4760              	.LBE1497:
 4761              	.LBE1508:
 4762              	.LBB1509:
 4763              	.LBB1500:
 4764 0060 6563     		str	r5, [r4, #52]
 4765              	.LBE1500:
 4766              	.LBE1509:
 4767              	.LBB1510:
 4768              	.LBB1503:
 4769              		.loc 1 598 0
 4770 0062 2564     		str	r5, [r4, #64]
 4771              		.loc 1 599 0
 4772 0064 6564     		str	r5, [r4, #68]
 4773              	.LBE1503:
 4774              	.LBE1510:
 4775              	.LBB1511:
 4776              	.LBB1485:
 4777              		.loc 1 588 0
 4778 0066 A360     		str	r3, [r4, #8]
 4779              	.L261:
 4780              	.LBE1485:
ARM GAS  C:\Users\jo\AppData\Local\Temp\ccCDYYSi.s 			page 85


 4781              	.LBE1511:
 4782              	.LBE1512:
 4783              	.LBE1513:
 4784              	.LBB1514:
 4785              	.LBB1515:
 4786              	.LBB1516:
 4787              	.LBB1517:
 4788 0068 2365     		str	r3, [r4, #80]
 4789              	.LBE1517:
 4790              	.LBE1516:
 4791              	.LBB1520:
 4792              	.LBB1521:
 4793 006a E362     		str	r3, [r4, #44]
 4794              	.LBE1521:
 4795              	.LBE1520:
 4796              	.LBB1524:
 4797              	.LBB1525:
 4798 006c A363     		str	r3, [r4, #56]
 4799              	.LBE1525:
 4800              	.LBE1524:
 4801              	.LBB1528:
 4802              	.LBB1529:
 4803              		.loc 1 589 0
 4804 006e C4F80CC0 		str	ip, [r4, #12]
 4805              	.LVL601:
 4806              	.LBE1529:
 4807              	.LBE1528:
 4808              	.LBB1533:
 4809              	.LBB1534:
 4810 0072 C4F818E0 		str	lr, [r4, #24]
 4811              	.LVL602:
 4812              	.L258:
 4813              	.LBE1534:
 4814              	.LBE1533:
 4815              	.LBE1515:
 4816              	.LBE1514:
 4817              	.LBB1562:
 4818              	.LBB1563:
 4819              	.LBB1564:
 4820              	.LBB1565:
 4821 0076 6762     		str	r7, [r4, #36]
 4822              	.L259:
 4823              	.LVL603:
 4824              	.LBE1565:
 4825              	.LBE1564:
 4826              	.LBB1570:
 4827              	.LBB1571:
 4828 0078 2063     		str	r0, [r4, #48]
 4829              	.LBE1571:
 4830              	.LBE1570:
 4831              	.LBB1575:
 4832              	.LBB1576:
 4833 007a E163     		str	r1, [r4, #60]
 4834              	.LBE1576:
 4835              	.LBE1575:
 4836              	.LBB1580:
 4837              	.LBB1581:
ARM GAS  C:\Users\jo\AppData\Local\Temp\ccCDYYSi.s 			page 86


 4838              		.loc 1 600 0
 4839 007c A264     		str	r2, [r4, #72]
 4840              	.LBE1581:
 4841              	.LBE1580:
 4842              	.LBB1584:
 4843              	.LBB1585:
 4844              		.loc 1 589 0
 4845 007e 6665     		str	r6, [r4, #84]
 4846              	.LVL604:
 4847              	.LBE1585:
 4848              	.LBE1584:
 4849              		.loc 1 624 0
 4850 0080 201D     		adds	r0, r4, #4
 4851 0082 FFF7FEFF 		bl	mpi_msb
 4852              	.LVL605:
 4853 0086 A065     		str	r0, [r4, #88]
 4854              		.loc 1 625 0
 4855 0088 04F14C00 		add	r0, r4, #76
 4856              	.LVL606:
 4857 008c FFF7FEFF 		bl	mpi_msb
 4858              	.LVL607:
 4859              		.loc 1 627 0
 4860 0090 2566     		str	r5, [r4, #96]
 4861              		.loc 1 625 0
 4862 0092 E065     		str	r0, [r4, #92]
 4863              	.LBE1563:
 4864              	.LBE1562:
 4865              		.loc 1 739 0
 4866 0094 0020     		movs	r0, #0
 4867 0096 BDE8F081 		pop	{r4, r5, r6, r7, r8, pc}
 4868              	.LVL608:
 4869              	.L241:
 4870              		.loc 1 732 0
 4871 009a 884B     		ldr	r3, .L265+24
 4872              	.LBB1616:
 4873              	.LBB1617:
 4874              	.LBB1618:
 4875              	.LBB1619:
 4876              		.loc 1 589 0
 4877 009c DFF8E8E2 		ldr	lr, .L265+228
 4878              	.LBE1619:
 4879              	.LBE1618:
 4880              	.LBB1621:
 4881              	.LBB1622:
 4882 00a0 874F     		ldr	r7, .L265+28
 4883              	.LBE1622:
 4884              	.LBE1621:
 4885              	.LBB1623:
 4886              	.LBB1624:
 4887 00a2 884E     		ldr	r6, .L265+32
 4888              	.LBE1624:
 4889              	.LBE1623:
 4890              	.LBB1625:
 4891              	.LBB1626:
 4892 00a4 8848     		ldr	r0, .L265+36
 4893              	.LBE1626:
 4894              	.LBE1625:
ARM GAS  C:\Users\jo\AppData\Local\Temp\ccCDYYSi.s 			page 87


 4895              	.LBB1627:
 4896              	.LBB1628:
 4897 00a6 8949     		ldr	r1, .L265+40
 4898              	.LBE1628:
 4899              	.LBE1627:
 4900              	.LBB1629:
 4901              	.LBB1630:
 4902              		.loc 1 600 0
 4903 00a8 834A     		ldr	r2, .L265+20
 4904              	.LBE1630:
 4905              	.LBE1629:
 4906              	.LBE1617:
 4907              	.LBE1616:
 4908              		.loc 1 732 0
 4909 00aa 6366     		str	r3, [r4, #100]
 4910              	.LVL609:
 4911              	.LBB1633:
 4912              	.LBB1632:
 4913              	.LBB1631:
 4914              	.LBB1620:
 4915              		.loc 1 587 0
 4916 00ac 0125     		movs	r5, #1
 4917              		.loc 1 588 0
 4918 00ae 0623     		movs	r3, #6
 4919              	.LVL610:
 4920              	.L260:
 4921              	.LBE1620:
 4922              	.LBE1631:
 4923              	.LBE1632:
 4924              	.LBE1633:
 4925              	.LBB1634:
 4926              	.LBB1635:
 4927              	.LBB1636:
 4928              	.LBB1637:
 4929              		.loc 1 587 0
 4930 00b0 6560     		str	r5, [r4, #4]
 4931              	.LBE1637:
 4932              	.LBE1636:
 4933              	.LBB1642:
 4934              	.LBB1643:
 4935 00b2 E561     		str	r5, [r4, #28]
 4936              	.LBE1643:
 4937              	.LBE1642:
 4938              	.LBB1646:
 4939              	.LBB1647:
 4940 00b4 E564     		str	r5, [r4, #76]
 4941              	.LBE1647:
 4942              	.LBE1646:
 4943              	.LBB1650:
 4944              	.LBB1651:
 4945 00b6 A562     		str	r5, [r4, #40]
 4946              	.LBE1651:
 4947              	.LBE1650:
 4948              	.LBB1654:
 4949              	.LBB1655:
 4950 00b8 6563     		str	r5, [r4, #52]
 4951              	.LBE1655:
ARM GAS  C:\Users\jo\AppData\Local\Temp\ccCDYYSi.s 			page 88


 4952              	.LBE1654:
 4953              	.LBB1658:
 4954              	.LBB1659:
 4955              		.loc 1 598 0
 4956 00ba 2564     		str	r5, [r4, #64]
 4957              		.loc 1 599 0
 4958 00bc 6564     		str	r5, [r4, #68]
 4959              	.LBE1659:
 4960              	.LBE1658:
 4961              	.LBB1661:
 4962              	.LBB1638:
 4963              		.loc 1 588 0
 4964 00be A360     		str	r3, [r4, #8]
 4965              	.LBE1638:
 4966              	.LBE1661:
 4967              	.LBB1662:
 4968              	.LBB1644:
 4969 00c0 2362     		str	r3, [r4, #32]
 4970              	.LBE1644:
 4971              	.LBE1662:
 4972              	.LBB1663:
 4973              	.LBB1648:
 4974 00c2 2365     		str	r3, [r4, #80]
 4975              	.LBE1648:
 4976              	.LBE1663:
 4977              	.LBB1664:
 4978              	.LBB1652:
 4979 00c4 E362     		str	r3, [r4, #44]
 4980              	.LBE1652:
 4981              	.LBE1664:
 4982              	.LBB1665:
 4983              	.LBB1656:
 4984 00c6 A363     		str	r3, [r4, #56]
 4985              	.LBE1656:
 4986              	.LBE1665:
 4987              	.LBB1666:
 4988              	.LBB1639:
 4989              		.loc 1 589 0
 4990 00c8 C4F80CE0 		str	lr, [r4, #12]
 4991              	.LVL611:
 4992 00cc D3E7     		b	.L258
 4993              	.LVL612:
 4994              	.L243:
 4995              	.LBE1639:
 4996              	.LBE1666:
 4997              	.LBE1635:
 4998              	.LBE1634:
 4999              		.loc 1 738 0
 5000 00ce 804B     		ldr	r3, .L265+44
 5001              	.LBB1675:
 5002              	.LBB1614:
 5003              	.LBB1589:
 5004              	.LBB1590:
 5005              		.loc 1 589 0
 5006 00d0 DFF8B8E2 		ldr	lr, .L265+232
 5007              	.LBE1590:
 5008              	.LBE1589:
ARM GAS  C:\Users\jo\AppData\Local\Temp\ccCDYYSi.s 			page 89


 5009              	.LBE1614:
 5010              	.LBE1675:
 5011              		.loc 1 738 0
 5012 00d4 6366     		str	r3, [r4, #100]
 5013              	.LVL613:
 5014              	.LBB1676:
 5015              	.LBB1615:
 5016              	.LBB1595:
 5017              	.LBB1591:
 5018              		.loc 1 587 0
 5019 00d6 0125     		movs	r5, #1
 5020              	.LBE1591:
 5021              	.LBE1595:
 5022              	.LBB1596:
 5023              	.LBB1566:
 5024              		.loc 1 588 0
 5025 00d8 0723     		movs	r3, #7
 5026              	.LBE1566:
 5027              	.LBE1596:
 5028              	.LBB1597:
 5029              	.LBB1592:
 5030 00da 4FF0080C 		mov	ip, #8
 5031              	.LBE1592:
 5032              	.LBE1597:
 5033              	.LBB1598:
 5034              	.LBB1567:
 5035              		.loc 1 589 0
 5036 00de 7D4F     		ldr	r7, .L265+48
 5037              	.LBE1567:
 5038              	.LBE1598:
 5039              	.LBB1599:
 5040              	.LBB1586:
 5041 00e0 7D4E     		ldr	r6, .L265+52
 5042              	.LBE1586:
 5043              	.LBE1599:
 5044              	.LBB1600:
 5045              	.LBB1572:
 5046 00e2 7E48     		ldr	r0, .L265+56
 5047              	.LBE1572:
 5048              	.LBE1600:
 5049              	.LBB1601:
 5050              	.LBB1577:
 5051 00e4 7E49     		ldr	r1, .L265+60
 5052              	.LBE1577:
 5053              	.LBE1601:
 5054              	.LBB1602:
 5055              	.LBB1582:
 5056              		.loc 1 600 0
 5057 00e6 744A     		ldr	r2, .L265+20
 5058              	.LBE1582:
 5059              	.LBE1602:
 5060              	.LBB1603:
 5061              	.LBB1593:
 5062              		.loc 1 587 0
 5063 00e8 6560     		str	r5, [r4, #4]
 5064              	.LBE1593:
 5065              	.LBE1603:
ARM GAS  C:\Users\jo\AppData\Local\Temp\ccCDYYSi.s 			page 90


 5066              	.LBB1604:
 5067              	.LBB1568:
 5068 00ea E561     		str	r5, [r4, #28]
 5069              	.LBE1568:
 5070              	.LBE1604:
 5071              	.LBB1605:
 5072              	.LBB1587:
 5073 00ec E564     		str	r5, [r4, #76]
 5074              	.LBE1587:
 5075              	.LBE1605:
 5076              	.LBB1606:
 5077              	.LBB1573:
 5078 00ee A562     		str	r5, [r4, #40]
 5079              	.LBE1573:
 5080              	.LBE1606:
 5081              	.LBB1607:
 5082              	.LBB1578:
 5083 00f0 6563     		str	r5, [r4, #52]
 5084              	.LBE1578:
 5085              	.LBE1607:
 5086              	.LBB1608:
 5087              	.LBB1583:
 5088              		.loc 1 598 0
 5089 00f2 2564     		str	r5, [r4, #64]
 5090              		.loc 1 599 0
 5091 00f4 6564     		str	r5, [r4, #68]
 5092              	.LBE1583:
 5093              	.LBE1608:
 5094              	.LBB1609:
 5095              	.LBB1594:
 5096              		.loc 1 588 0
 5097 00f6 C4F808C0 		str	ip, [r4, #8]
 5098              		.loc 1 589 0
 5099 00fa C4F80CE0 		str	lr, [r4, #12]
 5100              	.LVL614:
 5101              	.LBE1594:
 5102              	.LBE1609:
 5103              	.LBB1610:
 5104              	.LBB1569:
 5105              		.loc 1 588 0
 5106 00fe 2362     		str	r3, [r4, #32]
 5107              	.LBE1569:
 5108              	.LBE1610:
 5109              	.LBB1611:
 5110              	.LBB1588:
 5111 0100 2365     		str	r3, [r4, #80]
 5112              	.LBE1588:
 5113              	.LBE1611:
 5114              	.LBB1612:
 5115              	.LBB1574:
 5116 0102 E362     		str	r3, [r4, #44]
 5117              	.LBE1574:
 5118              	.LBE1612:
 5119              	.LBB1613:
 5120              	.LBB1579:
 5121 0104 A363     		str	r3, [r4, #56]
 5122 0106 B6E7     		b	.L258
ARM GAS  C:\Users\jo\AppData\Local\Temp\ccCDYYSi.s 			page 91


 5123              	.LVL615:
 5124              	.L244:
 5125              	.LBE1579:
 5126              	.LBE1613:
 5127              	.LBE1615:
 5128              	.LBE1676:
 5129              		.loc 1 744 0
 5130 0108 764B     		ldr	r3, .L265+64
 5131 010a 6366     		str	r3, [r4, #100]
 5132              	.LVL616:
 5133              	.LBB1677:
 5134              	.LBB1674:
 5135              	.LBB1667:
 5136              	.LBB1640:
 5137              		.loc 1 589 0
 5138 010c DFF880E2 		ldr	lr, .L265+236
 5139              	.LBE1640:
 5140              	.LBE1667:
 5141              	.LBB1668:
 5142              	.LBB1645:
 5143 0110 754F     		ldr	r7, .L265+68
 5144              	.LBE1645:
 5145              	.LBE1668:
 5146              	.LBB1669:
 5147              	.LBB1649:
 5148 0112 764E     		ldr	r6, .L265+72
 5149              	.LBE1649:
 5150              	.LBE1669:
 5151              	.LBB1670:
 5152              	.LBB1653:
 5153 0114 7648     		ldr	r0, .L265+76
 5154              	.LBE1653:
 5155              	.LBE1670:
 5156              	.LBB1671:
 5157              	.LBB1657:
 5158 0116 7749     		ldr	r1, .L265+80
 5159              	.LBE1657:
 5160              	.LBE1671:
 5161              	.LBB1672:
 5162              	.LBB1660:
 5163              		.loc 1 600 0
 5164 0118 674A     		ldr	r2, .L265+20
 5165              	.LBE1660:
 5166              	.LBE1672:
 5167              	.LBB1673:
 5168              	.LBB1641:
 5169              		.loc 1 587 0
 5170 011a 0125     		movs	r5, #1
 5171              		.loc 1 588 0
 5172 011c 0823     		movs	r3, #8
 5173 011e C7E7     		b	.L260
 5174              	.LVL617:
 5175              	.L245:
 5176              	.LBE1641:
 5177              	.LBE1673:
 5178              	.LBE1674:
 5179              	.LBE1677:
ARM GAS  C:\Users\jo\AppData\Local\Temp\ccCDYYSi.s 			page 92


 5180              		.loc 1 750 0
 5181 0120 754B     		ldr	r3, .L265+84
 5182 0122 6366     		str	r3, [r4, #100]
 5183              	.LVL618:
 5184              	.LBB1678:
 5185              	.LBB1679:
 5186              	.LBB1680:
 5187              	.LBB1681:
 5188              		.loc 1 589 0
 5189 0124 DFF86CE2 		ldr	lr, .L265+240
 5190              	.LBE1681:
 5191              	.LBE1680:
 5192              	.LBB1683:
 5193              	.LBB1684:
 5194 0128 744F     		ldr	r7, .L265+88
 5195              	.LBE1684:
 5196              	.LBE1683:
 5197              	.LBB1685:
 5198              	.LBB1686:
 5199 012a 754E     		ldr	r6, .L265+92
 5200              	.LBE1686:
 5201              	.LBE1685:
 5202              	.LBB1687:
 5203              	.LBB1688:
 5204 012c 7548     		ldr	r0, .L265+96
 5205              	.LBE1688:
 5206              	.LBE1687:
 5207              	.LBB1689:
 5208              	.LBB1690:
 5209 012e 7649     		ldr	r1, .L265+100
 5210              	.LBE1690:
 5211              	.LBE1689:
 5212              	.LBB1691:
 5213              	.LBB1692:
 5214              		.loc 1 600 0
 5215 0130 614A     		ldr	r2, .L265+20
 5216              	.LBE1692:
 5217              	.LBE1691:
 5218              	.LBB1693:
 5219              	.LBB1682:
 5220              		.loc 1 587 0
 5221 0132 0125     		movs	r5, #1
 5222              		.loc 1 588 0
 5223 0134 0C23     		movs	r3, #12
 5224 0136 BBE7     		b	.L260
 5225              	.LVL619:
 5226              	.L246:
 5227              	.LBE1682:
 5228              	.LBE1693:
 5229              	.LBE1679:
 5230              	.LBE1678:
 5231              		.loc 1 756 0
 5232 0138 744B     		ldr	r3, .L265+104
 5233 013a 6366     		str	r3, [r4, #100]
 5234              	.LVL620:
 5235              	.LBB1694:
 5236              	.LBB1695:
ARM GAS  C:\Users\jo\AppData\Local\Temp\ccCDYYSi.s 			page 93


 5237              	.LBB1696:
 5238              	.LBB1697:
 5239              		.loc 1 589 0
 5240 013c DFF858E2 		ldr	lr, .L265+244
 5241              	.LBE1697:
 5242              	.LBE1696:
 5243              	.LBB1699:
 5244              	.LBB1700:
 5245 0140 734F     		ldr	r7, .L265+108
 5246              	.LBE1700:
 5247              	.LBE1699:
 5248              	.LBB1701:
 5249              	.LBB1702:
 5250 0142 744E     		ldr	r6, .L265+112
 5251              	.LBE1702:
 5252              	.LBE1701:
 5253              	.LBB1703:
 5254              	.LBB1704:
 5255 0144 7448     		ldr	r0, .L265+116
 5256              	.LBE1704:
 5257              	.LBE1703:
 5258              	.LBB1705:
 5259              	.LBB1706:
 5260 0146 7549     		ldr	r1, .L265+120
 5261              	.LBE1706:
 5262              	.LBE1705:
 5263              	.LBB1707:
 5264              	.LBB1708:
 5265              		.loc 1 600 0
 5266 0148 5B4A     		ldr	r2, .L265+20
 5267              	.LBE1708:
 5268              	.LBE1707:
 5269              	.LBB1709:
 5270              	.LBB1698:
 5271              		.loc 1 587 0
 5272 014a 0125     		movs	r5, #1
 5273              		.loc 1 588 0
 5274 014c 1123     		movs	r3, #17
 5275 014e AFE7     		b	.L260
 5276              	.LVL621:
 5277              	.L247:
 5278              	.LBE1698:
 5279              	.LBE1709:
 5280              	.LBE1695:
 5281              	.LBE1694:
 5282              	.LBB1710:
 5283              	.LBB1711:
 5284              	.LBB1712:
 5285              	.LBB1713:
 5286              		.loc 1 589 0
 5287 0150 DFF848C2 		ldr	ip, .L265+248
 5288              	.LBE1713:
 5289              	.LBE1712:
 5290              	.LBB1715:
 5291              	.LBB1716:
 5292 0154 DFF848E2 		ldr	lr, .L265+252
 5293              	.LBE1716:
ARM GAS  C:\Users\jo\AppData\Local\Temp\ccCDYYSi.s 			page 94


 5294              	.LBE1715:
 5295              	.LBB1717:
 5296              	.LBB1718:
 5297 0158 714F     		ldr	r7, .L265+124
 5298              	.LBE1718:
 5299              	.LBE1717:
 5300              	.LBB1719:
 5301              	.LBB1720:
 5302 015a 724E     		ldr	r6, .L265+128
 5303              	.LBE1720:
 5304              	.LBE1719:
 5305              	.LBB1721:
 5306              	.LBB1722:
 5307 015c 7248     		ldr	r0, .L265+132
 5308              	.LBE1722:
 5309              	.LBE1721:
 5310              	.LBB1723:
 5311              	.LBB1724:
 5312 015e 7349     		ldr	r1, .L265+136
 5313              	.LBE1724:
 5314              	.LBE1723:
 5315              	.LBB1725:
 5316              	.LBB1714:
 5317              		.loc 1 587 0
 5318 0160 0125     		movs	r5, #1
 5319              		.loc 1 588 0
 5320 0162 0823     		movs	r3, #8
 5321              	.LVL622:
 5322              	.L262:
 5323              	.LBE1714:
 5324              	.LBE1725:
 5325              	.LBE1711:
 5326              	.LBE1710:
 5327              	.LBB1726:
 5328              	.LBB1560:
 5329              	.LBB1538:
 5330              	.LBB1539:
 5331              		.loc 1 600 0
 5332 0164 544A     		ldr	r2, .L265+20
 5333              	.LBE1539:
 5334              	.LBE1538:
 5335              	.LBB1541:
 5336              	.LBB1530:
 5337              		.loc 1 587 0
 5338 0166 6560     		str	r5, [r4, #4]
 5339              	.LBE1530:
 5340              	.LBE1541:
 5341              	.LBB1542:
 5342              	.LBB1535:
 5343 0168 2561     		str	r5, [r4, #16]
 5344              	.LBE1535:
 5345              	.LBE1542:
 5346              	.LBB1543:
 5347              	.LBB1544:
 5348 016a E561     		str	r5, [r4, #28]
 5349              	.LBE1544:
 5350              	.LBE1543:
ARM GAS  C:\Users\jo\AppData\Local\Temp\ccCDYYSi.s 			page 95


 5351              	.LBB1547:
 5352              	.LBB1518:
 5353 016c E564     		str	r5, [r4, #76]
 5354              	.LBE1518:
 5355              	.LBE1547:
 5356              	.LBB1548:
 5357              	.LBB1522:
 5358 016e A562     		str	r5, [r4, #40]
 5359              	.LBE1522:
 5360              	.LBE1548:
 5361              	.LBB1549:
 5362              	.LBB1526:
 5363 0170 6563     		str	r5, [r4, #52]
 5364              	.LBE1526:
 5365              	.LBE1549:
 5366              	.LBB1550:
 5367              	.LBB1540:
 5368              		.loc 1 598 0
 5369 0172 2564     		str	r5, [r4, #64]
 5370              		.loc 1 599 0
 5371 0174 6564     		str	r5, [r4, #68]
 5372              	.LBE1540:
 5373              	.LBE1550:
 5374              	.LBB1551:
 5375              	.LBB1531:
 5376              		.loc 1 588 0
 5377 0176 A360     		str	r3, [r4, #8]
 5378              	.LBE1531:
 5379              	.LBE1551:
 5380              	.LBB1552:
 5381              	.LBB1536:
 5382 0178 6361     		str	r3, [r4, #20]
 5383              	.LBE1536:
 5384              	.LBE1552:
 5385              	.LBB1553:
 5386              	.LBB1545:
 5387 017a 2362     		str	r3, [r4, #32]
 5388 017c 74E7     		b	.L261
 5389              	.L248:
 5390              	.LVL623:
 5391              	.LBE1545:
 5392              	.LBE1553:
 5393              	.LBE1560:
 5394              	.LBE1726:
 5395              	.LBB1727:
 5396              	.LBB1728:
 5397              	.LBB1729:
 5398              	.LBB1730:
 5399              		.loc 1 587 0
 5400 017e 0125     		movs	r5, #1
 5401              		.loc 1 588 0
 5402 0180 0C23     		movs	r3, #12
 5403              		.loc 1 589 0
 5404 0182 DFF820C2 		ldr	ip, .L265+256
 5405              	.LBE1730:
 5406              	.LBE1729:
 5407              	.LBB1731:
ARM GAS  C:\Users\jo\AppData\Local\Temp\ccCDYYSi.s 			page 96


 5408              	.LBB1732:
 5409 0186 DFF820E2 		ldr	lr, .L265+260
 5410              	.LBE1732:
 5411              	.LBE1731:
 5412              	.LBB1733:
 5413              	.LBB1734:
 5414 018a 694F     		ldr	r7, .L265+140
 5415              	.LBE1734:
 5416              	.LBE1733:
 5417              	.LBB1735:
 5418              	.LBB1736:
 5419 018c 694E     		ldr	r6, .L265+144
 5420              	.LBE1736:
 5421              	.LBE1735:
 5422              	.LBB1737:
 5423              	.LBB1738:
 5424 018e 6A48     		ldr	r0, .L265+148
 5425              	.LBE1738:
 5426              	.LBE1737:
 5427              	.LBB1739:
 5428              	.LBB1740:
 5429 0190 6A49     		ldr	r1, .L265+152
 5430 0192 E7E7     		b	.L262
 5431              	.LVL624:
 5432              	.L249:
 5433              	.LBE1740:
 5434              	.LBE1739:
 5435              	.LBE1728:
 5436              	.LBE1727:
 5437              	.LBB1741:
 5438              	.LBB1561:
 5439              	.LBB1554:
 5440              	.LBB1532:
 5441              		.loc 1 587 0
 5442 0194 0125     		movs	r5, #1
 5443              		.loc 1 588 0
 5444 0196 1023     		movs	r3, #16
 5445              		.loc 1 589 0
 5446 0198 DFF810C2 		ldr	ip, .L265+264
 5447              	.LBE1532:
 5448              	.LBE1554:
 5449              	.LBB1555:
 5450              	.LBB1537:
 5451 019c DFF810E2 		ldr	lr, .L265+268
 5452              	.LBE1537:
 5453              	.LBE1555:
 5454              	.LBB1556:
 5455              	.LBB1546:
 5456 01a0 674F     		ldr	r7, .L265+156
 5457              	.LBE1546:
 5458              	.LBE1556:
 5459              	.LBB1557:
 5460              	.LBB1519:
 5461 01a2 684E     		ldr	r6, .L265+160
 5462              	.LBE1519:
 5463              	.LBE1557:
 5464              	.LBB1558:
ARM GAS  C:\Users\jo\AppData\Local\Temp\ccCDYYSi.s 			page 97


 5465              	.LBB1523:
 5466 01a4 6848     		ldr	r0, .L265+164
 5467              	.LBE1523:
 5468              	.LBE1558:
 5469              	.LBB1559:
 5470              	.LBB1527:
 5471 01a6 6949     		ldr	r1, .L265+168
 5472 01a8 DCE7     		b	.L262
 5473              	.LVL625:
 5474              	.L250:
 5475              	.LBE1527:
 5476              	.LBE1559:
 5477              	.LBE1561:
 5478              	.LBE1741:
 5479              		.loc 1 795 0
 5480 01aa 694B     		ldr	r3, .L265+172
 5481 01ac 6366     		str	r3, [r4, #100]
 5482              	.LVL626:
 5483              	.LBB1742:
 5484              	.LBB1743:
 5485              		.loc 1 694 0
 5486 01ae 04F11000 		add	r0, r4, #16
 5487 01b2 1021     		movs	r1, #16
 5488 01b4 674A     		ldr	r2, .L265+176
 5489 01b6 FFF7FEFF 		bl	mpi_read_string
 5490              	.LVL627:
 5491 01ba 0546     		mov	r5, r0
 5492 01bc 0028     		cmp	r0, #0
 5493 01be 3DD0     		beq	.L264
 5494              	.L255:
 5495              		.loc 1 713 0
 5496 01c0 2046     		mov	r0, r4
 5497              	.LVL628:
 5498 01c2 FFF7FEFF 		bl	ecp_group_free
 5499              	.LVL629:
 5500 01c6 2846     		mov	r0, r5
 5501              	.LBE1743:
 5502              	.LBE1742:
 5503              		.loc 1 803 0
 5504 01c8 BDE8F081 		pop	{r4, r5, r6, r7, r8, pc}
 5505              	.LVL630:
 5506              	.L251:
 5507              		.loc 1 762 0
 5508 01cc 624B     		ldr	r3, .L265+180
 5509 01ce 6366     		str	r3, [r4, #100]
 5510              	.LVL631:
 5511              	.LBB1745:
 5512              	.LBB1746:
 5513              	.LBB1747:
 5514              	.LBB1748:
 5515              		.loc 1 589 0
 5516 01d0 DFF8E0C1 		ldr	ip, .L265+272
 5517              	.LBE1748:
 5518              	.LBE1747:
 5519              	.LBB1750:
 5520              	.LBB1751:
 5521 01d4 DFF8E0E1 		ldr	lr, .L265+276
ARM GAS  C:\Users\jo\AppData\Local\Temp\ccCDYYSi.s 			page 98


 5522              	.LBE1751:
 5523              	.LBE1750:
 5524              	.LBB1752:
 5525              	.LBB1753:
 5526 01d8 604F     		ldr	r7, .L265+184
 5527              	.LBE1753:
 5528              	.LBE1752:
 5529              	.LBB1754:
 5530              	.LBB1755:
 5531 01da 614E     		ldr	r6, .L265+188
 5532              	.LBE1755:
 5533              	.LBE1754:
 5534              	.LBB1756:
 5535              	.LBB1757:
 5536 01dc 6148     		ldr	r0, .L265+192
 5537              	.LBE1757:
 5538              	.LBE1756:
 5539              	.LBB1758:
 5540              	.LBB1759:
 5541 01de 6249     		ldr	r1, .L265+196
 5542              	.LBE1759:
 5543              	.LBE1758:
 5544              	.LBB1760:
 5545              	.LBB1761:
 5546              		.loc 1 600 0
 5547 01e0 354A     		ldr	r2, .L265+20
 5548              	.LBE1761:
 5549              	.LBE1760:
 5550              	.LBB1762:
 5551              	.LBB1749:
 5552              		.loc 1 587 0
 5553 01e2 0125     		movs	r5, #1
 5554              		.loc 1 588 0
 5555 01e4 0623     		movs	r3, #6
 5556 01e6 34E7     		b	.L263
 5557              	.LVL632:
 5558              	.L252:
 5559              	.LBE1749:
 5560              	.LBE1762:
 5561              	.LBE1746:
 5562              	.LBE1745:
 5563              		.loc 1 768 0
 5564 01e8 604B     		ldr	r3, .L265+200
 5565              	.LBB1763:
 5566              	.LBB1764:
 5567              	.LBB1765:
 5568              	.LBB1766:
 5569              		.loc 1 589 0
 5570 01ea DFF8D081 		ldr	r8, .L265+280
 5571              	.LBE1766:
 5572              	.LBE1765:
 5573              	.LBB1771:
 5574              	.LBB1772:
 5575 01ee DFF8D0C1 		ldr	ip, .L265+284
 5576              	.LBE1772:
 5577              	.LBE1771:
 5578              	.LBB1775:
ARM GAS  C:\Users\jo\AppData\Local\Temp\ccCDYYSi.s 			page 99


 5579              	.LBB1776:
 5580 01f2 DFF8D0E1 		ldr	lr, .L265+288
 5581              	.LBE1776:
 5582              	.LBE1775:
 5583              	.LBE1764:
 5584              	.LBE1763:
 5585              		.loc 1 768 0
 5586 01f6 6366     		str	r3, [r4, #100]
 5587              	.LVL633:
 5588              	.LBB1810:
 5589              	.LBB1809:
 5590              	.LBB1779:
 5591              	.LBB1767:
 5592              		.loc 1 587 0
 5593 01f8 0125     		movs	r5, #1
 5594              		.loc 1 588 0
 5595 01fa 0723     		movs	r3, #7
 5596              	.LBE1767:
 5597              	.LBE1779:
 5598              	.LBB1780:
 5599              	.LBB1781:
 5600 01fc 0827     		movs	r7, #8
 5601              		.loc 1 589 0
 5602 01fe 5C4E     		ldr	r6, .L265+204
 5603              	.LBE1781:
 5604              	.LBE1780:
 5605              	.LBB1784:
 5606              	.LBB1785:
 5607 0200 5C48     		ldr	r0, .L265+208
 5608              	.LBE1785:
 5609              	.LBE1784:
 5610              	.LBB1788:
 5611              	.LBB1789:
 5612 0202 5D49     		ldr	r1, .L265+212
 5613              	.LBE1789:
 5614              	.LBE1788:
 5615              	.LBB1792:
 5616              	.LBB1793:
 5617              		.loc 1 600 0
 5618 0204 2C4A     		ldr	r2, .L265+20
 5619              	.LBE1793:
 5620              	.LBE1792:
 5621              	.LBB1795:
 5622              	.LBB1768:
 5623              		.loc 1 587 0
 5624 0206 6560     		str	r5, [r4, #4]
 5625              	.LBE1768:
 5626              	.LBE1795:
 5627              	.LBB1796:
 5628              	.LBB1773:
 5629 0208 2561     		str	r5, [r4, #16]
 5630              		.loc 1 588 0
 5631 020a 6561     		str	r5, [r4, #20]
 5632              	.LBE1773:
 5633              	.LBE1796:
 5634              	.LBB1797:
 5635              	.LBB1777:
ARM GAS  C:\Users\jo\AppData\Local\Temp\ccCDYYSi.s 			page 100


 5636              		.loc 1 587 0
 5637 020c E561     		str	r5, [r4, #28]
 5638              		.loc 1 588 0
 5639 020e 2562     		str	r5, [r4, #32]
 5640              	.LBE1777:
 5641              	.LBE1797:
 5642              	.LBB1798:
 5643              	.LBB1782:
 5644              		.loc 1 587 0
 5645 0210 E564     		str	r5, [r4, #76]
 5646              	.LBE1782:
 5647              	.LBE1798:
 5648              	.LBB1799:
 5649              	.LBB1786:
 5650 0212 A562     		str	r5, [r4, #40]
 5651              	.LBE1786:
 5652              	.LBE1799:
 5653              	.LBB1800:
 5654              	.LBB1790:
 5655 0214 6563     		str	r5, [r4, #52]
 5656              	.LBE1790:
 5657              	.LBE1800:
 5658              	.LBB1801:
 5659              	.LBB1794:
 5660              		.loc 1 598 0
 5661 0216 2564     		str	r5, [r4, #64]
 5662              		.loc 1 599 0
 5663 0218 6564     		str	r5, [r4, #68]
 5664              	.LBE1794:
 5665              	.LBE1801:
 5666              	.LBB1802:
 5667              	.LBB1769:
 5668              		.loc 1 588 0
 5669 021a A360     		str	r3, [r4, #8]
 5670              	.LBE1769:
 5671              	.LBE1802:
 5672              	.LBB1803:
 5673              	.LBB1787:
 5674 021c E362     		str	r3, [r4, #44]
 5675              	.LBE1787:
 5676              	.LBE1803:
 5677              	.LBB1804:
 5678              	.LBB1791:
 5679 021e A363     		str	r3, [r4, #56]
 5680              	.LBE1791:
 5681              	.LBE1804:
 5682              	.LBB1805:
 5683              	.LBB1770:
 5684              		.loc 1 589 0
 5685 0220 C4F80C80 		str	r8, [r4, #12]
 5686              	.LVL634:
 5687              	.LBE1770:
 5688              	.LBE1805:
 5689              	.LBB1806:
 5690              	.LBB1774:
 5691 0224 C4F818C0 		str	ip, [r4, #24]
 5692              	.LVL635:
ARM GAS  C:\Users\jo\AppData\Local\Temp\ccCDYYSi.s 			page 101


 5693              	.LBE1774:
 5694              	.LBE1806:
 5695              	.LBB1807:
 5696              	.LBB1778:
 5697 0228 C4F824E0 		str	lr, [r4, #36]
 5698              	.LVL636:
 5699              	.LBE1778:
 5700              	.LBE1807:
 5701              	.LBB1808:
 5702              	.LBB1783:
 5703              		.loc 1 588 0
 5704 022c 2765     		str	r7, [r4, #80]
 5705 022e 23E7     		b	.L259
 5706              	.LVL637:
 5707              	.L240:
 5708              	.LBE1783:
 5709              	.LBE1808:
 5710              	.LBE1809:
 5711              	.LBE1810:
 5712              		.loc 1 800 0
 5713 0230 2046     		mov	r0, r4
 5714 0232 FFF7FEFF 		bl	ecp_group_free
 5715              	.LVL638:
 5716              		.loc 1 801 0
 5717 0236 5148     		ldr	r0, .L265+216
 5718 0238 BDE8F081 		pop	{r4, r5, r6, r7, r8, pc}
 5719              	.LVL639:
 5720              	.L264:
 5721              	.LBB1811:
 5722              	.LBB1744:
 5723              		.loc 1 697 0
 5724 023c 261D     		adds	r6, r4, #4
 5725 023e 3046     		mov	r0, r6
 5726              	.LVL640:
 5727 0240 0121     		movs	r1, #1
 5728 0242 FFF7FEFF 		bl	mpi_lset
 5729              	.LVL641:
 5730 0246 0546     		mov	r5, r0
 5731 0248 0028     		cmp	r0, #0
 5732 024a B9D1     		bne	.L255
 5733              		.loc 1 698 0
 5734 024c 3046     		mov	r0, r6
 5735              	.LVL642:
 5736 024e FF21     		movs	r1, #255
 5737 0250 FFF7FEFF 		bl	mpi_shift_l
 5738              	.LVL643:
 5739 0254 0546     		mov	r5, r0
 5740 0256 0028     		cmp	r0, #0
 5741 0258 B2D1     		bne	.L255
 5742              		.loc 1 699 0
 5743 025a 3046     		mov	r0, r6
 5744              	.LVL644:
 5745 025c 3146     		mov	r1, r6
 5746 025e 1322     		movs	r2, #19
 5747 0260 FFF7FEFF 		bl	mpi_sub_int
 5748              	.LVL645:
 5749 0264 0546     		mov	r5, r0
ARM GAS  C:\Users\jo\AppData\Local\Temp\ccCDYYSi.s 			page 102


 5750 0266 0028     		cmp	r0, #0
 5751 0268 AAD1     		bne	.L255
 5752              		.loc 1 700 0
 5753 026a 3046     		mov	r0, r6
 5754              	.LVL646:
 5755 026c FFF7FEFF 		bl	mpi_msb
 5756              	.LVL647:
 5757              		.loc 1 704 0
 5758 0270 0921     		movs	r1, #9
 5759              		.loc 1 700 0
 5760 0272 A065     		str	r0, [r4, #88]
 5761              		.loc 1 704 0
 5762 0274 04F12800 		add	r0, r4, #40
 5763 0278 FFF7FEFF 		bl	mpi_lset
 5764              	.LVL648:
 5765 027c 0546     		mov	r5, r0
 5766 027e 0028     		cmp	r0, #0
 5767 0280 9ED1     		bne	.L255
 5768              		.loc 1 705 0
 5769 0282 04F14000 		add	r0, r4, #64
 5770              	.LVL649:
 5771 0286 0121     		movs	r1, #1
 5772 0288 FFF7FEFF 		bl	mpi_lset
 5773              	.LVL650:
 5774 028c 0546     		mov	r5, r0
 5775 028e 0028     		cmp	r0, #0
 5776 0290 96D1     		bne	.L255
 5777              		.loc 1 706 0
 5778 0292 04F13400 		add	r0, r4, #52
 5779              	.LVL651:
 5780 0296 FFF7FEFF 		bl	mpi_free
 5781              	.LVL652:
 5782              		.loc 1 709 0
 5783 029a FE23     		movs	r3, #254
 5784 029c 2846     		mov	r0, r5
 5785 029e E365     		str	r3, [r4, #92]
 5786              	.LVL653:
 5787 02a0 BDE8F081 		pop	{r4, r5, r6, r7, r8, pc}
 5788              	.LVL654:
 5789              	.L266:
 5790              		.align	2
 5791              	.L265:
 5792 02a4 00000000 		.word	ecp_mod_p256k1
 5793 02a8 00000000 		.word	.LANCHOR43
 5794 02ac 00000000 		.word	.LANCHOR44
 5795 02b0 00000000 		.word	.LANCHOR45
 5796 02b4 00000000 		.word	.LANCHOR46
 5797 02b8 00000000 		.word	.LANCHOR8
 5798 02bc 00000000 		.word	ecp_mod_p192
 5799 02c0 00000000 		.word	.LANCHOR4
 5800 02c4 00000000 		.word	.LANCHOR5
 5801 02c8 00000000 		.word	.LANCHOR6
 5802 02cc 00000000 		.word	.LANCHOR7
 5803 02d0 00000000 		.word	ecp_mod_p224
 5804 02d4 00000000 		.word	.LANCHOR10
 5805 02d8 00000000 		.word	.LANCHOR11
 5806 02dc 00000000 		.word	.LANCHOR12
ARM GAS  C:\Users\jo\AppData\Local\Temp\ccCDYYSi.s 			page 103


 5807 02e0 00000000 		.word	.LANCHOR13
 5808 02e4 00000000 		.word	ecp_mod_p256
 5809 02e8 00000000 		.word	.LANCHOR15
 5810 02ec 00000000 		.word	.LANCHOR16
 5811 02f0 00000000 		.word	.LANCHOR17
 5812 02f4 00000000 		.word	.LANCHOR18
 5813 02f8 00000000 		.word	ecp_mod_p384
 5814 02fc 00000000 		.word	.LANCHOR20
 5815 0300 00000000 		.word	.LANCHOR21
 5816 0304 00000000 		.word	.LANCHOR22
 5817 0308 00000000 		.word	.LANCHOR23
 5818 030c 00000000 		.word	ecp_mod_p521
 5819 0310 00000000 		.word	.LANCHOR25
 5820 0314 00000000 		.word	.LANCHOR26
 5821 0318 00000000 		.word	.LANCHOR27
 5822 031c 00000000 		.word	.LANCHOR28
 5823 0320 00000000 		.word	.LANCHOR49
 5824 0324 00000000 		.word	.LANCHOR50
 5825 0328 00000000 		.word	.LANCHOR51
 5826 032c 00000000 		.word	.LANCHOR52
 5827 0330 00000000 		.word	.LANCHOR55
 5828 0334 00000000 		.word	.LANCHOR56
 5829 0338 00000000 		.word	.LANCHOR57
 5830 033c 00000000 		.word	.LANCHOR58
 5831 0340 00000000 		.word	.LANCHOR61
 5832 0344 00000000 		.word	.LANCHOR62
 5833 0348 00000000 		.word	.LANCHOR63
 5834 034c 00000000 		.word	.LANCHOR64
 5835 0350 00000000 		.word	ecp_mod_p255
 5836 0354 00000000 		.word	.LC0
 5837 0358 00000000 		.word	ecp_mod_p192k1
 5838 035c 00000000 		.word	.LANCHOR31
 5839 0360 00000000 		.word	.LANCHOR32
 5840 0364 00000000 		.word	.LANCHOR33
 5841 0368 00000000 		.word	.LANCHOR34
 5842 036c 00000000 		.word	ecp_mod_p224k1
 5843 0370 00000000 		.word	.LANCHOR38
 5844 0374 00000000 		.word	.LANCHOR39
 5845 0378 00000000 		.word	.LANCHOR40
 5846 037c 80B1FFFF 		.word	-20096
 5847 0380 00000000 		.word	.LANCHOR41
 5848 0384 00000000 		.word	.LANCHOR42
 5849 0388 00000000 		.word	.LANCHOR3
 5850 038c 00000000 		.word	.LANCHOR9
 5851 0390 00000000 		.word	.LANCHOR14
 5852 0394 00000000 		.word	.LANCHOR19
 5853 0398 00000000 		.word	.LANCHOR24
 5854 039c 00000000 		.word	.LANCHOR47
 5855 03a0 00000000 		.word	.LANCHOR48
 5856 03a4 00000000 		.word	.LANCHOR53
 5857 03a8 00000000 		.word	.LANCHOR54
 5858 03ac 00000000 		.word	.LANCHOR59
 5859 03b0 00000000 		.word	.LANCHOR60
 5860 03b4 00000000 		.word	.LANCHOR29
 5861 03b8 00000000 		.word	.LANCHOR30
 5862 03bc 00000000 		.word	.LANCHOR35
 5863 03c0 00000000 		.word	.LANCHOR36
ARM GAS  C:\Users\jo\AppData\Local\Temp\ccCDYYSi.s 			page 104


 5864 03c4 00000000 		.word	.LANCHOR37
 5865              	.LBE1744:
 5866              	.LBE1811:
 5867              		.cfi_endproc
 5868              	.LFE4:
 5869              		.size	ecp_use_known_dp, .-ecp_use_known_dp
 5870 03c8 AFF30080 		.section	.rodata.secp192r1_n,"a",%progbits
 5870      AFF30080 
 5871              		.align	2
 5872              		.set	.LANCHOR5,. + 0
 5873              		.type	secp192r1_n, %object
 5874              		.size	secp192r1_n, 24
 5875              	secp192r1_n:
 5876 0000 3128D2B4 		.word	-1261295567
 5877 0004 B1C96B14 		.word	342608305
 5878 0008 36F8DE99 		.word	-1713440714
 5879 000c FFFFFFFF 		.word	-1
 5880 0010 FFFFFFFF 		.word	-1
 5881 0014 FFFFFFFF 		.word	-1
 5882              		.section	.rodata.secp192r1_p,"a",%progbits
 5883              		.align	2
 5884              		.set	.LANCHOR3,. + 0
 5885              		.type	secp192r1_p, %object
 5886              		.size	secp192r1_p, 24
 5887              	secp192r1_p:
 5888 0000 FFFFFFFF 		.word	-1
 5889 0004 FFFFFFFF 		.word	-1
 5890 0008 FEFFFFFF 		.word	-2
 5891 000c FFFFFFFF 		.word	-1
 5892 0010 FFFFFFFF 		.word	-1
 5893 0014 FFFFFFFF 		.word	-1
 5894              		.section	.rodata.secp256r1_gx,"a",%progbits
 5895              		.align	2
 5896              		.set	.LANCHOR17,. + 0
 5897              		.type	secp256r1_gx, %object
 5898              		.size	secp256r1_gx, 32
 5899              	secp256r1_gx:
 5900 0000 96C298D8 		.word	-661077354
 5901 0004 4539A1F4 		.word	-190760635
 5902 0008 A033EB2D 		.word	770388896
 5903 000c 817D0377 		.word	1996717441
 5904 0010 F240A463 		.word	1671708914
 5905 0014 E5E6BCF8 		.word	-121837851
 5906 0018 47422CE1 		.word	-517193145
 5907 001c F2D1176B 		.word	1796723186
 5908              		.section	.rodata.secp256r1_gy,"a",%progbits
 5909              		.align	2
 5910              		.set	.LANCHOR18,. + 0
 5911              		.type	secp256r1_gy, %object
 5912              		.size	secp256r1_gy, 32
 5913              	secp256r1_gy:
 5914 0000 F551BF37 		.word	935285237
 5915 0004 6840B6CB 		.word	-877248408
 5916 0008 CE5E316B 		.word	1798397646
 5917 000c 5733CE2B 		.word	734933847
 5918 0010 169E0F7C 		.word	2081398294
 5919 0014 4AEBE78E 		.word	-1897403574
ARM GAS  C:\Users\jo\AppData\Local\Temp\ccCDYYSi.s 			page 105


 5920 0018 9B7F1AFE 		.word	-31817829
 5921 001c E242E34F 		.word	1340293858
 5922              		.section	.data.Rp.5820,"aw",%progbits
 5923              		.align	2
 5924              		.set	.LANCHOR2,. + 0
 5925              		.type	Rp.5820, %object
 5926              		.size	Rp.5820, 8
 5927              	Rp.5820:
 5928 0000 931A0000 		.word	6803
 5929 0004 01000000 		.word	1
 5930              		.section	.data.Rp.5824,"aw",%progbits
 5931              		.align	2
 5932              		.set	.LANCHOR0,. + 0
 5933              		.type	Rp.5824, %object
 5934              		.size	Rp.5824, 8
 5935              	Rp.5824:
 5936 0000 D1030000 		.word	977
 5937 0004 01000000 		.word	1
 5938              		.section	.rodata.secp256k1_gy,"a",%progbits
 5939              		.align	2
 5940              		.set	.LANCHOR46,. + 0
 5941              		.type	secp256k1_gy, %object
 5942              		.size	secp256k1_gy, 32
 5943              	secp256k1_gy:
 5944 0000 B8D410FB 		.word	-82783048
 5945 0004 8FD0479C 		.word	-1673015153
 5946 0008 195485A6 		.word	-1501211623
 5947 000c 48B417FD 		.word	-48778168
 5948 0010 A808110E 		.word	235997352
 5949 0014 FCFBA45D 		.word	1571093500
 5950 0018 65C4A326 		.word	648266853
 5951 001c 77DA3A48 		.word	1211816567
 5952              		.section	.rodata.secp224r1_gx,"a",%progbits
 5953              		.align	2
 5954              		.set	.LANCHOR12,. + 0
 5955              		.type	secp224r1_gx, %object
 5956              		.size	secp224r1_gx, 28
 5957              	secp224r1_gx:
 5958 0000 211D5C11 		.word	291249441
 5959 0004 D6803234 		.word	875725014
 5960 0008 2211C256 		.word	1455558946
 5961 000c D3C1034A 		.word	1241760211
 5962 0010 B9901332 		.word	840143033
 5963 0014 7FBFB46B 		.word	1807007615
 5964 0018 BD0C0EB7 		.word	-1223816003
 5965              		.section	.rodata.secp224r1_gy,"a",%progbits
 5966              		.align	2
 5967              		.set	.LANCHOR13,. + 0
 5968              		.type	secp224r1_gy, %object
 5969              		.size	secp224r1_gy, 28
 5970              	secp224r1_gy:
 5971 0000 347E0085 		.word	-2063565260
 5972 0004 9981D544 		.word	1154843033
 5973 0008 6447075A 		.word	1510426468
 5974 000c A07543CD 		.word	-851216992
 5975 0010 E6DF224C 		.word	1277353958
 5976 0014 FB23F7B5 		.word	-1242094597
ARM GAS  C:\Users\jo\AppData\Local\Temp\ccCDYYSi.s 			page 106


 5977 0018 886337BD 		.word	-1120443512
 5978              		.section	.rodata.secp256k1_a,"a",%progbits
 5979              		.align	2
 5980              		.set	.LANCHOR42,. + 0
 5981              		.type	secp256k1_a, %object
 5982              		.size	secp256k1_a, 4
 5983              	secp256k1_a:
 5984 0000 00000000 		.space	4
 5985              		.section	.rodata.secp256k1_b,"a",%progbits
 5986              		.align	2
 5987              		.set	.LANCHOR43,. + 0
 5988              		.type	secp256k1_b, %object
 5989              		.size	secp256k1_b, 4
 5990              	secp256k1_b:
 5991 0000 07000000 		.word	7
 5992              		.section	.rodata.secp384r1_b,"a",%progbits
 5993              		.align	2
 5994              		.set	.LANCHOR20,. + 0
 5995              		.type	secp384r1_b, %object
 5996              		.size	secp384r1_b, 48
 5997              	secp384r1_b:
 5998 0000 EF2AECD3 		.word	-739497233
 5999 0004 EDC8852A 		.word	713410797
 6000 0008 9DD12E8A 		.word	-1976643171
 6001 000c 8D3956C6 		.word	-967427699
 6002 0010 5A871350 		.word	1343457114
 6003 0014 8F081403 		.word	51644559
 6004 0018 124181FE 		.word	-25083630
 6005 001c 6E9C1D18 		.word	404593774
 6006 0020 192DF8E3 		.word	-470274791
 6007 0024 6B058E98 		.word	-1735522965
 6008 0028 E4E73EE2 		.word	-499193884
 6009 002c A72F31B3 		.word	-1288622169
 6010              		.section	.rodata.brainpoolP512r1_gx,"a",%progbits
 6011              		.align	2
 6012              		.set	.LANCHOR63,. + 0
 6013              		.type	brainpoolP512r1_gx, %object
 6014              		.size	brainpoolP512r1_gx, 64
 6015              	brainpoolP512r1_gx:
 6016 0000 22F8B9BC 		.word	-1128663006
 6017 0004 0922358B 		.word	-1959452151
 6018 0008 685E6A40 		.word	1080712808
 6019 000c 47506D7C 		.word	2087538759
 6020 0010 5F7DB993 		.word	-1816560289
 6021 0014 7B68D150 		.word	1355901051
 6022 0018 8DD4D0E2 		.word	-489630579
 6023 001c 781F3BFF 		.word	-12902536
 6024 0020 8E09D0F4 		.word	-187692658
 6025 0024 EE623BB4 		.word	-1271176466
 6026 0028 C116D9B5 		.word	-1244064063
 6027 002c 709FED85 		.word	-2048024720
 6028 0030 936A4C9C 		.word	-1672713581
 6029 0034 2E32215A 		.word	1512124974
 6030 0038 64D92ED8 		.word	-668018332
 6031 003c BDE4AE81 		.word	-2119244611
 6032              		.section	.rodata.secp224r1_b,"a",%progbits
 6033              		.align	2
ARM GAS  C:\Users\jo\AppData\Local\Temp\ccCDYYSi.s 			page 107


 6034              		.set	.LANCHOR10,. + 0
 6035              		.type	secp224r1_b, %object
 6036              		.size	secp224r1_b, 28
 6037              	secp224r1_b:
 6038 0000 B4FF5523 		.word	592838580
 6039 0004 43390B27 		.word	655046979
 6040 0008 BAD8BFD7 		.word	-675292998
 6041 000c B7B04450 		.word	1346678967
 6042 0010 563241F5 		.word	-180276650
 6043 0014 ABB3040C 		.word	201634731
 6044 0018 850A05B4 		.word	-1274738043
 6045              		.section	.rodata.brainpoolP512r1_gy,"a",%progbits
 6046              		.align	2
 6047              		.set	.LANCHOR64,. + 0
 6048              		.type	brainpoolP512r1_gy, %object
 6049              		.size	brainpoolP512r1_gy, 64
 6050              	brainpoolP512r1_gy:
 6051 0000 9208D83A 		.word	987236498
 6052 0004 0F1ECD78 		.word	2026708495
 6053 0008 0654F0A8 		.word	-1460644858
 6054 000c 2F2BCAD1 		.word	-775279825
 6055 0010 AE63278A 		.word	-1977130066
 6056 0014 D84BCA5B 		.word	1539984344
 6057 0018 5E485F4A 		.word	1247758430
 6058 001c 49DEDCB2 		.word	-1294148023
 6059 0020 11811F88 		.word	-2011201263
 6060 0024 5BC500A0 		.word	-1610562213
 6061 0028 1A7BA524 		.word	614824730
 6062 002c 00F709F2 		.word	-234227968
 6063 0030 FD2278CF 		.word	-814210307
 6064 0034 A9BFEAC0 		.word	-1058357335
 6065 0038 EC326356 		.word	1449341676
 6066 003c 5D38DE7D 		.word	2111715421
 6067              		.section	.rodata.brainpoolP384r1_p,"a",%progbits
 6068              		.align	2
 6069              		.set	.LANCHOR53,. + 0
 6070              		.type	brainpoolP384r1_p, %object
 6071              		.size	brainpoolP384r1_p, 48
 6072              	brainpoolP384r1_p:
 6073 0000 53EC0731 		.word	822602835
 6074 0004 13004787 		.word	-2025390061
 6075 0008 711A1D90 		.word	-1877140879
 6076 000c 29A7D3AC 		.word	-1395415255
 6077 0010 2311B77F 		.word	2142703907
 6078 0014 19DAB112 		.word	313645593
 6079 0018 B45654ED 		.word	-313239884
 6080 001c 09712F15 		.word	355430665
 6081 0020 DF41E650 		.word	1357267423
 6082 0024 7E6F5D0F 		.word	257781630
 6083 0028 286D38A3 		.word	-1556583128
 6084 002c 821EB98C 		.word	-1934025086
 6085              		.section	.rodata.secp192r1_gx,"a",%progbits
 6086              		.align	2
 6087              		.set	.LANCHOR6,. + 0
 6088              		.type	secp192r1_gx, %object
 6089              		.size	secp192r1_gx, 24
 6090              	secp192r1_gx:
ARM GAS  C:\Users\jo\AppData\Local\Temp\ccCDYYSi.s 			page 108


 6091 0000 1210FF82 		.word	-2097213422
 6092 0004 FD0AFFF4 		.word	-184612099
 6093 0008 0088A143 		.word	1134659584
 6094 000c EB20BF7C 		.word	2092900587
 6095 0010 F69030B0 		.word	-1338994442
 6096 0014 0EA88D18 		.word	411936782
 6097              		.section	.rodata.secp256k1_n,"a",%progbits
 6098              		.align	2
 6099              		.set	.LANCHOR44,. + 0
 6100              		.type	secp256k1_n, %object
 6101              		.size	secp256k1_n, 32
 6102              	secp256k1_n:
 6103 0000 414136D0 		.word	-801750719
 6104 0004 8C5ED2BF 		.word	-1076732276
 6105 0008 3BA048AF 		.word	-1354194885
 6106 000c E6DCAEBA 		.word	-1162945306
 6107 0010 FEFFFFFF 		.word	-2
 6108 0014 FFFFFFFF 		.word	-1
 6109 0018 FFFFFFFF 		.word	-1
 6110 001c FFFFFFFF 		.word	-1
 6111              		.section	.rodata.brainpoolP384r1_b,"a",%progbits
 6112              		.align	2
 6113              		.set	.LANCHOR55,. + 0
 6114              		.type	brainpoolP384r1_b, %object
 6115              		.size	brainpoolP384r1_b, 48
 6116              	brainpoolP384r1_b:
 6117 0000 114C50FA 		.word	-95400943
 6118 0004 9686B73A 		.word	985106070
 6119 0008 94C9DB95 		.word	-1780758124
 6120 000c 0239B47C 		.word	2092185858
 6121 0010 D562EB3E 		.word	1055613653
 6122 0014 A50E882E 		.word	780668581
 6123 0018 A6D2DC07 		.word	131912358
 6124 001c E17DB72F 		.word	800554465
 6125 0020 7C44F016 		.word	384844924
 6126 0024 54B5398B 		.word	-1959152300
 6127 0028 2628CE22 		.word	583936038
 6128 002c DDC7A804 		.word	78170077
 6129              		.section	.rodata.secp256k1_p,"a",%progbits
 6130              		.align	2
 6131              		.set	.LANCHOR41,. + 0
 6132              		.type	secp256k1_p, %object
 6133              		.size	secp256k1_p, 32
 6134              	secp256k1_p:
 6135 0000 2FFCFFFF 		.word	-977
 6136 0004 FEFFFFFF 		.word	-2
 6137 0008 FFFFFFFF 		.word	-1
 6138 000c FFFFFFFF 		.word	-1
 6139 0010 FFFFFFFF 		.word	-1
 6140 0014 FFFFFFFF 		.word	-1
 6141 0018 FFFFFFFF 		.word	-1
 6142 001c FFFFFFFF 		.word	-1
 6143              		.section	.rodata.secp256k1_gx,"a",%progbits
 6144              		.align	2
 6145              		.set	.LANCHOR45,. + 0
 6146              		.type	secp256k1_gx, %object
 6147              		.size	secp256k1_gx, 32
ARM GAS  C:\Users\jo\AppData\Local\Temp\ccCDYYSi.s 			page 109


 6148              	secp256k1_gx:
 6149 0000 9817F816 		.word	385357720
 6150 0004 5B81F259 		.word	1509065051
 6151 0008 D928CE2D 		.word	768485593
 6152 000c DBFC9B02 		.word	43777243
 6153 0010 070B87CE 		.word	-830010617
 6154 0014 9562A055 		.word	1436574357
 6155 0018 ACBBDCF9 		.word	-102974548
 6156 001c 7E66BE79 		.word	2042521214
 6157              		.section	.rodata.secp384r1_n,"a",%progbits
 6158              		.align	2
 6159              		.set	.LANCHOR21,. + 0
 6160              		.type	secp384r1_n, %object
 6161              		.size	secp384r1_n, 48
 6162              	secp384r1_n:
 6163 0000 7329C5CC 		.word	-859494029
 6164 0004 6A19ECEC 		.word	-320071318
 6165 0008 7AA7B048 		.word	1219536762
 6166 000c B20D1A58 		.word	1478102450
 6167 0010 DF2D37F4 		.word	-197710369
 6168 0014 814D63C7 		.word	-949793407
 6169 0018 FFFFFFFF 		.word	-1
 6170 001c FFFFFFFF 		.word	-1
 6171 0020 FFFFFFFF 		.word	-1
 6172 0024 FFFFFFFF 		.word	-1
 6173 0028 FFFFFFFF 		.word	-1
 6174 002c FFFFFFFF 		.word	-1
 6175              		.section	.rodata.secp192k1_gy,"a",%progbits
 6176              		.align	2
 6177              		.set	.LANCHOR34,. + 0
 6178              		.type	secp192k1_gy, %object
 6179              		.size	secp192k1_gy, 24
 6180              	secp192k1_gy:
 6181 0000 9D2F5ED9 		.word	-648138851
 6182 0004 88AA8240 		.word	1082305160
 6183 0008 3486BE15 		.word	364807732
 6184 000c D0634184 		.word	-2076089392
 6185 0010 A728569C 		.word	-1672075097
 6186 0014 6D2F2F9B 		.word	-1691406483
 6187              		.section	.rodata.secp521r1_gx,"a",%progbits
 6188              		.align	2
 6189              		.set	.LANCHOR27,. + 0
 6190              		.type	secp521r1_gx, %object
 6191              		.size	secp521r1_gx, 68
 6192              	secp521r1_gx:
 6193 0000 66BDE5C2 		.word	-1025131162
 6194 0004 317E7EF9 		.word	-109150671
 6195 0008 9B426A85 		.word	-2056633701
 6196 000c C1B34833 		.word	860402625
 6197 0010 DEA8FFA2 		.word	-1560303394
 6198 0014 27C11DFE 		.word	-31604441
 6199 0018 2859E7EF 		.word	-270051032
 6200 001c 775E4BA1 		.word	-1588896137
 6201 0020 BA3D4D6B 		.word	1800224186
 6202 0024 60AF28F8 		.word	-131551392
 6203 0028 21B53F05 		.word	88061217
 6204 002c 3981649C 		.word	-1671134919
ARM GAS  C:\Users\jo\AppData\Local\Temp\ccCDYYSi.s 			page 110


 6205 0030 42B49523 		.word	597013570
 6206 0034 66CB3E9E 		.word	-1640051866
 6207 0038 CDE90404 		.word	67430861
 6208 003c B7068E85 		.word	-2054289737
 6209 0040 C6000000 		.word	198
 6210              		.section	.rodata.secp224r1_n,"a",%progbits
 6211              		.align	2
 6212              		.set	.LANCHOR11,. + 0
 6213              		.type	secp224r1_n, %object
 6214              		.size	secp224r1_n, 28
 6215              	secp224r1_n:
 6216 0000 3D2A5C5C 		.word	1549543997
 6217 0004 4529DD13 		.word	333261125
 6218 0008 3EF0B8E0 		.word	-524750786
 6219 000c A216FFFF 		.word	-59742
 6220 0010 FFFFFFFF 		.word	-1
 6221 0014 FFFFFFFF 		.word	-1
 6222 0018 FFFFFFFF 		.word	-1
 6223              		.section	.rodata.secp224r1_p,"a",%progbits
 6224              		.align	2
 6225              		.set	.LANCHOR9,. + 0
 6226              		.type	secp224r1_p, %object
 6227              		.size	secp224r1_p, 32
 6228              	secp224r1_p:
 6229 0000 01000000 		.word	1
 6230 0004 00000000 		.word	0
 6231 0008 00000000 		.word	0
 6232 000c FFFFFFFF 		.word	-1
 6233 0010 FFFFFFFF 		.word	-1
 6234 0014 FFFFFFFF 		.word	-1
 6235 0018 FFFFFFFF 		.word	-1
 6236 001c 00000000 		.word	0
 6237              		.section	.rodata.secp192k1_a,"a",%progbits
 6238              		.align	2
 6239              		.set	.LANCHOR30,. + 0
 6240              		.type	secp192k1_a, %object
 6241              		.size	secp192k1_a, 4
 6242              	secp192k1_a:
 6243 0000 00000000 		.space	4
 6244              		.section	.rodata.secp192k1_b,"a",%progbits
 6245              		.align	2
 6246              		.set	.LANCHOR31,. + 0
 6247              		.type	secp192k1_b, %object
 6248              		.size	secp192k1_b, 4
 6249              	secp192k1_b:
 6250 0000 03000000 		.word	3
 6251              		.section	.rodata.secp384r1_gx,"a",%progbits
 6252              		.align	2
 6253              		.set	.LANCHOR22,. + 0
 6254              		.type	secp384r1_gx, %object
 6255              		.size	secp384r1_gx, 48
 6256              	secp384r1_gx:
 6257 0000 B70A7672 		.word	1920338615
 6258 0004 385E543A 		.word	978607672
 6259 0008 6C2955BF 		.word	-1084937876
 6260 000c 5DF20255 		.word	1426256477
 6261 0010 382A5482 		.word	-2108413384
ARM GAS  C:\Users\jo\AppData\Local\Temp\ccCDYYSi.s 			page 111


 6262 0014 E041F759 		.word	1509376480
 6263 0018 989BA78B 		.word	-1951949928
 6264 001c 623B1D6E 		.word	1847409506
 6265 0020 74AD20F3 		.word	-215962252
 6266 0024 1EC7B18E 		.word	-1900951778
 6267 0028 37058BBE 		.word	-1098185417
 6268 002c 22CA87AA 		.word	-1433941470
 6269              		.section	.rodata.secp384r1_p,"a",%progbits
 6270              		.align	2
 6271              		.set	.LANCHOR19,. + 0
 6272              		.type	secp384r1_p, %object
 6273              		.size	secp384r1_p, 48
 6274              	secp384r1_p:
 6275 0000 FFFFFFFF 		.word	-1
 6276 0004 00000000 		.word	0
 6277 0008 00000000 		.word	0
 6278 000c FFFFFFFF 		.word	-1
 6279 0010 FEFFFFFF 		.word	-2
 6280 0014 FFFFFFFF 		.word	-1
 6281 0018 FFFFFFFF 		.word	-1
 6282 001c FFFFFFFF 		.word	-1
 6283 0020 FFFFFFFF 		.word	-1
 6284 0024 FFFFFFFF 		.word	-1
 6285 0028 FFFFFFFF 		.word	-1
 6286 002c FFFFFFFF 		.word	-1
 6287              		.section	.rodata.secp224k1_gx,"a",%progbits
 6288              		.align	2
 6289              		.set	.LANCHOR39,. + 0
 6290              		.type	secp224k1_gx, %object
 6291              		.size	secp224k1_gx, 28
 6292              	secp224k1_gx:
 6293 0000 5CA4B7B6 		.word	-1229478820
 6294 0004 0E657E0F 		.word	259941646
 6295 0008 A97570E4 		.word	-462391895
 6296 000c E967A469 		.word	1772382185
 6297 0010 A128FC30 		.word	821831841
 6298 0014 DF99F04D 		.word	1307613663
 6299 0018 335B45A1 		.word	-1589290189
 6300              		.section	.rodata.secp224k1_gy,"a",%progbits
 6301              		.align	2
 6302              		.set	.LANCHOR40,. + 0
 6303              		.type	secp224k1_gy, %object
 6304              		.size	secp224k1_gy, 28
 6305              	secp224k1_gy:
 6306 0000 A5616D55 		.word	1433231781
 6307 0004 DB4BCAE2 		.word	-490058789
 6308 0008 59BDB0C0 		.word	-1062159015
 6309 000c F719E3F7 		.word	-136111625
 6310 0010 D6FBCA82 		.word	-2100626474
 6311 0014 4234BA7F 		.word	2142909506
 6312 0018 ED9F087E 		.word	2114494445
 6313              		.section	.rodata.brainpoolP256r1_gx,"a",%progbits
 6314              		.align	2
 6315              		.set	.LANCHOR51,. + 0
 6316              		.type	brainpoolP256r1_gx, %object
 6317              		.size	brainpoolP256r1_gx, 32
 6318              	brainpoolP256r1_gx:
ARM GAS  C:\Users\jo\AppData\Local\Temp\ccCDYYSi.s 			page 112


 6319 0000 6232CE9A 		.word	-1697762718
 6320 0004 BD53443A 		.word	977556413
 6321 0008 C223BDE3 		.word	-474143806
 6322 000c E127DEB9 		.word	-1176623135
 6323 0010 AFB781FC 		.word	-58607697
 6324 0014 2F484B2C 		.word	743131183
 6325 0018 CB577ECB 		.word	-880912437
 6326 001c B9AED28B 		.word	-1949126983
 6327              		.section	.rodata.brainpoolP256r1_gy,"a",%progbits
 6328              		.align	2
 6329              		.set	.LANCHOR52,. + 0
 6330              		.type	brainpoolP256r1_gy, %object
 6331              		.size	brainpoolP256r1_gy, 32
 6332              	brainpoolP256r1_gy:
 6333 0000 9769042F 		.word	788818327
 6334 0004 C7541D5C 		.word	1545426119
 6335 0008 548EED2D 		.word	770543188
 6336 000c 134577C2 		.word	-1032370925
 6337 0010 C91D6114 		.word	341908937
 6338 0014 1A46F897 		.word	-1745336806
 6339 0018 FDC4DAC3 		.word	-1009072899
 6340 001c 35F87E54 		.word	1417607221
 6341              		.section	.rodata.secp384r1_gy,"a",%progbits
 6342              		.align	2
 6343              		.set	.LANCHOR23,. + 0
 6344              		.type	secp384r1_gy, %object
 6345              		.size	secp384r1_gy, 48
 6346              	secp384r1_gy:
 6347 0000 5F0EEA90 		.word	-1863709089
 6348 0004 7C1D437A 		.word	2051218812
 6349 0008 9D817E1D 		.word	494829981
 6350 000c CEB1600A 		.word	174109134
 6351 0010 C0B8F0B5 		.word	-1242515264
 6352 0014 1331DAE9 		.word	-371576557
 6353 0018 7C149A28 		.word	681186428
 6354 001c BD1DF4F8 		.word	-118219331
 6355 0020 29DC9292 		.word	-1835869143
 6356 0024 BF989E5D 		.word	1570674879
 6357 0028 6F2C2696 		.word	-1775883153
 6358 002c 4ADE1736 		.word	907533898
 6359              		.section	.rodata.brainpoolP512r1_p,"a",%progbits
 6360              		.align	2
 6361              		.set	.LANCHOR59,. + 0
 6362              		.type	brainpoolP512r1_p, %object
 6363              		.size	brainpoolP512r1_p, 64
 6364              	brainpoolP512r1_p:
 6365 0000 F3483A58 		.word	1480214771
 6366 0004 5660AA28 		.word	682254422
 6367 0008 85C6822D 		.word	763545221
 6368 000c 2FFF8128 		.word	679608111
 6369 0010 E680A3E6 		.word	-425492250
 6370 0014 2AA1CDAE 		.word	-1362255574
 6371 0018 4268C69B 		.word	-1681495998
 6372 001c 009B4D7D 		.word	2102237952
 6373 0020 71083370 		.word	1882392689
 6374 0024 CA9C63D6 		.word	-698114870
 6375 0028 0ED2C9B3 		.word	-1278619122
ARM GAS  C:\Users\jo\AppData\Local\Temp\ccCDYYSi.s 			page 113


 6376 002c B38D30CB 		.word	-886010445
 6377 0030 07FCC933 		.word	868875271
 6378 0034 AEE6D43F 		.word	1070917294
 6379 0038 8BC4E9DB 		.word	-605436789
 6380 003c B89DDDAA 		.word	-1428316744
 6381              		.section	.rodata.secp192k1_n,"a",%progbits
 6382              		.align	2
 6383              		.set	.LANCHOR32,. + 0
 6384              		.type	secp192k1_n, %object
 6385              		.size	secp192k1_n, 24
 6386              	secp192k1_n:
 6387 0000 8DFDDE74 		.word	1960770957
 6388 0004 6A46690F 		.word	258557546
 6389 0008 17FCF226 		.word	653458455
 6390 000c FEFFFFFF 		.word	-2
 6391 0010 FFFFFFFF 		.word	-1
 6392 0014 FFFFFFFF 		.word	-1
 6393              		.section	.rodata.secp192k1_p,"a",%progbits
 6394              		.align	2
 6395              		.set	.LANCHOR29,. + 0
 6396              		.type	secp192k1_p, %object
 6397              		.size	secp192k1_p, 24
 6398              	secp192k1_p:
 6399 0000 37EEFFFF 		.word	-4553
 6400 0004 FEFFFFFF 		.word	-2
 6401 0008 FFFFFFFF 		.word	-1
 6402 000c FFFFFFFF 		.word	-1
 6403 0010 FFFFFFFF 		.word	-1
 6404 0014 FFFFFFFF 		.word	-1
 6405              		.section	.rodata.secp192r1_b,"a",%progbits
 6406              		.align	2
 6407              		.set	.LANCHOR4,. + 0
 6408              		.type	secp192r1_b, %object
 6409              		.size	secp192r1_b, 24
 6410              	secp192r1_b:
 6411 0000 B1B946C1 		.word	-1052329551
 6412 0004 ECDEB8FE 		.word	-21438740
 6413 0008 49302472 		.word	1914974281
 6414 000c ABE9A70F 		.word	262662571
 6415 0010 E7809CE5 		.word	-442728217
 6416 0014 19052164 		.word	1679885593
 6417              		.section	.data.Rp.5816,"aw",%progbits
 6418              		.align	2
 6419              		.set	.LANCHOR1,. + 0
 6420              		.type	Rp.5816, %object
 6421              		.size	Rp.5816, 8
 6422              	Rp.5816:
 6423 0000 C9110000 		.word	4553
 6424 0004 01000000 		.word	1
 6425              		.section	.rodata.brainpoolP512r1_b,"a",%progbits
 6426              		.align	2
 6427              		.set	.LANCHOR61,. + 0
 6428              		.type	brainpoolP512r1_b, %object
 6429              		.size	brainpoolP512r1_b, 64
 6430              	brainpoolP512r1_b:
 6431 0000 23F71680 		.word	-2145978589
 6432 0004 63BD0928 		.word	671726947
ARM GAS  C:\Users\jo\AppData\Local\Temp\ccCDYYSi.s 			page 114


 6433 0008 DDE5BA5E 		.word	1589306845
 6434 000c B7504098 		.word	-1740615497
 6435 0010 673E08DC 		.word	-603439513
 6436 0014 CA94FC77 		.word	2013041866
 6437 0018 4DACC1E7 		.word	-406737843
 6438 001c B9C7F22B 		.word	737331129
 6439 0020 A717117F 		.word	2131826599
 6440 0024 B5C89A8B 		.word	-1952790347
 6441 0028 C9F12E0A 		.word	170848713
 6442 002c A13A25A8 		.word	-1473955167
 6443 0030 5A5DED2D 		.word	770530650
 6444 0034 BC6398EA 		.word	-359111748
 6445 0038 CA4134A8 		.word	-1472970294
 6446 003c 1016F93D 		.word	1039734288
 6447              		.section	.rodata.secp192k1_gx,"a",%progbits
 6448              		.align	2
 6449              		.set	.LANCHOR33,. + 0
 6450              		.type	secp192k1_gx, %object
 6451              		.size	secp192k1_gx, 24
 6452              	secp192k1_gx:
 6453 0000 7D6CE0EA 		.word	-354390915
 6454 0004 B1D1A51D 		.word	497406385
 6455 0008 34F4B780 		.word	-2135428044
 6456 000c 027DB026 		.word	649100546
 6457 0010 AEE957C0 		.word	-1067980370
 6458 0014 0EF14FDB 		.word	-615517938
 6459              		.section	.rodata.secp521r1_gy,"a",%progbits
 6460              		.align	2
 6461              		.set	.LANCHOR28,. + 0
 6462              		.type	secp521r1_gy, %object
 6463              		.size	secp521r1_gy, 68
 6464              	secp521r1_gy:
 6465 0000 5066D19F 		.word	-1613666736
 6466 0004 7694BE88 		.word	-2000776074
 6467 0008 40C272A2 		.word	-1569537472
 6468 000c 86703C35 		.word	893153414
 6469 0010 6107AD3F 		.word	1068304225
 6470 0014 01B950C5 		.word	-984565503
 6471 0018 4026F45E 		.word	1593058880
 6472 001c 9972EE97 		.word	-1745980775
 6473 0020 2C663E27 		.word	658400812
 6474 0024 17BDAF17 		.word	397393175
 6475 0028 68449B57 		.word	1469793384
 6476 002c 4944F598 		.word	-1728756663
 6477 0030 D91B7D2C 		.word	746396633
 6478 0034 B45F8A5C 		.word	1552572340
 6479 0038 04C03B9A 		.word	-1707360252
 6480 003c 786A2939 		.word	959015544
 6481 0040 18010000 		.word	280
 6482              		.section	.data.one.5623,"aw",%progbits
 6483              		.align	2
 6484              		.set	.LANCHOR8,. + 0
 6485              		.type	one.5623, %object
 6486              		.size	one.5623, 4
 6487              	one.5623:
 6488 0000 01000000 		.word	1
 6489              		.section	.rodata.brainpoolP256r1_a,"a",%progbits
ARM GAS  C:\Users\jo\AppData\Local\Temp\ccCDYYSi.s 			page 115


 6490              		.align	2
 6491              		.set	.LANCHOR48,. + 0
 6492              		.type	brainpoolP256r1_a, %object
 6493              		.size	brainpoolP256r1_a, 32
 6494              	brainpoolP256r1_a:
 6495 0000 D9B530F3 		.word	-214911527
 6496 0004 444B4AE9 		.word	-381007036
 6497 0008 6C5CDC26 		.word	651975788
 6498 000c C15580FB 		.word	-75475519
 6499 0010 E7FF7A41 		.word	1098579943
 6500 0014 3075F6EE 		.word	-285838032
 6501 0018 57302CFC 		.word	-64212905
 6502 001c 75095A7D 		.word	2103052661
 6503              		.section	.rodata.brainpoolP256r1_b,"a",%progbits
 6504              		.align	2
 6505              		.set	.LANCHOR49,. + 0
 6506              		.type	brainpoolP256r1_b, %object
 6507              		.size	brainpoolP256r1_b, 32
 6508              	brainpoolP256r1_b:
 6509 0000 B6078CFF 		.word	-7600202
 6510 0004 18DCCC6B 		.word	1808587800
 6511 0008 CEE1F75C 		.word	1559749070
 6512 000c 29168495 		.word	-1786505687
 6513 0010 BF7CD7BB 		.word	-1143505729
 6514 0014 D9B530F3 		.word	-214911527
 6515 0018 444B4AE9 		.word	-381007036
 6516 001c 6C5CDC26 		.word	651975788
 6517              		.section	.rodata.brainpoolP384r1_n,"a",%progbits
 6518              		.align	2
 6519              		.set	.LANCHOR56,. + 0
 6520              		.type	brainpoolP384r1_n, %object
 6521              		.size	brainpoolP384r1_n, 48
 6522              	brainpoolP384r1_n:
 6523 0000 656504E9 		.word	-385587867
 6524 0004 0232883B 		.word	998781442
 6525 0008 10C37F6B 		.word	1803535120
 6526 000c AFB63ACF 		.word	-818235729
 6527 0010 A72504AC 		.word	-1409014361
 6528 0014 6C6E161F 		.word	521563756
 6529 0018 B35654ED 		.word	-313239885
 6530 001c 09712F15 		.word	355430665
 6531 0020 DF41E650 		.word	1357267423
 6532 0024 7E6F5D0F 		.word	257781630
 6533 0028 286D38A3 		.word	-1556583128
 6534 002c 821EB98C 		.word	-1934025086
 6535              		.section	.rodata.secp256r1_b,"a",%progbits
 6536              		.align	2
 6537              		.set	.LANCHOR15,. + 0
 6538              		.type	secp256r1_b, %object
 6539              		.size	secp256r1_b, 32
 6540              	secp256r1_b:
 6541 0000 4B60D227 		.word	668098635
 6542 0004 3E3CCE3B 		.word	1003371582
 6543 0008 F6B053CC 		.word	-866930442
 6544 000c B0061D65 		.word	1696401072
 6545 0010 BC869876 		.word	1989707452
 6546 0014 55BDEBB3 		.word	-1276396203
ARM GAS  C:\Users\jo\AppData\Local\Temp\ccCDYYSi.s 			page 116


 6547 0018 E7933AAA 		.word	-1439001625
 6548 001c D835C65A 		.word	1522939352
 6549              		.section	.rodata.brainpoolP384r1_a,"a",%progbits
 6550              		.align	2
 6551              		.set	.LANCHOR54,. + 0
 6552              		.type	brainpoolP384r1_a, %object
 6553              		.size	brainpoolP384r1_a, 48
 6554              	brainpoolP384r1_a:
 6555 0000 2628CE22 		.word	583936038
 6556 0004 DDC7A804 		.word	78170077
 6557 0008 EBD43A50 		.word	1346032875
 6558 000c 4A81A58A 		.word	-1968864950
 6559 0010 0FF991BA 		.word	-1164838641
 6560 0014 EF659113 		.word	328295919
 6561 0018 8727B24F 		.word	1337075591
 6562 001c 8EA2BEC2 		.word	-1027693938
 6563 0020 A0AF05CE 		.word	-838488160
 6564 0024 0A08723C 		.word	1014106122
 6565 0028 0C158C3D 		.word	1032590604
 6566 002c C682C37B 		.word	2076410566
 6567              		.section	.rodata.brainpoolP256r1_n,"a",%progbits
 6568              		.align	2
 6569              		.set	.LANCHOR50,. + 0
 6570              		.type	brainpoolP256r1_n, %object
 6571              		.size	brainpoolP256r1_n, 32
 6572              	brainpoolP256r1_n:
 6573 0000 A7564897 		.word	-1756866905
 6574 0004 820E1E90 		.word	-1877078398
 6575 0008 F7A661B5 		.word	-1251891465
 6576 000c A37A398C 		.word	-1942390109
 6577 0010 718D839D 		.word	-1652322959
 6578 0014 900A663E 		.word	1046874768
 6579 0018 BCA9EEA1 		.word	-1578194500
 6580 001c DB57FBA9 		.word	-1443145765
 6581              		.section	.rodata.brainpoolP256r1_p,"a",%progbits
 6582              		.align	2
 6583              		.set	.LANCHOR47,. + 0
 6584              		.type	brainpoolP256r1_p, %object
 6585              		.size	brainpoolP256r1_p, 32
 6586              	brainpoolP256r1_p:
 6587 0000 77536E1F 		.word	527324023
 6588 0004 1D481320 		.word	538134557
 6589 0008 282026D5 		.word	-718921688
 6590 000c 23F63B6E 		.word	1849423395
 6591 0010 728D839D 		.word	-1652322958
 6592 0014 900A663E 		.word	1046874768
 6593 0018 BCA9EEA1 		.word	-1578194500
 6594 001c DB57FBA9 		.word	-1443145765
 6595              		.section	.rodata.brainpoolP512r1_a,"a",%progbits
 6596              		.align	2
 6597              		.set	.LANCHOR60,. + 0
 6598              		.type	brainpoolP512r1_a, %object
 6599              		.size	brainpoolP512r1_a, 64
 6600              	brainpoolP512r1_a:
 6601 0000 CA94FC77 		.word	2013041866
 6602 0004 4DACC1E7 		.word	-406737843
 6603 0008 B9C7F22B 		.word	737331129
ARM GAS  C:\Users\jo\AppData\Local\Temp\ccCDYYSi.s 			page 117


 6604 000c A717117F 		.word	2131826599
 6605 0010 B5C89A8B 		.word	-1952790347
 6606 0014 C9F12E0A 		.word	170848713
 6607 0018 A13A25A8 		.word	-1473955167
 6608 001c 5A5DED2D 		.word	770530650
 6609 0020 BC6398EA 		.word	-359111748
 6610 0024 CA4134A8 		.word	-1472970294
 6611 0028 1016F93D 		.word	1039734288
 6612 002c 8DDDCB94 		.word	-1798578803
 6613 0030 C54C23AC 		.word	-1406972731
 6614 0034 457132E2 		.word	-500010683
 6615 0038 893B608B 		.word	-1956627575
 6616 003c 31A33078 		.word	2016453425
 6617              		.section	.rodata.secp224k1_a,"a",%progbits
 6618              		.align	2
 6619              		.set	.LANCHOR36,. + 0
 6620              		.type	secp224k1_a, %object
 6621              		.size	secp224k1_a, 4
 6622              	secp224k1_a:
 6623 0000 00000000 		.space	4
 6624              		.section	.rodata.secp224k1_b,"a",%progbits
 6625              		.align	2
 6626              		.set	.LANCHOR37,. + 0
 6627              		.type	secp224k1_b, %object
 6628              		.size	secp224k1_b, 4
 6629              	secp224k1_b:
 6630 0000 05000000 		.word	5
 6631              		.section	.rodata.secp256r1_n,"a",%progbits
 6632              		.align	2
 6633              		.set	.LANCHOR16,. + 0
 6634              		.type	secp256r1_n, %object
 6635              		.size	secp256r1_n, 32
 6636              	secp256r1_n:
 6637 0000 512563FC 		.word	-60611247
 6638 0004 C2CAB9F3 		.word	-205927742
 6639 0008 849E17A7 		.word	-1491624316
 6640 000c ADFAE6BC 		.word	-1125713235
 6641 0010 FFFFFFFF 		.word	-1
 6642 0014 FFFFFFFF 		.word	-1
 6643 0018 00000000 		.word	0
 6644 001c FFFFFFFF 		.word	-1
 6645              		.section	.rodata.secp256r1_p,"a",%progbits
 6646              		.align	2
 6647              		.set	.LANCHOR14,. + 0
 6648              		.type	secp256r1_p, %object
 6649              		.size	secp256r1_p, 32
 6650              	secp256r1_p:
 6651 0000 FFFFFFFF 		.word	-1
 6652 0004 FFFFFFFF 		.word	-1
 6653 0008 FFFFFFFF 		.word	-1
 6654 000c 00000000 		.word	0
 6655 0010 00000000 		.word	0
 6656 0014 00000000 		.word	0
 6657 0018 01000000 		.word	1
 6658 001c FFFFFFFF 		.word	-1
 6659              		.section	.rodata.secp521r1_b,"a",%progbits
 6660              		.align	2
ARM GAS  C:\Users\jo\AppData\Local\Temp\ccCDYYSi.s 			page 118


 6661              		.set	.LANCHOR25,. + 0
 6662              		.type	secp521r1_b, %object
 6663              		.size	secp521r1_b, 68
 6664              	secp521r1_b:
 6665 0000 003F506B 		.word	1800421120
 6666 0004 D41F45EF 		.word	-280682540
 6667 0008 F1342C3D 		.word	1026307313
 6668 000c 88DF7335 		.word	896786312
 6669 0010 07BFB13B 		.word	1001504519
 6670 0014 BDC05216 		.word	374522045
 6671 0018 7B937EEC 		.word	-327249029
 6672 001c 51391956 		.word	1444493649
 6673 0020 E109F18E 		.word	-1896805919
 6674 0024 9189B4B8 		.word	-1196127855
 6675 0028 F315B399 		.word	-1716316685
 6676 002c 5B72DAA2 		.word	-1562742181
 6677 0030 EE4085B6 		.word	-1232781074
 6678 0034 A0219A92 		.word	-1835392608
 6679 0038 1F9A1C8E 		.word	-1910728161
 6680 003c 61B93E95 		.word	-1791051423
 6681 0040 51000000 		.word	81
 6682              		.section	.rodata.brainpoolP512r1_n,"a",%progbits
 6683              		.align	2
 6684              		.set	.LANCHOR62,. + 0
 6685              		.type	brainpoolP512r1_n, %object
 6686              		.size	brainpoolP512r1_n, 64
 6687              	brainpoolP512r1_n:
 6688 0000 6900A99C 		.word	-1666645911
 6689 0004 829687B5 		.word	-1249405310
 6690 0008 DDDA5D08 		.word	140368605
 6691 000c 81D3B11D 		.word	498193281
 6692 0010 4710AC7F 		.word	2141982791
 6693 0014 19618641 		.word	1099325721
 6694 0018 1926A94C 		.word	1286153753
 6695 001c 415C3E55 		.word	1430150209
 6696 0020 70083370 		.word	1882392688
 6697 0024 CA9C63D6 		.word	-698114870
 6698 0028 0ED2C9B3 		.word	-1278619122
 6699 002c B38D30CB 		.word	-886010445
 6700 0030 07FCC933 		.word	868875271
 6701 0034 AEE6D43F 		.word	1070917294
 6702 0038 8BC4E9DB 		.word	-605436789
 6703 003c B89DDDAA 		.word	-1428316744
 6704              		.section	.rodata.secp224k1_n,"a",%progbits
 6705              		.align	2
 6706              		.set	.LANCHOR38,. + 0
 6707              		.type	secp224k1_n, %object
 6708              		.size	secp224k1_n, 32
 6709              	secp224k1_n:
 6710 0000 F7B19F76 		.word	1990177271
 6711 0004 71A9F0CA 		.word	-890197647
 6712 0008 8461ECD2 		.word	-756260476
 6713 000c E8DC0100 		.word	122088
 6714 0010 00000000 		.word	0
 6715 0014 00000000 		.word	0
 6716 0018 00000000 		.word	0
 6717 001c 01000000 		.word	1
ARM GAS  C:\Users\jo\AppData\Local\Temp\ccCDYYSi.s 			page 119


 6718              		.section	.rodata.brainpoolP384r1_gy,"a",%progbits
 6719              		.align	2
 6720              		.set	.LANCHOR58,. + 0
 6721              		.type	brainpoolP384r1_gy, %object
 6722              		.size	brainpoolP384r1_gy, 48
 6723              	brainpoolP384r1_gy:
 6724 0000 15533C26 		.word	641487637
 6725 0004 41038242 		.word	1115816769
 6726 0008 11819177 		.word	2006024465
 6727 000c 2146460E 		.word	239486497
 6728 0010 282991F9 		.word	-107927256
 6729 0014 4F059CE1 		.word	-509868721
 6730 0018 6458ECFE 		.word	-18065308
 6731 001c 290BB762 		.word	1656163113
 6732 0020 52D5CF95 		.word	-1781541550
 6733 0024 8EEBB15C 		.word	1555164046
 6734 0028 A4C2F920 		.word	553239204
 6735 002c 751DBE8A 		.word	-1967252107
 6736              		.section	.rodata.secp224k1_p,"a",%progbits
 6737              		.align	2
 6738              		.set	.LANCHOR35,. + 0
 6739              		.type	secp224k1_p, %object
 6740              		.size	secp224k1_p, 28
 6741              	secp224k1_p:
 6742 0000 6DE5FFFF 		.word	-6803
 6743 0004 FEFFFFFF 		.word	-2
 6744 0008 FFFFFFFF 		.word	-1
 6745 000c FFFFFFFF 		.word	-1
 6746 0010 FFFFFFFF 		.word	-1
 6747 0014 FFFFFFFF 		.word	-1
 6748 0018 FFFFFFFF 		.word	-1
 6749              		.section	.rodata.brainpoolP384r1_gx,"a",%progbits
 6750              		.align	2
 6751              		.set	.LANCHOR57,. + 0
 6752              		.type	brainpoolP384r1_gx, %object
 6753              		.size	brainpoolP384r1_gx, 48
 6754              	brainpoolP384r1_gx:
 6755 0000 1EAFD447 		.word	1205120798
 6756 0004 E2B287EF 		.word	-276319518
 6757 0008 AA46D636 		.word	920012458
 6758 000c 34E026E8 		.word	-400105420
 6759 0010 E810BD0C 		.word	213717224
 6760 0014 FECA7FDB 		.word	-612381954
 6761 0018 E34FF17E 		.word	2129743843
 6762 001c E7A34788 		.word	-2008570905
 6763 0020 6B3FC1B7 		.word	-1212072085
 6764 0024 813AA6A2 		.word	-1566164351
 6765 0028 FF45CF68 		.word	1758414335
 6766 002c F0641C1D 		.word	488400112
 6767              		.section	.rodata.secp521r1_n,"a",%progbits
 6768              		.align	2
 6769              		.set	.LANCHOR26,. + 0
 6770              		.type	secp521r1_n, %object
 6771              		.size	secp521r1_n, 68
 6772              	secp521r1_n:
 6773 0000 09643891 		.word	-1858575351
 6774 0004 1EB76FBB 		.word	-1150306530
ARM GAS  C:\Users\jo\AppData\Local\Temp\ccCDYYSi.s 			page 120


 6775 0008 AE479C89 		.word	-1986246738
 6776 000c B8C9B53B 		.word	1001769400
 6777 0010 D0A509F7 		.word	-150362672
 6778 0014 4801CC7F 		.word	2144076104
 6779 0018 6B962FBF 		.word	-1087400341
 6780 001c 83878651 		.word	1367771011
 6781 0020 FAFFFFFF 		.word	-6
 6782 0024 FFFFFFFF 		.word	-1
 6783 0028 FFFFFFFF 		.word	-1
 6784 002c FFFFFFFF 		.word	-1
 6785 0030 FFFFFFFF 		.word	-1
 6786 0034 FFFFFFFF 		.word	-1
 6787 0038 FFFFFFFF 		.word	-1
 6788 003c FFFFFFFF 		.word	-1
 6789 0040 FF010000 		.word	511
 6790              		.section	.rodata.secp521r1_p,"a",%progbits
 6791              		.align	2
 6792              		.set	.LANCHOR24,. + 0
 6793              		.type	secp521r1_p, %object
 6794              		.size	secp521r1_p, 68
 6795              	secp521r1_p:
 6796 0000 FFFFFFFF 		.word	-1
 6797 0004 FFFFFFFF 		.word	-1
 6798 0008 FFFFFFFF 		.word	-1
 6799 000c FFFFFFFF 		.word	-1
 6800 0010 FFFFFFFF 		.word	-1
 6801 0014 FFFFFFFF 		.word	-1
 6802 0018 FFFFFFFF 		.word	-1
 6803 001c FFFFFFFF 		.word	-1
 6804 0020 FFFFFFFF 		.word	-1
 6805 0024 FFFFFFFF 		.word	-1
 6806 0028 FFFFFFFF 		.word	-1
 6807 002c FFFFFFFF 		.word	-1
 6808 0030 FFFFFFFF 		.word	-1
 6809 0034 FFFFFFFF 		.word	-1
 6810 0038 FFFFFFFF 		.word	-1
 6811 003c FFFFFFFF 		.word	-1
 6812 0040 FF010000 		.word	511
 6813              		.section	.rodata.str1.4,"aMS",%progbits,1
 6814              		.align	2
 6815              	.LC0:
 6816 0000 30314442 		.ascii	"01DB42\000"
 6816      343200
 6817 0007 00       		.section	.rodata.secp192r1_gy,"a",%progbits
 6818              		.align	2
 6819              		.set	.LANCHOR7,. + 0
 6820              		.type	secp192r1_gy, %object
 6821              		.size	secp192r1_gy, 24
 6822              	secp192r1_gy:
 6823 0000 1148791E 		.word	511264785
 6824 0004 A177F973 		.word	1945728929
 6825 0008 D5CD246B 		.word	1797574101
 6826 000c ED111063 		.word	1661997549
 6827 0010 78DAC8FF 		.word	-3614088
 6828 0014 952B1907 		.word	119090069
 6829              		.text
 6830              	.Letext0:
ARM GAS  C:\Users\jo\AppData\Local\Temp\ccCDYYSi.s 			page 121


 6831              		.file 2 "c:\\program files\\gnu tools arm embedded\\4.9 2014q4\\lib\\gcc\\arm-none-eabi\\4.9.3\\in
 6832              		.file 3 "c:\\program files\\gnu tools arm embedded\\4.9 2014q4\\arm-none-eabi\\include\\machine\\_
 6833              		.file 4 "c:\\program files\\gnu tools arm embedded\\4.9 2014q4\\arm-none-eabi\\include\\stdint.h"
 6834              		.file 5 "../../../ext/mbedtls-1.3.11/library/../include/polarssl/bignum.h"
 6835              		.file 6 "../../../ext/mbedtls-1.3.11/library/../include/polarssl/ecp.h"