ARM GAS  C:\Users\jo\AppData\Local\Temp\ccNww304.s 			page 1


   1              		.syntax unified
   2              		.cpu cortex-m4
   3              		.fpu softvfp
   4              		.eabi_attribute 20, 1
   5              		.eabi_attribute 21, 1
   6              		.eabi_attribute 23, 3
   7              		.eabi_attribute 24, 1
   8              		.eabi_attribute 25, 1
   9              		.eabi_attribute 26, 1
  10              		.eabi_attribute 30, 2
  11              		.eabi_attribute 34, 1
  12              		.eabi_attribute 18, 4
  13              		.thumb
  14              		.file	"entropy_poll.c"
  15              		.text
  16              	.Ltext0:
  17              		.cfi_sections	.debug_frame
  18              		.section	.text.hardclock_poll,"ax",%progbits
  19              		.align	2
  20              		.p2align 4,,15
  21              		.global	hardclock_poll
  22              		.thumb
  23              		.thumb_func
  24              		.type	hardclock_poll, %function
  25              	hardclock_poll:
  26              	.LFB0:
  27              		.file 1 "../../../ext/mbedtls-1.3.11/library/entropy_poll.c"
  28              		.loc 1 179 0
  29              		.cfi_startproc
  30              		@ args = 0, pretend = 0, frame = 8
  31              		@ frame_needed = 0, uses_anonymous_args = 0
  32              	.LVL0:
  33 0000 70B5     		push	{r4, r5, r6, lr}
  34              		.cfi_def_cfa_offset 16
  35              		.cfi_offset 4, -16
  36              		.cfi_offset 5, -12
  37              		.cfi_offset 6, -8
  38              		.cfi_offset 14, -4
  39 0002 82B0     		sub	sp, sp, #8
  40              		.cfi_def_cfa_offset 24
  41              		.loc 1 179 0
  42 0004 1C46     		mov	r4, r3
  43 0006 1546     		mov	r5, r2
  44 0008 0E46     		mov	r6, r1
  45              		.loc 1 180 0
  46 000a FFF7FEFF 		bl	hardclock
  47              	.LVL1:
  48              		.loc 1 182 0
  49 000e 0023     		movs	r3, #0
  50              		.loc 1 184 0
  51 0010 032D     		cmp	r5, #3
  52              		.loc 1 180 0
  53 0012 0190     		str	r0, [sp, #4]
  54              		.loc 1 182 0
  55 0014 2360     		str	r3, [r4]
  56              		.loc 1 184 0
  57 0016 03D9     		bls	.L2
ARM GAS  C:\Users\jo\AppData\Local\Temp\ccNww304.s 			page 2


  58              		.loc 1 187 0
  59 0018 0198     		ldr	r0, [sp, #4]	@ unaligned
  60 001a 3060     		str	r0, [r6]	@ unaligned
  61              		.loc 1 188 0
  62 001c 0423     		movs	r3, #4
  63 001e 2360     		str	r3, [r4]
  64              	.L2:
  65              		.loc 1 191 0
  66 0020 0020     		movs	r0, #0
  67 0022 02B0     		add	sp, sp, #8
  68              		.cfi_def_cfa_offset 16
  69              		@ sp needed
  70 0024 70BD     		pop	{r4, r5, r6, pc}
  71              		.cfi_endproc
  72              	.LFE0:
  73              		.size	hardclock_poll, .-hardclock_poll
  74 0026 00BFAFF3 		.text
  74      0080AFF3 
  74      0080
  75              	.Letext0:
  76              		.file 2 "c:\\program files\\gnu tools arm embedded\\4.9 2014q4\\lib\\gcc\\arm-none-eabi\\4.9.3\\in
  77              		.file 3 "../../../ext/mbedtls-1.3.11/library/../include/polarssl/timing.h"