ARM GAS  C:\Users\jo\AppData\Local\Temp\ccJrjCse.s 			page 1


   1              		.syntax unified
   2              		.cpu cortex-m4
   3              		.fpu softvfp
   4              		.eabi_attribute 20, 1
   5              		.eabi_attribute 21, 1
   6              		.eabi_attribute 23, 3
   7              		.eabi_attribute 24, 1
   8              		.eabi_attribute 25, 1
   9              		.eabi_attribute 26, 1
  10              		.eabi_attribute 30, 2
  11              		.eabi_attribute 34, 1
  12              		.eabi_attribute 18, 4
  13              		.thumb
  14              		.file	"evtimer.c"
  15              		.text
  16              	.Ltext0:
  17              		.cfi_sections	.debug_frame
  18              		.section	.text.tmrcb,"ax",%progbits
  19              		.align	2
  20              		.p2align 4,,15
  21              		.thumb
  22              		.thumb_func
  23              		.type	tmrcb, %function
  24              	tmrcb:
  25              	.LFB229:
  26              		.file 1 "../../../os/various/evtimer.c"
  27              		.loc 1 48 0
  28              		.cfi_startproc
  29              		@ args = 0, pretend = 0, frame = 0
  30              		@ frame_needed = 0, uses_anonymous_args = 0
  31              	.LVL0:
  32 0000 10B5     		push	{r4, lr}
  33              		.cfi_def_cfa_offset 8
  34              		.cfi_offset 4, -8
  35              		.cfi_offset 14, -4
  36              	.LBB66:
  37              	.LBB67:
  38              	.LBB68:
  39              	.LBB69:
  40              	.LBB70:
  41              	.LBB71:
  42              		.file 2 "../../../os/ext/CMSIS/include/core_cmFunc.h"
  43              		.loc 2 546 0
  44 0002 2023     		movs	r3, #32
  45              	.LBE71:
  46              	.LBE70:
  47              	.LBE69:
  48              	.LBE68:
  49              	.LBE67:
  50              	.LBE66:
  51              		.loc 1 48 0
  52 0004 0446     		mov	r4, r0
  53              	.LVL1:
  54              	.LBB77:
  55              	.LBB76:
  56              	.LBB75:
  57              	.LBB74:
ARM GAS  C:\Users\jo\AppData\Local\Temp\ccJrjCse.s 			page 2


  58              	.LBB73:
  59              	.LBB72:
  60              		.loc 2 546 0
  61              	@ 546 "../../../os/ext/CMSIS/include/core_cmFunc.h" 1
  62 0006 83F31188 		MSR basepri, r3
  63              	@ 0 "" 2
  64              		.thumb
  65              	.LBE72:
  66              	.LBE73:
  67              	.LBE74:
  68              	.LBE75:
  69              		.file 3 "../../../os/rt/include/chsys.h"
  70              		.loc 3 390 0
  71 000a FFF7FEFF 		bl	_dbg_check_lock_from_isr
  72              	.LVL2:
  73              	.LBE76:
  74              	.LBE77:
  75              	.LBB78:
  76              	.LBB79:
  77              		.file 4 "../../../os/rt/include/chevents.h"
  78              		.loc 4 256 0
  79 000e 04F11400 		add	r0, r4, #20
  80              	.LVL3:
  81 0012 0021     		movs	r1, #0
  82 0014 FFF7FEFF 		bl	chEvtBroadcastFlagsI
  83              	.LVL4:
  84              	.LBE79:
  85              	.LBE78:
  86              		.loc 1 53 0
  87 0018 2346     		mov	r3, r4
  88 001a 2046     		mov	r0, r4
  89 001c A169     		ldr	r1, [r4, #24]
  90 001e 044A     		ldr	r2, .L3
  91 0020 FFF7FEFF 		bl	chVTDoSetI
  92              	.LVL5:
  93              	.LBB80:
  94              	.LBB81:
  95              		.loc 3 408 0
  96 0024 FFF7FEFF 		bl	_dbg_check_unlock_from_isr
  97              	.LVL6:
  98              	.LBB82:
  99              	.LBB83:
 100              	.LBB84:
 101              	.LBB85:
 102              		.loc 2 546 0
 103 0028 0023     		movs	r3, #0
 104              	@ 546 "../../../os/ext/CMSIS/include/core_cmFunc.h" 1
 105 002a 83F31188 		MSR basepri, r3
 106              	@ 0 "" 2
 107              		.thumb
 108 002e 10BD     		pop	{r4, pc}
 109              	.LVL7:
 110              	.L4:
 111              		.align	2
 112              	.L3:
 113 0030 00000000 		.word	tmrcb
 114              	.LBE85:
ARM GAS  C:\Users\jo\AppData\Local\Temp\ccJrjCse.s 			page 3


 115              	.LBE84:
 116              	.LBE83:
 117              	.LBE82:
 118              	.LBE81:
 119              	.LBE80:
 120              		.cfi_endproc
 121              	.LFE229:
 122              		.size	tmrcb, .-tmrcb
 123 0034 AFF30080 		.section	.text.evtObjectInit,"ax",%progbits
 123      AFF30080 
 123      AFF30080 
 124              		.align	2
 125              		.p2align 4,,15
 126              		.global	evtObjectInit
 127              		.thumb
 128              		.thumb_func
 129              		.type	evtObjectInit, %function
 130              	evtObjectInit:
 131              	.LFB230:
 132              		.loc 1 67 0
 133              		.cfi_startproc
 134              		@ args = 0, pretend = 0, frame = 0
 135              		@ frame_needed = 0, uses_anonymous_args = 0
 136              		@ link register save eliminated.
 137              	.LVL8:
 138              		.loc 1 69 0
 139 0000 00F11402 		add	r2, r0, #20
 140              	.LVL9:
 141              	.LBB86:
 142              	.LBB87:
 143              		.file 5 "../../../os/rt/include/chvt.h"
 144              		.loc 5 212 0
 145 0004 0023     		movs	r3, #0
 146              	.LBE87:
 147              	.LBE86:
 148              		.loc 1 71 0
 149 0006 8161     		str	r1, [r0, #24]
 150              	.LBB89:
 151              	.LBB90:
 152              		.loc 4 172 0
 153 0008 4261     		str	r2, [r0, #20]
 154              	.LVL10:
 155              	.LBE90:
 156              	.LBE89:
 157              	.LBB91:
 158              	.LBB88:
 159              		.loc 5 212 0
 160 000a C360     		str	r3, [r0, #12]
 161 000c 7047     		bx	lr
 162              	.LBE88:
 163              	.LBE91:
 164              		.cfi_endproc
 165              	.LFE230:
 166              		.size	evtObjectInit, .-evtObjectInit
 167 000e 00BF     		.section	.text.evtStart,"ax",%progbits
 168              		.align	2
 169              		.p2align 4,,15
ARM GAS  C:\Users\jo\AppData\Local\Temp\ccJrjCse.s 			page 4


 170              		.global	evtStart
 171              		.thumb
 172              		.thumb_func
 173              		.type	evtStart, %function
 174              	evtStart:
 175              	.LFB231:
 176              		.loc 1 80 0
 177              		.cfi_startproc
 178              		@ args = 0, pretend = 0, frame = 0
 179              		@ frame_needed = 0, uses_anonymous_args = 0
 180              	.LVL11:
 181 0000 38B5     		push	{r3, r4, r5, lr}
 182              		.cfi_def_cfa_offset 16
 183              		.cfi_offset 3, -16
 184              		.cfi_offset 4, -12
 185              		.cfi_offset 5, -8
 186              		.cfi_offset 14, -4
 187              		.loc 1 80 0
 188 0002 0446     		mov	r4, r0
 189              	.LBB110:
 190              	.LBB111:
 191              	.LBB112:
 192              	.LBB113:
 193              	.LBB114:
 194              	.LBB115:
 195              		.loc 2 546 0
 196 0004 2023     		movs	r3, #32
 197              	.LBE115:
 198              	.LBE114:
 199              	.LBE113:
 200              	.LBE112:
 201              	.LBE111:
 202              	.LBE110:
 203              		.loc 1 82 0
 204 0006 8569     		ldr	r5, [r0, #24]
 205              	.LVL12:
 206              	.LBB132:
 207              	.LBB120:
 208              	.LBB119:
 209              	.LBB118:
 210              	.LBB117:
 211              	.LBB116:
 212              		.loc 2 546 0
 213              	@ 546 "../../../os/ext/CMSIS/include/core_cmFunc.h" 1
 214 0008 83F31188 		MSR basepri, r3
 215              	@ 0 "" 2
 216              		.thumb
 217              	.LBE116:
 218              	.LBE117:
 219              	.LBE118:
 220              		.loc 3 350 0
 221 000c FFF7FEFF 		bl	_dbg_check_lock
 222              	.LVL13:
 223              	.LBE119:
 224              	.LBE120:
 225              	.LBB121:
 226              	.LBB122:
ARM GAS  C:\Users\jo\AppData\Local\Temp\ccJrjCse.s 			page 5


 227              	.LBB123:
 228              	.LBB124:
 229              	.LBB125:
 230              	.LBB126:
 231              		.loc 5 339 0
 232 0010 FFF7FEFF 		bl	chDbgCheckClassI
 233              	.LVL14:
 234              	.LBE126:
 235              	.LBE125:
 236              		.loc 5 376 0
 237 0014 E368     		ldr	r3, [r4, #12]
 238 0016 13B1     		cbz	r3, .L7
 239              		.loc 5 377 0
 240 0018 2046     		mov	r0, r4
 241 001a FFF7FEFF 		bl	chVTDoResetI
 242              	.LVL15:
 243              	.L7:
 244              	.LBE124:
 245              	.LBE123:
 246              		.loc 5 424 0
 247 001e 2346     		mov	r3, r4
 248 0020 0B4A     		ldr	r2, .L14
 249 0022 2946     		mov	r1, r5
 250 0024 2046     		mov	r0, r4
 251 0026 FFF7FEFF 		bl	chVTDoSetI
 252              	.LVL16:
 253              	.LBE122:
 254              	.LBE121:
 255              	.LBB127:
 256              	.LBB128:
 257              		.loc 3 360 0
 258 002a FFF7FEFF 		bl	_dbg_check_unlock
 259              	.LVL17:
 260              		.loc 3 367 0
 261 002e 094B     		ldr	r3, .L14+4
 262 0030 1A68     		ldr	r2, [r3]
 263 0032 9A42     		cmp	r2, r3
 264 0034 07D0     		beq	.L8
 265 0036 9969     		ldr	r1, [r3, #24]
 266 0038 9368     		ldr	r3, [r2, #8]
 267 003a 8A68     		ldr	r2, [r1, #8]
 268 003c 9A42     		cmp	r2, r3
 269 003e 02D2     		bcs	.L8
 270 0040 0548     		ldr	r0, .L14+8
 271 0042 FFF7FEFF 		bl	chSysHalt
 272              	.LVL18:
 273              	.L8:
 274              	.LBB129:
 275              	.LBB130:
 276              	.LBB131:
 277              		.loc 2 546 0
 278 0046 0023     		movs	r3, #0
 279              	@ 546 "../../../os/ext/CMSIS/include/core_cmFunc.h" 1
 280 0048 83F31188 		MSR basepri, r3
 281              	@ 0 "" 2
 282              		.thumb
 283 004c 38BD     		pop	{r3, r4, r5, pc}
ARM GAS  C:\Users\jo\AppData\Local\Temp\ccJrjCse.s 			page 6


 284              	.LVL19:
 285              	.L15:
 286 004e 00BF     		.align	2
 287              	.L14:
 288 0050 00000000 		.word	tmrcb
 289 0054 00000000 		.word	ch
 290 0058 00000000 		.word	.LANCHOR0
 291              	.LBE131:
 292              	.LBE130:
 293              	.LBE129:
 294              	.LBE128:
 295              	.LBE127:
 296              	.LBE132:
 297              		.cfi_endproc
 298              	.LFE231:
 299              		.size	evtStart, .-evtStart
 300 005c AFF30080 		.section	.rodata.__func__.5854,"a",%progbits
 301              		.align	2
 302              		.set	.LANCHOR0,. + 0
 303              		.type	__func__.5854, %object
 304              		.size	__func__.5854, 12
 305              	__func__.5854:
 306 0000 63685379 		.ascii	"chSysUnlock\000"
 306      73556E6C 
 306      6F636B00 
 307              		.text
 308              	.Letext0:
 309              		.file 6 "c:\\program files\\gnu tools arm embedded\\4.9 2014q4\\arm-none-eabi\\include\\machine\\_
 310              		.file 7 "c:\\program files\\gnu tools arm embedded\\4.9 2014q4\\arm-none-eabi\\include\\stdint.h"
 311              		.file 8 "../../../os/rt/ports/ARMCMx/compilers/GCC/chtypes.h"
 312              		.file 9 "../../../os/rt/include/chsystypes.h"
 313              		.file 10 "../../../os/rt/include/chschd.h"
 314              		.file 11 "../../../os/rt/ports/ARMCMx/chcore.h"
 315              		.file 12 "../../../os/rt/ports/ARMCMx/chcore_v7m.h"
 316              		.file 13 "../../../os/rt/include/chdebug.h"
 317              		.file 14 "../../../os/rt/include/chtm.h"
 318              		.file 15 "../../../os/rt/include/chsem.h"
 319              		.file 16 "../../../os/rt/include/chmtx.h"
 320              		.file 17 "../../../os/various/evtimer.h"
 321              		.file 18 "../../../os/ext/CMSIS/include/core_cm4.h"