ARM GAS  C:\Users\jo\AppData\Local\Temp\ccJrjCse.s 			page 1


   1              		.syntax unified
   2              		.cpu cortex-m4
   3              		.fpu softvfp
   4              		.eabi_attribute 20, 1
   5              		.eabi_attribute 21, 1
   6              		.eabi_attribute 23, 3
   7              		.eabi_attribute 24, 1
   8              		.eabi_attribute 25, 1
   9              		.eabi_attribute 26, 1
  10              		.eabi_attribute 30, 2
  11              		.eabi_attribute 34, 1
  12              		.eabi_attribute 18, 4
  13              		.thumb
  14              		.file	"evtimer.c"
  15              		.text
  16              	.Ltext0:
  17              		.cfi_sections	.debug_frame
  18              		.section	.text.tmrcb,"ax",%progbits
  19              		.align	2
  20              		.p2align 4,,15
  21              		.thumb
  22              		.thumb_func
  23              		.type	tmrcb, %function
  24              	tmrcb:
  25              	.LFB229:
  26              		.file 1 "../../../os/various/evtimer.c"
  27              		.loc 1 48 0
  28              		.cfi_startproc
  29              		@ args = 0, pretend = 0, frame = 0
  30              		@ frame_needed = 0, uses_anonymous_args = 0
  31              	.LVL0:
  32 0000 10B5     		push	{r4, lr}
  33              		.cfi_def_cfa_offset 8
  34              		.cfi_offset 4, -8
  35              		.cfi_offset 14, -4
  36              	.LBB66:
  37              	.LBB67:
  38              	.LBB68:
  39              	.LBB69:
  40              	.LBB70:
  41              	.LBB71:
  42              		.file 2 "../../../os/ext/CMSIS/include/core_cmFunc.h"
  43              		.loc 2 546 0
  44 0002 2023     		movs	r3, #32
  45              	.LBE71:
  46              	.LBE70:
  47              	.LBE69:
  48              	.LBE68:
  49              	.LBE67:
  50              	.LBE66:
  51              		.loc 1 48 0
  52 0004 0446     		mov	r4, r0
  53              	.LVL1:
  54              	.LBB77:
  55              	.LBB76:
  56              	.LBB75:
  57              	.LBB74:
ARM GAS  C:\Users\jo\AppData\Local\Temp\ccJrjCse.s 			page 2


  58              	.LBB73:
  59              	.LBB72:
  60              		.loc 2 546 0
  61              	@ 546 "../../../os/ext/CMSIS/include/core_cmFunc.h" 1
  62 0006 83F31188 		MSR basepri, r3
  63              	@ 0 "" 2
  64              		.thumb
  65              	.LBE72:
  66              	.LBE73:
  67              	.LBE74:
  68              	.LBE75:
  69              		.file 3 "../../../os/rt/include/chsys.h"
  70              		.loc 3 390 0
  71 000a FFF7FEFF 		bl	_dbg_check_lock_from_isr
  72              	.LVL2:
  73              	.LBE76:
  74              	.LBE77:
  75              	.LBB78:
  76              	.LBB79:
  77              		.file 4 "../../../os/rt/include/chevents.h"
  78              		.loc 4 256 0
  79 000e 04F11400 		add	r0, r4, #20
  80              	.LVL3:
  81 0012 0021     		movs	r1, #0
  82 0014 FFF7FEFF 		bl	chEvtBroadcastFlagsI
  83              	.LVL4:
  84              	.LBE79:
  85              	.LBE78:
  86              		.loc 1 53 0
  87 0018 2346     		mov	r3, r4
  88 001a 2046     		mov	r0, r4
  89 001c A169     		ldr	r1, [r4, #24]
  90 001e 044A     		ldr	r2, .L3
  91 0020 FFF7FEFF 		bl	chVTDoSetI
  92              	.LVL5:
  93              	.LBB80:
  94              	.LBB81:
  95              		.loc 3 408 0
  96 0024 FFF7FEFF 		bl	_dbg_check_unlock_from_isr
  97              	.LVL6:
  98              	.LBB82:
  99              	.LBB83:
 100              	.LBB84:
 101              	.LBB85:
 102              		.loc 2 546 0
 103 0028 0023     		movs	r3, #0
 104              	@ 546 "../../../os/ext/CMSIS/include/core_cmFunc.h" 1
 105 002a 83F31188 		MSR basepri, r3
 106              	@ 0 "" 2
 107              		.thumb
 108 002e 10BD     		pop	{r4, pc}
 109              	.LVL7:
 110              	.L4:
 111              		.align	2
 112              	.L3:
 113 0030 00000000 		.word	tmrcb
 114              	.LBE85:
ARM GAS  C:\Users\jo\AppData\Local\Temp\ccJrjCse.s 			page 3


 115              	.LBE84:
 116              	.LBE83:
 117              	.LBE82:
 118              	.LBE81:
 119              	.LBE80:
 120              		.cfi_endproc
 121              	.LFE229:
 122              		.size	tmrcb, .-tmrcb
 123 0034 AFF30080 		.section	.text.evtObjectInit,"ax",%progbits
 123      AFF30080 
 123      AFF30080 
 124              		.align	2
 125              		.p2align 4,,15
 126              		.global	evtObjectInit
 127              		.thumb
 128              		.thumb_func
 129              		.type	evtObjectInit, %function
 130              	evtObjectInit:
 131              	.LFB230:
 132              		.loc 1 67 0
 133              		.cfi_startproc
 134              		@ args = 0, pretend = 0, frame = 0
 135              		@ frame_needed = 0, uses_anonymous_args = 0
 136              		@ link register save eliminated.
 137              	.LVL8:
 138              		.loc 1 69 0
 139 0000 00F11402 		add	r2, r0, #20
 140              	.LVL9:
 141              	.LBB86:
 142              	.LBB87:
 143              		.file 5 "../../../os/rt/include/chvt.h"
 144              		.loc 5 212 0
 145 0004 0023     		movs	r3, #0
 146              	.LBE87:
 147              	.LBE86:
 148              		.loc 1 71 0
 149 0006 8161     		str	r1, [r0, #24]
 150              	.LBB89:
 151              	.LBB90:
 152              		.loc 4 172 0
 153 0008 4261     		str	r2, [r0, #20]
 154              	.LVL10:
 155              	.LBE90:
 156              	.LBE89:
 157              	.LBB91:
 158              	.LBB88:
 159              		.loc 5 212 0
 160 000a C360     		str	r3, [r0, #12]
 161 000c 7047     		bx	lr
 162              	.LBE88:
 163              	.LBE91:
 164              		.cfi_endproc
 165              	.LFE230:
 166              		.size	evtObjectInit, .-evtObjectInit
 167 000e 00BF     		.section	.text.evtStart,"ax",%progbits
 168              		.align	2
 169              		.p2align 4,,15
ARM GAS  C:\Users\jo\AppData\Local\Temp\ccJrjCse.s 			page 4


 170              		.global	evtStart
 171              		.thumb
 172              		.thumb_func
 173              		.type	evtStart, %function
 174              	evtStart:
 175              	.LFB231:
 176              		.loc 1 80 0
 177              		.cfi_startproc
 178              		@ args = 0, pretend = 0, frame = 0
 179              		@ frame_needed = 0, uses_anonymous_args = 0
 180              	.LVL11:
 181 0000 38B5     		push	{r3, r4, r5, lr}
 182              		.cfi_def_cfa_offset 16
 183              		.cfi_offset 3, -16
 184              		.cfi_offset 4, -12
 185              		.cfi_offset 5, -8
 186              		.cfi_offset 14, -4
 187              		.loc 1 80 0
 188 0002 0446     		mov	r4, r0
 189              	.LBB110:
 190              	.LBB111:
 191              	.LBB112:
 192              	.LBB113:
 193              	.LBB114:
 194              	.LBB115:
 195              		.loc 2 546 0
 196 0004 2023     		movs	r3, #32
 197              	.LBE115:
 198              	.LBE114:
 199              	.LBE113:
 200              	.LBE112:
 201              	.LBE111:
 202              	.LBE110:
 203              		.loc 1 82 0
 204 0006 8569     		ldr	r5, [r0, #24]
 205              	.LVL12:
 206              	.LBB132:
 207              	.LBB120:
 208              	.LBB119:
 209              	.LBB118:
 210              	.LBB117:
 211              	.LBB116:
 212              		.loc 2 546 0
 213              	@ 546 "../../../os/ext/CMSIS/include/core_cmFunc.h" 1
 214 0008 83F31188 		MSR basepri, r3
 215              	@ 0 "" 2
 216              		.thumb
 217              	.LBE116:
 218              	.LBE117:
 219              	.LBE118:
 220              		.loc 3 350 0
 221 000c FFF7FEFF 		bl	_dbg_check_lock
 222              	.LVL13:
 223              	.LBE119:
 224              	.LBE120:
 225              	.LBB121:
 226              	.LBB122:
ARM GAS  C:\Users\jo\AppData\Local\Temp\ccJrjCse.s 			page 5


 227              	.LBB123:
 228              	.LBB124:
 229              	.LBB125:
 230              	.LBB126:
 231              		.loc 5 339 0
 232 0010 FFF7FEFF 		bl	chDbgCheckClassI
 233              	.LVL14:
 234              	.LBE126:
 235              	.LBE125:
 236              		.loc 5 376 0
 237 0014 E368     		ldr	r3, [r4, #12]
 238 0016 13B1     		cbz	r3, .L7
 239              		.loc 5 377 0
 240 0018 2046     		mov	r0, r4
 241 001a FFF7FEFF 		bl	chVTDoResetI
 242              	.LVL15:
 243              	.L7:
 244              	.LBE124:
 245              	.LBE123:
 246              		.loc 5 424 0
 247 001e 2346     		mov	r3, r4
 248 0020 0B4A     		ldr	r2, .L14
 249 0022 2946     		mov	r1, r5
 250 0024 2046     		mov	r0, r4
 251 0026 FFF7FEFF 		bl	chVTDoSetI
 252              	.LVL16:
 253              	.LBE122:
 254              	.LBE121:
 255              	.LBB127:
 256              	.LBB128:
 257              		.loc 3 360 0
 258 002a FFF7FEFF 		bl	_dbg_check_unlock
 259              	.LVL17:
 260              		.loc 3 367 0
 261 002e 094B     		ldr	r3, .L14+4
 262 0030 1A68     		ldr	r2, [r3]
 263 0032 9A42     		cmp	r2, r3
 264 0034 07D0     		beq	.L8
 265 0036 9969     		ldr	r1, [r3, #24]
 266 0038 9368     		ldr	r3, [r2, #8]
 267 003a 8A68     		ldr	r2, [r1, #8]
 268 003c 9A42     		cmp	r2, r3
 269 003e 02D2     		bcs	.L8
 270 0040 0548     		ldr	r0, .L14+8
 271 0042 FFF7FEFF 		bl	chSysHalt
 272              	.LVL18:
 273              	.L8:
 274              	.LBB129:
 275              	.LBB130:
 276              	.LBB131:
 277              		.loc 2 546 0
 278 0046 0023     		movs	r3, #0
 279              	@ 546 "../../../os/ext/CMSIS/include/core_cmFunc.h" 1
 280 0048 83F31188 		MSR basepri, r3
 281              	@ 0 "" 2
 282              		.thumb
 283 004c 38BD     		pop	{r3, r4, r5, pc}
ARM GAS  C:\Users\jo\AppData\Local\Temp\ccJrjCse.s 			page 6


 284              	.LVL19:
 285              	.L15:
 286 004e 00BF     		.align	2
 287              	.L14:
 288 0050 00000000 		.word	tmrcb
 289 0054 00000000 		.word	ch
 290 0058 00000000 		.word	.LANCHOR0
 291              	.LBE131:
 292              	.LBE130:
 293              	.LBE129:
 294              	.LBE128:
 295              	.LBE127:
 296              	.LBE132:
 297              		.cfi_endproc
 298              	.LFE231:
 299              		.size	evtStart, .-evtStart
 300 005c AFF30080 		.section	.rodata.__func__.5854,"a",%progbits
 301              		.align	2
 302              		.set	.LANCHOR0,. + 0
 303              		.type	__func__.5854, %object
 304              		.size	__func__.5854, 12
 305              	__func__.5854:
 306 0000 63685379 		.ascii	"chSysUnlock\000"
 306      73556E6C 
 306      6F636B00 
 307              		.text
 308              	.Letext0:
 309              		.file 6 "c:\\program files\\gnu tools arm embedded\\4.9 2014q4\\arm-none-eabi\\include\\machine\\_
 310              		.file 7 "c:\\program files\\gnu tools arm embedded\\4.9 2014q4\\arm-none-eabi\\include\\stdint.h"
 311              		.file 8 "../../../os/rt/ports/ARMCMx/compilers/GCC/chtypes.h"
 312              		.file 9 "../../../os/rt/include/chsystypes.h"
 313              		.file 10 "../../../os/rt/include/chschd.h"
 314              		.file 11 "../../../os/rt/ports/ARMCMx/chcore.h"
 315              		.file 12 "../../../os/rt/ports/ARMCMx/chcore_v7m.h"
 316              		.file 13 "../../../os/rt/include/chdebug.h"
 317              		.file 14 "../../../os/rt/include/chtm.h"
 318              		.file 15 "../../../os/rt/include/chsem.h"
 319              		.file 16 "../../../os/rt/include/chmtx.h"
 320              		.file 17 "../../../os/various/evtimer.h"
 321              		.file 18 "../../../os/ext/CMSIS/include/core_cm4.h"
 322              		.section	.debug_info,"",%progbits
 323              	.Ldebug_info0:
 324 0000 310D0000 		.4byte	0xd31
 325 0004 0400     		.2byte	0x4
 326 0006 00000000 		.4byte	.Ldebug_abbrev0
 327 000a 04       		.byte	0x4
 328 000b 01       		.uleb128 0x1
 329 000c 44030000 		.4byte	.LASF160
 330 0010 01       		.byte	0x1
 331 0011 1D050000 		.4byte	.LASF161
 332 0015 15010000 		.4byte	.LASF162
 333 0019 90000000 		.4byte	.Ldebug_ranges0+0x90
 334 001d 00000000 		.4byte	0
 335 0021 00000000 		.4byte	.Ldebug_line0
 336 0025 02       		.uleb128 0x2
 337 0026 04       		.byte	0x4
 338 0027 05       		.byte	0x5
ARM GAS  C:\Users\jo\AppData\Local\Temp\ccJrjCse.s 			page 7


 339 0028 696E7400 		.ascii	"int\000"
 340 002c 03       		.uleb128 0x3
 341 002d 04       		.byte	0x4
 342 002e 07       		.byte	0x7
 343 002f 55020000 		.4byte	.LASF0
 344 0033 03       		.uleb128 0x3
 345 0034 01       		.byte	0x1
 346 0035 06       		.byte	0x6
 347 0036 71010000 		.4byte	.LASF1
 348 003a 04       		.uleb128 0x4
 349 003b 4A000000 		.4byte	.LASF5
 350 003f 06       		.byte	0x6
 351 0040 1D       		.byte	0x1d
 352 0041 45000000 		.4byte	0x45
 353 0045 03       		.uleb128 0x3
 354 0046 01       		.byte	0x1
 355 0047 08       		.byte	0x8
 356 0048 9D050000 		.4byte	.LASF2
 357 004c 03       		.uleb128 0x3
 358 004d 02       		.byte	0x2
 359 004e 05       		.byte	0x5
 360 004f CA050000 		.4byte	.LASF3
 361 0053 03       		.uleb128 0x3
 362 0054 02       		.byte	0x2
 363 0055 07       		.byte	0x7
 364 0056 9B020000 		.4byte	.LASF4
 365 005a 04       		.uleb128 0x4
 366 005b 2B030000 		.4byte	.LASF6
 367 005f 06       		.byte	0x6
 368 0060 3F       		.byte	0x3f
 369 0061 65000000 		.4byte	0x65
 370 0065 03       		.uleb128 0x3
 371 0066 04       		.byte	0x4
 372 0067 05       		.byte	0x5
 373 0068 AA010000 		.4byte	.LASF7
 374 006c 04       		.uleb128 0x4
 375 006d F3060000 		.4byte	.LASF8
 376 0071 06       		.byte	0x6
 377 0072 41       		.byte	0x41
 378 0073 77000000 		.4byte	0x77
 379 0077 03       		.uleb128 0x3
 380 0078 04       		.byte	0x4
 381 0079 07       		.byte	0x7
 382 007a 93060000 		.4byte	.LASF9
 383 007e 03       		.uleb128 0x3
 384 007f 08       		.byte	0x8
 385 0080 05       		.byte	0x5
 386 0081 63010000 		.4byte	.LASF10
 387 0085 04       		.uleb128 0x4
 388 0086 12050000 		.4byte	.LASF11
 389 008a 06       		.byte	0x6
 390 008b 5B       		.byte	0x5b
 391 008c 90000000 		.4byte	0x90
 392 0090 03       		.uleb128 0x3
 393 0091 08       		.byte	0x8
 394 0092 07       		.byte	0x7
 395 0093 83000000 		.4byte	.LASF12
ARM GAS  C:\Users\jo\AppData\Local\Temp\ccJrjCse.s 			page 8


 396 0097 04       		.uleb128 0x4
 397 0098 A5070000 		.4byte	.LASF13
 398 009c 07       		.byte	0x7
 399 009d 15       		.byte	0x15
 400 009e 3A000000 		.4byte	0x3a
 401 00a2 04       		.uleb128 0x4
 402 00a3 95050000 		.4byte	.LASF14
 403 00a7 07       		.byte	0x7
 404 00a8 2C       		.byte	0x2c
 405 00a9 5A000000 		.4byte	0x5a
 406 00ad 04       		.uleb128 0x4
 407 00ae 65060000 		.4byte	.LASF15
 408 00b2 07       		.byte	0x7
 409 00b3 2D       		.byte	0x2d
 410 00b4 6C000000 		.4byte	0x6c
 411 00b8 04       		.uleb128 0x4
 412 00b9 35000000 		.4byte	.LASF16
 413 00bd 07       		.byte	0x7
 414 00be 39       		.byte	0x39
 415 00bf 85000000 		.4byte	0x85
 416 00c3 05       		.uleb128 0x5
 417 00c4 A2000000 		.4byte	0xa2
 418 00c8 04       		.uleb128 0x4
 419 00c9 25070000 		.4byte	.LASF17
 420 00cd 08       		.byte	0x8
 421 00ce 45       		.byte	0x45
 422 00cf AD000000 		.4byte	0xad
 423 00d3 04       		.uleb128 0x4
 424 00d4 F1050000 		.4byte	.LASF18
 425 00d8 08       		.byte	0x8
 426 00d9 48       		.byte	0x48
 427 00da 97000000 		.4byte	0x97
 428 00de 04       		.uleb128 0x4
 429 00df B3010000 		.4byte	.LASF19
 430 00e3 08       		.byte	0x8
 431 00e4 49       		.byte	0x49
 432 00e5 97000000 		.4byte	0x97
 433 00e9 04       		.uleb128 0x4
 434 00ea 3B050000 		.4byte	.LASF20
 435 00ee 08       		.byte	0x8
 436 00ef 4A       		.byte	0x4a
 437 00f0 97000000 		.4byte	0x97
 438 00f4 04       		.uleb128 0x4
 439 00f5 64050000 		.4byte	.LASF21
 440 00f9 08       		.byte	0x8
 441 00fa 4C       		.byte	0x4c
 442 00fb AD000000 		.4byte	0xad
 443 00ff 04       		.uleb128 0x4
 444 0100 DA020000 		.4byte	.LASF22
 445 0104 08       		.byte	0x8
 446 0105 4D       		.byte	0x4d
 447 0106 A2000000 		.4byte	0xa2
 448 010a 04       		.uleb128 0x4
 449 010b 3E000000 		.4byte	.LASF23
 450 010f 08       		.byte	0x8
 451 0110 4F       		.byte	0x4f
 452 0111 AD000000 		.4byte	0xad
ARM GAS  C:\Users\jo\AppData\Local\Temp\ccJrjCse.s 			page 9


 453 0115 04       		.uleb128 0x4
 454 0116 CD020000 		.4byte	.LASF24
 455 011a 08       		.byte	0x8
 456 011b 50       		.byte	0x50
 457 011c AD000000 		.4byte	0xad
 458 0120 04       		.uleb128 0x4
 459 0121 44020000 		.4byte	.LASF25
 460 0125 08       		.byte	0x8
 461 0126 51       		.byte	0x51
 462 0127 A2000000 		.4byte	0xa2
 463 012b 04       		.uleb128 0x4
 464 012c D5060000 		.4byte	.LASF26
 465 0130 09       		.byte	0x9
 466 0131 33       		.byte	0x33
 467 0132 AD000000 		.4byte	0xad
 468 0136 04       		.uleb128 0x4
 469 0137 C5060000 		.4byte	.LASF27
 470 013b 09       		.byte	0x9
 471 013c 3F       		.byte	0x3f
 472 013d 41010000 		.4byte	0x141
 473 0141 06       		.uleb128 0x6
 474 0142 AE020000 		.4byte	.LASF48
 475 0146 48       		.byte	0x48
 476 0147 0A       		.byte	0xa
 477 0148 C2       		.byte	0xc2
 478 0149 3A020000 		.4byte	0x23a
 479 014d 07       		.uleb128 0x7
 480 014e EA050000 		.4byte	.LASF28
 481 0152 0A       		.byte	0xa
 482 0153 C3       		.byte	0xc3
 483 0154 45020000 		.4byte	0x245
 484 0158 00       		.byte	0
 485 0159 07       		.uleb128 0x7
 486 015a 5D050000 		.4byte	.LASF29
 487 015e 0A       		.byte	0xa
 488 015f C5       		.byte	0xc5
 489 0160 45020000 		.4byte	0x245
 490 0164 04       		.byte	0x4
 491 0165 07       		.uleb128 0x7
 492 0166 0E010000 		.4byte	.LASF30
 493 016a 0A       		.byte	0xa
 494 016b C7       		.byte	0xc7
 495 016c F4000000 		.4byte	0xf4
 496 0170 08       		.byte	0x8
 497 0171 07       		.uleb128 0x7
 498 0172 2D080000 		.4byte	.LASF31
 499 0176 0A       		.byte	0xa
 500 0177 C8       		.byte	0xc8
 501 0178 A0040000 		.4byte	0x4a0
 502 017c 0C       		.byte	0xc
 503 017d 07       		.uleb128 0x7
 504 017e DE010000 		.4byte	.LASF32
 505 0182 0A       		.byte	0xa
 506 0183 CA       		.byte	0xca
 507 0184 45020000 		.4byte	0x245
 508 0188 10       		.byte	0x10
 509 0189 07       		.uleb128 0x7
ARM GAS  C:\Users\jo\AppData\Local\Temp\ccJrjCse.s 			page 10


 510 018a B1040000 		.4byte	.LASF33
 511 018e 0A       		.byte	0xa
 512 018f CB       		.byte	0xcb
 513 0190 45020000 		.4byte	0x245
 514 0194 14       		.byte	0x14
 515 0195 07       		.uleb128 0x7
 516 0196 D0070000 		.4byte	.LASF34
 517 019a 0A       		.byte	0xa
 518 019b D2       		.byte	0xd2
 519 019c B2060000 		.4byte	0x6b2
 520 01a0 18       		.byte	0x18
 521 01a1 07       		.uleb128 0x7
 522 01a2 4A020000 		.4byte	.LASF35
 523 01a6 0A       		.byte	0xa
 524 01a7 D8       		.byte	0xd8
 525 01a8 C4060000 		.4byte	0x6c4
 526 01ac 1C       		.byte	0x1c
 527 01ad 07       		.uleb128 0x7
 528 01ae D4050000 		.4byte	.LASF36
 529 01b2 0A       		.byte	0xa
 530 01b3 DD       		.byte	0xdd
 531 01b4 DE000000 		.4byte	0xde
 532 01b8 20       		.byte	0x20
 533 01b9 07       		.uleb128 0x7
 534 01ba F9050000 		.4byte	.LASF37
 535 01be 0A       		.byte	0xa
 536 01bf E1       		.byte	0xe1
 537 01c0 D3000000 		.4byte	0xd3
 538 01c4 21       		.byte	0x21
 539 01c5 07       		.uleb128 0x7
 540 01c6 BC010000 		.4byte	.LASF38
 541 01ca 0A       		.byte	0xa
 542 01cb E6       		.byte	0xe6
 543 01cc E9000000 		.4byte	0xe9
 544 01d0 22       		.byte	0x22
 545 01d1 08       		.uleb128 0x8
 546 01d2 705F7500 		.ascii	"p_u\000"
 547 01d6 0A       		.byte	0xa
 548 01d7 3101     		.2byte	0x131
 549 01d9 ED050000 		.4byte	0x5ed
 550 01dd 24       		.byte	0x24
 551 01de 09       		.uleb128 0x9
 552 01df 3A040000 		.4byte	.LASF39
 553 01e3 0A       		.byte	0xa
 554 01e4 3601     		.2byte	0x136
 555 01e6 4B020000 		.4byte	0x24b
 556 01ea 28       		.byte	0x28
 557 01eb 09       		.uleb128 0x9
 558 01ec 7A020000 		.4byte	.LASF40
 559 01f0 0A       		.byte	0xa
 560 01f1 3C01     		.2byte	0x13c
 561 01f3 6F020000 		.4byte	0x26f
 562 01f7 2C       		.byte	0x2c
 563 01f8 09       		.uleb128 0x9
 564 01f9 FF070000 		.4byte	.LASF41
 565 01fd 0A       		.byte	0xa
 566 01fe 4001     		.2byte	0x140
ARM GAS  C:\Users\jo\AppData\Local\Temp\ccJrjCse.s 			page 11


 567 0200 FF000000 		.4byte	0xff
 568 0204 34       		.byte	0x34
 569 0205 09       		.uleb128 0x9
 570 0206 5A060000 		.4byte	.LASF42
 571 020a 0A       		.byte	0xa
 572 020b 4601     		.2byte	0x146
 573 020d 0A010000 		.4byte	0x10a
 574 0211 38       		.byte	0x38
 575 0212 09       		.uleb128 0x9
 576 0213 C0050000 		.4byte	.LASF43
 577 0217 0A       		.byte	0xa
 578 0218 4D01     		.2byte	0x14d
 579 021a AC060000 		.4byte	0x6ac
 580 021e 3C       		.byte	0x3c
 581 021f 09       		.uleb128 0x9
 582 0220 DF060000 		.4byte	.LASF44
 583 0224 0A       		.byte	0xa
 584 0225 5101     		.2byte	0x151
 585 0227 F4000000 		.4byte	0xf4
 586 022b 40       		.byte	0x40
 587 022c 09       		.uleb128 0x9
 588 022d 7D010000 		.4byte	.LASF45
 589 0231 0A       		.byte	0xa
 590 0232 5801     		.2byte	0x158
 591 0234 22030000 		.4byte	0x322
 592 0238 44       		.byte	0x44
 593 0239 00       		.byte	0
 594 023a 04       		.uleb128 0x4
 595 023b 53040000 		.4byte	.LASF46
 596 023f 09       		.byte	0x9
 597 0240 44       		.byte	0x44
 598 0241 45020000 		.4byte	0x245
 599 0245 0A       		.uleb128 0xa
 600 0246 04       		.byte	0x4
 601 0247 36010000 		.4byte	0x136
 602 024b 04       		.uleb128 0x4
 603 024c D7070000 		.4byte	.LASF47
 604 0250 09       		.byte	0x9
 605 0251 49       		.byte	0x49
 606 0252 56020000 		.4byte	0x256
 607 0256 06       		.uleb128 0x6
 608 0257 83060000 		.4byte	.LASF49
 609 025b 04       		.byte	0x4
 610 025c 0A       		.byte	0xa
 611 025d B0       		.byte	0xb0
 612 025e 6F020000 		.4byte	0x26f
 613 0262 07       		.uleb128 0x7
 614 0263 EA050000 		.4byte	.LASF28
 615 0267 0A       		.byte	0xa
 616 0268 B1       		.byte	0xb1
 617 0269 45020000 		.4byte	0x245
 618 026d 00       		.byte	0
 619 026e 00       		.byte	0
 620 026f 04       		.uleb128 0x4
 621 0270 69070000 		.4byte	.LASF50
 622 0274 09       		.byte	0x9
 623 0275 50       		.byte	0x50
ARM GAS  C:\Users\jo\AppData\Local\Temp\ccJrjCse.s 			page 12


 624 0276 7A020000 		.4byte	0x27a
 625 027a 06       		.uleb128 0x6
 626 027b FD000000 		.4byte	.LASF51
 627 027f 08       		.byte	0x8
 628 0280 0A       		.byte	0xa
 629 0281 B7       		.byte	0xb7
 630 0282 9F020000 		.4byte	0x29f
 631 0286 07       		.uleb128 0x7
 632 0287 EA050000 		.4byte	.LASF28
 633 028b 0A       		.byte	0xa
 634 028c B8       		.byte	0xb8
 635 028d 45020000 		.4byte	0x245
 636 0291 00       		.byte	0
 637 0292 07       		.uleb128 0x7
 638 0293 5D050000 		.4byte	.LASF29
 639 0297 0A       		.byte	0xa
 640 0298 B9       		.byte	0xb9
 641 0299 45020000 		.4byte	0x245
 642 029d 04       		.byte	0x4
 643 029e 00       		.byte	0
 644 029f 04       		.uleb128 0x4
 645 02a0 13000000 		.4byte	.LASF52
 646 02a4 09       		.byte	0x9
 647 02a5 57       		.byte	0x57
 648 02a6 AA020000 		.4byte	0x2aa
 649 02aa 0B       		.uleb128 0xb
 650 02ab 12030000 		.4byte	.LASF53
 651 02af 1C       		.byte	0x1c
 652 02b0 0A       		.byte	0xa
 653 02b1 9001     		.2byte	0x190
 654 02b3 06030000 		.4byte	0x306
 655 02b7 09       		.uleb128 0x9
 656 02b8 75060000 		.4byte	.LASF54
 657 02bc 0A       		.byte	0xa
 658 02bd 9101     		.2byte	0x191
 659 02bf 6F020000 		.4byte	0x26f
 660 02c3 00       		.byte	0
 661 02c4 09       		.uleb128 0x9
 662 02c5 DC050000 		.4byte	.LASF55
 663 02c9 0A       		.byte	0xa
 664 02ca 9201     		.2byte	0x192
 665 02cc F4000000 		.4byte	0xf4
 666 02d0 08       		.byte	0x8
 667 02d1 09       		.uleb128 0x9
 668 02d2 B9040000 		.4byte	.LASF56
 669 02d6 0A       		.byte	0xa
 670 02d7 9401     		.2byte	0x194
 671 02d9 A0040000 		.4byte	0x4a0
 672 02dd 0C       		.byte	0xc
 673 02de 09       		.uleb128 0x9
 674 02df F6010000 		.4byte	.LASF57
 675 02e3 0A       		.byte	0xa
 676 02e4 9701     		.2byte	0x197
 677 02e6 45020000 		.4byte	0x245
 678 02ea 10       		.byte	0x10
 679 02eb 09       		.uleb128 0x9
 680 02ec E7040000 		.4byte	.LASF58
ARM GAS  C:\Users\jo\AppData\Local\Temp\ccJrjCse.s 			page 13


 681 02f0 0A       		.byte	0xa
 682 02f1 9801     		.2byte	0x198
 683 02f3 45020000 		.4byte	0x245
 684 02f7 14       		.byte	0x14
 685 02f8 09       		.uleb128 0x9
 686 02f9 DD040000 		.4byte	.LASF59
 687 02fd 0A       		.byte	0xa
 688 02fe 9B01     		.2byte	0x19b
 689 0300 45020000 		.4byte	0x245
 690 0304 18       		.byte	0x18
 691 0305 00       		.byte	0
 692 0306 04       		.uleb128 0x4
 693 0307 EA060000 		.4byte	.LASF60
 694 030b 09       		.byte	0x9
 695 030c 5C       		.byte	0x5c
 696 030d 11030000 		.4byte	0x311
 697 0311 0A       		.uleb128 0xa
 698 0312 04       		.byte	0x4
 699 0313 17030000 		.4byte	0x317
 700 0317 0C       		.uleb128 0xc
 701 0318 22030000 		.4byte	0x322
 702 031c 0D       		.uleb128 0xd
 703 031d 22030000 		.4byte	0x322
 704 0321 00       		.byte	0
 705 0322 0E       		.uleb128 0xe
 706 0323 04       		.byte	0x4
 707 0324 04       		.uleb128 0x4
 708 0325 4D050000 		.4byte	.LASF61
 709 0329 09       		.byte	0x9
 710 032a 61       		.byte	0x61
 711 032b 2F030000 		.4byte	0x32f
 712 032f 0B       		.uleb128 0xb
 713 0330 31060000 		.4byte	.LASF62
 714 0334 14       		.byte	0x14
 715 0335 0A       		.byte	0xa
 716 0336 6B01     		.2byte	0x16b
 717 0338 7E030000 		.4byte	0x37e
 718 033c 09       		.uleb128 0x9
 719 033d 62020000 		.4byte	.LASF63
 720 0341 0A       		.byte	0xa
 721 0342 6C01     		.2byte	0x16c
 722 0344 CA060000 		.4byte	0x6ca
 723 0348 00       		.byte	0
 724 0349 09       		.uleb128 0x9
 725 034a 07020000 		.4byte	.LASF64
 726 034e 0A       		.byte	0xa
 727 034f 6D01     		.2byte	0x16d
 728 0351 CA060000 		.4byte	0x6ca
 729 0355 04       		.byte	0x4
 730 0356 09       		.uleb128 0x9
 731 0357 71020000 		.4byte	.LASF65
 732 035b 0A       		.byte	0xa
 733 035c 6E01     		.2byte	0x16e
 734 035e 2B010000 		.4byte	0x12b
 735 0362 08       		.byte	0x8
 736 0363 09       		.uleb128 0x9
 737 0364 33080000 		.4byte	.LASF66
ARM GAS  C:\Users\jo\AppData\Local\Temp\ccJrjCse.s 			page 14


 738 0368 0A       		.byte	0xa
 739 0369 6F01     		.2byte	0x16f
 740 036b 06030000 		.4byte	0x306
 741 036f 0C       		.byte	0xc
 742 0370 09       		.uleb128 0x9
 743 0371 40070000 		.4byte	.LASF67
 744 0375 0A       		.byte	0xa
 745 0376 7101     		.2byte	0x171
 746 0378 22030000 		.4byte	0x322
 747 037c 10       		.byte	0x10
 748 037d 00       		.byte	0
 749 037e 04       		.uleb128 0x4
 750 037f D4000000 		.4byte	.LASF68
 751 0383 09       		.byte	0x9
 752 0384 66       		.byte	0x66
 753 0385 89030000 		.4byte	0x389
 754 0389 0B       		.uleb128 0xb
 755 038a 76040000 		.4byte	.LASF69
 756 038e 10       		.byte	0x10
 757 038f 0A       		.byte	0xa
 758 0390 7B01     		.2byte	0x17b
 759 0392 CB030000 		.4byte	0x3cb
 760 0396 09       		.uleb128 0x9
 761 0397 62020000 		.4byte	.LASF63
 762 039b 0A       		.byte	0xa
 763 039c 7C01     		.2byte	0x17c
 764 039e CA060000 		.4byte	0x6ca
 765 03a2 00       		.byte	0
 766 03a3 09       		.uleb128 0x9
 767 03a4 07020000 		.4byte	.LASF64
 768 03a8 0A       		.byte	0xa
 769 03a9 7E01     		.2byte	0x17e
 770 03ab CA060000 		.4byte	0x6ca
 771 03af 04       		.byte	0x4
 772 03b0 09       		.uleb128 0x9
 773 03b1 71020000 		.4byte	.LASF65
 774 03b5 0A       		.byte	0xa
 775 03b6 8001     		.2byte	0x180
 776 03b8 2B010000 		.4byte	0x12b
 777 03bc 08       		.byte	0x8
 778 03bd 09       		.uleb128 0x9
 779 03be 9C040000 		.4byte	.LASF70
 780 03c2 0A       		.byte	0xa
 781 03c3 8801     		.2byte	0x188
 782 03c5 2B010000 		.4byte	0x12b
 783 03c9 0C       		.byte	0xc
 784 03ca 00       		.byte	0
 785 03cb 04       		.uleb128 0x4
 786 03cc 60000000 		.4byte	.LASF71
 787 03d0 09       		.byte	0x9
 788 03d1 6B       		.byte	0x6b
 789 03d2 D6030000 		.4byte	0x3d6
 790 03d6 0F       		.uleb128 0xf
 791 03d7 7F050000 		.4byte	.LASF72
 792 03db 1404     		.2byte	0x414
 793 03dd 0A       		.byte	0xa
 794 03de A201     		.2byte	0x1a2
ARM GAS  C:\Users\jo\AppData\Local\Temp\ccJrjCse.s 			page 15


 795 03e0 19040000 		.4byte	0x419
 796 03e4 09       		.uleb128 0x9
 797 03e5 0C070000 		.4byte	.LASF73
 798 03e9 0A       		.byte	0xa
 799 03ea AA01     		.2byte	0x1aa
 800 03ec D0060000 		.4byte	0x6d0
 801 03f0 00       		.byte	0
 802 03f1 09       		.uleb128 0x9
 803 03f2 8A070000 		.4byte	.LASF74
 804 03f6 0A       		.byte	0xa
 805 03f7 AF01     		.2byte	0x1af
 806 03f9 20010000 		.4byte	0x120
 807 03fd 04       		.byte	0x4
 808 03fe 09       		.uleb128 0x9
 809 03ff 1D020000 		.4byte	.LASF75
 810 0403 0A       		.byte	0xa
 811 0404 B301     		.2byte	0x1b3
 812 0406 20010000 		.4byte	0x120
 813 040a 08       		.byte	0x8
 814 040b 09       		.uleb128 0x9
 815 040c E6070000 		.4byte	.LASF76
 816 0410 0A       		.byte	0xa
 817 0411 B901     		.2byte	0x1b9
 818 0413 C2050000 		.4byte	0x5c2
 819 0417 0C       		.byte	0xc
 820 0418 00       		.byte	0
 821 0419 04       		.uleb128 0x4
 822 041a F1020000 		.4byte	.LASF77
 823 041e 09       		.byte	0x9
 824 041f 70       		.byte	0x70
 825 0420 24040000 		.4byte	0x424
 826 0424 0F       		.uleb128 0xf
 827 0425 A0010000 		.4byte	.LASF78
 828 0429 7005     		.2byte	0x570
 829 042b 0A       		.byte	0xa
 830 042c C201     		.2byte	0x1c2
 831 042e 83040000 		.4byte	0x483
 832 0432 09       		.uleb128 0x9
 833 0433 92070000 		.4byte	.LASF79
 834 0437 0A       		.byte	0xa
 835 0438 C601     		.2byte	0x1c6
 836 043a 9F020000 		.4byte	0x29f
 837 043e 00       		.byte	0
 838 043f 09       		.uleb128 0x9
 839 0440 8D010000 		.4byte	.LASF80
 840 0444 0A       		.byte	0xa
 841 0445 CA01     		.2byte	0x1ca
 842 0447 7E030000 		.4byte	0x37e
 843 044b 1C       		.byte	0x1c
 844 044c 08       		.uleb128 0x8
 845 044d 64626700 		.ascii	"dbg\000"
 846 0451 0A       		.byte	0xa
 847 0452 CE01     		.2byte	0x1ce
 848 0454 CB030000 		.4byte	0x3cb
 849 0458 2C       		.byte	0x2c
 850 0459 10       		.uleb128 0x10
 851 045a C2020000 		.4byte	.LASF81
ARM GAS  C:\Users\jo\AppData\Local\Temp\ccJrjCse.s 			page 16


 852 045e 0A       		.byte	0xa
 853 045f D201     		.2byte	0x1d2
 854 0461 36010000 		.4byte	0x136
 855 0465 4004     		.2byte	0x440
 856 0467 11       		.uleb128 0x11
 857 0468 746D00   		.ascii	"tm\000"
 858 046b 0A       		.byte	0xa
 859 046c D701     		.2byte	0x1d7
 860 046e E2050000 		.4byte	0x5e2
 861 0472 8804     		.2byte	0x488
 862 0474 10       		.uleb128 0x10
 863 0475 35020000 		.4byte	.LASF82
 864 0479 0A       		.byte	0xa
 865 047a E301     		.2byte	0x1e3
 866 047c D5060000 		.4byte	0x6d5
 867 0480 9004     		.2byte	0x490
 868 0482 00       		.byte	0
 869 0483 03       		.uleb128 0x3
 870 0484 04       		.byte	0x4
 871 0485 07       		.byte	0x7
 872 0486 4A040000 		.4byte	.LASF83
 873 048a 04       		.uleb128 0x4
 874 048b FE010000 		.4byte	.LASF84
 875 048f 0B       		.byte	0xb
 876 0490 65       		.byte	0x65
 877 0491 22030000 		.4byte	0x322
 878 0495 04       		.uleb128 0x4
 879 0496 1E040000 		.4byte	.LASF85
 880 049a 0B       		.byte	0xb
 881 049b 6D       		.byte	0x6d
 882 049c B8000000 		.4byte	0xb8
 883 04a0 06       		.uleb128 0x6
 884 04a1 1D070000 		.4byte	.LASF86
 885 04a5 04       		.byte	0x4
 886 04a6 0B       		.byte	0xb
 887 04a7 89       		.byte	0x89
 888 04a8 B9040000 		.4byte	0x4b9
 889 04ac 12       		.uleb128 0x12
 890 04ad 72313300 		.ascii	"r13\000"
 891 04b1 0B       		.byte	0xb
 892 04b2 8A       		.byte	0x8a
 893 04b3 34050000 		.4byte	0x534
 894 04b7 00       		.byte	0
 895 04b8 00       		.byte	0
 896 04b9 06       		.uleb128 0x6
 897 04ba 54000000 		.4byte	.LASF87
 898 04be 24       		.byte	0x24
 899 04bf 0C       		.byte	0xc
 900 04c0 F4       		.byte	0xf4
 901 04c1 34050000 		.4byte	0x534
 902 04c5 08       		.uleb128 0x8
 903 04c6 723400   		.ascii	"r4\000"
 904 04c9 0C       		.byte	0xc
 905 04ca 0701     		.2byte	0x107
 906 04cc 8A040000 		.4byte	0x48a
 907 04d0 00       		.byte	0
 908 04d1 08       		.uleb128 0x8
ARM GAS  C:\Users\jo\AppData\Local\Temp\ccJrjCse.s 			page 17


 909 04d2 723500   		.ascii	"r5\000"
 910 04d5 0C       		.byte	0xc
 911 04d6 0801     		.2byte	0x108
 912 04d8 8A040000 		.4byte	0x48a
 913 04dc 04       		.byte	0x4
 914 04dd 08       		.uleb128 0x8
 915 04de 723600   		.ascii	"r6\000"
 916 04e1 0C       		.byte	0xc
 917 04e2 0901     		.2byte	0x109
 918 04e4 8A040000 		.4byte	0x48a
 919 04e8 08       		.byte	0x8
 920 04e9 08       		.uleb128 0x8
 921 04ea 723700   		.ascii	"r7\000"
 922 04ed 0C       		.byte	0xc
 923 04ee 0A01     		.2byte	0x10a
 924 04f0 8A040000 		.4byte	0x48a
 925 04f4 0C       		.byte	0xc
 926 04f5 08       		.uleb128 0x8
 927 04f6 723800   		.ascii	"r8\000"
 928 04f9 0C       		.byte	0xc
 929 04fa 0B01     		.2byte	0x10b
 930 04fc 8A040000 		.4byte	0x48a
 931 0500 10       		.byte	0x10
 932 0501 08       		.uleb128 0x8
 933 0502 723900   		.ascii	"r9\000"
 934 0505 0C       		.byte	0xc
 935 0506 0C01     		.2byte	0x10c
 936 0508 8A040000 		.4byte	0x48a
 937 050c 14       		.byte	0x14
 938 050d 08       		.uleb128 0x8
 939 050e 72313000 		.ascii	"r10\000"
 940 0512 0C       		.byte	0xc
 941 0513 0D01     		.2byte	0x10d
 942 0515 8A040000 		.4byte	0x48a
 943 0519 18       		.byte	0x18
 944 051a 08       		.uleb128 0x8
 945 051b 72313100 		.ascii	"r11\000"
 946 051f 0C       		.byte	0xc
 947 0520 0E01     		.2byte	0x10e
 948 0522 8A040000 		.4byte	0x48a
 949 0526 1C       		.byte	0x1c
 950 0527 08       		.uleb128 0x8
 951 0528 6C7200   		.ascii	"lr\000"
 952 052b 0C       		.byte	0xc
 953 052c 0F01     		.2byte	0x10f
 954 052e 8A040000 		.4byte	0x48a
 955 0532 20       		.byte	0x20
 956 0533 00       		.byte	0
 957 0534 0A       		.uleb128 0xa
 958 0535 04       		.byte	0x4
 959 0536 B9040000 		.4byte	0x4b9
 960 053a 13       		.uleb128 0x13
 961 053b 10       		.byte	0x10
 962 053c 0D       		.byte	0xd
 963 053d 51       		.byte	0x51
 964 053e 73050000 		.4byte	0x573
 965 0542 07       		.uleb128 0x7
ARM GAS  C:\Users\jo\AppData\Local\Temp\ccJrjCse.s 			page 18


 966 0543 20000000 		.4byte	.LASF88
 967 0547 0D       		.byte	0xd
 968 0548 55       		.byte	0x55
 969 0549 2B010000 		.4byte	0x12b
 970 054d 00       		.byte	0
 971 054e 07       		.uleb128 0x7
 972 054f C3010000 		.4byte	.LASF89
 973 0553 0D       		.byte	0xd
 974 0554 59       		.byte	0x59
 975 0555 45020000 		.4byte	0x245
 976 0559 04       		.byte	0x4
 977 055a 07       		.uleb128 0x7
 978 055b 23080000 		.4byte	.LASF90
 979 055f 0D       		.byte	0xd
 980 0560 5D       		.byte	0x5d
 981 0561 22030000 		.4byte	0x322
 982 0565 08       		.byte	0x8
 983 0566 07       		.uleb128 0x7
 984 0567 AC000000 		.4byte	.LASF91
 985 056b 0D       		.byte	0xd
 986 056c 61       		.byte	0x61
 987 056d 97000000 		.4byte	0x97
 988 0571 0C       		.byte	0xc
 989 0572 00       		.byte	0
 990 0573 04       		.uleb128 0x4
 991 0574 8D040000 		.4byte	.LASF92
 992 0578 0D       		.byte	0xd
 993 0579 62       		.byte	0x62
 994 057a 3A050000 		.4byte	0x53a
 995 057e 14       		.uleb128 0x14
 996 057f 0804     		.2byte	0x408
 997 0581 0D       		.byte	0xd
 998 0582 67       		.byte	0x67
 999 0583 AC050000 		.4byte	0x5ac
 1000 0587 07       		.uleb128 0x7
 1001 0588 EE010000 		.4byte	.LASF93
 1002 058c 0D       		.byte	0xd
 1003 058d 6B       		.byte	0x6b
 1004 058e 2C000000 		.4byte	0x2c
 1005 0592 00       		.byte	0
 1006 0593 07       		.uleb128 0x7
 1007 0594 0C000000 		.4byte	.LASF94
 1008 0598 0D       		.byte	0xd
 1009 0599 6F       		.byte	0x6f
 1010 059a AC050000 		.4byte	0x5ac
 1011 059e 04       		.byte	0x4
 1012 059f 07       		.uleb128 0x7
 1013 05a0 43050000 		.4byte	.LASF95
 1014 05a4 0D       		.byte	0xd
 1015 05a5 73       		.byte	0x73
 1016 05a6 B2050000 		.4byte	0x5b2
 1017 05aa 08       		.byte	0x8
 1018 05ab 00       		.byte	0
 1019 05ac 0A       		.uleb128 0xa
 1020 05ad 04       		.byte	0x4
 1021 05ae 73050000 		.4byte	0x573
 1022 05b2 15       		.uleb128 0x15
ARM GAS  C:\Users\jo\AppData\Local\Temp\ccJrjCse.s 			page 19


 1023 05b3 73050000 		.4byte	0x573
 1024 05b7 C2050000 		.4byte	0x5c2
 1025 05bb 16       		.uleb128 0x16
 1026 05bc 83040000 		.4byte	0x483
 1027 05c0 3F       		.byte	0x3f
 1028 05c1 00       		.byte	0
 1029 05c2 04       		.uleb128 0x4
 1030 05c3 9A000000 		.4byte	.LASF96
 1031 05c7 0D       		.byte	0xd
 1032 05c8 74       		.byte	0x74
 1033 05c9 7E050000 		.4byte	0x57e
 1034 05cd 13       		.uleb128 0x13
 1035 05ce 04       		.byte	0x4
 1036 05cf 0E       		.byte	0xe
 1037 05d0 38       		.byte	0x38
 1038 05d1 E2050000 		.4byte	0x5e2
 1039 05d5 07       		.uleb128 0x7
 1040 05d6 16070000 		.4byte	.LASF97
 1041 05da 0E       		.byte	0xe
 1042 05db 3C       		.byte	0x3c
 1043 05dc C8000000 		.4byte	0xc8
 1044 05e0 00       		.byte	0
 1045 05e1 00       		.byte	0
 1046 05e2 04       		.uleb128 0x4
 1047 05e3 C7040000 		.4byte	.LASF98
 1048 05e7 0E       		.byte	0xe
 1049 05e8 3D       		.byte	0x3d
 1050 05e9 CD050000 		.4byte	0x5cd
 1051 05ed 17       		.uleb128 0x17
 1052 05ee 04       		.byte	0x4
 1053 05ef 0A       		.byte	0xa
 1054 05f0 FA       		.byte	0xfa
 1055 05f1 4A060000 		.4byte	0x64a
 1056 05f5 18       		.uleb128 0x18
 1057 05f6 2E000000 		.4byte	.LASF99
 1058 05fa 0A       		.byte	0xa
 1059 05fb 0101     		.2byte	0x101
 1060 05fd FF000000 		.4byte	0xff
 1061 0601 18       		.uleb128 0x18
 1062 0602 C2000000 		.4byte	.LASF100
 1063 0606 0A       		.byte	0xa
 1064 0607 0801     		.2byte	0x108
 1065 0609 FF000000 		.4byte	0xff
 1066 060d 18       		.uleb128 0x18
 1067 060e 0B030000 		.4byte	.LASF101
 1068 0612 0A       		.byte	0xa
 1069 0613 0F01     		.2byte	0x10f
 1070 0615 22030000 		.4byte	0x322
 1071 0619 18       		.uleb128 0x18
 1072 061a 28000000 		.4byte	.LASF102
 1073 061e 0A       		.byte	0xa
 1074 061f 1601     		.2byte	0x116
 1075 0621 4A060000 		.4byte	0x64a
 1076 0625 18       		.uleb128 0x18
 1077 0626 6A020000 		.4byte	.LASF103
 1078 062a 0A       		.byte	0xa
 1079 062b 1E01     		.2byte	0x11e
ARM GAS  C:\Users\jo\AppData\Local\Temp\ccJrjCse.s 			page 20


 1080 062d 75060000 		.4byte	0x675
 1081 0631 18       		.uleb128 0x18
 1082 0632 6E060000 		.4byte	.LASF104
 1083 0636 0A       		.byte	0xa
 1084 0637 2701     		.2byte	0x127
 1085 0639 AC060000 		.4byte	0x6ac
 1086 063d 18       		.uleb128 0x18
 1087 063e E3050000 		.4byte	.LASF105
 1088 0642 0A       		.byte	0xa
 1089 0643 2F01     		.2byte	0x12f
 1090 0645 0A010000 		.4byte	0x10a
 1091 0649 00       		.byte	0
 1092 064a 0A       		.uleb128 0xa
 1093 064b 04       		.byte	0x4
 1094 064c 3A020000 		.4byte	0x23a
 1095 0650 06       		.uleb128 0x6
 1096 0651 4D060000 		.4byte	.LASF106
 1097 0655 0C       		.byte	0xc
 1098 0656 0F       		.byte	0xf
 1099 0657 34       		.byte	0x34
 1100 0658 75060000 		.4byte	0x675
 1101 065c 07       		.uleb128 0x7
 1102 065d E6010000 		.4byte	.LASF107
 1103 0661 0F       		.byte	0xf
 1104 0662 35       		.byte	0x35
 1105 0663 6F020000 		.4byte	0x26f
 1106 0667 00       		.byte	0
 1107 0668 07       		.uleb128 0x7
 1108 0669 85020000 		.4byte	.LASF108
 1109 066d 0F       		.byte	0xf
 1110 066e 37       		.byte	0x37
 1111 066f 20010000 		.4byte	0x120
 1112 0673 08       		.byte	0x8
 1113 0674 00       		.byte	0
 1114 0675 0A       		.uleb128 0xa
 1115 0676 04       		.byte	0x4
 1116 0677 50060000 		.4byte	0x650
 1117 067b 06       		.uleb128 0x6
 1118 067c 79070000 		.4byte	.LASF109
 1119 0680 10       		.byte	0x10
 1120 0681 10       		.byte	0x10
 1121 0682 39       		.byte	0x39
 1122 0683 AC060000 		.4byte	0x6ac
 1123 0687 07       		.uleb128 0x7
 1124 0688 85010000 		.4byte	.LASF110
 1125 068c 10       		.byte	0x10
 1126 068d 3A       		.byte	0x3a
 1127 068e 6F020000 		.4byte	0x26f
 1128 0692 00       		.byte	0
 1129 0693 07       		.uleb128 0x7
 1130 0694 1B080000 		.4byte	.LASF111
 1131 0698 10       		.byte	0x10
 1132 0699 3C       		.byte	0x3c
 1133 069a 45020000 		.4byte	0x245
 1134 069e 08       		.byte	0x8
 1135 069f 07       		.uleb128 0x7
 1136 06a0 CE060000 		.4byte	.LASF112
ARM GAS  C:\Users\jo\AppData\Local\Temp\ccJrjCse.s 			page 21


 1137 06a4 10       		.byte	0x10
 1138 06a5 3E       		.byte	0x3e
 1139 06a6 F0060000 		.4byte	0x6f0
 1140 06aa 0C       		.byte	0xc
 1141 06ab 00       		.byte	0
 1142 06ac 0A       		.uleb128 0xa
 1143 06ad 04       		.byte	0x4
 1144 06ae 7B060000 		.4byte	0x67b
 1145 06b2 0A       		.uleb128 0xa
 1146 06b3 04       		.byte	0x4
 1147 06b4 B8060000 		.4byte	0x6b8
 1148 06b8 19       		.uleb128 0x19
 1149 06b9 BD060000 		.4byte	0x6bd
 1150 06bd 03       		.uleb128 0x3
 1151 06be 01       		.byte	0x1
 1152 06bf 08       		.byte	0x8
 1153 06c0 A5060000 		.4byte	.LASF113
 1154 06c4 0A       		.uleb128 0xa
 1155 06c5 04       		.byte	0x4
 1156 06c6 95040000 		.4byte	0x495
 1157 06ca 0A       		.uleb128 0xa
 1158 06cb 04       		.byte	0x4
 1159 06cc 24030000 		.4byte	0x324
 1160 06d0 05       		.uleb128 0x5
 1161 06d1 B2060000 		.4byte	0x6b2
 1162 06d5 15       		.uleb128 0x15
 1163 06d6 95040000 		.4byte	0x495
 1164 06da E5060000 		.4byte	0x6e5
 1165 06de 16       		.uleb128 0x16
 1166 06df 83040000 		.4byte	0x483
 1167 06e3 1B       		.byte	0x1b
 1168 06e4 00       		.byte	0
 1169 06e5 04       		.uleb128 0x4
 1170 06e6 0F020000 		.4byte	.LASF114
 1171 06ea 10       		.byte	0x10
 1172 06eb 34       		.byte	0x34
 1173 06ec 7B060000 		.4byte	0x67b
 1174 06f0 0A       		.uleb128 0xa
 1175 06f1 04       		.byte	0x4
 1176 06f2 E5060000 		.4byte	0x6e5
 1177 06f6 04       		.uleb128 0x4
 1178 06f7 29040000 		.4byte	.LASF115
 1179 06fb 04       		.byte	0x4
 1180 06fc 34       		.byte	0x34
 1181 06fd 01070000 		.4byte	0x701
 1182 0701 06       		.uleb128 0x6
 1183 0702 3B080000 		.4byte	.LASF116
 1184 0706 14       		.byte	0x14
 1185 0707 04       		.byte	0x4
 1186 0708 39       		.byte	0x39
 1187 0709 4A070000 		.4byte	0x74a
 1188 070d 07       		.uleb128 0x7
 1189 070e 13080000 		.4byte	.LASF117
 1190 0712 04       		.byte	0x4
 1191 0713 3A       		.byte	0x3a
 1192 0714 4A070000 		.4byte	0x74a
 1193 0718 00       		.byte	0
ARM GAS  C:\Users\jo\AppData\Local\Temp\ccJrjCse.s 			page 22


 1194 0719 07       		.uleb128 0x7
 1195 071a AB050000 		.4byte	.LASF118
 1196 071e 04       		.byte	0x4
 1197 071f 3D       		.byte	0x3d
 1198 0720 45020000 		.4byte	0x245
 1199 0724 04       		.byte	0x4
 1200 0725 07       		.uleb128 0x7
 1201 0726 08050000 		.4byte	.LASF119
 1202 072a 04       		.byte	0x4
 1203 072b 3F       		.byte	0x3f
 1204 072c 0A010000 		.4byte	0x10a
 1205 0730 08       		.byte	0x8
 1206 0731 07       		.uleb128 0x7
 1207 0732 B7050000 		.4byte	.LASF120
 1208 0736 04       		.byte	0x4
 1209 0737 41       		.byte	0x41
 1210 0738 15010000 		.4byte	0x115
 1211 073c 0C       		.byte	0xc
 1212 073d 07       		.uleb128 0x7
 1213 073e B8020000 		.4byte	.LASF121
 1214 0742 04       		.byte	0x4
 1215 0743 43       		.byte	0x43
 1216 0744 15010000 		.4byte	0x115
 1217 0748 10       		.byte	0x10
 1218 0749 00       		.byte	0
 1219 074a 0A       		.uleb128 0xa
 1220 074b 04       		.byte	0x4
 1221 074c F6060000 		.4byte	0x6f6
 1222 0750 06       		.uleb128 0x6
 1223 0751 98070000 		.4byte	.LASF122
 1224 0755 04       		.byte	0x4
 1225 0756 04       		.byte	0x4
 1226 0757 4A       		.byte	0x4a
 1227 0758 69070000 		.4byte	0x769
 1228 075c 07       		.uleb128 0x7
 1229 075d 82070000 		.4byte	.LASF123
 1230 0761 04       		.byte	0x4
 1231 0762 4B       		.byte	0x4b
 1232 0763 4A070000 		.4byte	0x74a
 1233 0767 00       		.byte	0
 1234 0768 00       		.byte	0
 1235 0769 04       		.uleb128 0x4
 1236 076a 26020000 		.4byte	.LASF124
 1237 076e 04       		.byte	0x4
 1238 076f 4E       		.byte	0x4e
 1239 0770 50070000 		.4byte	0x750
 1240 0774 13       		.uleb128 0x13
 1241 0775 1C       		.byte	0x1c
 1242 0776 11       		.byte	0x11
 1243 0777 36       		.byte	0x36
 1244 0778 A1070000 		.4byte	0x7a1
 1245 077c 07       		.uleb128 0x7
 1246 077d 7D060000 		.4byte	.LASF125
 1247 0781 11       		.byte	0x11
 1248 0782 37       		.byte	0x37
 1249 0783 24030000 		.4byte	0x324
 1250 0787 00       		.byte	0
ARM GAS  C:\Users\jo\AppData\Local\Temp\ccJrjCse.s 			page 23


 1251 0788 07       		.uleb128 0x7
 1252 0789 44040000 		.4byte	.LASF126
 1253 078d 11       		.byte	0x11
 1254 078e 38       		.byte	0x38
 1255 078f 69070000 		.4byte	0x769
 1256 0793 14       		.byte	0x14
 1257 0794 07       		.uleb128 0x7
 1258 0795 00000000 		.4byte	.LASF127
 1259 0799 11       		.byte	0x11
 1260 079a 39       		.byte	0x39
 1261 079b 2B010000 		.4byte	0x12b
 1262 079f 18       		.byte	0x18
 1263 07a0 00       		.byte	0
 1264 07a1 04       		.uleb128 0x4
 1265 07a2 05080000 		.4byte	.LASF128
 1266 07a6 11       		.byte	0x11
 1267 07a7 3A       		.byte	0x3a
 1268 07a8 74070000 		.4byte	0x774
 1269 07ac 1A       		.uleb128 0x1a
 1270 07ad FE060000 		.4byte	.LASF131
 1271 07b1 02       		.byte	0x2
 1272 07b2 2002     		.2byte	0x220
 1273 07b4 03       		.byte	0x3
 1274 07b5 C6070000 		.4byte	0x7c6
 1275 07b9 1B       		.uleb128 0x1b
 1276 07ba 17020000 		.4byte	.LASF133
 1277 07be 02       		.byte	0x2
 1278 07bf 2002     		.2byte	0x220
 1279 07c1 AD000000 		.4byte	0xad
 1280 07c5 00       		.byte	0
 1281 07c6 1C       		.uleb128 0x1c
 1282 07c7 6F000000 		.4byte	.LASF129
 1283 07cb 0C       		.byte	0xc
 1284 07cc BC01     		.2byte	0x1bc
 1285 07ce 03       		.byte	0x3
 1286 07cf 1C       		.uleb128 0x1c
 1287 07d0 94010000 		.4byte	.LASF130
 1288 07d4 0C       		.byte	0xc
 1289 07d5 CA01     		.2byte	0x1ca
 1290 07d7 03       		.byte	0x3
 1291 07d8 1D       		.uleb128 0x1d
 1292 07d9 35030000 		.4byte	.LASF132
 1293 07dd 05       		.byte	0x5
 1294 07de D2       		.byte	0xd2
 1295 07df 03       		.byte	0x3
 1296 07e0 F0070000 		.4byte	0x7f0
 1297 07e4 1E       		.uleb128 0x1e
 1298 07e5 76747000 		.ascii	"vtp\000"
 1299 07e9 05       		.byte	0x5
 1300 07ea D2       		.byte	0xd2
 1301 07eb CA060000 		.4byte	0x6ca
 1302 07ef 00       		.byte	0
 1303 07f0 1C       		.uleb128 0x1c
 1304 07f1 2D070000 		.4byte	.LASF134
 1305 07f5 0C       		.byte	0xc
 1306 07f6 D901     		.2byte	0x1d9
 1307 07f8 03       		.byte	0x3
ARM GAS  C:\Users\jo\AppData\Local\Temp\ccJrjCse.s 			page 24


 1308 07f9 1C       		.uleb128 0x1c
 1309 07fa B0060000 		.4byte	.LASF135
 1310 07fe 0C       		.byte	0xc
 1311 07ff E401     		.2byte	0x1e4
 1312 0801 03       		.byte	0x3
 1313 0802 1C       		.uleb128 0x1c
 1314 0803 BF070000 		.4byte	.LASF136
 1315 0807 03       		.byte	0x3
 1316 0808 8201     		.2byte	0x182
 1317 080a 03       		.byte	0x3
 1318 080b 1D       		.uleb128 0x1d
 1319 080c 21060000 		.4byte	.LASF137
 1320 0810 04       		.byte	0x4
 1321 0811 FE       		.byte	0xfe
 1322 0812 03       		.byte	0x3
 1323 0813 23080000 		.4byte	0x823
 1324 0817 1E       		.uleb128 0x1e
 1325 0818 65737000 		.ascii	"esp\000"
 1326 081c 04       		.byte	0x4
 1327 081d FE       		.byte	0xfe
 1328 081e 23080000 		.4byte	0x823
 1329 0822 00       		.byte	0
 1330 0823 0A       		.uleb128 0xa
 1331 0824 04       		.byte	0x4
 1332 0825 69070000 		.4byte	0x769
 1333 0829 1C       		.uleb128 0x1c
 1334 082a 6C050000 		.4byte	.LASF138
 1335 082e 03       		.byte	0x3
 1336 082f 9601     		.2byte	0x196
 1337 0831 03       		.byte	0x3
 1338 0832 1F       		.uleb128 0x1f
 1339 0833 14060000 		.4byte	.LASF163
 1340 0837 05       		.byte	0x5
 1341 0838 5101     		.2byte	0x151
 1342 083a 50080000 		.4byte	0x850
 1343 083e 03       		.byte	0x3
 1344 083f 50080000 		.4byte	0x850
 1345 0843 20       		.uleb128 0x20
 1346 0844 76747000 		.ascii	"vtp\000"
 1347 0848 05       		.byte	0x5
 1348 0849 5101     		.2byte	0x151
 1349 084b CA060000 		.4byte	0x6ca
 1350 084f 00       		.byte	0
 1351 0850 03       		.uleb128 0x3
 1352 0851 01       		.byte	0x1
 1353 0852 02       		.byte	0x2
 1354 0853 8F050000 		.4byte	.LASF139
 1355 0857 1C       		.uleb128 0x1c
 1356 0858 0A060000 		.4byte	.LASF140
 1357 085c 03       		.byte	0x3
 1358 085d 5A01     		.2byte	0x15a
 1359 085f 03       		.byte	0x3
 1360 0860 1A       		.uleb128 0x1a
 1361 0861 A8040000 		.4byte	.LASF141
 1362 0865 05       		.byte	0x5
 1363 0866 A401     		.2byte	0x1a4
 1364 0868 03       		.byte	0x3
ARM GAS  C:\Users\jo\AppData\Local\Temp\ccJrjCse.s 			page 25


 1365 0869 9E080000 		.4byte	0x89e
 1366 086d 20       		.uleb128 0x20
 1367 086e 76747000 		.ascii	"vtp\000"
 1368 0872 05       		.byte	0x5
 1369 0873 A401     		.2byte	0x1a4
 1370 0875 CA060000 		.4byte	0x6ca
 1371 0879 1B       		.uleb128 0x1b
 1372 087a F7000000 		.4byte	.LASF142
 1373 087e 05       		.byte	0x5
 1374 087f A401     		.2byte	0x1a4
 1375 0881 2B010000 		.4byte	0x12b
 1376 0885 1B       		.uleb128 0x1b
 1377 0886 47070000 		.4byte	.LASF143
 1378 088a 05       		.byte	0x5
 1379 088b A501     		.2byte	0x1a5
 1380 088d 06030000 		.4byte	0x306
 1381 0891 20       		.uleb128 0x20
 1382 0892 70617200 		.ascii	"par\000"
 1383 0896 05       		.byte	0x5
 1384 0897 A501     		.2byte	0x1a5
 1385 0899 22030000 		.4byte	0x322
 1386 089d 00       		.byte	0
 1387 089e 1D       		.uleb128 0x1d
 1388 089f 8B020000 		.4byte	.LASF144
 1389 08a3 04       		.byte	0x4
 1390 08a4 AA       		.byte	0xaa
 1391 08a5 03       		.byte	0x3
 1392 08a6 B6080000 		.4byte	0x8b6
 1393 08aa 1E       		.uleb128 0x1e
 1394 08ab 65737000 		.ascii	"esp\000"
 1395 08af 04       		.byte	0x4
 1396 08b0 AA       		.byte	0xaa
 1397 08b1 23080000 		.4byte	0x823
 1398 08b5 00       		.byte	0
 1399 08b6 1A       		.uleb128 0x1a
 1400 08b7 BF040000 		.4byte	.LASF145
 1401 08bb 05       		.byte	0x5
 1402 08bc C101     		.2byte	0x1c1
 1403 08be 03       		.byte	0x3
 1404 08bf F4080000 		.4byte	0x8f4
 1405 08c3 20       		.uleb128 0x20
 1406 08c4 76747000 		.ascii	"vtp\000"
 1407 08c8 05       		.byte	0x5
 1408 08c9 C101     		.2byte	0x1c1
 1409 08cb CA060000 		.4byte	0x6ca
 1410 08cf 1B       		.uleb128 0x1b
 1411 08d0 F7000000 		.4byte	.LASF142
 1412 08d4 05       		.byte	0x5
 1413 08d5 C101     		.2byte	0x1c1
 1414 08d7 2B010000 		.4byte	0x12b
 1415 08db 1B       		.uleb128 0x1b
 1416 08dc 47070000 		.4byte	.LASF143
 1417 08e0 05       		.byte	0x5
 1418 08e1 C201     		.2byte	0x1c2
 1419 08e3 06030000 		.4byte	0x306
 1420 08e7 20       		.uleb128 0x20
 1421 08e8 70617200 		.ascii	"par\000"
ARM GAS  C:\Users\jo\AppData\Local\Temp\ccJrjCse.s 			page 26


 1422 08ec 05       		.byte	0x5
 1423 08ed C201     		.2byte	0x1c2
 1424 08ef 22030000 		.4byte	0x322
 1425 08f3 00       		.byte	0
 1426 08f4 21       		.uleb128 0x21
 1427 08f5 AA060000 		.4byte	.LASF164
 1428 08f9 01       		.byte	0x1
 1429 08fa 30       		.byte	0x30
 1430 08fb 00000000 		.4byte	.LFB229
 1431 08ff 34000000 		.4byte	.LFE229-.LFB229
 1432 0903 01       		.uleb128 0x1
 1433 0904 9C       		.byte	0x9c
 1434 0905 2B0A0000 		.4byte	0xa2b
 1435 0909 22       		.uleb128 0x22
 1436 090a 7000     		.ascii	"p\000"
 1437 090c 01       		.byte	0x1
 1438 090d 30       		.byte	0x30
 1439 090e 22030000 		.4byte	0x322
 1440 0912 00000000 		.4byte	.LLST0
 1441 0916 23       		.uleb128 0x23
 1442 0917 65747000 		.ascii	"etp\000"
 1443 091b 01       		.byte	0x1
 1444 091c 31       		.byte	0x31
 1445 091d 2B0A0000 		.4byte	0xa2b
 1446 0921 2C000000 		.4byte	.LLST1
 1447 0925 24       		.uleb128 0x24
 1448 0926 02080000 		.4byte	0x802
 1449 092a 02000000 		.4byte	.LBB66
 1450 092e 00000000 		.4byte	.Ldebug_ranges0+0
 1451 0932 01       		.byte	0x1
 1452 0933 33       		.byte	0x33
 1453 0934 7F090000 		.4byte	0x97f
 1454 0938 25       		.uleb128 0x25
 1455 0939 F0070000 		.4byte	0x7f0
 1456 093d 02000000 		.4byte	.LBB68
 1457 0941 18000000 		.4byte	.Ldebug_ranges0+0x18
 1458 0945 03       		.byte	0x3
 1459 0946 8401     		.2byte	0x184
 1460 0948 75090000 		.4byte	0x975
 1461 094c 26       		.uleb128 0x26
 1462 094d C6070000 		.4byte	0x7c6
 1463 0951 02000000 		.4byte	.LBB69
 1464 0955 18000000 		.4byte	.Ldebug_ranges0+0x18
 1465 0959 0C       		.byte	0xc
 1466 095a DB01     		.2byte	0x1db
 1467 095c 26       		.uleb128 0x26
 1468 095d AC070000 		.4byte	0x7ac
 1469 0961 02000000 		.4byte	.LBB70
 1470 0965 18000000 		.4byte	.Ldebug_ranges0+0x18
 1471 0969 0C       		.byte	0xc
 1472 096a BF01     		.2byte	0x1bf
 1473 096c 27       		.uleb128 0x27
 1474 096d B9070000 		.4byte	0x7b9
 1475 0971 20       		.byte	0x20
 1476 0972 00       		.byte	0
 1477 0973 00       		.byte	0
 1478 0974 00       		.byte	0
ARM GAS  C:\Users\jo\AppData\Local\Temp\ccJrjCse.s 			page 27


 1479 0975 28       		.uleb128 0x28
 1480 0976 0E000000 		.4byte	.LVL2
 1481 097a BC0C0000 		.4byte	0xcbc
 1482 097e 00       		.byte	0
 1483 097f 29       		.uleb128 0x29
 1484 0980 0B080000 		.4byte	0x80b
 1485 0984 0E000000 		.4byte	.LBB78
 1486 0988 0A000000 		.4byte	.LBE78-.LBB78
 1487 098c 01       		.byte	0x1
 1488 098d 34       		.byte	0x34
 1489 098e B1090000 		.4byte	0x9b1
 1490 0992 2A       		.uleb128 0x2a
 1491 0993 17080000 		.4byte	0x817
 1492 0997 58000000 		.4byte	.LLST2
 1493 099b 2B       		.uleb128 0x2b
 1494 099c 18000000 		.4byte	.LVL4
 1495 09a0 C30C0000 		.4byte	0xcc3
 1496 09a4 2C       		.uleb128 0x2c
 1497 09a5 01       		.uleb128 0x1
 1498 09a6 51       		.byte	0x51
 1499 09a7 01       		.uleb128 0x1
 1500 09a8 30       		.byte	0x30
 1501 09a9 2C       		.uleb128 0x2c
 1502 09aa 01       		.uleb128 0x1
 1503 09ab 50       		.byte	0x50
 1504 09ac 02       		.uleb128 0x2
 1505 09ad 74       		.byte	0x74
 1506 09ae 14       		.sleb128 20
 1507 09af 00       		.byte	0
 1508 09b0 00       		.byte	0
 1509 09b1 29       		.uleb128 0x29
 1510 09b2 29080000 		.4byte	0x829
 1511 09b6 24000000 		.4byte	.LBB80
 1512 09ba 10000000 		.4byte	.LBE80-.LBB80
 1513 09be 01       		.byte	0x1
 1514 09bf 36       		.byte	0x36
 1515 09c0 0B0A0000 		.4byte	0xa0b
 1516 09c4 2D       		.uleb128 0x2d
 1517 09c5 F9070000 		.4byte	0x7f9
 1518 09c9 28000000 		.4byte	.LBB82
 1519 09cd 0C000000 		.4byte	.LBE82-.LBB82
 1520 09d1 03       		.byte	0x3
 1521 09d2 9A01     		.2byte	0x19a
 1522 09d4 010A0000 		.4byte	0xa01
 1523 09d8 2E       		.uleb128 0x2e
 1524 09d9 CF070000 		.4byte	0x7cf
 1525 09dd 28000000 		.4byte	.LBB83
 1526 09e1 0C000000 		.4byte	.LBE83-.LBB83
 1527 09e5 0C       		.byte	0xc
 1528 09e6 E601     		.2byte	0x1e6
 1529 09e8 2E       		.uleb128 0x2e
 1530 09e9 AC070000 		.4byte	0x7ac
 1531 09ed 28000000 		.4byte	.LBB84
 1532 09f1 0C000000 		.4byte	.LBE84-.LBB84
 1533 09f5 0C       		.byte	0xc
 1534 09f6 CD01     		.2byte	0x1cd
 1535 09f8 27       		.uleb128 0x27
ARM GAS  C:\Users\jo\AppData\Local\Temp\ccJrjCse.s 			page 28


 1536 09f9 B9070000 		.4byte	0x7b9
 1537 09fd 00       		.byte	0
 1538 09fe 00       		.byte	0
 1539 09ff 00       		.byte	0
 1540 0a00 00       		.byte	0
 1541 0a01 28       		.uleb128 0x28
 1542 0a02 28000000 		.4byte	.LVL6
 1543 0a06 D90C0000 		.4byte	0xcd9
 1544 0a0a 00       		.byte	0
 1545 0a0b 2B       		.uleb128 0x2b
 1546 0a0c 24000000 		.4byte	.LVL5
 1547 0a10 E00C0000 		.4byte	0xce0
 1548 0a14 2C       		.uleb128 0x2c
 1549 0a15 01       		.uleb128 0x1
 1550 0a16 53       		.byte	0x53
 1551 0a17 02       		.uleb128 0x2
 1552 0a18 74       		.byte	0x74
 1553 0a19 00       		.sleb128 0
 1554 0a1a 2C       		.uleb128 0x2c
 1555 0a1b 01       		.uleb128 0x1
 1556 0a1c 52       		.byte	0x52
 1557 0a1d 05       		.uleb128 0x5
 1558 0a1e 03       		.byte	0x3
 1559 0a1f 00000000 		.4byte	tmrcb
 1560 0a23 2C       		.uleb128 0x2c
 1561 0a24 01       		.uleb128 0x1
 1562 0a25 50       		.byte	0x50
 1563 0a26 02       		.uleb128 0x2
 1564 0a27 74       		.byte	0x74
 1565 0a28 00       		.sleb128 0
 1566 0a29 00       		.byte	0
 1567 0a2a 00       		.byte	0
 1568 0a2b 0A       		.uleb128 0xa
 1569 0a2c 04       		.byte	0x4
 1570 0a2d A1070000 		.4byte	0x7a1
 1571 0a31 2F       		.uleb128 0x2f
 1572 0a32 FD020000 		.4byte	.LASF149
 1573 0a36 01       		.byte	0x1
 1574 0a37 43       		.byte	0x43
 1575 0a38 00000000 		.4byte	.LFB230
 1576 0a3c 0E000000 		.4byte	.LFE230-.LFB230
 1577 0a40 01       		.uleb128 0x1
 1578 0a41 9C       		.byte	0x9c
 1579 0a42 950A0000 		.4byte	0xa95
 1580 0a46 30       		.uleb128 0x30
 1581 0a47 65747000 		.ascii	"etp\000"
 1582 0a4b 01       		.byte	0x1
 1583 0a4c 43       		.byte	0x43
 1584 0a4d 2B0A0000 		.4byte	0xa2b
 1585 0a51 01       		.uleb128 0x1
 1586 0a52 50       		.byte	0x50
 1587 0a53 31       		.uleb128 0x31
 1588 0a54 D8040000 		.4byte	.LASF146
 1589 0a58 01       		.byte	0x1
 1590 0a59 43       		.byte	0x43
 1591 0a5a 2B010000 		.4byte	0x12b
 1592 0a5e 01       		.uleb128 0x1
ARM GAS  C:\Users\jo\AppData\Local\Temp\ccJrjCse.s 			page 29


 1593 0a5f 51       		.byte	0x51
 1594 0a60 24       		.uleb128 0x24
 1595 0a61 D8070000 		.4byte	0x7d8
 1596 0a65 04000000 		.4byte	.LBB86
 1597 0a69 30000000 		.4byte	.Ldebug_ranges0+0x30
 1598 0a6d 01       		.byte	0x1
 1599 0a6e 46       		.byte	0x46
 1600 0a6f 7B0A0000 		.4byte	0xa7b
 1601 0a73 32       		.uleb128 0x32
 1602 0a74 E4070000 		.4byte	0x7e4
 1603 0a78 01       		.uleb128 0x1
 1604 0a79 50       		.byte	0x50
 1605 0a7a 00       		.byte	0
 1606 0a7b 33       		.uleb128 0x33
 1607 0a7c 9E080000 		.4byte	0x89e
 1608 0a80 08000000 		.4byte	.LBB89
 1609 0a84 02000000 		.4byte	.LBE89-.LBB89
 1610 0a88 01       		.byte	0x1
 1611 0a89 45       		.byte	0x45
 1612 0a8a 2A       		.uleb128 0x2a
 1613 0a8b AA080000 		.4byte	0x8aa
 1614 0a8f 95000000 		.4byte	.LLST3
 1615 0a93 00       		.byte	0
 1616 0a94 00       		.byte	0
 1617 0a95 1A       		.uleb128 0x1a
 1618 0a96 42060000 		.4byte	.LASF147
 1619 0a9a 05       		.byte	0x5
 1620 0a9b 7601     		.2byte	0x176
 1621 0a9d 03       		.byte	0x3
 1622 0a9e AF0A0000 		.4byte	0xaaf
 1623 0aa2 20       		.uleb128 0x20
 1624 0aa3 76747000 		.ascii	"vtp\000"
 1625 0aa7 05       		.byte	0x5
 1626 0aa8 7601     		.2byte	0x176
 1627 0aaa CA060000 		.4byte	0x6ca
 1628 0aae 00       		.byte	0
 1629 0aaf 1A       		.uleb128 0x1a
 1630 0ab0 F3070000 		.4byte	.LASF148
 1631 0ab4 03       		.byte	0x3
 1632 0ab5 6601     		.2byte	0x166
 1633 0ab7 03       		.byte	0x3
 1634 0ab8 CA0A0000 		.4byte	0xaca
 1635 0abc 34       		.uleb128 0x34
 1636 0abd 01060000 		.4byte	.LASF165
 1637 0ac1 DA0A0000 		.4byte	0xada
 1638 0ac5 F3070000 		.4byte	.LASF148
 1639 0ac9 00       		.byte	0
 1640 0aca 15       		.uleb128 0x15
 1641 0acb BD060000 		.4byte	0x6bd
 1642 0acf DA0A0000 		.4byte	0xada
 1643 0ad3 16       		.uleb128 0x16
 1644 0ad4 83040000 		.4byte	0x483
 1645 0ad8 0B       		.byte	0xb
 1646 0ad9 00       		.byte	0
 1647 0ada 19       		.uleb128 0x19
 1648 0adb CA0A0000 		.4byte	0xaca
 1649 0adf 2F       		.uleb128 0x2f
ARM GAS  C:\Users\jo\AppData\Local\Temp\ccJrjCse.s 			page 30


 1650 0ae0 CB000000 		.4byte	.LASF150
 1651 0ae4 01       		.byte	0x1
 1652 0ae5 50       		.byte	0x50
 1653 0ae6 00000000 		.4byte	.LFB231
 1654 0aea 5C000000 		.4byte	.LFE231-.LFB231
 1655 0aee 01       		.uleb128 0x1
 1656 0aef 9C       		.byte	0x9c
 1657 0af0 A50C0000 		.4byte	0xca5
 1658 0af4 22       		.uleb128 0x22
 1659 0af5 65747000 		.ascii	"etp\000"
 1660 0af9 01       		.byte	0x1
 1661 0afa 50       		.byte	0x50
 1662 0afb 2B0A0000 		.4byte	0xa2b
 1663 0aff B5000000 		.4byte	.LLST4
 1664 0b03 35       		.uleb128 0x35
 1665 0b04 B6080000 		.4byte	0x8b6
 1666 0b08 04000000 		.4byte	.LBB110
 1667 0b0c 48000000 		.4byte	.Ldebug_ranges0+0x48
 1668 0b10 01       		.byte	0x1
 1669 0b11 52       		.byte	0x52
 1670 0b12 32       		.uleb128 0x32
 1671 0b13 DB080000 		.4byte	0x8db
 1672 0b17 06       		.uleb128 0x6
 1673 0b18 03       		.byte	0x3
 1674 0b19 00000000 		.4byte	tmrcb
 1675 0b1d 9F       		.byte	0x9f
 1676 0b1e 2A       		.uleb128 0x2a
 1677 0b1f E7080000 		.4byte	0x8e7
 1678 0b23 E1000000 		.4byte	.LLST5
 1679 0b27 2A       		.uleb128 0x2a
 1680 0b28 CF080000 		.4byte	0x8cf
 1681 0b2c 0D010000 		.4byte	.LLST6
 1682 0b30 2A       		.uleb128 0x2a
 1683 0b31 C3080000 		.4byte	0x8c3
 1684 0b35 E1000000 		.4byte	.LLST5
 1685 0b39 25       		.uleb128 0x25
 1686 0b3a 57080000 		.4byte	0x857
 1687 0b3e 04000000 		.4byte	.LBB111
 1688 0b42 60000000 		.4byte	.Ldebug_ranges0+0x60
 1689 0b46 05       		.byte	0x5
 1690 0b47 C401     		.2byte	0x1c4
 1691 0b49 830B0000 		.4byte	0xb83
 1692 0b4d 25       		.uleb128 0x25
 1693 0b4e C6070000 		.4byte	0x7c6
 1694 0b52 04000000 		.4byte	.LBB113
 1695 0b56 78000000 		.4byte	.Ldebug_ranges0+0x78
 1696 0b5a 03       		.byte	0x3
 1697 0b5b 5C01     		.2byte	0x15c
 1698 0b5d 790B0000 		.4byte	0xb79
 1699 0b61 26       		.uleb128 0x26
 1700 0b62 AC070000 		.4byte	0x7ac
 1701 0b66 04000000 		.4byte	.LBB114
 1702 0b6a 78000000 		.4byte	.Ldebug_ranges0+0x78
 1703 0b6e 0C       		.byte	0xc
 1704 0b6f BF01     		.2byte	0x1bf
 1705 0b71 27       		.uleb128 0x27
 1706 0b72 B9070000 		.4byte	0x7b9
ARM GAS  C:\Users\jo\AppData\Local\Temp\ccJrjCse.s 			page 31


 1707 0b76 20       		.byte	0x20
 1708 0b77 00       		.byte	0
 1709 0b78 00       		.byte	0
 1710 0b79 28       		.uleb128 0x28
 1711 0b7a 10000000 		.4byte	.LVL13
 1712 0b7e 000D0000 		.4byte	0xd00
 1713 0b82 00       		.byte	0
 1714 0b83 2D       		.uleb128 0x2d
 1715 0b84 60080000 		.4byte	0x860
 1716 0b88 10000000 		.4byte	.LBB121
 1717 0b8c 1A000000 		.4byte	.LBE121-.LBB121
 1718 0b90 05       		.byte	0x5
 1719 0b91 C501     		.2byte	0x1c5
 1720 0b93 350C0000 		.4byte	0xc35
 1721 0b97 2A       		.uleb128 0x2a
 1722 0b98 91080000 		.4byte	0x891
 1723 0b9c 20010000 		.4byte	.LLST8
 1724 0ba0 32       		.uleb128 0x32
 1725 0ba1 85080000 		.4byte	0x885
 1726 0ba5 06       		.uleb128 0x6
 1727 0ba6 03       		.byte	0x3
 1728 0ba7 00000000 		.4byte	tmrcb
 1729 0bab 9F       		.byte	0x9f
 1730 0bac 2A       		.uleb128 0x2a
 1731 0bad 79080000 		.4byte	0x879
 1732 0bb1 41010000 		.4byte	.LLST9
 1733 0bb5 2A       		.uleb128 0x2a
 1734 0bb6 6D080000 		.4byte	0x86d
 1735 0bba 20010000 		.4byte	.LLST8
 1736 0bbe 2D       		.uleb128 0x2d
 1737 0bbf 950A0000 		.4byte	0xa95
 1738 0bc3 10000000 		.4byte	.LBB123
 1739 0bc7 0E000000 		.4byte	.LBE123-.LBB123
 1740 0bcb 05       		.byte	0x5
 1741 0bcc A701     		.2byte	0x1a7
 1742 0bce 0F0C0000 		.4byte	0xc0f
 1743 0bd2 2A       		.uleb128 0x2a
 1744 0bd3 A20A0000 		.4byte	0xaa2
 1745 0bd7 20010000 		.4byte	.LLST8
 1746 0bdb 2D       		.uleb128 0x2d
 1747 0bdc 32080000 		.4byte	0x832
 1748 0be0 10000000 		.4byte	.LBB125
 1749 0be4 04000000 		.4byte	.LBE125-.LBB125
 1750 0be8 05       		.byte	0x5
 1751 0be9 7801     		.2byte	0x178
 1752 0beb FE0B0000 		.4byte	0xbfe
 1753 0bef 36       		.uleb128 0x36
 1754 0bf0 43080000 		.4byte	0x843
 1755 0bf4 28       		.uleb128 0x28
 1756 0bf5 14000000 		.4byte	.LVL14
 1757 0bf9 070D0000 		.4byte	0xd07
 1758 0bfd 00       		.byte	0
 1759 0bfe 2B       		.uleb128 0x2b
 1760 0bff 1E000000 		.4byte	.LVL15
 1761 0c03 0E0D0000 		.4byte	0xd0e
 1762 0c07 2C       		.uleb128 0x2c
 1763 0c08 01       		.uleb128 0x1
ARM GAS  C:\Users\jo\AppData\Local\Temp\ccJrjCse.s 			page 32


 1764 0c09 50       		.byte	0x50
 1765 0c0a 02       		.uleb128 0x2
 1766 0c0b 74       		.byte	0x74
 1767 0c0c 00       		.sleb128 0
 1768 0c0d 00       		.byte	0
 1769 0c0e 00       		.byte	0
 1770 0c0f 2B       		.uleb128 0x2b
 1771 0c10 2A000000 		.4byte	.LVL16
 1772 0c14 E00C0000 		.4byte	0xce0
 1773 0c18 2C       		.uleb128 0x2c
 1774 0c19 01       		.uleb128 0x1
 1775 0c1a 53       		.byte	0x53
 1776 0c1b 02       		.uleb128 0x2
 1777 0c1c 74       		.byte	0x74
 1778 0c1d 00       		.sleb128 0
 1779 0c1e 2C       		.uleb128 0x2c
 1780 0c1f 01       		.uleb128 0x1
 1781 0c20 52       		.byte	0x52
 1782 0c21 05       		.uleb128 0x5
 1783 0c22 03       		.byte	0x3
 1784 0c23 00000000 		.4byte	tmrcb
 1785 0c27 2C       		.uleb128 0x2c
 1786 0c28 01       		.uleb128 0x1
 1787 0c29 51       		.byte	0x51
 1788 0c2a 02       		.uleb128 0x2
 1789 0c2b 75       		.byte	0x75
 1790 0c2c 00       		.sleb128 0
 1791 0c2d 2C       		.uleb128 0x2c
 1792 0c2e 01       		.uleb128 0x1
 1793 0c2f 50       		.byte	0x50
 1794 0c30 02       		.uleb128 0x2
 1795 0c31 74       		.byte	0x74
 1796 0c32 00       		.sleb128 0
 1797 0c33 00       		.byte	0
 1798 0c34 00       		.byte	0
 1799 0c35 2E       		.uleb128 0x2e
 1800 0c36 AF0A0000 		.4byte	0xaaf
 1801 0c3a 2A000000 		.4byte	.LBB127
 1802 0c3e 32000000 		.4byte	.LBE127-.LBB127
 1803 0c42 05       		.byte	0x5
 1804 0c43 C601     		.2byte	0x1c6
 1805 0c45 37       		.uleb128 0x37
 1806 0c46 2A000000 		.4byte	.LBB128
 1807 0c4a 32000000 		.4byte	.LBE128-.LBB128
 1808 0c4e 38       		.uleb128 0x38
 1809 0c4f BC0A0000 		.4byte	0xabc
 1810 0c53 05       		.uleb128 0x5
 1811 0c54 03       		.byte	0x3
 1812 0c55 00000000 		.4byte	__func__.5854
 1813 0c59 2D       		.uleb128 0x2d
 1814 0c5a CF070000 		.4byte	0x7cf
 1815 0c5e 46000000 		.4byte	.LBB129
 1816 0c62 16000000 		.4byte	.LBE129-.LBB129
 1817 0c66 03       		.byte	0x3
 1818 0c67 7301     		.2byte	0x173
 1819 0c69 850C0000 		.4byte	0xc85
 1820 0c6d 2E       		.uleb128 0x2e
ARM GAS  C:\Users\jo\AppData\Local\Temp\ccJrjCse.s 			page 33


 1821 0c6e AC070000 		.4byte	0x7ac
 1822 0c72 46000000 		.4byte	.LBB130
 1823 0c76 16000000 		.4byte	.LBE130-.LBB130
 1824 0c7a 0C       		.byte	0xc
 1825 0c7b CD01     		.2byte	0x1cd
 1826 0c7d 27       		.uleb128 0x27
 1827 0c7e B9070000 		.4byte	0x7b9
 1828 0c82 00       		.byte	0
 1829 0c83 00       		.byte	0
 1830 0c84 00       		.byte	0
 1831 0c85 28       		.uleb128 0x28
 1832 0c86 2E000000 		.4byte	.LVL17
 1833 0c8a 1F0D0000 		.4byte	0xd1f
 1834 0c8e 2B       		.uleb128 0x2b
 1835 0c8f 46000000 		.4byte	.LVL18
 1836 0c93 260D0000 		.4byte	0xd26
 1837 0c97 2C       		.uleb128 0x2c
 1838 0c98 01       		.uleb128 0x1
 1839 0c99 50       		.byte	0x50
 1840 0c9a 05       		.uleb128 0x5
 1841 0c9b 03       		.byte	0x3
 1842 0c9c 00000000 		.4byte	.LANCHOR0
 1843 0ca0 00       		.byte	0
 1844 0ca1 00       		.byte	0
 1845 0ca2 00       		.byte	0
 1846 0ca3 00       		.byte	0
 1847 0ca4 00       		.byte	0
 1848 0ca5 39       		.uleb128 0x39
 1849 0ca6 EA000000 		.4byte	.LASF151
 1850 0caa 12       		.byte	0x12
 1851 0cab A706     		.2byte	0x6a7
 1852 0cad C3000000 		.4byte	0xc3
 1853 0cb1 3A       		.uleb128 0x3a
 1854 0cb2 636800   		.ascii	"ch\000"
 1855 0cb5 0A       		.byte	0xa
 1856 0cb6 0902     		.2byte	0x209
 1857 0cb8 19040000 		.4byte	0x419
 1858 0cbc 3B       		.uleb128 0x3b
 1859 0cbd EF040000 		.4byte	.LASF152
 1860 0cc1 0D       		.byte	0xd
 1861 0cc2 DA       		.byte	0xda
 1862 0cc3 3C       		.uleb128 0x3c
 1863 0cc4 C9010000 		.4byte	.LASF154
 1864 0cc8 04       		.byte	0x4
 1865 0cc9 87       		.byte	0x87
 1866 0cca D90C0000 		.4byte	0xcd9
 1867 0cce 0D       		.uleb128 0xd
 1868 0ccf 23080000 		.4byte	0x823
 1869 0cd3 0D       		.uleb128 0xd
 1870 0cd4 15010000 		.4byte	0x115
 1871 0cd8 00       		.byte	0
 1872 0cd9 3B       		.uleb128 0x3b
 1873 0cda 4E070000 		.4byte	.LASF153
 1874 0cde 0D       		.byte	0xd
 1875 0cdf DB       		.byte	0xdb
 1876 0ce0 3C       		.uleb128 0x3c
 1877 0ce1 20030000 		.4byte	.LASF155
ARM GAS  C:\Users\jo\AppData\Local\Temp\ccJrjCse.s 			page 34


 1878 0ce5 05       		.byte	0x5
 1879 0ce6 BC       		.byte	0xbc
 1880 0ce7 000D0000 		.4byte	0xd00
 1881 0ceb 0D       		.uleb128 0xd
 1882 0cec CA060000 		.4byte	0x6ca
 1883 0cf0 0D       		.uleb128 0xd
 1884 0cf1 2B010000 		.4byte	0x12b
 1885 0cf5 0D       		.uleb128 0xd
 1886 0cf6 06030000 		.4byte	0x306
 1887 0cfa 0D       		.uleb128 0xd
 1888 0cfb 22030000 		.4byte	0x322
 1889 0cff 00       		.byte	0
 1890 0d00 3B       		.uleb128 0x3b
 1891 0d01 66040000 		.4byte	.LASF156
 1892 0d05 0D       		.byte	0xd
 1893 0d06 D8       		.byte	0xd8
 1894 0d07 3B       		.uleb128 0x3b
 1895 0d08 E0020000 		.4byte	.LASF157
 1896 0d0c 0D       		.byte	0xd
 1897 0d0d DE       		.byte	0xde
 1898 0d0e 3C       		.uleb128 0x3c
 1899 0d0f B5000000 		.4byte	.LASF158
 1900 0d13 05       		.byte	0x5
 1901 0d14 BE       		.byte	0xbe
 1902 0d15 1F0D0000 		.4byte	0xd1f
 1903 0d19 0D       		.uleb128 0xd
 1904 0d1a CA060000 		.4byte	0x6ca
 1905 0d1e 00       		.byte	0
 1906 0d1f 3B       		.uleb128 0x3b
 1907 0d20 AD070000 		.4byte	.LASF159
 1908 0d24 0D       		.byte	0xd
 1909 0d25 D9       		.byte	0xd9
 1910 0d26 3D       		.uleb128 0x3d
 1911 0d27 79000000 		.4byte	.LASF166
 1912 0d2b 03       		.byte	0x3
 1913 0d2c 1601     		.2byte	0x116
 1914 0d2e 0D       		.uleb128 0xd
 1915 0d2f B2060000 		.4byte	0x6b2
 1916 0d33 00       		.byte	0
 1917 0d34 00       		.byte	0
 1918              		.section	.debug_abbrev,"",%progbits
 1919              	.Ldebug_abbrev0:
 1920 0000 01       		.uleb128 0x1
 1921 0001 11       		.uleb128 0x11
 1922 0002 01       		.byte	0x1
 1923 0003 25       		.uleb128 0x25
 1924 0004 0E       		.uleb128 0xe
 1925 0005 13       		.uleb128 0x13
 1926 0006 0B       		.uleb128 0xb
 1927 0007 03       		.uleb128 0x3
 1928 0008 0E       		.uleb128 0xe
 1929 0009 1B       		.uleb128 0x1b
 1930 000a 0E       		.uleb128 0xe
 1931 000b 55       		.uleb128 0x55
 1932 000c 17       		.uleb128 0x17
 1933 000d 11       		.uleb128 0x11
 1934 000e 01       		.uleb128 0x1
ARM GAS  C:\Users\jo\AppData\Local\Temp\ccJrjCse.s 			page 35


 1935 000f 10       		.uleb128 0x10
 1936 0010 17       		.uleb128 0x17
 1937 0011 00       		.byte	0
 1938 0012 00       		.byte	0
 1939 0013 02       		.uleb128 0x2
 1940 0014 24       		.uleb128 0x24
 1941 0015 00       		.byte	0
 1942 0016 0B       		.uleb128 0xb
 1943 0017 0B       		.uleb128 0xb
 1944 0018 3E       		.uleb128 0x3e
 1945 0019 0B       		.uleb128 0xb
 1946 001a 03       		.uleb128 0x3
 1947 001b 08       		.uleb128 0x8
 1948 001c 00       		.byte	0
 1949 001d 00       		.byte	0
 1950 001e 03       		.uleb128 0x3
 1951 001f 24       		.uleb128 0x24
 1952 0020 00       		.byte	0
 1953 0021 0B       		.uleb128 0xb
 1954 0022 0B       		.uleb128 0xb
 1955 0023 3E       		.uleb128 0x3e
 1956 0024 0B       		.uleb128 0xb
 1957 0025 03       		.uleb128 0x3
 1958 0026 0E       		.uleb128 0xe
 1959 0027 00       		.byte	0
 1960 0028 00       		.byte	0
 1961 0029 04       		.uleb128 0x4
 1962 002a 16       		.uleb128 0x16
 1963 002b 00       		.byte	0
 1964 002c 03       		.uleb128 0x3
 1965 002d 0E       		.uleb128 0xe
 1966 002e 3A       		.uleb128 0x3a
 1967 002f 0B       		.uleb128 0xb
 1968 0030 3B       		.uleb128 0x3b
 1969 0031 0B       		.uleb128 0xb
 1970 0032 49       		.uleb128 0x49
 1971 0033 13       		.uleb128 0x13
 1972 0034 00       		.byte	0
 1973 0035 00       		.byte	0
 1974 0036 05       		.uleb128 0x5
 1975 0037 35       		.uleb128 0x35
 1976 0038 00       		.byte	0
 1977 0039 49       		.uleb128 0x49
 1978 003a 13       		.uleb128 0x13
 1979 003b 00       		.byte	0
 1980 003c 00       		.byte	0
 1981 003d 06       		.uleb128 0x6
 1982 003e 13       		.uleb128 0x13
 1983 003f 01       		.byte	0x1
 1984 0040 03       		.uleb128 0x3
 1985 0041 0E       		.uleb128 0xe
 1986 0042 0B       		.uleb128 0xb
 1987 0043 0B       		.uleb128 0xb
 1988 0044 3A       		.uleb128 0x3a
 1989 0045 0B       		.uleb128 0xb
 1990 0046 3B       		.uleb128 0x3b
 1991 0047 0B       		.uleb128 0xb
ARM GAS  C:\Users\jo\AppData\Local\Temp\ccJrjCse.s 			page 36


 1992 0048 01       		.uleb128 0x1
 1993 0049 13       		.uleb128 0x13
 1994 004a 00       		.byte	0
 1995 004b 00       		.byte	0
 1996 004c 07       		.uleb128 0x7
 1997 004d 0D       		.uleb128 0xd
 1998 004e 00       		.byte	0
 1999 004f 03       		.uleb128 0x3
 2000 0050 0E       		.uleb128 0xe
 2001 0051 3A       		.uleb128 0x3a
 2002 0052 0B       		.uleb128 0xb
 2003 0053 3B       		.uleb128 0x3b
 2004 0054 0B       		.uleb128 0xb
 2005 0055 49       		.uleb128 0x49
 2006 0056 13       		.uleb128 0x13
 2007 0057 38       		.uleb128 0x38
 2008 0058 0B       		.uleb128 0xb
 2009 0059 00       		.byte	0
 2010 005a 00       		.byte	0
 2011 005b 08       		.uleb128 0x8
 2012 005c 0D       		.uleb128 0xd
 2013 005d 00       		.byte	0
 2014 005e 03       		.uleb128 0x3
 2015 005f 08       		.uleb128 0x8
 2016 0060 3A       		.uleb128 0x3a
 2017 0061 0B       		.uleb128 0xb
 2018 0062 3B       		.uleb128 0x3b
 2019 0063 05       		.uleb128 0x5
 2020 0064 49       		.uleb128 0x49
 2021 0065 13       		.uleb128 0x13
 2022 0066 38       		.uleb128 0x38
 2023 0067 0B       		.uleb128 0xb
 2024 0068 00       		.byte	0
 2025 0069 00       		.byte	0
 2026 006a 09       		.uleb128 0x9
 2027 006b 0D       		.uleb128 0xd
 2028 006c 00       		.byte	0
 2029 006d 03       		.uleb128 0x3
 2030 006e 0E       		.uleb128 0xe
 2031 006f 3A       		.uleb128 0x3a
 2032 0070 0B       		.uleb128 0xb
 2033 0071 3B       		.uleb128 0x3b
 2034 0072 05       		.uleb128 0x5
 2035 0073 49       		.uleb128 0x49
 2036 0074 13       		.uleb128 0x13
 2037 0075 38       		.uleb128 0x38
 2038 0076 0B       		.uleb128 0xb
 2039 0077 00       		.byte	0
 2040 0078 00       		.byte	0
 2041 0079 0A       		.uleb128 0xa
 2042 007a 0F       		.uleb128 0xf
 2043 007b 00       		.byte	0
 2044 007c 0B       		.uleb128 0xb
 2045 007d 0B       		.uleb128 0xb
 2046 007e 49       		.uleb128 0x49
 2047 007f 13       		.uleb128 0x13
 2048 0080 00       		.byte	0
ARM GAS  C:\Users\jo\AppData\Local\Temp\ccJrjCse.s 			page 37


 2049 0081 00       		.byte	0
 2050 0082 0B       		.uleb128 0xb
 2051 0083 13       		.uleb128 0x13
 2052 0084 01       		.byte	0x1
 2053 0085 03       		.uleb128 0x3
 2054 0086 0E       		.uleb128 0xe
 2055 0087 0B       		.uleb128 0xb
 2056 0088 0B       		.uleb128 0xb
 2057 0089 3A       		.uleb128 0x3a
 2058 008a 0B       		.uleb128 0xb
 2059 008b 3B       		.uleb128 0x3b
 2060 008c 05       		.uleb128 0x5
 2061 008d 01       		.uleb128 0x1
 2062 008e 13       		.uleb128 0x13
 2063 008f 00       		.byte	0
 2064 0090 00       		.byte	0
 2065 0091 0C       		.uleb128 0xc
 2066 0092 15       		.uleb128 0x15
 2067 0093 01       		.byte	0x1
 2068 0094 27       		.uleb128 0x27
 2069 0095 19       		.uleb128 0x19
 2070 0096 01       		.uleb128 0x1
 2071 0097 13       		.uleb128 0x13
 2072 0098 00       		.byte	0
 2073 0099 00       		.byte	0
 2074 009a 0D       		.uleb128 0xd
 2075 009b 05       		.uleb128 0x5
 2076 009c 00       		.byte	0
 2077 009d 49       		.uleb128 0x49
 2078 009e 13       		.uleb128 0x13
 2079 009f 00       		.byte	0
 2080 00a0 00       		.byte	0
 2081 00a1 0E       		.uleb128 0xe
 2082 00a2 0F       		.uleb128 0xf
 2083 00a3 00       		.byte	0
 2084 00a4 0B       		.uleb128 0xb
 2085 00a5 0B       		.uleb128 0xb
 2086 00a6 00       		.byte	0
 2087 00a7 00       		.byte	0
 2088 00a8 0F       		.uleb128 0xf
 2089 00a9 13       		.uleb128 0x13
 2090 00aa 01       		.byte	0x1
 2091 00ab 03       		.uleb128 0x3
 2092 00ac 0E       		.uleb128 0xe
 2093 00ad 0B       		.uleb128 0xb
 2094 00ae 05       		.uleb128 0x5
 2095 00af 3A       		.uleb128 0x3a
 2096 00b0 0B       		.uleb128 0xb
 2097 00b1 3B       		.uleb128 0x3b
 2098 00b2 05       		.uleb128 0x5
 2099 00b3 01       		.uleb128 0x1
 2100 00b4 13       		.uleb128 0x13
 2101 00b5 00       		.byte	0
 2102 00b6 00       		.byte	0
 2103 00b7 10       		.uleb128 0x10
 2104 00b8 0D       		.uleb128 0xd
 2105 00b9 00       		.byte	0
ARM GAS  C:\Users\jo\AppData\Local\Temp\ccJrjCse.s 			page 38


 2106 00ba 03       		.uleb128 0x3
 2107 00bb 0E       		.uleb128 0xe
 2108 00bc 3A       		.uleb128 0x3a
 2109 00bd 0B       		.uleb128 0xb
 2110 00be 3B       		.uleb128 0x3b
 2111 00bf 05       		.uleb128 0x5
 2112 00c0 49       		.uleb128 0x49
 2113 00c1 13       		.uleb128 0x13
 2114 00c2 38       		.uleb128 0x38
 2115 00c3 05       		.uleb128 0x5
 2116 00c4 00       		.byte	0
 2117 00c5 00       		.byte	0
 2118 00c6 11       		.uleb128 0x11
 2119 00c7 0D       		.uleb128 0xd
 2120 00c8 00       		.byte	0
 2121 00c9 03       		.uleb128 0x3
 2122 00ca 08       		.uleb128 0x8
 2123 00cb 3A       		.uleb128 0x3a
 2124 00cc 0B       		.uleb128 0xb
 2125 00cd 3B       		.uleb128 0x3b
 2126 00ce 05       		.uleb128 0x5
 2127 00cf 49       		.uleb128 0x49
 2128 00d0 13       		.uleb128 0x13
 2129 00d1 38       		.uleb128 0x38
 2130 00d2 05       		.uleb128 0x5
 2131 00d3 00       		.byte	0
 2132 00d4 00       		.byte	0
 2133 00d5 12       		.uleb128 0x12
 2134 00d6 0D       		.uleb128 0xd
 2135 00d7 00       		.byte	0
 2136 00d8 03       		.uleb128 0x3
 2137 00d9 08       		.uleb128 0x8
 2138 00da 3A       		.uleb128 0x3a
 2139 00db 0B       		.uleb128 0xb
 2140 00dc 3B       		.uleb128 0x3b
 2141 00dd 0B       		.uleb128 0xb
 2142 00de 49       		.uleb128 0x49
 2143 00df 13       		.uleb128 0x13
 2144 00e0 38       		.uleb128 0x38
 2145 00e1 0B       		.uleb128 0xb
 2146 00e2 00       		.byte	0
 2147 00e3 00       		.byte	0
 2148 00e4 13       		.uleb128 0x13
 2149 00e5 13       		.uleb128 0x13
 2150 00e6 01       		.byte	0x1
 2151 00e7 0B       		.uleb128 0xb
 2152 00e8 0B       		.uleb128 0xb
 2153 00e9 3A       		.uleb128 0x3a
 2154 00ea 0B       		.uleb128 0xb
 2155 00eb 3B       		.uleb128 0x3b
 2156 00ec 0B       		.uleb128 0xb
 2157 00ed 01       		.uleb128 0x1
 2158 00ee 13       		.uleb128 0x13
 2159 00ef 00       		.byte	0
 2160 00f0 00       		.byte	0
 2161 00f1 14       		.uleb128 0x14
 2162 00f2 13       		.uleb128 0x13
ARM GAS  C:\Users\jo\AppData\Local\Temp\ccJrjCse.s 			page 39


 2163 00f3 01       		.byte	0x1
 2164 00f4 0B       		.uleb128 0xb
 2165 00f5 05       		.uleb128 0x5
 2166 00f6 3A       		.uleb128 0x3a
 2167 00f7 0B       		.uleb128 0xb
 2168 00f8 3B       		.uleb128 0x3b
 2169 00f9 0B       		.uleb128 0xb
 2170 00fa 01       		.uleb128 0x1
 2171 00fb 13       		.uleb128 0x13
 2172 00fc 00       		.byte	0
 2173 00fd 00       		.byte	0
 2174 00fe 15       		.uleb128 0x15
 2175 00ff 01       		.uleb128 0x1
 2176 0100 01       		.byte	0x1
 2177 0101 49       		.uleb128 0x49
 2178 0102 13       		.uleb128 0x13
 2179 0103 01       		.uleb128 0x1
 2180 0104 13       		.uleb128 0x13
 2181 0105 00       		.byte	0
 2182 0106 00       		.byte	0
 2183 0107 16       		.uleb128 0x16
 2184 0108 21       		.uleb128 0x21
 2185 0109 00       		.byte	0
 2186 010a 49       		.uleb128 0x49
 2187 010b 13       		.uleb128 0x13
 2188 010c 2F       		.uleb128 0x2f
 2189 010d 0B       		.uleb128 0xb
 2190 010e 00       		.byte	0
 2191 010f 00       		.byte	0
 2192 0110 17       		.uleb128 0x17
 2193 0111 17       		.uleb128 0x17
 2194 0112 01       		.byte	0x1
 2195 0113 0B       		.uleb128 0xb
 2196 0114 0B       		.uleb128 0xb
 2197 0115 3A       		.uleb128 0x3a
 2198 0116 0B       		.uleb128 0xb
 2199 0117 3B       		.uleb128 0x3b
 2200 0118 0B       		.uleb128 0xb
 2201 0119 01       		.uleb128 0x1
 2202 011a 13       		.uleb128 0x13
 2203 011b 00       		.byte	0
 2204 011c 00       		.byte	0
 2205 011d 18       		.uleb128 0x18
 2206 011e 0D       		.uleb128 0xd
 2207 011f 00       		.byte	0
 2208 0120 03       		.uleb128 0x3
 2209 0121 0E       		.uleb128 0xe
 2210 0122 3A       		.uleb128 0x3a
 2211 0123 0B       		.uleb128 0xb
 2212 0124 3B       		.uleb128 0x3b
 2213 0125 05       		.uleb128 0x5
 2214 0126 49       		.uleb128 0x49
 2215 0127 13       		.uleb128 0x13
 2216 0128 00       		.byte	0
 2217 0129 00       		.byte	0
 2218 012a 19       		.uleb128 0x19
 2219 012b 26       		.uleb128 0x26
ARM GAS  C:\Users\jo\AppData\Local\Temp\ccJrjCse.s 			page 40


 2220 012c 00       		.byte	0
 2221 012d 49       		.uleb128 0x49
 2222 012e 13       		.uleb128 0x13
 2223 012f 00       		.byte	0
 2224 0130 00       		.byte	0
 2225 0131 1A       		.uleb128 0x1a
 2226 0132 2E       		.uleb128 0x2e
 2227 0133 01       		.byte	0x1
 2228 0134 03       		.uleb128 0x3
 2229 0135 0E       		.uleb128 0xe
 2230 0136 3A       		.uleb128 0x3a
 2231 0137 0B       		.uleb128 0xb
 2232 0138 3B       		.uleb128 0x3b
 2233 0139 05       		.uleb128 0x5
 2234 013a 27       		.uleb128 0x27
 2235 013b 19       		.uleb128 0x19
 2236 013c 20       		.uleb128 0x20
 2237 013d 0B       		.uleb128 0xb
 2238 013e 01       		.uleb128 0x1
 2239 013f 13       		.uleb128 0x13
 2240 0140 00       		.byte	0
 2241 0141 00       		.byte	0
 2242 0142 1B       		.uleb128 0x1b
 2243 0143 05       		.uleb128 0x5
 2244 0144 00       		.byte	0
 2245 0145 03       		.uleb128 0x3
 2246 0146 0E       		.uleb128 0xe
 2247 0147 3A       		.uleb128 0x3a
 2248 0148 0B       		.uleb128 0xb
 2249 0149 3B       		.uleb128 0x3b
 2250 014a 05       		.uleb128 0x5
 2251 014b 49       		.uleb128 0x49
 2252 014c 13       		.uleb128 0x13
 2253 014d 00       		.byte	0
 2254 014e 00       		.byte	0
 2255 014f 1C       		.uleb128 0x1c
 2256 0150 2E       		.uleb128 0x2e
 2257 0151 00       		.byte	0
 2258 0152 03       		.uleb128 0x3
 2259 0153 0E       		.uleb128 0xe
 2260 0154 3A       		.uleb128 0x3a
 2261 0155 0B       		.uleb128 0xb
 2262 0156 3B       		.uleb128 0x3b
 2263 0157 05       		.uleb128 0x5
 2264 0158 27       		.uleb128 0x27
 2265 0159 19       		.uleb128 0x19
 2266 015a 20       		.uleb128 0x20
 2267 015b 0B       		.uleb128 0xb
 2268 015c 00       		.byte	0
 2269 015d 00       		.byte	0
 2270 015e 1D       		.uleb128 0x1d
 2271 015f 2E       		.uleb128 0x2e
 2272 0160 01       		.byte	0x1
 2273 0161 03       		.uleb128 0x3
 2274 0162 0E       		.uleb128 0xe
 2275 0163 3A       		.uleb128 0x3a
 2276 0164 0B       		.uleb128 0xb
ARM GAS  C:\Users\jo\AppData\Local\Temp\ccJrjCse.s 			page 41


 2277 0165 3B       		.uleb128 0x3b
 2278 0166 0B       		.uleb128 0xb
 2279 0167 27       		.uleb128 0x27
 2280 0168 19       		.uleb128 0x19
 2281 0169 20       		.uleb128 0x20
 2282 016a 0B       		.uleb128 0xb
 2283 016b 01       		.uleb128 0x1
 2284 016c 13       		.uleb128 0x13
 2285 016d 00       		.byte	0
 2286 016e 00       		.byte	0
 2287 016f 1E       		.uleb128 0x1e
 2288 0170 05       		.uleb128 0x5
 2289 0171 00       		.byte	0
 2290 0172 03       		.uleb128 0x3
 2291 0173 08       		.uleb128 0x8
 2292 0174 3A       		.uleb128 0x3a
 2293 0175 0B       		.uleb128 0xb
 2294 0176 3B       		.uleb128 0x3b
 2295 0177 0B       		.uleb128 0xb
 2296 0178 49       		.uleb128 0x49
 2297 0179 13       		.uleb128 0x13
 2298 017a 00       		.byte	0
 2299 017b 00       		.byte	0
 2300 017c 1F       		.uleb128 0x1f
 2301 017d 2E       		.uleb128 0x2e
 2302 017e 01       		.byte	0x1
 2303 017f 03       		.uleb128 0x3
 2304 0180 0E       		.uleb128 0xe
 2305 0181 3A       		.uleb128 0x3a
 2306 0182 0B       		.uleb128 0xb
 2307 0183 3B       		.uleb128 0x3b
 2308 0184 05       		.uleb128 0x5
 2309 0185 27       		.uleb128 0x27
 2310 0186 19       		.uleb128 0x19
 2311 0187 49       		.uleb128 0x49
 2312 0188 13       		.uleb128 0x13
 2313 0189 20       		.uleb128 0x20
 2314 018a 0B       		.uleb128 0xb
 2315 018b 01       		.uleb128 0x1
 2316 018c 13       		.uleb128 0x13
 2317 018d 00       		.byte	0
 2318 018e 00       		.byte	0
 2319 018f 20       		.uleb128 0x20
 2320 0190 05       		.uleb128 0x5
 2321 0191 00       		.byte	0
 2322 0192 03       		.uleb128 0x3
 2323 0193 08       		.uleb128 0x8
 2324 0194 3A       		.uleb128 0x3a
 2325 0195 0B       		.uleb128 0xb
 2326 0196 3B       		.uleb128 0x3b
 2327 0197 05       		.uleb128 0x5
 2328 0198 49       		.uleb128 0x49
 2329 0199 13       		.uleb128 0x13
 2330 019a 00       		.byte	0
 2331 019b 00       		.byte	0
 2332 019c 21       		.uleb128 0x21
 2333 019d 2E       		.uleb128 0x2e
ARM GAS  C:\Users\jo\AppData\Local\Temp\ccJrjCse.s 			page 42


 2334 019e 01       		.byte	0x1
 2335 019f 03       		.uleb128 0x3
 2336 01a0 0E       		.uleb128 0xe
 2337 01a1 3A       		.uleb128 0x3a
 2338 01a2 0B       		.uleb128 0xb
 2339 01a3 3B       		.uleb128 0x3b
 2340 01a4 0B       		.uleb128 0xb
 2341 01a5 27       		.uleb128 0x27
 2342 01a6 19       		.uleb128 0x19
 2343 01a7 11       		.uleb128 0x11
 2344 01a8 01       		.uleb128 0x1
 2345 01a9 12       		.uleb128 0x12
 2346 01aa 06       		.uleb128 0x6
 2347 01ab 40       		.uleb128 0x40
 2348 01ac 18       		.uleb128 0x18
 2349 01ad 9742     		.uleb128 0x2117
 2350 01af 19       		.uleb128 0x19
 2351 01b0 01       		.uleb128 0x1
 2352 01b1 13       		.uleb128 0x13
 2353 01b2 00       		.byte	0
 2354 01b3 00       		.byte	0
 2355 01b4 22       		.uleb128 0x22
 2356 01b5 05       		.uleb128 0x5
 2357 01b6 00       		.byte	0
 2358 01b7 03       		.uleb128 0x3
 2359 01b8 08       		.uleb128 0x8
 2360 01b9 3A       		.uleb128 0x3a
 2361 01ba 0B       		.uleb128 0xb
 2362 01bb 3B       		.uleb128 0x3b
 2363 01bc 0B       		.uleb128 0xb
 2364 01bd 49       		.uleb128 0x49
 2365 01be 13       		.uleb128 0x13
 2366 01bf 02       		.uleb128 0x2
 2367 01c0 17       		.uleb128 0x17
 2368 01c1 00       		.byte	0
 2369 01c2 00       		.byte	0
 2370 01c3 23       		.uleb128 0x23
 2371 01c4 34       		.uleb128 0x34
 2372 01c5 00       		.byte	0
 2373 01c6 03       		.uleb128 0x3
 2374 01c7 08       		.uleb128 0x8
 2375 01c8 3A       		.uleb128 0x3a
 2376 01c9 0B       		.uleb128 0xb
 2377 01ca 3B       		.uleb128 0x3b
 2378 01cb 0B       		.uleb128 0xb
 2379 01cc 49       		.uleb128 0x49
 2380 01cd 13       		.uleb128 0x13
 2381 01ce 02       		.uleb128 0x2
 2382 01cf 17       		.uleb128 0x17
 2383 01d0 00       		.byte	0
 2384 01d1 00       		.byte	0
 2385 01d2 24       		.uleb128 0x24
 2386 01d3 1D       		.uleb128 0x1d
 2387 01d4 01       		.byte	0x1
 2388 01d5 31       		.uleb128 0x31
 2389 01d6 13       		.uleb128 0x13
 2390 01d7 52       		.uleb128 0x52
ARM GAS  C:\Users\jo\AppData\Local\Temp\ccJrjCse.s 			page 43


 2391 01d8 01       		.uleb128 0x1
 2392 01d9 55       		.uleb128 0x55
 2393 01da 17       		.uleb128 0x17
 2394 01db 58       		.uleb128 0x58
 2395 01dc 0B       		.uleb128 0xb
 2396 01dd 59       		.uleb128 0x59
 2397 01de 0B       		.uleb128 0xb
 2398 01df 01       		.uleb128 0x1
 2399 01e0 13       		.uleb128 0x13
 2400 01e1 00       		.byte	0
 2401 01e2 00       		.byte	0
 2402 01e3 25       		.uleb128 0x25
 2403 01e4 1D       		.uleb128 0x1d
 2404 01e5 01       		.byte	0x1
 2405 01e6 31       		.uleb128 0x31
 2406 01e7 13       		.uleb128 0x13
 2407 01e8 52       		.uleb128 0x52
 2408 01e9 01       		.uleb128 0x1
 2409 01ea 55       		.uleb128 0x55
 2410 01eb 17       		.uleb128 0x17
 2411 01ec 58       		.uleb128 0x58
 2412 01ed 0B       		.uleb128 0xb
 2413 01ee 59       		.uleb128 0x59
 2414 01ef 05       		.uleb128 0x5
 2415 01f0 01       		.uleb128 0x1
 2416 01f1 13       		.uleb128 0x13
 2417 01f2 00       		.byte	0
 2418 01f3 00       		.byte	0
 2419 01f4 26       		.uleb128 0x26
 2420 01f5 1D       		.uleb128 0x1d
 2421 01f6 01       		.byte	0x1
 2422 01f7 31       		.uleb128 0x31
 2423 01f8 13       		.uleb128 0x13
 2424 01f9 52       		.uleb128 0x52
 2425 01fa 01       		.uleb128 0x1
 2426 01fb 55       		.uleb128 0x55
 2427 01fc 17       		.uleb128 0x17
 2428 01fd 58       		.uleb128 0x58
 2429 01fe 0B       		.uleb128 0xb
 2430 01ff 59       		.uleb128 0x59
 2431 0200 05       		.uleb128 0x5
 2432 0201 00       		.byte	0
 2433 0202 00       		.byte	0
 2434 0203 27       		.uleb128 0x27
 2435 0204 05       		.uleb128 0x5
 2436 0205 00       		.byte	0
 2437 0206 31       		.uleb128 0x31
 2438 0207 13       		.uleb128 0x13
 2439 0208 1C       		.uleb128 0x1c
 2440 0209 0B       		.uleb128 0xb
 2441 020a 00       		.byte	0
 2442 020b 00       		.byte	0
 2443 020c 28       		.uleb128 0x28
 2444 020d 898201   		.uleb128 0x4109
 2445 0210 00       		.byte	0
 2446 0211 11       		.uleb128 0x11
 2447 0212 01       		.uleb128 0x1
ARM GAS  C:\Users\jo\AppData\Local\Temp\ccJrjCse.s 			page 44


 2448 0213 31       		.uleb128 0x31
 2449 0214 13       		.uleb128 0x13
 2450 0215 00       		.byte	0
 2451 0216 00       		.byte	0
 2452 0217 29       		.uleb128 0x29
 2453 0218 1D       		.uleb128 0x1d
 2454 0219 01       		.byte	0x1
 2455 021a 31       		.uleb128 0x31
 2456 021b 13       		.uleb128 0x13
 2457 021c 11       		.uleb128 0x11
 2458 021d 01       		.uleb128 0x1
 2459 021e 12       		.uleb128 0x12
 2460 021f 06       		.uleb128 0x6
 2461 0220 58       		.uleb128 0x58
 2462 0221 0B       		.uleb128 0xb
 2463 0222 59       		.uleb128 0x59
 2464 0223 0B       		.uleb128 0xb
 2465 0224 01       		.uleb128 0x1
 2466 0225 13       		.uleb128 0x13
 2467 0226 00       		.byte	0
 2468 0227 00       		.byte	0
 2469 0228 2A       		.uleb128 0x2a
 2470 0229 05       		.uleb128 0x5
 2471 022a 00       		.byte	0
 2472 022b 31       		.uleb128 0x31
 2473 022c 13       		.uleb128 0x13
 2474 022d 02       		.uleb128 0x2
 2475 022e 17       		.uleb128 0x17
 2476 022f 00       		.byte	0
 2477 0230 00       		.byte	0
 2478 0231 2B       		.uleb128 0x2b
 2479 0232 898201   		.uleb128 0x4109
 2480 0235 01       		.byte	0x1
 2481 0236 11       		.uleb128 0x11
 2482 0237 01       		.uleb128 0x1
 2483 0238 31       		.uleb128 0x31
 2484 0239 13       		.uleb128 0x13
 2485 023a 00       		.byte	0
 2486 023b 00       		.byte	0
 2487 023c 2C       		.uleb128 0x2c
 2488 023d 8A8201   		.uleb128 0x410a
 2489 0240 00       		.byte	0
 2490 0241 02       		.uleb128 0x2
 2491 0242 18       		.uleb128 0x18
 2492 0243 9142     		.uleb128 0x2111
 2493 0245 18       		.uleb128 0x18
 2494 0246 00       		.byte	0
 2495 0247 00       		.byte	0
 2496 0248 2D       		.uleb128 0x2d
 2497 0249 1D       		.uleb128 0x1d
 2498 024a 01       		.byte	0x1
 2499 024b 31       		.uleb128 0x31
 2500 024c 13       		.uleb128 0x13
 2501 024d 11       		.uleb128 0x11
 2502 024e 01       		.uleb128 0x1
 2503 024f 12       		.uleb128 0x12
 2504 0250 06       		.uleb128 0x6
ARM GAS  C:\Users\jo\AppData\Local\Temp\ccJrjCse.s 			page 45


 2505 0251 58       		.uleb128 0x58
 2506 0252 0B       		.uleb128 0xb
 2507 0253 59       		.uleb128 0x59
 2508 0254 05       		.uleb128 0x5
 2509 0255 01       		.uleb128 0x1
 2510 0256 13       		.uleb128 0x13
 2511 0257 00       		.byte	0
 2512 0258 00       		.byte	0
 2513 0259 2E       		.uleb128 0x2e
 2514 025a 1D       		.uleb128 0x1d
 2515 025b 01       		.byte	0x1
 2516 025c 31       		.uleb128 0x31
 2517 025d 13       		.uleb128 0x13
 2518 025e 11       		.uleb128 0x11
 2519 025f 01       		.uleb128 0x1
 2520 0260 12       		.uleb128 0x12
 2521 0261 06       		.uleb128 0x6
 2522 0262 58       		.uleb128 0x58
 2523 0263 0B       		.uleb128 0xb
 2524 0264 59       		.uleb128 0x59
 2525 0265 05       		.uleb128 0x5
 2526 0266 00       		.byte	0
 2527 0267 00       		.byte	0
 2528 0268 2F       		.uleb128 0x2f
 2529 0269 2E       		.uleb128 0x2e
 2530 026a 01       		.byte	0x1
 2531 026b 3F       		.uleb128 0x3f
 2532 026c 19       		.uleb128 0x19
 2533 026d 03       		.uleb128 0x3
 2534 026e 0E       		.uleb128 0xe
 2535 026f 3A       		.uleb128 0x3a
 2536 0270 0B       		.uleb128 0xb
 2537 0271 3B       		.uleb128 0x3b
 2538 0272 0B       		.uleb128 0xb
 2539 0273 27       		.uleb128 0x27
 2540 0274 19       		.uleb128 0x19
 2541 0275 11       		.uleb128 0x11
 2542 0276 01       		.uleb128 0x1
 2543 0277 12       		.uleb128 0x12
 2544 0278 06       		.uleb128 0x6
 2545 0279 40       		.uleb128 0x40
 2546 027a 18       		.uleb128 0x18
 2547 027b 9742     		.uleb128 0x2117
 2548 027d 19       		.uleb128 0x19
 2549 027e 01       		.uleb128 0x1
 2550 027f 13       		.uleb128 0x13
 2551 0280 00       		.byte	0
 2552 0281 00       		.byte	0
 2553 0282 30       		.uleb128 0x30
 2554 0283 05       		.uleb128 0x5
 2555 0284 00       		.byte	0
 2556 0285 03       		.uleb128 0x3
 2557 0286 08       		.uleb128 0x8
 2558 0287 3A       		.uleb128 0x3a
 2559 0288 0B       		.uleb128 0xb
 2560 0289 3B       		.uleb128 0x3b
 2561 028a 0B       		.uleb128 0xb
ARM GAS  C:\Users\jo\AppData\Local\Temp\ccJrjCse.s 			page 46


 2562 028b 49       		.uleb128 0x49
 2563 028c 13       		.uleb128 0x13
 2564 028d 02       		.uleb128 0x2
 2565 028e 18       		.uleb128 0x18
 2566 028f 00       		.byte	0
 2567 0290 00       		.byte	0
 2568 0291 31       		.uleb128 0x31
 2569 0292 05       		.uleb128 0x5
 2570 0293 00       		.byte	0
 2571 0294 03       		.uleb128 0x3
 2572 0295 0E       		.uleb128 0xe
 2573 0296 3A       		.uleb128 0x3a
 2574 0297 0B       		.uleb128 0xb
 2575 0298 3B       		.uleb128 0x3b
 2576 0299 0B       		.uleb128 0xb
 2577 029a 49       		.uleb128 0x49
 2578 029b 13       		.uleb128 0x13
 2579 029c 02       		.uleb128 0x2
 2580 029d 18       		.uleb128 0x18
 2581 029e 00       		.byte	0
 2582 029f 00       		.byte	0
 2583 02a0 32       		.uleb128 0x32
 2584 02a1 05       		.uleb128 0x5
 2585 02a2 00       		.byte	0
 2586 02a3 31       		.uleb128 0x31
 2587 02a4 13       		.uleb128 0x13
 2588 02a5 02       		.uleb128 0x2
 2589 02a6 18       		.uleb128 0x18
 2590 02a7 00       		.byte	0
 2591 02a8 00       		.byte	0
 2592 02a9 33       		.uleb128 0x33
 2593 02aa 1D       		.uleb128 0x1d
 2594 02ab 01       		.byte	0x1
 2595 02ac 31       		.uleb128 0x31
 2596 02ad 13       		.uleb128 0x13
 2597 02ae 11       		.uleb128 0x11
 2598 02af 01       		.uleb128 0x1
 2599 02b0 12       		.uleb128 0x12
 2600 02b1 06       		.uleb128 0x6
 2601 02b2 58       		.uleb128 0x58
 2602 02b3 0B       		.uleb128 0xb
 2603 02b4 59       		.uleb128 0x59
 2604 02b5 0B       		.uleb128 0xb
 2605 02b6 00       		.byte	0
 2606 02b7 00       		.byte	0
 2607 02b8 34       		.uleb128 0x34
 2608 02b9 34       		.uleb128 0x34
 2609 02ba 00       		.byte	0
 2610 02bb 03       		.uleb128 0x3
 2611 02bc 0E       		.uleb128 0xe
 2612 02bd 49       		.uleb128 0x49
 2613 02be 13       		.uleb128 0x13
 2614 02bf 34       		.uleb128 0x34
 2615 02c0 19       		.uleb128 0x19
 2616 02c1 1C       		.uleb128 0x1c
 2617 02c2 0E       		.uleb128 0xe
 2618 02c3 00       		.byte	0
ARM GAS  C:\Users\jo\AppData\Local\Temp\ccJrjCse.s 			page 47


 2619 02c4 00       		.byte	0
 2620 02c5 35       		.uleb128 0x35
 2621 02c6 1D       		.uleb128 0x1d
 2622 02c7 01       		.byte	0x1
 2623 02c8 31       		.uleb128 0x31
 2624 02c9 13       		.uleb128 0x13
 2625 02ca 52       		.uleb128 0x52
 2626 02cb 01       		.uleb128 0x1
 2627 02cc 55       		.uleb128 0x55
 2628 02cd 17       		.uleb128 0x17
 2629 02ce 58       		.uleb128 0x58
 2630 02cf 0B       		.uleb128 0xb
 2631 02d0 59       		.uleb128 0x59
 2632 02d1 0B       		.uleb128 0xb
 2633 02d2 00       		.byte	0
 2634 02d3 00       		.byte	0
 2635 02d4 36       		.uleb128 0x36
 2636 02d5 05       		.uleb128 0x5
 2637 02d6 00       		.byte	0
 2638 02d7 31       		.uleb128 0x31
 2639 02d8 13       		.uleb128 0x13
 2640 02d9 00       		.byte	0
 2641 02da 00       		.byte	0
 2642 02db 37       		.uleb128 0x37
 2643 02dc 0B       		.uleb128 0xb
 2644 02dd 01       		.byte	0x1
 2645 02de 11       		.uleb128 0x11
 2646 02df 01       		.uleb128 0x1
 2647 02e0 12       		.uleb128 0x12
 2648 02e1 06       		.uleb128 0x6
 2649 02e2 00       		.byte	0
 2650 02e3 00       		.byte	0
 2651 02e4 38       		.uleb128 0x38
 2652 02e5 34       		.uleb128 0x34
 2653 02e6 00       		.byte	0
 2654 02e7 31       		.uleb128 0x31
 2655 02e8 13       		.uleb128 0x13
 2656 02e9 02       		.uleb128 0x2
 2657 02ea 18       		.uleb128 0x18
 2658 02eb 00       		.byte	0
 2659 02ec 00       		.byte	0
 2660 02ed 39       		.uleb128 0x39
 2661 02ee 34       		.uleb128 0x34
 2662 02ef 00       		.byte	0
 2663 02f0 03       		.uleb128 0x3
 2664 02f1 0E       		.uleb128 0xe
 2665 02f2 3A       		.uleb128 0x3a
 2666 02f3 0B       		.uleb128 0xb
 2667 02f4 3B       		.uleb128 0x3b
 2668 02f5 05       		.uleb128 0x5
 2669 02f6 49       		.uleb128 0x49
 2670 02f7 13       		.uleb128 0x13
 2671 02f8 3F       		.uleb128 0x3f
 2672 02f9 19       		.uleb128 0x19
 2673 02fa 3C       		.uleb128 0x3c
 2674 02fb 19       		.uleb128 0x19
 2675 02fc 00       		.byte	0
ARM GAS  C:\Users\jo\AppData\Local\Temp\ccJrjCse.s 			page 48


 2676 02fd 00       		.byte	0
 2677 02fe 3A       		.uleb128 0x3a
 2678 02ff 34       		.uleb128 0x34
 2679 0300 00       		.byte	0
 2680 0301 03       		.uleb128 0x3
 2681 0302 08       		.uleb128 0x8
 2682 0303 3A       		.uleb128 0x3a
 2683 0304 0B       		.uleb128 0xb
 2684 0305 3B       		.uleb128 0x3b
 2685 0306 05       		.uleb128 0x5
 2686 0307 49       		.uleb128 0x49
 2687 0308 13       		.uleb128 0x13
 2688 0309 3F       		.uleb128 0x3f
 2689 030a 19       		.uleb128 0x19
 2690 030b 3C       		.uleb128 0x3c
 2691 030c 19       		.uleb128 0x19
 2692 030d 00       		.byte	0
 2693 030e 00       		.byte	0
 2694 030f 3B       		.uleb128 0x3b
 2695 0310 2E       		.uleb128 0x2e
 2696 0311 00       		.byte	0
 2697 0312 3F       		.uleb128 0x3f
 2698 0313 19       		.uleb128 0x19
 2699 0314 03       		.uleb128 0x3
 2700 0315 0E       		.uleb128 0xe
 2701 0316 3A       		.uleb128 0x3a
 2702 0317 0B       		.uleb128 0xb
 2703 0318 3B       		.uleb128 0x3b
 2704 0319 0B       		.uleb128 0xb
 2705 031a 27       		.uleb128 0x27
 2706 031b 19       		.uleb128 0x19
 2707 031c 3C       		.uleb128 0x3c
 2708 031d 19       		.uleb128 0x19
 2709 031e 00       		.byte	0
 2710 031f 00       		.byte	0
 2711 0320 3C       		.uleb128 0x3c
 2712 0321 2E       		.uleb128 0x2e
 2713 0322 01       		.byte	0x1
 2714 0323 3F       		.uleb128 0x3f
 2715 0324 19       		.uleb128 0x19
 2716 0325 03       		.uleb128 0x3
 2717 0326 0E       		.uleb128 0xe
 2718 0327 3A       		.uleb128 0x3a
 2719 0328 0B       		.uleb128 0xb
 2720 0329 3B       		.uleb128 0x3b
 2721 032a 0B       		.uleb128 0xb
 2722 032b 27       		.uleb128 0x27
 2723 032c 19       		.uleb128 0x19
 2724 032d 3C       		.uleb128 0x3c
 2725 032e 19       		.uleb128 0x19
 2726 032f 01       		.uleb128 0x1
 2727 0330 13       		.uleb128 0x13
 2728 0331 00       		.byte	0
 2729 0332 00       		.byte	0
 2730 0333 3D       		.uleb128 0x3d
 2731 0334 2E       		.uleb128 0x2e
 2732 0335 01       		.byte	0x1
ARM GAS  C:\Users\jo\AppData\Local\Temp\ccJrjCse.s 			page 49


 2733 0336 3F       		.uleb128 0x3f
 2734 0337 19       		.uleb128 0x19
 2735 0338 03       		.uleb128 0x3
 2736 0339 0E       		.uleb128 0xe
 2737 033a 3A       		.uleb128 0x3a
 2738 033b 0B       		.uleb128 0xb
 2739 033c 3B       		.uleb128 0x3b
 2740 033d 05       		.uleb128 0x5
 2741 033e 27       		.uleb128 0x27
 2742 033f 19       		.uleb128 0x19
 2743 0340 3C       		.uleb128 0x3c
 2744 0341 19       		.uleb128 0x19
 2745 0342 00       		.byte	0
 2746 0343 00       		.byte	0
 2747 0344 00       		.byte	0
 2748              		.section	.debug_loc,"",%progbits
 2749              	.Ldebug_loc0:
 2750              	.LLST0:
 2751 0000 00000000 		.4byte	.LVL0
 2752 0004 0D000000 		.4byte	.LVL2-1
 2753 0008 0100     		.2byte	0x1
 2754 000a 50       		.byte	0x50
 2755 000b 0D000000 		.4byte	.LVL2-1
 2756 000f 30000000 		.4byte	.LVL7
 2757 0013 0100     		.2byte	0x1
 2758 0015 54       		.byte	0x54
 2759 0016 30000000 		.4byte	.LVL7
 2760 001a 34000000 		.4byte	.LFE229
 2761 001e 0400     		.2byte	0x4
 2762 0020 F3       		.byte	0xf3
 2763 0021 01       		.uleb128 0x1
 2764 0022 50       		.byte	0x50
 2765 0023 9F       		.byte	0x9f
 2766 0024 00000000 		.4byte	0
 2767 0028 00000000 		.4byte	0
 2768              	.LLST1:
 2769 002c 06000000 		.4byte	.LVL1
 2770 0030 0D000000 		.4byte	.LVL2-1
 2771 0034 0100     		.2byte	0x1
 2772 0036 50       		.byte	0x50
 2773 0037 0D000000 		.4byte	.LVL2-1
 2774 003b 30000000 		.4byte	.LVL7
 2775 003f 0100     		.2byte	0x1
 2776 0041 54       		.byte	0x54
 2777 0042 30000000 		.4byte	.LVL7
 2778 0046 34000000 		.4byte	.LFE229
 2779 004a 0400     		.2byte	0x4
 2780 004c F3       		.byte	0xf3
 2781 004d 01       		.uleb128 0x1
 2782 004e 50       		.byte	0x50
 2783 004f 9F       		.byte	0x9f
 2784 0050 00000000 		.4byte	0
 2785 0054 00000000 		.4byte	0
 2786              	.LLST2:
 2787 0058 0E000000 		.4byte	.LVL2
 2788 005c 12000000 		.4byte	.LVL3
 2789 0060 0300     		.2byte	0x3
ARM GAS  C:\Users\jo\AppData\Local\Temp\ccJrjCse.s 			page 50


 2790 0062 74       		.byte	0x74
 2791 0063 14       		.sleb128 20
 2792 0064 9F       		.byte	0x9f
 2793 0065 12000000 		.4byte	.LVL3
 2794 0069 17000000 		.4byte	.LVL4-1
 2795 006d 0100     		.2byte	0x1
 2796 006f 50       		.byte	0x50
 2797 0070 17000000 		.4byte	.LVL4-1
 2798 0074 30000000 		.4byte	.LVL7
 2799 0078 0300     		.2byte	0x3
 2800 007a 74       		.byte	0x74
 2801 007b 14       		.sleb128 20
 2802 007c 9F       		.byte	0x9f
 2803 007d 30000000 		.4byte	.LVL7
 2804 0081 34000000 		.4byte	.LFE229
 2805 0085 0600     		.2byte	0x6
 2806 0087 F3       		.byte	0xf3
 2807 0088 01       		.uleb128 0x1
 2808 0089 50       		.byte	0x50
 2809 008a 23       		.byte	0x23
 2810 008b 14       		.uleb128 0x14
 2811 008c 9F       		.byte	0x9f
 2812 008d 00000000 		.4byte	0
 2813 0091 00000000 		.4byte	0
 2814              	.LLST3:
 2815 0095 00000000 		.4byte	.LVL8
 2816 0099 04000000 		.4byte	.LVL9
 2817 009d 0300     		.2byte	0x3
 2818 009f 70       		.byte	0x70
 2819 00a0 14       		.sleb128 20
 2820 00a1 9F       		.byte	0x9f
 2821 00a2 04000000 		.4byte	.LVL9
 2822 00a6 0E000000 		.4byte	.LFE230
 2823 00aa 0100     		.2byte	0x1
 2824 00ac 52       		.byte	0x52
 2825 00ad 00000000 		.4byte	0
 2826 00b1 00000000 		.4byte	0
 2827              	.LLST4:
 2828 00b5 00000000 		.4byte	.LVL11
 2829 00b9 0F000000 		.4byte	.LVL13-1
 2830 00bd 0100     		.2byte	0x1
 2831 00bf 50       		.byte	0x50
 2832 00c0 0F000000 		.4byte	.LVL13-1
 2833 00c4 4E000000 		.4byte	.LVL19
 2834 00c8 0100     		.2byte	0x1
 2835 00ca 54       		.byte	0x54
 2836 00cb 4E000000 		.4byte	.LVL19
 2837 00cf 5C000000 		.4byte	.LFE231
 2838 00d3 0400     		.2byte	0x4
 2839 00d5 F3       		.byte	0xf3
 2840 00d6 01       		.uleb128 0x1
 2841 00d7 50       		.byte	0x50
 2842 00d8 9F       		.byte	0x9f
 2843 00d9 00000000 		.4byte	0
 2844 00dd 00000000 		.4byte	0
 2845              	.LLST5:
 2846 00e1 08000000 		.4byte	.LVL12
ARM GAS  C:\Users\jo\AppData\Local\Temp\ccJrjCse.s 			page 51


 2847 00e5 0F000000 		.4byte	.LVL13-1
 2848 00e9 0100     		.2byte	0x1
 2849 00eb 50       		.byte	0x50
 2850 00ec 0F000000 		.4byte	.LVL13-1
 2851 00f0 4E000000 		.4byte	.LVL19
 2852 00f4 0100     		.2byte	0x1
 2853 00f6 54       		.byte	0x54
 2854 00f7 4E000000 		.4byte	.LVL19
 2855 00fb 5C000000 		.4byte	.LFE231
 2856 00ff 0400     		.2byte	0x4
 2857 0101 F3       		.byte	0xf3
 2858 0102 01       		.uleb128 0x1
 2859 0103 50       		.byte	0x50
 2860 0104 9F       		.byte	0x9f
 2861 0105 00000000 		.4byte	0
 2862 0109 00000000 		.4byte	0
 2863              	.LLST6:
 2864 010d 08000000 		.4byte	.LVL12
 2865 0111 4E000000 		.4byte	.LVL19
 2866 0115 0100     		.2byte	0x1
 2867 0117 55       		.byte	0x55
 2868 0118 00000000 		.4byte	0
 2869 011c 00000000 		.4byte	0
 2870              	.LLST8:
 2871 0120 10000000 		.4byte	.LVL13
 2872 0124 4E000000 		.4byte	.LVL19
 2873 0128 0100     		.2byte	0x1
 2874 012a 54       		.byte	0x54
 2875 012b 4E000000 		.4byte	.LVL19
 2876 012f 5C000000 		.4byte	.LFE231
 2877 0133 0400     		.2byte	0x4
 2878 0135 F3       		.byte	0xf3
 2879 0136 01       		.uleb128 0x1
 2880 0137 50       		.byte	0x50
 2881 0138 9F       		.byte	0x9f
 2882 0139 00000000 		.4byte	0
 2883 013d 00000000 		.4byte	0
 2884              	.LLST9:
 2885 0141 10000000 		.4byte	.LVL13
 2886 0145 4E000000 		.4byte	.LVL19
 2887 0149 0100     		.2byte	0x1
 2888 014b 55       		.byte	0x55
 2889 014c 00000000 		.4byte	0
 2890 0150 00000000 		.4byte	0
 2891              		.section	.debug_aranges,"",%progbits
 2892 0000 2C000000 		.4byte	0x2c
 2893 0004 0200     		.2byte	0x2
 2894 0006 00000000 		.4byte	.Ldebug_info0
 2895 000a 04       		.byte	0x4
 2896 000b 00       		.byte	0
 2897 000c 0000     		.2byte	0
 2898 000e 0000     		.2byte	0
 2899 0010 00000000 		.4byte	.LFB229
 2900 0014 34000000 		.4byte	.LFE229-.LFB229
 2901 0018 00000000 		.4byte	.LFB230
 2902 001c 0E000000 		.4byte	.LFE230-.LFB230
 2903 0020 00000000 		.4byte	.LFB231
ARM GAS  C:\Users\jo\AppData\Local\Temp\ccJrjCse.s 			page 52


 2904 0024 5C000000 		.4byte	.LFE231-.LFB231
 2905 0028 00000000 		.4byte	0
 2906 002c 00000000 		.4byte	0
 2907              		.section	.debug_ranges,"",%progbits
 2908              	.Ldebug_ranges0:
 2909 0000 02000000 		.4byte	.LBB66
 2910 0004 04000000 		.4byte	.LBE66
 2911 0008 06000000 		.4byte	.LBB77
 2912 000c 0E000000 		.4byte	.LBE77
 2913 0010 00000000 		.4byte	0
 2914 0014 00000000 		.4byte	0
 2915 0018 02000000 		.4byte	.LBB68
 2916 001c 04000000 		.4byte	.LBE68
 2917 0020 06000000 		.4byte	.LBB75
 2918 0024 0A000000 		.4byte	.LBE75
 2919 0028 00000000 		.4byte	0
 2920 002c 00000000 		.4byte	0
 2921 0030 04000000 		.4byte	.LBB86
 2922 0034 06000000 		.4byte	.LBE86
 2923 0038 0A000000 		.4byte	.LBB91
 2924 003c 0E000000 		.4byte	.LBE91
 2925 0040 00000000 		.4byte	0
 2926 0044 00000000 		.4byte	0
 2927 0048 04000000 		.4byte	.LBB110
 2928 004c 06000000 		.4byte	.LBE110
 2929 0050 08000000 		.4byte	.LBB132
 2930 0054 5C000000 		.4byte	.LBE132
 2931 0058 00000000 		.4byte	0
 2932 005c 00000000 		.4byte	0
 2933 0060 04000000 		.4byte	.LBB111
 2934 0064 06000000 		.4byte	.LBE111
 2935 0068 08000000 		.4byte	.LBB120
 2936 006c 10000000 		.4byte	.LBE120
 2937 0070 00000000 		.4byte	0
 2938 0074 00000000 		.4byte	0
 2939 0078 04000000 		.4byte	.LBB113
 2940 007c 06000000 		.4byte	.LBE113
 2941 0080 08000000 		.4byte	.LBB118
 2942 0084 0C000000 		.4byte	.LBE118
 2943 0088 00000000 		.4byte	0
 2944 008c 00000000 		.4byte	0
 2945 0090 00000000 		.4byte	.LFB229
 2946 0094 34000000 		.4byte	.LFE229
 2947 0098 00000000 		.4byte	.LFB230
 2948 009c 0E000000 		.4byte	.LFE230
 2949 00a0 00000000 		.4byte	.LFB231
 2950 00a4 5C000000 		.4byte	.LFE231
 2951 00a8 00000000 		.4byte	0
 2952 00ac 00000000 		.4byte	0
 2953              		.section	.debug_line,"",%progbits
 2954              	.Ldebug_line0:
 2955 0000 D8020000 		.section	.debug_str,"MS",%progbits,1
 2955      02002A02 
 2955      00000201 
 2955      FB0E0D00 
 2955      01010101 
 2956              	.LASF127:
ARM GAS  C:\Users\jo\AppData\Local\Temp\ccJrjCse.s 			page 53


 2957 0000 65745F69 		.ascii	"et_interval\000"
 2957      6E746572 
 2957      76616C00 
 2958              	.LASF94:
 2959 000c 74625F70 		.ascii	"tb_ptr\000"
 2959      747200
 2960              	.LASF52:
 2961 0013 72656164 		.ascii	"ready_list_t\000"
 2961      795F6C69 
 2961      73745F74 
 2961      00
 2962              	.LASF88:
 2963 0020 73655F74 		.ascii	"se_time\000"
 2963      696D6500 
 2964              	.LASF102:
 2965 0028 77747472 		.ascii	"wttrp\000"
 2965      7000
 2966              	.LASF99:
 2967 002e 7264796D 		.ascii	"rdymsg\000"
 2967      736700
 2968              	.LASF16:
 2969 0035 75696E74 		.ascii	"uint64_t\000"
 2969      36345F74 
 2969      00
 2970              	.LASF23:
 2971 003e 6576656E 		.ascii	"eventmask_t\000"
 2971      746D6173 
 2971      6B5F7400 
 2972              	.LASF5:
 2973 004a 5F5F7569 		.ascii	"__uint8_t\000"
 2973      6E74385F 
 2973      7400
 2974              	.LASF87:
 2975 0054 706F7274 		.ascii	"port_intctx\000"
 2975      5F696E74 
 2975      63747800 
 2976              	.LASF71:
 2977 0060 73797374 		.ascii	"system_debug_t\000"
 2977      656D5F64 
 2977      65627567 
 2977      5F7400
 2978              	.LASF129:
 2979 006f 706F7274 		.ascii	"port_lock\000"
 2979      5F6C6F63 
 2979      6B00
 2980              	.LASF166:
 2981 0079 63685379 		.ascii	"chSysHalt\000"
 2981      7348616C 
 2981      7400
 2982              	.LASF12:
 2983 0083 6C6F6E67 		.ascii	"long long unsigned int\000"
 2983      206C6F6E 
 2983      6720756E 
 2983      7369676E 
 2983      65642069 
 2984              	.LASF96:
 2985 009a 63685F74 		.ascii	"ch_trace_buffer_t\000"
ARM GAS  C:\Users\jo\AppData\Local\Temp\ccJrjCse.s 			page 54


 2985      72616365 
 2985      5F627566 
 2985      6665725F 
 2985      7400
 2986              	.LASF91:
 2987 00ac 73655F73 		.ascii	"se_state\000"
 2987      74617465 
 2987      00
 2988              	.LASF158:
 2989 00b5 63685654 		.ascii	"chVTDoResetI\000"
 2989      446F5265 
 2989      73657449 
 2989      00
 2990              	.LASF100:
 2991 00c2 65786974 		.ascii	"exitcode\000"
 2991      636F6465 
 2991      00
 2992              	.LASF150:
 2993 00cb 65767453 		.ascii	"evtStart\000"
 2993      74617274 
 2993      00
 2994              	.LASF68:
 2995 00d4 76697274 		.ascii	"virtual_timers_list_t\000"
 2995      75616C5F 
 2995      74696D65 
 2995      72735F6C 
 2995      6973745F 
 2996              	.LASF151:
 2997 00ea 49544D5F 		.ascii	"ITM_RxBuffer\000"
 2997      52784275 
 2997      66666572 
 2997      00
 2998              	.LASF142:
 2999 00f7 64656C61 		.ascii	"delay\000"
 2999      7900
 3000              	.LASF51:
 3001 00fd 63685F74 		.ascii	"ch_threads_queue\000"
 3001      68726561 
 3001      64735F71 
 3001      75657565 
 3001      00
 3002              	.LASF30:
 3003 010e 705F7072 		.ascii	"p_prio\000"
 3003      696F00
 3004              	.LASF162:
 3005 0115 433A5C55 		.ascii	"C:\\Users\\jo\\Documents\\GitHub\\ChibiOS\\demos\\S"
 3005      73657273 
 3005      5C6A6F5C 
 3005      446F6375 
 3005      6D656E74 
 3006 0141 544D3332 		.ascii	"TM32\\RT-STM32F407-DISCOVERY-uHttp\000"
 3006      5C52542D 
 3006      53544D33 
 3006      32463430 
 3006      372D4449 
 3007              	.LASF10:
 3008 0163 6C6F6E67 		.ascii	"long long int\000"
ARM GAS  C:\Users\jo\AppData\Local\Temp\ccJrjCse.s 			page 55


 3008      206C6F6E 
 3008      6720696E 
 3008      7400
 3009              	.LASF1:
 3010 0171 7369676E 		.ascii	"signed char\000"
 3010      65642063 
 3010      68617200 
 3011              	.LASF45:
 3012 017d 705F6D70 		.ascii	"p_mpool\000"
 3012      6F6F6C00 
 3013              	.LASF110:
 3014 0185 6D5F7175 		.ascii	"m_queue\000"
 3014      65756500 
 3015              	.LASF80:
 3016 018d 76746C69 		.ascii	"vtlist\000"
 3016      737400
 3017              	.LASF130:
 3018 0194 706F7274 		.ascii	"port_unlock\000"
 3018      5F756E6C 
 3018      6F636B00 
 3019              	.LASF78:
 3020 01a0 63685F73 		.ascii	"ch_system\000"
 3020      79737465 
 3020      6D00
 3021              	.LASF7:
 3022 01aa 6C6F6E67 		.ascii	"long int\000"
 3022      20696E74 
 3022      00
 3023              	.LASF19:
 3024 01b3 74737461 		.ascii	"tstate_t\000"
 3024      74655F74 
 3024      00
 3025              	.LASF38:
 3026 01bc 705F7265 		.ascii	"p_refs\000"
 3026      667300
 3027              	.LASF89:
 3028 01c3 73655F74 		.ascii	"se_tp\000"
 3028      7000
 3029              	.LASF154:
 3030 01c9 63684576 		.ascii	"chEvtBroadcastFlagsI\000"
 3030      7442726F 
 3030      61646361 
 3030      7374466C 
 3030      61677349 
 3031              	.LASF32:
 3032 01de 705F6E65 		.ascii	"p_newer\000"
 3032      77657200 
 3033              	.LASF107:
 3034 01e6 735F7175 		.ascii	"s_queue\000"
 3034      65756500 
 3035              	.LASF93:
 3036 01ee 74625F73 		.ascii	"tb_size\000"
 3036      697A6500 
 3037              	.LASF57:
 3038 01f6 725F6E65 		.ascii	"r_newer\000"
 3038      77657200 
 3039              	.LASF84:
ARM GAS  C:\Users\jo\AppData\Local\Temp\ccJrjCse.s 			page 56


 3040 01fe 72656761 		.ascii	"regarm_t\000"
 3040      726D5F74 
 3040      00
 3041              	.LASF64:
 3042 0207 76745F70 		.ascii	"vt_prev\000"
 3042      72657600 
 3043              	.LASF114:
 3044 020f 6D757465 		.ascii	"mutex_t\000"
 3044      785F7400 
 3045              	.LASF133:
 3046 0217 76616C75 		.ascii	"value\000"
 3046      6500
 3047              	.LASF75:
 3048 021d 6C6F636B 		.ascii	"lock_cnt\000"
 3048      5F636E74 
 3048      00
 3049              	.LASF124:
 3050 0226 6576656E 		.ascii	"event_source_t\000"
 3050      745F736F 
 3050      75726365 
 3050      5F7400
 3051              	.LASF82:
 3052 0235 69646C65 		.ascii	"idle_thread_wa\000"
 3052      5F746872 
 3052      6561645F 
 3052      776100
 3053              	.LASF25:
 3054 0244 636E745F 		.ascii	"cnt_t\000"
 3054      7400
 3055              	.LASF35:
 3056 024a 705F7374 		.ascii	"p_stklimit\000"
 3056      6B6C696D 
 3056      697400
 3057              	.LASF0:
 3058 0255 756E7369 		.ascii	"unsigned int\000"
 3058      676E6564 
 3058      20696E74 
 3058      00
 3059              	.LASF63:
 3060 0262 76745F6E 		.ascii	"vt_next\000"
 3060      65787400 
 3061              	.LASF103:
 3062 026a 77747365 		.ascii	"wtsemp\000"
 3062      6D7000
 3063              	.LASF65:
 3064 0271 76745F64 		.ascii	"vt_delta\000"
 3064      656C7461 
 3064      00
 3065              	.LASF40:
 3066 027a 705F6D73 		.ascii	"p_msgqueue\000"
 3066      67717565 
 3066      756500
 3067              	.LASF108:
 3068 0285 735F636E 		.ascii	"s_cnt\000"
 3068      7400
 3069              	.LASF144:
 3070 028b 63684576 		.ascii	"chEvtObjectInit\000"
ARM GAS  C:\Users\jo\AppData\Local\Temp\ccJrjCse.s 			page 57


 3070      744F626A 
 3070      65637449 
 3070      6E697400 
 3071              	.LASF4:
 3072 029b 73686F72 		.ascii	"short unsigned int\000"
 3072      7420756E 
 3072      7369676E 
 3072      65642069 
 3072      6E7400
 3073              	.LASF48:
 3074 02ae 63685F74 		.ascii	"ch_thread\000"
 3074      68726561 
 3074      6400
 3075              	.LASF121:
 3076 02b8 656C5F77 		.ascii	"el_wflags\000"
 3076      666C6167 
 3076      7300
 3077              	.LASF81:
 3078 02c2 6D61696E 		.ascii	"mainthread\000"
 3078      74687265 
 3078      616400
 3079              	.LASF24:
 3080 02cd 6576656E 		.ascii	"eventflags_t\000"
 3080      74666C61 
 3080      67735F74 
 3080      00
 3081              	.LASF22:
 3082 02da 6D73675F 		.ascii	"msg_t\000"
 3082      7400
 3083              	.LASF157:
 3084 02e0 63684462 		.ascii	"chDbgCheckClassI\000"
 3084      67436865 
 3084      636B436C 
 3084      61737349 
 3084      00
 3085              	.LASF77:
 3086 02f1 63685F73 		.ascii	"ch_system_t\000"
 3086      79737465 
 3086      6D5F7400 
 3087              	.LASF149:
 3088 02fd 6576744F 		.ascii	"evtObjectInit\000"
 3088      626A6563 
 3088      74496E69 
 3088      7400
 3089              	.LASF101:
 3090 030b 77746F62 		.ascii	"wtobjp\000"
 3090      6A7000
 3091              	.LASF53:
 3092 0312 63685F72 		.ascii	"ch_ready_list\000"
 3092      65616479 
 3092      5F6C6973 
 3092      7400
 3093              	.LASF155:
 3094 0320 63685654 		.ascii	"chVTDoSetI\000"
 3094      446F5365 
 3094      744900
 3095              	.LASF6:
ARM GAS  C:\Users\jo\AppData\Local\Temp\ccJrjCse.s 			page 58


 3096 032b 5F5F696E 		.ascii	"__int32_t\000"
 3096      7433325F 
 3096      7400
 3097              	.LASF132:
 3098 0335 63685654 		.ascii	"chVTObjectInit\000"
 3098      4F626A65 
 3098      6374496E 
 3098      697400
 3099              	.LASF160:
 3100 0344 474E5520 		.ascii	"GNU C 4.9.3 20141119 (release) [ARM/embedded-4_9-br"
 3100      4320342E 
 3100      392E3320 
 3100      32303134 
 3100      31313139 
 3101 0377 616E6368 		.ascii	"anch revision 218278] -mcpu=cortex-m4 -mno-thumb-in"
 3101      20726576 
 3101      6973696F 
 3101      6E203231 
 3101      38323738 
 3102 03aa 74657277 		.ascii	"terwork -mthumb -ggdb -O2 -fomit-frame-pointer -fal"
 3102      6F726B20 
 3102      2D6D7468 
 3102      756D6220 
 3102      2D676764 
 3103 03dd 69676E2D 		.ascii	"ign-functions=16 -ffunction-sections -fdata-section"
 3103      66756E63 
 3103      74696F6E 
 3103      733D3136 
 3103      202D6666 
 3104 0410 73202D66 		.ascii	"s -fno-common\000"
 3104      6E6F2D63 
 3104      6F6D6D6F 
 3104      6E00
 3105              	.LASF85:
 3106 041e 73746B61 		.ascii	"stkalign_t\000"
 3106      6C69676E 
 3106      5F7400
 3107              	.LASF115:
 3108 0429 6576656E 		.ascii	"event_listener_t\000"
 3108      745F6C69 
 3108      7374656E 
 3108      65725F74 
 3108      00
 3109              	.LASF39:
 3110 043a 705F7761 		.ascii	"p_waiting\000"
 3110      6974696E 
 3110      6700
 3111              	.LASF126:
 3112 0444 65745F65 		.ascii	"et_es\000"
 3112      7300
 3113              	.LASF83:
 3114 044a 73697A65 		.ascii	"sizetype\000"
 3114      74797065 
 3114      00
 3115              	.LASF46:
 3116 0453 74687265 		.ascii	"thread_reference_t\000"
 3116      61645F72 
ARM GAS  C:\Users\jo\AppData\Local\Temp\ccJrjCse.s 			page 59


 3116      65666572 
 3116      656E6365 
 3116      5F7400
 3117              	.LASF156:
 3118 0466 5F646267 		.ascii	"_dbg_check_lock\000"
 3118      5F636865 
 3118      636B5F6C 
 3118      6F636B00 
 3119              	.LASF69:
 3120 0476 63685F76 		.ascii	"ch_virtual_timers_list\000"
 3120      69727475 
 3120      616C5F74 
 3120      696D6572 
 3120      735F6C69 
 3121              	.LASF92:
 3122 048d 63685F73 		.ascii	"ch_swc_event_t\000"
 3122      77635F65 
 3122      76656E74 
 3122      5F7400
 3123              	.LASF70:
 3124 049c 76745F6C 		.ascii	"vt_lasttime\000"
 3124      61737474 
 3124      696D6500 
 3125              	.LASF141:
 3126 04a8 63685654 		.ascii	"chVTSetI\000"
 3126      53657449 
 3126      00
 3127              	.LASF33:
 3128 04b1 705F6F6C 		.ascii	"p_older\000"
 3128      64657200 
 3129              	.LASF56:
 3130 04b9 725F6374 		.ascii	"r_ctx\000"
 3130      7800
 3131              	.LASF145:
 3132 04bf 63685654 		.ascii	"chVTSet\000"
 3132      53657400 
 3133              	.LASF98:
 3134 04c7 746D5F63 		.ascii	"tm_calibration_t\000"
 3134      616C6962 
 3134      72617469 
 3134      6F6E5F74 
 3134      00
 3135              	.LASF146:
 3136 04d8 74696D65 		.ascii	"time\000"
 3136      00
 3137              	.LASF59:
 3138 04dd 725F6375 		.ascii	"r_current\000"
 3138      7272656E 
 3138      7400
 3139              	.LASF58:
 3140 04e7 725F6F6C 		.ascii	"r_older\000"
 3140      64657200 
 3141              	.LASF152:
 3142 04ef 5F646267 		.ascii	"_dbg_check_lock_from_isr\000"
 3142      5F636865 
 3142      636B5F6C 
 3142      6F636B5F 
ARM GAS  C:\Users\jo\AppData\Local\Temp\ccJrjCse.s 			page 60


 3142      66726F6D 
 3143              	.LASF119:
 3144 0508 656C5F65 		.ascii	"el_events\000"
 3144      76656E74 
 3144      7300
 3145              	.LASF11:
 3146 0512 5F5F7569 		.ascii	"__uint64_t\000"
 3146      6E743634 
 3146      5F7400
 3147              	.LASF161:
 3148 051d 2E2E2F2E 		.ascii	"../../../os/various/evtimer.c\000"
 3148      2E2F2E2E 
 3148      2F6F732F 
 3148      76617269 
 3148      6F75732F 
 3149              	.LASF20:
 3150 053b 74726566 		.ascii	"trefs_t\000"
 3150      735F7400 
 3151              	.LASF95:
 3152 0543 74625F62 		.ascii	"tb_buffer\000"
 3152      75666665 
 3152      7200
 3153              	.LASF61:
 3154 054d 76697274 		.ascii	"virtual_timer_t\000"
 3154      75616C5F 
 3154      74696D65 
 3154      725F7400 
 3155              	.LASF29:
 3156 055d 705F7072 		.ascii	"p_prev\000"
 3156      657600
 3157              	.LASF21:
 3158 0564 74707269 		.ascii	"tprio_t\000"
 3158      6F5F7400 
 3159              	.LASF138:
 3160 056c 63685379 		.ascii	"chSysUnlockFromISR\000"
 3160      73556E6C 
 3160      6F636B46 
 3160      726F6D49 
 3160      535200
 3161              	.LASF72:
 3162 057f 63685F73 		.ascii	"ch_system_debug\000"
 3162      79737465 
 3162      6D5F6465 
 3162      62756700 
 3163              	.LASF139:
 3164 058f 5F426F6F 		.ascii	"_Bool\000"
 3164      6C00
 3165              	.LASF14:
 3166 0595 696E7433 		.ascii	"int32_t\000"
 3166      325F7400 
 3167              	.LASF2:
 3168 059d 756E7369 		.ascii	"unsigned char\000"
 3168      676E6564 
 3168      20636861 
 3168      7200
 3169              	.LASF118:
 3170 05ab 656C5F6C 		.ascii	"el_listener\000"
ARM GAS  C:\Users\jo\AppData\Local\Temp\ccJrjCse.s 			page 61


 3170      69737465 
 3170      6E657200 
 3171              	.LASF120:
 3172 05b7 656C5F66 		.ascii	"el_flags\000"
 3172      6C616773 
 3172      00
 3173              	.LASF43:
 3174 05c0 705F6D74 		.ascii	"p_mtxlist\000"
 3174      786C6973 
 3174      7400
 3175              	.LASF3:
 3176 05ca 73686F72 		.ascii	"short int\000"
 3176      7420696E 
 3176      7400
 3177              	.LASF36:
 3178 05d4 705F7374 		.ascii	"p_state\000"
 3178      61746500 
 3179              	.LASF55:
 3180 05dc 725F7072 		.ascii	"r_prio\000"
 3180      696F00
 3181              	.LASF105:
 3182 05e3 65776D61 		.ascii	"ewmask\000"
 3182      736B00
 3183              	.LASF28:
 3184 05ea 705F6E65 		.ascii	"p_next\000"
 3184      787400
 3185              	.LASF18:
 3186 05f1 746D6F64 		.ascii	"tmode_t\000"
 3186      655F7400 
 3187              	.LASF37:
 3188 05f9 705F666C 		.ascii	"p_flags\000"
 3188      61677300 
 3189              	.LASF165:
 3190 0601 5F5F6675 		.ascii	"__func__\000"
 3190      6E635F5F 
 3190      00
 3191              	.LASF140:
 3192 060a 63685379 		.ascii	"chSysLock\000"
 3192      734C6F63 
 3192      6B00
 3193              	.LASF163:
 3194 0614 63685654 		.ascii	"chVTIsArmedI\000"
 3194      49734172 
 3194      6D656449 
 3194      00
 3195              	.LASF137:
 3196 0621 63684576 		.ascii	"chEvtBroadcastI\000"
 3196      7442726F 
 3196      61646361 
 3196      73744900 
 3197              	.LASF62:
 3198 0631 63685F76 		.ascii	"ch_virtual_timer\000"
 3198      69727475 
 3198      616C5F74 
 3198      696D6572 
 3198      00
 3199              	.LASF147:
ARM GAS  C:\Users\jo\AppData\Local\Temp\ccJrjCse.s 			page 62


 3200 0642 63685654 		.ascii	"chVTResetI\000"
 3200      52657365 
 3200      744900
 3201              	.LASF106:
 3202 064d 63685F73 		.ascii	"ch_semaphore\000"
 3202      656D6170 
 3202      686F7265 
 3202      00
 3203              	.LASF42:
 3204 065a 705F6570 		.ascii	"p_epending\000"
 3204      656E6469 
 3204      6E6700
 3205              	.LASF15:
 3206 0665 75696E74 		.ascii	"uint32_t\000"
 3206      33325F74 
 3206      00
 3207              	.LASF104:
 3208 066e 77746D74 		.ascii	"wtmtxp\000"
 3208      787000
 3209              	.LASF54:
 3210 0675 725F7175 		.ascii	"r_queue\000"
 3210      65756500 
 3211              	.LASF125:
 3212 067d 65745F76 		.ascii	"et_vt\000"
 3212      7400
 3213              	.LASF49:
 3214 0683 63685F74 		.ascii	"ch_threads_list\000"
 3214      68726561 
 3214      64735F6C 
 3214      69737400 
 3215              	.LASF9:
 3216 0693 6C6F6E67 		.ascii	"long unsigned int\000"
 3216      20756E73 
 3216      69676E65 
 3216      6420696E 
 3216      7400
 3217              	.LASF113:
 3218 06a5 63686172 		.ascii	"char\000"
 3218      00
 3219              	.LASF164:
 3220 06aa 746D7263 		.ascii	"tmrcb\000"
 3220      6200
 3221              	.LASF135:
 3222 06b0 706F7274 		.ascii	"port_unlock_from_isr\000"
 3222      5F756E6C 
 3222      6F636B5F 
 3222      66726F6D 
 3222      5F697372 
 3223              	.LASF27:
 3224 06c5 74687265 		.ascii	"thread_t\000"
 3224      61645F74 
 3224      00
 3225              	.LASF112:
 3226 06ce 6D5F6E65 		.ascii	"m_next\000"
 3226      787400
 3227              	.LASF26:
 3228 06d5 73797374 		.ascii	"systime_t\000"
ARM GAS  C:\Users\jo\AppData\Local\Temp\ccJrjCse.s 			page 63


 3228      696D655F 
 3228      7400
 3229              	.LASF44:
 3230 06df 705F7265 		.ascii	"p_realprio\000"
 3230      616C7072 
 3230      696F00
 3231              	.LASF60:
 3232 06ea 76746675 		.ascii	"vtfunc_t\000"
 3232      6E635F74 
 3232      00
 3233              	.LASF8:
 3234 06f3 5F5F7569 		.ascii	"__uint32_t\000"
 3234      6E743332 
 3234      5F7400
 3235              	.LASF131:
 3236 06fe 5F5F7365 		.ascii	"__set_BASEPRI\000"
 3236      745F4241 
 3236      53455052 
 3236      4900
 3237              	.LASF73:
 3238 070c 70616E69 		.ascii	"panic_msg\000"
 3238      635F6D73 
 3238      6700
 3239              	.LASF97:
 3240 0716 6F666673 		.ascii	"offset\000"
 3240      657400
 3241              	.LASF86:
 3242 071d 636F6E74 		.ascii	"context\000"
 3242      65787400 
 3243              	.LASF17:
 3244 0725 7274636E 		.ascii	"rtcnt_t\000"
 3244      745F7400 
 3245              	.LASF134:
 3246 072d 706F7274 		.ascii	"port_lock_from_isr\000"
 3246      5F6C6F63 
 3246      6B5F6672 
 3246      6F6D5F69 
 3246      737200
 3247              	.LASF67:
 3248 0740 76745F70 		.ascii	"vt_par\000"
 3248      617200
 3249              	.LASF143:
 3250 0747 76746675 		.ascii	"vtfunc\000"
 3250      6E6300
 3251              	.LASF153:
 3252 074e 5F646267 		.ascii	"_dbg_check_unlock_from_isr\000"
 3252      5F636865 
 3252      636B5F75 
 3252      6E6C6F63 
 3252      6B5F6672 
 3253              	.LASF50:
 3254 0769 74687265 		.ascii	"threads_queue_t\000"
 3254      6164735F 
 3254      71756575 
 3254      655F7400 
 3255              	.LASF109:
 3256 0779 63685F6D 		.ascii	"ch_mutex\000"
ARM GAS  C:\Users\jo\AppData\Local\Temp\ccJrjCse.s 			page 64


 3256      75746578 
 3256      00
 3257              	.LASF123:
 3258 0782 65735F6E 		.ascii	"es_next\000"
 3258      65787400 
 3259              	.LASF74:
 3260 078a 6973725F 		.ascii	"isr_cnt\000"
 3260      636E7400 
 3261              	.LASF79:
 3262 0792 726C6973 		.ascii	"rlist\000"
 3262      7400
 3263              	.LASF122:
 3264 0798 6576656E 		.ascii	"event_source\000"
 3264      745F736F 
 3264      75726365 
 3264      00
 3265              	.LASF13:
 3266 07a5 75696E74 		.ascii	"uint8_t\000"
 3266      385F7400 
 3267              	.LASF159:
 3268 07ad 5F646267 		.ascii	"_dbg_check_unlock\000"
 3268      5F636865 
 3268      636B5F75 
 3268      6E6C6F63 
 3268      6B00
 3269              	.LASF136:
 3270 07bf 63685379 		.ascii	"chSysLockFromISR\000"
 3270      734C6F63 
 3270      6B46726F 
 3270      6D495352 
 3270      00
 3271              	.LASF34:
 3272 07d0 705F6E61 		.ascii	"p_name\000"
 3272      6D6500
 3273              	.LASF47:
 3274 07d7 74687265 		.ascii	"threads_list_t\000"
 3274      6164735F 
 3274      6C697374 
 3274      5F7400
 3275              	.LASF76:
 3276 07e6 74726163 		.ascii	"trace_buffer\000"
 3276      655F6275 
 3276      66666572 
 3276      00
 3277              	.LASF148:
 3278 07f3 63685379 		.ascii	"chSysUnlock\000"
 3278      73556E6C 
 3278      6F636B00 
 3279              	.LASF41:
 3280 07ff 705F6D73 		.ascii	"p_msg\000"
 3280      6700
 3281              	.LASF128:
 3282 0805 6576656E 		.ascii	"event_timer_t\000"
 3282      745F7469 
 3282      6D65725F 
 3282      7400
 3283              	.LASF117:
ARM GAS  C:\Users\jo\AppData\Local\Temp\ccJrjCse.s 			page 65


 3284 0813 656C5F6E 		.ascii	"el_next\000"
 3284      65787400 
 3285              	.LASF111:
 3286 081b 6D5F6F77 		.ascii	"m_owner\000"
 3286      6E657200 
 3287              	.LASF90:
 3288 0823 73655F77 		.ascii	"se_wtobjp\000"
 3288      746F626A 
 3288      7000
 3289              	.LASF31:
 3290 082d 705F6374 		.ascii	"p_ctx\000"
 3290      7800
 3291              	.LASF66:
 3292 0833 76745F66 		.ascii	"vt_func\000"
 3292      756E6300 
 3293              	.LASF116:
 3294 083b 6576656E 		.ascii	"event_listener\000"
 3294      745F6C69 
 3294      7374656E 
 3294      657200
 3295              		.ident	"GCC: (GNU Tools for ARM Embedded Processors) 4.9.3 20141119 (release) [ARM/embedded-4_9-br
ARM GAS  C:\Users\jo\AppData\Local\Temp\ccJrjCse.s 			page 66


DEFINED SYMBOLS
                            *ABS*:00000000 evtimer.c
C:\Users\jo\AppData\Local\Temp\ccJrjCse.s:19     .text.tmrcb:00000000 $t
C:\Users\jo\AppData\Local\Temp\ccJrjCse.s:24     .text.tmrcb:00000000 tmrcb
C:\Users\jo\AppData\Local\Temp\ccJrjCse.s:113    .text.tmrcb:00000030 $d
C:\Users\jo\AppData\Local\Temp\ccJrjCse.s:124    .text.evtObjectInit:00000000 $t
C:\Users\jo\AppData\Local\Temp\ccJrjCse.s:130    .text.evtObjectInit:00000000 evtObjectInit
C:\Users\jo\AppData\Local\Temp\ccJrjCse.s:168    .text.evtStart:00000000 $t
C:\Users\jo\AppData\Local\Temp\ccJrjCse.s:174    .text.evtStart:00000000 evtStart
C:\Users\jo\AppData\Local\Temp\ccJrjCse.s:288    .text.evtStart:00000050 $d
C:\Users\jo\AppData\Local\Temp\ccJrjCse.s:301    .rodata.__func__.5854:00000000 $d
C:\Users\jo\AppData\Local\Temp\ccJrjCse.s:305    .rodata.__func__.5854:00000000 __func__.5854
                     .debug_frame:00000010 $d
C:\Users\jo\AppData\Local\Temp\ccJrjCse.s:123    .text.tmrcb:00000034 $t
C:\Users\jo\AppData\Local\Temp\ccJrjCse.s:300    .text.evtStart:0000005c $t

UNDEFINED SYMBOLS
_dbg_check_lock_from_isr
chEvtBroadcastFlagsI
chVTDoSetI
_dbg_check_unlock_from_isr
_dbg_check_lock
chDbgCheckClassI
chVTDoResetI
_dbg_check_unlock
chSysHalt
ch
