ARM GAS  C:\Users\jo\AppData\Local\Temp\cca1lOZc.s 			page 1


   1              		.syntax unified
   2              		.cpu cortex-m4
   3              		.fpu softvfp
   4              		.eabi_attribute 20, 1
   5              		.eabi_attribute 21, 1
   6              		.eabi_attribute 23, 3
   7              		.eabi_attribute 24, 1
   8              		.eabi_attribute 25, 1
   9              		.eabi_attribute 26, 1
  10              		.eabi_attribute 30, 2
  11              		.eabi_attribute 34, 1
  12              		.eabi_attribute 18, 4
  13              		.thumb
  14              		.file	"gcm.c"
  15              		.text
  16              	.Ltext0:
  17              		.cfi_sections	.debug_frame
  18              		.section	.text.gcm_mult,"ax",%progbits
  19              		.align	2
  20              		.p2align 4,,15
  21              		.thumb
  22              		.thumb_func
  23              		.type	gcm_mult, %function
  24              	gcm_mult:
  25              	.LFB10:
  26              		.file 1 "../../../ext/mbedtls-1.3.11/library/gcm.c"
  27              		.loc 1 207 0
  28              		.cfi_startproc
  29              		@ args = 0, pretend = 0, frame = 72
  30              		@ frame_needed = 0, uses_anonymous_args = 0
  31              	.LVL0:
  32 0000 2DE9F04F 		push	{r4, r5, r6, r7, r8, r9, r10, fp, lr}
  33              		.cfi_def_cfa_offset 36
  34              		.cfi_offset 4, -36
  35              		.cfi_offset 5, -32
  36              		.cfi_offset 6, -28
  37              		.cfi_offset 7, -24
  38              		.cfi_offset 8, -20
  39              		.cfi_offset 9, -16
  40              		.cfi_offset 10, -12
  41              		.cfi_offset 11, -8
  42              		.cfi_offset 14, -4
  43              		.loc 1 226 0
  44 0004 8E46     		mov	lr, r1
  45              		.loc 1 207 0
  46 0006 93B0     		sub	sp, sp, #76
  47              		.cfi_def_cfa_offset 112
  48              		.loc 1 226 0
  49 0008 1EF80FCF 		ldrb	ip, [lr, #15]!	@ zero_extendqisi2
  50              	.LVL1:
  51              		.loc 1 207 0
  52 000c 1192     		str	r2, [sp, #68]
  53 000e 0CF00F01 		and	r1, ip, #15
  54              	.LVL2:
  55 0012 00EBC101 		add	r1, r0, r1, lsl #3
  56              		.loc 1 228 0
  57 0016 D1E93023 		ldrd	r2, [r1, #192]
ARM GAS  C:\Users\jo\AppData\Local\Temp\cca1lOZc.s 			page 2


  58              	.LVL3:
  59              		.loc 1 229 0
  60 001a D1E91045 		ldrd	r4, [r1, #64]
  61              	.LVL4:
  62              		.loc 1 231 0
  63 001e 0F21     		movs	r1, #15
  64              		.loc 1 234 0
  65 0020 4FEA1C1C 		lsr	ip, ip, #4
  66              	.LVL5:
  67 0024 0791     		str	r1, [sp, #28]
  68 0026 1090     		str	r0, [sp, #64]
  69 0028 35E0     		b	.L2
  70              	.LVL6:
  71              	.L3:
  72              		.loc 1 233 0
  73 002a 1EF801CD 		ldrb	ip, [lr, #-1]!	@ zero_extendqisi2
  74              	.LVL7:
  75 002e 1099     		ldr	r1, [sp, #64]
  76              		.loc 1 241 0
  77 0030 594F     		ldr	r7, .L6
  78              		.loc 1 239 0
  79 0032 CDF828A0 		str	r10, [sp, #40]
  80 0036 0CF00F02 		and	r2, ip, #15
  81              	.LVL8:
  82 003a 01EBC202 		add	r2, r1, r2, lsl #3
  83 003e 1B09     		lsrs	r3, r3, #4
  84 0040 D2E93001 		ldrd	r0, [r2, #192]
  85 0044 0393     		str	r3, [sp, #12]
  86              		.loc 1 243 0
  87 0046 D2E91023 		ldrd	r2, [r2, #64]
  88              		.loc 1 241 0
  89 004a 57F83640 		ldr	r4, [r7, r6, lsl #3]
  90              	.LVL9:
  91 004e CDF830A0 		str	r10, [sp, #48]
  92              		.loc 1 243 0
  93 0052 1F46     		mov	r7, r3
  94              		.loc 1 240 0
  95 0054 2B09     		lsrs	r3, r5, #4
  96              		.loc 1 241 0
  97 0056 2604     		lsls	r6, r4, #16
  98              		.loc 1 240 0
  99 0058 0593     		str	r3, [sp, #20]
 100              		.loc 1 241 0
 101 005a 0D96     		str	r6, [sp, #52]
 102              		.loc 1 243 0
 103 005c 1646     		mov	r6, r2
 104 005e DDE90423 		ldrd	r2, [sp, #16]
 105 0062 5040     		eors	r0, r0, r2
 106 0064 5940     		eors	r1, r1, r3
 107 0066 0246     		mov	r2, r0
 108 0068 0B46     		mov	r3, r1
 109 006a CDE90E23 		strd	r2, [sp, #56]
 110              		.loc 1 239 0
 111 006e DDE90A45 		ldrd	r4, [sp, #40]
 112 0072 DDE90223 		ldrd	r2, [sp, #8]
 113 0076 1443     		orrs	r4, r4, r2
 114 0078 1D43     		orrs	r5, r5, r3
ARM GAS  C:\Users\jo\AppData\Local\Temp\cca1lOZc.s 			page 3


 115 007a 2046     		mov	r0, r4
 116 007c 2946     		mov	r1, r5
 117              		.loc 1 242 0
 118 007e DDE90E23 		ldrd	r2, [sp, #56]
 119 0082 DDE90C45 		ldrd	r4, [sp, #48]
 120              		.loc 1 243 0
 121 0086 7040     		eors	r0, r0, r6
 122 0088 7940     		eors	r1, r1, r7
 123              		.loc 1 242 0
 124 008a 6240     		eors	r2, r2, r4
 125 008c 6B40     		eors	r3, r3, r5
 126              		.loc 1 234 0
 127 008e 4FEA1C1C 		lsr	ip, ip, #4
 128              	.LVL10:
 129              		.loc 1 243 0
 130 0092 0446     		mov	r4, r0
 131 0094 0D46     		mov	r5, r1
 132              	.LVL11:
 133              	.L2:
 134              		.loc 1 250 0 discriminator 2
 135 0096 04F00F06 		and	r6, r4, #15
 136 009a 3F4F     		ldr	r7, .L6
 137 009c 1099     		ldr	r1, [sp, #64]
 138              		.loc 1 248 0 discriminator 2
 139 009e 4FEA1418 		lsr	r8, r4, #4
 140              		.loc 1 250 0 discriminator 2
 141 00a2 57F83640 		ldr	r4, [r7, r6, lsl #3]
 142              	.LVL12:
 143              		.loc 1 249 0 discriminator 2
 144 00a6 1609     		lsrs	r6, r2, #4
 145 00a8 46EA0376 		orr	r6, r6, r3, lsl #28
 146 00ac 1B09     		lsrs	r3, r3, #4
 147 00ae 01EBCC0C 		add	ip, r1, ip, lsl #3
 148              	.LVL13:
 149 00b2 0096     		str	r6, [sp]
 150              		.loc 1 250 0 discriminator 2
 151 00b4 2404     		lsls	r4, r4, #16
 152              		.loc 1 249 0 discriminator 2
 153 00b6 0193     		str	r3, [sp, #4]
 154 00b8 DCE93067 		ldrd	r6, [ip, #192]
 155              		.loc 1 248 0 discriminator 2
 156 00bc 48EA0578 		orr	r8, r8, r5, lsl #28
 157 00c0 4FEA1519 		lsr	r9, r5, #4
 158              		.loc 1 250 0 discriminator 2
 159 00c4 0994     		str	r4, [sp, #36]
 160 00c6 DDE90045 		ldrd	r4, [sp]
 161              		.loc 1 248 0 discriminator 2
 162 00ca 4FF0000A 		mov	r10, #0
 163              		.loc 1 250 0 discriminator 2
 164 00ce CDF820A0 		str	r10, [sp, #32]
 165 00d2 7440     		eors	r4, r4, r6
 166 00d4 7D40     		eors	r5, r5, r7
 167              		.loc 1 251 0 discriminator 2
 168 00d6 DDE90867 		ldrd	r6, [sp, #32]
 169              		.loc 1 252 0 discriminator 2
 170 00da DCE91001 		ldrd	r0, [ip, #64]
 171              		.loc 1 231 0 discriminator 2
ARM GAS  C:\Users\jo\AppData\Local\Temp\cca1lOZc.s 			page 4


 172 00de 079B     		ldr	r3, [sp, #28]
 173              		.loc 1 251 0 discriminator 2
 174 00e0 6640     		eors	r6, r6, r4
 175 00e2 3446     		mov	r4, r6
 176              		.loc 1 240 0 discriminator 2
 177 00e4 3609     		lsrs	r6, r6, #4
 178 00e6 0496     		str	r6, [sp, #16]
 179              		.loc 1 248 0 discriminator 2
 180 00e8 4FEA027B 		lsl	fp, r2, #28
 181              		.loc 1 231 0 discriminator 2
 182 00ec 013B     		subs	r3, r3, #1
 183              		.loc 1 248 0 discriminator 2
 184 00ee 48EA0A02 		orr	r2, r8, r10
 185              	.LVL14:
 186              		.loc 1 251 0 discriminator 2
 187 00f2 6F40     		eors	r7, r7, r5
 188              		.loc 1 252 0 discriminator 2
 189 00f4 0646     		mov	r6, r0
 190              		.loc 1 231 0 discriminator 2
 191 00f6 0793     		str	r3, [sp, #28]
 192              		.loc 1 251 0 discriminator 2
 193 00f8 3D46     		mov	r5, r7
 194              		.loc 1 248 0 discriminator 2
 195 00fa 49EA0B03 		orr	r3, r9, fp
 196              	.LVL15:
 197              		.loc 1 252 0 discriminator 2
 198 00fe 0F46     		mov	r7, r1
 199 0100 5640     		eors	r6, r6, r2
 200 0102 5F40     		eors	r7, r7, r3
 201 0104 3246     		mov	r2, r6
 202              	.LVL16:
 203 0106 3B46     		mov	r3, r7
 204              	.LVL17:
 205              		.loc 1 239 0 discriminator 2
 206 0108 1709     		lsrs	r7, r2, #4
 207 010a 47EA0377 		orr	r7, r7, r3, lsl #28
 208 010e 0297     		str	r7, [sp, #8]
 209 0110 2707     		lsls	r7, r4, #28
 210              		.loc 1 231 0 discriminator 2
 211 0112 0799     		ldr	r1, [sp, #28]
 212              		.loc 1 239 0 discriminator 2
 213 0114 0B97     		str	r7, [sp, #44]
 214              		.loc 1 240 0 discriminator 2
 215 0116 049F     		ldr	r7, [sp, #16]
 216              		.loc 1 231 0 discriminator 2
 217 0118 0131     		adds	r1, r1, #1
 218              		.loc 1 240 0 discriminator 2
 219 011a 47EA0577 		orr	r7, r7, r5, lsl #28
 220              		.loc 1 241 0 discriminator 2
 221 011e 06F00F06 		and	r6, r6, #15
 222              		.loc 1 240 0 discriminator 2
 223 0122 0497     		str	r7, [sp, #16]
 224              		.loc 1 231 0 discriminator 2
 225 0124 81D1     		bne	.L3
 226 0126 1046     		mov	r0, r2
 227 0128 1946     		mov	r1, r3
 228              		.loc 1 257 0
ARM GAS  C:\Users\jo\AppData\Local\Temp\cca1lOZc.s 			page 5


 229 012a CDE90001 		strd	r0, [sp]
 230              		.loc 1 255 0
 231 012e 119A     		ldr	r2, [sp, #68]
 232              	.LVL18:
 233              		.loc 1 257 0
 234 0130 1E0E     		lsrs	r6, r3, #24
 235 0132 180C     		lsrs	r0, r3, #16
 236 0134 019B     		ldr	r3, [sp, #4]
 237              		.loc 1 255 0
 238 0136 D570     		strb	r5, [r2, #3]
 239              		.loc 1 256 0
 240 0138 D471     		strb	r4, [r2, #7]
 241              		.loc 1 255 0
 242 013a 4FEA156A 		lsr	r10, r5, #24
 243 013e 4FEA1549 		lsr	r9, r5, #16
 244 0142 4FEA1528 		lsr	r8, r5, #8
 245              		.loc 1 256 0
 246 0146 4FEA146C 		lsr	ip, r4, #24
 247 014a 4FEA144E 		lsr	lr, r4, #16
 248 014e 270A     		lsrs	r7, r4, #8
 249              		.loc 1 257 0
 250 0150 190A     		lsrs	r1, r3, #8
 251              		.loc 1 258 0
 252 0152 DDE90045 		ldrd	r4, [sp]
 253              	.LVL19:
 254              		.loc 1 255 0
 255 0156 1346     		mov	r3, r2
 256              		.loc 1 257 0
 257 0158 9DF80450 		ldrb	r5, [sp, #4]	@ zero_extendqisi2
 258              		.loc 1 258 0
 259 015c 009A     		ldr	r2, [sp]
 260              		.loc 1 257 0
 261 015e DD72     		strb	r5, [r3, #11]
 262              		.loc 1 258 0
 263 0160 9DF80050 		ldrb	r5, [sp]	@ zero_extendqisi2
 264 0164 DD73     		strb	r5, [r3, #15]
 265 0166 4FEA146B 		lsr	fp, r4, #24
 266 016a 120A     		lsrs	r2, r2, #8
 267 016c 240C     		lsrs	r4, r4, #16
 268              		.loc 1 255 0
 269 016e 83F800A0 		strb	r10, [r3]
 270 0172 83F80190 		strb	r9, [r3, #1]
 271 0176 83F80280 		strb	r8, [r3, #2]
 272              		.loc 1 256 0
 273 017a 83F804C0 		strb	ip, [r3, #4]
 274 017e 83F805E0 		strb	lr, [r3, #5]
 275 0182 9F71     		strb	r7, [r3, #6]
 276              		.loc 1 257 0
 277 0184 1E72     		strb	r6, [r3, #8]
 278 0186 5872     		strb	r0, [r3, #9]
 279 0188 9972     		strb	r1, [r3, #10]
 280              		.loc 1 258 0
 281 018a 83F80CB0 		strb	fp, [r3, #12]
 282 018e 5C73     		strb	r4, [r3, #13]
 283 0190 9A73     		strb	r2, [r3, #14]
 284              		.loc 1 259 0
 285 0192 13B0     		add	sp, sp, #76
ARM GAS  C:\Users\jo\AppData\Local\Temp\cca1lOZc.s 			page 6


 286              		.cfi_def_cfa_offset 36
 287              		@ sp needed
 288 0194 BDE8F08F 		pop	{r4, r5, r6, r7, r8, r9, r10, fp, pc}
 289              	.LVL20:
 290              	.L7:
 291              		.align	2
 292              	.L6:
 293 0198 00000000 		.word	.LANCHOR0
 294              		.cfi_endproc
 295              	.LFE10:
 296              		.size	gcm_mult, .-gcm_mult
 297 019c AFF30080 		.section	.text.gcm_init,"ax",%progbits
 298              		.align	2
 299              		.p2align 4,,15
 300              		.global	gcm_init
 301              		.thumb
 302              		.thumb_func
 303              		.type	gcm_init, %function
 304              	gcm_init:
 305              	.LFB9:
 306              		.loc 1 156 0
 307              		.cfi_startproc
 308              		@ args = 0, pretend = 0, frame = 56
 309              		@ frame_needed = 0, uses_anonymous_args = 0
 310              	.LVL21:
 311 0000 2DE9F04F 		push	{r4, r5, r6, r7, r8, r9, r10, fp, lr}
 312              		.cfi_def_cfa_offset 36
 313              		.cfi_offset 4, -36
 314              		.cfi_offset 5, -32
 315              		.cfi_offset 6, -28
 316              		.cfi_offset 7, -24
 317              		.cfi_offset 8, -20
 318              		.cfi_offset 9, -16
 319              		.cfi_offset 10, -12
 320              		.cfi_offset 11, -8
 321              		.cfi_offset 14, -4
 322 0004 0F46     		mov	r7, r1
 323 0006 91B0     		sub	sp, sp, #68
 324              		.cfi_def_cfa_offset 104
 325              		.loc 1 160 0
 326 0008 0021     		movs	r1, #0
 327              	.LVL22:
 328              		.loc 1 156 0
 329 000a 8246     		mov	r10, r0
 330 000c 9046     		mov	r8, r2
 331              		.loc 1 160 0
 332 000e 4FF4C472 		mov	r2, #392
 333              	.LVL23:
 334              		.loc 1 156 0
 335 0012 1E46     		mov	r6, r3
 336              		.loc 1 160 0
 337 0014 FFF7FEFF 		bl	memset
 338              	.LVL24:
 339              		.loc 1 162 0
 340 0018 5046     		mov	r0, r10
 341 001a FFF7FEFF 		bl	cipher_init
 342              	.LVL25:
ARM GAS  C:\Users\jo\AppData\Local\Temp\cca1lOZc.s 			page 7


 343              		.loc 1 164 0
 344 001e 3846     		mov	r0, r7
 345 0020 3146     		mov	r1, r6
 346 0022 0122     		movs	r2, #1
 347 0024 FFF7FEFF 		bl	cipher_info_from_values
 348              	.LVL26:
 349              		.loc 1 165 0
 350 0028 8146     		mov	r9, r0
 351 002a 0028     		cmp	r0, #0
 352 002c 00F0D880 		beq	.L16
 353              		.loc 1 168 0
 354 0030 4769     		ldr	r7, [r0, #20]
 355 0032 102F     		cmp	r7, #16
 356 0034 40F0D480 		bne	.L16
 357              		.loc 1 171 0
 358 0038 5046     		mov	r0, r10
 359              	.LVL27:
 360 003a FFF7FEFF 		bl	cipher_free
 361              	.LVL28:
 362              		.loc 1 173 0
 363 003e 5046     		mov	r0, r10
 364 0040 4946     		mov	r1, r9
 365 0042 FFF7FEFF 		bl	cipher_init_ctx
 366              	.LVL29:
 367 0046 10B1     		cbz	r0, .L26
 368              	.LVL30:
 369              	.L23:
 370              		.loc 1 186 0
 371 0048 11B0     		add	sp, sp, #68
 372              		.cfi_remember_state
 373              		.cfi_def_cfa_offset 36
 374              		@ sp needed
 375 004a BDE8F08F 		pop	{r4, r5, r6, r7, r8, r9, r10, fp, pc}
 376              	.LVL31:
 377              	.L26:
 378              		.cfi_restore_state
 379              		.loc 1 176 0
 380 004e 3246     		mov	r2, r6
 381 0050 4146     		mov	r1, r8
 382 0052 5046     		mov	r0, r10
 383              	.LVL32:
 384 0054 0123     		movs	r3, #1
 385 0056 FFF7FEFF 		bl	cipher_setkey
 386              	.LVL33:
 387 005a 0646     		mov	r6, r0
 388              	.LVL34:
 389 005c 0028     		cmp	r0, #0
 390 005e F3D1     		bne	.L23
 391              	.LVL35:
 392              	.LBB31:
 393              	.LBB32:
 394              	.LBB33:
 395              	.LBB34:
 396              		.loc 1 103 0
 397 0060 0BA8     		add	r0, sp, #44
 398              	.LVL36:
 399 0062 0CA9     		add	r1, sp, #48
ARM GAS  C:\Users\jo\AppData\Local\Temp\cca1lOZc.s 			page 8


 400 0064 0090     		str	r0, [sp]
 401 0066 3A46     		mov	r2, r7
 402 0068 0B46     		mov	r3, r1
 403 006a 5046     		mov	r0, r10
 404              		.loc 1 100 0
 405 006c 0B96     		str	r6, [sp, #44]
 406              		.loc 1 102 0
 407 006e 0C96     		str	r6, [sp, #48]
 408 0070 0D96     		str	r6, [sp, #52]
 409 0072 0E96     		str	r6, [sp, #56]
 410 0074 0F96     		str	r6, [sp, #60]
 411              		.loc 1 103 0
 412 0076 FFF7FEFF 		bl	cipher_update
 413              	.LVL37:
 414 007a 0028     		cmp	r0, #0
 415 007c E4D1     		bne	.L23
 416              	.LVL38:
 417              		.loc 1 111 0
 418 007e 9DF83970 		ldrb	r7, [sp, #57]	@ zero_extendqisi2
 419 0082 9DF838C0 		ldrb	ip, [sp, #56]	@ zero_extendqisi2
 420              		.loc 1 107 0
 421 0086 9DF83130 		ldrb	r3, [sp, #49]	@ zero_extendqisi2
 422              		.loc 1 111 0
 423 008a 9DF83B40 		ldrb	r4, [sp, #59]	@ zero_extendqisi2
 424              		.loc 1 112 0
 425 008e 9DF83F50 		ldrb	r5, [sp, #63]	@ zero_extendqisi2
 426 0092 9DF83D20 		ldrb	r2, [sp, #61]	@ zero_extendqisi2
 427              		.loc 1 107 0
 428 0096 9DF83060 		ldrb	r6, [sp, #48]	@ zero_extendqisi2
 429              	.LVL39:
 430              		.loc 1 108 0
 431 009a 9DF83510 		ldrb	r1, [sp, #53]	@ zero_extendqisi2
 432              		.loc 1 112 0
 433 009e 9DF83C90 		ldrb	r9, [sp, #60]	@ zero_extendqisi2
 434              	.LVL40:
 435              		.loc 1 108 0
 436 00a2 9DF83480 		ldrb	r8, [sp, #52]	@ zero_extendqisi2
 437              	.LVL41:
 438              		.loc 1 111 0
 439 00a6 9DF83AB0 		ldrb	fp, [sp, #58]	@ zero_extendqisi2
 440              		.loc 1 112 0
 441 00aa 0595     		str	r5, [sp, #20]
 442              		.loc 1 111 0
 443 00ac 3F04     		lsls	r7, r7, #16
 444              		.loc 1 107 0
 445 00ae 1B04     		lsls	r3, r3, #16
 446              	.LVL42:
 447              		.loc 1 111 0
 448 00b0 47EA0C67 		orr	r7, r7, ip, lsl #24
 449              		.loc 1 107 0
 450 00b4 43EA0666 		orr	r6, r3, r6, lsl #24
 451 00b8 2743     		orrs	r7, r7, r4
 452              		.loc 1 112 0
 453 00ba 1204     		lsls	r2, r2, #16
 454              		.loc 1 108 0
 455 00bc 0904     		lsls	r1, r1, #16
 456              	.LVL43:
ARM GAS  C:\Users\jo\AppData\Local\Temp\cca1lOZc.s 			page 9


 457 00be 9DF83730 		ldrb	r3, [sp, #55]	@ zero_extendqisi2
 458              	.LVL44:
 459 00c2 059D     		ldr	r5, [sp, #20]
 460              		.loc 1 113 0
 461 00c4 0290     		str	r0, [sp, #8]
 462              		.loc 1 108 0
 463 00c6 41EA0861 		orr	r1, r1, r8, lsl #24
 464              	.LVL45:
 465              		.loc 1 112 0
 466 00ca 42EA0962 		orr	r2, r2, r9, lsl #24
 467              		.loc 1 113 0
 468 00ce 47EA0B24 		orr	r4, r7, fp, lsl #8
 469              		.loc 1 112 0
 470 00d2 9DF83E90 		ldrb	r9, [sp, #62]	@ zero_extendqisi2
 471              		.loc 1 108 0
 472 00d6 9DF83680 		ldrb	r8, [sp, #54]	@ zero_extendqisi2
 473              	.LVL46:
 474              		.loc 1 107 0
 475 00da 9DF833E0 		ldrb	lr, [sp, #51]	@ zero_extendqisi2
 476              		.loc 1 113 0
 477 00de 0394     		str	r4, [sp, #12]
 478 00e0 0B43     		orrs	r3, r3, r1
 479 00e2 2A43     		orrs	r2, r2, r5
 480              		.loc 1 107 0
 481 00e4 9DF832C0 		ldrb	ip, [sp, #50]	@ zero_extendqisi2
 482              	.LVL47:
 483              		.loc 1 112 0
 484 00e8 42EA0929 		orr	r9, r2, r9, lsl #8
 485              		.loc 1 108 0
 486 00ec 43EA0828 		orr	r8, r3, r8, lsl #8
 487              	.LVL48:
 488              		.loc 1 113 0
 489 00f0 DDE90223 		ldrd	r2, [sp, #8]
 490 00f4 46EA0E0E 		orr	lr, r6, lr
 491              		.loc 1 109 0
 492 00f8 4EEA0C27 		orr	r7, lr, ip, lsl #8
 493 00fc 3946     		mov	r1, r7
 494              		.loc 1 117 0
 495 00fe 0AF5807E 		add	lr, r10, #256
 496              		.loc 1 126 0
 497 0102 0026     		movs	r6, #0
 498 0104 0027     		movs	r7, #0
 499              		.loc 1 113 0
 500 0106 42EA0902 		orr	r2, r2, r9
 501              		.loc 1 109 0
 502 010a 40EA0800 		orr	r0, r0, r8
 503              	.LVL49:
 504              		.loc 1 116 0
 505 010e CAE92023 		strd	r2, [r10, #128]
 506              		.loc 1 117 0
 507 0112 CEE90001 		strd	r0, [lr]
 508              		.loc 1 126 0
 509 0116 CAE93067 		strd	r6, [r10, #192]
 510              		.loc 1 127 0
 511 011a CAE91067 		strd	r6, [r10, #64]
 512              	.LVL50:
 513 011e 4FF0030C 		mov	ip, #3
ARM GAS  C:\Users\jo\AppData\Local\Temp\cca1lOZc.s 			page 10


 514              		.loc 1 129 0
 515 0122 4FF0040E 		mov	lr, #4
 516              	.LVL51:
 517              	.L11:
 518              	.LBB35:
 519              		.loc 1 131 0
 520 0126 02F00108 		and	r8, r2, #1
 521 012a 4FEA4819 		lsl	r9, r8, #5
 522 012e C9EB0808 		rsb	r8, r9, r8
 523              	.LVL52:
 524              		.loc 1 132 0
 525 0132 5B08     		movs	r3, r3, lsr #1
 526 0134 4FEA3202 		mov	r2, r2, rrx
 527              	.LVL53:
 528 0138 C507     		lsls	r5, r0, #31
 529 013a 0024     		movs	r4, #0
 530              		.loc 1 133 0
 531 013c 4FEA0867 		lsl	r7, r8, #24
 532              	.LVL54:
 533 0140 5FEA5109 		movs	r9, r1, lsr #1
 534 0144 4FEA3008 		mov	r8, r0, rrx
 535 0148 84EA0800 		eor	r0, r4, r8
 536              	.LVL55:
 537              		.loc 1 132 0
 538 014c 2243     		orrs	r2, r2, r4
 539 014e 0AEBCE08 		add	r8, r10, lr, lsl #3
 540 0152 2B43     		orrs	r3, r3, r5
 541              	.LVL56:
 542              		.loc 1 133 0
 543 0154 87EA0901 		eor	r1, r7, r9
 544              	.LVL57:
 545              	.LBE35:
 546              		.loc 1 129 0
 547 0158 BCF1010C 		subs	ip, ip, #1
 548              	.LBB36:
 549              		.loc 1 136 0
 550 015c C8E93001 		strd	r0, [r8, #192]
 551              		.loc 1 135 0
 552 0160 C8E91023 		strd	r2, [r8, #64]
 553              	.LBE36:
 554              		.loc 1 129 0
 555 0164 4FEA6E0E 		asr	lr, lr, #1
 556              	.LVL58:
 557 0168 DDD1     		bne	.L11
 558 016a 0323     		movs	r3, #3
 559 016c 0293     		str	r3, [sp, #8]
 560              	.LVL59:
 561 016e 0AF1C00B 		add	fp, r10, #192
 562              	.LVL60:
 563 0172 0AF14003 		add	r3, r10, #64
 564 0176 4FF0020C 		mov	ip, #2
 565 017a 0593     		str	r3, [sp, #20]
 566 017c CDF818A0 		str	r10, [sp, #24]
 567 0180 CDF820B0 		str	fp, [sp, #32]
 568              	.LVL61:
 569              	.L13:
 570 0184 0698     		ldr	r0, [sp, #24]
ARM GAS  C:\Users\jo\AppData\Local\Temp\cca1lOZc.s 			page 11


 571 0186 DDF820E0 		ldr	lr, [sp, #32]
 572              	.LBB37:
 573              		.loc 1 141 0
 574 018a 0CF11801 		add	r1, ip, #24
 575 018e 0CF10802 		add	r2, ip, #8
 576 0192 00EBCC03 		add	r3, r0, ip, lsl #3
 577 0196 00EBC101 		add	r1, r0, r1, lsl #3
 578 019a 00EBC202 		add	r2, r0, r2, lsl #3
 579 019e 0598     		ldr	r0, [sp, #20]
 580              		.loc 1 142 0
 581 01a0 D3E93089 		ldrd	r8, [r3, #192]
 582              	.LVL62:
 583              		.loc 1 143 0
 584 01a4 D3E910AB 		ldrd	r10, [r3, #64]
 585              	.LVL63:
 586              		.loc 1 144 0
 587 01a8 0123     		movs	r3, #1
 588              	.LVL64:
 589              	.L12:
 590              		.loc 1 146 0
 591 01aa FEE90267 		ldrd	r6, [lr, #8]!
 592 01ae 88EA0604 		eor	r4, r8, r6
 593 01b2 89EA0705 		eor	r5, r9, r7
 594 01b6 E1E90245 		strd	r4, [r1, #8]!
 595              		.loc 1 147 0
 596 01ba F0E90267 		ldrd	r6, [r0, #8]!
 597              		.loc 1 144 0
 598 01be 0133     		adds	r3, r3, #1
 599              	.LVL65:
 600              		.loc 1 147 0
 601 01c0 8AEA0604 		eor	r4, r10, r6
 602 01c4 8BEA0705 		eor	r5, fp, r7
 603              		.loc 1 144 0
 604 01c8 6345     		cmp	r3, ip
 605              		.loc 1 147 0
 606 01ca E2E90245 		strd	r4, [r2, #8]!
 607              		.loc 1 144 0
 608 01ce ECD1     		bne	.L12
 609              	.LBE37:
 610              		.loc 1 139 0
 611 01d0 4FEA430C 		lsl	ip, r3, #1
 612              	.LVL66:
 613 01d4 029B     		ldr	r3, [sp, #8]
 614              	.LVL67:
 615 01d6 013B     		subs	r3, r3, #1
 616 01d8 0293     		str	r3, [sp, #8]
 617 01da D3D1     		bne	.L13
 618              	.LBE34:
 619              	.LBE33:
 620              		.loc 1 185 0
 621 01dc 0298     		ldr	r0, [sp, #8]
 622 01de 33E7     		b	.L23
 623              	.LVL68:
 624              	.L16:
 625              	.LBE32:
 626              	.LBE31:
 627              		.loc 1 166 0
ARM GAS  C:\Users\jo\AppData\Local\Temp\cca1lOZc.s 			page 12


 628 01e0 6FF01300 		mvn	r0, #19
 629              	.LVL69:
 630              		.loc 1 186 0
 631 01e4 11B0     		add	sp, sp, #68
 632              		.cfi_def_cfa_offset 36
 633              		@ sp needed
 634 01e6 BDE8F08F 		pop	{r4, r5, r6, r7, r8, r9, r10, fp, pc}
 635              		.cfi_endproc
 636              	.LFE9:
 637              		.size	gcm_init, .-gcm_init
 638 01ea 00BFAFF3 		.section	.text.gcm_starts,"ax",%progbits
 638      0080
 639              		.align	2
 640              		.p2align 4,,15
 641              		.global	gcm_starts
 642              		.thumb
 643              		.thumb_func
 644              		.type	gcm_starts, %function
 645              	gcm_starts:
 646              	.LFB11:
 647              		.loc 1 267 0
 648              		.cfi_startproc
 649              		@ args = 8, pretend = 0, frame = 32
 650              		@ frame_needed = 0, uses_anonymous_args = 0
 651              	.LVL70:
 652 0000 2DE9F04F 		push	{r4, r5, r6, r7, r8, r9, r10, fp, lr}
 653              		.cfi_def_cfa_offset 36
 654              		.cfi_offset 4, -36
 655              		.cfi_offset 5, -32
 656              		.cfi_offset 6, -28
 657              		.cfi_offset 7, -24
 658              		.cfi_offset 8, -20
 659              		.cfi_offset 9, -16
 660              		.cfi_offset 10, -12
 661              		.cfi_offset 11, -8
 662              		.cfi_offset 14, -4
 663 0004 8BB0     		sub	sp, sp, #44
 664              		.cfi_def_cfa_offset 80
 665              		.loc 1 267 0
 666 0006 0446     		mov	r4, r0
 667              		.loc 1 272 0
 668 0008 0025     		movs	r5, #0
 669              		.loc 1 281 0
 670 000a 00F5B07B 		add	fp, r0, #352
 671              		.loc 1 267 0
 672 000e 0391     		str	r1, [sp, #12]
 673 0010 1746     		mov	r7, r2
 674              		.loc 1 281 0
 675 0012 2946     		mov	r1, r5
 676              	.LVL71:
 677 0014 1022     		movs	r2, #16
 678              	.LVL72:
 679 0016 5846     		mov	r0, fp
 680              	.LVL73:
 681              		.loc 1 282 0
 682 0018 04F5B879 		add	r9, r4, #368
 683              		.loc 1 267 0
ARM GAS  C:\Users\jo\AppData\Local\Temp\cca1lOZc.s 			page 13


 684 001c 9A46     		mov	r10, r3
 685              		.loc 1 272 0
 686 001e 0595     		str	r5, [sp, #20]
 687              		.loc 1 267 0
 688 0020 DDF85080 		ldr	r8, [sp, #80]
 689 0024 159E     		ldr	r6, [sp, #84]
 690              		.loc 1 281 0
 691 0026 FFF7FEFF 		bl	memset
 692              	.LVL74:
 693              		.loc 1 282 0
 694 002a 2946     		mov	r1, r5
 695 002c 1022     		movs	r2, #16
 696 002e 4846     		mov	r0, r9
 697 0030 FFF7FEFF 		bl	memset
 698              	.LVL75:
 699              		.loc 1 284 0
 700 0034 039B     		ldr	r3, [sp, #12]
 701 0036 C4F88031 		str	r3, [r4, #384]
 702              		.loc 1 285 0
 703 003a 0020     		movs	r0, #0
 704 003c 0021     		movs	r1, #0
 705              		.loc 1 286 0
 706 003e 2346     		mov	r3, r4
 707              		.loc 1 285 0
 708 0040 04F5A072 		add	r2, r4, #320
 709 0044 C2E90001 		strd	r0, [r2]
 710              		.loc 1 286 0
 711 0048 E3E95201 		strd	r0, [r3, #328]!
 712              		.loc 1 288 0
 713 004c BAF10C0F 		cmp	r10, #12
 714              		.loc 1 286 0
 715 0050 0393     		str	r3, [sp, #12]
 716              	.LVL76:
 717              		.loc 1 288 0
 718 0052 79D0     		beq	.L50
 719              		.loc 1 296 0
 720 0054 4FEACA02 		lsl	r2, r10, #3
 721 0058 130E     		lsrs	r3, r2, #24
 722 005a 100C     		lsrs	r0, r2, #16
 723 005c 110A     		lsrs	r1, r2, #8
 724              		.loc 1 295 0
 725 005e 0695     		str	r5, [sp, #24]
 726 0060 0795     		str	r5, [sp, #28]
 727 0062 0895     		str	r5, [sp, #32]
 728              		.loc 1 296 0
 729 0064 8DF82720 		strb	r2, [sp, #39]
 730              	.LVL77:
 731 0068 8DF82430 		strb	r3, [sp, #36]
 732 006c 8DF82500 		strb	r0, [sp, #37]
 733 0070 8DF82610 		strb	r1, [sp, #38]
 734              		.loc 1 299 0
 735 0074 BAF1000F 		cmp	r10, #0
 736 0078 23D0     		beq	.L30
 737 007a 04F25F13 		addw	r3, r4, #351
 738 007e 1596     		str	r6, [sp, #84]
 739 0080 5E46     		mov	r6, fp
 740 0082 A346     		mov	fp, r4
ARM GAS  C:\Users\jo\AppData\Local\Temp\cca1lOZc.s 			page 14


 741 0084 1C46     		mov	r4, r3
 742              	.LVL78:
 743              	.L32:
 744              		.loc 1 301 0
 745 0086 5546     		mov	r5, r10
 746 0088 102D     		cmp	r5, #16
 747 008a 28BF     		it	cs
 748 008c 1025     		movcs	r5, #16
 749              	.LVL79:
 750 008e 05F25F10 		addw	r0, r5, #351
 751 0092 5844     		add	r0, r0, fp
 752 0094 2246     		mov	r2, r4
 753 0096 791E     		subs	r1, r7, #1
 754              	.LVL80:
 755              	.L31:
 756              		.loc 1 304 0 discriminator 3
 757 0098 12F8013F 		ldrb	r3, [r2, #1]!	@ zero_extendqisi2
 758 009c 11F801EF 		ldrb	lr, [r1, #1]!	@ zero_extendqisi2
 759              		.loc 1 303 0 discriminator 3
 760 00a0 8242     		cmp	r2, r0
 761              		.loc 1 304 0 discriminator 3
 762 00a2 8EEA0303 		eor	r3, lr, r3
 763 00a6 1370     		strb	r3, [r2]
 764              		.loc 1 303 0 discriminator 3
 765 00a8 F6D1     		bne	.L31
 766              		.loc 1 306 0
 767 00aa 5846     		mov	r0, fp
 768 00ac 3146     		mov	r1, r6
 769 00ae 3246     		mov	r2, r6
 770 00b0 FFF7FEFF 		bl	gcm_mult
 771              	.LVL81:
 772              		.loc 1 299 0
 773 00b4 BAEB050A 		subs	r10, r10, r5
 774              	.LVL82:
 775              		.loc 1 309 0
 776 00b8 2F44     		add	r7, r7, r5
 777              	.LVL83:
 778              		.loc 1 299 0
 779 00ba E4D1     		bne	.L32
 780 00bc 5C46     		mov	r4, fp
 781 00be B346     		mov	fp, r6
 782              	.LVL84:
 783 00c0 159E     		ldr	r6, [sp, #84]
 784              	.LVL85:
 785              	.L30:
 786              		.loc 1 267 0
 787 00c2 0023     		movs	r3, #0
 788 00c4 1846     		mov	r0, r3
 789 00c6 5946     		mov	r1, fp
 790 00c8 06AD     		add	r5, sp, #24
 791 00ca 01E0     		b	.L39
 792              	.LVL86:
 793              	.L33:
 794 00cc 15F8013F 		ldrb	r3, [r5, #1]!	@ zero_extendqisi2
 795              	.LVL87:
 796              	.L39:
 797              		.loc 1 313 0 discriminator 3
ARM GAS  C:\Users\jo\AppData\Local\Temp\cca1lOZc.s 			page 15


 798 00d0 0A78     		ldrb	r2, [r1]	@ zero_extendqisi2
 799              		.loc 1 312 0 discriminator 3
 800 00d2 0130     		adds	r0, r0, #1
 801              	.LVL88:
 802              		.loc 1 313 0 discriminator 3
 803 00d4 5340     		eors	r3, r3, r2
 804              		.loc 1 312 0 discriminator 3
 805 00d6 1028     		cmp	r0, #16
 806              		.loc 1 313 0 discriminator 3
 807 00d8 01F8013B 		strb	r3, [r1], #1
 808              		.loc 1 312 0 discriminator 3
 809 00dc F6D1     		bne	.L33
 810              		.loc 1 315 0
 811 00de 2046     		mov	r0, r4
 812              	.LVL89:
 813 00e0 5946     		mov	r1, fp
 814 00e2 5A46     		mov	r2, fp
 815 00e4 FFF7FEFF 		bl	gcm_mult
 816              	.LVL90:
 817              	.L29:
 818              		.loc 1 318 0
 819 00e8 05AB     		add	r3, sp, #20
 820 00ea 0093     		str	r3, [sp]
 821 00ec 5946     		mov	r1, fp
 822 00ee 2046     		mov	r0, r4
 823 00f0 1022     		movs	r2, #16
 824 00f2 04F5A873 		add	r3, r4, #336
 825 00f6 FFF7FEFF 		bl	cipher_update
 826              	.LVL91:
 827 00fa 10BB     		cbnz	r0, .L48
 828              		.loc 1 276 0
 829 00fc 039B     		ldr	r3, [sp, #12]
 830 00fe C4F84861 		str	r6, [r4, #328]
 831 0102 04F26F15 		addw	r5, r4, #367
 832 0106 5860     		str	r0, [r3, #4]
 833              	.LVL92:
 834              		.loc 1 326 0
 835 0108 D6B1     		cbz	r6, .L38
 836              	.LVL93:
 837              	.L37:
 838              		.loc 1 328 0
 839 010a 102E     		cmp	r6, #16
 840 010c 3746     		mov	r7, r6
 841 010e 28BF     		it	cs
 842 0110 1027     		movcs	r7, #16
 843              	.LVL94:
 844 0112 07F26F1E 		addw	lr, r7, #367
 845 0116 A644     		add	lr, lr, r4
 846 0118 2B46     		mov	r3, r5
 847 011a 08F1FF31 		add	r1, r8, #-1
 848              	.LVL95:
 849              	.L36:
 850              		.loc 1 331 0 discriminator 3
 851 011e 13F8012F 		ldrb	r2, [r3, #1]!	@ zero_extendqisi2
 852 0122 11F8010F 		ldrb	r0, [r1, #1]!	@ zero_extendqisi2
 853              		.loc 1 330 0 discriminator 3
 854 0126 7345     		cmp	r3, lr
ARM GAS  C:\Users\jo\AppData\Local\Temp\cca1lOZc.s 			page 16


 855              		.loc 1 331 0 discriminator 3
 856 0128 82EA0002 		eor	r2, r2, r0
 857 012c 1A70     		strb	r2, [r3]
 858              		.loc 1 330 0 discriminator 3
 859 012e F6D1     		bne	.L36
 860              		.loc 1 333 0
 861 0130 2046     		mov	r0, r4
 862 0132 4946     		mov	r1, r9
 863 0134 4A46     		mov	r2, r9
 864 0136 FFF7FEFF 		bl	gcm_mult
 865              	.LVL96:
 866              		.loc 1 326 0
 867 013a F61B     		subs	r6, r6, r7
 868              	.LVL97:
 869              		.loc 1 336 0
 870 013c B844     		add	r8, r8, r7
 871              	.LVL98:
 872              		.loc 1 326 0
 873 013e E4D1     		bne	.L37
 874              	.LVL99:
 875              	.L38:
 876              		.loc 1 339 0
 877 0140 0020     		movs	r0, #0
 878              	.LVL100:
 879              	.L48:
 880              		.loc 1 340 0
 881 0142 0BB0     		add	sp, sp, #44
 882              		.cfi_remember_state
 883              		.cfi_def_cfa_offset 36
 884              		@ sp needed
 885 0144 BDE8F08F 		pop	{r4, r5, r6, r7, r8, r9, r10, fp, pc}
 886              	.LVL101:
 887              	.L50:
 888              		.cfi_restore_state
 889              		.loc 1 290 0
 890 0148 3B68     		ldr	r3, [r7]	@ unaligned
 891 014a 7968     		ldr	r1, [r7, #4]	@ unaligned
 892 014c BA68     		ldr	r2, [r7, #8]	@ unaligned
 893 014e C4F86031 		str	r3, [r4, #352]	@ unaligned
 894              		.loc 1 291 0
 895 0152 0123     		movs	r3, #1
 896              		.loc 1 290 0
 897 0154 CBF80410 		str	r1, [fp, #4]	@ unaligned
 898 0158 CBF80820 		str	r2, [fp, #8]	@ unaligned
 899              		.loc 1 291 0
 900 015c 84F86F31 		strb	r3, [r4, #367]
 901 0160 C2E7     		b	.L29
 902              		.cfi_endproc
 903              	.LFE11:
 904              		.size	gcm_starts, .-gcm_starts
 905 0162 00BFAFF3 		.section	.text.gcm_update,"ax",%progbits
 905      0080AFF3 
 905      0080AFF3 
 905      0080
 906              		.align	2
 907              		.p2align 4,,15
 908              		.global	gcm_update
ARM GAS  C:\Users\jo\AppData\Local\Temp\cca1lOZc.s 			page 17


 909              		.thumb
 910              		.thumb_func
 911              		.type	gcm_update, %function
 912              	gcm_update:
 913              	.LFB12:
 914              		.loc 1 346 0
 915              		.cfi_startproc
 916              		@ args = 0, pretend = 0, frame = 32
 917              		@ frame_needed = 0, uses_anonymous_args = 0
 918              	.LVL102:
 919 0000 2DE9F04F 		push	{r4, r5, r6, r7, r8, r9, r10, fp, lr}
 920              		.cfi_def_cfa_offset 36
 921              		.cfi_offset 4, -36
 922              		.cfi_offset 5, -32
 923              		.cfi_offset 6, -28
 924              		.cfi_offset 7, -24
 925              		.cfi_offset 8, -20
 926              		.cfi_offset 9, -16
 927              		.cfi_offset 10, -12
 928              		.cfi_offset 11, -8
 929              		.cfi_offset 14, -4
 930 0004 9A46     		mov	r10, r3
 931              	.LVL103:
 932 0006 8BB0     		sub	sp, sp, #44
 933              		.cfi_def_cfa_offset 80
 934              		.loc 1 352 0
 935 0008 0023     		movs	r3, #0
 936              	.LVL104:
 937              		.loc 1 354 0
 938 000a 9245     		cmp	r10, r2
 939              		.loc 1 346 0
 940 000c 1646     		mov	r6, r2
 941 000e 0546     		mov	r5, r0
 942 0010 8846     		mov	r8, r1
 943              		.loc 1 352 0
 944 0012 0593     		str	r3, [sp, #20]
 945              		.loc 1 354 0
 946 0014 03D9     		bls	.L52
 947              		.loc 1 354 0 is_stmt 0 discriminator 1
 948 0016 C2EB0A03 		rsb	r3, r2, r10
 949 001a 8B42     		cmp	r3, r1
 950 001c 61D3     		bcc	.L65
 951              	.L52:
 952              		.loc 1 359 0 is_stmt 1
 953 001e 2C46     		mov	r4, r5
 954 0020 F4E95001 		ldrd	r0, [r4, #320]!
 955              	.LVL105:
 956 0024 10EB0802 		adds	r2, r0, r8
 957              	.LVL106:
 958 0028 41F10003 		adc	r3, r1, #0
 959 002c 8B42     		cmp	r3, r1
 960 002e 08BF     		it	eq
 961 0030 8242     		cmpeq	r2, r0
 962 0032 56D3     		bcc	.L65
 963              		.loc 1 359 0 is_stmt 0 discriminator 1
 964 0034 2C48     		ldr	r0, .L72
 965 0036 0021     		movs	r1, #0
ARM GAS  C:\Users\jo\AppData\Local\Temp\cca1lOZc.s 			page 18


 966              	.LVL107:
 967 0038 9942     		cmp	r1, r3
 968 003a 08BF     		it	eq
 969 003c 9042     		cmpeq	r0, r2
 970 003e 50D3     		bcc	.L65
 971              		.loc 1 365 0 is_stmt 1
 972 0040 C4E90023 		strd	r2, [r4]
 973              	.LVL108:
 974              		.loc 1 368 0
 975 0044 B8F1000F 		cmp	r8, #0
 976 0048 43D0     		beq	.L62
 977 004a 05F5B073 		add	r3, r5, #352
 978 004e 0393     		str	r3, [sp, #12]
 979 0050 05F5B87B 		add	fp, r5, #368
 980 0054 05F5B679 		add	r9, r5, #364
 981              	.LVL109:
 982              	.L61:
 983              		.loc 1 370 0
 984 0058 4746     		mov	r7, r8
 985 005a 102F     		cmp	r7, #16
 986 005c 28BF     		it	cs
 987 005e 1027     		movcs	r7, #16
 988              	.LVL110:
 989 0060 5C46     		mov	r4, fp
 990 0062 5A46     		mov	r2, fp
 991              	.LVL111:
 992              	.L56:
 993              		.loc 1 373 0
 994 0064 12F8013D 		ldrb	r3, [r2, #-1]!	@ zero_extendqisi2
 995 0068 0133     		adds	r3, r3, #1
 996 006a DBB2     		uxtb	r3, r3
 997 006c 1370     		strb	r3, [r2]
 998 006e 0BB9     		cbnz	r3, .L55
 999              		.loc 1 372 0 discriminator 1
 1000 0070 4A45     		cmp	r2, r9
 1001 0072 F7D1     		bne	.L56
 1002              	.L55:
 1003              		.loc 1 376 0
 1004 0074 05AB     		add	r3, sp, #20
 1005 0076 0093     		str	r3, [sp]
 1006 0078 2846     		mov	r0, r5
 1007 007a 0399     		ldr	r1, [sp, #12]
 1008 007c 1022     		movs	r2, #16
 1009 007e 06AB     		add	r3, sp, #24
 1010 0080 FFF7FEFF 		bl	cipher_update
 1011              	.LVL112:
 1012 0084 30BB     		cbnz	r0, .L53
 1013 0086 D5F88001 		ldr	r0, [r5, #384]
 1014              	.LVL113:
 1015 008a 3146     		mov	r1, r6
 1016 008c 0DF1170C 		add	ip, sp, #23
 1017 0090 3E44     		add	r6, r6, r7
 1018              	.LVL114:
 1019 0092 0AF1FF3E 		add	lr, r10, #-1
 1020              	.LVL115:
 1021              	.L60:
 1022              		.loc 1 384 0
ARM GAS  C:\Users\jo\AppData\Local\Temp\cca1lOZc.s 			page 19


 1023 0096 18B9     		cbnz	r0, .L58
 1024              		.loc 1 385 0
 1025 0098 0A78     		ldrb	r2, [r1]	@ zero_extendqisi2
 1026 009a 2378     		ldrb	r3, [r4]	@ zero_extendqisi2
 1027 009c 5340     		eors	r3, r3, r2
 1028 009e 2370     		strb	r3, [r4]
 1029              	.L58:
 1030              		.loc 1 386 0
 1031 00a0 0A78     		ldrb	r2, [r1]	@ zero_extendqisi2
 1032 00a2 1CF8013F 		ldrb	r3, [ip, #1]!	@ zero_extendqisi2
 1033 00a6 5340     		eors	r3, r3, r2
 1034 00a8 0EF8013F 		strb	r3, [lr, #1]!
 1035              		.loc 1 387 0
 1036 00ac D5F88001 		ldr	r0, [r5, #384]
 1037 00b0 0128     		cmp	r0, #1
 1038 00b2 01F10101 		add	r1, r1, #1
 1039              	.LVL116:
 1040 00b6 10D0     		beq	.L71
 1041              	.L59:
 1042              		.loc 1 382 0 discriminator 2
 1043 00b8 B142     		cmp	r1, r6
 1044 00ba 04F10104 		add	r4, r4, #1
 1045 00be EAD1     		bne	.L60
 1046              		.loc 1 391 0
 1047 00c0 2846     		mov	r0, r5
 1048 00c2 5946     		mov	r1, fp
 1049              	.LVL117:
 1050 00c4 5A46     		mov	r2, fp
 1051 00c6 FFF7FEFF 		bl	gcm_mult
 1052              	.LVL118:
 1053              		.loc 1 368 0
 1054 00ca B8EB0708 		subs	r8, r8, r7
 1055              	.LVL119:
 1056              		.loc 1 395 0
 1057 00ce BA44     		add	r10, r10, r7
 1058              	.LVL120:
 1059              		.loc 1 368 0
 1060 00d0 C2D1     		bne	.L61
 1061              	.LVL121:
 1062              	.L62:
 1063              		.loc 1 398 0
 1064 00d2 0020     		movs	r0, #0
 1065              	.LVL122:
 1066              	.L53:
 1067              		.loc 1 399 0
 1068 00d4 0BB0     		add	sp, sp, #44
 1069              		.cfi_remember_state
 1070              		.cfi_def_cfa_offset 36
 1071              		@ sp needed
 1072 00d6 BDE8F08F 		pop	{r4, r5, r6, r7, r8, r9, r10, fp, pc}
 1073              	.LVL123:
 1074              	.L71:
 1075              		.cfi_restore_state
 1076              		.loc 1 388 0
 1077 00da 2278     		ldrb	r2, [r4]	@ zero_extendqisi2
 1078 00dc 5340     		eors	r3, r3, r2
 1079 00de 2370     		strb	r3, [r4]
ARM GAS  C:\Users\jo\AppData\Local\Temp\cca1lOZc.s 			page 20


 1080 00e0 EAE7     		b	.L59
 1081              	.LVL124:
 1082              	.L65:
 1083              		.loc 1 355 0
 1084 00e2 6FF01300 		mvn	r0, #19
 1085 00e6 F5E7     		b	.L53
 1086              	.L73:
 1087              		.align	2
 1088              	.L72:
 1089 00e8 E0FFFF03 		.word	67108832
 1090              		.cfi_endproc
 1091              	.LFE12:
 1092              		.size	gcm_update, .-gcm_update
 1093 00ec AFF30080 		.section	.text.gcm_finish,"ax",%progbits
 1094              		.align	2
 1095              		.p2align 4,,15
 1096              		.global	gcm_finish
 1097              		.thumb
 1098              		.thumb_func
 1099              		.type	gcm_finish, %function
 1100              	gcm_finish:
 1101              	.LFB13:
 1102              		.loc 1 404 0
 1103              		.cfi_startproc
 1104              		@ args = 0, pretend = 0, frame = 16
 1105              		@ frame_needed = 0, uses_anonymous_args = 0
 1106              	.LVL125:
 1107 0000 2DE9F04F 		push	{r4, r5, r6, r7, r8, r9, r10, fp, lr}
 1108              		.cfi_def_cfa_offset 36
 1109              		.cfi_offset 4, -36
 1110              		.cfi_offset 5, -32
 1111              		.cfi_offset 6, -28
 1112              		.cfi_offset 7, -24
 1113              		.cfi_offset 8, -20
 1114              		.cfi_offset 9, -16
 1115              		.cfi_offset 10, -12
 1116              		.cfi_offset 11, -8
 1117              		.cfi_offset 14, -4
 1118              		.loc 1 410 0
 1119 0004 161F     		subs	r6, r2, #4
 1120 0006 0C2E     		cmp	r6, #12
 1121              		.loc 1 404 0
 1122 0008 85B0     		sub	sp, sp, #20
 1123              		.cfi_def_cfa_offset 56
 1124              		.loc 1 404 0
 1125 000a 1546     		mov	r5, r2
 1126              		.loc 1 407 0
 1127 000c D0F840E1 		ldr	lr, [r0, #320]
 1128 0010 D0F84481 		ldr	r8, [r0, #324]
 1129              	.LVL126:
 1130              		.loc 1 408 0
 1131 0014 D0F84831 		ldr	r3, [r0, #328]
 1132 0018 D0F84CC1 		ldr	ip, [r0, #332]
 1133              	.LVL127:
 1134              		.loc 1 410 0
 1135 001c 72D8     		bhi	.L81
 1136 001e 8246     		mov	r10, r0
ARM GAS  C:\Users\jo\AppData\Local\Temp\cca1lOZc.s 			page 21


 1137              		.loc 1 407 0
 1138 0020 4FEAC807 		lsl	r7, r8, #3
 1139 0024 47EA5E77 		orr	r7, r7, lr, lsr #29
 1140              		.loc 1 408 0
 1141 0028 4FEACC09 		lsl	r9, ip, #3
 1142              		.loc 1 407 0
 1143 002c 4FEACE06 		lsl	r6, lr, #3
 1144              		.loc 1 414 0
 1145 0030 0846     		mov	r0, r1
 1146              	.LVL128:
 1147 0032 0C46     		mov	r4, r1
 1148 0034 0AF5A871 		add	r1, r10, #336
 1149              	.LVL129:
 1150              		.loc 1 408 0
 1151 0038 49EA5379 		orr	r9, r9, r3, lsr #29
 1152 003c 4FEAC308 		lsl	r8, r3, #3
 1153              	.LVL130:
 1154              		.loc 1 414 0
 1155 0040 FFF7FEFF 		bl	memcpy
 1156              	.LVL131:
 1157              		.loc 1 416 0
 1158 0044 56EA0703 		orrs	r3, r6, r7
 1159 0048 02D1     		bne	.L76
 1160              		.loc 1 416 0 is_stmt 0 discriminator 1
 1161 004a 58EA0903 		orrs	r3, r8, r9
 1162 004e 55D0     		beq	.L80
 1163              	.L76:
 1164              		.loc 1 420 0 is_stmt 1
 1165 0050 4FEA194B 		lsr	fp, r9, #16
 1166 0054 4FEA1921 		lsr	r1, r9, #8
 1167              		.loc 1 421 0
 1168 0058 4FEA1820 		lsr	r0, r8, #8
 1169              		.loc 1 420 0
 1170 005c 4FEA1962 		lsr	r2, r9, #24
 1171              		.loc 1 421 0
 1172 0060 4FEA186C 		lsr	ip, r8, #24
 1173 0064 4FEA184E 		lsr	lr, r8, #16
 1174              		.loc 1 422 0
 1175 0068 3B0E     		lsrs	r3, r7, #24
 1176              		.loc 1 420 0
 1177 006a 8DF80390 		strb	r9, [sp, #3]
 1178              		.loc 1 421 0
 1179 006e 8DF80780 		strb	r8, [sp, #7]
 1180              		.loc 1 422 0
 1181 0072 4FEA1749 		lsr	r9, r7, #16
 1182 0076 4FEA1728 		lsr	r8, r7, #8
 1183 007a 8DF80B70 		strb	r7, [sp, #11]
 1184              		.loc 1 423 0
 1185 007e 8DF80F60 		strb	r6, [sp, #15]
 1186              	.LVL132:
 1187 0082 370E     		lsrs	r7, r6, #24
 1188              		.loc 1 420 0
 1189 0084 8DF801B0 		strb	fp, [sp, #1]
 1190 0088 8DF80210 		strb	r1, [sp, #2]
 1191              		.loc 1 423 0
 1192 008c 4FEA164B 		lsr	fp, r6, #16
 1193 0090 0AF5B871 		add	r1, r10, #368
ARM GAS  C:\Users\jo\AppData\Local\Temp\cca1lOZc.s 			page 22


 1194 0094 360A     		lsrs	r6, r6, #8
 1195              		.loc 1 421 0
 1196 0096 8DF80600 		strb	r0, [sp, #6]
 1197              		.loc 1 423 0
 1198 009a 8DF80C70 		strb	r7, [sp, #12]
 1199 009e 8DF80E60 		strb	r6, [sp, #14]
 1200              		.loc 1 420 0
 1201 00a2 8DF80020 		strb	r2, [sp]
 1202              		.loc 1 421 0
 1203 00a6 8DF804C0 		strb	ip, [sp, #4]
 1204 00aa 8DF805E0 		strb	lr, [sp, #5]
 1205              		.loc 1 422 0
 1206 00ae 8DF80830 		strb	r3, [sp, #8]
 1207 00b2 8DF80990 		strb	r9, [sp, #9]
 1208 00b6 8DF80A80 		strb	r8, [sp, #10]
 1209              		.loc 1 423 0
 1210 00ba 8DF80DB0 		strb	fp, [sp, #13]
 1211 00be 0E46     		mov	r6, r1
 1212 00c0 6F46     		mov	r7, sp
 1213              		.loc 1 425 0
 1214 00c2 0020     		movs	r0, #0
 1215 00c4 01E0     		b	.L78
 1216              	.LVL133:
 1217              	.L85:
 1218 00c6 17F8012F 		ldrb	r2, [r7, #1]!	@ zero_extendqisi2
 1219              	.LVL134:
 1220              	.L78:
 1221              		.loc 1 426 0 discriminator 3
 1222 00ca 3378     		ldrb	r3, [r6]	@ zero_extendqisi2
 1223              		.loc 1 425 0 discriminator 3
 1224 00cc 0130     		adds	r0, r0, #1
 1225              	.LVL135:
 1226              		.loc 1 426 0 discriminator 3
 1227 00ce 5340     		eors	r3, r3, r2
 1228              		.loc 1 425 0 discriminator 3
 1229 00d0 1028     		cmp	r0, #16
 1230              		.loc 1 426 0 discriminator 3
 1231 00d2 06F8013B 		strb	r3, [r6], #1
 1232              		.loc 1 425 0 discriminator 3
 1233 00d6 F6D1     		bne	.L85
 1234              		.loc 1 428 0
 1235 00d8 5046     		mov	r0, r10
 1236              	.LVL136:
 1237 00da 0A46     		mov	r2, r1
 1238 00dc 013D     		subs	r5, r5, #1
 1239              	.LVL137:
 1240 00de FFF7FEFF 		bl	gcm_mult
 1241              	.LVL138:
 1242 00e2 2544     		add	r5, r5, r4
 1243              	.LVL139:
 1244 00e4 631E     		subs	r3, r4, #1
 1245 00e6 0AF26F1A 		addw	r10, r10, #367
 1246              	.LVL140:
 1247              	.L79:
 1248              		.loc 1 431 0 discriminator 3
 1249 00ea 13F8012F 		ldrb	r2, [r3, #1]!	@ zero_extendqisi2
 1250              	.LVL141:
ARM GAS  C:\Users\jo\AppData\Local\Temp\cca1lOZc.s 			page 23


 1251 00ee 1AF8011F 		ldrb	r1, [r10, #1]!	@ zero_extendqisi2
 1252              		.loc 1 430 0 discriminator 3
 1253 00f2 AB42     		cmp	r3, r5
 1254              		.loc 1 431 0 discriminator 3
 1255 00f4 82EA0102 		eor	r2, r2, r1
 1256 00f8 1A70     		strb	r2, [r3]
 1257              	.LVL142:
 1258              		.loc 1 430 0 discriminator 3
 1259 00fa F6D1     		bne	.L79
 1260              	.LVL143:
 1261              	.L80:
 1262              		.loc 1 434 0
 1263 00fc 0020     		movs	r0, #0
 1264              	.LVL144:
 1265              	.L75:
 1266              		.loc 1 435 0
 1267 00fe 05B0     		add	sp, sp, #20
 1268              		.cfi_remember_state
 1269              		.cfi_def_cfa_offset 36
 1270              		@ sp needed
 1271 0100 BDE8F08F 		pop	{r4, r5, r6, r7, r8, r9, r10, fp, pc}
 1272              	.LVL145:
 1273              	.L81:
 1274              		.cfi_restore_state
 1275              		.loc 1 411 0
 1276 0104 6FF01300 		mvn	r0, #19
 1277              	.LVL146:
 1278 0108 F9E7     		b	.L75
 1279              		.cfi_endproc
 1280              	.LFE13:
 1281              		.size	gcm_finish, .-gcm_finish
 1282 010a 00BFAFF3 		.section	.text.gcm_crypt_and_tag,"ax",%progbits
 1282      0080
 1283              		.align	2
 1284              		.p2align 4,,15
 1285              		.global	gcm_crypt_and_tag
 1286              		.thumb
 1287              		.thumb_func
 1288              		.type	gcm_crypt_and_tag, %function
 1289              	gcm_crypt_and_tag:
 1290              	.LFB14:
 1291              		.loc 1 448 0
 1292              		.cfi_startproc
 1293              		@ args = 28, pretend = 0, frame = 0
 1294              		@ frame_needed = 0, uses_anonymous_args = 0
 1295              	.LVL147:
 1296 0000 2DE9F043 		push	{r4, r5, r6, r7, r8, r9, lr}
 1297              		.cfi_def_cfa_offset 28
 1298              		.cfi_offset 4, -28
 1299              		.cfi_offset 5, -24
 1300              		.cfi_offset 6, -20
 1301              		.cfi_offset 7, -16
 1302              		.cfi_offset 8, -12
 1303              		.cfi_offset 9, -8
 1304              		.cfi_offset 14, -4
 1305 0004 83B0     		sub	sp, sp, #12
 1306              		.cfi_def_cfa_offset 40
ARM GAS  C:\Users\jo\AppData\Local\Temp\cca1lOZc.s 			page 24


 1307              		.loc 1 448 0
 1308 0006 1746     		mov	r7, r2
 1309 0008 0A9C     		ldr	r4, [sp, #40]
 1310 000a 0B9E     		ldr	r6, [sp, #44]
 1311 000c 0C9D     		ldr	r5, [sp, #48]
 1312              		.loc 1 451 0
 1313 000e 0096     		str	r6, [sp]
 1314 0010 0195     		str	r5, [sp, #4]
 1315 0012 1A46     		mov	r2, r3
 1316              	.LVL148:
 1317              		.loc 1 448 0
 1318 0014 0EAD     		add	r5, sp, #56
 1319              	.LVL149:
 1320              		.loc 1 451 0
 1321 0016 2346     		mov	r3, r4
 1322              	.LVL150:
 1323              		.loc 1 448 0
 1324 0018 0D9E     		ldr	r6, [sp, #52]
 1325 001a 0446     		mov	r4, r0
 1326 001c 95E82003 		ldmia	r5, {r5, r8, r9}
 1327              	.LVL151:
 1328              		.loc 1 451 0
 1329 0020 FFF7FEFF 		bl	gcm_starts
 1330              	.LVL152:
 1331 0024 10B1     		cbz	r0, .L91
 1332              	.L87:
 1333              		.loc 1 461 0
 1334 0026 03B0     		add	sp, sp, #12
 1335              		.cfi_remember_state
 1336              		.cfi_def_cfa_offset 28
 1337              		@ sp needed
 1338 0028 BDE8F083 		pop	{r4, r5, r6, r7, r8, r9, pc}
 1339              	.LVL153:
 1340              	.L91:
 1341              		.cfi_restore_state
 1342              		.loc 1 454 0
 1343 002c 3946     		mov	r1, r7
 1344 002e 3246     		mov	r2, r6
 1345 0030 2B46     		mov	r3, r5
 1346 0032 2046     		mov	r0, r4
 1347              	.LVL154:
 1348 0034 FFF7FEFF 		bl	gcm_update
 1349              	.LVL155:
 1350 0038 0028     		cmp	r0, #0
 1351 003a F4D1     		bne	.L87
 1352              	.LVL156:
 1353              	.LBB40:
 1354              	.LBB41:
 1355              		.loc 1 457 0
 1356 003c 2046     		mov	r0, r4
 1357              	.LVL157:
 1358 003e 4946     		mov	r1, r9
 1359 0040 4246     		mov	r2, r8
 1360              	.LBE41:
 1361              	.LBE40:
 1362              		.loc 1 461 0
 1363 0042 03B0     		add	sp, sp, #12
ARM GAS  C:\Users\jo\AppData\Local\Temp\cca1lOZc.s 			page 25


 1364              		.cfi_def_cfa_offset 28
 1365              		@ sp needed
 1366 0044 BDE8F043 		pop	{r4, r5, r6, r7, r8, r9, lr}
 1367              		.cfi_restore 14
 1368              		.cfi_restore 9
 1369              		.cfi_restore 8
 1370              		.cfi_restore 7
 1371              		.cfi_restore 6
 1372              		.cfi_restore 5
 1373              		.cfi_restore 4
 1374              		.cfi_def_cfa_offset 0
 1375              	.LVL158:
 1376              	.LBB43:
 1377              	.LBB42:
 1378              		.loc 1 457 0
 1379 0048 FFF7FEBF 		b	gcm_finish
 1380              	.LVL159:
 1381              	.LBE42:
 1382              	.LBE43:
 1383              		.cfi_endproc
 1384              	.LFE14:
 1385              		.size	gcm_crypt_and_tag, .-gcm_crypt_and_tag
 1386 004c AFF30080 		.section	.text.gcm_auth_decrypt,"ax",%progbits
 1387              		.align	2
 1388              		.p2align 4,,15
 1389              		.global	gcm_auth_decrypt
 1390              		.thumb
 1391              		.thumb_func
 1392              		.type	gcm_auth_decrypt, %function
 1393              	gcm_auth_decrypt:
 1394              	.LFB15:
 1395              		.loc 1 473 0
 1396              		.cfi_startproc
 1397              		@ args = 24, pretend = 0, frame = 16
 1398              		@ frame_needed = 0, uses_anonymous_args = 0
 1399              	.LVL160:
 1400 0000 F0B5     		push	{r4, r5, r6, r7, lr}
 1401              		.cfi_def_cfa_offset 20
 1402              		.cfi_offset 4, -20
 1403              		.cfi_offset 5, -16
 1404              		.cfi_offset 6, -12
 1405              		.cfi_offset 7, -8
 1406              		.cfi_offset 14, -4
 1407 0002 8DB0     		sub	sp, sp, #52
 1408              		.cfi_def_cfa_offset 72
 1409              		.loc 1 473 0
 1410 0004 0E46     		mov	r6, r1
 1411              		.loc 1 479 0
 1412 0006 129C     		ldr	r4, [sp, #72]
 1413 0008 0194     		str	r4, [sp, #4]
 1414 000a 139C     		ldr	r4, [sp, #76]
 1415              		.loc 1 473 0
 1416 000c 159F     		ldr	r7, [sp, #84]
 1417 000e 179D     		ldr	r5, [sp, #92]
 1418              		.loc 1 479 0
 1419 0010 0294     		str	r4, [sp, #8]
 1420 0012 08A9     		add	r1, sp, #32
ARM GAS  C:\Users\jo\AppData\Local\Temp\cca1lOZc.s 			page 26


 1421              	.LVL161:
 1422 0014 169C     		ldr	r4, [sp, #88]
 1423 0016 0093     		str	r3, [sp]
 1424 0018 0394     		str	r4, [sp, #12]
 1425 001a 1346     		mov	r3, r2
 1426              	.LVL162:
 1427 001c 0691     		str	r1, [sp, #24]
 1428 001e 3246     		mov	r2, r6
 1429              	.LVL163:
 1430 0020 0597     		str	r7, [sp, #20]
 1431 0022 0495     		str	r5, [sp, #16]
 1432 0024 0021     		movs	r1, #0
 1433              		.loc 1 473 0
 1434 0026 149C     		ldr	r4, [sp, #80]
 1435              		.loc 1 479 0
 1436 0028 FFF7FEFF 		bl	gcm_crypt_and_tag
 1437              	.LVL164:
 1438 002c C8B9     		cbnz	r0, .L93
 1439              	.LVL165:
 1440              		.loc 1 487 0 discriminator 1
 1441 002e D7B1     		cbz	r7, .L99
 1442 0030 013F     		subs	r7, r7, #1
 1443 0032 2744     		add	r7, r7, r4
 1444 0034 621E     		subs	r2, r4, #1
 1445 0036 0DF11F01 		add	r1, sp, #31
 1446              	.LVL166:
 1447              	.L94:
 1448              		.loc 1 488 0 discriminator 3
 1449 003a 12F8013F 		ldrb	r3, [r2, #1]!	@ zero_extendqisi2
 1450              	.LVL167:
 1451 003e 11F8014F 		ldrb	r4, [r1, #1]!	@ zero_extendqisi2
 1452              		.loc 1 487 0 discriminator 3
 1453 0042 BA42     		cmp	r2, r7
 1454              		.loc 1 488 0 discriminator 3
 1455 0044 83EA0403 		eor	r3, r3, r4
 1456 0048 40EA0300 		orr	r0, r0, r3
 1457              	.LVL168:
 1458              		.loc 1 487 0 discriminator 3
 1459 004c F5D1     		bne	.L94
 1460              		.loc 1 490 0
 1461 004e 40B1     		cbz	r0, .L93
 1462              	.LVL169:
 1463              	.LBB44:
 1464              	.LBB45:
 1465              		.loc 1 83 0
 1466 0050 2EB1     		cbz	r6, .L97
 1467 0052 2E44     		add	r6, r6, r5
 1468              	.LVL170:
 1469 0054 0023     		movs	r3, #0
 1470              	.LVL171:
 1471              	.L96:
 1472 0056 2B70     		strb	r3, [r5]
 1473              	.LVL172:
 1474 0058 0135     		adds	r5, r5, #1
 1475              	.LVL173:
 1476 005a B542     		cmp	r5, r6
 1477 005c FBD1     		bne	.L96
ARM GAS  C:\Users\jo\AppData\Local\Temp\cca1lOZc.s 			page 27


 1478              	.LVL174:
 1479              	.L97:
 1480              	.LBE45:
 1481              	.LBE44:
 1482              		.loc 1 493 0
 1483 005e 6FF01100 		mvn	r0, #17
 1484              	.LVL175:
 1485              	.L93:
 1486              		.loc 1 497 0
 1487 0062 0DB0     		add	sp, sp, #52
 1488              		.cfi_remember_state
 1489              		.cfi_def_cfa_offset 20
 1490              		@ sp needed
 1491 0064 F0BD     		pop	{r4, r5, r6, r7, pc}
 1492              	.LVL176:
 1493              	.L99:
 1494              		.cfi_restore_state
 1495              		.loc 1 496 0
 1496 0066 3846     		mov	r0, r7
 1497              	.LVL177:
 1498 0068 FBE7     		b	.L93
 1499              		.cfi_endproc
 1500              	.LFE15:
 1501              		.size	gcm_auth_decrypt, .-gcm_auth_decrypt
 1502 006a 00BFAFF3 		.section	.text.gcm_free,"ax",%progbits
 1502      0080
 1503              		.align	2
 1504              		.p2align 4,,15
 1505              		.global	gcm_free
 1506              		.thumb
 1507              		.thumb_func
 1508              		.type	gcm_free, %function
 1509              	gcm_free:
 1510              	.LFB16:
 1511              		.loc 1 500 0
 1512              		.cfi_startproc
 1513              		@ args = 0, pretend = 0, frame = 0
 1514              		@ frame_needed = 0, uses_anonymous_args = 0
 1515              	.LVL178:
 1516 0000 10B5     		push	{r4, lr}
 1517              		.cfi_def_cfa_offset 8
 1518              		.cfi_offset 4, -8
 1519              		.cfi_offset 14, -4
 1520              		.loc 1 500 0
 1521 0002 0446     		mov	r4, r0
 1522              		.loc 1 501 0
 1523 0004 FFF7FEFF 		bl	cipher_free
 1524              	.LVL179:
 1525 0008 04F5C472 		add	r2, r4, #392
 1526              	.LBB46:
 1527              	.LBB47:
 1528              		.loc 1 83 0
 1529 000c 0023     		movs	r3, #0
 1530              	.LVL180:
 1531              	.L105:
 1532 000e 2370     		strb	r3, [r4]
 1533              	.LVL181:
ARM GAS  C:\Users\jo\AppData\Local\Temp\cca1lOZc.s 			page 28


 1534 0010 0134     		adds	r4, r4, #1
 1535              	.LVL182:
 1536 0012 9442     		cmp	r4, r2
 1537 0014 FBD1     		bne	.L105
 1538              	.LBE47:
 1539              	.LBE46:
 1540              		.loc 1 503 0
 1541 0016 10BD     		pop	{r4, pc}
 1542              		.cfi_endproc
 1543              	.LFE16:
 1544              		.size	gcm_free, .-gcm_free
 1545 0018 AFF30080 		.section	.text.gcm_self_test,"ax",%progbits
 1545      AFF30080 
 1546              		.align	2
 1547              		.p2align 4,,15
 1548              		.global	gcm_self_test
 1549              		.thumb
 1550              		.thumb_func
 1551              		.type	gcm_self_test, %function
 1552              	gcm_self_test:
 1553              	.LFB17:
 1554              		.loc 1 734 0
 1555              		.cfi_startproc
 1556              		@ args = 0, pretend = 0, frame = 520
 1557              		@ frame_needed = 0, uses_anonymous_args = 0
 1558              	.LVL183:
 1559 0000 2DE9F04F 		push	{r4, r5, r6, r7, r8, r9, r10, fp, lr}
 1560              		.cfi_def_cfa_offset 36
 1561              		.cfi_offset 4, -36
 1562              		.cfi_offset 5, -32
 1563              		.cfi_offset 6, -28
 1564              		.cfi_offset 7, -24
 1565              		.cfi_offset 8, -20
 1566              		.cfi_offset 9, -16
 1567              		.cfi_offset 10, -12
 1568              		.cfi_offset 11, -8
 1569              		.cfi_offset 14, -4
 1570 0004 ADF50B7D 		sub	sp, sp, #556
 1571              		.cfi_def_cfa_offset 592
 1572 0008 B74B     		ldr	r3, .L159
 1573 000a 1293     		str	r3, [sp, #72]
 1574 000c B74B     		ldr	r3, .L159+4
 1575 000e 1393     		str	r3, [sp, #76]
 1576              		.loc 1 734 0
 1577 0010 0990     		str	r0, [sp, #36]
 1578 0012 4FF0800A 		mov	r10, #128
 1579 0016 18AF     		add	r7, sp, #96
 1580 0018 0DF1500B 		add	fp, sp, #80
 1581              	.LVL184:
 1582              	.L126:
 1583 001c B44B     		ldr	r3, .L159+8
 1584 001e 0B93     		str	r3, [sp, #44]
 1585              	.LBB48:
 1586              		.loc 1 743 0
 1587 0020 DDF84C80 		ldr	r8, [sp, #76]
 1588 0024 129B     		ldr	r3, [sp, #72]
 1589 0026 0893     		str	r3, [sp, #32]
ARM GAS  C:\Users\jo\AppData\Local\Temp\cca1lOZc.s 			page 29


 1590              		.loc 1 745 0
 1591 0028 0026     		movs	r6, #0
 1592 002a CDF828A0 		str	r10, [sp, #40]
 1593              	.LVL185:
 1594              	.L125:
 1595              		.loc 1 747 0
 1596 002e 099B     		ldr	r3, [sp, #36]
 1597 0030 002B     		cmp	r3, #0
 1598 0032 40F0B481 		bne	.L153
 1599              	.L109:
 1600              		.loc 1 751 0
 1601 0036 AF4B     		ldr	r3, .L159+12
 1602 0038 AF4A     		ldr	r2, .L159+16
 1603 003a 53F82630 		ldr	r3, [r3, r6, lsl #2]
 1604 003e 02EB4313 		add	r3, r2, r3, lsl #5
 1605 0042 1A46     		mov	r2, r3
 1606 0044 0D93     		str	r3, [sp, #52]
 1607 0046 0221     		movs	r1, #2
 1608 0048 0A9B     		ldr	r3, [sp, #40]
 1609 004a 28A8     		add	r0, sp, #160
 1610 004c FFF7FEFF 		bl	gcm_init
 1611              	.LVL186:
 1612              		.loc 1 755 0
 1613 0050 AA4B     		ldr	r3, .L159+20
 1614              		.loc 1 753 0
 1615 0052 0B99     		ldr	r1, [sp, #44]
 1616              		.loc 1 755 0
 1617 0054 53F82650 		ldr	r5, [r3, r6, lsl #2]
 1618              		.loc 1 756 0
 1619 0058 A94B     		ldr	r3, .L159+24
 1620              		.loc 1 753 0
 1621 005a 0C68     		ldr	r4, [r1]
 1622              		.loc 1 756 0
 1623 005c 53F82620 		ldr	r2, [r3, r6, lsl #2]
 1624              		.loc 1 757 0
 1625 0060 A84B     		ldr	r3, .L159+28
 1626              		.loc 1 753 0
 1627 0062 A949     		ldr	r1, .L159+32
 1628              		.loc 1 757 0
 1629 0064 53F82630 		ldr	r3, [r3, r6, lsl #2]
 1630 0068 1193     		str	r3, [sp, #68]
 1631              		.loc 1 755 0
 1632 006a A84B     		ldr	r3, .L159+36
 1633              		.loc 1 753 0
 1634 006c A848     		ldr	r0, .L159+40
 1635 006e 51F82610 		ldr	r1, [r1, r6, lsl #2]
 1636 0072 50F82600 		ldr	r0, [r0, r6, lsl #2]
 1637 0076 0E91     		str	r1, [sp, #56]
 1638              		.loc 1 755 0
 1639 0078 03EB8515 		add	r5, r3, r5, lsl #6
 1640              		.loc 1 756 0
 1641 007c A54B     		ldr	r3, .L159+44
 1642              		.loc 1 755 0
 1643 007e 0C95     		str	r5, [sp, #48]
 1644              		.loc 1 756 0
 1645 0080 03EB8212 		add	r2, r3, r2, lsl #6
 1646              		.loc 1 757 0
ARM GAS  C:\Users\jo\AppData\Local\Temp\cca1lOZc.s 			page 30


 1647 0084 119D     		ldr	r5, [sp, #68]
 1648 0086 A44B     		ldr	r3, .L159+48
 1649              		.loc 1 753 0
 1650 0088 1090     		str	r0, [sp, #64]
 1651              		.loc 1 757 0
 1652 008a 03EB8515 		add	r5, r3, r5, lsl #6
 1653              		.loc 1 753 0
 1654 008e 4FF0100A 		mov	r10, #16
 1655              		.loc 1 756 0
 1656 0092 0F92     		str	r2, [sp, #60]
 1657              		.loc 1 753 0
 1658 0094 0192     		str	r2, [sp, #4]
 1659 0096 0091     		str	r1, [sp]
 1660 0098 0290     		str	r0, [sp, #8]
 1661 009a 0497     		str	r7, [sp, #16]
 1662 009c CDF818B0 		str	fp, [sp, #24]
 1663 00a0 0C9B     		ldr	r3, [sp, #48]
 1664 00a2 0395     		str	r5, [sp, #12]
 1665 00a4 2246     		mov	r2, r4
 1666 00a6 CDF814A0 		str	r10, [sp, #20]
 1667 00aa 28A8     		add	r0, sp, #160
 1668 00ac 0121     		movs	r1, #1
 1669 00ae 4FEA8609 		lsl	r9, r6, #2
 1670 00b2 FFF7FEFF 		bl	gcm_crypt_and_tag
 1671              	.LVL187:
 1672              		.loc 1 759 0
 1673 00b6 0028     		cmp	r0, #0
 1674 00b8 40F05E81 		bne	.L110
 1675              		.loc 1 760 0 discriminator 1
 1676 00bc 3846     		mov	r0, r7
 1677              	.LVL188:
 1678 00be 4146     		mov	r1, r8
 1679 00c0 2246     		mov	r2, r4
 1680 00c2 FFF7FEFF 		bl	memcmp
 1681              	.LVL189:
 1682              		.loc 1 759 0 discriminator 1
 1683 00c6 0028     		cmp	r0, #0
 1684 00c8 40F05681 		bne	.L110
 1685              		.loc 1 761 0
 1686 00cc 5246     		mov	r2, r10
 1687 00ce 5846     		mov	r0, fp
 1688 00d0 0899     		ldr	r1, [sp, #32]
 1689 00d2 FFF7FEFF 		bl	memcmp
 1690              	.LVL190:
 1691              		.loc 1 760 0
 1692 00d6 8246     		mov	r10, r0
 1693 00d8 0028     		cmp	r0, #0
 1694 00da 40F04D81 		bne	.L110
 1695              	.LVL191:
 1696              	.LBB49:
 1697              	.LBB50:
 1698              		.loc 1 501 0
 1699 00de 28A8     		add	r0, sp, #160
 1700              	.LVL192:
 1701 00e0 FFF7FEFF 		bl	cipher_free
 1702              	.LVL193:
 1703              	.LBB51:
ARM GAS  C:\Users\jo\AppData\Local\Temp\cca1lOZc.s 			page 31


 1704              	.LBB52:
 1705              		.loc 1 83 0
 1706 00e4 5046     		mov	r0, r10
 1707 00e6 28AB     		add	r3, sp, #160
 1708              	.LVL194:
 1709              	.L113:
 1710 00e8 1870     		strb	r0, [r3]
 1711              	.LVL195:
 1712 00ea 8AAA     		add	r2, sp, #552
 1713 00ec 0133     		adds	r3, r3, #1
 1714              	.LVL196:
 1715 00ee 9342     		cmp	r3, r2
 1716 00f0 FAD1     		bne	.L113
 1717              	.LBE52:
 1718              	.LBE51:
 1719              	.LBE50:
 1720              	.LBE49:
 1721              		.loc 1 771 0
 1722 00f2 099B     		ldr	r3, [sp, #36]
 1723              	.LVL197:
 1724 00f4 002B     		cmp	r3, #0
 1725 00f6 40F05981 		bne	.L154
 1726              	.L114:
 1727              		.loc 1 778 0
 1728 00fa 0221     		movs	r1, #2
 1729 00fc 0D9A     		ldr	r2, [sp, #52]
 1730 00fe 0A9B     		ldr	r3, [sp, #40]
 1731 0100 28A8     		add	r0, sp, #160
 1732              	.LVL198:
 1733 0102 FFF7FEFF 		bl	gcm_init
 1734              	.LVL199:
 1735              		.loc 1 780 0
 1736 0106 0E9B     		ldr	r3, [sp, #56]
 1737 0108 0093     		str	r3, [sp]
 1738 010a 0F9B     		ldr	r3, [sp, #60]
 1739 010c 0193     		str	r3, [sp, #4]
 1740 010e 4FF0100A 		mov	r10, #16
 1741 0112 109B     		ldr	r3, [sp, #64]
 1742 0114 0293     		str	r3, [sp, #8]
 1743 0116 CDF80C80 		str	r8, [sp, #12]
 1744 011a 0497     		str	r7, [sp, #16]
 1745 011c CDF818B0 		str	fp, [sp, #24]
 1746 0120 CDF814A0 		str	r10, [sp, #20]
 1747 0124 28A8     		add	r0, sp, #160
 1748              	.LVL200:
 1749 0126 0021     		movs	r1, #0
 1750 0128 2246     		mov	r2, r4
 1751 012a 0C9B     		ldr	r3, [sp, #48]
 1752 012c FFF7FEFF 		bl	gcm_crypt_and_tag
 1753              	.LVL201:
 1754              		.loc 1 786 0
 1755 0130 0028     		cmp	r0, #0
 1756 0132 40F02181 		bne	.L110
 1757              		.loc 1 787 0 discriminator 1
 1758 0136 3846     		mov	r0, r7
 1759              	.LVL202:
 1760 0138 2946     		mov	r1, r5
ARM GAS  C:\Users\jo\AppData\Local\Temp\cca1lOZc.s 			page 32


 1761 013a 2246     		mov	r2, r4
 1762 013c FFF7FEFF 		bl	memcmp
 1763              	.LVL203:
 1764              		.loc 1 786 0 discriminator 1
 1765 0140 0028     		cmp	r0, #0
 1766 0142 40F01981 		bne	.L110
 1767              		.loc 1 788 0
 1768 0146 5246     		mov	r2, r10
 1769 0148 5846     		mov	r0, fp
 1770 014a 0899     		ldr	r1, [sp, #32]
 1771 014c FFF7FEFF 		bl	memcmp
 1772              	.LVL204:
 1773              		.loc 1 787 0
 1774 0150 8246     		mov	r10, r0
 1775 0152 0028     		cmp	r0, #0
 1776 0154 40F01081 		bne	.L110
 1777              	.LVL205:
 1778              	.LBB53:
 1779              	.LBB54:
 1780              		.loc 1 501 0
 1781 0158 28A8     		add	r0, sp, #160
 1782              	.LVL206:
 1783 015a FFF7FEFF 		bl	cipher_free
 1784              	.LVL207:
 1785              	.LBB55:
 1786              	.LBB56:
 1787              		.loc 1 83 0
 1788 015e 5046     		mov	r0, r10
 1789 0160 28AB     		add	r3, sp, #160
 1790              	.LVL208:
 1791              	.L115:
 1792 0162 1870     		strb	r0, [r3]
 1793              	.LVL209:
 1794 0164 8AAA     		add	r2, sp, #552
 1795 0166 0133     		adds	r3, r3, #1
 1796              	.LVL210:
 1797 0168 9342     		cmp	r3, r2
 1798 016a FAD1     		bne	.L115
 1799              	.LBE56:
 1800              	.LBE55:
 1801              	.LBE54:
 1802              	.LBE53:
 1803              		.loc 1 798 0
 1804 016c 099B     		ldr	r3, [sp, #36]
 1805              	.LVL211:
 1806 016e 002B     		cmp	r3, #0
 1807 0170 40F02681 		bne	.L155
 1808              	.L116:
 1809              		.loc 1 805 0
 1810 0174 0D9A     		ldr	r2, [sp, #52]
 1811 0176 0A9B     		ldr	r3, [sp, #40]
 1812 0178 0221     		movs	r1, #2
 1813 017a 28A8     		add	r0, sp, #160
 1814              	.LVL212:
 1815 017c FFF7FEFF 		bl	gcm_init
 1816              	.LVL213:
 1817              		.loc 1 807 0
ARM GAS  C:\Users\jo\AppData\Local\Temp\cca1lOZc.s 			page 33


 1818 0180 0F9B     		ldr	r3, [sp, #60]
 1819 0182 0093     		str	r3, [sp]
 1820 0184 109B     		ldr	r3, [sp, #64]
 1821 0186 0193     		str	r3, [sp, #4]
 1822 0188 0C9A     		ldr	r2, [sp, #48]
 1823 018a 0E9B     		ldr	r3, [sp, #56]
 1824 018c 28A8     		add	r0, sp, #160
 1825              	.LVL214:
 1826 018e 0121     		movs	r1, #1
 1827 0190 FFF7FEFF 		bl	gcm_starts
 1828              	.LVL215:
 1829              		.loc 1 810 0
 1830 0194 0028     		cmp	r0, #0
 1831 0196 40F0EF80 		bne	.L110
 1832              		.loc 1 818 0
 1833 019a 202C     		cmp	r4, #32
 1834 019c 40F2E380 		bls	.L117
 1835              	.LBB57:
 1836              		.loc 1 821 0
 1837 01a0 28A8     		add	r0, sp, #160
 1838              	.LVL216:
 1839 01a2 2021     		movs	r1, #32
 1840 01a4 2A46     		mov	r2, r5
 1841 01a6 3B46     		mov	r3, r7
 1842              		.loc 1 820 0
 1843 01a8 203C     		subs	r4, r4, #32
 1844              	.LVL217:
 1845              		.loc 1 821 0
 1846 01aa FFF7FEFF 		bl	gcm_update
 1847              	.LVL218:
 1848              		.loc 1 822 0
 1849 01ae 0028     		cmp	r0, #0
 1850 01b0 40F0E280 		bne	.L110
 1851              		.loc 1 830 0
 1852 01b4 2146     		mov	r1, r4
 1853 01b6 05F12002 		add	r2, r5, #32
 1854 01ba 28A8     		add	r0, sp, #160
 1855              	.LVL219:
 1856 01bc 20AB     		add	r3, sp, #128
 1857 01be FFF7FEFF 		bl	gcm_update
 1858              	.LVL220:
 1859              		.loc 1 832 0
 1860 01c2 0028     		cmp	r0, #0
 1861 01c4 40F0D880 		bne	.L110
 1862              	.LVL221:
 1863              	.L118:
 1864              	.LBE57:
 1865              		.loc 1 852 0
 1866 01c8 28A8     		add	r0, sp, #160
 1867              	.LVL222:
 1868 01ca 5946     		mov	r1, fp
 1869 01cc 1022     		movs	r2, #16
 1870 01ce FFF7FEFF 		bl	gcm_finish
 1871              	.LVL223:
 1872              		.loc 1 853 0
 1873 01d2 0028     		cmp	r0, #0
 1874 01d4 40F0D080 		bne	.L110
ARM GAS  C:\Users\jo\AppData\Local\Temp\cca1lOZc.s 			page 34


 1875              		.loc 1 854 0 discriminator 1
 1876 01d8 0B9B     		ldr	r3, [sp, #44]
 1877 01da 1C68     		ldr	r4, [r3]
 1878 01dc 3846     		mov	r0, r7
 1879              	.LVL224:
 1880 01de 2246     		mov	r2, r4
 1881 01e0 4146     		mov	r1, r8
 1882 01e2 FFF7FEFF 		bl	memcmp
 1883              	.LVL225:
 1884              		.loc 1 853 0 discriminator 1
 1885 01e6 0028     		cmp	r0, #0
 1886 01e8 40F0C680 		bne	.L110
 1887              		.loc 1 855 0
 1888 01ec 5846     		mov	r0, fp
 1889 01ee 0899     		ldr	r1, [sp, #32]
 1890 01f0 1022     		movs	r2, #16
 1891 01f2 FFF7FEFF 		bl	memcmp
 1892              	.LVL226:
 1893              		.loc 1 854 0
 1894 01f6 0546     		mov	r5, r0
 1895 01f8 0028     		cmp	r0, #0
 1896 01fa 40F0BD80 		bne	.L110
 1897              	.LVL227:
 1898              	.LBB58:
 1899              	.LBB59:
 1900              		.loc 1 501 0
 1901 01fe 28A8     		add	r0, sp, #160
 1902              	.LVL228:
 1903 0200 FFF7FEFF 		bl	cipher_free
 1904              	.LVL229:
 1905              	.LBB60:
 1906              	.LBB61:
 1907              		.loc 1 83 0
 1908 0204 2846     		mov	r0, r5
 1909 0206 28AB     		add	r3, sp, #160
 1910              	.LVL230:
 1911              	.L119:
 1912 0208 1870     		strb	r0, [r3]
 1913              	.LVL231:
 1914 020a 8AAA     		add	r2, sp, #552
 1915 020c 0133     		adds	r3, r3, #1
 1916              	.LVL232:
 1917 020e 9342     		cmp	r3, r2
 1918 0210 FAD1     		bne	.L119
 1919              	.LBE61:
 1920              	.LBE60:
 1921              	.LBE59:
 1922              	.LBE58:
 1923              		.loc 1 865 0
 1924 0212 099B     		ldr	r3, [sp, #36]
 1925              	.LVL233:
 1926 0214 002B     		cmp	r3, #0
 1927 0216 40F0DD80 		bne	.L156
 1928              	.L120:
 1929              		.loc 1 872 0
 1930 021a 364B     		ldr	r3, .L159+12
 1931 021c 53F80920 		ldr	r2, [r3, r9]
ARM GAS  C:\Users\jo\AppData\Local\Temp\cca1lOZc.s 			page 35


 1932 0220 354B     		ldr	r3, .L159+16
 1933 0222 0221     		movs	r1, #2
 1934 0224 03EB4212 		add	r2, r3, r2, lsl #5
 1935 0228 28A8     		add	r0, sp, #160
 1936              	.LVL234:
 1937 022a 0A9B     		ldr	r3, [sp, #40]
 1938 022c FFF7FEFF 		bl	gcm_init
 1939              	.LVL235:
 1940              		.loc 1 874 0
 1941 0230 3748     		ldr	r0, .L159+40
 1942              		.loc 1 876 0
 1943 0232 334B     		ldr	r3, .L159+24
 1944              		.loc 1 874 0
 1945 0234 50F80900 		ldr	r0, [r0, r9]
 1946              		.loc 1 876 0
 1947 0238 53F80910 		ldr	r1, [r3, r9]
 1948              		.loc 1 874 0
 1949 023c 0190     		str	r0, [sp, #4]
 1950              		.loc 1 876 0
 1951 023e 3548     		ldr	r0, .L159+44
 1952              		.loc 1 875 0
 1953 0240 2E4B     		ldr	r3, .L159+20
 1954              		.loc 1 876 0
 1955 0242 00EB8111 		add	r1, r0, r1, lsl #6
 1956              		.loc 1 875 0
 1957 0246 53F80920 		ldr	r2, [r3, r9]
 1958              		.loc 1 874 0
 1959 024a 0091     		str	r1, [sp]
 1960 024c 2E4B     		ldr	r3, .L159+32
 1961 024e 2F49     		ldr	r1, .L159+36
 1962 0250 53F80930 		ldr	r3, [r3, r9]
 1963 0254 01EB8212 		add	r2, r1, r2, lsl #6
 1964 0258 28A8     		add	r0, sp, #160
 1965              	.LVL236:
 1966 025a 0021     		movs	r1, #0
 1967 025c FFF7FEFF 		bl	gcm_starts
 1968              	.LVL237:
 1969              		.loc 1 877 0
 1970 0260 0028     		cmp	r0, #0
 1971 0262 40F08980 		bne	.L110
 1972              		.loc 1 885 0
 1973 0266 202C     		cmp	r4, #32
 1974 0268 40F28F80 		bls	.L121
 1975              	.LBB62:
 1976              		.loc 1 888 0
 1977 026c 28A8     		add	r0, sp, #160
 1978              	.LVL238:
 1979 026e 2021     		movs	r1, #32
 1980 0270 4246     		mov	r2, r8
 1981 0272 3B46     		mov	r3, r7
 1982              		.loc 1 887 0
 1983 0274 203C     		subs	r4, r4, #32
 1984              	.LVL239:
 1985              		.loc 1 888 0
 1986 0276 FFF7FEFF 		bl	gcm_update
 1987              	.LVL240:
 1988              		.loc 1 889 0
ARM GAS  C:\Users\jo\AppData\Local\Temp\cca1lOZc.s 			page 36


 1989 027a 0028     		cmp	r0, #0
 1990 027c 7CD1     		bne	.L110
 1991              		.loc 1 897 0
 1992 027e 2146     		mov	r1, r4
 1993 0280 28A8     		add	r0, sp, #160
 1994              	.LVL241:
 1995 0282 08F12002 		add	r2, r8, #32
 1996 0286 20AB     		add	r3, sp, #128
 1997 0288 FFF7FEFF 		bl	gcm_update
 1998              	.LVL242:
 1999              		.loc 1 899 0
 2000 028c 0028     		cmp	r0, #0
 2001 028e 73D1     		bne	.L110
 2002              	.LVL243:
 2003              	.L122:
 2004              	.LBE62:
 2005              		.loc 1 919 0
 2006 0290 28A8     		add	r0, sp, #160
 2007              	.LVL244:
 2008 0292 5946     		mov	r1, fp
 2009 0294 1022     		movs	r2, #16
 2010 0296 FFF7FEFF 		bl	gcm_finish
 2011              	.LVL245:
 2012              		.loc 1 920 0
 2013 029a 0028     		cmp	r0, #0
 2014 029c 6CD1     		bne	.L110
 2015              		.loc 1 921 0 discriminator 1
 2016 029e 194B     		ldr	r3, .L159+28
 2017 02a0 53F80910 		ldr	r1, [r3, r9]
 2018 02a4 0B9B     		ldr	r3, [sp, #44]
 2019 02a6 1A68     		ldr	r2, [r3]
 2020 02a8 1B4B     		ldr	r3, .L159+48
 2021 02aa 3846     		mov	r0, r7
 2022              	.LVL246:
 2023 02ac 03EB8111 		add	r1, r3, r1, lsl #6
 2024 02b0 FFF7FEFF 		bl	memcmp
 2025              	.LVL247:
 2026              		.loc 1 920 0 discriminator 1
 2027 02b4 0028     		cmp	r0, #0
 2028 02b6 5FD1     		bne	.L110
 2029              		.loc 1 922 0
 2030 02b8 5846     		mov	r0, fp
 2031 02ba 0899     		ldr	r1, [sp, #32]
 2032 02bc 1022     		movs	r2, #16
 2033 02be FFF7FEFF 		bl	memcmp
 2034              	.LVL248:
 2035              		.loc 1 921 0
 2036 02c2 0546     		mov	r5, r0
 2037 02c4 0028     		cmp	r0, #0
 2038 02c6 57D1     		bne	.L110
 2039              	.LVL249:
 2040              	.LBB63:
 2041              	.LBB64:
 2042              		.loc 1 501 0
 2043 02c8 28A8     		add	r0, sp, #160
 2044              	.LVL250:
 2045 02ca FFF7FEFF 		bl	cipher_free
ARM GAS  C:\Users\jo\AppData\Local\Temp\cca1lOZc.s 			page 37


 2046              	.LVL251:
 2047              	.LBB65:
 2048              	.LBB66:
 2049              		.loc 1 83 0
 2050 02ce 28AB     		add	r3, sp, #160
 2051              	.LVL252:
 2052 02d0 2A46     		mov	r2, r5
 2053              	.LVL253:
 2054              	.L123:
 2055 02d2 1A70     		strb	r2, [r3]
 2056              	.LVL254:
 2057 02d4 8AA9     		add	r1, sp, #552
 2058 02d6 0133     		adds	r3, r3, #1
 2059              	.LVL255:
 2060 02d8 8B42     		cmp	r3, r1
 2061 02da FAD1     		bne	.L123
 2062              	.LBE66:
 2063              	.LBE65:
 2064              	.LBE64:
 2065              	.LBE63:
 2066              		.loc 1 932 0
 2067 02dc 099B     		ldr	r3, [sp, #36]
 2068              	.LVL256:
 2069 02de 002B     		cmp	r3, #0
 2070 02e0 40F08280 		bne	.L157
 2071 02e4 1AE0     		b	.L160
 2072              	.L161:
 2073 02e6 00BF     		.align	2
 2074              	.L159:
 2075 02e8 00000000 		.word	.LANCHOR1
 2076 02ec 00000000 		.word	.LANCHOR2
 2077 02f0 00000000 		.word	.LANCHOR3
 2078 02f4 00000000 		.word	.LANCHOR5
 2079 02f8 00000000 		.word	.LANCHOR4
 2080 02fc 00000000 		.word	.LANCHOR7
 2081 0300 00000000 		.word	.LANCHOR10
 2082 0304 00000000 		.word	.LANCHOR13
 2083 0308 00000000 		.word	.LANCHOR8
 2084 030c 00000000 		.word	.LANCHOR6
 2085 0310 00000000 		.word	.LANCHOR11
 2086 0314 00000000 		.word	.LANCHOR9
 2087 0318 00000000 		.word	.LANCHOR12
 2088              	.L160:
 2089              	.L124:
 2090 031c 089B     		ldr	r3, [sp, #32]
 2091 031e 1033     		adds	r3, r3, #16
 2092 0320 0893     		str	r3, [sp, #32]
 2093 0322 0B9B     		ldr	r3, [sp, #44]
 2094              		.loc 1 745 0 discriminator 2
 2095 0324 0136     		adds	r6, r6, #1
 2096              	.LVL257:
 2097 0326 0433     		adds	r3, r3, #4
 2098 0328 062E     		cmp	r6, #6
 2099 032a 0B93     		str	r3, [sp, #44]
 2100 032c 08F14008 		add	r8, r8, #64
 2101 0330 7FF47DAE 		bne	.L125
 2102 0334 129B     		ldr	r3, [sp, #72]
ARM GAS  C:\Users\jo\AppData\Local\Temp\cca1lOZc.s 			page 38


 2103 0336 DDF828A0 		ldr	r10, [sp, #40]
 2104 033a 6033     		adds	r3, r3, #96
 2105 033c 1293     		str	r3, [sp, #72]
 2106 033e 139B     		ldr	r3, [sp, #76]
 2107 0340 0AF1400A 		add	r10, r10, #64
 2108 0344 03F5C073 		add	r3, r3, #384
 2109              	.LBE48:
 2110              		.loc 1 741 0 discriminator 2
 2111 0348 BAF5A07F 		cmp	r10, #320
 2112 034c 1393     		str	r3, [sp, #76]
 2113 034e 7FF465AE 		bne	.L126
 2114              		.loc 1 938 0
 2115 0352 099B     		ldr	r3, [sp, #36]
 2116 0354 A3B1     		cbz	r3, .L112
 2117              		.loc 1 939 0
 2118 0356 0A20     		movs	r0, #10
 2119 0358 FFF7FEFF 		bl	putchar
 2120              	.LVL258:
 2121              		.loc 1 942 0
 2122 035c 2846     		mov	r0, r5
 2123 035e 0DF50B7D 		add	sp, sp, #556
 2124              		.cfi_remember_state
 2125              		.cfi_def_cfa_offset 36
 2126              		@ sp needed
 2127 0362 BDE8F08F 		pop	{r4, r5, r6, r7, r8, r9, r10, fp, pc}
 2128              	.LVL259:
 2129              	.L117:
 2130              		.cfi_restore_state
 2131              	.LBB67:
 2132              		.loc 1 842 0
 2133 0366 2146     		mov	r1, r4
 2134 0368 2A46     		mov	r2, r5
 2135 036a 28A8     		add	r0, sp, #160
 2136              	.LVL260:
 2137 036c 3B46     		mov	r3, r7
 2138 036e FFF7FEFF 		bl	gcm_update
 2139              	.LVL261:
 2140              		.loc 1 843 0
 2141 0372 0028     		cmp	r0, #0
 2142 0374 3FF428AF 		beq	.L118
 2143              	.LVL262:
 2144              	.L110:
 2145              		.loc 1 763 0
 2146 0378 099B     		ldr	r3, [sp, #36]
 2147              		.loc 1 766 0
 2148 037a 0125     		movs	r5, #1
 2149              		.loc 1 763 0
 2150 037c 002B     		cmp	r3, #0
 2151 037e 37D1     		bne	.L158
 2152              	.L112:
 2153              	.LBE67:
 2154              		.loc 1 942 0
 2155 0380 2846     		mov	r0, r5
 2156 0382 0DF50B7D 		add	sp, sp, #556
 2157              		.cfi_remember_state
 2158              		.cfi_def_cfa_offset 36
 2159              		@ sp needed
ARM GAS  C:\Users\jo\AppData\Local\Temp\cca1lOZc.s 			page 39


 2160 0386 BDE8F08F 		pop	{r4, r5, r6, r7, r8, r9, r10, fp, pc}
 2161              	.LVL263:
 2162              	.L121:
 2163              		.cfi_restore_state
 2164              	.LBB68:
 2165              		.loc 1 909 0
 2166 038a 2146     		mov	r1, r4
 2167 038c 28A8     		add	r0, sp, #160
 2168              	.LVL264:
 2169 038e 4246     		mov	r2, r8
 2170 0390 3B46     		mov	r3, r7
 2171 0392 FFF7FEFF 		bl	gcm_update
 2172              	.LVL265:
 2173              		.loc 1 910 0
 2174 0396 0028     		cmp	r0, #0
 2175 0398 3FF47AAF 		beq	.L122
 2176 039c ECE7     		b	.L110
 2177              	.LVL266:
 2178              	.L153:
 2179              		.loc 1 748 0
 2180 039e 194B     		ldr	r3, .L162
 2181 03a0 0A99     		ldr	r1, [sp, #40]
 2182 03a2 1948     		ldr	r0, .L162+4
 2183 03a4 3246     		mov	r2, r6
 2184 03a6 FFF7FEFF 		bl	printf
 2185              	.LVL267:
 2186 03aa 44E6     		b	.L109
 2187              	.LVL268:
 2188              	.L154:
 2189              		.loc 1 772 0
 2190 03ac 1748     		ldr	r0, .L162+8
 2191 03ae FFF7FEFF 		bl	puts
 2192              	.LVL269:
 2193              		.loc 1 775 0
 2194 03b2 174B     		ldr	r3, .L162+12
 2195 03b4 0A99     		ldr	r1, [sp, #40]
 2196 03b6 1448     		ldr	r0, .L162+4
 2197 03b8 3246     		mov	r2, r6
 2198 03ba FFF7FEFF 		bl	printf
 2199              	.LVL270:
 2200 03be 9CE6     		b	.L114
 2201              	.LVL271:
 2202              	.L155:
 2203              		.loc 1 799 0
 2204 03c0 1248     		ldr	r0, .L162+8
 2205 03c2 FFF7FEFF 		bl	puts
 2206              	.LVL272:
 2207              		.loc 1 802 0
 2208 03c6 0F4B     		ldr	r3, .L162
 2209 03c8 0A99     		ldr	r1, [sp, #40]
 2210 03ca 1248     		ldr	r0, .L162+16
 2211 03cc 3246     		mov	r2, r6
 2212 03ce FFF7FEFF 		bl	printf
 2213              	.LVL273:
 2214 03d2 CFE6     		b	.L116
 2215              	.LVL274:
 2216              	.L156:
ARM GAS  C:\Users\jo\AppData\Local\Temp\cca1lOZc.s 			page 40


 2217              		.loc 1 866 0
 2218 03d4 0D48     		ldr	r0, .L162+8
 2219 03d6 FFF7FEFF 		bl	puts
 2220              	.LVL275:
 2221              		.loc 1 869 0
 2222 03da 0D4B     		ldr	r3, .L162+12
 2223 03dc 0A99     		ldr	r1, [sp, #40]
 2224 03de 0D48     		ldr	r0, .L162+16
 2225 03e0 3246     		mov	r2, r6
 2226 03e2 FFF7FEFF 		bl	printf
 2227              	.LVL276:
 2228 03e6 18E7     		b	.L120
 2229              	.LVL277:
 2230              	.L157:
 2231              		.loc 1 933 0
 2232 03e8 0848     		ldr	r0, .L162+8
 2233 03ea FFF7FEFF 		bl	puts
 2234              	.LVL278:
 2235 03ee 95E7     		b	.L124
 2236              	.LVL279:
 2237              	.L158:
 2238              		.loc 1 764 0
 2239 03f0 0948     		ldr	r0, .L162+20
 2240 03f2 FFF7FEFF 		bl	puts
 2241              	.LVL280:
 2242              		.loc 1 766 0
 2243 03f6 0125     		movs	r5, #1
 2244              	.LBE68:
 2245              		.loc 1 942 0
 2246 03f8 2846     		mov	r0, r5
 2247 03fa 0DF50B7D 		add	sp, sp, #556
 2248              		.cfi_def_cfa_offset 36
 2249              		@ sp needed
 2250 03fe BDE8F08F 		pop	{r4, r5, r6, r7, r8, r9, r10, fp, pc}
 2251              	.LVL281:
 2252              	.L163:
 2253 0402 00BF     		.align	2
 2254              	.L162:
 2255 0404 1C000000 		.word	.LC1
 2256 0408 00000000 		.word	.LC0
 2257 040c 28000000 		.word	.LC3
 2258 0410 30000000 		.word	.LC4
 2259 0414 34000000 		.word	.LC5
 2260 0418 20000000 		.word	.LC2
 2261              		.cfi_endproc
 2262              	.LFE17:
 2263              		.size	gcm_self_test, .-gcm_self_test
 2264 041c AFF30080 		.section	.rodata.last4,"a",%progbits
 2265              		.align	3
 2266              		.set	.LANCHOR0,. + 0
 2267              		.type	last4, %object
 2268              		.size	last4, 128
 2269              	last4:
 2270 0000 00000000 		.word	0
 2271 0004 00000000 		.word	0
 2272 0008 201C0000 		.word	7200
 2273 000c 00000000 		.word	0
ARM GAS  C:\Users\jo\AppData\Local\Temp\cca1lOZc.s 			page 41


 2274 0010 40380000 		.word	14400
 2275 0014 00000000 		.word	0
 2276 0018 60240000 		.word	9312
 2277 001c 00000000 		.word	0
 2278 0020 80700000 		.word	28800
 2279 0024 00000000 		.word	0
 2280 0028 A06C0000 		.word	27808
 2281 002c 00000000 		.word	0
 2282 0030 C0480000 		.word	18624
 2283 0034 00000000 		.word	0
 2284 0038 E0540000 		.word	21728
 2285 003c 00000000 		.word	0
 2286 0040 00E10000 		.word	57600
 2287 0044 00000000 		.word	0
 2288 0048 20FD0000 		.word	64800
 2289 004c 00000000 		.word	0
 2290 0050 40D90000 		.word	55616
 2291 0054 00000000 		.word	0
 2292 0058 60C50000 		.word	50528
 2293 005c 00000000 		.word	0
 2294 0060 80910000 		.word	37248
 2295 0064 00000000 		.word	0
 2296 0068 A08D0000 		.word	36256
 2297 006c 00000000 		.word	0
 2298 0070 C0A90000 		.word	43456
 2299 0074 00000000 		.word	0
 2300 0078 E0B50000 		.word	46560
 2301 007c 00000000 		.word	0
 2302              		.section	.rodata.add_index,"a",%progbits
 2303              		.align	2
 2304              		.set	.LANCHOR10,. + 0
 2305              		.type	add_index, %object
 2306              		.size	add_index, 24
 2307              	add_index:
 2308 0000 00000000 		.word	0
 2309 0004 00000000 		.word	0
 2310 0008 00000000 		.word	0
 2311 000c 01000000 		.word	1
 2312 0010 01000000 		.word	1
 2313 0014 01000000 		.word	1
 2314              		.section	.rodata.additional,"a",%progbits
 2315              		.align	2
 2316              		.set	.LANCHOR9,. + 0
 2317              		.type	additional, %object
 2318              		.size	additional, 384
 2319              	additional:
 2320 0000 00       		.byte	0
 2321 0001 00000000 		.space	63
 2321      00000000 
 2321      00000000 
 2321      00000000 
 2321      00000000 
 2322 0040 FE       		.byte	-2
 2323 0041 ED       		.byte	-19
 2324 0042 FA       		.byte	-6
 2325 0043 CE       		.byte	-50
 2326 0044 DE       		.byte	-34
ARM GAS  C:\Users\jo\AppData\Local\Temp\cca1lOZc.s 			page 42


 2327 0045 AD       		.byte	-83
 2328 0046 BE       		.byte	-66
 2329 0047 EF       		.byte	-17
 2330 0048 FE       		.byte	-2
 2331 0049 ED       		.byte	-19
 2332 004a FA       		.byte	-6
 2333 004b CE       		.byte	-50
 2334 004c DE       		.byte	-34
 2335 004d AD       		.byte	-83
 2336 004e BE       		.byte	-66
 2337 004f EF       		.byte	-17
 2338 0050 AB       		.byte	-85
 2339 0051 AD       		.byte	-83
 2340 0052 DA       		.byte	-38
 2341 0053 D2       		.byte	-46
 2342 0054 00000000 		.space	44
 2342      00000000 
 2342      00000000 
 2342      00000000 
 2342      00000000 
 2343 0080 00000000 		.space	256
 2343      00000000 
 2343      00000000 
 2343      00000000 
 2343      00000000 
 2344              		.section	.rodata.add_len,"a",%progbits
 2345              		.align	2
 2346              		.set	.LANCHOR11,. + 0
 2347              		.type	add_len, %object
 2348              		.size	add_len, 24
 2349              	add_len:
 2350 0000 00000000 		.word	0
 2351 0004 00000000 		.word	0
 2352 0008 00000000 		.word	0
 2353 000c 14000000 		.word	20
 2354 0010 14000000 		.word	20
 2355 0014 14000000 		.word	20
 2356              		.section	.rodata.str1.4,"aMS",%progbits,1
 2357              		.align	2
 2358              	.LC0:
 2359 0000 20204145 		.ascii	"  AES-GCM-%3d #%d (%s): \000"
 2359      532D4743 
 2359      4D2D2533 
 2359      64202325 
 2359      64202825 
 2360 0019 000000   		.space	3
 2361              	.LC1:
 2362 001c 656E6300 		.ascii	"enc\000"
 2363              	.LC2:
 2364 0020 6661696C 		.ascii	"failed\000"
 2364      656400
 2365 0027 00       		.space	1
 2366              	.LC3:
 2367 0028 70617373 		.ascii	"passed\000"
 2367      656400
 2368 002f 00       		.space	1
 2369              	.LC4:
ARM GAS  C:\Users\jo\AppData\Local\Temp\cca1lOZc.s 			page 43


 2370 0030 64656300 		.ascii	"dec\000"
 2371              	.LC5:
 2372 0034 20204145 		.ascii	"  AES-GCM-%3d #%d split (%s): \000"
 2372      532D4743 
 2372      4D2D2533 
 2372      64202325 
 2372      64207370 
 2373 0053 00       		.section	.rodata.iv_index,"a",%progbits
 2374              		.align	2
 2375              		.set	.LANCHOR7,. + 0
 2376              		.type	iv_index, %object
 2377              		.size	iv_index, 24
 2378              	iv_index:
 2379 0000 00000000 		.word	0
 2380 0004 00000000 		.word	0
 2381 0008 01000000 		.word	1
 2382 000c 01000000 		.word	1
 2383 0010 01000000 		.word	1
 2384 0014 02000000 		.word	2
 2385              		.section	.rodata.ct,"a",%progbits
 2386              		.align	2
 2387              		.set	.LANCHOR2,. + 0
 2388              		.type	ct, %object
 2389              		.size	ct, 1152
 2390              	ct:
 2391 0000 00       		.byte	0
 2392 0001 00000000 		.space	63
 2392      00000000 
 2392      00000000 
 2392      00000000 
 2392      00000000 
 2393 0040 03       		.byte	3
 2394 0041 88       		.byte	-120
 2395 0042 DA       		.byte	-38
 2396 0043 CE       		.byte	-50
 2397 0044 60       		.byte	96
 2398 0045 B6       		.byte	-74
 2399 0046 A3       		.byte	-93
 2400 0047 92       		.byte	-110
 2401 0048 F3       		.byte	-13
 2402 0049 28       		.byte	40
 2403 004a C2       		.byte	-62
 2404 004b B9       		.byte	-71
 2405 004c 71       		.byte	113
 2406 004d B2       		.byte	-78
 2407 004e FE       		.byte	-2
 2408 004f 78       		.byte	120
 2409 0050 00000000 		.space	48
 2409      00000000 
 2409      00000000 
 2409      00000000 
 2409      00000000 
 2410 0080 42       		.byte	66
 2411 0081 83       		.byte	-125
 2412 0082 1E       		.byte	30
 2413 0083 C2       		.byte	-62
 2414 0084 21       		.byte	33
ARM GAS  C:\Users\jo\AppData\Local\Temp\cca1lOZc.s 			page 44


 2415 0085 77       		.byte	119
 2416 0086 74       		.byte	116
 2417 0087 24       		.byte	36
 2418 0088 4B       		.byte	75
 2419 0089 72       		.byte	114
 2420 008a 21       		.byte	33
 2421 008b B7       		.byte	-73
 2422 008c 84       		.byte	-124
 2423 008d D0       		.byte	-48
 2424 008e D4       		.byte	-44
 2425 008f 9C       		.byte	-100
 2426 0090 E3       		.byte	-29
 2427 0091 AA       		.byte	-86
 2428 0092 21       		.byte	33
 2429 0093 2F       		.byte	47
 2430 0094 2C       		.byte	44
 2431 0095 02       		.byte	2
 2432 0096 A4       		.byte	-92
 2433 0097 E0       		.byte	-32
 2434 0098 35       		.byte	53
 2435 0099 C1       		.byte	-63
 2436 009a 7E       		.byte	126
 2437 009b 23       		.byte	35
 2438 009c 29       		.byte	41
 2439 009d AC       		.byte	-84
 2440 009e A1       		.byte	-95
 2441 009f 2E       		.byte	46
 2442 00a0 21       		.byte	33
 2443 00a1 D5       		.byte	-43
 2444 00a2 14       		.byte	20
 2445 00a3 B2       		.byte	-78
 2446 00a4 54       		.byte	84
 2447 00a5 66       		.byte	102
 2448 00a6 93       		.byte	-109
 2449 00a7 1C       		.byte	28
 2450 00a8 7D       		.byte	125
 2451 00a9 8F       		.byte	-113
 2452 00aa 6A       		.byte	106
 2453 00ab 5A       		.byte	90
 2454 00ac AC       		.byte	-84
 2455 00ad 84       		.byte	-124
 2456 00ae AA       		.byte	-86
 2457 00af 05       		.byte	5
 2458 00b0 1B       		.byte	27
 2459 00b1 A3       		.byte	-93
 2460 00b2 0B       		.byte	11
 2461 00b3 39       		.byte	57
 2462 00b4 6A       		.byte	106
 2463 00b5 0A       		.byte	10
 2464 00b6 AC       		.byte	-84
 2465 00b7 97       		.byte	-105
 2466 00b8 3D       		.byte	61
 2467 00b9 58       		.byte	88
 2468 00ba E0       		.byte	-32
 2469 00bb 91       		.byte	-111
 2470 00bc 47       		.byte	71
 2471 00bd 3F       		.byte	63
ARM GAS  C:\Users\jo\AppData\Local\Temp\cca1lOZc.s 			page 45


 2472 00be 59       		.byte	89
 2473 00bf 85       		.byte	-123
 2474 00c0 42       		.byte	66
 2475 00c1 83       		.byte	-125
 2476 00c2 1E       		.byte	30
 2477 00c3 C2       		.byte	-62
 2478 00c4 21       		.byte	33
 2479 00c5 77       		.byte	119
 2480 00c6 74       		.byte	116
 2481 00c7 24       		.byte	36
 2482 00c8 4B       		.byte	75
 2483 00c9 72       		.byte	114
 2484 00ca 21       		.byte	33
 2485 00cb B7       		.byte	-73
 2486 00cc 84       		.byte	-124
 2487 00cd D0       		.byte	-48
 2488 00ce D4       		.byte	-44
 2489 00cf 9C       		.byte	-100
 2490 00d0 E3       		.byte	-29
 2491 00d1 AA       		.byte	-86
 2492 00d2 21       		.byte	33
 2493 00d3 2F       		.byte	47
 2494 00d4 2C       		.byte	44
 2495 00d5 02       		.byte	2
 2496 00d6 A4       		.byte	-92
 2497 00d7 E0       		.byte	-32
 2498 00d8 35       		.byte	53
 2499 00d9 C1       		.byte	-63
 2500 00da 7E       		.byte	126
 2501 00db 23       		.byte	35
 2502 00dc 29       		.byte	41
 2503 00dd AC       		.byte	-84
 2504 00de A1       		.byte	-95
 2505 00df 2E       		.byte	46
 2506 00e0 21       		.byte	33
 2507 00e1 D5       		.byte	-43
 2508 00e2 14       		.byte	20
 2509 00e3 B2       		.byte	-78
 2510 00e4 54       		.byte	84
 2511 00e5 66       		.byte	102
 2512 00e6 93       		.byte	-109
 2513 00e7 1C       		.byte	28
 2514 00e8 7D       		.byte	125
 2515 00e9 8F       		.byte	-113
 2516 00ea 6A       		.byte	106
 2517 00eb 5A       		.byte	90
 2518 00ec AC       		.byte	-84
 2519 00ed 84       		.byte	-124
 2520 00ee AA       		.byte	-86
 2521 00ef 05       		.byte	5
 2522 00f0 1B       		.byte	27
 2523 00f1 A3       		.byte	-93
 2524 00f2 0B       		.byte	11
 2525 00f3 39       		.byte	57
 2526 00f4 6A       		.byte	106
 2527 00f5 0A       		.byte	10
 2528 00f6 AC       		.byte	-84
ARM GAS  C:\Users\jo\AppData\Local\Temp\cca1lOZc.s 			page 46


 2529 00f7 97       		.byte	-105
 2530 00f8 3D       		.byte	61
 2531 00f9 58       		.byte	88
 2532 00fa E0       		.byte	-32
 2533 00fb 91       		.byte	-111
 2534 00fc 00000000 		.space	4
 2535 0100 61       		.byte	97
 2536 0101 35       		.byte	53
 2537 0102 3B       		.byte	59
 2538 0103 4C       		.byte	76
 2539 0104 28       		.byte	40
 2540 0105 06       		.byte	6
 2541 0106 93       		.byte	-109
 2542 0107 4A       		.byte	74
 2543 0108 77       		.byte	119
 2544 0109 7F       		.byte	127
 2545 010a F5       		.byte	-11
 2546 010b 1F       		.byte	31
 2547 010c A2       		.byte	-94
 2548 010d 2A       		.byte	42
 2549 010e 47       		.byte	71
 2550 010f 55       		.byte	85
 2551 0110 69       		.byte	105
 2552 0111 9B       		.byte	-101
 2553 0112 2A       		.byte	42
 2554 0113 71       		.byte	113
 2555 0114 4F       		.byte	79
 2556 0115 CD       		.byte	-51
 2557 0116 C6       		.byte	-58
 2558 0117 F8       		.byte	-8
 2559 0118 37       		.byte	55
 2560 0119 66       		.byte	102
 2561 011a E5       		.byte	-27
 2562 011b F9       		.byte	-7
 2563 011c 7B       		.byte	123
 2564 011d 6C       		.byte	108
 2565 011e 74       		.byte	116
 2566 011f 23       		.byte	35
 2567 0120 73       		.byte	115
 2568 0121 80       		.byte	-128
 2569 0122 69       		.byte	105
 2570 0123 00       		.byte	0
 2571 0124 E4       		.byte	-28
 2572 0125 9F       		.byte	-97
 2573 0126 24       		.byte	36
 2574 0127 B2       		.byte	-78
 2575 0128 2B       		.byte	43
 2576 0129 09       		.byte	9
 2577 012a 75       		.byte	117
 2578 012b 44       		.byte	68
 2579 012c D4       		.byte	-44
 2580 012d 89       		.byte	-119
 2581 012e 6B       		.byte	107
 2582 012f 42       		.byte	66
 2583 0130 49       		.byte	73
 2584 0131 89       		.byte	-119
 2585 0132 B5       		.byte	-75
ARM GAS  C:\Users\jo\AppData\Local\Temp\cca1lOZc.s 			page 47


 2586 0133 E1       		.byte	-31
 2587 0134 EB       		.byte	-21
 2588 0135 AC       		.byte	-84
 2589 0136 0F       		.byte	15
 2590 0137 07       		.byte	7
 2591 0138 C2       		.byte	-62
 2592 0139 3F       		.byte	63
 2593 013a 45       		.byte	69
 2594 013b 98       		.byte	-104
 2595 013c 00000000 		.space	4
 2596 0140 8C       		.byte	-116
 2597 0141 E2       		.byte	-30
 2598 0142 49       		.byte	73
 2599 0143 98       		.byte	-104
 2600 0144 62       		.byte	98
 2601 0145 56       		.byte	86
 2602 0146 15       		.byte	21
 2603 0147 B6       		.byte	-74
 2604 0148 03       		.byte	3
 2605 0149 A0       		.byte	-96
 2606 014a 33       		.byte	51
 2607 014b AC       		.byte	-84
 2608 014c A1       		.byte	-95
 2609 014d 3F       		.byte	63
 2610 014e B8       		.byte	-72
 2611 014f 94       		.byte	-108
 2612 0150 BE       		.byte	-66
 2613 0151 91       		.byte	-111
 2614 0152 12       		.byte	18
 2615 0153 A5       		.byte	-91
 2616 0154 C3       		.byte	-61
 2617 0155 A2       		.byte	-94
 2618 0156 11       		.byte	17
 2619 0157 A8       		.byte	-88
 2620 0158 BA       		.byte	-70
 2621 0159 26       		.byte	38
 2622 015a 2A       		.byte	42
 2623 015b 3C       		.byte	60
 2624 015c CA       		.byte	-54
 2625 015d 7E       		.byte	126
 2626 015e 2C       		.byte	44
 2627 015f A7       		.byte	-89
 2628 0160 01       		.byte	1
 2629 0161 E4       		.byte	-28
 2630 0162 A9       		.byte	-87
 2631 0163 A4       		.byte	-92
 2632 0164 FB       		.byte	-5
 2633 0165 A4       		.byte	-92
 2634 0166 3C       		.byte	60
 2635 0167 90       		.byte	-112
 2636 0168 CC       		.byte	-52
 2637 0169 DC       		.byte	-36
 2638 016a B2       		.byte	-78
 2639 016b 81       		.byte	-127
 2640 016c D4       		.byte	-44
 2641 016d 8C       		.byte	-116
 2642 016e 7C       		.byte	124
ARM GAS  C:\Users\jo\AppData\Local\Temp\cca1lOZc.s 			page 48


 2643 016f 6F       		.byte	111
 2644 0170 D6       		.byte	-42
 2645 0171 28       		.byte	40
 2646 0172 75       		.byte	117
 2647 0173 D2       		.byte	-46
 2648 0174 AC       		.byte	-84
 2649 0175 A4       		.byte	-92
 2650 0176 17       		.byte	23
 2651 0177 03       		.byte	3
 2652 0178 4C       		.byte	76
 2653 0179 34       		.byte	52
 2654 017a AE       		.byte	-82
 2655 017b E5       		.byte	-27
 2656 017c 00000000 		.space	4
 2657 0180 00       		.byte	0
 2658 0181 00000000 		.space	63
 2658      00000000 
 2658      00000000 
 2658      00000000 
 2658      00000000 
 2659 01c0 98       		.byte	-104
 2660 01c1 E7       		.byte	-25
 2661 01c2 24       		.byte	36
 2662 01c3 7C       		.byte	124
 2663 01c4 07       		.byte	7
 2664 01c5 F0       		.byte	-16
 2665 01c6 FE       		.byte	-2
 2666 01c7 41       		.byte	65
 2667 01c8 1C       		.byte	28
 2668 01c9 26       		.byte	38
 2669 01ca 7E       		.byte	126
 2670 01cb 43       		.byte	67
 2671 01cc 84       		.byte	-124
 2672 01cd B0       		.byte	-80
 2673 01ce F6       		.byte	-10
 2674 01cf 00       		.byte	0
 2675 01d0 00000000 		.space	48
 2675      00000000 
 2675      00000000 
 2675      00000000 
 2675      00000000 
 2676 0200 39       		.byte	57
 2677 0201 80       		.byte	-128
 2678 0202 CA       		.byte	-54
 2679 0203 0B       		.byte	11
 2680 0204 3C       		.byte	60
 2681 0205 00       		.byte	0
 2682 0206 E8       		.byte	-24
 2683 0207 41       		.byte	65
 2684 0208 EB       		.byte	-21
 2685 0209 06       		.byte	6
 2686 020a FA       		.byte	-6
 2687 020b C4       		.byte	-60
 2688 020c 87       		.byte	-121
 2689 020d 2A       		.byte	42
 2690 020e 27       		.byte	39
 2691 020f 57       		.byte	87
ARM GAS  C:\Users\jo\AppData\Local\Temp\cca1lOZc.s 			page 49


 2692 0210 85       		.byte	-123
 2693 0211 9E       		.byte	-98
 2694 0212 1C       		.byte	28
 2695 0213 EA       		.byte	-22
 2696 0214 A6       		.byte	-90
 2697 0215 EF       		.byte	-17
 2698 0216 D9       		.byte	-39
 2699 0217 84       		.byte	-124
 2700 0218 62       		.byte	98
 2701 0219 85       		.byte	-123
 2702 021a 93       		.byte	-109
 2703 021b B4       		.byte	-76
 2704 021c 0C       		.byte	12
 2705 021d A1       		.byte	-95
 2706 021e E1       		.byte	-31
 2707 021f 9C       		.byte	-100
 2708 0220 7D       		.byte	125
 2709 0221 77       		.byte	119
 2710 0222 3D       		.byte	61
 2711 0223 00       		.byte	0
 2712 0224 C1       		.byte	-63
 2713 0225 44       		.byte	68
 2714 0226 C5       		.byte	-59
 2715 0227 25       		.byte	37
 2716 0228 AC       		.byte	-84
 2717 0229 61       		.byte	97
 2718 022a 9D       		.byte	-99
 2719 022b 18       		.byte	24
 2720 022c C8       		.byte	-56
 2721 022d 4A       		.byte	74
 2722 022e 3F       		.byte	63
 2723 022f 47       		.byte	71
 2724 0230 18       		.byte	24
 2725 0231 E2       		.byte	-30
 2726 0232 44       		.byte	68
 2727 0233 8B       		.byte	-117
 2728 0234 2F       		.byte	47
 2729 0235 E3       		.byte	-29
 2730 0236 24       		.byte	36
 2731 0237 D9       		.byte	-39
 2732 0238 CC       		.byte	-52
 2733 0239 DA       		.byte	-38
 2734 023a 27       		.byte	39
 2735 023b 10       		.byte	16
 2736 023c AC       		.byte	-84
 2737 023d AD       		.byte	-83
 2738 023e E2       		.byte	-30
 2739 023f 56       		.byte	86
 2740 0240 39       		.byte	57
 2741 0241 80       		.byte	-128
 2742 0242 CA       		.byte	-54
 2743 0243 0B       		.byte	11
 2744 0244 3C       		.byte	60
 2745 0245 00       		.byte	0
 2746 0246 E8       		.byte	-24
 2747 0247 41       		.byte	65
 2748 0248 EB       		.byte	-21
ARM GAS  C:\Users\jo\AppData\Local\Temp\cca1lOZc.s 			page 50


 2749 0249 06       		.byte	6
 2750 024a FA       		.byte	-6
 2751 024b C4       		.byte	-60
 2752 024c 87       		.byte	-121
 2753 024d 2A       		.byte	42
 2754 024e 27       		.byte	39
 2755 024f 57       		.byte	87
 2756 0250 85       		.byte	-123
 2757 0251 9E       		.byte	-98
 2758 0252 1C       		.byte	28
 2759 0253 EA       		.byte	-22
 2760 0254 A6       		.byte	-90
 2761 0255 EF       		.byte	-17
 2762 0256 D9       		.byte	-39
 2763 0257 84       		.byte	-124
 2764 0258 62       		.byte	98
 2765 0259 85       		.byte	-123
 2766 025a 93       		.byte	-109
 2767 025b B4       		.byte	-76
 2768 025c 0C       		.byte	12
 2769 025d A1       		.byte	-95
 2770 025e E1       		.byte	-31
 2771 025f 9C       		.byte	-100
 2772 0260 7D       		.byte	125
 2773 0261 77       		.byte	119
 2774 0262 3D       		.byte	61
 2775 0263 00       		.byte	0
 2776 0264 C1       		.byte	-63
 2777 0265 44       		.byte	68
 2778 0266 C5       		.byte	-59
 2779 0267 25       		.byte	37
 2780 0268 AC       		.byte	-84
 2781 0269 61       		.byte	97
 2782 026a 9D       		.byte	-99
 2783 026b 18       		.byte	24
 2784 026c C8       		.byte	-56
 2785 026d 4A       		.byte	74
 2786 026e 3F       		.byte	63
 2787 026f 47       		.byte	71
 2788 0270 18       		.byte	24
 2789 0271 E2       		.byte	-30
 2790 0272 44       		.byte	68
 2791 0273 8B       		.byte	-117
 2792 0274 2F       		.byte	47
 2793 0275 E3       		.byte	-29
 2794 0276 24       		.byte	36
 2795 0277 D9       		.byte	-39
 2796 0278 CC       		.byte	-52
 2797 0279 DA       		.byte	-38
 2798 027a 27       		.byte	39
 2799 027b 10       		.byte	16
 2800 027c 00000000 		.space	4
 2801 0280 0F       		.byte	15
 2802 0281 10       		.byte	16
 2803 0282 F5       		.byte	-11
 2804 0283 99       		.byte	-103
 2805 0284 AE       		.byte	-82
ARM GAS  C:\Users\jo\AppData\Local\Temp\cca1lOZc.s 			page 51


 2806 0285 14       		.byte	20
 2807 0286 A1       		.byte	-95
 2808 0287 54       		.byte	84
 2809 0288 ED       		.byte	-19
 2810 0289 24       		.byte	36
 2811 028a B3       		.byte	-77
 2812 028b 6E       		.byte	110
 2813 028c 25       		.byte	37
 2814 028d 32       		.byte	50
 2815 028e 4D       		.byte	77
 2816 028f B8       		.byte	-72
 2817 0290 C5       		.byte	-59
 2818 0291 66       		.byte	102
 2819 0292 63       		.byte	99
 2820 0293 2E       		.byte	46
 2821 0294 F2       		.byte	-14
 2822 0295 BB       		.byte	-69
 2823 0296 B3       		.byte	-77
 2824 0297 4F       		.byte	79
 2825 0298 83       		.byte	-125
 2826 0299 47       		.byte	71
 2827 029a 28       		.byte	40
 2828 029b 0F       		.byte	15
 2829 029c C4       		.byte	-60
 2830 029d 50       		.byte	80
 2831 029e 70       		.byte	112
 2832 029f 57       		.byte	87
 2833 02a0 FD       		.byte	-3
 2834 02a1 DC       		.byte	-36
 2835 02a2 29       		.byte	41
 2836 02a3 DF       		.byte	-33
 2837 02a4 9A       		.byte	-102
 2838 02a5 47       		.byte	71
 2839 02a6 1F       		.byte	31
 2840 02a7 75       		.byte	117
 2841 02a8 C6       		.byte	-58
 2842 02a9 65       		.byte	101
 2843 02aa 41       		.byte	65
 2844 02ab D4       		.byte	-44
 2845 02ac D4       		.byte	-44
 2846 02ad DA       		.byte	-38
 2847 02ae D1       		.byte	-47
 2848 02af C9       		.byte	-55
 2849 02b0 E9       		.byte	-23
 2850 02b1 3A       		.byte	58
 2851 02b2 19       		.byte	25
 2852 02b3 A5       		.byte	-91
 2853 02b4 8E       		.byte	-114
 2854 02b5 8B       		.byte	-117
 2855 02b6 47       		.byte	71
 2856 02b7 3F       		.byte	63
 2857 02b8 A0       		.byte	-96
 2858 02b9 F0       		.byte	-16
 2859 02ba 62       		.byte	98
 2860 02bb F7       		.byte	-9
 2861 02bc 00000000 		.space	4
 2862 02c0 D2       		.byte	-46
ARM GAS  C:\Users\jo\AppData\Local\Temp\cca1lOZc.s 			page 52


 2863 02c1 7E       		.byte	126
 2864 02c2 88       		.byte	-120
 2865 02c3 68       		.byte	104
 2866 02c4 1C       		.byte	28
 2867 02c5 E3       		.byte	-29
 2868 02c6 24       		.byte	36
 2869 02c7 3C       		.byte	60
 2870 02c8 48       		.byte	72
 2871 02c9 30       		.byte	48
 2872 02ca 16       		.byte	22
 2873 02cb 5A       		.byte	90
 2874 02cc 8F       		.byte	-113
 2875 02cd DC       		.byte	-36
 2876 02ce F9       		.byte	-7
 2877 02cf FF       		.byte	-1
 2878 02d0 1D       		.byte	29
 2879 02d1 E9       		.byte	-23
 2880 02d2 A1       		.byte	-95
 2881 02d3 D8       		.byte	-40
 2882 02d4 E6       		.byte	-26
 2883 02d5 B4       		.byte	-76
 2884 02d6 47       		.byte	71
 2885 02d7 EF       		.byte	-17
 2886 02d8 6E       		.byte	110
 2887 02d9 F7       		.byte	-9
 2888 02da B7       		.byte	-73
 2889 02db 98       		.byte	-104
 2890 02dc 28       		.byte	40
 2891 02dd 66       		.byte	102
 2892 02de 6E       		.byte	110
 2893 02df 45       		.byte	69
 2894 02e0 81       		.byte	-127
 2895 02e1 E7       		.byte	-25
 2896 02e2 90       		.byte	-112
 2897 02e3 12       		.byte	18
 2898 02e4 AF       		.byte	-81
 2899 02e5 34       		.byte	52
 2900 02e6 DD       		.byte	-35
 2901 02e7 D9       		.byte	-39
 2902 02e8 E2       		.byte	-30
 2903 02e9 F0       		.byte	-16
 2904 02ea 37       		.byte	55
 2905 02eb 58       		.byte	88
 2906 02ec 9B       		.byte	-101
 2907 02ed 29       		.byte	41
 2908 02ee 2D       		.byte	45
 2909 02ef B3       		.byte	-77
 2910 02f0 E6       		.byte	-26
 2911 02f1 7C       		.byte	124
 2912 02f2 03       		.byte	3
 2913 02f3 67       		.byte	103
 2914 02f4 45       		.byte	69
 2915 02f5 FA       		.byte	-6
 2916 02f6 22       		.byte	34
 2917 02f7 E7       		.byte	-25
 2918 02f8 E9       		.byte	-23
 2919 02f9 B7       		.byte	-73
ARM GAS  C:\Users\jo\AppData\Local\Temp\cca1lOZc.s 			page 53


 2920 02fa 37       		.byte	55
 2921 02fb 3B       		.byte	59
 2922 02fc 00000000 		.space	4
 2923 0300 00       		.byte	0
 2924 0301 00000000 		.space	63
 2924      00000000 
 2924      00000000 
 2924      00000000 
 2924      00000000 
 2925 0340 CE       		.byte	-50
 2926 0341 A7       		.byte	-89
 2927 0342 40       		.byte	64
 2928 0343 3D       		.byte	61
 2929 0344 4D       		.byte	77
 2930 0345 60       		.byte	96
 2931 0346 6B       		.byte	107
 2932 0347 6E       		.byte	110
 2933 0348 07       		.byte	7
 2934 0349 4E       		.byte	78
 2935 034a C5       		.byte	-59
 2936 034b D3       		.byte	-45
 2937 034c BA       		.byte	-70
 2938 034d F3       		.byte	-13
 2939 034e 9D       		.byte	-99
 2940 034f 18       		.byte	24
 2941 0350 00000000 		.space	48
 2941      00000000 
 2941      00000000 
 2941      00000000 
 2941      00000000 
 2942 0380 52       		.byte	82
 2943 0381 2D       		.byte	45
 2944 0382 C1       		.byte	-63
 2945 0383 F0       		.byte	-16
 2946 0384 99       		.byte	-103
 2947 0385 56       		.byte	86
 2948 0386 7D       		.byte	125
 2949 0387 07       		.byte	7
 2950 0388 F4       		.byte	-12
 2951 0389 7F       		.byte	127
 2952 038a 37       		.byte	55
 2953 038b A3       		.byte	-93
 2954 038c 2A       		.byte	42
 2955 038d 84       		.byte	-124
 2956 038e 42       		.byte	66
 2957 038f 7D       		.byte	125
 2958 0390 64       		.byte	100
 2959 0391 3A       		.byte	58
 2960 0392 8C       		.byte	-116
 2961 0393 DC       		.byte	-36
 2962 0394 BF       		.byte	-65
 2963 0395 E5       		.byte	-27
 2964 0396 C0       		.byte	-64
 2965 0397 C9       		.byte	-55
 2966 0398 75       		.byte	117
 2967 0399 98       		.byte	-104
 2968 039a A2       		.byte	-94
ARM GAS  C:\Users\jo\AppData\Local\Temp\cca1lOZc.s 			page 54


 2969 039b BD       		.byte	-67
 2970 039c 25       		.byte	37
 2971 039d 55       		.byte	85
 2972 039e D1       		.byte	-47
 2973 039f AA       		.byte	-86
 2974 03a0 8C       		.byte	-116
 2975 03a1 B0       		.byte	-80
 2976 03a2 8E       		.byte	-114
 2977 03a3 48       		.byte	72
 2978 03a4 59       		.byte	89
 2979 03a5 0D       		.byte	13
 2980 03a6 BB       		.byte	-69
 2981 03a7 3D       		.byte	61
 2982 03a8 A7       		.byte	-89
 2983 03a9 B0       		.byte	-80
 2984 03aa 8B       		.byte	-117
 2985 03ab 10       		.byte	16
 2986 03ac 56       		.byte	86
 2987 03ad 82       		.byte	-126
 2988 03ae 88       		.byte	-120
 2989 03af 38       		.byte	56
 2990 03b0 C5       		.byte	-59
 2991 03b1 F6       		.byte	-10
 2992 03b2 1E       		.byte	30
 2993 03b3 63       		.byte	99
 2994 03b4 93       		.byte	-109
 2995 03b5 BA       		.byte	-70
 2996 03b6 7A       		.byte	122
 2997 03b7 0A       		.byte	10
 2998 03b8 BC       		.byte	-68
 2999 03b9 C9       		.byte	-55
 3000 03ba F6       		.byte	-10
 3001 03bb 62       		.byte	98
 3002 03bc 89       		.byte	-119
 3003 03bd 80       		.byte	-128
 3004 03be 15       		.byte	21
 3005 03bf AD       		.byte	-83
 3006 03c0 52       		.byte	82
 3007 03c1 2D       		.byte	45
 3008 03c2 C1       		.byte	-63
 3009 03c3 F0       		.byte	-16
 3010 03c4 99       		.byte	-103
 3011 03c5 56       		.byte	86
 3012 03c6 7D       		.byte	125
 3013 03c7 07       		.byte	7
 3014 03c8 F4       		.byte	-12
 3015 03c9 7F       		.byte	127
 3016 03ca 37       		.byte	55
 3017 03cb A3       		.byte	-93
 3018 03cc 2A       		.byte	42
 3019 03cd 84       		.byte	-124
 3020 03ce 42       		.byte	66
 3021 03cf 7D       		.byte	125
 3022 03d0 64       		.byte	100
 3023 03d1 3A       		.byte	58
 3024 03d2 8C       		.byte	-116
 3025 03d3 DC       		.byte	-36
ARM GAS  C:\Users\jo\AppData\Local\Temp\cca1lOZc.s 			page 55


 3026 03d4 BF       		.byte	-65
 3027 03d5 E5       		.byte	-27
 3028 03d6 C0       		.byte	-64
 3029 03d7 C9       		.byte	-55
 3030 03d8 75       		.byte	117
 3031 03d9 98       		.byte	-104
 3032 03da A2       		.byte	-94
 3033 03db BD       		.byte	-67
 3034 03dc 25       		.byte	37
 3035 03dd 55       		.byte	85
 3036 03de D1       		.byte	-47
 3037 03df AA       		.byte	-86
 3038 03e0 8C       		.byte	-116
 3039 03e1 B0       		.byte	-80
 3040 03e2 8E       		.byte	-114
 3041 03e3 48       		.byte	72
 3042 03e4 59       		.byte	89
 3043 03e5 0D       		.byte	13
 3044 03e6 BB       		.byte	-69
 3045 03e7 3D       		.byte	61
 3046 03e8 A7       		.byte	-89
 3047 03e9 B0       		.byte	-80
 3048 03ea 8B       		.byte	-117
 3049 03eb 10       		.byte	16
 3050 03ec 56       		.byte	86
 3051 03ed 82       		.byte	-126
 3052 03ee 88       		.byte	-120
 3053 03ef 38       		.byte	56
 3054 03f0 C5       		.byte	-59
 3055 03f1 F6       		.byte	-10
 3056 03f2 1E       		.byte	30
 3057 03f3 63       		.byte	99
 3058 03f4 93       		.byte	-109
 3059 03f5 BA       		.byte	-70
 3060 03f6 7A       		.byte	122
 3061 03f7 0A       		.byte	10
 3062 03f8 BC       		.byte	-68
 3063 03f9 C9       		.byte	-55
 3064 03fa F6       		.byte	-10
 3065 03fb 62       		.byte	98
 3066 03fc 00000000 		.space	4
 3067 0400 C3       		.byte	-61
 3068 0401 76       		.byte	118
 3069 0402 2D       		.byte	45
 3070 0403 F1       		.byte	-15
 3071 0404 CA       		.byte	-54
 3072 0405 78       		.byte	120
 3073 0406 7D       		.byte	125
 3074 0407 32       		.byte	50
 3075 0408 AE       		.byte	-82
 3076 0409 47       		.byte	71
 3077 040a C1       		.byte	-63
 3078 040b 3B       		.byte	59
 3079 040c F1       		.byte	-15
 3080 040d 98       		.byte	-104
 3081 040e 44       		.byte	68
 3082 040f CB       		.byte	-53
ARM GAS  C:\Users\jo\AppData\Local\Temp\cca1lOZc.s 			page 56


 3083 0410 AF       		.byte	-81
 3084 0411 1A       		.byte	26
 3085 0412 E1       		.byte	-31
 3086 0413 4D       		.byte	77
 3087 0414 0B       		.byte	11
 3088 0415 97       		.byte	-105
 3089 0416 6A       		.byte	106
 3090 0417 FA       		.byte	-6
 3091 0418 C5       		.byte	-59
 3092 0419 2F       		.byte	47
 3093 041a F7       		.byte	-9
 3094 041b D7       		.byte	-41
 3095 041c 9B       		.byte	-101
 3096 041d BA       		.byte	-70
 3097 041e 9D       		.byte	-99
 3098 041f E0       		.byte	-32
 3099 0420 FE       		.byte	-2
 3100 0421 B5       		.byte	-75
 3101 0422 82       		.byte	-126
 3102 0423 D3       		.byte	-45
 3103 0424 39       		.byte	57
 3104 0425 34       		.byte	52
 3105 0426 A4       		.byte	-92
 3106 0427 F0       		.byte	-16
 3107 0428 95       		.byte	-107
 3108 0429 4C       		.byte	76
 3109 042a C2       		.byte	-62
 3110 042b 36       		.byte	54
 3111 042c 3B       		.byte	59
 3112 042d C7       		.byte	-57
 3113 042e 3F       		.byte	63
 3114 042f 78       		.byte	120
 3115 0430 62       		.byte	98
 3116 0431 AC       		.byte	-84
 3117 0432 43       		.byte	67
 3118 0433 0E       		.byte	14
 3119 0434 64       		.byte	100
 3120 0435 AB       		.byte	-85
 3121 0436 E4       		.byte	-28
 3122 0437 99       		.byte	-103
 3123 0438 F4       		.byte	-12
 3124 0439 7C       		.byte	124
 3125 043a 9B       		.byte	-101
 3126 043b 1F       		.byte	31
 3127 043c 00000000 		.space	4
 3128 0440 5A       		.byte	90
 3129 0441 8D       		.byte	-115
 3130 0442 EF       		.byte	-17
 3131 0443 2F       		.byte	47
 3132 0444 0C       		.byte	12
 3133 0445 9E       		.byte	-98
 3134 0446 53       		.byte	83
 3135 0447 F1       		.byte	-15
 3136 0448 F7       		.byte	-9
 3137 0449 5D       		.byte	93
 3138 044a 78       		.byte	120
 3139 044b 53       		.byte	83
ARM GAS  C:\Users\jo\AppData\Local\Temp\cca1lOZc.s 			page 57


 3140 044c 65       		.byte	101
 3141 044d 9E       		.byte	-98
 3142 044e 2A       		.byte	42
 3143 044f 20       		.byte	32
 3144 0450 EE       		.byte	-18
 3145 0451 B2       		.byte	-78
 3146 0452 B2       		.byte	-78
 3147 0453 2A       		.byte	42
 3148 0454 AF       		.byte	-81
 3149 0455 DE       		.byte	-34
 3150 0456 64       		.byte	100
 3151 0457 19       		.byte	25
 3152 0458 A0       		.byte	-96
 3153 0459 58       		.byte	88
 3154 045a AB       		.byte	-85
 3155 045b 4F       		.byte	79
 3156 045c 6F       		.byte	111
 3157 045d 74       		.byte	116
 3158 045e 6B       		.byte	107
 3159 045f F4       		.byte	-12
 3160 0460 0F       		.byte	15
 3161 0461 C0       		.byte	-64
 3162 0462 C3       		.byte	-61
 3163 0463 B7       		.byte	-73
 3164 0464 80       		.byte	-128
 3165 0465 F2       		.byte	-14
 3166 0466 44       		.byte	68
 3167 0467 45       		.byte	69
 3168 0468 2D       		.byte	45
 3169 0469 A3       		.byte	-93
 3170 046a EB       		.byte	-21
 3171 046b F1       		.byte	-15
 3172 046c C5       		.byte	-59
 3173 046d D8       		.byte	-40
 3174 046e 2C       		.byte	44
 3175 046f DE       		.byte	-34
 3176 0470 A2       		.byte	-94
 3177 0471 41       		.byte	65
 3178 0472 89       		.byte	-119
 3179 0473 97       		.byte	-105
 3180 0474 20       		.byte	32
 3181 0475 0E       		.byte	14
 3182 0476 F8       		.byte	-8
 3183 0477 2E       		.byte	46
 3184 0478 44       		.byte	68
 3185 0479 AE       		.byte	-82
 3186 047a 7E       		.byte	126
 3187 047b 3F       		.byte	63
 3188 047c 00000000 		.space	4
 3189              		.section	.rodata.key_index,"a",%progbits
 3190              		.align	2
 3191              		.set	.LANCHOR5,. + 0
 3192              		.type	key_index, %object
 3193              		.size	key_index, 24
 3194              	key_index:
 3195 0000 00000000 		.word	0
 3196 0004 00000000 		.word	0
ARM GAS  C:\Users\jo\AppData\Local\Temp\cca1lOZc.s 			page 58


 3197 0008 01000000 		.word	1
 3198 000c 01000000 		.word	1
 3199 0010 01000000 		.word	1
 3200 0014 01000000 		.word	1
 3201              		.section	.rodata.key,"a",%progbits
 3202              		.align	2
 3203              		.set	.LANCHOR4,. + 0
 3204              		.type	key, %object
 3205              		.size	key, 192
 3206              	key:
 3207 0000 00       		.byte	0
 3208 0001 00       		.byte	0
 3209 0002 00       		.byte	0
 3210 0003 00       		.byte	0
 3211 0004 00       		.byte	0
 3212 0005 00       		.byte	0
 3213 0006 00       		.byte	0
 3214 0007 00       		.byte	0
 3215 0008 00       		.byte	0
 3216 0009 00       		.byte	0
 3217 000a 00       		.byte	0
 3218 000b 00       		.byte	0
 3219 000c 00       		.byte	0
 3220 000d 00       		.byte	0
 3221 000e 00       		.byte	0
 3222 000f 00       		.byte	0
 3223 0010 00       		.byte	0
 3224 0011 00       		.byte	0
 3225 0012 00       		.byte	0
 3226 0013 00       		.byte	0
 3227 0014 00       		.byte	0
 3228 0015 00       		.byte	0
 3229 0016 00       		.byte	0
 3230 0017 00       		.byte	0
 3231 0018 00       		.byte	0
 3232 0019 00       		.byte	0
 3233 001a 00       		.byte	0
 3234 001b 00       		.byte	0
 3235 001c 00       		.byte	0
 3236 001d 00       		.byte	0
 3237 001e 00       		.byte	0
 3238 001f 00       		.byte	0
 3239 0020 FE       		.byte	-2
 3240 0021 FF       		.byte	-1
 3241 0022 E9       		.byte	-23
 3242 0023 92       		.byte	-110
 3243 0024 86       		.byte	-122
 3244 0025 65       		.byte	101
 3245 0026 73       		.byte	115
 3246 0027 1C       		.byte	28
 3247 0028 6D       		.byte	109
 3248 0029 6A       		.byte	106
 3249 002a 8F       		.byte	-113
 3250 002b 94       		.byte	-108
 3251 002c 67       		.byte	103
 3252 002d 30       		.byte	48
 3253 002e 83       		.byte	-125
ARM GAS  C:\Users\jo\AppData\Local\Temp\cca1lOZc.s 			page 59


 3254 002f 08       		.byte	8
 3255 0030 FE       		.byte	-2
 3256 0031 FF       		.byte	-1
 3257 0032 E9       		.byte	-23
 3258 0033 92       		.byte	-110
 3259 0034 86       		.byte	-122
 3260 0035 65       		.byte	101
 3261 0036 73       		.byte	115
 3262 0037 1C       		.byte	28
 3263 0038 6D       		.byte	109
 3264 0039 6A       		.byte	106
 3265 003a 8F       		.byte	-113
 3266 003b 94       		.byte	-108
 3267 003c 67       		.byte	103
 3268 003d 30       		.byte	48
 3269 003e 83       		.byte	-125
 3270 003f 08       		.byte	8
 3271 0040 00000000 		.space	128
 3271      00000000 
 3271      00000000 
 3271      00000000 
 3271      00000000 
 3272              		.section	.rodata.tag,"a",%progbits
 3273              		.align	2
 3274              		.set	.LANCHOR1,. + 0
 3275              		.type	tag, %object
 3276              		.size	tag, 288
 3277              	tag:
 3278 0000 58       		.byte	88
 3279 0001 E2       		.byte	-30
 3280 0002 FC       		.byte	-4
 3281 0003 CE       		.byte	-50
 3282 0004 FA       		.byte	-6
 3283 0005 7E       		.byte	126
 3284 0006 30       		.byte	48
 3285 0007 61       		.byte	97
 3286 0008 36       		.byte	54
 3287 0009 7F       		.byte	127
 3288 000a 1D       		.byte	29
 3289 000b 57       		.byte	87
 3290 000c A4       		.byte	-92
 3291 000d E7       		.byte	-25
 3292 000e 45       		.byte	69
 3293 000f 5A       		.byte	90
 3294 0010 AB       		.byte	-85
 3295 0011 6E       		.byte	110
 3296 0012 47       		.byte	71
 3297 0013 D4       		.byte	-44
 3298 0014 2C       		.byte	44
 3299 0015 EC       		.byte	-20
 3300 0016 13       		.byte	19
 3301 0017 BD       		.byte	-67
 3302 0018 F5       		.byte	-11
 3303 0019 3A       		.byte	58
 3304 001a 67       		.byte	103
 3305 001b B2       		.byte	-78
 3306 001c 12       		.byte	18
ARM GAS  C:\Users\jo\AppData\Local\Temp\cca1lOZc.s 			page 60


 3307 001d 57       		.byte	87
 3308 001e BD       		.byte	-67
 3309 001f DF       		.byte	-33
 3310 0020 4D       		.byte	77
 3311 0021 5C       		.byte	92
 3312 0022 2A       		.byte	42
 3313 0023 F3       		.byte	-13
 3314 0024 27       		.byte	39
 3315 0025 CD       		.byte	-51
 3316 0026 64       		.byte	100
 3317 0027 A6       		.byte	-90
 3318 0028 2C       		.byte	44
 3319 0029 F3       		.byte	-13
 3320 002a 5A       		.byte	90
 3321 002b BD       		.byte	-67
 3322 002c 2B       		.byte	43
 3323 002d A6       		.byte	-90
 3324 002e FA       		.byte	-6
 3325 002f B4       		.byte	-76
 3326 0030 5B       		.byte	91
 3327 0031 C9       		.byte	-55
 3328 0032 4F       		.byte	79
 3329 0033 BC       		.byte	-68
 3330 0034 32       		.byte	50
 3331 0035 21       		.byte	33
 3332 0036 A5       		.byte	-91
 3333 0037 DB       		.byte	-37
 3334 0038 94       		.byte	-108
 3335 0039 FA       		.byte	-6
 3336 003a E9       		.byte	-23
 3337 003b 5A       		.byte	90
 3338 003c E7       		.byte	-25
 3339 003d 12       		.byte	18
 3340 003e 1A       		.byte	26
 3341 003f 47       		.byte	71
 3342 0040 36       		.byte	54
 3343 0041 12       		.byte	18
 3344 0042 D2       		.byte	-46
 3345 0043 E7       		.byte	-25
 3346 0044 9E       		.byte	-98
 3347 0045 3B       		.byte	59
 3348 0046 07       		.byte	7
 3349 0047 85       		.byte	-123
 3350 0048 56       		.byte	86
 3351 0049 1B       		.byte	27
 3352 004a E1       		.byte	-31
 3353 004b 4A       		.byte	74
 3354 004c AC       		.byte	-84
 3355 004d A2       		.byte	-94
 3356 004e FC       		.byte	-4
 3357 004f CB       		.byte	-53
 3358 0050 61       		.byte	97
 3359 0051 9C       		.byte	-100
 3360 0052 C5       		.byte	-59
 3361 0053 AE       		.byte	-82
 3362 0054 FF       		.byte	-1
 3363 0055 FE       		.byte	-2
ARM GAS  C:\Users\jo\AppData\Local\Temp\cca1lOZc.s 			page 61


 3364 0056 0B       		.byte	11
 3365 0057 FA       		.byte	-6
 3366 0058 46       		.byte	70
 3367 0059 2A       		.byte	42
 3368 005a F4       		.byte	-12
 3369 005b 3C       		.byte	60
 3370 005c 16       		.byte	22
 3371 005d 99       		.byte	-103
 3372 005e D0       		.byte	-48
 3373 005f 50       		.byte	80
 3374 0060 CD       		.byte	-51
 3375 0061 33       		.byte	51
 3376 0062 B2       		.byte	-78
 3377 0063 8A       		.byte	-118
 3378 0064 C7       		.byte	-57
 3379 0065 73       		.byte	115
 3380 0066 F7       		.byte	-9
 3381 0067 4B       		.byte	75
 3382 0068 A0       		.byte	-96
 3383 0069 0E       		.byte	14
 3384 006a D1       		.byte	-47
 3385 006b F3       		.byte	-13
 3386 006c 12       		.byte	18
 3387 006d 57       		.byte	87
 3388 006e 24       		.byte	36
 3389 006f 35       		.byte	53
 3390 0070 2F       		.byte	47
 3391 0071 F5       		.byte	-11
 3392 0072 8D       		.byte	-115
 3393 0073 80       		.byte	-128
 3394 0074 03       		.byte	3
 3395 0075 39       		.byte	57
 3396 0076 27       		.byte	39
 3397 0077 AB       		.byte	-85
 3398 0078 8E       		.byte	-114
 3399 0079 F4       		.byte	-12
 3400 007a D4       		.byte	-44
 3401 007b 58       		.byte	88
 3402 007c 75       		.byte	117
 3403 007d 14       		.byte	20
 3404 007e F0       		.byte	-16
 3405 007f FB       		.byte	-5
 3406 0080 99       		.byte	-103
 3407 0081 24       		.byte	36
 3408 0082 A7       		.byte	-89
 3409 0083 C8       		.byte	-56
 3410 0084 58       		.byte	88
 3411 0085 73       		.byte	115
 3412 0086 36       		.byte	54
 3413 0087 BF       		.byte	-65
 3414 0088 B1       		.byte	-79
 3415 0089 18       		.byte	24
 3416 008a 02       		.byte	2
 3417 008b 4D       		.byte	77
 3418 008c B8       		.byte	-72
 3419 008d 67       		.byte	103
 3420 008e 4A       		.byte	74
ARM GAS  C:\Users\jo\AppData\Local\Temp\cca1lOZc.s 			page 62


 3421 008f 14       		.byte	20
 3422 0090 25       		.byte	37
 3423 0091 19       		.byte	25
 3424 0092 49       		.byte	73
 3425 0093 8E       		.byte	-114
 3426 0094 80       		.byte	-128
 3427 0095 F1       		.byte	-15
 3428 0096 47       		.byte	71
 3429 0097 8F       		.byte	-113
 3430 0098 37       		.byte	55
 3431 0099 BA       		.byte	-70
 3432 009a 55       		.byte	85
 3433 009b BD       		.byte	-67
 3434 009c 6D       		.byte	109
 3435 009d 27       		.byte	39
 3436 009e 61       		.byte	97
 3437 009f 8C       		.byte	-116
 3438 00a0 65       		.byte	101
 3439 00a1 DC       		.byte	-36
 3440 00a2 C5       		.byte	-59
 3441 00a3 7F       		.byte	127
 3442 00a4 CF       		.byte	-49
 3443 00a5 62       		.byte	98
 3444 00a6 3A       		.byte	58
 3445 00a7 24       		.byte	36
 3446 00a8 09       		.byte	9
 3447 00a9 4F       		.byte	79
 3448 00aa CC       		.byte	-52
 3449 00ab A4       		.byte	-92
 3450 00ac 0D       		.byte	13
 3451 00ad 35       		.byte	53
 3452 00ae 33       		.byte	51
 3453 00af F8       		.byte	-8
 3454 00b0 DC       		.byte	-36
 3455 00b1 F5       		.byte	-11
 3456 00b2 66       		.byte	102
 3457 00b3 FF       		.byte	-1
 3458 00b4 29       		.byte	41
 3459 00b5 1C       		.byte	28
 3460 00b6 25       		.byte	37
 3461 00b7 BB       		.byte	-69
 3462 00b8 B8       		.byte	-72
 3463 00b9 56       		.byte	86
 3464 00ba 8F       		.byte	-113
 3465 00bb C3       		.byte	-61
 3466 00bc D3       		.byte	-45
 3467 00bd 76       		.byte	118
 3468 00be A6       		.byte	-90
 3469 00bf D9       		.byte	-39
 3470 00c0 53       		.byte	83
 3471 00c1 0F       		.byte	15
 3472 00c2 8A       		.byte	-118
 3473 00c3 FB       		.byte	-5
 3474 00c4 C7       		.byte	-57
 3475 00c5 45       		.byte	69
 3476 00c6 36       		.byte	54
 3477 00c7 B9       		.byte	-71
ARM GAS  C:\Users\jo\AppData\Local\Temp\cca1lOZc.s 			page 63


 3478 00c8 A9       		.byte	-87
 3479 00c9 63       		.byte	99
 3480 00ca B4       		.byte	-76
 3481 00cb F1       		.byte	-15
 3482 00cc C4       		.byte	-60
 3483 00cd CB       		.byte	-53
 3484 00ce 73       		.byte	115
 3485 00cf 8B       		.byte	-117
 3486 00d0 D0       		.byte	-48
 3487 00d1 D1       		.byte	-47
 3488 00d2 C8       		.byte	-56
 3489 00d3 A7       		.byte	-89
 3490 00d4 99       		.byte	-103
 3491 00d5 99       		.byte	-103
 3492 00d6 6B       		.byte	107
 3493 00d7 F0       		.byte	-16
 3494 00d8 26       		.byte	38
 3495 00d9 5B       		.byte	91
 3496 00da 98       		.byte	-104
 3497 00db B5       		.byte	-75
 3498 00dc D4       		.byte	-44
 3499 00dd 8A       		.byte	-118
 3500 00de B9       		.byte	-71
 3501 00df 19       		.byte	25
 3502 00e0 B0       		.byte	-80
 3503 00e1 94       		.byte	-108
 3504 00e2 DA       		.byte	-38
 3505 00e3 C5       		.byte	-59
 3506 00e4 D9       		.byte	-39
 3507 00e5 34       		.byte	52
 3508 00e6 71       		.byte	113
 3509 00e7 BD       		.byte	-67
 3510 00e8 EC       		.byte	-20
 3511 00e9 1A       		.byte	26
 3512 00ea 50       		.byte	80
 3513 00eb 22       		.byte	34
 3514 00ec 70       		.byte	112
 3515 00ed E3       		.byte	-29
 3516 00ee CC       		.byte	-52
 3517 00ef 6C       		.byte	108
 3518 00f0 76       		.byte	118
 3519 00f1 FC       		.byte	-4
 3520 00f2 6E       		.byte	110
 3521 00f3 CE       		.byte	-50
 3522 00f4 0F       		.byte	15
 3523 00f5 4E       		.byte	78
 3524 00f6 17       		.byte	23
 3525 00f7 68       		.byte	104
 3526 00f8 CD       		.byte	-51
 3527 00f9 DF       		.byte	-33
 3528 00fa 88       		.byte	-120
 3529 00fb 53       		.byte	83
 3530 00fc BB       		.byte	-69
 3531 00fd 2D       		.byte	45
 3532 00fe 55       		.byte	85
 3533 00ff 1B       		.byte	27
 3534 0100 3A       		.byte	58
ARM GAS  C:\Users\jo\AppData\Local\Temp\cca1lOZc.s 			page 64


 3535 0101 33       		.byte	51
 3536 0102 7D       		.byte	125
 3537 0103 BF       		.byte	-65
 3538 0104 46       		.byte	70
 3539 0105 A7       		.byte	-89
 3540 0106 92       		.byte	-110
 3541 0107 C4       		.byte	-60
 3542 0108 5E       		.byte	94
 3543 0109 45       		.byte	69
 3544 010a 49       		.byte	73
 3545 010b 13       		.byte	19
 3546 010c FE       		.byte	-2
 3547 010d 2E       		.byte	46
 3548 010e A8       		.byte	-88
 3549 010f F2       		.byte	-14
 3550 0110 A4       		.byte	-92
 3551 0111 4A       		.byte	74
 3552 0112 82       		.byte	-126
 3553 0113 66       		.byte	102
 3554 0114 EE       		.byte	-18
 3555 0115 1C       		.byte	28
 3556 0116 8E       		.byte	-114
 3557 0117 B0       		.byte	-80
 3558 0118 C8       		.byte	-56
 3559 0119 B5       		.byte	-75
 3560 011a D4       		.byte	-44
 3561 011b CF       		.byte	-49
 3562 011c 5A       		.byte	90
 3563 011d E9       		.byte	-23
 3564 011e F1       		.byte	-15
 3565 011f 9A       		.byte	-102
 3566              		.section	.rodata.iv,"a",%progbits
 3567              		.align	2
 3568              		.set	.LANCHOR6,. + 0
 3569              		.type	iv, %object
 3570              		.size	iv, 384
 3571              	iv:
 3572 0000 00       		.byte	0
 3573 0001 00       		.byte	0
 3574 0002 00       		.byte	0
 3575 0003 00       		.byte	0
 3576 0004 00       		.byte	0
 3577 0005 00       		.byte	0
 3578 0006 00       		.byte	0
 3579 0007 00       		.byte	0
 3580 0008 00       		.byte	0
 3581 0009 00       		.byte	0
 3582 000a 00       		.byte	0
 3583 000b 00       		.byte	0
 3584 000c 00000000 		.space	52
 3584      00000000 
 3584      00000000 
 3584      00000000 
 3584      00000000 
 3585 0040 CA       		.byte	-54
 3586 0041 FE       		.byte	-2
 3587 0042 BA       		.byte	-70
ARM GAS  C:\Users\jo\AppData\Local\Temp\cca1lOZc.s 			page 65


 3588 0043 BE       		.byte	-66
 3589 0044 FA       		.byte	-6
 3590 0045 CE       		.byte	-50
 3591 0046 DB       		.byte	-37
 3592 0047 AD       		.byte	-83
 3593 0048 DE       		.byte	-34
 3594 0049 CA       		.byte	-54
 3595 004a F8       		.byte	-8
 3596 004b 88       		.byte	-120
 3597 004c 00000000 		.space	52
 3597      00000000 
 3597      00000000 
 3597      00000000 
 3597      00000000 
 3598 0080 93       		.byte	-109
 3599 0081 13       		.byte	19
 3600 0082 22       		.byte	34
 3601 0083 5D       		.byte	93
 3602 0084 F8       		.byte	-8
 3603 0085 84       		.byte	-124
 3604 0086 06       		.byte	6
 3605 0087 E5       		.byte	-27
 3606 0088 55       		.byte	85
 3607 0089 90       		.byte	-112
 3608 008a 9C       		.byte	-100
 3609 008b 5A       		.byte	90
 3610 008c FF       		.byte	-1
 3611 008d 52       		.byte	82
 3612 008e 69       		.byte	105
 3613 008f AA       		.byte	-86
 3614 0090 6A       		.byte	106
 3615 0091 7A       		.byte	122
 3616 0092 95       		.byte	-107
 3617 0093 38       		.byte	56
 3618 0094 53       		.byte	83
 3619 0095 4F       		.byte	79
 3620 0096 7D       		.byte	125
 3621 0097 A1       		.byte	-95
 3622 0098 E4       		.byte	-28
 3623 0099 C3       		.byte	-61
 3624 009a 03       		.byte	3
 3625 009b D2       		.byte	-46
 3626 009c A3       		.byte	-93
 3627 009d 18       		.byte	24
 3628 009e A7       		.byte	-89
 3629 009f 28       		.byte	40
 3630 00a0 C3       		.byte	-61
 3631 00a1 C0       		.byte	-64
 3632 00a2 C9       		.byte	-55
 3633 00a3 51       		.byte	81
 3634 00a4 56       		.byte	86
 3635 00a5 80       		.byte	-128
 3636 00a6 95       		.byte	-107
 3637 00a7 39       		.byte	57
 3638 00a8 FC       		.byte	-4
 3639 00a9 F0       		.byte	-16
 3640 00aa E2       		.byte	-30
ARM GAS  C:\Users\jo\AppData\Local\Temp\cca1lOZc.s 			page 66


 3641 00ab 42       		.byte	66
 3642 00ac 9A       		.byte	-102
 3643 00ad 6B       		.byte	107
 3644 00ae 52       		.byte	82
 3645 00af 54       		.byte	84
 3646 00b0 16       		.byte	22
 3647 00b1 AE       		.byte	-82
 3648 00b2 DB       		.byte	-37
 3649 00b3 F5       		.byte	-11
 3650 00b4 A0       		.byte	-96
 3651 00b5 DE       		.byte	-34
 3652 00b6 6A       		.byte	106
 3653 00b7 57       		.byte	87
 3654 00b8 A6       		.byte	-90
 3655 00b9 37       		.byte	55
 3656 00ba B3       		.byte	-77
 3657 00bb 9B       		.byte	-101
 3658 00bc 00000000 		.space	4
 3659 00c0 00000000 		.space	192
 3659      00000000 
 3659      00000000 
 3659      00000000 
 3659      00000000 
 3660              		.section	.rodata.pt,"a",%progbits
 3661              		.align	2
 3662              		.set	.LANCHOR12,. + 0
 3663              		.type	pt, %object
 3664              		.size	pt, 384
 3665              	pt:
 3666 0000 00       		.byte	0
 3667 0001 00       		.byte	0
 3668 0002 00       		.byte	0
 3669 0003 00       		.byte	0
 3670 0004 00       		.byte	0
 3671 0005 00       		.byte	0
 3672 0006 00       		.byte	0
 3673 0007 00       		.byte	0
 3674 0008 00       		.byte	0
 3675 0009 00       		.byte	0
 3676 000a 00       		.byte	0
 3677 000b 00       		.byte	0
 3678 000c 00       		.byte	0
 3679 000d 00       		.byte	0
 3680 000e 00       		.byte	0
 3681 000f 00       		.byte	0
 3682 0010 00000000 		.space	48
 3682      00000000 
 3682      00000000 
 3682      00000000 
 3682      00000000 
 3683 0040 D9       		.byte	-39
 3684 0041 31       		.byte	49
 3685 0042 32       		.byte	50
 3686 0043 25       		.byte	37
 3687 0044 F8       		.byte	-8
 3688 0045 84       		.byte	-124
 3689 0046 06       		.byte	6
ARM GAS  C:\Users\jo\AppData\Local\Temp\cca1lOZc.s 			page 67


 3690 0047 E5       		.byte	-27
 3691 0048 A5       		.byte	-91
 3692 0049 59       		.byte	89
 3693 004a 09       		.byte	9
 3694 004b C5       		.byte	-59
 3695 004c AF       		.byte	-81
 3696 004d F5       		.byte	-11
 3697 004e 26       		.byte	38
 3698 004f 9A       		.byte	-102
 3699 0050 86       		.byte	-122
 3700 0051 A7       		.byte	-89
 3701 0052 A9       		.byte	-87
 3702 0053 53       		.byte	83
 3703 0054 15       		.byte	21
 3704 0055 34       		.byte	52
 3705 0056 F7       		.byte	-9
 3706 0057 DA       		.byte	-38
 3707 0058 2E       		.byte	46
 3708 0059 4C       		.byte	76
 3709 005a 30       		.byte	48
 3710 005b 3D       		.byte	61
 3711 005c 8A       		.byte	-118
 3712 005d 31       		.byte	49
 3713 005e 8A       		.byte	-118
 3714 005f 72       		.byte	114
 3715 0060 1C       		.byte	28
 3716 0061 3C       		.byte	60
 3717 0062 0C       		.byte	12
 3718 0063 95       		.byte	-107
 3719 0064 95       		.byte	-107
 3720 0065 68       		.byte	104
 3721 0066 09       		.byte	9
 3722 0067 53       		.byte	83
 3723 0068 2F       		.byte	47
 3724 0069 CF       		.byte	-49
 3725 006a 0E       		.byte	14
 3726 006b 24       		.byte	36
 3727 006c 49       		.byte	73
 3728 006d A6       		.byte	-90
 3729 006e B5       		.byte	-75
 3730 006f 25       		.byte	37
 3731 0070 B1       		.byte	-79
 3732 0071 6A       		.byte	106
 3733 0072 ED       		.byte	-19
 3734 0073 F5       		.byte	-11
 3735 0074 AA       		.byte	-86
 3736 0075 0D       		.byte	13
 3737 0076 E6       		.byte	-26
 3738 0077 57       		.byte	87
 3739 0078 BA       		.byte	-70
 3740 0079 63       		.byte	99
 3741 007a 7B       		.byte	123
 3742 007b 39       		.byte	57
 3743 007c 1A       		.byte	26
 3744 007d AF       		.byte	-81
 3745 007e D2       		.byte	-46
 3746 007f 55       		.byte	85
ARM GAS  C:\Users\jo\AppData\Local\Temp\cca1lOZc.s 			page 68


 3747 0080 00000000 		.space	256
 3747      00000000 
 3747      00000000 
 3747      00000000 
 3747      00000000 
 3748              		.section	.rodata.iv_len,"a",%progbits
 3749              		.align	2
 3750              		.set	.LANCHOR8,. + 0
 3751              		.type	iv_len, %object
 3752              		.size	iv_len, 24
 3753              	iv_len:
 3754 0000 0C000000 		.word	12
 3755 0004 0C000000 		.word	12
 3756 0008 0C000000 		.word	12
 3757 000c 0C000000 		.word	12
 3758 0010 08000000 		.word	8
 3759 0014 3C000000 		.word	60
 3760              		.section	.rodata.pt_index,"a",%progbits
 3761              		.align	2
 3762              		.set	.LANCHOR13,. + 0
 3763              		.type	pt_index, %object
 3764              		.size	pt_index, 24
 3765              	pt_index:
 3766 0000 00000000 		.word	0
 3767 0004 00000000 		.word	0
 3768 0008 01000000 		.word	1
 3769 000c 01000000 		.word	1
 3770 0010 01000000 		.word	1
 3771 0014 01000000 		.word	1
 3772              		.section	.rodata.pt_len,"a",%progbits
 3773              		.align	2
 3774              		.set	.LANCHOR3,. + 0
 3775              		.type	pt_len, %object
 3776              		.size	pt_len, 24
 3777              	pt_len:
 3778 0000 00000000 		.word	0
 3779 0004 10000000 		.word	16
 3780 0008 40000000 		.word	64
 3781 000c 3C000000 		.word	60
 3782 0010 3C000000 		.word	60
 3783 0014 3C000000 		.word	60
 3784              		.text
 3785              	.Letext0:
 3786              		.file 2 "c:\\program files\\gnu tools arm embedded\\4.9 2014q4\\lib\\gcc\\arm-none-eabi\\4.9.3\\in
 3787              		.file 3 "../../../ext/mbedtls-1.3.11/library/../include/polarssl/cipher.h"
 3788              		.file 4 "c:\\program files\\gnu tools arm embedded\\4.9 2014q4\\arm-none-eabi\\include\\machine\\_
 3789              		.file 5 "c:\\program files\\gnu tools arm embedded\\4.9 2014q4\\arm-none-eabi\\include\\stdint.h"
 3790              		.file 6 "../../../ext/mbedtls-1.3.11/library/../include/polarssl/gcm.h"
 3791              		.file 7 "c:\\program files\\gnu tools arm embedded\\4.9 2014q4\\arm-none-eabi\\include\\string.h"
 3792              		.file 8 "c:\\program files\\gnu tools arm embedded\\4.9 2014q4\\arm-none-eabi\\include\\stdio.h"
 3793              		.file 9 "<built-in>"