ARM GAS  C:\Users\jo\AppData\Local\Temp\cclhP7jn.s 			page 1


   1              		.syntax unified
   2              		.cpu cortex-m4
   3              		.fpu softvfp
   4              		.eabi_attribute 20, 1
   5              		.eabi_attribute 21, 1
   6              		.eabi_attribute 23, 3
   7              		.eabi_attribute 24, 1
   8              		.eabi_attribute 25, 1
   9              		.eabi_attribute 26, 1
  10              		.eabi_attribute 30, 2
  11              		.eabi_attribute 34, 1
  12              		.eabi_attribute 18, 4
  13              		.thumb
  14              		.file	"inet_chksum.c"
  15              		.text
  16              	.Ltext0:
  17              		.cfi_sections	.debug_frame
  18              		.section	.text.lwip_standard_chksum,"ax",%progbits
  19              		.align	2
  20              		.p2align 4,,15
  21              		.thumb
  22              		.thumb_func
  23              		.type	lwip_standard_chksum, %function
  24              	lwip_standard_chksum:
  25              	.LFB260:
  26              		.file 1 "../../../ext/lwip/src/core/ipv4/inet_chksum.c"
  27              		.loc 1 136 0
  28              		.cfi_startproc
  29              		@ args = 0, pretend = 0, frame = 8
  30              		@ frame_needed = 0, uses_anonymous_args = 0
  31              		@ link register save eliminated.
  32              	.LVL0:
  33 0000 70B4     		push	{r4, r5, r6}
  34              		.cfi_def_cfa_offset 12
  35              		.cfi_offset 4, -12
  36              		.cfi_offset 5, -8
  37              		.cfi_offset 6, -4
  38 0002 83B0     		sub	sp, sp, #12
  39              		.cfi_def_cfa_offset 24
  40              		.loc 1 138 0
  41 0004 0022     		movs	r2, #0
  42              		.loc 1 143 0
  43 0006 10F00106 		ands	r6, r0, #1
  44              		.loc 1 138 0
  45 000a ADF80620 		strh	r2, [sp, #6]	@ movhi
  46              	.LVL1:
  47              		.loc 1 143 0
  48 000e 06D0     		beq	.L2
  49              		.loc 1 143 0 is_stmt 0 discriminator 1
  50 0010 9142     		cmp	r1, r2
  51 0012 16DD     		ble	.L4
  52              	.LVL2:
  53              		.loc 1 144 0 is_stmt 1
  54 0014 0378     		ldrb	r3, [r0]	@ zero_extendqisi2
  55 0016 8DF80730 		strb	r3, [sp, #7]
  56              		.loc 1 145 0
  57 001a 0139     		subs	r1, r1, #1
ARM GAS  C:\Users\jo\AppData\Local\Temp\cclhP7jn.s 			page 2


  58              	.LVL3:
  59              		.loc 1 144 0
  60 001c 0130     		adds	r0, r0, #1
  61              	.LVL4:
  62              	.L2:
  63              		.loc 1 150 0
  64 001e 0129     		cmp	r1, #1
  65 0020 27DD     		ble	.L8
  66 0022 0446     		mov	r4, r0
  67 0024 0B46     		mov	r3, r1
  68 0026 0022     		movs	r2, #0
  69              	.LVL5:
  70              	.L5:
  71              		.loc 1 151 0
  72 0028 34F8025B 		ldrh	r5, [r4], #2
  73              	.LVL6:
  74              		.loc 1 152 0
  75 002c 023B     		subs	r3, r3, #2
  76              	.LVL7:
  77              		.loc 1 150 0
  78 002e 012B     		cmp	r3, #1
  79              		.loc 1 151 0
  80 0030 2A44     		add	r2, r2, r5
  81              	.LVL8:
  82              		.loc 1 150 0
  83 0032 F9DC     		bgt	.L5
  84 0034 0239     		subs	r1, r1, #2
  85 0036 4B08     		lsrs	r3, r1, #1
  86              	.LVL9:
  87 0038 5C1C     		adds	r4, r3, #1
  88              	.LVL10:
  89 003a A1EB4301 		sub	r1, r1, r3, lsl #1
  90 003e 00EB4400 		add	r0, r0, r4, lsl #1
  91              	.LVL11:
  92              	.L4:
  93              		.loc 1 156 0
  94 0042 0129     		cmp	r1, #1
  95              		.loc 1 157 0
  96 0044 04BF     		itt	eq
  97 0046 0378     		ldrbeq	r3, [r0]	@ zero_extendqisi2
  98 0048 8DF80630 		strbeq	r3, [sp, #6]
  99              		.loc 1 161 0
 100 004c BDF80600 		ldrh	r0, [sp, #6]
 101 0050 1044     		add	r0, r0, r2
 102              	.LVL12:
 103              		.loc 1 165 0
 104 0052 83B2     		uxth	r3, r0
 105 0054 03EB1040 		add	r0, r3, r0, lsr #16
 106              	.LVL13:
 107              		.loc 1 166 0
 108 0058 83B2     		uxth	r3, r0
 109 005a 03EB1040 		add	r0, r3, r0, lsr #16
 110              	.LVL14:
 111              		.loc 1 169 0
 112 005e 26B1     		cbz	r6, .L7
 113              		.loc 1 170 0
 114 0060 0302     		lsls	r3, r0, #8
ARM GAS  C:\Users\jo\AppData\Local\Temp\cclhP7jn.s 			page 3


 115 0062 9BB2     		uxth	r3, r3
 116 0064 C0F30720 		ubfx	r0, r0, #8, #8
 117              	.LVL15:
 118 0068 1843     		orrs	r0, r0, r3
 119              	.LVL16:
 120              	.L7:
 121              		.loc 1 173 0
 122 006a 80B2     		uxth	r0, r0
 123              	.LVL17:
 124              		.loc 1 174 0
 125 006c 03B0     		add	sp, sp, #12
 126              		.cfi_remember_state
 127              		.cfi_def_cfa_offset 12
 128              		@ sp needed
 129 006e 70BC     		pop	{r4, r5, r6}
 130              		.cfi_restore 6
 131              		.cfi_restore 5
 132              		.cfi_restore 4
 133              		.cfi_def_cfa_offset 0
 134              	.LVL18:
 135 0070 7047     		bx	lr
 136              	.LVL19:
 137              	.L8:
 138              		.cfi_restore_state
 139              		.loc 1 139 0
 140 0072 0022     		movs	r2, #0
 141 0074 E5E7     		b	.L4
 142              		.cfi_endproc
 143              	.LFE260:
 144              		.size	lwip_standard_chksum, .-lwip_standard_chksum
 145 0076 00BFAFF3 		.section	.text.chprintf.constprop.0,"ax",%progbits
 145      0080AFF3 
 145      0080
 146              		.align	2
 147              		.p2align 4,,15
 148              		.thumb
 149              		.thumb_func
 150              		.type	chprintf.constprop.0, %function
 151              	chprintf.constprop.0:
 152              	.LFB265:
 153              		.file 2 "../../../os/hal/lib/streams/chprintf.h"
 154              		.loc 2 69 0
 155              		.cfi_startproc
 156              		@ args = 4, pretend = 12, frame = 8
 157              		@ frame_needed = 0, uses_anonymous_args = 1
 158              	.LVL20:
 159 0000 0EB4     		push	{r1, r2, r3}
 160              		.cfi_def_cfa_offset 12
 161              		.cfi_offset 1, -12
 162              		.cfi_offset 2, -8
 163              		.cfi_offset 3, -4
 164 0002 00B5     		push	{lr}
 165              		.cfi_def_cfa_offset 16
 166              		.cfi_offset 14, -16
 167 0004 82B0     		sub	sp, sp, #8
 168              		.cfi_def_cfa_offset 24
 169              		.loc 2 73 0
ARM GAS  C:\Users\jo\AppData\Local\Temp\cclhP7jn.s 			page 4


 170 0006 04AB     		add	r3, sp, #16
 171              		.loc 2 74 0
 172 0008 1A46     		mov	r2, r3
 173 000a 0549     		ldr	r1, .L21
 174 000c 0548     		ldr	r0, .L21+4
 175              	.LVL21:
 176              		.loc 2 73 0
 177 000e 0193     		str	r3, [sp, #4]
 178              		.loc 2 74 0
 179 0010 FFF7FEFF 		bl	chvprintf
 180              	.LVL22:
 181              		.loc 2 78 0
 182 0014 02B0     		add	sp, sp, #8
 183              		.cfi_def_cfa_offset 16
 184              		@ sp needed
 185 0016 5DF804EB 		ldr	lr, [sp], #4
 186              		.cfi_restore 14
 187              		.cfi_def_cfa_offset 12
 188 001a 03B0     		add	sp, sp, #12
 189              		.cfi_restore 3
 190              		.cfi_restore 2
 191              		.cfi_restore 1
 192              		.cfi_def_cfa_offset 0
 193 001c 7047     		bx	lr
 194              	.L22:
 195 001e 00BF     		.align	2
 196              	.L21:
 197 0020 00000000 		.word	.LC0
 198 0024 00000000 		.word	itm_port
 199              		.cfi_endproc
 200              	.LFE265:
 201              		.size	chprintf.constprop.0, .-chprintf.constprop.0
 202 0028 AFF30080 		.section	.text.inet_chksum_pseudo,"ax",%progbits
 202      AFF30080 
 203              		.align	2
 204              		.p2align 4,,15
 205              		.global	inet_chksum_pseudo
 206              		.thumb
 207              		.thumb_func
 208              		.type	inet_chksum_pseudo, %function
 209              	inet_chksum_pseudo:
 210              	.LFB261:
 211              		.loc 1 275 0
 212              		.cfi_startproc
 213              		@ args = 4, pretend = 0, frame = 0
 214              		@ frame_needed = 0, uses_anonymous_args = 0
 215              	.LVL23:
 216 0000 2DE9F047 		push	{r4, r5, r6, r7, r8, r9, r10, lr}
 217              		.cfi_def_cfa_offset 32
 218              		.cfi_offset 4, -32
 219              		.cfi_offset 5, -28
 220              		.cfi_offset 6, -24
 221              		.cfi_offset 7, -20
 222              		.cfi_offset 8, -16
 223              		.cfi_offset 9, -12
 224              		.cfi_offset 10, -8
 225              		.cfi_offset 14, -4
ARM GAS  C:\Users\jo\AppData\Local\Temp\cclhP7jn.s 			page 5


 226              		.loc 1 275 0
 227 0004 8A46     		mov	r10, r1
 228 0006 9146     		mov	r9, r2
 229 0008 9846     		mov	r8, r3
 230 000a BDF82070 		ldrh	r7, [sp, #32]
 231              		.loc 1 284 0
 232 000e 0546     		mov	r5, r0
 233 0010 0028     		cmp	r0, #0
 234 0012 3BD0     		beq	.L27
 235 0014 0026     		movs	r6, #0
 236 0016 3446     		mov	r4, r6
 237              	.LVL24:
 238              	.L26:
 239              		.loc 1 287 0
 240 0018 6868     		ldr	r0, [r5, #4]
 241 001a 6989     		ldrh	r1, [r5, #10]
 242 001c FFF7FEFF 		bl	lwip_standard_chksum
 243              	.LVL25:
 244              		.loc 1 292 0
 245 0020 6B89     		ldrh	r3, [r5, #10]
 246              		.loc 1 287 0
 247 0022 2044     		add	r0, r0, r4
 248              	.LVL26:
 249              		.loc 1 291 0
 250 0024 84B2     		uxth	r4, r0
 251              		.loc 1 292 0
 252 0026 DB07     		lsls	r3, r3, #31
 253              		.loc 1 291 0
 254 0028 04EB1044 		add	r4, r4, r0, lsr #16
 255              	.LVL27:
 256              		.loc 1 292 0
 257 002c 07D5     		bpl	.L25
 258              		.loc 1 294 0
 259 002e 2302     		lsls	r3, r4, #8
 260              		.loc 1 293 0
 261 0030 C6F10106 		rsb	r6, r6, #1
 262              	.LVL28:
 263              		.loc 1 294 0
 264 0034 9BB2     		uxth	r3, r3
 265 0036 C4F30724 		ubfx	r4, r4, #8, #8
 266              	.LVL29:
 267              		.loc 1 293 0
 268 003a F6B2     		uxtb	r6, r6
 269              	.LVL30:
 270              		.loc 1 294 0
 271 003c 1C43     		orrs	r4, r4, r3
 272              	.LVL31:
 273              	.L25:
 274              		.loc 1 284 0 discriminator 2
 275 003e 2D68     		ldr	r5, [r5]
 276              	.LVL32:
 277 0040 002D     		cmp	r5, #0
 278 0042 E9D1     		bne	.L26
 279              		.loc 1 299 0
 280 0044 26B1     		cbz	r6, .L24
 281              		.loc 1 300 0
 282 0046 2302     		lsls	r3, r4, #8
ARM GAS  C:\Users\jo\AppData\Local\Temp\cclhP7jn.s 			page 6


 283 0048 9BB2     		uxth	r3, r3
 284 004a C4F30724 		ubfx	r4, r4, #8, #8
 285              	.LVL33:
 286 004e 1C43     		orrs	r4, r4, r3
 287              	.LVL34:
 288              	.L24:
 289              		.loc 1 302 0
 290 0050 DAF80030 		ldr	r3, [r10]
 291              	.LVL35:
 292              		.loc 1 305 0
 293 0054 D9F80010 		ldr	r1, [r9]
 294              	.LVL36:
 295              		.loc 1 303 0
 296 0058 9AB2     		uxth	r2, r3
 297 005a 02EB1343 		add	r3, r2, r3, lsr #16
 298              	.LVL37:
 299 005e 13FA81F3 		uxtah	r3, r3, r1
 300 0062 03EB1143 		add	r3, r3, r1, lsr #16
 301              		.loc 1 308 0
 302 0066 4046     		mov	r0, r8
 303              		.loc 1 307 0
 304 0068 1C44     		add	r4, r4, r3
 305              	.LVL38:
 306              		.loc 1 308 0
 307 006a FFF7FEFF 		bl	lwip_htons
 308              	.LVL39:
 309 006e 0444     		add	r4, r4, r0
 310              	.LVL40:
 311              		.loc 1 309 0
 312 0070 3846     		mov	r0, r7
 313 0072 FFF7FEFF 		bl	lwip_htons
 314              	.LVL41:
 315 0076 2044     		add	r0, r0, r4
 316              	.LVL42:
 317              		.loc 1 313 0
 318 0078 83B2     		uxth	r3, r0
 319 007a 03EB1040 		add	r0, r3, r0, lsr #16
 320              	.LVL43:
 321              		.loc 1 314 0
 322 007e 83B2     		uxth	r3, r0
 323              	.LVL44:
 324 0080 03EB1040 		add	r0, r3, r0, lsr #16
 325              	.LVL45:
 326              		.loc 1 316 0
 327 0084 C043     		mvns	r0, r0
 328              	.LVL46:
 329              		.loc 1 317 0
 330 0086 80B2     		uxth	r0, r0
 331              	.LVL47:
 332 0088 BDE8F087 		pop	{r4, r5, r6, r7, r8, r9, r10, pc}
 333              	.LVL48:
 334              	.L27:
 335              		.loc 1 281 0
 336 008c 0446     		mov	r4, r0
 337 008e DFE7     		b	.L24
 338              		.cfi_endproc
 339              	.LFE261:
ARM GAS  C:\Users\jo\AppData\Local\Temp\cclhP7jn.s 			page 7


 340              		.size	inet_chksum_pseudo, .-inet_chksum_pseudo
 341              		.section	.text.inet_chksum_pseudo_partial,"ax",%progbits
 342              		.align	2
 343              		.p2align 4,,15
 344              		.global	inet_chksum_pseudo_partial
 345              		.thumb
 346              		.thumb_func
 347              		.type	inet_chksum_pseudo_partial, %function
 348              	inet_chksum_pseudo_partial:
 349              	.LFB262:
 350              		.loc 1 335 0
 351              		.cfi_startproc
 352              		@ args = 8, pretend = 0, frame = 8
 353              		@ frame_needed = 0, uses_anonymous_args = 0
 354              	.LVL49:
 355 0000 2DE9F04F 		push	{r4, r5, r6, r7, r8, r9, r10, fp, lr}
 356              		.cfi_def_cfa_offset 36
 357              		.cfi_offset 4, -36
 358              		.cfi_offset 5, -32
 359              		.cfi_offset 6, -28
 360              		.cfi_offset 7, -24
 361              		.cfi_offset 8, -20
 362              		.cfi_offset 9, -16
 363              		.cfi_offset 10, -12
 364              		.cfi_offset 11, -8
 365              		.cfi_offset 14, -4
 366 0004 85B0     		sub	sp, sp, #20
 367              		.cfi_def_cfa_offset 56
 368              		.loc 1 335 0
 369 0006 8B46     		mov	fp, r1
 370 0008 0293     		str	r3, [sp, #8]
 371 000a BDF83830 		ldrh	r3, [sp, #56]
 372              	.LVL50:
 373 000e 0393     		str	r3, [sp, #12]
 374 0010 9246     		mov	r10, r2
 375 0012 BDF83C70 		ldrh	r7, [sp, #60]
 376              	.LVL51:
 377              		.loc 1 345 0
 378 0016 0546     		mov	r5, r0
 379 0018 0028     		cmp	r0, #0
 380 001a 5BD0     		beq	.L44
 381 001c 002F     		cmp	r7, #0
 382 001e 5BD0     		beq	.L45
 383 0020 0026     		movs	r6, #0
 384              		.loc 1 354 0
 385 0022 DFF8C480 		ldr	r8, .L51+12
 386              		.loc 1 345 0
 387 0026 3446     		mov	r4, r6
 388 0028 10E0     		b	.L42
 389              	.LVL52:
 390              	.L38:
 391              		.loc 1 358 0
 392 002a 6B89     		ldrh	r3, [r5, #10]
 393              		.loc 1 357 0
 394 002c A2B2     		uxth	r2, r4
 395              		.loc 1 358 0
 396 002e DB07     		lsls	r3, r3, #31
ARM GAS  C:\Users\jo\AppData\Local\Temp\cclhP7jn.s 			page 8


 397              		.loc 1 357 0
 398 0030 02EB1444 		add	r4, r2, r4, lsr #16
 399              	.LVL53:
 400              		.loc 1 358 0
 401 0034 07D5     		bpl	.L39
 402              		.loc 1 360 0
 403 0036 2302     		lsls	r3, r4, #8
 404 0038 9BB2     		uxth	r3, r3
 405 003a C4F30724 		ubfx	r4, r4, #8, #8
 406              	.LVL54:
 407              		.loc 1 359 0
 408 003e C6F10106 		rsb	r6, r6, #1
 409              	.LVL55:
 410              		.loc 1 360 0
 411 0042 1C43     		orrs	r4, r4, r3
 412              		.loc 1 359 0
 413 0044 F6B2     		uxtb	r6, r6
 414              	.LVL56:
 415              	.L39:
 416              		.loc 1 345 0 discriminator 2
 417 0046 2D68     		ldr	r5, [r5]
 418              	.LVL57:
 419 0048 FDB1     		cbz	r5, .L43
 420              		.loc 1 345 0 is_stmt 0 discriminator 3
 421 004a F7B1     		cbz	r7, .L43
 422              	.LVL58:
 423              	.L42:
 424              		.loc 1 348 0 is_stmt 1
 425 004c 6B89     		ldrh	r3, [r5, #10]
 426              	.LVL59:
 427              		.loc 1 352 0
 428 004e 6868     		ldr	r0, [r5, #4]
 429 0050 BB42     		cmp	r3, r7
 430 0052 28BF     		it	cs
 431 0054 3B46     		movcs	r3, r7
 432              	.LVL60:
 433 0056 9946     		mov	r9, r3
 434              	.LVL61:
 435 0058 1946     		mov	r1, r3
 436 005a FFF7FEFF 		bl	lwip_standard_chksum
 437              	.LVL62:
 438              		.loc 1 353 0
 439 005e C9EB070C 		rsb	ip, r9, r7
 440 0062 1FFA8CF7 		uxth	r7, ip
 441              	.LVL63:
 442              		.loc 1 354 0
 443 0066 47F6FE73 		movw	r3, #32766
 444 006a 9F42     		cmp	r7, r3
 445              		.loc 1 352 0
 446 006c 0444     		add	r4, r4, r0
 447              	.LVL64:
 448              		.loc 1 354 0
 449 006e DCD9     		bls	.L38
 450              		.loc 1 354 0 is_stmt 0 discriminator 1
 451 0070 CDF80080 		str	r8, [sp]
 452 0074 1949     		ldr	r1, .L51
 453 0076 1A4A     		ldr	r2, .L51+4
ARM GAS  C:\Users\jo\AppData\Local\Temp\cclhP7jn.s 			page 9


 454 0078 1A48     		ldr	r0, .L51+8
 455 007a 4FF4B173 		mov	r3, #354
 456 007e FFF7FEFF 		bl	chprintf.constprop.0
 457              	.LVL65:
 458              	.LBB4:
 459              	.LBB5:
 460              		.file 3 "../../../os/hal/osal/rt/osal.h"
 461              		.loc 3 416 0 is_stmt 1 discriminator 1
 462 0082 1748     		ldr	r0, .L51+4
 463 0084 FFF7FEFF 		bl	chSysHalt
 464              	.LVL66:
 465 0088 CFE7     		b	.L38
 466              	.LVL67:
 467              	.L43:
 468              	.LBE5:
 469              	.LBE4:
 470              		.loc 1 365 0
 471 008a 26B1     		cbz	r6, .L37
 472              		.loc 1 366 0
 473 008c 2302     		lsls	r3, r4, #8
 474 008e 9BB2     		uxth	r3, r3
 475 0090 C4F30724 		ubfx	r4, r4, #8, #8
 476              	.LVL68:
 477 0094 1C43     		orrs	r4, r4, r3
 478              	.LVL69:
 479              	.L37:
 480              		.loc 1 368 0
 481 0096 DBF80030 		ldr	r3, [fp]
 482              	.LVL70:
 483              		.loc 1 371 0
 484 009a DAF80010 		ldr	r1, [r10]
 485              	.LVL71:
 486              		.loc 1 374 0
 487 009e 0298     		ldr	r0, [sp, #8]
 488              		.loc 1 369 0
 489 00a0 9AB2     		uxth	r2, r3
 490 00a2 02EB1343 		add	r3, r2, r3, lsr #16
 491              	.LVL72:
 492 00a6 13FA81F3 		uxtah	r3, r3, r1
 493 00aa 03EB1143 		add	r3, r3, r1, lsr #16
 494              		.loc 1 373 0
 495 00ae 1C44     		add	r4, r4, r3
 496              	.LVL73:
 497              		.loc 1 374 0
 498 00b0 FFF7FEFF 		bl	lwip_htons
 499              	.LVL74:
 500 00b4 0444     		add	r4, r4, r0
 501              	.LVL75:
 502              		.loc 1 375 0
 503 00b6 0398     		ldr	r0, [sp, #12]
 504 00b8 FFF7FEFF 		bl	lwip_htons
 505              	.LVL76:
 506 00bc 2044     		add	r0, r0, r4
 507              	.LVL77:
 508              		.loc 1 379 0
 509 00be 83B2     		uxth	r3, r0
 510 00c0 03EB1040 		add	r0, r3, r0, lsr #16
ARM GAS  C:\Users\jo\AppData\Local\Temp\cclhP7jn.s 			page 10


 511              	.LVL78:
 512              		.loc 1 380 0
 513 00c4 83B2     		uxth	r3, r0
 514              	.LVL79:
 515 00c6 03EB1040 		add	r0, r3, r0, lsr #16
 516              	.LVL80:
 517              		.loc 1 382 0
 518 00ca C043     		mvns	r0, r0
 519              	.LVL81:
 520              		.loc 1 383 0
 521 00cc 80B2     		uxth	r0, r0
 522              	.LVL82:
 523 00ce 05B0     		add	sp, sp, #20
 524              		.cfi_remember_state
 525              		.cfi_def_cfa_offset 36
 526              		@ sp needed
 527 00d0 BDE8F08F 		pop	{r4, r5, r6, r7, r8, r9, r10, fp, pc}
 528              	.LVL83:
 529              	.L44:
 530              		.cfi_restore_state
 531              		.loc 1 345 0
 532 00d4 0446     		mov	r4, r0
 533 00d6 DEE7     		b	.L37
 534              	.L45:
 535 00d8 3C46     		mov	r4, r7
 536 00da DCE7     		b	.L37
 537              	.L52:
 538              		.align	2
 539              	.L51:
 540 00dc 00000000 		.word	.LC0
 541 00e0 28000000 		.word	.LC1
 542 00e4 00000000 		.word	itm_port
 543 00e8 34000000 		.word	.LC2
 544              		.cfi_endproc
 545              	.LFE262:
 546              		.size	inet_chksum_pseudo_partial, .-inet_chksum_pseudo_partial
 547 00ec AFF30080 		.section	.text.inet_chksum,"ax",%progbits
 548              		.align	2
 549              		.p2align 4,,15
 550              		.global	inet_chksum
 551              		.thumb
 552              		.thumb_func
 553              		.type	inet_chksum, %function
 554              	inet_chksum:
 555              	.LFB263:
 556              		.loc 1 397 0
 557              		.cfi_startproc
 558              		@ args = 0, pretend = 0, frame = 0
 559              		@ frame_needed = 0, uses_anonymous_args = 0
 560              	.LVL84:
 561 0000 08B5     		push	{r3, lr}
 562              		.cfi_def_cfa_offset 8
 563              		.cfi_offset 3, -8
 564              		.cfi_offset 14, -4
 565              		.loc 1 398 0
 566 0002 FFF7FEFF 		bl	lwip_standard_chksum
 567              	.LVL85:
ARM GAS  C:\Users\jo\AppData\Local\Temp\cclhP7jn.s 			page 11


 568 0006 C043     		mvns	r0, r0
 569              		.loc 1 399 0
 570 0008 80B2     		uxth	r0, r0
 571 000a 08BD     		pop	{r3, pc}
 572              		.cfi_endproc
 573              	.LFE263:
 574              		.size	inet_chksum, .-inet_chksum
 575 000c AFF30080 		.section	.text.inet_chksum_pbuf,"ax",%progbits
 576              		.align	2
 577              		.p2align 4,,15
 578              		.global	inet_chksum_pbuf
 579              		.thumb
 580              		.thumb_func
 581              		.type	inet_chksum_pbuf, %function
 582              	inet_chksum_pbuf:
 583              	.LFB264:
 584              		.loc 1 410 0
 585              		.cfi_startproc
 586              		@ args = 0, pretend = 0, frame = 0
 587              		@ frame_needed = 0, uses_anonymous_args = 0
 588              	.LVL86:
 589 0000 70B5     		push	{r4, r5, r6, lr}
 590              		.cfi_def_cfa_offset 16
 591              		.cfi_offset 4, -16
 592              		.cfi_offset 5, -12
 593              		.cfi_offset 6, -8
 594              		.cfi_offset 14, -4
 595              		.loc 1 417 0
 596 0002 0546     		mov	r5, r0
 597 0004 00B3     		cbz	r0, .L60
 598 0006 0026     		movs	r6, #0
 599 0008 3446     		mov	r4, r6
 600              	.LVL87:
 601              	.L58:
 602              		.loc 1 418 0
 603 000a 6868     		ldr	r0, [r5, #4]
 604 000c 6989     		ldrh	r1, [r5, #10]
 605 000e FFF7FEFF 		bl	lwip_standard_chksum
 606              	.LVL88:
 607              		.loc 1 420 0
 608 0012 6B89     		ldrh	r3, [r5, #10]
 609              		.loc 1 418 0
 610 0014 2044     		add	r0, r0, r4
 611              	.LVL89:
 612              		.loc 1 419 0
 613 0016 84B2     		uxth	r4, r0
 614              		.loc 1 420 0
 615 0018 DB07     		lsls	r3, r3, #31
 616              		.loc 1 419 0
 617 001a 04EB1044 		add	r4, r4, r0, lsr #16
 618              	.LVL90:
 619              		.loc 1 420 0
 620 001e 07D5     		bpl	.L57
 621              		.loc 1 422 0
 622 0020 2302     		lsls	r3, r4, #8
 623              		.loc 1 421 0
 624 0022 C6F10106 		rsb	r6, r6, #1
ARM GAS  C:\Users\jo\AppData\Local\Temp\cclhP7jn.s 			page 12


 625              	.LVL91:
 626              		.loc 1 422 0
 627 0026 9BB2     		uxth	r3, r3
 628 0028 C4F30724 		ubfx	r4, r4, #8, #8
 629              	.LVL92:
 630              		.loc 1 421 0
 631 002c F6B2     		uxtb	r6, r6
 632              	.LVL93:
 633              		.loc 1 422 0
 634 002e 1C43     		orrs	r4, r4, r3
 635              	.LVL94:
 636              	.L57:
 637              		.loc 1 417 0 discriminator 2
 638 0030 2D68     		ldr	r5, [r5]
 639              	.LVL95:
 640 0032 002D     		cmp	r5, #0
 641 0034 E9D1     		bne	.L58
 642              		.loc 1 426 0
 643 0036 26B1     		cbz	r6, .L66
 644              		.loc 1 427 0
 645 0038 2002     		lsls	r0, r4, #8
 646 003a 80B2     		uxth	r0, r0
 647 003c C4F30724 		ubfx	r4, r4, #8, #8
 648              	.LVL96:
 649 0040 0443     		orrs	r4, r4, r0
 650              	.LVL97:
 651              	.L66:
 652 0042 E443     		mvns	r4, r4
 653              	.LVL98:
 654 0044 A0B2     		uxth	r0, r4
 655 0046 70BD     		pop	{r4, r5, r6, pc}
 656              	.LVL99:
 657              	.L60:
 658              		.loc 1 417 0
 659 0048 4FF6FF70 		movw	r0, #65535
 660              	.LVL100:
 661              		.loc 1 430 0
 662 004c 70BD     		pop	{r4, r5, r6, pc}
 663              		.cfi_endproc
 664              	.LFE264:
 665              		.size	inet_chksum_pbuf, .-inet_chksum_pbuf
 666 004e 00BF     		.section	.rodata.str1.4,"aMS",%progbits,1
 667              		.align	2
 668              	.LC0:
 669 0000 41737365 		.ascii	"Assertion \"%s\" failed at line %d in %s\012\000"
 669      7274696F 
 669      6E202225 
 669      73222066 
 669      61696C65 
 670              	.LC1:
 671 0028 64656C65 		.ascii	"delete me\000"
 671      7465206D 
 671      6500
 672 0032 0000     		.space	2
 673              	.LC2:
 674 0034 2E2E2F2E 		.ascii	"../../../ext/lwip/src/core/ipv4/inet_chksum.c\000"
 674      2E2F2E2E 
ARM GAS  C:\Users\jo\AppData\Local\Temp\cclhP7jn.s 			page 13


 674      2F657874 
 674      2F6C7769 
 674      702F7372 
 675 0062 0000     		.text
 676              	.Letext0:
 677              		.file 4 "c:\\program files\\gnu tools arm embedded\\4.9 2014q4\\lib\\gcc\\arm-none-eabi\\4.9.3\\in
 678              		.file 5 "c:\\program files\\gnu tools arm embedded\\4.9 2014q4\\arm-none-eabi\\include\\machine\\_
 679              		.file 6 "c:\\program files\\gnu tools arm embedded\\4.9 2014q4\\arm-none-eabi\\include\\stdint.h"
 680              		.file 7 "../../../os/rt/ports/ARMCMx/compilers/GCC/chtypes.h"
 681              		.file 8 "../../../os/rt/include/chsystypes.h"
 682              		.file 9 "../../../os/rt/include/chschd.h"
 683              		.file 10 "../../../os/rt/ports/ARMCMx/chcore.h"
 684              		.file 11 "../../../os/rt/ports/ARMCMx/chcore_v7m.h"
 685              		.file 12 "../../../os/rt/include/chdebug.h"
 686              		.file 13 "../../../os/rt/include/chtm.h"
 687              		.file 14 "../../../os/rt/include/chsem.h"
 688              		.file 15 "../../../os/rt/include/chmtx.h"
 689              		.file 16 "../../../os/rt/include/chstreams.h"
 690              		.file 17 "./ITM_trace.h"
 691              		.file 18 "c:\\program files\\gnu tools arm embedded\\4.9 2014q4\\lib\\gcc\\arm-none-eabi\\4.9.3\\i
 692              		.file 19 "<built-in>"
 693              		.file 20 "../../../os/various/lwip_bindings/arch/cc.h"
 694              		.file 21 "../../../ext/lwip/src/include/lwip/pbuf.h"
 695              		.file 22 "../../../ext/lwip/src/include/ipv4/lwip/ip_addr.h"
 696              		.file 23 "../../../os/ext/CMSIS/include/core_cm4.h"
 697              		.file 24 "../../../ext/lwip/src/include/lwip/def.h"
 698              		.file 25 "../../../os/rt/include/chsys.h"