ARM GAS  C:\Users\jo\AppData\Local\Temp\cclhP7jn.s 			page 1


   1              		.syntax unified
   2              		.cpu cortex-m4
   3              		.fpu softvfp
   4              		.eabi_attribute 20, 1
   5              		.eabi_attribute 21, 1
   6              		.eabi_attribute 23, 3
   7              		.eabi_attribute 24, 1
   8              		.eabi_attribute 25, 1
   9              		.eabi_attribute 26, 1
  10              		.eabi_attribute 30, 2
  11              		.eabi_attribute 34, 1
  12              		.eabi_attribute 18, 4
  13              		.thumb
  14              		.file	"inet_chksum.c"
  15              		.text
  16              	.Ltext0:
  17              		.cfi_sections	.debug_frame
  18              		.section	.text.lwip_standard_chksum,"ax",%progbits
  19              		.align	2
  20              		.p2align 4,,15
  21              		.thumb
  22              		.thumb_func
  23              		.type	lwip_standard_chksum, %function
  24              	lwip_standard_chksum:
  25              	.LFB260:
  26              		.file 1 "../../../ext/lwip/src/core/ipv4/inet_chksum.c"
  27              		.loc 1 136 0
  28              		.cfi_startproc
  29              		@ args = 0, pretend = 0, frame = 8
  30              		@ frame_needed = 0, uses_anonymous_args = 0
  31              		@ link register save eliminated.
  32              	.LVL0:
  33 0000 70B4     		push	{r4, r5, r6}
  34              		.cfi_def_cfa_offset 12
  35              		.cfi_offset 4, -12
  36              		.cfi_offset 5, -8
  37              		.cfi_offset 6, -4
  38 0002 83B0     		sub	sp, sp, #12
  39              		.cfi_def_cfa_offset 24
  40              		.loc 1 138 0
  41 0004 0022     		movs	r2, #0
  42              		.loc 1 143 0
  43 0006 10F00106 		ands	r6, r0, #1
  44              		.loc 1 138 0
  45 000a ADF80620 		strh	r2, [sp, #6]	@ movhi
  46              	.LVL1:
  47              		.loc 1 143 0
  48 000e 06D0     		beq	.L2
  49              		.loc 1 143 0 is_stmt 0 discriminator 1
  50 0010 9142     		cmp	r1, r2
  51 0012 16DD     		ble	.L4
  52              	.LVL2:
  53              		.loc 1 144 0 is_stmt 1
  54 0014 0378     		ldrb	r3, [r0]	@ zero_extendqisi2
  55 0016 8DF80730 		strb	r3, [sp, #7]
  56              		.loc 1 145 0
  57 001a 0139     		subs	r1, r1, #1
ARM GAS  C:\Users\jo\AppData\Local\Temp\cclhP7jn.s 			page 2


  58              	.LVL3:
  59              		.loc 1 144 0
  60 001c 0130     		adds	r0, r0, #1
  61              	.LVL4:
  62              	.L2:
  63              		.loc 1 150 0
  64 001e 0129     		cmp	r1, #1
  65 0020 27DD     		ble	.L8
  66 0022 0446     		mov	r4, r0
  67 0024 0B46     		mov	r3, r1
  68 0026 0022     		movs	r2, #0
  69              	.LVL5:
  70              	.L5:
  71              		.loc 1 151 0
  72 0028 34F8025B 		ldrh	r5, [r4], #2
  73              	.LVL6:
  74              		.loc 1 152 0
  75 002c 023B     		subs	r3, r3, #2
  76              	.LVL7:
  77              		.loc 1 150 0
  78 002e 012B     		cmp	r3, #1
  79              		.loc 1 151 0
  80 0030 2A44     		add	r2, r2, r5
  81              	.LVL8:
  82              		.loc 1 150 0
  83 0032 F9DC     		bgt	.L5
  84 0034 0239     		subs	r1, r1, #2
  85 0036 4B08     		lsrs	r3, r1, #1
  86              	.LVL9:
  87 0038 5C1C     		adds	r4, r3, #1
  88              	.LVL10:
  89 003a A1EB4301 		sub	r1, r1, r3, lsl #1
  90 003e 00EB4400 		add	r0, r0, r4, lsl #1
  91              	.LVL11:
  92              	.L4:
  93              		.loc 1 156 0
  94 0042 0129     		cmp	r1, #1
  95              		.loc 1 157 0
  96 0044 04BF     		itt	eq
  97 0046 0378     		ldrbeq	r3, [r0]	@ zero_extendqisi2
  98 0048 8DF80630 		strbeq	r3, [sp, #6]
  99              		.loc 1 161 0
 100 004c BDF80600 		ldrh	r0, [sp, #6]
 101 0050 1044     		add	r0, r0, r2
 102              	.LVL12:
 103              		.loc 1 165 0
 104 0052 83B2     		uxth	r3, r0
 105 0054 03EB1040 		add	r0, r3, r0, lsr #16
 106              	.LVL13:
 107              		.loc 1 166 0
 108 0058 83B2     		uxth	r3, r0
 109 005a 03EB1040 		add	r0, r3, r0, lsr #16
 110              	.LVL14:
 111              		.loc 1 169 0
 112 005e 26B1     		cbz	r6, .L7
 113              		.loc 1 170 0
 114 0060 0302     		lsls	r3, r0, #8
ARM GAS  C:\Users\jo\AppData\Local\Temp\cclhP7jn.s 			page 3


 115 0062 9BB2     		uxth	r3, r3
 116 0064 C0F30720 		ubfx	r0, r0, #8, #8
 117              	.LVL15:
 118 0068 1843     		orrs	r0, r0, r3
 119              	.LVL16:
 120              	.L7:
 121              		.loc 1 173 0
 122 006a 80B2     		uxth	r0, r0
 123              	.LVL17:
 124              		.loc 1 174 0
 125 006c 03B0     		add	sp, sp, #12
 126              		.cfi_remember_state
 127              		.cfi_def_cfa_offset 12
 128              		@ sp needed
 129 006e 70BC     		pop	{r4, r5, r6}
 130              		.cfi_restore 6
 131              		.cfi_restore 5
 132              		.cfi_restore 4
 133              		.cfi_def_cfa_offset 0
 134              	.LVL18:
 135 0070 7047     		bx	lr
 136              	.LVL19:
 137              	.L8:
 138              		.cfi_restore_state
 139              		.loc 1 139 0
 140 0072 0022     		movs	r2, #0
 141 0074 E5E7     		b	.L4
 142              		.cfi_endproc
 143              	.LFE260:
 144              		.size	lwip_standard_chksum, .-lwip_standard_chksum
 145 0076 00BFAFF3 		.section	.text.chprintf.constprop.0,"ax",%progbits
 145      0080AFF3 
 145      0080
 146              		.align	2
 147              		.p2align 4,,15
 148              		.thumb
 149              		.thumb_func
 150              		.type	chprintf.constprop.0, %function
 151              	chprintf.constprop.0:
 152              	.LFB265:
 153              		.file 2 "../../../os/hal/lib/streams/chprintf.h"
 154              		.loc 2 69 0
 155              		.cfi_startproc
 156              		@ args = 4, pretend = 12, frame = 8
 157              		@ frame_needed = 0, uses_anonymous_args = 1
 158              	.LVL20:
 159 0000 0EB4     		push	{r1, r2, r3}
 160              		.cfi_def_cfa_offset 12
 161              		.cfi_offset 1, -12
 162              		.cfi_offset 2, -8
 163              		.cfi_offset 3, -4
 164 0002 00B5     		push	{lr}
 165              		.cfi_def_cfa_offset 16
 166              		.cfi_offset 14, -16
 167 0004 82B0     		sub	sp, sp, #8
 168              		.cfi_def_cfa_offset 24
 169              		.loc 2 73 0
ARM GAS  C:\Users\jo\AppData\Local\Temp\cclhP7jn.s 			page 4


 170 0006 04AB     		add	r3, sp, #16
 171              		.loc 2 74 0
 172 0008 1A46     		mov	r2, r3
 173 000a 0549     		ldr	r1, .L21
 174 000c 0548     		ldr	r0, .L21+4
 175              	.LVL21:
 176              		.loc 2 73 0
 177 000e 0193     		str	r3, [sp, #4]
 178              		.loc 2 74 0
 179 0010 FFF7FEFF 		bl	chvprintf
 180              	.LVL22:
 181              		.loc 2 78 0
 182 0014 02B0     		add	sp, sp, #8
 183              		.cfi_def_cfa_offset 16
 184              		@ sp needed
 185 0016 5DF804EB 		ldr	lr, [sp], #4
 186              		.cfi_restore 14
 187              		.cfi_def_cfa_offset 12
 188 001a 03B0     		add	sp, sp, #12
 189              		.cfi_restore 3
 190              		.cfi_restore 2
 191              		.cfi_restore 1
 192              		.cfi_def_cfa_offset 0
 193 001c 7047     		bx	lr
 194              	.L22:
 195 001e 00BF     		.align	2
 196              	.L21:
 197 0020 00000000 		.word	.LC0
 198 0024 00000000 		.word	itm_port
 199              		.cfi_endproc
 200              	.LFE265:
 201              		.size	chprintf.constprop.0, .-chprintf.constprop.0
 202 0028 AFF30080 		.section	.text.inet_chksum_pseudo,"ax",%progbits
 202      AFF30080 
 203              		.align	2
 204              		.p2align 4,,15
 205              		.global	inet_chksum_pseudo
 206              		.thumb
 207              		.thumb_func
 208              		.type	inet_chksum_pseudo, %function
 209              	inet_chksum_pseudo:
 210              	.LFB261:
 211              		.loc 1 275 0
 212              		.cfi_startproc
 213              		@ args = 4, pretend = 0, frame = 0
 214              		@ frame_needed = 0, uses_anonymous_args = 0
 215              	.LVL23:
 216 0000 2DE9F047 		push	{r4, r5, r6, r7, r8, r9, r10, lr}
 217              		.cfi_def_cfa_offset 32
 218              		.cfi_offset 4, -32
 219              		.cfi_offset 5, -28
 220              		.cfi_offset 6, -24
 221              		.cfi_offset 7, -20
 222              		.cfi_offset 8, -16
 223              		.cfi_offset 9, -12
 224              		.cfi_offset 10, -8
 225              		.cfi_offset 14, -4
ARM GAS  C:\Users\jo\AppData\Local\Temp\cclhP7jn.s 			page 5


 226              		.loc 1 275 0
 227 0004 8A46     		mov	r10, r1
 228 0006 9146     		mov	r9, r2
 229 0008 9846     		mov	r8, r3
 230 000a BDF82070 		ldrh	r7, [sp, #32]
 231              		.loc 1 284 0
 232 000e 0546     		mov	r5, r0
 233 0010 0028     		cmp	r0, #0
 234 0012 3BD0     		beq	.L27
 235 0014 0026     		movs	r6, #0
 236 0016 3446     		mov	r4, r6
 237              	.LVL24:
 238              	.L26:
 239              		.loc 1 287 0
 240 0018 6868     		ldr	r0, [r5, #4]
 241 001a 6989     		ldrh	r1, [r5, #10]
 242 001c FFF7FEFF 		bl	lwip_standard_chksum
 243              	.LVL25:
 244              		.loc 1 292 0
 245 0020 6B89     		ldrh	r3, [r5, #10]
 246              		.loc 1 287 0
 247 0022 2044     		add	r0, r0, r4
 248              	.LVL26:
 249              		.loc 1 291 0
 250 0024 84B2     		uxth	r4, r0
 251              		.loc 1 292 0
 252 0026 DB07     		lsls	r3, r3, #31
 253              		.loc 1 291 0
 254 0028 04EB1044 		add	r4, r4, r0, lsr #16
 255              	.LVL27:
 256              		.loc 1 292 0
 257 002c 07D5     		bpl	.L25
 258              		.loc 1 294 0
 259 002e 2302     		lsls	r3, r4, #8
 260              		.loc 1 293 0
 261 0030 C6F10106 		rsb	r6, r6, #1
 262              	.LVL28:
 263              		.loc 1 294 0
 264 0034 9BB2     		uxth	r3, r3
 265 0036 C4F30724 		ubfx	r4, r4, #8, #8
 266              	.LVL29:
 267              		.loc 1 293 0
 268 003a F6B2     		uxtb	r6, r6
 269              	.LVL30:
 270              		.loc 1 294 0
 271 003c 1C43     		orrs	r4, r4, r3
 272              	.LVL31:
 273              	.L25:
 274              		.loc 1 284 0 discriminator 2
 275 003e 2D68     		ldr	r5, [r5]
 276              	.LVL32:
 277 0040 002D     		cmp	r5, #0
 278 0042 E9D1     		bne	.L26
 279              		.loc 1 299 0
 280 0044 26B1     		cbz	r6, .L24
 281              		.loc 1 300 0
 282 0046 2302     		lsls	r3, r4, #8
ARM GAS  C:\Users\jo\AppData\Local\Temp\cclhP7jn.s 			page 6


 283 0048 9BB2     		uxth	r3, r3
 284 004a C4F30724 		ubfx	r4, r4, #8, #8
 285              	.LVL33:
 286 004e 1C43     		orrs	r4, r4, r3
 287              	.LVL34:
 288              	.L24:
 289              		.loc 1 302 0
 290 0050 DAF80030 		ldr	r3, [r10]
 291              	.LVL35:
 292              		.loc 1 305 0
 293 0054 D9F80010 		ldr	r1, [r9]
 294              	.LVL36:
 295              		.loc 1 303 0
 296 0058 9AB2     		uxth	r2, r3
 297 005a 02EB1343 		add	r3, r2, r3, lsr #16
 298              	.LVL37:
 299 005e 13FA81F3 		uxtah	r3, r3, r1
 300 0062 03EB1143 		add	r3, r3, r1, lsr #16
 301              		.loc 1 308 0
 302 0066 4046     		mov	r0, r8
 303              		.loc 1 307 0
 304 0068 1C44     		add	r4, r4, r3
 305              	.LVL38:
 306              		.loc 1 308 0
 307 006a FFF7FEFF 		bl	lwip_htons
 308              	.LVL39:
 309 006e 0444     		add	r4, r4, r0
 310              	.LVL40:
 311              		.loc 1 309 0
 312 0070 3846     		mov	r0, r7
 313 0072 FFF7FEFF 		bl	lwip_htons
 314              	.LVL41:
 315 0076 2044     		add	r0, r0, r4
 316              	.LVL42:
 317              		.loc 1 313 0
 318 0078 83B2     		uxth	r3, r0
 319 007a 03EB1040 		add	r0, r3, r0, lsr #16
 320              	.LVL43:
 321              		.loc 1 314 0
 322 007e 83B2     		uxth	r3, r0
 323              	.LVL44:
 324 0080 03EB1040 		add	r0, r3, r0, lsr #16
 325              	.LVL45:
 326              		.loc 1 316 0
 327 0084 C043     		mvns	r0, r0
 328              	.LVL46:
 329              		.loc 1 317 0
 330 0086 80B2     		uxth	r0, r0
 331              	.LVL47:
 332 0088 BDE8F087 		pop	{r4, r5, r6, r7, r8, r9, r10, pc}
 333              	.LVL48:
 334              	.L27:
 335              		.loc 1 281 0
 336 008c 0446     		mov	r4, r0
 337 008e DFE7     		b	.L24
 338              		.cfi_endproc
 339              	.LFE261:
ARM GAS  C:\Users\jo\AppData\Local\Temp\cclhP7jn.s 			page 7


 340              		.size	inet_chksum_pseudo, .-inet_chksum_pseudo
 341              		.section	.text.inet_chksum_pseudo_partial,"ax",%progbits
 342              		.align	2
 343              		.p2align 4,,15
 344              		.global	inet_chksum_pseudo_partial
 345              		.thumb
 346              		.thumb_func
 347              		.type	inet_chksum_pseudo_partial, %function
 348              	inet_chksum_pseudo_partial:
 349              	.LFB262:
 350              		.loc 1 335 0
 351              		.cfi_startproc
 352              		@ args = 8, pretend = 0, frame = 8
 353              		@ frame_needed = 0, uses_anonymous_args = 0
 354              	.LVL49:
 355 0000 2DE9F04F 		push	{r4, r5, r6, r7, r8, r9, r10, fp, lr}
 356              		.cfi_def_cfa_offset 36
 357              		.cfi_offset 4, -36
 358              		.cfi_offset 5, -32
 359              		.cfi_offset 6, -28
 360              		.cfi_offset 7, -24
 361              		.cfi_offset 8, -20
 362              		.cfi_offset 9, -16
 363              		.cfi_offset 10, -12
 364              		.cfi_offset 11, -8
 365              		.cfi_offset 14, -4
 366 0004 85B0     		sub	sp, sp, #20
 367              		.cfi_def_cfa_offset 56
 368              		.loc 1 335 0
 369 0006 8B46     		mov	fp, r1
 370 0008 0293     		str	r3, [sp, #8]
 371 000a BDF83830 		ldrh	r3, [sp, #56]
 372              	.LVL50:
 373 000e 0393     		str	r3, [sp, #12]
 374 0010 9246     		mov	r10, r2
 375 0012 BDF83C70 		ldrh	r7, [sp, #60]
 376              	.LVL51:
 377              		.loc 1 345 0
 378 0016 0546     		mov	r5, r0
 379 0018 0028     		cmp	r0, #0
 380 001a 5BD0     		beq	.L44
 381 001c 002F     		cmp	r7, #0
 382 001e 5BD0     		beq	.L45
 383 0020 0026     		movs	r6, #0
 384              		.loc 1 354 0
 385 0022 DFF8C480 		ldr	r8, .L51+12
 386              		.loc 1 345 0
 387 0026 3446     		mov	r4, r6
 388 0028 10E0     		b	.L42
 389              	.LVL52:
 390              	.L38:
 391              		.loc 1 358 0
 392 002a 6B89     		ldrh	r3, [r5, #10]
 393              		.loc 1 357 0
 394 002c A2B2     		uxth	r2, r4
 395              		.loc 1 358 0
 396 002e DB07     		lsls	r3, r3, #31
ARM GAS  C:\Users\jo\AppData\Local\Temp\cclhP7jn.s 			page 8


 397              		.loc 1 357 0
 398 0030 02EB1444 		add	r4, r2, r4, lsr #16
 399              	.LVL53:
 400              		.loc 1 358 0
 401 0034 07D5     		bpl	.L39
 402              		.loc 1 360 0
 403 0036 2302     		lsls	r3, r4, #8
 404 0038 9BB2     		uxth	r3, r3
 405 003a C4F30724 		ubfx	r4, r4, #8, #8
 406              	.LVL54:
 407              		.loc 1 359 0
 408 003e C6F10106 		rsb	r6, r6, #1
 409              	.LVL55:
 410              		.loc 1 360 0
 411 0042 1C43     		orrs	r4, r4, r3
 412              		.loc 1 359 0
 413 0044 F6B2     		uxtb	r6, r6
 414              	.LVL56:
 415              	.L39:
 416              		.loc 1 345 0 discriminator 2
 417 0046 2D68     		ldr	r5, [r5]
 418              	.LVL57:
 419 0048 FDB1     		cbz	r5, .L43
 420              		.loc 1 345 0 is_stmt 0 discriminator 3
 421 004a F7B1     		cbz	r7, .L43
 422              	.LVL58:
 423              	.L42:
 424              		.loc 1 348 0 is_stmt 1
 425 004c 6B89     		ldrh	r3, [r5, #10]
 426              	.LVL59:
 427              		.loc 1 352 0
 428 004e 6868     		ldr	r0, [r5, #4]
 429 0050 BB42     		cmp	r3, r7
 430 0052 28BF     		it	cs
 431 0054 3B46     		movcs	r3, r7
 432              	.LVL60:
 433 0056 9946     		mov	r9, r3
 434              	.LVL61:
 435 0058 1946     		mov	r1, r3
 436 005a FFF7FEFF 		bl	lwip_standard_chksum
 437              	.LVL62:
 438              		.loc 1 353 0
 439 005e C9EB070C 		rsb	ip, r9, r7
 440 0062 1FFA8CF7 		uxth	r7, ip
 441              	.LVL63:
 442              		.loc 1 354 0
 443 0066 47F6FE73 		movw	r3, #32766
 444 006a 9F42     		cmp	r7, r3
 445              		.loc 1 352 0
 446 006c 0444     		add	r4, r4, r0
 447              	.LVL64:
 448              		.loc 1 354 0
 449 006e DCD9     		bls	.L38
 450              		.loc 1 354 0 is_stmt 0 discriminator 1
 451 0070 CDF80080 		str	r8, [sp]
 452 0074 1949     		ldr	r1, .L51
 453 0076 1A4A     		ldr	r2, .L51+4
ARM GAS  C:\Users\jo\AppData\Local\Temp\cclhP7jn.s 			page 9


 454 0078 1A48     		ldr	r0, .L51+8
 455 007a 4FF4B173 		mov	r3, #354
 456 007e FFF7FEFF 		bl	chprintf.constprop.0
 457              	.LVL65:
 458              	.LBB4:
 459              	.LBB5:
 460              		.file 3 "../../../os/hal/osal/rt/osal.h"
 461              		.loc 3 416 0 is_stmt 1 discriminator 1
 462 0082 1748     		ldr	r0, .L51+4
 463 0084 FFF7FEFF 		bl	chSysHalt
 464              	.LVL66:
 465 0088 CFE7     		b	.L38
 466              	.LVL67:
 467              	.L43:
 468              	.LBE5:
 469              	.LBE4:
 470              		.loc 1 365 0
 471 008a 26B1     		cbz	r6, .L37
 472              		.loc 1 366 0
 473 008c 2302     		lsls	r3, r4, #8
 474 008e 9BB2     		uxth	r3, r3
 475 0090 C4F30724 		ubfx	r4, r4, #8, #8
 476              	.LVL68:
 477 0094 1C43     		orrs	r4, r4, r3
 478              	.LVL69:
 479              	.L37:
 480              		.loc 1 368 0
 481 0096 DBF80030 		ldr	r3, [fp]
 482              	.LVL70:
 483              		.loc 1 371 0
 484 009a DAF80010 		ldr	r1, [r10]
 485              	.LVL71:
 486              		.loc 1 374 0
 487 009e 0298     		ldr	r0, [sp, #8]
 488              		.loc 1 369 0
 489 00a0 9AB2     		uxth	r2, r3
 490 00a2 02EB1343 		add	r3, r2, r3, lsr #16
 491              	.LVL72:
 492 00a6 13FA81F3 		uxtah	r3, r3, r1
 493 00aa 03EB1143 		add	r3, r3, r1, lsr #16
 494              		.loc 1 373 0
 495 00ae 1C44     		add	r4, r4, r3
 496              	.LVL73:
 497              		.loc 1 374 0
 498 00b0 FFF7FEFF 		bl	lwip_htons
 499              	.LVL74:
 500 00b4 0444     		add	r4, r4, r0
 501              	.LVL75:
 502              		.loc 1 375 0
 503 00b6 0398     		ldr	r0, [sp, #12]
 504 00b8 FFF7FEFF 		bl	lwip_htons
 505              	.LVL76:
 506 00bc 2044     		add	r0, r0, r4
 507              	.LVL77:
 508              		.loc 1 379 0
 509 00be 83B2     		uxth	r3, r0
 510 00c0 03EB1040 		add	r0, r3, r0, lsr #16
ARM GAS  C:\Users\jo\AppData\Local\Temp\cclhP7jn.s 			page 10


 511              	.LVL78:
 512              		.loc 1 380 0
 513 00c4 83B2     		uxth	r3, r0
 514              	.LVL79:
 515 00c6 03EB1040 		add	r0, r3, r0, lsr #16
 516              	.LVL80:
 517              		.loc 1 382 0
 518 00ca C043     		mvns	r0, r0
 519              	.LVL81:
 520              		.loc 1 383 0
 521 00cc 80B2     		uxth	r0, r0
 522              	.LVL82:
 523 00ce 05B0     		add	sp, sp, #20
 524              		.cfi_remember_state
 525              		.cfi_def_cfa_offset 36
 526              		@ sp needed
 527 00d0 BDE8F08F 		pop	{r4, r5, r6, r7, r8, r9, r10, fp, pc}
 528              	.LVL83:
 529              	.L44:
 530              		.cfi_restore_state
 531              		.loc 1 345 0
 532 00d4 0446     		mov	r4, r0
 533 00d6 DEE7     		b	.L37
 534              	.L45:
 535 00d8 3C46     		mov	r4, r7
 536 00da DCE7     		b	.L37
 537              	.L52:
 538              		.align	2
 539              	.L51:
 540 00dc 00000000 		.word	.LC0
 541 00e0 28000000 		.word	.LC1
 542 00e4 00000000 		.word	itm_port
 543 00e8 34000000 		.word	.LC2
 544              		.cfi_endproc
 545              	.LFE262:
 546              		.size	inet_chksum_pseudo_partial, .-inet_chksum_pseudo_partial
 547 00ec AFF30080 		.section	.text.inet_chksum,"ax",%progbits
 548              		.align	2
 549              		.p2align 4,,15
 550              		.global	inet_chksum
 551              		.thumb
 552              		.thumb_func
 553              		.type	inet_chksum, %function
 554              	inet_chksum:
 555              	.LFB263:
 556              		.loc 1 397 0
 557              		.cfi_startproc
 558              		@ args = 0, pretend = 0, frame = 0
 559              		@ frame_needed = 0, uses_anonymous_args = 0
 560              	.LVL84:
 561 0000 08B5     		push	{r3, lr}
 562              		.cfi_def_cfa_offset 8
 563              		.cfi_offset 3, -8
 564              		.cfi_offset 14, -4
 565              		.loc 1 398 0
 566 0002 FFF7FEFF 		bl	lwip_standard_chksum
 567              	.LVL85:
ARM GAS  C:\Users\jo\AppData\Local\Temp\cclhP7jn.s 			page 11


 568 0006 C043     		mvns	r0, r0
 569              		.loc 1 399 0
 570 0008 80B2     		uxth	r0, r0
 571 000a 08BD     		pop	{r3, pc}
 572              		.cfi_endproc
 573              	.LFE263:
 574              		.size	inet_chksum, .-inet_chksum
 575 000c AFF30080 		.section	.text.inet_chksum_pbuf,"ax",%progbits
 576              		.align	2
 577              		.p2align 4,,15
 578              		.global	inet_chksum_pbuf
 579              		.thumb
 580              		.thumb_func
 581              		.type	inet_chksum_pbuf, %function
 582              	inet_chksum_pbuf:
 583              	.LFB264:
 584              		.loc 1 410 0
 585              		.cfi_startproc
 586              		@ args = 0, pretend = 0, frame = 0
 587              		@ frame_needed = 0, uses_anonymous_args = 0
 588              	.LVL86:
 589 0000 70B5     		push	{r4, r5, r6, lr}
 590              		.cfi_def_cfa_offset 16
 591              		.cfi_offset 4, -16
 592              		.cfi_offset 5, -12
 593              		.cfi_offset 6, -8
 594              		.cfi_offset 14, -4
 595              		.loc 1 417 0
 596 0002 0546     		mov	r5, r0
 597 0004 00B3     		cbz	r0, .L60
 598 0006 0026     		movs	r6, #0
 599 0008 3446     		mov	r4, r6
 600              	.LVL87:
 601              	.L58:
 602              		.loc 1 418 0
 603 000a 6868     		ldr	r0, [r5, #4]
 604 000c 6989     		ldrh	r1, [r5, #10]
 605 000e FFF7FEFF 		bl	lwip_standard_chksum
 606              	.LVL88:
 607              		.loc 1 420 0
 608 0012 6B89     		ldrh	r3, [r5, #10]
 609              		.loc 1 418 0
 610 0014 2044     		add	r0, r0, r4
 611              	.LVL89:
 612              		.loc 1 419 0
 613 0016 84B2     		uxth	r4, r0
 614              		.loc 1 420 0
 615 0018 DB07     		lsls	r3, r3, #31
 616              		.loc 1 419 0
 617 001a 04EB1044 		add	r4, r4, r0, lsr #16
 618              	.LVL90:
 619              		.loc 1 420 0
 620 001e 07D5     		bpl	.L57
 621              		.loc 1 422 0
 622 0020 2302     		lsls	r3, r4, #8
 623              		.loc 1 421 0
 624 0022 C6F10106 		rsb	r6, r6, #1
ARM GAS  C:\Users\jo\AppData\Local\Temp\cclhP7jn.s 			page 12


 625              	.LVL91:
 626              		.loc 1 422 0
 627 0026 9BB2     		uxth	r3, r3
 628 0028 C4F30724 		ubfx	r4, r4, #8, #8
 629              	.LVL92:
 630              		.loc 1 421 0
 631 002c F6B2     		uxtb	r6, r6
 632              	.LVL93:
 633              		.loc 1 422 0
 634 002e 1C43     		orrs	r4, r4, r3
 635              	.LVL94:
 636              	.L57:
 637              		.loc 1 417 0 discriminator 2
 638 0030 2D68     		ldr	r5, [r5]
 639              	.LVL95:
 640 0032 002D     		cmp	r5, #0
 641 0034 E9D1     		bne	.L58
 642              		.loc 1 426 0
 643 0036 26B1     		cbz	r6, .L66
 644              		.loc 1 427 0
 645 0038 2002     		lsls	r0, r4, #8
 646 003a 80B2     		uxth	r0, r0
 647 003c C4F30724 		ubfx	r4, r4, #8, #8
 648              	.LVL96:
 649 0040 0443     		orrs	r4, r4, r0
 650              	.LVL97:
 651              	.L66:
 652 0042 E443     		mvns	r4, r4
 653              	.LVL98:
 654 0044 A0B2     		uxth	r0, r4
 655 0046 70BD     		pop	{r4, r5, r6, pc}
 656              	.LVL99:
 657              	.L60:
 658              		.loc 1 417 0
 659 0048 4FF6FF70 		movw	r0, #65535
 660              	.LVL100:
 661              		.loc 1 430 0
 662 004c 70BD     		pop	{r4, r5, r6, pc}
 663              		.cfi_endproc
 664              	.LFE264:
 665              		.size	inet_chksum_pbuf, .-inet_chksum_pbuf
 666 004e 00BF     		.section	.rodata.str1.4,"aMS",%progbits,1
 667              		.align	2
 668              	.LC0:
 669 0000 41737365 		.ascii	"Assertion \"%s\" failed at line %d in %s\012\000"
 669      7274696F 
 669      6E202225 
 669      73222066 
 669      61696C65 
 670              	.LC1:
 671 0028 64656C65 		.ascii	"delete me\000"
 671      7465206D 
 671      6500
 672 0032 0000     		.space	2
 673              	.LC2:
 674 0034 2E2E2F2E 		.ascii	"../../../ext/lwip/src/core/ipv4/inet_chksum.c\000"
 674      2E2F2E2E 
ARM GAS  C:\Users\jo\AppData\Local\Temp\cclhP7jn.s 			page 13


 674      2F657874 
 674      2F6C7769 
 674      702F7372 
 675 0062 0000     		.text
 676              	.Letext0:
 677              		.file 4 "c:\\program files\\gnu tools arm embedded\\4.9 2014q4\\lib\\gcc\\arm-none-eabi\\4.9.3\\in
 678              		.file 5 "c:\\program files\\gnu tools arm embedded\\4.9 2014q4\\arm-none-eabi\\include\\machine\\_
 679              		.file 6 "c:\\program files\\gnu tools arm embedded\\4.9 2014q4\\arm-none-eabi\\include\\stdint.h"
 680              		.file 7 "../../../os/rt/ports/ARMCMx/compilers/GCC/chtypes.h"
 681              		.file 8 "../../../os/rt/include/chsystypes.h"
 682              		.file 9 "../../../os/rt/include/chschd.h"
 683              		.file 10 "../../../os/rt/ports/ARMCMx/chcore.h"
 684              		.file 11 "../../../os/rt/ports/ARMCMx/chcore_v7m.h"
 685              		.file 12 "../../../os/rt/include/chdebug.h"
 686              		.file 13 "../../../os/rt/include/chtm.h"
 687              		.file 14 "../../../os/rt/include/chsem.h"
 688              		.file 15 "../../../os/rt/include/chmtx.h"
 689              		.file 16 "../../../os/rt/include/chstreams.h"
 690              		.file 17 "./ITM_trace.h"
 691              		.file 18 "c:\\program files\\gnu tools arm embedded\\4.9 2014q4\\lib\\gcc\\arm-none-eabi\\4.9.3\\i
 692              		.file 19 "<built-in>"
 693              		.file 20 "../../../os/various/lwip_bindings/arch/cc.h"
 694              		.file 21 "../../../ext/lwip/src/include/lwip/pbuf.h"
 695              		.file 22 "../../../ext/lwip/src/include/ipv4/lwip/ip_addr.h"
 696              		.file 23 "../../../os/ext/CMSIS/include/core_cm4.h"
 697              		.file 24 "../../../ext/lwip/src/include/lwip/def.h"
 698              		.file 25 "../../../os/rt/include/chsys.h"
 699              		.section	.debug_info,"",%progbits
 700              	.Ldebug_info0:
 701 0000 F50D0000 		.4byte	0xdf5
 702 0004 0400     		.2byte	0x4
 703 0006 00000000 		.4byte	.Ldebug_abbrev0
 704 000a 04       		.byte	0x4
 705 000b 01       		.uleb128 0x1
 706 000c 40030000 		.4byte	.LASF161
 707 0010 01       		.byte	0x1
 708 0011 2C020000 		.4byte	.LASF162
 709 0015 13010000 		.4byte	.LASF163
 710 0019 00000000 		.4byte	.Ldebug_ranges0+0
 711 001d 00000000 		.4byte	0
 712 0021 00000000 		.4byte	.Ldebug_line0
 713 0025 02       		.uleb128 0x2
 714 0026 04       		.byte	0x4
 715 0027 05       		.byte	0x5
 716 0028 696E7400 		.ascii	"int\000"
 717 002c 03       		.uleb128 0x3
 718 002d 15000000 		.4byte	.LASF2
 719 0031 04       		.byte	0x4
 720 0032 D4       		.byte	0xd4
 721 0033 37000000 		.4byte	0x37
 722 0037 04       		.uleb128 0x4
 723 0038 04       		.byte	0x4
 724 0039 07       		.byte	0x7
 725 003a 97020000 		.4byte	.LASF0
 726 003e 04       		.uleb128 0x4
 727 003f 01       		.byte	0x1
 728 0040 06       		.byte	0x6
ARM GAS  C:\Users\jo\AppData\Local\Temp\cclhP7jn.s 			page 14


 729 0041 77010000 		.4byte	.LASF1
 730 0045 03       		.uleb128 0x3
 731 0046 47000000 		.4byte	.LASF3
 732 004a 05       		.byte	0x5
 733 004b 1D       		.byte	0x1d
 734 004c 50000000 		.4byte	0x50
 735 0050 04       		.uleb128 0x4
 736 0051 01       		.byte	0x1
 737 0052 08       		.byte	0x8
 738 0053 8B050000 		.4byte	.LASF4
 739 0057 03       		.uleb128 0x3
 740 0058 22020000 		.4byte	.LASF5
 741 005c 05       		.byte	0x5
 742 005d 29       		.byte	0x29
 743 005e 62000000 		.4byte	0x62
 744 0062 04       		.uleb128 0x4
 745 0063 02       		.byte	0x2
 746 0064 05       		.byte	0x5
 747 0065 AB050000 		.4byte	.LASF6
 748 0069 03       		.uleb128 0x3
 749 006a 85060000 		.4byte	.LASF7
 750 006e 05       		.byte	0x5
 751 006f 2B       		.byte	0x2b
 752 0070 74000000 		.4byte	0x74
 753 0074 04       		.uleb128 0x4
 754 0075 02       		.byte	0x2
 755 0076 07       		.byte	0x7
 756 0077 CA020000 		.4byte	.LASF8
 757 007b 03       		.uleb128 0x3
 758 007c 2B030000 		.4byte	.LASF9
 759 0080 05       		.byte	0x5
 760 0081 3F       		.byte	0x3f
 761 0082 86000000 		.4byte	0x86
 762 0086 04       		.uleb128 0x4
 763 0087 04       		.byte	0x4
 764 0088 05       		.byte	0x5
 765 0089 AA010000 		.4byte	.LASF10
 766 008d 03       		.uleb128 0x3
 767 008e CB060000 		.4byte	.LASF11
 768 0092 05       		.byte	0x5
 769 0093 41       		.byte	0x41
 770 0094 98000000 		.4byte	0x98
 771 0098 04       		.uleb128 0x4
 772 0099 04       		.byte	0x4
 773 009a 07       		.byte	0x7
 774 009b 57060000 		.4byte	.LASF12
 775 009f 04       		.uleb128 0x4
 776 00a0 08       		.byte	0x8
 777 00a1 05       		.byte	0x5
 778 00a2 69010000 		.4byte	.LASF13
 779 00a6 03       		.uleb128 0x3
 780 00a7 31040000 		.4byte	.LASF14
 781 00ab 05       		.byte	0x5
 782 00ac 5B       		.byte	0x5b
 783 00ad B1000000 		.4byte	0xb1
 784 00b1 04       		.uleb128 0x4
 785 00b2 08       		.byte	0x8
ARM GAS  C:\Users\jo\AppData\Local\Temp\cclhP7jn.s 			page 15


 786 00b3 07       		.byte	0x7
 787 00b4 8F000000 		.4byte	.LASF15
 788 00b8 03       		.uleb128 0x3
 789 00b9 62070000 		.4byte	.LASF16
 790 00bd 06       		.byte	0x6
 791 00be 15       		.byte	0x15
 792 00bf 45000000 		.4byte	0x45
 793 00c3 03       		.uleb128 0x3
 794 00c4 61010000 		.4byte	.LASF17
 795 00c8 06       		.byte	0x6
 796 00c9 20       		.byte	0x20
 797 00ca 57000000 		.4byte	0x57
 798 00ce 03       		.uleb128 0x3
 799 00cf DF010000 		.4byte	.LASF18
 800 00d3 06       		.byte	0x6
 801 00d4 21       		.byte	0x21
 802 00d5 69000000 		.4byte	0x69
 803 00d9 03       		.uleb128 0x3
 804 00da 83050000 		.4byte	.LASF19
 805 00de 06       		.byte	0x6
 806 00df 2C       		.byte	0x2c
 807 00e0 7B000000 		.4byte	0x7b
 808 00e4 03       		.uleb128 0x3
 809 00e5 E8010000 		.4byte	.LASF20
 810 00e9 06       		.byte	0x6
 811 00ea 2D       		.byte	0x2d
 812 00eb 8D000000 		.4byte	0x8d
 813 00ef 03       		.uleb128 0x3
 814 00f0 23000000 		.4byte	.LASF21
 815 00f4 06       		.byte	0x6
 816 00f5 39       		.byte	0x39
 817 00f6 A6000000 		.4byte	0xa6
 818 00fa 05       		.uleb128 0x5
 819 00fb D9000000 		.4byte	0xd9
 820 00ff 03       		.uleb128 0x3
 821 0100 FF060000 		.4byte	.LASF22
 822 0104 07       		.byte	0x7
 823 0105 45       		.byte	0x45
 824 0106 E4000000 		.4byte	0xe4
 825 010a 03       		.uleb128 0x3
 826 010b 09030000 		.4byte	.LASF23
 827 010f 07       		.byte	0x7
 828 0110 48       		.byte	0x48
 829 0111 B8000000 		.4byte	0xb8
 830 0115 03       		.uleb128 0x3
 831 0116 C6010000 		.4byte	.LASF24
 832 011a 07       		.byte	0x7
 833 011b 49       		.byte	0x49
 834 011c B8000000 		.4byte	0xb8
 835 0120 03       		.uleb128 0x3
 836 0121 00000000 		.4byte	.LASF25
 837 0125 07       		.byte	0x7
 838 0126 4A       		.byte	0x4a
 839 0127 B8000000 		.4byte	0xb8
 840 012b 03       		.uleb128 0x3
 841 012c 59050000 		.4byte	.LASF26
 842 0130 07       		.byte	0x7
ARM GAS  C:\Users\jo\AppData\Local\Temp\cclhP7jn.s 			page 16


 843 0131 4C       		.byte	0x4c
 844 0132 E4000000 		.4byte	0xe4
 845 0136 03       		.uleb128 0x3
 846 0137 E7020000 		.4byte	.LASF27
 847 013b 07       		.byte	0x7
 848 013c 4D       		.byte	0x4d
 849 013d D9000000 		.4byte	0xd9
 850 0141 03       		.uleb128 0x3
 851 0142 1F030000 		.4byte	.LASF28
 852 0146 07       		.byte	0x7
 853 0147 4F       		.byte	0x4f
 854 0148 E4000000 		.4byte	0xe4
 855 014c 03       		.uleb128 0x3
 856 014d 86020000 		.4byte	.LASF29
 857 0151 07       		.byte	0x7
 858 0152 51       		.byte	0x51
 859 0153 D9000000 		.4byte	0xd9
 860 0157 03       		.uleb128 0x3
 861 0158 AD060000 		.4byte	.LASF30
 862 015c 08       		.byte	0x8
 863 015d 33       		.byte	0x33
 864 015e E4000000 		.4byte	0xe4
 865 0162 03       		.uleb128 0x3
 866 0163 9D060000 		.4byte	.LASF31
 867 0167 08       		.byte	0x8
 868 0168 3F       		.byte	0x3f
 869 0169 6D010000 		.4byte	0x16d
 870 016d 06       		.uleb128 0x6
 871 016e DD020000 		.4byte	.LASF52
 872 0172 48       		.byte	0x48
 873 0173 09       		.byte	0x9
 874 0174 C2       		.byte	0xc2
 875 0175 66020000 		.4byte	0x266
 876 0179 07       		.uleb128 0x7
 877 017a D3050000 		.4byte	.LASF32
 878 017e 09       		.byte	0x9
 879 017f C3       		.byte	0xc3
 880 0180 71020000 		.4byte	0x271
 881 0184 00       		.byte	0
 882 0185 07       		.uleb128 0x7
 883 0186 52050000 		.4byte	.LASF33
 884 018a 09       		.byte	0x9
 885 018b C5       		.byte	0xc5
 886 018c 71020000 		.4byte	0x271
 887 0190 04       		.byte	0x4
 888 0191 07       		.uleb128 0x7
 889 0192 0C010000 		.4byte	.LASF34
 890 0196 09       		.byte	0x9
 891 0197 C7       		.byte	0xc7
 892 0198 2B010000 		.4byte	0x12b
 893 019c 08       		.byte	0x8
 894 019d 07       		.uleb128 0x7
 895 019e CB070000 		.4byte	.LASF35
 896 01a2 09       		.byte	0x9
 897 01a3 C8       		.byte	0xc8
 898 01a4 CC040000 		.4byte	0x4cc
 899 01a8 0C       		.byte	0xc
ARM GAS  C:\Users\jo\AppData\Local\Temp\cclhP7jn.s 			page 17


 900 01a9 07       		.uleb128 0x7
 901 01aa F1010000 		.4byte	.LASF36
 902 01ae 09       		.byte	0x9
 903 01af CA       		.byte	0xca
 904 01b0 71020000 		.4byte	0x271
 905 01b4 10       		.byte	0x10
 906 01b5 07       		.uleb128 0x7
 907 01b6 BD050000 		.4byte	.LASF37
 908 01ba 09       		.byte	0x9
 909 01bb CB       		.byte	0xcb
 910 01bc 71020000 		.4byte	0x271
 911 01c0 14       		.byte	0x14
 912 01c1 07       		.uleb128 0x7
 913 01c2 66050000 		.4byte	.LASF38
 914 01c6 09       		.byte	0x9
 915 01c7 D2       		.byte	0xd2
 916 01c8 DE060000 		.4byte	0x6de
 917 01cc 18       		.byte	0x18
 918 01cd 07       		.uleb128 0x7
 919 01ce 8C020000 		.4byte	.LASF39
 920 01d2 09       		.byte	0x9
 921 01d3 D8       		.byte	0xd8
 922 01d4 F0060000 		.4byte	0x6f0
 923 01d8 1C       		.byte	0x1c
 924 01d9 07       		.uleb128 0x7
 925 01da B5050000 		.4byte	.LASF40
 926 01de 09       		.byte	0x9
 927 01df DD       		.byte	0xdd
 928 01e0 15010000 		.4byte	0x115
 929 01e4 20       		.byte	0x20
 930 01e5 07       		.uleb128 0x7
 931 01e6 E2050000 		.4byte	.LASF41
 932 01ea 09       		.byte	0x9
 933 01eb E1       		.byte	0xe1
 934 01ec 0A010000 		.4byte	0x10a
 935 01f0 21       		.byte	0x21
 936 01f1 07       		.uleb128 0x7
 937 01f2 4D070000 		.4byte	.LASF42
 938 01f6 09       		.byte	0x9
 939 01f7 E6       		.byte	0xe6
 940 01f8 20010000 		.4byte	0x120
 941 01fc 22       		.byte	0x22
 942 01fd 08       		.uleb128 0x8
 943 01fe 705F7500 		.ascii	"p_u\000"
 944 0202 09       		.byte	0x9
 945 0203 3101     		.2byte	0x131
 946 0205 19060000 		.4byte	0x619
 947 0209 24       		.byte	0x24
 948 020a 09       		.uleb128 0x9
 949 020b 4C040000 		.4byte	.LASF43
 950 020f 09       		.byte	0x9
 951 0210 3601     		.2byte	0x136
 952 0212 77020000 		.4byte	0x277
 953 0216 28       		.byte	0x28
 954 0217 09       		.uleb128 0x9
 955 0218 B3020000 		.4byte	.LASF44
 956 021c 09       		.byte	0x9
ARM GAS  C:\Users\jo\AppData\Local\Temp\cclhP7jn.s 			page 18


 957 021d 3C01     		.2byte	0x13c
 958 021f 9B020000 		.4byte	0x29b
 959 0223 2C       		.byte	0x2c
 960 0224 09       		.uleb128 0x9
 961 0225 B3070000 		.4byte	.LASF45
 962 0229 09       		.byte	0x9
 963 022a 4001     		.2byte	0x140
 964 022c 36010000 		.4byte	0x136
 965 0230 34       		.byte	0x34
 966 0231 09       		.uleb128 0x9
 967 0232 15060000 		.4byte	.LASF46
 968 0236 09       		.byte	0x9
 969 0237 4601     		.2byte	0x146
 970 0239 41010000 		.4byte	0x141
 971 023d 38       		.byte	0x38
 972 023e 09       		.uleb128 0x9
 973 023f A1050000 		.4byte	.LASF47
 974 0243 09       		.byte	0x9
 975 0244 4D01     		.2byte	0x14d
 976 0246 D8060000 		.4byte	0x6d8
 977 024a 3C       		.byte	0x3c
 978 024b 09       		.uleb128 0x9
 979 024c B7060000 		.4byte	.LASF48
 980 0250 09       		.byte	0x9
 981 0251 5101     		.2byte	0x151
 982 0253 2B010000 		.4byte	0x12b
 983 0257 40       		.byte	0x40
 984 0258 09       		.uleb128 0x9
 985 0259 83010000 		.4byte	.LASF49
 986 025d 09       		.byte	0x9
 987 025e 5801     		.2byte	0x158
 988 0260 4E030000 		.4byte	0x34e
 989 0264 44       		.byte	0x44
 990 0265 00       		.byte	0
 991 0266 03       		.uleb128 0x3
 992 0267 79040000 		.4byte	.LASF50
 993 026b 08       		.byte	0x8
 994 026c 44       		.byte	0x44
 995 026d 71020000 		.4byte	0x271
 996 0271 0A       		.uleb128 0xa
 997 0272 04       		.byte	0x4
 998 0273 62010000 		.4byte	0x162
 999 0277 03       		.uleb128 0x3
 1000 0278 97070000 		.4byte	.LASF51
 1001 027c 08       		.byte	0x8
 1002 027d 49       		.byte	0x49
 1003 027e 82020000 		.4byte	0x282
 1004 0282 06       		.uleb128 0x6
 1005 0283 ED020000 		.4byte	.LASF53
 1006 0287 04       		.byte	0x4
 1007 0288 09       		.byte	0x9
 1008 0289 B0       		.byte	0xb0
 1009 028a 9B020000 		.4byte	0x29b
 1010 028e 07       		.uleb128 0x7
 1011 028f D3050000 		.4byte	.LASF32
 1012 0293 09       		.byte	0x9
 1013 0294 B1       		.byte	0xb1
ARM GAS  C:\Users\jo\AppData\Local\Temp\cclhP7jn.s 			page 19


 1014 0295 71020000 		.4byte	0x271
 1015 0299 00       		.byte	0
 1016 029a 00       		.byte	0
 1017 029b 03       		.uleb128 0x3
 1018 029c 34070000 		.4byte	.LASF54
 1019 02a0 08       		.byte	0x8
 1020 02a1 50       		.byte	0x50
 1021 02a2 A6020000 		.4byte	0x2a6
 1022 02a6 06       		.uleb128 0x6
 1023 02a7 FB000000 		.4byte	.LASF55
 1024 02ab 08       		.byte	0x8
 1025 02ac 09       		.byte	0x9
 1026 02ad B7       		.byte	0xb7
 1027 02ae CB020000 		.4byte	0x2cb
 1028 02b2 07       		.uleb128 0x7
 1029 02b3 D3050000 		.4byte	.LASF32
 1030 02b7 09       		.byte	0x9
 1031 02b8 B8       		.byte	0xb8
 1032 02b9 71020000 		.4byte	0x271
 1033 02bd 00       		.byte	0
 1034 02be 07       		.uleb128 0x7
 1035 02bf 52050000 		.4byte	.LASF33
 1036 02c3 09       		.byte	0x9
 1037 02c4 B9       		.byte	0xb9
 1038 02c5 71020000 		.4byte	0x271
 1039 02c9 04       		.byte	0x4
 1040 02ca 00       		.byte	0
 1041 02cb 03       		.uleb128 0x3
 1042 02cc 1E070000 		.4byte	.LASF56
 1043 02d0 08       		.byte	0x8
 1044 02d1 57       		.byte	0x57
 1045 02d2 D6020000 		.4byte	0x2d6
 1046 02d6 0B       		.uleb128 0xb
 1047 02d7 11030000 		.4byte	.LASF57
 1048 02db 1C       		.byte	0x1c
 1049 02dc 09       		.byte	0x9
 1050 02dd 9001     		.2byte	0x190
 1051 02df 32030000 		.4byte	0x332
 1052 02e3 09       		.uleb128 0x9
 1053 02e4 3F060000 		.4byte	.LASF58
 1054 02e8 09       		.byte	0x9
 1055 02e9 9101     		.2byte	0x191
 1056 02eb 9B020000 		.4byte	0x29b
 1057 02ef 00       		.byte	0
 1058 02f0 09       		.uleb128 0x9
 1059 02f1 C5050000 		.4byte	.LASF59
 1060 02f5 09       		.byte	0x9
 1061 02f6 9201     		.2byte	0x192
 1062 02f8 2B010000 		.4byte	0x12b
 1063 02fc 08       		.byte	0x8
 1064 02fd 09       		.uleb128 0x9
 1065 02fe EA040000 		.4byte	.LASF60
 1066 0302 09       		.byte	0x9
 1067 0303 9401     		.2byte	0x194
 1068 0305 CC040000 		.4byte	0x4cc
 1069 0309 0C       		.byte	0xc
 1070 030a 09       		.uleb128 0x9
ARM GAS  C:\Users\jo\AppData\Local\Temp\cclhP7jn.s 			page 20


 1071 030b 09020000 		.4byte	.LASF61
 1072 030f 09       		.byte	0x9
 1073 0310 9701     		.2byte	0x197
 1074 0312 71020000 		.4byte	0x271
 1075 0316 10       		.byte	0x10
 1076 0317 09       		.uleb128 0x9
 1077 0318 0F050000 		.4byte	.LASF62
 1078 031c 09       		.byte	0x9
 1079 031d 9801     		.2byte	0x198
 1080 031f 71020000 		.4byte	0x271
 1081 0323 14       		.byte	0x14
 1082 0324 09       		.uleb128 0x9
 1083 0325 69060000 		.4byte	.LASF63
 1084 0329 09       		.byte	0x9
 1085 032a 9B01     		.2byte	0x19b
 1086 032c 71020000 		.4byte	0x271
 1087 0330 18       		.byte	0x18
 1088 0331 00       		.byte	0
 1089 0332 03       		.uleb128 0x3
 1090 0333 C2060000 		.4byte	.LASF64
 1091 0337 08       		.byte	0x8
 1092 0338 5C       		.byte	0x5c
 1093 0339 3D030000 		.4byte	0x33d
 1094 033d 0A       		.uleb128 0xa
 1095 033e 04       		.byte	0x4
 1096 033f 43030000 		.4byte	0x343
 1097 0343 0C       		.uleb128 0xc
 1098 0344 4E030000 		.4byte	0x34e
 1099 0348 0D       		.uleb128 0xd
 1100 0349 4E030000 		.4byte	0x34e
 1101 034d 00       		.byte	0
 1102 034e 0E       		.uleb128 0xe
 1103 034f 04       		.byte	0x4
 1104 0350 03       		.uleb128 0x3
 1105 0351 42050000 		.4byte	.LASF65
 1106 0355 08       		.byte	0x8
 1107 0356 61       		.byte	0x61
 1108 0357 5B030000 		.4byte	0x35b
 1109 035b 0B       		.uleb128 0xb
 1110 035c F7050000 		.4byte	.LASF66
 1111 0360 14       		.byte	0x14
 1112 0361 09       		.byte	0x9
 1113 0362 6B01     		.2byte	0x16b
 1114 0364 AA030000 		.4byte	0x3aa
 1115 0368 09       		.uleb128 0x9
 1116 0369 A4020000 		.4byte	.LASF67
 1117 036d 09       		.byte	0x9
 1118 036e 6C01     		.2byte	0x16c
 1119 0370 F6060000 		.4byte	0x6f6
 1120 0374 00       		.byte	0
 1121 0375 09       		.uleb128 0x9
 1122 0376 1A020000 		.4byte	.LASF68
 1123 037a 09       		.byte	0x9
 1124 037b 6D01     		.2byte	0x16d
 1125 037d F6060000 		.4byte	0x6f6
 1126 0381 04       		.byte	0x4
 1127 0382 09       		.uleb128 0x9
ARM GAS  C:\Users\jo\AppData\Local\Temp\cclhP7jn.s 			page 21


 1128 0383 47060000 		.4byte	.LASF69
 1129 0387 09       		.byte	0x9
 1130 0388 6E01     		.2byte	0x16e
 1131 038a 57010000 		.4byte	0x157
 1132 038e 08       		.byte	0x8
 1133 038f 09       		.uleb128 0x9
 1134 0390 D1070000 		.4byte	.LASF70
 1135 0394 09       		.byte	0x9
 1136 0395 6F01     		.2byte	0x16f
 1137 0397 32030000 		.4byte	0x332
 1138 039b 0C       		.byte	0xc
 1139 039c 09       		.uleb128 0x9
 1140 039d 07070000 		.4byte	.LASF71
 1141 03a1 09       		.byte	0x9
 1142 03a2 7101     		.2byte	0x171
 1143 03a4 4E030000 		.4byte	0x34e
 1144 03a8 10       		.byte	0x10
 1145 03a9 00       		.byte	0
 1146 03aa 03       		.uleb128 0x3
 1147 03ab D3000000 		.4byte	.LASF72
 1148 03af 08       		.byte	0x8
 1149 03b0 66       		.byte	0x66
 1150 03b1 B5030000 		.4byte	0x3b5
 1151 03b5 0B       		.uleb128 0xb
 1152 03b6 8C040000 		.4byte	.LASF73
 1153 03ba 10       		.byte	0x10
 1154 03bb 09       		.byte	0x9
 1155 03bc 7B01     		.2byte	0x17b
 1156 03be F7030000 		.4byte	0x3f7
 1157 03c2 09       		.uleb128 0x9
 1158 03c3 A4020000 		.4byte	.LASF67
 1159 03c7 09       		.byte	0x9
 1160 03c8 7C01     		.2byte	0x17c
 1161 03ca F6060000 		.4byte	0x6f6
 1162 03ce 00       		.byte	0
 1163 03cf 09       		.uleb128 0x9
 1164 03d0 1A020000 		.4byte	.LASF68
 1165 03d4 09       		.byte	0x9
 1166 03d5 7E01     		.2byte	0x17e
 1167 03d7 F6060000 		.4byte	0x6f6
 1168 03db 04       		.byte	0x4
 1169 03dc 09       		.uleb128 0x9
 1170 03dd 47060000 		.4byte	.LASF69
 1171 03e1 09       		.byte	0x9
 1172 03e2 8001     		.2byte	0x180
 1173 03e4 57010000 		.4byte	0x157
 1174 03e8 08       		.byte	0x8
 1175 03e9 09       		.uleb128 0x9
 1176 03ea 7A070000 		.4byte	.LASF74
 1177 03ee 09       		.byte	0x9
 1178 03ef 8801     		.2byte	0x188
 1179 03f1 57010000 		.4byte	0x157
 1180 03f5 0C       		.byte	0xc
 1181 03f6 00       		.byte	0
 1182 03f7 03       		.uleb128 0x3
 1183 03f8 65000000 		.4byte	.LASF75
 1184 03fc 08       		.byte	0x8
ARM GAS  C:\Users\jo\AppData\Local\Temp\cclhP7jn.s 			page 22


 1185 03fd 6B       		.byte	0x6b
 1186 03fe 02040000 		.4byte	0x402
 1187 0402 0F       		.uleb128 0xf
 1188 0403 6D050000 		.4byte	.LASF76
 1189 0407 1404     		.2byte	0x414
 1190 0409 09       		.byte	0x9
 1191 040a A201     		.2byte	0x1a2
 1192 040c 45040000 		.4byte	0x445
 1193 0410 09       		.uleb128 0x9
 1194 0411 E1060000 		.4byte	.LASF77
 1195 0415 09       		.byte	0x9
 1196 0416 AA01     		.2byte	0x1aa
 1197 0418 FC060000 		.4byte	0x6fc
 1198 041c 00       		.byte	0
 1199 041d 09       		.uleb128 0x9
 1200 041e 54070000 		.4byte	.LASF78
 1201 0422 09       		.byte	0x9
 1202 0423 AF01     		.2byte	0x1af
 1203 0425 4C010000 		.4byte	0x14c
 1204 0429 04       		.byte	0x4
 1205 042a 09       		.uleb128 0x9
 1206 042b 06050000 		.4byte	.LASF79
 1207 042f 09       		.byte	0x9
 1208 0430 B301     		.2byte	0x1b3
 1209 0432 4C010000 		.4byte	0x14c
 1210 0436 08       		.byte	0x8
 1211 0437 09       		.uleb128 0x9
 1212 0438 A6070000 		.4byte	.LASF80
 1213 043c 09       		.byte	0x9
 1214 043d B901     		.2byte	0x1b9
 1215 043f EE050000 		.4byte	0x5ee
 1216 0443 0C       		.byte	0xc
 1217 0444 00       		.byte	0
 1218 0445 03       		.uleb128 0x3
 1219 0446 FD020000 		.4byte	.LASF81
 1220 044a 08       		.byte	0x8
 1221 044b 70       		.byte	0x70
 1222 044c 50040000 		.4byte	0x450
 1223 0450 0F       		.uleb128 0xf
 1224 0451 A0010000 		.4byte	.LASF82
 1225 0455 7005     		.2byte	0x570
 1226 0457 09       		.byte	0x9
 1227 0458 C201     		.2byte	0x1c2
 1228 045a AF040000 		.4byte	0x4af
 1229 045e 09       		.uleb128 0x9
 1230 045f 5C070000 		.4byte	.LASF83
 1231 0463 09       		.byte	0x9
 1232 0464 C601     		.2byte	0x1c6
 1233 0466 CB020000 		.4byte	0x2cb
 1234 046a 00       		.byte	0
 1235 046b 09       		.uleb128 0x9
 1236 046c 8B010000 		.4byte	.LASF84
 1237 0470 09       		.byte	0x9
 1238 0471 CA01     		.2byte	0x1ca
 1239 0473 AA030000 		.4byte	0x3aa
 1240 0477 1C       		.byte	0x1c
 1241 0478 08       		.uleb128 0x8
ARM GAS  C:\Users\jo\AppData\Local\Temp\cclhP7jn.s 			page 23


 1242 0479 64626700 		.ascii	"dbg\000"
 1243 047d 09       		.byte	0x9
 1244 047e CE01     		.2byte	0x1ce
 1245 0480 F7030000 		.4byte	0x3f7
 1246 0484 2C       		.byte	0x2c
 1247 0485 10       		.uleb128 0x10
 1248 0486 C8000000 		.4byte	.LASF85
 1249 048a 09       		.byte	0x9
 1250 048b D201     		.2byte	0x1d2
 1251 048d 62010000 		.4byte	0x162
 1252 0491 4004     		.2byte	0x440
 1253 0493 11       		.uleb128 0x11
 1254 0494 746D00   		.ascii	"tm\000"
 1255 0497 09       		.byte	0x9
 1256 0498 D701     		.2byte	0x1d7
 1257 049a 0E060000 		.4byte	0x60e
 1258 049e 8804     		.2byte	0x488
 1259 04a0 10       		.uleb128 0x10
 1260 04a1 77020000 		.4byte	.LASF86
 1261 04a5 09       		.byte	0x9
 1262 04a6 E301     		.2byte	0x1e3
 1263 04a8 01070000 		.4byte	0x701
 1264 04ac 9004     		.2byte	0x490
 1265 04ae 00       		.byte	0
 1266 04af 04       		.uleb128 0x4
 1267 04b0 04       		.byte	0x4
 1268 04b1 07       		.byte	0x7
 1269 04b2 70040000 		.4byte	.LASF87
 1270 04b6 03       		.uleb128 0x3
 1271 04b7 11020000 		.4byte	.LASF88
 1272 04bb 0A       		.byte	0xa
 1273 04bc 65       		.byte	0x65
 1274 04bd 4E030000 		.4byte	0x34e
 1275 04c1 03       		.uleb128 0x3
 1276 04c2 1A040000 		.4byte	.LASF89
 1277 04c6 0A       		.byte	0xa
 1278 04c7 6D       		.byte	0x6d
 1279 04c8 EF000000 		.4byte	0xef
 1280 04cc 06       		.uleb128 0x6
 1281 04cd F7060000 		.4byte	.LASF90
 1282 04d1 04       		.byte	0x4
 1283 04d2 0A       		.byte	0xa
 1284 04d3 89       		.byte	0x89
 1285 04d4 E5040000 		.4byte	0x4e5
 1286 04d8 12       		.uleb128 0x12
 1287 04d9 72313300 		.ascii	"r13\000"
 1288 04dd 0A       		.byte	0xa
 1289 04de 8A       		.byte	0x8a
 1290 04df 60050000 		.4byte	0x560
 1291 04e3 00       		.byte	0
 1292 04e4 00       		.byte	0
 1293 04e5 06       		.uleb128 0x6
 1294 04e6 51000000 		.4byte	.LASF91
 1295 04ea 24       		.byte	0x24
 1296 04eb 0B       		.byte	0xb
 1297 04ec F4       		.byte	0xf4
 1298 04ed 60050000 		.4byte	0x560
ARM GAS  C:\Users\jo\AppData\Local\Temp\cclhP7jn.s 			page 24


 1299 04f1 08       		.uleb128 0x8
 1300 04f2 723400   		.ascii	"r4\000"
 1301 04f5 0B       		.byte	0xb
 1302 04f6 0701     		.2byte	0x107
 1303 04f8 B6040000 		.4byte	0x4b6
 1304 04fc 00       		.byte	0
 1305 04fd 08       		.uleb128 0x8
 1306 04fe 723500   		.ascii	"r5\000"
 1307 0501 0B       		.byte	0xb
 1308 0502 0801     		.2byte	0x108
 1309 0504 B6040000 		.4byte	0x4b6
 1310 0508 04       		.byte	0x4
 1311 0509 08       		.uleb128 0x8
 1312 050a 723600   		.ascii	"r6\000"
 1313 050d 0B       		.byte	0xb
 1314 050e 0901     		.2byte	0x109
 1315 0510 B6040000 		.4byte	0x4b6
 1316 0514 08       		.byte	0x8
 1317 0515 08       		.uleb128 0x8
 1318 0516 723700   		.ascii	"r7\000"
 1319 0519 0B       		.byte	0xb
 1320 051a 0A01     		.2byte	0x10a
 1321 051c B6040000 		.4byte	0x4b6
 1322 0520 0C       		.byte	0xc
 1323 0521 08       		.uleb128 0x8
 1324 0522 723800   		.ascii	"r8\000"
 1325 0525 0B       		.byte	0xb
 1326 0526 0B01     		.2byte	0x10b
 1327 0528 B6040000 		.4byte	0x4b6
 1328 052c 10       		.byte	0x10
 1329 052d 08       		.uleb128 0x8
 1330 052e 723900   		.ascii	"r9\000"
 1331 0531 0B       		.byte	0xb
 1332 0532 0C01     		.2byte	0x10c
 1333 0534 B6040000 		.4byte	0x4b6
 1334 0538 14       		.byte	0x14
 1335 0539 08       		.uleb128 0x8
 1336 053a 72313000 		.ascii	"r10\000"
 1337 053e 0B       		.byte	0xb
 1338 053f 0D01     		.2byte	0x10d
 1339 0541 B6040000 		.4byte	0x4b6
 1340 0545 18       		.byte	0x18
 1341 0546 08       		.uleb128 0x8
 1342 0547 72313100 		.ascii	"r11\000"
 1343 054b 0B       		.byte	0xb
 1344 054c 0E01     		.2byte	0x10e
 1345 054e B6040000 		.4byte	0x4b6
 1346 0552 1C       		.byte	0x1c
 1347 0553 08       		.uleb128 0x8
 1348 0554 6C7200   		.ascii	"lr\000"
 1349 0557 0B       		.byte	0xb
 1350 0558 0F01     		.2byte	0x10f
 1351 055a B6040000 		.4byte	0x4b6
 1352 055e 20       		.byte	0x20
 1353 055f 00       		.byte	0
 1354 0560 0A       		.uleb128 0xa
 1355 0561 04       		.byte	0x4
ARM GAS  C:\Users\jo\AppData\Local\Temp\cclhP7jn.s 			page 25


 1356 0562 E5040000 		.4byte	0x4e5
 1357 0566 13       		.uleb128 0x13
 1358 0567 10       		.byte	0x10
 1359 0568 0C       		.byte	0xc
 1360 0569 51       		.byte	0x51
 1361 056a 9F050000 		.4byte	0x59f
 1362 056e 07       		.uleb128 0x7
 1363 056f 0D000000 		.4byte	.LASF92
 1364 0573 0C       		.byte	0xc
 1365 0574 55       		.byte	0x55
 1366 0575 57010000 		.4byte	0x157
 1367 0579 00       		.byte	0
 1368 057a 07       		.uleb128 0x7
 1369 057b D9010000 		.4byte	.LASF93
 1370 057f 0C       		.byte	0xc
 1371 0580 59       		.byte	0x59
 1372 0581 71020000 		.4byte	0x271
 1373 0585 04       		.byte	0x4
 1374 0586 07       		.uleb128 0x7
 1375 0587 C1070000 		.4byte	.LASF94
 1376 058b 0C       		.byte	0xc
 1377 058c 5D       		.byte	0x5d
 1378 058d 4E030000 		.4byte	0x34e
 1379 0591 08       		.byte	0x8
 1380 0592 07       		.uleb128 0x7
 1381 0593 B6000000 		.4byte	.LASF95
 1382 0597 0C       		.byte	0xc
 1383 0598 61       		.byte	0x61
 1384 0599 B8000000 		.4byte	0xb8
 1385 059d 0C       		.byte	0xc
 1386 059e 00       		.byte	0
 1387 059f 03       		.uleb128 0x3
 1388 05a0 C1040000 		.4byte	.LASF96
 1389 05a4 0C       		.byte	0xc
 1390 05a5 62       		.byte	0x62
 1391 05a6 66050000 		.4byte	0x566
 1392 05aa 14       		.uleb128 0x14
 1393 05ab 0804     		.2byte	0x408
 1394 05ad 0C       		.byte	0xc
 1395 05ae 67       		.byte	0x67
 1396 05af D8050000 		.4byte	0x5d8
 1397 05b3 07       		.uleb128 0x7
 1398 05b4 01020000 		.4byte	.LASF97
 1399 05b8 0C       		.byte	0xc
 1400 05b9 6B       		.byte	0x6b
 1401 05ba 37000000 		.4byte	0x37
 1402 05be 00       		.byte	0
 1403 05bf 07       		.uleb128 0x7
 1404 05c0 A3040000 		.4byte	.LASF98
 1405 05c4 0C       		.byte	0xc
 1406 05c5 6F       		.byte	0x6f
 1407 05c6 D8050000 		.4byte	0x5d8
 1408 05ca 04       		.byte	0x4
 1409 05cb 07       		.uleb128 0x7
 1410 05cc 38050000 		.4byte	.LASF99
 1411 05d0 0C       		.byte	0xc
 1412 05d1 73       		.byte	0x73
ARM GAS  C:\Users\jo\AppData\Local\Temp\cclhP7jn.s 			page 26


 1413 05d2 DE050000 		.4byte	0x5de
 1414 05d6 08       		.byte	0x8
 1415 05d7 00       		.byte	0
 1416 05d8 0A       		.uleb128 0xa
 1417 05d9 04       		.byte	0x4
 1418 05da 9F050000 		.4byte	0x59f
 1419 05de 15       		.uleb128 0x15
 1420 05df 9F050000 		.4byte	0x59f
 1421 05e3 EE050000 		.4byte	0x5ee
 1422 05e7 16       		.uleb128 0x16
 1423 05e8 AF040000 		.4byte	0x4af
 1424 05ec 3F       		.byte	0x3f
 1425 05ed 00       		.byte	0
 1426 05ee 03       		.uleb128 0x3
 1427 05ef D0040000 		.4byte	.LASF100
 1428 05f3 0C       		.byte	0xc
 1429 05f4 74       		.byte	0x74
 1430 05f5 AA050000 		.4byte	0x5aa
 1431 05f9 13       		.uleb128 0x13
 1432 05fa 04       		.byte	0x4
 1433 05fb 0D       		.byte	0xd
 1434 05fc 38       		.byte	0x38
 1435 05fd 0E060000 		.4byte	0x60e
 1436 0601 07       		.uleb128 0x7
 1437 0602 EB060000 		.4byte	.LASF101
 1438 0606 0D       		.byte	0xd
 1439 0607 3C       		.byte	0x3c
 1440 0608 FF000000 		.4byte	0xff
 1441 060c 00       		.byte	0
 1442 060d 00       		.byte	0
 1443 060e 03       		.uleb128 0x3
 1444 060f F0040000 		.4byte	.LASF102
 1445 0613 0D       		.byte	0xd
 1446 0614 3D       		.byte	0x3d
 1447 0615 F9050000 		.4byte	0x5f9
 1448 0619 17       		.uleb128 0x17
 1449 061a 04       		.byte	0x4
 1450 061b 09       		.byte	0x9
 1451 061c FA       		.byte	0xfa
 1452 061d 76060000 		.4byte	0x676
 1453 0621 18       		.uleb128 0x18
 1454 0622 1C000000 		.4byte	.LASF103
 1455 0626 09       		.byte	0x9
 1456 0627 0101     		.2byte	0x101
 1457 0629 36010000 		.4byte	0x136
 1458 062d 18       		.uleb128 0x18
 1459 062e BF000000 		.4byte	.LASF104
 1460 0632 09       		.byte	0x9
 1461 0633 0801     		.2byte	0x108
 1462 0635 36010000 		.4byte	0x136
 1463 0639 18       		.uleb128 0x18
 1464 063a 90070000 		.4byte	.LASF105
 1465 063e 09       		.byte	0x9
 1466 063f 0F01     		.2byte	0x10f
 1467 0641 4E030000 		.4byte	0x34e
 1468 0645 18       		.uleb128 0x18
 1469 0646 9A010000 		.4byte	.LASF106
ARM GAS  C:\Users\jo\AppData\Local\Temp\cclhP7jn.s 			page 27


 1470 064a 09       		.byte	0x9
 1471 064b 1601     		.2byte	0x116
 1472 064d 76060000 		.4byte	0x676
 1473 0651 18       		.uleb128 0x18
 1474 0652 AC020000 		.4byte	.LASF107
 1475 0656 09       		.byte	0x9
 1476 0657 1E01     		.2byte	0x11e
 1477 0659 A1060000 		.4byte	0x6a1
 1478 065d 18       		.uleb128 0x18
 1479 065e 38060000 		.4byte	.LASF108
 1480 0662 09       		.byte	0x9
 1481 0663 2701     		.2byte	0x127
 1482 0665 D8060000 		.4byte	0x6d8
 1483 0669 18       		.uleb128 0x18
 1484 066a CC050000 		.4byte	.LASF109
 1485 066e 09       		.byte	0x9
 1486 066f 2F01     		.2byte	0x12f
 1487 0671 41010000 		.4byte	0x141
 1488 0675 00       		.byte	0
 1489 0676 0A       		.uleb128 0xa
 1490 0677 04       		.byte	0x4
 1491 0678 66020000 		.4byte	0x266
 1492 067c 06       		.uleb128 0x6
 1493 067d 08060000 		.4byte	.LASF110
 1494 0681 0C       		.byte	0xc
 1495 0682 0E       		.byte	0xe
 1496 0683 34       		.byte	0x34
 1497 0684 A1060000 		.4byte	0x6a1
 1498 0688 07       		.uleb128 0x7
 1499 0689 F9010000 		.4byte	.LASF111
 1500 068d 0E       		.byte	0xe
 1501 068e 35       		.byte	0x35
 1502 068f 9B020000 		.4byte	0x29b
 1503 0693 00       		.byte	0
 1504 0694 07       		.uleb128 0x7
 1505 0695 C4020000 		.4byte	.LASF112
 1506 0699 0E       		.byte	0xe
 1507 069a 37       		.byte	0x37
 1508 069b 4C010000 		.4byte	0x14c
 1509 069f 08       		.byte	0x8
 1510 06a0 00       		.byte	0
 1511 06a1 0A       		.uleb128 0xa
 1512 06a2 04       		.byte	0x4
 1513 06a3 7C060000 		.4byte	0x67c
 1514 06a7 06       		.uleb128 0x6
 1515 06a8 44070000 		.4byte	.LASF113
 1516 06ac 10       		.byte	0x10
 1517 06ad 0F       		.byte	0xf
 1518 06ae 39       		.byte	0x39
 1519 06af D8060000 		.4byte	0x6d8
 1520 06b3 07       		.uleb128 0x7
 1521 06b4 99050000 		.4byte	.LASF114
 1522 06b8 0F       		.byte	0xf
 1523 06b9 3A       		.byte	0x3a
 1524 06ba 9B020000 		.4byte	0x29b
 1525 06be 00       		.byte	0
 1526 06bf 07       		.uleb128 0x7
ARM GAS  C:\Users\jo\AppData\Local\Temp\cclhP7jn.s 			page 28


 1527 06c0 B9070000 		.4byte	.LASF115
 1528 06c4 0F       		.byte	0xf
 1529 06c5 3C       		.byte	0x3c
 1530 06c6 71020000 		.4byte	0x271
 1531 06ca 08       		.byte	0x8
 1532 06cb 07       		.uleb128 0x7
 1533 06cc A6060000 		.4byte	.LASF116
 1534 06d0 0F       		.byte	0xf
 1535 06d1 3E       		.byte	0x3e
 1536 06d2 1C070000 		.4byte	0x71c
 1537 06d6 0C       		.byte	0xc
 1538 06d7 00       		.byte	0
 1539 06d8 0A       		.uleb128 0xa
 1540 06d9 04       		.byte	0x4
 1541 06da A7060000 		.4byte	0x6a7
 1542 06de 0A       		.uleb128 0xa
 1543 06df 04       		.byte	0x4
 1544 06e0 E4060000 		.4byte	0x6e4
 1545 06e4 19       		.uleb128 0x19
 1546 06e5 E9060000 		.4byte	0x6e9
 1547 06e9 04       		.uleb128 0x4
 1548 06ea 01       		.byte	0x1
 1549 06eb 08       		.byte	0x8
 1550 06ec 78060000 		.4byte	.LASF117
 1551 06f0 0A       		.uleb128 0xa
 1552 06f1 04       		.byte	0x4
 1553 06f2 C1040000 		.4byte	0x4c1
 1554 06f6 0A       		.uleb128 0xa
 1555 06f7 04       		.byte	0x4
 1556 06f8 50030000 		.4byte	0x350
 1557 06fc 05       		.uleb128 0x5
 1558 06fd DE060000 		.4byte	0x6de
 1559 0701 15       		.uleb128 0x15
 1560 0702 C1040000 		.4byte	0x4c1
 1561 0706 11070000 		.4byte	0x711
 1562 070a 16       		.uleb128 0x16
 1563 070b AF040000 		.4byte	0x4af
 1564 070f 1B       		.byte	0x1b
 1565 0710 00       		.byte	0
 1566 0711 03       		.uleb128 0x3
 1567 0712 5A020000 		.4byte	.LASF118
 1568 0716 0F       		.byte	0xf
 1569 0717 34       		.byte	0x34
 1570 0718 A7060000 		.4byte	0x6a7
 1571 071c 0A       		.uleb128 0xa
 1572 071d 04       		.byte	0x4
 1573 071e 11070000 		.4byte	0x711
 1574 0722 0A       		.uleb128 0xa
 1575 0723 04       		.byte	0x4
 1576 0724 B8000000 		.4byte	0xb8
 1577 0728 06       		.uleb128 0x6
 1578 0729 20060000 		.4byte	.LASF119
 1579 072d 10       		.byte	0x10
 1580 072e 10       		.byte	0x10
 1581 072f 40       		.byte	0x40
 1582 0730 65070000 		.4byte	0x765
 1583 0734 07       		.uleb128 0x7
ARM GAS  C:\Users\jo\AppData\Local\Temp\cclhP7jn.s 			page 29


 1584 0735 3C040000 		.4byte	.LASF120
 1585 0739 10       		.byte	0x10
 1586 073a 41       		.byte	0x41
 1587 073b 89070000 		.4byte	0x789
 1588 073f 00       		.byte	0
 1589 0740 07       		.uleb128 0x7
 1590 0741 73060000 		.4byte	.LASF121
 1591 0745 10       		.byte	0x10
 1592 0746 41       		.byte	0x41
 1593 0747 A8070000 		.4byte	0x7a8
 1594 074b 04       		.byte	0x4
 1595 074c 12       		.uleb128 0x12
 1596 074d 70757400 		.ascii	"put\000"
 1597 0751 10       		.byte	0x10
 1598 0752 41       		.byte	0x41
 1599 0753 C2070000 		.4byte	0x7c2
 1600 0757 08       		.byte	0x8
 1601 0758 12       		.uleb128 0x12
 1602 0759 67657400 		.ascii	"get\000"
 1603 075d 10       		.byte	0x10
 1604 075e 41       		.byte	0x41
 1605 075f D7070000 		.4byte	0x7d7
 1606 0763 0C       		.byte	0xc
 1607 0764 00       		.byte	0
 1608 0765 1A       		.uleb128 0x1a
 1609 0766 2C000000 		.4byte	0x2c
 1610 076a 7E070000 		.4byte	0x77e
 1611 076e 0D       		.uleb128 0xd
 1612 076f 4E030000 		.4byte	0x34e
 1613 0773 0D       		.uleb128 0xd
 1614 0774 7E070000 		.4byte	0x77e
 1615 0778 0D       		.uleb128 0xd
 1616 0779 2C000000 		.4byte	0x2c
 1617 077d 00       		.byte	0
 1618 077e 0A       		.uleb128 0xa
 1619 077f 04       		.byte	0x4
 1620 0780 84070000 		.4byte	0x784
 1621 0784 19       		.uleb128 0x19
 1622 0785 B8000000 		.4byte	0xb8
 1623 0789 0A       		.uleb128 0xa
 1624 078a 04       		.byte	0x4
 1625 078b 65070000 		.4byte	0x765
 1626 078f 1A       		.uleb128 0x1a
 1627 0790 2C000000 		.4byte	0x2c
 1628 0794 A8070000 		.4byte	0x7a8
 1629 0798 0D       		.uleb128 0xd
 1630 0799 4E030000 		.4byte	0x34e
 1631 079d 0D       		.uleb128 0xd
 1632 079e 22070000 		.4byte	0x722
 1633 07a2 0D       		.uleb128 0xd
 1634 07a3 2C000000 		.4byte	0x2c
 1635 07a7 00       		.byte	0
 1636 07a8 0A       		.uleb128 0xa
 1637 07a9 04       		.byte	0x4
 1638 07aa 8F070000 		.4byte	0x78f
 1639 07ae 1A       		.uleb128 0x1a
 1640 07af 36010000 		.4byte	0x136
ARM GAS  C:\Users\jo\AppData\Local\Temp\cclhP7jn.s 			page 30


 1641 07b3 C2070000 		.4byte	0x7c2
 1642 07b7 0D       		.uleb128 0xd
 1643 07b8 4E030000 		.4byte	0x34e
 1644 07bc 0D       		.uleb128 0xd
 1645 07bd B8000000 		.4byte	0xb8
 1646 07c1 00       		.byte	0
 1647 07c2 0A       		.uleb128 0xa
 1648 07c3 04       		.byte	0x4
 1649 07c4 AE070000 		.4byte	0x7ae
 1650 07c8 1A       		.uleb128 0x1a
 1651 07c9 36010000 		.4byte	0x136
 1652 07cd D7070000 		.4byte	0x7d7
 1653 07d1 0D       		.uleb128 0xd
 1654 07d2 4E030000 		.4byte	0x34e
 1655 07d6 00       		.byte	0
 1656 07d7 0A       		.uleb128 0xa
 1657 07d8 04       		.byte	0x4
 1658 07d9 C8070000 		.4byte	0x7c8
 1659 07dd 13       		.uleb128 0x13
 1660 07de 04       		.byte	0x4
 1661 07df 10       		.byte	0x10
 1662 07e0 49       		.byte	0x49
 1663 07e1 F2070000 		.4byte	0x7f2
 1664 07e5 12       		.uleb128 0x12
 1665 07e6 766D7400 		.ascii	"vmt\000"
 1666 07ea 10       		.byte	0x10
 1667 07eb 4B       		.byte	0x4b
 1668 07ec F2070000 		.4byte	0x7f2
 1669 07f0 00       		.byte	0
 1670 07f1 00       		.byte	0
 1671 07f2 0A       		.uleb128 0xa
 1672 07f3 04       		.byte	0x4
 1673 07f4 F8070000 		.4byte	0x7f8
 1674 07f8 19       		.uleb128 0x19
 1675 07f9 28070000 		.4byte	0x728
 1676 07fd 03       		.uleb128 0x3
 1677 07fe 62020000 		.4byte	.LASF122
 1678 0802 10       		.byte	0x10
 1679 0803 4D       		.byte	0x4d
 1680 0804 DD070000 		.4byte	0x7dd
 1681 0808 04       		.uleb128 0x4
 1682 0809 01       		.byte	0x1
 1683 080a 02       		.byte	0x2
 1684 080b 7D050000 		.4byte	.LASF123
 1685 080f 06       		.uleb128 0x6
 1686 0810 90060000 		.4byte	.LASF124
 1687 0814 10       		.byte	0x10
 1688 0815 11       		.byte	0x11
 1689 0816 2E       		.byte	0x2e
 1690 0817 4C080000 		.4byte	0x84c
 1691 081b 07       		.uleb128 0x7
 1692 081c 3C040000 		.4byte	.LASF120
 1693 0820 11       		.byte	0x11
 1694 0821 2F       		.byte	0x2f
 1695 0822 89070000 		.4byte	0x789
 1696 0826 00       		.byte	0
 1697 0827 07       		.uleb128 0x7
ARM GAS  C:\Users\jo\AppData\Local\Temp\cclhP7jn.s 			page 31


 1698 0828 73060000 		.4byte	.LASF121
 1699 082c 11       		.byte	0x11
 1700 082d 2F       		.byte	0x2f
 1701 082e A8070000 		.4byte	0x7a8
 1702 0832 04       		.byte	0x4
 1703 0833 12       		.uleb128 0x12
 1704 0834 70757400 		.ascii	"put\000"
 1705 0838 11       		.byte	0x11
 1706 0839 2F       		.byte	0x2f
 1707 083a C2070000 		.4byte	0x7c2
 1708 083e 08       		.byte	0x8
 1709 083f 12       		.uleb128 0x12
 1710 0840 67657400 		.ascii	"get\000"
 1711 0844 11       		.byte	0x11
 1712 0845 2F       		.byte	0x2f
 1713 0846 D7070000 		.4byte	0x7d7
 1714 084a 0C       		.byte	0xc
 1715 084b 00       		.byte	0
 1716 084c 13       		.uleb128 0x13
 1717 084d 04       		.byte	0x4
 1718 084e 11       		.byte	0x11
 1719 084f 39       		.byte	0x39
 1720 0850 61080000 		.4byte	0x861
 1721 0854 12       		.uleb128 0x12
 1722 0855 766D7400 		.ascii	"vmt\000"
 1723 0859 11       		.byte	0x11
 1724 085a 3B       		.byte	0x3b
 1725 085b 61080000 		.4byte	0x861
 1726 085f 00       		.byte	0
 1727 0860 00       		.byte	0
 1728 0861 0A       		.uleb128 0xa
 1729 0862 04       		.byte	0x4
 1730 0863 67080000 		.4byte	0x867
 1731 0867 19       		.uleb128 0x19
 1732 0868 0F080000 		.4byte	0x80f
 1733 086c 03       		.uleb128 0x3
 1734 086d 17050000 		.4byte	.LASF125
 1735 0871 11       		.byte	0x11
 1736 0872 3D       		.byte	0x3d
 1737 0873 4C080000 		.4byte	0x84c
 1738 0877 03       		.uleb128 0x3
 1739 0878 AA040000 		.4byte	.LASF126
 1740 087c 12       		.byte	0x12
 1741 087d 28       		.byte	0x28
 1742 087e 82080000 		.4byte	0x882
 1743 0882 06       		.uleb128 0x6
 1744 0883 CF010000 		.4byte	.LASF127
 1745 0887 04       		.byte	0x4
 1746 0888 13       		.byte	0x13
 1747 0889 00       		.byte	0
 1748 088a 99080000 		.4byte	0x899
 1749 088e 1B       		.uleb128 0x1b
 1750 088f F2060000 		.4byte	.LASF128
 1751 0893 4E030000 		.4byte	0x34e
 1752 0897 00       		.byte	0
 1753 0898 00       		.byte	0
 1754 0899 03       		.uleb128 0x3
ARM GAS  C:\Users\jo\AppData\Local\Temp\cclhP7jn.s 			page 32


 1755 089a 5D000000 		.4byte	.LASF129
 1756 089e 12       		.byte	0x12
 1757 089f 62       		.byte	0x62
 1758 08a0 77080000 		.4byte	0x877
 1759 08a4 03       		.uleb128 0x3
 1760 08a5 6B040000 		.4byte	.LASF130
 1761 08a9 14       		.byte	0x14
 1762 08aa 3F       		.byte	0x3f
 1763 08ab B8000000 		.4byte	0xb8
 1764 08af 03       		.uleb128 0x3
 1765 08b0 0E070000 		.4byte	.LASF131
 1766 08b4 14       		.byte	0x14
 1767 08b5 41       		.byte	0x41
 1768 08b6 CE000000 		.4byte	0xce
 1769 08ba 03       		.uleb128 0x3
 1770 08bb 21050000 		.4byte	.LASF132
 1771 08bf 14       		.byte	0x14
 1772 08c0 42       		.byte	0x42
 1773 08c1 C3000000 		.4byte	0xc3
 1774 08c5 03       		.uleb128 0x3
 1775 08c6 BE020000 		.4byte	.LASF133
 1776 08ca 14       		.byte	0x14
 1777 08cb 43       		.byte	0x43
 1778 08cc E4000000 		.4byte	0xe4
 1779 08d0 03       		.uleb128 0x3
 1780 08d1 14070000 		.4byte	.LASF134
 1781 08d5 14       		.byte	0x14
 1782 08d6 46       		.byte	0x46
 1783 08d7 E4000000 		.4byte	0xe4
 1784 08db 06       		.uleb128 0x6
 1785 08dc 08000000 		.4byte	.LASF135
 1786 08e0 10       		.byte	0x10
 1787 08e1 15       		.byte	0x15
 1788 08e2 4F       		.byte	0x4f
 1789 08e3 3C090000 		.4byte	0x93c
 1790 08e7 07       		.uleb128 0x7
 1791 08e8 F6000000 		.4byte	.LASF136
 1792 08ec 15       		.byte	0x15
 1793 08ed 51       		.byte	0x51
 1794 08ee 3C090000 		.4byte	0x93c
 1795 08f2 00       		.byte	0
 1796 08f3 07       		.uleb128 0x7
 1797 08f4 B9040000 		.4byte	.LASF137
 1798 08f8 15       		.byte	0x15
 1799 08f9 54       		.byte	0x54
 1800 08fa 4E030000 		.4byte	0x34e
 1801 08fe 04       		.byte	0x4
 1802 08ff 07       		.uleb128 0x7
 1803 0900 92010000 		.4byte	.LASF138
 1804 0904 15       		.byte	0x15
 1805 0905 5D       		.byte	0x5d
 1806 0906 AF080000 		.4byte	0x8af
 1807 090a 08       		.byte	0x8
 1808 090b 12       		.uleb128 0x12
 1809 090c 6C656E00 		.ascii	"len\000"
 1810 0910 15       		.byte	0x15
 1811 0911 60       		.byte	0x60
ARM GAS  C:\Users\jo\AppData\Local\Temp\cclhP7jn.s 			page 33


 1812 0912 AF080000 		.4byte	0x8af
 1813 0916 0A       		.byte	0xa
 1814 0917 07       		.uleb128 0x7
 1815 0918 74000000 		.4byte	.LASF139
 1816 091c 15       		.byte	0x15
 1817 091d 63       		.byte	0x63
 1818 091e A4080000 		.4byte	0x8a4
 1819 0922 0C       		.byte	0xc
 1820 0923 07       		.uleb128 0x7
 1821 0924 74070000 		.4byte	.LASF140
 1822 0928 15       		.byte	0x15
 1823 0929 66       		.byte	0x66
 1824 092a A4080000 		.4byte	0x8a4
 1825 092e 0D       		.byte	0xd
 1826 092f 12       		.uleb128 0x12
 1827 0930 72656600 		.ascii	"ref\000"
 1828 0934 15       		.byte	0x15
 1829 0935 6D       		.byte	0x6d
 1830 0936 AF080000 		.4byte	0x8af
 1831 093a 0E       		.byte	0xe
 1832 093b 00       		.byte	0
 1833 093c 0A       		.uleb128 0xa
 1834 093d 04       		.byte	0x4
 1835 093e DB080000 		.4byte	0x8db
 1836 0942 06       		.uleb128 0x6
 1837 0943 E2040000 		.4byte	.LASF141
 1838 0947 04       		.byte	0x4
 1839 0948 16       		.byte	0x16
 1840 0949 2C       		.byte	0x2c
 1841 094a 5B090000 		.4byte	0x95b
 1842 094e 07       		.uleb128 0x7
 1843 094f 61050000 		.4byte	.LASF142
 1844 0953 16       		.byte	0x16
 1845 0954 2D       		.byte	0x2d
 1846 0955 C5080000 		.4byte	0x8c5
 1847 0959 00       		.byte	0
 1848 095a 00       		.byte	0
 1849 095b 03       		.uleb128 0x3
 1850 095c 42040000 		.4byte	.LASF143
 1851 0960 16       		.byte	0x16
 1852 0961 40       		.byte	0x40
 1853 0962 42090000 		.4byte	0x942
 1854 0966 1C       		.uleb128 0x1c
 1855 0967 25040000 		.4byte	.LASF164
 1856 096b 03       		.byte	0x3
 1857 096c 9E01     		.2byte	0x19e
 1858 096e 03       		.byte	0x3
 1859 096f 80090000 		.4byte	0x980
 1860 0973 1D       		.uleb128 0x1d
 1861 0974 EA050000 		.4byte	.LASF144
 1862 0978 03       		.byte	0x3
 1863 0979 9E01     		.2byte	0x19e
 1864 097b DE060000 		.4byte	0x6de
 1865 097f 00       		.byte	0
 1866 0980 1E       		.uleb128 0x1e
 1867 0981 D9070000 		.4byte	.LASF165
 1868 0985 02       		.byte	0x2
ARM GAS  C:\Users\jo\AppData\Local\Temp\cclhP7jn.s 			page 34


 1869 0986 45       		.byte	0x45
 1870 0987 25000000 		.4byte	0x25
 1871 098b 03       		.byte	0x3
 1872 098c BD090000 		.4byte	0x9bd
 1873 0990 1F       		.uleb128 0x1f
 1874 0991 63687000 		.ascii	"chp\000"
 1875 0995 02       		.byte	0x2
 1876 0996 45       		.byte	0x45
 1877 0997 BD090000 		.4byte	0x9bd
 1878 099b 1F       		.uleb128 0x1f
 1879 099c 666D7400 		.ascii	"fmt\000"
 1880 09a0 02       		.byte	0x2
 1881 09a1 45       		.byte	0x45
 1882 09a2 DE060000 		.4byte	0x6de
 1883 09a6 20       		.uleb128 0x20
 1884 09a7 21       		.uleb128 0x21
 1885 09a8 617000   		.ascii	"ap\000"
 1886 09ab 02       		.byte	0x2
 1887 09ac 46       		.byte	0x46
 1888 09ad 99080000 		.4byte	0x899
 1889 09b1 22       		.uleb128 0x22
 1890 09b2 A6000000 		.4byte	.LASF145
 1891 09b6 02       		.byte	0x2
 1892 09b7 47       		.byte	0x47
 1893 09b8 25000000 		.4byte	0x25
 1894 09bc 00       		.byte	0
 1895 09bd 0A       		.uleb128 0xa
 1896 09be 04       		.byte	0x4
 1897 09bf FD070000 		.4byte	0x7fd
 1898 09c3 23       		.uleb128 0x23
 1899 09c4 56040000 		.4byte	.LASF166
 1900 09c8 01       		.byte	0x1
 1901 09c9 87       		.byte	0x87
 1902 09ca AF080000 		.4byte	0x8af
 1903 09ce 00000000 		.4byte	.LFB260
 1904 09d2 76000000 		.4byte	.LFE260-.LFB260
 1905 09d6 01       		.uleb128 0x1
 1906 09d7 9C       		.byte	0x9c
 1907 09d8 410A0000 		.4byte	0xa41
 1908 09dc 24       		.uleb128 0x24
 1909 09dd 7D060000 		.4byte	.LASF146
 1910 09e1 01       		.byte	0x1
 1911 09e2 87       		.byte	0x87
 1912 09e3 4E030000 		.4byte	0x34e
 1913 09e7 00000000 		.4byte	.LLST0
 1914 09eb 25       		.uleb128 0x25
 1915 09ec 6C656E00 		.ascii	"len\000"
 1916 09f0 01       		.byte	0x1
 1917 09f1 87       		.byte	0x87
 1918 09f2 25000000 		.4byte	0x25
 1919 09f6 21000000 		.4byte	.LLST1
 1920 09fa 26       		.uleb128 0x26
 1921 09fb 706200   		.ascii	"pb\000"
 1922 09fe 01       		.byte	0x1
 1923 09ff 89       		.byte	0x89
 1924 0a00 410A0000 		.4byte	0xa41
 1925 0a04 6D000000 		.4byte	.LLST2
ARM GAS  C:\Users\jo\AppData\Local\Temp\cclhP7jn.s 			page 35


 1926 0a08 26       		.uleb128 0x26
 1927 0a09 707300   		.ascii	"ps\000"
 1928 0a0c 01       		.byte	0x1
 1929 0a0d 8A       		.byte	0x8a
 1930 0a0e 470A0000 		.4byte	0xa47
 1931 0a12 A3000000 		.4byte	.LLST3
 1932 0a16 27       		.uleb128 0x27
 1933 0a17 7400     		.ascii	"t\000"
 1934 0a19 01       		.byte	0x1
 1935 0a1a 8A       		.byte	0x8a
 1936 0a1b AF080000 		.4byte	0x8af
 1937 0a1f 02       		.uleb128 0x2
 1938 0a20 91       		.byte	0x91
 1939 0a21 6E       		.sleb128 -18
 1940 0a22 26       		.uleb128 0x26
 1941 0a23 73756D00 		.ascii	"sum\000"
 1942 0a27 01       		.byte	0x1
 1943 0a28 8B       		.byte	0x8b
 1944 0a29 C5080000 		.4byte	0x8c5
 1945 0a2d E4000000 		.4byte	.LLST4
 1946 0a31 26       		.uleb128 0x26
 1947 0a32 6F646400 		.ascii	"odd\000"
 1948 0a36 01       		.byte	0x1
 1949 0a37 8C       		.byte	0x8c
 1950 0a38 25000000 		.4byte	0x25
 1951 0a3c 71010000 		.4byte	.LLST5
 1952 0a40 00       		.byte	0
 1953 0a41 0A       		.uleb128 0xa
 1954 0a42 04       		.byte	0x4
 1955 0a43 A4080000 		.4byte	0x8a4
 1956 0a47 0A       		.uleb128 0xa
 1957 0a48 04       		.byte	0x4
 1958 0a49 AF080000 		.4byte	0x8af
 1959 0a4d 28       		.uleb128 0x28
 1960 0a4e 80090000 		.4byte	0x980
 1961 0a52 00000000 		.4byte	.LFB265
 1962 0a56 28000000 		.4byte	.LFE265-.LFB265
 1963 0a5a 01       		.uleb128 0x1
 1964 0a5b 9C       		.byte	0x9c
 1965 0a5c AC0A0000 		.4byte	0xaac
 1966 0a60 29       		.uleb128 0x29
 1967 0a61 90090000 		.4byte	0x990
 1968 0a65 9F010000 		.4byte	.LLST6
 1969 0a69 2A       		.uleb128 0x2a
 1970 0a6a 9B090000 		.4byte	0x99b
 1971 0a6e 02       		.uleb128 0x2
 1972 0a6f 91       		.byte	0x91
 1973 0a70 74       		.sleb128 -12
 1974 0a71 20       		.uleb128 0x20
 1975 0a72 2B       		.uleb128 0x2b
 1976 0a73 A7090000 		.4byte	0x9a7
 1977 0a77 02       		.uleb128 0x2
 1978 0a78 91       		.byte	0x91
 1979 0a79 6C       		.sleb128 -20
 1980 0a7a 2B       		.uleb128 0x2b
 1981 0a7b B1090000 		.4byte	0x9b1
 1982 0a7f 01       		.uleb128 0x1
ARM GAS  C:\Users\jo\AppData\Local\Temp\cclhP7jn.s 			page 36


 1983 0a80 50       		.byte	0x50
 1984 0a81 2A       		.uleb128 0x2a
 1985 0a82 9B090000 		.4byte	0x99b
 1986 0a86 06       		.uleb128 0x6
 1987 0a87 03       		.byte	0x3
 1988 0a88 00000000 		.4byte	.LC0
 1989 0a8c 9F       		.byte	0x9f
 1990 0a8d 2C       		.uleb128 0x2c
 1991 0a8e 90090000 		.4byte	0x990
 1992 0a92 2D       		.uleb128 0x2d
 1993 0a93 14000000 		.4byte	.LVL22
 1994 0a97 B60D0000 		.4byte	0xdb6
 1995 0a9b 2E       		.uleb128 0x2e
 1996 0a9c 01       		.uleb128 0x1
 1997 0a9d 52       		.byte	0x52
 1998 0a9e 02       		.uleb128 0x2
 1999 0a9f 91       		.byte	0x91
 2000 0aa0 60       		.sleb128 -32
 2001 0aa1 2E       		.uleb128 0x2e
 2002 0aa2 01       		.uleb128 0x1
 2003 0aa3 51       		.byte	0x51
 2004 0aa4 05       		.uleb128 0x5
 2005 0aa5 03       		.byte	0x3
 2006 0aa6 00000000 		.4byte	.LC0
 2007 0aaa 00       		.byte	0
 2008 0aab 00       		.byte	0
 2009 0aac 2F       		.uleb128 0x2f
 2010 0aad B3010000 		.4byte	.LASF151
 2011 0ab1 01       		.byte	0x1
 2012 0ab2 1001     		.2byte	0x110
 2013 0ab4 AF080000 		.4byte	0x8af
 2014 0ab8 00000000 		.4byte	.LFB261
 2015 0abc 90000000 		.4byte	.LFE261-.LFB261
 2016 0ac0 01       		.uleb128 0x1
 2017 0ac1 9C       		.byte	0x9c
 2018 0ac2 800B0000 		.4byte	0xb80
 2019 0ac6 30       		.uleb128 0x30
 2020 0ac7 7000     		.ascii	"p\000"
 2021 0ac9 01       		.byte	0x1
 2022 0aca 1001     		.2byte	0x110
 2023 0acc 3C090000 		.4byte	0x93c
 2024 0ad0 C0010000 		.4byte	.LLST7
 2025 0ad4 30       		.uleb128 0x30
 2026 0ad5 73726300 		.ascii	"src\000"
 2027 0ad9 01       		.byte	0x1
 2028 0ada 1101     		.2byte	0x111
 2029 0adc 800B0000 		.4byte	0xb80
 2030 0ae0 EC010000 		.4byte	.LLST8
 2031 0ae4 31       		.uleb128 0x31
 2032 0ae5 01050000 		.4byte	.LASF147
 2033 0ae9 01       		.byte	0x1
 2034 0aea 1101     		.2byte	0x111
 2035 0aec 800B0000 		.4byte	0xb80
 2036 0af0 15020000 		.4byte	.LLST9
 2037 0af4 31       		.uleb128 0x31
 2038 0af5 F1050000 		.4byte	.LASF148
 2039 0af9 01       		.byte	0x1
ARM GAS  C:\Users\jo\AppData\Local\Temp\cclhP7jn.s 			page 37


 2040 0afa 1201     		.2byte	0x112
 2041 0afc A4080000 		.4byte	0x8a4
 2042 0b00 3E020000 		.4byte	.LLST10
 2043 0b04 31       		.uleb128 0x31
 2044 0b05 86070000 		.4byte	.LASF149
 2045 0b09 01       		.byte	0x1
 2046 0b0a 1201     		.2byte	0x112
 2047 0b0c AF080000 		.4byte	0x8af
 2048 0b10 6A020000 		.4byte	.LLST11
 2049 0b14 32       		.uleb128 0x32
 2050 0b15 61636300 		.ascii	"acc\000"
 2051 0b19 01       		.byte	0x1
 2052 0b1a 1401     		.2byte	0x114
 2053 0b1c C5080000 		.4byte	0x8c5
 2054 0b20 8A020000 		.4byte	.LLST12
 2055 0b24 33       		.uleb128 0x33
 2056 0b25 61050000 		.4byte	.LASF142
 2057 0b29 01       		.byte	0x1
 2058 0b2a 1501     		.2byte	0x115
 2059 0b2c C5080000 		.4byte	0x8c5
 2060 0b30 93030000 		.4byte	.LLST13
 2061 0b34 32       		.uleb128 0x32
 2062 0b35 7100     		.ascii	"q\000"
 2063 0b37 01       		.byte	0x1
 2064 0b38 1601     		.2byte	0x116
 2065 0b3a 3C090000 		.4byte	0x93c
 2066 0b3e B1030000 		.4byte	.LLST14
 2067 0b42 33       		.uleb128 0x33
 2068 0b43 DA050000 		.4byte	.LASF150
 2069 0b47 01       		.byte	0x1
 2070 0b48 1701     		.2byte	0x117
 2071 0b4a A4080000 		.4byte	0x8a4
 2072 0b4e DA030000 		.4byte	.LLST15
 2073 0b52 34       		.uleb128 0x34
 2074 0b53 20000000 		.4byte	.LVL25
 2075 0b57 C3090000 		.4byte	0x9c3
 2076 0b5b 35       		.uleb128 0x35
 2077 0b5c 6E000000 		.4byte	.LVL39
 2078 0b60 D50D0000 		.4byte	0xdd5
 2079 0b64 6F0B0000 		.4byte	0xb6f
 2080 0b68 2E       		.uleb128 0x2e
 2081 0b69 01       		.uleb128 0x1
 2082 0b6a 50       		.byte	0x50
 2083 0b6b 02       		.uleb128 0x2
 2084 0b6c 78       		.byte	0x78
 2085 0b6d 00       		.sleb128 0
 2086 0b6e 00       		.byte	0
 2087 0b6f 2D       		.uleb128 0x2d
 2088 0b70 76000000 		.4byte	.LVL41
 2089 0b74 D50D0000 		.4byte	0xdd5
 2090 0b78 2E       		.uleb128 0x2e
 2091 0b79 01       		.uleb128 0x1
 2092 0b7a 50       		.byte	0x50
 2093 0b7b 02       		.uleb128 0x2
 2094 0b7c 77       		.byte	0x77
 2095 0b7d 00       		.sleb128 0
 2096 0b7e 00       		.byte	0
ARM GAS  C:\Users\jo\AppData\Local\Temp\cclhP7jn.s 			page 38


 2097 0b7f 00       		.byte	0
 2098 0b80 0A       		.uleb128 0xa
 2099 0b81 04       		.byte	0x4
 2100 0b82 5B090000 		.4byte	0x95b
 2101 0b86 2F       		.uleb128 0x2f
 2102 0b87 2C000000 		.4byte	.LASF152
 2103 0b8b 01       		.byte	0x1
 2104 0b8c 4C01     		.2byte	0x14c
 2105 0b8e AF080000 		.4byte	0x8af
 2106 0b92 00000000 		.4byte	.LFB262
 2107 0b96 EC000000 		.4byte	.LFE262-.LFB262
 2108 0b9a 01       		.uleb128 0x1
 2109 0b9b 9C       		.byte	0x9c
 2110 0b9c E80C0000 		.4byte	0xce8
 2111 0ba0 30       		.uleb128 0x30
 2112 0ba1 7000     		.ascii	"p\000"
 2113 0ba3 01       		.byte	0x1
 2114 0ba4 4C01     		.2byte	0x14c
 2115 0ba6 3C090000 		.4byte	0x93c
 2116 0baa 10040000 		.4byte	.LLST16
 2117 0bae 30       		.uleb128 0x30
 2118 0baf 73726300 		.ascii	"src\000"
 2119 0bb3 01       		.byte	0x1
 2120 0bb4 4D01     		.2byte	0x14d
 2121 0bb6 800B0000 		.4byte	0xb80
 2122 0bba 3C040000 		.4byte	.LLST17
 2123 0bbe 31       		.uleb128 0x31
 2124 0bbf 01050000 		.4byte	.LASF147
 2125 0bc3 01       		.byte	0x1
 2126 0bc4 4D01     		.2byte	0x14d
 2127 0bc6 800B0000 		.4byte	0xb80
 2128 0bca 65040000 		.4byte	.LLST18
 2129 0bce 31       		.uleb128 0x31
 2130 0bcf F1050000 		.4byte	.LASF148
 2131 0bd3 01       		.byte	0x1
 2132 0bd4 4E01     		.2byte	0x14e
 2133 0bd6 A4080000 		.4byte	0x8a4
 2134 0bda 8E040000 		.4byte	.LLST19
 2135 0bde 31       		.uleb128 0x31
 2136 0bdf 86070000 		.4byte	.LASF149
 2137 0be3 01       		.byte	0x1
 2138 0be4 4E01     		.2byte	0x14e
 2139 0be6 AF080000 		.4byte	0x8af
 2140 0bea AF040000 		.4byte	.LLST20
 2141 0bee 31       		.uleb128 0x31
 2142 0bef D6060000 		.4byte	.LASF153
 2143 0bf3 01       		.byte	0x1
 2144 0bf4 4E01     		.2byte	0x14e
 2145 0bf6 AF080000 		.4byte	0x8af
 2146 0bfa CF040000 		.4byte	.LLST21
 2147 0bfe 32       		.uleb128 0x32
 2148 0bff 61636300 		.ascii	"acc\000"
 2149 0c03 01       		.byte	0x1
 2150 0c04 5001     		.2byte	0x150
 2151 0c06 C5080000 		.4byte	0x8c5
 2152 0c0a F9040000 		.4byte	.LLST22
 2153 0c0e 33       		.uleb128 0x33
ARM GAS  C:\Users\jo\AppData\Local\Temp\cclhP7jn.s 			page 39


 2154 0c0f 61050000 		.4byte	.LASF142
 2155 0c13 01       		.byte	0x1
 2156 0c14 5101     		.2byte	0x151
 2157 0c16 C5080000 		.4byte	0x8c5
 2158 0c1a D6050000 		.4byte	.LLST23
 2159 0c1e 32       		.uleb128 0x32
 2160 0c1f 7100     		.ascii	"q\000"
 2161 0c21 01       		.byte	0x1
 2162 0c22 5201     		.2byte	0x152
 2163 0c24 3C090000 		.4byte	0x93c
 2164 0c28 F4050000 		.4byte	.LLST24
 2165 0c2c 33       		.uleb128 0x33
 2166 0c2d DA050000 		.4byte	.LASF150
 2167 0c31 01       		.byte	0x1
 2168 0c32 5301     		.2byte	0x153
 2169 0c34 A4080000 		.4byte	0x8a4
 2170 0c38 1D060000 		.4byte	.LLST25
 2171 0c3c 33       		.uleb128 0x33
 2172 0c3d 50060000 		.4byte	.LASF154
 2173 0c41 01       		.byte	0x1
 2174 0c42 5401     		.2byte	0x154
 2175 0c44 AF080000 		.4byte	0x8af
 2176 0c48 53060000 		.4byte	.LLST26
 2177 0c4c 36       		.uleb128 0x36
 2178 0c4d 66090000 		.4byte	0x966
 2179 0c51 82000000 		.4byte	.LBB4
 2180 0c55 08000000 		.4byte	.LBE4-.LBB4
 2181 0c59 01       		.byte	0x1
 2182 0c5a 6201     		.2byte	0x162
 2183 0c5c 7D0C0000 		.4byte	0xc7d
 2184 0c60 29       		.uleb128 0x29
 2185 0c61 73090000 		.4byte	0x973
 2186 0c65 93060000 		.4byte	.LLST27
 2187 0c69 2D       		.uleb128 0x2d
 2188 0c6a 88000000 		.4byte	.LVL66
 2189 0c6e EA0D0000 		.4byte	0xdea
 2190 0c72 2E       		.uleb128 0x2e
 2191 0c73 01       		.uleb128 0x1
 2192 0c74 50       		.byte	0x50
 2193 0c75 05       		.uleb128 0x5
 2194 0c76 03       		.byte	0x3
 2195 0c77 28000000 		.4byte	.LC1
 2196 0c7b 00       		.byte	0
 2197 0c7c 00       		.byte	0
 2198 0c7d 35       		.uleb128 0x35
 2199 0c7e 5E000000 		.4byte	.LVL62
 2200 0c82 C3090000 		.4byte	0x9c3
 2201 0c86 910C0000 		.4byte	0xc91
 2202 0c8a 2E       		.uleb128 0x2e
 2203 0c8b 01       		.uleb128 0x1
 2204 0c8c 51       		.byte	0x51
 2205 0c8d 02       		.uleb128 0x2
 2206 0c8e 79       		.byte	0x79
 2207 0c8f 00       		.sleb128 0
 2208 0c90 00       		.byte	0
 2209 0c91 35       		.uleb128 0x35
 2210 0c92 82000000 		.4byte	.LVL65
ARM GAS  C:\Users\jo\AppData\Local\Temp\cclhP7jn.s 			page 40


 2211 0c96 4D0A0000 		.4byte	0xa4d
 2212 0c9a BF0C0000 		.4byte	0xcbf
 2213 0c9e 2E       		.uleb128 0x2e
 2214 0c9f 01       		.uleb128 0x1
 2215 0ca0 53       		.byte	0x53
 2216 0ca1 03       		.uleb128 0x3
 2217 0ca2 0A       		.byte	0xa
 2218 0ca3 6201     		.2byte	0x162
 2219 0ca5 2E       		.uleb128 0x2e
 2220 0ca6 01       		.uleb128 0x1
 2221 0ca7 52       		.byte	0x52
 2222 0ca8 05       		.uleb128 0x5
 2223 0ca9 03       		.byte	0x3
 2224 0caa 28000000 		.4byte	.LC1
 2225 0cae 2E       		.uleb128 0x2e
 2226 0caf 01       		.uleb128 0x1
 2227 0cb0 51       		.byte	0x51
 2228 0cb1 05       		.uleb128 0x5
 2229 0cb2 03       		.byte	0x3
 2230 0cb3 00000000 		.4byte	.LC0
 2231 0cb7 2E       		.uleb128 0x2e
 2232 0cb8 02       		.uleb128 0x2
 2233 0cb9 7D       		.byte	0x7d
 2234 0cba 00       		.sleb128 0
 2235 0cbb 02       		.uleb128 0x2
 2236 0cbc 78       		.byte	0x78
 2237 0cbd 00       		.sleb128 0
 2238 0cbe 00       		.byte	0
 2239 0cbf 35       		.uleb128 0x35
 2240 0cc0 B4000000 		.4byte	.LVL74
 2241 0cc4 D50D0000 		.4byte	0xdd5
 2242 0cc8 D50C0000 		.4byte	0xcd5
 2243 0ccc 2E       		.uleb128 0x2e
 2244 0ccd 01       		.uleb128 0x1
 2245 0cce 50       		.byte	0x50
 2246 0ccf 04       		.uleb128 0x4
 2247 0cd0 91       		.byte	0x91
 2248 0cd1 50       		.sleb128 -48
 2249 0cd2 94       		.byte	0x94
 2250 0cd3 02       		.byte	0x2
 2251 0cd4 00       		.byte	0
 2252 0cd5 2D       		.uleb128 0x2d
 2253 0cd6 BC000000 		.4byte	.LVL76
 2254 0cda D50D0000 		.4byte	0xdd5
 2255 0cde 2E       		.uleb128 0x2e
 2256 0cdf 01       		.uleb128 0x1
 2257 0ce0 50       		.byte	0x50
 2258 0ce1 04       		.uleb128 0x4
 2259 0ce2 91       		.byte	0x91
 2260 0ce3 54       		.sleb128 -44
 2261 0ce4 94       		.byte	0x94
 2262 0ce5 02       		.byte	0x2
 2263 0ce6 00       		.byte	0
 2264 0ce7 00       		.byte	0
 2265 0ce8 2F       		.uleb128 0x2f
 2266 0ce9 83000000 		.4byte	.LASF155
 2267 0ced 01       		.byte	0x1
ARM GAS  C:\Users\jo\AppData\Local\Temp\cclhP7jn.s 			page 41


 2268 0cee 8C01     		.2byte	0x18c
 2269 0cf0 AF080000 		.4byte	0x8af
 2270 0cf4 00000000 		.4byte	.LFB263
 2271 0cf8 0C000000 		.4byte	.LFE263-.LFB263
 2272 0cfc 01       		.uleb128 0x1
 2273 0cfd 9C       		.byte	0x9c
 2274 0cfe 340D0000 		.4byte	0xd34
 2275 0d02 31       		.uleb128 0x31
 2276 0d03 7D060000 		.4byte	.LASF146
 2277 0d07 01       		.byte	0x1
 2278 0d08 8C01     		.2byte	0x18c
 2279 0d0a 4E030000 		.4byte	0x34e
 2280 0d0e AB060000 		.4byte	.LLST28
 2281 0d12 30       		.uleb128 0x30
 2282 0d13 6C656E00 		.ascii	"len\000"
 2283 0d17 01       		.byte	0x1
 2284 0d18 8C01     		.2byte	0x18c
 2285 0d1a AF080000 		.4byte	0x8af
 2286 0d1e CC060000 		.4byte	.LLST29
 2287 0d22 2D       		.uleb128 0x2d
 2288 0d23 06000000 		.4byte	.LVL85
 2289 0d27 C3090000 		.4byte	0x9c3
 2290 0d2b 2E       		.uleb128 0x2e
 2291 0d2c 01       		.uleb128 0x1
 2292 0d2d 50       		.byte	0x50
 2293 0d2e 03       		.uleb128 0x3
 2294 0d2f F3       		.byte	0xf3
 2295 0d30 01       		.uleb128 0x1
 2296 0d31 50       		.byte	0x50
 2297 0d32 00       		.byte	0
 2298 0d33 00       		.byte	0
 2299 0d34 2F       		.uleb128 0x2f
 2300 0d35 27050000 		.4byte	.LASF156
 2301 0d39 01       		.byte	0x1
 2302 0d3a 9901     		.2byte	0x199
 2303 0d3c AF080000 		.4byte	0x8af
 2304 0d40 00000000 		.4byte	.LFB264
 2305 0d44 4E000000 		.4byte	.LFE264-.LFB264
 2306 0d48 01       		.uleb128 0x1
 2307 0d49 9C       		.byte	0x9c
 2308 0d4a 940D0000 		.4byte	0xd94
 2309 0d4e 30       		.uleb128 0x30
 2310 0d4f 7000     		.ascii	"p\000"
 2311 0d51 01       		.byte	0x1
 2312 0d52 9901     		.2byte	0x199
 2313 0d54 3C090000 		.4byte	0x93c
 2314 0d58 ED060000 		.4byte	.LLST30
 2315 0d5c 32       		.uleb128 0x32
 2316 0d5d 61636300 		.ascii	"acc\000"
 2317 0d61 01       		.byte	0x1
 2318 0d62 9B01     		.2byte	0x19b
 2319 0d64 C5080000 		.4byte	0x8c5
 2320 0d68 24070000 		.4byte	.LLST31
 2321 0d6c 32       		.uleb128 0x32
 2322 0d6d 7100     		.ascii	"q\000"
 2323 0d6f 01       		.byte	0x1
 2324 0d70 9C01     		.2byte	0x19c
ARM GAS  C:\Users\jo\AppData\Local\Temp\cclhP7jn.s 			page 42


 2325 0d72 3C090000 		.4byte	0x93c
 2326 0d76 AF070000 		.4byte	.LLST32
 2327 0d7a 33       		.uleb128 0x33
 2328 0d7b DA050000 		.4byte	.LASF150
 2329 0d7f 01       		.byte	0x1
 2330 0d80 9D01     		.2byte	0x19d
 2331 0d82 A4080000 		.4byte	0x8a4
 2332 0d86 E3070000 		.4byte	.LLST33
 2333 0d8a 34       		.uleb128 0x34
 2334 0d8b 12000000 		.4byte	.LVL88
 2335 0d8f C3090000 		.4byte	0x9c3
 2336 0d93 00       		.byte	0
 2337 0d94 37       		.uleb128 0x37
 2338 0d95 E9000000 		.4byte	.LASF157
 2339 0d99 17       		.byte	0x17
 2340 0d9a A706     		.2byte	0x6a7
 2341 0d9c FA000000 		.4byte	0xfa
 2342 0da0 38       		.uleb128 0x38
 2343 0da1 636800   		.ascii	"ch\000"
 2344 0da4 09       		.byte	0x9
 2345 0da5 0902     		.2byte	0x209
 2346 0da7 45040000 		.4byte	0x445
 2347 0dab 39       		.uleb128 0x39
 2348 0dac 2B070000 		.4byte	.LASF158
 2349 0db0 14       		.byte	0x14
 2350 0db1 3D       		.byte	0x3d
 2351 0db2 6C080000 		.4byte	0x86c
 2352 0db6 3A       		.uleb128 0x3a
 2353 0db7 6A070000 		.4byte	.LASF159
 2354 0dbb 02       		.byte	0x2
 2355 0dbc 28       		.byte	0x28
 2356 0dbd 25000000 		.4byte	0x25
 2357 0dc1 D50D0000 		.4byte	0xdd5
 2358 0dc5 0D       		.uleb128 0xd
 2359 0dc6 BD090000 		.4byte	0x9bd
 2360 0dca 0D       		.uleb128 0xd
 2361 0dcb DE060000 		.4byte	0x6de
 2362 0dcf 0D       		.uleb128 0xd
 2363 0dd0 99080000 		.4byte	0x899
 2364 0dd4 00       		.byte	0
 2365 0dd5 3A       		.uleb128 0x3a
 2366 0dd6 35030000 		.4byte	.LASF160
 2367 0dda 18       		.byte	0x18
 2368 0ddb 63       		.byte	0x63
 2369 0ddc AF080000 		.4byte	0x8af
 2370 0de0 EA0D0000 		.4byte	0xdea
 2371 0de4 0D       		.uleb128 0xd
 2372 0de5 AF080000 		.4byte	0x8af
 2373 0de9 00       		.byte	0
 2374 0dea 3B       		.uleb128 0x3b
 2375 0deb 79000000 		.4byte	.LASF167
 2376 0def 19       		.byte	0x19
 2377 0df0 1601     		.2byte	0x116
 2378 0df2 0D       		.uleb128 0xd
 2379 0df3 DE060000 		.4byte	0x6de
 2380 0df7 00       		.byte	0
 2381 0df8 00       		.byte	0
ARM GAS  C:\Users\jo\AppData\Local\Temp\cclhP7jn.s 			page 43


 2382              		.section	.debug_abbrev,"",%progbits
 2383              	.Ldebug_abbrev0:
 2384 0000 01       		.uleb128 0x1
 2385 0001 11       		.uleb128 0x11
 2386 0002 01       		.byte	0x1
 2387 0003 25       		.uleb128 0x25
 2388 0004 0E       		.uleb128 0xe
 2389 0005 13       		.uleb128 0x13
 2390 0006 0B       		.uleb128 0xb
 2391 0007 03       		.uleb128 0x3
 2392 0008 0E       		.uleb128 0xe
 2393 0009 1B       		.uleb128 0x1b
 2394 000a 0E       		.uleb128 0xe
 2395 000b 55       		.uleb128 0x55
 2396 000c 17       		.uleb128 0x17
 2397 000d 11       		.uleb128 0x11
 2398 000e 01       		.uleb128 0x1
 2399 000f 10       		.uleb128 0x10
 2400 0010 17       		.uleb128 0x17
 2401 0011 00       		.byte	0
 2402 0012 00       		.byte	0
 2403 0013 02       		.uleb128 0x2
 2404 0014 24       		.uleb128 0x24
 2405 0015 00       		.byte	0
 2406 0016 0B       		.uleb128 0xb
 2407 0017 0B       		.uleb128 0xb
 2408 0018 3E       		.uleb128 0x3e
 2409 0019 0B       		.uleb128 0xb
 2410 001a 03       		.uleb128 0x3
 2411 001b 08       		.uleb128 0x8
 2412 001c 00       		.byte	0
 2413 001d 00       		.byte	0
 2414 001e 03       		.uleb128 0x3
 2415 001f 16       		.uleb128 0x16
 2416 0020 00       		.byte	0
 2417 0021 03       		.uleb128 0x3
 2418 0022 0E       		.uleb128 0xe
 2419 0023 3A       		.uleb128 0x3a
 2420 0024 0B       		.uleb128 0xb
 2421 0025 3B       		.uleb128 0x3b
 2422 0026 0B       		.uleb128 0xb
 2423 0027 49       		.uleb128 0x49
 2424 0028 13       		.uleb128 0x13
 2425 0029 00       		.byte	0
 2426 002a 00       		.byte	0
 2427 002b 04       		.uleb128 0x4
 2428 002c 24       		.uleb128 0x24
 2429 002d 00       		.byte	0
 2430 002e 0B       		.uleb128 0xb
 2431 002f 0B       		.uleb128 0xb
 2432 0030 3E       		.uleb128 0x3e
 2433 0031 0B       		.uleb128 0xb
 2434 0032 03       		.uleb128 0x3
 2435 0033 0E       		.uleb128 0xe
 2436 0034 00       		.byte	0
 2437 0035 00       		.byte	0
 2438 0036 05       		.uleb128 0x5
ARM GAS  C:\Users\jo\AppData\Local\Temp\cclhP7jn.s 			page 44


 2439 0037 35       		.uleb128 0x35
 2440 0038 00       		.byte	0
 2441 0039 49       		.uleb128 0x49
 2442 003a 13       		.uleb128 0x13
 2443 003b 00       		.byte	0
 2444 003c 00       		.byte	0
 2445 003d 06       		.uleb128 0x6
 2446 003e 13       		.uleb128 0x13
 2447 003f 01       		.byte	0x1
 2448 0040 03       		.uleb128 0x3
 2449 0041 0E       		.uleb128 0xe
 2450 0042 0B       		.uleb128 0xb
 2451 0043 0B       		.uleb128 0xb
 2452 0044 3A       		.uleb128 0x3a
 2453 0045 0B       		.uleb128 0xb
 2454 0046 3B       		.uleb128 0x3b
 2455 0047 0B       		.uleb128 0xb
 2456 0048 01       		.uleb128 0x1
 2457 0049 13       		.uleb128 0x13
 2458 004a 00       		.byte	0
 2459 004b 00       		.byte	0
 2460 004c 07       		.uleb128 0x7
 2461 004d 0D       		.uleb128 0xd
 2462 004e 00       		.byte	0
 2463 004f 03       		.uleb128 0x3
 2464 0050 0E       		.uleb128 0xe
 2465 0051 3A       		.uleb128 0x3a
 2466 0052 0B       		.uleb128 0xb
 2467 0053 3B       		.uleb128 0x3b
 2468 0054 0B       		.uleb128 0xb
 2469 0055 49       		.uleb128 0x49
 2470 0056 13       		.uleb128 0x13
 2471 0057 38       		.uleb128 0x38
 2472 0058 0B       		.uleb128 0xb
 2473 0059 00       		.byte	0
 2474 005a 00       		.byte	0
 2475 005b 08       		.uleb128 0x8
 2476 005c 0D       		.uleb128 0xd
 2477 005d 00       		.byte	0
 2478 005e 03       		.uleb128 0x3
 2479 005f 08       		.uleb128 0x8
 2480 0060 3A       		.uleb128 0x3a
 2481 0061 0B       		.uleb128 0xb
 2482 0062 3B       		.uleb128 0x3b
 2483 0063 05       		.uleb128 0x5
 2484 0064 49       		.uleb128 0x49
 2485 0065 13       		.uleb128 0x13
 2486 0066 38       		.uleb128 0x38
 2487 0067 0B       		.uleb128 0xb
 2488 0068 00       		.byte	0
 2489 0069 00       		.byte	0
 2490 006a 09       		.uleb128 0x9
 2491 006b 0D       		.uleb128 0xd
 2492 006c 00       		.byte	0
 2493 006d 03       		.uleb128 0x3
 2494 006e 0E       		.uleb128 0xe
 2495 006f 3A       		.uleb128 0x3a
ARM GAS  C:\Users\jo\AppData\Local\Temp\cclhP7jn.s 			page 45


 2496 0070 0B       		.uleb128 0xb
 2497 0071 3B       		.uleb128 0x3b
 2498 0072 05       		.uleb128 0x5
 2499 0073 49       		.uleb128 0x49
 2500 0074 13       		.uleb128 0x13
 2501 0075 38       		.uleb128 0x38
 2502 0076 0B       		.uleb128 0xb
 2503 0077 00       		.byte	0
 2504 0078 00       		.byte	0
 2505 0079 0A       		.uleb128 0xa
 2506 007a 0F       		.uleb128 0xf
 2507 007b 00       		.byte	0
 2508 007c 0B       		.uleb128 0xb
 2509 007d 0B       		.uleb128 0xb
 2510 007e 49       		.uleb128 0x49
 2511 007f 13       		.uleb128 0x13
 2512 0080 00       		.byte	0
 2513 0081 00       		.byte	0
 2514 0082 0B       		.uleb128 0xb
 2515 0083 13       		.uleb128 0x13
 2516 0084 01       		.byte	0x1
 2517 0085 03       		.uleb128 0x3
 2518 0086 0E       		.uleb128 0xe
 2519 0087 0B       		.uleb128 0xb
 2520 0088 0B       		.uleb128 0xb
 2521 0089 3A       		.uleb128 0x3a
 2522 008a 0B       		.uleb128 0xb
 2523 008b 3B       		.uleb128 0x3b
 2524 008c 05       		.uleb128 0x5
 2525 008d 01       		.uleb128 0x1
 2526 008e 13       		.uleb128 0x13
 2527 008f 00       		.byte	0
 2528 0090 00       		.byte	0
 2529 0091 0C       		.uleb128 0xc
 2530 0092 15       		.uleb128 0x15
 2531 0093 01       		.byte	0x1
 2532 0094 27       		.uleb128 0x27
 2533 0095 19       		.uleb128 0x19
 2534 0096 01       		.uleb128 0x1
 2535 0097 13       		.uleb128 0x13
 2536 0098 00       		.byte	0
 2537 0099 00       		.byte	0
 2538 009a 0D       		.uleb128 0xd
 2539 009b 05       		.uleb128 0x5
 2540 009c 00       		.byte	0
 2541 009d 49       		.uleb128 0x49
 2542 009e 13       		.uleb128 0x13
 2543 009f 00       		.byte	0
 2544 00a0 00       		.byte	0
 2545 00a1 0E       		.uleb128 0xe
 2546 00a2 0F       		.uleb128 0xf
 2547 00a3 00       		.byte	0
 2548 00a4 0B       		.uleb128 0xb
 2549 00a5 0B       		.uleb128 0xb
 2550 00a6 00       		.byte	0
 2551 00a7 00       		.byte	0
 2552 00a8 0F       		.uleb128 0xf
ARM GAS  C:\Users\jo\AppData\Local\Temp\cclhP7jn.s 			page 46


 2553 00a9 13       		.uleb128 0x13
 2554 00aa 01       		.byte	0x1
 2555 00ab 03       		.uleb128 0x3
 2556 00ac 0E       		.uleb128 0xe
 2557 00ad 0B       		.uleb128 0xb
 2558 00ae 05       		.uleb128 0x5
 2559 00af 3A       		.uleb128 0x3a
 2560 00b0 0B       		.uleb128 0xb
 2561 00b1 3B       		.uleb128 0x3b
 2562 00b2 05       		.uleb128 0x5
 2563 00b3 01       		.uleb128 0x1
 2564 00b4 13       		.uleb128 0x13
 2565 00b5 00       		.byte	0
 2566 00b6 00       		.byte	0
 2567 00b7 10       		.uleb128 0x10
 2568 00b8 0D       		.uleb128 0xd
 2569 00b9 00       		.byte	0
 2570 00ba 03       		.uleb128 0x3
 2571 00bb 0E       		.uleb128 0xe
 2572 00bc 3A       		.uleb128 0x3a
 2573 00bd 0B       		.uleb128 0xb
 2574 00be 3B       		.uleb128 0x3b
 2575 00bf 05       		.uleb128 0x5
 2576 00c0 49       		.uleb128 0x49
 2577 00c1 13       		.uleb128 0x13
 2578 00c2 38       		.uleb128 0x38
 2579 00c3 05       		.uleb128 0x5
 2580 00c4 00       		.byte	0
 2581 00c5 00       		.byte	0
 2582 00c6 11       		.uleb128 0x11
 2583 00c7 0D       		.uleb128 0xd
 2584 00c8 00       		.byte	0
 2585 00c9 03       		.uleb128 0x3
 2586 00ca 08       		.uleb128 0x8
 2587 00cb 3A       		.uleb128 0x3a
 2588 00cc 0B       		.uleb128 0xb
 2589 00cd 3B       		.uleb128 0x3b
 2590 00ce 05       		.uleb128 0x5
 2591 00cf 49       		.uleb128 0x49
 2592 00d0 13       		.uleb128 0x13
 2593 00d1 38       		.uleb128 0x38
 2594 00d2 05       		.uleb128 0x5
 2595 00d3 00       		.byte	0
 2596 00d4 00       		.byte	0
 2597 00d5 12       		.uleb128 0x12
 2598 00d6 0D       		.uleb128 0xd
 2599 00d7 00       		.byte	0
 2600 00d8 03       		.uleb128 0x3
 2601 00d9 08       		.uleb128 0x8
 2602 00da 3A       		.uleb128 0x3a
 2603 00db 0B       		.uleb128 0xb
 2604 00dc 3B       		.uleb128 0x3b
 2605 00dd 0B       		.uleb128 0xb
 2606 00de 49       		.uleb128 0x49
 2607 00df 13       		.uleb128 0x13
 2608 00e0 38       		.uleb128 0x38
 2609 00e1 0B       		.uleb128 0xb
ARM GAS  C:\Users\jo\AppData\Local\Temp\cclhP7jn.s 			page 47


 2610 00e2 00       		.byte	0
 2611 00e3 00       		.byte	0
 2612 00e4 13       		.uleb128 0x13
 2613 00e5 13       		.uleb128 0x13
 2614 00e6 01       		.byte	0x1
 2615 00e7 0B       		.uleb128 0xb
 2616 00e8 0B       		.uleb128 0xb
 2617 00e9 3A       		.uleb128 0x3a
 2618 00ea 0B       		.uleb128 0xb
 2619 00eb 3B       		.uleb128 0x3b
 2620 00ec 0B       		.uleb128 0xb
 2621 00ed 01       		.uleb128 0x1
 2622 00ee 13       		.uleb128 0x13
 2623 00ef 00       		.byte	0
 2624 00f0 00       		.byte	0
 2625 00f1 14       		.uleb128 0x14
 2626 00f2 13       		.uleb128 0x13
 2627 00f3 01       		.byte	0x1
 2628 00f4 0B       		.uleb128 0xb
 2629 00f5 05       		.uleb128 0x5
 2630 00f6 3A       		.uleb128 0x3a
 2631 00f7 0B       		.uleb128 0xb
 2632 00f8 3B       		.uleb128 0x3b
 2633 00f9 0B       		.uleb128 0xb
 2634 00fa 01       		.uleb128 0x1
 2635 00fb 13       		.uleb128 0x13
 2636 00fc 00       		.byte	0
 2637 00fd 00       		.byte	0
 2638 00fe 15       		.uleb128 0x15
 2639 00ff 01       		.uleb128 0x1
 2640 0100 01       		.byte	0x1
 2641 0101 49       		.uleb128 0x49
 2642 0102 13       		.uleb128 0x13
 2643 0103 01       		.uleb128 0x1
 2644 0104 13       		.uleb128 0x13
 2645 0105 00       		.byte	0
 2646 0106 00       		.byte	0
 2647 0107 16       		.uleb128 0x16
 2648 0108 21       		.uleb128 0x21
 2649 0109 00       		.byte	0
 2650 010a 49       		.uleb128 0x49
 2651 010b 13       		.uleb128 0x13
 2652 010c 2F       		.uleb128 0x2f
 2653 010d 0B       		.uleb128 0xb
 2654 010e 00       		.byte	0
 2655 010f 00       		.byte	0
 2656 0110 17       		.uleb128 0x17
 2657 0111 17       		.uleb128 0x17
 2658 0112 01       		.byte	0x1
 2659 0113 0B       		.uleb128 0xb
 2660 0114 0B       		.uleb128 0xb
 2661 0115 3A       		.uleb128 0x3a
 2662 0116 0B       		.uleb128 0xb
 2663 0117 3B       		.uleb128 0x3b
 2664 0118 0B       		.uleb128 0xb
 2665 0119 01       		.uleb128 0x1
 2666 011a 13       		.uleb128 0x13
ARM GAS  C:\Users\jo\AppData\Local\Temp\cclhP7jn.s 			page 48


 2667 011b 00       		.byte	0
 2668 011c 00       		.byte	0
 2669 011d 18       		.uleb128 0x18
 2670 011e 0D       		.uleb128 0xd
 2671 011f 00       		.byte	0
 2672 0120 03       		.uleb128 0x3
 2673 0121 0E       		.uleb128 0xe
 2674 0122 3A       		.uleb128 0x3a
 2675 0123 0B       		.uleb128 0xb
 2676 0124 3B       		.uleb128 0x3b
 2677 0125 05       		.uleb128 0x5
 2678 0126 49       		.uleb128 0x49
 2679 0127 13       		.uleb128 0x13
 2680 0128 00       		.byte	0
 2681 0129 00       		.byte	0
 2682 012a 19       		.uleb128 0x19
 2683 012b 26       		.uleb128 0x26
 2684 012c 00       		.byte	0
 2685 012d 49       		.uleb128 0x49
 2686 012e 13       		.uleb128 0x13
 2687 012f 00       		.byte	0
 2688 0130 00       		.byte	0
 2689 0131 1A       		.uleb128 0x1a
 2690 0132 15       		.uleb128 0x15
 2691 0133 01       		.byte	0x1
 2692 0134 27       		.uleb128 0x27
 2693 0135 19       		.uleb128 0x19
 2694 0136 49       		.uleb128 0x49
 2695 0137 13       		.uleb128 0x13
 2696 0138 01       		.uleb128 0x1
 2697 0139 13       		.uleb128 0x13
 2698 013a 00       		.byte	0
 2699 013b 00       		.byte	0
 2700 013c 1B       		.uleb128 0x1b
 2701 013d 0D       		.uleb128 0xd
 2702 013e 00       		.byte	0
 2703 013f 03       		.uleb128 0x3
 2704 0140 0E       		.uleb128 0xe
 2705 0141 49       		.uleb128 0x49
 2706 0142 13       		.uleb128 0x13
 2707 0143 38       		.uleb128 0x38
 2708 0144 0B       		.uleb128 0xb
 2709 0145 34       		.uleb128 0x34
 2710 0146 19       		.uleb128 0x19
 2711 0147 00       		.byte	0
 2712 0148 00       		.byte	0
 2713 0149 1C       		.uleb128 0x1c
 2714 014a 2E       		.uleb128 0x2e
 2715 014b 01       		.byte	0x1
 2716 014c 03       		.uleb128 0x3
 2717 014d 0E       		.uleb128 0xe
 2718 014e 3A       		.uleb128 0x3a
 2719 014f 0B       		.uleb128 0xb
 2720 0150 3B       		.uleb128 0x3b
 2721 0151 05       		.uleb128 0x5
 2722 0152 27       		.uleb128 0x27
 2723 0153 19       		.uleb128 0x19
ARM GAS  C:\Users\jo\AppData\Local\Temp\cclhP7jn.s 			page 49


 2724 0154 20       		.uleb128 0x20
 2725 0155 0B       		.uleb128 0xb
 2726 0156 01       		.uleb128 0x1
 2727 0157 13       		.uleb128 0x13
 2728 0158 00       		.byte	0
 2729 0159 00       		.byte	0
 2730 015a 1D       		.uleb128 0x1d
 2731 015b 05       		.uleb128 0x5
 2732 015c 00       		.byte	0
 2733 015d 03       		.uleb128 0x3
 2734 015e 0E       		.uleb128 0xe
 2735 015f 3A       		.uleb128 0x3a
 2736 0160 0B       		.uleb128 0xb
 2737 0161 3B       		.uleb128 0x3b
 2738 0162 05       		.uleb128 0x5
 2739 0163 49       		.uleb128 0x49
 2740 0164 13       		.uleb128 0x13
 2741 0165 00       		.byte	0
 2742 0166 00       		.byte	0
 2743 0167 1E       		.uleb128 0x1e
 2744 0168 2E       		.uleb128 0x2e
 2745 0169 01       		.byte	0x1
 2746 016a 03       		.uleb128 0x3
 2747 016b 0E       		.uleb128 0xe
 2748 016c 3A       		.uleb128 0x3a
 2749 016d 0B       		.uleb128 0xb
 2750 016e 3B       		.uleb128 0x3b
 2751 016f 0B       		.uleb128 0xb
 2752 0170 27       		.uleb128 0x27
 2753 0171 19       		.uleb128 0x19
 2754 0172 49       		.uleb128 0x49
 2755 0173 13       		.uleb128 0x13
 2756 0174 20       		.uleb128 0x20
 2757 0175 0B       		.uleb128 0xb
 2758 0176 01       		.uleb128 0x1
 2759 0177 13       		.uleb128 0x13
 2760 0178 00       		.byte	0
 2761 0179 00       		.byte	0
 2762 017a 1F       		.uleb128 0x1f
 2763 017b 05       		.uleb128 0x5
 2764 017c 00       		.byte	0
 2765 017d 03       		.uleb128 0x3
 2766 017e 08       		.uleb128 0x8
 2767 017f 3A       		.uleb128 0x3a
 2768 0180 0B       		.uleb128 0xb
 2769 0181 3B       		.uleb128 0x3b
 2770 0182 0B       		.uleb128 0xb
 2771 0183 49       		.uleb128 0x49
 2772 0184 13       		.uleb128 0x13
 2773 0185 00       		.byte	0
 2774 0186 00       		.byte	0
 2775 0187 20       		.uleb128 0x20
 2776 0188 18       		.uleb128 0x18
 2777 0189 00       		.byte	0
 2778 018a 00       		.byte	0
 2779 018b 00       		.byte	0
 2780 018c 21       		.uleb128 0x21
ARM GAS  C:\Users\jo\AppData\Local\Temp\cclhP7jn.s 			page 50


 2781 018d 34       		.uleb128 0x34
 2782 018e 00       		.byte	0
 2783 018f 03       		.uleb128 0x3
 2784 0190 08       		.uleb128 0x8
 2785 0191 3A       		.uleb128 0x3a
 2786 0192 0B       		.uleb128 0xb
 2787 0193 3B       		.uleb128 0x3b
 2788 0194 0B       		.uleb128 0xb
 2789 0195 49       		.uleb128 0x49
 2790 0196 13       		.uleb128 0x13
 2791 0197 00       		.byte	0
 2792 0198 00       		.byte	0
 2793 0199 22       		.uleb128 0x22
 2794 019a 34       		.uleb128 0x34
 2795 019b 00       		.byte	0
 2796 019c 03       		.uleb128 0x3
 2797 019d 0E       		.uleb128 0xe
 2798 019e 3A       		.uleb128 0x3a
 2799 019f 0B       		.uleb128 0xb
 2800 01a0 3B       		.uleb128 0x3b
 2801 01a1 0B       		.uleb128 0xb
 2802 01a2 49       		.uleb128 0x49
 2803 01a3 13       		.uleb128 0x13
 2804 01a4 00       		.byte	0
 2805 01a5 00       		.byte	0
 2806 01a6 23       		.uleb128 0x23
 2807 01a7 2E       		.uleb128 0x2e
 2808 01a8 01       		.byte	0x1
 2809 01a9 03       		.uleb128 0x3
 2810 01aa 0E       		.uleb128 0xe
 2811 01ab 3A       		.uleb128 0x3a
 2812 01ac 0B       		.uleb128 0xb
 2813 01ad 3B       		.uleb128 0x3b
 2814 01ae 0B       		.uleb128 0xb
 2815 01af 27       		.uleb128 0x27
 2816 01b0 19       		.uleb128 0x19
 2817 01b1 49       		.uleb128 0x49
 2818 01b2 13       		.uleb128 0x13
 2819 01b3 11       		.uleb128 0x11
 2820 01b4 01       		.uleb128 0x1
 2821 01b5 12       		.uleb128 0x12
 2822 01b6 06       		.uleb128 0x6
 2823 01b7 40       		.uleb128 0x40
 2824 01b8 18       		.uleb128 0x18
 2825 01b9 9742     		.uleb128 0x2117
 2826 01bb 19       		.uleb128 0x19
 2827 01bc 01       		.uleb128 0x1
 2828 01bd 13       		.uleb128 0x13
 2829 01be 00       		.byte	0
 2830 01bf 00       		.byte	0
 2831 01c0 24       		.uleb128 0x24
 2832 01c1 05       		.uleb128 0x5
 2833 01c2 00       		.byte	0
 2834 01c3 03       		.uleb128 0x3
 2835 01c4 0E       		.uleb128 0xe
 2836 01c5 3A       		.uleb128 0x3a
 2837 01c6 0B       		.uleb128 0xb
ARM GAS  C:\Users\jo\AppData\Local\Temp\cclhP7jn.s 			page 51


 2838 01c7 3B       		.uleb128 0x3b
 2839 01c8 0B       		.uleb128 0xb
 2840 01c9 49       		.uleb128 0x49
 2841 01ca 13       		.uleb128 0x13
 2842 01cb 02       		.uleb128 0x2
 2843 01cc 17       		.uleb128 0x17
 2844 01cd 00       		.byte	0
 2845 01ce 00       		.byte	0
 2846 01cf 25       		.uleb128 0x25
 2847 01d0 05       		.uleb128 0x5
 2848 01d1 00       		.byte	0
 2849 01d2 03       		.uleb128 0x3
 2850 01d3 08       		.uleb128 0x8
 2851 01d4 3A       		.uleb128 0x3a
 2852 01d5 0B       		.uleb128 0xb
 2853 01d6 3B       		.uleb128 0x3b
 2854 01d7 0B       		.uleb128 0xb
 2855 01d8 49       		.uleb128 0x49
 2856 01d9 13       		.uleb128 0x13
 2857 01da 02       		.uleb128 0x2
 2858 01db 17       		.uleb128 0x17
 2859 01dc 00       		.byte	0
 2860 01dd 00       		.byte	0
 2861 01de 26       		.uleb128 0x26
 2862 01df 34       		.uleb128 0x34
 2863 01e0 00       		.byte	0
 2864 01e1 03       		.uleb128 0x3
 2865 01e2 08       		.uleb128 0x8
 2866 01e3 3A       		.uleb128 0x3a
 2867 01e4 0B       		.uleb128 0xb
 2868 01e5 3B       		.uleb128 0x3b
 2869 01e6 0B       		.uleb128 0xb
 2870 01e7 49       		.uleb128 0x49
 2871 01e8 13       		.uleb128 0x13
 2872 01e9 02       		.uleb128 0x2
 2873 01ea 17       		.uleb128 0x17
 2874 01eb 00       		.byte	0
 2875 01ec 00       		.byte	0
 2876 01ed 27       		.uleb128 0x27
 2877 01ee 34       		.uleb128 0x34
 2878 01ef 00       		.byte	0
 2879 01f0 03       		.uleb128 0x3
 2880 01f1 08       		.uleb128 0x8
 2881 01f2 3A       		.uleb128 0x3a
 2882 01f3 0B       		.uleb128 0xb
 2883 01f4 3B       		.uleb128 0x3b
 2884 01f5 0B       		.uleb128 0xb
 2885 01f6 49       		.uleb128 0x49
 2886 01f7 13       		.uleb128 0x13
 2887 01f8 02       		.uleb128 0x2
 2888 01f9 18       		.uleb128 0x18
 2889 01fa 00       		.byte	0
 2890 01fb 00       		.byte	0
 2891 01fc 28       		.uleb128 0x28
 2892 01fd 2E       		.uleb128 0x2e
 2893 01fe 01       		.byte	0x1
 2894 01ff 31       		.uleb128 0x31
ARM GAS  C:\Users\jo\AppData\Local\Temp\cclhP7jn.s 			page 52


 2895 0200 13       		.uleb128 0x13
 2896 0201 11       		.uleb128 0x11
 2897 0202 01       		.uleb128 0x1
 2898 0203 12       		.uleb128 0x12
 2899 0204 06       		.uleb128 0x6
 2900 0205 40       		.uleb128 0x40
 2901 0206 18       		.uleb128 0x18
 2902 0207 9742     		.uleb128 0x2117
 2903 0209 19       		.uleb128 0x19
 2904 020a 01       		.uleb128 0x1
 2905 020b 13       		.uleb128 0x13
 2906 020c 00       		.byte	0
 2907 020d 00       		.byte	0
 2908 020e 29       		.uleb128 0x29
 2909 020f 05       		.uleb128 0x5
 2910 0210 00       		.byte	0
 2911 0211 31       		.uleb128 0x31
 2912 0212 13       		.uleb128 0x13
 2913 0213 02       		.uleb128 0x2
 2914 0214 17       		.uleb128 0x17
 2915 0215 00       		.byte	0
 2916 0216 00       		.byte	0
 2917 0217 2A       		.uleb128 0x2a
 2918 0218 05       		.uleb128 0x5
 2919 0219 00       		.byte	0
 2920 021a 31       		.uleb128 0x31
 2921 021b 13       		.uleb128 0x13
 2922 021c 02       		.uleb128 0x2
 2923 021d 18       		.uleb128 0x18
 2924 021e 00       		.byte	0
 2925 021f 00       		.byte	0
 2926 0220 2B       		.uleb128 0x2b
 2927 0221 34       		.uleb128 0x34
 2928 0222 00       		.byte	0
 2929 0223 31       		.uleb128 0x31
 2930 0224 13       		.uleb128 0x13
 2931 0225 02       		.uleb128 0x2
 2932 0226 18       		.uleb128 0x18
 2933 0227 00       		.byte	0
 2934 0228 00       		.byte	0
 2935 0229 2C       		.uleb128 0x2c
 2936 022a 05       		.uleb128 0x5
 2937 022b 00       		.byte	0
 2938 022c 31       		.uleb128 0x31
 2939 022d 13       		.uleb128 0x13
 2940 022e 00       		.byte	0
 2941 022f 00       		.byte	0
 2942 0230 2D       		.uleb128 0x2d
 2943 0231 898201   		.uleb128 0x4109
 2944 0234 01       		.byte	0x1
 2945 0235 11       		.uleb128 0x11
 2946 0236 01       		.uleb128 0x1
 2947 0237 31       		.uleb128 0x31
 2948 0238 13       		.uleb128 0x13
 2949 0239 00       		.byte	0
 2950 023a 00       		.byte	0
 2951 023b 2E       		.uleb128 0x2e
ARM GAS  C:\Users\jo\AppData\Local\Temp\cclhP7jn.s 			page 53


 2952 023c 8A8201   		.uleb128 0x410a
 2953 023f 00       		.byte	0
 2954 0240 02       		.uleb128 0x2
 2955 0241 18       		.uleb128 0x18
 2956 0242 9142     		.uleb128 0x2111
 2957 0244 18       		.uleb128 0x18
 2958 0245 00       		.byte	0
 2959 0246 00       		.byte	0
 2960 0247 2F       		.uleb128 0x2f
 2961 0248 2E       		.uleb128 0x2e
 2962 0249 01       		.byte	0x1
 2963 024a 3F       		.uleb128 0x3f
 2964 024b 19       		.uleb128 0x19
 2965 024c 03       		.uleb128 0x3
 2966 024d 0E       		.uleb128 0xe
 2967 024e 3A       		.uleb128 0x3a
 2968 024f 0B       		.uleb128 0xb
 2969 0250 3B       		.uleb128 0x3b
 2970 0251 05       		.uleb128 0x5
 2971 0252 27       		.uleb128 0x27
 2972 0253 19       		.uleb128 0x19
 2973 0254 49       		.uleb128 0x49
 2974 0255 13       		.uleb128 0x13
 2975 0256 11       		.uleb128 0x11
 2976 0257 01       		.uleb128 0x1
 2977 0258 12       		.uleb128 0x12
 2978 0259 06       		.uleb128 0x6
 2979 025a 40       		.uleb128 0x40
 2980 025b 18       		.uleb128 0x18
 2981 025c 9742     		.uleb128 0x2117
 2982 025e 19       		.uleb128 0x19
 2983 025f 01       		.uleb128 0x1
 2984 0260 13       		.uleb128 0x13
 2985 0261 00       		.byte	0
 2986 0262 00       		.byte	0
 2987 0263 30       		.uleb128 0x30
 2988 0264 05       		.uleb128 0x5
 2989 0265 00       		.byte	0
 2990 0266 03       		.uleb128 0x3
 2991 0267 08       		.uleb128 0x8
 2992 0268 3A       		.uleb128 0x3a
 2993 0269 0B       		.uleb128 0xb
 2994 026a 3B       		.uleb128 0x3b
 2995 026b 05       		.uleb128 0x5
 2996 026c 49       		.uleb128 0x49
 2997 026d 13       		.uleb128 0x13
 2998 026e 02       		.uleb128 0x2
 2999 026f 17       		.uleb128 0x17
 3000 0270 00       		.byte	0
 3001 0271 00       		.byte	0
 3002 0272 31       		.uleb128 0x31
 3003 0273 05       		.uleb128 0x5
 3004 0274 00       		.byte	0
 3005 0275 03       		.uleb128 0x3
 3006 0276 0E       		.uleb128 0xe
 3007 0277 3A       		.uleb128 0x3a
 3008 0278 0B       		.uleb128 0xb
ARM GAS  C:\Users\jo\AppData\Local\Temp\cclhP7jn.s 			page 54


 3009 0279 3B       		.uleb128 0x3b
 3010 027a 05       		.uleb128 0x5
 3011 027b 49       		.uleb128 0x49
 3012 027c 13       		.uleb128 0x13
 3013 027d 02       		.uleb128 0x2
 3014 027e 17       		.uleb128 0x17
 3015 027f 00       		.byte	0
 3016 0280 00       		.byte	0
 3017 0281 32       		.uleb128 0x32
 3018 0282 34       		.uleb128 0x34
 3019 0283 00       		.byte	0
 3020 0284 03       		.uleb128 0x3
 3021 0285 08       		.uleb128 0x8
 3022 0286 3A       		.uleb128 0x3a
 3023 0287 0B       		.uleb128 0xb
 3024 0288 3B       		.uleb128 0x3b
 3025 0289 05       		.uleb128 0x5
 3026 028a 49       		.uleb128 0x49
 3027 028b 13       		.uleb128 0x13
 3028 028c 02       		.uleb128 0x2
 3029 028d 17       		.uleb128 0x17
 3030 028e 00       		.byte	0
 3031 028f 00       		.byte	0
 3032 0290 33       		.uleb128 0x33
 3033 0291 34       		.uleb128 0x34
 3034 0292 00       		.byte	0
 3035 0293 03       		.uleb128 0x3
 3036 0294 0E       		.uleb128 0xe
 3037 0295 3A       		.uleb128 0x3a
 3038 0296 0B       		.uleb128 0xb
 3039 0297 3B       		.uleb128 0x3b
 3040 0298 05       		.uleb128 0x5
 3041 0299 49       		.uleb128 0x49
 3042 029a 13       		.uleb128 0x13
 3043 029b 02       		.uleb128 0x2
 3044 029c 17       		.uleb128 0x17
 3045 029d 00       		.byte	0
 3046 029e 00       		.byte	0
 3047 029f 34       		.uleb128 0x34
 3048 02a0 898201   		.uleb128 0x4109
 3049 02a3 00       		.byte	0
 3050 02a4 11       		.uleb128 0x11
 3051 02a5 01       		.uleb128 0x1
 3052 02a6 31       		.uleb128 0x31
 3053 02a7 13       		.uleb128 0x13
 3054 02a8 00       		.byte	0
 3055 02a9 00       		.byte	0
 3056 02aa 35       		.uleb128 0x35
 3057 02ab 898201   		.uleb128 0x4109
 3058 02ae 01       		.byte	0x1
 3059 02af 11       		.uleb128 0x11
 3060 02b0 01       		.uleb128 0x1
 3061 02b1 31       		.uleb128 0x31
 3062 02b2 13       		.uleb128 0x13
 3063 02b3 01       		.uleb128 0x1
 3064 02b4 13       		.uleb128 0x13
 3065 02b5 00       		.byte	0
ARM GAS  C:\Users\jo\AppData\Local\Temp\cclhP7jn.s 			page 55


 3066 02b6 00       		.byte	0
 3067 02b7 36       		.uleb128 0x36
 3068 02b8 1D       		.uleb128 0x1d
 3069 02b9 01       		.byte	0x1
 3070 02ba 31       		.uleb128 0x31
 3071 02bb 13       		.uleb128 0x13
 3072 02bc 11       		.uleb128 0x11
 3073 02bd 01       		.uleb128 0x1
 3074 02be 12       		.uleb128 0x12
 3075 02bf 06       		.uleb128 0x6
 3076 02c0 58       		.uleb128 0x58
 3077 02c1 0B       		.uleb128 0xb
 3078 02c2 59       		.uleb128 0x59
 3079 02c3 05       		.uleb128 0x5
 3080 02c4 01       		.uleb128 0x1
 3081 02c5 13       		.uleb128 0x13
 3082 02c6 00       		.byte	0
 3083 02c7 00       		.byte	0
 3084 02c8 37       		.uleb128 0x37
 3085 02c9 34       		.uleb128 0x34
 3086 02ca 00       		.byte	0
 3087 02cb 03       		.uleb128 0x3
 3088 02cc 0E       		.uleb128 0xe
 3089 02cd 3A       		.uleb128 0x3a
 3090 02ce 0B       		.uleb128 0xb
 3091 02cf 3B       		.uleb128 0x3b
 3092 02d0 05       		.uleb128 0x5
 3093 02d1 49       		.uleb128 0x49
 3094 02d2 13       		.uleb128 0x13
 3095 02d3 3F       		.uleb128 0x3f
 3096 02d4 19       		.uleb128 0x19
 3097 02d5 3C       		.uleb128 0x3c
 3098 02d6 19       		.uleb128 0x19
 3099 02d7 00       		.byte	0
 3100 02d8 00       		.byte	0
 3101 02d9 38       		.uleb128 0x38
 3102 02da 34       		.uleb128 0x34
 3103 02db 00       		.byte	0
 3104 02dc 03       		.uleb128 0x3
 3105 02dd 08       		.uleb128 0x8
 3106 02de 3A       		.uleb128 0x3a
 3107 02df 0B       		.uleb128 0xb
 3108 02e0 3B       		.uleb128 0x3b
 3109 02e1 05       		.uleb128 0x5
 3110 02e2 49       		.uleb128 0x49
 3111 02e3 13       		.uleb128 0x13
 3112 02e4 3F       		.uleb128 0x3f
 3113 02e5 19       		.uleb128 0x19
 3114 02e6 3C       		.uleb128 0x3c
 3115 02e7 19       		.uleb128 0x19
 3116 02e8 00       		.byte	0
 3117 02e9 00       		.byte	0
 3118 02ea 39       		.uleb128 0x39
 3119 02eb 34       		.uleb128 0x34
 3120 02ec 00       		.byte	0
 3121 02ed 03       		.uleb128 0x3
 3122 02ee 0E       		.uleb128 0xe
ARM GAS  C:\Users\jo\AppData\Local\Temp\cclhP7jn.s 			page 56


 3123 02ef 3A       		.uleb128 0x3a
 3124 02f0 0B       		.uleb128 0xb
 3125 02f1 3B       		.uleb128 0x3b
 3126 02f2 0B       		.uleb128 0xb
 3127 02f3 49       		.uleb128 0x49
 3128 02f4 13       		.uleb128 0x13
 3129 02f5 3F       		.uleb128 0x3f
 3130 02f6 19       		.uleb128 0x19
 3131 02f7 3C       		.uleb128 0x3c
 3132 02f8 19       		.uleb128 0x19
 3133 02f9 00       		.byte	0
 3134 02fa 00       		.byte	0
 3135 02fb 3A       		.uleb128 0x3a
 3136 02fc 2E       		.uleb128 0x2e
 3137 02fd 01       		.byte	0x1
 3138 02fe 3F       		.uleb128 0x3f
 3139 02ff 19       		.uleb128 0x19
 3140 0300 03       		.uleb128 0x3
 3141 0301 0E       		.uleb128 0xe
 3142 0302 3A       		.uleb128 0x3a
 3143 0303 0B       		.uleb128 0xb
 3144 0304 3B       		.uleb128 0x3b
 3145 0305 0B       		.uleb128 0xb
 3146 0306 27       		.uleb128 0x27
 3147 0307 19       		.uleb128 0x19
 3148 0308 49       		.uleb128 0x49
 3149 0309 13       		.uleb128 0x13
 3150 030a 3C       		.uleb128 0x3c
 3151 030b 19       		.uleb128 0x19
 3152 030c 01       		.uleb128 0x1
 3153 030d 13       		.uleb128 0x13
 3154 030e 00       		.byte	0
 3155 030f 00       		.byte	0
 3156 0310 3B       		.uleb128 0x3b
 3157 0311 2E       		.uleb128 0x2e
 3158 0312 01       		.byte	0x1
 3159 0313 3F       		.uleb128 0x3f
 3160 0314 19       		.uleb128 0x19
 3161 0315 03       		.uleb128 0x3
 3162 0316 0E       		.uleb128 0xe
 3163 0317 3A       		.uleb128 0x3a
 3164 0318 0B       		.uleb128 0xb
 3165 0319 3B       		.uleb128 0x3b
 3166 031a 05       		.uleb128 0x5
 3167 031b 27       		.uleb128 0x27
 3168 031c 19       		.uleb128 0x19
 3169 031d 3C       		.uleb128 0x3c
 3170 031e 19       		.uleb128 0x19
 3171 031f 00       		.byte	0
 3172 0320 00       		.byte	0
 3173 0321 00       		.byte	0
 3174              		.section	.debug_loc,"",%progbits
 3175              	.Ldebug_loc0:
 3176              	.LLST0:
 3177 0000 00000000 		.4byte	.LVL0
 3178 0004 1E000000 		.4byte	.LVL4
 3179 0008 0100     		.2byte	0x1
ARM GAS  C:\Users\jo\AppData\Local\Temp\cclhP7jn.s 			page 57


 3180 000a 50       		.byte	0x50
 3181 000b 1E000000 		.4byte	.LVL4
 3182 000f 76000000 		.4byte	.LFE260
 3183 0013 0400     		.2byte	0x4
 3184 0015 F3       		.byte	0xf3
 3185 0016 01       		.uleb128 0x1
 3186 0017 50       		.byte	0x50
 3187 0018 9F       		.byte	0x9f
 3188 0019 00000000 		.4byte	0
 3189 001d 00000000 		.4byte	0
 3190              	.LLST1:
 3191 0021 00000000 		.4byte	.LVL0
 3192 0025 1C000000 		.4byte	.LVL3
 3193 0029 0100     		.2byte	0x1
 3194 002b 51       		.byte	0x51
 3195 002c 1C000000 		.4byte	.LVL3
 3196 0030 28000000 		.4byte	.LVL5
 3197 0034 0100     		.2byte	0x1
 3198 0036 51       		.byte	0x51
 3199 0037 28000000 		.4byte	.LVL5
 3200 003b 2E000000 		.4byte	.LVL7
 3201 003f 0100     		.2byte	0x1
 3202 0041 53       		.byte	0x53
 3203 0042 2E000000 		.4byte	.LVL7
 3204 0046 32000000 		.4byte	.LVL8
 3205 004a 0300     		.2byte	0x3
 3206 004c 73       		.byte	0x73
 3207 004d 02       		.sleb128 2
 3208 004e 9F       		.byte	0x9f
 3209 004f 32000000 		.4byte	.LVL8
 3210 0053 38000000 		.4byte	.LVL9
 3211 0057 0100     		.2byte	0x1
 3212 0059 53       		.byte	0x53
 3213 005a 72000000 		.4byte	.LVL19
 3214 005e 76000000 		.4byte	.LFE260
 3215 0062 0100     		.2byte	0x1
 3216 0064 51       		.byte	0x51
 3217 0065 00000000 		.4byte	0
 3218 0069 00000000 		.4byte	0
 3219              	.LLST2:
 3220 006d 00000000 		.4byte	.LVL0
 3221 0071 14000000 		.4byte	.LVL2
 3222 0075 0100     		.2byte	0x1
 3223 0077 50       		.byte	0x50
 3224 0078 14000000 		.4byte	.LVL2
 3225 007c 1E000000 		.4byte	.LVL4
 3226 0080 0300     		.2byte	0x3
 3227 0082 70       		.byte	0x70
 3228 0083 01       		.sleb128 1
 3229 0084 9F       		.byte	0x9f
 3230 0085 1E000000 		.4byte	.LVL4
 3231 0089 42000000 		.4byte	.LVL11
 3232 008d 0100     		.2byte	0x1
 3233 008f 50       		.byte	0x50
 3234 0090 72000000 		.4byte	.LVL19
 3235 0094 76000000 		.4byte	.LFE260
 3236 0098 0100     		.2byte	0x1
ARM GAS  C:\Users\jo\AppData\Local\Temp\cclhP7jn.s 			page 58


 3237 009a 50       		.byte	0x50
 3238 009b 00000000 		.4byte	0
 3239 009f 00000000 		.4byte	0
 3240              	.LLST3:
 3241 00a3 1E000000 		.4byte	.LVL4
 3242 00a7 28000000 		.4byte	.LVL5
 3243 00ab 0100     		.2byte	0x1
 3244 00ad 50       		.byte	0x50
 3245 00ae 28000000 		.4byte	.LVL5
 3246 00b2 2C000000 		.4byte	.LVL6
 3247 00b6 0100     		.2byte	0x1
 3248 00b8 54       		.byte	0x54
 3249 00b9 2C000000 		.4byte	.LVL6
 3250 00bd 32000000 		.4byte	.LVL8
 3251 00c1 0300     		.2byte	0x3
 3252 00c3 74       		.byte	0x74
 3253 00c4 7E       		.sleb128 -2
 3254 00c5 9F       		.byte	0x9f
 3255 00c6 32000000 		.4byte	.LVL8
 3256 00ca 3A000000 		.4byte	.LVL10
 3257 00ce 0100     		.2byte	0x1
 3258 00d0 54       		.byte	0x54
 3259 00d1 72000000 		.4byte	.LVL19
 3260 00d5 76000000 		.4byte	.LFE260
 3261 00d9 0100     		.2byte	0x1
 3262 00db 50       		.byte	0x50
 3263 00dc 00000000 		.4byte	0
 3264 00e0 00000000 		.4byte	0
 3265              	.LLST4:
 3266 00e4 0E000000 		.4byte	.LVL1
 3267 00e8 28000000 		.4byte	.LVL5
 3268 00ec 0200     		.2byte	0x2
 3269 00ee 30       		.byte	0x30
 3270 00ef 9F       		.byte	0x9f
 3271 00f0 28000000 		.4byte	.LVL5
 3272 00f4 42000000 		.4byte	.LVL11
 3273 00f8 0100     		.2byte	0x1
 3274 00fa 52       		.byte	0x52
 3275 00fb 52000000 		.4byte	.LVL12
 3276 00ff 68000000 		.4byte	.LVL15
 3277 0103 0100     		.2byte	0x1
 3278 0105 50       		.byte	0x50
 3279 0106 68000000 		.4byte	.LVL15
 3280 010a 6A000000 		.4byte	.LVL16
 3281 010e 4200     		.2byte	0x42
 3282 0110 91       		.byte	0x91
 3283 0111 6E       		.sleb128 -18
 3284 0112 94       		.byte	0x94
 3285 0113 02       		.byte	0x2
 3286 0114 0A       		.byte	0xa
 3287 0115 FFFF     		.2byte	0xffff
 3288 0117 1A       		.byte	0x1a
 3289 0118 72       		.byte	0x72
 3290 0119 00       		.sleb128 0
 3291 011a 22       		.byte	0x22
 3292 011b 40       		.byte	0x40
 3293 011c 25       		.byte	0x25
ARM GAS  C:\Users\jo\AppData\Local\Temp\cclhP7jn.s 			page 59


 3294 011d 91       		.byte	0x91
 3295 011e 6E       		.sleb128 -18
 3296 011f 94       		.byte	0x94
 3297 0120 02       		.byte	0x2
 3298 0121 0A       		.byte	0xa
 3299 0122 FFFF     		.2byte	0xffff
 3300 0124 1A       		.byte	0x1a
 3301 0125 72       		.byte	0x72
 3302 0126 00       		.sleb128 0
 3303 0127 22       		.byte	0x22
 3304 0128 0A       		.byte	0xa
 3305 0129 FFFF     		.2byte	0xffff
 3306 012b 1A       		.byte	0x1a
 3307 012c 22       		.byte	0x22
 3308 012d 40       		.byte	0x40
 3309 012e 25       		.byte	0x25
 3310 012f 91       		.byte	0x91
 3311 0130 6E       		.sleb128 -18
 3312 0131 94       		.byte	0x94
 3313 0132 02       		.byte	0x2
 3314 0133 0A       		.byte	0xa
 3315 0134 FFFF     		.2byte	0xffff
 3316 0136 1A       		.byte	0x1a
 3317 0137 72       		.byte	0x72
 3318 0138 00       		.sleb128 0
 3319 0139 22       		.byte	0x22
 3320 013a 40       		.byte	0x40
 3321 013b 25       		.byte	0x25
 3322 013c 91       		.byte	0x91
 3323 013d 6E       		.sleb128 -18
 3324 013e 94       		.byte	0x94
 3325 013f 02       		.byte	0x2
 3326 0140 0A       		.byte	0xa
 3327 0141 FFFF     		.2byte	0xffff
 3328 0143 1A       		.byte	0x1a
 3329 0144 72       		.byte	0x72
 3330 0145 00       		.sleb128 0
 3331 0146 22       		.byte	0x22
 3332 0147 0A       		.byte	0xa
 3333 0148 FFFF     		.2byte	0xffff
 3334 014a 1A       		.byte	0x1a
 3335 014b 22       		.byte	0x22
 3336 014c 0A       		.byte	0xa
 3337 014d FFFF     		.2byte	0xffff
 3338 014f 1A       		.byte	0x1a
 3339 0150 22       		.byte	0x22
 3340 0151 9F       		.byte	0x9f
 3341 0152 6A000000 		.4byte	.LVL16
 3342 0156 6C000000 		.4byte	.LVL17
 3343 015a 0100     		.2byte	0x1
 3344 015c 50       		.byte	0x50
 3345 015d 72000000 		.4byte	.LVL19
 3346 0161 76000000 		.4byte	.LFE260
 3347 0165 0200     		.2byte	0x2
 3348 0167 30       		.byte	0x30
 3349 0168 9F       		.byte	0x9f
 3350 0169 00000000 		.4byte	0
ARM GAS  C:\Users\jo\AppData\Local\Temp\cclhP7jn.s 			page 60


 3351 016d 00000000 		.4byte	0
 3352              	.LLST5:
 3353 0171 0E000000 		.4byte	.LVL1
 3354 0175 70000000 		.4byte	.LVL18
 3355 0179 0100     		.2byte	0x1
 3356 017b 56       		.byte	0x56
 3357 017c 70000000 		.4byte	.LVL18
 3358 0180 72000000 		.4byte	.LVL19
 3359 0184 0600     		.2byte	0x6
 3360 0186 F3       		.byte	0xf3
 3361 0187 01       		.uleb128 0x1
 3362 0188 50       		.byte	0x50
 3363 0189 31       		.byte	0x31
 3364 018a 1A       		.byte	0x1a
 3365 018b 9F       		.byte	0x9f
 3366 018c 72000000 		.4byte	.LVL19
 3367 0190 76000000 		.4byte	.LFE260
 3368 0194 0100     		.2byte	0x1
 3369 0196 56       		.byte	0x56
 3370 0197 00000000 		.4byte	0
 3371 019b 00000000 		.4byte	0
 3372              	.LLST6:
 3373 019f 00000000 		.4byte	.LVL20
 3374 01a3 0E000000 		.4byte	.LVL21
 3375 01a7 0100     		.2byte	0x1
 3376 01a9 50       		.byte	0x50
 3377 01aa 0E000000 		.4byte	.LVL21
 3378 01ae 28000000 		.4byte	.LFE265
 3379 01b2 0400     		.2byte	0x4
 3380 01b4 F3       		.byte	0xf3
 3381 01b5 01       		.uleb128 0x1
 3382 01b6 50       		.byte	0x50
 3383 01b7 9F       		.byte	0x9f
 3384 01b8 00000000 		.4byte	0
 3385 01bc 00000000 		.4byte	0
 3386              	.LLST7:
 3387 01c0 00000000 		.4byte	.LVL23
 3388 01c4 18000000 		.4byte	.LVL24
 3389 01c8 0100     		.2byte	0x1
 3390 01ca 50       		.byte	0x50
 3391 01cb 18000000 		.4byte	.LVL24
 3392 01cf 8C000000 		.4byte	.LVL48
 3393 01d3 0400     		.2byte	0x4
 3394 01d5 F3       		.byte	0xf3
 3395 01d6 01       		.uleb128 0x1
 3396 01d7 50       		.byte	0x50
 3397 01d8 9F       		.byte	0x9f
 3398 01d9 8C000000 		.4byte	.LVL48
 3399 01dd 90000000 		.4byte	.LFE261
 3400 01e1 0100     		.2byte	0x1
 3401 01e3 50       		.byte	0x50
 3402 01e4 00000000 		.4byte	0
 3403 01e8 00000000 		.4byte	0
 3404              	.LLST8:
 3405 01ec 00000000 		.4byte	.LVL23
 3406 01f0 18000000 		.4byte	.LVL24
 3407 01f4 0100     		.2byte	0x1
ARM GAS  C:\Users\jo\AppData\Local\Temp\cclhP7jn.s 			page 61


 3408 01f6 51       		.byte	0x51
 3409 01f7 18000000 		.4byte	.LVL24
 3410 01fb 8C000000 		.4byte	.LVL48
 3411 01ff 0100     		.2byte	0x1
 3412 0201 5A       		.byte	0x5a
 3413 0202 8C000000 		.4byte	.LVL48
 3414 0206 90000000 		.4byte	.LFE261
 3415 020a 0100     		.2byte	0x1
 3416 020c 51       		.byte	0x51
 3417 020d 00000000 		.4byte	0
 3418 0211 00000000 		.4byte	0
 3419              	.LLST9:
 3420 0215 00000000 		.4byte	.LVL23
 3421 0219 18000000 		.4byte	.LVL24
 3422 021d 0100     		.2byte	0x1
 3423 021f 52       		.byte	0x52
 3424 0220 18000000 		.4byte	.LVL24
 3425 0224 8C000000 		.4byte	.LVL48
 3426 0228 0100     		.2byte	0x1
 3427 022a 59       		.byte	0x59
 3428 022b 8C000000 		.4byte	.LVL48
 3429 022f 90000000 		.4byte	.LFE261
 3430 0233 0100     		.2byte	0x1
 3431 0235 52       		.byte	0x52
 3432 0236 00000000 		.4byte	0
 3433 023a 00000000 		.4byte	0
 3434              	.LLST10:
 3435 023e 00000000 		.4byte	.LVL23
 3436 0242 18000000 		.4byte	.LVL24
 3437 0246 0100     		.2byte	0x1
 3438 0248 53       		.byte	0x53
 3439 0249 18000000 		.4byte	.LVL24
 3440 024d 8C000000 		.4byte	.LVL48
 3441 0251 0400     		.2byte	0x4
 3442 0253 F3       		.byte	0xf3
 3443 0254 01       		.uleb128 0x1
 3444 0255 53       		.byte	0x53
 3445 0256 9F       		.byte	0x9f
 3446 0257 8C000000 		.4byte	.LVL48
 3447 025b 90000000 		.4byte	.LFE261
 3448 025f 0100     		.2byte	0x1
 3449 0261 53       		.byte	0x53
 3450 0262 00000000 		.4byte	0
 3451 0266 00000000 		.4byte	0
 3452              	.LLST11:
 3453 026a 00000000 		.4byte	.LVL23
 3454 026e 8C000000 		.4byte	.LVL48
 3455 0272 0200     		.2byte	0x2
 3456 0274 91       		.byte	0x91
 3457 0275 00       		.sleb128 0
 3458 0276 8C000000 		.4byte	.LVL48
 3459 027a 90000000 		.4byte	.LFE261
 3460 027e 0200     		.2byte	0x2
 3461 0280 91       		.byte	0x91
 3462 0281 00       		.sleb128 0
 3463 0282 00000000 		.4byte	0
 3464 0286 00000000 		.4byte	0
ARM GAS  C:\Users\jo\AppData\Local\Temp\cclhP7jn.s 			page 62


 3465              	.LLST12:
 3466 028a 00000000 		.4byte	.LVL23
 3467 028e 18000000 		.4byte	.LVL24
 3468 0292 0200     		.2byte	0x2
 3469 0294 30       		.byte	0x30
 3470 0295 9F       		.byte	0x9f
 3471 0296 18000000 		.4byte	.LVL24
 3472 029a 24000000 		.4byte	.LVL26
 3473 029e 0100     		.2byte	0x1
 3474 02a0 54       		.byte	0x54
 3475 02a1 24000000 		.4byte	.LVL26
 3476 02a5 2C000000 		.4byte	.LVL27
 3477 02a9 0100     		.2byte	0x1
 3478 02ab 50       		.byte	0x50
 3479 02ac 2C000000 		.4byte	.LVL27
 3480 02b0 3A000000 		.4byte	.LVL29
 3481 02b4 0100     		.2byte	0x1
 3482 02b6 54       		.byte	0x54
 3483 02b7 3A000000 		.4byte	.LVL29
 3484 02bb 3E000000 		.4byte	.LVL31
 3485 02bf 0C00     		.2byte	0xc
 3486 02c1 70       		.byte	0x70
 3487 02c2 00       		.sleb128 0
 3488 02c3 40       		.byte	0x40
 3489 02c4 25       		.byte	0x25
 3490 02c5 70       		.byte	0x70
 3491 02c6 00       		.sleb128 0
 3492 02c7 0A       		.byte	0xa
 3493 02c8 FFFF     		.2byte	0xffff
 3494 02ca 1A       		.byte	0x1a
 3495 02cb 22       		.byte	0x22
 3496 02cc 9F       		.byte	0x9f
 3497 02cd 3E000000 		.4byte	.LVL31
 3498 02d1 4E000000 		.4byte	.LVL33
 3499 02d5 0100     		.2byte	0x1
 3500 02d7 54       		.byte	0x54
 3501 02d8 50000000 		.4byte	.LVL34
 3502 02dc 54000000 		.4byte	.LVL35
 3503 02e0 0100     		.2byte	0x1
 3504 02e2 54       		.byte	0x54
 3505 02e3 54000000 		.4byte	.LVL35
 3506 02e7 58000000 		.4byte	.LVL36
 3507 02eb 0F00     		.2byte	0xf
 3508 02ed 73       		.byte	0x73
 3509 02ee 00       		.sleb128 0
 3510 02ef 0A       		.byte	0xa
 3511 02f0 FFFF     		.2byte	0xffff
 3512 02f2 1A       		.byte	0x1a
 3513 02f3 74       		.byte	0x74
 3514 02f4 00       		.sleb128 0
 3515 02f5 22       		.byte	0x22
 3516 02f6 73       		.byte	0x73
 3517 02f7 00       		.sleb128 0
 3518 02f8 40       		.byte	0x40
 3519 02f9 25       		.byte	0x25
 3520 02fa 22       		.byte	0x22
 3521 02fb 9F       		.byte	0x9f
ARM GAS  C:\Users\jo\AppData\Local\Temp\cclhP7jn.s 			page 63


 3522 02fc 58000000 		.4byte	.LVL36
 3523 0300 5E000000 		.4byte	.LVL37
 3524 0304 1600     		.2byte	0x16
 3525 0306 73       		.byte	0x73
 3526 0307 00       		.sleb128 0
 3527 0308 0A       		.byte	0xa
 3528 0309 FFFF     		.2byte	0xffff
 3529 030b 1A       		.byte	0x1a
 3530 030c 74       		.byte	0x74
 3531 030d 00       		.sleb128 0
 3532 030e 22       		.byte	0x22
 3533 030f 73       		.byte	0x73
 3534 0310 00       		.sleb128 0
 3535 0311 40       		.byte	0x40
 3536 0312 25       		.byte	0x25
 3537 0313 22       		.byte	0x22
 3538 0314 71       		.byte	0x71
 3539 0315 00       		.sleb128 0
 3540 0316 0A       		.byte	0xa
 3541 0317 FFFF     		.2byte	0xffff
 3542 0319 1A       		.byte	0x1a
 3543 031a 22       		.byte	0x22
 3544 031b 9F       		.byte	0x9f
 3545 031c 5E000000 		.4byte	.LVL37
 3546 0320 6A000000 		.4byte	.LVL38
 3547 0324 1800     		.2byte	0x18
 3548 0326 7A       		.byte	0x7a
 3549 0327 00       		.sleb128 0
 3550 0328 06       		.byte	0x6
 3551 0329 0A       		.byte	0xa
 3552 032a FFFF     		.2byte	0xffff
 3553 032c 1A       		.byte	0x1a
 3554 032d 74       		.byte	0x74
 3555 032e 00       		.sleb128 0
 3556 032f 22       		.byte	0x22
 3557 0330 7A       		.byte	0x7a
 3558 0331 00       		.sleb128 0
 3559 0332 06       		.byte	0x6
 3560 0333 40       		.byte	0x40
 3561 0334 25       		.byte	0x25
 3562 0335 22       		.byte	0x22
 3563 0336 71       		.byte	0x71
 3564 0337 00       		.sleb128 0
 3565 0338 0A       		.byte	0xa
 3566 0339 FFFF     		.2byte	0xffff
 3567 033b 1A       		.byte	0x1a
 3568 033c 22       		.byte	0x22
 3569 033d 9F       		.byte	0x9f
 3570 033e 6A000000 		.4byte	.LVL38
 3571 0342 78000000 		.4byte	.LVL42
 3572 0346 0100     		.2byte	0x1
 3573 0348 54       		.byte	0x54
 3574 0349 78000000 		.4byte	.LVL42
 3575 034d 80000000 		.4byte	.LVL44
 3576 0351 0100     		.2byte	0x1
 3577 0353 50       		.byte	0x50
 3578 0354 80000000 		.4byte	.LVL44
ARM GAS  C:\Users\jo\AppData\Local\Temp\cclhP7jn.s 			page 64


 3579 0358 84000000 		.4byte	.LVL45
 3580 035c 0800     		.2byte	0x8
 3581 035e 70       		.byte	0x70
 3582 035f 00       		.sleb128 0
 3583 0360 40       		.byte	0x40
 3584 0361 25       		.byte	0x25
 3585 0362 73       		.byte	0x73
 3586 0363 00       		.sleb128 0
 3587 0364 22       		.byte	0x22
 3588 0365 9F       		.byte	0x9f
 3589 0366 84000000 		.4byte	.LVL45
 3590 036a 86000000 		.4byte	.LVL46
 3591 036e 0100     		.2byte	0x1
 3592 0370 50       		.byte	0x50
 3593 0371 86000000 		.4byte	.LVL46
 3594 0375 88000000 		.4byte	.LVL47
 3595 0379 0400     		.2byte	0x4
 3596 037b 70       		.byte	0x70
 3597 037c 00       		.sleb128 0
 3598 037d 20       		.byte	0x20
 3599 037e 9F       		.byte	0x9f
 3600 037f 8C000000 		.4byte	.LVL48
 3601 0383 90000000 		.4byte	.LFE261
 3602 0387 0200     		.2byte	0x2
 3603 0389 30       		.byte	0x30
 3604 038a 9F       		.byte	0x9f
 3605 038b 00000000 		.4byte	0
 3606 038f 00000000 		.4byte	0
 3607              	.LLST13:
 3608 0393 54000000 		.4byte	.LVL35
 3609 0397 58000000 		.4byte	.LVL36
 3610 039b 0100     		.2byte	0x1
 3611 039d 53       		.byte	0x53
 3612 039e 58000000 		.4byte	.LVL36
 3613 03a2 6D000000 		.4byte	.LVL39-1
 3614 03a6 0100     		.2byte	0x1
 3615 03a8 51       		.byte	0x51
 3616 03a9 00000000 		.4byte	0
 3617 03ad 00000000 		.4byte	0
 3618              	.LLST14:
 3619 03b1 00000000 		.4byte	.LVL23
 3620 03b5 18000000 		.4byte	.LVL24
 3621 03b9 0100     		.2byte	0x1
 3622 03bb 50       		.byte	0x50
 3623 03bc 18000000 		.4byte	.LVL24
 3624 03c0 8C000000 		.4byte	.LVL48
 3625 03c4 0100     		.2byte	0x1
 3626 03c6 55       		.byte	0x55
 3627 03c7 8C000000 		.4byte	.LVL48
 3628 03cb 90000000 		.4byte	.LFE261
 3629 03cf 0100     		.2byte	0x1
 3630 03d1 50       		.byte	0x50
 3631 03d2 00000000 		.4byte	0
 3632 03d6 00000000 		.4byte	0
 3633              	.LLST15:
 3634 03da 00000000 		.4byte	.LVL23
 3635 03de 18000000 		.4byte	.LVL24
ARM GAS  C:\Users\jo\AppData\Local\Temp\cclhP7jn.s 			page 65


 3636 03e2 0200     		.2byte	0x2
 3637 03e4 30       		.byte	0x30
 3638 03e5 9F       		.byte	0x9f
 3639 03e6 18000000 		.4byte	.LVL24
 3640 03ea 34000000 		.4byte	.LVL28
 3641 03ee 0100     		.2byte	0x1
 3642 03f0 56       		.byte	0x56
 3643 03f1 3C000000 		.4byte	.LVL30
 3644 03f5 50000000 		.4byte	.LVL34
 3645 03f9 0100     		.2byte	0x1
 3646 03fb 56       		.byte	0x56
 3647 03fc 8C000000 		.4byte	.LVL48
 3648 0400 90000000 		.4byte	.LFE261
 3649 0404 0200     		.2byte	0x2
 3650 0406 30       		.byte	0x30
 3651 0407 9F       		.byte	0x9f
 3652 0408 00000000 		.4byte	0
 3653 040c 00000000 		.4byte	0
 3654              	.LLST16:
 3655 0410 00000000 		.4byte	.LVL49
 3656 0414 2A000000 		.4byte	.LVL52
 3657 0418 0100     		.2byte	0x1
 3658 041a 50       		.byte	0x50
 3659 041b 2A000000 		.4byte	.LVL52
 3660 041f D4000000 		.4byte	.LVL83
 3661 0423 0400     		.2byte	0x4
 3662 0425 F3       		.byte	0xf3
 3663 0426 01       		.uleb128 0x1
 3664 0427 50       		.byte	0x50
 3665 0428 9F       		.byte	0x9f
 3666 0429 D4000000 		.4byte	.LVL83
 3667 042d EC000000 		.4byte	.LFE262
 3668 0431 0100     		.2byte	0x1
 3669 0433 50       		.byte	0x50
 3670 0434 00000000 		.4byte	0
 3671 0438 00000000 		.4byte	0
 3672              	.LLST17:
 3673 043c 00000000 		.4byte	.LVL49
 3674 0440 2A000000 		.4byte	.LVL52
 3675 0444 0100     		.2byte	0x1
 3676 0446 51       		.byte	0x51
 3677 0447 2A000000 		.4byte	.LVL52
 3678 044b D4000000 		.4byte	.LVL83
 3679 044f 0100     		.2byte	0x1
 3680 0451 5B       		.byte	0x5b
 3681 0452 D4000000 		.4byte	.LVL83
 3682 0456 EC000000 		.4byte	.LFE262
 3683 045a 0100     		.2byte	0x1
 3684 045c 51       		.byte	0x51
 3685 045d 00000000 		.4byte	0
 3686 0461 00000000 		.4byte	0
 3687              	.LLST18:
 3688 0465 00000000 		.4byte	.LVL49
 3689 0469 2A000000 		.4byte	.LVL52
 3690 046d 0100     		.2byte	0x1
 3691 046f 52       		.byte	0x52
 3692 0470 2A000000 		.4byte	.LVL52
ARM GAS  C:\Users\jo\AppData\Local\Temp\cclhP7jn.s 			page 66


 3693 0474 D4000000 		.4byte	.LVL83
 3694 0478 0100     		.2byte	0x1
 3695 047a 5A       		.byte	0x5a
 3696 047b D4000000 		.4byte	.LVL83
 3697 047f EC000000 		.4byte	.LFE262
 3698 0483 0100     		.2byte	0x1
 3699 0485 52       		.byte	0x52
 3700 0486 00000000 		.4byte	0
 3701 048a 00000000 		.4byte	0
 3702              	.LLST19:
 3703 048e 00000000 		.4byte	.LVL49
 3704 0492 0E000000 		.4byte	.LVL50
 3705 0496 0100     		.2byte	0x1
 3706 0498 53       		.byte	0x53
 3707 0499 0E000000 		.4byte	.LVL50
 3708 049d EC000000 		.4byte	.LFE262
 3709 04a1 0400     		.2byte	0x4
 3710 04a3 F3       		.byte	0xf3
 3711 04a4 01       		.uleb128 0x1
 3712 04a5 53       		.byte	0x53
 3713 04a6 9F       		.byte	0x9f
 3714 04a7 00000000 		.4byte	0
 3715 04ab 00000000 		.4byte	0
 3716              	.LLST20:
 3717 04af 00000000 		.4byte	.LVL49
 3718 04b3 D4000000 		.4byte	.LVL83
 3719 04b7 0200     		.2byte	0x2
 3720 04b9 91       		.byte	0x91
 3721 04ba 00       		.sleb128 0
 3722 04bb D4000000 		.4byte	.LVL83
 3723 04bf EC000000 		.4byte	.LFE262
 3724 04c3 0200     		.2byte	0x2
 3725 04c5 91       		.byte	0x91
 3726 04c6 00       		.sleb128 0
 3727 04c7 00000000 		.4byte	0
 3728 04cb 00000000 		.4byte	0
 3729              	.LLST21:
 3730 04cf 00000000 		.4byte	.LVL49
 3731 04d3 16000000 		.4byte	.LVL51
 3732 04d7 0200     		.2byte	0x2
 3733 04d9 91       		.byte	0x91
 3734 04da 04       		.sleb128 4
 3735 04db 16000000 		.4byte	.LVL51
 3736 04df 66000000 		.4byte	.LVL63
 3737 04e3 0100     		.2byte	0x1
 3738 04e5 57       		.byte	0x57
 3739 04e6 6E000000 		.4byte	.LVL64
 3740 04ea EC000000 		.4byte	.LFE262
 3741 04ee 0100     		.2byte	0x1
 3742 04f0 57       		.byte	0x57
 3743 04f1 00000000 		.4byte	0
 3744 04f5 00000000 		.4byte	0
 3745              	.LLST22:
 3746 04f9 00000000 		.4byte	.LVL49
 3747 04fd 2A000000 		.4byte	.LVL52
 3748 0501 0200     		.2byte	0x2
 3749 0503 30       		.byte	0x30
ARM GAS  C:\Users\jo\AppData\Local\Temp\cclhP7jn.s 			page 67


 3750 0504 9F       		.byte	0x9f
 3751 0505 2A000000 		.4byte	.LVL52
 3752 0509 3E000000 		.4byte	.LVL54
 3753 050d 0100     		.2byte	0x1
 3754 050f 54       		.byte	0x54
 3755 0510 46000000 		.4byte	.LVL56
 3756 0514 94000000 		.4byte	.LVL68
 3757 0518 0100     		.2byte	0x1
 3758 051a 54       		.byte	0x54
 3759 051b 96000000 		.4byte	.LVL69
 3760 051f 9A000000 		.4byte	.LVL70
 3761 0523 0100     		.2byte	0x1
 3762 0525 54       		.byte	0x54
 3763 0526 9A000000 		.4byte	.LVL70
 3764 052a 9E000000 		.4byte	.LVL71
 3765 052e 0F00     		.2byte	0xf
 3766 0530 73       		.byte	0x73
 3767 0531 00       		.sleb128 0
 3768 0532 0A       		.byte	0xa
 3769 0533 FFFF     		.2byte	0xffff
 3770 0535 1A       		.byte	0x1a
 3771 0536 74       		.byte	0x74
 3772 0537 00       		.sleb128 0
 3773 0538 22       		.byte	0x22
 3774 0539 73       		.byte	0x73
 3775 053a 00       		.sleb128 0
 3776 053b 40       		.byte	0x40
 3777 053c 25       		.byte	0x25
 3778 053d 22       		.byte	0x22
 3779 053e 9F       		.byte	0x9f
 3780 053f 9E000000 		.4byte	.LVL71
 3781 0543 A6000000 		.4byte	.LVL72
 3782 0547 1600     		.2byte	0x16
 3783 0549 73       		.byte	0x73
 3784 054a 00       		.sleb128 0
 3785 054b 0A       		.byte	0xa
 3786 054c FFFF     		.2byte	0xffff
 3787 054e 1A       		.byte	0x1a
 3788 054f 74       		.byte	0x74
 3789 0550 00       		.sleb128 0
 3790 0551 22       		.byte	0x22
 3791 0552 73       		.byte	0x73
 3792 0553 00       		.sleb128 0
 3793 0554 40       		.byte	0x40
 3794 0555 25       		.byte	0x25
 3795 0556 22       		.byte	0x22
 3796 0557 71       		.byte	0x71
 3797 0558 00       		.sleb128 0
 3798 0559 0A       		.byte	0xa
 3799 055a FFFF     		.2byte	0xffff
 3800 055c 1A       		.byte	0x1a
 3801 055d 22       		.byte	0x22
 3802 055e 9F       		.byte	0x9f
 3803 055f A6000000 		.4byte	.LVL72
 3804 0563 B0000000 		.4byte	.LVL73
 3805 0567 1800     		.2byte	0x18
 3806 0569 7B       		.byte	0x7b
ARM GAS  C:\Users\jo\AppData\Local\Temp\cclhP7jn.s 			page 68


 3807 056a 00       		.sleb128 0
 3808 056b 06       		.byte	0x6
 3809 056c 0A       		.byte	0xa
 3810 056d FFFF     		.2byte	0xffff
 3811 056f 1A       		.byte	0x1a
 3812 0570 74       		.byte	0x74
 3813 0571 00       		.sleb128 0
 3814 0572 22       		.byte	0x22
 3815 0573 7B       		.byte	0x7b
 3816 0574 00       		.sleb128 0
 3817 0575 06       		.byte	0x6
 3818 0576 40       		.byte	0x40
 3819 0577 25       		.byte	0x25
 3820 0578 22       		.byte	0x22
 3821 0579 71       		.byte	0x71
 3822 057a 00       		.sleb128 0
 3823 057b 0A       		.byte	0xa
 3824 057c FFFF     		.2byte	0xffff
 3825 057e 1A       		.byte	0x1a
 3826 057f 22       		.byte	0x22
 3827 0580 9F       		.byte	0x9f
 3828 0581 B0000000 		.4byte	.LVL73
 3829 0585 BE000000 		.4byte	.LVL77
 3830 0589 0100     		.2byte	0x1
 3831 058b 54       		.byte	0x54
 3832 058c BE000000 		.4byte	.LVL77
 3833 0590 C6000000 		.4byte	.LVL79
 3834 0594 0100     		.2byte	0x1
 3835 0596 50       		.byte	0x50
 3836 0597 C6000000 		.4byte	.LVL79
 3837 059b CA000000 		.4byte	.LVL80
 3838 059f 0800     		.2byte	0x8
 3839 05a1 70       		.byte	0x70
 3840 05a2 00       		.sleb128 0
 3841 05a3 40       		.byte	0x40
 3842 05a4 25       		.byte	0x25
 3843 05a5 73       		.byte	0x73
 3844 05a6 00       		.sleb128 0
 3845 05a7 22       		.byte	0x22
 3846 05a8 9F       		.byte	0x9f
 3847 05a9 CA000000 		.4byte	.LVL80
 3848 05ad CC000000 		.4byte	.LVL81
 3849 05b1 0100     		.2byte	0x1
 3850 05b3 50       		.byte	0x50
 3851 05b4 CC000000 		.4byte	.LVL81
 3852 05b8 CE000000 		.4byte	.LVL82
 3853 05bc 0400     		.2byte	0x4
 3854 05be 70       		.byte	0x70
 3855 05bf 00       		.sleb128 0
 3856 05c0 20       		.byte	0x20
 3857 05c1 9F       		.byte	0x9f
 3858 05c2 D4000000 		.4byte	.LVL83
 3859 05c6 EC000000 		.4byte	.LFE262
 3860 05ca 0200     		.2byte	0x2
 3861 05cc 30       		.byte	0x30
 3862 05cd 9F       		.byte	0x9f
 3863 05ce 00000000 		.4byte	0
ARM GAS  C:\Users\jo\AppData\Local\Temp\cclhP7jn.s 			page 69


 3864 05d2 00000000 		.4byte	0
 3865              	.LLST23:
 3866 05d6 9A000000 		.4byte	.LVL70
 3867 05da 9E000000 		.4byte	.LVL71
 3868 05de 0100     		.2byte	0x1
 3869 05e0 53       		.byte	0x53
 3870 05e1 9E000000 		.4byte	.LVL71
 3871 05e5 B3000000 		.4byte	.LVL74-1
 3872 05e9 0100     		.2byte	0x1
 3873 05eb 51       		.byte	0x51
 3874 05ec 00000000 		.4byte	0
 3875 05f0 00000000 		.4byte	0
 3876              	.LLST24:
 3877 05f4 00000000 		.4byte	.LVL49
 3878 05f8 2A000000 		.4byte	.LVL52
 3879 05fc 0100     		.2byte	0x1
 3880 05fe 50       		.byte	0x50
 3881 05ff 2A000000 		.4byte	.LVL52
 3882 0603 D4000000 		.4byte	.LVL83
 3883 0607 0100     		.2byte	0x1
 3884 0609 55       		.byte	0x55
 3885 060a D4000000 		.4byte	.LVL83
 3886 060e EC000000 		.4byte	.LFE262
 3887 0612 0100     		.2byte	0x1
 3888 0614 50       		.byte	0x50
 3889 0615 00000000 		.4byte	0
 3890 0619 00000000 		.4byte	0
 3891              	.LLST25:
 3892 061d 00000000 		.4byte	.LVL49
 3893 0621 2A000000 		.4byte	.LVL52
 3894 0625 0200     		.2byte	0x2
 3895 0627 30       		.byte	0x30
 3896 0628 9F       		.byte	0x9f
 3897 0629 2A000000 		.4byte	.LVL52
 3898 062d 42000000 		.4byte	.LVL55
 3899 0631 0100     		.2byte	0x1
 3900 0633 56       		.byte	0x56
 3901 0634 46000000 		.4byte	.LVL56
 3902 0638 96000000 		.4byte	.LVL69
 3903 063c 0100     		.2byte	0x1
 3904 063e 56       		.byte	0x56
 3905 063f D4000000 		.4byte	.LVL83
 3906 0643 EC000000 		.4byte	.LFE262
 3907 0647 0200     		.2byte	0x2
 3908 0649 30       		.byte	0x30
 3909 064a 9F       		.byte	0x9f
 3910 064b 00000000 		.4byte	0
 3911 064f 00000000 		.4byte	0
 3912              	.LLST26:
 3913 0653 2A000000 		.4byte	.LVL52
 3914 0657 4C000000 		.4byte	.LVL58
 3915 065b 0100     		.2byte	0x1
 3916 065d 59       		.byte	0x59
 3917 065e 4E000000 		.4byte	.LVL59
 3918 0662 56000000 		.4byte	.LVL60
 3919 0666 0100     		.2byte	0x1
 3920 0668 53       		.byte	0x53
ARM GAS  C:\Users\jo\AppData\Local\Temp\cclhP7jn.s 			page 70


 3921 0669 56000000 		.4byte	.LVL60
 3922 066d 58000000 		.4byte	.LVL61
 3923 0671 0200     		.2byte	0x2
 3924 0673 75       		.byte	0x75
 3925 0674 0A       		.sleb128 10
 3926 0675 58000000 		.4byte	.LVL61
 3927 0679 5D000000 		.4byte	.LVL62-1
 3928 067d 0100     		.2byte	0x1
 3929 067f 53       		.byte	0x53
 3930 0680 5D000000 		.4byte	.LVL62-1
 3931 0684 96000000 		.4byte	.LVL69
 3932 0688 0100     		.2byte	0x1
 3933 068a 59       		.byte	0x59
 3934 068b 00000000 		.4byte	0
 3935 068f 00000000 		.4byte	0
 3936              	.LLST27:
 3937 0693 82000000 		.4byte	.LVL65
 3938 0697 8A000000 		.4byte	.LVL67
 3939 069b 0600     		.2byte	0x6
 3940 069d 03       		.byte	0x3
 3941 069e 28000000 		.4byte	.LC1
 3942 06a2 9F       		.byte	0x9f
 3943 06a3 00000000 		.4byte	0
 3944 06a7 00000000 		.4byte	0
 3945              	.LLST28:
 3946 06ab 00000000 		.4byte	.LVL84
 3947 06af 05000000 		.4byte	.LVL85-1
 3948 06b3 0100     		.2byte	0x1
 3949 06b5 50       		.byte	0x50
 3950 06b6 05000000 		.4byte	.LVL85-1
 3951 06ba 0C000000 		.4byte	.LFE263
 3952 06be 0400     		.2byte	0x4
 3953 06c0 F3       		.byte	0xf3
 3954 06c1 01       		.uleb128 0x1
 3955 06c2 50       		.byte	0x50
 3956 06c3 9F       		.byte	0x9f
 3957 06c4 00000000 		.4byte	0
 3958 06c8 00000000 		.4byte	0
 3959              	.LLST29:
 3960 06cc 00000000 		.4byte	.LVL84
 3961 06d0 05000000 		.4byte	.LVL85-1
 3962 06d4 0100     		.2byte	0x1
 3963 06d6 51       		.byte	0x51
 3964 06d7 05000000 		.4byte	.LVL85-1
 3965 06db 0C000000 		.4byte	.LFE263
 3966 06df 0400     		.2byte	0x4
 3967 06e1 F3       		.byte	0xf3
 3968 06e2 01       		.uleb128 0x1
 3969 06e3 51       		.byte	0x51
 3970 06e4 9F       		.byte	0x9f
 3971 06e5 00000000 		.4byte	0
 3972 06e9 00000000 		.4byte	0
 3973              	.LLST30:
 3974 06ed 00000000 		.4byte	.LVL86
 3975 06f1 0A000000 		.4byte	.LVL87
 3976 06f5 0100     		.2byte	0x1
 3977 06f7 50       		.byte	0x50
ARM GAS  C:\Users\jo\AppData\Local\Temp\cclhP7jn.s 			page 71


 3978 06f8 0A000000 		.4byte	.LVL87
 3979 06fc 48000000 		.4byte	.LVL99
 3980 0700 0400     		.2byte	0x4
 3981 0702 F3       		.byte	0xf3
 3982 0703 01       		.uleb128 0x1
 3983 0704 50       		.byte	0x50
 3984 0705 9F       		.byte	0x9f
 3985 0706 48000000 		.4byte	.LVL99
 3986 070a 4C000000 		.4byte	.LVL100
 3987 070e 0100     		.2byte	0x1
 3988 0710 50       		.byte	0x50
 3989 0711 4C000000 		.4byte	.LVL100
 3990 0715 4E000000 		.4byte	.LFE264
 3991 0719 0100     		.2byte	0x1
 3992 071b 55       		.byte	0x55
 3993 071c 00000000 		.4byte	0
 3994 0720 00000000 		.4byte	0
 3995              	.LLST31:
 3996 0724 00000000 		.4byte	.LVL86
 3997 0728 0A000000 		.4byte	.LVL87
 3998 072c 0200     		.2byte	0x2
 3999 072e 30       		.byte	0x30
 4000 072f 9F       		.byte	0x9f
 4001 0730 0A000000 		.4byte	.LVL87
 4002 0734 16000000 		.4byte	.LVL89
 4003 0738 0100     		.2byte	0x1
 4004 073a 54       		.byte	0x54
 4005 073b 16000000 		.4byte	.LVL89
 4006 073f 1E000000 		.4byte	.LVL90
 4007 0743 0100     		.2byte	0x1
 4008 0745 50       		.byte	0x50
 4009 0746 1E000000 		.4byte	.LVL90
 4010 074a 2C000000 		.4byte	.LVL92
 4011 074e 0100     		.2byte	0x1
 4012 0750 54       		.byte	0x54
 4013 0751 2C000000 		.4byte	.LVL92
 4014 0755 30000000 		.4byte	.LVL94
 4015 0759 0C00     		.2byte	0xc
 4016 075b 70       		.byte	0x70
 4017 075c 00       		.sleb128 0
 4018 075d 40       		.byte	0x40
 4019 075e 25       		.byte	0x25
 4020 075f 70       		.byte	0x70
 4021 0760 00       		.sleb128 0
 4022 0761 0A       		.byte	0xa
 4023 0762 FFFF     		.2byte	0xffff
 4024 0764 1A       		.byte	0x1a
 4025 0765 22       		.byte	0x22
 4026 0766 9F       		.byte	0x9f
 4027 0767 30000000 		.4byte	.LVL94
 4028 076b 40000000 		.4byte	.LVL96
 4029 076f 0100     		.2byte	0x1
 4030 0771 54       		.byte	0x54
 4031 0772 40000000 		.4byte	.LVL96
 4032 0776 42000000 		.4byte	.LVL97
 4033 077a 0600     		.2byte	0x6
 4034 077c 74       		.byte	0x74
ARM GAS  C:\Users\jo\AppData\Local\Temp\cclhP7jn.s 			page 72


 4035 077d 00       		.sleb128 0
 4036 077e 70       		.byte	0x70
 4037 077f 00       		.sleb128 0
 4038 0780 21       		.byte	0x21
 4039 0781 9F       		.byte	0x9f
 4040 0782 42000000 		.4byte	.LVL97
 4041 0786 44000000 		.4byte	.LVL98
 4042 078a 0100     		.2byte	0x1
 4043 078c 54       		.byte	0x54
 4044 078d 44000000 		.4byte	.LVL98
 4045 0791 48000000 		.4byte	.LVL99
 4046 0795 0400     		.2byte	0x4
 4047 0797 74       		.byte	0x74
 4048 0798 00       		.sleb128 0
 4049 0799 20       		.byte	0x20
 4050 079a 9F       		.byte	0x9f
 4051 079b 48000000 		.4byte	.LVL99
 4052 079f 4C000000 		.4byte	.LVL100
 4053 07a3 0200     		.2byte	0x2
 4054 07a5 30       		.byte	0x30
 4055 07a6 9F       		.byte	0x9f
 4056 07a7 00000000 		.4byte	0
 4057 07ab 00000000 		.4byte	0
 4058              	.LLST32:
 4059 07af 00000000 		.4byte	.LVL86
 4060 07b3 0A000000 		.4byte	.LVL87
 4061 07b7 0100     		.2byte	0x1
 4062 07b9 50       		.byte	0x50
 4063 07ba 0A000000 		.4byte	.LVL87
 4064 07be 48000000 		.4byte	.LVL99
 4065 07c2 0100     		.2byte	0x1
 4066 07c4 55       		.byte	0x55
 4067 07c5 48000000 		.4byte	.LVL99
 4068 07c9 4C000000 		.4byte	.LVL100
 4069 07cd 0100     		.2byte	0x1
 4070 07cf 50       		.byte	0x50
 4071 07d0 4C000000 		.4byte	.LVL100
 4072 07d4 4E000000 		.4byte	.LFE264
 4073 07d8 0100     		.2byte	0x1
 4074 07da 55       		.byte	0x55
 4075 07db 00000000 		.4byte	0
 4076 07df 00000000 		.4byte	0
 4077              	.LLST33:
 4078 07e3 00000000 		.4byte	.LVL86
 4079 07e7 0A000000 		.4byte	.LVL87
 4080 07eb 0200     		.2byte	0x2
 4081 07ed 30       		.byte	0x30
 4082 07ee 9F       		.byte	0x9f
 4083 07ef 0A000000 		.4byte	.LVL87
 4084 07f3 26000000 		.4byte	.LVL91
 4085 07f7 0100     		.2byte	0x1
 4086 07f9 56       		.byte	0x56
 4087 07fa 2E000000 		.4byte	.LVL93
 4088 07fe 48000000 		.4byte	.LVL99
 4089 0802 0100     		.2byte	0x1
 4090 0804 56       		.byte	0x56
 4091 0805 48000000 		.4byte	.LVL99
ARM GAS  C:\Users\jo\AppData\Local\Temp\cclhP7jn.s 			page 73


 4092 0809 4E000000 		.4byte	.LFE264
 4093 080d 0200     		.2byte	0x2
 4094 080f 30       		.byte	0x30
 4095 0810 9F       		.byte	0x9f
 4096 0811 00000000 		.4byte	0
 4097 0815 00000000 		.4byte	0
 4098              		.section	.debug_aranges,"",%progbits
 4099 0000 44000000 		.4byte	0x44
 4100 0004 0200     		.2byte	0x2
 4101 0006 00000000 		.4byte	.Ldebug_info0
 4102 000a 04       		.byte	0x4
 4103 000b 00       		.byte	0
 4104 000c 0000     		.2byte	0
 4105 000e 0000     		.2byte	0
 4106 0010 00000000 		.4byte	.LFB260
 4107 0014 76000000 		.4byte	.LFE260-.LFB260
 4108 0018 00000000 		.4byte	.LFB265
 4109 001c 28000000 		.4byte	.LFE265-.LFB265
 4110 0020 00000000 		.4byte	.LFB261
 4111 0024 90000000 		.4byte	.LFE261-.LFB261
 4112 0028 00000000 		.4byte	.LFB262
 4113 002c EC000000 		.4byte	.LFE262-.LFB262
 4114 0030 00000000 		.4byte	.LFB263
 4115 0034 0C000000 		.4byte	.LFE263-.LFB263
 4116 0038 00000000 		.4byte	.LFB264
 4117 003c 4E000000 		.4byte	.LFE264-.LFB264
 4118 0040 00000000 		.4byte	0
 4119 0044 00000000 		.4byte	0
 4120              		.section	.debug_ranges,"",%progbits
 4121              	.Ldebug_ranges0:
 4122 0000 00000000 		.4byte	.LFB260
 4123 0004 76000000 		.4byte	.LFE260
 4124 0008 00000000 		.4byte	.LFB265
 4125 000c 28000000 		.4byte	.LFE265
 4126 0010 00000000 		.4byte	.LFB261
 4127 0014 90000000 		.4byte	.LFE261
 4128 0018 00000000 		.4byte	.LFB262
 4129 001c EC000000 		.4byte	.LFE262
 4130 0020 00000000 		.4byte	.LFB263
 4131 0024 0C000000 		.4byte	.LFE263
 4132 0028 00000000 		.4byte	.LFB264
 4133 002c 4E000000 		.4byte	.LFE264
 4134 0030 00000000 		.4byte	0
 4135 0034 00000000 		.4byte	0
 4136              		.section	.debug_line,"",%progbits
 4137              	.Ldebug_line0:
 4138 0000 A8040000 		.section	.debug_str,"MS",%progbits,1
 4138      02008703 
 4138      00000201 
 4138      FB0E0D00 
 4138      01010101 
 4139              	.LASF25:
 4140 0000 74726566 		.ascii	"trefs_t\000"
 4140      735F7400 
 4141              	.LASF135:
 4142 0008 70627566 		.ascii	"pbuf\000"
 4142      00
ARM GAS  C:\Users\jo\AppData\Local\Temp\cclhP7jn.s 			page 74


 4143              	.LASF92:
 4144 000d 73655F74 		.ascii	"se_time\000"
 4144      696D6500 
 4145              	.LASF2:
 4146 0015 73697A65 		.ascii	"size_t\000"
 4146      5F7400
 4147              	.LASF103:
 4148 001c 7264796D 		.ascii	"rdymsg\000"
 4148      736700
 4149              	.LASF21:
 4150 0023 75696E74 		.ascii	"uint64_t\000"
 4150      36345F74 
 4150      00
 4151              	.LASF152:
 4152 002c 696E6574 		.ascii	"inet_chksum_pseudo_partial\000"
 4152      5F63686B 
 4152      73756D5F 
 4152      70736575 
 4152      646F5F70 
 4153              	.LASF3:
 4154 0047 5F5F7569 		.ascii	"__uint8_t\000"
 4154      6E74385F 
 4154      7400
 4155              	.LASF91:
 4156 0051 706F7274 		.ascii	"port_intctx\000"
 4156      5F696E74 
 4156      63747800 
 4157              	.LASF129:
 4158 005d 76615F6C 		.ascii	"va_list\000"
 4158      69737400 
 4159              	.LASF75:
 4160 0065 73797374 		.ascii	"system_debug_t\000"
 4160      656D5F64 
 4160      65627567 
 4160      5F7400
 4161              	.LASF139:
 4162 0074 74797065 		.ascii	"type\000"
 4162      00
 4163              	.LASF167:
 4164 0079 63685379 		.ascii	"chSysHalt\000"
 4164      7348616C 
 4164      7400
 4165              	.LASF155:
 4166 0083 696E6574 		.ascii	"inet_chksum\000"
 4166      5F63686B 
 4166      73756D00 
 4167              	.LASF15:
 4168 008f 6C6F6E67 		.ascii	"long long unsigned int\000"
 4168      206C6F6E 
 4168      6720756E 
 4168      7369676E 
 4168      65642069 
 4169              	.LASF145:
 4170 00a6 666F726D 		.ascii	"formatted_bytes\000"
 4170      61747465 
 4170      645F6279 
 4170      74657300 
ARM GAS  C:\Users\jo\AppData\Local\Temp\cclhP7jn.s 			page 75


 4171              	.LASF95:
 4172 00b6 73655F73 		.ascii	"se_state\000"
 4172      74617465 
 4172      00
 4173              	.LASF104:
 4174 00bf 65786974 		.ascii	"exitcode\000"
 4174      636F6465 
 4174      00
 4175              	.LASF85:
 4176 00c8 6D61696E 		.ascii	"mainthread\000"
 4176      74687265 
 4176      616400
 4177              	.LASF72:
 4178 00d3 76697274 		.ascii	"virtual_timers_list_t\000"
 4178      75616C5F 
 4178      74696D65 
 4178      72735F6C 
 4178      6973745F 
 4179              	.LASF157:
 4180 00e9 49544D5F 		.ascii	"ITM_RxBuffer\000"
 4180      52784275 
 4180      66666572 
 4180      00
 4181              	.LASF136:
 4182 00f6 6E657874 		.ascii	"next\000"
 4182      00
 4183              	.LASF55:
 4184 00fb 63685F74 		.ascii	"ch_threads_queue\000"
 4184      68726561 
 4184      64735F71 
 4184      75657565 
 4184      00
 4185              	.LASF34:
 4186 010c 705F7072 		.ascii	"p_prio\000"
 4186      696F00
 4187              	.LASF163:
 4188 0113 433A5C55 		.ascii	"C:\\Users\\jo\\Documents\\GitHub\\ChibiOS\\demos\\S"
 4188      73657273 
 4188      5C6A6F5C 
 4188      446F6375 
 4188      6D656E74 
 4189 013f 544D3332 		.ascii	"TM32\\RT-STM32F407-DISCOVERY-uHttp\000"
 4189      5C52542D 
 4189      53544D33 
 4189      32463430 
 4189      372D4449 
 4190              	.LASF17:
 4191 0161 696E7431 		.ascii	"int16_t\000"
 4191      365F7400 
 4192              	.LASF13:
 4193 0169 6C6F6E67 		.ascii	"long long int\000"
 4193      206C6F6E 
 4193      6720696E 
 4193      7400
 4194              	.LASF1:
 4195 0177 7369676E 		.ascii	"signed char\000"
 4195      65642063 
ARM GAS  C:\Users\jo\AppData\Local\Temp\cclhP7jn.s 			page 76


 4195      68617200 
 4196              	.LASF49:
 4197 0183 705F6D70 		.ascii	"p_mpool\000"
 4197      6F6F6C00 
 4198              	.LASF84:
 4199 018b 76746C69 		.ascii	"vtlist\000"
 4199      737400
 4200              	.LASF138:
 4201 0192 746F745F 		.ascii	"tot_len\000"
 4201      6C656E00 
 4202              	.LASF106:
 4203 019a 77747472 		.ascii	"wttrp\000"
 4203      7000
 4204              	.LASF82:
 4205 01a0 63685F73 		.ascii	"ch_system\000"
 4205      79737465 
 4205      6D00
 4206              	.LASF10:
 4207 01aa 6C6F6E67 		.ascii	"long int\000"
 4207      20696E74 
 4207      00
 4208              	.LASF151:
 4209 01b3 696E6574 		.ascii	"inet_chksum_pseudo\000"
 4209      5F63686B 
 4209      73756D5F 
 4209      70736575 
 4209      646F00
 4210              	.LASF24:
 4211 01c6 74737461 		.ascii	"tstate_t\000"
 4211      74655F74 
 4211      00
 4212              	.LASF127:
 4213 01cf 5F5F7661 		.ascii	"__va_list\000"
 4213      5F6C6973 
 4213      7400
 4214              	.LASF93:
 4215 01d9 73655F74 		.ascii	"se_tp\000"
 4215      7000
 4216              	.LASF18:
 4217 01df 75696E74 		.ascii	"uint16_t\000"
 4217      31365F74 
 4217      00
 4218              	.LASF20:
 4219 01e8 75696E74 		.ascii	"uint32_t\000"
 4219      33325F74 
 4219      00
 4220              	.LASF36:
 4221 01f1 705F6E65 		.ascii	"p_newer\000"
 4221      77657200 
 4222              	.LASF111:
 4223 01f9 735F7175 		.ascii	"s_queue\000"
 4223      65756500 
 4224              	.LASF97:
 4225 0201 74625F73 		.ascii	"tb_size\000"
 4225      697A6500 
 4226              	.LASF61:
 4227 0209 725F6E65 		.ascii	"r_newer\000"
ARM GAS  C:\Users\jo\AppData\Local\Temp\cclhP7jn.s 			page 77


 4227      77657200 
 4228              	.LASF88:
 4229 0211 72656761 		.ascii	"regarm_t\000"
 4229      726D5F74 
 4229      00
 4230              	.LASF68:
 4231 021a 76745F70 		.ascii	"vt_prev\000"
 4231      72657600 
 4232              	.LASF5:
 4233 0222 5F5F696E 		.ascii	"__int16_t\000"
 4233      7431365F 
 4233      7400
 4234              	.LASF162:
 4235 022c 2E2E2F2E 		.ascii	"../../../ext/lwip/src/core/ipv4/inet_chksum.c\000"
 4235      2E2F2E2E 
 4235      2F657874 
 4235      2F6C7769 
 4235      702F7372 
 4236              	.LASF118:
 4237 025a 6D757465 		.ascii	"mutex_t\000"
 4237      785F7400 
 4238              	.LASF122:
 4239 0262 42617365 		.ascii	"BaseSequentialStream\000"
 4239      53657175 
 4239      656E7469 
 4239      616C5374 
 4239      7265616D 
 4240              	.LASF86:
 4241 0277 69646C65 		.ascii	"idle_thread_wa\000"
 4241      5F746872 
 4241      6561645F 
 4241      776100
 4242              	.LASF29:
 4243 0286 636E745F 		.ascii	"cnt_t\000"
 4243      7400
 4244              	.LASF39:
 4245 028c 705F7374 		.ascii	"p_stklimit\000"
 4245      6B6C696D 
 4245      697400
 4246              	.LASF0:
 4247 0297 756E7369 		.ascii	"unsigned int\000"
 4247      676E6564 
 4247      20696E74 
 4247      00
 4248              	.LASF67:
 4249 02a4 76745F6E 		.ascii	"vt_next\000"
 4249      65787400 
 4250              	.LASF107:
 4251 02ac 77747365 		.ascii	"wtsemp\000"
 4251      6D7000
 4252              	.LASF44:
 4253 02b3 705F6D73 		.ascii	"p_msgqueue\000"
 4253      67717565 
 4253      756500
 4254              	.LASF133:
 4255 02be 7533325F 		.ascii	"u32_t\000"
 4255      7400
ARM GAS  C:\Users\jo\AppData\Local\Temp\cclhP7jn.s 			page 78


 4256              	.LASF112:
 4257 02c4 735F636E 		.ascii	"s_cnt\000"
 4257      7400
 4258              	.LASF8:
 4259 02ca 73686F72 		.ascii	"short unsigned int\000"
 4259      7420756E 
 4259      7369676E 
 4259      65642069 
 4259      6E7400
 4260              	.LASF52:
 4261 02dd 63685F74 		.ascii	"ch_thread\000"
 4261      68726561 
 4261      6400
 4262              	.LASF27:
 4263 02e7 6D73675F 		.ascii	"msg_t\000"
 4263      7400
 4264              	.LASF53:
 4265 02ed 63685F74 		.ascii	"ch_threads_list\000"
 4265      68726561 
 4265      64735F6C 
 4265      69737400 
 4266              	.LASF81:
 4267 02fd 63685F73 		.ascii	"ch_system_t\000"
 4267      79737465 
 4267      6D5F7400 
 4268              	.LASF23:
 4269 0309 746D6F64 		.ascii	"tmode_t\000"
 4269      655F7400 
 4270              	.LASF57:
 4271 0311 63685F72 		.ascii	"ch_ready_list\000"
 4271      65616479 
 4271      5F6C6973 
 4271      7400
 4272              	.LASF28:
 4273 031f 6576656E 		.ascii	"eventmask_t\000"
 4273      746D6173 
 4273      6B5F7400 
 4274              	.LASF9:
 4275 032b 5F5F696E 		.ascii	"__int32_t\000"
 4275      7433325F 
 4275      7400
 4276              	.LASF160:
 4277 0335 6C776970 		.ascii	"lwip_htons\000"
 4277      5F68746F 
 4277      6E7300
 4278              	.LASF161:
 4279 0340 474E5520 		.ascii	"GNU C 4.9.3 20141119 (release) [ARM/embedded-4_9-br"
 4279      4320342E 
 4279      392E3320 
 4279      32303134 
 4279      31313139 
 4280 0373 616E6368 		.ascii	"anch revision 218278] -mcpu=cortex-m4 -mno-thumb-in"
 4280      20726576 
 4280      6973696F 
 4280      6E203231 
 4280      38323738 
 4281 03a6 74657277 		.ascii	"terwork -mthumb -ggdb -O2 -fomit-frame-pointer -fal"
ARM GAS  C:\Users\jo\AppData\Local\Temp\cclhP7jn.s 			page 79


 4281      6F726B20 
 4281      2D6D7468 
 4281      756D6220 
 4281      2D676764 
 4282 03d9 69676E2D 		.ascii	"ign-functions=16 -ffunction-sections -fdata-section"
 4282      66756E63 
 4282      74696F6E 
 4282      733D3136 
 4282      202D6666 
 4283 040c 73202D66 		.ascii	"s -fno-common\000"
 4283      6E6F2D63 
 4283      6F6D6D6F 
 4283      6E00
 4284              	.LASF89:
 4285 041a 73746B61 		.ascii	"stkalign_t\000"
 4285      6C69676E 
 4285      5F7400
 4286              	.LASF164:
 4287 0425 6F73616C 		.ascii	"osalSysHalt\000"
 4287      53797348 
 4287      616C7400 
 4288              	.LASF14:
 4289 0431 5F5F7569 		.ascii	"__uint64_t\000"
 4289      6E743634 
 4289      5F7400
 4290              	.LASF120:
 4291 043c 77726974 		.ascii	"write\000"
 4291      6500
 4292              	.LASF143:
 4293 0442 69705F61 		.ascii	"ip_addr_t\000"
 4293      6464725F 
 4293      7400
 4294              	.LASF43:
 4295 044c 705F7761 		.ascii	"p_waiting\000"
 4295      6974696E 
 4295      6700
 4296              	.LASF166:
 4297 0456 6C776970 		.ascii	"lwip_standard_chksum\000"
 4297      5F737461 
 4297      6E646172 
 4297      645F6368 
 4297      6B73756D 
 4298              	.LASF130:
 4299 046b 75385F74 		.ascii	"u8_t\000"
 4299      00
 4300              	.LASF87:
 4301 0470 73697A65 		.ascii	"sizetype\000"
 4301      74797065 
 4301      00
 4302              	.LASF50:
 4303 0479 74687265 		.ascii	"thread_reference_t\000"
 4303      61645F72 
 4303      65666572 
 4303      656E6365 
 4303      5F7400
 4304              	.LASF73:
 4305 048c 63685F76 		.ascii	"ch_virtual_timers_list\000"
ARM GAS  C:\Users\jo\AppData\Local\Temp\cclhP7jn.s 			page 80


 4305      69727475 
 4305      616C5F74 
 4305      696D6572 
 4305      735F6C69 
 4306              	.LASF98:
 4307 04a3 74625F70 		.ascii	"tb_ptr\000"
 4307      747200
 4308              	.LASF126:
 4309 04aa 5F5F676E 		.ascii	"__gnuc_va_list\000"
 4309      75635F76 
 4309      615F6C69 
 4309      737400
 4310              	.LASF137:
 4311 04b9 7061796C 		.ascii	"payload\000"
 4311      6F616400 
 4312              	.LASF96:
 4313 04c1 63685F73 		.ascii	"ch_swc_event_t\000"
 4313      77635F65 
 4313      76656E74 
 4313      5F7400
 4314              	.LASF100:
 4315 04d0 63685F74 		.ascii	"ch_trace_buffer_t\000"
 4315      72616365 
 4315      5F627566 
 4315      6665725F 
 4315      7400
 4316              	.LASF141:
 4317 04e2 69705F61 		.ascii	"ip_addr\000"
 4317      64647200 
 4318              	.LASF60:
 4319 04ea 725F6374 		.ascii	"r_ctx\000"
 4319      7800
 4320              	.LASF102:
 4321 04f0 746D5F63 		.ascii	"tm_calibration_t\000"
 4321      616C6962 
 4321      72617469 
 4321      6F6E5F74 
 4321      00
 4322              	.LASF147:
 4323 0501 64657374 		.ascii	"dest\000"
 4323      00
 4324              	.LASF79:
 4325 0506 6C6F636B 		.ascii	"lock_cnt\000"
 4325      5F636E74 
 4325      00
 4326              	.LASF62:
 4327 050f 725F6F6C 		.ascii	"r_older\000"
 4327      64657200 
 4328              	.LASF125:
 4329 0517 49544D53 		.ascii	"ITMStream\000"
 4329      74726561 
 4329      6D00
 4330              	.LASF132:
 4331 0521 7331365F 		.ascii	"s16_t\000"
 4331      7400
 4332              	.LASF156:
 4333 0527 696E6574 		.ascii	"inet_chksum_pbuf\000"
ARM GAS  C:\Users\jo\AppData\Local\Temp\cclhP7jn.s 			page 81


 4333      5F63686B 
 4333      73756D5F 
 4333      70627566 
 4333      00
 4334              	.LASF99:
 4335 0538 74625F62 		.ascii	"tb_buffer\000"
 4335      75666665 
 4335      7200
 4336              	.LASF65:
 4337 0542 76697274 		.ascii	"virtual_timer_t\000"
 4337      75616C5F 
 4337      74696D65 
 4337      725F7400 
 4338              	.LASF33:
 4339 0552 705F7072 		.ascii	"p_prev\000"
 4339      657600
 4340              	.LASF26:
 4341 0559 74707269 		.ascii	"tprio_t\000"
 4341      6F5F7400 
 4342              	.LASF142:
 4343 0561 61646472 		.ascii	"addr\000"
 4343      00
 4344              	.LASF38:
 4345 0566 705F6E61 		.ascii	"p_name\000"
 4345      6D6500
 4346              	.LASF76:
 4347 056d 63685F73 		.ascii	"ch_system_debug\000"
 4347      79737465 
 4347      6D5F6465 
 4347      62756700 
 4348              	.LASF123:
 4349 057d 5F426F6F 		.ascii	"_Bool\000"
 4349      6C00
 4350              	.LASF19:
 4351 0583 696E7433 		.ascii	"int32_t\000"
 4351      325F7400 
 4352              	.LASF4:
 4353 058b 756E7369 		.ascii	"unsigned char\000"
 4353      676E6564 
 4353      20636861 
 4353      7200
 4354              	.LASF114:
 4355 0599 6D5F7175 		.ascii	"m_queue\000"
 4355      65756500 
 4356              	.LASF47:
 4357 05a1 705F6D74 		.ascii	"p_mtxlist\000"
 4357      786C6973 
 4357      7400
 4358              	.LASF6:
 4359 05ab 73686F72 		.ascii	"short int\000"
 4359      7420696E 
 4359      7400
 4360              	.LASF40:
 4361 05b5 705F7374 		.ascii	"p_state\000"
 4361      61746500 
 4362              	.LASF37:
 4363 05bd 705F6F6C 		.ascii	"p_older\000"
ARM GAS  C:\Users\jo\AppData\Local\Temp\cclhP7jn.s 			page 82


 4363      64657200 
 4364              	.LASF59:
 4365 05c5 725F7072 		.ascii	"r_prio\000"
 4365      696F00
 4366              	.LASF109:
 4367 05cc 65776D61 		.ascii	"ewmask\000"
 4367      736B00
 4368              	.LASF32:
 4369 05d3 705F6E65 		.ascii	"p_next\000"
 4369      787400
 4370              	.LASF150:
 4371 05da 73776170 		.ascii	"swapped\000"
 4371      70656400 
 4372              	.LASF41:
 4373 05e2 705F666C 		.ascii	"p_flags\000"
 4373      61677300 
 4374              	.LASF144:
 4375 05ea 72656173 		.ascii	"reason\000"
 4375      6F6E00
 4376              	.LASF148:
 4377 05f1 70726F74 		.ascii	"proto\000"
 4377      6F00
 4378              	.LASF66:
 4379 05f7 63685F76 		.ascii	"ch_virtual_timer\000"
 4379      69727475 
 4379      616C5F74 
 4379      696D6572 
 4379      00
 4380              	.LASF110:
 4381 0608 63685F73 		.ascii	"ch_semaphore\000"
 4381      656D6170 
 4381      686F7265 
 4381      00
 4382              	.LASF46:
 4383 0615 705F6570 		.ascii	"p_epending\000"
 4383      656E6469 
 4383      6E6700
 4384              	.LASF119:
 4385 0620 42617365 		.ascii	"BaseSequentialStreamVMT\000"
 4385      53657175 
 4385      656E7469 
 4385      616C5374 
 4385      7265616D 
 4386              	.LASF108:
 4387 0638 77746D74 		.ascii	"wtmtxp\000"
 4387      787000
 4388              	.LASF58:
 4389 063f 725F7175 		.ascii	"r_queue\000"
 4389      65756500 
 4390              	.LASF69:
 4391 0647 76745F64 		.ascii	"vt_delta\000"
 4391      656C7461 
 4391      00
 4392              	.LASF154:
 4393 0650 63686B6C 		.ascii	"chklen\000"
 4393      656E00
 4394              	.LASF12:
ARM GAS  C:\Users\jo\AppData\Local\Temp\cclhP7jn.s 			page 83


 4395 0657 6C6F6E67 		.ascii	"long unsigned int\000"
 4395      20756E73 
 4395      69676E65 
 4395      6420696E 
 4395      7400
 4396              	.LASF63:
 4397 0669 725F6375 		.ascii	"r_current\000"
 4397      7272656E 
 4397      7400
 4398              	.LASF121:
 4399 0673 72656164 		.ascii	"read\000"
 4399      00
 4400              	.LASF117:
 4401 0678 63686172 		.ascii	"char\000"
 4401      00
 4402              	.LASF146:
 4403 067d 64617461 		.ascii	"dataptr\000"
 4403      70747200 
 4404              	.LASF7:
 4405 0685 5F5F7569 		.ascii	"__uint16_t\000"
 4405      6E743136 
 4405      5F7400
 4406              	.LASF124:
 4407 0690 49544D53 		.ascii	"ITMStreamVMT\000"
 4407      74726561 
 4407      6D564D54 
 4407      00
 4408              	.LASF31:
 4409 069d 74687265 		.ascii	"thread_t\000"
 4409      61645F74 
 4409      00
 4410              	.LASF116:
 4411 06a6 6D5F6E65 		.ascii	"m_next\000"
 4411      787400
 4412              	.LASF30:
 4413 06ad 73797374 		.ascii	"systime_t\000"
 4413      696D655F 
 4413      7400
 4414              	.LASF48:
 4415 06b7 705F7265 		.ascii	"p_realprio\000"
 4415      616C7072 
 4415      696F00
 4416              	.LASF64:
 4417 06c2 76746675 		.ascii	"vtfunc_t\000"
 4417      6E635F74 
 4417      00
 4418              	.LASF11:
 4419 06cb 5F5F7569 		.ascii	"__uint32_t\000"
 4419      6E743332 
 4419      5F7400
 4420              	.LASF153:
 4421 06d6 63686B73 		.ascii	"chksum_len\000"
 4421      756D5F6C 
 4421      656E00
 4422              	.LASF77:
 4423 06e1 70616E69 		.ascii	"panic_msg\000"
 4423      635F6D73 
ARM GAS  C:\Users\jo\AppData\Local\Temp\cclhP7jn.s 			page 84


 4423      6700
 4424              	.LASF101:
 4425 06eb 6F666673 		.ascii	"offset\000"
 4425      657400
 4426              	.LASF128:
 4427 06f2 5F5F6170 		.ascii	"__ap\000"
 4427      00
 4428              	.LASF90:
 4429 06f7 636F6E74 		.ascii	"context\000"
 4429      65787400 
 4430              	.LASF22:
 4431 06ff 7274636E 		.ascii	"rtcnt_t\000"
 4431      745F7400 
 4432              	.LASF71:
 4433 0707 76745F70 		.ascii	"vt_par\000"
 4433      617200
 4434              	.LASF131:
 4435 070e 7531365F 		.ascii	"u16_t\000"
 4435      7400
 4436              	.LASF134:
 4437 0714 6D656D5F 		.ascii	"mem_ptr_t\000"
 4437      7074725F 
 4437      7400
 4438              	.LASF56:
 4439 071e 72656164 		.ascii	"ready_list_t\000"
 4439      795F6C69 
 4439      73745F74 
 4439      00
 4440              	.LASF158:
 4441 072b 69746D5F 		.ascii	"itm_port\000"
 4441      706F7274 
 4441      00
 4442              	.LASF54:
 4443 0734 74687265 		.ascii	"threads_queue_t\000"
 4443      6164735F 
 4443      71756575 
 4443      655F7400 
 4444              	.LASF113:
 4445 0744 63685F6D 		.ascii	"ch_mutex\000"
 4445      75746578 
 4445      00
 4446              	.LASF42:
 4447 074d 705F7265 		.ascii	"p_refs\000"
 4447      667300
 4448              	.LASF78:
 4449 0754 6973725F 		.ascii	"isr_cnt\000"
 4449      636E7400 
 4450              	.LASF83:
 4451 075c 726C6973 		.ascii	"rlist\000"
 4451      7400
 4452              	.LASF16:
 4453 0762 75696E74 		.ascii	"uint8_t\000"
 4453      385F7400 
 4454              	.LASF159:
 4455 076a 63687670 		.ascii	"chvprintf\000"
 4455      72696E74 
 4455      6600
ARM GAS  C:\Users\jo\AppData\Local\Temp\cclhP7jn.s 			page 85


 4456              	.LASF140:
 4457 0774 666C6167 		.ascii	"flags\000"
 4457      7300
 4458              	.LASF74:
 4459 077a 76745F6C 		.ascii	"vt_lasttime\000"
 4459      61737474 
 4459      696D6500 
 4460              	.LASF149:
 4461 0786 70726F74 		.ascii	"proto_len\000"
 4461      6F5F6C65 
 4461      6E00
 4462              	.LASF105:
 4463 0790 77746F62 		.ascii	"wtobjp\000"
 4463      6A7000
 4464              	.LASF51:
 4465 0797 74687265 		.ascii	"threads_list_t\000"
 4465      6164735F 
 4465      6C697374 
 4465      5F7400
 4466              	.LASF80:
 4467 07a6 74726163 		.ascii	"trace_buffer\000"
 4467      655F6275 
 4467      66666572 
 4467      00
 4468              	.LASF45:
 4469 07b3 705F6D73 		.ascii	"p_msg\000"
 4469      6700
 4470              	.LASF115:
 4471 07b9 6D5F6F77 		.ascii	"m_owner\000"
 4471      6E657200 
 4472              	.LASF94:
 4473 07c1 73655F77 		.ascii	"se_wtobjp\000"
 4473      746F626A 
 4473      7000
 4474              	.LASF35:
 4475 07cb 705F6374 		.ascii	"p_ctx\000"
 4475      7800
 4476              	.LASF70:
 4477 07d1 76745F66 		.ascii	"vt_func\000"
 4477      756E6300 
 4478              	.LASF165:
 4479 07d9 63687072 		.ascii	"chprintf\000"
 4479      696E7466 
 4479      00
 4480              		.ident	"GCC: (GNU Tools for ARM Embedded Processors) 4.9.3 20141119 (release) [ARM/embedded-4_9-br
ARM GAS  C:\Users\jo\AppData\Local\Temp\cclhP7jn.s 			page 86


DEFINED SYMBOLS
                            *ABS*:00000000 inet_chksum.c
C:\Users\jo\AppData\Local\Temp\cclhP7jn.s:19     .text.lwip_standard_chksum:00000000 $t
C:\Users\jo\AppData\Local\Temp\cclhP7jn.s:24     .text.lwip_standard_chksum:00000000 lwip_standard_chksum
C:\Users\jo\AppData\Local\Temp\cclhP7jn.s:146    .text.chprintf.constprop.0:00000000 $t
C:\Users\jo\AppData\Local\Temp\cclhP7jn.s:151    .text.chprintf.constprop.0:00000000 chprintf.constprop.0
C:\Users\jo\AppData\Local\Temp\cclhP7jn.s:197    .text.chprintf.constprop.0:00000020 $d
C:\Users\jo\AppData\Local\Temp\cclhP7jn.s:203    .text.inet_chksum_pseudo:00000000 $t
C:\Users\jo\AppData\Local\Temp\cclhP7jn.s:209    .text.inet_chksum_pseudo:00000000 inet_chksum_pseudo
C:\Users\jo\AppData\Local\Temp\cclhP7jn.s:342    .text.inet_chksum_pseudo_partial:00000000 $t
C:\Users\jo\AppData\Local\Temp\cclhP7jn.s:348    .text.inet_chksum_pseudo_partial:00000000 inet_chksum_pseudo_partial
C:\Users\jo\AppData\Local\Temp\cclhP7jn.s:540    .text.inet_chksum_pseudo_partial:000000dc $d
C:\Users\jo\AppData\Local\Temp\cclhP7jn.s:548    .text.inet_chksum:00000000 $t
C:\Users\jo\AppData\Local\Temp\cclhP7jn.s:554    .text.inet_chksum:00000000 inet_chksum
C:\Users\jo\AppData\Local\Temp\cclhP7jn.s:576    .text.inet_chksum_pbuf:00000000 $t
C:\Users\jo\AppData\Local\Temp\cclhP7jn.s:582    .text.inet_chksum_pbuf:00000000 inet_chksum_pbuf
C:\Users\jo\AppData\Local\Temp\cclhP7jn.s:667    .rodata.str1.4:00000000 $d
                     .debug_frame:00000010 $d
C:\Users\jo\AppData\Local\Temp\cclhP7jn.s:202    .text.chprintf.constprop.0:00000028 $t
C:\Users\jo\AppData\Local\Temp\cclhP7jn.s:547    .text.inet_chksum_pseudo_partial:000000ec $t

UNDEFINED SYMBOLS
chvprintf
itm_port
lwip_htons
chSysHalt
