ARM GAS  C:\Users\jo\AppData\Local\Temp\ccIJWdhY.s 			page 1


   1              		.syntax unified
   2              		.cpu cortex-m4
   3              		.fpu softvfp
   4              		.eabi_attribute 20, 1
   5              		.eabi_attribute 21, 1
   6              		.eabi_attribute 23, 3
   7              		.eabi_attribute 24, 1
   8              		.eabi_attribute 25, 1
   9              		.eabi_attribute 26, 1
  10              		.eabi_attribute 30, 2
  11              		.eabi_attribute 34, 1
  12              		.eabi_attribute 18, 4
  13              		.thumb
  14              		.file	"io.c"
  15              		.text
  16              	.Ltext0:
  17              		.cfi_sections	.debug_frame
  18              		.section	.text._open,"ax",%progbits
  19              		.align	2
  20              		.p2align 4,,15
  21              		.global	_open
  22              		.thumb
  23              		.thumb_func
  24              		.type	_open, %function
  25              	_open:
  26              	.LFB0:
  27              		.file 1 "../../../demos/STM32/RT-STM32F407-DISCOVERY-uHttp/uhttp-1.1/io.c"
  28              		.loc 1 78 0
  29              		.cfi_startproc
  30              		@ args = 0, pretend = 0, frame = 0
  31              		@ frame_needed = 0, uses_anonymous_args = 0
  32              	.LVL0:
  33 0000 38B5     		push	{r3, r4, r5, lr}
  34              		.cfi_def_cfa_offset 16
  35              		.cfi_offset 3, -16
  36              		.cfi_offset 4, -12
  37              		.cfi_offset 5, -8
  38              		.cfi_offset 14, -4
  39              		.loc 1 86 0
  40 0002 0378     		ldrb	r3, [r0]	@ zero_extendqisi2
  41 0004 552B     		cmp	r3, #85
  42              		.loc 1 78 0
  43 0006 0446     		mov	r4, r0
  44              		.loc 1 86 0
  45 0008 07D0     		beq	.L22
  46              	.LVL1:
  47              	.L5:
  48              		.loc 1 122 0
  49 000a 2046     		mov	r0, r4
  50 000c 1A49     		ldr	r1, .L24
  51 000e FFF7FEFF 		bl	strcmp
  52              	.LVL2:
  53 0012 40B3     		cbz	r0, .L9
  54              	.L10:
  55              		.loc 1 78 0
  56 0014 4FF0FF30 		mov	r0, #-1
  57 0018 38BD     		pop	{r3, r4, r5, pc}
ARM GAS  C:\Users\jo\AppData\Local\Temp\ccIJWdhY.s 			page 2


  58              	.LVL3:
  59              	.L22:
  60              		.loc 1 86 0 discriminator 1
  61 001a 4378     		ldrb	r3, [r0, #1]	@ zero_extendqisi2
  62 001c 522B     		cmp	r3, #82
  63 001e F4D1     		bne	.L5
  64              		.loc 1 86 0 is_stmt 0 discriminator 2
  65 0020 8378     		ldrb	r3, [r0, #2]	@ zero_extendqisi2
  66 0022 4F2B     		cmp	r3, #79
  67 0024 F1D1     		bne	.L5
  68              		.loc 1 87 0 is_stmt 1
  69 0026 C378     		ldrb	r3, [r0, #3]	@ zero_extendqisi2
  70 0028 4D2B     		cmp	r3, #77
  71 002a EED1     		bne	.L5
  72              		.loc 1 87 0 is_stmt 0 discriminator 1
  73 002c 0379     		ldrb	r3, [r0, #4]	@ zero_extendqisi2
  74 002e 3A2B     		cmp	r3, #58
  75 0030 EBD1     		bne	.L5
  76              	.LVL4:
  77              		.loc 1 91 0 is_stmt 1
  78 0032 4379     		ldrb	r3, [r0, #5]	@ zero_extendqisi2
  79 0034 2F2B     		cmp	r3, #47
  80              	.LVL5:
  81              		.loc 1 97 0
  82 0036 114B     		ldr	r3, .L24+4
  83 0038 1D68     		ldr	r5, [r3]
  84              		.loc 1 89 0
  85 003a 14BF     		ite	ne
  86 003c 0534     		addne	r4, r4, #5
  87              	.LVL6:
  88              		.loc 1 93 0
  89 003e 0634     		addeq	r4, r4, #6
  90              	.LVL7:
  91              		.loc 1 97 0
  92 0040 1DB9     		cbnz	r5, .L7
  93              	.LVL8:
  94 0042 E2E7     		b	.L5
  95              	.LVL9:
  96              	.L23:
  97              		.loc 1 97 0 is_stmt 0 discriminator 2
  98 0044 2D68     		ldr	r5, [r5]
  99              	.LVL10:
 100 0046 002D     		cmp	r5, #0
 101 0048 DFD0     		beq	.L5
 102              	.L7:
 103              		.loc 1 99 0 is_stmt 1
 104 004a 2046     		mov	r0, r4
 105 004c 6968     		ldr	r1, [r5, #4]
 106 004e FFF7FEFF 		bl	strcmp
 107              	.LVL11:
 108 0052 0028     		cmp	r0, #0
 109 0054 F6D1     		bne	.L23
 110              		.loc 1 109 0
 111 0056 0120     		movs	r0, #1
 112 0058 0821     		movs	r1, #8
 113 005a FFF7FEFF 		bl	calloc
 114              	.LVL12:
ARM GAS  C:\Users\jo\AppData\Local\Temp\ccIJWdhY.s 			page 3


 115 005e 0028     		cmp	r0, #0
 116 0060 D3D0     		beq	.L5
 117              		.loc 1 111 0
 118 0062 0560     		str	r5, [r0]
 119              	.LVL13:
 120 0064 38BD     		pop	{r3, r4, r5, pc}
 121              	.LVL14:
 122              	.L9:
 123              		.loc 1 124 0
 124 0066 0120     		movs	r0, #1
 125 0068 0821     		movs	r1, #8
 126 006a FFF7FEFF 		bl	calloc
 127              	.LVL15:
 128 006e 0028     		cmp	r0, #0
 129 0070 D0D0     		beq	.L10
 130              		.loc 1 126 0
 131 0072 034B     		ldr	r3, .L24+8
 132 0074 0360     		str	r3, [r0]
 133              	.LVL16:
 134 0076 38BD     		pop	{r3, r4, r5, pc}
 135              	.L25:
 136              		.align	2
 137              	.L24:
 138 0078 00000000 		.word	.LC0
 139 007c 00000000 		.word	romEntryList
 140 0080 00000000 		.word	.LANCHOR0
 141              		.cfi_endproc
 142              	.LFE0:
 143              		.size	_open, .-_open
 144 0084 AFF30080 		.section	.text._close,"ax",%progbits
 144      AFF30080 
 144      AFF30080 
 145              		.align	2
 146              		.p2align 4,,15
 147              		.global	_close
 148              		.thumb
 149              		.thumb_func
 150              		.type	_close, %function
 151              	_close:
 152              	.LFB1:
 153              		.loc 1 137 0
 154              		.cfi_startproc
 155              		@ args = 0, pretend = 0, frame = 0
 156              		@ frame_needed = 0, uses_anonymous_args = 0
 157              	.LVL17:
 158              		.loc 1 140 0
 159 0000 20B1     		cbz	r0, .L32
 160              		.loc 1 137 0
 161 0002 08B5     		push	{r3, lr}
 162              		.cfi_def_cfa_offset 8
 163              		.cfi_offset 3, -8
 164              		.cfi_offset 14, -4
 165              		.loc 1 142 0
 166 0004 FFF7FEFF 		bl	free
 167              	.LVL18:
 168              		.loc 1 146 0
 169 0008 0020     		movs	r0, #0
ARM GAS  C:\Users\jo\AppData\Local\Temp\ccIJWdhY.s 			page 4


 170 000a 08BD     		pop	{r3, pc}
 171              	.LVL19:
 172              	.L32:
 173              		.cfi_def_cfa_offset 0
 174              		.cfi_restore 3
 175              		.cfi_restore 14
 176 000c 0020     		movs	r0, #0
 177              	.LVL20:
 178 000e 7047     		bx	lr
 179              		.cfi_endproc
 180              	.LFE1:
 181              		.size	_close, .-_close
 182              		.section	.text._read,"ax",%progbits
 183              		.align	2
 184              		.p2align 4,,15
 185              		.global	_read
 186              		.thumb
 187              		.thumb_func
 188              		.type	_read, %function
 189              	_read:
 190              	.LFB2:
 191              		.loc 1 150 0
 192              		.cfi_startproc
 193              		@ args = 0, pretend = 0, frame = 0
 194              		@ frame_needed = 0, uses_anonymous_args = 0
 195              	.LVL21:
 196 0000 70B5     		push	{r4, r5, r6, lr}
 197              		.cfi_def_cfa_offset 16
 198              		.cfi_offset 4, -16
 199              		.cfi_offset 5, -12
 200              		.cfi_offset 6, -8
 201              		.cfi_offset 14, -4
 202              		.loc 1 152 0
 203 0002 0668     		ldr	r6, [r0]
 204              	.LVL22:
 205              		.loc 1 156 0
 206 0004 4368     		ldr	r3, [r0, #4]
 207 0006 B468     		ldr	r4, [r6, #8]
 208 0008 E41A     		subs	r4, r4, r3
 209 000a 9442     		cmp	r4, r2
 210 000c 28BF     		it	cs
 211 000e 1446     		movcs	r4, r2
 212              	.LVL23:
 213              		.loc 1 161 0
 214 0010 4CB1     		cbz	r4, .L34
 215              		.loc 1 163 0
 216 0012 F268     		ldr	r2, [r6, #12]
 217 0014 0546     		mov	r5, r0
 218 0016 0846     		mov	r0, r1
 219              	.LVL24:
 220 0018 D118     		adds	r1, r2, r3
 221              	.LVL25:
 222 001a 2246     		mov	r2, r4
 223 001c FFF7FEFF 		bl	memcpy
 224              	.LVL26:
 225              		.loc 1 164 0
 226 0020 6B68     		ldr	r3, [r5, #4]
ARM GAS  C:\Users\jo\AppData\Local\Temp\ccIJWdhY.s 			page 5


 227 0022 2344     		add	r3, r3, r4
 228 0024 6B60     		str	r3, [r5, #4]
 229              	.LVL27:
 230              	.L34:
 231              		.loc 1 169 0
 232 0026 2046     		mov	r0, r4
 233 0028 70BD     		pop	{r4, r5, r6, pc}
 234              		.cfi_endproc
 235              	.LFE2:
 236              		.size	_read, .-_read
 237 002a 00BFAFF3 		.section	.text._seek,"ax",%progbits
 237      0080
 238              		.align	2
 239              		.p2align 4,,15
 240              		.global	_seek
 241              		.thumb
 242              		.thumb_func
 243              		.type	_seek, %function
 244              	_seek:
 245              	.LFB3:
 246              		.loc 1 172 0
 247              		.cfi_startproc
 248              		@ args = 0, pretend = 0, frame = 0
 249              		@ frame_needed = 0, uses_anonymous_args = 0
 250              		@ link register save eliminated.
 251              	.LVL28:
 252              		.loc 1 178 0
 253 0000 4FF0FF30 		mov	r0, #-1
 254              	.LVL29:
 255 0004 7047     		bx	lr
 256              		.cfi_endproc
 257              	.LFE3:
 258              		.size	_seek, .-_seek
 259 0006 00BFAFF3 		.section	.text._filelength,"ax",%progbits
 259      0080AFF3 
 259      0080
 260              		.align	2
 261              		.p2align 4,,15
 262              		.global	_filelength
 263              		.thumb
 264              		.thumb_func
 265              		.type	_filelength, %function
 266              	_filelength:
 267              	.LFB4:
 268              		.loc 1 182 0
 269              		.cfi_startproc
 270              		@ args = 0, pretend = 0, frame = 0
 271              		@ frame_needed = 0, uses_anonymous_args = 0
 272              		@ link register save eliminated.
 273              	.LVL30:
 274              		.loc 1 189 0
 275 0000 0368     		ldr	r3, [r0]
 276              		.loc 1 193 0
 277 0002 9868     		ldr	r0, [r3, #8]
 278              	.LVL31:
 279 0004 7047     		bx	lr
 280              		.cfi_endproc
ARM GAS  C:\Users\jo\AppData\Local\Temp\ccIJWdhY.s 			page 6


 281              	.LFE4:
 282              		.size	_filelength, .-_filelength
 283 0006 00BFAFF3 		.section	.text.fstat,"ax",%progbits
 283      0080AFF3 
 283      0080
 284              		.align	2
 285              		.p2align 4,,15
 286              		.global	fstat
 287              		.thumb
 288              		.thumb_func
 289              		.type	fstat, %function
 290              	fstat:
 291              	.LFB5:
 292              		.loc 1 197 0
 293              		.cfi_startproc
 294              		@ args = 0, pretend = 0, frame = 0
 295              		@ frame_needed = 0, uses_anonymous_args = 0
 296              		@ link register save eliminated.
 297              	.LVL32:
 298              		.loc 1 202 0
 299 0000 4FF0FF30 		mov	r0, #-1
 300              	.LVL33:
 301 0004 7047     		bx	lr
 302              		.cfi_endproc
 303              	.LFE5:
 304              		.size	fstat, .-fstat
 305 0006 00BFAFF3 		.section	.data.Testimage,"aw",%progbits
 305      0080AFF3 
 305      0080
 306              		.align	2
 307              		.set	.LANCHOR0,. + 0
 308              		.type	Testimage, %object
 309              		.size	Testimage, 16
 310              	Testimage:
 311 0000 00000000 		.word	0
 312 0004 00000000 		.word	.LC0
 313 0008 00001000 		.word	1048576
 314 000c 00000008 		.word	134217728
 315              		.section	.rodata.str1.4,"aMS",%progbits,1
 316              		.align	2
 317              	.LC0:
 318 0000 74657374 		.ascii	"testimg.bin\000"
 318      696D672E 
 318      62696E00 
 319              		.text
 320              	.Letext0:
 321              		.file 2 "c:\\program files\\gnu tools arm embedded\\4.9 2014q4\\lib\\gcc\\arm-none-eabi\\4.9.3\\in
 322              		.file 3 "c:\\program files\\gnu tools arm embedded\\4.9 2014q4\\arm-none-eabi\\include\\sys\\_type
 323              		.file 4 "c:\\program files\\gnu tools arm embedded\\4.9 2014q4\\arm-none-eabi\\include\\sys\\types
 324              		.file 5 "c:\\program files\\gnu tools arm embedded\\4.9 2014q4\\arm-none-eabi\\include\\sys\\stat.
 325              		.file 6 "../../../demos/STM32/RT-STM32F407-DISCOVERY-uHttp/uhttp-1.1/fs/uromfs.h"
 326              		.file 7 "c:\\program files\\gnu tools arm embedded\\4.9 2014q4\\arm-none-eabi\\include\\string.h"
 327              		.file 8 "c:\\program files\\gnu tools arm embedded\\4.9 2014q4\\arm-none-eabi\\include\\stdlib.h"
 328              		.section	.debug_info,"",%progbits
 329              	.Ldebug_info0:
 330 0000 53050000 		.4byte	0x553
 331 0004 0400     		.2byte	0x4
ARM GAS  C:\Users\jo\AppData\Local\Temp\ccIJWdhY.s 			page 7


 332 0006 00000000 		.4byte	.Ldebug_abbrev0
 333 000a 04       		.byte	0x4
 334 000b 01       		.uleb128 0x1
 335 000c A6010000 		.4byte	.LASF69
 336 0010 01       		.byte	0x1
 337 0011 21030000 		.4byte	.LASF70
 338 0015 46000000 		.4byte	.LASF71
 339 0019 00000000 		.4byte	.Ldebug_ranges0+0
 340 001d 00000000 		.4byte	0
 341 0021 00000000 		.4byte	.Ldebug_line0
 342 0025 02       		.uleb128 0x2
 343 0026 01       		.byte	0x1
 344 0027 06       		.byte	0x6
 345 0028 A7000000 		.4byte	.LASF0
 346 002c 02       		.uleb128 0x2
 347 002d 01       		.byte	0x1
 348 002e 08       		.byte	0x8
 349 002f C5020000 		.4byte	.LASF1
 350 0033 02       		.uleb128 0x2
 351 0034 02       		.byte	0x2
 352 0035 05       		.byte	0x5
 353 0036 DD020000 		.4byte	.LASF2
 354 003a 02       		.uleb128 0x2
 355 003b 02       		.byte	0x2
 356 003c 07       		.byte	0x7
 357 003d 80010000 		.4byte	.LASF3
 358 0041 02       		.uleb128 0x2
 359 0042 04       		.byte	0x4
 360 0043 05       		.byte	0x5
 361 0044 C3000000 		.4byte	.LASF4
 362 0048 02       		.uleb128 0x2
 363 0049 04       		.byte	0x4
 364 004a 07       		.byte	0x7
 365 004b 54010000 		.4byte	.LASF5
 366 004f 02       		.uleb128 0x2
 367 0050 08       		.byte	0x8
 368 0051 05       		.byte	0x5
 369 0052 99000000 		.4byte	.LASF6
 370 0056 02       		.uleb128 0x2
 371 0057 08       		.byte	0x8
 372 0058 07       		.byte	0x7
 373 0059 20000000 		.4byte	.LASF7
 374 005d 03       		.uleb128 0x3
 375 005e 04       		.byte	0x4
 376 005f 05       		.byte	0x5
 377 0060 696E7400 		.ascii	"int\000"
 378 0064 02       		.uleb128 0x2
 379 0065 04       		.byte	0x4
 380 0066 07       		.byte	0x7
 381 0067 24010000 		.4byte	.LASF8
 382 006b 04       		.uleb128 0x4
 383 006c 0F000000 		.4byte	.LASF9
 384 0070 02       		.byte	0x2
 385 0071 D4       		.byte	0xd4
 386 0072 64000000 		.4byte	0x64
 387 0076 05       		.uleb128 0x5
 388 0077 04       		.byte	0x4
ARM GAS  C:\Users\jo\AppData\Local\Temp\ccIJWdhY.s 			page 8


 389 0078 04       		.uleb128 0x4
 390 0079 A2020000 		.4byte	.LASF10
 391 007d 03       		.byte	0x3
 392 007e 10       		.byte	0x10
 393 007f 41000000 		.4byte	0x41
 394 0083 04       		.uleb128 0x4
 395 0084 ED000000 		.4byte	.LASF11
 396 0088 03       		.byte	0x3
 397 0089 14       		.byte	0x14
 398 008a 33000000 		.4byte	0x33
 399 008e 04       		.uleb128 0x4
 400 008f 7D030000 		.4byte	.LASF12
 401 0093 03       		.byte	0x3
 402 0094 18       		.byte	0x18
 403 0095 3A000000 		.4byte	0x3a
 404 0099 04       		.uleb128 0x4
 405 009a 00000000 		.4byte	.LASF13
 406 009e 03       		.byte	0x3
 407 009f 1B       		.byte	0x1b
 408 00a0 3A000000 		.4byte	0x3a
 409 00a4 02       		.uleb128 0x2
 410 00a5 04       		.byte	0x4
 411 00a6 07       		.byte	0x7
 412 00a7 90020000 		.4byte	.LASF14
 413 00ab 02       		.uleb128 0x2
 414 00ac 01       		.byte	0x1
 415 00ad 08       		.byte	0x8
 416 00ae 62030000 		.4byte	.LASF15
 417 00b2 06       		.uleb128 0x6
 418 00b3 04       		.byte	0x4
 419 00b4 B8000000 		.4byte	0xb8
 420 00b8 07       		.uleb128 0x7
 421 00b9 AB000000 		.4byte	0xab
 422 00bd 04       		.uleb128 0x4
 423 00be AF020000 		.4byte	.LASF16
 424 00c2 04       		.byte	0x4
 425 00c3 7A       		.byte	0x7a
 426 00c4 41000000 		.4byte	0x41
 427 00c8 04       		.uleb128 0x4
 428 00c9 D3030000 		.4byte	.LASF17
 429 00cd 04       		.byte	0x4
 430 00ce 9B       		.byte	0x9b
 431 00cf 3A000000 		.4byte	0x3a
 432 00d3 04       		.uleb128 0x4
 433 00d4 E1000000 		.4byte	.LASF18
 434 00d8 04       		.byte	0x4
 435 00d9 B8       		.byte	0xb8
 436 00da 78000000 		.4byte	0x78
 437 00de 04       		.uleb128 0x4
 438 00df A9020000 		.4byte	.LASF19
 439 00e3 04       		.byte	0x4
 440 00e4 B9       		.byte	0xb9
 441 00e5 83000000 		.4byte	0x83
 442 00e9 04       		.uleb128 0x4
 443 00ea 75010000 		.4byte	.LASF20
 444 00ee 04       		.byte	0x4
 445 00ef BA       		.byte	0xba
ARM GAS  C:\Users\jo\AppData\Local\Temp\ccIJWdhY.s 			page 9


 446 00f0 8E000000 		.4byte	0x8e
 447 00f4 04       		.uleb128 0x4
 448 00f5 E7000000 		.4byte	.LASF21
 449 00f9 04       		.byte	0x4
 450 00fa BB       		.byte	0xbb
 451 00fb 99000000 		.4byte	0x99
 452 00ff 04       		.uleb128 0x4
 453 0100 9D030000 		.4byte	.LASF22
 454 0104 04       		.byte	0x4
 455 0105 D9       		.byte	0xd9
 456 0106 64000000 		.4byte	0x64
 457 010a 04       		.uleb128 0x4
 458 010b D9000000 		.4byte	.LASF23
 459 010f 04       		.byte	0x4
 460 0110 DE       		.byte	0xde
 461 0111 3A000000 		.4byte	0x3a
 462 0115 06       		.uleb128 0x6
 463 0116 04       		.byte	0x4
 464 0117 1B010000 		.4byte	0x11b
 465 011b 08       		.uleb128 0x8
 466 011c 09       		.uleb128 0x9
 467 011d 94000000 		.4byte	.LASF42
 468 0121 3C       		.byte	0x3c
 469 0122 05       		.byte	0x5
 470 0123 1A       		.byte	0x1a
 471 0124 F5010000 		.4byte	0x1f5
 472 0128 0A       		.uleb128 0xa
 473 0129 A4030000 		.4byte	.LASF24
 474 012d 05       		.byte	0x5
 475 012e 1C       		.byte	0x1c
 476 012f DE000000 		.4byte	0xde
 477 0133 00       		.byte	0
 478 0134 0A       		.uleb128 0xa
 479 0135 B3000000 		.4byte	.LASF25
 480 0139 05       		.byte	0x5
 481 013a 1D       		.byte	0x1d
 482 013b C8000000 		.4byte	0xc8
 483 013f 02       		.byte	0x2
 484 0140 0A       		.uleb128 0xa
 485 0141 88020000 		.4byte	.LASF26
 486 0145 05       		.byte	0x5
 487 0146 1E       		.byte	0x1e
 488 0147 FF000000 		.4byte	0xff
 489 014b 04       		.byte	0x4
 490 014c 0A       		.uleb128 0xa
 491 014d BC020000 		.4byte	.LASF27
 492 0151 05       		.byte	0x5
 493 0152 1F       		.byte	0x1f
 494 0153 0A010000 		.4byte	0x10a
 495 0157 08       		.byte	0x8
 496 0158 0A       		.uleb128 0xa
 497 0159 F5000000 		.4byte	.LASF28
 498 015d 05       		.byte	0x5
 499 015e 20       		.byte	0x20
 500 015f E9000000 		.4byte	0xe9
 501 0163 0A       		.byte	0xa
 502 0164 0A       		.uleb128 0xa
ARM GAS  C:\Users\jo\AppData\Local\Temp\ccIJWdhY.s 			page 10


 503 0165 96030000 		.4byte	.LASF29
 504 0169 05       		.byte	0x5
 505 016a 21       		.byte	0x21
 506 016b F4000000 		.4byte	0xf4
 507 016f 0C       		.byte	0xc
 508 0170 0A       		.uleb128 0xa
 509 0171 19030000 		.4byte	.LASF30
 510 0175 05       		.byte	0x5
 511 0176 22       		.byte	0x22
 512 0177 DE000000 		.4byte	0xde
 513 017b 0E       		.byte	0xe
 514 017c 0A       		.uleb128 0xa
 515 017d 80020000 		.4byte	.LASF31
 516 0181 05       		.byte	0x5
 517 0182 23       		.byte	0x23
 518 0183 D3000000 		.4byte	0xd3
 519 0187 10       		.byte	0x10
 520 0188 0A       		.uleb128 0xa
 521 0189 9D010000 		.4byte	.LASF32
 522 018d 05       		.byte	0x5
 523 018e 31       		.byte	0x31
 524 018f BD000000 		.4byte	0xbd
 525 0193 14       		.byte	0x14
 526 0194 0A       		.uleb128 0xa
 527 0195 FC000000 		.4byte	.LASF33
 528 0199 05       		.byte	0x5
 529 019a 32       		.byte	0x32
 530 019b 41000000 		.4byte	0x41
 531 019f 18       		.byte	0x18
 532 01a0 0A       		.uleb128 0xa
 533 01a1 CA030000 		.4byte	.LASF34
 534 01a5 05       		.byte	0x5
 535 01a6 33       		.byte	0x33
 536 01a7 BD000000 		.4byte	0xbd
 537 01ab 1C       		.byte	0x1c
 538 01ac 0A       		.uleb128 0xa
 539 01ad 06010000 		.4byte	.LASF35
 540 01b1 05       		.byte	0x5
 541 01b2 34       		.byte	0x34
 542 01b3 41000000 		.4byte	0x41
 543 01b7 20       		.byte	0x20
 544 01b8 0A       		.uleb128 0xa
 545 01b9 F2020000 		.4byte	.LASF36
 546 01bd 05       		.byte	0x5
 547 01be 35       		.byte	0x35
 548 01bf BD000000 		.4byte	0xbd
 549 01c3 24       		.byte	0x24
 550 01c4 0A       		.uleb128 0xa
 551 01c5 10010000 		.4byte	.LASF37
 552 01c9 05       		.byte	0x5
 553 01ca 36       		.byte	0x36
 554 01cb 41000000 		.4byte	0x41
 555 01cf 28       		.byte	0x28
 556 01d0 0A       		.uleb128 0xa
 557 01d1 E7020000 		.4byte	.LASF38
 558 01d5 05       		.byte	0x5
 559 01d6 37       		.byte	0x37
ARM GAS  C:\Users\jo\AppData\Local\Temp\ccIJWdhY.s 			page 11


 560 01d7 41000000 		.4byte	0x41
 561 01db 2C       		.byte	0x2c
 562 01dc 0A       		.uleb128 0xa
 563 01dd 37000000 		.4byte	.LASF39
 564 01e1 05       		.byte	0x5
 565 01e2 38       		.byte	0x38
 566 01e3 41000000 		.4byte	0x41
 567 01e7 30       		.byte	0x30
 568 01e8 0A       		.uleb128 0xa
 569 01e9 1A010000 		.4byte	.LASF40
 570 01ed 05       		.byte	0x5
 571 01ee 39       		.byte	0x39
 572 01ef F5010000 		.4byte	0x1f5
 573 01f3 34       		.byte	0x34
 574 01f4 00       		.byte	0
 575 01f5 0B       		.uleb128 0xb
 576 01f6 41000000 		.4byte	0x41
 577 01fa 05020000 		.4byte	0x205
 578 01fe 0C       		.uleb128 0xc
 579 01ff A4000000 		.4byte	0xa4
 580 0203 01       		.byte	0x1
 581 0204 00       		.byte	0
 582 0205 04       		.uleb128 0x4
 583 0206 4B010000 		.4byte	.LASF41
 584 020a 06       		.byte	0x6
 585 020b 57       		.byte	0x57
 586 020c 10020000 		.4byte	0x210
 587 0210 09       		.uleb128 0x9
 588 0211 D3020000 		.4byte	.LASF43
 589 0215 10       		.byte	0x10
 590 0216 06       		.byte	0x6
 591 0217 5D       		.byte	0x5d
 592 0218 4D020000 		.4byte	0x24d
 593 021c 0A       		.uleb128 0xa
 594 021d 8C030000 		.4byte	.LASF44
 595 0221 06       		.byte	0x6
 596 0222 5E       		.byte	0x5e
 597 0223 4D020000 		.4byte	0x24d
 598 0227 00       		.byte	0
 599 0228 0A       		.uleb128 0xa
 600 0229 16000000 		.4byte	.LASF45
 601 022d 06       		.byte	0x6
 602 022e 5F       		.byte	0x5f
 603 022f B2000000 		.4byte	0xb2
 604 0233 04       		.byte	0x4
 605 0234 0A       		.uleb128 0xa
 606 0235 6C030000 		.4byte	.LASF46
 607 0239 06       		.byte	0x6
 608 023a 60       		.byte	0x60
 609 023b 64000000 		.4byte	0x64
 610 023f 08       		.byte	0x8
 611 0240 0A       		.uleb128 0xa
 612 0241 93010000 		.4byte	.LASF47
 613 0245 06       		.byte	0x6
 614 0246 61       		.byte	0x61
 615 0247 B2000000 		.4byte	0xb2
 616 024b 0C       		.byte	0xc
ARM GAS  C:\Users\jo\AppData\Local\Temp\ccIJWdhY.s 			page 12


 617 024c 00       		.byte	0
 618 024d 06       		.uleb128 0x6
 619 024e 04       		.byte	0x4
 620 024f 05020000 		.4byte	0x205
 621 0253 04       		.uleb128 0x4
 622 0254 3C010000 		.4byte	.LASF48
 623 0258 06       		.byte	0x6
 624 0259 67       		.byte	0x67
 625 025a 5E020000 		.4byte	0x25e
 626 025e 09       		.uleb128 0x9
 627 025f BA000000 		.4byte	.LASF49
 628 0263 08       		.byte	0x8
 629 0264 06       		.byte	0x6
 630 0265 6D       		.byte	0x6d
 631 0266 83020000 		.4byte	0x283
 632 026a 0A       		.uleb128 0xa
 633 026b 31010000 		.4byte	.LASF50
 634 026f 06       		.byte	0x6
 635 0270 6E       		.byte	0x6e
 636 0271 4D020000 		.4byte	0x24d
 637 0275 00       		.byte	0
 638 0276 0A       		.uleb128 0xa
 639 0277 99020000 		.4byte	.LASF51
 640 027b 06       		.byte	0x6
 641 027c 6F       		.byte	0x6f
 642 027d 64000000 		.4byte	0x64
 643 0281 04       		.byte	0x4
 644 0282 00       		.byte	0
 645 0283 0D       		.uleb128 0xd
 646 0284 CC000000 		.4byte	.LASF56
 647 0288 01       		.byte	0x1
 648 0289 4D       		.byte	0x4d
 649 028a 5D000000 		.4byte	0x5d
 650 028e 00000000 		.4byte	.LFB0
 651 0292 84000000 		.4byte	.LFE0-.LFB0
 652 0296 01       		.uleb128 0x1
 653 0297 9C       		.byte	0x9c
 654 0298 45030000 		.4byte	0x345
 655 029c 0E       		.uleb128 0xe
 656 029d 70010000 		.4byte	.LASF52
 657 02a1 01       		.byte	0x1
 658 02a2 4D       		.byte	0x4d
 659 02a3 B2000000 		.4byte	0xb2
 660 02a7 00000000 		.4byte	.LLST0
 661 02ab 0E       		.uleb128 0xe
 662 02ac 67030000 		.4byte	.LASF53
 663 02b0 01       		.byte	0x1
 664 02b1 4D       		.byte	0x4d
 665 02b2 5D000000 		.4byte	0x5d
 666 02b6 65000000 		.4byte	.LLST1
 667 02ba 0F       		.uleb128 0xf
 668 02bb 72657300 		.ascii	"res\000"
 669 02bf 01       		.byte	0x1
 670 02c0 4F       		.byte	0x4f
 671 02c1 5D000000 		.4byte	0x5d
 672 02c5 9F000000 		.4byte	.LLST2
 673 02c9 10       		.uleb128 0x10
ARM GAS  C:\Users\jo\AppData\Local\Temp\ccIJWdhY.s 			page 13


 674 02ca FB020000 		.4byte	.LASF54
 675 02ce 01       		.byte	0x1
 676 02cf 50       		.byte	0x50
 677 02d0 4D020000 		.4byte	0x24d
 678 02d4 D7000000 		.4byte	.LLST3
 679 02d8 10       		.uleb128 0x10
 680 02d9 00030000 		.4byte	.LASF55
 681 02dd 01       		.byte	0x1
 682 02de 51       		.byte	0x51
 683 02df 45030000 		.4byte	0x345
 684 02e3 EA000000 		.4byte	.LLST4
 685 02e7 11       		.uleb128 0x11
 686 02e8 12000000 		.4byte	.LVL2
 687 02ec F8040000 		.4byte	0x4f8
 688 02f0 04030000 		.4byte	0x304
 689 02f4 12       		.uleb128 0x12
 690 02f5 01       		.uleb128 0x1
 691 02f6 51       		.byte	0x51
 692 02f7 05       		.uleb128 0x5
 693 02f8 03       		.byte	0x3
 694 02f9 00000000 		.4byte	.LC0
 695 02fd 12       		.uleb128 0x12
 696 02fe 01       		.uleb128 0x1
 697 02ff 50       		.byte	0x50
 698 0300 02       		.uleb128 0x2
 699 0301 74       		.byte	0x74
 700 0302 00       		.sleb128 0
 701 0303 00       		.byte	0
 702 0304 11       		.uleb128 0x11
 703 0305 52000000 		.4byte	.LVL11
 704 0309 F8040000 		.4byte	0x4f8
 705 030d 18030000 		.4byte	0x318
 706 0311 12       		.uleb128 0x12
 707 0312 01       		.uleb128 0x1
 708 0313 50       		.byte	0x50
 709 0314 02       		.uleb128 0x2
 710 0315 74       		.byte	0x74
 711 0316 00       		.sleb128 0
 712 0317 00       		.byte	0
 713 0318 11       		.uleb128 0x11
 714 0319 5E000000 		.4byte	.LVL12
 715 031d 12050000 		.4byte	0x512
 716 0321 30030000 		.4byte	0x330
 717 0325 12       		.uleb128 0x12
 718 0326 01       		.uleb128 0x1
 719 0327 51       		.byte	0x51
 720 0328 01       		.uleb128 0x1
 721 0329 38       		.byte	0x38
 722 032a 12       		.uleb128 0x12
 723 032b 01       		.uleb128 0x1
 724 032c 50       		.byte	0x50
 725 032d 01       		.uleb128 0x1
 726 032e 31       		.byte	0x31
 727 032f 00       		.byte	0
 728 0330 13       		.uleb128 0x13
 729 0331 6E000000 		.4byte	.LVL15
 730 0335 12050000 		.4byte	0x512
ARM GAS  C:\Users\jo\AppData\Local\Temp\ccIJWdhY.s 			page 14


 731 0339 12       		.uleb128 0x12
 732 033a 01       		.uleb128 0x1
 733 033b 51       		.byte	0x51
 734 033c 01       		.uleb128 0x1
 735 033d 38       		.byte	0x38
 736 033e 12       		.uleb128 0x12
 737 033f 01       		.uleb128 0x1
 738 0340 50       		.byte	0x50
 739 0341 01       		.uleb128 0x1
 740 0342 31       		.byte	0x31
 741 0343 00       		.byte	0
 742 0344 00       		.byte	0
 743 0345 06       		.uleb128 0x6
 744 0346 04       		.byte	0x4
 745 0347 53020000 		.4byte	0x253
 746 034b 0D       		.uleb128 0xd
 747 034c 44010000 		.4byte	.LASF57
 748 0350 01       		.byte	0x1
 749 0351 88       		.byte	0x88
 750 0352 5D000000 		.4byte	0x5d
 751 0356 00000000 		.4byte	.LFB1
 752 035a 10000000 		.4byte	.LFE1-.LFB1
 753 035e 01       		.uleb128 0x1
 754 035f 9C       		.byte	0x9c
 755 0360 93030000 		.4byte	0x393
 756 0364 14       		.uleb128 0x14
 757 0365 666400   		.ascii	"fd\000"
 758 0368 01       		.byte	0x1
 759 0369 88       		.byte	0x88
 760 036a 5D000000 		.4byte	0x5d
 761 036e 20010000 		.4byte	.LLST5
 762 0372 10       		.uleb128 0x10
 763 0373 00030000 		.4byte	.LASF55
 764 0377 01       		.byte	0x1
 765 0378 8A       		.byte	0x8a
 766 0379 45030000 		.4byte	0x345
 767 037d 20010000 		.4byte	.LLST5
 768 0381 13       		.uleb128 0x13
 769 0382 08000000 		.4byte	.LVL18
 770 0386 2C050000 		.4byte	0x52c
 771 038a 12       		.uleb128 0x12
 772 038b 01       		.uleb128 0x1
 773 038c 50       		.byte	0x50
 774 038d 03       		.uleb128 0x3
 775 038e F3       		.byte	0xf3
 776 038f 01       		.uleb128 0x1
 777 0390 50       		.byte	0x50
 778 0391 00       		.byte	0
 779 0392 00       		.byte	0
 780 0393 0D       		.uleb128 0xd
 781 0394 B6020000 		.4byte	.LASF58
 782 0398 01       		.byte	0x1
 783 0399 95       		.byte	0x95
 784 039a 5D000000 		.4byte	0x5d
 785 039e 00000000 		.4byte	.LFB2
 786 03a2 2A000000 		.4byte	.LFE2-.LFB2
 787 03a6 01       		.uleb128 0x1
ARM GAS  C:\Users\jo\AppData\Local\Temp\ccIJWdhY.s 			page 15


 788 03a7 9C       		.byte	0x9c
 789 03a8 0C040000 		.4byte	0x40c
 790 03ac 14       		.uleb128 0x14
 791 03ad 666400   		.ascii	"fd\000"
 792 03b0 01       		.byte	0x1
 793 03b1 95       		.byte	0x95
 794 03b2 5D000000 		.4byte	0x5d
 795 03b6 5A010000 		.4byte	.LLST7
 796 03ba 0E       		.uleb128 0xe
 797 03bb 76030000 		.4byte	.LASF59
 798 03bf 01       		.byte	0x1
 799 03c0 95       		.byte	0x95
 800 03c1 76000000 		.4byte	0x76
 801 03c5 86010000 		.4byte	.LLST8
 802 03c9 0E       		.uleb128 0xe
 803 03ca 7B010000 		.4byte	.LASF60
 804 03ce 01       		.byte	0x1
 805 03cf 95       		.byte	0x95
 806 03d0 6B000000 		.4byte	0x6b
 807 03d4 B2010000 		.4byte	.LLST9
 808 03d8 10       		.uleb128 0x10
 809 03d9 00030000 		.4byte	.LASF55
 810 03dd 01       		.byte	0x1
 811 03de 97       		.byte	0x97
 812 03df 45030000 		.4byte	0x345
 813 03e3 5A010000 		.4byte	.LLST7
 814 03e7 15       		.uleb128 0x15
 815 03e8 FB020000 		.4byte	.LASF54
 816 03ec 01       		.byte	0x1
 817 03ed 98       		.byte	0x98
 818 03ee 4D020000 		.4byte	0x24d
 819 03f2 01       		.uleb128 0x1
 820 03f3 56       		.byte	0x56
 821 03f4 13       		.uleb128 0x13
 822 03f5 20000000 		.4byte	.LVL26
 823 03f9 3D050000 		.4byte	0x53d
 824 03fd 12       		.uleb128 0x12
 825 03fe 01       		.uleb128 0x1
 826 03ff 52       		.byte	0x52
 827 0400 02       		.uleb128 0x2
 828 0401 74       		.byte	0x74
 829 0402 00       		.sleb128 0
 830 0403 12       		.uleb128 0x12
 831 0404 01       		.uleb128 0x1
 832 0405 50       		.byte	0x50
 833 0406 03       		.uleb128 0x3
 834 0407 F3       		.byte	0xf3
 835 0408 01       		.uleb128 0x1
 836 0409 51       		.byte	0x51
 837 040a 00       		.byte	0
 838 040b 00       		.byte	0
 839 040c 0D       		.uleb128 0xd
 840 040d 13030000 		.4byte	.LASF61
 841 0411 01       		.byte	0x1
 842 0412 AB       		.byte	0xab
 843 0413 5D000000 		.4byte	0x5d
 844 0417 00000000 		.4byte	.LFB3
ARM GAS  C:\Users\jo\AppData\Local\Temp\ccIJWdhY.s 			page 16


 845 041b 06000000 		.4byte	.LFE3-.LFB3
 846 041f 01       		.uleb128 0x1
 847 0420 9C       		.byte	0x9c
 848 0421 4E040000 		.4byte	0x44e
 849 0425 14       		.uleb128 0x14
 850 0426 666400   		.ascii	"fd\000"
 851 0429 01       		.byte	0x1
 852 042a AB       		.byte	0xab
 853 042b 5D000000 		.4byte	0x5d
 854 042f D0010000 		.4byte	.LLST11
 855 0433 16       		.uleb128 0x16
 856 0434 85030000 		.4byte	.LASF62
 857 0438 01       		.byte	0x1
 858 0439 AB       		.byte	0xab
 859 043a 41000000 		.4byte	0x41
 860 043e 01       		.uleb128 0x1
 861 043f 51       		.byte	0x51
 862 0440 16       		.uleb128 0x16
 863 0441 05030000 		.4byte	.LASF63
 864 0445 01       		.byte	0x1
 865 0446 AB       		.byte	0xab
 866 0447 5D000000 		.4byte	0x5d
 867 044b 01       		.uleb128 0x1
 868 044c 52       		.byte	0x52
 869 044d 00       		.byte	0
 870 044e 0D       		.uleb128 0xd
 871 044f BE030000 		.4byte	.LASF64
 872 0453 01       		.byte	0x1
 873 0454 B5       		.byte	0xb5
 874 0455 41000000 		.4byte	0x41
 875 0459 00000000 		.4byte	.LFB4
 876 045d 06000000 		.4byte	.LFE4-.LFB4
 877 0461 01       		.uleb128 0x1
 878 0462 9C       		.byte	0x9c
 879 0463 A3040000 		.4byte	0x4a3
 880 0467 14       		.uleb128 0x14
 881 0468 666400   		.ascii	"fd\000"
 882 046b 01       		.byte	0x1
 883 046c B5       		.byte	0xb5
 884 046d 5D000000 		.4byte	0x5d
 885 0471 F1010000 		.4byte	.LLST12
 886 0475 10       		.uleb128 0x10
 887 0476 7B010000 		.4byte	.LASF60
 888 047a 01       		.byte	0x1
 889 047b B7       		.byte	0xb7
 890 047c 41000000 		.4byte	0x41
 891 0480 12020000 		.4byte	.LLST13
 892 0484 10       		.uleb128 0x10
 893 0485 00030000 		.4byte	.LASF55
 894 0489 01       		.byte	0x1
 895 048a B8       		.byte	0xb8
 896 048b 45030000 		.4byte	0x345
 897 048f F1010000 		.4byte	.LLST12
 898 0493 10       		.uleb128 0x10
 899 0494 FB020000 		.4byte	.LASF54
 900 0498 01       		.byte	0x1
 901 0499 B9       		.byte	0xb9
ARM GAS  C:\Users\jo\AppData\Local\Temp\ccIJWdhY.s 			page 17


 902 049a 4D020000 		.4byte	0x24d
 903 049e 34020000 		.4byte	.LLST15
 904 04a2 00       		.byte	0
 905 04a3 0D       		.uleb128 0xd
 906 04a4 AB030000 		.4byte	.LASF65
 907 04a8 05       		.byte	0x5
 908 04a9 94       		.byte	0x94
 909 04aa 5D000000 		.4byte	0x5d
 910 04ae 00000000 		.4byte	.LFB5
 911 04b2 06000000 		.4byte	.LFE5-.LFB5
 912 04b6 01       		.uleb128 0x1
 913 04b7 9C       		.byte	0x9c
 914 04b8 D6040000 		.4byte	0x4d6
 915 04bc 14       		.uleb128 0x14
 916 04bd 666800   		.ascii	"fh\000"
 917 04c0 01       		.byte	0x1
 918 04c1 C4       		.byte	0xc4
 919 04c2 5D000000 		.4byte	0x5d
 920 04c6 53020000 		.4byte	.LLST16
 921 04ca 17       		.uleb128 0x17
 922 04cb 7300     		.ascii	"s\000"
 923 04cd 01       		.byte	0x1
 924 04ce C4       		.byte	0xc4
 925 04cf D6040000 		.4byte	0x4d6
 926 04d3 01       		.uleb128 0x1
 927 04d4 51       		.byte	0x51
 928 04d5 00       		.byte	0
 929 04d6 06       		.uleb128 0x6
 930 04d7 04       		.byte	0x4
 931 04d8 1C010000 		.4byte	0x11c
 932 04dc 15       		.uleb128 0x15
 933 04dd 66010000 		.4byte	.LASF66
 934 04e1 01       		.byte	0x1
 935 04e2 3D       		.byte	0x3d
 936 04e3 05020000 		.4byte	0x205
 937 04e7 05       		.uleb128 0x5
 938 04e8 03       		.byte	0x3
 939 04e9 00000000 		.4byte	Testimage
 940 04ed 18       		.uleb128 0x18
 941 04ee B1030000 		.4byte	.LASF72
 942 04f2 06       		.byte	0x6
 943 04f3 75       		.byte	0x75
 944 04f4 4D020000 		.4byte	0x24d
 945 04f8 19       		.uleb128 0x19
 946 04f9 08000000 		.4byte	.LASF67
 947 04fd 07       		.byte	0x7
 948 04fe 1C       		.byte	0x1c
 949 04ff 5D000000 		.4byte	0x5d
 950 0503 12050000 		.4byte	0x512
 951 0507 1A       		.uleb128 0x1a
 952 0508 B2000000 		.4byte	0xb2
 953 050c 1A       		.uleb128 0x1a
 954 050d B2000000 		.4byte	0xb2
 955 0511 00       		.byte	0
 956 0512 19       		.uleb128 0x19
 957 0513 0C030000 		.4byte	.LASF68
 958 0517 08       		.byte	0x8
ARM GAS  C:\Users\jo\AppData\Local\Temp\ccIJWdhY.s 			page 18


 959 0518 52       		.byte	0x52
 960 0519 76000000 		.4byte	0x76
 961 051d 2C050000 		.4byte	0x52c
 962 0521 1A       		.uleb128 0x1a
 963 0522 6B000000 		.4byte	0x6b
 964 0526 1A       		.uleb128 0x1a
 965 0527 6B000000 		.4byte	0x6b
 966 052b 00       		.byte	0
 967 052c 1B       		.uleb128 0x1b
 968 052d 41000000 		.4byte	.LASF73
 969 0531 08       		.byte	0x8
 970 0532 55       		.byte	0x55
 971 0533 3D050000 		.4byte	0x53d
 972 0537 1A       		.uleb128 0x1a
 973 0538 76000000 		.4byte	0x76
 974 053c 00       		.byte	0
 975 053d 1C       		.uleb128 0x1c
 976 053e D2000000 		.4byte	.LASF74
 977 0542 76000000 		.4byte	0x76
 978 0546 1A       		.uleb128 0x1a
 979 0547 76000000 		.4byte	0x76
 980 054b 1A       		.uleb128 0x1a
 981 054c 15010000 		.4byte	0x115
 982 0550 1A       		.uleb128 0x1a
 983 0551 A4000000 		.4byte	0xa4
 984 0555 00       		.byte	0
 985 0556 00       		.byte	0
 986              		.section	.debug_abbrev,"",%progbits
 987              	.Ldebug_abbrev0:
 988 0000 01       		.uleb128 0x1
 989 0001 11       		.uleb128 0x11
 990 0002 01       		.byte	0x1
 991 0003 25       		.uleb128 0x25
 992 0004 0E       		.uleb128 0xe
 993 0005 13       		.uleb128 0x13
 994 0006 0B       		.uleb128 0xb
 995 0007 03       		.uleb128 0x3
 996 0008 0E       		.uleb128 0xe
 997 0009 1B       		.uleb128 0x1b
 998 000a 0E       		.uleb128 0xe
 999 000b 55       		.uleb128 0x55
 1000 000c 17       		.uleb128 0x17
 1001 000d 11       		.uleb128 0x11
 1002 000e 01       		.uleb128 0x1
 1003 000f 10       		.uleb128 0x10
 1004 0010 17       		.uleb128 0x17
 1005 0011 00       		.byte	0
 1006 0012 00       		.byte	0
 1007 0013 02       		.uleb128 0x2
 1008 0014 24       		.uleb128 0x24
 1009 0015 00       		.byte	0
 1010 0016 0B       		.uleb128 0xb
 1011 0017 0B       		.uleb128 0xb
 1012 0018 3E       		.uleb128 0x3e
 1013 0019 0B       		.uleb128 0xb
 1014 001a 03       		.uleb128 0x3
 1015 001b 0E       		.uleb128 0xe
ARM GAS  C:\Users\jo\AppData\Local\Temp\ccIJWdhY.s 			page 19


 1016 001c 00       		.byte	0
 1017 001d 00       		.byte	0
 1018 001e 03       		.uleb128 0x3
 1019 001f 24       		.uleb128 0x24
 1020 0020 00       		.byte	0
 1021 0021 0B       		.uleb128 0xb
 1022 0022 0B       		.uleb128 0xb
 1023 0023 3E       		.uleb128 0x3e
 1024 0024 0B       		.uleb128 0xb
 1025 0025 03       		.uleb128 0x3
 1026 0026 08       		.uleb128 0x8
 1027 0027 00       		.byte	0
 1028 0028 00       		.byte	0
 1029 0029 04       		.uleb128 0x4
 1030 002a 16       		.uleb128 0x16
 1031 002b 00       		.byte	0
 1032 002c 03       		.uleb128 0x3
 1033 002d 0E       		.uleb128 0xe
 1034 002e 3A       		.uleb128 0x3a
 1035 002f 0B       		.uleb128 0xb
 1036 0030 3B       		.uleb128 0x3b
 1037 0031 0B       		.uleb128 0xb
 1038 0032 49       		.uleb128 0x49
 1039 0033 13       		.uleb128 0x13
 1040 0034 00       		.byte	0
 1041 0035 00       		.byte	0
 1042 0036 05       		.uleb128 0x5
 1043 0037 0F       		.uleb128 0xf
 1044 0038 00       		.byte	0
 1045 0039 0B       		.uleb128 0xb
 1046 003a 0B       		.uleb128 0xb
 1047 003b 00       		.byte	0
 1048 003c 00       		.byte	0
 1049 003d 06       		.uleb128 0x6
 1050 003e 0F       		.uleb128 0xf
 1051 003f 00       		.byte	0
 1052 0040 0B       		.uleb128 0xb
 1053 0041 0B       		.uleb128 0xb
 1054 0042 49       		.uleb128 0x49
 1055 0043 13       		.uleb128 0x13
 1056 0044 00       		.byte	0
 1057 0045 00       		.byte	0
 1058 0046 07       		.uleb128 0x7
 1059 0047 26       		.uleb128 0x26
 1060 0048 00       		.byte	0
 1061 0049 49       		.uleb128 0x49
 1062 004a 13       		.uleb128 0x13
 1063 004b 00       		.byte	0
 1064 004c 00       		.byte	0
 1065 004d 08       		.uleb128 0x8
 1066 004e 26       		.uleb128 0x26
 1067 004f 00       		.byte	0
 1068 0050 00       		.byte	0
 1069 0051 00       		.byte	0
 1070 0052 09       		.uleb128 0x9
 1071 0053 13       		.uleb128 0x13
 1072 0054 01       		.byte	0x1
ARM GAS  C:\Users\jo\AppData\Local\Temp\ccIJWdhY.s 			page 20


 1073 0055 03       		.uleb128 0x3
 1074 0056 0E       		.uleb128 0xe
 1075 0057 0B       		.uleb128 0xb
 1076 0058 0B       		.uleb128 0xb
 1077 0059 3A       		.uleb128 0x3a
 1078 005a 0B       		.uleb128 0xb
 1079 005b 3B       		.uleb128 0x3b
 1080 005c 0B       		.uleb128 0xb
 1081 005d 01       		.uleb128 0x1
 1082 005e 13       		.uleb128 0x13
 1083 005f 00       		.byte	0
 1084 0060 00       		.byte	0
 1085 0061 0A       		.uleb128 0xa
 1086 0062 0D       		.uleb128 0xd
 1087 0063 00       		.byte	0
 1088 0064 03       		.uleb128 0x3
 1089 0065 0E       		.uleb128 0xe
 1090 0066 3A       		.uleb128 0x3a
 1091 0067 0B       		.uleb128 0xb
 1092 0068 3B       		.uleb128 0x3b
 1093 0069 0B       		.uleb128 0xb
 1094 006a 49       		.uleb128 0x49
 1095 006b 13       		.uleb128 0x13
 1096 006c 38       		.uleb128 0x38
 1097 006d 0B       		.uleb128 0xb
 1098 006e 00       		.byte	0
 1099 006f 00       		.byte	0
 1100 0070 0B       		.uleb128 0xb
 1101 0071 01       		.uleb128 0x1
 1102 0072 01       		.byte	0x1
 1103 0073 49       		.uleb128 0x49
 1104 0074 13       		.uleb128 0x13
 1105 0075 01       		.uleb128 0x1
 1106 0076 13       		.uleb128 0x13
 1107 0077 00       		.byte	0
 1108 0078 00       		.byte	0
 1109 0079 0C       		.uleb128 0xc
 1110 007a 21       		.uleb128 0x21
 1111 007b 00       		.byte	0
 1112 007c 49       		.uleb128 0x49
 1113 007d 13       		.uleb128 0x13
 1114 007e 2F       		.uleb128 0x2f
 1115 007f 0B       		.uleb128 0xb
 1116 0080 00       		.byte	0
 1117 0081 00       		.byte	0
 1118 0082 0D       		.uleb128 0xd
 1119 0083 2E       		.uleb128 0x2e
 1120 0084 01       		.byte	0x1
 1121 0085 3F       		.uleb128 0x3f
 1122 0086 19       		.uleb128 0x19
 1123 0087 03       		.uleb128 0x3
 1124 0088 0E       		.uleb128 0xe
 1125 0089 3A       		.uleb128 0x3a
 1126 008a 0B       		.uleb128 0xb
 1127 008b 3B       		.uleb128 0x3b
 1128 008c 0B       		.uleb128 0xb
 1129 008d 27       		.uleb128 0x27
ARM GAS  C:\Users\jo\AppData\Local\Temp\ccIJWdhY.s 			page 21


 1130 008e 19       		.uleb128 0x19
 1131 008f 49       		.uleb128 0x49
 1132 0090 13       		.uleb128 0x13
 1133 0091 11       		.uleb128 0x11
 1134 0092 01       		.uleb128 0x1
 1135 0093 12       		.uleb128 0x12
 1136 0094 06       		.uleb128 0x6
 1137 0095 40       		.uleb128 0x40
 1138 0096 18       		.uleb128 0x18
 1139 0097 9742     		.uleb128 0x2117
 1140 0099 19       		.uleb128 0x19
 1141 009a 01       		.uleb128 0x1
 1142 009b 13       		.uleb128 0x13
 1143 009c 00       		.byte	0
 1144 009d 00       		.byte	0
 1145 009e 0E       		.uleb128 0xe
 1146 009f 05       		.uleb128 0x5
 1147 00a0 00       		.byte	0
 1148 00a1 03       		.uleb128 0x3
 1149 00a2 0E       		.uleb128 0xe
 1150 00a3 3A       		.uleb128 0x3a
 1151 00a4 0B       		.uleb128 0xb
 1152 00a5 3B       		.uleb128 0x3b
 1153 00a6 0B       		.uleb128 0xb
 1154 00a7 49       		.uleb128 0x49
 1155 00a8 13       		.uleb128 0x13
 1156 00a9 02       		.uleb128 0x2
 1157 00aa 17       		.uleb128 0x17
 1158 00ab 00       		.byte	0
 1159 00ac 00       		.byte	0
 1160 00ad 0F       		.uleb128 0xf
 1161 00ae 34       		.uleb128 0x34
 1162 00af 00       		.byte	0
 1163 00b0 03       		.uleb128 0x3
 1164 00b1 08       		.uleb128 0x8
 1165 00b2 3A       		.uleb128 0x3a
 1166 00b3 0B       		.uleb128 0xb
 1167 00b4 3B       		.uleb128 0x3b
 1168 00b5 0B       		.uleb128 0xb
 1169 00b6 49       		.uleb128 0x49
 1170 00b7 13       		.uleb128 0x13
 1171 00b8 02       		.uleb128 0x2
 1172 00b9 17       		.uleb128 0x17
 1173 00ba 00       		.byte	0
 1174 00bb 00       		.byte	0
 1175 00bc 10       		.uleb128 0x10
 1176 00bd 34       		.uleb128 0x34
 1177 00be 00       		.byte	0
 1178 00bf 03       		.uleb128 0x3
 1179 00c0 0E       		.uleb128 0xe
 1180 00c1 3A       		.uleb128 0x3a
 1181 00c2 0B       		.uleb128 0xb
 1182 00c3 3B       		.uleb128 0x3b
 1183 00c4 0B       		.uleb128 0xb
 1184 00c5 49       		.uleb128 0x49
 1185 00c6 13       		.uleb128 0x13
 1186 00c7 02       		.uleb128 0x2
ARM GAS  C:\Users\jo\AppData\Local\Temp\ccIJWdhY.s 			page 22


 1187 00c8 17       		.uleb128 0x17
 1188 00c9 00       		.byte	0
 1189 00ca 00       		.byte	0
 1190 00cb 11       		.uleb128 0x11
 1191 00cc 898201   		.uleb128 0x4109
 1192 00cf 01       		.byte	0x1
 1193 00d0 11       		.uleb128 0x11
 1194 00d1 01       		.uleb128 0x1
 1195 00d2 31       		.uleb128 0x31
 1196 00d3 13       		.uleb128 0x13
 1197 00d4 01       		.uleb128 0x1
 1198 00d5 13       		.uleb128 0x13
 1199 00d6 00       		.byte	0
 1200 00d7 00       		.byte	0
 1201 00d8 12       		.uleb128 0x12
 1202 00d9 8A8201   		.uleb128 0x410a
 1203 00dc 00       		.byte	0
 1204 00dd 02       		.uleb128 0x2
 1205 00de 18       		.uleb128 0x18
 1206 00df 9142     		.uleb128 0x2111
 1207 00e1 18       		.uleb128 0x18
 1208 00e2 00       		.byte	0
 1209 00e3 00       		.byte	0
 1210 00e4 13       		.uleb128 0x13
 1211 00e5 898201   		.uleb128 0x4109
 1212 00e8 01       		.byte	0x1
 1213 00e9 11       		.uleb128 0x11
 1214 00ea 01       		.uleb128 0x1
 1215 00eb 31       		.uleb128 0x31
 1216 00ec 13       		.uleb128 0x13
 1217 00ed 00       		.byte	0
 1218 00ee 00       		.byte	0
 1219 00ef 14       		.uleb128 0x14
 1220 00f0 05       		.uleb128 0x5
 1221 00f1 00       		.byte	0
 1222 00f2 03       		.uleb128 0x3
 1223 00f3 08       		.uleb128 0x8
 1224 00f4 3A       		.uleb128 0x3a
 1225 00f5 0B       		.uleb128 0xb
 1226 00f6 3B       		.uleb128 0x3b
 1227 00f7 0B       		.uleb128 0xb
 1228 00f8 49       		.uleb128 0x49
 1229 00f9 13       		.uleb128 0x13
 1230 00fa 02       		.uleb128 0x2
 1231 00fb 17       		.uleb128 0x17
 1232 00fc 00       		.byte	0
 1233 00fd 00       		.byte	0
 1234 00fe 15       		.uleb128 0x15
 1235 00ff 34       		.uleb128 0x34
 1236 0100 00       		.byte	0
 1237 0101 03       		.uleb128 0x3
 1238 0102 0E       		.uleb128 0xe
 1239 0103 3A       		.uleb128 0x3a
 1240 0104 0B       		.uleb128 0xb
 1241 0105 3B       		.uleb128 0x3b
 1242 0106 0B       		.uleb128 0xb
 1243 0107 49       		.uleb128 0x49
ARM GAS  C:\Users\jo\AppData\Local\Temp\ccIJWdhY.s 			page 23


 1244 0108 13       		.uleb128 0x13
 1245 0109 02       		.uleb128 0x2
 1246 010a 18       		.uleb128 0x18
 1247 010b 00       		.byte	0
 1248 010c 00       		.byte	0
 1249 010d 16       		.uleb128 0x16
 1250 010e 05       		.uleb128 0x5
 1251 010f 00       		.byte	0
 1252 0110 03       		.uleb128 0x3
 1253 0111 0E       		.uleb128 0xe
 1254 0112 3A       		.uleb128 0x3a
 1255 0113 0B       		.uleb128 0xb
 1256 0114 3B       		.uleb128 0x3b
 1257 0115 0B       		.uleb128 0xb
 1258 0116 49       		.uleb128 0x49
 1259 0117 13       		.uleb128 0x13
 1260 0118 02       		.uleb128 0x2
 1261 0119 18       		.uleb128 0x18
 1262 011a 00       		.byte	0
 1263 011b 00       		.byte	0
 1264 011c 17       		.uleb128 0x17
 1265 011d 05       		.uleb128 0x5
 1266 011e 00       		.byte	0
 1267 011f 03       		.uleb128 0x3
 1268 0120 08       		.uleb128 0x8
 1269 0121 3A       		.uleb128 0x3a
 1270 0122 0B       		.uleb128 0xb
 1271 0123 3B       		.uleb128 0x3b
 1272 0124 0B       		.uleb128 0xb
 1273 0125 49       		.uleb128 0x49
 1274 0126 13       		.uleb128 0x13
 1275 0127 02       		.uleb128 0x2
 1276 0128 18       		.uleb128 0x18
 1277 0129 00       		.byte	0
 1278 012a 00       		.byte	0
 1279 012b 18       		.uleb128 0x18
 1280 012c 34       		.uleb128 0x34
 1281 012d 00       		.byte	0
 1282 012e 03       		.uleb128 0x3
 1283 012f 0E       		.uleb128 0xe
 1284 0130 3A       		.uleb128 0x3a
 1285 0131 0B       		.uleb128 0xb
 1286 0132 3B       		.uleb128 0x3b
 1287 0133 0B       		.uleb128 0xb
 1288 0134 49       		.uleb128 0x49
 1289 0135 13       		.uleb128 0x13
 1290 0136 3F       		.uleb128 0x3f
 1291 0137 19       		.uleb128 0x19
 1292 0138 3C       		.uleb128 0x3c
 1293 0139 19       		.uleb128 0x19
 1294 013a 00       		.byte	0
 1295 013b 00       		.byte	0
 1296 013c 19       		.uleb128 0x19
 1297 013d 2E       		.uleb128 0x2e
 1298 013e 01       		.byte	0x1
 1299 013f 3F       		.uleb128 0x3f
 1300 0140 19       		.uleb128 0x19
ARM GAS  C:\Users\jo\AppData\Local\Temp\ccIJWdhY.s 			page 24


 1301 0141 03       		.uleb128 0x3
 1302 0142 0E       		.uleb128 0xe
 1303 0143 3A       		.uleb128 0x3a
 1304 0144 0B       		.uleb128 0xb
 1305 0145 3B       		.uleb128 0x3b
 1306 0146 0B       		.uleb128 0xb
 1307 0147 27       		.uleb128 0x27
 1308 0148 19       		.uleb128 0x19
 1309 0149 49       		.uleb128 0x49
 1310 014a 13       		.uleb128 0x13
 1311 014b 3C       		.uleb128 0x3c
 1312 014c 19       		.uleb128 0x19
 1313 014d 01       		.uleb128 0x1
 1314 014e 13       		.uleb128 0x13
 1315 014f 00       		.byte	0
 1316 0150 00       		.byte	0
 1317 0151 1A       		.uleb128 0x1a
 1318 0152 05       		.uleb128 0x5
 1319 0153 00       		.byte	0
 1320 0154 49       		.uleb128 0x49
 1321 0155 13       		.uleb128 0x13
 1322 0156 00       		.byte	0
 1323 0157 00       		.byte	0
 1324 0158 1B       		.uleb128 0x1b
 1325 0159 2E       		.uleb128 0x2e
 1326 015a 01       		.byte	0x1
 1327 015b 3F       		.uleb128 0x3f
 1328 015c 19       		.uleb128 0x19
 1329 015d 03       		.uleb128 0x3
 1330 015e 0E       		.uleb128 0xe
 1331 015f 3A       		.uleb128 0x3a
 1332 0160 0B       		.uleb128 0xb
 1333 0161 3B       		.uleb128 0x3b
 1334 0162 0B       		.uleb128 0xb
 1335 0163 27       		.uleb128 0x27
 1336 0164 19       		.uleb128 0x19
 1337 0165 3C       		.uleb128 0x3c
 1338 0166 19       		.uleb128 0x19
 1339 0167 01       		.uleb128 0x1
 1340 0168 13       		.uleb128 0x13
 1341 0169 00       		.byte	0
 1342 016a 00       		.byte	0
 1343 016b 1C       		.uleb128 0x1c
 1344 016c 2E       		.uleb128 0x2e
 1345 016d 01       		.byte	0x1
 1346 016e 3F       		.uleb128 0x3f
 1347 016f 19       		.uleb128 0x19
 1348 0170 03       		.uleb128 0x3
 1349 0171 0E       		.uleb128 0xe
 1350 0172 27       		.uleb128 0x27
 1351 0173 19       		.uleb128 0x19
 1352 0174 49       		.uleb128 0x49
 1353 0175 13       		.uleb128 0x13
 1354 0176 34       		.uleb128 0x34
 1355 0177 19       		.uleb128 0x19
 1356 0178 3C       		.uleb128 0x3c
 1357 0179 19       		.uleb128 0x19
ARM GAS  C:\Users\jo\AppData\Local\Temp\ccIJWdhY.s 			page 25


 1358 017a 00       		.byte	0
 1359 017b 00       		.byte	0
 1360 017c 00       		.byte	0
 1361              		.section	.debug_loc,"",%progbits
 1362              	.Ldebug_loc0:
 1363              	.LLST0:
 1364 0000 00000000 		.4byte	.LVL0
 1365 0004 0A000000 		.4byte	.LVL1
 1366 0008 0100     		.2byte	0x1
 1367 000a 50       		.byte	0x50
 1368 000b 1A000000 		.4byte	.LVL3
 1369 000f 32000000 		.4byte	.LVL4
 1370 0013 0100     		.2byte	0x1
 1371 0015 50       		.byte	0x50
 1372 0016 32000000 		.4byte	.LVL4
 1373 001a 36000000 		.4byte	.LVL5
 1374 001e 0300     		.2byte	0x3
 1375 0020 70       		.byte	0x70
 1376 0021 05       		.sleb128 5
 1377 0022 9F       		.byte	0x9f
 1378 0023 36000000 		.4byte	.LVL5
 1379 0027 3E000000 		.4byte	.LVL6
 1380 002b 0300     		.2byte	0x3
 1381 002d 70       		.byte	0x70
 1382 002e 0A       		.sleb128 10
 1383 002f 9F       		.byte	0x9f
 1384 0030 3E000000 		.4byte	.LVL6
 1385 0034 40000000 		.4byte	.LVL7
 1386 0038 0300     		.2byte	0x3
 1387 003a 74       		.byte	0x74
 1388 003b 0B       		.sleb128 11
 1389 003c 9F       		.byte	0x9f
 1390 003d 42000000 		.4byte	.LVL8
 1391 0041 44000000 		.4byte	.LVL9
 1392 0045 1600     		.2byte	0x16
 1393 0047 70       		.byte	0x70
 1394 0048 05       		.sleb128 5
 1395 0049 70       		.byte	0x70
 1396 004a 00       		.sleb128 0
 1397 004b 70       		.byte	0x70
 1398 004c 05       		.sleb128 5
 1399 004d 94       		.byte	0x94
 1400 004e 01       		.byte	0x1
 1401 004f 08       		.byte	0x8
 1402 0050 FF       		.byte	0xff
 1403 0051 1A       		.byte	0x1a
 1404 0052 08       		.byte	0x8
 1405 0053 2F       		.byte	0x2f
 1406 0054 2E       		.byte	0x2e
 1407 0055 28       		.byte	0x28
 1408 0056 0100     		.2byte	0x1
 1409 0058 16       		.byte	0x16
 1410 0059 13       		.byte	0x13
 1411 005a 23       		.byte	0x23
 1412 005b 06       		.uleb128 0x6
 1413 005c 9F       		.byte	0x9f
 1414 005d 00000000 		.4byte	0
ARM GAS  C:\Users\jo\AppData\Local\Temp\ccIJWdhY.s 			page 26


 1415 0061 00000000 		.4byte	0
 1416              	.LLST1:
 1417 0065 00000000 		.4byte	.LVL0
 1418 0069 0A000000 		.4byte	.LVL1
 1419 006d 0100     		.2byte	0x1
 1420 006f 51       		.byte	0x51
 1421 0070 0A000000 		.4byte	.LVL1
 1422 0074 1A000000 		.4byte	.LVL3
 1423 0078 0400     		.2byte	0x4
 1424 007a F3       		.byte	0xf3
 1425 007b 01       		.uleb128 0x1
 1426 007c 51       		.byte	0x51
 1427 007d 9F       		.byte	0x9f
 1428 007e 1A000000 		.4byte	.LVL3
 1429 0082 44000000 		.4byte	.LVL9
 1430 0086 0100     		.2byte	0x1
 1431 0088 51       		.byte	0x51
 1432 0089 44000000 		.4byte	.LVL9
 1433 008d 84000000 		.4byte	.LFE0
 1434 0091 0400     		.2byte	0x4
 1435 0093 F3       		.byte	0xf3
 1436 0094 01       		.uleb128 0x1
 1437 0095 51       		.byte	0x51
 1438 0096 9F       		.byte	0x9f
 1439 0097 00000000 		.4byte	0
 1440 009b 00000000 		.4byte	0
 1441              	.LLST2:
 1442 009f 00000000 		.4byte	.LVL0
 1443 00a3 0A000000 		.4byte	.LVL1
 1444 00a7 0300     		.2byte	0x3
 1445 00a9 09       		.byte	0x9
 1446 00aa FF       		.byte	0xff
 1447 00ab 9F       		.byte	0x9f
 1448 00ac 1A000000 		.4byte	.LVL3
 1449 00b0 64000000 		.4byte	.LVL13
 1450 00b4 0300     		.2byte	0x3
 1451 00b6 09       		.byte	0x9
 1452 00b7 FF       		.byte	0xff
 1453 00b8 9F       		.byte	0x9f
 1454 00b9 64000000 		.4byte	.LVL13
 1455 00bd 66000000 		.4byte	.LVL14
 1456 00c1 0100     		.2byte	0x1
 1457 00c3 50       		.byte	0x50
 1458 00c4 76000000 		.4byte	.LVL16
 1459 00c8 84000000 		.4byte	.LFE0
 1460 00cc 0100     		.2byte	0x1
 1461 00ce 50       		.byte	0x50
 1462 00cf 00000000 		.4byte	0
 1463 00d3 00000000 		.4byte	0
 1464              	.LLST3:
 1465 00d7 40000000 		.4byte	.LVL7
 1466 00db 66000000 		.4byte	.LVL14
 1467 00df 0100     		.2byte	0x1
 1468 00e1 55       		.byte	0x55
 1469 00e2 00000000 		.4byte	0
 1470 00e6 00000000 		.4byte	0
 1471              	.LLST4:
ARM GAS  C:\Users\jo\AppData\Local\Temp\ccIJWdhY.s 			page 27


 1472 00ea 00000000 		.4byte	.LVL0
 1473 00ee 0A000000 		.4byte	.LVL1
 1474 00f2 0200     		.2byte	0x2
 1475 00f4 30       		.byte	0x30
 1476 00f5 9F       		.byte	0x9f
 1477 00f6 1A000000 		.4byte	.LVL3
 1478 00fa 5E000000 		.4byte	.LVL12
 1479 00fe 0200     		.2byte	0x2
 1480 0100 30       		.byte	0x30
 1481 0101 9F       		.byte	0x9f
 1482 0102 5E000000 		.4byte	.LVL12
 1483 0106 66000000 		.4byte	.LVL14
 1484 010a 0100     		.2byte	0x1
 1485 010c 50       		.byte	0x50
 1486 010d 6E000000 		.4byte	.LVL15
 1487 0111 84000000 		.4byte	.LFE0
 1488 0115 0100     		.2byte	0x1
 1489 0117 50       		.byte	0x50
 1490 0118 00000000 		.4byte	0
 1491 011c 00000000 		.4byte	0
 1492              	.LLST5:
 1493 0120 00000000 		.4byte	.LVL17
 1494 0124 07000000 		.4byte	.LVL18-1
 1495 0128 0100     		.2byte	0x1
 1496 012a 50       		.byte	0x50
 1497 012b 07000000 		.4byte	.LVL18-1
 1498 012f 0C000000 		.4byte	.LVL19
 1499 0133 0400     		.2byte	0x4
 1500 0135 F3       		.byte	0xf3
 1501 0136 01       		.uleb128 0x1
 1502 0137 50       		.byte	0x50
 1503 0138 9F       		.byte	0x9f
 1504 0139 0C000000 		.4byte	.LVL19
 1505 013d 0E000000 		.4byte	.LVL20
 1506 0141 0100     		.2byte	0x1
 1507 0143 50       		.byte	0x50
 1508 0144 0E000000 		.4byte	.LVL20
 1509 0148 10000000 		.4byte	.LFE1
 1510 014c 0400     		.2byte	0x4
 1511 014e F3       		.byte	0xf3
 1512 014f 01       		.uleb128 0x1
 1513 0150 50       		.byte	0x50
 1514 0151 9F       		.byte	0x9f
 1515 0152 00000000 		.4byte	0
 1516 0156 00000000 		.4byte	0
 1517              	.LLST7:
 1518 015a 00000000 		.4byte	.LVL21
 1519 015e 18000000 		.4byte	.LVL24
 1520 0162 0100     		.2byte	0x1
 1521 0164 50       		.byte	0x50
 1522 0165 18000000 		.4byte	.LVL24
 1523 0169 26000000 		.4byte	.LVL27
 1524 016d 0100     		.2byte	0x1
 1525 016f 55       		.byte	0x55
 1526 0170 26000000 		.4byte	.LVL27
 1527 0174 2A000000 		.4byte	.LFE2
 1528 0178 0400     		.2byte	0x4
ARM GAS  C:\Users\jo\AppData\Local\Temp\ccIJWdhY.s 			page 28


 1529 017a F3       		.byte	0xf3
 1530 017b 01       		.uleb128 0x1
 1531 017c 50       		.byte	0x50
 1532 017d 9F       		.byte	0x9f
 1533 017e 00000000 		.4byte	0
 1534 0182 00000000 		.4byte	0
 1535              	.LLST8:
 1536 0186 00000000 		.4byte	.LVL21
 1537 018a 1A000000 		.4byte	.LVL25
 1538 018e 0100     		.2byte	0x1
 1539 0190 51       		.byte	0x51
 1540 0191 1A000000 		.4byte	.LVL25
 1541 0195 1F000000 		.4byte	.LVL26-1
 1542 0199 0100     		.2byte	0x1
 1543 019b 50       		.byte	0x50
 1544 019c 1F000000 		.4byte	.LVL26-1
 1545 01a0 2A000000 		.4byte	.LFE2
 1546 01a4 0400     		.2byte	0x4
 1547 01a6 F3       		.byte	0xf3
 1548 01a7 01       		.uleb128 0x1
 1549 01a8 51       		.byte	0x51
 1550 01a9 9F       		.byte	0x9f
 1551 01aa 00000000 		.4byte	0
 1552 01ae 00000000 		.4byte	0
 1553              	.LLST9:
 1554 01b2 00000000 		.4byte	.LVL21
 1555 01b6 10000000 		.4byte	.LVL23
 1556 01ba 0100     		.2byte	0x1
 1557 01bc 52       		.byte	0x52
 1558 01bd 10000000 		.4byte	.LVL23
 1559 01c1 2A000000 		.4byte	.LFE2
 1560 01c5 0100     		.2byte	0x1
 1561 01c7 54       		.byte	0x54
 1562 01c8 00000000 		.4byte	0
 1563 01cc 00000000 		.4byte	0
 1564              	.LLST11:
 1565 01d0 00000000 		.4byte	.LVL28
 1566 01d4 04000000 		.4byte	.LVL29
 1567 01d8 0100     		.2byte	0x1
 1568 01da 50       		.byte	0x50
 1569 01db 04000000 		.4byte	.LVL29
 1570 01df 06000000 		.4byte	.LFE3
 1571 01e3 0400     		.2byte	0x4
 1572 01e5 F3       		.byte	0xf3
 1573 01e6 01       		.uleb128 0x1
 1574 01e7 50       		.byte	0x50
 1575 01e8 9F       		.byte	0x9f
 1576 01e9 00000000 		.4byte	0
 1577 01ed 00000000 		.4byte	0
 1578              	.LLST12:
 1579 01f1 00000000 		.4byte	.LVL30
 1580 01f5 04000000 		.4byte	.LVL31
 1581 01f9 0100     		.2byte	0x1
 1582 01fb 50       		.byte	0x50
 1583 01fc 04000000 		.4byte	.LVL31
 1584 0200 06000000 		.4byte	.LFE4
 1585 0204 0400     		.2byte	0x4
ARM GAS  C:\Users\jo\AppData\Local\Temp\ccIJWdhY.s 			page 29


 1586 0206 F3       		.byte	0xf3
 1587 0207 01       		.uleb128 0x1
 1588 0208 50       		.byte	0x50
 1589 0209 9F       		.byte	0x9f
 1590 020a 00000000 		.4byte	0
 1591 020e 00000000 		.4byte	0
 1592              	.LLST13:
 1593 0212 00000000 		.4byte	.LVL30
 1594 0216 04000000 		.4byte	.LVL31
 1595 021a 0500     		.2byte	0x5
 1596 021c 70       		.byte	0x70
 1597 021d 00       		.sleb128 0
 1598 021e 06       		.byte	0x6
 1599 021f 23       		.byte	0x23
 1600 0220 08       		.uleb128 0x8
 1601 0221 04000000 		.4byte	.LVL31
 1602 0225 06000000 		.4byte	.LFE4
 1603 0229 0100     		.2byte	0x1
 1604 022b 50       		.byte	0x50
 1605 022c 00000000 		.4byte	0
 1606 0230 00000000 		.4byte	0
 1607              	.LLST15:
 1608 0234 00000000 		.4byte	.LVL30
 1609 0238 04000000 		.4byte	.LVL31
 1610 023c 0200     		.2byte	0x2
 1611 023e 70       		.byte	0x70
 1612 023f 00       		.sleb128 0
 1613 0240 04000000 		.4byte	.LVL31
 1614 0244 06000000 		.4byte	.LFE4
 1615 0248 0100     		.2byte	0x1
 1616 024a 53       		.byte	0x53
 1617 024b 00000000 		.4byte	0
 1618 024f 00000000 		.4byte	0
 1619              	.LLST16:
 1620 0253 00000000 		.4byte	.LVL32
 1621 0257 04000000 		.4byte	.LVL33
 1622 025b 0100     		.2byte	0x1
 1623 025d 50       		.byte	0x50
 1624 025e 04000000 		.4byte	.LVL33
 1625 0262 06000000 		.4byte	.LFE5
 1626 0266 0400     		.2byte	0x4
 1627 0268 F3       		.byte	0xf3
 1628 0269 01       		.uleb128 0x1
 1629 026a 50       		.byte	0x50
 1630 026b 9F       		.byte	0x9f
 1631 026c 00000000 		.4byte	0
 1632 0270 00000000 		.4byte	0
 1633              		.section	.debug_aranges,"",%progbits
 1634 0000 44000000 		.4byte	0x44
 1635 0004 0200     		.2byte	0x2
 1636 0006 00000000 		.4byte	.Ldebug_info0
 1637 000a 04       		.byte	0x4
 1638 000b 00       		.byte	0
 1639 000c 0000     		.2byte	0
 1640 000e 0000     		.2byte	0
 1641 0010 00000000 		.4byte	.LFB0
 1642 0014 84000000 		.4byte	.LFE0-.LFB0
ARM GAS  C:\Users\jo\AppData\Local\Temp\ccIJWdhY.s 			page 30


 1643 0018 00000000 		.4byte	.LFB1
 1644 001c 10000000 		.4byte	.LFE1-.LFB1
 1645 0020 00000000 		.4byte	.LFB2
 1646 0024 2A000000 		.4byte	.LFE2-.LFB2
 1647 0028 00000000 		.4byte	.LFB3
 1648 002c 06000000 		.4byte	.LFE3-.LFB3
 1649 0030 00000000 		.4byte	.LFB4
 1650 0034 06000000 		.4byte	.LFE4-.LFB4
 1651 0038 00000000 		.4byte	.LFB5
 1652 003c 06000000 		.4byte	.LFE5-.LFB5
 1653 0040 00000000 		.4byte	0
 1654 0044 00000000 		.4byte	0
 1655              		.section	.debug_ranges,"",%progbits
 1656              	.Ldebug_ranges0:
 1657 0000 00000000 		.4byte	.LFB0
 1658 0004 84000000 		.4byte	.LFE0
 1659 0008 00000000 		.4byte	.LFB1
 1660 000c 10000000 		.4byte	.LFE1
 1661 0010 00000000 		.4byte	.LFB2
 1662 0014 2A000000 		.4byte	.LFE2
 1663 0018 00000000 		.4byte	.LFB3
 1664 001c 06000000 		.4byte	.LFE3
 1665 0020 00000000 		.4byte	.LFB4
 1666 0024 06000000 		.4byte	.LFE4
 1667 0028 00000000 		.4byte	.LFB5
 1668 002c 06000000 		.4byte	.LFE5
 1669 0030 00000000 		.4byte	0
 1670 0034 00000000 		.4byte	0
 1671              		.section	.debug_line,"",%progbits
 1672              	.Ldebug_line0:
 1673 0000 7E020000 		.section	.debug_str,"MS",%progbits,1
 1673      0200D401 
 1673      00000201 
 1673      FB0E0D00 
 1673      01010101 
 1674              	.LASF13:
 1675 0000 5F5F6769 		.ascii	"__gid_t\000"
 1675      645F7400 
 1676              	.LASF67:
 1677 0008 73747263 		.ascii	"strcmp\000"
 1677      6D7000
 1678              	.LASF9:
 1679 000f 73697A65 		.ascii	"size_t\000"
 1679      5F7400
 1680              	.LASF45:
 1681 0016 726F6D65 		.ascii	"rome_name\000"
 1681      5F6E616D 
 1681      6500
 1682              	.LASF7:
 1683 0020 6C6F6E67 		.ascii	"long long unsigned int\000"
 1683      206C6F6E 
 1683      6720756E 
 1683      7369676E 
 1683      65642069 
 1684              	.LASF39:
 1685 0037 73745F62 		.ascii	"st_blocks\000"
 1685      6C6F636B 
ARM GAS  C:\Users\jo\AppData\Local\Temp\ccIJWdhY.s 			page 31


 1685      7300
 1686              	.LASF73:
 1687 0041 66726565 		.ascii	"free\000"
 1687      00
 1688              	.LASF71:
 1689 0046 433A5C55 		.ascii	"C:\\Users\\jo\\Documents\\GitHub\\ChibiOS\\demos\\S"
 1689      73657273 
 1689      5C6A6F5C 
 1689      446F6375 
 1689      6D656E74 
 1690 0072 544D3332 		.ascii	"TM32\\RT-STM32F407-DISCOVERY-uHttp\000"
 1690      5C52542D 
 1690      53544D33 
 1690      32463430 
 1690      372D4449 
 1691              	.LASF42:
 1692 0094 73746174 		.ascii	"stat\000"
 1692      00
 1693              	.LASF6:
 1694 0099 6C6F6E67 		.ascii	"long long int\000"
 1694      206C6F6E 
 1694      6720696E 
 1694      7400
 1695              	.LASF0:
 1696 00a7 7369676E 		.ascii	"signed char\000"
 1696      65642063 
 1696      68617200 
 1697              	.LASF25:
 1698 00b3 73745F69 		.ascii	"st_ino\000"
 1698      6E6F00
 1699              	.LASF49:
 1700 00ba 5F524F4D 		.ascii	"_ROMFILE\000"
 1700      46494C45 
 1700      00
 1701              	.LASF4:
 1702 00c3 6C6F6E67 		.ascii	"long int\000"
 1702      20696E74 
 1702      00
 1703              	.LASF56:
 1704 00cc 5F6F7065 		.ascii	"_open\000"
 1704      6E00
 1705              	.LASF74:
 1706 00d2 6D656D63 		.ascii	"memcpy\000"
 1706      707900
 1707              	.LASF23:
 1708 00d9 6E6C696E 		.ascii	"nlink_t\000"
 1708      6B5F7400 
 1709              	.LASF18:
 1710 00e1 6F66665F 		.ascii	"off_t\000"
 1710      7400
 1711              	.LASF21:
 1712 00e7 6769645F 		.ascii	"gid_t\000"
 1712      7400
 1713              	.LASF11:
 1714 00ed 5F5F6465 		.ascii	"__dev_t\000"
 1714      765F7400 
 1715              	.LASF28:
ARM GAS  C:\Users\jo\AppData\Local\Temp\ccIJWdhY.s 			page 32


 1716 00f5 73745F75 		.ascii	"st_uid\000"
 1716      696400
 1717              	.LASF33:
 1718 00fc 73745F73 		.ascii	"st_spare1\000"
 1718      70617265 
 1718      3100
 1719              	.LASF35:
 1720 0106 73745F73 		.ascii	"st_spare2\000"
 1720      70617265 
 1720      3200
 1721              	.LASF37:
 1722 0110 73745F73 		.ascii	"st_spare3\000"
 1722      70617265 
 1722      3300
 1723              	.LASF40:
 1724 011a 73745F73 		.ascii	"st_spare4\000"
 1724      70617265 
 1724      3400
 1725              	.LASF8:
 1726 0124 756E7369 		.ascii	"unsigned int\000"
 1726      676E6564 
 1726      20696E74 
 1726      00
 1727              	.LASF50:
 1728 0131 726F6D66 		.ascii	"romf_entry\000"
 1728      5F656E74 
 1728      727900
 1729              	.LASF48:
 1730 013c 524F4D46 		.ascii	"ROMFILE\000"
 1730      494C4500 
 1731              	.LASF57:
 1732 0144 5F636C6F 		.ascii	"_close\000"
 1732      736500
 1733              	.LASF41:
 1734 014b 524F4D45 		.ascii	"ROMENTRY\000"
 1734      4E545259 
 1734      00
 1735              	.LASF5:
 1736 0154 6C6F6E67 		.ascii	"long unsigned int\000"
 1736      20756E73 
 1736      69676E65 
 1736      6420696E 
 1736      7400
 1737              	.LASF66:
 1738 0166 54657374 		.ascii	"Testimage\000"
 1738      696D6167 
 1738      6500
 1739              	.LASF52:
 1740 0170 6E616D65 		.ascii	"name\000"
 1740      00
 1741              	.LASF20:
 1742 0175 7569645F 		.ascii	"uid_t\000"
 1742      7400
 1743              	.LASF60:
 1744 017b 73697A65 		.ascii	"size\000"
 1744      00
 1745              	.LASF3:
ARM GAS  C:\Users\jo\AppData\Local\Temp\ccIJWdhY.s 			page 33


 1746 0180 73686F72 		.ascii	"short unsigned int\000"
 1746      7420756E 
 1746      7369676E 
 1746      65642069 
 1746      6E7400
 1747              	.LASF47:
 1748 0193 726F6D65 		.ascii	"rome_data\000"
 1748      5F646174 
 1748      6100
 1749              	.LASF32:
 1750 019d 73745F61 		.ascii	"st_atime\000"
 1750      74696D65 
 1750      00
 1751              	.LASF69:
 1752 01a6 474E5520 		.ascii	"GNU C 4.9.3 20141119 (release) [ARM/embedded-4_9-br"
 1752      4320342E 
 1752      392E3320 
 1752      32303134 
 1752      31313139 
 1753 01d9 616E6368 		.ascii	"anch revision 218278] -mcpu=cortex-m4 -mno-thumb-in"
 1753      20726576 
 1753      6973696F 
 1753      6E203231 
 1753      38323738 
 1754 020c 74657277 		.ascii	"terwork -mthumb -ggdb -O2 -fomit-frame-pointer -fal"
 1754      6F726B20 
 1754      2D6D7468 
 1754      756D6220 
 1754      2D676764 
 1755 023f 69676E2D 		.ascii	"ign-functions=16 -ffunction-sections -fdata-section"
 1755      66756E63 
 1755      74696F6E 
 1755      733D3136 
 1755      202D6666 
 1756 0272 73202D66 		.ascii	"s -fno-common\000"
 1756      6E6F2D63 
 1756      6F6D6D6F 
 1756      6E00
 1757              	.LASF31:
 1758 0280 73745F73 		.ascii	"st_size\000"
 1758      697A6500 
 1759              	.LASF26:
 1760 0288 73745F6D 		.ascii	"st_mode\000"
 1760      6F646500 
 1761              	.LASF14:
 1762 0290 73697A65 		.ascii	"sizetype\000"
 1762      74797065 
 1762      00
 1763              	.LASF51:
 1764 0299 726F6D66 		.ascii	"romf_pos\000"
 1764      5F706F73 
 1764      00
 1765              	.LASF10:
 1766 02a2 5F6F6666 		.ascii	"_off_t\000"
 1766      5F7400
 1767              	.LASF19:
 1768 02a9 6465765F 		.ascii	"dev_t\000"
ARM GAS  C:\Users\jo\AppData\Local\Temp\ccIJWdhY.s 			page 34


 1768      7400
 1769              	.LASF16:
 1770 02af 74696D65 		.ascii	"time_t\000"
 1770      5F7400
 1771              	.LASF58:
 1772 02b6 5F726561 		.ascii	"_read\000"
 1772      6400
 1773              	.LASF27:
 1774 02bc 73745F6E 		.ascii	"st_nlink\000"
 1774      6C696E6B 
 1774      00
 1775              	.LASF1:
 1776 02c5 756E7369 		.ascii	"unsigned char\000"
 1776      676E6564 
 1776      20636861 
 1776      7200
 1777              	.LASF43:
 1778 02d3 5F524F4D 		.ascii	"_ROMENTRY\000"
 1778      454E5452 
 1778      5900
 1779              	.LASF2:
 1780 02dd 73686F72 		.ascii	"short int\000"
 1780      7420696E 
 1780      7400
 1781              	.LASF38:
 1782 02e7 73745F62 		.ascii	"st_blksize\000"
 1782      6C6B7369 
 1782      7A6500
 1783              	.LASF36:
 1784 02f2 73745F63 		.ascii	"st_ctime\000"
 1784      74696D65 
 1784      00
 1785              	.LASF54:
 1786 02fb 726F6D65 		.ascii	"rome\000"
 1786      00
 1787              	.LASF55:
 1788 0300 726F6D66 		.ascii	"romf\000"
 1788      00
 1789              	.LASF63:
 1790 0305 6F726967 		.ascii	"origin\000"
 1790      696E00
 1791              	.LASF68:
 1792 030c 63616C6C 		.ascii	"calloc\000"
 1792      6F6300
 1793              	.LASF61:
 1794 0313 5F736565 		.ascii	"_seek\000"
 1794      6B00
 1795              	.LASF30:
 1796 0319 73745F72 		.ascii	"st_rdev\000"
 1796      64657600 
 1797              	.LASF70:
 1798 0321 2E2E2F2E 		.ascii	"../../../demos/STM32/RT-STM32F407-DISCOVERY-uHttp/u"
 1798      2E2F2E2E 
 1798      2F64656D 
 1798      6F732F53 
 1798      544D3332 
 1799 0354 68747470 		.ascii	"http-1.1/io.c\000"
ARM GAS  C:\Users\jo\AppData\Local\Temp\ccIJWdhY.s 			page 35


 1799      2D312E31 
 1799      2F696F2E 
 1799      6300
 1800              	.LASF15:
 1801 0362 63686172 		.ascii	"char\000"
 1801      00
 1802              	.LASF53:
 1803 0367 6D6F6465 		.ascii	"mode\000"
 1803      00
 1804              	.LASF46:
 1805 036c 726F6D65 		.ascii	"rome_size\000"
 1805      5F73697A 
 1805      6500
 1806              	.LASF59:
 1807 0376 62756666 		.ascii	"buffer\000"
 1807      657200
 1808              	.LASF12:
 1809 037d 5F5F7569 		.ascii	"__uid_t\000"
 1809      645F7400 
 1810              	.LASF62:
 1811 0385 6F666673 		.ascii	"offset\000"
 1811      657400
 1812              	.LASF44:
 1813 038c 726F6D65 		.ascii	"rome_next\000"
 1813      5F6E6578 
 1813      7400
 1814              	.LASF29:
 1815 0396 73745F67 		.ascii	"st_gid\000"
 1815      696400
 1816              	.LASF22:
 1817 039d 6D6F6465 		.ascii	"mode_t\000"
 1817      5F7400
 1818              	.LASF24:
 1819 03a4 73745F64 		.ascii	"st_dev\000"
 1819      657600
 1820              	.LASF65:
 1821 03ab 66737461 		.ascii	"fstat\000"
 1821      7400
 1822              	.LASF72:
 1823 03b1 726F6D45 		.ascii	"romEntryList\000"
 1823      6E747279 
 1823      4C697374 
 1823      00
 1824              	.LASF64:
 1825 03be 5F66696C 		.ascii	"_filelength\000"
 1825      656C656E 
 1825      67746800 
 1826              	.LASF34:
 1827 03ca 73745F6D 		.ascii	"st_mtime\000"
 1827      74696D65 
 1827      00
 1828              	.LASF17:
 1829 03d3 696E6F5F 		.ascii	"ino_t\000"
 1829      7400
 1830              		.ident	"GCC: (GNU Tools for ARM Embedded Processors) 4.9.3 20141119 (release) [ARM/embedded-4_9-br
ARM GAS  C:\Users\jo\AppData\Local\Temp\ccIJWdhY.s 			page 36


DEFINED SYMBOLS
                            *ABS*:00000000 io.c
C:\Users\jo\AppData\Local\Temp\ccIJWdhY.s:19     .text._open:00000000 $t
C:\Users\jo\AppData\Local\Temp\ccIJWdhY.s:25     .text._open:00000000 _open
C:\Users\jo\AppData\Local\Temp\ccIJWdhY.s:138    .text._open:00000078 $d
C:\Users\jo\AppData\Local\Temp\ccIJWdhY.s:145    .text._close:00000000 $t
C:\Users\jo\AppData\Local\Temp\ccIJWdhY.s:151    .text._close:00000000 _close
C:\Users\jo\AppData\Local\Temp\ccIJWdhY.s:183    .text._read:00000000 $t
C:\Users\jo\AppData\Local\Temp\ccIJWdhY.s:189    .text._read:00000000 _read
C:\Users\jo\AppData\Local\Temp\ccIJWdhY.s:238    .text._seek:00000000 $t
C:\Users\jo\AppData\Local\Temp\ccIJWdhY.s:244    .text._seek:00000000 _seek
C:\Users\jo\AppData\Local\Temp\ccIJWdhY.s:260    .text._filelength:00000000 $t
C:\Users\jo\AppData\Local\Temp\ccIJWdhY.s:266    .text._filelength:00000000 _filelength
C:\Users\jo\AppData\Local\Temp\ccIJWdhY.s:284    .text.fstat:00000000 $t
C:\Users\jo\AppData\Local\Temp\ccIJWdhY.s:290    .text.fstat:00000000 fstat
C:\Users\jo\AppData\Local\Temp\ccIJWdhY.s:306    .data.Testimage:00000000 $d
C:\Users\jo\AppData\Local\Temp\ccIJWdhY.s:310    .data.Testimage:00000000 Testimage
C:\Users\jo\AppData\Local\Temp\ccIJWdhY.s:316    .rodata.str1.4:00000000 $d
                     .debug_frame:00000010 $d
C:\Users\jo\AppData\Local\Temp\ccIJWdhY.s:144    .text._open:00000084 $t

UNDEFINED SYMBOLS
strcmp
calloc
romEntryList
free
memcpy
