ARM GAS  C:\Users\jo\AppData\Local\Temp\ccIJWdhY.s 			page 1


   1              		.syntax unified
   2              		.cpu cortex-m4
   3              		.fpu softvfp
   4              		.eabi_attribute 20, 1
   5              		.eabi_attribute 21, 1
   6              		.eabi_attribute 23, 3
   7              		.eabi_attribute 24, 1
   8              		.eabi_attribute 25, 1
   9              		.eabi_attribute 26, 1
  10              		.eabi_attribute 30, 2
  11              		.eabi_attribute 34, 1
  12              		.eabi_attribute 18, 4
  13              		.thumb
  14              		.file	"io.c"
  15              		.text
  16              	.Ltext0:
  17              		.cfi_sections	.debug_frame
  18              		.section	.text._open,"ax",%progbits
  19              		.align	2
  20              		.p2align 4,,15
  21              		.global	_open
  22              		.thumb
  23              		.thumb_func
  24              		.type	_open, %function
  25              	_open:
  26              	.LFB0:
  27              		.file 1 "../../../demos/STM32/RT-STM32F407-DISCOVERY-uHttp/uhttp-1.1/io.c"
  28              		.loc 1 78 0
  29              		.cfi_startproc
  30              		@ args = 0, pretend = 0, frame = 0
  31              		@ frame_needed = 0, uses_anonymous_args = 0
  32              	.LVL0:
  33 0000 38B5     		push	{r3, r4, r5, lr}
  34              		.cfi_def_cfa_offset 16
  35              		.cfi_offset 3, -16
  36              		.cfi_offset 4, -12
  37              		.cfi_offset 5, -8
  38              		.cfi_offset 14, -4
  39              		.loc 1 86 0
  40 0002 0378     		ldrb	r3, [r0]	@ zero_extendqisi2
  41 0004 552B     		cmp	r3, #85
  42              		.loc 1 78 0
  43 0006 0446     		mov	r4, r0
  44              		.loc 1 86 0
  45 0008 07D0     		beq	.L22
  46              	.LVL1:
  47              	.L5:
  48              		.loc 1 122 0
  49 000a 2046     		mov	r0, r4
  50 000c 1A49     		ldr	r1, .L24
  51 000e FFF7FEFF 		bl	strcmp
  52              	.LVL2:
  53 0012 40B3     		cbz	r0, .L9
  54              	.L10:
  55              		.loc 1 78 0
  56 0014 4FF0FF30 		mov	r0, #-1
  57 0018 38BD     		pop	{r3, r4, r5, pc}
ARM GAS  C:\Users\jo\AppData\Local\Temp\ccIJWdhY.s 			page 2


  58              	.LVL3:
  59              	.L22:
  60              		.loc 1 86 0 discriminator 1
  61 001a 4378     		ldrb	r3, [r0, #1]	@ zero_extendqisi2
  62 001c 522B     		cmp	r3, #82
  63 001e F4D1     		bne	.L5
  64              		.loc 1 86 0 is_stmt 0 discriminator 2
  65 0020 8378     		ldrb	r3, [r0, #2]	@ zero_extendqisi2
  66 0022 4F2B     		cmp	r3, #79
  67 0024 F1D1     		bne	.L5
  68              		.loc 1 87 0 is_stmt 1
  69 0026 C378     		ldrb	r3, [r0, #3]	@ zero_extendqisi2
  70 0028 4D2B     		cmp	r3, #77
  71 002a EED1     		bne	.L5
  72              		.loc 1 87 0 is_stmt 0 discriminator 1
  73 002c 0379     		ldrb	r3, [r0, #4]	@ zero_extendqisi2
  74 002e 3A2B     		cmp	r3, #58
  75 0030 EBD1     		bne	.L5
  76              	.LVL4:
  77              		.loc 1 91 0 is_stmt 1
  78 0032 4379     		ldrb	r3, [r0, #5]	@ zero_extendqisi2
  79 0034 2F2B     		cmp	r3, #47
  80              	.LVL5:
  81              		.loc 1 97 0
  82 0036 114B     		ldr	r3, .L24+4
  83 0038 1D68     		ldr	r5, [r3]
  84              		.loc 1 89 0
  85 003a 14BF     		ite	ne
  86 003c 0534     		addne	r4, r4, #5
  87              	.LVL6:
  88              		.loc 1 93 0
  89 003e 0634     		addeq	r4, r4, #6
  90              	.LVL7:
  91              		.loc 1 97 0
  92 0040 1DB9     		cbnz	r5, .L7
  93              	.LVL8:
  94 0042 E2E7     		b	.L5
  95              	.LVL9:
  96              	.L23:
  97              		.loc 1 97 0 is_stmt 0 discriminator 2
  98 0044 2D68     		ldr	r5, [r5]
  99              	.LVL10:
 100 0046 002D     		cmp	r5, #0
 101 0048 DFD0     		beq	.L5
 102              	.L7:
 103              		.loc 1 99 0 is_stmt 1
 104 004a 2046     		mov	r0, r4
 105 004c 6968     		ldr	r1, [r5, #4]
 106 004e FFF7FEFF 		bl	strcmp
 107              	.LVL11:
 108 0052 0028     		cmp	r0, #0
 109 0054 F6D1     		bne	.L23
 110              		.loc 1 109 0
 111 0056 0120     		movs	r0, #1
 112 0058 0821     		movs	r1, #8
 113 005a FFF7FEFF 		bl	calloc
 114              	.LVL12:
ARM GAS  C:\Users\jo\AppData\Local\Temp\ccIJWdhY.s 			page 3


 115 005e 0028     		cmp	r0, #0
 116 0060 D3D0     		beq	.L5
 117              		.loc 1 111 0
 118 0062 0560     		str	r5, [r0]
 119              	.LVL13:
 120 0064 38BD     		pop	{r3, r4, r5, pc}
 121              	.LVL14:
 122              	.L9:
 123              		.loc 1 124 0
 124 0066 0120     		movs	r0, #1
 125 0068 0821     		movs	r1, #8
 126 006a FFF7FEFF 		bl	calloc
 127              	.LVL15:
 128 006e 0028     		cmp	r0, #0
 129 0070 D0D0     		beq	.L10
 130              		.loc 1 126 0
 131 0072 034B     		ldr	r3, .L24+8
 132 0074 0360     		str	r3, [r0]
 133              	.LVL16:
 134 0076 38BD     		pop	{r3, r4, r5, pc}
 135              	.L25:
 136              		.align	2
 137              	.L24:
 138 0078 00000000 		.word	.LC0
 139 007c 00000000 		.word	romEntryList
 140 0080 00000000 		.word	.LANCHOR0
 141              		.cfi_endproc
 142              	.LFE0:
 143              		.size	_open, .-_open
 144 0084 AFF30080 		.section	.text._close,"ax",%progbits
 144      AFF30080 
 144      AFF30080 
 145              		.align	2
 146              		.p2align 4,,15
 147              		.global	_close
 148              		.thumb
 149              		.thumb_func
 150              		.type	_close, %function
 151              	_close:
 152              	.LFB1:
 153              		.loc 1 137 0
 154              		.cfi_startproc
 155              		@ args = 0, pretend = 0, frame = 0
 156              		@ frame_needed = 0, uses_anonymous_args = 0
 157              	.LVL17:
 158              		.loc 1 140 0
 159 0000 20B1     		cbz	r0, .L32
 160              		.loc 1 137 0
 161 0002 08B5     		push	{r3, lr}
 162              		.cfi_def_cfa_offset 8
 163              		.cfi_offset 3, -8
 164              		.cfi_offset 14, -4
 165              		.loc 1 142 0
 166 0004 FFF7FEFF 		bl	free
 167              	.LVL18:
 168              		.loc 1 146 0
 169 0008 0020     		movs	r0, #0
ARM GAS  C:\Users\jo\AppData\Local\Temp\ccIJWdhY.s 			page 4


 170 000a 08BD     		pop	{r3, pc}
 171              	.LVL19:
 172              	.L32:
 173              		.cfi_def_cfa_offset 0
 174              		.cfi_restore 3
 175              		.cfi_restore 14
 176 000c 0020     		movs	r0, #0
 177              	.LVL20:
 178 000e 7047     		bx	lr
 179              		.cfi_endproc
 180              	.LFE1:
 181              		.size	_close, .-_close
 182              		.section	.text._read,"ax",%progbits
 183              		.align	2
 184              		.p2align 4,,15
 185              		.global	_read
 186              		.thumb
 187              		.thumb_func
 188              		.type	_read, %function
 189              	_read:
 190              	.LFB2:
 191              		.loc 1 150 0
 192              		.cfi_startproc
 193              		@ args = 0, pretend = 0, frame = 0
 194              		@ frame_needed = 0, uses_anonymous_args = 0
 195              	.LVL21:
 196 0000 70B5     		push	{r4, r5, r6, lr}
 197              		.cfi_def_cfa_offset 16
 198              		.cfi_offset 4, -16
 199              		.cfi_offset 5, -12
 200              		.cfi_offset 6, -8
 201              		.cfi_offset 14, -4
 202              		.loc 1 152 0
 203 0002 0668     		ldr	r6, [r0]
 204              	.LVL22:
 205              		.loc 1 156 0
 206 0004 4368     		ldr	r3, [r0, #4]
 207 0006 B468     		ldr	r4, [r6, #8]
 208 0008 E41A     		subs	r4, r4, r3
 209 000a 9442     		cmp	r4, r2
 210 000c 28BF     		it	cs
 211 000e 1446     		movcs	r4, r2
 212              	.LVL23:
 213              		.loc 1 161 0
 214 0010 4CB1     		cbz	r4, .L34
 215              		.loc 1 163 0
 216 0012 F268     		ldr	r2, [r6, #12]
 217 0014 0546     		mov	r5, r0
 218 0016 0846     		mov	r0, r1
 219              	.LVL24:
 220 0018 D118     		adds	r1, r2, r3
 221              	.LVL25:
 222 001a 2246     		mov	r2, r4
 223 001c FFF7FEFF 		bl	memcpy
 224              	.LVL26:
 225              		.loc 1 164 0
 226 0020 6B68     		ldr	r3, [r5, #4]
ARM GAS  C:\Users\jo\AppData\Local\Temp\ccIJWdhY.s 			page 5


 227 0022 2344     		add	r3, r3, r4
 228 0024 6B60     		str	r3, [r5, #4]
 229              	.LVL27:
 230              	.L34:
 231              		.loc 1 169 0
 232 0026 2046     		mov	r0, r4
 233 0028 70BD     		pop	{r4, r5, r6, pc}
 234              		.cfi_endproc
 235              	.LFE2:
 236              		.size	_read, .-_read
 237 002a 00BFAFF3 		.section	.text._seek,"ax",%progbits
 237      0080
 238              		.align	2
 239              		.p2align 4,,15
 240              		.global	_seek
 241              		.thumb
 242              		.thumb_func
 243              		.type	_seek, %function
 244              	_seek:
 245              	.LFB3:
 246              		.loc 1 172 0
 247              		.cfi_startproc
 248              		@ args = 0, pretend = 0, frame = 0
 249              		@ frame_needed = 0, uses_anonymous_args = 0
 250              		@ link register save eliminated.
 251              	.LVL28:
 252              		.loc 1 178 0
 253 0000 4FF0FF30 		mov	r0, #-1
 254              	.LVL29:
 255 0004 7047     		bx	lr
 256              		.cfi_endproc
 257              	.LFE3:
 258              		.size	_seek, .-_seek
 259 0006 00BFAFF3 		.section	.text._filelength,"ax",%progbits
 259      0080AFF3 
 259      0080
 260              		.align	2
 261              		.p2align 4,,15
 262              		.global	_filelength
 263              		.thumb
 264              		.thumb_func
 265              		.type	_filelength, %function
 266              	_filelength:
 267              	.LFB4:
 268              		.loc 1 182 0
 269              		.cfi_startproc
 270              		@ args = 0, pretend = 0, frame = 0
 271              		@ frame_needed = 0, uses_anonymous_args = 0
 272              		@ link register save eliminated.
 273              	.LVL30:
 274              		.loc 1 189 0
 275 0000 0368     		ldr	r3, [r0]
 276              		.loc 1 193 0
 277 0002 9868     		ldr	r0, [r3, #8]
 278              	.LVL31:
 279 0004 7047     		bx	lr
 280              		.cfi_endproc
ARM GAS  C:\Users\jo\AppData\Local\Temp\ccIJWdhY.s 			page 6


 281              	.LFE4:
 282              		.size	_filelength, .-_filelength
 283 0006 00BFAFF3 		.section	.text.fstat,"ax",%progbits
 283      0080AFF3 
 283      0080
 284              		.align	2
 285              		.p2align 4,,15
 286              		.global	fstat
 287              		.thumb
 288              		.thumb_func
 289              		.type	fstat, %function
 290              	fstat:
 291              	.LFB5:
 292              		.loc 1 197 0
 293              		.cfi_startproc
 294              		@ args = 0, pretend = 0, frame = 0
 295              		@ frame_needed = 0, uses_anonymous_args = 0
 296              		@ link register save eliminated.
 297              	.LVL32:
 298              		.loc 1 202 0
 299 0000 4FF0FF30 		mov	r0, #-1
 300              	.LVL33:
 301 0004 7047     		bx	lr
 302              		.cfi_endproc
 303              	.LFE5:
 304              		.size	fstat, .-fstat
 305 0006 00BFAFF3 		.section	.data.Testimage,"aw",%progbits
 305      0080AFF3 
 305      0080
 306              		.align	2
 307              		.set	.LANCHOR0,. + 0
 308              		.type	Testimage, %object
 309              		.size	Testimage, 16
 310              	Testimage:
 311 0000 00000000 		.word	0
 312 0004 00000000 		.word	.LC0
 313 0008 00001000 		.word	1048576
 314 000c 00000008 		.word	134217728
 315              		.section	.rodata.str1.4,"aMS",%progbits,1
 316              		.align	2
 317              	.LC0:
 318 0000 74657374 		.ascii	"testimg.bin\000"
 318      696D672E 
 318      62696E00 
 319              		.text
 320              	.Letext0:
 321              		.file 2 "c:\\program files\\gnu tools arm embedded\\4.9 2014q4\\lib\\gcc\\arm-none-eabi\\4.9.3\\in
 322              		.file 3 "c:\\program files\\gnu tools arm embedded\\4.9 2014q4\\arm-none-eabi\\include\\sys\\_type
 323              		.file 4 "c:\\program files\\gnu tools arm embedded\\4.9 2014q4\\arm-none-eabi\\include\\sys\\types
 324              		.file 5 "c:\\program files\\gnu tools arm embedded\\4.9 2014q4\\arm-none-eabi\\include\\sys\\stat.
 325              		.file 6 "../../../demos/STM32/RT-STM32F407-DISCOVERY-uHttp/uhttp-1.1/fs/uromfs.h"
 326              		.file 7 "c:\\program files\\gnu tools arm embedded\\4.9 2014q4\\arm-none-eabi\\include\\string.h"
 327              		.file 8 "c:\\program files\\gnu tools arm embedded\\4.9 2014q4\\arm-none-eabi\\include\\stdlib.h"