ARM GAS  C:\Users\jo\AppData\Local\Temp\ccOfoZWe.s 			page 1


   1              		.syntax unified
   2              		.cpu cortex-m4
   3              		.fpu softvfp
   4              		.eabi_attribute 20, 1
   5              		.eabi_attribute 21, 1
   6              		.eabi_attribute 23, 3
   7              		.eabi_attribute 24, 1
   8              		.eabi_attribute 25, 1
   9              		.eabi_attribute 26, 1
  10              		.eabi_attribute 30, 2
  11              		.eabi_attribute 34, 1
  12              		.eabi_attribute 18, 4
  13              		.thumb
  14              		.file	"ITM_trace.c"
  15              		.text
  16              	.Ltext0:
  17              		.cfi_sections	.debug_frame
  18              		.section	.text.get,"ax",%progbits
  19              		.align	2
  20              		.p2align 4,,15
  21              		.thumb
  22              		.thumb_func
  23              		.type	get, %function
  24              	get:
  25              	.LFB260:
  26              		.file 1 "ITM_trace.c"
  27              		.loc 1 48 0
  28              		.cfi_startproc
  29              		@ args = 0, pretend = 0, frame = 0
  30              		@ frame_needed = 0, uses_anonymous_args = 0
  31              		@ link register save eliminated.
  32              	.LVL0:
  33              		.loc 1 53 0
  34 0000 0420     		movs	r0, #4
  35              	.LVL1:
  36 0002 7047     		bx	lr
  37              		.cfi_endproc
  38              	.LFE260:
  39              		.size	get, .-get
  40 0004 AFF30080 		.section	.text.reads,"ax",%progbits
  40      AFF30080 
  40      AFF30080 
  41              		.align	2
  42              		.p2align 4,,15
  43              		.thumb
  44              		.thumb_func
  45              		.type	reads, %function
  46              	reads:
  47              	.LFB262:
  48              		.loc 1 67 0
  49              		.cfi_startproc
  50              		@ args = 0, pretend = 0, frame = 0
  51              		@ frame_needed = 0, uses_anonymous_args = 0
  52              		@ link register save eliminated.
  53              	.LVL2:
  54              		.loc 1 74 0
  55 0000 0020     		movs	r0, #0
ARM GAS  C:\Users\jo\AppData\Local\Temp\ccOfoZWe.s 			page 2


  56              	.LVL3:
  57 0002 7047     		bx	lr
  58              		.cfi_endproc
  59              	.LFE262:
  60              		.size	reads, .-reads
  61 0004 AFF30080 		.section	.text.put,"ax",%progbits
  61      AFF30080 
  61      AFF30080 
  62              		.align	2
  63              		.p2align 4,,15
  64              		.thumb
  65              		.thumb_func
  66              		.type	put, %function
  67              	put:
  68              	.LFB259:
  69              		.loc 1 39 0
  70              		.cfi_startproc
  71              		@ args = 0, pretend = 0, frame = 0
  72              		@ frame_needed = 0, uses_anonymous_args = 0
  73              	.LVL4:
  74 0000 08B5     		push	{r3, lr}
  75              		.cfi_def_cfa_offset 8
  76              		.cfi_offset 3, -8
  77              		.cfi_offset 14, -4
  78              		.loc 1 43 0
  79 0002 0846     		mov	r0, r1
  80              	.LVL5:
  81 0004 FFF7FEFF 		bl	Debug_ITMDebugOutputChar
  82              	.LVL6:
  83              		.loc 1 46 0
  84 0008 0120     		movs	r0, #1
  85 000a 08BD     		pop	{r3, pc}
  86              		.cfi_endproc
  87              	.LFE259:
  88              		.size	put, .-put
  89 000c AFF30080 		.section	.text.writes,"ax",%progbits
  90              		.align	2
  91              		.p2align 4,,15
  92              		.thumb
  93              		.thumb_func
  94              		.type	writes, %function
  95              	writes:
  96              	.LFB261:
  97              		.loc 1 55 0
  98              		.cfi_startproc
  99              		@ args = 0, pretend = 0, frame = 0
 100              		@ frame_needed = 0, uses_anonymous_args = 0
 101              	.LVL7:
 102 0000 70B5     		push	{r4, r5, r6, lr}
 103              		.cfi_def_cfa_offset 16
 104              		.cfi_offset 4, -16
 105              		.cfi_offset 5, -12
 106              		.cfi_offset 6, -8
 107              		.cfi_offset 14, -4
 108              		.loc 1 58 0
 109 0002 1646     		mov	r6, r2
 110 0004 3AB1     		cbz	r2, .L10
ARM GAS  C:\Users\jo\AppData\Local\Temp\ccOfoZWe.s 			page 3


 111 0006 0D46     		mov	r5, r1
 112              	.LVL8:
 113 0008 1446     		mov	r4, r2
 114              	.LVL9:
 115              	.L7:
 116              	.LBB4:
 117              	.LBB5:
 118              		.loc 1 43 0
 119 000a 15F8010B 		ldrb	r0, [r5], #1	@ zero_extendqisi2
 120              	.LVL10:
 121 000e FFF7FEFF 		bl	Debug_ITMDebugOutputChar
 122              	.LVL11:
 123              	.LBE5:
 124              	.LBE4:
 125              		.loc 1 58 0
 126 0012 013C     		subs	r4, r4, #1
 127              	.LVL12:
 128 0014 F9D1     		bne	.L7
 129              	.LVL13:
 130              	.L10:
 131              		.loc 1 65 0
 132 0016 3046     		mov	r0, r6
 133 0018 70BD     		pop	{r4, r5, r6, pc}
 134              		.cfi_endproc
 135              	.LFE261:
 136              		.size	writes, .-writes
 137 001a 00BFAFF3 		.section	.text.itmObjectInit,"ax",%progbits
 137      0080
 138              		.align	2
 139              		.p2align 4,,15
 140              		.global	itmObjectInit
 141              		.thumb
 142              		.thumb_func
 143              		.type	itmObjectInit, %function
 144              	itmObjectInit:
 145              	.LFB263:
 146              		.loc 1 87 0
 147              		.cfi_startproc
 148              		@ args = 0, pretend = 0, frame = 0
 149              		@ frame_needed = 0, uses_anonymous_args = 0
 150              		@ link register save eliminated.
 151              	.LVL14:
 152              		.loc 1 88 0
 153 0000 014B     		ldr	r3, .L14
 154 0002 0360     		str	r3, [r0]
 155 0004 7047     		bx	lr
 156              	.L15:
 157 0006 00BF     		.align	2
 158              	.L14:
 159 0008 00000000 		.word	.LANCHOR0
 160              		.cfi_endproc
 161              	.LFE263:
 162              		.size	itmObjectInit, .-itmObjectInit
 163 000c AFF30080 		.section	.rodata.vmt,"a",%progbits
 164              		.align	2
 165              		.set	.LANCHOR0,. + 0
 166              		.type	vmt, %object
ARM GAS  C:\Users\jo\AppData\Local\Temp\ccOfoZWe.s 			page 4


 167              		.size	vmt, 16
 168              	vmt:
 169 0000 00000000 		.word	writes
 170 0004 00000000 		.word	reads
 171 0008 00000000 		.word	put
 172 000c 00000000 		.word	get
 173              		.text
 174              	.Letext0:
 175              		.file 2 "c:\\program files\\gnu tools arm embedded\\4.9 2014q4\\lib\\gcc\\arm-none-eabi\\4.9.3\\in
 176              		.file 3 "c:\\program files\\gnu tools arm embedded\\4.9 2014q4\\arm-none-eabi\\include\\machine\\_
 177              		.file 4 "c:\\program files\\gnu tools arm embedded\\4.9 2014q4\\arm-none-eabi\\include\\stdint.h"
 178              		.file 5 "../../../os/rt/ports/ARMCMx/compilers/GCC/chtypes.h"
 179              		.file 6 "../../../os/rt/include/chsystypes.h"
 180              		.file 7 "../../../os/rt/include/chschd.h"
 181              		.file 8 "../../../os/rt/ports/ARMCMx/chcore.h"
 182              		.file 9 "../../../os/rt/ports/ARMCMx/chcore_v7m.h"
 183              		.file 10 "../../../os/rt/include/chdebug.h"
 184              		.file 11 "../../../os/rt/include/chtm.h"
 185              		.file 12 "../../../os/rt/include/chsem.h"
 186              		.file 13 "../../../os/rt/include/chmtx.h"
 187              		.file 14 "ITM_trace.h"
 188              		.file 15 "../../../os/ext/CMSIS/include/core_cm4.h"
 189              		.section	.debug_info,"",%progbits
 190              	.Ldebug_info0:
 191 0000 75090000 		.4byte	0x975
 192 0004 0400     		.2byte	0x4
 193 0006 00000000 		.4byte	.Ldebug_abbrev0
 194 000a 04       		.byte	0x4
 195 000b 01       		.uleb128 0x1
 196 000c 91020000 		.4byte	.LASF124
 197 0010 01       		.byte	0x1
 198 0011 D5050000 		.4byte	.LASF125
 199 0015 F9000000 		.4byte	.LASF126
 200 0019 00000000 		.4byte	.Ldebug_ranges0+0
 201 001d 00000000 		.4byte	0
 202 0021 00000000 		.4byte	.Ldebug_line0
 203 0025 02       		.uleb128 0x2
 204 0026 04       		.byte	0x4
 205 0027 05       		.byte	0x5
 206 0028 696E7400 		.ascii	"int\000"
 207 002c 03       		.uleb128 0x3
 208 002d 1D000000 		.4byte	.LASF2
 209 0031 02       		.byte	0x2
 210 0032 D4       		.byte	0xd4
 211 0033 37000000 		.4byte	0x37
 212 0037 04       		.uleb128 0x4
 213 0038 04       		.byte	0x4
 214 0039 07       		.byte	0x7
 215 003a 02020000 		.4byte	.LASF0
 216 003e 04       		.uleb128 0x4
 217 003f 01       		.byte	0x1
 218 0040 06       		.byte	0x6
 219 0041 55010000 		.4byte	.LASF1
 220 0045 03       		.uleb128 0x3
 221 0046 4D000000 		.4byte	.LASF3
 222 004a 03       		.byte	0x3
 223 004b 1D       		.byte	0x1d
ARM GAS  C:\Users\jo\AppData\Local\Temp\ccOfoZWe.s 			page 5


 224 004c 50000000 		.4byte	0x50
 225 0050 04       		.uleb128 0x4
 226 0051 01       		.byte	0x1
 227 0052 08       		.byte	0x8
 228 0053 68040000 		.4byte	.LASF4
 229 0057 04       		.uleb128 0x4
 230 0058 02       		.byte	0x2
 231 0059 05       		.byte	0x5
 232 005a 88040000 		.4byte	.LASF5
 233 005e 04       		.uleb128 0x4
 234 005f 02       		.byte	0x2
 235 0060 07       		.byte	0x7
 236 0061 2F020000 		.4byte	.LASF6
 237 0065 03       		.uleb128 0x3
 238 0066 87020000 		.4byte	.LASF7
 239 006a 03       		.byte	0x3
 240 006b 3F       		.byte	0x3f
 241 006c 70000000 		.4byte	0x70
 242 0070 04       		.uleb128 0x4
 243 0071 04       		.byte	0x4
 244 0072 05       		.byte	0x5
 245 0073 88010000 		.4byte	.LASF8
 246 0077 03       		.uleb128 0x3
 247 0078 67050000 		.4byte	.LASF9
 248 007c 03       		.byte	0x3
 249 007d 41       		.byte	0x41
 250 007e 82000000 		.4byte	0x82
 251 0082 04       		.uleb128 0x4
 252 0083 04       		.byte	0x4
 253 0084 07       		.byte	0x7
 254 0085 10050000 		.4byte	.LASF10
 255 0089 04       		.uleb128 0x4
 256 008a 08       		.byte	0x8
 257 008b 05       		.byte	0x5
 258 008c 47010000 		.4byte	.LASF11
 259 0090 03       		.uleb128 0x3
 260 0091 0C040000 		.4byte	.LASF12
 261 0095 03       		.byte	0x3
 262 0096 5B       		.byte	0x5b
 263 0097 9B000000 		.4byte	0x9b
 264 009b 04       		.uleb128 0x4
 265 009c 08       		.byte	0x8
 266 009d 07       		.byte	0x7
 267 009e 72000000 		.4byte	.LASF13
 268 00a2 03       		.uleb128 0x3
 269 00a3 E7050000 		.4byte	.LASF14
 270 00a7 04       		.byte	0x4
 271 00a8 15       		.byte	0x15
 272 00a9 45000000 		.4byte	0x45
 273 00ad 03       		.uleb128 0x3
 274 00ae 60040000 		.4byte	.LASF15
 275 00b2 04       		.byte	0x4
 276 00b3 2C       		.byte	0x2c
 277 00b4 65000000 		.4byte	0x65
 278 00b8 03       		.uleb128 0x3
 279 00b9 DF040000 		.4byte	.LASF16
 280 00bd 04       		.byte	0x4
ARM GAS  C:\Users\jo\AppData\Local\Temp\ccOfoZWe.s 			page 6


 281 00be 2D       		.byte	0x2d
 282 00bf 77000000 		.4byte	0x77
 283 00c3 03       		.uleb128 0x3
 284 00c4 2B000000 		.4byte	.LASF17
 285 00c8 04       		.byte	0x4
 286 00c9 39       		.byte	0x39
 287 00ca 90000000 		.4byte	0x90
 288 00ce 05       		.uleb128 0x5
 289 00cf AD000000 		.4byte	0xad
 290 00d3 03       		.uleb128 0x3
 291 00d4 99050000 		.4byte	.LASF18
 292 00d8 05       		.byte	0x5
 293 00d9 45       		.byte	0x45
 294 00da B8000000 		.4byte	0xb8
 295 00de 03       		.uleb128 0x3
 296 00df 65020000 		.4byte	.LASF19
 297 00e3 05       		.byte	0x5
 298 00e4 48       		.byte	0x48
 299 00e5 A2000000 		.4byte	0xa2
 300 00e9 03       		.uleb128 0x3
 301 00ea 91010000 		.4byte	.LASF20
 302 00ee 05       		.byte	0x5
 303 00ef 49       		.byte	0x49
 304 00f0 A2000000 		.4byte	0xa2
 305 00f4 03       		.uleb128 0x3
 306 00f5 00000000 		.4byte	.LASF21
 307 00f9 05       		.byte	0x5
 308 00fa 4A       		.byte	0x4a
 309 00fb A2000000 		.4byte	0xa2
 310 00ff 03       		.uleb128 0x3
 311 0100 42040000 		.4byte	.LASF22
 312 0104 05       		.byte	0x5
 313 0105 4C       		.byte	0x4c
 314 0106 B8000000 		.4byte	0xb8
 315 010a 03       		.uleb128 0x3
 316 010b 4C020000 		.4byte	.LASF23
 317 010f 05       		.byte	0x5
 318 0110 4D       		.byte	0x4d
 319 0111 AD000000 		.4byte	0xad
 320 0115 03       		.uleb128 0x3
 321 0116 7B020000 		.4byte	.LASF24
 322 011a 05       		.byte	0x5
 323 011b 4F       		.byte	0x4f
 324 011c B8000000 		.4byte	0xb8
 325 0120 03       		.uleb128 0x3
 326 0121 F1010000 		.4byte	.LASF25
 327 0125 05       		.byte	0x5
 328 0126 51       		.byte	0x51
 329 0127 AD000000 		.4byte	0xad
 330 012b 03       		.uleb128 0x3
 331 012c 49050000 		.4byte	.LASF26
 332 0130 06       		.byte	0x6
 333 0131 33       		.byte	0x33
 334 0132 B8000000 		.4byte	0xb8
 335 0136 03       		.uleb128 0x3
 336 0137 39050000 		.4byte	.LASF27
 337 013b 06       		.byte	0x6
ARM GAS  C:\Users\jo\AppData\Local\Temp\ccOfoZWe.s 			page 7


 338 013c 3F       		.byte	0x3f
 339 013d 41010000 		.4byte	0x141
 340 0141 06       		.uleb128 0x6
 341 0142 42020000 		.4byte	.LASF48
 342 0146 48       		.byte	0x48
 343 0147 07       		.byte	0x7
 344 0148 C2       		.byte	0xc2
 345 0149 3A020000 		.4byte	0x23a
 346 014d 07       		.uleb128 0x7
 347 014e A0040000 		.4byte	.LASF28
 348 0152 07       		.byte	0x7
 349 0153 C3       		.byte	0xc3
 350 0154 45020000 		.4byte	0x245
 351 0158 00       		.byte	0
 352 0159 07       		.uleb128 0x7
 353 015a 3B040000 		.4byte	.LASF29
 354 015e 07       		.byte	0x7
 355 015f C5       		.byte	0xc5
 356 0160 45020000 		.4byte	0x245
 357 0164 04       		.byte	0x4
 358 0165 07       		.uleb128 0x7
 359 0166 EC000000 		.4byte	.LASF30
 360 016a 07       		.byte	0x7
 361 016b C7       		.byte	0xc7
 362 016c FF000000 		.4byte	0xff
 363 0170 08       		.byte	0x8
 364 0171 07       		.uleb128 0x7
 365 0172 2A060000 		.4byte	.LASF31
 366 0176 07       		.byte	0x7
 367 0177 C8       		.byte	0xc8
 368 0178 A0040000 		.4byte	0x4a0
 369 017c 0C       		.byte	0xc
 370 017d 07       		.uleb128 0x7
 371 017e A0010000 		.4byte	.LASF32
 372 0182 07       		.byte	0x7
 373 0183 CA       		.byte	0xca
 374 0184 45020000 		.4byte	0x245
 375 0188 10       		.byte	0x10
 376 0189 07       		.uleb128 0x7
 377 018a DB030000 		.4byte	.LASF33
 378 018e 07       		.byte	0x7
 379 018f CB       		.byte	0xcb
 380 0190 45020000 		.4byte	0x245
 381 0194 14       		.byte	0x14
 382 0195 07       		.uleb128 0x7
 383 0196 AF040000 		.4byte	.LASF34
 384 019a 07       		.byte	0x7
 385 019b D2       		.byte	0xd2
 386 019c B2060000 		.4byte	0x6b2
 387 01a0 18       		.byte	0x18
 388 01a1 07       		.uleb128 0x7
 389 01a2 F7010000 		.4byte	.LASF35
 390 01a6 07       		.byte	0x7
 391 01a7 D8       		.byte	0xd8
 392 01a8 C4060000 		.4byte	0x6c4
 393 01ac 1C       		.byte	0x1c
 394 01ad 07       		.uleb128 0x7
ARM GAS  C:\Users\jo\AppData\Local\Temp\ccOfoZWe.s 			page 8


 395 01ae 76040000 		.4byte	.LASF36
 396 01b2 07       		.byte	0x7
 397 01b3 DD       		.byte	0xdd
 398 01b4 E9000000 		.4byte	0xe9
 399 01b8 20       		.byte	0x20
 400 01b9 07       		.uleb128 0x7
 401 01ba A7040000 		.4byte	.LASF37
 402 01be 07       		.byte	0x7
 403 01bf E1       		.byte	0xe1
 404 01c0 DE000000 		.4byte	0xde
 405 01c4 21       		.byte	0x21
 406 01c5 07       		.uleb128 0x7
 407 01c6 C6050000 		.4byte	.LASF38
 408 01ca 07       		.byte	0x7
 409 01cb E6       		.byte	0xe6
 410 01cc F4000000 		.4byte	0xf4
 411 01d0 22       		.byte	0x22
 412 01d1 08       		.uleb128 0x8
 413 01d2 705F7500 		.ascii	"p_u\000"
 414 01d6 07       		.byte	0x7
 415 01d7 3101     		.2byte	0x131
 416 01d9 ED050000 		.4byte	0x5ed
 417 01dd 24       		.byte	0x24
 418 01de 09       		.uleb128 0x9
 419 01df 7C030000 		.4byte	.LASF39
 420 01e3 07       		.byte	0x7
 421 01e4 3601     		.2byte	0x136
 422 01e6 4B020000 		.4byte	0x24b
 423 01ea 28       		.byte	0x28
 424 01eb 09       		.uleb128 0x9
 425 01ec 1E020000 		.4byte	.LASF40
 426 01f0 07       		.byte	0x7
 427 01f1 3C01     		.2byte	0x13c
 428 01f3 6F020000 		.4byte	0x26f
 429 01f7 2C       		.byte	0x2c
 430 01f8 09       		.uleb128 0x9
 431 01f9 12060000 		.4byte	.LASF41
 432 01fd 07       		.byte	0x7
 433 01fe 4001     		.2byte	0x140
 434 0200 0A010000 		.4byte	0x10a
 435 0204 34       		.byte	0x34
 436 0205 09       		.uleb128 0x9
 437 0206 D4040000 		.4byte	.LASF42
 438 020a 07       		.byte	0x7
 439 020b 4601     		.2byte	0x146
 440 020d 15010000 		.4byte	0x115
 441 0211 38       		.byte	0x38
 442 0212 09       		.uleb128 0x9
 443 0213 7E040000 		.4byte	.LASF43
 444 0217 07       		.byte	0x7
 445 0218 4D01     		.2byte	0x14d
 446 021a AC060000 		.4byte	0x6ac
 447 021e 3C       		.byte	0x3c
 448 021f 09       		.uleb128 0x9
 449 0220 53050000 		.4byte	.LASF44
 450 0224 07       		.byte	0x7
 451 0225 5101     		.2byte	0x151
ARM GAS  C:\Users\jo\AppData\Local\Temp\ccOfoZWe.s 			page 9


 452 0227 FF000000 		.4byte	0xff
 453 022b 40       		.byte	0x40
 454 022c 09       		.uleb128 0x9
 455 022d 61010000 		.4byte	.LASF45
 456 0231 07       		.byte	0x7
 457 0232 5801     		.2byte	0x158
 458 0234 22030000 		.4byte	0x322
 459 0238 44       		.byte	0x44
 460 0239 00       		.byte	0
 461 023a 03       		.uleb128 0x3
 462 023b 8F030000 		.4byte	.LASF46
 463 023f 06       		.byte	0x6
 464 0240 44       		.byte	0x44
 465 0241 45020000 		.4byte	0x245
 466 0245 0A       		.uleb128 0xa
 467 0246 04       		.byte	0x4
 468 0247 36010000 		.4byte	0x136
 469 024b 03       		.uleb128 0x3
 470 024c F6050000 		.4byte	.LASF47
 471 0250 06       		.byte	0x6
 472 0251 49       		.byte	0x49
 473 0252 56020000 		.4byte	0x256
 474 0256 06       		.uleb128 0x6
 475 0257 00050000 		.4byte	.LASF49
 476 025b 04       		.byte	0x4
 477 025c 07       		.byte	0x7
 478 025d B0       		.byte	0xb0
 479 025e 6F020000 		.4byte	0x26f
 480 0262 07       		.uleb128 0x7
 481 0263 A0040000 		.4byte	.LASF28
 482 0267 07       		.byte	0x7
 483 0268 B1       		.byte	0xb1
 484 0269 45020000 		.4byte	0x245
 485 026d 00       		.byte	0
 486 026e 00       		.byte	0
 487 026f 03       		.uleb128 0x3
 488 0270 AD050000 		.4byte	.LASF50
 489 0274 06       		.byte	0x6
 490 0275 50       		.byte	0x50
 491 0276 7A020000 		.4byte	0x27a
 492 027a 06       		.uleb128 0x6
 493 027b DB000000 		.4byte	.LASF51
 494 027f 08       		.byte	0x8
 495 0280 07       		.byte	0x7
 496 0281 B7       		.byte	0xb7
 497 0282 9F020000 		.4byte	0x29f
 498 0286 07       		.uleb128 0x7
 499 0287 A0040000 		.4byte	.LASF28
 500 028b 07       		.byte	0x7
 501 028c B8       		.byte	0xb8
 502 028d 45020000 		.4byte	0x245
 503 0291 00       		.byte	0
 504 0292 07       		.uleb128 0x7
 505 0293 3B040000 		.4byte	.LASF29
 506 0297 07       		.byte	0x7
 507 0298 B9       		.byte	0xb9
 508 0299 45020000 		.4byte	0x245
ARM GAS  C:\Users\jo\AppData\Local\Temp\ccOfoZWe.s 			page 10


 509 029d 04       		.byte	0x4
 510 029e 00       		.byte	0
 511 029f 03       		.uleb128 0x3
 512 02a0 08000000 		.4byte	.LASF52
 513 02a4 06       		.byte	0x6
 514 02a5 57       		.byte	0x57
 515 02a6 AA020000 		.4byte	0x2aa
 516 02aa 0B       		.uleb128 0xb
 517 02ab 6D020000 		.4byte	.LASF53
 518 02af 1C       		.byte	0x1c
 519 02b0 07       		.byte	0x7
 520 02b1 9001     		.2byte	0x190
 521 02b3 06030000 		.4byte	0x306
 522 02b7 09       		.uleb128 0x9
 523 02b8 EF040000 		.4byte	.LASF54
 524 02bc 07       		.byte	0x7
 525 02bd 9101     		.2byte	0x191
 526 02bf 6F020000 		.4byte	0x26f
 527 02c3 00       		.byte	0
 528 02c4 09       		.uleb128 0x9
 529 02c5 92040000 		.4byte	.LASF55
 530 02c9 07       		.byte	0x7
 531 02ca 9201     		.2byte	0x192
 532 02cc FF000000 		.4byte	0xff
 533 02d0 08       		.byte	0x8
 534 02d1 09       		.uleb128 0x9
 535 02d2 E3030000 		.4byte	.LASF56
 536 02d6 07       		.byte	0x7
 537 02d7 9401     		.2byte	0x194
 538 02d9 A0040000 		.4byte	0x4a0
 539 02dd 0C       		.byte	0xc
 540 02de 09       		.uleb128 0x9
 541 02df B8010000 		.4byte	.LASF57
 542 02e3 07       		.byte	0x7
 543 02e4 9701     		.2byte	0x197
 544 02e6 45020000 		.4byte	0x245
 545 02ea 10       		.byte	0x10
 546 02eb 09       		.uleb128 0x9
 547 02ec 04040000 		.4byte	.LASF58
 548 02f0 07       		.byte	0x7
 549 02f1 9801     		.2byte	0x198
 550 02f3 45020000 		.4byte	0x245
 551 02f7 14       		.byte	0x14
 552 02f8 09       		.uleb128 0x9
 553 02f9 FA030000 		.4byte	.LASF59
 554 02fd 07       		.byte	0x7
 555 02fe 9B01     		.2byte	0x19b
 556 0300 45020000 		.4byte	0x245
 557 0304 18       		.byte	0x18
 558 0305 00       		.byte	0
 559 0306 03       		.uleb128 0x3
 560 0307 5E050000 		.4byte	.LASF60
 561 030b 06       		.byte	0x6
 562 030c 5C       		.byte	0x5c
 563 030d 11030000 		.4byte	0x311
 564 0311 0A       		.uleb128 0xa
 565 0312 04       		.byte	0x4
ARM GAS  C:\Users\jo\AppData\Local\Temp\ccOfoZWe.s 			page 11


 566 0313 17030000 		.4byte	0x317
 567 0317 0C       		.uleb128 0xc
 568 0318 22030000 		.4byte	0x322
 569 031c 0D       		.uleb128 0xd
 570 031d 22030000 		.4byte	0x322
 571 0321 00       		.byte	0
 572 0322 0E       		.uleb128 0xe
 573 0323 04       		.byte	0x4
 574 0324 03       		.uleb128 0x3
 575 0325 2B040000 		.4byte	.LASF61
 576 0329 06       		.byte	0x6
 577 032a 61       		.byte	0x61
 578 032b 2F030000 		.4byte	0x32f
 579 032f 0B       		.uleb128 0xb
 580 0330 B6040000 		.4byte	.LASF62
 581 0334 14       		.byte	0x14
 582 0335 07       		.byte	0x7
 583 0336 6B01     		.2byte	0x16b
 584 0338 7E030000 		.4byte	0x37e
 585 033c 09       		.uleb128 0x9
 586 033d 0F020000 		.4byte	.LASF63
 587 0341 07       		.byte	0x7
 588 0342 6C01     		.2byte	0x16c
 589 0344 CA060000 		.4byte	0x6ca
 590 0348 00       		.byte	0
 591 0349 09       		.uleb128 0x9
 592 034a C9010000 		.4byte	.LASF64
 593 034e 07       		.byte	0x7
 594 034f 6D01     		.2byte	0x16d
 595 0351 CA060000 		.4byte	0x6ca
 596 0355 04       		.byte	0x4
 597 0356 09       		.uleb128 0x9
 598 0357 F7040000 		.4byte	.LASF65
 599 035b 07       		.byte	0x7
 600 035c 6E01     		.2byte	0x16e
 601 035e 2B010000 		.4byte	0x12b
 602 0362 08       		.byte	0x8
 603 0363 09       		.uleb128 0x9
 604 0364 30060000 		.4byte	.LASF66
 605 0368 07       		.byte	0x7
 606 0369 6F01     		.2byte	0x16f
 607 036b 06030000 		.4byte	0x306
 608 036f 0C       		.byte	0xc
 609 0370 09       		.uleb128 0x9
 610 0371 A1050000 		.4byte	.LASF67
 611 0375 07       		.byte	0x7
 612 0376 7101     		.2byte	0x171
 613 0378 22030000 		.4byte	0x322
 614 037c 10       		.byte	0x10
 615 037d 00       		.byte	0
 616 037e 03       		.uleb128 0x3
 617 037f B8000000 		.4byte	.LASF68
 618 0383 06       		.byte	0x6
 619 0384 66       		.byte	0x66
 620 0385 89030000 		.4byte	0x389
 621 0389 0B       		.uleb128 0xb
 622 038a A2030000 		.4byte	.LASF69
ARM GAS  C:\Users\jo\AppData\Local\Temp\ccOfoZWe.s 			page 12


 623 038e 10       		.byte	0x10
 624 038f 07       		.byte	0x7
 625 0390 7B01     		.2byte	0x17b
 626 0392 CB030000 		.4byte	0x3cb
 627 0396 09       		.uleb128 0x9
 628 0397 0F020000 		.4byte	.LASF63
 629 039b 07       		.byte	0x7
 630 039c 7C01     		.2byte	0x17c
 631 039e CA060000 		.4byte	0x6ca
 632 03a2 00       		.byte	0
 633 03a3 09       		.uleb128 0x9
 634 03a4 C9010000 		.4byte	.LASF64
 635 03a8 07       		.byte	0x7
 636 03a9 7E01     		.2byte	0x17e
 637 03ab CA060000 		.4byte	0x6ca
 638 03af 04       		.byte	0x4
 639 03b0 09       		.uleb128 0x9
 640 03b1 F7040000 		.4byte	.LASF65
 641 03b5 07       		.byte	0x7
 642 03b6 8001     		.2byte	0x180
 643 03b8 2B010000 		.4byte	0x12b
 644 03bc 08       		.byte	0x8
 645 03bd 09       		.uleb128 0x9
 646 03be CF030000 		.4byte	.LASF70
 647 03c2 07       		.byte	0x7
 648 03c3 8801     		.2byte	0x188
 649 03c5 2B010000 		.4byte	0x12b
 650 03c9 0C       		.byte	0xc
 651 03ca 00       		.byte	0
 652 03cb 03       		.uleb128 0x3
 653 03cc 63000000 		.4byte	.LASF71
 654 03d0 06       		.byte	0x6
 655 03d1 6B       		.byte	0x6b
 656 03d2 D6030000 		.4byte	0x3d6
 657 03d6 0F       		.uleb128 0xf
 658 03d7 4A040000 		.4byte	.LASF72
 659 03db 1404     		.2byte	0x414
 660 03dd 07       		.byte	0x7
 661 03de A201     		.2byte	0x1a2
 662 03e0 19040000 		.4byte	0x419
 663 03e4 09       		.uleb128 0x9
 664 03e5 80050000 		.4byte	.LASF73
 665 03e9 07       		.byte	0x7
 666 03ea AA01     		.2byte	0x1aa
 667 03ec D0060000 		.4byte	0x6d0
 668 03f0 00       		.byte	0
 669 03f1 09       		.uleb128 0x9
 670 03f2 CD050000 		.4byte	.LASF74
 671 03f6 07       		.byte	0x7
 672 03f7 AF01     		.2byte	0x1af
 673 03f9 20010000 		.4byte	0x120
 674 03fd 04       		.byte	0x4
 675 03fe 09       		.uleb128 0x9
 676 03ff D9010000 		.4byte	.LASF75
 677 0403 07       		.byte	0x7
 678 0404 B301     		.2byte	0x1b3
 679 0406 20010000 		.4byte	0x120
ARM GAS  C:\Users\jo\AppData\Local\Temp\ccOfoZWe.s 			page 13


 680 040a 08       		.byte	0x8
 681 040b 09       		.uleb128 0x9
 682 040c 05060000 		.4byte	.LASF76
 683 0410 07       		.byte	0x7
 684 0411 B901     		.2byte	0x1b9
 685 0413 C2050000 		.4byte	0x5c2
 686 0417 0C       		.byte	0xc
 687 0418 00       		.byte	0
 688 0419 03       		.uleb128 0x3
 689 041a 52020000 		.4byte	.LASF77
 690 041e 06       		.byte	0x6
 691 041f 70       		.byte	0x70
 692 0420 24040000 		.4byte	0x424
 693 0424 0F       		.uleb128 0xf
 694 0425 7E010000 		.4byte	.LASF78
 695 0429 7005     		.2byte	0x570
 696 042b 07       		.byte	0x7
 697 042c C201     		.2byte	0x1c2
 698 042e 83040000 		.4byte	0x483
 699 0432 09       		.uleb128 0x9
 700 0433 E1050000 		.4byte	.LASF79
 701 0437 07       		.byte	0x7
 702 0438 C601     		.2byte	0x1c6
 703 043a 9F020000 		.4byte	0x29f
 704 043e 00       		.byte	0
 705 043f 09       		.uleb128 0x9
 706 0440 71010000 		.4byte	.LASF80
 707 0444 07       		.byte	0x7
 708 0445 CA01     		.2byte	0x1ca
 709 0447 7E030000 		.4byte	0x37e
 710 044b 1C       		.byte	0x1c
 711 044c 08       		.uleb128 0x8
 712 044d 64626700 		.ascii	"dbg\000"
 713 0451 07       		.byte	0x7
 714 0452 CE01     		.2byte	0x1ce
 715 0454 CB030000 		.4byte	0x3cb
 716 0458 2C       		.byte	0x2c
 717 0459 10       		.uleb128 0x10
 718 045a AD000000 		.4byte	.LASF81
 719 045e 07       		.byte	0x7
 720 045f D201     		.2byte	0x1d2
 721 0461 36010000 		.4byte	0x136
 722 0465 4004     		.2byte	0x440
 723 0467 11       		.uleb128 0x11
 724 0468 746D00   		.ascii	"tm\000"
 725 046b 07       		.byte	0x7
 726 046c D701     		.2byte	0x1d7
 727 046e E2050000 		.4byte	0x5e2
 728 0472 8804     		.2byte	0x488
 729 0474 10       		.uleb128 0x10
 730 0475 E2010000 		.4byte	.LASF82
 731 0479 07       		.byte	0x7
 732 047a E301     		.2byte	0x1e3
 733 047c D5060000 		.4byte	0x6d5
 734 0480 9004     		.2byte	0x490
 735 0482 00       		.byte	0
 736 0483 04       		.uleb128 0x4
ARM GAS  C:\Users\jo\AppData\Local\Temp\ccOfoZWe.s 			page 14


 737 0484 04       		.byte	0x4
 738 0485 07       		.byte	0x7
 739 0486 86030000 		.4byte	.LASF83
 740 048a 03       		.uleb128 0x3
 741 048b C0010000 		.4byte	.LASF84
 742 048f 08       		.byte	0x8
 743 0490 65       		.byte	0x65
 744 0491 22030000 		.4byte	0x322
 745 0495 03       		.uleb128 0x3
 746 0496 6B030000 		.4byte	.LASF85
 747 049a 08       		.byte	0x8
 748 049b 6D       		.byte	0x6d
 749 049c C3000000 		.4byte	0xc3
 750 04a0 06       		.uleb128 0x6
 751 04a1 91050000 		.4byte	.LASF86
 752 04a5 04       		.byte	0x4
 753 04a6 08       		.byte	0x8
 754 04a7 89       		.byte	0x89
 755 04a8 B9040000 		.4byte	0x4b9
 756 04ac 12       		.uleb128 0x12
 757 04ad 72313300 		.ascii	"r13\000"
 758 04b1 08       		.byte	0x8
 759 04b2 8A       		.byte	0x8a
 760 04b3 34050000 		.4byte	0x534
 761 04b7 00       		.byte	0
 762 04b8 00       		.byte	0
 763 04b9 06       		.uleb128 0x6
 764 04ba 57000000 		.4byte	.LASF87
 765 04be 24       		.byte	0x24
 766 04bf 09       		.byte	0x9
 767 04c0 F4       		.byte	0xf4
 768 04c1 34050000 		.4byte	0x534
 769 04c5 08       		.uleb128 0x8
 770 04c6 723400   		.ascii	"r4\000"
 771 04c9 09       		.byte	0x9
 772 04ca 0701     		.2byte	0x107
 773 04cc 8A040000 		.4byte	0x48a
 774 04d0 00       		.byte	0
 775 04d1 08       		.uleb128 0x8
 776 04d2 723500   		.ascii	"r5\000"
 777 04d5 09       		.byte	0x9
 778 04d6 0801     		.2byte	0x108
 779 04d8 8A040000 		.4byte	0x48a
 780 04dc 04       		.byte	0x4
 781 04dd 08       		.uleb128 0x8
 782 04de 723600   		.ascii	"r6\000"
 783 04e1 09       		.byte	0x9
 784 04e2 0901     		.2byte	0x109
 785 04e4 8A040000 		.4byte	0x48a
 786 04e8 08       		.byte	0x8
 787 04e9 08       		.uleb128 0x8
 788 04ea 723700   		.ascii	"r7\000"
 789 04ed 09       		.byte	0x9
 790 04ee 0A01     		.2byte	0x10a
 791 04f0 8A040000 		.4byte	0x48a
 792 04f4 0C       		.byte	0xc
 793 04f5 08       		.uleb128 0x8
ARM GAS  C:\Users\jo\AppData\Local\Temp\ccOfoZWe.s 			page 15


 794 04f6 723800   		.ascii	"r8\000"
 795 04f9 09       		.byte	0x9
 796 04fa 0B01     		.2byte	0x10b
 797 04fc 8A040000 		.4byte	0x48a
 798 0500 10       		.byte	0x10
 799 0501 08       		.uleb128 0x8
 800 0502 723900   		.ascii	"r9\000"
 801 0505 09       		.byte	0x9
 802 0506 0C01     		.2byte	0x10c
 803 0508 8A040000 		.4byte	0x48a
 804 050c 14       		.byte	0x14
 805 050d 08       		.uleb128 0x8
 806 050e 72313000 		.ascii	"r10\000"
 807 0512 09       		.byte	0x9
 808 0513 0D01     		.2byte	0x10d
 809 0515 8A040000 		.4byte	0x48a
 810 0519 18       		.byte	0x18
 811 051a 08       		.uleb128 0x8
 812 051b 72313100 		.ascii	"r11\000"
 813 051f 09       		.byte	0x9
 814 0520 0E01     		.2byte	0x10e
 815 0522 8A040000 		.4byte	0x48a
 816 0526 1C       		.byte	0x1c
 817 0527 08       		.uleb128 0x8
 818 0528 6C7200   		.ascii	"lr\000"
 819 052b 09       		.byte	0x9
 820 052c 0F01     		.2byte	0x10f
 821 052e 8A040000 		.4byte	0x48a
 822 0532 20       		.byte	0x20
 823 0533 00       		.byte	0
 824 0534 0A       		.uleb128 0xa
 825 0535 04       		.byte	0x4
 826 0536 B9040000 		.4byte	0x4b9
 827 053a 13       		.uleb128 0x13
 828 053b 10       		.byte	0x10
 829 053c 0A       		.byte	0xa
 830 053d 51       		.byte	0x51
 831 053e 73050000 		.4byte	0x573
 832 0542 07       		.uleb128 0x7
 833 0543 15000000 		.4byte	.LASF88
 834 0547 0A       		.byte	0xa
 835 0548 55       		.byte	0x55
 836 0549 2B010000 		.4byte	0x12b
 837 054d 00       		.byte	0
 838 054e 07       		.uleb128 0x7
 839 054f 9A010000 		.4byte	.LASF89
 840 0553 0A       		.byte	0xa
 841 0554 59       		.byte	0x59
 842 0555 45020000 		.4byte	0x245
 843 0559 04       		.byte	0x4
 844 055a 07       		.uleb128 0x7
 845 055b 20060000 		.4byte	.LASF90
 846 055f 0A       		.byte	0xa
 847 0560 5D       		.byte	0x5d
 848 0561 22030000 		.4byte	0x322
 849 0565 08       		.byte	0x8
 850 0566 07       		.uleb128 0x7
ARM GAS  C:\Users\jo\AppData\Local\Temp\ccOfoZWe.s 			page 16


 851 0567 9B000000 		.4byte	.LASF91
 852 056b 0A       		.byte	0xa
 853 056c 61       		.byte	0x61
 854 056d A2000000 		.4byte	0xa2
 855 0571 0C       		.byte	0xc
 856 0572 00       		.byte	0
 857 0573 03       		.uleb128 0x3
 858 0574 C0030000 		.4byte	.LASF92
 859 0578 0A       		.byte	0xa
 860 0579 62       		.byte	0x62
 861 057a 3A050000 		.4byte	0x53a
 862 057e 14       		.uleb128 0x14
 863 057f 0804     		.2byte	0x408
 864 0581 0A       		.byte	0xa
 865 0582 67       		.byte	0x67
 866 0583 AC050000 		.4byte	0x5ac
 867 0587 07       		.uleb128 0x7
 868 0588 B0010000 		.4byte	.LASF93
 869 058c 0A       		.byte	0xa
 870 058d 6B       		.byte	0x6b
 871 058e 37000000 		.4byte	0x37
 872 0592 00       		.byte	0
 873 0593 07       		.uleb128 0x7
 874 0594 B9030000 		.4byte	.LASF94
 875 0598 0A       		.byte	0xa
 876 0599 6F       		.byte	0x6f
 877 059a AC050000 		.4byte	0x5ac
 878 059e 04       		.byte	0x4
 879 059f 07       		.uleb128 0x7
 880 05a0 21040000 		.4byte	.LASF95
 881 05a4 0A       		.byte	0xa
 882 05a5 73       		.byte	0x73
 883 05a6 B2050000 		.4byte	0x5b2
 884 05aa 08       		.byte	0x8
 885 05ab 00       		.byte	0
 886 05ac 0A       		.uleb128 0xa
 887 05ad 04       		.byte	0x4
 888 05ae 73050000 		.4byte	0x573
 889 05b2 15       		.uleb128 0x15
 890 05b3 73050000 		.4byte	0x573
 891 05b7 C2050000 		.4byte	0x5c2
 892 05bb 16       		.uleb128 0x16
 893 05bc 83040000 		.4byte	0x483
 894 05c0 3F       		.byte	0x3f
 895 05c1 00       		.byte	0
 896 05c2 03       		.uleb128 0x3
 897 05c3 89000000 		.4byte	.LASF96
 898 05c7 0A       		.byte	0xa
 899 05c8 74       		.byte	0x74
 900 05c9 7E050000 		.4byte	0x57e
 901 05cd 13       		.uleb128 0x13
 902 05ce 04       		.byte	0x4
 903 05cf 0B       		.byte	0xb
 904 05d0 38       		.byte	0x38
 905 05d1 E2050000 		.4byte	0x5e2
 906 05d5 07       		.uleb128 0x7
 907 05d6 8A050000 		.4byte	.LASF97
ARM GAS  C:\Users\jo\AppData\Local\Temp\ccOfoZWe.s 			page 17


 908 05da 0B       		.byte	0xb
 909 05db 3C       		.byte	0x3c
 910 05dc D3000000 		.4byte	0xd3
 911 05e0 00       		.byte	0
 912 05e1 00       		.byte	0
 913 05e2 03       		.uleb128 0x3
 914 05e3 E9030000 		.4byte	.LASF98
 915 05e7 0B       		.byte	0xb
 916 05e8 3D       		.byte	0x3d
 917 05e9 CD050000 		.4byte	0x5cd
 918 05ed 17       		.uleb128 0x17
 919 05ee 04       		.byte	0x4
 920 05ef 07       		.byte	0x7
 921 05f0 FA       		.byte	0xfa
 922 05f1 4A060000 		.4byte	0x64a
 923 05f5 18       		.uleb128 0x18
 924 05f6 24000000 		.4byte	.LASF99
 925 05fa 07       		.byte	0x7
 926 05fb 0101     		.2byte	0x101
 927 05fd 0A010000 		.4byte	0x10a
 928 0601 18       		.uleb128 0x18
 929 0602 A4000000 		.4byte	.LASF100
 930 0606 07       		.byte	0x7
 931 0607 0801     		.2byte	0x108
 932 0609 0A010000 		.4byte	0x10a
 933 060d 18       		.uleb128 0x18
 934 060e EF050000 		.4byte	.LASF101
 935 0612 07       		.byte	0x7
 936 0613 0F01     		.2byte	0x10f
 937 0615 22030000 		.4byte	0x322
 938 0619 18       		.uleb128 0x18
 939 061a 78010000 		.4byte	.LASF102
 940 061e 07       		.byte	0x7
 941 061f 1601     		.2byte	0x116
 942 0621 4A060000 		.4byte	0x64a
 943 0625 18       		.uleb128 0x18
 944 0626 17020000 		.4byte	.LASF103
 945 062a 07       		.byte	0x7
 946 062b 1E01     		.2byte	0x11e
 947 062d 75060000 		.4byte	0x675
 948 0631 18       		.uleb128 0x18
 949 0632 E8040000 		.4byte	.LASF104
 950 0636 07       		.byte	0x7
 951 0637 2701     		.2byte	0x127
 952 0639 AC060000 		.4byte	0x6ac
 953 063d 18       		.uleb128 0x18
 954 063e 99040000 		.4byte	.LASF105
 955 0642 07       		.byte	0x7
 956 0643 2F01     		.2byte	0x12f
 957 0645 15010000 		.4byte	0x115
 958 0649 00       		.byte	0
 959 064a 0A       		.uleb128 0xa
 960 064b 04       		.byte	0x4
 961 064c 3A020000 		.4byte	0x23a
 962 0650 06       		.uleb128 0x6
 963 0651 C7040000 		.4byte	.LASF106
 964 0655 0C       		.byte	0xc
ARM GAS  C:\Users\jo\AppData\Local\Temp\ccOfoZWe.s 			page 18


 965 0656 0C       		.byte	0xc
 966 0657 34       		.byte	0x34
 967 0658 75060000 		.4byte	0x675
 968 065c 07       		.uleb128 0x7
 969 065d A8010000 		.4byte	.LASF107
 970 0661 0C       		.byte	0xc
 971 0662 35       		.byte	0x35
 972 0663 6F020000 		.4byte	0x26f
 973 0667 00       		.byte	0
 974 0668 07       		.uleb128 0x7
 975 0669 29020000 		.4byte	.LASF108
 976 066d 0C       		.byte	0xc
 977 066e 37       		.byte	0x37
 978 066f 20010000 		.4byte	0x120
 979 0673 08       		.byte	0x8
 980 0674 00       		.byte	0
 981 0675 0A       		.uleb128 0xa
 982 0676 04       		.byte	0x4
 983 0677 50060000 		.4byte	0x650
 984 067b 06       		.uleb128 0x6
 985 067c BD050000 		.4byte	.LASF109
 986 0680 10       		.byte	0x10
 987 0681 0D       		.byte	0xd
 988 0682 39       		.byte	0x39
 989 0683 AC060000 		.4byte	0x6ac
 990 0687 07       		.uleb128 0x7
 991 0688 69010000 		.4byte	.LASF110
 992 068c 0D       		.byte	0xd
 993 068d 3A       		.byte	0x3a
 994 068e 6F020000 		.4byte	0x26f
 995 0692 00       		.byte	0
 996 0693 07       		.uleb128 0x7
 997 0694 18060000 		.4byte	.LASF111
 998 0698 0D       		.byte	0xd
 999 0699 3C       		.byte	0x3c
 1000 069a 45020000 		.4byte	0x245
 1001 069e 08       		.byte	0x8
 1002 069f 07       		.uleb128 0x7
 1003 06a0 42050000 		.4byte	.LASF112
 1004 06a4 0D       		.byte	0xd
 1005 06a5 3E       		.byte	0x3e
 1006 06a6 F0060000 		.4byte	0x6f0
 1007 06aa 0C       		.byte	0xc
 1008 06ab 00       		.byte	0
 1009 06ac 0A       		.uleb128 0xa
 1010 06ad 04       		.byte	0x4
 1011 06ae 7B060000 		.4byte	0x67b
 1012 06b2 0A       		.uleb128 0xa
 1013 06b3 04       		.byte	0x4
 1014 06b4 B8060000 		.4byte	0x6b8
 1015 06b8 19       		.uleb128 0x19
 1016 06b9 BD060000 		.4byte	0x6bd
 1017 06bd 04       		.uleb128 0x4
 1018 06be 01       		.byte	0x1
 1019 06bf 08       		.byte	0x8
 1020 06c0 27050000 		.4byte	.LASF113
 1021 06c4 0A       		.uleb128 0xa
ARM GAS  C:\Users\jo\AppData\Local\Temp\ccOfoZWe.s 			page 19


 1022 06c5 04       		.byte	0x4
 1023 06c6 95040000 		.4byte	0x495
 1024 06ca 0A       		.uleb128 0xa
 1025 06cb 04       		.byte	0x4
 1026 06cc 24030000 		.4byte	0x324
 1027 06d0 05       		.uleb128 0x5
 1028 06d1 B2060000 		.4byte	0x6b2
 1029 06d5 15       		.uleb128 0x15
 1030 06d6 95040000 		.4byte	0x495
 1031 06da E5060000 		.4byte	0x6e5
 1032 06de 16       		.uleb128 0x16
 1033 06df 83040000 		.4byte	0x483
 1034 06e3 1B       		.byte	0x1b
 1035 06e4 00       		.byte	0
 1036 06e5 03       		.uleb128 0x3
 1037 06e6 D1010000 		.4byte	.LASF114
 1038 06ea 0D       		.byte	0xd
 1039 06eb 34       		.byte	0x34
 1040 06ec 7B060000 		.4byte	0x67b
 1041 06f0 0A       		.uleb128 0xa
 1042 06f1 04       		.byte	0x4
 1043 06f2 E5060000 		.4byte	0x6e5
 1044 06f6 0A       		.uleb128 0xa
 1045 06f7 04       		.byte	0x4
 1046 06f8 A2000000 		.4byte	0xa2
 1047 06fc 1A       		.uleb128 0x1a
 1048 06fd 2C000000 		.4byte	0x2c
 1049 0701 15070000 		.4byte	0x715
 1050 0705 0D       		.uleb128 0xd
 1051 0706 22030000 		.4byte	0x322
 1052 070a 0D       		.uleb128 0xd
 1053 070b 15070000 		.4byte	0x715
 1054 070f 0D       		.uleb128 0xd
 1055 0710 2C000000 		.4byte	0x2c
 1056 0714 00       		.byte	0
 1057 0715 0A       		.uleb128 0xa
 1058 0716 04       		.byte	0x4
 1059 0717 1B070000 		.4byte	0x71b
 1060 071b 19       		.uleb128 0x19
 1061 071c A2000000 		.4byte	0xa2
 1062 0720 0A       		.uleb128 0xa
 1063 0721 04       		.byte	0x4
 1064 0722 FC060000 		.4byte	0x6fc
 1065 0726 1A       		.uleb128 0x1a
 1066 0727 2C000000 		.4byte	0x2c
 1067 072b 3F070000 		.4byte	0x73f
 1068 072f 0D       		.uleb128 0xd
 1069 0730 22030000 		.4byte	0x322
 1070 0734 0D       		.uleb128 0xd
 1071 0735 F6060000 		.4byte	0x6f6
 1072 0739 0D       		.uleb128 0xd
 1073 073a 2C000000 		.4byte	0x2c
 1074 073e 00       		.byte	0
 1075 073f 0A       		.uleb128 0xa
 1076 0740 04       		.byte	0x4
 1077 0741 26070000 		.4byte	0x726
 1078 0745 1A       		.uleb128 0x1a
ARM GAS  C:\Users\jo\AppData\Local\Temp\ccOfoZWe.s 			page 20


 1079 0746 0A010000 		.4byte	0x10a
 1080 074a 59070000 		.4byte	0x759
 1081 074e 0D       		.uleb128 0xd
 1082 074f 22030000 		.4byte	0x322
 1083 0753 0D       		.uleb128 0xd
 1084 0754 A2000000 		.4byte	0xa2
 1085 0758 00       		.byte	0
 1086 0759 0A       		.uleb128 0xa
 1087 075a 04       		.byte	0x4
 1088 075b 45070000 		.4byte	0x745
 1089 075f 1A       		.uleb128 0x1a
 1090 0760 0A010000 		.4byte	0x10a
 1091 0764 6E070000 		.4byte	0x76e
 1092 0768 0D       		.uleb128 0xd
 1093 0769 22030000 		.4byte	0x322
 1094 076d 00       		.byte	0
 1095 076e 0A       		.uleb128 0xa
 1096 076f 04       		.byte	0x4
 1097 0770 5F070000 		.4byte	0x75f
 1098 0774 04       		.uleb128 0x4
 1099 0775 01       		.byte	0x1
 1100 0776 02       		.byte	0x2
 1101 0777 5A040000 		.4byte	.LASF115
 1102 077b 06       		.uleb128 0x6
 1103 077c 2C050000 		.4byte	.LASF116
 1104 0780 10       		.byte	0x10
 1105 0781 0E       		.byte	0xe
 1106 0782 2E       		.byte	0x2e
 1107 0783 B8070000 		.4byte	0x7b8
 1108 0787 07       		.uleb128 0x7
 1109 0788 76030000 		.4byte	.LASF117
 1110 078c 0E       		.byte	0xe
 1111 078d 2F       		.byte	0x2f
 1112 078e 20070000 		.4byte	0x720
 1113 0792 00       		.byte	0
 1114 0793 07       		.uleb128 0x7
 1115 0794 22050000 		.4byte	.LASF118
 1116 0798 0E       		.byte	0xe
 1117 0799 2F       		.byte	0x2f
 1118 079a 3F070000 		.4byte	0x73f
 1119 079e 04       		.byte	0x4
 1120 079f 12       		.uleb128 0x12
 1121 07a0 70757400 		.ascii	"put\000"
 1122 07a4 0E       		.byte	0xe
 1123 07a5 2F       		.byte	0x2f
 1124 07a6 59070000 		.4byte	0x759
 1125 07aa 08       		.byte	0x8
 1126 07ab 12       		.uleb128 0x12
 1127 07ac 67657400 		.ascii	"get\000"
 1128 07b0 0E       		.byte	0xe
 1129 07b1 2F       		.byte	0x2f
 1130 07b2 6E070000 		.4byte	0x76e
 1131 07b6 0C       		.byte	0xc
 1132 07b7 00       		.byte	0
 1133 07b8 13       		.uleb128 0x13
 1134 07b9 04       		.byte	0x4
 1135 07ba 0E       		.byte	0xe
ARM GAS  C:\Users\jo\AppData\Local\Temp\ccOfoZWe.s 			page 21


 1136 07bb 39       		.byte	0x39
 1137 07bc CD070000 		.4byte	0x7cd
 1138 07c0 12       		.uleb128 0x12
 1139 07c1 766D7400 		.ascii	"vmt\000"
 1140 07c5 0E       		.byte	0xe
 1141 07c6 3B       		.byte	0x3b
 1142 07c7 CD070000 		.4byte	0x7cd
 1143 07cb 00       		.byte	0
 1144 07cc 00       		.byte	0
 1145 07cd 0A       		.uleb128 0xa
 1146 07ce 04       		.byte	0x4
 1147 07cf D3070000 		.4byte	0x7d3
 1148 07d3 19       		.uleb128 0x19
 1149 07d4 7B070000 		.4byte	0x77b
 1150 07d8 03       		.uleb128 0x3
 1151 07d9 17040000 		.4byte	.LASF119
 1152 07dd 0E       		.byte	0xe
 1153 07de 3D       		.byte	0x3d
 1154 07df B8070000 		.4byte	0x7b8
 1155 07e3 1B       		.uleb128 0x1b
 1156 07e4 70757400 		.ascii	"put\000"
 1157 07e8 01       		.byte	0x1
 1158 07e9 27       		.byte	0x27
 1159 07ea 0A010000 		.4byte	0x10a
 1160 07ee 01       		.byte	0x1
 1161 07ef 07080000 		.4byte	0x807
 1162 07f3 1C       		.uleb128 0x1c
 1163 07f4 697000   		.ascii	"ip\000"
 1164 07f7 01       		.byte	0x1
 1165 07f8 27       		.byte	0x27
 1166 07f9 22030000 		.4byte	0x322
 1167 07fd 1C       		.uleb128 0x1c
 1168 07fe 6200     		.ascii	"b\000"
 1169 0800 01       		.byte	0x1
 1170 0801 27       		.byte	0x27
 1171 0802 A2000000 		.4byte	0xa2
 1172 0806 00       		.byte	0
 1173 0807 1D       		.uleb128 0x1d
 1174 0808 67657400 		.ascii	"get\000"
 1175 080c 01       		.byte	0x1
 1176 080d 30       		.byte	0x30
 1177 080e 0A010000 		.4byte	0x10a
 1178 0812 00000000 		.4byte	.LFB260
 1179 0816 04000000 		.4byte	.LFE260-.LFB260
 1180 081a 01       		.uleb128 0x1
 1181 081b 9C       		.byte	0x9c
 1182 081c 2F080000 		.4byte	0x82f
 1183 0820 1E       		.uleb128 0x1e
 1184 0821 697000   		.ascii	"ip\000"
 1185 0824 01       		.byte	0x1
 1186 0825 30       		.byte	0x30
 1187 0826 22030000 		.4byte	0x322
 1188 082a 00000000 		.4byte	.LLST0
 1189 082e 00       		.byte	0
 1190 082f 1F       		.uleb128 0x1f
 1191 0830 F3000000 		.4byte	.LASF120
 1192 0834 01       		.byte	0x1
ARM GAS  C:\Users\jo\AppData\Local\Temp\ccOfoZWe.s 			page 22


 1193 0835 43       		.byte	0x43
 1194 0836 2C000000 		.4byte	0x2c
 1195 083a 00000000 		.4byte	.LFB262
 1196 083e 04000000 		.4byte	.LFE262-.LFB262
 1197 0842 01       		.uleb128 0x1
 1198 0843 9C       		.byte	0x9c
 1199 0844 6E080000 		.4byte	0x86e
 1200 0848 1E       		.uleb128 0x1e
 1201 0849 697000   		.ascii	"ip\000"
 1202 084c 01       		.byte	0x1
 1203 084d 43       		.byte	0x43
 1204 084e 22030000 		.4byte	0x322
 1205 0852 21000000 		.4byte	.LLST1
 1206 0856 20       		.uleb128 0x20
 1207 0857 627000   		.ascii	"bp\000"
 1208 085a 01       		.byte	0x1
 1209 085b 43       		.byte	0x43
 1210 085c F6060000 		.4byte	0x6f6
 1211 0860 01       		.uleb128 0x1
 1212 0861 51       		.byte	0x51
 1213 0862 20       		.uleb128 0x20
 1214 0863 6E00     		.ascii	"n\000"
 1215 0865 01       		.byte	0x1
 1216 0866 43       		.byte	0x43
 1217 0867 2C000000 		.4byte	0x2c
 1218 086b 01       		.uleb128 0x1
 1219 086c 52       		.byte	0x52
 1220 086d 00       		.byte	0
 1221 086e 21       		.uleb128 0x21
 1222 086f E3070000 		.4byte	0x7e3
 1223 0873 00000000 		.4byte	.LFB259
 1224 0877 0C000000 		.4byte	.LFE259-.LFB259
 1225 087b 01       		.uleb128 0x1
 1226 087c 9C       		.byte	0x9c
 1227 087d 9D080000 		.4byte	0x89d
 1228 0881 22       		.uleb128 0x22
 1229 0882 F3070000 		.4byte	0x7f3
 1230 0886 42000000 		.4byte	.LLST2
 1231 088a 22       		.uleb128 0x22
 1232 088b FD070000 		.4byte	0x7fd
 1233 088f 63000000 		.4byte	.LLST3
 1234 0893 23       		.uleb128 0x23
 1235 0894 08000000 		.4byte	.LVL6
 1236 0898 6B090000 		.4byte	0x96b
 1237 089c 00       		.byte	0
 1238 089d 1F       		.uleb128 0x1f
 1239 089e 5E020000 		.4byte	.LASF121
 1240 08a2 01       		.byte	0x1
 1241 08a3 37       		.byte	0x37
 1242 08a4 2C000000 		.4byte	0x2c
 1243 08a8 00000000 		.4byte	.LFB261
 1244 08ac 1A000000 		.4byte	.LFE261-.LFB261
 1245 08b0 01       		.uleb128 0x1
 1246 08b1 9C       		.byte	0x9c
 1247 08b2 1A090000 		.4byte	0x91a
 1248 08b6 1E       		.uleb128 0x1e
 1249 08b7 697000   		.ascii	"ip\000"
ARM GAS  C:\Users\jo\AppData\Local\Temp\ccOfoZWe.s 			page 23


 1250 08ba 01       		.byte	0x1
 1251 08bb 37       		.byte	0x37
 1252 08bc 22030000 		.4byte	0x322
 1253 08c0 84000000 		.4byte	.LLST4
 1254 08c4 1E       		.uleb128 0x1e
 1255 08c5 627000   		.ascii	"bp\000"
 1256 08c8 01       		.byte	0x1
 1257 08c9 37       		.byte	0x37
 1258 08ca 15070000 		.4byte	0x715
 1259 08ce A5000000 		.4byte	.LLST5
 1260 08d2 1E       		.uleb128 0x1e
 1261 08d3 6E00     		.ascii	"n\000"
 1262 08d5 01       		.byte	0x1
 1263 08d6 37       		.byte	0x37
 1264 08d7 2C000000 		.4byte	0x2c
 1265 08db E6000000 		.4byte	.LLST6
 1266 08df 24       		.uleb128 0x24
 1267 08e0 636E7400 		.ascii	"cnt\000"
 1268 08e4 01       		.byte	0x1
 1269 08e5 38       		.byte	0x38
 1270 08e6 2C000000 		.4byte	0x2c
 1271 08ea 04010000 		.4byte	.LLST7
 1272 08ee 25       		.uleb128 0x25
 1273 08ef E3070000 		.4byte	0x7e3
 1274 08f3 0A000000 		.4byte	.LBB4
 1275 08f7 08000000 		.4byte	.LBE4-.LBB4
 1276 08fb 01       		.byte	0x1
 1277 08fc 3B       		.byte	0x3b
 1278 08fd 22       		.uleb128 0x22
 1279 08fe FD070000 		.4byte	0x7fd
 1280 0902 3A010000 		.4byte	.LLST8
 1281 0906 22       		.uleb128 0x22
 1282 0907 F3070000 		.4byte	0x7f3
 1283 090b 5A010000 		.4byte	.LLST9
 1284 090f 23       		.uleb128 0x23
 1285 0910 12000000 		.4byte	.LVL11
 1286 0914 6B090000 		.4byte	0x96b
 1287 0918 00       		.byte	0
 1288 0919 00       		.byte	0
 1289 091a 26       		.uleb128 0x26
 1290 091b 72050000 		.4byte	.LASF127
 1291 091f 01       		.byte	0x1
 1292 0920 57       		.byte	0x57
 1293 0921 00000000 		.4byte	.LFB263
 1294 0925 0C000000 		.4byte	.LFE263-.LFB263
 1295 0929 01       		.uleb128 0x1
 1296 092a 9C       		.byte	0x9c
 1297 092b 3D090000 		.4byte	0x93d
 1298 092f 27       		.uleb128 0x27
 1299 0930 A8050000 		.4byte	.LASF122
 1300 0934 01       		.byte	0x1
 1301 0935 57       		.byte	0x57
 1302 0936 3D090000 		.4byte	0x93d
 1303 093a 01       		.uleb128 0x1
 1304 093b 50       		.byte	0x50
 1305 093c 00       		.byte	0
 1306 093d 0A       		.uleb128 0xa
ARM GAS  C:\Users\jo\AppData\Local\Temp\ccOfoZWe.s 			page 24


 1307 093e 04       		.byte	0x4
 1308 093f D8070000 		.4byte	0x7d8
 1309 0943 28       		.uleb128 0x28
 1310 0944 766D7400 		.ascii	"vmt\000"
 1311 0948 01       		.byte	0x1
 1312 0949 4C       		.byte	0x4c
 1313 094a D3070000 		.4byte	0x7d3
 1314 094e 05       		.uleb128 0x5
 1315 094f 03       		.byte	0x3
 1316 0950 00000000 		.4byte	vmt
 1317 0954 29       		.uleb128 0x29
 1318 0955 CE000000 		.4byte	.LASF123
 1319 0959 0F       		.byte	0xf
 1320 095a A706     		.2byte	0x6a7
 1321 095c CE000000 		.4byte	0xce
 1322 0960 2A       		.uleb128 0x2a
 1323 0961 636800   		.ascii	"ch\000"
 1324 0964 07       		.byte	0x7
 1325 0965 0902     		.2byte	0x209
 1326 0967 19040000 		.4byte	0x419
 1327 096b 2B       		.uleb128 0x2b
 1328 096c 34000000 		.4byte	.LASF128
 1329 0970 01       		.byte	0x1
 1330 0971 22       		.byte	0x22
 1331 0972 0D       		.uleb128 0xd
 1332 0973 BD060000 		.4byte	0x6bd
 1333 0977 00       		.byte	0
 1334 0978 00       		.byte	0
 1335              		.section	.debug_abbrev,"",%progbits
 1336              	.Ldebug_abbrev0:
 1337 0000 01       		.uleb128 0x1
 1338 0001 11       		.uleb128 0x11
 1339 0002 01       		.byte	0x1
 1340 0003 25       		.uleb128 0x25
 1341 0004 0E       		.uleb128 0xe
 1342 0005 13       		.uleb128 0x13
 1343 0006 0B       		.uleb128 0xb
 1344 0007 03       		.uleb128 0x3
 1345 0008 0E       		.uleb128 0xe
 1346 0009 1B       		.uleb128 0x1b
 1347 000a 0E       		.uleb128 0xe
 1348 000b 55       		.uleb128 0x55
 1349 000c 17       		.uleb128 0x17
 1350 000d 11       		.uleb128 0x11
 1351 000e 01       		.uleb128 0x1
 1352 000f 10       		.uleb128 0x10
 1353 0010 17       		.uleb128 0x17
 1354 0011 00       		.byte	0
 1355 0012 00       		.byte	0
 1356 0013 02       		.uleb128 0x2
 1357 0014 24       		.uleb128 0x24
 1358 0015 00       		.byte	0
 1359 0016 0B       		.uleb128 0xb
 1360 0017 0B       		.uleb128 0xb
 1361 0018 3E       		.uleb128 0x3e
 1362 0019 0B       		.uleb128 0xb
 1363 001a 03       		.uleb128 0x3
ARM GAS  C:\Users\jo\AppData\Local\Temp\ccOfoZWe.s 			page 25


 1364 001b 08       		.uleb128 0x8
 1365 001c 00       		.byte	0
 1366 001d 00       		.byte	0
 1367 001e 03       		.uleb128 0x3
 1368 001f 16       		.uleb128 0x16
 1369 0020 00       		.byte	0
 1370 0021 03       		.uleb128 0x3
 1371 0022 0E       		.uleb128 0xe
 1372 0023 3A       		.uleb128 0x3a
 1373 0024 0B       		.uleb128 0xb
 1374 0025 3B       		.uleb128 0x3b
 1375 0026 0B       		.uleb128 0xb
 1376 0027 49       		.uleb128 0x49
 1377 0028 13       		.uleb128 0x13
 1378 0029 00       		.byte	0
 1379 002a 00       		.byte	0
 1380 002b 04       		.uleb128 0x4
 1381 002c 24       		.uleb128 0x24
 1382 002d 00       		.byte	0
 1383 002e 0B       		.uleb128 0xb
 1384 002f 0B       		.uleb128 0xb
 1385 0030 3E       		.uleb128 0x3e
 1386 0031 0B       		.uleb128 0xb
 1387 0032 03       		.uleb128 0x3
 1388 0033 0E       		.uleb128 0xe
 1389 0034 00       		.byte	0
 1390 0035 00       		.byte	0
 1391 0036 05       		.uleb128 0x5
 1392 0037 35       		.uleb128 0x35
 1393 0038 00       		.byte	0
 1394 0039 49       		.uleb128 0x49
 1395 003a 13       		.uleb128 0x13
 1396 003b 00       		.byte	0
 1397 003c 00       		.byte	0
 1398 003d 06       		.uleb128 0x6
 1399 003e 13       		.uleb128 0x13
 1400 003f 01       		.byte	0x1
 1401 0040 03       		.uleb128 0x3
 1402 0041 0E       		.uleb128 0xe
 1403 0042 0B       		.uleb128 0xb
 1404 0043 0B       		.uleb128 0xb
 1405 0044 3A       		.uleb128 0x3a
 1406 0045 0B       		.uleb128 0xb
 1407 0046 3B       		.uleb128 0x3b
 1408 0047 0B       		.uleb128 0xb
 1409 0048 01       		.uleb128 0x1
 1410 0049 13       		.uleb128 0x13
 1411 004a 00       		.byte	0
 1412 004b 00       		.byte	0
 1413 004c 07       		.uleb128 0x7
 1414 004d 0D       		.uleb128 0xd
 1415 004e 00       		.byte	0
 1416 004f 03       		.uleb128 0x3
 1417 0050 0E       		.uleb128 0xe
 1418 0051 3A       		.uleb128 0x3a
 1419 0052 0B       		.uleb128 0xb
 1420 0053 3B       		.uleb128 0x3b
ARM GAS  C:\Users\jo\AppData\Local\Temp\ccOfoZWe.s 			page 26


 1421 0054 0B       		.uleb128 0xb
 1422 0055 49       		.uleb128 0x49
 1423 0056 13       		.uleb128 0x13
 1424 0057 38       		.uleb128 0x38
 1425 0058 0B       		.uleb128 0xb
 1426 0059 00       		.byte	0
 1427 005a 00       		.byte	0
 1428 005b 08       		.uleb128 0x8
 1429 005c 0D       		.uleb128 0xd
 1430 005d 00       		.byte	0
 1431 005e 03       		.uleb128 0x3
 1432 005f 08       		.uleb128 0x8
 1433 0060 3A       		.uleb128 0x3a
 1434 0061 0B       		.uleb128 0xb
 1435 0062 3B       		.uleb128 0x3b
 1436 0063 05       		.uleb128 0x5
 1437 0064 49       		.uleb128 0x49
 1438 0065 13       		.uleb128 0x13
 1439 0066 38       		.uleb128 0x38
 1440 0067 0B       		.uleb128 0xb
 1441 0068 00       		.byte	0
 1442 0069 00       		.byte	0
 1443 006a 09       		.uleb128 0x9
 1444 006b 0D       		.uleb128 0xd
 1445 006c 00       		.byte	0
 1446 006d 03       		.uleb128 0x3
 1447 006e 0E       		.uleb128 0xe
 1448 006f 3A       		.uleb128 0x3a
 1449 0070 0B       		.uleb128 0xb
 1450 0071 3B       		.uleb128 0x3b
 1451 0072 05       		.uleb128 0x5
 1452 0073 49       		.uleb128 0x49
 1453 0074 13       		.uleb128 0x13
 1454 0075 38       		.uleb128 0x38
 1455 0076 0B       		.uleb128 0xb
 1456 0077 00       		.byte	0
 1457 0078 00       		.byte	0
 1458 0079 0A       		.uleb128 0xa
 1459 007a 0F       		.uleb128 0xf
 1460 007b 00       		.byte	0
 1461 007c 0B       		.uleb128 0xb
 1462 007d 0B       		.uleb128 0xb
 1463 007e 49       		.uleb128 0x49
 1464 007f 13       		.uleb128 0x13
 1465 0080 00       		.byte	0
 1466 0081 00       		.byte	0
 1467 0082 0B       		.uleb128 0xb
 1468 0083 13       		.uleb128 0x13
 1469 0084 01       		.byte	0x1
 1470 0085 03       		.uleb128 0x3
 1471 0086 0E       		.uleb128 0xe
 1472 0087 0B       		.uleb128 0xb
 1473 0088 0B       		.uleb128 0xb
 1474 0089 3A       		.uleb128 0x3a
 1475 008a 0B       		.uleb128 0xb
 1476 008b 3B       		.uleb128 0x3b
 1477 008c 05       		.uleb128 0x5
ARM GAS  C:\Users\jo\AppData\Local\Temp\ccOfoZWe.s 			page 27


 1478 008d 01       		.uleb128 0x1
 1479 008e 13       		.uleb128 0x13
 1480 008f 00       		.byte	0
 1481 0090 00       		.byte	0
 1482 0091 0C       		.uleb128 0xc
 1483 0092 15       		.uleb128 0x15
 1484 0093 01       		.byte	0x1
 1485 0094 27       		.uleb128 0x27
 1486 0095 19       		.uleb128 0x19
 1487 0096 01       		.uleb128 0x1
 1488 0097 13       		.uleb128 0x13
 1489 0098 00       		.byte	0
 1490 0099 00       		.byte	0
 1491 009a 0D       		.uleb128 0xd
 1492 009b 05       		.uleb128 0x5
 1493 009c 00       		.byte	0
 1494 009d 49       		.uleb128 0x49
 1495 009e 13       		.uleb128 0x13
 1496 009f 00       		.byte	0
 1497 00a0 00       		.byte	0
 1498 00a1 0E       		.uleb128 0xe
 1499 00a2 0F       		.uleb128 0xf
 1500 00a3 00       		.byte	0
 1501 00a4 0B       		.uleb128 0xb
 1502 00a5 0B       		.uleb128 0xb
 1503 00a6 00       		.byte	0
 1504 00a7 00       		.byte	0
 1505 00a8 0F       		.uleb128 0xf
 1506 00a9 13       		.uleb128 0x13
 1507 00aa 01       		.byte	0x1
 1508 00ab 03       		.uleb128 0x3
 1509 00ac 0E       		.uleb128 0xe
 1510 00ad 0B       		.uleb128 0xb
 1511 00ae 05       		.uleb128 0x5
 1512 00af 3A       		.uleb128 0x3a
 1513 00b0 0B       		.uleb128 0xb
 1514 00b1 3B       		.uleb128 0x3b
 1515 00b2 05       		.uleb128 0x5
 1516 00b3 01       		.uleb128 0x1
 1517 00b4 13       		.uleb128 0x13
 1518 00b5 00       		.byte	0
 1519 00b6 00       		.byte	0
 1520 00b7 10       		.uleb128 0x10
 1521 00b8 0D       		.uleb128 0xd
 1522 00b9 00       		.byte	0
 1523 00ba 03       		.uleb128 0x3
 1524 00bb 0E       		.uleb128 0xe
 1525 00bc 3A       		.uleb128 0x3a
 1526 00bd 0B       		.uleb128 0xb
 1527 00be 3B       		.uleb128 0x3b
 1528 00bf 05       		.uleb128 0x5
 1529 00c0 49       		.uleb128 0x49
 1530 00c1 13       		.uleb128 0x13
 1531 00c2 38       		.uleb128 0x38
 1532 00c3 05       		.uleb128 0x5
 1533 00c4 00       		.byte	0
 1534 00c5 00       		.byte	0
ARM GAS  C:\Users\jo\AppData\Local\Temp\ccOfoZWe.s 			page 28


 1535 00c6 11       		.uleb128 0x11
 1536 00c7 0D       		.uleb128 0xd
 1537 00c8 00       		.byte	0
 1538 00c9 03       		.uleb128 0x3
 1539 00ca 08       		.uleb128 0x8
 1540 00cb 3A       		.uleb128 0x3a
 1541 00cc 0B       		.uleb128 0xb
 1542 00cd 3B       		.uleb128 0x3b
 1543 00ce 05       		.uleb128 0x5
 1544 00cf 49       		.uleb128 0x49
 1545 00d0 13       		.uleb128 0x13
 1546 00d1 38       		.uleb128 0x38
 1547 00d2 05       		.uleb128 0x5
 1548 00d3 00       		.byte	0
 1549 00d4 00       		.byte	0
 1550 00d5 12       		.uleb128 0x12
 1551 00d6 0D       		.uleb128 0xd
 1552 00d7 00       		.byte	0
 1553 00d8 03       		.uleb128 0x3
 1554 00d9 08       		.uleb128 0x8
 1555 00da 3A       		.uleb128 0x3a
 1556 00db 0B       		.uleb128 0xb
 1557 00dc 3B       		.uleb128 0x3b
 1558 00dd 0B       		.uleb128 0xb
 1559 00de 49       		.uleb128 0x49
 1560 00df 13       		.uleb128 0x13
 1561 00e0 38       		.uleb128 0x38
 1562 00e1 0B       		.uleb128 0xb
 1563 00e2 00       		.byte	0
 1564 00e3 00       		.byte	0
 1565 00e4 13       		.uleb128 0x13
 1566 00e5 13       		.uleb128 0x13
 1567 00e6 01       		.byte	0x1
 1568 00e7 0B       		.uleb128 0xb
 1569 00e8 0B       		.uleb128 0xb
 1570 00e9 3A       		.uleb128 0x3a
 1571 00ea 0B       		.uleb128 0xb
 1572 00eb 3B       		.uleb128 0x3b
 1573 00ec 0B       		.uleb128 0xb
 1574 00ed 01       		.uleb128 0x1
 1575 00ee 13       		.uleb128 0x13
 1576 00ef 00       		.byte	0
 1577 00f0 00       		.byte	0
 1578 00f1 14       		.uleb128 0x14
 1579 00f2 13       		.uleb128 0x13
 1580 00f3 01       		.byte	0x1
 1581 00f4 0B       		.uleb128 0xb
 1582 00f5 05       		.uleb128 0x5
 1583 00f6 3A       		.uleb128 0x3a
 1584 00f7 0B       		.uleb128 0xb
 1585 00f8 3B       		.uleb128 0x3b
 1586 00f9 0B       		.uleb128 0xb
 1587 00fa 01       		.uleb128 0x1
 1588 00fb 13       		.uleb128 0x13
 1589 00fc 00       		.byte	0
 1590 00fd 00       		.byte	0
 1591 00fe 15       		.uleb128 0x15
ARM GAS  C:\Users\jo\AppData\Local\Temp\ccOfoZWe.s 			page 29


 1592 00ff 01       		.uleb128 0x1
 1593 0100 01       		.byte	0x1
 1594 0101 49       		.uleb128 0x49
 1595 0102 13       		.uleb128 0x13
 1596 0103 01       		.uleb128 0x1
 1597 0104 13       		.uleb128 0x13
 1598 0105 00       		.byte	0
 1599 0106 00       		.byte	0
 1600 0107 16       		.uleb128 0x16
 1601 0108 21       		.uleb128 0x21
 1602 0109 00       		.byte	0
 1603 010a 49       		.uleb128 0x49
 1604 010b 13       		.uleb128 0x13
 1605 010c 2F       		.uleb128 0x2f
 1606 010d 0B       		.uleb128 0xb
 1607 010e 00       		.byte	0
 1608 010f 00       		.byte	0
 1609 0110 17       		.uleb128 0x17
 1610 0111 17       		.uleb128 0x17
 1611 0112 01       		.byte	0x1
 1612 0113 0B       		.uleb128 0xb
 1613 0114 0B       		.uleb128 0xb
 1614 0115 3A       		.uleb128 0x3a
 1615 0116 0B       		.uleb128 0xb
 1616 0117 3B       		.uleb128 0x3b
 1617 0118 0B       		.uleb128 0xb
 1618 0119 01       		.uleb128 0x1
 1619 011a 13       		.uleb128 0x13
 1620 011b 00       		.byte	0
 1621 011c 00       		.byte	0
 1622 011d 18       		.uleb128 0x18
 1623 011e 0D       		.uleb128 0xd
 1624 011f 00       		.byte	0
 1625 0120 03       		.uleb128 0x3
 1626 0121 0E       		.uleb128 0xe
 1627 0122 3A       		.uleb128 0x3a
 1628 0123 0B       		.uleb128 0xb
 1629 0124 3B       		.uleb128 0x3b
 1630 0125 05       		.uleb128 0x5
 1631 0126 49       		.uleb128 0x49
 1632 0127 13       		.uleb128 0x13
 1633 0128 00       		.byte	0
 1634 0129 00       		.byte	0
 1635 012a 19       		.uleb128 0x19
 1636 012b 26       		.uleb128 0x26
 1637 012c 00       		.byte	0
 1638 012d 49       		.uleb128 0x49
 1639 012e 13       		.uleb128 0x13
 1640 012f 00       		.byte	0
 1641 0130 00       		.byte	0
 1642 0131 1A       		.uleb128 0x1a
 1643 0132 15       		.uleb128 0x15
 1644 0133 01       		.byte	0x1
 1645 0134 27       		.uleb128 0x27
 1646 0135 19       		.uleb128 0x19
 1647 0136 49       		.uleb128 0x49
 1648 0137 13       		.uleb128 0x13
ARM GAS  C:\Users\jo\AppData\Local\Temp\ccOfoZWe.s 			page 30


 1649 0138 01       		.uleb128 0x1
 1650 0139 13       		.uleb128 0x13
 1651 013a 00       		.byte	0
 1652 013b 00       		.byte	0
 1653 013c 1B       		.uleb128 0x1b
 1654 013d 2E       		.uleb128 0x2e
 1655 013e 01       		.byte	0x1
 1656 013f 03       		.uleb128 0x3
 1657 0140 08       		.uleb128 0x8
 1658 0141 3A       		.uleb128 0x3a
 1659 0142 0B       		.uleb128 0xb
 1660 0143 3B       		.uleb128 0x3b
 1661 0144 0B       		.uleb128 0xb
 1662 0145 27       		.uleb128 0x27
 1663 0146 19       		.uleb128 0x19
 1664 0147 49       		.uleb128 0x49
 1665 0148 13       		.uleb128 0x13
 1666 0149 20       		.uleb128 0x20
 1667 014a 0B       		.uleb128 0xb
 1668 014b 01       		.uleb128 0x1
 1669 014c 13       		.uleb128 0x13
 1670 014d 00       		.byte	0
 1671 014e 00       		.byte	0
 1672 014f 1C       		.uleb128 0x1c
 1673 0150 05       		.uleb128 0x5
 1674 0151 00       		.byte	0
 1675 0152 03       		.uleb128 0x3
 1676 0153 08       		.uleb128 0x8
 1677 0154 3A       		.uleb128 0x3a
 1678 0155 0B       		.uleb128 0xb
 1679 0156 3B       		.uleb128 0x3b
 1680 0157 0B       		.uleb128 0xb
 1681 0158 49       		.uleb128 0x49
 1682 0159 13       		.uleb128 0x13
 1683 015a 00       		.byte	0
 1684 015b 00       		.byte	0
 1685 015c 1D       		.uleb128 0x1d
 1686 015d 2E       		.uleb128 0x2e
 1687 015e 01       		.byte	0x1
 1688 015f 03       		.uleb128 0x3
 1689 0160 08       		.uleb128 0x8
 1690 0161 3A       		.uleb128 0x3a
 1691 0162 0B       		.uleb128 0xb
 1692 0163 3B       		.uleb128 0x3b
 1693 0164 0B       		.uleb128 0xb
 1694 0165 27       		.uleb128 0x27
 1695 0166 19       		.uleb128 0x19
 1696 0167 49       		.uleb128 0x49
 1697 0168 13       		.uleb128 0x13
 1698 0169 11       		.uleb128 0x11
 1699 016a 01       		.uleb128 0x1
 1700 016b 12       		.uleb128 0x12
 1701 016c 06       		.uleb128 0x6
 1702 016d 40       		.uleb128 0x40
 1703 016e 18       		.uleb128 0x18
 1704 016f 9742     		.uleb128 0x2117
 1705 0171 19       		.uleb128 0x19
ARM GAS  C:\Users\jo\AppData\Local\Temp\ccOfoZWe.s 			page 31


 1706 0172 01       		.uleb128 0x1
 1707 0173 13       		.uleb128 0x13
 1708 0174 00       		.byte	0
 1709 0175 00       		.byte	0
 1710 0176 1E       		.uleb128 0x1e
 1711 0177 05       		.uleb128 0x5
 1712 0178 00       		.byte	0
 1713 0179 03       		.uleb128 0x3
 1714 017a 08       		.uleb128 0x8
 1715 017b 3A       		.uleb128 0x3a
 1716 017c 0B       		.uleb128 0xb
 1717 017d 3B       		.uleb128 0x3b
 1718 017e 0B       		.uleb128 0xb
 1719 017f 49       		.uleb128 0x49
 1720 0180 13       		.uleb128 0x13
 1721 0181 02       		.uleb128 0x2
 1722 0182 17       		.uleb128 0x17
 1723 0183 00       		.byte	0
 1724 0184 00       		.byte	0
 1725 0185 1F       		.uleb128 0x1f
 1726 0186 2E       		.uleb128 0x2e
 1727 0187 01       		.byte	0x1
 1728 0188 03       		.uleb128 0x3
 1729 0189 0E       		.uleb128 0xe
 1730 018a 3A       		.uleb128 0x3a
 1731 018b 0B       		.uleb128 0xb
 1732 018c 3B       		.uleb128 0x3b
 1733 018d 0B       		.uleb128 0xb
 1734 018e 27       		.uleb128 0x27
 1735 018f 19       		.uleb128 0x19
 1736 0190 49       		.uleb128 0x49
 1737 0191 13       		.uleb128 0x13
 1738 0192 11       		.uleb128 0x11
 1739 0193 01       		.uleb128 0x1
 1740 0194 12       		.uleb128 0x12
 1741 0195 06       		.uleb128 0x6
 1742 0196 40       		.uleb128 0x40
 1743 0197 18       		.uleb128 0x18
 1744 0198 9742     		.uleb128 0x2117
 1745 019a 19       		.uleb128 0x19
 1746 019b 01       		.uleb128 0x1
 1747 019c 13       		.uleb128 0x13
 1748 019d 00       		.byte	0
 1749 019e 00       		.byte	0
 1750 019f 20       		.uleb128 0x20
 1751 01a0 05       		.uleb128 0x5
 1752 01a1 00       		.byte	0
 1753 01a2 03       		.uleb128 0x3
 1754 01a3 08       		.uleb128 0x8
 1755 01a4 3A       		.uleb128 0x3a
 1756 01a5 0B       		.uleb128 0xb
 1757 01a6 3B       		.uleb128 0x3b
 1758 01a7 0B       		.uleb128 0xb
 1759 01a8 49       		.uleb128 0x49
 1760 01a9 13       		.uleb128 0x13
 1761 01aa 02       		.uleb128 0x2
 1762 01ab 18       		.uleb128 0x18
ARM GAS  C:\Users\jo\AppData\Local\Temp\ccOfoZWe.s 			page 32


 1763 01ac 00       		.byte	0
 1764 01ad 00       		.byte	0
 1765 01ae 21       		.uleb128 0x21
 1766 01af 2E       		.uleb128 0x2e
 1767 01b0 01       		.byte	0x1
 1768 01b1 31       		.uleb128 0x31
 1769 01b2 13       		.uleb128 0x13
 1770 01b3 11       		.uleb128 0x11
 1771 01b4 01       		.uleb128 0x1
 1772 01b5 12       		.uleb128 0x12
 1773 01b6 06       		.uleb128 0x6
 1774 01b7 40       		.uleb128 0x40
 1775 01b8 18       		.uleb128 0x18
 1776 01b9 9742     		.uleb128 0x2117
 1777 01bb 19       		.uleb128 0x19
 1778 01bc 01       		.uleb128 0x1
 1779 01bd 13       		.uleb128 0x13
 1780 01be 00       		.byte	0
 1781 01bf 00       		.byte	0
 1782 01c0 22       		.uleb128 0x22
 1783 01c1 05       		.uleb128 0x5
 1784 01c2 00       		.byte	0
 1785 01c3 31       		.uleb128 0x31
 1786 01c4 13       		.uleb128 0x13
 1787 01c5 02       		.uleb128 0x2
 1788 01c6 17       		.uleb128 0x17
 1789 01c7 00       		.byte	0
 1790 01c8 00       		.byte	0
 1791 01c9 23       		.uleb128 0x23
 1792 01ca 898201   		.uleb128 0x4109
 1793 01cd 00       		.byte	0
 1794 01ce 11       		.uleb128 0x11
 1795 01cf 01       		.uleb128 0x1
 1796 01d0 31       		.uleb128 0x31
 1797 01d1 13       		.uleb128 0x13
 1798 01d2 00       		.byte	0
 1799 01d3 00       		.byte	0
 1800 01d4 24       		.uleb128 0x24
 1801 01d5 34       		.uleb128 0x34
 1802 01d6 00       		.byte	0
 1803 01d7 03       		.uleb128 0x3
 1804 01d8 08       		.uleb128 0x8
 1805 01d9 3A       		.uleb128 0x3a
 1806 01da 0B       		.uleb128 0xb
 1807 01db 3B       		.uleb128 0x3b
 1808 01dc 0B       		.uleb128 0xb
 1809 01dd 49       		.uleb128 0x49
 1810 01de 13       		.uleb128 0x13
 1811 01df 02       		.uleb128 0x2
 1812 01e0 17       		.uleb128 0x17
 1813 01e1 00       		.byte	0
 1814 01e2 00       		.byte	0
 1815 01e3 25       		.uleb128 0x25
 1816 01e4 1D       		.uleb128 0x1d
 1817 01e5 01       		.byte	0x1
 1818 01e6 31       		.uleb128 0x31
 1819 01e7 13       		.uleb128 0x13
ARM GAS  C:\Users\jo\AppData\Local\Temp\ccOfoZWe.s 			page 33


 1820 01e8 11       		.uleb128 0x11
 1821 01e9 01       		.uleb128 0x1
 1822 01ea 12       		.uleb128 0x12
 1823 01eb 06       		.uleb128 0x6
 1824 01ec 58       		.uleb128 0x58
 1825 01ed 0B       		.uleb128 0xb
 1826 01ee 59       		.uleb128 0x59
 1827 01ef 0B       		.uleb128 0xb
 1828 01f0 00       		.byte	0
 1829 01f1 00       		.byte	0
 1830 01f2 26       		.uleb128 0x26
 1831 01f3 2E       		.uleb128 0x2e
 1832 01f4 01       		.byte	0x1
 1833 01f5 3F       		.uleb128 0x3f
 1834 01f6 19       		.uleb128 0x19
 1835 01f7 03       		.uleb128 0x3
 1836 01f8 0E       		.uleb128 0xe
 1837 01f9 3A       		.uleb128 0x3a
 1838 01fa 0B       		.uleb128 0xb
 1839 01fb 3B       		.uleb128 0x3b
 1840 01fc 0B       		.uleb128 0xb
 1841 01fd 27       		.uleb128 0x27
 1842 01fe 19       		.uleb128 0x19
 1843 01ff 11       		.uleb128 0x11
 1844 0200 01       		.uleb128 0x1
 1845 0201 12       		.uleb128 0x12
 1846 0202 06       		.uleb128 0x6
 1847 0203 40       		.uleb128 0x40
 1848 0204 18       		.uleb128 0x18
 1849 0205 9742     		.uleb128 0x2117
 1850 0207 19       		.uleb128 0x19
 1851 0208 01       		.uleb128 0x1
 1852 0209 13       		.uleb128 0x13
 1853 020a 00       		.byte	0
 1854 020b 00       		.byte	0
 1855 020c 27       		.uleb128 0x27
 1856 020d 05       		.uleb128 0x5
 1857 020e 00       		.byte	0
 1858 020f 03       		.uleb128 0x3
 1859 0210 0E       		.uleb128 0xe
 1860 0211 3A       		.uleb128 0x3a
 1861 0212 0B       		.uleb128 0xb
 1862 0213 3B       		.uleb128 0x3b
 1863 0214 0B       		.uleb128 0xb
 1864 0215 49       		.uleb128 0x49
 1865 0216 13       		.uleb128 0x13
 1866 0217 02       		.uleb128 0x2
 1867 0218 18       		.uleb128 0x18
 1868 0219 00       		.byte	0
 1869 021a 00       		.byte	0
 1870 021b 28       		.uleb128 0x28
 1871 021c 34       		.uleb128 0x34
 1872 021d 00       		.byte	0
 1873 021e 03       		.uleb128 0x3
 1874 021f 08       		.uleb128 0x8
 1875 0220 3A       		.uleb128 0x3a
 1876 0221 0B       		.uleb128 0xb
ARM GAS  C:\Users\jo\AppData\Local\Temp\ccOfoZWe.s 			page 34


 1877 0222 3B       		.uleb128 0x3b
 1878 0223 0B       		.uleb128 0xb
 1879 0224 49       		.uleb128 0x49
 1880 0225 13       		.uleb128 0x13
 1881 0226 02       		.uleb128 0x2
 1882 0227 18       		.uleb128 0x18
 1883 0228 00       		.byte	0
 1884 0229 00       		.byte	0
 1885 022a 29       		.uleb128 0x29
 1886 022b 34       		.uleb128 0x34
 1887 022c 00       		.byte	0
 1888 022d 03       		.uleb128 0x3
 1889 022e 0E       		.uleb128 0xe
 1890 022f 3A       		.uleb128 0x3a
 1891 0230 0B       		.uleb128 0xb
 1892 0231 3B       		.uleb128 0x3b
 1893 0232 05       		.uleb128 0x5
 1894 0233 49       		.uleb128 0x49
 1895 0234 13       		.uleb128 0x13
 1896 0235 3F       		.uleb128 0x3f
 1897 0236 19       		.uleb128 0x19
 1898 0237 3C       		.uleb128 0x3c
 1899 0238 19       		.uleb128 0x19
 1900 0239 00       		.byte	0
 1901 023a 00       		.byte	0
 1902 023b 2A       		.uleb128 0x2a
 1903 023c 34       		.uleb128 0x34
 1904 023d 00       		.byte	0
 1905 023e 03       		.uleb128 0x3
 1906 023f 08       		.uleb128 0x8
 1907 0240 3A       		.uleb128 0x3a
 1908 0241 0B       		.uleb128 0xb
 1909 0242 3B       		.uleb128 0x3b
 1910 0243 05       		.uleb128 0x5
 1911 0244 49       		.uleb128 0x49
 1912 0245 13       		.uleb128 0x13
 1913 0246 3F       		.uleb128 0x3f
 1914 0247 19       		.uleb128 0x19
 1915 0248 3C       		.uleb128 0x3c
 1916 0249 19       		.uleb128 0x19
 1917 024a 00       		.byte	0
 1918 024b 00       		.byte	0
 1919 024c 2B       		.uleb128 0x2b
 1920 024d 2E       		.uleb128 0x2e
 1921 024e 01       		.byte	0x1
 1922 024f 3F       		.uleb128 0x3f
 1923 0250 19       		.uleb128 0x19
 1924 0251 03       		.uleb128 0x3
 1925 0252 0E       		.uleb128 0xe
 1926 0253 3A       		.uleb128 0x3a
 1927 0254 0B       		.uleb128 0xb
 1928 0255 3B       		.uleb128 0x3b
 1929 0256 0B       		.uleb128 0xb
 1930 0257 27       		.uleb128 0x27
 1931 0258 19       		.uleb128 0x19
 1932 0259 3C       		.uleb128 0x3c
 1933 025a 19       		.uleb128 0x19
ARM GAS  C:\Users\jo\AppData\Local\Temp\ccOfoZWe.s 			page 35


 1934 025b 00       		.byte	0
 1935 025c 00       		.byte	0
 1936 025d 00       		.byte	0
 1937              		.section	.debug_loc,"",%progbits
 1938              	.Ldebug_loc0:
 1939              	.LLST0:
 1940 0000 00000000 		.4byte	.LVL0
 1941 0004 02000000 		.4byte	.LVL1
 1942 0008 0100     		.2byte	0x1
 1943 000a 50       		.byte	0x50
 1944 000b 02000000 		.4byte	.LVL1
 1945 000f 04000000 		.4byte	.LFE260
 1946 0013 0400     		.2byte	0x4
 1947 0015 F3       		.byte	0xf3
 1948 0016 01       		.uleb128 0x1
 1949 0017 50       		.byte	0x50
 1950 0018 9F       		.byte	0x9f
 1951 0019 00000000 		.4byte	0
 1952 001d 00000000 		.4byte	0
 1953              	.LLST1:
 1954 0021 00000000 		.4byte	.LVL2
 1955 0025 02000000 		.4byte	.LVL3
 1956 0029 0100     		.2byte	0x1
 1957 002b 50       		.byte	0x50
 1958 002c 02000000 		.4byte	.LVL3
 1959 0030 04000000 		.4byte	.LFE262
 1960 0034 0400     		.2byte	0x4
 1961 0036 F3       		.byte	0xf3
 1962 0037 01       		.uleb128 0x1
 1963 0038 50       		.byte	0x50
 1964 0039 9F       		.byte	0x9f
 1965 003a 00000000 		.4byte	0
 1966 003e 00000000 		.4byte	0
 1967              	.LLST2:
 1968 0042 00000000 		.4byte	.LVL4
 1969 0046 04000000 		.4byte	.LVL5
 1970 004a 0100     		.2byte	0x1
 1971 004c 50       		.byte	0x50
 1972 004d 04000000 		.4byte	.LVL5
 1973 0051 0C000000 		.4byte	.LFE259
 1974 0055 0400     		.2byte	0x4
 1975 0057 F3       		.byte	0xf3
 1976 0058 01       		.uleb128 0x1
 1977 0059 50       		.byte	0x50
 1978 005a 9F       		.byte	0x9f
 1979 005b 00000000 		.4byte	0
 1980 005f 00000000 		.4byte	0
 1981              	.LLST3:
 1982 0063 00000000 		.4byte	.LVL4
 1983 0067 07000000 		.4byte	.LVL6-1
 1984 006b 0100     		.2byte	0x1
 1985 006d 51       		.byte	0x51
 1986 006e 07000000 		.4byte	.LVL6-1
 1987 0072 0C000000 		.4byte	.LFE259
 1988 0076 0400     		.2byte	0x4
 1989 0078 F3       		.byte	0xf3
 1990 0079 01       		.uleb128 0x1
ARM GAS  C:\Users\jo\AppData\Local\Temp\ccOfoZWe.s 			page 36


 1991 007a 51       		.byte	0x51
 1992 007b 9F       		.byte	0x9f
 1993 007c 00000000 		.4byte	0
 1994 0080 00000000 		.4byte	0
 1995              	.LLST4:
 1996 0084 00000000 		.4byte	.LVL7
 1997 0088 0A000000 		.4byte	.LVL9
 1998 008c 0100     		.2byte	0x1
 1999 008e 50       		.byte	0x50
 2000 008f 0A000000 		.4byte	.LVL9
 2001 0093 1A000000 		.4byte	.LFE261
 2002 0097 0400     		.2byte	0x4
 2003 0099 F3       		.byte	0xf3
 2004 009a 01       		.uleb128 0x1
 2005 009b 50       		.byte	0x50
 2006 009c 9F       		.byte	0x9f
 2007 009d 00000000 		.4byte	0
 2008 00a1 00000000 		.4byte	0
 2009              	.LLST5:
 2010 00a5 00000000 		.4byte	.LVL7
 2011 00a9 00000000 		.4byte	.LVL7
 2012 00ad 0100     		.2byte	0x1
 2013 00af 51       		.byte	0x51
 2014 00b0 00000000 		.4byte	.LVL7
 2015 00b4 08000000 		.4byte	.LVL8
 2016 00b8 0100     		.2byte	0x1
 2017 00ba 55       		.byte	0x55
 2018 00bb 0A000000 		.4byte	.LVL9
 2019 00bf 0E000000 		.4byte	.LVL10
 2020 00c3 0100     		.2byte	0x1
 2021 00c5 55       		.byte	0x55
 2022 00c6 0E000000 		.4byte	.LVL10
 2023 00ca 12000000 		.4byte	.LVL11
 2024 00ce 0300     		.2byte	0x3
 2025 00d0 75       		.byte	0x75
 2026 00d1 7F       		.sleb128 -1
 2027 00d2 9F       		.byte	0x9f
 2028 00d3 12000000 		.4byte	.LVL11
 2029 00d7 16000000 		.4byte	.LVL13
 2030 00db 0100     		.2byte	0x1
 2031 00dd 55       		.byte	0x55
 2032 00de 00000000 		.4byte	0
 2033 00e2 00000000 		.4byte	0
 2034              	.LLST6:
 2035 00e6 00000000 		.4byte	.LVL7
 2036 00ea 0A000000 		.4byte	.LVL9
 2037 00ee 0100     		.2byte	0x1
 2038 00f0 52       		.byte	0x52
 2039 00f1 0A000000 		.4byte	.LVL9
 2040 00f5 1A000000 		.4byte	.LFE261
 2041 00f9 0100     		.2byte	0x1
 2042 00fb 56       		.byte	0x56
 2043 00fc 00000000 		.4byte	0
 2044 0100 00000000 		.4byte	0
 2045              	.LLST7:
 2046 0104 00000000 		.4byte	.LVL7
 2047 0108 0A000000 		.4byte	.LVL9
ARM GAS  C:\Users\jo\AppData\Local\Temp\ccOfoZWe.s 			page 37


 2048 010c 0100     		.2byte	0x1
 2049 010e 52       		.byte	0x52
 2050 010f 0A000000 		.4byte	.LVL9
 2051 0113 12000000 		.4byte	.LVL11
 2052 0117 0100     		.2byte	0x1
 2053 0119 54       		.byte	0x54
 2054 011a 12000000 		.4byte	.LVL11
 2055 011e 14000000 		.4byte	.LVL12
 2056 0122 0300     		.2byte	0x3
 2057 0124 74       		.byte	0x74
 2058 0125 7F       		.sleb128 -1
 2059 0126 9F       		.byte	0x9f
 2060 0127 14000000 		.4byte	.LVL12
 2061 012b 16000000 		.4byte	.LVL13
 2062 012f 0100     		.2byte	0x1
 2063 0131 54       		.byte	0x54
 2064 0132 00000000 		.4byte	0
 2065 0136 00000000 		.4byte	0
 2066              	.LLST8:
 2067 013a 0A000000 		.4byte	.LVL9
 2068 013e 0E000000 		.4byte	.LVL10
 2069 0142 0200     		.2byte	0x2
 2070 0144 75       		.byte	0x75
 2071 0145 00       		.sleb128 0
 2072 0146 0E000000 		.4byte	.LVL10
 2073 014a 11000000 		.4byte	.LVL11-1
 2074 014e 0200     		.2byte	0x2
 2075 0150 75       		.byte	0x75
 2076 0151 7F       		.sleb128 -1
 2077 0152 00000000 		.4byte	0
 2078 0156 00000000 		.4byte	0
 2079              	.LLST9:
 2080 015a 0A000000 		.4byte	.LVL9
 2081 015e 16000000 		.4byte	.LVL13
 2082 0162 0400     		.2byte	0x4
 2083 0164 F3       		.byte	0xf3
 2084 0165 01       		.uleb128 0x1
 2085 0166 50       		.byte	0x50
 2086 0167 9F       		.byte	0x9f
 2087 0168 00000000 		.4byte	0
 2088 016c 00000000 		.4byte	0
 2089              		.section	.debug_aranges,"",%progbits
 2090 0000 3C000000 		.4byte	0x3c
 2091 0004 0200     		.2byte	0x2
 2092 0006 00000000 		.4byte	.Ldebug_info0
 2093 000a 04       		.byte	0x4
 2094 000b 00       		.byte	0
 2095 000c 0000     		.2byte	0
 2096 000e 0000     		.2byte	0
 2097 0010 00000000 		.4byte	.LFB260
 2098 0014 04000000 		.4byte	.LFE260-.LFB260
 2099 0018 00000000 		.4byte	.LFB262
 2100 001c 04000000 		.4byte	.LFE262-.LFB262
 2101 0020 00000000 		.4byte	.LFB259
 2102 0024 0C000000 		.4byte	.LFE259-.LFB259
 2103 0028 00000000 		.4byte	.LFB261
 2104 002c 1A000000 		.4byte	.LFE261-.LFB261
ARM GAS  C:\Users\jo\AppData\Local\Temp\ccOfoZWe.s 			page 38


 2105 0030 00000000 		.4byte	.LFB263
 2106 0034 0C000000 		.4byte	.LFE263-.LFB263
 2107 0038 00000000 		.4byte	0
 2108 003c 00000000 		.4byte	0
 2109              		.section	.debug_ranges,"",%progbits
 2110              	.Ldebug_ranges0:
 2111 0000 00000000 		.4byte	.LFB260
 2112 0004 04000000 		.4byte	.LFE260
 2113 0008 00000000 		.4byte	.LFB262
 2114 000c 04000000 		.4byte	.LFE262
 2115 0010 00000000 		.4byte	.LFB259
 2116 0014 0C000000 		.4byte	.LFE259
 2117 0018 00000000 		.4byte	.LFB261
 2118 001c 1A000000 		.4byte	.LFE261
 2119 0020 00000000 		.4byte	.LFB263
 2120 0024 0C000000 		.4byte	.LFE263
 2121 0028 00000000 		.4byte	0
 2122 002c 00000000 		.4byte	0
 2123              		.section	.debug_line,"",%progbits
 2124              	.Ldebug_line0:
 2125 0000 A9020000 		.section	.debug_str,"MS",%progbits,1
 2125      02004902 
 2125      00000201 
 2125      FB0E0D00 
 2125      01010101 
 2126              	.LASF21:
 2127 0000 74726566 		.ascii	"trefs_t\000"
 2127      735F7400 
 2128              	.LASF52:
 2129 0008 72656164 		.ascii	"ready_list_t\000"
 2129      795F6C69 
 2129      73745F74 
 2129      00
 2130              	.LASF88:
 2131 0015 73655F74 		.ascii	"se_time\000"
 2131      696D6500 
 2132              	.LASF2:
 2133 001d 73697A65 		.ascii	"size_t\000"
 2133      5F7400
 2134              	.LASF99:
 2135 0024 7264796D 		.ascii	"rdymsg\000"
 2135      736700
 2136              	.LASF17:
 2137 002b 75696E74 		.ascii	"uint64_t\000"
 2137      36345F74 
 2137      00
 2138              	.LASF128:
 2139 0034 44656275 		.ascii	"Debug_ITMDebugOutputChar\000"
 2139      675F4954 
 2139      4D446562 
 2139      75674F75 
 2139      74707574 
 2140              	.LASF3:
 2141 004d 5F5F7569 		.ascii	"__uint8_t\000"
 2141      6E74385F 
 2141      7400
 2142              	.LASF87:
ARM GAS  C:\Users\jo\AppData\Local\Temp\ccOfoZWe.s 			page 39


 2143 0057 706F7274 		.ascii	"port_intctx\000"
 2143      5F696E74 
 2143      63747800 
 2144              	.LASF71:
 2145 0063 73797374 		.ascii	"system_debug_t\000"
 2145      656D5F64 
 2145      65627567 
 2145      5F7400
 2146              	.LASF13:
 2147 0072 6C6F6E67 		.ascii	"long long unsigned int\000"
 2147      206C6F6E 
 2147      6720756E 
 2147      7369676E 
 2147      65642069 
 2148              	.LASF96:
 2149 0089 63685F74 		.ascii	"ch_trace_buffer_t\000"
 2149      72616365 
 2149      5F627566 
 2149      6665725F 
 2149      7400
 2150              	.LASF91:
 2151 009b 73655F73 		.ascii	"se_state\000"
 2151      74617465 
 2151      00
 2152              	.LASF100:
 2153 00a4 65786974 		.ascii	"exitcode\000"
 2153      636F6465 
 2153      00
 2154              	.LASF81:
 2155 00ad 6D61696E 		.ascii	"mainthread\000"
 2155      74687265 
 2155      616400
 2156              	.LASF68:
 2157 00b8 76697274 		.ascii	"virtual_timers_list_t\000"
 2157      75616C5F 
 2157      74696D65 
 2157      72735F6C 
 2157      6973745F 
 2158              	.LASF123:
 2159 00ce 49544D5F 		.ascii	"ITM_RxBuffer\000"
 2159      52784275 
 2159      66666572 
 2159      00
 2160              	.LASF51:
 2161 00db 63685F74 		.ascii	"ch_threads_queue\000"
 2161      68726561 
 2161      64735F71 
 2161      75657565 
 2161      00
 2162              	.LASF30:
 2163 00ec 705F7072 		.ascii	"p_prio\000"
 2163      696F00
 2164              	.LASF120:
 2165 00f3 72656164 		.ascii	"reads\000"
 2165      7300
 2166              	.LASF126:
 2167 00f9 433A5C55 		.ascii	"C:\\Users\\jo\\Documents\\GitHub\\ChibiOS\\demos\\S"
ARM GAS  C:\Users\jo\AppData\Local\Temp\ccOfoZWe.s 			page 40


 2167      73657273 
 2167      5C6A6F5C 
 2167      446F6375 
 2167      6D656E74 
 2168 0125 544D3332 		.ascii	"TM32\\RT-STM32F407-DISCOVERY-uHttp\000"
 2168      5C52542D 
 2168      53544D33 
 2168      32463430 
 2168      372D4449 
 2169              	.LASF11:
 2170 0147 6C6F6E67 		.ascii	"long long int\000"
 2170      206C6F6E 
 2170      6720696E 
 2170      7400
 2171              	.LASF1:
 2172 0155 7369676E 		.ascii	"signed char\000"
 2172      65642063 
 2172      68617200 
 2173              	.LASF45:
 2174 0161 705F6D70 		.ascii	"p_mpool\000"
 2174      6F6F6C00 
 2175              	.LASF110:
 2176 0169 6D5F7175 		.ascii	"m_queue\000"
 2176      65756500 
 2177              	.LASF80:
 2178 0171 76746C69 		.ascii	"vtlist\000"
 2178      737400
 2179              	.LASF102:
 2180 0178 77747472 		.ascii	"wttrp\000"
 2180      7000
 2181              	.LASF78:
 2182 017e 63685F73 		.ascii	"ch_system\000"
 2182      79737465 
 2182      6D00
 2183              	.LASF8:
 2184 0188 6C6F6E67 		.ascii	"long int\000"
 2184      20696E74 
 2184      00
 2185              	.LASF20:
 2186 0191 74737461 		.ascii	"tstate_t\000"
 2186      74655F74 
 2186      00
 2187              	.LASF89:
 2188 019a 73655F74 		.ascii	"se_tp\000"
 2188      7000
 2189              	.LASF32:
 2190 01a0 705F6E65 		.ascii	"p_newer\000"
 2190      77657200 
 2191              	.LASF107:
 2192 01a8 735F7175 		.ascii	"s_queue\000"
 2192      65756500 
 2193              	.LASF93:
 2194 01b0 74625F73 		.ascii	"tb_size\000"
 2194      697A6500 
 2195              	.LASF57:
 2196 01b8 725F6E65 		.ascii	"r_newer\000"
 2196      77657200 
ARM GAS  C:\Users\jo\AppData\Local\Temp\ccOfoZWe.s 			page 41


 2197              	.LASF84:
 2198 01c0 72656761 		.ascii	"regarm_t\000"
 2198      726D5F74 
 2198      00
 2199              	.LASF64:
 2200 01c9 76745F70 		.ascii	"vt_prev\000"
 2200      72657600 
 2201              	.LASF114:
 2202 01d1 6D757465 		.ascii	"mutex_t\000"
 2202      785F7400 
 2203              	.LASF75:
 2204 01d9 6C6F636B 		.ascii	"lock_cnt\000"
 2204      5F636E74 
 2204      00
 2205              	.LASF82:
 2206 01e2 69646C65 		.ascii	"idle_thread_wa\000"
 2206      5F746872 
 2206      6561645F 
 2206      776100
 2207              	.LASF25:
 2208 01f1 636E745F 		.ascii	"cnt_t\000"
 2208      7400
 2209              	.LASF35:
 2210 01f7 705F7374 		.ascii	"p_stklimit\000"
 2210      6B6C696D 
 2210      697400
 2211              	.LASF0:
 2212 0202 756E7369 		.ascii	"unsigned int\000"
 2212      676E6564 
 2212      20696E74 
 2212      00
 2213              	.LASF63:
 2214 020f 76745F6E 		.ascii	"vt_next\000"
 2214      65787400 
 2215              	.LASF103:
 2216 0217 77747365 		.ascii	"wtsemp\000"
 2216      6D7000
 2217              	.LASF40:
 2218 021e 705F6D73 		.ascii	"p_msgqueue\000"
 2218      67717565 
 2218      756500
 2219              	.LASF108:
 2220 0229 735F636E 		.ascii	"s_cnt\000"
 2220      7400
 2221              	.LASF6:
 2222 022f 73686F72 		.ascii	"short unsigned int\000"
 2222      7420756E 
 2222      7369676E 
 2222      65642069 
 2222      6E7400
 2223              	.LASF48:
 2224 0242 63685F74 		.ascii	"ch_thread\000"
 2224      68726561 
 2224      6400
 2225              	.LASF23:
 2226 024c 6D73675F 		.ascii	"msg_t\000"
 2226      7400
ARM GAS  C:\Users\jo\AppData\Local\Temp\ccOfoZWe.s 			page 42


 2227              	.LASF77:
 2228 0252 63685F73 		.ascii	"ch_system_t\000"
 2228      79737465 
 2228      6D5F7400 
 2229              	.LASF121:
 2230 025e 77726974 		.ascii	"writes\000"
 2230      657300
 2231              	.LASF19:
 2232 0265 746D6F64 		.ascii	"tmode_t\000"
 2232      655F7400 
 2233              	.LASF53:
 2234 026d 63685F72 		.ascii	"ch_ready_list\000"
 2234      65616479 
 2234      5F6C6973 
 2234      7400
 2235              	.LASF24:
 2236 027b 6576656E 		.ascii	"eventmask_t\000"
 2236      746D6173 
 2236      6B5F7400 
 2237              	.LASF7:
 2238 0287 5F5F696E 		.ascii	"__int32_t\000"
 2238      7433325F 
 2238      7400
 2239              	.LASF124:
 2240 0291 474E5520 		.ascii	"GNU C 4.9.3 20141119 (release) [ARM/embedded-4_9-br"
 2240      4320342E 
 2240      392E3320 
 2240      32303134 
 2240      31313139 
 2241 02c4 616E6368 		.ascii	"anch revision 218278] -mcpu=cortex-m4 -mno-thumb-in"
 2241      20726576 
 2241      6973696F 
 2241      6E203231 
 2241      38323738 
 2242 02f7 74657277 		.ascii	"terwork -mthumb -ggdb -O2 -fomit-frame-pointer -fal"
 2242      6F726B20 
 2242      2D6D7468 
 2242      756D6220 
 2242      2D676764 
 2243 032a 69676E2D 		.ascii	"ign-functions=16 -ffunction-sections -fdata-section"
 2243      66756E63 
 2243      74696F6E 
 2243      733D3136 
 2243      202D6666 
 2244 035d 73202D66 		.ascii	"s -fno-common\000"
 2244      6E6F2D63 
 2244      6F6D6D6F 
 2244      6E00
 2245              	.LASF85:
 2246 036b 73746B61 		.ascii	"stkalign_t\000"
 2246      6C69676E 
 2246      5F7400
 2247              	.LASF117:
 2248 0376 77726974 		.ascii	"write\000"
 2248      6500
 2249              	.LASF39:
 2250 037c 705F7761 		.ascii	"p_waiting\000"
ARM GAS  C:\Users\jo\AppData\Local\Temp\ccOfoZWe.s 			page 43


 2250      6974696E 
 2250      6700
 2251              	.LASF83:
 2252 0386 73697A65 		.ascii	"sizetype\000"
 2252      74797065 
 2252      00
 2253              	.LASF46:
 2254 038f 74687265 		.ascii	"thread_reference_t\000"
 2254      61645F72 
 2254      65666572 
 2254      656E6365 
 2254      5F7400
 2255              	.LASF69:
 2256 03a2 63685F76 		.ascii	"ch_virtual_timers_list\000"
 2256      69727475 
 2256      616C5F74 
 2256      696D6572 
 2256      735F6C69 
 2257              	.LASF94:
 2258 03b9 74625F70 		.ascii	"tb_ptr\000"
 2258      747200
 2259              	.LASF92:
 2260 03c0 63685F73 		.ascii	"ch_swc_event_t\000"
 2260      77635F65 
 2260      76656E74 
 2260      5F7400
 2261              	.LASF70:
 2262 03cf 76745F6C 		.ascii	"vt_lasttime\000"
 2262      61737474 
 2262      696D6500 
 2263              	.LASF33:
 2264 03db 705F6F6C 		.ascii	"p_older\000"
 2264      64657200 
 2265              	.LASF56:
 2266 03e3 725F6374 		.ascii	"r_ctx\000"
 2266      7800
 2267              	.LASF98:
 2268 03e9 746D5F63 		.ascii	"tm_calibration_t\000"
 2268      616C6962 
 2268      72617469 
 2268      6F6E5F74 
 2268      00
 2269              	.LASF59:
 2270 03fa 725F6375 		.ascii	"r_current\000"
 2270      7272656E 
 2270      7400
 2271              	.LASF58:
 2272 0404 725F6F6C 		.ascii	"r_older\000"
 2272      64657200 
 2273              	.LASF12:
 2274 040c 5F5F7569 		.ascii	"__uint64_t\000"
 2274      6E743634 
 2274      5F7400
 2275              	.LASF119:
 2276 0417 49544D53 		.ascii	"ITMStream\000"
 2276      74726561 
 2276      6D00
ARM GAS  C:\Users\jo\AppData\Local\Temp\ccOfoZWe.s 			page 44


 2277              	.LASF95:
 2278 0421 74625F62 		.ascii	"tb_buffer\000"
 2278      75666665 
 2278      7200
 2279              	.LASF61:
 2280 042b 76697274 		.ascii	"virtual_timer_t\000"
 2280      75616C5F 
 2280      74696D65 
 2280      725F7400 
 2281              	.LASF29:
 2282 043b 705F7072 		.ascii	"p_prev\000"
 2282      657600
 2283              	.LASF22:
 2284 0442 74707269 		.ascii	"tprio_t\000"
 2284      6F5F7400 
 2285              	.LASF72:
 2286 044a 63685F73 		.ascii	"ch_system_debug\000"
 2286      79737465 
 2286      6D5F6465 
 2286      62756700 
 2287              	.LASF115:
 2288 045a 5F426F6F 		.ascii	"_Bool\000"
 2288      6C00
 2289              	.LASF15:
 2290 0460 696E7433 		.ascii	"int32_t\000"
 2290      325F7400 
 2291              	.LASF4:
 2292 0468 756E7369 		.ascii	"unsigned char\000"
 2292      676E6564 
 2292      20636861 
 2292      7200
 2293              	.LASF36:
 2294 0476 705F7374 		.ascii	"p_state\000"
 2294      61746500 
 2295              	.LASF43:
 2296 047e 705F6D74 		.ascii	"p_mtxlist\000"
 2296      786C6973 
 2296      7400
 2297              	.LASF5:
 2298 0488 73686F72 		.ascii	"short int\000"
 2298      7420696E 
 2298      7400
 2299              	.LASF55:
 2300 0492 725F7072 		.ascii	"r_prio\000"
 2300      696F00
 2301              	.LASF105:
 2302 0499 65776D61 		.ascii	"ewmask\000"
 2302      736B00
 2303              	.LASF28:
 2304 04a0 705F6E65 		.ascii	"p_next\000"
 2304      787400
 2305              	.LASF37:
 2306 04a7 705F666C 		.ascii	"p_flags\000"
 2306      61677300 
 2307              	.LASF34:
 2308 04af 705F6E61 		.ascii	"p_name\000"
 2308      6D6500
ARM GAS  C:\Users\jo\AppData\Local\Temp\ccOfoZWe.s 			page 45


 2309              	.LASF62:
 2310 04b6 63685F76 		.ascii	"ch_virtual_timer\000"
 2310      69727475 
 2310      616C5F74 
 2310      696D6572 
 2310      00
 2311              	.LASF106:
 2312 04c7 63685F73 		.ascii	"ch_semaphore\000"
 2312      656D6170 
 2312      686F7265 
 2312      00
 2313              	.LASF42:
 2314 04d4 705F6570 		.ascii	"p_epending\000"
 2314      656E6469 
 2314      6E6700
 2315              	.LASF16:
 2316 04df 75696E74 		.ascii	"uint32_t\000"
 2316      33325F74 
 2316      00
 2317              	.LASF104:
 2318 04e8 77746D74 		.ascii	"wtmtxp\000"
 2318      787000
 2319              	.LASF54:
 2320 04ef 725F7175 		.ascii	"r_queue\000"
 2320      65756500 
 2321              	.LASF65:
 2322 04f7 76745F64 		.ascii	"vt_delta\000"
 2322      656C7461 
 2322      00
 2323              	.LASF49:
 2324 0500 63685F74 		.ascii	"ch_threads_list\000"
 2324      68726561 
 2324      64735F6C 
 2324      69737400 
 2325              	.LASF10:
 2326 0510 6C6F6E67 		.ascii	"long unsigned int\000"
 2326      20756E73 
 2326      69676E65 
 2326      6420696E 
 2326      7400
 2327              	.LASF118:
 2328 0522 72656164 		.ascii	"read\000"
 2328      00
 2329              	.LASF113:
 2330 0527 63686172 		.ascii	"char\000"
 2330      00
 2331              	.LASF116:
 2332 052c 49544D53 		.ascii	"ITMStreamVMT\000"
 2332      74726561 
 2332      6D564D54 
 2332      00
 2333              	.LASF27:
 2334 0539 74687265 		.ascii	"thread_t\000"
 2334      61645F74 
 2334      00
 2335              	.LASF112:
 2336 0542 6D5F6E65 		.ascii	"m_next\000"
ARM GAS  C:\Users\jo\AppData\Local\Temp\ccOfoZWe.s 			page 46


 2336      787400
 2337              	.LASF26:
 2338 0549 73797374 		.ascii	"systime_t\000"
 2338      696D655F 
 2338      7400
 2339              	.LASF44:
 2340 0553 705F7265 		.ascii	"p_realprio\000"
 2340      616C7072 
 2340      696F00
 2341              	.LASF60:
 2342 055e 76746675 		.ascii	"vtfunc_t\000"
 2342      6E635F74 
 2342      00
 2343              	.LASF9:
 2344 0567 5F5F7569 		.ascii	"__uint32_t\000"
 2344      6E743332 
 2344      5F7400
 2345              	.LASF127:
 2346 0572 69746D4F 		.ascii	"itmObjectInit\000"
 2346      626A6563 
 2346      74496E69 
 2346      7400
 2347              	.LASF73:
 2348 0580 70616E69 		.ascii	"panic_msg\000"
 2348      635F6D73 
 2348      6700
 2349              	.LASF97:
 2350 058a 6F666673 		.ascii	"offset\000"
 2350      657400
 2351              	.LASF86:
 2352 0591 636F6E74 		.ascii	"context\000"
 2352      65787400 
 2353              	.LASF18:
 2354 0599 7274636E 		.ascii	"rtcnt_t\000"
 2354      745F7400 
 2355              	.LASF67:
 2356 05a1 76745F70 		.ascii	"vt_par\000"
 2356      617200
 2357              	.LASF122:
 2358 05a8 7069746D 		.ascii	"pitm\000"
 2358      00
 2359              	.LASF50:
 2360 05ad 74687265 		.ascii	"threads_queue_t\000"
 2360      6164735F 
 2360      71756575 
 2360      655F7400 
 2361              	.LASF109:
 2362 05bd 63685F6D 		.ascii	"ch_mutex\000"
 2362      75746578 
 2362      00
 2363              	.LASF38:
 2364 05c6 705F7265 		.ascii	"p_refs\000"
 2364      667300
 2365              	.LASF74:
 2366 05cd 6973725F 		.ascii	"isr_cnt\000"
 2366      636E7400 
 2367              	.LASF125:
ARM GAS  C:\Users\jo\AppData\Local\Temp\ccOfoZWe.s 			page 47


 2368 05d5 49544D5F 		.ascii	"ITM_trace.c\000"
 2368      74726163 
 2368      652E6300 
 2369              	.LASF79:
 2370 05e1 726C6973 		.ascii	"rlist\000"
 2370      7400
 2371              	.LASF14:
 2372 05e7 75696E74 		.ascii	"uint8_t\000"
 2372      385F7400 
 2373              	.LASF101:
 2374 05ef 77746F62 		.ascii	"wtobjp\000"
 2374      6A7000
 2375              	.LASF47:
 2376 05f6 74687265 		.ascii	"threads_list_t\000"
 2376      6164735F 
 2376      6C697374 
 2376      5F7400
 2377              	.LASF76:
 2378 0605 74726163 		.ascii	"trace_buffer\000"
 2378      655F6275 
 2378      66666572 
 2378      00
 2379              	.LASF41:
 2380 0612 705F6D73 		.ascii	"p_msg\000"
 2380      6700
 2381              	.LASF111:
 2382 0618 6D5F6F77 		.ascii	"m_owner\000"
 2382      6E657200 
 2383              	.LASF90:
 2384 0620 73655F77 		.ascii	"se_wtobjp\000"
 2384      746F626A 
 2384      7000
 2385              	.LASF31:
 2386 062a 705F6374 		.ascii	"p_ctx\000"
 2386      7800
 2387              	.LASF66:
 2388 0630 76745F66 		.ascii	"vt_func\000"
 2388      756E6300 
 2389              		.ident	"GCC: (GNU Tools for ARM Embedded Processors) 4.9.3 20141119 (release) [ARM/embedded-4_9-br
ARM GAS  C:\Users\jo\AppData\Local\Temp\ccOfoZWe.s 			page 48


DEFINED SYMBOLS
                            *ABS*:00000000 ITM_trace.c
C:\Users\jo\AppData\Local\Temp\ccOfoZWe.s:19     .text.get:00000000 $t
C:\Users\jo\AppData\Local\Temp\ccOfoZWe.s:24     .text.get:00000000 get
C:\Users\jo\AppData\Local\Temp\ccOfoZWe.s:41     .text.reads:00000000 $t
C:\Users\jo\AppData\Local\Temp\ccOfoZWe.s:46     .text.reads:00000000 reads
C:\Users\jo\AppData\Local\Temp\ccOfoZWe.s:62     .text.put:00000000 $t
C:\Users\jo\AppData\Local\Temp\ccOfoZWe.s:67     .text.put:00000000 put
C:\Users\jo\AppData\Local\Temp\ccOfoZWe.s:90     .text.writes:00000000 $t
C:\Users\jo\AppData\Local\Temp\ccOfoZWe.s:95     .text.writes:00000000 writes
C:\Users\jo\AppData\Local\Temp\ccOfoZWe.s:138    .text.itmObjectInit:00000000 $t
C:\Users\jo\AppData\Local\Temp\ccOfoZWe.s:144    .text.itmObjectInit:00000000 itmObjectInit
C:\Users\jo\AppData\Local\Temp\ccOfoZWe.s:159    .text.itmObjectInit:00000008 $d
C:\Users\jo\AppData\Local\Temp\ccOfoZWe.s:164    .rodata.vmt:00000000 $d
C:\Users\jo\AppData\Local\Temp\ccOfoZWe.s:168    .rodata.vmt:00000000 vmt
                     .debug_frame:00000010 $d
C:\Users\jo\AppData\Local\Temp\ccOfoZWe.s:163    .text.itmObjectInit:0000000c $t

UNDEFINED SYMBOLS
Debug_ITMDebugOutputChar
