ARM GAS  C:\Users\jo\AppData\Local\Temp\ccrNsdO5.s 			page 1


   1              		.syntax unified
   2              		.cpu cortex-m4
   3              		.fpu softvfp
   4              		.eabi_attribute 20, 1
   5              		.eabi_attribute 21, 1
   6              		.eabi_attribute 23, 3
   7              		.eabi_attribute 24, 1
   8              		.eabi_attribute 25, 1
   9              		.eabi_attribute 26, 1
  10              		.eabi_attribute 30, 2
  11              		.eabi_attribute 34, 1
  12              		.eabi_attribute 18, 4
  13              		.thumb
  14              		.file	"lwipthread.c"
  15              		.text
  16              	.Ltext0:
  17              		.cfi_sections	.debug_frame
  18              		.section	.text.ethernetif_init,"ax",%progbits
  19              		.align	2
  20              		.p2align 4,,15
  21              		.thumb
  22              		.thumb_func
  23              		.type	ethernetif_init, %function
  24              	ethernetif_init:
  25              	.LFB264:
  26              		.file 1 "../../../os/various/lwip_bindings/lwipthread.c"
  27              		.loc 1 182 0
  28              		.cfi_startproc
  29              		@ args = 0, pretend = 0, frame = 0
  30              		@ frame_needed = 0, uses_anonymous_args = 0
  31              		@ link register save eliminated.
  32              	.LVL0:
  33 0000 F0B4     		push	{r4, r5, r6, r7}
  34              		.cfi_def_cfa_offset 16
  35              		.cfi_offset 4, -16
  36              		.cfi_offset 5, -12
  37              		.cfi_offset 6, -8
  38              		.cfi_offset 7, -4
  39              		.loc 1 182 0
  40 0002 0346     		mov	r3, r0
  41              		.loc 1 196 0
  42 0004 6D22     		movs	r2, #109
  43 0006 80F82A20 		strb	r2, [r0, #42]
  44              		.loc 1 197 0
  45 000a 7327     		movs	r7, #115
  46              	.LBB13:
  47              	.LBB14:
  48              		.loc 1 92 0
  49 000c 0624     		movs	r4, #6
  50              		.loc 1 99 0
  51 000e 3222     		movs	r2, #50
  52              	.LBE14:
  53              	.LBE13:
  54              		.loc 1 202 0
  55 0010 084E     		ldr	r6, .L3
  56              		.loc 1 203 0
  57 0012 094D     		ldr	r5, .L3+4
ARM GAS  C:\Users\jo\AppData\Local\Temp\ccrNsdO5.s 			page 2


  58              		.loc 1 197 0
  59 0014 83F82B70 		strb	r7, [r3, #43]
  60              		.loc 1 195 0
  61 0018 0020     		movs	r0, #0
  62              	.LVL1:
  63              	.LBB17:
  64              	.LBB15:
  65              		.loc 1 95 0
  66 001a 40F2DC51 		movw	r1, #1500
  67              		.loc 1 92 0
  68 001e 83F82240 		strb	r4, [r3, #34]
  69              		.loc 1 99 0
  70 0022 83F82920 		strb	r2, [r3, #41]
  71              	.LBE15:
  72              	.LBE17:
  73              		.loc 1 202 0
  74 0026 5E61     		str	r6, [r3, #20]
  75              		.loc 1 203 0
  76 0028 9D61     		str	r5, [r3, #24]
  77              	.LVL2:
  78              	.LBB18:
  79              	.LBB16:
  80              		.loc 1 95 0
  81 002a 1984     		strh	r1, [r3, #32]	@ movhi
  82              	.LBE16:
  83              	.LBE18:
  84              		.loc 1 195 0
  85 002c D861     		str	r0, [r3, #28]
  86              		.loc 1 209 0
  87 002e F0BC     		pop	{r4, r5, r6, r7}
  88              		.cfi_restore 7
  89              		.cfi_restore 6
  90              		.cfi_restore 5
  91              		.cfi_restore 4
  92              		.cfi_def_cfa_offset 0
  93 0030 7047     		bx	lr
  94              	.L4:
  95 0032 00BF     		.align	2
  96              	.L3:
  97 0034 00000000 		.word	etharp_output
  98 0038 00000000 		.word	low_level_output
  99              		.cfi_endproc
 100              	.LFE264:
 101              		.size	ethernetif_init, .-ethernetif_init
 102 003c AFF30080 		.section	.text.low_level_output,"ax",%progbits
 103              		.align	2
 104              		.p2align 4,,15
 105              		.thumb
 106              		.thumb_func
 107              		.type	low_level_output, %function
 108              	low_level_output:
 109              	.LFB262:
 110              		.loc 1 107 0
 111              		.cfi_startproc
 112              		@ args = 0, pretend = 0, frame = 16
 113              		@ frame_needed = 0, uses_anonymous_args = 0
 114              	.LVL3:
ARM GAS  C:\Users\jo\AppData\Local\Temp\ccrNsdO5.s 			page 3


 115 0000 30B5     		push	{r4, r5, lr}
 116              		.cfi_def_cfa_offset 12
 117              		.cfi_offset 4, -12
 118              		.cfi_offset 5, -8
 119              		.cfi_offset 14, -4
 120 0002 85B0     		sub	sp, sp, #20
 121              		.cfi_def_cfa_offset 32
 122              		.loc 1 107 0
 123 0004 0D46     		mov	r5, r1
 124              		.loc 1 112 0
 125 0006 1348     		ldr	r0, .L14
 126              	.LVL4:
 127 0008 01A9     		add	r1, sp, #4
 128              	.LVL5:
 129 000a 40F6C412 		movw	r2, #2500
 130 000e FFF7FEFF 		bl	macWaitTransmitDescriptor
 131              	.LVL6:
 132 0012 E8B9     		cbnz	r0, .L10
 133              		.loc 1 116 0
 134 0014 2846     		mov	r0, r5
 135 0016 6FF00101 		mvn	r1, #1
 136 001a FFF7FEFF 		bl	pbuf_header
 137              	.LVL7:
 138              		.loc 1 120 0
 139 001e 2C46     		mov	r4, r5
 140 0020 3DB1     		cbz	r5, .L9
 141              	.LVL8:
 142              	.L8:
 143              		.loc 1 121 0 discriminator 3
 144 0022 6168     		ldr	r1, [r4, #4]
 145 0024 6289     		ldrh	r2, [r4, #10]
 146 0026 01A8     		add	r0, sp, #4
 147 0028 FFF7FEFF 		bl	mac_lld_write_transmit_descriptor
 148              	.LVL9:
 149              		.loc 1 120 0 discriminator 3
 150 002c 2468     		ldr	r4, [r4]
 151              	.LVL10:
 152 002e 002C     		cmp	r4, #0
 153 0030 F7D1     		bne	.L8
 154              	.L9:
 155              		.loc 1 122 0
 156 0032 01A8     		add	r0, sp, #4
 157 0034 FFF7FEFF 		bl	macReleaseTransmitDescriptor
 158              	.LVL11:
 159              		.loc 1 125 0
 160 0038 2846     		mov	r0, r5
 161 003a 0221     		movs	r1, #2
 162 003c FFF7FEFF 		bl	pbuf_header
 163              	.LVL12:
 164              		.loc 1 128 0
 165 0040 054A     		ldr	r2, .L14+4
 166 0042 1388     		ldrh	r3, [r2]
 167 0044 0133     		adds	r3, r3, #1
 168 0046 1380     		strh	r3, [r2]	@ movhi
 169              		.loc 1 130 0
 170 0048 0020     		movs	r0, #0
 171              	.LVL13:
ARM GAS  C:\Users\jo\AppData\Local\Temp\ccrNsdO5.s 			page 4


 172              	.L6:
 173              		.loc 1 131 0
 174 004a 40B2     		sxtb	r0, r0
 175 004c 05B0     		add	sp, sp, #20
 176              		.cfi_remember_state
 177              		.cfi_def_cfa_offset 12
 178              		@ sp needed
 179 004e 30BD     		pop	{r4, r5, pc}
 180              	.LVL14:
 181              	.L10:
 182              		.cfi_restore_state
 183              		.loc 1 113 0
 184 0050 FD20     		movs	r0, #253
 185 0052 FAE7     		b	.L6
 186              	.L15:
 187              		.align	2
 188              	.L14:
 189 0054 00000000 		.word	ETHD1
 190 0058 00000000 		.word	lwip_stats
 191              		.cfi_endproc
 192              	.LFE262:
 193              		.size	low_level_output, .-low_level_output
 194              		.section	.text.lwip_thread,"ax",%progbits
 195              		.align	2
 196              		.p2align 4,,15
 197              		.global	lwip_thread
 198              		.thumb
 199              		.thumb_func
 200              		.type	lwip_thread, %function
 201              	lwip_thread:
 202              	.LFB265:
 203              		.loc 1 217 0
 204              		.cfi_startproc
 205              		@ args = 0, pretend = 0, frame = 96
 206              		@ frame_needed = 0, uses_anonymous_args = 0
 207              	.LVL15:
 208 0000 F0B5     		push	{r4, r5, r6, r7, lr}
 209              		.cfi_def_cfa_offset 20
 210              		.cfi_offset 4, -20
 211              		.cfi_offset 5, -16
 212              		.cfi_offset 6, -12
 213              		.cfi_offset 7, -8
 214              		.cfi_offset 14, -4
 215              		.loc 1 224 0
 216 0002 694B     		ldr	r3, .L43
 217 0004 694A     		ldr	r2, .L43+4
 218 0006 9B69     		ldr	r3, [r3, #24]
 219              		.loc 1 217 0
 220 0008 0446     		mov	r4, r0
 221              		.loc 1 227 0
 222 000a 0020     		movs	r0, #0
 223              	.LVL16:
 224              		.loc 1 217 0
 225 000c 9DB0     		sub	sp, sp, #116
 226              		.cfi_def_cfa_offset 136
 227              		.loc 1 224 0
 228 000e 9A61     		str	r2, [r3, #24]
ARM GAS  C:\Users\jo\AppData\Local\Temp\ccrNsdO5.s 			page 5


 229              		.loc 1 227 0
 230 0010 0146     		mov	r1, r0
 231 0012 FFF7FEFF 		bl	tcpip_init
 232              	.LVL17:
 233              		.loc 1 230 0
 234 0016 84B1     		cbz	r4, .L17
 235 0018 654A     		ldr	r2, .L43+8
 236 001a 0023     		movs	r3, #0
 237              	.L18:
 238              	.LVL18:
 239              	.LBB30:
 240              		.loc 1 235 0 discriminator 3
 241 001c 2168     		ldr	r1, [r4]
 242 001e C95C     		ldrb	r1, [r1, r3]	@ zero_extendqisi2
 243 0020 02F8011F 		strb	r1, [r2, #1]!
 244              		.loc 1 234 0 discriminator 3
 245 0024 0133     		adds	r3, r3, #1
 246              	.LVL19:
 247 0026 062B     		cmp	r3, #6
 248 0028 F8D1     		bne	.L18
 249              		.loc 1 236 0
 250 002a 6168     		ldr	r1, [r4, #4]
 251              		.loc 1 237 0
 252 002c E268     		ldr	r2, [r4, #12]
 253              		.loc 1 238 0
 254 002e A368     		ldr	r3, [r4, #8]
 255              	.LVL20:
 256              		.loc 1 236 0
 257 0030 0591     		str	r1, [sp, #20]
 258              		.loc 1 237 0
 259 0032 0692     		str	r2, [sp, #24]
 260              		.loc 1 238 0
 261 0034 0793     		str	r3, [sp, #28]
 262 0036 5F4F     		ldr	r7, .L43+12
 263              	.LBE30:
 264 0038 1AE0     		b	.L19
 265              	.L17:
 266              		.loc 1 241 0
 267 003a 5E4F     		ldr	r7, .L43+12
 268              		.loc 1 247 0
 269 003c 5E4B     		ldr	r3, .L43+16
 270              		.loc 1 248 0
 271 003e 5F4A     		ldr	r2, .L43+20
 272              		.loc 1 247 0
 273 0040 0593     		str	r3, [sp, #20]
 274              		.loc 1 241 0
 275 0042 4FF0C20E 		mov	lr, #194
 276              		.loc 1 242 0
 277 0046 AF26     		movs	r6, #175
 278              		.loc 1 243 0
 279 0048 5125     		movs	r5, #81
 280              		.loc 1 244 0
 281 004a 0324     		movs	r4, #3
 282              	.LVL21:
 283              		.loc 1 245 0
 284 004c CF20     		movs	r0, #207
 285              		.loc 1 246 0
ARM GAS  C:\Users\jo\AppData\Local\Temp\ccrNsdO5.s 			page 6


 286 004e 4621     		movs	r1, #70
 287              		.loc 1 249 0
 288 0050 6FF07F43 		mvn	r3, #-16777216
 289              		.loc 1 241 0
 290 0054 87F823E0 		strb	lr, [r7, #35]
 291              		.loc 1 242 0
 292 0058 87F82460 		strb	r6, [r7, #36]
 293              		.loc 1 243 0
 294 005c 87F82550 		strb	r5, [r7, #37]
 295              		.loc 1 244 0
 296 0060 87F82640 		strb	r4, [r7, #38]
 297              		.loc 1 245 0
 298 0064 87F82700 		strb	r0, [r7, #39]
 299              		.loc 1 246 0
 300 0068 87F82810 		strb	r1, [r7, #40]
 301              		.loc 1 248 0
 302 006c 0692     		str	r2, [sp, #24]
 303              		.loc 1 249 0
 304 006e 0793     		str	r3, [sp, #28]
 305              	.L19:
 306              		.loc 1 251 0
 307 0070 5348     		ldr	r0, .L43+24
 308 0072 5449     		ldr	r1, .L43+28
 309 0074 544E     		ldr	r6, .L43+32
 310 0076 FFF7FEFF 		bl	macStart
 311              	.LVL22:
 312              		.loc 1 252 0
 313 007a 544A     		ldr	r2, .L43+36
 314 007c 544B     		ldr	r3, .L43+40
 315 007e 4D48     		ldr	r0, .L43+12
 316 0080 0021     		movs	r1, #0
 317 0082 8DE80E00 		stmia	sp, {r1, r2, r3}
 318 0086 07AA     		add	r2, sp, #28
 319 0088 06AB     		add	r3, sp, #24
 320 008a 05A9     		add	r1, sp, #20
 321 008c FFF7FEFF 		bl	netif_add
 322              	.LVL23:
 323              		.loc 1 254 0
 324 0090 4848     		ldr	r0, .L43+12
 325 0092 FFF7FEFF 		bl	netif_set_default
 326              	.LVL24:
 327              		.loc 1 255 0
 328 0096 4748     		ldr	r0, .L43+12
 329 0098 FFF7FEFF 		bl	netif_set_up
 330              	.LVL25:
 331              		.loc 1 258 0
 332 009c 15A8     		add	r0, sp, #84
 333 009e 4D49     		ldr	r1, .L43+44
 334 00a0 FFF7FEFF 		bl	evtObjectInit
 335              	.LVL26:
 336              		.loc 1 259 0
 337 00a4 15A8     		add	r0, sp, #84
 338 00a6 FFF7FEFF 		bl	evtStart
 339              	.LVL27:
 340              	.LBB31:
 341              	.LBB32:
 342              		.file 2 "../../../os/rt/include/chevents.h"
ARM GAS  C:\Users\jo\AppData\Local\Temp\ccrNsdO5.s 			page 7


 343              		.loc 2 193 0
 344 00aa 1AA8     		add	r0, sp, #104
 345              	.LVL28:
 346 00ac 0BA9     		add	r1, sp, #44
 347              	.LVL29:
 348 00ae 0122     		movs	r2, #1
 349 00b0 4FF0FF33 		mov	r3, #-1
 350 00b4 FFF7FEFF 		bl	chEvtRegisterMaskWithFlags
 351              	.LVL30:
 352              	.LBE32:
 353              	.LBE31:
 354              	.LBB33:
 355              	.LBB34:
 356 00b8 10A9     		add	r1, sp, #64
 357              	.LVL31:
 358 00ba 0222     		movs	r2, #2
 359 00bc 4FF0FF33 		mov	r3, #-1
 360 00c0 4548     		ldr	r0, .L43+48
 361              	.LVL32:
 362 00c2 FFF7FEFF 		bl	chEvtRegisterMaskWithFlags
 363              	.LVL33:
 364              	.LBE34:
 365              	.LBE33:
 366              		.loc 1 262 0
 367 00c6 0320     		movs	r0, #3
 368 00c8 FFF7FEFF 		bl	chEvtAddEvents
 369              	.LVL34:
 370              		.loc 1 265 0
 371 00cc 0220     		movs	r0, #2
 372 00ce FFF7FEFF 		bl	chThdSetPriority
 373              	.LVL35:
 374 00d2 01E0     		b	.L25
 375              	.LVL36:
 376              	.L21:
 377              	.LBB35:
 378              		.loc 1 288 0
 379 00d4 A307     		lsls	r3, r4, #30
 380 00d6 18D4     		bmi	.L39
 381              	.LVL37:
 382              	.L25:
 383              		.loc 1 268 0
 384 00d8 4FF0FF30 		mov	r0, #-1
 385 00dc FFF7FEFF 		bl	chEvtWaitAny
 386              	.LVL38:
 387              		.loc 1 269 0
 388 00e0 C207     		lsls	r2, r0, #31
 389              		.loc 1 268 0
 390 00e2 0446     		mov	r4, r0
 391              	.LVL39:
 392              		.loc 1 269 0
 393 00e4 F6D5     		bpl	.L21
 394              	.LBB36:
 395              		.loc 1 270 0
 396 00e6 3648     		ldr	r0, .L43+24
 397              	.LVL40:
 398 00e8 FFF7FEFF 		bl	macPollLinkStatus
 399              	.LVL41:
ARM GAS  C:\Users\jo\AppData\Local\Temp\ccrNsdO5.s 			page 8


 400              		.loc 1 271 0
 401 00ec 97F82930 		ldrb	r3, [r7, #41]	@ zero_extendqisi2
 402 00f0 C3F30013 		ubfx	r3, r3, #4, #1
 403 00f4 9842     		cmp	r0, r3
 404 00f6 EDD0     		beq	.L21
 405              		.loc 1 272 0
 406 00f8 0028     		cmp	r0, #0
 407 00fa 4ED0     		beq	.L23
 408              		.loc 1 273 0
 409 00fc 3748     		ldr	r0, .L43+52
 410              	.LVL42:
 411 00fe 2D49     		ldr	r1, .L43+12
 412 0100 0022     		movs	r2, #0
 413 0102 FFF7FEFF 		bl	tcpip_callback_with_block
 414              	.LVL43:
 415              	.LBE36:
 416              		.loc 1 288 0
 417 0106 A307     		lsls	r3, r4, #30
 418 0108 E6D5     		bpl	.L25
 419              	.LVL44:
 420              	.L39:
 421              	.LBB37:
 422              	.LBB38:
 423              	.LBB39:
 424              		.loc 1 142 0
 425 010a 2D48     		ldr	r0, .L43+24
 426 010c 08A9     		add	r1, sp, #32
 427 010e 0022     		movs	r2, #0
 428 0110 FFF7FEFF 		bl	macWaitReceiveDescriptor
 429              	.LVL45:
 430 0114 0028     		cmp	r0, #0
 431 0116 DFD1     		bne	.L25
 432              		.loc 1 143 0
 433 0118 BDF82410 		ldrh	r1, [sp, #36]
 434              	.LVL46:
 435              		.loc 1 150 0
 436 011c 0320     		movs	r0, #3
 437              		.loc 1 146 0
 438 011e 0231     		adds	r1, r1, #2
 439              	.LVL47:
 440              		.loc 1 150 0
 441 0120 89B2     		uxth	r1, r1
 442              	.LVL48:
 443 0122 0246     		mov	r2, r0
 444 0124 FFF7FEFF 		bl	pbuf_alloc
 445              	.LVL49:
 446              		.loc 1 152 0
 447 0128 0546     		mov	r5, r0
 448 012a 60B3     		cbz	r0, .L30
 449              		.loc 1 155 0
 450 012c 6FF00101 		mvn	r1, #1
 451 0130 FFF7FEFF 		bl	pbuf_header
 452              	.LVL50:
 453 0134 2C46     		mov	r4, r5
 454              	.LVL51:
 455              	.L31:
 456              		.loc 1 160 0
ARM GAS  C:\Users\jo\AppData\Local\Temp\ccrNsdO5.s 			page 9


 457 0136 6168     		ldr	r1, [r4, #4]
 458 0138 6289     		ldrh	r2, [r4, #10]
 459 013a 08A8     		add	r0, sp, #32
 460 013c FFF7FEFF 		bl	mac_lld_read_receive_descriptor
 461              	.LVL52:
 462              		.loc 1 159 0
 463 0140 2468     		ldr	r4, [r4]
 464              	.LVL53:
 465 0142 002C     		cmp	r4, #0
 466 0144 F7D1     		bne	.L31
 467              		.loc 1 161 0
 468 0146 08A8     		add	r0, sp, #32
 469 0148 FFF7FEFF 		bl	macReleaseReceiveDescriptor
 470              	.LVL54:
 471              		.loc 1 164 0
 472 014c 0221     		movs	r1, #2
 473 014e 2846     		mov	r0, r5
 474 0150 FFF7FEFF 		bl	pbuf_header
 475              	.LVL55:
 476              		.loc 1 167 0
 477 0154 7388     		ldrh	r3, [r6, #2]
 478              	.LBE39:
 479              	.LBE38:
 480              	.LBB42:
 481              		.loc 1 292 0
 482 0156 6A68     		ldr	r2, [r5, #4]
 483              	.LBE42:
 484              	.LBB43:
 485              	.LBB40:
 486              		.loc 1 167 0
 487 0158 0133     		adds	r3, r3, #1
 488 015a 7380     		strh	r3, [r6, #2]	@ movhi
 489              	.LVL56:
 490              	.LBE40:
 491              	.LBE43:
 492              	.LBB44:
 493              		.loc 1 292 0
 494 015c D089     		ldrh	r0, [r2, #14]	@ unaligned
 495 015e FFF7FEFF 		bl	lwip_htons
 496              	.LVL57:
 497 0162 B0F5006F 		cmp	r0, #2048
 498 0166 07D0     		beq	.L26
 499 0168 40F60603 		movw	r3, #2054
 500 016c 9842     		cmp	r0, r3
 501 016e 03D0     		beq	.L26
 502              	.L28:
 503              		.loc 1 306 0
 504 0170 2846     		mov	r0, r5
 505 0172 FFF7FEFF 		bl	pbuf_free
 506              	.LVL58:
 507 0176 C8E7     		b	.L39
 508              	.L26:
 509              		.loc 1 302 0
 510 0178 3B69     		ldr	r3, [r7, #16]
 511 017a 0E49     		ldr	r1, .L43+12
 512 017c 2846     		mov	r0, r5
 513 017e 9847     		blx	r3
ARM GAS  C:\Users\jo\AppData\Local\Temp\ccrNsdO5.s 			page 10


 514              	.LVL59:
 515 0180 0028     		cmp	r0, #0
 516 0182 C2D0     		beq	.L39
 517 0184 F4E7     		b	.L28
 518              	.LVL60:
 519              	.L30:
 520              	.LBE44:
 521              	.LBB45:
 522              	.LBB41:
 523              		.loc 1 170 0
 524 0186 08A8     		add	r0, sp, #32
 525              	.LVL61:
 526 0188 FFF7FEFF 		bl	macReleaseReceiveDescriptor
 527              	.LVL62:
 528              		.loc 1 171 0
 529 018c B289     		ldrh	r2, [r6, #12]
 530              		.loc 1 172 0
 531 018e F388     		ldrh	r3, [r6, #6]
 532              		.loc 1 171 0
 533 0190 0132     		adds	r2, r2, #1
 534              		.loc 1 172 0
 535 0192 0133     		adds	r3, r3, #1
 536              		.loc 1 171 0
 537 0194 B281     		strh	r2, [r6, #12]	@ movhi
 538              		.loc 1 172 0
 539 0196 F380     		strh	r3, [r6, #6]	@ movhi
 540 0198 9EE7     		b	.L25
 541              	.LVL63:
 542              	.L23:
 543              	.LBE41:
 544              	.LBE45:
 545              	.LBE37:
 546              	.LBB46:
 547              		.loc 1 280 0
 548 019a 0246     		mov	r2, r0
 549 019c 0549     		ldr	r1, .L43+12
 550 019e 1048     		ldr	r0, .L43+56
 551              	.LVL64:
 552 01a0 FFF7FEFF 		bl	tcpip_callback_with_block
 553              	.LVL65:
 554 01a4 96E7     		b	.L21
 555              	.L44:
 556 01a6 00BF     		.align	2
 557              	.L43:
 558 01a8 00000000 		.word	ch
 559 01ac 00000000 		.word	.LC0
 560 01b0 22000000 		.word	.LANCHOR0+34
 561 01b4 00000000 		.word	.LANCHOR0
 562 01b8 C0A8020A 		.word	167946432
 563 01bc C0A80201 		.word	16951488
 564 01c0 00000000 		.word	ETHD1
 565 01c4 00000000 		.word	.LANCHOR1
 566 01c8 00000000 		.word	lwip_stats
 567 01cc 00000000 		.word	ethernetif_init
 568 01d0 00000000 		.word	tcpip_input
 569 01d4 90D00300 		.word	250000
 570 01d8 18000000 		.word	ETHD1+24
ARM GAS  C:\Users\jo\AppData\Local\Temp\ccrNsdO5.s 			page 11


 571 01dc 00000000 		.word	netif_set_link_up
 572 01e0 00000000 		.word	netif_set_link_down
 573              	.LBE46:
 574              	.LBE35:
 575              		.cfi_endproc
 576              	.LFE265:
 577              		.size	lwip_thread, .-lwip_thread
 578              		.global	wa_lwip_thread
 579 01e4 AFF30080 		.section	.bss.wa_lwip_thread,"aw",%nobits
 579      AFF30080 
 579      AFF30080 
 580              		.align	3
 581              		.type	wa_lwip_thread, %object
 582              		.size	wa_lwip_thread, 784
 583              	wa_lwip_thread:
 584 0000 00000000 		.space	784
 584      00000000 
 584      00000000 
 584      00000000 
 584      00000000 
 585              		.section	.rodata.mac_config.8738,"a",%progbits
 586              		.align	2
 587              		.set	.LANCHOR1,. + 0
 588              		.type	mac_config.8738, %object
 589              		.size	mac_config.8738, 4
 590              	mac_config.8738:
 591 0000 23000000 		.word	thisif.8737+35
 592              		.section	.rodata.str1.4,"aMS",%progbits,1
 593              		.align	2
 594              	.LC0:
 595 0000 6C776970 		.ascii	"lwipthread\000"
 595      74687265 
 595      616400
 596 000b 00       		.section	.bss.thisif.8737,"aw",%nobits
 597              		.align	2
 598              		.set	.LANCHOR0,. + 0
 599              		.type	thisif.8737, %object
 600              		.size	thisif.8737, 48
 601              	thisif.8737:
 602 0000 00000000 		.space	48
 602      00000000 
 602      00000000 
 602      00000000 
 602      00000000 
 603              		.text
 604              	.Letext0:
 605              		.file 3 "c:\\program files\\gnu tools arm embedded\\4.9 2014q4\\lib\\gcc\\arm-none-eabi\\4.9.3\\in
 606              		.file 4 "c:\\program files\\gnu tools arm embedded\\4.9 2014q4\\arm-none-eabi\\include\\machine\\_
 607              		.file 5 "c:\\program files\\gnu tools arm embedded\\4.9 2014q4\\arm-none-eabi\\include\\stdint.h"
 608              		.file 6 "../../../os/rt/ports/ARMCMx/compilers/GCC/chtypes.h"
 609              		.file 7 "../../../os/rt/include/chsystypes.h"
 610              		.file 8 "../../../os/rt/include/chschd.h"
 611              		.file 9 "../../../os/rt/ports/ARMCMx/chcore.h"
 612              		.file 10 "../../../os/rt/ports/ARMCMx/chcore_v7m.h"
 613              		.file 11 "../../../os/rt/include/chdebug.h"
 614              		.file 12 "../../../os/rt/include/chtm.h"
 615              		.file 13 "../../../os/rt/include/chsem.h"
ARM GAS  C:\Users\jo\AppData\Local\Temp\ccrNsdO5.s 			page 12


 616              		.file 14 "../../../os/rt/include/chmtx.h"
 617              		.file 15 "../../../os/rt/include/chstreams.h"
 618              		.file 16 "../../../os/hal/include/mac.h"
 619              		.file 17 "../../../os/hal/ports/STM32/LLD/mac_lld.h"
 620              		.file 18 "../../../os/various/evtimer.h"
 621              		.file 19 "./ITM_trace.h"
 622              		.file 20 "../../../os/various/lwip_bindings/arch/cc.h"
 623              		.file 21 "../../../os/various/lwip_bindings/lwipthread.h"
 624              		.file 22 "../../../ext/lwip/src/include/lwip/mem.h"
 625              		.file 23 "../../../ext/lwip/src/include/lwip/err.h"
 626              		.file 24 "../../../ext/lwip/src/include/lwip/pbuf.h"
 627              		.file 25 "../../../ext/lwip/src/include/lwip/memp.h"
 628              		.file 26 "../../../ext/lwip/src/include/lwip/stats.h"
 629              		.file 27 "../../../ext/lwip/src/include/ipv4/lwip/ip_addr.h"
 630              		.file 28 "../../../ext/lwip/src/include/lwip/netif.h"
 631              		.file 29 "../../../ext/lwip/src/include/lwip/tcpip.h"
 632              		.file 30 "../../../ext/lwip/src/include/netif/etharp.h"
 633              		.file 31 "../../../os/ext/CMSIS/include/core_cm4.h"
 634              		.file 32 "../../../ext/lwip/src/include/lwip/def.h"
 635              		.file 33 "../../../os/rt/include/chthreads.h"