ARM GAS  C:\Users\jo\AppData\Local\Temp\ccwTMAf9.s 			page 1


   1              		.syntax unified
   2              		.cpu cortex-m4
   3              		.fpu softvfp
   4              		.eabi_attribute 20, 1
   5              		.eabi_attribute 21, 1
   6              		.eabi_attribute 23, 3
   7              		.eabi_attribute 24, 1
   8              		.eabi_attribute 25, 1
   9              		.eabi_attribute 26, 1
  10              		.eabi_attribute 30, 2
  11              		.eabi_attribute 34, 1
  12              		.eabi_attribute 18, 4
  13              		.thumb
  14              		.file	"mac_lld.c"
  15              		.text
  16              	.Ltext0:
  17              		.cfi_sections	.debug_frame
  18              		.section	.text.mac_lld_set_address,"ax",%progbits
  19              		.align	2
  20              		.p2align 4,,15
  21              		.thumb
  22              		.thumb_func
  23              		.type	mac_lld_set_address, %function
  24              	mac_lld_set_address:
  25              	.LFB262:
  26              		.file 1 "../../../os/hal/ports/STM32/LLD/mac_lld.c"
  27              		.loc 1 152 0
  28              		.cfi_startproc
  29              		@ args = 0, pretend = 0, frame = 0
  30              		@ frame_needed = 0, uses_anonymous_args = 0
  31              		@ link register save eliminated.
  32              	.LVL0:
  33 0000 30B4     		push	{r4, r5}
  34              		.cfi_def_cfa_offset 8
  35              		.cfi_offset 4, -8
  36              		.cfi_offset 5, -4
  37              		.loc 1 156 0
  38 0002 4179     		ldrb	r1, [r0, #5]	@ zero_extendqisi2
  39              		.loc 1 157 0
  40 0004 0279     		ldrb	r2, [r0, #4]	@ zero_extendqisi2
  41              		.loc 1 156 0
  42 0006 0F4B     		ldr	r3, .L3
  43 0008 42EA0122 		orr	r2, r2, r1, lsl #8
  44 000c 1A64     		str	r2, [r3, #64]
  45              		.loc 1 159 0
  46 000e 8478     		ldrb	r4, [r0, #2]	@ zero_extendqisi2
  47              		.loc 1 158 0
  48 0010 C278     		ldrb	r2, [r0, #3]	@ zero_extendqisi2
  49              		.loc 1 161 0
  50 0012 0178     		ldrb	r1, [r0]	@ zero_extendqisi2
  51              		.loc 1 160 0
  52 0014 4578     		ldrb	r5, [r0, #1]	@ zero_extendqisi2
  53              		.loc 1 159 0
  54 0016 2004     		lsls	r0, r4, #16
  55              	.LVL1:
  56              		.loc 1 158 0
  57 0018 40EA0262 		orr	r2, r0, r2, lsl #24
ARM GAS  C:\Users\jo\AppData\Local\Temp\ccwTMAf9.s 			page 2


  58 001c 0A43     		orrs	r2, r2, r1
  59              		.loc 1 162 0
  60 001e 4FF6FF70 		movw	r0, #65535
  61              		.loc 1 163 0
  62 0022 4FF0FF31 		mov	r1, #-1
  63              		.loc 1 168 0
  64 0026 0024     		movs	r4, #0
  65              		.loc 1 160 0
  66 0028 42EA0522 		orr	r2, r2, r5, lsl #8
  67              		.loc 1 158 0
  68 002c 5A64     		str	r2, [r3, #68]
  69              		.loc 1 162 0
  70 002e 9864     		str	r0, [r3, #72]
  71              		.loc 1 163 0
  72 0030 D964     		str	r1, [r3, #76]
  73              		.loc 1 164 0
  74 0032 1865     		str	r0, [r3, #80]
  75              		.loc 1 165 0
  76 0034 5965     		str	r1, [r3, #84]
  77              		.loc 1 166 0
  78 0036 9865     		str	r0, [r3, #88]
  79              		.loc 1 167 0
  80 0038 D965     		str	r1, [r3, #92]
  81              		.loc 1 168 0
  82 003a 9C60     		str	r4, [r3, #8]
  83              		.loc 1 169 0
  84 003c DC60     		str	r4, [r3, #12]
  85              		.loc 1 170 0
  86 003e 30BC     		pop	{r4, r5}
  87              		.cfi_restore 5
  88              		.cfi_restore 4
  89              		.cfi_def_cfa_offset 0
  90 0040 7047     		bx	lr
  91              	.L4:
  92 0042 00BF     		.align	2
  93              	.L3:
  94 0044 00800240 		.word	1073905664
  95              		.cfi_endproc
  96              	.LFE262:
  97              		.size	mac_lld_set_address, .-mac_lld_set_address
  98 0048 AFF30080 		.section	.text.mii_write,"ax",%progbits
  98      AFF30080 
  99              		.align	2
 100              		.p2align 4,,15
 101              		.global	mii_write
 102              		.thumb
 103              		.thumb_func
 104              		.type	mii_write, %function
 105              	mii_write:
 106              	.LFB259:
 107              		.loc 1 89 0
 108              		.cfi_startproc
 109              		@ args = 0, pretend = 0, frame = 0
 110              		@ frame_needed = 0, uses_anonymous_args = 0
 111              		@ link register save eliminated.
 112              	.LVL2:
 113              		.loc 1 91 0
ARM GAS  C:\Users\jo\AppData\Local\Temp\ccwTMAf9.s 			page 3


 114 0000 064B     		ldr	r3, .L9
 115 0002 5A61     		str	r2, [r3, #20]
 116 0004 026A     		ldr	r2, [r0, #32]
 117              	.LVL3:
 118 0006 42F01302 		orr	r2, r2, #19
 119              		.loc 1 93 0
 120 000a 42EA8111 		orr	r1, r2, r1, lsl #6
 121              	.LVL4:
 122              		.loc 1 92 0
 123 000e 1961     		str	r1, [r3, #16]
 124              	.LVL5:
 125              		.loc 1 94 0
 126 0010 1A46     		mov	r2, r3
 127              	.L6:
 128              		.loc 1 94 0 is_stmt 0 discriminator 1
 129 0012 1369     		ldr	r3, [r2, #16]
 130 0014 DB07     		lsls	r3, r3, #31
 131 0016 FCD4     		bmi	.L6
 132              		.loc 1 96 0 is_stmt 1
 133 0018 7047     		bx	lr
 134              	.L10:
 135 001a 00BF     		.align	2
 136              	.L9:
 137 001c 00800240 		.word	1073905664
 138              		.cfi_endproc
 139              	.LFE259:
 140              		.size	mii_write, .-mii_write
 141              		.section	.text.mii_read,"ax",%progbits
 142              		.align	2
 143              		.p2align 4,,15
 144              		.global	mii_read
 145              		.thumb
 146              		.thumb_func
 147              		.type	mii_read, %function
 148              	mii_read:
 149              	.LFB260:
 150              		.loc 1 108 0
 151              		.cfi_startproc
 152              		@ args = 0, pretend = 0, frame = 0
 153              		@ frame_needed = 0, uses_anonymous_args = 0
 154              		@ link register save eliminated.
 155              	.LVL6:
 156 0000 036A     		ldr	r3, [r0, #32]
 157              		.loc 1 110 0
 158 0002 064A     		ldr	r2, .L14
 159 0004 43F01103 		orr	r3, r3, #17
 160 0008 43EA8111 		orr	r1, r3, r1, lsl #6
 161              	.LVL7:
 162 000c 1161     		str	r1, [r2, #16]
 163              	.L12:
 164              		.loc 1 111 0 discriminator 1
 165 000e 1369     		ldr	r3, [r2, #16]
 166 0010 0249     		ldr	r1, .L14
 167 0012 DB07     		lsls	r3, r3, #31
 168 0014 FBD4     		bmi	.L12
 169              		.loc 1 113 0
 170 0016 4869     		ldr	r0, [r1, #20]
ARM GAS  C:\Users\jo\AppData\Local\Temp\ccwTMAf9.s 			page 4


 171              	.LVL8:
 172              		.loc 1 114 0
 173 0018 7047     		bx	lr
 174              	.L15:
 175 001a 00BF     		.align	2
 176              	.L14:
 177 001c 00800240 		.word	1073905664
 178              		.cfi_endproc
 179              	.LFE260:
 180              		.size	mii_read, .-mii_read
 181              		.section	.text.Vector134,"ax",%progbits
 182              		.align	2
 183              		.p2align 4,,15
 184              		.global	Vector134
 185              		.thumb
 186              		.thumb_func
 187              		.type	Vector134, %function
 188              	Vector134:
 189              	.LFB263:
 190              		.loc 1 176 0
 191              		.cfi_startproc
 192              		@ args = 0, pretend = 0, frame = 0
 193              		@ frame_needed = 0, uses_anonymous_args = 0
 194 0000 10B5     		push	{r4, lr}
 195              		.cfi_def_cfa_offset 8
 196              		.cfi_offset 4, -8
 197              		.cfi_offset 14, -4
 198              		.loc 1 179 0
 199 0002 FFF7FEFF 		bl	_dbg_check_enter_isr
 200              	.LVL9:
 201              		.loc 1 181 0
 202 0006 194A     		ldr	r2, .L27
 203 0008 41F21403 		movw	r3, #4116
 204 000c D458     		ldr	r4, [r2, r3]
 205              	.LVL10:
 206              		.loc 1 182 0
 207 000e D450     		str	r4, [r2, r3]
 208              		.loc 1 184 0
 209 0010 6206     		lsls	r2, r4, #25
 210 0012 16D4     		bmi	.L26
 211              	.L17:
 212              		.loc 1 194 0
 213 0014 E307     		lsls	r3, r4, #31
 214 0016 0ED5     		bpl	.L18
 215              	.LVL11:
 216              	.LBB170:
 217              	.LBB171:
 218              	.LBB172:
 219              	.LBB173:
 220              	.LBB174:
 221              	.LBB175:
 222              	.LBB176:
 223              		.file 2 "../../../os/ext/CMSIS/include/core_cmFunc.h"
 224              		.loc 2 546 0
 225 0018 2023     		movs	r3, #32
 226              	@ 546 "../../../os/ext/CMSIS/include/core_cmFunc.h" 1
 227 001a 83F31188 		MSR basepri, r3
ARM GAS  C:\Users\jo\AppData\Local\Temp\ccwTMAf9.s 			page 5


 228              	@ 0 "" 2
 229              		.thumb
 230              	.LBE176:
 231              	.LBE175:
 232              	.LBE174:
 233              	.LBE173:
 234              		.file 3 "../../../os/rt/include/chsys.h"
 235              		.loc 3 390 0
 236 001e FFF7FEFF 		bl	_dbg_check_lock_from_isr
 237              	.LVL12:
 238              	.LBE172:
 239              	.LBE171:
 240              	.LBE170:
 241              	.LBB177:
 242              	.LBB178:
 243              		.file 4 "../../../os/hal/osal/rt/osal.h"
 244              		.loc 4 764 0
 245 0022 1348     		ldr	r0, .L27+4
 246 0024 6FF00101 		mvn	r1, #1
 247 0028 FFF7FEFF 		bl	chThdDequeueAllI
 248              	.LVL13:
 249              	.LBE178:
 250              	.LBE177:
 251              	.LBB179:
 252              	.LBB180:
 253              	.LBB181:
 254              		.loc 3 408 0
 255 002c FFF7FEFF 		bl	_dbg_check_unlock_from_isr
 256              	.LVL14:
 257              	.LBB182:
 258              	.LBB183:
 259              	.LBB184:
 260              	.LBB185:
 261              		.loc 2 546 0
 262 0030 0023     		movs	r3, #0
 263              	@ 546 "../../../os/ext/CMSIS/include/core_cmFunc.h" 1
 264 0032 83F31188 		MSR basepri, r3
 265              	@ 0 "" 2
 266              	.LVL15:
 267              		.thumb
 268              	.L18:
 269              	.LBE185:
 270              	.LBE184:
 271              	.LBE183:
 272              	.LBE182:
 273              	.LBE181:
 274              	.LBE180:
 275              	.LBE179:
 276              		.loc 1 201 0
 277 0036 FFF7FEFF 		bl	_dbg_check_leave_isr
 278              	.LVL16:
 279              		.loc 1 202 0
 280 003a BDE81040 		pop	{r4, lr}
 281              		.cfi_remember_state
 282              		.cfi_restore 14
 283              		.cfi_restore 4
 284              		.cfi_def_cfa_offset 0
ARM GAS  C:\Users\jo\AppData\Local\Temp\ccwTMAf9.s 			page 6


 285              	.LVL17:
 286              		.loc 1 201 0
 287 003e FFF7FEBF 		b	_port_irq_epilogue
 288              	.LVL18:
 289              	.L26:
 290              		.cfi_restore_state
 291              	.LBB186:
 292              	.LBB187:
 293              	.LBB188:
 294              	.LBB189:
 295              	.LBB190:
 296              	.LBB191:
 297              	.LBB192:
 298              		.loc 2 546 0
 299 0042 2023     		movs	r3, #32
 300              	@ 546 "../../../os/ext/CMSIS/include/core_cmFunc.h" 1
 301 0044 83F31188 		MSR basepri, r3
 302              	@ 0 "" 2
 303              		.thumb
 304              	.LBE192:
 305              	.LBE191:
 306              	.LBE190:
 307              	.LBE189:
 308              		.loc 3 390 0
 309 0048 FFF7FEFF 		bl	_dbg_check_lock_from_isr
 310              	.LVL19:
 311              	.LBE188:
 312              	.LBE187:
 313              	.LBE186:
 314              	.LBB193:
 315              	.LBB194:
 316              		.loc 4 764 0
 317 004c 0948     		ldr	r0, .L27+8
 318 004e 6FF00101 		mvn	r1, #1
 319 0052 FFF7FEFF 		bl	chThdDequeueAllI
 320              	.LVL20:
 321              	.LBE194:
 322              	.LBE193:
 323              	.LBB195:
 324              	.LBB196:
 325              		.loc 4 798 0
 326 0056 0848     		ldr	r0, .L27+12
 327 0058 0021     		movs	r1, #0
 328 005a FFF7FEFF 		bl	chEvtBroadcastFlagsI
 329              	.LVL21:
 330              	.LBE196:
 331              	.LBE195:
 332              	.LBB197:
 333              	.LBB198:
 334              	.LBB199:
 335              		.loc 3 408 0
 336 005e FFF7FEFF 		bl	_dbg_check_unlock_from_isr
 337              	.LVL22:
 338              	.LBB200:
 339              	.LBB201:
 340              	.LBB202:
 341              	.LBB203:
ARM GAS  C:\Users\jo\AppData\Local\Temp\ccwTMAf9.s 			page 7


 342              		.loc 2 546 0
 343 0062 0023     		movs	r3, #0
 344              	@ 546 "../../../os/ext/CMSIS/include/core_cmFunc.h" 1
 345 0064 83F31188 		MSR basepri, r3
 346              	@ 0 "" 2
 347              		.thumb
 348 0068 D4E7     		b	.L17
 349              	.L28:
 350 006a 00BF     		.align	2
 351              	.L27:
 352 006c 00800240 		.word	1073905664
 353 0070 08000000 		.word	.LANCHOR0+8
 354 0074 10000000 		.word	.LANCHOR0+16
 355 0078 18000000 		.word	.LANCHOR0+24
 356              	.LBE203:
 357              	.LBE202:
 358              	.LBE201:
 359              	.LBE200:
 360              	.LBE199:
 361              	.LBE198:
 362              	.LBE197:
 363              		.cfi_endproc
 364              	.LFE263:
 365              		.size	Vector134, .-Vector134
 366 007c AFF30080 		.section	.text.mac_lld_init,"ax",%progbits
 367              		.align	2
 368              		.p2align 4,,15
 369              		.global	mac_lld_init
 370              		.thumb
 371              		.thumb_func
 372              		.type	mac_lld_init, %function
 373              	mac_lld_init:
 374              	.LFB264:
 375              		.loc 1 213 0
 376              		.cfi_startproc
 377              		@ args = 0, pretend = 0, frame = 0
 378              		@ frame_needed = 0, uses_anonymous_args = 0
 379 0000 2DE9F84F 		push	{r3, r4, r5, r6, r7, r8, r9, r10, fp, lr}
 380              		.cfi_def_cfa_offset 40
 381              		.cfi_offset 3, -40
 382              		.cfi_offset 4, -36
 383              		.cfi_offset 5, -32
 384              		.cfi_offset 6, -28
 385              		.cfi_offset 7, -24
 386              		.cfi_offset 8, -20
 387              		.cfi_offset 9, -16
 388              		.cfi_offset 10, -12
 389              		.cfi_offset 11, -8
 390              		.cfi_offset 14, -4
 391              		.loc 1 216 0
 392 0004 5D4D     		ldr	r5, .L55
 393              		.loc 1 223 0
 394 0006 DFF89081 		ldr	r8, .L55+28
 395              		.loc 1 228 0
 396 000a 5D4E     		ldr	r6, .L55+4
 397              		.loc 1 250 0
 398 000c 5D4C     		ldr	r4, .L55+8
ARM GAS  C:\Users\jo\AppData\Local\Temp\ccwTMAf9.s 			page 8


 399              		.loc 1 216 0
 400 000e 2846     		mov	r0, r5
 401 0010 FFF7FEFF 		bl	macObjectInit
 402              	.LVL23:
 403              		.loc 1 222 0
 404 0014 5C49     		ldr	r1, .L55+12
 405              		.loc 1 227 0
 406 0016 5D4B     		ldr	r3, .L55+16
 407              		.loc 1 241 0
 408 0018 DFF880E1 		ldr	lr, .L55+32
 409              	.LBB220:
 410              	.LBB221:
 411              		.loc 1 131 0
 412 001c 5C4A     		ldr	r2, .L55+20
 413              	.LBE221:
 414              	.LBE220:
 415              		.loc 1 222 0
 416 001e 4FF49047 		mov	r7, #18432
 417 0022 4F60     		str	r7, [r1, #4]
 418              		.loc 1 223 0
 419 0024 08F5006B 		add	fp, r8, #2048
 420 0028 C1F80880 		str	r8, [r1, #8]
 421 002c 08F58059 		add	r9, r8, #4096
 422 0030 08F5C05C 		add	ip, r8, #6144
 423              		.loc 1 224 0
 424 0034 01F11000 		add	r0, r1, #16
 425 0038 01F1200A 		add	r10, r1, #32
 426 003c 01F13008 		add	r8, r1, #48
 427 0040 C860     		str	r0, [r1, #12]
 428              		.loc 1 222 0
 429 0042 4F61     		str	r7, [r1, #20]
 430              		.loc 1 217 0
 431 0044 0020     		movs	r0, #0
 432              		.loc 1 223 0
 433 0046 C1F818B0 		str	fp, [r1, #24]
 434              		.loc 1 224 0
 435 004a C1F81CA0 		str	r10, [r1, #28]
 436              		.loc 1 229 0
 437 004e 03F1100B 		add	fp, r3, #16
 438              		.loc 1 222 0
 439 0052 4F62     		str	r7, [r1, #36]
 440              		.loc 1 228 0
 441 0054 06F5006A 		add	r10, r6, #2048
 442              		.loc 1 223 0
 443 0058 C1F82890 		str	r9, [r1, #40]
 444              		.loc 1 224 0
 445 005c C1F82C80 		str	r8, [r1, #44]
 446              		.loc 1 229 0
 447 0060 03F12009 		add	r9, r3, #32
 448              		.loc 1 222 0
 449 0064 4F63     		str	r7, [r1, #52]
 450              		.loc 1 228 0
 451 0066 06F58058 		add	r8, r6, #4096
 452              		.loc 1 223 0
 453 006a C1F838C0 		str	ip, [r1, #56]
 454              		.loc 1 228 0
 455 006e 06F5C057 		add	r7, r6, #6144
ARM GAS  C:\Users\jo\AppData\Local\Temp\ccwTMAf9.s 			page 9


 456              		.loc 1 229 0
 457 0072 03F1300C 		add	ip, r3, #48
 458              		.loc 1 224 0
 459 0076 C963     		str	r1, [r1, #60]
 460              		.loc 1 227 0
 461 0078 5860     		str	r0, [r3, #4]
 462              		.loc 1 228 0
 463 007a 9E60     		str	r6, [r3, #8]
 464              		.loc 1 229 0
 465 007c C3F80CB0 		str	fp, [r3, #12]
 466              		.loc 1 227 0
 467 0080 5861     		str	r0, [r3, #20]
 468              		.loc 1 228 0
 469 0082 C3F818A0 		str	r10, [r3, #24]
 470              		.loc 1 229 0
 471 0086 C3F81C90 		str	r9, [r3, #28]
 472              		.loc 1 227 0
 473 008a 5862     		str	r0, [r3, #36]
 474              		.loc 1 228 0
 475 008c C3F82880 		str	r8, [r3, #40]
 476              		.loc 1 229 0
 477 0090 C3F82CC0 		str	ip, [r3, #44]
 478              		.loc 1 227 0
 479 0094 5863     		str	r0, [r3, #52]
 480              		.loc 1 228 0
 481 0096 9F63     		str	r7, [r3, #56]
 482              		.loc 1 229 0
 483 0098 DB63     		str	r3, [r3, #60]
 484              		.loc 1 241 0
 485 009a DEF80430 		ldr	r3, [lr, #4]
 486              		.loc 1 217 0
 487 009e 2877     		strb	r0, [r5, #28]
 488              	.LVL24:
 489              		.loc 1 241 0
 490 00a0 43F40003 		orr	r3, r3, #8388608
 491 00a4 CEF80430 		str	r3, [lr, #4]
 492              		.loc 1 250 0
 493 00a8 2369     		ldr	r3, [r4, #16]
 494 00aa 43F00073 		orr	r3, r3, #33554432
 495 00ae 2361     		str	r3, [r4, #16]
 496 00b0 2061     		str	r0, [r4, #16]
 497              		.loc 1 253 0
 498 00b2 236B     		ldr	r3, [r4, #48]
 499 00b4 43F06063 		orr	r3, r3, #234881024
 500 00b8 2363     		str	r3, [r4, #48]
 501              	.LBB234:
 502              	.LBB232:
 503              	.LBB222:
 504              	.LBB223:
 505              		.loc 1 111 0
 506 00ba 1646     		mov	r6, r2
 507              	.LBE223:
 508              	.LBE222:
 509              	.LBE232:
 510              	.LBE234:
 511              		.loc 1 253 0
 512 00bc 4FF0640E 		mov	lr, #100
ARM GAS  C:\Users\jo\AppData\Local\Temp\ccwTMAf9.s 			page 10


 513              	.LBB235:
 514              	.LBB233:
 515              		.loc 1 132 0
 516 00c0 45F69047 		movw	r7, #23696
 517              	.L37:
 518              	.LVL25:
 519              		.loc 1 129 0
 520 00c4 0021     		movs	r1, #0
 521              	.LVL26:
 522              	.L32:
 523              		.loc 1 131 0
 524 00c6 8B01     		lsls	r3, r1, #6
 525              		.loc 1 130 0
 526 00c8 CC02     		lsls	r4, r1, #11
 527              		.loc 1 131 0
 528 00ca 43F01003 		orr	r3, r3, #16
 529              	.LBB226:
 530              	.LBB224:
 531              		.loc 1 110 0
 532 00ce 44F09100 		orr	r0, r4, #145
 533              	.LBE224:
 534              	.LBE226:
 535              		.loc 1 131 0
 536 00d2 5361     		str	r3, [r2, #20]
 537              	.LVL27:
 538              	.LBB227:
 539              	.LBB225:
 540              		.loc 1 110 0
 541 00d4 1061     		str	r0, [r2, #16]
 542              	.L30:
 543              		.loc 1 111 0
 544 00d6 1369     		ldr	r3, [r2, #16]
 545 00d8 DB07     		lsls	r3, r3, #31
 546 00da FCD4     		bmi	.L30
 547              		.loc 1 113 0
 548 00dc 7369     		ldr	r3, [r6, #20]
 549              	.LBE225:
 550              	.LBE227:
 551              		.loc 1 132 0
 552 00de B3F5005F 		cmp	r3, #8192
 553 00e2 0BD0     		beq	.L31
 554              	.L35:
 555              		.loc 1 129 0
 556 00e4 0131     		adds	r1, r1, #1
 557              	.LVL28:
 558 00e6 1F29     		cmp	r1, #31
 559 00e8 EDD1     		bne	.L32
 560              	.LVL29:
 561              		.loc 1 139 0
 562 00ea BEF1010E 		subs	lr, lr, #1
 563              	.LVL30:
 564 00ee E9D1     		bne	.L37
 565 00f0 2C62     		str	r4, [r5, #32]
 566              	.LVL31:
 567              	.LBB228:
 568              	.LBB229:
 569              		.loc 4 416 0
ARM GAS  C:\Users\jo\AppData\Local\Temp\ccwTMAf9.s 			page 11


 570 00f2 2848     		ldr	r0, .L55+24
 571 00f4 FFF7FEFF 		bl	chSysHalt
 572              	.LVL32:
 573 00f8 2C6A     		ldr	r4, [r5, #32]
 574 00fa 0CE0     		b	.L36
 575              	.LVL33:
 576              	.L31:
 577              	.LBE229:
 578              	.LBE228:
 579              	.LBB230:
 580              	.LBB231:
 581              		.loc 1 110 0
 582 00fc 44F0D103 		orr	r3, r4, #209
 583 0100 3361     		str	r3, [r6, #16]
 584              	.L34:
 585              		.loc 1 111 0
 586 0102 1369     		ldr	r3, [r2, #16]
 587 0104 D807     		lsls	r0, r3, #31
 588 0106 FCD4     		bmi	.L34
 589              		.loc 1 113 0
 590 0108 7069     		ldr	r0, [r6, #20]
 591              	.LBE231:
 592              	.LBE230:
 593              		.loc 1 133 0
 594 010a 4FF6F073 		movw	r3, #65520
 595 010e 0340     		ands	r3, r3, r0
 596              		.loc 1 132 0
 597 0110 BB42     		cmp	r3, r7
 598 0112 E7D1     		bne	.L35
 599 0114 2C62     		str	r4, [r5, #32]
 600              	.LVL34:
 601              	.L36:
 602              	.LBE233:
 603              	.LBE235:
 604              	.LBB236:
 605              	.LBB237:
 606              		.loc 1 91 0
 607 0116 1E4B     		ldr	r3, .L55+20
 608 0118 4FF40042 		mov	r2, #32768
 609              		.loc 1 93 0
 610 011c 44F01304 		orr	r4, r4, #19
 611              		.loc 1 91 0
 612 0120 5A61     		str	r2, [r3, #20]
 613              		.loc 1 94 0
 614 0122 1A46     		mov	r2, r3
 615              		.loc 1 92 0
 616 0124 1C61     		str	r4, [r3, #16]
 617              	.L38:
 618              		.loc 1 94 0
 619 0126 1369     		ldr	r3, [r2, #16]
 620 0128 DB07     		lsls	r3, r3, #31
 621 012a FCD4     		bmi	.L38
 622              	.LBE237:
 623              	.LBE236:
 624              		.loc 1 269 0
 625 012c 6420     		movs	r0, #100
 626 012e FFF7FEFF 		bl	chSysPolledDelayX
ARM GAS  C:\Users\jo\AppData\Local\Temp\ccwTMAf9.s 			page 12


 627              	.LVL35:
 628 0132 2D6A     		ldr	r5, [r5, #32]
 629              	.LBB238:
 630              	.LBB239:
 631              		.loc 1 110 0
 632 0134 1649     		ldr	r1, .L55+20
 633 0136 45F01100 		orr	r0, r5, #17
 634              		.loc 1 111 0
 635 013a 0C46     		mov	r4, r1
 636              	.L40:
 637              	.LVL36:
 638              		.loc 1 110 0 discriminator 1
 639 013c 0861     		str	r0, [r1, #16]
 640              	.L39:
 641              		.loc 1 111 0
 642 013e 0B69     		ldr	r3, [r1, #16]
 643 0140 134A     		ldr	r2, .L55+20
 644 0142 DF07     		lsls	r7, r3, #31
 645 0144 FBD4     		bmi	.L39
 646              		.loc 1 113 0
 647 0146 6369     		ldr	r3, [r4, #20]
 648              	.LBE239:
 649              	.LBE238:
 650              		.loc 1 271 0
 651 0148 1E04     		lsls	r6, r3, #16
 652 014a F7D4     		bmi	.L40
 653              	.LVL37:
 654              	.LBB240:
 655              	.LBB241:
 656              		.loc 1 110 0
 657 014c 1061     		str	r0, [r2, #16]
 658              	.L41:
 659              		.loc 1 111 0
 660 014e 1369     		ldr	r3, [r2, #16]
 661 0150 0F49     		ldr	r1, .L55+20
 662 0152 D807     		lsls	r0, r3, #31
 663 0154 FBD4     		bmi	.L41
 664              		.loc 1 113 0
 665 0156 4B69     		ldr	r3, [r1, #20]
 666              	.LBE241:
 667              	.LBE240:
 668              	.LBB242:
 669              	.LBB243:
 670              		.loc 1 93 0
 671 0158 45F01305 		orr	r5, r5, #19
 672              	.LBE243:
 673              	.LBE242:
 674              		.loc 1 277 0
 675 015c 43F40063 		orr	r3, r3, #2048
 676              	.LVL38:
 677              	.LBB245:
 678              	.LBB244:
 679              		.loc 1 91 0
 680 0160 4B61     		str	r3, [r1, #20]
 681              		.loc 1 94 0
 682 0162 0A46     		mov	r2, r1
 683              		.loc 1 92 0
ARM GAS  C:\Users\jo\AppData\Local\Temp\ccwTMAf9.s 			page 13


 684 0164 0D61     		str	r5, [r1, #16]
 685              	.LVL39:
 686              	.L42:
 687              		.loc 1 94 0
 688 0166 1369     		ldr	r3, [r2, #16]
 689 0168 DB07     		lsls	r3, r3, #31
 690 016a FCD4     		bmi	.L42
 691              	.LBE244:
 692              	.LBE245:
 693              		.loc 1 281 0
 694 016c 054A     		ldr	r2, .L55+8
 695 016e 136B     		ldr	r3, [r2, #48]
 696 0170 23F06063 		bic	r3, r3, #234881024
 697 0174 1363     		str	r3, [r2, #48]
 698 0176 BDE8F88F 		pop	{r3, r4, r5, r6, r7, r8, r9, r10, fp, pc}
 699              	.L56:
 700 017a 00BF     		.align	2
 701              	.L55:
 702 017c 00000000 		.word	.LANCHOR0
 703 0180 00000000 		.word	.LANCHOR4
 704 0184 00380240 		.word	1073887232
 705 0188 00000000 		.word	.LANCHOR1
 706 018c 00000000 		.word	.LANCHOR3
 707 0190 00800240 		.word	1073905664
 708 0194 00000000 		.word	.LC0
 709 0198 00000000 		.word	.LANCHOR2
 710 019c 00380140 		.word	1073821696
 711              		.cfi_endproc
 712              	.LFE264:
 713              		.size	mac_lld_init, .-mac_lld_init
 714              		.section	.text.mac_lld_start,"ax",%progbits
 715              		.align	2
 716              		.p2align 4,,15
 717              		.global	mac_lld_start
 718              		.thumb
 719              		.thumb_func
 720              		.type	mac_lld_start, %function
 721              	mac_lld_start:
 722              	.LFB265:
 723              		.loc 1 291 0
 724              		.cfi_startproc
 725              		@ args = 0, pretend = 0, frame = 0
 726              		@ frame_needed = 0, uses_anonymous_args = 0
 727              	.LVL40:
 728 0000 F8B5     		push	{r3, r4, r5, r6, r7, lr}
 729              		.cfi_def_cfa_offset 24
 730              		.cfi_offset 3, -24
 731              		.cfi_offset 4, -20
 732              		.cfi_offset 5, -16
 733              		.cfi_offset 6, -12
 734              		.cfi_offset 7, -8
 735              		.cfi_offset 14, -4
 736              		.loc 1 296 0
 737 0002 304D     		ldr	r5, .L68
 738              		.loc 1 299 0
 739 0004 304C     		ldr	r4, .L68+4
 740              		.loc 1 303 0
ARM GAS  C:\Users\jo\AppData\Local\Temp\ccwTMAf9.s 			page 14


 741 0006 3149     		ldr	r1, .L68+8
 742              		.loc 1 296 0
 743 0008 4FF00042 		mov	r2, #-2147483648
 744              		.loc 1 299 0
 745 000c 4FF48013 		mov	r3, #1048576
 746              		.loc 1 296 0
 747 0010 2A60     		str	r2, [r5]
 748              	.LVL41:
 749 0012 2A61     		str	r2, [r5, #16]
 750              	.LVL42:
 751 0014 2A62     		str	r2, [r5, #32]
 752              	.LVL43:
 753 0016 2A63     		str	r2, [r5, #48]
 754              	.LVL44:
 755              		.loc 1 299 0
 756 0018 2360     		str	r3, [r4]
 757              		.loc 1 297 0
 758 001a 4562     		str	r5, [r0, #36]
 759              	.LVL45:
 760              		.loc 1 299 0
 761 001c 2361     		str	r3, [r4, #16]
 762              	.LVL46:
 763 001e 2362     		str	r3, [r4, #32]
 764              	.LVL47:
 765 0020 2363     		str	r3, [r4, #48]
 766              	.LVL48:
 767              		.loc 1 303 0
 768 0022 0B6B     		ldr	r3, [r1, #48]
 769              		.loc 1 300 0
 770 0024 8462     		str	r4, [r0, #40]
 771              		.loc 1 303 0
 772 0026 43F06063 		orr	r3, r3, #234881024
 773              		.loc 1 291 0
 774 002a 0646     		mov	r6, r0
 775              		.loc 1 303 0
 776 002c 0B63     		str	r3, [r1, #48]
 777              		.loc 1 311 0
 778 002e 3D20     		movs	r0, #61
 779              	.LVL49:
 780 0030 0D21     		movs	r1, #13
 781 0032 FFF7FEFF 		bl	nvicEnableVector
 782              	.LVL50:
 783              	.LBB246:
 784              	.LBB247:
 785              		.loc 1 110 0
 786 0036 306A     		ldr	r0, [r6, #32]
 787 0038 2549     		ldr	r1, .L68+12
 788 003a 40F01103 		orr	r3, r0, #17
 789 003e 0B61     		str	r3, [r1, #16]
 790              	.L58:
 791              		.loc 1 111 0
 792 0040 0B69     		ldr	r3, [r1, #16]
 793 0042 234A     		ldr	r2, .L68+12
 794 0044 DF07     		lsls	r7, r3, #31
 795 0046 FBD4     		bmi	.L58
 796              		.loc 1 113 0
 797 0048 5369     		ldr	r3, [r2, #20]
ARM GAS  C:\Users\jo\AppData\Local\Temp\ccwTMAf9.s 			page 15


 798              	.LBE247:
 799              	.LBE246:
 800              	.LBB248:
 801              	.LBB249:
 802              		.loc 1 93 0
 803 004a 40F01300 		orr	r0, r0, #19
 804              	.LBE249:
 805              	.LBE248:
 806              		.loc 1 315 0
 807 004e 23F40063 		bic	r3, r3, #2048
 808              	.LVL51:
 809              	.LBB251:
 810              	.LBB250:
 811              		.loc 1 91 0
 812 0052 5361     		str	r3, [r2, #20]
 813              		.loc 1 94 0
 814 0054 1146     		mov	r1, r2
 815              		.loc 1 92 0
 816 0056 1061     		str	r0, [r2, #16]
 817              	.LVL52:
 818              	.L59:
 819              		.loc 1 94 0
 820 0058 0B69     		ldr	r3, [r1, #16]
 821 005a 1D4A     		ldr	r2, .L68+12
 822 005c 13F00103 		ands	r3, r3, #1
 823 0060 FAD1     		bne	.L59
 824              	.LBE250:
 825              	.LBE251:
 826              		.loc 1 324 0
 827 0062 7168     		ldr	r1, [r6, #4]
 828              		.loc 1 319 0
 829 0064 5360     		str	r3, [r2, #4]
 830              		.loc 1 324 0
 831 0066 0868     		ldr	r0, [r1]
 832              		.loc 1 320 0
 833 0068 9361     		str	r3, [r2, #24]
 834              		.loc 1 321 0
 835 006a D361     		str	r3, [r2, #28]
 836              		.loc 1 324 0
 837 006c 28B3     		cbz	r0, .L67
 838              		.loc 1 327 0
 839 006e FFF7FEFF 		bl	mac_lld_set_address
 840              	.LVL53:
 841              	.L61:
 842              		.loc 1 335 0
 843 0072 174B     		ldr	r3, .L68+12
 844              		.loc 1 348 0
 845 0074 174E     		ldr	r6, .L68+16
 846              	.LVL54:
 847              		.loc 1 345 0
 848 0076 DFF870E0 		ldr	lr, .L68+36
 849              		.loc 1 348 0
 850 007a 174F     		ldr	r7, .L68+20
 851              		.loc 1 352 0
 852 007c 1749     		ldr	r1, .L68+24
 853              		.loc 1 341 0
 854 007e 41F21000 		movw	r0, #4112
ARM GAS  C:\Users\jo\AppData\Local\Temp\ccwTMAf9.s 			page 16


 855              		.loc 1 340 0
 856 0082 41F20C0C 		movw	ip, #4108
 857              		.loc 1 335 0
 858 0086 0C22     		movs	r2, #12
 859 0088 1A60     		str	r2, [r3]
 860              		.loc 1 340 0
 861 008a 43F80C50 		str	r5, [r3, ip]
 862              		.loc 1 344 0
 863 008e 41F21402 		movw	r2, #4116
 864              		.loc 1 341 0
 865 0092 1C50     		str	r4, [r3, r0]
 866              		.loc 1 345 0
 867 0094 41F21C04 		movw	r4, #4124
 868              		.loc 1 344 0
 869 0098 9D58     		ldr	r5, [r3, r2]
 870 009a 9D50     		str	r5, [r3, r2]
 871              		.loc 1 351 0
 872 009c 41F21800 		movw	r0, #4120
 873 00a0 4FF48012 		mov	r2, #1048576
 874              		.loc 1 345 0
 875 00a4 43F804E0 		str	lr, [r3, r4]
 876              		.loc 1 348 0
 877 00a8 3760     		str	r7, [r6]
 878              		.loc 1 351 0
 879 00aa 1A50     		str	r2, [r3, r0]
 880              	.L62:
 881              		.loc 1 352 0 discriminator 1
 882 00ac 0B68     		ldr	r3, [r1]
 883 00ae 0B4A     		ldr	r2, .L68+24
 884 00b0 DB02     		lsls	r3, r3, #11
 885 00b2 FBD4     		bmi	.L62
 886              		.loc 1 356 0
 887 00b4 0A4B     		ldr	r3, .L68+28
 888 00b6 1360     		str	r3, [r2]
 889 00b8 F8BD     		pop	{r3, r4, r5, r6, r7, pc}
 890              	.LVL55:
 891              	.L67:
 892              		.loc 1 325 0
 893 00ba 0A48     		ldr	r0, .L68+32
 894 00bc FFF7FEFF 		bl	mac_lld_set_address
 895              	.LVL56:
 896 00c0 D7E7     		b	.L61
 897              	.L69:
 898 00c2 00BF     		.align	2
 899              	.L68:
 900 00c4 00000000 		.word	.LANCHOR1
 901 00c8 00000000 		.word	.LANCHOR3
 902 00cc 00380240 		.word	1073887232
 903 00d0 00800240 		.word	1073905664
 904 00d4 00900240 		.word	1073909760
 905 00d8 00010202 		.word	33685760
 906 00dc 18900240 		.word	1073909784
 907 00e0 02202006 		.word	102768642
 908 00e4 00000000 		.word	.LANCHOR5
 909 00e8 41000100 		.word	65601
 910              		.cfi_endproc
 911              	.LFE265:
ARM GAS  C:\Users\jo\AppData\Local\Temp\ccwTMAf9.s 			page 17


 912              		.size	mac_lld_start, .-mac_lld_start
 913 00ec AFF30080 		.section	.text.mac_lld_stop,"ax",%progbits
 914              		.align	2
 915              		.p2align 4,,15
 916              		.global	mac_lld_stop
 917              		.thumb
 918              		.thumb_func
 919              		.type	mac_lld_stop, %function
 920              	mac_lld_stop:
 921              	.LFB266:
 922              		.loc 1 367 0
 923              		.cfi_startproc
 924              		@ args = 0, pretend = 0, frame = 0
 925              		@ frame_needed = 0, uses_anonymous_args = 0
 926              		@ link register save eliminated.
 927              	.LVL57:
 928              		.loc 1 369 0
 929 0000 0378     		ldrb	r3, [r0]	@ zero_extendqisi2
 930 0002 012B     		cmp	r3, #1
 931 0004 2CD0     		beq	.L77
 932              	.LVL58:
 933              	.LBB252:
 934              	.LBB253:
 935              		.loc 1 110 0
 936 0006 006A     		ldr	r0, [r0, #32]
 937              	.LVL59:
 938 0008 1649     		ldr	r1, .L78
 939 000a 40F01103 		orr	r3, r0, #17
 940 000e 0B61     		str	r3, [r1, #16]
 941              	.L72:
 942              		.loc 1 111 0
 943 0010 0B69     		ldr	r3, [r1, #16]
 944 0012 144A     		ldr	r2, .L78
 945 0014 DB07     		lsls	r3, r3, #31
 946 0016 FBD4     		bmi	.L72
 947              		.loc 1 113 0
 948 0018 5369     		ldr	r3, [r2, #20]
 949              	.LBE253:
 950              	.LBE252:
 951              	.LBB254:
 952              	.LBB255:
 953              		.loc 1 93 0
 954 001a 40F01300 		orr	r0, r0, #19
 955              	.LBE255:
 956              	.LBE254:
 957              		.loc 1 372 0
 958 001e 43F40063 		orr	r3, r3, #2048
 959              	.LVL60:
 960              	.LBB257:
 961              	.LBB256:
 962              		.loc 1 91 0
 963 0022 5361     		str	r3, [r2, #20]
 964              		.loc 1 94 0
 965 0024 1146     		mov	r1, r2
 966              		.loc 1 92 0
 967 0026 1061     		str	r0, [r2, #16]
 968              	.LVL61:
ARM GAS  C:\Users\jo\AppData\Local\Temp\ccwTMAf9.s 			page 18


 969              	.L73:
 970              		.loc 1 94 0
 971 0028 0B69     		ldr	r3, [r1, #16]
 972 002a 0E4A     		ldr	r2, .L78
 973 002c 13F00103 		ands	r3, r3, #1
 974 0030 FAD1     		bne	.L73
 975              	.LBE256:
 976              	.LBE257:
 977              		.loc 1 367 0
 978 0032 10B4     		push	{r4}
 979              		.cfi_def_cfa_offset 4
 980              		.cfi_offset 4, -4
 981              		.loc 1 378 0
 982 0034 41F21C00 		movw	r0, #4124
 983              		.loc 1 377 0
 984 0038 41F21804 		movw	r4, #4120
 985              		.loc 1 376 0
 986 003c 1360     		str	r3, [r2]
 987              		.loc 1 379 0
 988 003e 41F21401 		movw	r1, #4116
 989              		.loc 1 377 0
 990 0042 1351     		str	r3, [r2, r4]
 991              		.loc 1 378 0
 992 0044 1350     		str	r3, [r2, r0]
 993              		.loc 1 379 0
 994 0046 5358     		ldr	r3, [r2, r1]
 995 0048 5350     		str	r3, [r2, r1]
 996              		.loc 1 382 0
 997 004a A2F59042 		sub	r2, r2, #18432
 998              		.loc 1 385 0
 999 004e 3D20     		movs	r0, #61
 1000              		.loc 1 382 0
 1001 0050 136B     		ldr	r3, [r2, #48]
 1002              		.loc 1 387 0
 1003 0052 5DF8044B 		ldr	r4, [sp], #4
 1004              		.cfi_restore 4
 1005              		.cfi_def_cfa_offset 0
 1006              		.loc 1 382 0
 1007 0056 23F06063 		bic	r3, r3, #234881024
 1008 005a 1363     		str	r3, [r2, #48]
 1009              		.loc 1 385 0
 1010 005c FFF7FEBF 		b	nvicDisableVector
 1011              	.LVL62:
 1012              	.L77:
 1013 0060 7047     		bx	lr
 1014              	.L79:
 1015 0062 00BF     		.align	2
 1016              	.L78:
 1017 0064 00800240 		.word	1073905664
 1018              		.cfi_endproc
 1019              	.LFE266:
 1020              		.size	mac_lld_stop, .-mac_lld_stop
 1021 0068 AFF30080 		.section	.text.mac_lld_get_transmit_descriptor,"ax",%progbits
 1021      AFF30080 
 1022              		.align	2
 1023              		.p2align 4,,15
 1024              		.global	mac_lld_get_transmit_descriptor
ARM GAS  C:\Users\jo\AppData\Local\Temp\ccwTMAf9.s 			page 19


 1025              		.thumb
 1026              		.thumb_func
 1027              		.type	mac_lld_get_transmit_descriptor, %function
 1028              	mac_lld_get_transmit_descriptor:
 1029              	.LFB267:
 1030              		.loc 1 403 0
 1031              		.cfi_startproc
 1032              		@ args = 0, pretend = 0, frame = 0
 1033              		@ frame_needed = 0, uses_anonymous_args = 0
 1034              	.LVL63:
 1035              		.loc 1 406 0
 1036 0000 037F     		ldrb	r3, [r0, #28]	@ zero_extendqisi2
 1037 0002 4BB3     		cbz	r3, .L85
 1038              	.LVL64:
 1039              		.loc 1 403 0
 1040 0004 70B5     		push	{r4, r5, r6, lr}
 1041              		.cfi_def_cfa_offset 16
 1042              		.cfi_offset 4, -16
 1043              		.cfi_offset 5, -12
 1044              		.cfi_offset 6, -8
 1045              		.cfi_offset 14, -4
 1046              	.LBB278:
 1047              	.LBB279:
 1048              	.LBB280:
 1049              	.LBB281:
 1050              	.LBB282:
 1051              	.LBB283:
 1052              		.loc 2 546 0
 1053 0006 2023     		movs	r3, #32
 1054 0008 0D46     		mov	r5, r1
 1055 000a 0446     		mov	r4, r0
 1056              	@ 546 "../../../os/ext/CMSIS/include/core_cmFunc.h" 1
 1057 000c 83F31188 		MSR basepri, r3
 1058              	@ 0 "" 2
 1059              		.thumb
 1060              	.LBE283:
 1061              	.LBE282:
 1062              	.LBE281:
 1063              		.loc 3 350 0
 1064 0010 FFF7FEFF 		bl	_dbg_check_lock
 1065              	.LVL65:
 1066              	.LBE280:
 1067              	.LBE279:
 1068              	.LBE278:
 1069              		.loc 1 412 0
 1070 0014 A66A     		ldr	r6, [r4, #40]
 1071              	.LVL66:
 1072              		.loc 1 416 0
 1073 0016 3368     		ldr	r3, [r6]
 1074 0018 13F0014F 		tst	r3, #-2130706432
 1075 001c 1FD1     		bne	.L88
 1076              		.loc 1 422 0
 1077 001e 3368     		ldr	r3, [r6]
 1078 0020 43F08073 		orr	r3, r3, #16777216
 1079 0024 3360     		str	r3, [r6]
 1080              		.loc 1 425 0
 1081 0026 F368     		ldr	r3, [r6, #12]
ARM GAS  C:\Users\jo\AppData\Local\Temp\ccwTMAf9.s 			page 20


 1082 0028 A362     		str	r3, [r4, #40]
 1083              	.LBB284:
 1084              	.LBB285:
 1085              	.LBB286:
 1086              		.loc 3 360 0
 1087 002a FFF7FEFF 		bl	_dbg_check_unlock
 1088              	.LVL67:
 1089              		.loc 3 367 0
 1090 002e 164B     		ldr	r3, .L90
 1091 0030 1A68     		ldr	r2, [r3]
 1092 0032 9A42     		cmp	r2, r3
 1093 0034 04D0     		beq	.L84
 1094 0036 9969     		ldr	r1, [r3, #24]
 1095 0038 9368     		ldr	r3, [r2, #8]
 1096 003a 8A68     		ldr	r2, [r1, #8]
 1097 003c 9A42     		cmp	r2, r3
 1098 003e 07D3     		bcc	.L89
 1099              	.L84:
 1100              	.LVL68:
 1101              	.LBB287:
 1102              	.LBB288:
 1103              	.LBB289:
 1104              		.loc 2 546 0
 1105 0040 0020     		movs	r0, #0
 1106              	@ 546 "../../../os/ext/CMSIS/include/core_cmFunc.h" 1
 1107 0042 80F31188 		MSR basepri, r0
 1108              	@ 0 "" 2
 1109              		.thumb
 1110              	.LBE289:
 1111              	.LBE288:
 1112              	.LBE287:
 1113              	.LBE286:
 1114              	.LBE285:
 1115              	.LBE284:
 1116              		.loc 1 431 0
 1117 0046 4FF40063 		mov	r3, #2048
 1118 004a 85E84900 		stmia	r5, {r0, r3, r6}
 1119              		.loc 1 434 0
 1120 004e 70BD     		pop	{r4, r5, r6, pc}
 1121              	.LVL69:
 1122              	.L89:
 1123              	.LBB292:
 1124              	.LBB291:
 1125              	.LBB290:
 1126              		.loc 3 367 0
 1127 0050 0E48     		ldr	r0, .L90+4
 1128 0052 FFF7FEFF 		bl	chSysHalt
 1129              	.LVL70:
 1130 0056 F3E7     		b	.L84
 1131              	.LVL71:
 1132              	.L85:
 1133              		.cfi_def_cfa_offset 0
 1134              		.cfi_restore 4
 1135              		.cfi_restore 5
 1136              		.cfi_restore 6
 1137              		.cfi_restore 14
 1138              	.LBE290:
ARM GAS  C:\Users\jo\AppData\Local\Temp\ccwTMAf9.s 			page 21


 1139              	.LBE291:
 1140              	.LBE292:
 1141              		.loc 1 407 0
 1142 0058 4FF0FF30 		mov	r0, #-1
 1143              	.LVL72:
 1144 005c 7047     		bx	lr
 1145              	.LVL73:
 1146              	.L88:
 1147              		.cfi_def_cfa_offset 16
 1148              		.cfi_offset 4, -16
 1149              		.cfi_offset 5, -12
 1150              		.cfi_offset 6, -8
 1151              		.cfi_offset 14, -4
 1152              	.LBB293:
 1153              	.LBB294:
 1154              	.LBB295:
 1155              		.loc 3 360 0
 1156 005e FFF7FEFF 		bl	_dbg_check_unlock
 1157              	.LVL74:
 1158              		.loc 3 367 0
 1159 0062 094B     		ldr	r3, .L90
 1160 0064 1A68     		ldr	r2, [r3]
 1161 0066 9A42     		cmp	r2, r3
 1162 0068 07D0     		beq	.L83
 1163 006a 9969     		ldr	r1, [r3, #24]
 1164 006c 9368     		ldr	r3, [r2, #8]
 1165 006e 8A68     		ldr	r2, [r1, #8]
 1166 0070 9A42     		cmp	r2, r3
 1167 0072 02D2     		bcs	.L83
 1168 0074 0548     		ldr	r0, .L90+4
 1169 0076 FFF7FEFF 		bl	chSysHalt
 1170              	.LVL75:
 1171              	.L83:
 1172              	.LBB296:
 1173              	.LBB297:
 1174              	.LBB298:
 1175              		.loc 2 546 0
 1176 007a 0023     		movs	r3, #0
 1177              	@ 546 "../../../os/ext/CMSIS/include/core_cmFunc.h" 1
 1178 007c 83F31188 		MSR basepri, r3
 1179              	@ 0 "" 2
 1180              		.thumb
 1181              	.LBE298:
 1182              	.LBE297:
 1183              	.LBE296:
 1184              	.LBE295:
 1185              	.LBE294:
 1186              	.LBE293:
 1187              		.loc 1 418 0
 1188 0080 4FF0FF30 		mov	r0, #-1
 1189 0084 70BD     		pop	{r4, r5, r6, pc}
 1190              	.LVL76:
 1191              	.L91:
 1192 0086 00BF     		.align	2
 1193              	.L90:
 1194 0088 00000000 		.word	ch
 1195 008c 00000000 		.word	.LANCHOR6
ARM GAS  C:\Users\jo\AppData\Local\Temp\ccwTMAf9.s 			page 22


 1196              		.cfi_endproc
 1197              	.LFE267:
 1198              		.size	mac_lld_get_transmit_descriptor, .-mac_lld_get_transmit_descriptor
 1199              		.section	.text.mac_lld_release_transmit_descriptor,"ax",%progbits
 1200              		.align	2
 1201              		.p2align 4,,15
 1202              		.global	mac_lld_release_transmit_descriptor
 1203              		.thumb
 1204              		.thumb_func
 1205              		.type	mac_lld_release_transmit_descriptor, %function
 1206              	mac_lld_release_transmit_descriptor:
 1207              	.LFB268:
 1208              		.loc 1 445 0
 1209              		.cfi_startproc
 1210              		@ args = 0, pretend = 0, frame = 0
 1211              		@ frame_needed = 0, uses_anonymous_args = 0
 1212              	.LVL77:
 1213              		.loc 1 447 0
 1214 0000 8368     		ldr	r3, [r0, #8]
 1215 0002 1B68     		ldr	r3, [r3]
 1216 0004 002B     		cmp	r3, #0
 1217              		.loc 1 445 0
 1218 0006 10B5     		push	{r4, lr}
 1219              		.cfi_def_cfa_offset 8
 1220              		.cfi_offset 4, -8
 1221              		.cfi_offset 14, -4
 1222              		.loc 1 445 0
 1223 0008 0446     		mov	r4, r0
 1224              		.loc 1 447 0
 1225 000a 29DB     		blt	.L97
 1226              	.LVL78:
 1227              	.L93:
 1228              	.LBB312:
 1229              	.LBB313:
 1230              	.LBB314:
 1231              	.LBB315:
 1232              	.LBB316:
 1233              	.LBB317:
 1234              		.loc 2 546 0
 1235 000c 2023     		movs	r3, #32
 1236              	@ 546 "../../../os/ext/CMSIS/include/core_cmFunc.h" 1
 1237 000e 83F31188 		MSR basepri, r3
 1238              	@ 0 "" 2
 1239              		.thumb
 1240              	.LBE317:
 1241              	.LBE316:
 1242              	.LBE315:
 1243              		.loc 3 350 0
 1244 0012 FFF7FEFF 		bl	_dbg_check_lock
 1245              	.LVL79:
 1246              	.LBE314:
 1247              	.LBE313:
 1248              	.LBE312:
 1249              		.loc 1 453 0
 1250 0016 A368     		ldr	r3, [r4, #8]
 1251 0018 2168     		ldr	r1, [r4]
 1252 001a 5960     		str	r1, [r3, #4]
ARM GAS  C:\Users\jo\AppData\Local\Temp\ccwTMAf9.s 			page 23


 1253              		.loc 1 454 0
 1254 001c 1248     		ldr	r0, .L98
 1255              		.loc 1 459 0
 1256 001e 134A     		ldr	r2, .L98+4
 1257              		.loc 1 454 0
 1258 0020 1860     		str	r0, [r3]
 1259              		.loc 1 459 0
 1260 0022 41F21401 		movw	r1, #4116
 1261 0026 5358     		ldr	r3, [r2, r1]
 1262 0028 03F4E003 		and	r3, r3, #7340032
 1263 002c B3F5C00F 		cmp	r3, #6291456
 1264 0030 04D1     		bne	.L94
 1265              		.loc 1 461 0
 1266 0032 41F20400 		movw	r0, #4100
 1267              		.loc 1 460 0
 1268 0036 0423     		movs	r3, #4
 1269 0038 5350     		str	r3, [r2, r1]
 1270              		.loc 1 461 0
 1271 003a 1350     		str	r3, [r2, r0]
 1272              	.L94:
 1273              	.LBB318:
 1274              	.LBB319:
 1275              	.LBB320:
 1276              		.loc 3 360 0
 1277 003c FFF7FEFF 		bl	_dbg_check_unlock
 1278              	.LVL80:
 1279              		.loc 3 367 0
 1280 0040 0B4B     		ldr	r3, .L98+8
 1281 0042 1A68     		ldr	r2, [r3]
 1282 0044 9A42     		cmp	r2, r3
 1283 0046 07D0     		beq	.L95
 1284 0048 9969     		ldr	r1, [r3, #24]
 1285 004a 9368     		ldr	r3, [r2, #8]
 1286 004c 8A68     		ldr	r2, [r1, #8]
 1287 004e 9A42     		cmp	r2, r3
 1288 0050 02D2     		bcs	.L95
 1289 0052 0848     		ldr	r0, .L98+12
 1290 0054 FFF7FEFF 		bl	chSysHalt
 1291              	.LVL81:
 1292              	.L95:
 1293              	.LBB321:
 1294              	.LBB322:
 1295              	.LBB323:
 1296              		.loc 2 546 0
 1297 0058 0023     		movs	r3, #0
 1298              	@ 546 "../../../os/ext/CMSIS/include/core_cmFunc.h" 1
 1299 005a 83F31188 		MSR basepri, r3
 1300              	@ 0 "" 2
 1301              		.thumb
 1302 005e 10BD     		pop	{r4, pc}
 1303              	.LVL82:
 1304              	.L97:
 1305              	.LBE323:
 1306              	.LBE322:
 1307              	.LBE321:
 1308              	.LBE320:
 1309              	.LBE319:
ARM GAS  C:\Users\jo\AppData\Local\Temp\ccwTMAf9.s 			page 24


 1310              	.LBE318:
 1311              		.loc 1 447 0 discriminator 2
 1312 0060 0548     		ldr	r0, .L98+16
 1313              	.LVL83:
 1314 0062 FFF7FEFF 		bl	chSysHalt
 1315              	.LVL84:
 1316 0066 D1E7     		b	.L93
 1317              	.L99:
 1318              		.align	2
 1319              	.L98:
 1320 0068 000010F0 		.word	-267386880
 1321 006c 00800240 		.word	1073905664
 1322 0070 00000000 		.word	ch
 1323 0074 00000000 		.word	.LANCHOR6
 1324 0078 00000000 		.word	.LANCHOR7
 1325              		.cfi_endproc
 1326              	.LFE268:
 1327              		.size	mac_lld_release_transmit_descriptor, .-mac_lld_release_transmit_descriptor
 1328 007c AFF30080 		.section	.text.mac_lld_get_receive_descriptor,"ax",%progbits
 1329              		.align	2
 1330              		.p2align 4,,15
 1331              		.global	mac_lld_get_receive_descriptor
 1332              		.thumb
 1333              		.thumb_func
 1334              		.type	mac_lld_get_receive_descriptor, %function
 1335              	mac_lld_get_receive_descriptor:
 1336              	.LFB269:
 1337              		.loc 1 479 0
 1338              		.cfi_startproc
 1339              		@ args = 0, pretend = 0, frame = 0
 1340              		@ frame_needed = 0, uses_anonymous_args = 0
 1341              	.LVL85:
 1342 0000 70B5     		push	{r4, r5, r6, lr}
 1343              		.cfi_def_cfa_offset 16
 1344              		.cfi_offset 4, -16
 1345              		.cfi_offset 5, -12
 1346              		.cfi_offset 6, -8
 1347              		.cfi_offset 14, -4
 1348              	.LBB344:
 1349              	.LBB345:
 1350              	.LBB346:
 1351              	.LBB347:
 1352              	.LBB348:
 1353              	.LBB349:
 1354              		.loc 2 546 0
 1355 0002 2023     		movs	r3, #32
 1356              	.LBE349:
 1357              	.LBE348:
 1358              	.LBE347:
 1359              	.LBE346:
 1360              	.LBE345:
 1361              	.LBE344:
 1362              		.loc 1 479 0
 1363 0004 0646     		mov	r6, r0
 1364 0006 0D46     		mov	r5, r1
 1365              	.LBB355:
 1366              	.LBB354:
ARM GAS  C:\Users\jo\AppData\Local\Temp\ccwTMAf9.s 			page 25


 1367              	.LBB353:
 1368              	.LBB352:
 1369              	.LBB351:
 1370              	.LBB350:
 1371              		.loc 2 546 0
 1372              	@ 546 "../../../os/ext/CMSIS/include/core_cmFunc.h" 1
 1373 0008 83F31188 		MSR basepri, r3
 1374              	@ 0 "" 2
 1375              		.thumb
 1376              	.LBE350:
 1377              	.LBE351:
 1378              	.LBE352:
 1379              		.loc 3 350 0
 1380 000c FFF7FEFF 		bl	_dbg_check_lock
 1381              	.LVL86:
 1382              	.LBE353:
 1383              	.LBE354:
 1384              	.LBE355:
 1385              		.loc 1 485 0
 1386 0010 736A     		ldr	r3, [r6, #36]
 1387              	.LVL87:
 1388              		.loc 1 489 0
 1389 0012 1A68     		ldr	r2, [r3]
 1390 0014 002A     		cmp	r2, #0
 1391 0016 10DB     		blt	.L101
 1392              		.loc 1 506 0
 1393 0018 4FF00044 		mov	r4, #-2147483648
 1394              	.L105:
 1395              		.loc 1 490 0
 1396 001c 1968     		ldr	r1, [r3]
 1397 001e 224A     		ldr	r2, .L117
 1398 0020 0A40     		ands	r2, r2, r1
 1399 0022 2AB9     		cbnz	r2, .L102
 1400              		.loc 1 495 0
 1401 0024 1968     		ldr	r1, [r3]
 1402 0026 8805     		lsls	r0, r1, #22
 1403 0028 02D5     		bpl	.L102
 1404              		.loc 1 495 0 is_stmt 0 discriminator 1
 1405 002a 1968     		ldr	r1, [r3]
 1406 002c C905     		lsls	r1, r1, #23
 1407 002e 1FD4     		bmi	.L115
 1408              	.L102:
 1409              		.loc 1 506 0 is_stmt 1
 1410 0030 1C60     		str	r4, [r3]
 1411              		.loc 1 507 0
 1412 0032 DB68     		ldr	r3, [r3, #12]
 1413              	.LVL88:
 1414              		.loc 1 489 0
 1415 0034 1A68     		ldr	r2, [r3]
 1416 0036 002A     		cmp	r2, #0
 1417 0038 F0DA     		bge	.L105
 1418              	.L101:
 1419              		.loc 1 511 0
 1420 003a 7362     		str	r3, [r6, #36]
 1421              	.LBB356:
 1422              	.LBB357:
 1423              	.LBB358:
ARM GAS  C:\Users\jo\AppData\Local\Temp\ccwTMAf9.s 			page 26


 1424              		.loc 3 360 0
 1425 003c FFF7FEFF 		bl	_dbg_check_unlock
 1426              	.LVL89:
 1427              		.loc 3 367 0
 1428 0040 1A4B     		ldr	r3, .L117+4
 1429 0042 1A68     		ldr	r2, [r3]
 1430 0044 9A42     		cmp	r2, r3
 1431 0046 04D0     		beq	.L106
 1432 0048 9969     		ldr	r1, [r3, #24]
 1433 004a 9368     		ldr	r3, [r2, #8]
 1434 004c 8A68     		ldr	r2, [r1, #8]
 1435 004e 9A42     		cmp	r2, r3
 1436 0050 05D3     		bcc	.L116
 1437              	.L106:
 1438              	.LVL90:
 1439              	.LBB359:
 1440              	.LBB360:
 1441              	.LBB361:
 1442              		.loc 2 546 0
 1443 0052 0023     		movs	r3, #0
 1444              	@ 546 "../../../os/ext/CMSIS/include/core_cmFunc.h" 1
 1445 0054 83F31188 		MSR basepri, r3
 1446              	@ 0 "" 2
 1447              		.thumb
 1448              	.LBE361:
 1449              	.LBE360:
 1450              	.LBE359:
 1451              	.LBE358:
 1452              	.LBE357:
 1453              	.LBE356:
 1454              		.loc 1 514 0
 1455 0058 4FF0FF30 		mov	r0, #-1
 1456              		.loc 1 515 0
 1457 005c 70BD     		pop	{r4, r5, r6, pc}
 1458              	.LVL91:
 1459              	.L116:
 1460              	.LBB367:
 1461              	.LBB366:
 1462              	.LBB365:
 1463              		.loc 3 367 0
 1464 005e 1448     		ldr	r0, .L117+8
 1465 0060 FFF7FEFF 		bl	chSysHalt
 1466              	.LVL92:
 1467              	.LBB364:
 1468              	.LBB363:
 1469              	.LBB362:
 1470              		.loc 2 546 0
 1471 0064 0023     		movs	r3, #0
 1472              	@ 546 "../../../os/ext/CMSIS/include/core_cmFunc.h" 1
 1473 0066 83F31188 		MSR basepri, r3
 1474              	@ 0 "" 2
 1475              		.thumb
 1476              	.LBE362:
 1477              	.LBE363:
 1478              	.LBE364:
 1479              	.LBE365:
 1480              	.LBE366:
ARM GAS  C:\Users\jo\AppData\Local\Temp\ccwTMAf9.s 			page 27


 1481              	.LBE367:
 1482              		.loc 1 514 0
 1483 006a 4FF0FF30 		mov	r0, #-1
 1484              		.loc 1 515 0
 1485 006e 70BD     		pop	{r4, r5, r6, pc}
 1486              	.LVL93:
 1487              	.L115:
 1488              		.loc 1 498 0
 1489 0070 1968     		ldr	r1, [r3]
 1490              		.loc 1 500 0
 1491 0072 D868     		ldr	r0, [r3, #12]
 1492              		.loc 1 497 0
 1493 0074 2A60     		str	r2, [r5]
 1494              		.loc 1 498 0
 1495 0076 C1F30D42 		ubfx	r2, r1, #16, #14
 1496 007a 043A     		subs	r2, r2, #4
 1497 007c 6A60     		str	r2, [r5, #4]
 1498              		.loc 1 499 0
 1499 007e AB60     		str	r3, [r5, #8]
 1500              		.loc 1 500 0
 1501 0080 7062     		str	r0, [r6, #36]
 1502              	.LBB368:
 1503              	.LBB369:
 1504              	.LBB370:
 1505              		.loc 3 360 0
 1506 0082 FFF7FEFF 		bl	_dbg_check_unlock
 1507              	.LVL94:
 1508              		.loc 3 367 0
 1509 0086 094B     		ldr	r3, .L117+4
 1510 0088 1A68     		ldr	r2, [r3]
 1511 008a 9A42     		cmp	r2, r3
 1512 008c 07D0     		beq	.L103
 1513 008e 9969     		ldr	r1, [r3, #24]
 1514 0090 9368     		ldr	r3, [r2, #8]
 1515 0092 8A68     		ldr	r2, [r1, #8]
 1516 0094 9A42     		cmp	r2, r3
 1517 0096 02D2     		bcs	.L103
 1518 0098 0548     		ldr	r0, .L117+8
 1519 009a FFF7FEFF 		bl	chSysHalt
 1520              	.LVL95:
 1521              	.L103:
 1522              	.LBB371:
 1523              	.LBB372:
 1524              	.LBB373:
 1525              		.loc 2 546 0
 1526 009e 0020     		movs	r0, #0
 1527              	@ 546 "../../../os/ext/CMSIS/include/core_cmFunc.h" 1
 1528 00a0 80F31188 		MSR basepri, r0
 1529              	@ 0 "" 2
 1530              		.thumb
 1531 00a4 70BD     		pop	{r4, r5, r6, pc}
 1532              	.LVL96:
 1533              	.L118:
 1534 00a6 00BF     		.align	2
 1535              	.L117:
 1536 00a8 00800040 		.word	1073774592
 1537 00ac 00000000 		.word	ch
ARM GAS  C:\Users\jo\AppData\Local\Temp\ccwTMAf9.s 			page 28


 1538 00b0 00000000 		.word	.LANCHOR6
 1539              	.LBE373:
 1540              	.LBE372:
 1541              	.LBE371:
 1542              	.LBE370:
 1543              	.LBE369:
 1544              	.LBE368:
 1545              		.cfi_endproc
 1546              	.LFE269:
 1547              		.size	mac_lld_get_receive_descriptor, .-mac_lld_get_receive_descriptor
 1548 00b4 AFF30080 		.section	.text.mac_lld_release_receive_descriptor,"ax",%progbits
 1548      AFF30080 
 1548      AFF30080 
 1549              		.align	2
 1550              		.p2align 4,,15
 1551              		.global	mac_lld_release_receive_descriptor
 1552              		.thumb
 1553              		.thumb_func
 1554              		.type	mac_lld_release_receive_descriptor, %function
 1555              	mac_lld_release_receive_descriptor:
 1556              	.LFB270:
 1557              		.loc 1 526 0
 1558              		.cfi_startproc
 1559              		@ args = 0, pretend = 0, frame = 0
 1560              		@ frame_needed = 0, uses_anonymous_args = 0
 1561              	.LVL97:
 1562              		.loc 1 528 0
 1563 0000 8368     		ldr	r3, [r0, #8]
 1564 0002 1B68     		ldr	r3, [r3]
 1565 0004 002B     		cmp	r3, #0
 1566              		.loc 1 526 0
 1567 0006 10B5     		push	{r4, lr}
 1568              		.cfi_def_cfa_offset 8
 1569              		.cfi_offset 4, -8
 1570              		.cfi_offset 14, -4
 1571              		.loc 1 526 0
 1572 0008 0446     		mov	r4, r0
 1573              		.loc 1 528 0
 1574 000a 28DB     		blt	.L124
 1575              	.LVL98:
 1576              	.L120:
 1577              	.LBB387:
 1578              	.LBB388:
 1579              	.LBB389:
 1580              	.LBB390:
 1581              	.LBB391:
 1582              	.LBB392:
 1583              		.loc 2 546 0
 1584 000c 2023     		movs	r3, #32
 1585              	@ 546 "../../../os/ext/CMSIS/include/core_cmFunc.h" 1
 1586 000e 83F31188 		MSR basepri, r3
 1587              	@ 0 "" 2
 1588              		.thumb
 1589              	.LBE392:
 1590              	.LBE391:
 1591              	.LBE390:
 1592              		.loc 3 350 0
ARM GAS  C:\Users\jo\AppData\Local\Temp\ccwTMAf9.s 			page 29


 1593 0012 FFF7FEFF 		bl	_dbg_check_lock
 1594              	.LVL99:
 1595              	.LBE389:
 1596              	.LBE388:
 1597              	.LBE387:
 1598              		.loc 1 534 0
 1599 0016 A368     		ldr	r3, [r4, #8]
 1600              		.loc 1 537 0
 1601 0018 134A     		ldr	r2, .L125
 1602              		.loc 1 534 0
 1603 001a 4FF00040 		mov	r0, #-2147483648
 1604              		.loc 1 537 0
 1605 001e 41F21401 		movw	r1, #4116
 1606              		.loc 1 534 0
 1607 0022 1860     		str	r0, [r3]
 1608              		.loc 1 537 0
 1609 0024 5358     		ldr	r3, [r2, r1]
 1610 0026 03F46023 		and	r3, r3, #917504
 1611 002a B3F5002F 		cmp	r3, #524288
 1612 002e 04D1     		bne	.L121
 1613              		.loc 1 539 0
 1614 0030 41F20800 		movw	r0, #4104
 1615              		.loc 1 538 0
 1616 0034 8023     		movs	r3, #128
 1617 0036 5350     		str	r3, [r2, r1]
 1618              		.loc 1 539 0
 1619 0038 1350     		str	r3, [r2, r0]
 1620              	.L121:
 1621              	.LBB393:
 1622              	.LBB394:
 1623              	.LBB395:
 1624              		.loc 3 360 0
 1625 003a FFF7FEFF 		bl	_dbg_check_unlock
 1626              	.LVL100:
 1627              		.loc 3 367 0
 1628 003e 0B4B     		ldr	r3, .L125+4
 1629 0040 1A68     		ldr	r2, [r3]
 1630 0042 9A42     		cmp	r2, r3
 1631 0044 07D0     		beq	.L122
 1632 0046 9969     		ldr	r1, [r3, #24]
 1633 0048 9368     		ldr	r3, [r2, #8]
 1634 004a 8A68     		ldr	r2, [r1, #8]
 1635 004c 9A42     		cmp	r2, r3
 1636 004e 02D2     		bcs	.L122
 1637 0050 0748     		ldr	r0, .L125+8
 1638 0052 FFF7FEFF 		bl	chSysHalt
 1639              	.LVL101:
 1640              	.L122:
 1641              	.LBB396:
 1642              	.LBB397:
 1643              	.LBB398:
 1644              		.loc 2 546 0
 1645 0056 0023     		movs	r3, #0
 1646              	@ 546 "../../../os/ext/CMSIS/include/core_cmFunc.h" 1
 1647 0058 83F31188 		MSR basepri, r3
 1648              	@ 0 "" 2
 1649              		.thumb
ARM GAS  C:\Users\jo\AppData\Local\Temp\ccwTMAf9.s 			page 30


 1650 005c 10BD     		pop	{r4, pc}
 1651              	.LVL102:
 1652              	.L124:
 1653              	.LBE398:
 1654              	.LBE397:
 1655              	.LBE396:
 1656              	.LBE395:
 1657              	.LBE394:
 1658              	.LBE393:
 1659              		.loc 1 528 0 discriminator 2
 1660 005e 0548     		ldr	r0, .L125+12
 1661              	.LVL103:
 1662 0060 FFF7FEFF 		bl	chSysHalt
 1663              	.LVL104:
 1664 0064 D2E7     		b	.L120
 1665              	.L126:
 1666 0066 00BF     		.align	2
 1667              	.L125:
 1668 0068 00800240 		.word	1073905664
 1669 006c 00000000 		.word	ch
 1670 0070 00000000 		.word	.LANCHOR6
 1671 0074 00000000 		.word	.LANCHOR8
 1672              		.cfi_endproc
 1673              	.LFE270:
 1674              		.size	mac_lld_release_receive_descriptor, .-mac_lld_release_receive_descriptor
 1675 0078 AFF30080 		.section	.text.mac_lld_poll_link_status,"ax",%progbits
 1675      AFF30080 
 1676              		.align	2
 1677              		.p2align 4,,15
 1678              		.global	mac_lld_poll_link_status
 1679              		.thumb
 1680              		.thumb_func
 1681              		.type	mac_lld_poll_link_status, %function
 1682              	mac_lld_poll_link_status:
 1683              	.LFB271:
 1684              		.loc 1 555 0
 1685              		.cfi_startproc
 1686              		@ args = 0, pretend = 0, frame = 0
 1687              		@ frame_needed = 0, uses_anonymous_args = 0
 1688              		@ link register save eliminated.
 1689              	.LVL105:
 1690 0000 70B4     		push	{r4, r5, r6}
 1691              		.cfi_def_cfa_offset 12
 1692              		.cfi_offset 4, -12
 1693              		.cfi_offset 5, -8
 1694              		.cfi_offset 6, -4
 1695              		.loc 1 555 0
 1696 0002 0546     		mov	r5, r0
 1697              	.LBB399:
 1698              	.LBB400:
 1699              		.loc 1 110 0
 1700 0004 006A     		ldr	r0, [r0, #32]
 1701              	.LVL106:
 1702              	.LBE400:
 1703              	.LBE399:
 1704              		.loc 1 558 0
 1705 0006 2649     		ldr	r1, .L152
ARM GAS  C:\Users\jo\AppData\Local\Temp\ccwTMAf9.s 			page 31


 1706              	.LBB403:
 1707              	.LBB401:
 1708              		.loc 1 110 0
 1709 0008 40F05106 		orr	r6, r0, #81
 1710              	.LBE401:
 1711              	.LBE403:
 1712              		.loc 1 558 0
 1713 000c 0C68     		ldr	r4, [r1]
 1714              	.LVL107:
 1715              	.LBB404:
 1716              	.LBB402:
 1717              		.loc 1 110 0
 1718 000e 0E61     		str	r6, [r1, #16]
 1719              	.L128:
 1720              		.loc 1 111 0
 1721 0010 0A69     		ldr	r2, [r1, #16]
 1722 0012 234B     		ldr	r3, .L152
 1723 0014 D207     		lsls	r2, r2, #31
 1724 0016 FBD4     		bmi	.L128
 1725              		.loc 1 113 0
 1726 0018 5A69     		ldr	r2, [r3, #20]
 1727              	.LVL108:
 1728              	.LBE402:
 1729              	.LBE404:
 1730              	.LBB405:
 1731              	.LBB406:
 1732              		.loc 1 110 0
 1733 001a 1E61     		str	r6, [r3, #16]
 1734              		.loc 1 111 0
 1735 001c 1A46     		mov	r2, r3
 1736              	.L129:
 1737 001e 1169     		ldr	r1, [r2, #16]
 1738 0020 1F4B     		ldr	r3, .L152
 1739 0022 C907     		lsls	r1, r1, #31
 1740 0024 FBD4     		bmi	.L129
 1741              	.LBE406:
 1742              	.LBE405:
 1743              	.LBB408:
 1744              	.LBB409:
 1745              		.loc 1 110 0
 1746 0026 40F01102 		orr	r2, r0, #17
 1747              	.LBE409:
 1748              	.LBE408:
 1749              	.LBB411:
 1750              	.LBB407:
 1751              		.loc 1 113 0
 1752 002a 5E69     		ldr	r6, [r3, #20]
 1753              	.LVL109:
 1754              	.LBE407:
 1755              	.LBE411:
 1756              	.LBB412:
 1757              	.LBB410:
 1758              		.loc 1 110 0
 1759 002c 1A61     		str	r2, [r3, #16]
 1760              	.L130:
 1761              		.loc 1 111 0
 1762 002e 1A69     		ldr	r2, [r3, #16]
ARM GAS  C:\Users\jo\AppData\Local\Temp\ccwTMAf9.s 			page 32


 1763 0030 1B49     		ldr	r1, .L152
 1764 0032 D207     		lsls	r2, r2, #31
 1765 0034 FBD4     		bmi	.L130
 1766              		.loc 1 113 0
 1767 0036 4B69     		ldr	r3, [r1, #20]
 1768              	.LBE410:
 1769              	.LBE412:
 1770              		.loc 1 566 0
 1771 0038 DA04     		lsls	r2, r3, #19
 1772 003a 07D5     		bpl	.L131
 1773              	.LBB413:
 1774              		.loc 1 570 0
 1775 003c 06F03406 		and	r6, r6, #52
 1776 0040 242E     		cmp	r6, #36
 1777 0042 16D0     		beq	.L132
 1778              	.L139:
 1779              		.loc 1 572 0
 1780 0044 0020     		movs	r0, #0
 1781 0046 2877     		strb	r0, [r5, #28]
 1782              	.LBE413:
 1783              		.loc 1 612 0
 1784 0048 70BC     		pop	{r4, r5, r6}
 1785              		.cfi_remember_state
 1786              		.cfi_restore 6
 1787              		.cfi_restore 5
 1788              		.cfi_restore 4
 1789              		.cfi_def_cfa_offset 0
 1790              	.LVL110:
 1791 004a 7047     		bx	lr
 1792              	.LVL111:
 1793              	.L131:
 1794              		.cfi_restore_state
 1795              		.loc 1 591 0
 1796 004c 7107     		lsls	r1, r6, #29
 1797 004e F9D5     		bpl	.L139
 1798              		.loc 1 595 0
 1799 0050 9A04     		lsls	r2, r3, #18
 1800              		.loc 1 596 0
 1801 0052 4CBF     		ite	mi
 1802 0054 44F48044 		orrmi	r4, r4, #16384
 1803              	.LVL112:
 1804              		.loc 1 598 0
 1805 0058 24F48044 		bicpl	r4, r4, #16384
 1806              	.LVL113:
 1807              		.loc 1 601 0
 1808 005c DB05     		lsls	r3, r3, #23
 1809 005e 1CD4     		bmi	.L151
 1810              	.L142:
 1811              		.loc 1 604 0
 1812 0060 24F40064 		bic	r4, r4, #2048
 1813              	.LVL114:
 1814              	.L138:
 1815              		.loc 1 608 0
 1816 0064 0E4A     		ldr	r2, .L152
 1817              		.loc 1 611 0
 1818 0066 0123     		movs	r3, #1
 1819              		.loc 1 608 0
ARM GAS  C:\Users\jo\AppData\Local\Temp\ccwTMAf9.s 			page 33


 1820 0068 1460     		str	r4, [r2]
 1821              		.loc 1 611 0
 1822 006a 1846     		mov	r0, r3
 1823 006c 2B77     		strb	r3, [r5, #28]
 1824              		.loc 1 612 0
 1825 006e 70BC     		pop	{r4, r5, r6}
 1826              		.cfi_remember_state
 1827              		.cfi_restore 4
 1828              		.cfi_restore 5
 1829              		.cfi_restore 6
 1830              		.cfi_def_cfa_offset 0
 1831              	.LVL115:
 1832 0070 7047     		bx	lr
 1833              	.LVL116:
 1834              	.L132:
 1835              		.cfi_restore_state
 1836              	.LBB416:
 1837              	.LBB414:
 1838              	.LBB415:
 1839              		.loc 1 110 0
 1840 0072 40F4A870 		orr	r0, r0, #336
 1841 0076 40F00100 		orr	r0, r0, #1
 1842 007a 0861     		str	r0, [r1, #16]
 1843              	.L134:
 1844              		.loc 1 111 0
 1845 007c 0B69     		ldr	r3, [r1, #16]
 1846 007e 084A     		ldr	r2, .L152
 1847 0080 D807     		lsls	r0, r3, #31
 1848 0082 FBD4     		bmi	.L134
 1849              		.loc 1 113 0
 1850 0084 5369     		ldr	r3, [r2, #20]
 1851              	.LBE415:
 1852              	.LBE414:
 1853              		.loc 1 578 0
 1854 0086 13F4607F 		tst	r3, #896
 1855              		.loc 1 579 0
 1856 008a 14BF     		ite	ne
 1857 008c 44F48044 		orrne	r4, r4, #16384
 1858              	.LVL117:
 1859              		.loc 1 581 0
 1860 0090 24F48044 		biceq	r4, r4, #16384
 1861              	.LVL118:
 1862              		.loc 1 584 0
 1863 0094 13F4A07F 		tst	r3, #320
 1864 0098 E2D0     		beq	.L142
 1865              	.LVL119:
 1866              	.L151:
 1867              	.LBE416:
 1868              		.loc 1 602 0
 1869 009a 44F40064 		orr	r4, r4, #2048
 1870              	.LVL120:
 1871 009e E1E7     		b	.L138
 1872              	.L153:
 1873              		.align	2
 1874              	.L152:
 1875 00a0 00800240 		.word	1073905664
 1876              		.cfi_endproc
ARM GAS  C:\Users\jo\AppData\Local\Temp\ccwTMAf9.s 			page 34


 1877              	.LFE271:
 1878              		.size	mac_lld_poll_link_status, .-mac_lld_poll_link_status
 1879 00a4 AFF30080 		.section	.text.mac_lld_write_transmit_descriptor,"ax",%progbits
 1879      AFF30080 
 1879      AFF30080 
 1880              		.align	2
 1881              		.p2align 4,,15
 1882              		.global	mac_lld_write_transmit_descriptor
 1883              		.thumb
 1884              		.thumb_func
 1885              		.type	mac_lld_write_transmit_descriptor, %function
 1886              	mac_lld_write_transmit_descriptor:
 1887              	.LFB272:
 1888              		.loc 1 630 0
 1889              		.cfi_startproc
 1890              		@ args = 0, pretend = 0, frame = 8
 1891              		@ frame_needed = 0, uses_anonymous_args = 0
 1892              	.LVL121:
 1893 0000 30B5     		push	{r4, r5, lr}
 1894              		.cfi_def_cfa_offset 12
 1895              		.cfi_offset 4, -12
 1896              		.cfi_offset 5, -8
 1897              		.cfi_offset 14, -4
 1898              		.loc 1 632 0
 1899 0002 8368     		ldr	r3, [r0, #8]
 1900 0004 1B68     		ldr	r3, [r3]
 1901 0006 002B     		cmp	r3, #0
 1902              		.loc 1 630 0
 1903 0008 83B0     		sub	sp, sp, #12
 1904              		.cfi_def_cfa_offset 24
 1905              		.loc 1 630 0
 1906 000a 0546     		mov	r5, r0
 1907              		.loc 1 632 0
 1908 000c 12DB     		blt	.L161
 1909              	.LVL122:
 1910              	.L155:
 1911              		.loc 1 635 0
 1912 000e 95E80900 		ldmia	r5, {r0, r3}
 1913 0012 1B1A     		subs	r3, r3, r0
 1914 0014 9A42     		cmp	r2, r3
 1915 0016 28BF     		it	cs
 1916 0018 1A46     		movcs	r2, r3
 1917 001a 1446     		mov	r4, r2
 1918              	.LVL123:
 1919              		.loc 1 638 0
 1920 001c 3AB1     		cbz	r2, .L156
 1921              		.loc 1 639 0
 1922 001e AB68     		ldr	r3, [r5, #8]
 1923 0020 9B68     		ldr	r3, [r3, #8]
 1924 0022 1844     		add	r0, r0, r3
 1925 0024 FFF7FEFF 		bl	memcpy
 1926              	.LVL124:
 1927              		.loc 1 640 0
 1928 0028 2B68     		ldr	r3, [r5]
 1929 002a 2344     		add	r3, r3, r4
 1930 002c 2B60     		str	r3, [r5]
 1931              	.L156:
ARM GAS  C:\Users\jo\AppData\Local\Temp\ccwTMAf9.s 			page 35


 1932              		.loc 1 643 0
 1933 002e 2046     		mov	r0, r4
 1934 0030 03B0     		add	sp, sp, #12
 1935              		.cfi_remember_state
 1936              		.cfi_def_cfa_offset 12
 1937              		@ sp needed
 1938 0032 30BD     		pop	{r4, r5, pc}
 1939              	.LVL125:
 1940              	.L161:
 1941              		.cfi_restore_state
 1942              		.loc 1 632 0 discriminator 2
 1943 0034 0348     		ldr	r0, .L162
 1944              	.LVL126:
 1945 0036 8DE80600 		stmia	sp, {r1, r2}
 1946 003a FFF7FEFF 		bl	chSysHalt
 1947              	.LVL127:
 1948 003e 9DE80600 		ldmia	sp, {r1, r2}
 1949 0042 E4E7     		b	.L155
 1950              	.L163:
 1951              		.align	2
 1952              	.L162:
 1953 0044 00000000 		.word	.LANCHOR9
 1954              		.cfi_endproc
 1955              	.LFE272:
 1956              		.size	mac_lld_write_transmit_descriptor, .-mac_lld_write_transmit_descriptor
 1957 0048 AFF30080 		.section	.text.mac_lld_read_receive_descriptor,"ax",%progbits
 1957      AFF30080 
 1958              		.align	2
 1959              		.p2align 4,,15
 1960              		.global	mac_lld_read_receive_descriptor
 1961              		.thumb
 1962              		.thumb_func
 1963              		.type	mac_lld_read_receive_descriptor, %function
 1964              	mac_lld_read_receive_descriptor:
 1965              	.LFB273:
 1966              		.loc 1 660 0
 1967              		.cfi_startproc
 1968              		@ args = 0, pretend = 0, frame = 8
 1969              		@ frame_needed = 0, uses_anonymous_args = 0
 1970              	.LVL128:
 1971 0000 70B5     		push	{r4, r5, r6, lr}
 1972              		.cfi_def_cfa_offset 16
 1973              		.cfi_offset 4, -16
 1974              		.cfi_offset 5, -12
 1975              		.cfi_offset 6, -8
 1976              		.cfi_offset 14, -4
 1977              		.loc 1 662 0
 1978 0002 8368     		ldr	r3, [r0, #8]
 1979 0004 1B68     		ldr	r3, [r3]
 1980 0006 002B     		cmp	r3, #0
 1981              		.loc 1 660 0
 1982 0008 82B0     		sub	sp, sp, #8
 1983              		.cfi_def_cfa_offset 24
 1984              		.loc 1 660 0
 1985 000a 0546     		mov	r5, r0
 1986              		.loc 1 662 0
 1987 000c 13DB     		blt	.L171
ARM GAS  C:\Users\jo\AppData\Local\Temp\ccwTMAf9.s 			page 36


 1988              	.LVL129:
 1989              	.L165:
 1990              		.loc 1 665 0
 1991 000e 2E68     		ldr	r6, [r5]
 1992 0010 6B68     		ldr	r3, [r5, #4]
 1993 0012 9B1B     		subs	r3, r3, r6
 1994 0014 9A42     		cmp	r2, r3
 1995 0016 28BF     		it	cs
 1996 0018 1A46     		movcs	r2, r3
 1997 001a 1446     		mov	r4, r2
 1998              	.LVL130:
 1999              		.loc 1 668 0
 2000 001c 42B1     		cbz	r2, .L166
 2001              		.loc 1 669 0
 2002 001e AB68     		ldr	r3, [r5, #8]
 2003 0020 9B68     		ldr	r3, [r3, #8]
 2004 0022 0846     		mov	r0, r1
 2005 0024 9919     		adds	r1, r3, r6
 2006 0026 FFF7FEFF 		bl	memcpy
 2007              	.LVL131:
 2008              		.loc 1 670 0
 2009 002a 2B68     		ldr	r3, [r5]
 2010 002c 2344     		add	r3, r3, r4
 2011 002e 2B60     		str	r3, [r5]
 2012              	.L166:
 2013              		.loc 1 673 0
 2014 0030 2046     		mov	r0, r4
 2015 0032 02B0     		add	sp, sp, #8
 2016              		.cfi_remember_state
 2017              		.cfi_def_cfa_offset 16
 2018              		@ sp needed
 2019 0034 70BD     		pop	{r4, r5, r6, pc}
 2020              	.LVL132:
 2021              	.L171:
 2022              		.cfi_restore_state
 2023              		.loc 1 662 0 discriminator 2
 2024 0036 0448     		ldr	r0, .L172
 2025              	.LVL133:
 2026 0038 8DE80600 		stmia	sp, {r1, r2}
 2027 003c FFF7FEFF 		bl	chSysHalt
 2028              	.LVL134:
 2029 0040 9DE80600 		ldmia	sp, {r1, r2}
 2030 0044 E3E7     		b	.L165
 2031              	.L173:
 2032 0046 00BF     		.align	2
 2033              	.L172:
 2034 0048 00000000 		.word	.LANCHOR10
 2035              		.cfi_endproc
 2036              	.LFE273:
 2037              		.size	mac_lld_read_receive_descriptor, .-mac_lld_read_receive_descriptor
 2038 004c AFF30080 		.section	.text.mac_lld_get_next_transmit_buffer,"ax",%progbits
 2039              		.align	2
 2040              		.p2align 4,,15
 2041              		.global	mac_lld_get_next_transmit_buffer
 2042              		.thumb
 2043              		.thumb_func
 2044              		.type	mac_lld_get_next_transmit_buffer, %function
ARM GAS  C:\Users\jo\AppData\Local\Temp\ccwTMAf9.s 			page 37


 2045              	mac_lld_get_next_transmit_buffer:
 2046              	.LFB274:
 2047              		.loc 1 699 0
 2048              		.cfi_startproc
 2049              		@ args = 0, pretend = 0, frame = 0
 2050              		@ frame_needed = 0, uses_anonymous_args = 0
 2051              		@ link register save eliminated.
 2052              	.LVL135:
 2053 0000 0346     		mov	r3, r0
 2054              		.loc 1 701 0
 2055 0002 0068     		ldr	r0, [r0]
 2056              	.LVL136:
 2057 0004 40B9     		cbnz	r0, .L175
 2058              		.loc 1 704 0
 2059 0006 9868     		ldr	r0, [r3, #8]
 2060              		.loc 1 699 0
 2061 0008 10B4     		push	{r4}
 2062              		.cfi_def_cfa_offset 4
 2063              		.cfi_offset 4, -4
 2064              		.loc 1 702 0
 2065 000a 5C68     		ldr	r4, [r3, #4]
 2066 000c 1460     		str	r4, [r2]
 2067              		.loc 1 704 0
 2068 000e 8068     		ldr	r0, [r0, #8]
 2069              		.loc 1 708 0
 2070 0010 5DF8044B 		ldr	r4, [sp], #4
 2071              		.cfi_restore 4
 2072              		.cfi_def_cfa_offset 0
 2073              		.loc 1 703 0
 2074 0014 1960     		str	r1, [r3]
 2075              		.loc 1 708 0
 2076 0016 7047     		bx	lr
 2077              	.L175:
 2078              		.loc 1 706 0
 2079 0018 0020     		movs	r0, #0
 2080 001a 1060     		str	r0, [r2]
 2081              		.loc 1 707 0
 2082 001c 7047     		bx	lr
 2083              		.cfi_endproc
 2084              	.LFE274:
 2085              		.size	mac_lld_get_next_transmit_buffer, .-mac_lld_get_next_transmit_buffer
 2086 001e 00BF     		.section	.text.mac_lld_get_next_receive_buffer,"ax",%progbits
 2087              		.align	2
 2088              		.p2align 4,,15
 2089              		.global	mac_lld_get_next_receive_buffer
 2090              		.thumb
 2091              		.thumb_func
 2092              		.type	mac_lld_get_next_receive_buffer, %function
 2093              	mac_lld_get_next_receive_buffer:
 2094              	.LFB275:
 2095              		.loc 1 725 0
 2096              		.cfi_startproc
 2097              		@ args = 0, pretend = 0, frame = 0
 2098              		@ frame_needed = 0, uses_anonymous_args = 0
 2099              		@ link register save eliminated.
 2100              	.LVL137:
 2101              		.loc 1 725 0
ARM GAS  C:\Users\jo\AppData\Local\Temp\ccwTMAf9.s 			page 38


 2102 0000 0346     		mov	r3, r0
 2103              		.loc 1 727 0
 2104 0002 4068     		ldr	r0, [r0, #4]
 2105              	.LVL138:
 2106              		.loc 1 728 0
 2107 0004 0860     		str	r0, [r1]
 2108              		.loc 1 727 0
 2109 0006 30B1     		cbz	r0, .L180
 2110              		.loc 1 729 0
 2111 0008 5A68     		ldr	r2, [r3, #4]
 2112              		.loc 1 731 0
 2113 000a 9968     		ldr	r1, [r3, #8]
 2114              	.LVL139:
 2115              		.loc 1 729 0
 2116 000c 1A60     		str	r2, [r3]
 2117              		.loc 1 730 0
 2118 000e 0022     		movs	r2, #0
 2119              		.loc 1 731 0
 2120 0010 8868     		ldr	r0, [r1, #8]
 2121              		.loc 1 730 0
 2122 0012 5A60     		str	r2, [r3, #4]
 2123              		.loc 1 731 0
 2124 0014 7047     		bx	lr
 2125              	.LVL140:
 2126              	.L180:
 2127              		.loc 1 735 0
 2128 0016 7047     		bx	lr
 2129              		.cfi_endproc
 2130              	.LFE275:
 2131              		.size	mac_lld_get_next_receive_buffer, .-mac_lld_get_next_receive_buffer
 2132              		.global	ETHD1
 2133 0018 AFF30080 		.section	.rodata.default_mac_address,"a",%progbits
 2133      AFF30080 
 2134              		.align	2
 2135              		.set	.LANCHOR5,. + 0
 2136              		.type	default_mac_address, %object
 2137              		.size	default_mac_address, 6
 2138              	default_mac_address:
 2139 0000 AA       		.byte	-86
 2140 0001 55       		.byte	85
 2141 0002 13       		.byte	19
 2142 0003 37       		.byte	55
 2143 0004 01       		.byte	1
 2144 0005 10       		.byte	16
 2145 0006 0000     		.section	.rodata.__func__.7767,"a",%progbits
 2146              		.align	2
 2147              		.set	.LANCHOR10,. + 0
 2148              		.type	__func__.7767, %object
 2149              		.size	__func__.7767, 32
 2150              	__func__.7767:
 2151 0000 6D61635F 		.ascii	"mac_lld_read_receive_descriptor\000"
 2151      6C6C645F 
 2151      72656164 
 2151      5F726563 
 2151      65697665 
 2152              		.section	.rodata.__func__.6168,"a",%progbits
 2153              		.align	2
ARM GAS  C:\Users\jo\AppData\Local\Temp\ccwTMAf9.s 			page 39


 2154              		.set	.LANCHOR6,. + 0
 2155              		.type	__func__.6168, %object
 2156              		.size	__func__.6168, 12
 2157              	__func__.6168:
 2158 0000 63685379 		.ascii	"chSysUnlock\000"
 2158      73556E6C 
 2158      6F636B00 
 2159              		.section	.bss.ETHD1,"aw",%nobits
 2160              		.align	2
 2161              		.set	.LANCHOR0,. + 0
 2162              		.type	ETHD1, %object
 2163              		.size	ETHD1, 44
 2164              	ETHD1:
 2165 0000 00000000 		.space	44
 2165      00000000 
 2165      00000000 
 2165      00000000 
 2165      00000000 
 2166              		.section	.bss.rb,"aw",%nobits
 2167              		.align	2
 2168              		.set	.LANCHOR2,. + 0
 2169              		.type	rb, %object
 2170              		.size	rb, 8192
 2171              	rb:
 2172 0000 00000000 		.space	8192
 2172      00000000 
 2172      00000000 
 2172      00000000 
 2172      00000000 
 2173              		.section	.bss.rd,"aw",%nobits
 2174              		.align	2
 2175              		.set	.LANCHOR1,. + 0
 2176              		.type	rd, %object
 2177              		.size	rd, 64
 2178              	rd:
 2179 0000 00000000 		.space	64
 2179      00000000 
 2179      00000000 
 2179      00000000 
 2179      00000000 
 2180              		.section	.rodata.__func__.7736,"a",%progbits
 2181              		.align	2
 2182              		.set	.LANCHOR7,. + 0
 2183              		.type	__func__.7736, %object
 2184              		.size	__func__.7736, 36
 2185              	__func__.7736:
 2186 0000 6D61635F 		.ascii	"mac_lld_release_transmit_descriptor\000"
 2186      6C6C645F 
 2186      72656C65 
 2186      6173655F 
 2186      7472616E 
 2187              		.section	.rodata.str1.4,"aMS",%progbits,1
 2188              		.align	2
 2189              	.LC0:
 2190 0000 4D414320 		.ascii	"MAC failure\000"
 2190      6661696C 
 2190      75726500 
ARM GAS  C:\Users\jo\AppData\Local\Temp\ccwTMAf9.s 			page 40


 2191              		.section	.bss.tb,"aw",%nobits
 2192              		.align	2
 2193              		.set	.LANCHOR4,. + 0
 2194              		.type	tb, %object
 2195              		.size	tb, 8192
 2196              	tb:
 2197 0000 00000000 		.space	8192
 2197      00000000 
 2197      00000000 
 2197      00000000 
 2197      00000000 
 2198              		.section	.rodata.__func__.7748,"a",%progbits
 2199              		.align	2
 2200              		.set	.LANCHOR8,. + 0
 2201              		.type	__func__.7748, %object
 2202              		.size	__func__.7748, 35
 2203              	__func__.7748:
 2204 0000 6D61635F 		.ascii	"mac_lld_release_receive_descriptor\000"
 2204      6C6C645F 
 2204      72656C65 
 2204      6173655F 
 2204      72656365 
 2205 0023 00       		.section	.bss.td,"aw",%nobits
 2206              		.align	2
 2207              		.set	.LANCHOR3,. + 0
 2208              		.type	td, %object
 2209              		.size	td, 64
 2210              	td:
 2211 0000 00000000 		.space	64
 2211      00000000 
 2211      00000000 
 2211      00000000 
 2211      00000000 
 2212              		.section	.rodata.__func__.7761,"a",%progbits
 2213              		.align	2
 2214              		.set	.LANCHOR9,. + 0
 2215              		.type	__func__.7761, %object
 2216              		.size	__func__.7761, 34
 2217              	__func__.7761:
 2218 0000 6D61635F 		.ascii	"mac_lld_write_transmit_descriptor\000"
 2218      6C6C645F 
 2218      77726974 
 2218      655F7472 
 2218      616E736D 
 2219 0022 0000     		.text
 2220              	.Letext0:
 2221              		.file 5 "c:\\program files\\gnu tools arm embedded\\4.9 2014q4\\lib\\gcc\\arm-none-eabi\\4.9.3\\in
 2222              		.file 6 "c:\\program files\\gnu tools arm embedded\\4.9 2014q4\\arm-none-eabi\\include\\machine\\_
 2223              		.file 7 "c:\\program files\\gnu tools arm embedded\\4.9 2014q4\\arm-none-eabi\\include\\stdint.h"
 2224              		.file 8 "../../../os/rt/ports/ARMCMx/compilers/GCC/chtypes.h"
 2225              		.file 9 "../../../os/rt/include/chsystypes.h"
 2226              		.file 10 "../../../os/rt/include/chschd.h"
 2227              		.file 11 "../../../os/ext/CMSIS/ST/stm32f407xx.h"
 2228              		.file 12 "../../../os/rt/ports/ARMCMx/chcore.h"
 2229              		.file 13 "../../../os/rt/ports/ARMCMx/chcore_v7m.h"
 2230              		.file 14 "../../../os/rt/include/chdebug.h"
 2231              		.file 15 "../../../os/rt/include/chtm.h"
ARM GAS  C:\Users\jo\AppData\Local\Temp\ccwTMAf9.s 			page 41


 2232              		.file 16 "../../../os/rt/include/chsem.h"
 2233              		.file 17 "../../../os/rt/include/chmtx.h"
 2234              		.file 18 "../../../os/rt/include/chevents.h"
 2235              		.file 19 "../../../os/hal/include/mac.h"
 2236              		.file 20 "../../../os/hal/ports/STM32/LLD/mac_lld.h"
 2237              		.file 21 "../../../os/ext/CMSIS/include/core_cm4.h"
 2238              		.file 22 "../../../os/rt/include/chthreads.h"
 2239              		.file 23 "../../../os/hal/ports/common/ARMCMx/nvic.h"