ARM GAS  C:\Users\jo\AppData\Local\Temp\ccWSatz4.s 			page 1


   1              		.syntax unified
   2              		.cpu cortex-m4
   3              		.fpu softvfp
   4              		.eabi_attribute 20, 1
   5              		.eabi_attribute 21, 1
   6              		.eabi_attribute 23, 3
   7              		.eabi_attribute 24, 1
   8              		.eabi_attribute 25, 1
   9              		.eabi_attribute 26, 1
  10              		.eabi_attribute 30, 2
  11              		.eabi_attribute 34, 1
  12              		.eabi_attribute 18, 4
  13              		.thumb
  14              		.file	"main.c"
  15              		.text
  16              	.Ltext0:
  17              		.cfi_sections	.debug_frame
  18              		.section	.text.Thread1,"ax",%progbits
  19              		.align	2
  20              		.p2align 4,,15
  21              		.thumb
  22              		.thumb_func
  23              		.type	Thread1, %function
  24              	Thread1:
  25              	.LFB264:
  26              		.file 1 "main.c"
  27              		.loc 1 125 0
  28              		.cfi_startproc
  29              		@ Volatile: function does not return.
  30              		@ args = 0, pretend = 0, frame = 0
  31              		@ frame_needed = 0, uses_anonymous_args = 0
  32              	.LVL0:
  33 0000 08B5     		push	{r3, lr}
  34              		.cfi_def_cfa_offset 8
  35              		.cfi_offset 3, -8
  36              		.cfi_offset 14, -4
  37              		.loc 1 128 0
  38 0002 0A4B     		ldr	r3, .L5
  39 0004 0A4A     		ldr	r2, .L5+4
  40 0006 9B69     		ldr	r3, [r3, #24]
  41              		.loc 1 130 0
  42 0008 0A4C     		ldr	r4, .L5+8
  43              		.loc 1 128 0
  44 000a 9A61     		str	r2, [r3, #24]
  45              		.loc 1 130 0
  46 000c 4025     		movs	r5, #64
  47 000e 2E46     		mov	r6, r5	@ movhi
  48              	.LVL1:
  49              	.L2:
  50              		.loc 1 130 0 is_stmt 0 discriminator 1
  51 0010 6683     		strh	r6, [r4, #26]	@ movhi
  52              		.loc 1 131 0 is_stmt 1 discriminator 1
  53 0012 4CF25030 		movw	r0, #50000
  54 0016 FFF7FEFF 		bl	chThdSleep
  55              	.LVL2:
  56              		.loc 1 133 0 discriminator 1
  57 001a 4CF25030 		movw	r0, #50000
ARM GAS  C:\Users\jo\AppData\Local\Temp\ccWSatz4.s 			page 2


  58              		.loc 1 132 0 discriminator 1
  59 001e 2583     		strh	r5, [r4, #24]	@ movhi
  60              		.loc 1 133 0 discriminator 1
  61 0020 FFF7FEFF 		bl	chThdSleep
  62              	.LVL3:
  63              		.loc 1 134 0 discriminator 1
  64 0024 FFF7FEFF 		bl	stats_display
  65              	.LVL4:
  66              		.loc 1 135 0 discriminator 1
  67 0028 F2E7     		b	.L2
  68              	.L6:
  69 002a 00BF     		.align	2
  70              	.L5:
  71 002c 00000000 		.word	ch
  72 0030 00000000 		.word	.LC0
  73 0034 00180240 		.word	1073879040
  74              		.cfi_endproc
  75              	.LFE264:
  76              		.size	Thread1, .-Thread1
  77 0038 AFF30080 		.section	.text.chprintf.constprop.3,"ax",%progbits
  77      AFF30080 
  78              		.align	2
  79              		.p2align 4,,15
  80              		.thumb
  81              		.thumb_func
  82              		.type	chprintf.constprop.3, %function
  83              	chprintf.constprop.3:
  84              	.LFB269:
  85              		.file 2 "../../../os/hal/lib/streams/chprintf.h"
  86              		.loc 2 69 0
  87              		.cfi_startproc
  88              		@ args = 4, pretend = 12, frame = 8
  89              		@ frame_needed = 0, uses_anonymous_args = 1
  90              	.LVL5:
  91 0000 0EB4     		push	{r1, r2, r3}
  92              		.cfi_def_cfa_offset 12
  93              		.cfi_offset 1, -12
  94              		.cfi_offset 2, -8
  95              		.cfi_offset 3, -4
  96 0002 00B5     		push	{lr}
  97              		.cfi_def_cfa_offset 16
  98              		.cfi_offset 14, -16
  99 0004 82B0     		sub	sp, sp, #8
 100              		.cfi_def_cfa_offset 24
 101              		.loc 2 73 0
 102 0006 04AB     		add	r3, sp, #16
 103              		.loc 2 74 0
 104 0008 1A46     		mov	r2, r3
 105 000a 0549     		ldr	r1, .L9
 106 000c 0548     		ldr	r0, .L9+4
 107              	.LVL6:
 108              		.loc 2 73 0
 109 000e 0193     		str	r3, [sp, #4]
 110              		.loc 2 74 0
 111 0010 FFF7FEFF 		bl	chvprintf
 112              	.LVL7:
 113              		.loc 2 78 0
ARM GAS  C:\Users\jo\AppData\Local\Temp\ccWSatz4.s 			page 3


 114 0014 02B0     		add	sp, sp, #8
 115              		.cfi_def_cfa_offset 16
 116              		@ sp needed
 117 0016 5DF804EB 		ldr	lr, [sp], #4
 118              		.cfi_restore 14
 119              		.cfi_def_cfa_offset 12
 120 001a 03B0     		add	sp, sp, #12
 121              		.cfi_restore 3
 122              		.cfi_restore 2
 123              		.cfi_restore 1
 124              		.cfi_def_cfa_offset 0
 125 001c 7047     		bx	lr
 126              	.L10:
 127 001e 00BF     		.align	2
 128              	.L9:
 129 0020 08000000 		.word	.LC1
 130 0024 00000000 		.word	.LANCHOR0
 131              		.cfi_endproc
 132              	.LFE269:
 133              		.size	chprintf.constprop.3, .-chprintf.constprop.3
 134 0028 AFF30080 		.section	.text.Debug_ITMDebugEnable,"ax",%progbits
 134      AFF30080 
 135              		.align	2
 136              		.p2align 4,,15
 137              		.global	Debug_ITMDebugEnable
 138              		.thumb
 139              		.thumb_func
 140              		.type	Debug_ITMDebugEnable, %function
 141              	Debug_ITMDebugEnable:
 142              	.LFB260:
 143              		.loc 1 42 0
 144              		.cfi_startproc
 145              		@ args = 0, pretend = 0, frame = 0
 146              		@ frame_needed = 0, uses_anonymous_args = 0
 147              		@ link register save eliminated.
 148              	.LVL8:
 149              		.loc 1 47 0
 150 0000 084A     		ldr	r2, .L19
 151              		.loc 1 49 0
 152 0002 0949     		ldr	r1, .L19+4
 153              		.loc 1 47 0
 154 0004 1368     		ldr	r3, [r2]
 155 0006 43F02703 		orr	r3, r3, #39
 156 000a 1360     		str	r3, [r2]
 157              		.loc 1 49 0
 158 000c 0B68     		ldr	r3, [r1]
 159 000e DA07     		lsls	r2, r3, #31
 160 0010 06D5     		bpl	.L11
 161              	.LBB6:
 162 0012 064B     		ldr	r3, .L19+8
 163 0014 1B68     		ldr	r3, [r3]
 164 0016 DB07     		lsls	r3, r3, #31
 165 0018 02D5     		bpl	.L11
 166              		.loc 1 50 0
 167 001a 054B     		ldr	r3, .L19+12
 168 001c 0122     		movs	r2, #1
 169 001e 1A60     		str	r2, [r3]
ARM GAS  C:\Users\jo\AppData\Local\Temp\ccWSatz4.s 			page 4


 170              	.L11:
 171 0020 7047     		bx	lr
 172              	.L20:
 173 0022 00BF     		.align	2
 174              	.L19:
 175 0024 042004E0 		.word	-536600572
 176 0028 F0ED00E0 		.word	-536810000
 177 002c 000E00E0 		.word	-536867328
 178 0030 00000000 		.word	.LANCHOR1
 179              	.LBE6:
 180              		.cfi_endproc
 181              	.LFE260:
 182              		.size	Debug_ITMDebugEnable, .-Debug_ITMDebugEnable
 183 0034 AFF30080 		.section	.text.Debug_ITMDebugOutputChar,"ax",%progbits
 183      AFF30080 
 183      AFF30080 
 184              		.align	2
 185              		.p2align 4,,15
 186              		.global	Debug_ITMDebugOutputChar
 187              		.thumb
 188              		.thumb_func
 189              		.type	Debug_ITMDebugOutputChar, %function
 190              	Debug_ITMDebugOutputChar:
 191              	.LFB261:
 192              		.loc 1 55 0
 193              		.cfi_startproc
 194              		@ args = 0, pretend = 0, frame = 0
 195              		@ frame_needed = 0, uses_anonymous_args = 0
 196              		@ link register save eliminated.
 197              	.LVL9:
 198              		.loc 1 59 0
 199 0000 074B     		ldr	r3, .L33
 200 0002 1B68     		ldr	r3, [r3]
 201 0004 5BB1     		cbz	r3, .L21
 202              		.loc 1 59 0 is_stmt 0 discriminator 1
 203 0006 074B     		ldr	r3, .L33+4
 204 0008 1B68     		ldr	r3, [r3]
 205 000a DB01     		lsls	r3, r3, #7
 206 000c 07D5     		bpl	.L21
 207              	.LBB9:
 208              	.LBB10:
 209              		.loc 1 61 0 is_stmt 1
 210 000e 4FF06041 		mov	r1, #-536870912
 211              	.L29:
 212 0012 0B68     		ldr	r3, [r1]
 213 0014 4FF06042 		mov	r2, #-536870912
 214 0018 002B     		cmp	r3, #0
 215 001a FAD0     		beq	.L29
 216              		.loc 1 62 0
 217 001c 1070     		strb	r0, [r2]
 218              	.L21:
 219 001e 7047     		bx	lr
 220              	.L34:
 221              		.align	2
 222              	.L33:
 223 0020 00000000 		.word	.LANCHOR1
 224 0024 FCED00E0 		.word	-536809988
ARM GAS  C:\Users\jo\AppData\Local\Temp\ccWSatz4.s 			page 5


 225              	.LBE10:
 226              	.LBE9:
 227              		.cfi_endproc
 228              	.LFE261:
 229              		.size	Debug_ITMDebugOutputChar, .-Debug_ITMDebugOutputChar
 230 0028 AFF30080 		.section	.text.Debug_ITMDebugOutputString,"ax",%progbits
 230      AFF30080 
 231              		.align	2
 232              		.p2align 4,,15
 233              		.global	Debug_ITMDebugOutputString
 234              		.thumb
 235              		.thumb_func
 236              		.type	Debug_ITMDebugOutputString, %function
 237              	Debug_ITMDebugOutputString:
 238              	.LFB262:
 239              		.loc 1 68 0
 240              		.cfi_startproc
 241              		@ args = 0, pretend = 0, frame = 0
 242              		@ frame_needed = 0, uses_anonymous_args = 0
 243              	.LVL10:
 244              		.loc 1 69 0
 245 0000 074B     		ldr	r3, .L45
 246 0002 1B68     		ldr	r3, [r3]
 247 0004 53B1     		cbz	r3, .L44
 248              	.LVL11:
 249              		.loc 1 68 0
 250 0006 10B5     		push	{r4, lr}
 251              		.cfi_def_cfa_offset 8
 252              		.cfi_offset 4, -8
 253              		.cfi_offset 14, -4
 254 0008 0446     		mov	r4, r0
 255              	.LBB13:
 256              	.LBB14:
 257              		.loc 1 70 0
 258 000a 0078     		ldrb	r0, [r0]	@ zero_extendqisi2
 259              	.LVL12:
 260 000c 28B1     		cbz	r0, .L35
 261              	.LVL13:
 262              	.L38:
 263              		.loc 1 71 0
 264 000e FFF7FEFF 		bl	Debug_ITMDebugOutputChar
 265              	.LVL14:
 266              		.loc 1 70 0
 267 0012 14F8010F 		ldrb	r0, [r4, #1]!	@ zero_extendqisi2
 268              	.LVL15:
 269 0016 0028     		cmp	r0, #0
 270 0018 F9D1     		bne	.L38
 271              	.LVL16:
 272              	.L35:
 273 001a 10BD     		pop	{r4, pc}
 274              	.LVL17:
 275              	.L44:
 276              		.cfi_def_cfa_offset 0
 277              		.cfi_restore 4
 278              		.cfi_restore 14
 279 001c 7047     		bx	lr
 280              	.L46:
ARM GAS  C:\Users\jo\AppData\Local\Temp\ccWSatz4.s 			page 6


 281 001e 00BF     		.align	2
 282              	.L45:
 283 0020 00000000 		.word	.LANCHOR1
 284              	.LBE14:
 285              	.LBE13:
 286              		.cfi_endproc
 287              	.LFE262:
 288              		.size	Debug_ITMDebugOutputString, .-Debug_ITMDebugOutputString
 289 0024 AFF30080 		.section	.text.__io_putchar,"ax",%progbits
 289      AFF30080 
 289      AFF30080 
 290              		.align	2
 291              		.p2align 4,,15
 292              		.global	__io_putchar
 293              		.thumb
 294              		.thumb_func
 295              		.type	__io_putchar, %function
 296              	__io_putchar:
 297              	.LFB263:
 298              		.loc 1 81 0
 299              		.cfi_startproc
 300              		@ args = 0, pretend = 0, frame = 0
 301              		@ frame_needed = 0, uses_anonymous_args = 0
 302              	.LVL18:
 303 0000 10B5     		push	{r4, lr}
 304              		.cfi_def_cfa_offset 8
 305              		.cfi_offset 4, -8
 306              		.cfi_offset 14, -4
 307              		.loc 1 81 0
 308 0002 0446     		mov	r4, r0
 309              		.loc 1 85 0
 310 0004 C0B2     		uxtb	r0, r0
 311              	.LVL19:
 312 0006 FFF7FEFF 		bl	Debug_ITMDebugOutputChar
 313              	.LVL20:
 314              		.loc 1 88 0
 315 000a 2046     		mov	r0, r4
 316 000c 10BD     		pop	{r4, pc}
 317              		.cfi_endproc
 318              	.LFE263:
 319              		.size	__io_putchar, .-__io_putchar
 320 000e 00BF     		.section	.text.startup.main,"ax",%progbits
 321              		.align	2
 322              		.p2align 4,,15
 323              		.global	main
 324              		.thumb
 325              		.thumb_func
 326              		.type	main, %function
 327              	main:
 328              	.LFB265:
 329              		.loc 1 141 0
 330              		.cfi_startproc
 331              		@ Volatile: function does not return.
 332              		@ args = 0, pretend = 0, frame = 0
 333              		@ frame_needed = 0, uses_anonymous_args = 0
 334 0000 00B5     		push	{lr}
 335              		.cfi_def_cfa_offset 4
ARM GAS  C:\Users\jo\AppData\Local\Temp\ccWSatz4.s 			page 7


 336              		.cfi_offset 14, -4
 337 0002 83B0     		sub	sp, sp, #12
 338              		.cfi_def_cfa_offset 16
 339              		.loc 1 143 0
 340 0004 FFF7FEFF 		bl	Debug_ITMDebugEnable
 341              	.LVL21:
 342              	.LBB19:
 343              	.LBB20:
 344              		.loc 1 69 0
 345 0008 214B     		ldr	r3, .L60
 346 000a 1B68     		ldr	r3, [r3]
 347 000c 002B     		cmp	r3, #0
 348 000e 35D1     		bne	.L54
 349              	.L52:
 350              	.LBE20:
 351              	.LBE19:
 352              		.loc 1 146 0
 353 0010 2048     		ldr	r0, .L60+4
 354              		.loc 1 223 0
 355 0012 214C     		ldr	r4, .L60+8
 356              		.loc 1 146 0
 357 0014 FFF7FEFF 		bl	itmObjectInit
 358              	.LVL22:
 359              		.loc 1 194 0
 360 0018 0025     		movs	r5, #0
 361              		.loc 1 148 0
 362 001a 204A     		ldr	r2, .L60+12
 363 001c 2049     		ldr	r1, .L60+16
 364 001e 1D48     		ldr	r0, .L60+4
 365 0020 FFF7FEFF 		bl	chprintf.constprop.3
 366              	.LVL23:
 367              		.loc 1 159 0
 368 0024 FFF7FEFF 		bl	halInit
 369              	.LVL24:
 370              		.loc 1 160 0
 371 0028 FFF7FEFF 		bl	chSysInit
 372              	.LVL25:
 373              		.loc 1 189 0
 374 002c 2946     		mov	r1, r5
 375 002e 1D48     		ldr	r0, .L60+20
 376 0030 FFF7FEFF 		bl	sdStart
 377              	.LVL26:
 378              		.loc 1 194 0
 379 0034 0095     		str	r5, [sp]
 380 0036 1C4B     		ldr	r3, .L60+24
 381 0038 1C48     		ldr	r0, .L60+28
 382 003a 4FF4A871 		mov	r1, #336
 383 003e 4022     		movs	r2, #64
 384 0040 FFF7FEFF 		bl	chThdCreateStatic
 385              	.LVL27:
 386              		.loc 1 209 0
 387 0044 0095     		str	r5, [sp]
 388 0046 1A4B     		ldr	r3, .L60+32
 389 0048 1A48     		ldr	r0, .L60+36
 390 004a 4FF44471 		mov	r1, #784
 391 004e 4122     		movs	r2, #65
 392 0050 FFF7FEFF 		bl	chThdCreateStatic
ARM GAS  C:\Users\jo\AppData\Local\Temp\ccWSatz4.s 			page 8


 393              	.LVL28:
 394              		.loc 1 215 0
 395 0054 0095     		str	r5, [sp]
 396 0056 184B     		ldr	r3, .L60+40
 397 0058 1848     		ldr	r0, .L60+44
 398 005a 41F6D061 		movw	r1, #7888
 399 005e 4122     		movs	r2, #65
 400 0060 FFF7FEFF 		bl	chThdCreateStatic
 401              	.LVL29:
 402 0064 03E0     		b	.L51
 403              	.L53:
 404              		.loc 1 228 0
 405 0066 4CF25030 		movw	r0, #50000
 406 006a FFF7FEFF 		bl	chThdSleep
 407              	.LVL30:
 408              	.L51:
 409              		.loc 1 223 0
 410 006e 2369     		ldr	r3, [r4, #16]
 411 0070 DB07     		lsls	r3, r3, #31
 412 0072 F8D5     		bpl	.L53
 413              		.loc 1 224 0
 414 0074 0B48     		ldr	r0, .L60+20
 415 0076 FFF7FEFF 		bl	TestThread
 416              	.LVL31:
 417 007a F4E7     		b	.L53
 418              	.L54:
 419              	.LBB24:
 420              	.LBB23:
 421              		.loc 1 69 0
 422 007c 104C     		ldr	r4, .L60+48
 423 007e 5320     		movs	r0, #83
 424              	.L50:
 425              	.LVL32:
 426              	.LBB21:
 427              	.LBB22:
 428              		.loc 1 71 0
 429 0080 FFF7FEFF 		bl	Debug_ITMDebugOutputChar
 430              	.LVL33:
 431              		.loc 1 70 0
 432 0084 14F8010F 		ldrb	r0, [r4, #1]!	@ zero_extendqisi2
 433              	.LVL34:
 434 0088 0028     		cmp	r0, #0
 435 008a F9D1     		bne	.L50
 436 008c C0E7     		b	.L52
 437              	.L61:
 438 008e 00BF     		.align	2
 439              	.L60:
 440 0090 00000000 		.word	.LANCHOR1
 441 0094 00000000 		.word	.LANCHOR0
 442 0098 00000240 		.word	1073872896
 443 009c 1C000000 		.word	.LC3
 444 00a0 08000000 		.word	.LC1
 445 00a4 00000000 		.word	SD6
 446 00a8 00000000 		.word	Thread1
 447 00ac 00000000 		.word	.LANCHOR2
 448 00b0 00000000 		.word	lwip_thread
 449 00b4 00000000 		.word	wa_lwip_thread
ARM GAS  C:\Users\jo\AppData\Local\Temp\ccWSatz4.s 			page 9


 450 00b8 00000000 		.word	HttpTask
 451 00bc 00000000 		.word	task_http_stack
 452 00c0 0C000000 		.word	.LC2
 453              	.LBE22:
 454              	.LBE21:
 455              	.LBE23:
 456              	.LBE24:
 457              		.cfi_endproc
 458              	.LFE265:
 459              		.size	main, .-main
 460              		.global	itm_port
 461 00c4 AFF30080 		.section	.bss.waThread1,"aw",%nobits
 461      AFF30080 
 461      AFF30080 
 462              		.align	3
 463              		.set	.LANCHOR2,. + 0
 464              		.type	waThread1, %object
 465              		.size	waThread1, 336
 466              	waThread1:
 467 0000 00000000 		.space	336
 467      00000000 
 467      00000000 
 467      00000000 
 467      00000000 
 468              		.section	.bss.Debug_ITMDebug,"aw",%nobits
 469              		.align	2
 470              		.set	.LANCHOR1,. + 0
 471              		.type	Debug_ITMDebug, %object
 472              		.size	Debug_ITMDebug, 4
 473              	Debug_ITMDebug:
 474 0000 00000000 		.space	4
 475              		.section	.bss.itm_port,"aw",%nobits
 476              		.align	2
 477              		.set	.LANCHOR0,. + 0
 478              		.type	itm_port, %object
 479              		.size	itm_port, 4
 480              	itm_port:
 481 0000 00000000 		.space	4
 482              		.section	.rodata.str1.4,"aMS",%progbits,1
 483              		.align	2
 484              	.LC0:
 485 0000 626C696E 		.ascii	"blinker\000"
 485      6B657200 
 486              	.LC1:
 487 0008 257300   		.ascii	"%s\000"
 488 000b 00       		.space	1
 489              	.LC2:
 490 000c 53575620 		.ascii	"SWV Enabled\012\000"
 490      456E6162 
 490      6C65640A 
 490      00
 491 0019 000000   		.space	3
 492              	.LC3:
 493 001c 43686962 		.ascii	"ChibiOS V3.0\012\000"
 493      694F5320 
 493      56332E30 
 493      0A00
ARM GAS  C:\Users\jo\AppData\Local\Temp\ccWSatz4.s 			page 10


 494 002a 0000     		.text
 495              	.Letext0:
 496              		.file 3 "c:\\program files\\gnu tools arm embedded\\4.9 2014q4\\lib\\gcc\\arm-none-eabi\\4.9.3\\in
 497              		.file 4 "c:\\program files\\gnu tools arm embedded\\4.9 2014q4\\arm-none-eabi\\include\\machine\\_
 498              		.file 5 "c:\\program files\\gnu tools arm embedded\\4.9 2014q4\\arm-none-eabi\\include\\stdint.h"
 499              		.file 6 "../../../os/rt/ports/ARMCMx/compilers/GCC/chtypes.h"
 500              		.file 7 "../../../os/rt/include/chsystypes.h"
 501              		.file 8 "../../../os/rt/include/chschd.h"
 502              		.file 9 "../../../os/ext/CMSIS/ST/stm32f407xx.h"
 503              		.file 10 "../../../os/rt/ports/ARMCMx/chcore.h"
 504              		.file 11 "../../../os/rt/ports/ARMCMx/chcore_v7m.h"
 505              		.file 12 "../../../os/rt/include/chdebug.h"
 506              		.file 13 "../../../os/rt/include/chtm.h"
 507              		.file 14 "../../../os/rt/include/chsem.h"
 508              		.file 15 "../../../os/rt/include/chmtx.h"
 509              		.file 16 "../../../os/rt/include/chthreads.h"
 510              		.file 17 "../../../os/rt/include/chevents.h"
 511              		.file 18 "../../../os/rt/include/chqueues.h"
 512              		.file 19 "../../../os/rt/include/chstreams.h"
 513              		.file 20 "../../../os/hal/ports/STM32/LLD/GPIOv2/pal_lld.h"
 514              		.file 21 "../../../os/hal/include/serial.h"
 515              		.file 22 "../../../os/hal/ports/STM32/LLD/USARTv1/serial_lld.h"
 516              		.file 23 "ITM_trace.h"
 517              		.file 24 "c:\\program files\\gnu tools arm embedded\\4.9 2014q4\\lib\\gcc\\arm-none-eabi\\4.9.3\\i
 518              		.file 25 "<built-in>"
 519              		.file 26 "../../../ext/lwip/src/include/lwip/memp.h"
 520              		.file 27 "../../../os/ext/CMSIS/include/core_cm4.h"
 521              		.file 28 "../../../os/various/lwip_bindings/lwipthread.h"
 522              		.file 29 "../../../demos/STM32/RT-STM32F407-DISCOVERY-uHttp/uhttp-1.1/uhttpd.h"
 523              		.file 30 "../../../ext/lwip/src/include/lwip/stats.h"
 524              		.file 31 "../../../os/hal/include/hal.h"
 525              		.file 32 "../../../os/rt/include/chsys.h"
 526              		.file 33 "../../../test/rt/test.h"