ARM GAS  C:\Users\jo\AppData\Local\Temp\ccWSatz4.s 			page 1


   1              		.syntax unified
   2              		.cpu cortex-m4
   3              		.fpu softvfp
   4              		.eabi_attribute 20, 1
   5              		.eabi_attribute 21, 1
   6              		.eabi_attribute 23, 3
   7              		.eabi_attribute 24, 1
   8              		.eabi_attribute 25, 1
   9              		.eabi_attribute 26, 1
  10              		.eabi_attribute 30, 2
  11              		.eabi_attribute 34, 1
  12              		.eabi_attribute 18, 4
  13              		.thumb
  14              		.file	"main.c"
  15              		.text
  16              	.Ltext0:
  17              		.cfi_sections	.debug_frame
  18              		.section	.text.Thread1,"ax",%progbits
  19              		.align	2
  20              		.p2align 4,,15
  21              		.thumb
  22              		.thumb_func
  23              		.type	Thread1, %function
  24              	Thread1:
  25              	.LFB264:
  26              		.file 1 "main.c"
  27              		.loc 1 125 0
  28              		.cfi_startproc
  29              		@ Volatile: function does not return.
  30              		@ args = 0, pretend = 0, frame = 0
  31              		@ frame_needed = 0, uses_anonymous_args = 0
  32              	.LVL0:
  33 0000 08B5     		push	{r3, lr}
  34              		.cfi_def_cfa_offset 8
  35              		.cfi_offset 3, -8
  36              		.cfi_offset 14, -4
  37              		.loc 1 128 0
  38 0002 0A4B     		ldr	r3, .L5
  39 0004 0A4A     		ldr	r2, .L5+4
  40 0006 9B69     		ldr	r3, [r3, #24]
  41              		.loc 1 130 0
  42 0008 0A4C     		ldr	r4, .L5+8
  43              		.loc 1 128 0
  44 000a 9A61     		str	r2, [r3, #24]
  45              		.loc 1 130 0
  46 000c 4025     		movs	r5, #64
  47 000e 2E46     		mov	r6, r5	@ movhi
  48              	.LVL1:
  49              	.L2:
  50              		.loc 1 130 0 is_stmt 0 discriminator 1
  51 0010 6683     		strh	r6, [r4, #26]	@ movhi
  52              		.loc 1 131 0 is_stmt 1 discriminator 1
  53 0012 4CF25030 		movw	r0, #50000
  54 0016 FFF7FEFF 		bl	chThdSleep
  55              	.LVL2:
  56              		.loc 1 133 0 discriminator 1
  57 001a 4CF25030 		movw	r0, #50000
ARM GAS  C:\Users\jo\AppData\Local\Temp\ccWSatz4.s 			page 2


  58              		.loc 1 132 0 discriminator 1
  59 001e 2583     		strh	r5, [r4, #24]	@ movhi
  60              		.loc 1 133 0 discriminator 1
  61 0020 FFF7FEFF 		bl	chThdSleep
  62              	.LVL3:
  63              		.loc 1 134 0 discriminator 1
  64 0024 FFF7FEFF 		bl	stats_display
  65              	.LVL4:
  66              		.loc 1 135 0 discriminator 1
  67 0028 F2E7     		b	.L2
  68              	.L6:
  69 002a 00BF     		.align	2
  70              	.L5:
  71 002c 00000000 		.word	ch
  72 0030 00000000 		.word	.LC0
  73 0034 00180240 		.word	1073879040
  74              		.cfi_endproc
  75              	.LFE264:
  76              		.size	Thread1, .-Thread1
  77 0038 AFF30080 		.section	.text.chprintf.constprop.3,"ax",%progbits
  77      AFF30080 
  78              		.align	2
  79              		.p2align 4,,15
  80              		.thumb
  81              		.thumb_func
  82              		.type	chprintf.constprop.3, %function
  83              	chprintf.constprop.3:
  84              	.LFB269:
  85              		.file 2 "../../../os/hal/lib/streams/chprintf.h"
  86              		.loc 2 69 0
  87              		.cfi_startproc
  88              		@ args = 4, pretend = 12, frame = 8
  89              		@ frame_needed = 0, uses_anonymous_args = 1
  90              	.LVL5:
  91 0000 0EB4     		push	{r1, r2, r3}
  92              		.cfi_def_cfa_offset 12
  93              		.cfi_offset 1, -12
  94              		.cfi_offset 2, -8
  95              		.cfi_offset 3, -4
  96 0002 00B5     		push	{lr}
  97              		.cfi_def_cfa_offset 16
  98              		.cfi_offset 14, -16
  99 0004 82B0     		sub	sp, sp, #8
 100              		.cfi_def_cfa_offset 24
 101              		.loc 2 73 0
 102 0006 04AB     		add	r3, sp, #16
 103              		.loc 2 74 0
 104 0008 1A46     		mov	r2, r3
 105 000a 0549     		ldr	r1, .L9
 106 000c 0548     		ldr	r0, .L9+4
 107              	.LVL6:
 108              		.loc 2 73 0
 109 000e 0193     		str	r3, [sp, #4]
 110              		.loc 2 74 0
 111 0010 FFF7FEFF 		bl	chvprintf
 112              	.LVL7:
 113              		.loc 2 78 0
ARM GAS  C:\Users\jo\AppData\Local\Temp\ccWSatz4.s 			page 3


 114 0014 02B0     		add	sp, sp, #8
 115              		.cfi_def_cfa_offset 16
 116              		@ sp needed
 117 0016 5DF804EB 		ldr	lr, [sp], #4
 118              		.cfi_restore 14
 119              		.cfi_def_cfa_offset 12
 120 001a 03B0     		add	sp, sp, #12
 121              		.cfi_restore 3
 122              		.cfi_restore 2
 123              		.cfi_restore 1
 124              		.cfi_def_cfa_offset 0
 125 001c 7047     		bx	lr
 126              	.L10:
 127 001e 00BF     		.align	2
 128              	.L9:
 129 0020 08000000 		.word	.LC1
 130 0024 00000000 		.word	.LANCHOR0
 131              		.cfi_endproc
 132              	.LFE269:
 133              		.size	chprintf.constprop.3, .-chprintf.constprop.3
 134 0028 AFF30080 		.section	.text.Debug_ITMDebugEnable,"ax",%progbits
 134      AFF30080 
 135              		.align	2
 136              		.p2align 4,,15
 137              		.global	Debug_ITMDebugEnable
 138              		.thumb
 139              		.thumb_func
 140              		.type	Debug_ITMDebugEnable, %function
 141              	Debug_ITMDebugEnable:
 142              	.LFB260:
 143              		.loc 1 42 0
 144              		.cfi_startproc
 145              		@ args = 0, pretend = 0, frame = 0
 146              		@ frame_needed = 0, uses_anonymous_args = 0
 147              		@ link register save eliminated.
 148              	.LVL8:
 149              		.loc 1 47 0
 150 0000 084A     		ldr	r2, .L19
 151              		.loc 1 49 0
 152 0002 0949     		ldr	r1, .L19+4
 153              		.loc 1 47 0
 154 0004 1368     		ldr	r3, [r2]
 155 0006 43F02703 		orr	r3, r3, #39
 156 000a 1360     		str	r3, [r2]
 157              		.loc 1 49 0
 158 000c 0B68     		ldr	r3, [r1]
 159 000e DA07     		lsls	r2, r3, #31
 160 0010 06D5     		bpl	.L11
 161              	.LBB6:
 162 0012 064B     		ldr	r3, .L19+8
 163 0014 1B68     		ldr	r3, [r3]
 164 0016 DB07     		lsls	r3, r3, #31
 165 0018 02D5     		bpl	.L11
 166              		.loc 1 50 0
 167 001a 054B     		ldr	r3, .L19+12
 168 001c 0122     		movs	r2, #1
 169 001e 1A60     		str	r2, [r3]
ARM GAS  C:\Users\jo\AppData\Local\Temp\ccWSatz4.s 			page 4


 170              	.L11:
 171 0020 7047     		bx	lr
 172              	.L20:
 173 0022 00BF     		.align	2
 174              	.L19:
 175 0024 042004E0 		.word	-536600572
 176 0028 F0ED00E0 		.word	-536810000
 177 002c 000E00E0 		.word	-536867328
 178 0030 00000000 		.word	.LANCHOR1
 179              	.LBE6:
 180              		.cfi_endproc
 181              	.LFE260:
 182              		.size	Debug_ITMDebugEnable, .-Debug_ITMDebugEnable
 183 0034 AFF30080 		.section	.text.Debug_ITMDebugOutputChar,"ax",%progbits
 183      AFF30080 
 183      AFF30080 
 184              		.align	2
 185              		.p2align 4,,15
 186              		.global	Debug_ITMDebugOutputChar
 187              		.thumb
 188              		.thumb_func
 189              		.type	Debug_ITMDebugOutputChar, %function
 190              	Debug_ITMDebugOutputChar:
 191              	.LFB261:
 192              		.loc 1 55 0
 193              		.cfi_startproc
 194              		@ args = 0, pretend = 0, frame = 0
 195              		@ frame_needed = 0, uses_anonymous_args = 0
 196              		@ link register save eliminated.
 197              	.LVL9:
 198              		.loc 1 59 0
 199 0000 074B     		ldr	r3, .L33
 200 0002 1B68     		ldr	r3, [r3]
 201 0004 5BB1     		cbz	r3, .L21
 202              		.loc 1 59 0 is_stmt 0 discriminator 1
 203 0006 074B     		ldr	r3, .L33+4
 204 0008 1B68     		ldr	r3, [r3]
 205 000a DB01     		lsls	r3, r3, #7
 206 000c 07D5     		bpl	.L21
 207              	.LBB9:
 208              	.LBB10:
 209              		.loc 1 61 0 is_stmt 1
 210 000e 4FF06041 		mov	r1, #-536870912
 211              	.L29:
 212 0012 0B68     		ldr	r3, [r1]
 213 0014 4FF06042 		mov	r2, #-536870912
 214 0018 002B     		cmp	r3, #0
 215 001a FAD0     		beq	.L29
 216              		.loc 1 62 0
 217 001c 1070     		strb	r0, [r2]
 218              	.L21:
 219 001e 7047     		bx	lr
 220              	.L34:
 221              		.align	2
 222              	.L33:
 223 0020 00000000 		.word	.LANCHOR1
 224 0024 FCED00E0 		.word	-536809988
ARM GAS  C:\Users\jo\AppData\Local\Temp\ccWSatz4.s 			page 5


 225              	.LBE10:
 226              	.LBE9:
 227              		.cfi_endproc
 228              	.LFE261:
 229              		.size	Debug_ITMDebugOutputChar, .-Debug_ITMDebugOutputChar
 230 0028 AFF30080 		.section	.text.Debug_ITMDebugOutputString,"ax",%progbits
 230      AFF30080 
 231              		.align	2
 232              		.p2align 4,,15
 233              		.global	Debug_ITMDebugOutputString
 234              		.thumb
 235              		.thumb_func
 236              		.type	Debug_ITMDebugOutputString, %function
 237              	Debug_ITMDebugOutputString:
 238              	.LFB262:
 239              		.loc 1 68 0
 240              		.cfi_startproc
 241              		@ args = 0, pretend = 0, frame = 0
 242              		@ frame_needed = 0, uses_anonymous_args = 0
 243              	.LVL10:
 244              		.loc 1 69 0
 245 0000 074B     		ldr	r3, .L45
 246 0002 1B68     		ldr	r3, [r3]
 247 0004 53B1     		cbz	r3, .L44
 248              	.LVL11:
 249              		.loc 1 68 0
 250 0006 10B5     		push	{r4, lr}
 251              		.cfi_def_cfa_offset 8
 252              		.cfi_offset 4, -8
 253              		.cfi_offset 14, -4
 254 0008 0446     		mov	r4, r0
 255              	.LBB13:
 256              	.LBB14:
 257              		.loc 1 70 0
 258 000a 0078     		ldrb	r0, [r0]	@ zero_extendqisi2
 259              	.LVL12:
 260 000c 28B1     		cbz	r0, .L35
 261              	.LVL13:
 262              	.L38:
 263              		.loc 1 71 0
 264 000e FFF7FEFF 		bl	Debug_ITMDebugOutputChar
 265              	.LVL14:
 266              		.loc 1 70 0
 267 0012 14F8010F 		ldrb	r0, [r4, #1]!	@ zero_extendqisi2
 268              	.LVL15:
 269 0016 0028     		cmp	r0, #0
 270 0018 F9D1     		bne	.L38
 271              	.LVL16:
 272              	.L35:
 273 001a 10BD     		pop	{r4, pc}
 274              	.LVL17:
 275              	.L44:
 276              		.cfi_def_cfa_offset 0
 277              		.cfi_restore 4
 278              		.cfi_restore 14
 279 001c 7047     		bx	lr
 280              	.L46:
ARM GAS  C:\Users\jo\AppData\Local\Temp\ccWSatz4.s 			page 6


 281 001e 00BF     		.align	2
 282              	.L45:
 283 0020 00000000 		.word	.LANCHOR1
 284              	.LBE14:
 285              	.LBE13:
 286              		.cfi_endproc
 287              	.LFE262:
 288              		.size	Debug_ITMDebugOutputString, .-Debug_ITMDebugOutputString
 289 0024 AFF30080 		.section	.text.__io_putchar,"ax",%progbits
 289      AFF30080 
 289      AFF30080 
 290              		.align	2
 291              		.p2align 4,,15
 292              		.global	__io_putchar
 293              		.thumb
 294              		.thumb_func
 295              		.type	__io_putchar, %function
 296              	__io_putchar:
 297              	.LFB263:
 298              		.loc 1 81 0
 299              		.cfi_startproc
 300              		@ args = 0, pretend = 0, frame = 0
 301              		@ frame_needed = 0, uses_anonymous_args = 0
 302              	.LVL18:
 303 0000 10B5     		push	{r4, lr}
 304              		.cfi_def_cfa_offset 8
 305              		.cfi_offset 4, -8
 306              		.cfi_offset 14, -4
 307              		.loc 1 81 0
 308 0002 0446     		mov	r4, r0
 309              		.loc 1 85 0
 310 0004 C0B2     		uxtb	r0, r0
 311              	.LVL19:
 312 0006 FFF7FEFF 		bl	Debug_ITMDebugOutputChar
 313              	.LVL20:
 314              		.loc 1 88 0
 315 000a 2046     		mov	r0, r4
 316 000c 10BD     		pop	{r4, pc}
 317              		.cfi_endproc
 318              	.LFE263:
 319              		.size	__io_putchar, .-__io_putchar
 320 000e 00BF     		.section	.text.startup.main,"ax",%progbits
 321              		.align	2
 322              		.p2align 4,,15
 323              		.global	main
 324              		.thumb
 325              		.thumb_func
 326              		.type	main, %function
 327              	main:
 328              	.LFB265:
 329              		.loc 1 141 0
 330              		.cfi_startproc
 331              		@ Volatile: function does not return.
 332              		@ args = 0, pretend = 0, frame = 0
 333              		@ frame_needed = 0, uses_anonymous_args = 0
 334 0000 00B5     		push	{lr}
 335              		.cfi_def_cfa_offset 4
ARM GAS  C:\Users\jo\AppData\Local\Temp\ccWSatz4.s 			page 7


 336              		.cfi_offset 14, -4
 337 0002 83B0     		sub	sp, sp, #12
 338              		.cfi_def_cfa_offset 16
 339              		.loc 1 143 0
 340 0004 FFF7FEFF 		bl	Debug_ITMDebugEnable
 341              	.LVL21:
 342              	.LBB19:
 343              	.LBB20:
 344              		.loc 1 69 0
 345 0008 214B     		ldr	r3, .L60
 346 000a 1B68     		ldr	r3, [r3]
 347 000c 002B     		cmp	r3, #0
 348 000e 35D1     		bne	.L54
 349              	.L52:
 350              	.LBE20:
 351              	.LBE19:
 352              		.loc 1 146 0
 353 0010 2048     		ldr	r0, .L60+4
 354              		.loc 1 223 0
 355 0012 214C     		ldr	r4, .L60+8
 356              		.loc 1 146 0
 357 0014 FFF7FEFF 		bl	itmObjectInit
 358              	.LVL22:
 359              		.loc 1 194 0
 360 0018 0025     		movs	r5, #0
 361              		.loc 1 148 0
 362 001a 204A     		ldr	r2, .L60+12
 363 001c 2049     		ldr	r1, .L60+16
 364 001e 1D48     		ldr	r0, .L60+4
 365 0020 FFF7FEFF 		bl	chprintf.constprop.3
 366              	.LVL23:
 367              		.loc 1 159 0
 368 0024 FFF7FEFF 		bl	halInit
 369              	.LVL24:
 370              		.loc 1 160 0
 371 0028 FFF7FEFF 		bl	chSysInit
 372              	.LVL25:
 373              		.loc 1 189 0
 374 002c 2946     		mov	r1, r5
 375 002e 1D48     		ldr	r0, .L60+20
 376 0030 FFF7FEFF 		bl	sdStart
 377              	.LVL26:
 378              		.loc 1 194 0
 379 0034 0095     		str	r5, [sp]
 380 0036 1C4B     		ldr	r3, .L60+24
 381 0038 1C48     		ldr	r0, .L60+28
 382 003a 4FF4A871 		mov	r1, #336
 383 003e 4022     		movs	r2, #64
 384 0040 FFF7FEFF 		bl	chThdCreateStatic
 385              	.LVL27:
 386              		.loc 1 209 0
 387 0044 0095     		str	r5, [sp]
 388 0046 1A4B     		ldr	r3, .L60+32
 389 0048 1A48     		ldr	r0, .L60+36
 390 004a 4FF44471 		mov	r1, #784
 391 004e 4122     		movs	r2, #65
 392 0050 FFF7FEFF 		bl	chThdCreateStatic
ARM GAS  C:\Users\jo\AppData\Local\Temp\ccWSatz4.s 			page 8


 393              	.LVL28:
 394              		.loc 1 215 0
 395 0054 0095     		str	r5, [sp]
 396 0056 184B     		ldr	r3, .L60+40
 397 0058 1848     		ldr	r0, .L60+44
 398 005a 41F6D061 		movw	r1, #7888
 399 005e 4122     		movs	r2, #65
 400 0060 FFF7FEFF 		bl	chThdCreateStatic
 401              	.LVL29:
 402 0064 03E0     		b	.L51
 403              	.L53:
 404              		.loc 1 228 0
 405 0066 4CF25030 		movw	r0, #50000
 406 006a FFF7FEFF 		bl	chThdSleep
 407              	.LVL30:
 408              	.L51:
 409              		.loc 1 223 0
 410 006e 2369     		ldr	r3, [r4, #16]
 411 0070 DB07     		lsls	r3, r3, #31
 412 0072 F8D5     		bpl	.L53
 413              		.loc 1 224 0
 414 0074 0B48     		ldr	r0, .L60+20
 415 0076 FFF7FEFF 		bl	TestThread
 416              	.LVL31:
 417 007a F4E7     		b	.L53
 418              	.L54:
 419              	.LBB24:
 420              	.LBB23:
 421              		.loc 1 69 0
 422 007c 104C     		ldr	r4, .L60+48
 423 007e 5320     		movs	r0, #83
 424              	.L50:
 425              	.LVL32:
 426              	.LBB21:
 427              	.LBB22:
 428              		.loc 1 71 0
 429 0080 FFF7FEFF 		bl	Debug_ITMDebugOutputChar
 430              	.LVL33:
 431              		.loc 1 70 0
 432 0084 14F8010F 		ldrb	r0, [r4, #1]!	@ zero_extendqisi2
 433              	.LVL34:
 434 0088 0028     		cmp	r0, #0
 435 008a F9D1     		bne	.L50
 436 008c C0E7     		b	.L52
 437              	.L61:
 438 008e 00BF     		.align	2
 439              	.L60:
 440 0090 00000000 		.word	.LANCHOR1
 441 0094 00000000 		.word	.LANCHOR0
 442 0098 00000240 		.word	1073872896
 443 009c 1C000000 		.word	.LC3
 444 00a0 08000000 		.word	.LC1
 445 00a4 00000000 		.word	SD6
 446 00a8 00000000 		.word	Thread1
 447 00ac 00000000 		.word	.LANCHOR2
 448 00b0 00000000 		.word	lwip_thread
 449 00b4 00000000 		.word	wa_lwip_thread
ARM GAS  C:\Users\jo\AppData\Local\Temp\ccWSatz4.s 			page 9


 450 00b8 00000000 		.word	HttpTask
 451 00bc 00000000 		.word	task_http_stack
 452 00c0 0C000000 		.word	.LC2
 453              	.LBE22:
 454              	.LBE21:
 455              	.LBE23:
 456              	.LBE24:
 457              		.cfi_endproc
 458              	.LFE265:
 459              		.size	main, .-main
 460              		.global	itm_port
 461 00c4 AFF30080 		.section	.bss.waThread1,"aw",%nobits
 461      AFF30080 
 461      AFF30080 
 462              		.align	3
 463              		.set	.LANCHOR2,. + 0
 464              		.type	waThread1, %object
 465              		.size	waThread1, 336
 466              	waThread1:
 467 0000 00000000 		.space	336
 467      00000000 
 467      00000000 
 467      00000000 
 467      00000000 
 468              		.section	.bss.Debug_ITMDebug,"aw",%nobits
 469              		.align	2
 470              		.set	.LANCHOR1,. + 0
 471              		.type	Debug_ITMDebug, %object
 472              		.size	Debug_ITMDebug, 4
 473              	Debug_ITMDebug:
 474 0000 00000000 		.space	4
 475              		.section	.bss.itm_port,"aw",%nobits
 476              		.align	2
 477              		.set	.LANCHOR0,. + 0
 478              		.type	itm_port, %object
 479              		.size	itm_port, 4
 480              	itm_port:
 481 0000 00000000 		.space	4
 482              		.section	.rodata.str1.4,"aMS",%progbits,1
 483              		.align	2
 484              	.LC0:
 485 0000 626C696E 		.ascii	"blinker\000"
 485      6B657200 
 486              	.LC1:
 487 0008 257300   		.ascii	"%s\000"
 488 000b 00       		.space	1
 489              	.LC2:
 490 000c 53575620 		.ascii	"SWV Enabled\012\000"
 490      456E6162 
 490      6C65640A 
 490      00
 491 0019 000000   		.space	3
 492              	.LC3:
 493 001c 43686962 		.ascii	"ChibiOS V3.0\012\000"
 493      694F5320 
 493      56332E30 
 493      0A00
ARM GAS  C:\Users\jo\AppData\Local\Temp\ccWSatz4.s 			page 10


 494 002a 0000     		.text
 495              	.Letext0:
 496              		.file 3 "c:\\program files\\gnu tools arm embedded\\4.9 2014q4\\lib\\gcc\\arm-none-eabi\\4.9.3\\in
 497              		.file 4 "c:\\program files\\gnu tools arm embedded\\4.9 2014q4\\arm-none-eabi\\include\\machine\\_
 498              		.file 5 "c:\\program files\\gnu tools arm embedded\\4.9 2014q4\\arm-none-eabi\\include\\stdint.h"
 499              		.file 6 "../../../os/rt/ports/ARMCMx/compilers/GCC/chtypes.h"
 500              		.file 7 "../../../os/rt/include/chsystypes.h"
 501              		.file 8 "../../../os/rt/include/chschd.h"
 502              		.file 9 "../../../os/ext/CMSIS/ST/stm32f407xx.h"
 503              		.file 10 "../../../os/rt/ports/ARMCMx/chcore.h"
 504              		.file 11 "../../../os/rt/ports/ARMCMx/chcore_v7m.h"
 505              		.file 12 "../../../os/rt/include/chdebug.h"
 506              		.file 13 "../../../os/rt/include/chtm.h"
 507              		.file 14 "../../../os/rt/include/chsem.h"
 508              		.file 15 "../../../os/rt/include/chmtx.h"
 509              		.file 16 "../../../os/rt/include/chthreads.h"
 510              		.file 17 "../../../os/rt/include/chevents.h"
 511              		.file 18 "../../../os/rt/include/chqueues.h"
 512              		.file 19 "../../../os/rt/include/chstreams.h"
 513              		.file 20 "../../../os/hal/ports/STM32/LLD/GPIOv2/pal_lld.h"
 514              		.file 21 "../../../os/hal/include/serial.h"
 515              		.file 22 "../../../os/hal/ports/STM32/LLD/USARTv1/serial_lld.h"
 516              		.file 23 "ITM_trace.h"
 517              		.file 24 "c:\\program files\\gnu tools arm embedded\\4.9 2014q4\\lib\\gcc\\arm-none-eabi\\4.9.3\\i
 518              		.file 25 "<built-in>"
 519              		.file 26 "../../../ext/lwip/src/include/lwip/memp.h"
 520              		.file 27 "../../../os/ext/CMSIS/include/core_cm4.h"
 521              		.file 28 "../../../os/various/lwip_bindings/lwipthread.h"
 522              		.file 29 "../../../demos/STM32/RT-STM32F407-DISCOVERY-uHttp/uhttp-1.1/uhttpd.h"
 523              		.file 30 "../../../ext/lwip/src/include/lwip/stats.h"
 524              		.file 31 "../../../os/hal/include/hal.h"
 525              		.file 32 "../../../os/rt/include/chsys.h"
 526              		.file 33 "../../../test/rt/test.h"
 527              		.section	.debug_info,"",%progbits
 528              	.Ldebug_info0:
 529 0000 CF120000 		.4byte	0x12cf
 530 0004 0400     		.2byte	0x4
 531 0006 00000000 		.4byte	.Ldebug_abbrev0
 532 000a 04       		.byte	0x4
 533 000b 01       		.uleb128 0x1
 534 000c 58080000 		.4byte	.LASF223
 535 0010 01       		.byte	0x1
 536 0011 C8040000 		.4byte	.LASF224
 537 0015 FA090000 		.4byte	.LASF225
 538 0019 18000000 		.4byte	.Ldebug_ranges0+0x18
 539 001d 00000000 		.4byte	0
 540 0021 00000000 		.4byte	.Ldebug_line0
 541 0025 02       		.uleb128 0x2
 542 0026 04       		.byte	0x4
 543 0027 05       		.byte	0x5
 544 0028 696E7400 		.ascii	"int\000"
 545 002c 03       		.uleb128 0x3
 546 002d 00000000 		.4byte	.LASF2
 547 0031 03       		.byte	0x3
 548 0032 D4       		.byte	0xd4
 549 0033 37000000 		.4byte	0x37
 550 0037 04       		.uleb128 0x4
ARM GAS  C:\Users\jo\AppData\Local\Temp\ccWSatz4.s 			page 11


 551 0038 04       		.byte	0x4
 552 0039 07       		.byte	0x7
 553 003a 68050000 		.4byte	.LASF0
 554 003e 04       		.uleb128 0x4
 555 003f 01       		.byte	0x1
 556 0040 06       		.byte	0x6
 557 0041 D1010000 		.4byte	.LASF1
 558 0045 03       		.uleb128 0x3
 559 0046 26010000 		.4byte	.LASF3
 560 004a 04       		.byte	0x4
 561 004b 1D       		.byte	0x1d
 562 004c 50000000 		.4byte	0x50
 563 0050 04       		.uleb128 0x4
 564 0051 01       		.byte	0x1
 565 0052 08       		.byte	0x8
 566 0053 06020000 		.4byte	.LASF4
 567 0057 04       		.uleb128 0x4
 568 0058 02       		.byte	0x2
 569 0059 05       		.byte	0x5
 570 005a C8070000 		.4byte	.LASF5
 571 005e 03       		.uleb128 0x3
 572 005f 97020000 		.4byte	.LASF6
 573 0063 04       		.byte	0x4
 574 0064 2B       		.byte	0x2b
 575 0065 69000000 		.4byte	0x69
 576 0069 04       		.uleb128 0x4
 577 006a 02       		.byte	0x2
 578 006b 07       		.byte	0x7
 579 006c 92090000 		.4byte	.LASF7
 580 0070 03       		.uleb128 0x3
 581 0071 CB090000 		.4byte	.LASF8
 582 0075 04       		.byte	0x4
 583 0076 3F       		.byte	0x3f
 584 0077 7B000000 		.4byte	0x7b
 585 007b 04       		.uleb128 0x4
 586 007c 04       		.byte	0x4
 587 007d 05       		.byte	0x5
 588 007e 5C010000 		.4byte	.LASF9
 589 0082 03       		.uleb128 0x3
 590 0083 75040000 		.4byte	.LASF10
 591 0087 04       		.byte	0x4
 592 0088 41       		.byte	0x41
 593 0089 8D000000 		.4byte	0x8d
 594 008d 04       		.uleb128 0x4
 595 008e 04       		.byte	0x4
 596 008f 07       		.byte	0x7
 597 0090 97030000 		.4byte	.LASF11
 598 0094 04       		.uleb128 0x4
 599 0095 08       		.byte	0x8
 600 0096 05       		.byte	0x5
 601 0097 88040000 		.4byte	.LASF12
 602 009b 03       		.uleb128 0x3
 603 009c 8C030000 		.4byte	.LASF13
 604 00a0 04       		.byte	0x4
 605 00a1 5B       		.byte	0x5b
 606 00a2 A6000000 		.4byte	0xa6
 607 00a6 04       		.uleb128 0x4
ARM GAS  C:\Users\jo\AppData\Local\Temp\ccWSatz4.s 			page 12


 608 00a7 08       		.byte	0x8
 609 00a8 07       		.byte	0x7
 610 00a9 61060000 		.4byte	.LASF14
 611 00ad 03       		.uleb128 0x3
 612 00ae E4010000 		.4byte	.LASF15
 613 00b2 05       		.byte	0x5
 614 00b3 15       		.byte	0x15
 615 00b4 45000000 		.4byte	0x45
 616 00b8 03       		.uleb128 0x3
 617 00b9 9A060000 		.4byte	.LASF16
 618 00bd 05       		.byte	0x5
 619 00be 21       		.byte	0x21
 620 00bf 5E000000 		.4byte	0x5e
 621 00c3 03       		.uleb128 0x3
 622 00c4 40000000 		.4byte	.LASF17
 623 00c8 05       		.byte	0x5
 624 00c9 2C       		.byte	0x2c
 625 00ca 70000000 		.4byte	0x70
 626 00ce 03       		.uleb128 0x3
 627 00cf 46090000 		.4byte	.LASF18
 628 00d3 05       		.byte	0x5
 629 00d4 2D       		.byte	0x2d
 630 00d5 82000000 		.4byte	0x82
 631 00d9 03       		.uleb128 0x3
 632 00da DF070000 		.4byte	.LASF19
 633 00de 05       		.byte	0x5
 634 00df 39       		.byte	0x39
 635 00e0 9B000000 		.4byte	0x9b
 636 00e4 05       		.uleb128 0x5
 637 00e5 C3000000 		.4byte	0xc3
 638 00e9 05       		.uleb128 0x5
 639 00ea CE000000 		.4byte	0xce
 640 00ee 03       		.uleb128 0x3
 641 00ef 75050000 		.4byte	.LASF20
 642 00f3 06       		.byte	0x6
 643 00f4 45       		.byte	0x45
 644 00f5 CE000000 		.4byte	0xce
 645 00f9 03       		.uleb128 0x3
 646 00fa 48070000 		.4byte	.LASF21
 647 00fe 06       		.byte	0x6
 648 00ff 48       		.byte	0x48
 649 0100 AD000000 		.4byte	0xad
 650 0104 03       		.uleb128 0x3
 651 0105 7B010000 		.4byte	.LASF22
 652 0109 06       		.byte	0x6
 653 010a 49       		.byte	0x49
 654 010b AD000000 		.4byte	0xad
 655 010f 03       		.uleb128 0x3
 656 0110 41080000 		.4byte	.LASF23
 657 0114 06       		.byte	0x6
 658 0115 4A       		.byte	0x4a
 659 0116 AD000000 		.4byte	0xad
 660 011a 03       		.uleb128 0x3
 661 011b 27000000 		.4byte	.LASF24
 662 011f 06       		.byte	0x6
 663 0120 4C       		.byte	0x4c
 664 0121 CE000000 		.4byte	0xce
ARM GAS  C:\Users\jo\AppData\Local\Temp\ccWSatz4.s 			page 13


 665 0125 03       		.uleb128 0x3
 666 0126 A3060000 		.4byte	.LASF25
 667 012a 06       		.byte	0x6
 668 012b 4D       		.byte	0x4d
 669 012c C3000000 		.4byte	0xc3
 670 0130 03       		.uleb128 0x3
 671 0131 EC010000 		.4byte	.LASF26
 672 0135 06       		.byte	0x6
 673 0136 4F       		.byte	0x4f
 674 0137 CE000000 		.4byte	0xce
 675 013b 03       		.uleb128 0x3
 676 013c BA060000 		.4byte	.LASF27
 677 0140 06       		.byte	0x6
 678 0141 50       		.byte	0x50
 679 0142 CE000000 		.4byte	0xce
 680 0146 03       		.uleb128 0x3
 681 0147 E5020000 		.4byte	.LASF28
 682 014b 06       		.byte	0x6
 683 014c 51       		.byte	0x51
 684 014d C3000000 		.4byte	0xc3
 685 0151 03       		.uleb128 0x3
 686 0152 17000000 		.4byte	.LASF29
 687 0156 07       		.byte	0x7
 688 0157 33       		.byte	0x33
 689 0158 CE000000 		.4byte	0xce
 690 015c 03       		.uleb128 0x3
 691 015d C0050000 		.4byte	.LASF30
 692 0161 07       		.byte	0x7
 693 0162 3F       		.byte	0x3f
 694 0163 67010000 		.4byte	0x167
 695 0167 06       		.uleb128 0x6
 696 0168 D5030000 		.4byte	.LASF51
 697 016c 48       		.byte	0x48
 698 016d 08       		.byte	0x8
 699 016e C2       		.byte	0xc2
 700 016f 60020000 		.4byte	0x260
 701 0173 07       		.uleb128 0x7
 702 0174 65010000 		.4byte	.LASF31
 703 0178 08       		.byte	0x8
 704 0179 C3       		.byte	0xc3
 705 017a 6B020000 		.4byte	0x26b
 706 017e 00       		.byte	0
 707 017f 07       		.uleb128 0x7
 708 0180 74010000 		.4byte	.LASF32
 709 0184 08       		.byte	0x8
 710 0185 C5       		.byte	0xc5
 711 0186 6B020000 		.4byte	0x26b
 712 018a 04       		.byte	0x4
 713 018b 07       		.uleb128 0x7
 714 018c 90020000 		.4byte	.LASF33
 715 0190 08       		.byte	0x8
 716 0191 C7       		.byte	0xc7
 717 0192 1A010000 		.4byte	0x11a
 718 0196 08       		.byte	0x8
 719 0197 07       		.uleb128 0x7
 720 0198 21000000 		.4byte	.LASF34
 721 019c 08       		.byte	0x8
ARM GAS  C:\Users\jo\AppData\Local\Temp\ccWSatz4.s 			page 14


 722 019d C8       		.byte	0xc8
 723 019e 35050000 		.4byte	0x535
 724 01a2 0C       		.byte	0xc
 725 01a3 07       		.uleb128 0x7
 726 01a4 54010000 		.4byte	.LASF35
 727 01a8 08       		.byte	0x8
 728 01a9 CA       		.byte	0xca
 729 01aa 6B020000 		.4byte	0x26b
 730 01ae 10       		.byte	0x10
 731 01af 07       		.uleb128 0x7
 732 01b0 85060000 		.4byte	.LASF36
 733 01b4 08       		.byte	0x8
 734 01b5 CB       		.byte	0xcb
 735 01b6 6B020000 		.4byte	0x26b
 736 01ba 14       		.byte	0x14
 737 01bb 07       		.uleb128 0x7
 738 01bc E5090000 		.4byte	.LASF37
 739 01c0 08       		.byte	0x8
 740 01c1 D2       		.byte	0xd2
 741 01c2 47070000 		.4byte	0x747
 742 01c6 18       		.byte	0x18
 743 01c7 07       		.uleb128 0x7
 744 01c8 C0090000 		.4byte	.LASF38
 745 01cc 08       		.byte	0x8
 746 01cd D8       		.byte	0xd8
 747 01ce 59070000 		.4byte	0x759
 748 01d2 1C       		.byte	0x1c
 749 01d3 07       		.uleb128 0x7
 750 01d4 780A0000 		.4byte	.LASF39
 751 01d8 08       		.byte	0x8
 752 01d9 DD       		.byte	0xdd
 753 01da 04010000 		.4byte	0x104
 754 01de 20       		.byte	0x20
 755 01df 07       		.uleb128 0x7
 756 01e0 4C050000 		.4byte	.LASF40
 757 01e4 08       		.byte	0x8
 758 01e5 E1       		.byte	0xe1
 759 01e6 F9000000 		.4byte	0xf9
 760 01ea 21       		.byte	0x21
 761 01eb 07       		.uleb128 0x7
 762 01ec 85050000 		.4byte	.LASF41
 763 01f0 08       		.byte	0x8
 764 01f1 E6       		.byte	0xe6
 765 01f2 0F010000 		.4byte	0x10f
 766 01f6 22       		.byte	0x22
 767 01f7 08       		.uleb128 0x8
 768 01f8 705F7500 		.ascii	"p_u\000"
 769 01fc 08       		.byte	0x8
 770 01fd 3101     		.2byte	0x131
 771 01ff 82060000 		.4byte	0x682
 772 0203 24       		.byte	0x24
 773 0204 09       		.uleb128 0x9
 774 0205 32050000 		.4byte	.LASF42
 775 0209 08       		.byte	0x8
 776 020a 3601     		.2byte	0x136
 777 020c 71020000 		.4byte	0x271
 778 0210 28       		.byte	0x28
ARM GAS  C:\Users\jo\AppData\Local\Temp\ccWSatz4.s 			page 15


 779 0211 09       		.uleb128 0x9
 780 0212 2F000000 		.4byte	.LASF43
 781 0216 08       		.byte	0x8
 782 0217 3C01     		.2byte	0x13c
 783 0219 95020000 		.4byte	0x295
 784 021d 2C       		.byte	0x2c
 785 021e 09       		.uleb128 0x9
 786 021f 660A0000 		.4byte	.LASF44
 787 0223 08       		.byte	0x8
 788 0224 4001     		.2byte	0x140
 789 0226 25010000 		.4byte	0x125
 790 022a 34       		.byte	0x34
 791 022b 09       		.uleb128 0x9
 792 022c 36030000 		.4byte	.LASF45
 793 0230 08       		.byte	0x8
 794 0231 4601     		.2byte	0x146
 795 0233 30010000 		.4byte	0x130
 796 0237 38       		.byte	0x38
 797 0238 09       		.uleb128 0x9
 798 0239 99010000 		.4byte	.LASF46
 799 023d 08       		.byte	0x8
 800 023e 4D01     		.2byte	0x14d
 801 0240 41070000 		.4byte	0x741
 802 0244 3C       		.byte	0x3c
 803 0245 09       		.uleb128 0x9
 804 0246 DC050000 		.4byte	.LASF47
 805 024a 08       		.byte	0x8
 806 024b 5101     		.2byte	0x151
 807 024d 1A010000 		.4byte	0x11a
 808 0251 40       		.byte	0x40
 809 0252 09       		.uleb128 0x9
 810 0253 7D050000 		.4byte	.LASF48
 811 0257 08       		.byte	0x8
 812 0258 5801     		.2byte	0x158
 813 025a 48030000 		.4byte	0x348
 814 025e 44       		.byte	0x44
 815 025f 00       		.byte	0
 816 0260 03       		.uleb128 0x3
 817 0261 C9050000 		.4byte	.LASF49
 818 0265 07       		.byte	0x7
 819 0266 44       		.byte	0x44
 820 0267 6B020000 		.4byte	0x26b
 821 026b 0A       		.uleb128 0xa
 822 026c 04       		.byte	0x4
 823 026d 5C010000 		.4byte	0x15c
 824 0271 03       		.uleb128 0x3
 825 0272 49080000 		.4byte	.LASF50
 826 0276 07       		.byte	0x7
 827 0277 49       		.byte	0x49
 828 0278 7C020000 		.4byte	0x27c
 829 027c 06       		.uleb128 0x6
 830 027d 4E040000 		.4byte	.LASF52
 831 0281 04       		.byte	0x4
 832 0282 08       		.byte	0x8
 833 0283 B0       		.byte	0xb0
 834 0284 95020000 		.4byte	0x295
 835 0288 07       		.uleb128 0x7
ARM GAS  C:\Users\jo\AppData\Local\Temp\ccWSatz4.s 			page 16


 836 0289 65010000 		.4byte	.LASF31
 837 028d 08       		.byte	0x8
 838 028e B1       		.byte	0xb1
 839 028f 6B020000 		.4byte	0x26b
 840 0293 00       		.byte	0
 841 0294 00       		.byte	0
 842 0295 03       		.uleb128 0x3
 843 0296 89010000 		.4byte	.LASF53
 844 029a 07       		.byte	0x7
 845 029b 50       		.byte	0x50
 846 029c A0020000 		.4byte	0x2a0
 847 02a0 06       		.uleb128 0x6
 848 02a1 A9060000 		.4byte	.LASF54
 849 02a5 08       		.byte	0x8
 850 02a6 08       		.byte	0x8
 851 02a7 B7       		.byte	0xb7
 852 02a8 C5020000 		.4byte	0x2c5
 853 02ac 07       		.uleb128 0x7
 854 02ad 65010000 		.4byte	.LASF31
 855 02b1 08       		.byte	0x8
 856 02b2 B8       		.byte	0xb8
 857 02b3 6B020000 		.4byte	0x26b
 858 02b7 00       		.byte	0
 859 02b8 07       		.uleb128 0x7
 860 02b9 74010000 		.4byte	.LASF32
 861 02bd 08       		.byte	0x8
 862 02be B9       		.byte	0xb9
 863 02bf 6B020000 		.4byte	0x26b
 864 02c3 04       		.byte	0x4
 865 02c4 00       		.byte	0
 866 02c5 03       		.uleb128 0x3
 867 02c6 1A040000 		.4byte	.LASF55
 868 02ca 07       		.byte	0x7
 869 02cb 57       		.byte	0x57
 870 02cc D0020000 		.4byte	0x2d0
 871 02d0 0B       		.uleb128 0xb
 872 02d1 55030000 		.4byte	.LASF56
 873 02d5 1C       		.byte	0x1c
 874 02d6 08       		.byte	0x8
 875 02d7 9001     		.2byte	0x190
 876 02d9 2C030000 		.4byte	0x32c
 877 02dd 09       		.uleb128 0x9
 878 02de FB060000 		.4byte	.LASF57
 879 02e2 08       		.byte	0x8
 880 02e3 9101     		.2byte	0x191
 881 02e5 95020000 		.4byte	0x295
 882 02e9 00       		.byte	0
 883 02ea 09       		.uleb128 0x9
 884 02eb F8070000 		.4byte	.LASF58
 885 02ef 08       		.byte	0x8
 886 02f0 9201     		.2byte	0x192
 887 02f2 1A010000 		.4byte	0x11a
 888 02f6 08       		.byte	0x8
 889 02f7 09       		.uleb128 0x9
 890 02f8 3A000000 		.4byte	.LASF59
 891 02fc 08       		.byte	0x8
 892 02fd 9401     		.2byte	0x194
ARM GAS  C:\Users\jo\AppData\Local\Temp\ccWSatz4.s 			page 17


 893 02ff 35050000 		.4byte	0x535
 894 0303 0C       		.byte	0xc
 895 0304 09       		.uleb128 0x9
 896 0305 49020000 		.4byte	.LASF60
 897 0309 08       		.byte	0x8
 898 030a 9701     		.2byte	0x197
 899 030c 6B020000 		.4byte	0x26b
 900 0310 10       		.byte	0x10
 901 0311 09       		.uleb128 0x9
 902 0312 93070000 		.4byte	.LASF61
 903 0316 08       		.byte	0x8
 904 0317 9801     		.2byte	0x198
 905 0319 6B020000 		.4byte	0x26b
 906 031d 14       		.byte	0x14
 907 031e 09       		.uleb128 0x9
 908 031f DC060000 		.4byte	.LASF62
 909 0323 08       		.byte	0x8
 910 0324 9B01     		.2byte	0x19b
 911 0326 6B020000 		.4byte	0x26b
 912 032a 18       		.byte	0x18
 913 032b 00       		.byte	0
 914 032c 03       		.uleb128 0x3
 915 032d 5C000000 		.4byte	.LASF63
 916 0331 07       		.byte	0x7
 917 0332 5C       		.byte	0x5c
 918 0333 37030000 		.4byte	0x337
 919 0337 0A       		.uleb128 0xa
 920 0338 04       		.byte	0x4
 921 0339 3D030000 		.4byte	0x33d
 922 033d 0C       		.uleb128 0xc
 923 033e 48030000 		.4byte	0x348
 924 0342 0D       		.uleb128 0xd
 925 0343 48030000 		.4byte	0x348
 926 0347 00       		.byte	0
 927 0348 0E       		.uleb128 0xe
 928 0349 04       		.byte	0x4
 929 034a 03       		.uleb128 0x3
 930 034b 0A040000 		.4byte	.LASF64
 931 034f 07       		.byte	0x7
 932 0350 61       		.byte	0x61
 933 0351 55030000 		.4byte	0x355
 934 0355 0B       		.uleb128 0xb
 935 0356 15060000 		.4byte	.LASF65
 936 035a 14       		.byte	0x14
 937 035b 08       		.byte	0x8
 938 035c 6B01     		.2byte	0x16b
 939 035e A4030000 		.4byte	0x3a4
 940 0362 09       		.uleb128 0x9
 941 0363 A6040000 		.4byte	.LASF66
 942 0367 08       		.byte	0x8
 943 0368 6C01     		.2byte	0x16c
 944 036a 5F070000 		.4byte	0x75f
 945 036e 00       		.byte	0
 946 036f 09       		.uleb128 0x9
 947 0370 C0040000 		.4byte	.LASF67
 948 0374 08       		.byte	0x8
 949 0375 6D01     		.2byte	0x16d
ARM GAS  C:\Users\jo\AppData\Local\Temp\ccWSatz4.s 			page 18


 950 0377 5F070000 		.4byte	0x75f
 951 037b 04       		.byte	0x4
 952 037c 09       		.uleb128 0x9
 953 037d FD050000 		.4byte	.LASF68
 954 0381 08       		.byte	0x8
 955 0382 6E01     		.2byte	0x16e
 956 0384 51010000 		.4byte	0x151
 957 0388 08       		.byte	0x8
 958 0389 09       		.uleb128 0x9
 959 038a 09030000 		.4byte	.LASF69
 960 038e 08       		.byte	0x8
 961 038f 6F01     		.2byte	0x16f
 962 0391 2C030000 		.4byte	0x32c
 963 0395 0C       		.byte	0xc
 964 0396 09       		.uleb128 0x9
 965 0397 16010000 		.4byte	.LASF70
 966 039b 08       		.byte	0x8
 967 039c 7101     		.2byte	0x171
 968 039e 48030000 		.4byte	0x348
 969 03a2 10       		.byte	0x10
 970 03a3 00       		.byte	0
 971 03a4 03       		.uleb128 0x3
 972 03a5 E4030000 		.4byte	.LASF71
 973 03a9 07       		.byte	0x7
 974 03aa 66       		.byte	0x66
 975 03ab AF030000 		.4byte	0x3af
 976 03af 0B       		.uleb128 0xb
 977 03b0 65000000 		.4byte	.LASF72
 978 03b4 10       		.byte	0x10
 979 03b5 08       		.byte	0x8
 980 03b6 7B01     		.2byte	0x17b
 981 03b8 F1030000 		.4byte	0x3f1
 982 03bc 09       		.uleb128 0x9
 983 03bd A6040000 		.4byte	.LASF66
 984 03c1 08       		.byte	0x8
 985 03c2 7C01     		.2byte	0x17c
 986 03c4 5F070000 		.4byte	0x75f
 987 03c8 00       		.byte	0
 988 03c9 09       		.uleb128 0x9
 989 03ca C0040000 		.4byte	.LASF67
 990 03ce 08       		.byte	0x8
 991 03cf 7E01     		.2byte	0x17e
 992 03d1 5F070000 		.4byte	0x75f
 993 03d5 04       		.byte	0x4
 994 03d6 09       		.uleb128 0x9
 995 03d7 FD050000 		.4byte	.LASF68
 996 03db 08       		.byte	0x8
 997 03dc 8001     		.2byte	0x180
 998 03de 51010000 		.4byte	0x151
 999 03e2 08       		.byte	0x8
 1000 03e3 09       		.uleb128 0x9
 1001 03e4 86090000 		.4byte	.LASF73
 1002 03e8 08       		.byte	0x8
 1003 03e9 8801     		.2byte	0x188
 1004 03eb 51010000 		.4byte	0x151
 1005 03ef 0C       		.byte	0xc
 1006 03f0 00       		.byte	0
ARM GAS  C:\Users\jo\AppData\Local\Temp\ccWSatz4.s 			page 19


 1007 03f1 03       		.uleb128 0x3
 1008 03f2 5D020000 		.4byte	.LASF74
 1009 03f6 07       		.byte	0x7
 1010 03f7 6B       		.byte	0x6b
 1011 03f8 FC030000 		.4byte	0x3fc
 1012 03fc 0F       		.uleb128 0xf
 1013 03fd 12080000 		.4byte	.LASF75
 1014 0401 1404     		.2byte	0x414
 1015 0403 08       		.byte	0x8
 1016 0404 A201     		.2byte	0x1a2
 1017 0406 3F040000 		.4byte	0x43f
 1018 040a 09       		.uleb128 0x9
 1019 040b 28020000 		.4byte	.LASF76
 1020 040f 08       		.byte	0x8
 1021 0410 AA01     		.2byte	0x1aa
 1022 0412 65070000 		.4byte	0x765
 1023 0416 00       		.byte	0
 1024 0417 09       		.uleb128 0x9
 1025 0418 69030000 		.4byte	.LASF77
 1026 041c 08       		.byte	0x8
 1027 041d AF01     		.2byte	0x1af
 1028 041f 46010000 		.4byte	0x146
 1029 0423 04       		.byte	0x4
 1030 0424 09       		.uleb128 0x9
 1031 0425 C5000000 		.4byte	.LASF78
 1032 0429 08       		.byte	0x8
 1033 042a B301     		.2byte	0x1b3
 1034 042c 46010000 		.4byte	0x146
 1035 0430 08       		.byte	0x8
 1036 0431 09       		.uleb128 0x9
 1037 0432 3C020000 		.4byte	.LASF79
 1038 0436 08       		.byte	0x8
 1039 0437 B901     		.2byte	0x1b9
 1040 0439 57060000 		.4byte	0x657
 1041 043d 0C       		.byte	0xc
 1042 043e 00       		.byte	0
 1043 043f 03       		.uleb128 0x3
 1044 0440 A5090000 		.4byte	.LASF80
 1045 0444 07       		.byte	0x7
 1046 0445 70       		.byte	0x70
 1047 0446 4A040000 		.4byte	0x44a
 1048 044a 0F       		.uleb128 0xf
 1049 044b 32090000 		.4byte	.LASF81
 1050 044f 7005     		.2byte	0x570
 1051 0451 08       		.byte	0x8
 1052 0452 C201     		.2byte	0x1c2
 1053 0454 A9040000 		.4byte	0x4a9
 1054 0458 09       		.uleb128 0x9
 1055 0459 42070000 		.4byte	.LASF82
 1056 045d 08       		.byte	0x8
 1057 045e C601     		.2byte	0x1c6
 1058 0460 C5020000 		.4byte	0x2c5
 1059 0464 00       		.byte	0
 1060 0465 09       		.uleb128 0x9
 1061 0466 32080000 		.4byte	.LASF83
 1062 046a 08       		.byte	0x8
 1063 046b CA01     		.2byte	0x1ca
ARM GAS  C:\Users\jo\AppData\Local\Temp\ccWSatz4.s 			page 20


 1064 046d A4030000 		.4byte	0x3a4
 1065 0471 1C       		.byte	0x1c
 1066 0472 08       		.uleb128 0x8
 1067 0473 64626700 		.ascii	"dbg\000"
 1068 0477 08       		.byte	0x8
 1069 0478 CE01     		.2byte	0x1ce
 1070 047a F1030000 		.4byte	0x3f1
 1071 047e 2C       		.byte	0x2c
 1072 047f 10       		.uleb128 0x10
 1073 0480 F0060000 		.4byte	.LASF84
 1074 0484 08       		.byte	0x8
 1075 0485 D201     		.2byte	0x1d2
 1076 0487 5C010000 		.4byte	0x15c
 1077 048b 4004     		.2byte	0x440
 1078 048d 11       		.uleb128 0x11
 1079 048e 746D00   		.ascii	"tm\000"
 1080 0491 08       		.byte	0x8
 1081 0492 D701     		.2byte	0x1d7
 1082 0494 77060000 		.4byte	0x677
 1083 0498 8804     		.2byte	0x488
 1084 049a 10       		.uleb128 0x10
 1085 049b 59050000 		.4byte	.LASF85
 1086 049f 08       		.byte	0x8
 1087 04a0 E301     		.2byte	0x1e3
 1088 04a2 6A070000 		.4byte	0x76a
 1089 04a6 9004     		.2byte	0x490
 1090 04a8 00       		.byte	0
 1091 04a9 04       		.uleb128 0x4
 1092 04aa 04       		.byte	0x4
 1093 04ab 07       		.byte	0x7
 1094 04ac 07000000 		.4byte	.LASF86
 1095 04b0 12       		.uleb128 0x12
 1096 04b1 1C       		.byte	0x1c
 1097 04b2 09       		.byte	0x9
 1098 04b3 0903     		.2byte	0x309
 1099 04b5 13050000 		.4byte	0x513
 1100 04b9 08       		.uleb128 0x8
 1101 04ba 535200   		.ascii	"SR\000"
 1102 04bd 09       		.byte	0x9
 1103 04be 0B03     		.2byte	0x30b
 1104 04c0 E9000000 		.4byte	0xe9
 1105 04c4 00       		.byte	0
 1106 04c5 08       		.uleb128 0x8
 1107 04c6 445200   		.ascii	"DR\000"
 1108 04c9 09       		.byte	0x9
 1109 04ca 0C03     		.2byte	0x30c
 1110 04cc E9000000 		.4byte	0xe9
 1111 04d0 04       		.byte	0x4
 1112 04d1 08       		.uleb128 0x8
 1113 04d2 42525200 		.ascii	"BRR\000"
 1114 04d6 09       		.byte	0x9
 1115 04d7 0D03     		.2byte	0x30d
 1116 04d9 E9000000 		.4byte	0xe9
 1117 04dd 08       		.byte	0x8
 1118 04de 08       		.uleb128 0x8
 1119 04df 43523100 		.ascii	"CR1\000"
 1120 04e3 09       		.byte	0x9
ARM GAS  C:\Users\jo\AppData\Local\Temp\ccWSatz4.s 			page 21


 1121 04e4 0E03     		.2byte	0x30e
 1122 04e6 E9000000 		.4byte	0xe9
 1123 04ea 0C       		.byte	0xc
 1124 04eb 08       		.uleb128 0x8
 1125 04ec 43523200 		.ascii	"CR2\000"
 1126 04f0 09       		.byte	0x9
 1127 04f1 0F03     		.2byte	0x30f
 1128 04f3 E9000000 		.4byte	0xe9
 1129 04f7 10       		.byte	0x10
 1130 04f8 08       		.uleb128 0x8
 1131 04f9 43523300 		.ascii	"CR3\000"
 1132 04fd 09       		.byte	0x9
 1133 04fe 1003     		.2byte	0x310
 1134 0500 E9000000 		.4byte	0xe9
 1135 0504 14       		.byte	0x14
 1136 0505 09       		.uleb128 0x9
 1137 0506 CF040000 		.4byte	.LASF87
 1138 050a 09       		.byte	0x9
 1139 050b 1103     		.2byte	0x311
 1140 050d E9000000 		.4byte	0xe9
 1141 0511 18       		.byte	0x18
 1142 0512 00       		.byte	0
 1143 0513 13       		.uleb128 0x13
 1144 0514 B9020000 		.4byte	.LASF88
 1145 0518 09       		.byte	0x9
 1146 0519 1203     		.2byte	0x312
 1147 051b B0040000 		.4byte	0x4b0
 1148 051f 03       		.uleb128 0x3
 1149 0520 AA010000 		.4byte	.LASF89
 1150 0524 0A       		.byte	0xa
 1151 0525 65       		.byte	0x65
 1152 0526 48030000 		.4byte	0x348
 1153 052a 03       		.uleb128 0x3
 1154 052b AE020000 		.4byte	.LASF90
 1155 052f 0A       		.byte	0xa
 1156 0530 6D       		.byte	0x6d
 1157 0531 D9000000 		.4byte	0xd9
 1158 0535 06       		.uleb128 0x6
 1159 0536 F8010000 		.4byte	.LASF91
 1160 053a 04       		.byte	0x4
 1161 053b 0A       		.byte	0xa
 1162 053c 89       		.byte	0x89
 1163 053d 4E050000 		.4byte	0x54e
 1164 0541 14       		.uleb128 0x14
 1165 0542 72313300 		.ascii	"r13\000"
 1166 0546 0A       		.byte	0xa
 1167 0547 8A       		.byte	0x8a
 1168 0548 C9050000 		.4byte	0x5c9
 1169 054c 00       		.byte	0
 1170 054d 00       		.byte	0
 1171 054e 06       		.uleb128 0x6
 1172 054f E7050000 		.4byte	.LASF92
 1173 0553 24       		.byte	0x24
 1174 0554 0B       		.byte	0xb
 1175 0555 F4       		.byte	0xf4
 1176 0556 C9050000 		.4byte	0x5c9
 1177 055a 08       		.uleb128 0x8
ARM GAS  C:\Users\jo\AppData\Local\Temp\ccWSatz4.s 			page 22


 1178 055b 723400   		.ascii	"r4\000"
 1179 055e 0B       		.byte	0xb
 1180 055f 0701     		.2byte	0x107
 1181 0561 1F050000 		.4byte	0x51f
 1182 0565 00       		.byte	0
 1183 0566 08       		.uleb128 0x8
 1184 0567 723500   		.ascii	"r5\000"
 1185 056a 0B       		.byte	0xb
 1186 056b 0801     		.2byte	0x108
 1187 056d 1F050000 		.4byte	0x51f
 1188 0571 04       		.byte	0x4
 1189 0572 08       		.uleb128 0x8
 1190 0573 723600   		.ascii	"r6\000"
 1191 0576 0B       		.byte	0xb
 1192 0577 0901     		.2byte	0x109
 1193 0579 1F050000 		.4byte	0x51f
 1194 057d 08       		.byte	0x8
 1195 057e 08       		.uleb128 0x8
 1196 057f 723700   		.ascii	"r7\000"
 1197 0582 0B       		.byte	0xb
 1198 0583 0A01     		.2byte	0x10a
 1199 0585 1F050000 		.4byte	0x51f
 1200 0589 0C       		.byte	0xc
 1201 058a 08       		.uleb128 0x8
 1202 058b 723800   		.ascii	"r8\000"
 1203 058e 0B       		.byte	0xb
 1204 058f 0B01     		.2byte	0x10b
 1205 0591 1F050000 		.4byte	0x51f
 1206 0595 10       		.byte	0x10
 1207 0596 08       		.uleb128 0x8
 1208 0597 723900   		.ascii	"r9\000"
 1209 059a 0B       		.byte	0xb
 1210 059b 0C01     		.2byte	0x10c
 1211 059d 1F050000 		.4byte	0x51f
 1212 05a1 14       		.byte	0x14
 1213 05a2 08       		.uleb128 0x8
 1214 05a3 72313000 		.ascii	"r10\000"
 1215 05a7 0B       		.byte	0xb
 1216 05a8 0D01     		.2byte	0x10d
 1217 05aa 1F050000 		.4byte	0x51f
 1218 05ae 18       		.byte	0x18
 1219 05af 08       		.uleb128 0x8
 1220 05b0 72313100 		.ascii	"r11\000"
 1221 05b4 0B       		.byte	0xb
 1222 05b5 0E01     		.2byte	0x10e
 1223 05b7 1F050000 		.4byte	0x51f
 1224 05bb 1C       		.byte	0x1c
 1225 05bc 08       		.uleb128 0x8
 1226 05bd 6C7200   		.ascii	"lr\000"
 1227 05c0 0B       		.byte	0xb
 1228 05c1 0F01     		.2byte	0x10f
 1229 05c3 1F050000 		.4byte	0x51f
 1230 05c7 20       		.byte	0x20
 1231 05c8 00       		.byte	0
 1232 05c9 0A       		.uleb128 0xa
 1233 05ca 04       		.byte	0x4
 1234 05cb 4E050000 		.4byte	0x54e
ARM GAS  C:\Users\jo\AppData\Local\Temp\ccWSatz4.s 			page 23


 1235 05cf 15       		.uleb128 0x15
 1236 05d0 10       		.byte	0x10
 1237 05d1 0C       		.byte	0xc
 1238 05d2 51       		.byte	0x51
 1239 05d3 08060000 		.4byte	0x608
 1240 05d7 07       		.uleb128 0x7
 1241 05d8 DD090000 		.4byte	.LASF93
 1242 05dc 0C       		.byte	0xc
 1243 05dd 55       		.byte	0x55
 1244 05de 51010000 		.4byte	0x151
 1245 05e2 00       		.byte	0
 1246 05e3 07       		.uleb128 0x7
 1247 05e4 F8000000 		.4byte	.LASF94
 1248 05e8 0C       		.byte	0xc
 1249 05e9 59       		.byte	0x59
 1250 05ea 6B020000 		.4byte	0x26b
 1251 05ee 04       		.byte	0x4
 1252 05ef 07       		.uleb128 0x7
 1253 05f0 42050000 		.4byte	.LASF95
 1254 05f4 0C       		.byte	0xc
 1255 05f5 5D       		.byte	0x5d
 1256 05f6 48030000 		.4byte	0x348
 1257 05fa 08       		.byte	0x8
 1258 05fb 07       		.uleb128 0x7
 1259 05fc 83030000 		.4byte	.LASF96
 1260 0600 0C       		.byte	0xc
 1261 0601 61       		.byte	0x61
 1262 0602 AD000000 		.4byte	0xad
 1263 0606 0C       		.byte	0xc
 1264 0607 00       		.byte	0
 1265 0608 03       		.uleb128 0x3
 1266 0609 5E040000 		.4byte	.LASF97
 1267 060d 0C       		.byte	0xc
 1268 060e 62       		.byte	0x62
 1269 060f CF050000 		.4byte	0x5cf
 1270 0613 16       		.uleb128 0x16
 1271 0614 0804     		.2byte	0x408
 1272 0616 0C       		.byte	0xc
 1273 0617 67       		.byte	0x67
 1274 0618 41060000 		.4byte	0x641
 1275 061c 07       		.uleb128 0x7
 1276 061d D4040000 		.4byte	.LASF98
 1277 0621 0C       		.byte	0xc
 1278 0622 6B       		.byte	0x6b
 1279 0623 37000000 		.4byte	0x37
 1280 0627 00       		.byte	0
 1281 0628 07       		.uleb128 0x7
 1282 0629 F3090000 		.4byte	.LASF99
 1283 062d 0C       		.byte	0xc
 1284 062e 6F       		.byte	0x6f
 1285 062f 41060000 		.4byte	0x641
 1286 0633 04       		.byte	0x4
 1287 0634 07       		.uleb128 0x7
 1288 0635 B6050000 		.4byte	.LASF100
 1289 0639 0C       		.byte	0xc
 1290 063a 73       		.byte	0x73
 1291 063b 47060000 		.4byte	0x647
ARM GAS  C:\Users\jo\AppData\Local\Temp\ccWSatz4.s 			page 24


 1292 063f 08       		.byte	0x8
 1293 0640 00       		.byte	0
 1294 0641 0A       		.uleb128 0xa
 1295 0642 04       		.byte	0x4
 1296 0643 08060000 		.4byte	0x608
 1297 0647 17       		.uleb128 0x17
 1298 0648 08060000 		.4byte	0x608
 1299 064c 57060000 		.4byte	0x657
 1300 0650 18       		.uleb128 0x18
 1301 0651 A9040000 		.4byte	0x4a9
 1302 0655 3F       		.byte	0x3f
 1303 0656 00       		.byte	0
 1304 0657 03       		.uleb128 0x3
 1305 0658 1E030000 		.4byte	.LASF101
 1306 065c 0C       		.byte	0xc
 1307 065d 74       		.byte	0x74
 1308 065e 13060000 		.4byte	0x613
 1309 0662 15       		.uleb128 0x15
 1310 0663 04       		.byte	0x4
 1311 0664 0D       		.byte	0xd
 1312 0665 38       		.byte	0x38
 1313 0666 77060000 		.4byte	0x677
 1314 066a 07       		.uleb128 0x7
 1315 066b AF050000 		.4byte	.LASF102
 1316 066f 0D       		.byte	0xd
 1317 0670 3C       		.byte	0x3c
 1318 0671 EE000000 		.4byte	0xee
 1319 0675 00       		.byte	0
 1320 0676 00       		.byte	0
 1321 0677 03       		.uleb128 0x3
 1322 0678 9B070000 		.4byte	.LASF103
 1323 067c 0D       		.byte	0xd
 1324 067d 3D       		.byte	0x3d
 1325 067e 62060000 		.4byte	0x662
 1326 0682 19       		.uleb128 0x19
 1327 0683 04       		.byte	0x4
 1328 0684 08       		.byte	0x8
 1329 0685 FA       		.byte	0xfa
 1330 0686 DF060000 		.4byte	0x6df
 1331 068a 1A       		.uleb128 0x1a
 1332 068b 7F090000 		.4byte	.LASF104
 1333 068f 08       		.byte	0x8
 1334 0690 0101     		.2byte	0x101
 1335 0692 25010000 		.4byte	0x125
 1336 0696 1A       		.uleb128 0x1a
 1337 0697 1D010000 		.4byte	.LASF105
 1338 069b 08       		.byte	0x8
 1339 069c 0801     		.2byte	0x108
 1340 069e 25010000 		.4byte	0x125
 1341 06a2 1A       		.uleb128 0x1a
 1342 06a3 A2020000 		.4byte	.LASF106
 1343 06a7 08       		.byte	0x8
 1344 06a8 0F01     		.2byte	0x10f
 1345 06aa 48030000 		.4byte	0x348
 1346 06ae 1A       		.uleb128 0x1a
 1347 06af 00020000 		.4byte	.LASF107
 1348 06b3 08       		.byte	0x8
ARM GAS  C:\Users\jo\AppData\Local\Temp\ccWSatz4.s 			page 25


 1349 06b4 1601     		.2byte	0x116
 1350 06b6 DF060000 		.4byte	0x6df
 1351 06ba 1A       		.uleb128 0x1a
 1352 06bb 10000000 		.4byte	.LASF108
 1353 06bf 08       		.byte	0x8
 1354 06c0 1E01     		.2byte	0x11e
 1355 06c2 0A070000 		.4byte	0x70a
 1356 06c6 1A       		.uleb128 0x1a
 1357 06c7 4E030000 		.4byte	.LASF109
 1358 06cb 08       		.byte	0x8
 1359 06cc 2701     		.2byte	0x127
 1360 06ce 41070000 		.4byte	0x741
 1361 06d2 1A       		.uleb128 0x1a
 1362 06d3 DD010000 		.4byte	.LASF110
 1363 06d7 08       		.byte	0x8
 1364 06d8 2F01     		.2byte	0x12f
 1365 06da 30010000 		.4byte	0x130
 1366 06de 00       		.byte	0
 1367 06df 0A       		.uleb128 0xa
 1368 06e0 04       		.byte	0x4
 1369 06e1 60020000 		.4byte	0x260
 1370 06e5 06       		.uleb128 0x6
 1371 06e6 BA030000 		.4byte	.LASF111
 1372 06ea 0C       		.byte	0xc
 1373 06eb 0E       		.byte	0xe
 1374 06ec 34       		.byte	0x34
 1375 06ed 0A070000 		.4byte	0x70a
 1376 06f1 07       		.uleb128 0x7
 1377 06f2 AC070000 		.4byte	.LASF112
 1378 06f6 0E       		.byte	0xe
 1379 06f7 35       		.byte	0x35
 1380 06f8 95020000 		.4byte	0x295
 1381 06fc 00       		.byte	0
 1382 06fd 07       		.uleb128 0x7
 1383 06fe 26060000 		.4byte	.LASF113
 1384 0702 0E       		.byte	0xe
 1385 0703 37       		.byte	0x37
 1386 0704 46010000 		.4byte	0x146
 1387 0708 08       		.byte	0x8
 1388 0709 00       		.byte	0
 1389 070a 0A       		.uleb128 0xa
 1390 070b 04       		.byte	0x4
 1391 070c E5060000 		.4byte	0x6e5
 1392 0710 06       		.uleb128 0x6
 1393 0711 E8070000 		.4byte	.LASF114
 1394 0715 10       		.byte	0x10
 1395 0716 0F       		.byte	0xf
 1396 0717 39       		.byte	0x39
 1397 0718 41070000 		.4byte	0x741
 1398 071c 07       		.uleb128 0x7
 1399 071d 9E040000 		.4byte	.LASF115
 1400 0721 0F       		.byte	0xf
 1401 0722 3A       		.byte	0x3a
 1402 0723 95020000 		.4byte	0x295
 1403 0727 00       		.byte	0
 1404 0728 07       		.uleb128 0x7
 1405 0729 0E010000 		.4byte	.LASF116
ARM GAS  C:\Users\jo\AppData\Local\Temp\ccWSatz4.s 			page 26


 1406 072d 0F       		.byte	0xf
 1407 072e 3C       		.byte	0x3c
 1408 072f 6B020000 		.4byte	0x26b
 1409 0733 08       		.byte	0x8
 1410 0734 07       		.uleb128 0x7
 1411 0735 EC090000 		.4byte	.LASF117
 1412 0739 0F       		.byte	0xf
 1413 073a 3E       		.byte	0x3e
 1414 073b 90070000 		.4byte	0x790
 1415 073f 0C       		.byte	0xc
 1416 0740 00       		.byte	0
 1417 0741 0A       		.uleb128 0xa
 1418 0742 04       		.byte	0x4
 1419 0743 10070000 		.4byte	0x710
 1420 0747 0A       		.uleb128 0xa
 1421 0748 04       		.byte	0x4
 1422 0749 4D070000 		.4byte	0x74d
 1423 074d 1B       		.uleb128 0x1b
 1424 074e 52070000 		.4byte	0x752
 1425 0752 04       		.uleb128 0x4
 1426 0753 01       		.byte	0x1
 1427 0754 08       		.byte	0x8
 1428 0755 8B020000 		.4byte	.LASF118
 1429 0759 0A       		.uleb128 0xa
 1430 075a 04       		.byte	0x4
 1431 075b 2A050000 		.4byte	0x52a
 1432 075f 0A       		.uleb128 0xa
 1433 0760 04       		.byte	0x4
 1434 0761 4A030000 		.4byte	0x34a
 1435 0765 05       		.uleb128 0x5
 1436 0766 47070000 		.4byte	0x747
 1437 076a 17       		.uleb128 0x17
 1438 076b 2A050000 		.4byte	0x52a
 1439 076f 7A070000 		.4byte	0x77a
 1440 0773 18       		.uleb128 0x18
 1441 0774 A9040000 		.4byte	0x4a9
 1442 0778 1B       		.byte	0x1b
 1443 0779 00       		.byte	0
 1444 077a 03       		.uleb128 0x3
 1445 077b 08050000 		.4byte	.LASF119
 1446 077f 10       		.byte	0x10
 1447 0780 34       		.byte	0x34
 1448 0781 37030000 		.4byte	0x337
 1449 0785 03       		.uleb128 0x3
 1450 0786 39080000 		.4byte	.LASF120
 1451 078a 0F       		.byte	0xf
 1452 078b 34       		.byte	0x34
 1453 078c 10070000 		.4byte	0x710
 1454 0790 0A       		.uleb128 0xa
 1455 0791 04       		.byte	0x4
 1456 0792 85070000 		.4byte	0x785
 1457 0796 03       		.uleb128 0x3
 1458 0797 C7020000 		.4byte	.LASF121
 1459 079b 11       		.byte	0x11
 1460 079c 34       		.byte	0x34
 1461 079d A1070000 		.4byte	0x7a1
 1462 07a1 06       		.uleb128 0x6
ARM GAS  C:\Users\jo\AppData\Local\Temp\ccWSatz4.s 			page 27


 1463 07a2 70090000 		.4byte	.LASF122
 1464 07a6 14       		.byte	0x14
 1465 07a7 11       		.byte	0x11
 1466 07a8 39       		.byte	0x39
 1467 07a9 EA070000 		.4byte	0x7ea
 1468 07ad 07       		.uleb128 0x7
 1469 07ae FA030000 		.4byte	.LASF123
 1470 07b2 11       		.byte	0x11
 1471 07b3 3A       		.byte	0x3a
 1472 07b4 EA070000 		.4byte	0x7ea
 1473 07b8 00       		.byte	0
 1474 07b9 07       		.uleb128 0x7
 1475 07ba 6C0A0000 		.4byte	.LASF124
 1476 07be 11       		.byte	0x11
 1477 07bf 3D       		.byte	0x3d
 1478 07c0 6B020000 		.4byte	0x26b
 1479 07c4 04       		.byte	0x4
 1480 07c5 07       		.uleb128 0x7
 1481 07c6 A5050000 		.4byte	.LASF125
 1482 07ca 11       		.byte	0x11
 1483 07cb 3F       		.byte	0x3f
 1484 07cc 30010000 		.4byte	0x130
 1485 07d0 08       		.byte	0x8
 1486 07d1 07       		.uleb128 0x7
 1487 07d2 B6000000 		.4byte	.LASF126
 1488 07d6 11       		.byte	0x11
 1489 07d7 41       		.byte	0x41
 1490 07d8 3B010000 		.4byte	0x13b
 1491 07dc 0C       		.byte	0xc
 1492 07dd 07       		.uleb128 0x7
 1493 07de 9B050000 		.4byte	.LASF127
 1494 07e2 11       		.byte	0x11
 1495 07e3 43       		.byte	0x43
 1496 07e4 3B010000 		.4byte	0x13b
 1497 07e8 10       		.byte	0x10
 1498 07e9 00       		.byte	0
 1499 07ea 0A       		.uleb128 0xa
 1500 07eb 04       		.byte	0x4
 1501 07ec 96070000 		.4byte	0x796
 1502 07f0 06       		.uleb128 0x6
 1503 07f1 D2070000 		.4byte	.LASF128
 1504 07f5 04       		.byte	0x4
 1505 07f6 11       		.byte	0x11
 1506 07f7 4A       		.byte	0x4a
 1507 07f8 09080000 		.4byte	0x809
 1508 07fc 07       		.uleb128 0x7
 1509 07fd 71030000 		.4byte	.LASF129
 1510 0801 11       		.byte	0x11
 1511 0802 4B       		.byte	0x4b
 1512 0803 EA070000 		.4byte	0x7ea
 1513 0807 00       		.byte	0
 1514 0808 00       		.byte	0
 1515 0809 03       		.uleb128 0x3
 1516 080a DC040000 		.4byte	.LASF130
 1517 080e 11       		.byte	0x11
 1518 080f 4E       		.byte	0x4e
 1519 0810 F0070000 		.4byte	0x7f0
ARM GAS  C:\Users\jo\AppData\Local\Temp\ccWSatz4.s 			page 28


 1520 0814 03       		.uleb128 0x3
 1521 0815 22080000 		.4byte	.LASF131
 1522 0819 12       		.byte	0x12
 1523 081a 3F       		.byte	0x3f
 1524 081b 1F080000 		.4byte	0x81f
 1525 081f 06       		.uleb128 0x6
 1526 0820 B3010000 		.4byte	.LASF132
 1527 0824 24       		.byte	0x24
 1528 0825 12       		.byte	0x12
 1529 0826 4D       		.byte	0x4d
 1530 0827 8C080000 		.4byte	0x88c
 1531 082b 07       		.uleb128 0x7
 1532 082c 20070000 		.4byte	.LASF133
 1533 0830 12       		.byte	0x12
 1534 0831 4E       		.byte	0x4e
 1535 0832 95020000 		.4byte	0x295
 1536 0836 00       		.byte	0
 1537 0837 07       		.uleb128 0x7
 1538 0838 79030000 		.4byte	.LASF134
 1539 083c 12       		.byte	0x12
 1540 083d 4F       		.byte	0x4f
 1541 083e 2C000000 		.4byte	0x2c
 1542 0842 08       		.byte	0x8
 1543 0843 07       		.uleb128 0x7
 1544 0844 42010000 		.4byte	.LASF135
 1545 0848 12       		.byte	0x12
 1546 0849 50       		.byte	0x50
 1547 084a AE080000 		.4byte	0x8ae
 1548 084e 0C       		.byte	0xc
 1549 084f 07       		.uleb128 0x7
 1550 0850 30010000 		.4byte	.LASF136
 1551 0854 12       		.byte	0x12
 1552 0855 51       		.byte	0x51
 1553 0856 AE080000 		.4byte	0x8ae
 1554 085a 10       		.byte	0x10
 1555 085b 07       		.uleb128 0x7
 1556 085c 27040000 		.4byte	.LASF137
 1557 0860 12       		.byte	0x12
 1558 0861 53       		.byte	0x53
 1559 0862 AE080000 		.4byte	0x8ae
 1560 0866 14       		.byte	0x14
 1561 0867 07       		.uleb128 0x7
 1562 0868 6C010000 		.4byte	.LASF138
 1563 086c 12       		.byte	0x12
 1564 086d 54       		.byte	0x54
 1565 086e AE080000 		.4byte	0x8ae
 1566 0872 18       		.byte	0x18
 1567 0873 07       		.uleb128 0x7
 1568 0874 4B010000 		.4byte	.LASF139
 1569 0878 12       		.byte	0x12
 1570 0879 55       		.byte	0x55
 1571 087a 8C080000 		.4byte	0x88c
 1572 087e 1C       		.byte	0x1c
 1573 087f 07       		.uleb128 0x7
 1574 0880 14020000 		.4byte	.LASF140
 1575 0884 12       		.byte	0x12
 1576 0885 56       		.byte	0x56
ARM GAS  C:\Users\jo\AppData\Local\Temp\ccWSatz4.s 			page 29


 1577 0886 48030000 		.4byte	0x348
 1578 088a 20       		.byte	0x20
 1579 088b 00       		.byte	0
 1580 088c 03       		.uleb128 0x3
 1581 088d 19050000 		.4byte	.LASF141
 1582 0891 12       		.byte	0x12
 1583 0892 42       		.byte	0x42
 1584 0893 97080000 		.4byte	0x897
 1585 0897 0A       		.uleb128 0xa
 1586 0898 04       		.byte	0x4
 1587 0899 9D080000 		.4byte	0x89d
 1588 089d 0C       		.uleb128 0xc
 1589 089e A8080000 		.4byte	0x8a8
 1590 08a2 0D       		.uleb128 0xd
 1591 08a3 A8080000 		.4byte	0x8a8
 1592 08a7 00       		.byte	0
 1593 08a8 0A       		.uleb128 0xa
 1594 08a9 04       		.byte	0x4
 1595 08aa 14080000 		.4byte	0x814
 1596 08ae 0A       		.uleb128 0xa
 1597 08af 04       		.byte	0x4
 1598 08b0 AD000000 		.4byte	0xad
 1599 08b4 03       		.uleb128 0x3
 1600 08b5 62090000 		.4byte	.LASF142
 1601 08b9 12       		.byte	0x12
 1602 08ba 64       		.byte	0x64
 1603 08bb 14080000 		.4byte	0x814
 1604 08bf 03       		.uleb128 0x3
 1605 08c0 B1090000 		.4byte	.LASF143
 1606 08c4 12       		.byte	0x12
 1607 08c5 71       		.byte	0x71
 1608 08c6 14080000 		.4byte	0x814
 1609 08ca 06       		.uleb128 0x6
 1610 08cb 2A070000 		.4byte	.LASF144
 1611 08cf 10       		.byte	0x10
 1612 08d0 13       		.byte	0x13
 1613 08d1 40       		.byte	0x40
 1614 08d2 07090000 		.4byte	0x907
 1615 08d6 07       		.uleb128 0x7
 1616 08d7 9B000000 		.4byte	.LASF145
 1617 08db 13       		.byte	0x13
 1618 08dc 41       		.byte	0x41
 1619 08dd 2B090000 		.4byte	0x92b
 1620 08e1 00       		.byte	0
 1621 08e2 07       		.uleb128 0x7
 1622 08e3 54050000 		.4byte	.LASF146
 1623 08e7 13       		.byte	0x13
 1624 08e8 41       		.byte	0x41
 1625 08e9 4A090000 		.4byte	0x94a
 1626 08ed 04       		.byte	0x4
 1627 08ee 14       		.uleb128 0x14
 1628 08ef 70757400 		.ascii	"put\000"
 1629 08f3 13       		.byte	0x13
 1630 08f4 41       		.byte	0x41
 1631 08f5 64090000 		.4byte	0x964
 1632 08f9 08       		.byte	0x8
 1633 08fa 14       		.uleb128 0x14
ARM GAS  C:\Users\jo\AppData\Local\Temp\ccWSatz4.s 			page 30


 1634 08fb 67657400 		.ascii	"get\000"
 1635 08ff 13       		.byte	0x13
 1636 0900 41       		.byte	0x41
 1637 0901 79090000 		.4byte	0x979
 1638 0905 0C       		.byte	0xc
 1639 0906 00       		.byte	0
 1640 0907 1C       		.uleb128 0x1c
 1641 0908 2C000000 		.4byte	0x2c
 1642 090c 20090000 		.4byte	0x920
 1643 0910 0D       		.uleb128 0xd
 1644 0911 48030000 		.4byte	0x348
 1645 0915 0D       		.uleb128 0xd
 1646 0916 20090000 		.4byte	0x920
 1647 091a 0D       		.uleb128 0xd
 1648 091b 2C000000 		.4byte	0x2c
 1649 091f 00       		.byte	0
 1650 0920 0A       		.uleb128 0xa
 1651 0921 04       		.byte	0x4
 1652 0922 26090000 		.4byte	0x926
 1653 0926 1B       		.uleb128 0x1b
 1654 0927 AD000000 		.4byte	0xad
 1655 092b 0A       		.uleb128 0xa
 1656 092c 04       		.byte	0x4
 1657 092d 07090000 		.4byte	0x907
 1658 0931 1C       		.uleb128 0x1c
 1659 0932 2C000000 		.4byte	0x2c
 1660 0936 4A090000 		.4byte	0x94a
 1661 093a 0D       		.uleb128 0xd
 1662 093b 48030000 		.4byte	0x348
 1663 093f 0D       		.uleb128 0xd
 1664 0940 AE080000 		.4byte	0x8ae
 1665 0944 0D       		.uleb128 0xd
 1666 0945 2C000000 		.4byte	0x2c
 1667 0949 00       		.byte	0
 1668 094a 0A       		.uleb128 0xa
 1669 094b 04       		.byte	0x4
 1670 094c 31090000 		.4byte	0x931
 1671 0950 1C       		.uleb128 0x1c
 1672 0951 25010000 		.4byte	0x125
 1673 0955 64090000 		.4byte	0x964
 1674 0959 0D       		.uleb128 0xd
 1675 095a 48030000 		.4byte	0x348
 1676 095e 0D       		.uleb128 0xd
 1677 095f AD000000 		.4byte	0xad
 1678 0963 00       		.byte	0
 1679 0964 0A       		.uleb128 0xa
 1680 0965 04       		.byte	0x4
 1681 0966 50090000 		.4byte	0x950
 1682 096a 1C       		.uleb128 0x1c
 1683 096b 25010000 		.4byte	0x125
 1684 096f 79090000 		.4byte	0x979
 1685 0973 0D       		.uleb128 0xd
 1686 0974 48030000 		.4byte	0x348
 1687 0978 00       		.byte	0
 1688 0979 0A       		.uleb128 0xa
 1689 097a 04       		.byte	0x4
 1690 097b 6A090000 		.4byte	0x96a
ARM GAS  C:\Users\jo\AppData\Local\Temp\ccWSatz4.s 			page 31


 1691 097f 15       		.uleb128 0x15
 1692 0980 04       		.byte	0x4
 1693 0981 13       		.byte	0x13
 1694 0982 49       		.byte	0x49
 1695 0983 94090000 		.4byte	0x994
 1696 0987 14       		.uleb128 0x14
 1697 0988 766D7400 		.ascii	"vmt\000"
 1698 098c 13       		.byte	0x13
 1699 098d 4B       		.byte	0x4b
 1700 098e 94090000 		.4byte	0x994
 1701 0992 00       		.byte	0
 1702 0993 00       		.byte	0
 1703 0994 0A       		.uleb128 0xa
 1704 0995 04       		.byte	0x4
 1705 0996 9A090000 		.4byte	0x99a
 1706 099a 1B       		.uleb128 0x1b
 1707 099b CA080000 		.4byte	0x8ca
 1708 099f 03       		.uleb128 0x3
 1709 09a0 A1000000 		.4byte	.LASF147
 1710 09a4 13       		.byte	0x13
 1711 09a5 4D       		.byte	0x4d
 1712 09a6 7F090000 		.4byte	0x97f
 1713 09aa 1C       		.uleb128 0x1c
 1714 09ab 25010000 		.4byte	0x125
 1715 09af C3090000 		.4byte	0x9c3
 1716 09b3 0D       		.uleb128 0xd
 1717 09b4 48030000 		.4byte	0x348
 1718 09b8 0D       		.uleb128 0xd
 1719 09b9 AD000000 		.4byte	0xad
 1720 09bd 0D       		.uleb128 0xd
 1721 09be 51010000 		.4byte	0x151
 1722 09c2 00       		.byte	0
 1723 09c3 0A       		.uleb128 0xa
 1724 09c4 04       		.byte	0x4
 1725 09c5 AA090000 		.4byte	0x9aa
 1726 09c9 1C       		.uleb128 0x1c
 1727 09ca 25010000 		.4byte	0x125
 1728 09ce DD090000 		.4byte	0x9dd
 1729 09d2 0D       		.uleb128 0xd
 1730 09d3 48030000 		.4byte	0x348
 1731 09d7 0D       		.uleb128 0xd
 1732 09d8 51010000 		.4byte	0x151
 1733 09dc 00       		.byte	0
 1734 09dd 0A       		.uleb128 0xa
 1735 09de 04       		.byte	0x4
 1736 09df C9090000 		.4byte	0x9c9
 1737 09e3 1C       		.uleb128 0x1c
 1738 09e4 2C000000 		.4byte	0x2c
 1739 09e8 010A0000 		.4byte	0xa01
 1740 09ec 0D       		.uleb128 0xd
 1741 09ed 48030000 		.4byte	0x348
 1742 09f1 0D       		.uleb128 0xd
 1743 09f2 20090000 		.4byte	0x920
 1744 09f6 0D       		.uleb128 0xd
 1745 09f7 2C000000 		.4byte	0x2c
 1746 09fb 0D       		.uleb128 0xd
 1747 09fc 51010000 		.4byte	0x151
ARM GAS  C:\Users\jo\AppData\Local\Temp\ccWSatz4.s 			page 32


 1748 0a00 00       		.byte	0
 1749 0a01 0A       		.uleb128 0xa
 1750 0a02 04       		.byte	0x4
 1751 0a03 E3090000 		.4byte	0x9e3
 1752 0a07 1C       		.uleb128 0x1c
 1753 0a08 2C000000 		.4byte	0x2c
 1754 0a0c 250A0000 		.4byte	0xa25
 1755 0a10 0D       		.uleb128 0xd
 1756 0a11 48030000 		.4byte	0x348
 1757 0a15 0D       		.uleb128 0xd
 1758 0a16 AE080000 		.4byte	0x8ae
 1759 0a1a 0D       		.uleb128 0xd
 1760 0a1b 2C000000 		.4byte	0x2c
 1761 0a1f 0D       		.uleb128 0xd
 1762 0a20 51010000 		.4byte	0x151
 1763 0a24 00       		.byte	0
 1764 0a25 0A       		.uleb128 0xa
 1765 0a26 04       		.byte	0x4
 1766 0a27 070A0000 		.4byte	0xa07
 1767 0a2b 04       		.uleb128 0x4
 1768 0a2c 01       		.byte	0x1
 1769 0a2d 02       		.byte	0x2
 1770 0a2e 85020000 		.4byte	.LASF148
 1771 0a32 15       		.uleb128 0x15
 1772 0a33 04       		.byte	0x4
 1773 0a34 14       		.byte	0x14
 1774 0a35 B3       		.byte	0xb3
 1775 0a36 530A0000 		.4byte	0xa53
 1776 0a3a 14       		.uleb128 0x14
 1777 0a3b 73657400 		.ascii	"set\000"
 1778 0a3f 14       		.byte	0x14
 1779 0a40 B4       		.byte	0xb4
 1780 0a41 B8000000 		.4byte	0xb8
 1781 0a45 00       		.byte	0
 1782 0a46 07       		.uleb128 0x7
 1783 0a47 63030000 		.4byte	.LASF149
 1784 0a4b 14       		.byte	0x14
 1785 0a4c B5       		.byte	0xb5
 1786 0a4d B8000000 		.4byte	0xb8
 1787 0a51 02       		.byte	0x2
 1788 0a52 00       		.byte	0
 1789 0a53 19       		.uleb128 0x19
 1790 0a54 04       		.byte	0x4
 1791 0a55 14       		.byte	0x14
 1792 0a56 B1       		.byte	0xb1
 1793 0a57 6E0A0000 		.4byte	0xa6e
 1794 0a5b 1D       		.uleb128 0x1d
 1795 0a5c 5700     		.ascii	"W\000"
 1796 0a5e 14       		.byte	0x14
 1797 0a5f B2       		.byte	0xb2
 1798 0a60 CE000000 		.4byte	0xce
 1799 0a64 1D       		.uleb128 0x1d
 1800 0a65 4800     		.ascii	"H\000"
 1801 0a67 14       		.byte	0x14
 1802 0a68 B6       		.byte	0xb6
 1803 0a69 320A0000 		.4byte	0xa32
 1804 0a6d 00       		.byte	0
ARM GAS  C:\Users\jo\AppData\Local\Temp\ccWSatz4.s 			page 33


 1805 0a6e 15       		.uleb128 0x15
 1806 0a6f 2C       		.byte	0x2c
 1807 0a70 14       		.byte	0x14
 1808 0a71 A9       		.byte	0xa9
 1809 0a72 FB0A0000 		.4byte	0xafb
 1810 0a76 07       		.uleb128 0x7
 1811 0a77 5C090000 		.4byte	.LASF150
 1812 0a7b 14       		.byte	0x14
 1813 0a7c AB       		.byte	0xab
 1814 0a7d E9000000 		.4byte	0xe9
 1815 0a81 00       		.byte	0
 1816 0a82 07       		.uleb128 0x7
 1817 0a83 19070000 		.4byte	.LASF151
 1818 0a87 14       		.byte	0x14
 1819 0a88 AC       		.byte	0xac
 1820 0a89 E9000000 		.4byte	0xe9
 1821 0a8d 04       		.byte	0x4
 1822 0a8e 07       		.uleb128 0x7
 1823 0a8f 6D040000 		.4byte	.LASF152
 1824 0a93 14       		.byte	0x14
 1825 0a94 AD       		.byte	0xad
 1826 0a95 E9000000 		.4byte	0xe9
 1827 0a99 08       		.byte	0x8
 1828 0a9a 07       		.uleb128 0x7
 1829 0a9b 36010000 		.4byte	.LASF153
 1830 0a9f 14       		.byte	0x14
 1831 0aa0 AE       		.byte	0xae
 1832 0aa1 E9000000 		.4byte	0xe9
 1833 0aa5 0C       		.byte	0xc
 1834 0aa6 14       		.uleb128 0x14
 1835 0aa7 49445200 		.ascii	"IDR\000"
 1836 0aab 14       		.byte	0x14
 1837 0aac AF       		.byte	0xaf
 1838 0aad E9000000 		.4byte	0xe9
 1839 0ab1 10       		.byte	0x10
 1840 0ab2 14       		.uleb128 0x14
 1841 0ab3 4F445200 		.ascii	"ODR\000"
 1842 0ab7 14       		.byte	0x14
 1843 0ab8 B0       		.byte	0xb0
 1844 0ab9 E9000000 		.4byte	0xe9
 1845 0abd 14       		.byte	0x14
 1846 0abe 07       		.uleb128 0x7
 1847 0abf 2D080000 		.4byte	.LASF154
 1848 0ac3 14       		.byte	0x14
 1849 0ac4 B7       		.byte	0xb7
 1850 0ac5 FB0A0000 		.4byte	0xafb
 1851 0ac9 18       		.byte	0x18
 1852 0aca 07       		.uleb128 0x7
 1853 0acb 2F040000 		.4byte	.LASF155
 1854 0acf 14       		.byte	0x14
 1855 0ad0 B8       		.byte	0xb8
 1856 0ad1 E9000000 		.4byte	0xe9
 1857 0ad5 1C       		.byte	0x1c
 1858 0ad6 07       		.uleb128 0x7
 1859 0ad7 EB060000 		.4byte	.LASF156
 1860 0adb 14       		.byte	0x14
 1861 0adc B9       		.byte	0xb9
ARM GAS  C:\Users\jo\AppData\Local\Temp\ccWSatz4.s 			page 34


 1862 0add E9000000 		.4byte	0xe9
 1863 0ae1 20       		.byte	0x20
 1864 0ae2 07       		.uleb128 0x7
 1865 0ae3 E6060000 		.4byte	.LASF157
 1866 0ae7 14       		.byte	0x14
 1867 0ae8 BA       		.byte	0xba
 1868 0ae9 E9000000 		.4byte	0xe9
 1869 0aed 24       		.byte	0x24
 1870 0aee 14       		.uleb128 0x14
 1871 0aef 42525200 		.ascii	"BRR\000"
 1872 0af3 14       		.byte	0x14
 1873 0af4 BB       		.byte	0xbb
 1874 0af5 E9000000 		.4byte	0xe9
 1875 0af9 28       		.byte	0x28
 1876 0afa 00       		.byte	0
 1877 0afb 05       		.uleb128 0x5
 1878 0afc 530A0000 		.4byte	0xa53
 1879 0b00 03       		.uleb128 0x3
 1880 0b01 1B020000 		.4byte	.LASF158
 1881 0b05 14       		.byte	0x14
 1882 0b06 BC       		.byte	0xbc
 1883 0b07 6E0A0000 		.4byte	0xa6e
 1884 0b0b 13       		.uleb128 0x13
 1885 0b0c D8020000 		.4byte	.LASF159
 1886 0b10 14       		.byte	0x14
 1887 0b11 0E01     		.2byte	0x10e
 1888 0b13 CE000000 		.4byte	0xce
 1889 0b17 0A       		.uleb128 0xa
 1890 0b18 04       		.byte	0x4
 1891 0b19 52070000 		.4byte	0x752
 1892 0b1d 1E       		.uleb128 0x1e
 1893 0b1e 01       		.byte	0x1
 1894 0b1f 15       		.byte	0x15
 1895 0b20 55       		.byte	0x55
 1896 0b21 380B0000 		.4byte	0xb38
 1897 0b25 1F       		.uleb128 0x1f
 1898 0b26 6C020000 		.4byte	.LASF160
 1899 0b2a 00       		.sleb128 0
 1900 0b2b 1F       		.uleb128 0x1f
 1901 0b2c D5090000 		.4byte	.LASF161
 1902 0b30 01       		.sleb128 1
 1903 0b31 1F       		.uleb128 0x1f
 1904 0b32 8A070000 		.4byte	.LASF162
 1905 0b36 02       		.sleb128 2
 1906 0b37 00       		.byte	0
 1907 0b38 03       		.uleb128 0x3
 1908 0b39 5A070000 		.4byte	.LASF163
 1909 0b3d 15       		.byte	0x15
 1910 0b3e 59       		.byte	0x59
 1911 0b3f 1D0B0000 		.4byte	0xb1d
 1912 0b43 03       		.uleb128 0x3
 1913 0b44 03070000 		.4byte	.LASF164
 1914 0b48 15       		.byte	0x15
 1915 0b49 5E       		.byte	0x5e
 1916 0b4a 4E0B0000 		.4byte	0xb4e
 1917 0b4e 06       		.uleb128 0x6
 1918 0b4f 03070000 		.4byte	.LASF164
ARM GAS  C:\Users\jo\AppData\Local\Temp\ccWSatz4.s 			page 35


 1919 0b53 78       		.byte	0x78
 1920 0b54 15       		.byte	0x15
 1921 0b55 78       		.byte	0x78
 1922 0b56 B90B0000 		.4byte	0xbb9
 1923 0b5a 14       		.uleb128 0x14
 1924 0b5b 766D7400 		.ascii	"vmt\000"
 1925 0b5f 15       		.byte	0x15
 1926 0b60 7A       		.byte	0x7a
 1927 0b61 6A0C0000 		.4byte	0xc6a
 1928 0b65 00       		.byte	0
 1929 0b66 07       		.uleb128 0x7
 1930 0b67 3C050000 		.4byte	.LASF165
 1931 0b6b 15       		.byte	0x15
 1932 0b6c 7B       		.byte	0x7b
 1933 0b6d 09080000 		.4byte	0x809
 1934 0b71 04       		.byte	0x4
 1935 0b72 07       		.uleb128 0x7
 1936 0b73 BF000000 		.4byte	.LASF166
 1937 0b77 15       		.byte	0x15
 1938 0b78 7B       		.byte	0x7b
 1939 0b79 380B0000 		.4byte	0xb38
 1940 0b7d 08       		.byte	0x8
 1941 0b7e 07       		.uleb128 0x7
 1942 0b7f F1070000 		.4byte	.LASF167
 1943 0b83 15       		.byte	0x15
 1944 0b84 7B       		.byte	0x7b
 1945 0b85 B4080000 		.4byte	0x8b4
 1946 0b89 0C       		.byte	0xc
 1947 0b8a 07       		.uleb128 0x7
 1948 0b8b A3010000 		.4byte	.LASF168
 1949 0b8f 15       		.byte	0x15
 1950 0b90 7B       		.byte	0x7b
 1951 0b91 BF080000 		.4byte	0x8bf
 1952 0b95 30       		.byte	0x30
 1953 0b96 14       		.uleb128 0x14
 1954 0b97 696200   		.ascii	"ib\000"
 1955 0b9a 15       		.byte	0x15
 1956 0b9b 7B       		.byte	0x7b
 1957 0b9c 750C0000 		.4byte	0xc75
 1958 0ba0 54       		.byte	0x54
 1959 0ba1 14       		.uleb128 0x14
 1960 0ba2 6F6200   		.ascii	"ob\000"
 1961 0ba5 15       		.byte	0x15
 1962 0ba6 7B       		.byte	0x7b
 1963 0ba7 750C0000 		.4byte	0xc75
 1964 0bab 64       		.byte	0x64
 1965 0bac 07       		.uleb128 0x7
 1966 0bad BC010000 		.4byte	.LASF169
 1967 0bb1 15       		.byte	0x15
 1968 0bb2 7B       		.byte	0x7b
 1969 0bb3 850C0000 		.4byte	0xc85
 1970 0bb7 74       		.byte	0x74
 1971 0bb8 00       		.byte	0
 1972 0bb9 15       		.uleb128 0x15
 1973 0bba 0C       		.byte	0xc
 1974 0bbb 16       		.byte	0x16
 1975 0bbc D7       		.byte	0xd7
ARM GAS  C:\Users\jo\AppData\Local\Temp\ccWSatz4.s 			page 36


 1976 0bbd F20B0000 		.4byte	0xbf2
 1977 0bc1 07       		.uleb128 0x7
 1978 0bc2 30030000 		.4byte	.LASF170
 1979 0bc6 16       		.byte	0x16
 1980 0bc7 DB       		.byte	0xdb
 1981 0bc8 CE000000 		.4byte	0xce
 1982 0bcc 00       		.byte	0
 1983 0bcd 14       		.uleb128 0x14
 1984 0bce 63723100 		.ascii	"cr1\000"
 1985 0bd2 16       		.byte	0x16
 1986 0bd3 E0       		.byte	0xe0
 1987 0bd4 B8000000 		.4byte	0xb8
 1988 0bd8 04       		.byte	0x4
 1989 0bd9 14       		.uleb128 0x14
 1990 0bda 63723200 		.ascii	"cr2\000"
 1991 0bde 16       		.byte	0x16
 1992 0bdf E4       		.byte	0xe4
 1993 0be0 B8000000 		.4byte	0xb8
 1994 0be4 06       		.byte	0x6
 1995 0be5 14       		.uleb128 0x14
 1996 0be6 63723300 		.ascii	"cr3\000"
 1997 0bea 16       		.byte	0x16
 1998 0beb E8       		.byte	0xe8
 1999 0bec B8000000 		.4byte	0xb8
 2000 0bf0 08       		.byte	0x8
 2001 0bf1 00       		.byte	0
 2002 0bf2 03       		.uleb128 0x3
 2003 0bf3 48000000 		.4byte	.LASF171
 2004 0bf7 16       		.byte	0x16
 2005 0bf8 E9       		.byte	0xe9
 2006 0bf9 B90B0000 		.4byte	0xbb9
 2007 0bfd 06       		.uleb128 0x6
 2008 0bfe EB040000 		.4byte	.LASF172
 2009 0c02 20       		.byte	0x20
 2010 0c03 15       		.byte	0x15
 2011 0c04 6D       		.byte	0x6d
 2012 0c05 6A0C0000 		.4byte	0xc6a
 2013 0c09 07       		.uleb128 0x7
 2014 0c0a 9B000000 		.4byte	.LASF145
 2015 0c0e 15       		.byte	0x15
 2016 0c0f 6E       		.byte	0x6e
 2017 0c10 2B090000 		.4byte	0x92b
 2018 0c14 00       		.byte	0
 2019 0c15 07       		.uleb128 0x7
 2020 0c16 54050000 		.4byte	.LASF146
 2021 0c1a 15       		.byte	0x15
 2022 0c1b 6E       		.byte	0x6e
 2023 0c1c 4A090000 		.4byte	0x94a
 2024 0c20 04       		.byte	0x4
 2025 0c21 14       		.uleb128 0x14
 2026 0c22 70757400 		.ascii	"put\000"
 2027 0c26 15       		.byte	0x15
 2028 0c27 6E       		.byte	0x6e
 2029 0c28 64090000 		.4byte	0x964
 2030 0c2c 08       		.byte	0x8
 2031 0c2d 14       		.uleb128 0x14
 2032 0c2e 67657400 		.ascii	"get\000"
ARM GAS  C:\Users\jo\AppData\Local\Temp\ccWSatz4.s 			page 37


 2033 0c32 15       		.byte	0x15
 2034 0c33 6E       		.byte	0x6e
 2035 0c34 79090000 		.4byte	0x979
 2036 0c38 0C       		.byte	0xc
 2037 0c39 07       		.uleb128 0x7
 2038 0c3a CE000000 		.4byte	.LASF173
 2039 0c3e 15       		.byte	0x15
 2040 0c3f 6E       		.byte	0x6e
 2041 0c40 C3090000 		.4byte	0x9c3
 2042 0c44 10       		.byte	0x10
 2043 0c45 07       		.uleb128 0x7
 2044 0c46 A9020000 		.4byte	.LASF174
 2045 0c4a 15       		.byte	0x15
 2046 0c4b 6E       		.byte	0x6e
 2047 0c4c DD090000 		.4byte	0x9dd
 2048 0c50 14       		.byte	0x14
 2049 0c51 07       		.uleb128 0x7
 2050 0c52 55000000 		.4byte	.LASF175
 2051 0c56 15       		.byte	0x15
 2052 0c57 6E       		.byte	0x6e
 2053 0c58 010A0000 		.4byte	0xa01
 2054 0c5c 18       		.byte	0x18
 2055 0c5d 07       		.uleb128 0x7
 2056 0c5e 3C010000 		.4byte	.LASF176
 2057 0c62 15       		.byte	0x15
 2058 0c63 6E       		.byte	0x6e
 2059 0c64 250A0000 		.4byte	0xa25
 2060 0c68 1C       		.byte	0x1c
 2061 0c69 00       		.byte	0
 2062 0c6a 0A       		.uleb128 0xa
 2063 0c6b 04       		.byte	0x4
 2064 0c6c 700C0000 		.4byte	0xc70
 2065 0c70 1B       		.uleb128 0x1b
 2066 0c71 FD0B0000 		.4byte	0xbfd
 2067 0c75 17       		.uleb128 0x17
 2068 0c76 AD000000 		.4byte	0xad
 2069 0c7a 850C0000 		.4byte	0xc85
 2070 0c7e 18       		.uleb128 0x18
 2071 0c7f A9040000 		.4byte	0x4a9
 2072 0c83 0F       		.byte	0xf
 2073 0c84 00       		.byte	0
 2074 0c85 0A       		.uleb128 0xa
 2075 0c86 04       		.byte	0x4
 2076 0c87 13050000 		.4byte	0x513
 2077 0c8b 17       		.uleb128 0x17
 2078 0c8c 2A050000 		.4byte	0x52a
 2079 0c90 9B0C0000 		.4byte	0xc9b
 2080 0c94 18       		.uleb128 0x18
 2081 0c95 A9040000 		.4byte	0x4a9
 2082 0c99 29       		.byte	0x29
 2083 0c9a 00       		.byte	0
 2084 0c9b 06       		.uleb128 0x6
 2085 0c9c 4F090000 		.4byte	.LASF177
 2086 0ca0 10       		.byte	0x10
 2087 0ca1 17       		.byte	0x17
 2088 0ca2 2E       		.byte	0x2e
 2089 0ca3 D80C0000 		.4byte	0xcd8
ARM GAS  C:\Users\jo\AppData\Local\Temp\ccWSatz4.s 			page 38


 2090 0ca7 07       		.uleb128 0x7
 2091 0ca8 9B000000 		.4byte	.LASF145
 2092 0cac 17       		.byte	0x17
 2093 0cad 2F       		.byte	0x2f
 2094 0cae 2B090000 		.4byte	0x92b
 2095 0cb2 00       		.byte	0
 2096 0cb3 07       		.uleb128 0x7
 2097 0cb4 54050000 		.4byte	.LASF146
 2098 0cb8 17       		.byte	0x17
 2099 0cb9 2F       		.byte	0x2f
 2100 0cba 4A090000 		.4byte	0x94a
 2101 0cbe 04       		.byte	0x4
 2102 0cbf 14       		.uleb128 0x14
 2103 0cc0 70757400 		.ascii	"put\000"
 2104 0cc4 17       		.byte	0x17
 2105 0cc5 2F       		.byte	0x2f
 2106 0cc6 64090000 		.4byte	0x964
 2107 0cca 08       		.byte	0x8
 2108 0ccb 14       		.uleb128 0x14
 2109 0ccc 67657400 		.ascii	"get\000"
 2110 0cd0 17       		.byte	0x17
 2111 0cd1 2F       		.byte	0x2f
 2112 0cd2 79090000 		.4byte	0x979
 2113 0cd6 0C       		.byte	0xc
 2114 0cd7 00       		.byte	0
 2115 0cd8 15       		.uleb128 0x15
 2116 0cd9 04       		.byte	0x4
 2117 0cda 17       		.byte	0x17
 2118 0cdb 39       		.byte	0x39
 2119 0cdc ED0C0000 		.4byte	0xced
 2120 0ce0 14       		.uleb128 0x14
 2121 0ce1 766D7400 		.ascii	"vmt\000"
 2122 0ce5 17       		.byte	0x17
 2123 0ce6 3B       		.byte	0x3b
 2124 0ce7 ED0C0000 		.4byte	0xced
 2125 0ceb 00       		.byte	0
 2126 0cec 00       		.byte	0
 2127 0ced 0A       		.uleb128 0xa
 2128 0cee 04       		.byte	0x4
 2129 0cef F30C0000 		.4byte	0xcf3
 2130 0cf3 1B       		.uleb128 0x1b
 2131 0cf4 9B0C0000 		.4byte	0xc9b
 2132 0cf8 03       		.uleb128 0x3
 2133 0cf9 F4020000 		.4byte	.LASF178
 2134 0cfd 17       		.byte	0x17
 2135 0cfe 3D       		.byte	0x3d
 2136 0cff D80C0000 		.4byte	0xcd8
 2137 0d03 03       		.uleb128 0x3
 2138 0d04 76020000 		.4byte	.LASF179
 2139 0d08 18       		.byte	0x18
 2140 0d09 28       		.byte	0x28
 2141 0d0a 0E0D0000 		.4byte	0xd0e
 2142 0d0e 06       		.uleb128 0x6
 2143 0d0f A9030000 		.4byte	.LASF180
 2144 0d13 04       		.byte	0x4
 2145 0d14 19       		.byte	0x19
 2146 0d15 00       		.byte	0
ARM GAS  C:\Users\jo\AppData\Local\Temp\ccWSatz4.s 			page 39


 2147 0d16 250D0000 		.4byte	0xd25
 2148 0d1a 20       		.uleb128 0x20
 2149 0d1b DF030000 		.4byte	.LASF181
 2150 0d1f 48030000 		.4byte	0x348
 2151 0d23 00       		.byte	0
 2152 0d24 00       		.byte	0
 2153 0d25 03       		.uleb128 0x3
 2154 0d26 96040000 		.4byte	.LASF182
 2155 0d2a 18       		.byte	0x18
 2156 0d2b 62       		.byte	0x62
 2157 0d2c 030D0000 		.4byte	0xd03
 2158 0d30 1E       		.uleb128 0x1e
 2159 0d31 01       		.byte	0x1
 2160 0d32 1A       		.byte	0x1a
 2161 0d33 2B       		.byte	0x2b
 2162 0d34 8D0D0000 		.4byte	0xd8d
 2163 0d38 1F       		.uleb128 0x1f
 2164 0d39 78060000 		.4byte	.LASF183
 2165 0d3d 00       		.sleb128 0
 2166 0d3e 1F       		.uleb128 0x1f
 2167 0d3f 41030000 		.4byte	.LASF184
 2168 0d43 01       		.sleb128 1
 2169 0d44 1F       		.uleb128 0x1f
 2170 0d45 480A0000 		.4byte	.LASF185
 2171 0d49 02       		.sleb128 2
 2172 0d4a 1F       		.uleb128 0x1f
 2173 0d4b 8D060000 		.4byte	.LASF186
 2174 0d4f 03       		.sleb128 3
 2175 0d50 1F       		.uleb128 0x1f
 2176 0d51 06060000 		.4byte	.LASF187
 2177 0d55 04       		.sleb128 4
 2178 0d56 1F       		.uleb128 0x1f
 2179 0d57 52060000 		.4byte	.LASF188
 2180 0d5b 05       		.sleb128 5
 2181 0d5c 1F       		.uleb128 0x1f
 2182 0d5d 51020000 		.4byte	.LASF189
 2183 0d61 06       		.sleb128 6
 2184 0d62 1F       		.uleb128 0x1f
 2185 0d63 11030000 		.4byte	.LASF190
 2186 0d67 07       		.sleb128 7
 2187 0d68 1F       		.uleb128 0x1f
 2188 0d69 FF070000 		.4byte	.LASF191
 2189 0d6d 08       		.sleb128 8
 2190 0d6e 1F       		.uleb128 0x1f
 2191 0d6f C7060000 		.4byte	.LASF192
 2192 0d73 09       		.sleb128 9
 2193 0d74 1F       		.uleb128 0x1f
 2194 0d75 8A000000 		.4byte	.LASF193
 2195 0d79 0A       		.sleb128 10
 2196 0d7a 1F       		.uleb128 0x1f
 2197 0d7b BE070000 		.4byte	.LASF194
 2198 0d7f 0B       		.sleb128 11
 2199 0d80 1F       		.uleb128 0x1f
 2200 0d81 C2010000 		.4byte	.LASF195
 2201 0d85 0C       		.sleb128 12
 2202 0d86 1F       		.uleb128 0x1f
 2203 0d87 10070000 		.4byte	.LASF196
ARM GAS  C:\Users\jo\AppData\Local\Temp\ccWSatz4.s 			page 40


 2204 0d8b 0D       		.sleb128 13
 2205 0d8c 00       		.byte	0
 2206 0d8d 21       		.uleb128 0x21
 2207 0d8e E3000000 		.4byte	.LASF200
 2208 0d92 01       		.byte	0x1
 2209 0d93 2A       		.byte	0x2a
 2210 0d94 01       		.byte	0x1
 2211 0d95 BB0D0000 		.4byte	0xdbb
 2212 0d99 22       		.uleb128 0x22
 2213 0d9a 02040000 		.4byte	.LASF197
 2214 0d9e 01       		.byte	0x1
 2215 0d9f 2B       		.byte	0x2b
 2216 0da0 BB0D0000 		.4byte	0xdbb
 2217 0da4 22       		.uleb128 0x22
 2218 0da5 B4070000 		.4byte	.LASF198
 2219 0da9 01       		.byte	0x1
 2220 0daa 2C       		.byte	0x2c
 2221 0dab BB0D0000 		.4byte	0xdbb
 2222 0daf 22       		.uleb128 0x22
 2223 0db0 32020000 		.4byte	.LASF199
 2224 0db4 01       		.byte	0x1
 2225 0db5 2D       		.byte	0x2d
 2226 0db6 BB0D0000 		.4byte	0xdbb
 2227 0dba 00       		.byte	0
 2228 0dbb 0A       		.uleb128 0xa
 2229 0dbc 04       		.byte	0x4
 2230 0dbd C10D0000 		.4byte	0xdc1
 2231 0dc1 05       		.uleb128 0x5
 2232 0dc2 37000000 		.4byte	0x37
 2233 0dc6 21       		.uleb128 0x21
 2234 0dc7 2C060000 		.4byte	.LASF201
 2235 0dcb 01       		.byte	0x1
 2236 0dcc 37       		.byte	0x37
 2237 0dcd 01       		.byte	0x1
 2238 0dce F30D0000 		.4byte	0xdf3
 2239 0dd2 23       		.uleb128 0x23
 2240 0dd3 636800   		.ascii	"ch\000"
 2241 0dd6 01       		.byte	0x1
 2242 0dd7 37       		.byte	0x37
 2243 0dd8 52070000 		.4byte	0x752
 2244 0ddc 22       		.uleb128 0x22
 2245 0ddd F3050000 		.4byte	.LASF202
 2246 0de1 01       		.byte	0x1
 2247 0de2 38       		.byte	0x38
 2248 0de3 BB0D0000 		.4byte	0xdbb
 2249 0de7 22       		.uleb128 0x22
 2250 0de8 50070000 		.4byte	.LASF203
 2251 0dec 01       		.byte	0x1
 2252 0ded 39       		.byte	0x39
 2253 0dee BB0D0000 		.4byte	0xdbb
 2254 0df2 00       		.byte	0
 2255 0df3 21       		.uleb128 0x21
 2256 0df4 6F070000 		.4byte	.LASF204
 2257 0df8 01       		.byte	0x1
 2258 0df9 44       		.byte	0x44
 2259 0dfa 01       		.byte	0x1
 2260 0dfb 0B0E0000 		.4byte	0xe0b
ARM GAS  C:\Users\jo\AppData\Local\Temp\ccWSatz4.s 			page 41


 2261 0dff 24       		.uleb128 0x24
 2262 0e00 B3030000 		.4byte	.LASF205
 2263 0e04 01       		.byte	0x1
 2264 0e05 44       		.byte	0x44
 2265 0e06 170B0000 		.4byte	0xb17
 2266 0e0a 00       		.byte	0
 2267 0e0b 25       		.uleb128 0x25
 2268 0e0c EB020000 		.4byte	.LASF226
 2269 0e10 02       		.byte	0x2
 2270 0e11 45       		.byte	0x45
 2271 0e12 25000000 		.4byte	0x25
 2272 0e16 03       		.byte	0x3
 2273 0e17 480E0000 		.4byte	0xe48
 2274 0e1b 23       		.uleb128 0x23
 2275 0e1c 63687000 		.ascii	"chp\000"
 2276 0e20 02       		.byte	0x2
 2277 0e21 45       		.byte	0x45
 2278 0e22 480E0000 		.4byte	0xe48
 2279 0e26 23       		.uleb128 0x23
 2280 0e27 666D7400 		.ascii	"fmt\000"
 2281 0e2b 02       		.byte	0x2
 2282 0e2c 45       		.byte	0x45
 2283 0e2d 47070000 		.4byte	0x747
 2284 0e31 26       		.uleb128 0x26
 2285 0e32 27       		.uleb128 0x27
 2286 0e33 617000   		.ascii	"ap\000"
 2287 0e36 02       		.byte	0x2
 2288 0e37 46       		.byte	0x46
 2289 0e38 250D0000 		.4byte	0xd25
 2290 0e3c 22       		.uleb128 0x22
 2291 0e3d D3000000 		.4byte	.LASF206
 2292 0e41 02       		.byte	0x2
 2293 0e42 47       		.byte	0x47
 2294 0e43 25000000 		.4byte	0x25
 2295 0e47 00       		.byte	0
 2296 0e48 0A       		.uleb128 0xa
 2297 0e49 04       		.byte	0x4
 2298 0e4a 9F090000 		.4byte	0x99f
 2299 0e4e 28       		.uleb128 0x28
 2300 0e4f 80040000 		.4byte	.LASF227
 2301 0e53 01       		.byte	0x1
 2302 0e54 7D       		.byte	0x7d
 2303 0e55 00000000 		.4byte	.LFB264
 2304 0e59 38000000 		.4byte	.LFE264-.LFB264
 2305 0e5d 01       		.uleb128 0x1
 2306 0e5e 9C       		.byte	0x9c
 2307 0e5f A60E0000 		.4byte	0xea6
 2308 0e63 29       		.uleb128 0x29
 2309 0e64 61726700 		.ascii	"arg\000"
 2310 0e68 01       		.byte	0x1
 2311 0e69 7D       		.byte	0x7d
 2312 0e6a 48030000 		.4byte	0x348
 2313 0e6e 00000000 		.4byte	.LLST0
 2314 0e72 2A       		.uleb128 0x2a
 2315 0e73 1A000000 		.4byte	.LVL2
 2316 0e77 16120000 		.4byte	0x1216
 2317 0e7b 870E0000 		.4byte	0xe87
ARM GAS  C:\Users\jo\AppData\Local\Temp\ccWSatz4.s 			page 42


 2318 0e7f 2B       		.uleb128 0x2b
 2319 0e80 01       		.uleb128 0x1
 2320 0e81 50       		.byte	0x50
 2321 0e82 03       		.uleb128 0x3
 2322 0e83 0A       		.byte	0xa
 2323 0e84 50C3     		.2byte	0xc350
 2324 0e86 00       		.byte	0
 2325 0e87 2A       		.uleb128 0x2a
 2326 0e88 24000000 		.4byte	.LVL3
 2327 0e8c 16120000 		.4byte	0x1216
 2328 0e90 9C0E0000 		.4byte	0xe9c
 2329 0e94 2B       		.uleb128 0x2b
 2330 0e95 01       		.uleb128 0x1
 2331 0e96 50       		.byte	0x50
 2332 0e97 03       		.uleb128 0x3
 2333 0e98 0A       		.byte	0xa
 2334 0e99 50C3     		.2byte	0xc350
 2335 0e9b 00       		.byte	0
 2336 0e9c 2C       		.uleb128 0x2c
 2337 0e9d 28000000 		.4byte	.LVL4
 2338 0ea1 27120000 		.4byte	0x1227
 2339 0ea5 00       		.byte	0
 2340 0ea6 2D       		.uleb128 0x2d
 2341 0ea7 0B0E0000 		.4byte	0xe0b
 2342 0eab 00000000 		.4byte	.LFB269
 2343 0eaf 28000000 		.4byte	.LFE269-.LFB269
 2344 0eb3 01       		.uleb128 0x1
 2345 0eb4 9C       		.byte	0x9c
 2346 0eb5 150F0000 		.4byte	0xf15
 2347 0eb9 2E       		.uleb128 0x2e
 2348 0eba 1B0E0000 		.4byte	0xe1b
 2349 0ebe 21000000 		.4byte	.LLST1
 2350 0ec2 2F       		.uleb128 0x2f
 2351 0ec3 260E0000 		.4byte	0xe26
 2352 0ec7 02       		.uleb128 0x2
 2353 0ec8 91       		.byte	0x91
 2354 0ec9 74       		.sleb128 -12
 2355 0eca 26       		.uleb128 0x26
 2356 0ecb 30       		.uleb128 0x30
 2357 0ecc 320E0000 		.4byte	0xe32
 2358 0ed0 02       		.uleb128 0x2
 2359 0ed1 91       		.byte	0x91
 2360 0ed2 6C       		.sleb128 -20
 2361 0ed3 30       		.uleb128 0x30
 2362 0ed4 3C0E0000 		.4byte	0xe3c
 2363 0ed8 01       		.uleb128 0x1
 2364 0ed9 50       		.byte	0x50
 2365 0eda 2F       		.uleb128 0x2f
 2366 0edb 260E0000 		.4byte	0xe26
 2367 0edf 06       		.uleb128 0x6
 2368 0ee0 03       		.byte	0x3
 2369 0ee1 08000000 		.4byte	.LC1
 2370 0ee5 9F       		.byte	0x9f
 2371 0ee6 2F       		.uleb128 0x2f
 2372 0ee7 1B0E0000 		.4byte	0xe1b
 2373 0eeb 06       		.uleb128 0x6
 2374 0eec 03       		.byte	0x3
ARM GAS  C:\Users\jo\AppData\Local\Temp\ccWSatz4.s 			page 43


 2375 0eed 00000000 		.4byte	itm_port
 2376 0ef1 9F       		.byte	0x9f
 2377 0ef2 31       		.uleb128 0x31
 2378 0ef3 14000000 		.4byte	.LVL7
 2379 0ef7 2F120000 		.4byte	0x122f
 2380 0efb 2B       		.uleb128 0x2b
 2381 0efc 01       		.uleb128 0x1
 2382 0efd 52       		.byte	0x52
 2383 0efe 02       		.uleb128 0x2
 2384 0eff 91       		.byte	0x91
 2385 0f00 60       		.sleb128 -32
 2386 0f01 2B       		.uleb128 0x2b
 2387 0f02 01       		.uleb128 0x1
 2388 0f03 51       		.byte	0x51
 2389 0f04 05       		.uleb128 0x5
 2390 0f05 03       		.byte	0x3
 2391 0f06 08000000 		.4byte	.LC1
 2392 0f0a 2B       		.uleb128 0x2b
 2393 0f0b 01       		.uleb128 0x1
 2394 0f0c 50       		.byte	0x50
 2395 0f0d 05       		.uleb128 0x5
 2396 0f0e 03       		.byte	0x3
 2397 0f0f 00000000 		.4byte	.LANCHOR0
 2398 0f13 00       		.byte	0
 2399 0f14 00       		.byte	0
 2400 0f15 2D       		.uleb128 0x2d
 2401 0f16 8D0D0000 		.4byte	0xd8d
 2402 0f1a 00000000 		.4byte	.LFB260
 2403 0f1e 34000000 		.4byte	.LFE260-.LFB260
 2404 0f22 01       		.uleb128 0x1
 2405 0f23 9C       		.byte	0x9c
 2406 0f24 600F0000 		.4byte	0xf60
 2407 0f28 32       		.uleb128 0x32
 2408 0f29 990D0000 		.4byte	0xd99
 2409 0f2d 809C8080 		.sleb128 -536867328
 2409      7E
 2410 0f32 32       		.uleb128 0x32
 2411 0f33 A40D0000 		.4byte	0xda4
 2412 0f37 F0DB8380 		.sleb128 -536810000
 2412      7E
 2413 0f3c 32       		.uleb128 0x32
 2414 0f3d AF0D0000 		.4byte	0xdaf
 2415 0f41 84C09080 		.sleb128 -536600572
 2415      7E
 2416 0f46 33       		.uleb128 0x33
 2417 0f47 12000000 		.4byte	.LBB6
 2418 0f4b 22000000 		.4byte	.LBE6-.LBB6
 2419 0f4f 34       		.uleb128 0x34
 2420 0f50 990D0000 		.4byte	0xd99
 2421 0f54 34       		.uleb128 0x34
 2422 0f55 A40D0000 		.4byte	0xda4
 2423 0f59 34       		.uleb128 0x34
 2424 0f5a AF0D0000 		.4byte	0xdaf
 2425 0f5e 00       		.byte	0
 2426 0f5f 00       		.byte	0
 2427 0f60 2D       		.uleb128 0x2d
 2428 0f61 C60D0000 		.4byte	0xdc6
ARM GAS  C:\Users\jo\AppData\Local\Temp\ccWSatz4.s 			page 44


 2429 0f65 00000000 		.4byte	.LFB261
 2430 0f69 28000000 		.4byte	.LFE261-.LFB261
 2431 0f6d 01       		.uleb128 0x1
 2432 0f6e 9C       		.byte	0x9c
 2433 0f6f BC0F0000 		.4byte	0xfbc
 2434 0f73 2F       		.uleb128 0x2f
 2435 0f74 D20D0000 		.4byte	0xdd2
 2436 0f78 01       		.uleb128 0x1
 2437 0f79 50       		.byte	0x50
 2438 0f7a 32       		.uleb128 0x32
 2439 0f7b DC0D0000 		.4byte	0xddc
 2440 0f7f 80808080 		.sleb128 -536870912
 2440      7E
 2441 0f84 32       		.uleb128 0x32
 2442 0f85 E70D0000 		.4byte	0xde7
 2443 0f89 FCDB8380 		.sleb128 -536809988
 2443      7E
 2444 0f8e 33       		.uleb128 0x33
 2445 0f8f 0E000000 		.4byte	.LBB9
 2446 0f93 1A000000 		.4byte	.LBE9-.LBB9
 2447 0f97 35       		.uleb128 0x35
 2448 0f98 D20D0000 		.4byte	0xdd2
 2449 0f9c 33       		.uleb128 0x33
 2450 0f9d 0E000000 		.4byte	.LBB10
 2451 0fa1 1A000000 		.4byte	.LBE10-.LBB10
 2452 0fa5 32       		.uleb128 0x32
 2453 0fa6 DC0D0000 		.4byte	0xddc
 2454 0faa 80808080 		.sleb128 -536870912
 2454      7E
 2455 0faf 32       		.uleb128 0x32
 2456 0fb0 E70D0000 		.4byte	0xde7
 2457 0fb4 FCDB8380 		.sleb128 -536809988
 2457      7E
 2458 0fb9 00       		.byte	0
 2459 0fba 00       		.byte	0
 2460 0fbb 00       		.byte	0
 2461 0fbc 2D       		.uleb128 0x2d
 2462 0fbd F30D0000 		.4byte	0xdf3
 2463 0fc1 00000000 		.4byte	.LFB262
 2464 0fc5 24000000 		.4byte	.LFE262-.LFB262
 2465 0fc9 01       		.uleb128 0x1
 2466 0fca 9C       		.byte	0x9c
 2467 0fcb F50F0000 		.4byte	0xff5
 2468 0fcf 2E       		.uleb128 0x2e
 2469 0fd0 FF0D0000 		.4byte	0xdff
 2470 0fd4 42000000 		.4byte	.LLST2
 2471 0fd8 33       		.uleb128 0x33
 2472 0fd9 0A000000 		.4byte	.LBB13
 2473 0fdd 1A000000 		.4byte	.LBE13-.LBB13
 2474 0fe1 2E       		.uleb128 0x2e
 2475 0fe2 FF0D0000 		.4byte	0xdff
 2476 0fe6 79000000 		.4byte	.LLST3
 2477 0fea 2C       		.uleb128 0x2c
 2478 0feb 12000000 		.4byte	.LVL14
 2479 0fef C60D0000 		.4byte	0xdc6
 2480 0ff3 00       		.byte	0
 2481 0ff4 00       		.byte	0
ARM GAS  C:\Users\jo\AppData\Local\Temp\ccWSatz4.s 			page 45


 2482 0ff5 36       		.uleb128 0x36
 2483 0ff6 45060000 		.4byte	.LASF207
 2484 0ffa 01       		.byte	0x1
 2485 0ffb 51       		.byte	0x51
 2486 0ffc 25000000 		.4byte	0x25
 2487 1000 00000000 		.4byte	.LFB263
 2488 1004 0E000000 		.4byte	.LFE263-.LFB263
 2489 1008 01       		.uleb128 0x1
 2490 1009 9C       		.byte	0x9c
 2491 100a 2D100000 		.4byte	0x102d
 2492 100e 29       		.uleb128 0x29
 2493 100f 636800   		.ascii	"ch\000"
 2494 1012 01       		.byte	0x1
 2495 1013 51       		.byte	0x51
 2496 1014 25000000 		.4byte	0x25
 2497 1018 A4000000 		.4byte	.LLST4
 2498 101c 31       		.uleb128 0x31
 2499 101d 0A000000 		.4byte	.LVL20
 2500 1021 C60D0000 		.4byte	0xdc6
 2501 1025 2B       		.uleb128 0x2b
 2502 1026 01       		.uleb128 0x1
 2503 1027 50       		.byte	0x50
 2504 1028 02       		.uleb128 0x2
 2505 1029 74       		.byte	0x74
 2506 102a 00       		.sleb128 0
 2507 102b 00       		.byte	0
 2508 102c 00       		.byte	0
 2509 102d 36       		.uleb128 0x36
 2510 102e 84010000 		.4byte	.LASF208
 2511 1032 01       		.byte	0x1
 2512 1033 8D       		.byte	0x8d
 2513 1034 25000000 		.4byte	0x25
 2514 1038 00000000 		.4byte	.LFB265
 2515 103c C4000000 		.4byte	.LFE265-.LFB265
 2516 1040 01       		.uleb128 0x1
 2517 1041 9C       		.byte	0x9c
 2518 1042 88110000 		.4byte	0x1188
 2519 1046 37       		.uleb128 0x37
 2520 1047 F30D0000 		.4byte	0xdf3
 2521 104b 08000000 		.4byte	.LBB19
 2522 104f 00000000 		.4byte	.Ldebug_ranges0+0
 2523 1053 01       		.byte	0x1
 2524 1054 90       		.byte	0x90
 2525 1055 82100000 		.4byte	0x1082
 2526 1059 2F       		.uleb128 0x2f
 2527 105a FF0D0000 		.4byte	0xdff
 2528 105e 06       		.uleb128 0x6
 2529 105f 03       		.byte	0x3
 2530 1060 0C000000 		.4byte	.LC2
 2531 1064 9F       		.byte	0x9f
 2532 1065 33       		.uleb128 0x33
 2533 1066 80000000 		.4byte	.LBB21
 2534 106a 44000000 		.4byte	.LBE21-.LBB21
 2535 106e 2E       		.uleb128 0x2e
 2536 106f FF0D0000 		.4byte	0xdff
 2537 1073 C2000000 		.4byte	.LLST5
 2538 1077 2C       		.uleb128 0x2c
ARM GAS  C:\Users\jo\AppData\Local\Temp\ccWSatz4.s 			page 46


 2539 1078 84000000 		.4byte	.LVL33
 2540 107c C60D0000 		.4byte	0xdc6
 2541 1080 00       		.byte	0
 2542 1081 00       		.byte	0
 2543 1082 2C       		.uleb128 0x2c
 2544 1083 08000000 		.4byte	.LVL21
 2545 1087 8D0D0000 		.4byte	0xd8d
 2546 108b 2A       		.uleb128 0x2a
 2547 108c 18000000 		.4byte	.LVL22
 2548 1090 4E120000 		.4byte	0x124e
 2549 1094 A2100000 		.4byte	0x10a2
 2550 1098 2B       		.uleb128 0x2b
 2551 1099 01       		.uleb128 0x1
 2552 109a 50       		.byte	0x50
 2553 109b 05       		.uleb128 0x5
 2554 109c 03       		.byte	0x3
 2555 109d 00000000 		.4byte	.LANCHOR0
 2556 10a1 00       		.byte	0
 2557 10a2 2A       		.uleb128 0x2a
 2558 10a3 24000000 		.4byte	.LVL23
 2559 10a7 A60E0000 		.4byte	0xea6
 2560 10ab CB100000 		.4byte	0x10cb
 2561 10af 2B       		.uleb128 0x2b
 2562 10b0 01       		.uleb128 0x1
 2563 10b1 52       		.byte	0x52
 2564 10b2 05       		.uleb128 0x5
 2565 10b3 03       		.byte	0x3
 2566 10b4 1C000000 		.4byte	.LC3
 2567 10b8 2B       		.uleb128 0x2b
 2568 10b9 01       		.uleb128 0x1
 2569 10ba 51       		.byte	0x51
 2570 10bb 05       		.uleb128 0x5
 2571 10bc 03       		.byte	0x3
 2572 10bd 08000000 		.4byte	.LC1
 2573 10c1 2B       		.uleb128 0x2b
 2574 10c2 01       		.uleb128 0x1
 2575 10c3 50       		.byte	0x50
 2576 10c4 05       		.uleb128 0x5
 2577 10c5 03       		.byte	0x3
 2578 10c6 00000000 		.4byte	.LANCHOR0
 2579 10ca 00       		.byte	0
 2580 10cb 2C       		.uleb128 0x2c
 2581 10cc 28000000 		.4byte	.LVL24
 2582 10d0 65120000 		.4byte	0x1265
 2583 10d4 2C       		.uleb128 0x2c
 2584 10d5 2C000000 		.4byte	.LVL25
 2585 10d9 6C120000 		.4byte	0x126c
 2586 10dd 2A       		.uleb128 0x2a
 2587 10de 34000000 		.4byte	.LVL26
 2588 10e2 74120000 		.4byte	0x1274
 2589 10e6 F1100000 		.4byte	0x10f1
 2590 10ea 2B       		.uleb128 0x2b
 2591 10eb 01       		.uleb128 0x1
 2592 10ec 51       		.byte	0x51
 2593 10ed 02       		.uleb128 0x2
 2594 10ee 75       		.byte	0x75
 2595 10ef 00       		.sleb128 0
ARM GAS  C:\Users\jo\AppData\Local\Temp\ccWSatz4.s 			page 47


 2596 10f0 00       		.byte	0
 2597 10f1 2A       		.uleb128 0x2a
 2598 10f2 44000000 		.4byte	.LVL27
 2599 10f6 9C120000 		.4byte	0x129c
 2600 10fa 25110000 		.4byte	0x1125
 2601 10fe 2B       		.uleb128 0x2b
 2602 10ff 01       		.uleb128 0x1
 2603 1100 53       		.byte	0x53
 2604 1101 05       		.uleb128 0x5
 2605 1102 03       		.byte	0x3
 2606 1103 00000000 		.4byte	Thread1
 2607 1107 2B       		.uleb128 0x2b
 2608 1108 01       		.uleb128 0x1
 2609 1109 52       		.byte	0x52
 2610 110a 02       		.uleb128 0x2
 2611 110b 08       		.byte	0x8
 2612 110c 40       		.byte	0x40
 2613 110d 2B       		.uleb128 0x2b
 2614 110e 01       		.uleb128 0x1
 2615 110f 51       		.byte	0x51
 2616 1110 03       		.uleb128 0x3
 2617 1111 0A       		.byte	0xa
 2618 1112 5001     		.2byte	0x150
 2619 1114 2B       		.uleb128 0x2b
 2620 1115 01       		.uleb128 0x1
 2621 1116 50       		.byte	0x50
 2622 1117 05       		.uleb128 0x5
 2623 1118 03       		.byte	0x3
 2624 1119 00000000 		.4byte	.LANCHOR2
 2625 111d 2B       		.uleb128 0x2b
 2626 111e 02       		.uleb128 0x2
 2627 111f 7D       		.byte	0x7d
 2628 1120 00       		.sleb128 0
 2629 1121 02       		.uleb128 0x2
 2630 1122 75       		.byte	0x75
 2631 1123 00       		.sleb128 0
 2632 1124 00       		.byte	0
 2633 1125 2A       		.uleb128 0x2a
 2634 1126 54000000 		.4byte	.LVL28
 2635 112a 9C120000 		.4byte	0x129c
 2636 112e 47110000 		.4byte	0x1147
 2637 1132 2B       		.uleb128 0x2b
 2638 1133 01       		.uleb128 0x1
 2639 1134 52       		.byte	0x52
 2640 1135 02       		.uleb128 0x2
 2641 1136 08       		.byte	0x8
 2642 1137 41       		.byte	0x41
 2643 1138 2B       		.uleb128 0x2b
 2644 1139 01       		.uleb128 0x1
 2645 113a 51       		.byte	0x51
 2646 113b 03       		.uleb128 0x3
 2647 113c 0A       		.byte	0xa
 2648 113d 1003     		.2byte	0x310
 2649 113f 2B       		.uleb128 0x2b
 2650 1140 02       		.uleb128 0x2
 2651 1141 7D       		.byte	0x7d
 2652 1142 00       		.sleb128 0
ARM GAS  C:\Users\jo\AppData\Local\Temp\ccWSatz4.s 			page 48


 2653 1143 02       		.uleb128 0x2
 2654 1144 75       		.byte	0x75
 2655 1145 00       		.sleb128 0
 2656 1146 00       		.byte	0
 2657 1147 2A       		.uleb128 0x2a
 2658 1148 64000000 		.4byte	.LVL29
 2659 114c 9C120000 		.4byte	0x129c
 2660 1150 69110000 		.4byte	0x1169
 2661 1154 2B       		.uleb128 0x2b
 2662 1155 01       		.uleb128 0x1
 2663 1156 52       		.byte	0x52
 2664 1157 02       		.uleb128 0x2
 2665 1158 08       		.byte	0x8
 2666 1159 41       		.byte	0x41
 2667 115a 2B       		.uleb128 0x2b
 2668 115b 01       		.uleb128 0x1
 2669 115c 51       		.byte	0x51
 2670 115d 03       		.uleb128 0x3
 2671 115e 0A       		.byte	0xa
 2672 115f D01E     		.2byte	0x1ed0
 2673 1161 2B       		.uleb128 0x2b
 2674 1162 02       		.uleb128 0x2
 2675 1163 7D       		.byte	0x7d
 2676 1164 00       		.sleb128 0
 2677 1165 02       		.uleb128 0x2
 2678 1166 75       		.byte	0x75
 2679 1167 00       		.sleb128 0
 2680 1168 00       		.byte	0
 2681 1169 2A       		.uleb128 0x2a
 2682 116a 6E000000 		.4byte	.LVL30
 2683 116e 16120000 		.4byte	0x1216
 2684 1172 7E110000 		.4byte	0x117e
 2685 1176 2B       		.uleb128 0x2b
 2686 1177 01       		.uleb128 0x1
 2687 1178 50       		.byte	0x50
 2688 1179 03       		.uleb128 0x3
 2689 117a 0A       		.byte	0xa
 2690 117b 50C3     		.2byte	0xc350
 2691 117d 00       		.byte	0
 2692 117e 2C       		.uleb128 0x2c
 2693 117f 7A000000 		.4byte	.LVL31
 2694 1183 C5120000 		.4byte	0x12c5
 2695 1187 00       		.byte	0
 2696 1188 38       		.uleb128 0x38
 2697 1189 23050000 		.4byte	.LASF209
 2698 118d 01       		.byte	0x1
 2699 118e 23       		.byte	0x23
 2700 118f 25000000 		.4byte	0x25
 2701 1193 05       		.uleb128 0x5
 2702 1194 03       		.byte	0x3
 2703 1195 00000000 		.4byte	Debug_ITMDebug
 2704 1199 38       		.uleb128 0x38
 2705 119a 5C0A0000 		.4byte	.LASF210
 2706 119e 01       		.byte	0x1
 2707 119f 7C       		.byte	0x7c
 2708 11a0 8B0C0000 		.4byte	0xc8b
 2709 11a4 05       		.uleb128 0x5
ARM GAS  C:\Users\jo\AppData\Local\Temp\ccWSatz4.s 			page 49


 2710 11a5 03       		.byte	0x3
 2711 11a6 00000000 		.4byte	waThread1
 2712 11aa 39       		.uleb128 0x39
 2713 11ab FB040000 		.4byte	.LASF211
 2714 11af 1B       		.byte	0x1b
 2715 11b0 A706     		.2byte	0x6a7
 2716 11b2 E4000000 		.4byte	0xe4
 2717 11b6 3A       		.uleb128 0x3a
 2718 11b7 636800   		.ascii	"ch\000"
 2719 11ba 08       		.byte	0x8
 2720 11bb 0902     		.2byte	0x209
 2721 11bd 3F040000 		.4byte	0x43f
 2722 11c1 3A       		.uleb128 0x3a
 2723 11c2 53443600 		.ascii	"SD6\000"
 2724 11c6 16       		.byte	0x16
 2725 11c7 1E01     		.2byte	0x11e
 2726 11c9 430B0000 		.4byte	0xb43
 2727 11cd 3B       		.uleb128 0x3b
 2728 11ce 10050000 		.4byte	.LASF212
 2729 11d2 01       		.byte	0x1
 2730 11d3 24       		.byte	0x24
 2731 11d4 F80C0000 		.4byte	0xcf8
 2732 11d8 05       		.uleb128 0x5
 2733 11d9 03       		.byte	0x3
 2734 11da 00000000 		.4byte	itm_port
 2735 11de 17       		.uleb128 0x17
 2736 11df 2A050000 		.4byte	0x52a
 2737 11e3 EE110000 		.4byte	0x11ee
 2738 11e7 18       		.uleb128 0x18
 2739 11e8 A9040000 		.4byte	0x4a9
 2740 11ec 61       		.byte	0x61
 2741 11ed 00       		.byte	0
 2742 11ee 3C       		.uleb128 0x3c
 2743 11ef 8C050000 		.4byte	.LASF213
 2744 11f3 1C       		.byte	0x1c
 2745 11f4 77       		.byte	0x77
 2746 11f5 DE110000 		.4byte	0x11de
 2747 11f9 17       		.uleb128 0x17
 2748 11fa 2A050000 		.4byte	0x52a
 2749 11fe 0A120000 		.4byte	0x120a
 2750 1202 3D       		.uleb128 0x3d
 2751 1203 A9040000 		.4byte	0x4a9
 2752 1207 D903     		.2byte	0x3d9
 2753 1209 00       		.byte	0
 2754 120a 39       		.uleb128 0x39
 2755 120b FE000000 		.4byte	.LASF214
 2756 120f 1D       		.byte	0x1d
 2757 1210 6801     		.2byte	0x168
 2758 1212 F9110000 		.4byte	0x11f9
 2759 1216 3E       		.uleb128 0x3e
 2760 1217 FE020000 		.4byte	.LASF215
 2761 121b 10       		.byte	0x10
 2762 121c 96       		.byte	0x96
 2763 121d 27120000 		.4byte	0x1227
 2764 1221 0D       		.uleb128 0xd
 2765 1222 51010000 		.4byte	0x151
 2766 1226 00       		.byte	0
ARM GAS  C:\Users\jo\AppData\Local\Temp\ccWSatz4.s 			page 50


 2767 1227 3F       		.uleb128 0x3f
 2768 1228 C7030000 		.4byte	.LASF217
 2769 122c 1E       		.byte	0x1e
 2770 122d 1101     		.2byte	0x111
 2771 122f 40       		.uleb128 0x40
 2772 1230 3C040000 		.4byte	.LASF221
 2773 1234 02       		.byte	0x2
 2774 1235 28       		.byte	0x28
 2775 1236 25000000 		.4byte	0x25
 2776 123a 4E120000 		.4byte	0x124e
 2777 123e 0D       		.uleb128 0xd
 2778 123f 480E0000 		.4byte	0xe48
 2779 1243 0D       		.uleb128 0xd
 2780 1244 47070000 		.4byte	0x747
 2781 1248 0D       		.uleb128 0xd
 2782 1249 250D0000 		.4byte	0xd25
 2783 124d 00       		.byte	0
 2784 124e 3E       		.uleb128 0x3e
 2785 124f 7C000000 		.4byte	.LASF216
 2786 1253 17       		.byte	0x17
 2787 1254 46       		.byte	0x46
 2788 1255 5F120000 		.4byte	0x125f
 2789 1259 0D       		.uleb128 0xd
 2790 125a 5F120000 		.4byte	0x125f
 2791 125e 00       		.byte	0
 2792 125f 0A       		.uleb128 0xa
 2793 1260 04       		.byte	0x4
 2794 1261 F80C0000 		.4byte	0xcf8
 2795 1265 41       		.uleb128 0x41
 2796 1266 46040000 		.4byte	.LASF218
 2797 126a 1F       		.byte	0x1f
 2798 126b 99       		.byte	0x99
 2799 126c 3F       		.uleb128 0x3f
 2800 126d 3C090000 		.4byte	.LASF219
 2801 1271 20       		.byte	0x20
 2802 1272 1501     		.2byte	0x115
 2803 1274 42       		.uleb128 0x42
 2804 1275 34040000 		.4byte	.LASF220
 2805 1279 15       		.byte	0x15
 2806 127a 2801     		.2byte	0x128
 2807 127c 8B120000 		.4byte	0x128b
 2808 1280 0D       		.uleb128 0xd
 2809 1281 8B120000 		.4byte	0x128b
 2810 1285 0D       		.uleb128 0xd
 2811 1286 91120000 		.4byte	0x1291
 2812 128a 00       		.byte	0
 2813 128b 0A       		.uleb128 0xa
 2814 128c 04       		.byte	0x4
 2815 128d 430B0000 		.4byte	0xb43
 2816 1291 0A       		.uleb128 0xa
 2817 1292 04       		.byte	0x4
 2818 1293 97120000 		.4byte	0x1297
 2819 1297 1B       		.uleb128 0x1b
 2820 1298 F20B0000 		.4byte	0xbf2
 2821 129c 40       		.uleb128 0x40
 2822 129d AE040000 		.4byte	.LASF222
 2823 12a1 10       		.byte	0x10
ARM GAS  C:\Users\jo\AppData\Local\Temp\ccWSatz4.s 			page 51


 2824 12a2 89       		.byte	0x89
 2825 12a3 6B020000 		.4byte	0x26b
 2826 12a7 C5120000 		.4byte	0x12c5
 2827 12ab 0D       		.uleb128 0xd
 2828 12ac 48030000 		.4byte	0x348
 2829 12b0 0D       		.uleb128 0xd
 2830 12b1 2C000000 		.4byte	0x2c
 2831 12b5 0D       		.uleb128 0xd
 2832 12b6 1A010000 		.4byte	0x11a
 2833 12ba 0D       		.uleb128 0xd
 2834 12bb 7A070000 		.4byte	0x77a
 2835 12bf 0D       		.uleb128 0xd
 2836 12c0 48030000 		.4byte	0x348
 2837 12c4 00       		.byte	0
 2838 12c5 43       		.uleb128 0x43
 2839 12c6 64070000 		.4byte	.LASF228
 2840 12ca 21       		.byte	0x21
 2841 12cb 54       		.byte	0x54
 2842 12cc 0D       		.uleb128 0xd
 2843 12cd 48030000 		.4byte	0x348
 2844 12d1 00       		.byte	0
 2845 12d2 00       		.byte	0
 2846              		.section	.debug_abbrev,"",%progbits
 2847              	.Ldebug_abbrev0:
 2848 0000 01       		.uleb128 0x1
 2849 0001 11       		.uleb128 0x11
 2850 0002 01       		.byte	0x1
 2851 0003 25       		.uleb128 0x25
 2852 0004 0E       		.uleb128 0xe
 2853 0005 13       		.uleb128 0x13
 2854 0006 0B       		.uleb128 0xb
 2855 0007 03       		.uleb128 0x3
 2856 0008 0E       		.uleb128 0xe
 2857 0009 1B       		.uleb128 0x1b
 2858 000a 0E       		.uleb128 0xe
 2859 000b 55       		.uleb128 0x55
 2860 000c 17       		.uleb128 0x17
 2861 000d 11       		.uleb128 0x11
 2862 000e 01       		.uleb128 0x1
 2863 000f 10       		.uleb128 0x10
 2864 0010 17       		.uleb128 0x17
 2865 0011 00       		.byte	0
 2866 0012 00       		.byte	0
 2867 0013 02       		.uleb128 0x2
 2868 0014 24       		.uleb128 0x24
 2869 0015 00       		.byte	0
 2870 0016 0B       		.uleb128 0xb
 2871 0017 0B       		.uleb128 0xb
 2872 0018 3E       		.uleb128 0x3e
 2873 0019 0B       		.uleb128 0xb
 2874 001a 03       		.uleb128 0x3
 2875 001b 08       		.uleb128 0x8
 2876 001c 00       		.byte	0
 2877 001d 00       		.byte	0
 2878 001e 03       		.uleb128 0x3
 2879 001f 16       		.uleb128 0x16
 2880 0020 00       		.byte	0
ARM GAS  C:\Users\jo\AppData\Local\Temp\ccWSatz4.s 			page 52


 2881 0021 03       		.uleb128 0x3
 2882 0022 0E       		.uleb128 0xe
 2883 0023 3A       		.uleb128 0x3a
 2884 0024 0B       		.uleb128 0xb
 2885 0025 3B       		.uleb128 0x3b
 2886 0026 0B       		.uleb128 0xb
 2887 0027 49       		.uleb128 0x49
 2888 0028 13       		.uleb128 0x13
 2889 0029 00       		.byte	0
 2890 002a 00       		.byte	0
 2891 002b 04       		.uleb128 0x4
 2892 002c 24       		.uleb128 0x24
 2893 002d 00       		.byte	0
 2894 002e 0B       		.uleb128 0xb
 2895 002f 0B       		.uleb128 0xb
 2896 0030 3E       		.uleb128 0x3e
 2897 0031 0B       		.uleb128 0xb
 2898 0032 03       		.uleb128 0x3
 2899 0033 0E       		.uleb128 0xe
 2900 0034 00       		.byte	0
 2901 0035 00       		.byte	0
 2902 0036 05       		.uleb128 0x5
 2903 0037 35       		.uleb128 0x35
 2904 0038 00       		.byte	0
 2905 0039 49       		.uleb128 0x49
 2906 003a 13       		.uleb128 0x13
 2907 003b 00       		.byte	0
 2908 003c 00       		.byte	0
 2909 003d 06       		.uleb128 0x6
 2910 003e 13       		.uleb128 0x13
 2911 003f 01       		.byte	0x1
 2912 0040 03       		.uleb128 0x3
 2913 0041 0E       		.uleb128 0xe
 2914 0042 0B       		.uleb128 0xb
 2915 0043 0B       		.uleb128 0xb
 2916 0044 3A       		.uleb128 0x3a
 2917 0045 0B       		.uleb128 0xb
 2918 0046 3B       		.uleb128 0x3b
 2919 0047 0B       		.uleb128 0xb
 2920 0048 01       		.uleb128 0x1
 2921 0049 13       		.uleb128 0x13
 2922 004a 00       		.byte	0
 2923 004b 00       		.byte	0
 2924 004c 07       		.uleb128 0x7
 2925 004d 0D       		.uleb128 0xd
 2926 004e 00       		.byte	0
 2927 004f 03       		.uleb128 0x3
 2928 0050 0E       		.uleb128 0xe
 2929 0051 3A       		.uleb128 0x3a
 2930 0052 0B       		.uleb128 0xb
 2931 0053 3B       		.uleb128 0x3b
 2932 0054 0B       		.uleb128 0xb
 2933 0055 49       		.uleb128 0x49
 2934 0056 13       		.uleb128 0x13
 2935 0057 38       		.uleb128 0x38
 2936 0058 0B       		.uleb128 0xb
 2937 0059 00       		.byte	0
ARM GAS  C:\Users\jo\AppData\Local\Temp\ccWSatz4.s 			page 53


 2938 005a 00       		.byte	0
 2939 005b 08       		.uleb128 0x8
 2940 005c 0D       		.uleb128 0xd
 2941 005d 00       		.byte	0
 2942 005e 03       		.uleb128 0x3
 2943 005f 08       		.uleb128 0x8
 2944 0060 3A       		.uleb128 0x3a
 2945 0061 0B       		.uleb128 0xb
 2946 0062 3B       		.uleb128 0x3b
 2947 0063 05       		.uleb128 0x5
 2948 0064 49       		.uleb128 0x49
 2949 0065 13       		.uleb128 0x13
 2950 0066 38       		.uleb128 0x38
 2951 0067 0B       		.uleb128 0xb
 2952 0068 00       		.byte	0
 2953 0069 00       		.byte	0
 2954 006a 09       		.uleb128 0x9
 2955 006b 0D       		.uleb128 0xd
 2956 006c 00       		.byte	0
 2957 006d 03       		.uleb128 0x3
 2958 006e 0E       		.uleb128 0xe
 2959 006f 3A       		.uleb128 0x3a
 2960 0070 0B       		.uleb128 0xb
 2961 0071 3B       		.uleb128 0x3b
 2962 0072 05       		.uleb128 0x5
 2963 0073 49       		.uleb128 0x49
 2964 0074 13       		.uleb128 0x13
 2965 0075 38       		.uleb128 0x38
 2966 0076 0B       		.uleb128 0xb
 2967 0077 00       		.byte	0
 2968 0078 00       		.byte	0
 2969 0079 0A       		.uleb128 0xa
 2970 007a 0F       		.uleb128 0xf
 2971 007b 00       		.byte	0
 2972 007c 0B       		.uleb128 0xb
 2973 007d 0B       		.uleb128 0xb
 2974 007e 49       		.uleb128 0x49
 2975 007f 13       		.uleb128 0x13
 2976 0080 00       		.byte	0
 2977 0081 00       		.byte	0
 2978 0082 0B       		.uleb128 0xb
 2979 0083 13       		.uleb128 0x13
 2980 0084 01       		.byte	0x1
 2981 0085 03       		.uleb128 0x3
 2982 0086 0E       		.uleb128 0xe
 2983 0087 0B       		.uleb128 0xb
 2984 0088 0B       		.uleb128 0xb
 2985 0089 3A       		.uleb128 0x3a
 2986 008a 0B       		.uleb128 0xb
 2987 008b 3B       		.uleb128 0x3b
 2988 008c 05       		.uleb128 0x5
 2989 008d 01       		.uleb128 0x1
 2990 008e 13       		.uleb128 0x13
 2991 008f 00       		.byte	0
 2992 0090 00       		.byte	0
 2993 0091 0C       		.uleb128 0xc
 2994 0092 15       		.uleb128 0x15
ARM GAS  C:\Users\jo\AppData\Local\Temp\ccWSatz4.s 			page 54


 2995 0093 01       		.byte	0x1
 2996 0094 27       		.uleb128 0x27
 2997 0095 19       		.uleb128 0x19
 2998 0096 01       		.uleb128 0x1
 2999 0097 13       		.uleb128 0x13
 3000 0098 00       		.byte	0
 3001 0099 00       		.byte	0
 3002 009a 0D       		.uleb128 0xd
 3003 009b 05       		.uleb128 0x5
 3004 009c 00       		.byte	0
 3005 009d 49       		.uleb128 0x49
 3006 009e 13       		.uleb128 0x13
 3007 009f 00       		.byte	0
 3008 00a0 00       		.byte	0
 3009 00a1 0E       		.uleb128 0xe
 3010 00a2 0F       		.uleb128 0xf
 3011 00a3 00       		.byte	0
 3012 00a4 0B       		.uleb128 0xb
 3013 00a5 0B       		.uleb128 0xb
 3014 00a6 00       		.byte	0
 3015 00a7 00       		.byte	0
 3016 00a8 0F       		.uleb128 0xf
 3017 00a9 13       		.uleb128 0x13
 3018 00aa 01       		.byte	0x1
 3019 00ab 03       		.uleb128 0x3
 3020 00ac 0E       		.uleb128 0xe
 3021 00ad 0B       		.uleb128 0xb
 3022 00ae 05       		.uleb128 0x5
 3023 00af 3A       		.uleb128 0x3a
 3024 00b0 0B       		.uleb128 0xb
 3025 00b1 3B       		.uleb128 0x3b
 3026 00b2 05       		.uleb128 0x5
 3027 00b3 01       		.uleb128 0x1
 3028 00b4 13       		.uleb128 0x13
 3029 00b5 00       		.byte	0
 3030 00b6 00       		.byte	0
 3031 00b7 10       		.uleb128 0x10
 3032 00b8 0D       		.uleb128 0xd
 3033 00b9 00       		.byte	0
 3034 00ba 03       		.uleb128 0x3
 3035 00bb 0E       		.uleb128 0xe
 3036 00bc 3A       		.uleb128 0x3a
 3037 00bd 0B       		.uleb128 0xb
 3038 00be 3B       		.uleb128 0x3b
 3039 00bf 05       		.uleb128 0x5
 3040 00c0 49       		.uleb128 0x49
 3041 00c1 13       		.uleb128 0x13
 3042 00c2 38       		.uleb128 0x38
 3043 00c3 05       		.uleb128 0x5
 3044 00c4 00       		.byte	0
 3045 00c5 00       		.byte	0
 3046 00c6 11       		.uleb128 0x11
 3047 00c7 0D       		.uleb128 0xd
 3048 00c8 00       		.byte	0
 3049 00c9 03       		.uleb128 0x3
 3050 00ca 08       		.uleb128 0x8
 3051 00cb 3A       		.uleb128 0x3a
ARM GAS  C:\Users\jo\AppData\Local\Temp\ccWSatz4.s 			page 55


 3052 00cc 0B       		.uleb128 0xb
 3053 00cd 3B       		.uleb128 0x3b
 3054 00ce 05       		.uleb128 0x5
 3055 00cf 49       		.uleb128 0x49
 3056 00d0 13       		.uleb128 0x13
 3057 00d1 38       		.uleb128 0x38
 3058 00d2 05       		.uleb128 0x5
 3059 00d3 00       		.byte	0
 3060 00d4 00       		.byte	0
 3061 00d5 12       		.uleb128 0x12
 3062 00d6 13       		.uleb128 0x13
 3063 00d7 01       		.byte	0x1
 3064 00d8 0B       		.uleb128 0xb
 3065 00d9 0B       		.uleb128 0xb
 3066 00da 3A       		.uleb128 0x3a
 3067 00db 0B       		.uleb128 0xb
 3068 00dc 3B       		.uleb128 0x3b
 3069 00dd 05       		.uleb128 0x5
 3070 00de 01       		.uleb128 0x1
 3071 00df 13       		.uleb128 0x13
 3072 00e0 00       		.byte	0
 3073 00e1 00       		.byte	0
 3074 00e2 13       		.uleb128 0x13
 3075 00e3 16       		.uleb128 0x16
 3076 00e4 00       		.byte	0
 3077 00e5 03       		.uleb128 0x3
 3078 00e6 0E       		.uleb128 0xe
 3079 00e7 3A       		.uleb128 0x3a
 3080 00e8 0B       		.uleb128 0xb
 3081 00e9 3B       		.uleb128 0x3b
 3082 00ea 05       		.uleb128 0x5
 3083 00eb 49       		.uleb128 0x49
 3084 00ec 13       		.uleb128 0x13
 3085 00ed 00       		.byte	0
 3086 00ee 00       		.byte	0
 3087 00ef 14       		.uleb128 0x14
 3088 00f0 0D       		.uleb128 0xd
 3089 00f1 00       		.byte	0
 3090 00f2 03       		.uleb128 0x3
 3091 00f3 08       		.uleb128 0x8
 3092 00f4 3A       		.uleb128 0x3a
 3093 00f5 0B       		.uleb128 0xb
 3094 00f6 3B       		.uleb128 0x3b
 3095 00f7 0B       		.uleb128 0xb
 3096 00f8 49       		.uleb128 0x49
 3097 00f9 13       		.uleb128 0x13
 3098 00fa 38       		.uleb128 0x38
 3099 00fb 0B       		.uleb128 0xb
 3100 00fc 00       		.byte	0
 3101 00fd 00       		.byte	0
 3102 00fe 15       		.uleb128 0x15
 3103 00ff 13       		.uleb128 0x13
 3104 0100 01       		.byte	0x1
 3105 0101 0B       		.uleb128 0xb
 3106 0102 0B       		.uleb128 0xb
 3107 0103 3A       		.uleb128 0x3a
 3108 0104 0B       		.uleb128 0xb
ARM GAS  C:\Users\jo\AppData\Local\Temp\ccWSatz4.s 			page 56


 3109 0105 3B       		.uleb128 0x3b
 3110 0106 0B       		.uleb128 0xb
 3111 0107 01       		.uleb128 0x1
 3112 0108 13       		.uleb128 0x13
 3113 0109 00       		.byte	0
 3114 010a 00       		.byte	0
 3115 010b 16       		.uleb128 0x16
 3116 010c 13       		.uleb128 0x13
 3117 010d 01       		.byte	0x1
 3118 010e 0B       		.uleb128 0xb
 3119 010f 05       		.uleb128 0x5
 3120 0110 3A       		.uleb128 0x3a
 3121 0111 0B       		.uleb128 0xb
 3122 0112 3B       		.uleb128 0x3b
 3123 0113 0B       		.uleb128 0xb
 3124 0114 01       		.uleb128 0x1
 3125 0115 13       		.uleb128 0x13
 3126 0116 00       		.byte	0
 3127 0117 00       		.byte	0
 3128 0118 17       		.uleb128 0x17
 3129 0119 01       		.uleb128 0x1
 3130 011a 01       		.byte	0x1
 3131 011b 49       		.uleb128 0x49
 3132 011c 13       		.uleb128 0x13
 3133 011d 01       		.uleb128 0x1
 3134 011e 13       		.uleb128 0x13
 3135 011f 00       		.byte	0
 3136 0120 00       		.byte	0
 3137 0121 18       		.uleb128 0x18
 3138 0122 21       		.uleb128 0x21
 3139 0123 00       		.byte	0
 3140 0124 49       		.uleb128 0x49
 3141 0125 13       		.uleb128 0x13
 3142 0126 2F       		.uleb128 0x2f
 3143 0127 0B       		.uleb128 0xb
 3144 0128 00       		.byte	0
 3145 0129 00       		.byte	0
 3146 012a 19       		.uleb128 0x19
 3147 012b 17       		.uleb128 0x17
 3148 012c 01       		.byte	0x1
 3149 012d 0B       		.uleb128 0xb
 3150 012e 0B       		.uleb128 0xb
 3151 012f 3A       		.uleb128 0x3a
 3152 0130 0B       		.uleb128 0xb
 3153 0131 3B       		.uleb128 0x3b
 3154 0132 0B       		.uleb128 0xb
 3155 0133 01       		.uleb128 0x1
 3156 0134 13       		.uleb128 0x13
 3157 0135 00       		.byte	0
 3158 0136 00       		.byte	0
 3159 0137 1A       		.uleb128 0x1a
 3160 0138 0D       		.uleb128 0xd
 3161 0139 00       		.byte	0
 3162 013a 03       		.uleb128 0x3
 3163 013b 0E       		.uleb128 0xe
 3164 013c 3A       		.uleb128 0x3a
 3165 013d 0B       		.uleb128 0xb
ARM GAS  C:\Users\jo\AppData\Local\Temp\ccWSatz4.s 			page 57


 3166 013e 3B       		.uleb128 0x3b
 3167 013f 05       		.uleb128 0x5
 3168 0140 49       		.uleb128 0x49
 3169 0141 13       		.uleb128 0x13
 3170 0142 00       		.byte	0
 3171 0143 00       		.byte	0
 3172 0144 1B       		.uleb128 0x1b
 3173 0145 26       		.uleb128 0x26
 3174 0146 00       		.byte	0
 3175 0147 49       		.uleb128 0x49
 3176 0148 13       		.uleb128 0x13
 3177 0149 00       		.byte	0
 3178 014a 00       		.byte	0
 3179 014b 1C       		.uleb128 0x1c
 3180 014c 15       		.uleb128 0x15
 3181 014d 01       		.byte	0x1
 3182 014e 27       		.uleb128 0x27
 3183 014f 19       		.uleb128 0x19
 3184 0150 49       		.uleb128 0x49
 3185 0151 13       		.uleb128 0x13
 3186 0152 01       		.uleb128 0x1
 3187 0153 13       		.uleb128 0x13
 3188 0154 00       		.byte	0
 3189 0155 00       		.byte	0
 3190 0156 1D       		.uleb128 0x1d
 3191 0157 0D       		.uleb128 0xd
 3192 0158 00       		.byte	0
 3193 0159 03       		.uleb128 0x3
 3194 015a 08       		.uleb128 0x8
 3195 015b 3A       		.uleb128 0x3a
 3196 015c 0B       		.uleb128 0xb
 3197 015d 3B       		.uleb128 0x3b
 3198 015e 0B       		.uleb128 0xb
 3199 015f 49       		.uleb128 0x49
 3200 0160 13       		.uleb128 0x13
 3201 0161 00       		.byte	0
 3202 0162 00       		.byte	0
 3203 0163 1E       		.uleb128 0x1e
 3204 0164 04       		.uleb128 0x4
 3205 0165 01       		.byte	0x1
 3206 0166 0B       		.uleb128 0xb
 3207 0167 0B       		.uleb128 0xb
 3208 0168 3A       		.uleb128 0x3a
 3209 0169 0B       		.uleb128 0xb
 3210 016a 3B       		.uleb128 0x3b
 3211 016b 0B       		.uleb128 0xb
 3212 016c 01       		.uleb128 0x1
 3213 016d 13       		.uleb128 0x13
 3214 016e 00       		.byte	0
 3215 016f 00       		.byte	0
 3216 0170 1F       		.uleb128 0x1f
 3217 0171 28       		.uleb128 0x28
 3218 0172 00       		.byte	0
 3219 0173 03       		.uleb128 0x3
 3220 0174 0E       		.uleb128 0xe
 3221 0175 1C       		.uleb128 0x1c
 3222 0176 0D       		.uleb128 0xd
ARM GAS  C:\Users\jo\AppData\Local\Temp\ccWSatz4.s 			page 58


 3223 0177 00       		.byte	0
 3224 0178 00       		.byte	0
 3225 0179 20       		.uleb128 0x20
 3226 017a 0D       		.uleb128 0xd
 3227 017b 00       		.byte	0
 3228 017c 03       		.uleb128 0x3
 3229 017d 0E       		.uleb128 0xe
 3230 017e 49       		.uleb128 0x49
 3231 017f 13       		.uleb128 0x13
 3232 0180 38       		.uleb128 0x38
 3233 0181 0B       		.uleb128 0xb
 3234 0182 34       		.uleb128 0x34
 3235 0183 19       		.uleb128 0x19
 3236 0184 00       		.byte	0
 3237 0185 00       		.byte	0
 3238 0186 21       		.uleb128 0x21
 3239 0187 2E       		.uleb128 0x2e
 3240 0188 01       		.byte	0x1
 3241 0189 3F       		.uleb128 0x3f
 3242 018a 19       		.uleb128 0x19
 3243 018b 03       		.uleb128 0x3
 3244 018c 0E       		.uleb128 0xe
 3245 018d 3A       		.uleb128 0x3a
 3246 018e 0B       		.uleb128 0xb
 3247 018f 3B       		.uleb128 0x3b
 3248 0190 0B       		.uleb128 0xb
 3249 0191 27       		.uleb128 0x27
 3250 0192 19       		.uleb128 0x19
 3251 0193 20       		.uleb128 0x20
 3252 0194 0B       		.uleb128 0xb
 3253 0195 01       		.uleb128 0x1
 3254 0196 13       		.uleb128 0x13
 3255 0197 00       		.byte	0
 3256 0198 00       		.byte	0
 3257 0199 22       		.uleb128 0x22
 3258 019a 34       		.uleb128 0x34
 3259 019b 00       		.byte	0
 3260 019c 03       		.uleb128 0x3
 3261 019d 0E       		.uleb128 0xe
 3262 019e 3A       		.uleb128 0x3a
 3263 019f 0B       		.uleb128 0xb
 3264 01a0 3B       		.uleb128 0x3b
 3265 01a1 0B       		.uleb128 0xb
 3266 01a2 49       		.uleb128 0x49
 3267 01a3 13       		.uleb128 0x13
 3268 01a4 00       		.byte	0
 3269 01a5 00       		.byte	0
 3270 01a6 23       		.uleb128 0x23
 3271 01a7 05       		.uleb128 0x5
 3272 01a8 00       		.byte	0
 3273 01a9 03       		.uleb128 0x3
 3274 01aa 08       		.uleb128 0x8
 3275 01ab 3A       		.uleb128 0x3a
 3276 01ac 0B       		.uleb128 0xb
 3277 01ad 3B       		.uleb128 0x3b
 3278 01ae 0B       		.uleb128 0xb
 3279 01af 49       		.uleb128 0x49
ARM GAS  C:\Users\jo\AppData\Local\Temp\ccWSatz4.s 			page 59


 3280 01b0 13       		.uleb128 0x13
 3281 01b1 00       		.byte	0
 3282 01b2 00       		.byte	0
 3283 01b3 24       		.uleb128 0x24
 3284 01b4 05       		.uleb128 0x5
 3285 01b5 00       		.byte	0
 3286 01b6 03       		.uleb128 0x3
 3287 01b7 0E       		.uleb128 0xe
 3288 01b8 3A       		.uleb128 0x3a
 3289 01b9 0B       		.uleb128 0xb
 3290 01ba 3B       		.uleb128 0x3b
 3291 01bb 0B       		.uleb128 0xb
 3292 01bc 49       		.uleb128 0x49
 3293 01bd 13       		.uleb128 0x13
 3294 01be 00       		.byte	0
 3295 01bf 00       		.byte	0
 3296 01c0 25       		.uleb128 0x25
 3297 01c1 2E       		.uleb128 0x2e
 3298 01c2 01       		.byte	0x1
 3299 01c3 03       		.uleb128 0x3
 3300 01c4 0E       		.uleb128 0xe
 3301 01c5 3A       		.uleb128 0x3a
 3302 01c6 0B       		.uleb128 0xb
 3303 01c7 3B       		.uleb128 0x3b
 3304 01c8 0B       		.uleb128 0xb
 3305 01c9 27       		.uleb128 0x27
 3306 01ca 19       		.uleb128 0x19
 3307 01cb 49       		.uleb128 0x49
 3308 01cc 13       		.uleb128 0x13
 3309 01cd 20       		.uleb128 0x20
 3310 01ce 0B       		.uleb128 0xb
 3311 01cf 01       		.uleb128 0x1
 3312 01d0 13       		.uleb128 0x13
 3313 01d1 00       		.byte	0
 3314 01d2 00       		.byte	0
 3315 01d3 26       		.uleb128 0x26
 3316 01d4 18       		.uleb128 0x18
 3317 01d5 00       		.byte	0
 3318 01d6 00       		.byte	0
 3319 01d7 00       		.byte	0
 3320 01d8 27       		.uleb128 0x27
 3321 01d9 34       		.uleb128 0x34
 3322 01da 00       		.byte	0
 3323 01db 03       		.uleb128 0x3
 3324 01dc 08       		.uleb128 0x8
 3325 01dd 3A       		.uleb128 0x3a
 3326 01de 0B       		.uleb128 0xb
 3327 01df 3B       		.uleb128 0x3b
 3328 01e0 0B       		.uleb128 0xb
 3329 01e1 49       		.uleb128 0x49
 3330 01e2 13       		.uleb128 0x13
 3331 01e3 00       		.byte	0
 3332 01e4 00       		.byte	0
 3333 01e5 28       		.uleb128 0x28
 3334 01e6 2E       		.uleb128 0x2e
 3335 01e7 01       		.byte	0x1
 3336 01e8 03       		.uleb128 0x3
ARM GAS  C:\Users\jo\AppData\Local\Temp\ccWSatz4.s 			page 60


 3337 01e9 0E       		.uleb128 0xe
 3338 01ea 3A       		.uleb128 0x3a
 3339 01eb 0B       		.uleb128 0xb
 3340 01ec 3B       		.uleb128 0x3b
 3341 01ed 0B       		.uleb128 0xb
 3342 01ee 27       		.uleb128 0x27
 3343 01ef 19       		.uleb128 0x19
 3344 01f0 11       		.uleb128 0x11
 3345 01f1 01       		.uleb128 0x1
 3346 01f2 12       		.uleb128 0x12
 3347 01f3 06       		.uleb128 0x6
 3348 01f4 40       		.uleb128 0x40
 3349 01f5 18       		.uleb128 0x18
 3350 01f6 9742     		.uleb128 0x2117
 3351 01f8 19       		.uleb128 0x19
 3352 01f9 01       		.uleb128 0x1
 3353 01fa 13       		.uleb128 0x13
 3354 01fb 00       		.byte	0
 3355 01fc 00       		.byte	0
 3356 01fd 29       		.uleb128 0x29
 3357 01fe 05       		.uleb128 0x5
 3358 01ff 00       		.byte	0
 3359 0200 03       		.uleb128 0x3
 3360 0201 08       		.uleb128 0x8
 3361 0202 3A       		.uleb128 0x3a
 3362 0203 0B       		.uleb128 0xb
 3363 0204 3B       		.uleb128 0x3b
 3364 0205 0B       		.uleb128 0xb
 3365 0206 49       		.uleb128 0x49
 3366 0207 13       		.uleb128 0x13
 3367 0208 02       		.uleb128 0x2
 3368 0209 17       		.uleb128 0x17
 3369 020a 00       		.byte	0
 3370 020b 00       		.byte	0
 3371 020c 2A       		.uleb128 0x2a
 3372 020d 898201   		.uleb128 0x4109
 3373 0210 01       		.byte	0x1
 3374 0211 11       		.uleb128 0x11
 3375 0212 01       		.uleb128 0x1
 3376 0213 31       		.uleb128 0x31
 3377 0214 13       		.uleb128 0x13
 3378 0215 01       		.uleb128 0x1
 3379 0216 13       		.uleb128 0x13
 3380 0217 00       		.byte	0
 3381 0218 00       		.byte	0
 3382 0219 2B       		.uleb128 0x2b
 3383 021a 8A8201   		.uleb128 0x410a
 3384 021d 00       		.byte	0
 3385 021e 02       		.uleb128 0x2
 3386 021f 18       		.uleb128 0x18
 3387 0220 9142     		.uleb128 0x2111
 3388 0222 18       		.uleb128 0x18
 3389 0223 00       		.byte	0
 3390 0224 00       		.byte	0
 3391 0225 2C       		.uleb128 0x2c
 3392 0226 898201   		.uleb128 0x4109
 3393 0229 00       		.byte	0
ARM GAS  C:\Users\jo\AppData\Local\Temp\ccWSatz4.s 			page 61


 3394 022a 11       		.uleb128 0x11
 3395 022b 01       		.uleb128 0x1
 3396 022c 31       		.uleb128 0x31
 3397 022d 13       		.uleb128 0x13
 3398 022e 00       		.byte	0
 3399 022f 00       		.byte	0
 3400 0230 2D       		.uleb128 0x2d
 3401 0231 2E       		.uleb128 0x2e
 3402 0232 01       		.byte	0x1
 3403 0233 31       		.uleb128 0x31
 3404 0234 13       		.uleb128 0x13
 3405 0235 11       		.uleb128 0x11
 3406 0236 01       		.uleb128 0x1
 3407 0237 12       		.uleb128 0x12
 3408 0238 06       		.uleb128 0x6
 3409 0239 40       		.uleb128 0x40
 3410 023a 18       		.uleb128 0x18
 3411 023b 9742     		.uleb128 0x2117
 3412 023d 19       		.uleb128 0x19
 3413 023e 01       		.uleb128 0x1
 3414 023f 13       		.uleb128 0x13
 3415 0240 00       		.byte	0
 3416 0241 00       		.byte	0
 3417 0242 2E       		.uleb128 0x2e
 3418 0243 05       		.uleb128 0x5
 3419 0244 00       		.byte	0
 3420 0245 31       		.uleb128 0x31
 3421 0246 13       		.uleb128 0x13
 3422 0247 02       		.uleb128 0x2
 3423 0248 17       		.uleb128 0x17
 3424 0249 00       		.byte	0
 3425 024a 00       		.byte	0
 3426 024b 2F       		.uleb128 0x2f
 3427 024c 05       		.uleb128 0x5
 3428 024d 00       		.byte	0
 3429 024e 31       		.uleb128 0x31
 3430 024f 13       		.uleb128 0x13
 3431 0250 02       		.uleb128 0x2
 3432 0251 18       		.uleb128 0x18
 3433 0252 00       		.byte	0
 3434 0253 00       		.byte	0
 3435 0254 30       		.uleb128 0x30
 3436 0255 34       		.uleb128 0x34
 3437 0256 00       		.byte	0
 3438 0257 31       		.uleb128 0x31
 3439 0258 13       		.uleb128 0x13
 3440 0259 02       		.uleb128 0x2
 3441 025a 18       		.uleb128 0x18
 3442 025b 00       		.byte	0
 3443 025c 00       		.byte	0
 3444 025d 31       		.uleb128 0x31
 3445 025e 898201   		.uleb128 0x4109
 3446 0261 01       		.byte	0x1
 3447 0262 11       		.uleb128 0x11
 3448 0263 01       		.uleb128 0x1
 3449 0264 31       		.uleb128 0x31
 3450 0265 13       		.uleb128 0x13
ARM GAS  C:\Users\jo\AppData\Local\Temp\ccWSatz4.s 			page 62


 3451 0266 00       		.byte	0
 3452 0267 00       		.byte	0
 3453 0268 32       		.uleb128 0x32
 3454 0269 34       		.uleb128 0x34
 3455 026a 00       		.byte	0
 3456 026b 31       		.uleb128 0x31
 3457 026c 13       		.uleb128 0x13
 3458 026d 1C       		.uleb128 0x1c
 3459 026e 0D       		.uleb128 0xd
 3460 026f 00       		.byte	0
 3461 0270 00       		.byte	0
 3462 0271 33       		.uleb128 0x33
 3463 0272 0B       		.uleb128 0xb
 3464 0273 01       		.byte	0x1
 3465 0274 11       		.uleb128 0x11
 3466 0275 01       		.uleb128 0x1
 3467 0276 12       		.uleb128 0x12
 3468 0277 06       		.uleb128 0x6
 3469 0278 00       		.byte	0
 3470 0279 00       		.byte	0
 3471 027a 34       		.uleb128 0x34
 3472 027b 34       		.uleb128 0x34
 3473 027c 00       		.byte	0
 3474 027d 31       		.uleb128 0x31
 3475 027e 13       		.uleb128 0x13
 3476 027f 00       		.byte	0
 3477 0280 00       		.byte	0
 3478 0281 35       		.uleb128 0x35
 3479 0282 05       		.uleb128 0x5
 3480 0283 00       		.byte	0
 3481 0284 31       		.uleb128 0x31
 3482 0285 13       		.uleb128 0x13
 3483 0286 00       		.byte	0
 3484 0287 00       		.byte	0
 3485 0288 36       		.uleb128 0x36
 3486 0289 2E       		.uleb128 0x2e
 3487 028a 01       		.byte	0x1
 3488 028b 3F       		.uleb128 0x3f
 3489 028c 19       		.uleb128 0x19
 3490 028d 03       		.uleb128 0x3
 3491 028e 0E       		.uleb128 0xe
 3492 028f 3A       		.uleb128 0x3a
 3493 0290 0B       		.uleb128 0xb
 3494 0291 3B       		.uleb128 0x3b
 3495 0292 0B       		.uleb128 0xb
 3496 0293 27       		.uleb128 0x27
 3497 0294 19       		.uleb128 0x19
 3498 0295 49       		.uleb128 0x49
 3499 0296 13       		.uleb128 0x13
 3500 0297 11       		.uleb128 0x11
 3501 0298 01       		.uleb128 0x1
 3502 0299 12       		.uleb128 0x12
 3503 029a 06       		.uleb128 0x6
 3504 029b 40       		.uleb128 0x40
 3505 029c 18       		.uleb128 0x18
 3506 029d 9742     		.uleb128 0x2117
 3507 029f 19       		.uleb128 0x19
ARM GAS  C:\Users\jo\AppData\Local\Temp\ccWSatz4.s 			page 63


 3508 02a0 01       		.uleb128 0x1
 3509 02a1 13       		.uleb128 0x13
 3510 02a2 00       		.byte	0
 3511 02a3 00       		.byte	0
 3512 02a4 37       		.uleb128 0x37
 3513 02a5 1D       		.uleb128 0x1d
 3514 02a6 01       		.byte	0x1
 3515 02a7 31       		.uleb128 0x31
 3516 02a8 13       		.uleb128 0x13
 3517 02a9 52       		.uleb128 0x52
 3518 02aa 01       		.uleb128 0x1
 3519 02ab 55       		.uleb128 0x55
 3520 02ac 17       		.uleb128 0x17
 3521 02ad 58       		.uleb128 0x58
 3522 02ae 0B       		.uleb128 0xb
 3523 02af 59       		.uleb128 0x59
 3524 02b0 0B       		.uleb128 0xb
 3525 02b1 01       		.uleb128 0x1
 3526 02b2 13       		.uleb128 0x13
 3527 02b3 00       		.byte	0
 3528 02b4 00       		.byte	0
 3529 02b5 38       		.uleb128 0x38
 3530 02b6 34       		.uleb128 0x34
 3531 02b7 00       		.byte	0
 3532 02b8 03       		.uleb128 0x3
 3533 02b9 0E       		.uleb128 0xe
 3534 02ba 3A       		.uleb128 0x3a
 3535 02bb 0B       		.uleb128 0xb
 3536 02bc 3B       		.uleb128 0x3b
 3537 02bd 0B       		.uleb128 0xb
 3538 02be 49       		.uleb128 0x49
 3539 02bf 13       		.uleb128 0x13
 3540 02c0 02       		.uleb128 0x2
 3541 02c1 18       		.uleb128 0x18
 3542 02c2 00       		.byte	0
 3543 02c3 00       		.byte	0
 3544 02c4 39       		.uleb128 0x39
 3545 02c5 34       		.uleb128 0x34
 3546 02c6 00       		.byte	0
 3547 02c7 03       		.uleb128 0x3
 3548 02c8 0E       		.uleb128 0xe
 3549 02c9 3A       		.uleb128 0x3a
 3550 02ca 0B       		.uleb128 0xb
 3551 02cb 3B       		.uleb128 0x3b
 3552 02cc 05       		.uleb128 0x5
 3553 02cd 49       		.uleb128 0x49
 3554 02ce 13       		.uleb128 0x13
 3555 02cf 3F       		.uleb128 0x3f
 3556 02d0 19       		.uleb128 0x19
 3557 02d1 3C       		.uleb128 0x3c
 3558 02d2 19       		.uleb128 0x19
 3559 02d3 00       		.byte	0
 3560 02d4 00       		.byte	0
 3561 02d5 3A       		.uleb128 0x3a
 3562 02d6 34       		.uleb128 0x34
 3563 02d7 00       		.byte	0
 3564 02d8 03       		.uleb128 0x3
ARM GAS  C:\Users\jo\AppData\Local\Temp\ccWSatz4.s 			page 64


 3565 02d9 08       		.uleb128 0x8
 3566 02da 3A       		.uleb128 0x3a
 3567 02db 0B       		.uleb128 0xb
 3568 02dc 3B       		.uleb128 0x3b
 3569 02dd 05       		.uleb128 0x5
 3570 02de 49       		.uleb128 0x49
 3571 02df 13       		.uleb128 0x13
 3572 02e0 3F       		.uleb128 0x3f
 3573 02e1 19       		.uleb128 0x19
 3574 02e2 3C       		.uleb128 0x3c
 3575 02e3 19       		.uleb128 0x19
 3576 02e4 00       		.byte	0
 3577 02e5 00       		.byte	0
 3578 02e6 3B       		.uleb128 0x3b
 3579 02e7 34       		.uleb128 0x34
 3580 02e8 00       		.byte	0
 3581 02e9 03       		.uleb128 0x3
 3582 02ea 0E       		.uleb128 0xe
 3583 02eb 3A       		.uleb128 0x3a
 3584 02ec 0B       		.uleb128 0xb
 3585 02ed 3B       		.uleb128 0x3b
 3586 02ee 0B       		.uleb128 0xb
 3587 02ef 49       		.uleb128 0x49
 3588 02f0 13       		.uleb128 0x13
 3589 02f1 3F       		.uleb128 0x3f
 3590 02f2 19       		.uleb128 0x19
 3591 02f3 02       		.uleb128 0x2
 3592 02f4 18       		.uleb128 0x18
 3593 02f5 00       		.byte	0
 3594 02f6 00       		.byte	0
 3595 02f7 3C       		.uleb128 0x3c
 3596 02f8 34       		.uleb128 0x34
 3597 02f9 00       		.byte	0
 3598 02fa 03       		.uleb128 0x3
 3599 02fb 0E       		.uleb128 0xe
 3600 02fc 3A       		.uleb128 0x3a
 3601 02fd 0B       		.uleb128 0xb
 3602 02fe 3B       		.uleb128 0x3b
 3603 02ff 0B       		.uleb128 0xb
 3604 0300 49       		.uleb128 0x49
 3605 0301 13       		.uleb128 0x13
 3606 0302 3F       		.uleb128 0x3f
 3607 0303 19       		.uleb128 0x19
 3608 0304 3C       		.uleb128 0x3c
 3609 0305 19       		.uleb128 0x19
 3610 0306 00       		.byte	0
 3611 0307 00       		.byte	0
 3612 0308 3D       		.uleb128 0x3d
 3613 0309 21       		.uleb128 0x21
 3614 030a 00       		.byte	0
 3615 030b 49       		.uleb128 0x49
 3616 030c 13       		.uleb128 0x13
 3617 030d 2F       		.uleb128 0x2f
 3618 030e 05       		.uleb128 0x5
 3619 030f 00       		.byte	0
 3620 0310 00       		.byte	0
 3621 0311 3E       		.uleb128 0x3e
ARM GAS  C:\Users\jo\AppData\Local\Temp\ccWSatz4.s 			page 65


 3622 0312 2E       		.uleb128 0x2e
 3623 0313 01       		.byte	0x1
 3624 0314 3F       		.uleb128 0x3f
 3625 0315 19       		.uleb128 0x19
 3626 0316 03       		.uleb128 0x3
 3627 0317 0E       		.uleb128 0xe
 3628 0318 3A       		.uleb128 0x3a
 3629 0319 0B       		.uleb128 0xb
 3630 031a 3B       		.uleb128 0x3b
 3631 031b 0B       		.uleb128 0xb
 3632 031c 27       		.uleb128 0x27
 3633 031d 19       		.uleb128 0x19
 3634 031e 3C       		.uleb128 0x3c
 3635 031f 19       		.uleb128 0x19
 3636 0320 01       		.uleb128 0x1
 3637 0321 13       		.uleb128 0x13
 3638 0322 00       		.byte	0
 3639 0323 00       		.byte	0
 3640 0324 3F       		.uleb128 0x3f
 3641 0325 2E       		.uleb128 0x2e
 3642 0326 00       		.byte	0
 3643 0327 3F       		.uleb128 0x3f
 3644 0328 19       		.uleb128 0x19
 3645 0329 03       		.uleb128 0x3
 3646 032a 0E       		.uleb128 0xe
 3647 032b 3A       		.uleb128 0x3a
 3648 032c 0B       		.uleb128 0xb
 3649 032d 3B       		.uleb128 0x3b
 3650 032e 05       		.uleb128 0x5
 3651 032f 27       		.uleb128 0x27
 3652 0330 19       		.uleb128 0x19
 3653 0331 3C       		.uleb128 0x3c
 3654 0332 19       		.uleb128 0x19
 3655 0333 00       		.byte	0
 3656 0334 00       		.byte	0
 3657 0335 40       		.uleb128 0x40
 3658 0336 2E       		.uleb128 0x2e
 3659 0337 01       		.byte	0x1
 3660 0338 3F       		.uleb128 0x3f
 3661 0339 19       		.uleb128 0x19
 3662 033a 03       		.uleb128 0x3
 3663 033b 0E       		.uleb128 0xe
 3664 033c 3A       		.uleb128 0x3a
 3665 033d 0B       		.uleb128 0xb
 3666 033e 3B       		.uleb128 0x3b
 3667 033f 0B       		.uleb128 0xb
 3668 0340 27       		.uleb128 0x27
 3669 0341 19       		.uleb128 0x19
 3670 0342 49       		.uleb128 0x49
 3671 0343 13       		.uleb128 0x13
 3672 0344 3C       		.uleb128 0x3c
 3673 0345 19       		.uleb128 0x19
 3674 0346 01       		.uleb128 0x1
 3675 0347 13       		.uleb128 0x13
 3676 0348 00       		.byte	0
 3677 0349 00       		.byte	0
 3678 034a 41       		.uleb128 0x41
ARM GAS  C:\Users\jo\AppData\Local\Temp\ccWSatz4.s 			page 66


 3679 034b 2E       		.uleb128 0x2e
 3680 034c 00       		.byte	0
 3681 034d 3F       		.uleb128 0x3f
 3682 034e 19       		.uleb128 0x19
 3683 034f 03       		.uleb128 0x3
 3684 0350 0E       		.uleb128 0xe
 3685 0351 3A       		.uleb128 0x3a
 3686 0352 0B       		.uleb128 0xb
 3687 0353 3B       		.uleb128 0x3b
 3688 0354 0B       		.uleb128 0xb
 3689 0355 27       		.uleb128 0x27
 3690 0356 19       		.uleb128 0x19
 3691 0357 3C       		.uleb128 0x3c
 3692 0358 19       		.uleb128 0x19
 3693 0359 00       		.byte	0
 3694 035a 00       		.byte	0
 3695 035b 42       		.uleb128 0x42
 3696 035c 2E       		.uleb128 0x2e
 3697 035d 01       		.byte	0x1
 3698 035e 3F       		.uleb128 0x3f
 3699 035f 19       		.uleb128 0x19
 3700 0360 03       		.uleb128 0x3
 3701 0361 0E       		.uleb128 0xe
 3702 0362 3A       		.uleb128 0x3a
 3703 0363 0B       		.uleb128 0xb
 3704 0364 3B       		.uleb128 0x3b
 3705 0365 05       		.uleb128 0x5
 3706 0366 27       		.uleb128 0x27
 3707 0367 19       		.uleb128 0x19
 3708 0368 3C       		.uleb128 0x3c
 3709 0369 19       		.uleb128 0x19
 3710 036a 01       		.uleb128 0x1
 3711 036b 13       		.uleb128 0x13
 3712 036c 00       		.byte	0
 3713 036d 00       		.byte	0
 3714 036e 43       		.uleb128 0x43
 3715 036f 2E       		.uleb128 0x2e
 3716 0370 01       		.byte	0x1
 3717 0371 3F       		.uleb128 0x3f
 3718 0372 19       		.uleb128 0x19
 3719 0373 03       		.uleb128 0x3
 3720 0374 0E       		.uleb128 0xe
 3721 0375 3A       		.uleb128 0x3a
 3722 0376 0B       		.uleb128 0xb
 3723 0377 3B       		.uleb128 0x3b
 3724 0378 0B       		.uleb128 0xb
 3725 0379 27       		.uleb128 0x27
 3726 037a 19       		.uleb128 0x19
 3727 037b 3C       		.uleb128 0x3c
 3728 037c 19       		.uleb128 0x19
 3729 037d 00       		.byte	0
 3730 037e 00       		.byte	0
 3731 037f 00       		.byte	0
 3732              		.section	.debug_loc,"",%progbits
 3733              	.Ldebug_loc0:
 3734              	.LLST0:
 3735 0000 00000000 		.4byte	.LVL0
ARM GAS  C:\Users\jo\AppData\Local\Temp\ccWSatz4.s 			page 67


 3736 0004 10000000 		.4byte	.LVL1
 3737 0008 0100     		.2byte	0x1
 3738 000a 50       		.byte	0x50
 3739 000b 10000000 		.4byte	.LVL1
 3740 000f 38000000 		.4byte	.LFE264
 3741 0013 0400     		.2byte	0x4
 3742 0015 F3       		.byte	0xf3
 3743 0016 01       		.uleb128 0x1
 3744 0017 50       		.byte	0x50
 3745 0018 9F       		.byte	0x9f
 3746 0019 00000000 		.4byte	0
 3747 001d 00000000 		.4byte	0
 3748              	.LLST1:
 3749 0021 00000000 		.4byte	.LVL5
 3750 0025 0E000000 		.4byte	.LVL6
 3751 0029 0100     		.2byte	0x1
 3752 002b 50       		.byte	0x50
 3753 002c 0E000000 		.4byte	.LVL6
 3754 0030 28000000 		.4byte	.LFE269
 3755 0034 0400     		.2byte	0x4
 3756 0036 F3       		.byte	0xf3
 3757 0037 01       		.uleb128 0x1
 3758 0038 50       		.byte	0x50
 3759 0039 9F       		.byte	0x9f
 3760 003a 00000000 		.4byte	0
 3761 003e 00000000 		.4byte	0
 3762              	.LLST2:
 3763 0042 00000000 		.4byte	.LVL10
 3764 0046 0C000000 		.4byte	.LVL12
 3765 004a 0100     		.2byte	0x1
 3766 004c 50       		.byte	0x50
 3767 004d 0C000000 		.4byte	.LVL12
 3768 0051 0E000000 		.4byte	.LVL13
 3769 0055 0100     		.2byte	0x1
 3770 0057 54       		.byte	0x54
 3771 0058 0E000000 		.4byte	.LVL13
 3772 005c 1C000000 		.4byte	.LVL17
 3773 0060 0400     		.2byte	0x4
 3774 0062 F3       		.byte	0xf3
 3775 0063 01       		.uleb128 0x1
 3776 0064 50       		.byte	0x50
 3777 0065 9F       		.byte	0x9f
 3778 0066 1C000000 		.4byte	.LVL17
 3779 006a 24000000 		.4byte	.LFE262
 3780 006e 0100     		.2byte	0x1
 3781 0070 50       		.byte	0x50
 3782 0071 00000000 		.4byte	0
 3783 0075 00000000 		.4byte	0
 3784              	.LLST3:
 3785 0079 06000000 		.4byte	.LVL11
 3786 007d 0C000000 		.4byte	.LVL12
 3787 0081 0100     		.2byte	0x1
 3788 0083 50       		.byte	0x50
 3789 0084 0C000000 		.4byte	.LVL12
 3790 0088 16000000 		.4byte	.LVL15
 3791 008c 0100     		.2byte	0x1
 3792 008e 54       		.byte	0x54
ARM GAS  C:\Users\jo\AppData\Local\Temp\ccWSatz4.s 			page 68


 3793 008f 16000000 		.4byte	.LVL15
 3794 0093 1A000000 		.4byte	.LVL16
 3795 0097 0300     		.2byte	0x3
 3796 0099 74       		.byte	0x74
 3797 009a 7F       		.sleb128 -1
 3798 009b 9F       		.byte	0x9f
 3799 009c 00000000 		.4byte	0
 3800 00a0 00000000 		.4byte	0
 3801              	.LLST4:
 3802 00a4 00000000 		.4byte	.LVL18
 3803 00a8 06000000 		.4byte	.LVL19
 3804 00ac 0100     		.2byte	0x1
 3805 00ae 50       		.byte	0x50
 3806 00af 06000000 		.4byte	.LVL19
 3807 00b3 0E000000 		.4byte	.LFE263
 3808 00b7 0100     		.2byte	0x1
 3809 00b9 54       		.byte	0x54
 3810 00ba 00000000 		.4byte	0
 3811 00be 00000000 		.4byte	0
 3812              	.LLST5:
 3813 00c2 80000000 		.4byte	.LVL32
 3814 00c6 88000000 		.4byte	.LVL34
 3815 00ca 0100     		.2byte	0x1
 3816 00cc 54       		.byte	0x54
 3817 00cd 88000000 		.4byte	.LVL34
 3818 00d1 C4000000 		.4byte	.LFE265
 3819 00d5 0300     		.2byte	0x3
 3820 00d7 74       		.byte	0x74
 3821 00d8 7F       		.sleb128 -1
 3822 00d9 9F       		.byte	0x9f
 3823 00da 00000000 		.4byte	0
 3824 00de 00000000 		.4byte	0
 3825              		.section	.debug_aranges,"",%progbits
 3826 0000 4C000000 		.4byte	0x4c
 3827 0004 0200     		.2byte	0x2
 3828 0006 00000000 		.4byte	.Ldebug_info0
 3829 000a 04       		.byte	0x4
 3830 000b 00       		.byte	0
 3831 000c 0000     		.2byte	0
 3832 000e 0000     		.2byte	0
 3833 0010 00000000 		.4byte	.LFB264
 3834 0014 38000000 		.4byte	.LFE264-.LFB264
 3835 0018 00000000 		.4byte	.LFB269
 3836 001c 28000000 		.4byte	.LFE269-.LFB269
 3837 0020 00000000 		.4byte	.LFB260
 3838 0024 34000000 		.4byte	.LFE260-.LFB260
 3839 0028 00000000 		.4byte	.LFB261
 3840 002c 28000000 		.4byte	.LFE261-.LFB261
 3841 0030 00000000 		.4byte	.LFB262
 3842 0034 24000000 		.4byte	.LFE262-.LFB262
 3843 0038 00000000 		.4byte	.LFB263
 3844 003c 0E000000 		.4byte	.LFE263-.LFB263
 3845 0040 00000000 		.4byte	.LFB265
 3846 0044 C4000000 		.4byte	.LFE265-.LFB265
 3847 0048 00000000 		.4byte	0
 3848 004c 00000000 		.4byte	0
 3849              		.section	.debug_ranges,"",%progbits
ARM GAS  C:\Users\jo\AppData\Local\Temp\ccWSatz4.s 			page 69


 3850              	.Ldebug_ranges0:
 3851 0000 08000000 		.4byte	.LBB19
 3852 0004 10000000 		.4byte	.LBE19
 3853 0008 7C000000 		.4byte	.LBB24
 3854 000c C4000000 		.4byte	.LBE24
 3855 0010 00000000 		.4byte	0
 3856 0014 00000000 		.4byte	0
 3857 0018 00000000 		.4byte	.LFB264
 3858 001c 38000000 		.4byte	.LFE264
 3859 0020 00000000 		.4byte	.LFB269
 3860 0024 28000000 		.4byte	.LFE269
 3861 0028 00000000 		.4byte	.LFB260
 3862 002c 34000000 		.4byte	.LFE260
 3863 0030 00000000 		.4byte	.LFB261
 3864 0034 28000000 		.4byte	.LFE261
 3865 0038 00000000 		.4byte	.LFB262
 3866 003c 24000000 		.4byte	.LFE262
 3867 0040 00000000 		.4byte	.LFB263
 3868 0044 0E000000 		.4byte	.LFE263
 3869 0048 00000000 		.4byte	.LFB265
 3870 004c C4000000 		.4byte	.LFE265
 3871 0050 00000000 		.4byte	0
 3872 0054 00000000 		.4byte	0
 3873              		.section	.debug_line,"",%progbits
 3874              	.Ldebug_line0:
 3875 0000 46050000 		.section	.debug_str,"MS",%progbits,1
 3875      02005D04 
 3875      00000201 
 3875      FB0E0D00 
 3875      01010101 
 3876              	.LASF2:
 3877 0000 73697A65 		.ascii	"size_t\000"
 3877      5F7400
 3878              	.LASF86:
 3879 0007 73697A65 		.ascii	"sizetype\000"
 3879      74797065 
 3879      00
 3880              	.LASF108:
 3881 0010 77747365 		.ascii	"wtsemp\000"
 3881      6D7000
 3882              	.LASF29:
 3883 0017 73797374 		.ascii	"systime_t\000"
 3883      696D655F 
 3883      7400
 3884              	.LASF34:
 3885 0021 705F6374 		.ascii	"p_ctx\000"
 3885      7800
 3886              	.LASF24:
 3887 0027 74707269 		.ascii	"tprio_t\000"
 3887      6F5F7400 
 3888              	.LASF43:
 3889 002f 705F6D73 		.ascii	"p_msgqueue\000"
 3889      67717565 
 3889      756500
 3890              	.LASF59:
 3891 003a 725F6374 		.ascii	"r_ctx\000"
 3891      7800
ARM GAS  C:\Users\jo\AppData\Local\Temp\ccWSatz4.s 			page 70


 3892              	.LASF17:
 3893 0040 696E7433 		.ascii	"int32_t\000"
 3893      325F7400 
 3894              	.LASF171:
 3895 0048 53657269 		.ascii	"SerialConfig\000"
 3895      616C436F 
 3895      6E666967 
 3895      00
 3896              	.LASF175:
 3897 0055 77726974 		.ascii	"writet\000"
 3897      657400
 3898              	.LASF63:
 3899 005c 76746675 		.ascii	"vtfunc_t\000"
 3899      6E635F74 
 3899      00
 3900              	.LASF72:
 3901 0065 63685F76 		.ascii	"ch_virtual_timers_list\000"
 3901      69727475 
 3901      616C5F74 
 3901      696D6572 
 3901      735F6C69 
 3902              	.LASF216:
 3903 007c 69746D4F 		.ascii	"itmObjectInit\000"
 3903      626A6563 
 3903      74496E69 
 3903      7400
 3904              	.LASF193:
 3905 008a 4D454D50 		.ascii	"MEMP_SYS_TIMEOUT\000"
 3905      5F535953 
 3905      5F54494D 
 3905      454F5554 
 3905      00
 3906              	.LASF145:
 3907 009b 77726974 		.ascii	"write\000"
 3907      6500
 3908              	.LASF147:
 3909 00a1 42617365 		.ascii	"BaseSequentialStream\000"
 3909      53657175 
 3909      656E7469 
 3909      616C5374 
 3909      7265616D 
 3910              	.LASF126:
 3911 00b6 656C5F66 		.ascii	"el_flags\000"
 3911      6C616773 
 3911      00
 3912              	.LASF166:
 3913 00bf 73746174 		.ascii	"state\000"
 3913      6500
 3914              	.LASF78:
 3915 00c5 6C6F636B 		.ascii	"lock_cnt\000"
 3915      5F636E74 
 3915      00
 3916              	.LASF173:
 3917 00ce 70757474 		.ascii	"putt\000"
 3917      00
 3918              	.LASF206:
 3919 00d3 666F726D 		.ascii	"formatted_bytes\000"
ARM GAS  C:\Users\jo\AppData\Local\Temp\ccWSatz4.s 			page 71


 3919      61747465 
 3919      645F6279 
 3919      74657300 
 3920              	.LASF200:
 3921 00e3 44656275 		.ascii	"Debug_ITMDebugEnable\000"
 3921      675F4954 
 3921      4D446562 
 3921      7567456E 
 3921      61626C65 
 3922              	.LASF94:
 3923 00f8 73655F74 		.ascii	"se_tp\000"
 3923      7000
 3924              	.LASF214:
 3925 00fe 7461736B 		.ascii	"task_http_stack\000"
 3925      5F687474 
 3925      705F7374 
 3925      61636B00 
 3926              	.LASF116:
 3927 010e 6D5F6F77 		.ascii	"m_owner\000"
 3927      6E657200 
 3928              	.LASF70:
 3929 0116 76745F70 		.ascii	"vt_par\000"
 3929      617200
 3930              	.LASF105:
 3931 011d 65786974 		.ascii	"exitcode\000"
 3931      636F6465 
 3931      00
 3932              	.LASF3:
 3933 0126 5F5F7569 		.ascii	"__uint8_t\000"
 3933      6E74385F 
 3933      7400
 3934              	.LASF136:
 3935 0130 715F746F 		.ascii	"q_top\000"
 3935      7000
 3936              	.LASF153:
 3937 0136 50555044 		.ascii	"PUPDR\000"
 3937      5200
 3938              	.LASF176:
 3939 013c 72656164 		.ascii	"readt\000"
 3939      7400
 3940              	.LASF135:
 3941 0142 715F6275 		.ascii	"q_buffer\000"
 3941      66666572 
 3941      00
 3942              	.LASF139:
 3943 014b 715F6E6F 		.ascii	"q_notify\000"
 3943      74696679 
 3943      00
 3944              	.LASF35:
 3945 0154 705F6E65 		.ascii	"p_newer\000"
 3945      77657200 
 3946              	.LASF9:
 3947 015c 6C6F6E67 		.ascii	"long int\000"
 3947      20696E74 
 3947      00
 3948              	.LASF31:
 3949 0165 705F6E65 		.ascii	"p_next\000"
ARM GAS  C:\Users\jo\AppData\Local\Temp\ccWSatz4.s 			page 72


 3949      787400
 3950              	.LASF138:
 3951 016c 715F7264 		.ascii	"q_rdptr\000"
 3951      70747200 
 3952              	.LASF32:
 3953 0174 705F7072 		.ascii	"p_prev\000"
 3953      657600
 3954              	.LASF22:
 3955 017b 74737461 		.ascii	"tstate_t\000"
 3955      74655F74 
 3955      00
 3956              	.LASF208:
 3957 0184 6D61696E 		.ascii	"main\000"
 3957      00
 3958              	.LASF53:
 3959 0189 74687265 		.ascii	"threads_queue_t\000"
 3959      6164735F 
 3959      71756575 
 3959      655F7400 
 3960              	.LASF46:
 3961 0199 705F6D74 		.ascii	"p_mtxlist\000"
 3961      786C6973 
 3961      7400
 3962              	.LASF168:
 3963 01a3 6F717565 		.ascii	"oqueue\000"
 3963      756500
 3964              	.LASF89:
 3965 01aa 72656761 		.ascii	"regarm_t\000"
 3965      726D5F74 
 3965      00
 3966              	.LASF132:
 3967 01b3 696F5F71 		.ascii	"io_queue\000"
 3967      75657565 
 3967      00
 3968              	.LASF169:
 3969 01bc 75736172 		.ascii	"usart\000"
 3969      7400
 3970              	.LASF195:
 3971 01c2 4D454D50 		.ascii	"MEMP_PBUF_POOL\000"
 3971      5F504255 
 3971      465F504F 
 3971      4F4C00
 3972              	.LASF1:
 3973 01d1 7369676E 		.ascii	"signed char\000"
 3973      65642063 
 3973      68617200 
 3974              	.LASF110:
 3975 01dd 65776D61 		.ascii	"ewmask\000"
 3975      736B00
 3976              	.LASF15:
 3977 01e4 75696E74 		.ascii	"uint8_t\000"
 3977      385F7400 
 3978              	.LASF26:
 3979 01ec 6576656E 		.ascii	"eventmask_t\000"
 3979      746D6173 
 3979      6B5F7400 
 3980              	.LASF91:
ARM GAS  C:\Users\jo\AppData\Local\Temp\ccWSatz4.s 			page 73


 3981 01f8 636F6E74 		.ascii	"context\000"
 3981      65787400 
 3982              	.LASF107:
 3983 0200 77747472 		.ascii	"wttrp\000"
 3983      7000
 3984              	.LASF4:
 3985 0206 756E7369 		.ascii	"unsigned char\000"
 3985      676E6564 
 3985      20636861 
 3985      7200
 3986              	.LASF140:
 3987 0214 715F6C69 		.ascii	"q_link\000"
 3987      6E6B00
 3988              	.LASF158:
 3989 021b 73746D33 		.ascii	"stm32_gpio_t\000"
 3989      325F6770 
 3989      696F5F74 
 3989      00
 3990              	.LASF76:
 3991 0228 70616E69 		.ascii	"panic_msg\000"
 3991      635F6D73 
 3991      6700
 3992              	.LASF199:
 3993 0232 4442474D 		.ascii	"DBGMCU_CR\000"
 3993      43555F43 
 3993      5200
 3994              	.LASF79:
 3995 023c 74726163 		.ascii	"trace_buffer\000"
 3995      655F6275 
 3995      66666572 
 3995      00
 3996              	.LASF60:
 3997 0249 725F6E65 		.ascii	"r_newer\000"
 3997      77657200 
 3998              	.LASF189:
 3999 0251 4D454D50 		.ascii	"MEMP_NETBUF\000"
 3999      5F4E4554 
 3999      42554600 
 4000              	.LASF74:
 4001 025d 73797374 		.ascii	"system_debug_t\000"
 4001      656D5F64 
 4001      65627567 
 4001      5F7400
 4002              	.LASF160:
 4003 026c 53445F55 		.ascii	"SD_UNINIT\000"
 4003      4E494E49 
 4003      5400
 4004              	.LASF179:
 4005 0276 5F5F676E 		.ascii	"__gnuc_va_list\000"
 4005      75635F76 
 4005      615F6C69 
 4005      737400
 4006              	.LASF148:
 4007 0285 5F426F6F 		.ascii	"_Bool\000"
 4007      6C00
 4008              	.LASF118:
 4009 028b 63686172 		.ascii	"char\000"
ARM GAS  C:\Users\jo\AppData\Local\Temp\ccWSatz4.s 			page 74


 4009      00
 4010              	.LASF33:
 4011 0290 705F7072 		.ascii	"p_prio\000"
 4011      696F00
 4012              	.LASF6:
 4013 0297 5F5F7569 		.ascii	"__uint16_t\000"
 4013      6E743136 
 4013      5F7400
 4014              	.LASF106:
 4015 02a2 77746F62 		.ascii	"wtobjp\000"
 4015      6A7000
 4016              	.LASF174:
 4017 02a9 67657474 		.ascii	"gett\000"
 4017      00
 4018              	.LASF90:
 4019 02ae 73746B61 		.ascii	"stkalign_t\000"
 4019      6C69676E 
 4019      5F7400
 4020              	.LASF88:
 4021 02b9 55534152 		.ascii	"USART_TypeDef\000"
 4021      545F5479 
 4021      70654465 
 4021      6600
 4022              	.LASF121:
 4023 02c7 6576656E 		.ascii	"event_listener_t\000"
 4023      745F6C69 
 4023      7374656E 
 4023      65725F74 
 4023      00
 4024              	.LASF159:
 4025 02d8 696F706F 		.ascii	"ioportmask_t\000"
 4025      72746D61 
 4025      736B5F74 
 4025      00
 4026              	.LASF28:
 4027 02e5 636E745F 		.ascii	"cnt_t\000"
 4027      7400
 4028              	.LASF226:
 4029 02eb 63687072 		.ascii	"chprintf\000"
 4029      696E7466 
 4029      00
 4030              	.LASF178:
 4031 02f4 49544D53 		.ascii	"ITMStream\000"
 4031      74726561 
 4031      6D00
 4032              	.LASF215:
 4033 02fe 63685468 		.ascii	"chThdSleep\000"
 4033      64536C65 
 4033      657000
 4034              	.LASF69:
 4035 0309 76745F66 		.ascii	"vt_func\000"
 4035      756E6300 
 4036              	.LASF190:
 4037 0311 4D454D50 		.ascii	"MEMP_NETCONN\000"
 4037      5F4E4554 
 4037      434F4E4E 
 4037      00
ARM GAS  C:\Users\jo\AppData\Local\Temp\ccWSatz4.s 			page 75


 4038              	.LASF101:
 4039 031e 63685F74 		.ascii	"ch_trace_buffer_t\000"
 4039      72616365 
 4039      5F627566 
 4039      6665725F 
 4039      7400
 4040              	.LASF170:
 4041 0330 73706565 		.ascii	"speed\000"
 4041      6400
 4042              	.LASF45:
 4043 0336 705F6570 		.ascii	"p_epending\000"
 4043      656E6469 
 4043      6E6700
 4044              	.LASF184:
 4045 0341 4D454D50 		.ascii	"MEMP_TCP_PCB\000"
 4045      5F544350 
 4045      5F504342 
 4045      00
 4046              	.LASF109:
 4047 034e 77746D74 		.ascii	"wtmtxp\000"
 4047      787000
 4048              	.LASF56:
 4049 0355 63685F72 		.ascii	"ch_ready_list\000"
 4049      65616479 
 4049      5F6C6973 
 4049      7400
 4050              	.LASF149:
 4051 0363 636C6561 		.ascii	"clear\000"
 4051      7200
 4052              	.LASF77:
 4053 0369 6973725F 		.ascii	"isr_cnt\000"
 4053      636E7400 
 4054              	.LASF129:
 4055 0371 65735F6E 		.ascii	"es_next\000"
 4055      65787400 
 4056              	.LASF134:
 4057 0379 715F636F 		.ascii	"q_counter\000"
 4057      756E7465 
 4057      7200
 4058              	.LASF96:
 4059 0383 73655F73 		.ascii	"se_state\000"
 4059      74617465 
 4059      00
 4060              	.LASF13:
 4061 038c 5F5F7569 		.ascii	"__uint64_t\000"
 4061      6E743634 
 4061      5F7400
 4062              	.LASF11:
 4063 0397 6C6F6E67 		.ascii	"long unsigned int\000"
 4063      20756E73 
 4063      69676E65 
 4063      6420696E 
 4063      7400
 4064              	.LASF180:
 4065 03a9 5F5F7661 		.ascii	"__va_list\000"
 4065      5F6C6973 
 4065      7400
ARM GAS  C:\Users\jo\AppData\Local\Temp\ccWSatz4.s 			page 76


 4066              	.LASF205:
 4067 03b3 42756666 		.ascii	"Buffer\000"
 4067      657200
 4068              	.LASF111:
 4069 03ba 63685F73 		.ascii	"ch_semaphore\000"
 4069      656D6170 
 4069      686F7265 
 4069      00
 4070              	.LASF217:
 4071 03c7 73746174 		.ascii	"stats_display\000"
 4071      735F6469 
 4071      73706C61 
 4071      7900
 4072              	.LASF51:
 4073 03d5 63685F74 		.ascii	"ch_thread\000"
 4073      68726561 
 4073      6400
 4074              	.LASF181:
 4075 03df 5F5F6170 		.ascii	"__ap\000"
 4075      00
 4076              	.LASF71:
 4077 03e4 76697274 		.ascii	"virtual_timers_list_t\000"
 4077      75616C5F 
 4077      74696D65 
 4077      72735F6C 
 4077      6973745F 
 4078              	.LASF123:
 4079 03fa 656C5F6E 		.ascii	"el_next\000"
 4079      65787400 
 4080              	.LASF197:
 4081 0402 49544D5F 		.ascii	"ITM_TER\000"
 4081      54455200 
 4082              	.LASF64:
 4083 040a 76697274 		.ascii	"virtual_timer_t\000"
 4083      75616C5F 
 4083      74696D65 
 4083      725F7400 
 4084              	.LASF55:
 4085 041a 72656164 		.ascii	"ready_list_t\000"
 4085      795F6C69 
 4085      73745F74 
 4085      00
 4086              	.LASF137:
 4087 0427 715F7772 		.ascii	"q_wrptr\000"
 4087      70747200 
 4088              	.LASF155:
 4089 042f 4C434B52 		.ascii	"LCKR\000"
 4089      00
 4090              	.LASF220:
 4091 0434 73645374 		.ascii	"sdStart\000"
 4091      61727400 
 4092              	.LASF221:
 4093 043c 63687670 		.ascii	"chvprintf\000"
 4093      72696E74 
 4093      6600
 4094              	.LASF218:
 4095 0446 68616C49 		.ascii	"halInit\000"
ARM GAS  C:\Users\jo\AppData\Local\Temp\ccWSatz4.s 			page 77


 4095      6E697400 
 4096              	.LASF52:
 4097 044e 63685F74 		.ascii	"ch_threads_list\000"
 4097      68726561 
 4097      64735F6C 
 4097      69737400 
 4098              	.LASF97:
 4099 045e 63685F73 		.ascii	"ch_swc_event_t\000"
 4099      77635F65 
 4099      76656E74 
 4099      5F7400
 4100              	.LASF152:
 4101 046d 4F535045 		.ascii	"OSPEEDR\000"
 4101      45445200 
 4102              	.LASF10:
 4103 0475 5F5F7569 		.ascii	"__uint32_t\000"
 4103      6E743332 
 4103      5F7400
 4104              	.LASF227:
 4105 0480 54687265 		.ascii	"Thread1\000"
 4105      61643100 
 4106              	.LASF12:
 4107 0488 6C6F6E67 		.ascii	"long long int\000"
 4107      206C6F6E 
 4107      6720696E 
 4107      7400
 4108              	.LASF182:
 4109 0496 76615F6C 		.ascii	"va_list\000"
 4109      69737400 
 4110              	.LASF115:
 4111 049e 6D5F7175 		.ascii	"m_queue\000"
 4111      65756500 
 4112              	.LASF66:
 4113 04a6 76745F6E 		.ascii	"vt_next\000"
 4113      65787400 
 4114              	.LASF222:
 4115 04ae 63685468 		.ascii	"chThdCreateStatic\000"
 4115      64437265 
 4115      61746553 
 4115      74617469 
 4115      6300
 4116              	.LASF67:
 4117 04c0 76745F70 		.ascii	"vt_prev\000"
 4117      72657600 
 4118              	.LASF224:
 4119 04c8 6D61696E 		.ascii	"main.c\000"
 4119      2E6300
 4120              	.LASF87:
 4121 04cf 47545052 		.ascii	"GTPR\000"
 4121      00
 4122              	.LASF98:
 4123 04d4 74625F73 		.ascii	"tb_size\000"
 4123      697A6500 
 4124              	.LASF130:
 4125 04dc 6576656E 		.ascii	"event_source_t\000"
 4125      745F736F 
 4125      75726365 
ARM GAS  C:\Users\jo\AppData\Local\Temp\ccWSatz4.s 			page 78


 4125      5F7400
 4126              	.LASF172:
 4127 04eb 53657269 		.ascii	"SerialDriverVMT\000"
 4127      616C4472 
 4127      69766572 
 4127      564D5400 
 4128              	.LASF211:
 4129 04fb 49544D5F 		.ascii	"ITM_RxBuffer\000"
 4129      52784275 
 4129      66666572 
 4129      00
 4130              	.LASF119:
 4131 0508 7466756E 		.ascii	"tfunc_t\000"
 4131      635F7400 
 4132              	.LASF212:
 4133 0510 69746D5F 		.ascii	"itm_port\000"
 4133      706F7274 
 4133      00
 4134              	.LASF141:
 4135 0519 716E6F74 		.ascii	"qnotify_t\000"
 4135      6966795F 
 4135      7400
 4136              	.LASF209:
 4137 0523 44656275 		.ascii	"Debug_ITMDebug\000"
 4137      675F4954 
 4137      4D446562 
 4137      756700
 4138              	.LASF42:
 4139 0532 705F7761 		.ascii	"p_waiting\000"
 4139      6974696E 
 4139      6700
 4140              	.LASF165:
 4141 053c 6576656E 		.ascii	"event\000"
 4141      7400
 4142              	.LASF95:
 4143 0542 73655F77 		.ascii	"se_wtobjp\000"
 4143      746F626A 
 4143      7000
 4144              	.LASF40:
 4145 054c 705F666C 		.ascii	"p_flags\000"
 4145      61677300 
 4146              	.LASF146:
 4147 0554 72656164 		.ascii	"read\000"
 4147      00
 4148              	.LASF85:
 4149 0559 69646C65 		.ascii	"idle_thread_wa\000"
 4149      5F746872 
 4149      6561645F 
 4149      776100
 4150              	.LASF0:
 4151 0568 756E7369 		.ascii	"unsigned int\000"
 4151      676E6564 
 4151      20696E74 
 4151      00
 4152              	.LASF20:
 4153 0575 7274636E 		.ascii	"rtcnt_t\000"
 4153      745F7400 
ARM GAS  C:\Users\jo\AppData\Local\Temp\ccWSatz4.s 			page 79


 4154              	.LASF48:
 4155 057d 705F6D70 		.ascii	"p_mpool\000"
 4155      6F6F6C00 
 4156              	.LASF41:
 4157 0585 705F7265 		.ascii	"p_refs\000"
 4157      667300
 4158              	.LASF213:
 4159 058c 77615F6C 		.ascii	"wa_lwip_thread\000"
 4159      7769705F 
 4159      74687265 
 4159      616400
 4160              	.LASF127:
 4161 059b 656C5F77 		.ascii	"el_wflags\000"
 4161      666C6167 
 4161      7300
 4162              	.LASF125:
 4163 05a5 656C5F65 		.ascii	"el_events\000"
 4163      76656E74 
 4163      7300
 4164              	.LASF102:
 4165 05af 6F666673 		.ascii	"offset\000"
 4165      657400
 4166              	.LASF100:
 4167 05b6 74625F62 		.ascii	"tb_buffer\000"
 4167      75666665 
 4167      7200
 4168              	.LASF30:
 4169 05c0 74687265 		.ascii	"thread_t\000"
 4169      61645F74 
 4169      00
 4170              	.LASF49:
 4171 05c9 74687265 		.ascii	"thread_reference_t\000"
 4171      61645F72 
 4171      65666572 
 4171      656E6365 
 4171      5F7400
 4172              	.LASF47:
 4173 05dc 705F7265 		.ascii	"p_realprio\000"
 4173      616C7072 
 4173      696F00
 4174              	.LASF92:
 4175 05e7 706F7274 		.ascii	"port_intctx\000"
 4175      5F696E74 
 4175      63747800 
 4176              	.LASF202:
 4177 05f3 49544D5F 		.ascii	"ITM_STIM0\000"
 4177      5354494D 
 4177      3000
 4178              	.LASF68:
 4179 05fd 76745F64 		.ascii	"vt_delta\000"
 4179      656C7461 
 4179      00
 4180              	.LASF187:
 4181 0606 4D454D50 		.ascii	"MEMP_REASSDATA\000"
 4181      5F524541 
 4181      53534441 
 4181      544100
ARM GAS  C:\Users\jo\AppData\Local\Temp\ccWSatz4.s 			page 80


 4182              	.LASF65:
 4183 0615 63685F76 		.ascii	"ch_virtual_timer\000"
 4183      69727475 
 4183      616C5F74 
 4183      696D6572 
 4183      00
 4184              	.LASF113:
 4185 0626 735F636E 		.ascii	"s_cnt\000"
 4185      7400
 4186              	.LASF201:
 4187 062c 44656275 		.ascii	"Debug_ITMDebugOutputChar\000"
 4187      675F4954 
 4187      4D446562 
 4187      75674F75 
 4187      74707574 
 4188              	.LASF207:
 4189 0645 5F5F696F 		.ascii	"__io_putchar\000"
 4189      5F707574 
 4189      63686172 
 4189      00
 4190              	.LASF188:
 4191 0652 4D454D50 		.ascii	"MEMP_FRAG_PBUF\000"
 4191      5F465241 
 4191      475F5042 
 4191      554600
 4192              	.LASF14:
 4193 0661 6C6F6E67 		.ascii	"long long unsigned int\000"
 4193      206C6F6E 
 4193      6720756E 
 4193      7369676E 
 4193      65642069 
 4194              	.LASF183:
 4195 0678 4D454D50 		.ascii	"MEMP_UDP_PCB\000"
 4195      5F554450 
 4195      5F504342 
 4195      00
 4196              	.LASF36:
 4197 0685 705F6F6C 		.ascii	"p_older\000"
 4197      64657200 
 4198              	.LASF186:
 4199 068d 4D454D50 		.ascii	"MEMP_TCP_SEG\000"
 4199      5F544350 
 4199      5F534547 
 4199      00
 4200              	.LASF16:
 4201 069a 75696E74 		.ascii	"uint16_t\000"
 4201      31365F74 
 4201      00
 4202              	.LASF25:
 4203 06a3 6D73675F 		.ascii	"msg_t\000"
 4203      7400
 4204              	.LASF54:
 4205 06a9 63685F74 		.ascii	"ch_threads_queue\000"
 4205      68726561 
 4205      64735F71 
 4205      75657565 
 4205      00
ARM GAS  C:\Users\jo\AppData\Local\Temp\ccWSatz4.s 			page 81


 4206              	.LASF27:
 4207 06ba 6576656E 		.ascii	"eventflags_t\000"
 4207      74666C61 
 4207      67735F74 
 4207      00
 4208              	.LASF192:
 4209 06c7 4D454D50 		.ascii	"MEMP_TCPIP_MSG_INPKT\000"
 4209      5F544350 
 4209      49505F4D 
 4209      53475F49 
 4209      4E504B54 
 4210              	.LASF62:
 4211 06dc 725F6375 		.ascii	"r_current\000"
 4211      7272656E 
 4211      7400
 4212              	.LASF157:
 4213 06e6 41465248 		.ascii	"AFRH\000"
 4213      00
 4214              	.LASF156:
 4215 06eb 4146524C 		.ascii	"AFRL\000"
 4215      00
 4216              	.LASF84:
 4217 06f0 6D61696E 		.ascii	"mainthread\000"
 4217      74687265 
 4217      616400
 4218              	.LASF57:
 4219 06fb 725F7175 		.ascii	"r_queue\000"
 4219      65756500 
 4220              	.LASF164:
 4221 0703 53657269 		.ascii	"SerialDriver\000"
 4221      616C4472 
 4221      69766572 
 4221      00
 4222              	.LASF196:
 4223 0710 4D454D50 		.ascii	"MEMP_MAX\000"
 4223      5F4D4158 
 4223      00
 4224              	.LASF151:
 4225 0719 4F545950 		.ascii	"OTYPER\000"
 4225      455200
 4226              	.LASF133:
 4227 0720 715F7761 		.ascii	"q_waiting\000"
 4227      6974696E 
 4227      6700
 4228              	.LASF144:
 4229 072a 42617365 		.ascii	"BaseSequentialStreamVMT\000"
 4229      53657175 
 4229      656E7469 
 4229      616C5374 
 4229      7265616D 
 4230              	.LASF82:
 4231 0742 726C6973 		.ascii	"rlist\000"
 4231      7400
 4232              	.LASF21:
 4233 0748 746D6F64 		.ascii	"tmode_t\000"
 4233      655F7400 
 4234              	.LASF203:
ARM GAS  C:\Users\jo\AppData\Local\Temp\ccWSatz4.s 			page 82


 4235 0750 5343425F 		.ascii	"SCB_DEMCR\000"
 4235      44454D43 
 4235      5200
 4236              	.LASF163:
 4237 075a 73647374 		.ascii	"sdstate_t\000"
 4237      6174655F 
 4237      7400
 4238              	.LASF228:
 4239 0764 54657374 		.ascii	"TestThread\000"
 4239      54687265 
 4239      616400
 4240              	.LASF204:
 4241 076f 44656275 		.ascii	"Debug_ITMDebugOutputString\000"
 4241      675F4954 
 4241      4D446562 
 4241      75674F75 
 4241      74707574 
 4242              	.LASF162:
 4243 078a 53445F52 		.ascii	"SD_READY\000"
 4243      45414459 
 4243      00
 4244              	.LASF61:
 4245 0793 725F6F6C 		.ascii	"r_older\000"
 4245      64657200 
 4246              	.LASF103:
 4247 079b 746D5F63 		.ascii	"tm_calibration_t\000"
 4247      616C6962 
 4247      72617469 
 4247      6F6E5F74 
 4247      00
 4248              	.LASF112:
 4249 07ac 735F7175 		.ascii	"s_queue\000"
 4249      65756500 
 4250              	.LASF198:
 4251 07b4 5343425F 		.ascii	"SCB_DHCSR\000"
 4251      44484353 
 4251      5200
 4252              	.LASF194:
 4253 07be 4D454D50 		.ascii	"MEMP_PBUF\000"
 4253      5F504255 
 4253      4600
 4254              	.LASF5:
 4255 07c8 73686F72 		.ascii	"short int\000"
 4255      7420696E 
 4255      7400
 4256              	.LASF128:
 4257 07d2 6576656E 		.ascii	"event_source\000"
 4257      745F736F 
 4257      75726365 
 4257      00
 4258              	.LASF19:
 4259 07df 75696E74 		.ascii	"uint64_t\000"
 4259      36345F74 
 4259      00
 4260              	.LASF114:
 4261 07e8 63685F6D 		.ascii	"ch_mutex\000"
 4261      75746578 
ARM GAS  C:\Users\jo\AppData\Local\Temp\ccWSatz4.s 			page 83


 4261      00
 4262              	.LASF167:
 4263 07f1 69717565 		.ascii	"iqueue\000"
 4263      756500
 4264              	.LASF58:
 4265 07f8 725F7072 		.ascii	"r_prio\000"
 4265      696F00
 4266              	.LASF191:
 4267 07ff 4D454D50 		.ascii	"MEMP_TCPIP_MSG_API\000"
 4267      5F544350 
 4267      49505F4D 
 4267      53475F41 
 4267      504900
 4268              	.LASF75:
 4269 0812 63685F73 		.ascii	"ch_system_debug\000"
 4269      79737465 
 4269      6D5F6465 
 4269      62756700 
 4270              	.LASF131:
 4271 0822 696F5F71 		.ascii	"io_queue_t\000"
 4271      75657565 
 4271      5F7400
 4272              	.LASF154:
 4273 082d 42535252 		.ascii	"BSRR\000"
 4273      00
 4274              	.LASF83:
 4275 0832 76746C69 		.ascii	"vtlist\000"
 4275      737400
 4276              	.LASF120:
 4277 0839 6D757465 		.ascii	"mutex_t\000"
 4277      785F7400 
 4278              	.LASF23:
 4279 0841 74726566 		.ascii	"trefs_t\000"
 4279      735F7400 
 4280              	.LASF50:
 4281 0849 74687265 		.ascii	"threads_list_t\000"
 4281      6164735F 
 4281      6C697374 
 4281      5F7400
 4282              	.LASF223:
 4283 0858 474E5520 		.ascii	"GNU C 4.9.3 20141119 (release) [ARM/embedded-4_9-br"
 4283      4320342E 
 4283      392E3320 
 4283      32303134 
 4283      31313139 
 4284 088b 616E6368 		.ascii	"anch revision 218278] -mcpu=cortex-m4 -mno-thumb-in"
 4284      20726576 
 4284      6973696F 
 4284      6E203231 
 4284      38323738 
 4285 08be 74657277 		.ascii	"terwork -mthumb -ggdb -O2 -fomit-frame-pointer -fal"
 4285      6F726B20 
 4285      2D6D7468 
 4285      756D6220 
 4285      2D676764 
 4286 08f1 69676E2D 		.ascii	"ign-functions=16 -ffunction-sections -fdata-section"
 4286      66756E63 
ARM GAS  C:\Users\jo\AppData\Local\Temp\ccWSatz4.s 			page 84


 4286      74696F6E 
 4286      733D3136 
 4286      202D6666 
 4287 0924 73202D66 		.ascii	"s -fno-common\000"
 4287      6E6F2D63 
 4287      6F6D6D6F 
 4287      6E00
 4288              	.LASF81:
 4289 0932 63685F73 		.ascii	"ch_system\000"
 4289      79737465 
 4289      6D00
 4290              	.LASF219:
 4291 093c 63685379 		.ascii	"chSysInit\000"
 4291      73496E69 
 4291      7400
 4292              	.LASF18:
 4293 0946 75696E74 		.ascii	"uint32_t\000"
 4293      33325F74 
 4293      00
 4294              	.LASF177:
 4295 094f 49544D53 		.ascii	"ITMStreamVMT\000"
 4295      74726561 
 4295      6D564D54 
 4295      00
 4296              	.LASF150:
 4297 095c 4D4F4445 		.ascii	"MODER\000"
 4297      5200
 4298              	.LASF142:
 4299 0962 696E7075 		.ascii	"input_queue_t\000"
 4299      745F7175 
 4299      6575655F 
 4299      7400
 4300              	.LASF122:
 4301 0970 6576656E 		.ascii	"event_listener\000"
 4301      745F6C69 
 4301      7374656E 
 4301      657200
 4302              	.LASF104:
 4303 097f 7264796D 		.ascii	"rdymsg\000"
 4303      736700
 4304              	.LASF73:
 4305 0986 76745F6C 		.ascii	"vt_lasttime\000"
 4305      61737474 
 4305      696D6500 
 4306              	.LASF7:
 4307 0992 73686F72 		.ascii	"short unsigned int\000"
 4307      7420756E 
 4307      7369676E 
 4307      65642069 
 4307      6E7400
 4308              	.LASF80:
 4309 09a5 63685F73 		.ascii	"ch_system_t\000"
 4309      79737465 
 4309      6D5F7400 
 4310              	.LASF143:
 4311 09b1 6F757470 		.ascii	"output_queue_t\000"
 4311      75745F71 
ARM GAS  C:\Users\jo\AppData\Local\Temp\ccWSatz4.s 			page 85


 4311      75657565 
 4311      5F7400
 4312              	.LASF38:
 4313 09c0 705F7374 		.ascii	"p_stklimit\000"
 4313      6B6C696D 
 4313      697400
 4314              	.LASF8:
 4315 09cb 5F5F696E 		.ascii	"__int32_t\000"
 4315      7433325F 
 4315      7400
 4316              	.LASF161:
 4317 09d5 53445F53 		.ascii	"SD_STOP\000"
 4317      544F5000 
 4318              	.LASF93:
 4319 09dd 73655F74 		.ascii	"se_time\000"
 4319      696D6500 
 4320              	.LASF37:
 4321 09e5 705F6E61 		.ascii	"p_name\000"
 4321      6D6500
 4322              	.LASF117:
 4323 09ec 6D5F6E65 		.ascii	"m_next\000"
 4323      787400
 4324              	.LASF99:
 4325 09f3 74625F70 		.ascii	"tb_ptr\000"
 4325      747200
 4326              	.LASF225:
 4327 09fa 433A5C55 		.ascii	"C:\\Users\\jo\\Documents\\GitHub\\ChibiOS\\demos\\S"
 4327      73657273 
 4327      5C6A6F5C 
 4327      446F6375 
 4327      6D656E74 
 4328 0a26 544D3332 		.ascii	"TM32\\RT-STM32F407-DISCOVERY-uHttp\000"
 4328      5C52542D 
 4328      53544D33 
 4328      32463430 
 4328      372D4449 
 4329              	.LASF185:
 4330 0a48 4D454D50 		.ascii	"MEMP_TCP_PCB_LISTEN\000"
 4330      5F544350 
 4330      5F504342 
 4330      5F4C4953 
 4330      54454E00 
 4331              	.LASF210:
 4332 0a5c 77615468 		.ascii	"waThread1\000"
 4332      72656164 
 4332      3100
 4333              	.LASF44:
 4334 0a66 705F6D73 		.ascii	"p_msg\000"
 4334      6700
 4335              	.LASF124:
 4336 0a6c 656C5F6C 		.ascii	"el_listener\000"
 4336      69737465 
 4336      6E657200 
 4337              	.LASF39:
 4338 0a78 705F7374 		.ascii	"p_state\000"
 4338      61746500 
 4339              		.ident	"GCC: (GNU Tools for ARM Embedded Processors) 4.9.3 20141119 (release) [ARM/embedded-4_9-br
ARM GAS  C:\Users\jo\AppData\Local\Temp\ccWSatz4.s 			page 86


ARM GAS  C:\Users\jo\AppData\Local\Temp\ccWSatz4.s 			page 87


DEFINED SYMBOLS
                            *ABS*:00000000 main.c
C:\Users\jo\AppData\Local\Temp\ccWSatz4.s:19     .text.Thread1:00000000 $t
C:\Users\jo\AppData\Local\Temp\ccWSatz4.s:24     .text.Thread1:00000000 Thread1
C:\Users\jo\AppData\Local\Temp\ccWSatz4.s:71     .text.Thread1:0000002c $d
C:\Users\jo\AppData\Local\Temp\ccWSatz4.s:78     .text.chprintf.constprop.3:00000000 $t
C:\Users\jo\AppData\Local\Temp\ccWSatz4.s:83     .text.chprintf.constprop.3:00000000 chprintf.constprop.3
C:\Users\jo\AppData\Local\Temp\ccWSatz4.s:129    .text.chprintf.constprop.3:00000020 $d
C:\Users\jo\AppData\Local\Temp\ccWSatz4.s:135    .text.Debug_ITMDebugEnable:00000000 $t
C:\Users\jo\AppData\Local\Temp\ccWSatz4.s:141    .text.Debug_ITMDebugEnable:00000000 Debug_ITMDebugEnable
C:\Users\jo\AppData\Local\Temp\ccWSatz4.s:175    .text.Debug_ITMDebugEnable:00000024 $d
C:\Users\jo\AppData\Local\Temp\ccWSatz4.s:184    .text.Debug_ITMDebugOutputChar:00000000 $t
C:\Users\jo\AppData\Local\Temp\ccWSatz4.s:190    .text.Debug_ITMDebugOutputChar:00000000 Debug_ITMDebugOutputChar
C:\Users\jo\AppData\Local\Temp\ccWSatz4.s:223    .text.Debug_ITMDebugOutputChar:00000020 $d
C:\Users\jo\AppData\Local\Temp\ccWSatz4.s:231    .text.Debug_ITMDebugOutputString:00000000 $t
C:\Users\jo\AppData\Local\Temp\ccWSatz4.s:237    .text.Debug_ITMDebugOutputString:00000000 Debug_ITMDebugOutputString
C:\Users\jo\AppData\Local\Temp\ccWSatz4.s:283    .text.Debug_ITMDebugOutputString:00000020 $d
C:\Users\jo\AppData\Local\Temp\ccWSatz4.s:290    .text.__io_putchar:00000000 $t
C:\Users\jo\AppData\Local\Temp\ccWSatz4.s:296    .text.__io_putchar:00000000 __io_putchar
C:\Users\jo\AppData\Local\Temp\ccWSatz4.s:321    .text.startup.main:00000000 $t
C:\Users\jo\AppData\Local\Temp\ccWSatz4.s:327    .text.startup.main:00000000 main
C:\Users\jo\AppData\Local\Temp\ccWSatz4.s:440    .text.startup.main:00000090 $d
C:\Users\jo\AppData\Local\Temp\ccWSatz4.s:480    .bss.itm_port:00000000 itm_port
C:\Users\jo\AppData\Local\Temp\ccWSatz4.s:462    .bss.waThread1:00000000 $d
C:\Users\jo\AppData\Local\Temp\ccWSatz4.s:466    .bss.waThread1:00000000 waThread1
C:\Users\jo\AppData\Local\Temp\ccWSatz4.s:469    .bss.Debug_ITMDebug:00000000 $d
C:\Users\jo\AppData\Local\Temp\ccWSatz4.s:473    .bss.Debug_ITMDebug:00000000 Debug_ITMDebug
C:\Users\jo\AppData\Local\Temp\ccWSatz4.s:476    .bss.itm_port:00000000 $d
C:\Users\jo\AppData\Local\Temp\ccWSatz4.s:483    .rodata.str1.4:00000000 $d
                     .debug_frame:00000010 $d
C:\Users\jo\AppData\Local\Temp\ccWSatz4.s:77     .text.Thread1:00000038 $t
C:\Users\jo\AppData\Local\Temp\ccWSatz4.s:134    .text.chprintf.constprop.3:00000028 $t
C:\Users\jo\AppData\Local\Temp\ccWSatz4.s:183    .text.Debug_ITMDebugEnable:00000034 $t
C:\Users\jo\AppData\Local\Temp\ccWSatz4.s:230    .text.Debug_ITMDebugOutputChar:00000028 $t
C:\Users\jo\AppData\Local\Temp\ccWSatz4.s:289    .text.Debug_ITMDebugOutputString:00000024 $t
C:\Users\jo\AppData\Local\Temp\ccWSatz4.s:461    .text.startup.main:000000c4 $t

UNDEFINED SYMBOLS
chThdSleep
stats_display
ch
chvprintf
itmObjectInit
halInit
chSysInit
sdStart
chThdCreateStatic
TestThread
SD6
lwip_thread
wa_lwip_thread
HttpTask
task_http_stack
