ARM GAS  C:\Users\jo\AppData\Local\Temp\cc4vLKFs.s 			page 1


   1              		.syntax unified
   2              		.cpu cortex-m4
   3              		.fpu softvfp
   4              		.eabi_attribute 20, 1
   5              		.eabi_attribute 21, 1
   6              		.eabi_attribute 23, 3
   7              		.eabi_attribute 24, 1
   8              		.eabi_attribute 25, 1
   9              		.eabi_attribute 26, 1
  10              		.eabi_attribute 30, 2
  11              		.eabi_attribute 34, 1
  12              		.eabi_attribute 18, 4
  13              		.thumb
  14              		.file	"md.c"
  15              		.text
  16              	.Ltext0:
  17              		.cfi_sections	.debug_frame
  18              		.section	.text.md_list,"ax",%progbits
  19              		.align	2
  20              		.p2align 4,,15
  21              		.global	md_list
  22              		.thumb
  23              		.thumb_func
  24              		.type	md_list, %function
  25              	md_list:
  26              	.LFB4:
  27              		.file 1 "../../../ext/mbedtls-1.3.11/library/md.c"
  28              		.loc 1 87 0
  29              		.cfi_startproc
  30              		@ args = 0, pretend = 0, frame = 0
  31              		@ frame_needed = 0, uses_anonymous_args = 0
  32              		@ link register save eliminated.
  33              		.loc 1 89 0
  34 0000 0048     		ldr	r0, .L2
  35 0002 7047     		bx	lr
  36              	.L3:
  37              		.align	2
  38              	.L2:
  39 0004 00000000 		.word	.LANCHOR0
  40              		.cfi_endproc
  41              	.LFE4:
  42              		.size	md_list, .-md_list
  43 0008 AFF30080 		.section	.text.md_info_from_string,"ax",%progbits
  43      AFF30080 
  44              		.align	2
  45              		.p2align 4,,15
  46              		.global	md_info_from_string
  47              		.thumb
  48              		.thumb_func
  49              		.type	md_info_from_string, %function
  50              	md_info_from_string:
  51              	.LFB5:
  52              		.loc 1 92 0
  53              		.cfi_startproc
  54              		@ args = 0, pretend = 0, frame = 0
  55              		@ frame_needed = 0, uses_anonymous_args = 0
  56              	.LVL0:
ARM GAS  C:\Users\jo\AppData\Local\Temp\cc4vLKFs.s 			page 2


  57              		.loc 1 93 0
  58 0000 0028     		cmp	r0, #0
  59 0002 3AD0     		beq	.L16
  60              		.loc 1 92 0
  61 0004 10B5     		push	{r4, lr}
  62              		.cfi_def_cfa_offset 8
  63              		.cfi_offset 4, -8
  64              		.cfi_offset 14, -4
  65 0006 0446     		mov	r4, r0
  66              		.loc 1 106 0
  67 0008 2146     		mov	r1, r4
  68 000a 1C48     		ldr	r0, .L18
  69              	.LVL1:
  70 000c FFF7FEFF 		bl	strcasecmp
  71              	.LVL2:
  72 0010 58B3     		cbz	r0, .L7
  73              		.loc 1 110 0
  74 0012 1B48     		ldr	r0, .L18+4
  75 0014 2146     		mov	r1, r4
  76 0016 FFF7FEFF 		bl	strcasecmp
  77              	.LVL3:
  78 001a 10B3     		cbz	r0, .L8
  79              		.loc 1 114 0
  80 001c 1948     		ldr	r0, .L18+8
  81 001e 2146     		mov	r1, r4
  82 0020 FFF7FEFF 		bl	strcasecmp
  83              	.LVL4:
  84 0024 F8B1     		cbz	r0, .L10
  85              		.loc 1 114 0 is_stmt 0 discriminator 1
  86 0026 1848     		ldr	r0, .L18+12
  87 0028 2146     		mov	r1, r4
  88 002a FFF7FEFF 		bl	strcasecmp
  89              	.LVL5:
  90 002e D0B1     		cbz	r0, .L10
  91              		.loc 1 118 0 is_stmt 1
  92 0030 1648     		ldr	r0, .L18+16
  93 0032 2146     		mov	r1, r4
  94 0034 FFF7FEFF 		bl	strcasecmp
  95              	.LVL6:
  96 0038 C8B1     		cbz	r0, .L11
  97              		.loc 1 120 0
  98 003a 1548     		ldr	r0, .L18+20
  99 003c 2146     		mov	r1, r4
 100 003e FFF7FEFF 		bl	strcasecmp
 101              	.LVL7:
 102 0042 C0B1     		cbz	r0, .L12
 103              		.loc 1 124 0
 104 0044 1348     		ldr	r0, .L18+24
 105 0046 2146     		mov	r1, r4
 106 0048 FFF7FEFF 		bl	strcasecmp
 107              	.LVL8:
 108 004c 88B1     		cbz	r0, .L13
 109              		.loc 1 126 0
 110 004e 2146     		mov	r1, r4
 111 0050 1148     		ldr	r0, .L18+28
 112              		.loc 1 129 0
 113 0052 124C     		ldr	r4, .L18+32
ARM GAS  C:\Users\jo\AppData\Local\Temp\cc4vLKFs.s 			page 3


 114              	.LVL9:
 115              		.loc 1 126 0
 116 0054 FFF7FEFF 		bl	strcasecmp
 117              	.LVL10:
 118 0058 0028     		cmp	r0, #0
 119              		.loc 1 129 0
 120 005a 0CBF     		ite	eq
 121 005c 2046     		moveq	r0, r4
 122 005e 0020     		movne	r0, #0
 123 0060 10BD     		pop	{r4, pc}
 124              	.LVL11:
 125              	.L8:
 126              		.loc 1 111 0
 127 0062 0F48     		ldr	r0, .L18+36
 128 0064 10BD     		pop	{r4, pc}
 129              	.LVL12:
 130              	.L10:
 131              		.loc 1 115 0
 132 0066 0F48     		ldr	r0, .L18+40
 133 0068 10BD     		pop	{r4, pc}
 134              	.LVL13:
 135              	.L7:
 136              		.loc 1 107 0
 137 006a 0F48     		ldr	r0, .L18+44
 138 006c 10BD     		pop	{r4, pc}
 139              	.LVL14:
 140              	.L11:
 141              		.loc 1 119 0
 142 006e 0F48     		ldr	r0, .L18+48
 143 0070 10BD     		pop	{r4, pc}
 144              	.LVL15:
 145              	.L13:
 146              		.loc 1 125 0
 147 0072 0F48     		ldr	r0, .L18+52
 148              		.loc 1 130 0
 149 0074 10BD     		pop	{r4, pc}
 150              	.LVL16:
 151              	.L12:
 152              		.loc 1 121 0
 153 0076 0F48     		ldr	r0, .L18+56
 154 0078 10BD     		pop	{r4, pc}
 155              	.LVL17:
 156              	.L16:
 157              		.cfi_def_cfa_offset 0
 158              		.cfi_restore 4
 159              		.cfi_restore 14
 160              		.loc 1 130 0
 161 007a 7047     		bx	lr
 162              	.L19:
 163              		.align	2
 164              	.L18:
 165 007c 00000000 		.word	.LC0
 166 0080 04000000 		.word	.LC1
 167 0084 10000000 		.word	.LC2
 168 0088 18000000 		.word	.LC3
 169 008c 1C000000 		.word	.LC4
 170 0090 24000000 		.word	.LC5
ARM GAS  C:\Users\jo\AppData\Local\Temp\cc4vLKFs.s 			page 4


 171 0094 2C000000 		.word	.LC6
 172 0098 34000000 		.word	.LC7
 173 009c 00000000 		.word	sha512_info
 174 00a0 00000000 		.word	ripemd160_info
 175 00a4 00000000 		.word	sha1_info
 176 00a8 00000000 		.word	md5_info
 177 00ac 00000000 		.word	sha224_info
 178 00b0 00000000 		.word	sha384_info
 179 00b4 00000000 		.word	sha256_info
 180              		.cfi_endproc
 181              	.LFE5:
 182              		.size	md_info_from_string, .-md_info_from_string
 183 00b8 AFF30080 		.section	.text.md_info_from_type,"ax",%progbits
 183      AFF30080 
 184              		.align	2
 185              		.p2align 4,,15
 186              		.global	md_info_from_type
 187              		.thumb
 188              		.thumb_func
 189              		.type	md_info_from_type, %function
 190              	md_info_from_type:
 191              	.LFB6:
 192              		.loc 1 133 0
 193              		.cfi_startproc
 194              		@ args = 0, pretend = 0, frame = 0
 195              		@ frame_needed = 0, uses_anonymous_args = 0
 196              		@ link register save eliminated.
 197              	.LVL18:
 198 0000 0338     		subs	r0, r0, #3
 199              	.LVL19:
 200 0002 C0B2     		uxtb	r0, r0
 201 0004 0628     		cmp	r0, #6
 202 0006 9ABF     		itte	ls
 203 0008 024B     		ldrls	r3, .L23
 204 000a 53F82000 		ldrls	r0, [r3, r0, lsl #2]
 205              		.loc 1 133 0
 206 000e 0020     		movhi	r0, #0
 207              		.loc 1 171 0
 208 0010 7047     		bx	lr
 209              	.L24:
 210 0012 00BF     		.align	2
 211              	.L23:
 212 0014 00000000 		.word	.LANCHOR1
 213              		.cfi_endproc
 214              	.LFE6:
 215              		.size	md_info_from_type, .-md_info_from_type
 216 0018 AFF30080 		.section	.text.md_init,"ax",%progbits
 216      AFF30080 
 217              		.align	2
 218              		.p2align 4,,15
 219              		.global	md_init
 220              		.thumb
 221              		.thumb_func
 222              		.type	md_init, %function
 223              	md_init:
 224              	.LFB7:
 225              		.loc 1 174 0
ARM GAS  C:\Users\jo\AppData\Local\Temp\cc4vLKFs.s 			page 5


 226              		.cfi_startproc
 227              		@ args = 0, pretend = 0, frame = 0
 228              		@ frame_needed = 0, uses_anonymous_args = 0
 229              		@ link register save eliminated.
 230              	.LVL20:
 231              		.loc 1 175 0
 232 0000 0346     		mov	r3, r0
 233 0002 0022     		movs	r2, #0
 234 0004 03F8012B 		strb	r2, [r3], #1
 235 0008 0133     		adds	r3, r3, #1
 236 000a 4270     		strb	r2, [r0, #1]
 237 000c 03F8012B 		strb	r2, [r3], #1
 238 0010 03F8012B 		strb	r2, [r3], #1
 239 0014 03F8012B 		strb	r2, [r3], #1
 240 0018 03F8012B 		strb	r2, [r3], #1
 241 001c 03F8012B 		strb	r2, [r3], #1
 242 0020 1A70     		strb	r2, [r3]
 243 0022 7047     		bx	lr
 244              		.cfi_endproc
 245              	.LFE7:
 246              		.size	md_init, .-md_init
 247 0024 AFF30080 		.section	.text.md_free,"ax",%progbits
 247      AFF30080 
 247      AFF30080 
 248              		.align	2
 249              		.p2align 4,,15
 250              		.global	md_free
 251              		.thumb
 252              		.thumb_func
 253              		.type	md_free, %function
 254              	md_free:
 255              	.LFB8:
 256              		.loc 1 179 0
 257              		.cfi_startproc
 258              		@ args = 0, pretend = 0, frame = 0
 259              		@ frame_needed = 0, uses_anonymous_args = 0
 260              	.LVL21:
 261 0000 10B5     		push	{r4, lr}
 262              		.cfi_def_cfa_offset 8
 263              		.cfi_offset 4, -8
 264              		.cfi_offset 14, -4
 265              		.loc 1 180 0
 266 0002 0446     		mov	r4, r0
 267 0004 58B1     		cbz	r0, .L26
 268              		.loc 1 183 0
 269 0006 4068     		ldr	r0, [r0, #4]
 270              	.LVL22:
 271 0008 10B1     		cbz	r0, .L28
 272              		.loc 1 184 0
 273 000a 2368     		ldr	r3, [r4]
 274 000c 9B6B     		ldr	r3, [r3, #56]
 275 000e 9847     		blx	r3
 276              	.LVL23:
 277              	.L28:
 278 0010 04F10802 		add	r2, r4, #8
 279              	.LBB18:
 280              	.LBB19:
ARM GAS  C:\Users\jo\AppData\Local\Temp\cc4vLKFs.s 			page 6


 281              		.loc 1 48 0
 282 0014 0023     		movs	r3, #0
 283              	.LVL24:
 284              	.L29:
 285 0016 2370     		strb	r3, [r4]
 286              	.LVL25:
 287 0018 0134     		adds	r4, r4, #1
 288              	.LVL26:
 289 001a 9442     		cmp	r4, r2
 290 001c FBD1     		bne	.L29
 291              	.LVL27:
 292              	.L26:
 293 001e 10BD     		pop	{r4, pc}
 294              	.LBE19:
 295              	.LBE18:
 296              		.cfi_endproc
 297              	.LFE8:
 298              		.size	md_free, .-md_free
 299              		.section	.text.md_init_ctx,"ax",%progbits
 300              		.align	2
 301              		.p2align 4,,15
 302              		.global	md_init_ctx
 303              		.thumb
 304              		.thumb_func
 305              		.type	md_init_ctx, %function
 306              	md_init_ctx:
 307              	.LFB9:
 308              		.loc 1 190 0
 309              		.cfi_startproc
 310              		@ args = 0, pretend = 0, frame = 0
 311              		@ frame_needed = 0, uses_anonymous_args = 0
 312              	.LVL28:
 313              		.loc 1 191 0
 314 0000 E9B1     		cbz	r1, .L39
 315              		.loc 1 191 0 is_stmt 0 discriminator 1
 316 0002 E0B1     		cbz	r0, .L39
 317              		.loc 1 194 0 is_stmt 1
 318 0004 0346     		mov	r3, r0
 319              		.loc 1 190 0
 320 0006 70B5     		push	{r4, r5, r6, lr}
 321              		.cfi_def_cfa_offset 16
 322              		.cfi_offset 4, -16
 323              		.cfi_offset 5, -12
 324              		.cfi_offset 6, -8
 325              		.cfi_offset 14, -4
 326              		.loc 1 194 0
 327 0008 0024     		movs	r4, #0
 328 000a 03F8014B 		strb	r4, [r3], #1
 329 000e 0133     		adds	r3, r3, #1
 330 0010 4470     		strb	r4, [r0, #1]
 331 0012 03F8014B 		strb	r4, [r3], #1
 332 0016 03F8014B 		strb	r4, [r3], #1
 333 001a 03F8014B 		strb	r4, [r3], #1
 334 001e 03F8014B 		strb	r4, [r3], #1
 335 0022 03F8014B 		strb	r4, [r3], #1
 336 0026 1C70     		strb	r4, [r3]
 337              		.loc 1 196 0
ARM GAS  C:\Users\jo\AppData\Local\Temp\cc4vLKFs.s 			page 7


 338 0028 4B6B     		ldr	r3, [r1, #52]
 339 002a 0546     		mov	r5, r0
 340 002c 0E46     		mov	r6, r1
 341 002e 9847     		blx	r3
 342              	.LVL29:
 343 0030 6860     		str	r0, [r5, #4]
 344 0032 30B1     		cbz	r0, .L40
 345              		.loc 1 199 0
 346 0034 2E60     		str	r6, [r5]
 347              		.loc 1 201 0
 348 0036 F368     		ldr	r3, [r6, #12]
 349 0038 9847     		blx	r3
 350              	.LVL30:
 351              		.loc 1 203 0
 352 003a 2046     		mov	r0, r4
 353 003c 70BD     		pop	{r4, r5, r6, pc}
 354              	.LVL31:
 355              	.L39:
 356              		.cfi_def_cfa_offset 0
 357              		.cfi_restore 4
 358              		.cfi_restore 5
 359              		.cfi_restore 6
 360              		.cfi_restore 14
 361              		.loc 1 192 0
 362 003e 0248     		ldr	r0, .L43
 363              	.LVL32:
 364 0040 7047     		bx	lr
 365              	.LVL33:
 366              	.L40:
 367              		.cfi_def_cfa_offset 16
 368              		.cfi_offset 4, -16
 369              		.cfi_offset 5, -12
 370              		.cfi_offset 6, -8
 371              		.cfi_offset 14, -4
 372              		.loc 1 197 0
 373 0042 0248     		ldr	r0, .L43+4
 374              		.loc 1 204 0
 375 0044 70BD     		pop	{r4, r5, r6, pc}
 376              	.LVL34:
 377              	.L44:
 378 0046 00BF     		.align	2
 379              	.L43:
 380 0048 00AFFFFF 		.word	-20736
 381 004c 80AEFFFF 		.word	-20864
 382              		.cfi_endproc
 383              	.LFE9:
 384              		.size	md_init_ctx, .-md_init_ctx
 385              		.section	.text.md_free_ctx,"ax",%progbits
 386              		.align	2
 387              		.p2align 4,,15
 388              		.global	md_free_ctx
 389              		.thumb
 390              		.thumb_func
 391              		.type	md_free_ctx, %function
 392              	md_free_ctx:
 393              	.LFB10:
 394              		.loc 1 208 0
ARM GAS  C:\Users\jo\AppData\Local\Temp\cc4vLKFs.s 			page 8


 395              		.cfi_startproc
 396              		@ args = 0, pretend = 0, frame = 0
 397              		@ frame_needed = 0, uses_anonymous_args = 0
 398              	.LVL35:
 399 0000 08B5     		push	{r3, lr}
 400              		.cfi_def_cfa_offset 8
 401              		.cfi_offset 3, -8
 402              		.cfi_offset 14, -4
 403              		.loc 1 209 0
 404 0002 FFF7FEFF 		bl	md_free
 405              	.LVL36:
 406              		.loc 1 212 0
 407 0006 0020     		movs	r0, #0
 408 0008 08BD     		pop	{r3, pc}
 409              		.cfi_endproc
 410              	.LFE10:
 411              		.size	md_free_ctx, .-md_free_ctx
 412 000a 00BFAFF3 		.section	.text.md_starts,"ax",%progbits
 412      0080
 413              		.align	2
 414              		.p2align 4,,15
 415              		.global	md_starts
 416              		.thumb
 417              		.thumb_func
 418              		.type	md_starts, %function
 419              	md_starts:
 420              	.LFB11:
 421              		.loc 1 216 0
 422              		.cfi_startproc
 423              		@ args = 0, pretend = 0, frame = 0
 424              		@ frame_needed = 0, uses_anonymous_args = 0
 425              	.LVL37:
 426              		.loc 1 217 0
 427 0000 48B1     		cbz	r0, .L49
 428              		.loc 1 216 0 discriminator 1
 429 0002 08B5     		push	{r3, lr}
 430              		.cfi_def_cfa_offset 8
 431              		.cfi_offset 3, -8
 432              		.cfi_offset 14, -4
 433              		.loc 1 217 0 discriminator 1
 434 0004 0368     		ldr	r3, [r0]
 435 0006 23B1     		cbz	r3, .L50
 436              		.loc 1 220 0
 437 0008 DB68     		ldr	r3, [r3, #12]
 438 000a 4068     		ldr	r0, [r0, #4]
 439              	.LVL38:
 440 000c 9847     		blx	r3
 441              	.LVL39:
 442              		.loc 1 222 0
 443 000e 0020     		movs	r0, #0
 444 0010 08BD     		pop	{r3, pc}
 445              	.LVL40:
 446              	.L50:
 447              		.loc 1 218 0
 448 0012 0248     		ldr	r0, .L52
 449              	.LVL41:
 450              		.loc 1 223 0
ARM GAS  C:\Users\jo\AppData\Local\Temp\cc4vLKFs.s 			page 9


 451 0014 08BD     		pop	{r3, pc}
 452              	.LVL42:
 453              	.L49:
 454              		.cfi_def_cfa_offset 0
 455              		.cfi_restore 3
 456              		.cfi_restore 14
 457              		.loc 1 218 0
 458 0016 0148     		ldr	r0, .L52
 459              	.LVL43:
 460              		.loc 1 223 0
 461 0018 7047     		bx	lr
 462              	.L53:
 463 001a 00BF     		.align	2
 464              	.L52:
 465 001c 00AFFFFF 		.word	-20736
 466              		.cfi_endproc
 467              	.LFE11:
 468              		.size	md_starts, .-md_starts
 469              		.section	.text.md_update,"ax",%progbits
 470              		.align	2
 471              		.p2align 4,,15
 472              		.global	md_update
 473              		.thumb
 474              		.thumb_func
 475              		.type	md_update, %function
 476              	md_update:
 477              	.LFB12:
 478              		.loc 1 226 0
 479              		.cfi_startproc
 480              		@ args = 0, pretend = 0, frame = 0
 481              		@ frame_needed = 0, uses_anonymous_args = 0
 482              	.LVL44:
 483              		.loc 1 227 0
 484 0000 48B1     		cbz	r0, .L56
 485              		.loc 1 226 0 discriminator 1
 486 0002 08B5     		push	{r3, lr}
 487              		.cfi_def_cfa_offset 8
 488              		.cfi_offset 3, -8
 489              		.cfi_offset 14, -4
 490              		.loc 1 227 0 discriminator 1
 491 0004 0368     		ldr	r3, [r0]
 492 0006 23B1     		cbz	r3, .L57
 493              		.loc 1 230 0
 494 0008 1B69     		ldr	r3, [r3, #16]
 495 000a 4068     		ldr	r0, [r0, #4]
 496              	.LVL45:
 497 000c 9847     		blx	r3
 498              	.LVL46:
 499              		.loc 1 232 0
 500 000e 0020     		movs	r0, #0
 501 0010 08BD     		pop	{r3, pc}
 502              	.LVL47:
 503              	.L57:
 504              		.loc 1 228 0
 505 0012 0248     		ldr	r0, .L59
 506              	.LVL48:
 507              		.loc 1 233 0
ARM GAS  C:\Users\jo\AppData\Local\Temp\cc4vLKFs.s 			page 10


 508 0014 08BD     		pop	{r3, pc}
 509              	.LVL49:
 510              	.L56:
 511              		.cfi_def_cfa_offset 0
 512              		.cfi_restore 3
 513              		.cfi_restore 14
 514              		.loc 1 228 0
 515 0016 0148     		ldr	r0, .L59
 516              	.LVL50:
 517              		.loc 1 233 0
 518 0018 7047     		bx	lr
 519              	.L60:
 520 001a 00BF     		.align	2
 521              	.L59:
 522 001c 00AFFFFF 		.word	-20736
 523              		.cfi_endproc
 524              	.LFE12:
 525              		.size	md_update, .-md_update
 526              		.section	.text.md_finish,"ax",%progbits
 527              		.align	2
 528              		.p2align 4,,15
 529              		.global	md_finish
 530              		.thumb
 531              		.thumb_func
 532              		.type	md_finish, %function
 533              	md_finish:
 534              	.LFB13:
 535              		.loc 1 236 0
 536              		.cfi_startproc
 537              		@ args = 0, pretend = 0, frame = 0
 538              		@ frame_needed = 0, uses_anonymous_args = 0
 539              	.LVL51:
 540              		.loc 1 237 0
 541 0000 48B1     		cbz	r0, .L63
 542              		.loc 1 236 0 discriminator 1
 543 0002 08B5     		push	{r3, lr}
 544              		.cfi_def_cfa_offset 8
 545              		.cfi_offset 3, -8
 546              		.cfi_offset 14, -4
 547              		.loc 1 237 0 discriminator 1
 548 0004 0368     		ldr	r3, [r0]
 549 0006 23B1     		cbz	r3, .L64
 550              		.loc 1 240 0
 551 0008 5B69     		ldr	r3, [r3, #20]
 552 000a 4068     		ldr	r0, [r0, #4]
 553              	.LVL52:
 554 000c 9847     		blx	r3
 555              	.LVL53:
 556              		.loc 1 242 0
 557 000e 0020     		movs	r0, #0
 558 0010 08BD     		pop	{r3, pc}
 559              	.LVL54:
 560              	.L64:
 561              		.loc 1 238 0
 562 0012 0248     		ldr	r0, .L66
 563              	.LVL55:
 564              		.loc 1 243 0
ARM GAS  C:\Users\jo\AppData\Local\Temp\cc4vLKFs.s 			page 11


 565 0014 08BD     		pop	{r3, pc}
 566              	.LVL56:
 567              	.L63:
 568              		.cfi_def_cfa_offset 0
 569              		.cfi_restore 3
 570              		.cfi_restore 14
 571              		.loc 1 238 0
 572 0016 0148     		ldr	r0, .L66
 573              	.LVL57:
 574              		.loc 1 243 0
 575 0018 7047     		bx	lr
 576              	.L67:
 577 001a 00BF     		.align	2
 578              	.L66:
 579 001c 00AFFFFF 		.word	-20736
 580              		.cfi_endproc
 581              	.LFE13:
 582              		.size	md_finish, .-md_finish
 583              		.section	.text.md,"ax",%progbits
 584              		.align	2
 585              		.p2align 4,,15
 586              		.global	md
 587              		.thumb
 588              		.thumb_func
 589              		.type	md, %function
 590              	md:
 591              	.LFB14:
 592              		.loc 1 247 0
 593              		.cfi_startproc
 594              		@ args = 0, pretend = 0, frame = 0
 595              		@ frame_needed = 0, uses_anonymous_args = 0
 596              	.LVL58:
 597              		.loc 1 248 0
 598 0000 40B1     		cbz	r0, .L70
 599              		.loc 1 247 0
 600 0002 10B5     		push	{r4, lr}
 601              		.cfi_def_cfa_offset 8
 602              		.cfi_offset 4, -8
 603              		.cfi_offset 14, -4
 604 0004 0446     		mov	r4, r0
 605 0006 0846     		mov	r0, r1
 606              	.LVL59:
 607              		.loc 1 251 0
 608 0008 A469     		ldr	r4, [r4, #24]
 609              	.LVL60:
 610 000a 1146     		mov	r1, r2
 611              	.LVL61:
 612 000c 1A46     		mov	r2, r3
 613              	.LVL62:
 614 000e A047     		blx	r4
 615              	.LVL63:
 616              		.loc 1 253 0
 617 0010 0020     		movs	r0, #0
 618 0012 10BD     		pop	{r4, pc}
 619              	.LVL64:
 620              	.L70:
 621              		.cfi_def_cfa_offset 0
ARM GAS  C:\Users\jo\AppData\Local\Temp\cc4vLKFs.s 			page 12


 622              		.cfi_restore 4
 623              		.cfi_restore 14
 624              		.loc 1 249 0
 625 0014 0048     		ldr	r0, .L73
 626              	.LVL65:
 627 0016 7047     		bx	lr
 628              	.L74:
 629              		.align	2
 630              	.L73:
 631 0018 00AFFFFF 		.word	-20736
 632              		.cfi_endproc
 633              	.LFE14:
 634              		.size	md, .-md
 635 001c AFF30080 		.section	.text.md_file,"ax",%progbits
 636              		.align	2
 637              		.p2align 4,,15
 638              		.global	md_file
 639              		.thumb
 640              		.thumb_func
 641              		.type	md_file, %function
 642              	md_file:
 643              	.LFB15:
 644              		.loc 1 257 0
 645              		.cfi_startproc
 646              		@ args = 0, pretend = 0, frame = 0
 647              		@ frame_needed = 0, uses_anonymous_args = 0
 648              	.LVL66:
 649              		.loc 1 262 0
 650 0000 50B1     		cbz	r0, .L77
 651              		.loc 1 257 0
 652 0002 08B5     		push	{r3, lr}
 653              		.cfi_def_cfa_offset 8
 654              		.cfi_offset 3, -8
 655              		.cfi_offset 14, -4
 656 0004 0346     		mov	r3, r0
 657 0006 0846     		mov	r0, r1
 658              	.LVL67:
 659              		.loc 1 266 0
 660 0008 DB69     		ldr	r3, [r3, #28]
 661              	.LVL68:
 662 000a 1146     		mov	r1, r2
 663              	.LVL69:
 664 000c 9847     		blx	r3
 665              	.LVL70:
 666              		.loc 1 267 0
 667 000e 10B1     		cbz	r0, .L76
 668              		.loc 1 268 0
 669 0010 A0F5A440 		sub	r0, r0, #20992
 670              	.LVL71:
 671 0014 08BD     		pop	{r3, pc}
 672              	.LVL72:
 673              	.L76:
 674              		.loc 1 277 0
 675 0016 08BD     		pop	{r3, pc}
 676              	.LVL73:
 677              	.L77:
 678              		.cfi_def_cfa_offset 0
ARM GAS  C:\Users\jo\AppData\Local\Temp\cc4vLKFs.s 			page 13


 679              		.cfi_restore 3
 680              		.cfi_restore 14
 681              		.loc 1 263 0
 682 0018 0048     		ldr	r0, .L81
 683              	.LVL74:
 684 001a 7047     		bx	lr
 685              	.L82:
 686              		.align	2
 687              	.L81:
 688 001c 00AFFFFF 		.word	-20736
 689              		.cfi_endproc
 690              	.LFE15:
 691              		.size	md_file, .-md_file
 692              		.section	.text.md_hmac_starts,"ax",%progbits
 693              		.align	2
 694              		.p2align 4,,15
 695              		.global	md_hmac_starts
 696              		.thumb
 697              		.thumb_func
 698              		.type	md_hmac_starts, %function
 699              	md_hmac_starts:
 700              	.LFB16:
 701              		.loc 1 280 0
 702              		.cfi_startproc
 703              		@ args = 0, pretend = 0, frame = 0
 704              		@ frame_needed = 0, uses_anonymous_args = 0
 705              	.LVL75:
 706              		.loc 1 281 0
 707 0000 48B1     		cbz	r0, .L85
 708              		.loc 1 280 0 discriminator 1
 709 0002 08B5     		push	{r3, lr}
 710              		.cfi_def_cfa_offset 8
 711              		.cfi_offset 3, -8
 712              		.cfi_offset 14, -4
 713              		.loc 1 281 0 discriminator 1
 714 0004 0368     		ldr	r3, [r0]
 715 0006 23B1     		cbz	r3, .L86
 716              		.loc 1 284 0
 717 0008 1B6A     		ldr	r3, [r3, #32]
 718 000a 4068     		ldr	r0, [r0, #4]
 719              	.LVL76:
 720 000c 9847     		blx	r3
 721              	.LVL77:
 722              		.loc 1 286 0
 723 000e 0020     		movs	r0, #0
 724 0010 08BD     		pop	{r3, pc}
 725              	.LVL78:
 726              	.L86:
 727              		.loc 1 282 0
 728 0012 0248     		ldr	r0, .L88
 729              	.LVL79:
 730              		.loc 1 287 0
 731 0014 08BD     		pop	{r3, pc}
 732              	.LVL80:
 733              	.L85:
 734              		.cfi_def_cfa_offset 0
 735              		.cfi_restore 3
ARM GAS  C:\Users\jo\AppData\Local\Temp\cc4vLKFs.s 			page 14


 736              		.cfi_restore 14
 737              		.loc 1 282 0
 738 0016 0148     		ldr	r0, .L88
 739              	.LVL81:
 740              		.loc 1 287 0
 741 0018 7047     		bx	lr
 742              	.L89:
 743 001a 00BF     		.align	2
 744              	.L88:
 745 001c 00AFFFFF 		.word	-20736
 746              		.cfi_endproc
 747              	.LFE16:
 748              		.size	md_hmac_starts, .-md_hmac_starts
 749              		.section	.text.md_hmac_update,"ax",%progbits
 750              		.align	2
 751              		.p2align 4,,15
 752              		.global	md_hmac_update
 753              		.thumb
 754              		.thumb_func
 755              		.type	md_hmac_update, %function
 756              	md_hmac_update:
 757              	.LFB17:
 758              		.loc 1 290 0
 759              		.cfi_startproc
 760              		@ args = 0, pretend = 0, frame = 0
 761              		@ frame_needed = 0, uses_anonymous_args = 0
 762              	.LVL82:
 763              		.loc 1 291 0
 764 0000 48B1     		cbz	r0, .L92
 765              		.loc 1 290 0 discriminator 1
 766 0002 08B5     		push	{r3, lr}
 767              		.cfi_def_cfa_offset 8
 768              		.cfi_offset 3, -8
 769              		.cfi_offset 14, -4
 770              		.loc 1 291 0 discriminator 1
 771 0004 0368     		ldr	r3, [r0]
 772 0006 23B1     		cbz	r3, .L93
 773              		.loc 1 294 0
 774 0008 5B6A     		ldr	r3, [r3, #36]
 775 000a 4068     		ldr	r0, [r0, #4]
 776              	.LVL83:
 777 000c 9847     		blx	r3
 778              	.LVL84:
 779              		.loc 1 296 0
 780 000e 0020     		movs	r0, #0
 781 0010 08BD     		pop	{r3, pc}
 782              	.LVL85:
 783              	.L93:
 784              		.loc 1 292 0
 785 0012 0248     		ldr	r0, .L95
 786              	.LVL86:
 787              		.loc 1 297 0
 788 0014 08BD     		pop	{r3, pc}
 789              	.LVL87:
 790              	.L92:
 791              		.cfi_def_cfa_offset 0
 792              		.cfi_restore 3
ARM GAS  C:\Users\jo\AppData\Local\Temp\cc4vLKFs.s 			page 15


 793              		.cfi_restore 14
 794              		.loc 1 292 0
 795 0016 0148     		ldr	r0, .L95
 796              	.LVL88:
 797              		.loc 1 297 0
 798 0018 7047     		bx	lr
 799              	.L96:
 800 001a 00BF     		.align	2
 801              	.L95:
 802 001c 00AFFFFF 		.word	-20736
 803              		.cfi_endproc
 804              	.LFE17:
 805              		.size	md_hmac_update, .-md_hmac_update
 806              		.section	.text.md_hmac_finish,"ax",%progbits
 807              		.align	2
 808              		.p2align 4,,15
 809              		.global	md_hmac_finish
 810              		.thumb
 811              		.thumb_func
 812              		.type	md_hmac_finish, %function
 813              	md_hmac_finish:
 814              	.LFB18:
 815              		.loc 1 300 0
 816              		.cfi_startproc
 817              		@ args = 0, pretend = 0, frame = 0
 818              		@ frame_needed = 0, uses_anonymous_args = 0
 819              	.LVL89:
 820              		.loc 1 301 0
 821 0000 48B1     		cbz	r0, .L99
 822              		.loc 1 300 0 discriminator 1
 823 0002 08B5     		push	{r3, lr}
 824              		.cfi_def_cfa_offset 8
 825              		.cfi_offset 3, -8
 826              		.cfi_offset 14, -4
 827              		.loc 1 301 0 discriminator 1
 828 0004 0368     		ldr	r3, [r0]
 829 0006 23B1     		cbz	r3, .L100
 830              		.loc 1 304 0
 831 0008 9B6A     		ldr	r3, [r3, #40]
 832 000a 4068     		ldr	r0, [r0, #4]
 833              	.LVL90:
 834 000c 9847     		blx	r3
 835              	.LVL91:
 836              		.loc 1 306 0
 837 000e 0020     		movs	r0, #0
 838 0010 08BD     		pop	{r3, pc}
 839              	.LVL92:
 840              	.L100:
 841              		.loc 1 302 0
 842 0012 0248     		ldr	r0, .L102
 843              	.LVL93:
 844              		.loc 1 307 0
 845 0014 08BD     		pop	{r3, pc}
 846              	.LVL94:
 847              	.L99:
 848              		.cfi_def_cfa_offset 0
 849              		.cfi_restore 3
ARM GAS  C:\Users\jo\AppData\Local\Temp\cc4vLKFs.s 			page 16


 850              		.cfi_restore 14
 851              		.loc 1 302 0
 852 0016 0148     		ldr	r0, .L102
 853              	.LVL95:
 854              		.loc 1 307 0
 855 0018 7047     		bx	lr
 856              	.L103:
 857 001a 00BF     		.align	2
 858              	.L102:
 859 001c 00AFFFFF 		.word	-20736
 860              		.cfi_endproc
 861              	.LFE18:
 862              		.size	md_hmac_finish, .-md_hmac_finish
 863              		.section	.text.md_hmac_reset,"ax",%progbits
 864              		.align	2
 865              		.p2align 4,,15
 866              		.global	md_hmac_reset
 867              		.thumb
 868              		.thumb_func
 869              		.type	md_hmac_reset, %function
 870              	md_hmac_reset:
 871              	.LFB19:
 872              		.loc 1 310 0
 873              		.cfi_startproc
 874              		@ args = 0, pretend = 0, frame = 0
 875              		@ frame_needed = 0, uses_anonymous_args = 0
 876              	.LVL96:
 877              		.loc 1 311 0
 878 0000 48B1     		cbz	r0, .L106
 879              		.loc 1 310 0 discriminator 1
 880 0002 08B5     		push	{r3, lr}
 881              		.cfi_def_cfa_offset 8
 882              		.cfi_offset 3, -8
 883              		.cfi_offset 14, -4
 884              		.loc 1 311 0 discriminator 1
 885 0004 0368     		ldr	r3, [r0]
 886 0006 23B1     		cbz	r3, .L107
 887              		.loc 1 314 0
 888 0008 DB6A     		ldr	r3, [r3, #44]
 889 000a 4068     		ldr	r0, [r0, #4]
 890              	.LVL97:
 891 000c 9847     		blx	r3
 892              	.LVL98:
 893              		.loc 1 316 0
 894 000e 0020     		movs	r0, #0
 895 0010 08BD     		pop	{r3, pc}
 896              	.LVL99:
 897              	.L107:
 898              		.loc 1 312 0
 899 0012 0248     		ldr	r0, .L109
 900              	.LVL100:
 901              		.loc 1 317 0
 902 0014 08BD     		pop	{r3, pc}
 903              	.LVL101:
 904              	.L106:
 905              		.cfi_def_cfa_offset 0
 906              		.cfi_restore 3
ARM GAS  C:\Users\jo\AppData\Local\Temp\cc4vLKFs.s 			page 17


 907              		.cfi_restore 14
 908              		.loc 1 312 0
 909 0016 0148     		ldr	r0, .L109
 910              	.LVL102:
 911              		.loc 1 317 0
 912 0018 7047     		bx	lr
 913              	.L110:
 914 001a 00BF     		.align	2
 915              	.L109:
 916 001c 00AFFFFF 		.word	-20736
 917              		.cfi_endproc
 918              	.LFE19:
 919              		.size	md_hmac_reset, .-md_hmac_reset
 920              		.section	.text.md_hmac,"ax",%progbits
 921              		.align	2
 922              		.p2align 4,,15
 923              		.global	md_hmac
 924              		.thumb
 925              		.thumb_func
 926              		.type	md_hmac, %function
 927              	md_hmac:
 928              	.LFB20:
 929              		.loc 1 322 0
 930              		.cfi_startproc
 931              		@ args = 8, pretend = 0, frame = 0
 932              		@ frame_needed = 0, uses_anonymous_args = 0
 933              	.LVL103:
 934              		.loc 1 323 0
 935 0000 68B1     		cbz	r0, .L113
 936              		.loc 1 322 0
 937 0002 10B5     		push	{r4, lr}
 938              		.cfi_def_cfa_offset 8
 939              		.cfi_offset 4, -8
 940              		.cfi_offset 14, -4
 941 0004 82B0     		sub	sp, sp, #8
 942              		.cfi_def_cfa_offset 16
 943 0006 0446     		mov	r4, r0
 944 0008 0846     		mov	r0, r1
 945              	.LVL104:
 946              		.loc 1 326 0
 947 000a 0599     		ldr	r1, [sp, #20]
 948              	.LVL105:
 949 000c 0091     		str	r1, [sp]
 950 000e 246B     		ldr	r4, [r4, #48]
 951              	.LVL106:
 952 0010 1146     		mov	r1, r2
 953 0012 1A46     		mov	r2, r3
 954              	.LVL107:
 955 0014 049B     		ldr	r3, [sp, #16]
 956              	.LVL108:
 957 0016 A047     		blx	r4
 958              	.LVL109:
 959              		.loc 1 328 0
 960 0018 0020     		movs	r0, #0
 961              		.loc 1 329 0
 962 001a 02B0     		add	sp, sp, #8
 963              		.cfi_def_cfa_offset 8
ARM GAS  C:\Users\jo\AppData\Local\Temp\cc4vLKFs.s 			page 18


 964              		@ sp needed
 965 001c 10BD     		pop	{r4, pc}
 966              	.LVL110:
 967              	.L113:
 968              		.cfi_def_cfa_offset 0
 969              		.cfi_restore 4
 970              		.cfi_restore 14
 971              		.loc 1 324 0
 972 001e 0148     		ldr	r0, .L116
 973              	.LVL111:
 974 0020 7047     		bx	lr
 975              	.L117:
 976 0022 00BF     		.align	2
 977              	.L116:
 978 0024 00AFFFFF 		.word	-20736
 979              		.cfi_endproc
 980              	.LFE20:
 981              		.size	md_hmac, .-md_hmac
 982 0028 AFF30080 		.section	.text.md_process,"ax",%progbits
 982      AFF30080 
 983              		.align	2
 984              		.p2align 4,,15
 985              		.global	md_process
 986              		.thumb
 987              		.thumb_func
 988              		.type	md_process, %function
 989              	md_process:
 990              	.LFB21:
 991              		.loc 1 332 0
 992              		.cfi_startproc
 993              		@ args = 0, pretend = 0, frame = 0
 994              		@ frame_needed = 0, uses_anonymous_args = 0
 995              	.LVL112:
 996              		.loc 1 333 0
 997 0000 48B1     		cbz	r0, .L120
 998              		.loc 1 332 0 discriminator 1
 999 0002 08B5     		push	{r3, lr}
 1000              		.cfi_def_cfa_offset 8
 1001              		.cfi_offset 3, -8
 1002              		.cfi_offset 14, -4
 1003              		.loc 1 333 0 discriminator 1
 1004 0004 0368     		ldr	r3, [r0]
 1005 0006 23B1     		cbz	r3, .L121
 1006              		.loc 1 336 0
 1007 0008 DB6B     		ldr	r3, [r3, #60]
 1008 000a 4068     		ldr	r0, [r0, #4]
 1009              	.LVL113:
 1010 000c 9847     		blx	r3
 1011              	.LVL114:
 1012              		.loc 1 338 0
 1013 000e 0020     		movs	r0, #0
 1014 0010 08BD     		pop	{r3, pc}
 1015              	.LVL115:
 1016              	.L121:
 1017              		.loc 1 334 0
 1018 0012 0248     		ldr	r0, .L123
 1019              	.LVL116:
ARM GAS  C:\Users\jo\AppData\Local\Temp\cc4vLKFs.s 			page 19


 1020              		.loc 1 339 0
 1021 0014 08BD     		pop	{r3, pc}
 1022              	.LVL117:
 1023              	.L120:
 1024              		.cfi_def_cfa_offset 0
 1025              		.cfi_restore 3
 1026              		.cfi_restore 14
 1027              		.loc 1 334 0
 1028 0016 0148     		ldr	r0, .L123
 1029              	.LVL118:
 1030              		.loc 1 339 0
 1031 0018 7047     		bx	lr
 1032              	.L124:
 1033 001a 00BF     		.align	2
 1034              	.L123:
 1035 001c 00AFFFFF 		.word	-20736
 1036              		.cfi_endproc
 1037              	.LFE21:
 1038              		.size	md_process, .-md_process
 1039              		.section	.rodata.CSWTCH.5,"a",%progbits
 1040              		.align	2
 1041              		.set	.LANCHOR1,. + 0
 1042              		.type	CSWTCH.5, %object
 1043              		.size	CSWTCH.5, 28
 1044              	CSWTCH.5:
 1045 0000 00000000 		.word	md5_info
 1046 0004 00000000 		.word	sha1_info
 1047 0008 00000000 		.word	sha224_info
 1048 000c 00000000 		.word	sha256_info
 1049 0010 00000000 		.word	sha384_info
 1050 0014 00000000 		.word	sha512_info
 1051 0018 00000000 		.word	ripemd160_info
 1052              		.section	.rodata.supported_digests,"a",%progbits
 1053              		.align	2
 1054              		.set	.LANCHOR0,. + 0
 1055              		.type	supported_digests, %object
 1056              		.size	supported_digests, 32
 1057              	supported_digests:
 1058 0000 08000000 		.word	8
 1059 0004 07000000 		.word	7
 1060 0008 06000000 		.word	6
 1061 000c 05000000 		.word	5
 1062 0010 04000000 		.word	4
 1063 0014 09000000 		.word	9
 1064 0018 03000000 		.word	3
 1065 001c 00000000 		.word	0
 1066              		.section	.rodata.str1.4,"aMS",%progbits,1
 1067              		.align	2
 1068              	.LC0:
 1069 0000 4D443500 		.ascii	"MD5\000"
 1070              	.LC1:
 1071 0004 52495045 		.ascii	"RIPEMD160\000"
 1071      4D443136 
 1071      3000
 1072 000e 0000     		.space	2
 1073              	.LC2:
 1074 0010 53484131 		.ascii	"SHA1\000"
ARM GAS  C:\Users\jo\AppData\Local\Temp\cc4vLKFs.s 			page 20


 1074      00
 1075 0015 000000   		.space	3
 1076              	.LC3:
 1077 0018 53484100 		.ascii	"SHA\000"
 1078              	.LC4:
 1079 001c 53484132 		.ascii	"SHA224\000"
 1079      323400
 1080 0023 00       		.space	1
 1081              	.LC5:
 1082 0024 53484132 		.ascii	"SHA256\000"
 1082      353600
 1083 002b 00       		.space	1
 1084              	.LC6:
 1085 002c 53484133 		.ascii	"SHA384\000"
 1085      383400
 1086 0033 00       		.space	1
 1087              	.LC7:
 1088 0034 53484135 		.ascii	"SHA512\000"
 1088      313200
 1089 003b 00       		.text
 1090              	.Letext0:
 1091              		.file 2 "c:\\program files\\gnu tools arm embedded\\4.9 2014q4\\lib\\gcc\\arm-none-eabi\\4.9.3\\in
 1092              		.file 3 "../../../ext/mbedtls-1.3.11/library/../include/polarssl/md.h"
 1093              		.file 4 "../../../ext/mbedtls-1.3.11/library/../include/polarssl/md_wrap.h"
 1094              		.file 5 "c:\\program files\\gnu tools arm embedded\\4.9 2014q4\\arm-none-eabi\\include\\string.h"