ARM GAS  C:\Users\jo\AppData\Local\Temp\cc4vLKFs.s 			page 1


   1              		.syntax unified
   2              		.cpu cortex-m4
   3              		.fpu softvfp
   4              		.eabi_attribute 20, 1
   5              		.eabi_attribute 21, 1
   6              		.eabi_attribute 23, 3
   7              		.eabi_attribute 24, 1
   8              		.eabi_attribute 25, 1
   9              		.eabi_attribute 26, 1
  10              		.eabi_attribute 30, 2
  11              		.eabi_attribute 34, 1
  12              		.eabi_attribute 18, 4
  13              		.thumb
  14              		.file	"md.c"
  15              		.text
  16              	.Ltext0:
  17              		.cfi_sections	.debug_frame
  18              		.section	.text.md_list,"ax",%progbits
  19              		.align	2
  20              		.p2align 4,,15
  21              		.global	md_list
  22              		.thumb
  23              		.thumb_func
  24              		.type	md_list, %function
  25              	md_list:
  26              	.LFB4:
  27              		.file 1 "../../../ext/mbedtls-1.3.11/library/md.c"
  28              		.loc 1 87 0
  29              		.cfi_startproc
  30              		@ args = 0, pretend = 0, frame = 0
  31              		@ frame_needed = 0, uses_anonymous_args = 0
  32              		@ link register save eliminated.
  33              		.loc 1 89 0
  34 0000 0048     		ldr	r0, .L2
  35 0002 7047     		bx	lr
  36              	.L3:
  37              		.align	2
  38              	.L2:
  39 0004 00000000 		.word	.LANCHOR0
  40              		.cfi_endproc
  41              	.LFE4:
  42              		.size	md_list, .-md_list
  43 0008 AFF30080 		.section	.text.md_info_from_string,"ax",%progbits
  43      AFF30080 
  44              		.align	2
  45              		.p2align 4,,15
  46              		.global	md_info_from_string
  47              		.thumb
  48              		.thumb_func
  49              		.type	md_info_from_string, %function
  50              	md_info_from_string:
  51              	.LFB5:
  52              		.loc 1 92 0
  53              		.cfi_startproc
  54              		@ args = 0, pretend = 0, frame = 0
  55              		@ frame_needed = 0, uses_anonymous_args = 0
  56              	.LVL0:
ARM GAS  C:\Users\jo\AppData\Local\Temp\cc4vLKFs.s 			page 2


  57              		.loc 1 93 0
  58 0000 0028     		cmp	r0, #0
  59 0002 3AD0     		beq	.L16
  60              		.loc 1 92 0
  61 0004 10B5     		push	{r4, lr}
  62              		.cfi_def_cfa_offset 8
  63              		.cfi_offset 4, -8
  64              		.cfi_offset 14, -4
  65 0006 0446     		mov	r4, r0
  66              		.loc 1 106 0
  67 0008 2146     		mov	r1, r4
  68 000a 1C48     		ldr	r0, .L18
  69              	.LVL1:
  70 000c FFF7FEFF 		bl	strcasecmp
  71              	.LVL2:
  72 0010 58B3     		cbz	r0, .L7
  73              		.loc 1 110 0
  74 0012 1B48     		ldr	r0, .L18+4
  75 0014 2146     		mov	r1, r4
  76 0016 FFF7FEFF 		bl	strcasecmp
  77              	.LVL3:
  78 001a 10B3     		cbz	r0, .L8
  79              		.loc 1 114 0
  80 001c 1948     		ldr	r0, .L18+8
  81 001e 2146     		mov	r1, r4
  82 0020 FFF7FEFF 		bl	strcasecmp
  83              	.LVL4:
  84 0024 F8B1     		cbz	r0, .L10
  85              		.loc 1 114 0 is_stmt 0 discriminator 1
  86 0026 1848     		ldr	r0, .L18+12
  87 0028 2146     		mov	r1, r4
  88 002a FFF7FEFF 		bl	strcasecmp
  89              	.LVL5:
  90 002e D0B1     		cbz	r0, .L10
  91              		.loc 1 118 0 is_stmt 1
  92 0030 1648     		ldr	r0, .L18+16
  93 0032 2146     		mov	r1, r4
  94 0034 FFF7FEFF 		bl	strcasecmp
  95              	.LVL6:
  96 0038 C8B1     		cbz	r0, .L11
  97              		.loc 1 120 0
  98 003a 1548     		ldr	r0, .L18+20
  99 003c 2146     		mov	r1, r4
 100 003e FFF7FEFF 		bl	strcasecmp
 101              	.LVL7:
 102 0042 C0B1     		cbz	r0, .L12
 103              		.loc 1 124 0
 104 0044 1348     		ldr	r0, .L18+24
 105 0046 2146     		mov	r1, r4
 106 0048 FFF7FEFF 		bl	strcasecmp
 107              	.LVL8:
 108 004c 88B1     		cbz	r0, .L13
 109              		.loc 1 126 0
 110 004e 2146     		mov	r1, r4
 111 0050 1148     		ldr	r0, .L18+28
 112              		.loc 1 129 0
 113 0052 124C     		ldr	r4, .L18+32
ARM GAS  C:\Users\jo\AppData\Local\Temp\cc4vLKFs.s 			page 3


 114              	.LVL9:
 115              		.loc 1 126 0
 116 0054 FFF7FEFF 		bl	strcasecmp
 117              	.LVL10:
 118 0058 0028     		cmp	r0, #0
 119              		.loc 1 129 0
 120 005a 0CBF     		ite	eq
 121 005c 2046     		moveq	r0, r4
 122 005e 0020     		movne	r0, #0
 123 0060 10BD     		pop	{r4, pc}
 124              	.LVL11:
 125              	.L8:
 126              		.loc 1 111 0
 127 0062 0F48     		ldr	r0, .L18+36
 128 0064 10BD     		pop	{r4, pc}
 129              	.LVL12:
 130              	.L10:
 131              		.loc 1 115 0
 132 0066 0F48     		ldr	r0, .L18+40
 133 0068 10BD     		pop	{r4, pc}
 134              	.LVL13:
 135              	.L7:
 136              		.loc 1 107 0
 137 006a 0F48     		ldr	r0, .L18+44
 138 006c 10BD     		pop	{r4, pc}
 139              	.LVL14:
 140              	.L11:
 141              		.loc 1 119 0
 142 006e 0F48     		ldr	r0, .L18+48
 143 0070 10BD     		pop	{r4, pc}
 144              	.LVL15:
 145              	.L13:
 146              		.loc 1 125 0
 147 0072 0F48     		ldr	r0, .L18+52
 148              		.loc 1 130 0
 149 0074 10BD     		pop	{r4, pc}
 150              	.LVL16:
 151              	.L12:
 152              		.loc 1 121 0
 153 0076 0F48     		ldr	r0, .L18+56
 154 0078 10BD     		pop	{r4, pc}
 155              	.LVL17:
 156              	.L16:
 157              		.cfi_def_cfa_offset 0
 158              		.cfi_restore 4
 159              		.cfi_restore 14
 160              		.loc 1 130 0
 161 007a 7047     		bx	lr
 162              	.L19:
 163              		.align	2
 164              	.L18:
 165 007c 00000000 		.word	.LC0
 166 0080 04000000 		.word	.LC1
 167 0084 10000000 		.word	.LC2
 168 0088 18000000 		.word	.LC3
 169 008c 1C000000 		.word	.LC4
 170 0090 24000000 		.word	.LC5
ARM GAS  C:\Users\jo\AppData\Local\Temp\cc4vLKFs.s 			page 4


 171 0094 2C000000 		.word	.LC6
 172 0098 34000000 		.word	.LC7
 173 009c 00000000 		.word	sha512_info
 174 00a0 00000000 		.word	ripemd160_info
 175 00a4 00000000 		.word	sha1_info
 176 00a8 00000000 		.word	md5_info
 177 00ac 00000000 		.word	sha224_info
 178 00b0 00000000 		.word	sha384_info
 179 00b4 00000000 		.word	sha256_info
 180              		.cfi_endproc
 181              	.LFE5:
 182              		.size	md_info_from_string, .-md_info_from_string
 183 00b8 AFF30080 		.section	.text.md_info_from_type,"ax",%progbits
 183      AFF30080 
 184              		.align	2
 185              		.p2align 4,,15
 186              		.global	md_info_from_type
 187              		.thumb
 188              		.thumb_func
 189              		.type	md_info_from_type, %function
 190              	md_info_from_type:
 191              	.LFB6:
 192              		.loc 1 133 0
 193              		.cfi_startproc
 194              		@ args = 0, pretend = 0, frame = 0
 195              		@ frame_needed = 0, uses_anonymous_args = 0
 196              		@ link register save eliminated.
 197              	.LVL18:
 198 0000 0338     		subs	r0, r0, #3
 199              	.LVL19:
 200 0002 C0B2     		uxtb	r0, r0
 201 0004 0628     		cmp	r0, #6
 202 0006 9ABF     		itte	ls
 203 0008 024B     		ldrls	r3, .L23
 204 000a 53F82000 		ldrls	r0, [r3, r0, lsl #2]
 205              		.loc 1 133 0
 206 000e 0020     		movhi	r0, #0
 207              		.loc 1 171 0
 208 0010 7047     		bx	lr
 209              	.L24:
 210 0012 00BF     		.align	2
 211              	.L23:
 212 0014 00000000 		.word	.LANCHOR1
 213              		.cfi_endproc
 214              	.LFE6:
 215              		.size	md_info_from_type, .-md_info_from_type
 216 0018 AFF30080 		.section	.text.md_init,"ax",%progbits
 216      AFF30080 
 217              		.align	2
 218              		.p2align 4,,15
 219              		.global	md_init
 220              		.thumb
 221              		.thumb_func
 222              		.type	md_init, %function
 223              	md_init:
 224              	.LFB7:
 225              		.loc 1 174 0
ARM GAS  C:\Users\jo\AppData\Local\Temp\cc4vLKFs.s 			page 5


 226              		.cfi_startproc
 227              		@ args = 0, pretend = 0, frame = 0
 228              		@ frame_needed = 0, uses_anonymous_args = 0
 229              		@ link register save eliminated.
 230              	.LVL20:
 231              		.loc 1 175 0
 232 0000 0346     		mov	r3, r0
 233 0002 0022     		movs	r2, #0
 234 0004 03F8012B 		strb	r2, [r3], #1
 235 0008 0133     		adds	r3, r3, #1
 236 000a 4270     		strb	r2, [r0, #1]
 237 000c 03F8012B 		strb	r2, [r3], #1
 238 0010 03F8012B 		strb	r2, [r3], #1
 239 0014 03F8012B 		strb	r2, [r3], #1
 240 0018 03F8012B 		strb	r2, [r3], #1
 241 001c 03F8012B 		strb	r2, [r3], #1
 242 0020 1A70     		strb	r2, [r3]
 243 0022 7047     		bx	lr
 244              		.cfi_endproc
 245              	.LFE7:
 246              		.size	md_init, .-md_init
 247 0024 AFF30080 		.section	.text.md_free,"ax",%progbits
 247      AFF30080 
 247      AFF30080 
 248              		.align	2
 249              		.p2align 4,,15
 250              		.global	md_free
 251              		.thumb
 252              		.thumb_func
 253              		.type	md_free, %function
 254              	md_free:
 255              	.LFB8:
 256              		.loc 1 179 0
 257              		.cfi_startproc
 258              		@ args = 0, pretend = 0, frame = 0
 259              		@ frame_needed = 0, uses_anonymous_args = 0
 260              	.LVL21:
 261 0000 10B5     		push	{r4, lr}
 262              		.cfi_def_cfa_offset 8
 263              		.cfi_offset 4, -8
 264              		.cfi_offset 14, -4
 265              		.loc 1 180 0
 266 0002 0446     		mov	r4, r0
 267 0004 58B1     		cbz	r0, .L26
 268              		.loc 1 183 0
 269 0006 4068     		ldr	r0, [r0, #4]
 270              	.LVL22:
 271 0008 10B1     		cbz	r0, .L28
 272              		.loc 1 184 0
 273 000a 2368     		ldr	r3, [r4]
 274 000c 9B6B     		ldr	r3, [r3, #56]
 275 000e 9847     		blx	r3
 276              	.LVL23:
 277              	.L28:
 278 0010 04F10802 		add	r2, r4, #8
 279              	.LBB18:
 280              	.LBB19:
ARM GAS  C:\Users\jo\AppData\Local\Temp\cc4vLKFs.s 			page 6


 281              		.loc 1 48 0
 282 0014 0023     		movs	r3, #0
 283              	.LVL24:
 284              	.L29:
 285 0016 2370     		strb	r3, [r4]
 286              	.LVL25:
 287 0018 0134     		adds	r4, r4, #1
 288              	.LVL26:
 289 001a 9442     		cmp	r4, r2
 290 001c FBD1     		bne	.L29
 291              	.LVL27:
 292              	.L26:
 293 001e 10BD     		pop	{r4, pc}
 294              	.LBE19:
 295              	.LBE18:
 296              		.cfi_endproc
 297              	.LFE8:
 298              		.size	md_free, .-md_free
 299              		.section	.text.md_init_ctx,"ax",%progbits
 300              		.align	2
 301              		.p2align 4,,15
 302              		.global	md_init_ctx
 303              		.thumb
 304              		.thumb_func
 305              		.type	md_init_ctx, %function
 306              	md_init_ctx:
 307              	.LFB9:
 308              		.loc 1 190 0
 309              		.cfi_startproc
 310              		@ args = 0, pretend = 0, frame = 0
 311              		@ frame_needed = 0, uses_anonymous_args = 0
 312              	.LVL28:
 313              		.loc 1 191 0
 314 0000 E9B1     		cbz	r1, .L39
 315              		.loc 1 191 0 is_stmt 0 discriminator 1
 316 0002 E0B1     		cbz	r0, .L39
 317              		.loc 1 194 0 is_stmt 1
 318 0004 0346     		mov	r3, r0
 319              		.loc 1 190 0
 320 0006 70B5     		push	{r4, r5, r6, lr}
 321              		.cfi_def_cfa_offset 16
 322              		.cfi_offset 4, -16
 323              		.cfi_offset 5, -12
 324              		.cfi_offset 6, -8
 325              		.cfi_offset 14, -4
 326              		.loc 1 194 0
 327 0008 0024     		movs	r4, #0
 328 000a 03F8014B 		strb	r4, [r3], #1
 329 000e 0133     		adds	r3, r3, #1
 330 0010 4470     		strb	r4, [r0, #1]
 331 0012 03F8014B 		strb	r4, [r3], #1
 332 0016 03F8014B 		strb	r4, [r3], #1
 333 001a 03F8014B 		strb	r4, [r3], #1
 334 001e 03F8014B 		strb	r4, [r3], #1
 335 0022 03F8014B 		strb	r4, [r3], #1
 336 0026 1C70     		strb	r4, [r3]
 337              		.loc 1 196 0
ARM GAS  C:\Users\jo\AppData\Local\Temp\cc4vLKFs.s 			page 7


 338 0028 4B6B     		ldr	r3, [r1, #52]
 339 002a 0546     		mov	r5, r0
 340 002c 0E46     		mov	r6, r1
 341 002e 9847     		blx	r3
 342              	.LVL29:
 343 0030 6860     		str	r0, [r5, #4]
 344 0032 30B1     		cbz	r0, .L40
 345              		.loc 1 199 0
 346 0034 2E60     		str	r6, [r5]
 347              		.loc 1 201 0
 348 0036 F368     		ldr	r3, [r6, #12]
 349 0038 9847     		blx	r3
 350              	.LVL30:
 351              		.loc 1 203 0
 352 003a 2046     		mov	r0, r4
 353 003c 70BD     		pop	{r4, r5, r6, pc}
 354              	.LVL31:
 355              	.L39:
 356              		.cfi_def_cfa_offset 0
 357              		.cfi_restore 4
 358              		.cfi_restore 5
 359              		.cfi_restore 6
 360              		.cfi_restore 14
 361              		.loc 1 192 0
 362 003e 0248     		ldr	r0, .L43
 363              	.LVL32:
 364 0040 7047     		bx	lr
 365              	.LVL33:
 366              	.L40:
 367              		.cfi_def_cfa_offset 16
 368              		.cfi_offset 4, -16
 369              		.cfi_offset 5, -12
 370              		.cfi_offset 6, -8
 371              		.cfi_offset 14, -4
 372              		.loc 1 197 0
 373 0042 0248     		ldr	r0, .L43+4
 374              		.loc 1 204 0
 375 0044 70BD     		pop	{r4, r5, r6, pc}
 376              	.LVL34:
 377              	.L44:
 378 0046 00BF     		.align	2
 379              	.L43:
 380 0048 00AFFFFF 		.word	-20736
 381 004c 80AEFFFF 		.word	-20864
 382              		.cfi_endproc
 383              	.LFE9:
 384              		.size	md_init_ctx, .-md_init_ctx
 385              		.section	.text.md_free_ctx,"ax",%progbits
 386              		.align	2
 387              		.p2align 4,,15
 388              		.global	md_free_ctx
 389              		.thumb
 390              		.thumb_func
 391              		.type	md_free_ctx, %function
 392              	md_free_ctx:
 393              	.LFB10:
 394              		.loc 1 208 0
ARM GAS  C:\Users\jo\AppData\Local\Temp\cc4vLKFs.s 			page 8


 395              		.cfi_startproc
 396              		@ args = 0, pretend = 0, frame = 0
 397              		@ frame_needed = 0, uses_anonymous_args = 0
 398              	.LVL35:
 399 0000 08B5     		push	{r3, lr}
 400              		.cfi_def_cfa_offset 8
 401              		.cfi_offset 3, -8
 402              		.cfi_offset 14, -4
 403              		.loc 1 209 0
 404 0002 FFF7FEFF 		bl	md_free
 405              	.LVL36:
 406              		.loc 1 212 0
 407 0006 0020     		movs	r0, #0
 408 0008 08BD     		pop	{r3, pc}
 409              		.cfi_endproc
 410              	.LFE10:
 411              		.size	md_free_ctx, .-md_free_ctx
 412 000a 00BFAFF3 		.section	.text.md_starts,"ax",%progbits
 412      0080
 413              		.align	2
 414              		.p2align 4,,15
 415              		.global	md_starts
 416              		.thumb
 417              		.thumb_func
 418              		.type	md_starts, %function
 419              	md_starts:
 420              	.LFB11:
 421              		.loc 1 216 0
 422              		.cfi_startproc
 423              		@ args = 0, pretend = 0, frame = 0
 424              		@ frame_needed = 0, uses_anonymous_args = 0
 425              	.LVL37:
 426              		.loc 1 217 0
 427 0000 48B1     		cbz	r0, .L49
 428              		.loc 1 216 0 discriminator 1
 429 0002 08B5     		push	{r3, lr}
 430              		.cfi_def_cfa_offset 8
 431              		.cfi_offset 3, -8
 432              		.cfi_offset 14, -4
 433              		.loc 1 217 0 discriminator 1
 434 0004 0368     		ldr	r3, [r0]
 435 0006 23B1     		cbz	r3, .L50
 436              		.loc 1 220 0
 437 0008 DB68     		ldr	r3, [r3, #12]
 438 000a 4068     		ldr	r0, [r0, #4]
 439              	.LVL38:
 440 000c 9847     		blx	r3
 441              	.LVL39:
 442              		.loc 1 222 0
 443 000e 0020     		movs	r0, #0
 444 0010 08BD     		pop	{r3, pc}
 445              	.LVL40:
 446              	.L50:
 447              		.loc 1 218 0
 448 0012 0248     		ldr	r0, .L52
 449              	.LVL41:
 450              		.loc 1 223 0
ARM GAS  C:\Users\jo\AppData\Local\Temp\cc4vLKFs.s 			page 9


 451 0014 08BD     		pop	{r3, pc}
 452              	.LVL42:
 453              	.L49:
 454              		.cfi_def_cfa_offset 0
 455              		.cfi_restore 3
 456              		.cfi_restore 14
 457              		.loc 1 218 0
 458 0016 0148     		ldr	r0, .L52
 459              	.LVL43:
 460              		.loc 1 223 0
 461 0018 7047     		bx	lr
 462              	.L53:
 463 001a 00BF     		.align	2
 464              	.L52:
 465 001c 00AFFFFF 		.word	-20736
 466              		.cfi_endproc
 467              	.LFE11:
 468              		.size	md_starts, .-md_starts
 469              		.section	.text.md_update,"ax",%progbits
 470              		.align	2
 471              		.p2align 4,,15
 472              		.global	md_update
 473              		.thumb
 474              		.thumb_func
 475              		.type	md_update, %function
 476              	md_update:
 477              	.LFB12:
 478              		.loc 1 226 0
 479              		.cfi_startproc
 480              		@ args = 0, pretend = 0, frame = 0
 481              		@ frame_needed = 0, uses_anonymous_args = 0
 482              	.LVL44:
 483              		.loc 1 227 0
 484 0000 48B1     		cbz	r0, .L56
 485              		.loc 1 226 0 discriminator 1
 486 0002 08B5     		push	{r3, lr}
 487              		.cfi_def_cfa_offset 8
 488              		.cfi_offset 3, -8
 489              		.cfi_offset 14, -4
 490              		.loc 1 227 0 discriminator 1
 491 0004 0368     		ldr	r3, [r0]
 492 0006 23B1     		cbz	r3, .L57
 493              		.loc 1 230 0
 494 0008 1B69     		ldr	r3, [r3, #16]
 495 000a 4068     		ldr	r0, [r0, #4]
 496              	.LVL45:
 497 000c 9847     		blx	r3
 498              	.LVL46:
 499              		.loc 1 232 0
 500 000e 0020     		movs	r0, #0
 501 0010 08BD     		pop	{r3, pc}
 502              	.LVL47:
 503              	.L57:
 504              		.loc 1 228 0
 505 0012 0248     		ldr	r0, .L59
 506              	.LVL48:
 507              		.loc 1 233 0
ARM GAS  C:\Users\jo\AppData\Local\Temp\cc4vLKFs.s 			page 10


 508 0014 08BD     		pop	{r3, pc}
 509              	.LVL49:
 510              	.L56:
 511              		.cfi_def_cfa_offset 0
 512              		.cfi_restore 3
 513              		.cfi_restore 14
 514              		.loc 1 228 0
 515 0016 0148     		ldr	r0, .L59
 516              	.LVL50:
 517              		.loc 1 233 0
 518 0018 7047     		bx	lr
 519              	.L60:
 520 001a 00BF     		.align	2
 521              	.L59:
 522 001c 00AFFFFF 		.word	-20736
 523              		.cfi_endproc
 524              	.LFE12:
 525              		.size	md_update, .-md_update
 526              		.section	.text.md_finish,"ax",%progbits
 527              		.align	2
 528              		.p2align 4,,15
 529              		.global	md_finish
 530              		.thumb
 531              		.thumb_func
 532              		.type	md_finish, %function
 533              	md_finish:
 534              	.LFB13:
 535              		.loc 1 236 0
 536              		.cfi_startproc
 537              		@ args = 0, pretend = 0, frame = 0
 538              		@ frame_needed = 0, uses_anonymous_args = 0
 539              	.LVL51:
 540              		.loc 1 237 0
 541 0000 48B1     		cbz	r0, .L63
 542              		.loc 1 236 0 discriminator 1
 543 0002 08B5     		push	{r3, lr}
 544              		.cfi_def_cfa_offset 8
 545              		.cfi_offset 3, -8
 546              		.cfi_offset 14, -4
 547              		.loc 1 237 0 discriminator 1
 548 0004 0368     		ldr	r3, [r0]
 549 0006 23B1     		cbz	r3, .L64
 550              		.loc 1 240 0
 551 0008 5B69     		ldr	r3, [r3, #20]
 552 000a 4068     		ldr	r0, [r0, #4]
 553              	.LVL52:
 554 000c 9847     		blx	r3
 555              	.LVL53:
 556              		.loc 1 242 0
 557 000e 0020     		movs	r0, #0
 558 0010 08BD     		pop	{r3, pc}
 559              	.LVL54:
 560              	.L64:
 561              		.loc 1 238 0
 562 0012 0248     		ldr	r0, .L66
 563              	.LVL55:
 564              		.loc 1 243 0
ARM GAS  C:\Users\jo\AppData\Local\Temp\cc4vLKFs.s 			page 11


 565 0014 08BD     		pop	{r3, pc}
 566              	.LVL56:
 567              	.L63:
 568              		.cfi_def_cfa_offset 0
 569              		.cfi_restore 3
 570              		.cfi_restore 14
 571              		.loc 1 238 0
 572 0016 0148     		ldr	r0, .L66
 573              	.LVL57:
 574              		.loc 1 243 0
 575 0018 7047     		bx	lr
 576              	.L67:
 577 001a 00BF     		.align	2
 578              	.L66:
 579 001c 00AFFFFF 		.word	-20736
 580              		.cfi_endproc
 581              	.LFE13:
 582              		.size	md_finish, .-md_finish
 583              		.section	.text.md,"ax",%progbits
 584              		.align	2
 585              		.p2align 4,,15
 586              		.global	md
 587              		.thumb
 588              		.thumb_func
 589              		.type	md, %function
 590              	md:
 591              	.LFB14:
 592              		.loc 1 247 0
 593              		.cfi_startproc
 594              		@ args = 0, pretend = 0, frame = 0
 595              		@ frame_needed = 0, uses_anonymous_args = 0
 596              	.LVL58:
 597              		.loc 1 248 0
 598 0000 40B1     		cbz	r0, .L70
 599              		.loc 1 247 0
 600 0002 10B5     		push	{r4, lr}
 601              		.cfi_def_cfa_offset 8
 602              		.cfi_offset 4, -8
 603              		.cfi_offset 14, -4
 604 0004 0446     		mov	r4, r0
 605 0006 0846     		mov	r0, r1
 606              	.LVL59:
 607              		.loc 1 251 0
 608 0008 A469     		ldr	r4, [r4, #24]
 609              	.LVL60:
 610 000a 1146     		mov	r1, r2
 611              	.LVL61:
 612 000c 1A46     		mov	r2, r3
 613              	.LVL62:
 614 000e A047     		blx	r4
 615              	.LVL63:
 616              		.loc 1 253 0
 617 0010 0020     		movs	r0, #0
 618 0012 10BD     		pop	{r4, pc}
 619              	.LVL64:
 620              	.L70:
 621              		.cfi_def_cfa_offset 0
ARM GAS  C:\Users\jo\AppData\Local\Temp\cc4vLKFs.s 			page 12


 622              		.cfi_restore 4
 623              		.cfi_restore 14
 624              		.loc 1 249 0
 625 0014 0048     		ldr	r0, .L73
 626              	.LVL65:
 627 0016 7047     		bx	lr
 628              	.L74:
 629              		.align	2
 630              	.L73:
 631 0018 00AFFFFF 		.word	-20736
 632              		.cfi_endproc
 633              	.LFE14:
 634              		.size	md, .-md
 635 001c AFF30080 		.section	.text.md_file,"ax",%progbits
 636              		.align	2
 637              		.p2align 4,,15
 638              		.global	md_file
 639              		.thumb
 640              		.thumb_func
 641              		.type	md_file, %function
 642              	md_file:
 643              	.LFB15:
 644              		.loc 1 257 0
 645              		.cfi_startproc
 646              		@ args = 0, pretend = 0, frame = 0
 647              		@ frame_needed = 0, uses_anonymous_args = 0
 648              	.LVL66:
 649              		.loc 1 262 0
 650 0000 50B1     		cbz	r0, .L77
 651              		.loc 1 257 0
 652 0002 08B5     		push	{r3, lr}
 653              		.cfi_def_cfa_offset 8
 654              		.cfi_offset 3, -8
 655              		.cfi_offset 14, -4
 656 0004 0346     		mov	r3, r0
 657 0006 0846     		mov	r0, r1
 658              	.LVL67:
 659              		.loc 1 266 0
 660 0008 DB69     		ldr	r3, [r3, #28]
 661              	.LVL68:
 662 000a 1146     		mov	r1, r2
 663              	.LVL69:
 664 000c 9847     		blx	r3
 665              	.LVL70:
 666              		.loc 1 267 0
 667 000e 10B1     		cbz	r0, .L76
 668              		.loc 1 268 0
 669 0010 A0F5A440 		sub	r0, r0, #20992
 670              	.LVL71:
 671 0014 08BD     		pop	{r3, pc}
 672              	.LVL72:
 673              	.L76:
 674              		.loc 1 277 0
 675 0016 08BD     		pop	{r3, pc}
 676              	.LVL73:
 677              	.L77:
 678              		.cfi_def_cfa_offset 0
ARM GAS  C:\Users\jo\AppData\Local\Temp\cc4vLKFs.s 			page 13


 679              		.cfi_restore 3
 680              		.cfi_restore 14
 681              		.loc 1 263 0
 682 0018 0048     		ldr	r0, .L81
 683              	.LVL74:
 684 001a 7047     		bx	lr
 685              	.L82:
 686              		.align	2
 687              	.L81:
 688 001c 00AFFFFF 		.word	-20736
 689              		.cfi_endproc
 690              	.LFE15:
 691              		.size	md_file, .-md_file
 692              		.section	.text.md_hmac_starts,"ax",%progbits
 693              		.align	2
 694              		.p2align 4,,15
 695              		.global	md_hmac_starts
 696              		.thumb
 697              		.thumb_func
 698              		.type	md_hmac_starts, %function
 699              	md_hmac_starts:
 700              	.LFB16:
 701              		.loc 1 280 0
 702              		.cfi_startproc
 703              		@ args = 0, pretend = 0, frame = 0
 704              		@ frame_needed = 0, uses_anonymous_args = 0
 705              	.LVL75:
 706              		.loc 1 281 0
 707 0000 48B1     		cbz	r0, .L85
 708              		.loc 1 280 0 discriminator 1
 709 0002 08B5     		push	{r3, lr}
 710              		.cfi_def_cfa_offset 8
 711              		.cfi_offset 3, -8
 712              		.cfi_offset 14, -4
 713              		.loc 1 281 0 discriminator 1
 714 0004 0368     		ldr	r3, [r0]
 715 0006 23B1     		cbz	r3, .L86
 716              		.loc 1 284 0
 717 0008 1B6A     		ldr	r3, [r3, #32]
 718 000a 4068     		ldr	r0, [r0, #4]
 719              	.LVL76:
 720 000c 9847     		blx	r3
 721              	.LVL77:
 722              		.loc 1 286 0
 723 000e 0020     		movs	r0, #0
 724 0010 08BD     		pop	{r3, pc}
 725              	.LVL78:
 726              	.L86:
 727              		.loc 1 282 0
 728 0012 0248     		ldr	r0, .L88
 729              	.LVL79:
 730              		.loc 1 287 0
 731 0014 08BD     		pop	{r3, pc}
 732              	.LVL80:
 733              	.L85:
 734              		.cfi_def_cfa_offset 0
 735              		.cfi_restore 3
ARM GAS  C:\Users\jo\AppData\Local\Temp\cc4vLKFs.s 			page 14


 736              		.cfi_restore 14
 737              		.loc 1 282 0
 738 0016 0148     		ldr	r0, .L88
 739              	.LVL81:
 740              		.loc 1 287 0
 741 0018 7047     		bx	lr
 742              	.L89:
 743 001a 00BF     		.align	2
 744              	.L88:
 745 001c 00AFFFFF 		.word	-20736
 746              		.cfi_endproc
 747              	.LFE16:
 748              		.size	md_hmac_starts, .-md_hmac_starts
 749              		.section	.text.md_hmac_update,"ax",%progbits
 750              		.align	2
 751              		.p2align 4,,15
 752              		.global	md_hmac_update
 753              		.thumb
 754              		.thumb_func
 755              		.type	md_hmac_update, %function
 756              	md_hmac_update:
 757              	.LFB17:
 758              		.loc 1 290 0
 759              		.cfi_startproc
 760              		@ args = 0, pretend = 0, frame = 0
 761              		@ frame_needed = 0, uses_anonymous_args = 0
 762              	.LVL82:
 763              		.loc 1 291 0
 764 0000 48B1     		cbz	r0, .L92
 765              		.loc 1 290 0 discriminator 1
 766 0002 08B5     		push	{r3, lr}
 767              		.cfi_def_cfa_offset 8
 768              		.cfi_offset 3, -8
 769              		.cfi_offset 14, -4
 770              		.loc 1 291 0 discriminator 1
 771 0004 0368     		ldr	r3, [r0]
 772 0006 23B1     		cbz	r3, .L93
 773              		.loc 1 294 0
 774 0008 5B6A     		ldr	r3, [r3, #36]
 775 000a 4068     		ldr	r0, [r0, #4]
 776              	.LVL83:
 777 000c 9847     		blx	r3
 778              	.LVL84:
 779              		.loc 1 296 0
 780 000e 0020     		movs	r0, #0
 781 0010 08BD     		pop	{r3, pc}
 782              	.LVL85:
 783              	.L93:
 784              		.loc 1 292 0
 785 0012 0248     		ldr	r0, .L95
 786              	.LVL86:
 787              		.loc 1 297 0
 788 0014 08BD     		pop	{r3, pc}
 789              	.LVL87:
 790              	.L92:
 791              		.cfi_def_cfa_offset 0
 792              		.cfi_restore 3
ARM GAS  C:\Users\jo\AppData\Local\Temp\cc4vLKFs.s 			page 15


 793              		.cfi_restore 14
 794              		.loc 1 292 0
 795 0016 0148     		ldr	r0, .L95
 796              	.LVL88:
 797              		.loc 1 297 0
 798 0018 7047     		bx	lr
 799              	.L96:
 800 001a 00BF     		.align	2
 801              	.L95:
 802 001c 00AFFFFF 		.word	-20736
 803              		.cfi_endproc
 804              	.LFE17:
 805              		.size	md_hmac_update, .-md_hmac_update
 806              		.section	.text.md_hmac_finish,"ax",%progbits
 807              		.align	2
 808              		.p2align 4,,15
 809              		.global	md_hmac_finish
 810              		.thumb
 811              		.thumb_func
 812              		.type	md_hmac_finish, %function
 813              	md_hmac_finish:
 814              	.LFB18:
 815              		.loc 1 300 0
 816              		.cfi_startproc
 817              		@ args = 0, pretend = 0, frame = 0
 818              		@ frame_needed = 0, uses_anonymous_args = 0
 819              	.LVL89:
 820              		.loc 1 301 0
 821 0000 48B1     		cbz	r0, .L99
 822              		.loc 1 300 0 discriminator 1
 823 0002 08B5     		push	{r3, lr}
 824              		.cfi_def_cfa_offset 8
 825              		.cfi_offset 3, -8
 826              		.cfi_offset 14, -4
 827              		.loc 1 301 0 discriminator 1
 828 0004 0368     		ldr	r3, [r0]
 829 0006 23B1     		cbz	r3, .L100
 830              		.loc 1 304 0
 831 0008 9B6A     		ldr	r3, [r3, #40]
 832 000a 4068     		ldr	r0, [r0, #4]
 833              	.LVL90:
 834 000c 9847     		blx	r3
 835              	.LVL91:
 836              		.loc 1 306 0
 837 000e 0020     		movs	r0, #0
 838 0010 08BD     		pop	{r3, pc}
 839              	.LVL92:
 840              	.L100:
 841              		.loc 1 302 0
 842 0012 0248     		ldr	r0, .L102
 843              	.LVL93:
 844              		.loc 1 307 0
 845 0014 08BD     		pop	{r3, pc}
 846              	.LVL94:
 847              	.L99:
 848              		.cfi_def_cfa_offset 0
 849              		.cfi_restore 3
ARM GAS  C:\Users\jo\AppData\Local\Temp\cc4vLKFs.s 			page 16


 850              		.cfi_restore 14
 851              		.loc 1 302 0
 852 0016 0148     		ldr	r0, .L102
 853              	.LVL95:
 854              		.loc 1 307 0
 855 0018 7047     		bx	lr
 856              	.L103:
 857 001a 00BF     		.align	2
 858              	.L102:
 859 001c 00AFFFFF 		.word	-20736
 860              		.cfi_endproc
 861              	.LFE18:
 862              		.size	md_hmac_finish, .-md_hmac_finish
 863              		.section	.text.md_hmac_reset,"ax",%progbits
 864              		.align	2
 865              		.p2align 4,,15
 866              		.global	md_hmac_reset
 867              		.thumb
 868              		.thumb_func
 869              		.type	md_hmac_reset, %function
 870              	md_hmac_reset:
 871              	.LFB19:
 872              		.loc 1 310 0
 873              		.cfi_startproc
 874              		@ args = 0, pretend = 0, frame = 0
 875              		@ frame_needed = 0, uses_anonymous_args = 0
 876              	.LVL96:
 877              		.loc 1 311 0
 878 0000 48B1     		cbz	r0, .L106
 879              		.loc 1 310 0 discriminator 1
 880 0002 08B5     		push	{r3, lr}
 881              		.cfi_def_cfa_offset 8
 882              		.cfi_offset 3, -8
 883              		.cfi_offset 14, -4
 884              		.loc 1 311 0 discriminator 1
 885 0004 0368     		ldr	r3, [r0]
 886 0006 23B1     		cbz	r3, .L107
 887              		.loc 1 314 0
 888 0008 DB6A     		ldr	r3, [r3, #44]
 889 000a 4068     		ldr	r0, [r0, #4]
 890              	.LVL97:
 891 000c 9847     		blx	r3
 892              	.LVL98:
 893              		.loc 1 316 0
 894 000e 0020     		movs	r0, #0
 895 0010 08BD     		pop	{r3, pc}
 896              	.LVL99:
 897              	.L107:
 898              		.loc 1 312 0
 899 0012 0248     		ldr	r0, .L109
 900              	.LVL100:
 901              		.loc 1 317 0
 902 0014 08BD     		pop	{r3, pc}
 903              	.LVL101:
 904              	.L106:
 905              		.cfi_def_cfa_offset 0
 906              		.cfi_restore 3
ARM GAS  C:\Users\jo\AppData\Local\Temp\cc4vLKFs.s 			page 17


 907              		.cfi_restore 14
 908              		.loc 1 312 0
 909 0016 0148     		ldr	r0, .L109
 910              	.LVL102:
 911              		.loc 1 317 0
 912 0018 7047     		bx	lr
 913              	.L110:
 914 001a 00BF     		.align	2
 915              	.L109:
 916 001c 00AFFFFF 		.word	-20736
 917              		.cfi_endproc
 918              	.LFE19:
 919              		.size	md_hmac_reset, .-md_hmac_reset
 920              		.section	.text.md_hmac,"ax",%progbits
 921              		.align	2
 922              		.p2align 4,,15
 923              		.global	md_hmac
 924              		.thumb
 925              		.thumb_func
 926              		.type	md_hmac, %function
 927              	md_hmac:
 928              	.LFB20:
 929              		.loc 1 322 0
 930              		.cfi_startproc
 931              		@ args = 8, pretend = 0, frame = 0
 932              		@ frame_needed = 0, uses_anonymous_args = 0
 933              	.LVL103:
 934              		.loc 1 323 0
 935 0000 68B1     		cbz	r0, .L113
 936              		.loc 1 322 0
 937 0002 10B5     		push	{r4, lr}
 938              		.cfi_def_cfa_offset 8
 939              		.cfi_offset 4, -8
 940              		.cfi_offset 14, -4
 941 0004 82B0     		sub	sp, sp, #8
 942              		.cfi_def_cfa_offset 16
 943 0006 0446     		mov	r4, r0
 944 0008 0846     		mov	r0, r1
 945              	.LVL104:
 946              		.loc 1 326 0
 947 000a 0599     		ldr	r1, [sp, #20]
 948              	.LVL105:
 949 000c 0091     		str	r1, [sp]
 950 000e 246B     		ldr	r4, [r4, #48]
 951              	.LVL106:
 952 0010 1146     		mov	r1, r2
 953 0012 1A46     		mov	r2, r3
 954              	.LVL107:
 955 0014 049B     		ldr	r3, [sp, #16]
 956              	.LVL108:
 957 0016 A047     		blx	r4
 958              	.LVL109:
 959              		.loc 1 328 0
 960 0018 0020     		movs	r0, #0
 961              		.loc 1 329 0
 962 001a 02B0     		add	sp, sp, #8
 963              		.cfi_def_cfa_offset 8
ARM GAS  C:\Users\jo\AppData\Local\Temp\cc4vLKFs.s 			page 18


 964              		@ sp needed
 965 001c 10BD     		pop	{r4, pc}
 966              	.LVL110:
 967              	.L113:
 968              		.cfi_def_cfa_offset 0
 969              		.cfi_restore 4
 970              		.cfi_restore 14
 971              		.loc 1 324 0
 972 001e 0148     		ldr	r0, .L116
 973              	.LVL111:
 974 0020 7047     		bx	lr
 975              	.L117:
 976 0022 00BF     		.align	2
 977              	.L116:
 978 0024 00AFFFFF 		.word	-20736
 979              		.cfi_endproc
 980              	.LFE20:
 981              		.size	md_hmac, .-md_hmac
 982 0028 AFF30080 		.section	.text.md_process,"ax",%progbits
 982      AFF30080 
 983              		.align	2
 984              		.p2align 4,,15
 985              		.global	md_process
 986              		.thumb
 987              		.thumb_func
 988              		.type	md_process, %function
 989              	md_process:
 990              	.LFB21:
 991              		.loc 1 332 0
 992              		.cfi_startproc
 993              		@ args = 0, pretend = 0, frame = 0
 994              		@ frame_needed = 0, uses_anonymous_args = 0
 995              	.LVL112:
 996              		.loc 1 333 0
 997 0000 48B1     		cbz	r0, .L120
 998              		.loc 1 332 0 discriminator 1
 999 0002 08B5     		push	{r3, lr}
 1000              		.cfi_def_cfa_offset 8
 1001              		.cfi_offset 3, -8
 1002              		.cfi_offset 14, -4
 1003              		.loc 1 333 0 discriminator 1
 1004 0004 0368     		ldr	r3, [r0]
 1005 0006 23B1     		cbz	r3, .L121
 1006              		.loc 1 336 0
 1007 0008 DB6B     		ldr	r3, [r3, #60]
 1008 000a 4068     		ldr	r0, [r0, #4]
 1009              	.LVL113:
 1010 000c 9847     		blx	r3
 1011              	.LVL114:
 1012              		.loc 1 338 0
 1013 000e 0020     		movs	r0, #0
 1014 0010 08BD     		pop	{r3, pc}
 1015              	.LVL115:
 1016              	.L121:
 1017              		.loc 1 334 0
 1018 0012 0248     		ldr	r0, .L123
 1019              	.LVL116:
ARM GAS  C:\Users\jo\AppData\Local\Temp\cc4vLKFs.s 			page 19


 1020              		.loc 1 339 0
 1021 0014 08BD     		pop	{r3, pc}
 1022              	.LVL117:
 1023              	.L120:
 1024              		.cfi_def_cfa_offset 0
 1025              		.cfi_restore 3
 1026              		.cfi_restore 14
 1027              		.loc 1 334 0
 1028 0016 0148     		ldr	r0, .L123
 1029              	.LVL118:
 1030              		.loc 1 339 0
 1031 0018 7047     		bx	lr
 1032              	.L124:
 1033 001a 00BF     		.align	2
 1034              	.L123:
 1035 001c 00AFFFFF 		.word	-20736
 1036              		.cfi_endproc
 1037              	.LFE21:
 1038              		.size	md_process, .-md_process
 1039              		.section	.rodata.CSWTCH.5,"a",%progbits
 1040              		.align	2
 1041              		.set	.LANCHOR1,. + 0
 1042              		.type	CSWTCH.5, %object
 1043              		.size	CSWTCH.5, 28
 1044              	CSWTCH.5:
 1045 0000 00000000 		.word	md5_info
 1046 0004 00000000 		.word	sha1_info
 1047 0008 00000000 		.word	sha224_info
 1048 000c 00000000 		.word	sha256_info
 1049 0010 00000000 		.word	sha384_info
 1050 0014 00000000 		.word	sha512_info
 1051 0018 00000000 		.word	ripemd160_info
 1052              		.section	.rodata.supported_digests,"a",%progbits
 1053              		.align	2
 1054              		.set	.LANCHOR0,. + 0
 1055              		.type	supported_digests, %object
 1056              		.size	supported_digests, 32
 1057              	supported_digests:
 1058 0000 08000000 		.word	8
 1059 0004 07000000 		.word	7
 1060 0008 06000000 		.word	6
 1061 000c 05000000 		.word	5
 1062 0010 04000000 		.word	4
 1063 0014 09000000 		.word	9
 1064 0018 03000000 		.word	3
 1065 001c 00000000 		.word	0
 1066              		.section	.rodata.str1.4,"aMS",%progbits,1
 1067              		.align	2
 1068              	.LC0:
 1069 0000 4D443500 		.ascii	"MD5\000"
 1070              	.LC1:
 1071 0004 52495045 		.ascii	"RIPEMD160\000"
 1071      4D443136 
 1071      3000
 1072 000e 0000     		.space	2
 1073              	.LC2:
 1074 0010 53484131 		.ascii	"SHA1\000"
ARM GAS  C:\Users\jo\AppData\Local\Temp\cc4vLKFs.s 			page 20


 1074      00
 1075 0015 000000   		.space	3
 1076              	.LC3:
 1077 0018 53484100 		.ascii	"SHA\000"
 1078              	.LC4:
 1079 001c 53484132 		.ascii	"SHA224\000"
 1079      323400
 1080 0023 00       		.space	1
 1081              	.LC5:
 1082 0024 53484132 		.ascii	"SHA256\000"
 1082      353600
 1083 002b 00       		.space	1
 1084              	.LC6:
 1085 002c 53484133 		.ascii	"SHA384\000"
 1085      383400
 1086 0033 00       		.space	1
 1087              	.LC7:
 1088 0034 53484135 		.ascii	"SHA512\000"
 1088      313200
 1089 003b 00       		.text
 1090              	.Letext0:
 1091              		.file 2 "c:\\program files\\gnu tools arm embedded\\4.9 2014q4\\lib\\gcc\\arm-none-eabi\\4.9.3\\in
 1092              		.file 3 "../../../ext/mbedtls-1.3.11/library/../include/polarssl/md.h"
 1093              		.file 4 "../../../ext/mbedtls-1.3.11/library/../include/polarssl/md_wrap.h"
 1094              		.file 5 "c:\\program files\\gnu tools arm embedded\\4.9 2014q4\\arm-none-eabi\\include\\string.h"
 1095              		.section	.debug_info,"",%progbits
 1096              	.Ldebug_info0:
 1097 0000 97090000 		.4byte	0x997
 1098 0004 0400     		.2byte	0x4
 1099 0006 00000000 		.4byte	.Ldebug_abbrev0
 1100 000a 04       		.byte	0x4
 1101 000b 01       		.uleb128 0x1
 1102 000c 51020000 		.4byte	.LASF74
 1103 0010 01       		.byte	0x1
 1104 0011 3A000000 		.4byte	.LASF75
 1105 0015 9A000000 		.4byte	.LASF76
 1106 0019 00000000 		.4byte	.Ldebug_ranges0+0
 1107 001d 00000000 		.4byte	0
 1108 0021 00000000 		.4byte	.Ldebug_line0
 1109 0025 02       		.uleb128 0x2
 1110 0026 04       		.byte	0x4
 1111 0027 05       		.byte	0x5
 1112 0028 696E7400 		.ascii	"int\000"
 1113 002c 03       		.uleb128 0x3
 1114 002d 27000000 		.4byte	.LASF11
 1115 0031 02       		.byte	0x2
 1116 0032 D4       		.byte	0xd4
 1117 0033 37000000 		.4byte	0x37
 1118 0037 04       		.uleb128 0x4
 1119 0038 04       		.byte	0x4
 1120 0039 07       		.byte	0x7
 1121 003a 92010000 		.4byte	.LASF0
 1122 003e 05       		.uleb128 0x5
 1123 003f 01       		.byte	0x1
 1124 0040 03       		.byte	0x3
 1125 0041 30       		.byte	0x30
 1126 0042 83000000 		.4byte	0x83
ARM GAS  C:\Users\jo\AppData\Local\Temp\cc4vLKFs.s 			page 21


 1127 0046 06       		.uleb128 0x6
 1128 0047 43040000 		.4byte	.LASF1
 1129 004b 00       		.sleb128 0
 1130 004c 06       		.uleb128 0x6
 1131 004d DA030000 		.4byte	.LASF2
 1132 0051 01       		.sleb128 1
 1133 0052 06       		.uleb128 0x6
 1134 0053 EA030000 		.4byte	.LASF3
 1135 0057 02       		.sleb128 2
 1136 0058 06       		.uleb128 0x6
 1137 0059 FA030000 		.4byte	.LASF4
 1138 005d 03       		.sleb128 3
 1139 005e 06       		.uleb128 0x6
 1140 005f 18040000 		.4byte	.LASF5
 1141 0063 04       		.sleb128 4
 1142 0064 06       		.uleb128 0x6
 1143 0065 F8040000 		.4byte	.LASF6
 1144 0069 05       		.sleb128 5
 1145 006a 06       		.uleb128 0x6
 1146 006b 19020000 		.4byte	.LASF7
 1147 006f 06       		.sleb128 6
 1148 0070 06       		.uleb128 0x6
 1149 0071 84030000 		.4byte	.LASF8
 1150 0075 07       		.sleb128 7
 1151 0076 06       		.uleb128 0x6
 1152 0077 7F010000 		.4byte	.LASF9
 1153 007b 08       		.sleb128 8
 1154 007c 06       		.uleb128 0x6
 1155 007d 6E040000 		.4byte	.LASF10
 1156 0081 09       		.sleb128 9
 1157 0082 00       		.byte	0
 1158 0083 03       		.uleb128 0x3
 1159 0084 39040000 		.4byte	.LASF12
 1160 0088 03       		.byte	0x3
 1161 0089 3B       		.byte	0x3b
 1162 008a 3E000000 		.4byte	0x3e
 1163 008e 07       		.uleb128 0x7
 1164 008f 40       		.byte	0x40
 1165 0090 03       		.byte	0x3
 1166 0091 47       		.byte	0x47
 1167 0092 57010000 		.4byte	0x157
 1168 0096 08       		.uleb128 0x8
 1169 0097 63000000 		.4byte	.LASF13
 1170 009b 03       		.byte	0x3
 1171 009c 49       		.byte	0x49
 1172 009d 83000000 		.4byte	0x83
 1173 00a1 00       		.byte	0
 1174 00a2 08       		.uleb128 0x8
 1175 00a3 E8010000 		.4byte	.LASF14
 1176 00a7 03       		.byte	0x3
 1177 00a8 4C       		.byte	0x4c
 1178 00a9 57010000 		.4byte	0x157
 1179 00ad 04       		.byte	0x4
 1180 00ae 08       		.uleb128 0x8
 1181 00af F2010000 		.4byte	.LASF15
 1182 00b3 03       		.byte	0x3
 1183 00b4 4F       		.byte	0x4f
ARM GAS  C:\Users\jo\AppData\Local\Temp\cc4vLKFs.s 			page 22


 1184 00b5 25000000 		.4byte	0x25
 1185 00b9 08       		.byte	0x8
 1186 00ba 08       		.uleb128 0x8
 1187 00bb 2E000000 		.4byte	.LASF16
 1188 00bf 03       		.byte	0x3
 1189 00c0 52       		.byte	0x52
 1190 00c1 76010000 		.4byte	0x176
 1191 00c5 0C       		.byte	0xc
 1192 00c6 08       		.uleb128 0x8
 1193 00c7 00000000 		.4byte	.LASF17
 1194 00cb 03       		.byte	0x3
 1195 00cc 55       		.byte	0x55
 1196 00cd A3010000 		.4byte	0x1a3
 1197 00d1 10       		.byte	0x10
 1198 00d2 08       		.uleb128 0x8
 1199 00d3 64030000 		.4byte	.LASF18
 1200 00d7 03       		.byte	0x3
 1201 00d8 58       		.byte	0x58
 1202 00d9 BF010000 		.4byte	0x1bf
 1203 00dd 14       		.byte	0x14
 1204 00de 08       		.uleb128 0x8
 1205 00df 33010000 		.4byte	.LASF19
 1206 00e3 03       		.byte	0x3
 1207 00e4 5B       		.byte	0x5b
 1208 00e5 DA010000 		.4byte	0x1da
 1209 00e9 18       		.byte	0x18
 1210 00ea 08       		.uleb128 0x8
 1211 00eb C0030000 		.4byte	.LASF20
 1212 00ef 03       		.byte	0x3
 1213 00f0 5F       		.byte	0x5f
 1214 00f1 F4010000 		.4byte	0x1f4
 1215 00f5 1C       		.byte	0x1c
 1216 00f6 08       		.uleb128 0x8
 1217 00f7 16000000 		.4byte	.LASF21
 1218 00fb 03       		.byte	0x3
 1219 00fc 62       		.byte	0x62
 1220 00fd A3010000 		.4byte	0x1a3
 1221 0101 20       		.byte	0x20
 1222 0102 08       		.uleb128 0x8
 1223 0103 D8040000 		.4byte	.LASF22
 1224 0107 03       		.byte	0x3
 1225 0108 66       		.byte	0x66
 1226 0109 A3010000 		.4byte	0x1a3
 1227 010d 24       		.byte	0x24
 1228 010e 08       		.uleb128 0x8
 1229 010f 4C030000 		.4byte	.LASF23
 1230 0113 03       		.byte	0x3
 1231 0114 6A       		.byte	0x6a
 1232 0115 BF010000 		.4byte	0x1bf
 1233 0119 28       		.byte	0x28
 1234 011a 08       		.uleb128 0x8
 1235 011b A5040000 		.4byte	.LASF24
 1236 011f 03       		.byte	0x3
 1237 0120 6D       		.byte	0x6d
 1238 0121 76010000 		.4byte	0x176
 1239 0125 2C       		.byte	0x2c
 1240 0126 08       		.uleb128 0x8
ARM GAS  C:\Users\jo\AppData\Local\Temp\cc4vLKFs.s 			page 23


 1241 0127 84040000 		.4byte	.LASF25
 1242 012b 03       		.byte	0x3
 1243 012c 70       		.byte	0x70
 1244 012d 19020000 		.4byte	0x219
 1245 0131 30       		.byte	0x30
 1246 0132 08       		.uleb128 0x8
 1247 0133 E9040000 		.4byte	.LASF26
 1248 0137 03       		.byte	0x3
 1249 0138 75       		.byte	0x75
 1250 0139 24020000 		.4byte	0x224
 1251 013d 34       		.byte	0x34
 1252 013e 08       		.uleb128 0x8
 1253 013f 0A040000 		.4byte	.LASF27
 1254 0143 03       		.byte	0x3
 1255 0144 78       		.byte	0x78
 1256 0145 76010000 		.4byte	0x176
 1257 0149 38       		.byte	0x38
 1258 014a 08       		.uleb128 0x8
 1259 014b 9F010000 		.4byte	.LASF28
 1260 014f 03       		.byte	0x3
 1261 0150 7B       		.byte	0x7b
 1262 0151 3A020000 		.4byte	0x23a
 1263 0155 3C       		.byte	0x3c
 1264 0156 00       		.byte	0
 1265 0157 09       		.uleb128 0x9
 1266 0158 04       		.byte	0x4
 1267 0159 5D010000 		.4byte	0x15d
 1268 015d 0A       		.uleb128 0xa
 1269 015e 62010000 		.4byte	0x162
 1270 0162 04       		.uleb128 0x4
 1271 0163 01       		.byte	0x1
 1272 0164 08       		.byte	0x8
 1273 0165 29040000 		.4byte	.LASF29
 1274 0169 0B       		.uleb128 0xb
 1275 016a 74010000 		.4byte	0x174
 1276 016e 0C       		.uleb128 0xc
 1277 016f 74010000 		.4byte	0x174
 1278 0173 00       		.byte	0
 1279 0174 0D       		.uleb128 0xd
 1280 0175 04       		.byte	0x4
 1281 0176 09       		.uleb128 0x9
 1282 0177 04       		.byte	0x4
 1283 0178 69010000 		.4byte	0x169
 1284 017c 0B       		.uleb128 0xb
 1285 017d 91010000 		.4byte	0x191
 1286 0181 0C       		.uleb128 0xc
 1287 0182 74010000 		.4byte	0x174
 1288 0186 0C       		.uleb128 0xc
 1289 0187 91010000 		.4byte	0x191
 1290 018b 0C       		.uleb128 0xc
 1291 018c 2C000000 		.4byte	0x2c
 1292 0190 00       		.byte	0
 1293 0191 09       		.uleb128 0x9
 1294 0192 04       		.byte	0x4
 1295 0193 97010000 		.4byte	0x197
 1296 0197 0A       		.uleb128 0xa
 1297 0198 9C010000 		.4byte	0x19c
ARM GAS  C:\Users\jo\AppData\Local\Temp\cc4vLKFs.s 			page 24


 1298 019c 04       		.uleb128 0x4
 1299 019d 01       		.byte	0x1
 1300 019e 08       		.byte	0x8
 1301 019f A1030000 		.4byte	.LASF30
 1302 01a3 09       		.uleb128 0x9
 1303 01a4 04       		.byte	0x4
 1304 01a5 7C010000 		.4byte	0x17c
 1305 01a9 0B       		.uleb128 0xb
 1306 01aa B9010000 		.4byte	0x1b9
 1307 01ae 0C       		.uleb128 0xc
 1308 01af 74010000 		.4byte	0x174
 1309 01b3 0C       		.uleb128 0xc
 1310 01b4 B9010000 		.4byte	0x1b9
 1311 01b8 00       		.byte	0
 1312 01b9 09       		.uleb128 0x9
 1313 01ba 04       		.byte	0x4
 1314 01bb 9C010000 		.4byte	0x19c
 1315 01bf 09       		.uleb128 0x9
 1316 01c0 04       		.byte	0x4
 1317 01c1 A9010000 		.4byte	0x1a9
 1318 01c5 0B       		.uleb128 0xb
 1319 01c6 DA010000 		.4byte	0x1da
 1320 01ca 0C       		.uleb128 0xc
 1321 01cb 91010000 		.4byte	0x191
 1322 01cf 0C       		.uleb128 0xc
 1323 01d0 2C000000 		.4byte	0x2c
 1324 01d4 0C       		.uleb128 0xc
 1325 01d5 B9010000 		.4byte	0x1b9
 1326 01d9 00       		.byte	0
 1327 01da 09       		.uleb128 0x9
 1328 01db 04       		.byte	0x4
 1329 01dc C5010000 		.4byte	0x1c5
 1330 01e0 0E       		.uleb128 0xe
 1331 01e1 25000000 		.4byte	0x25
 1332 01e5 F4010000 		.4byte	0x1f4
 1333 01e9 0C       		.uleb128 0xc
 1334 01ea 57010000 		.4byte	0x157
 1335 01ee 0C       		.uleb128 0xc
 1336 01ef B9010000 		.4byte	0x1b9
 1337 01f3 00       		.byte	0
 1338 01f4 09       		.uleb128 0x9
 1339 01f5 04       		.byte	0x4
 1340 01f6 E0010000 		.4byte	0x1e0
 1341 01fa 0B       		.uleb128 0xb
 1342 01fb 19020000 		.4byte	0x219
 1343 01ff 0C       		.uleb128 0xc
 1344 0200 91010000 		.4byte	0x191
 1345 0204 0C       		.uleb128 0xc
 1346 0205 2C000000 		.4byte	0x2c
 1347 0209 0C       		.uleb128 0xc
 1348 020a 91010000 		.4byte	0x191
 1349 020e 0C       		.uleb128 0xc
 1350 020f 2C000000 		.4byte	0x2c
 1351 0213 0C       		.uleb128 0xc
 1352 0214 B9010000 		.4byte	0x1b9
 1353 0218 00       		.byte	0
 1354 0219 09       		.uleb128 0x9
ARM GAS  C:\Users\jo\AppData\Local\Temp\cc4vLKFs.s 			page 25


 1355 021a 04       		.byte	0x4
 1356 021b FA010000 		.4byte	0x1fa
 1357 021f 0F       		.uleb128 0xf
 1358 0220 74010000 		.4byte	0x174
 1359 0224 09       		.uleb128 0x9
 1360 0225 04       		.byte	0x4
 1361 0226 1F020000 		.4byte	0x21f
 1362 022a 0B       		.uleb128 0xb
 1363 022b 3A020000 		.4byte	0x23a
 1364 022f 0C       		.uleb128 0xc
 1365 0230 74010000 		.4byte	0x174
 1366 0234 0C       		.uleb128 0xc
 1367 0235 91010000 		.4byte	0x191
 1368 0239 00       		.byte	0
 1369 023a 09       		.uleb128 0x9
 1370 023b 04       		.byte	0x4
 1371 023c 2A020000 		.4byte	0x22a
 1372 0240 03       		.uleb128 0x3
 1373 0241 8E040000 		.4byte	.LASF31
 1374 0245 03       		.byte	0x3
 1375 0246 7C       		.byte	0x7c
 1376 0247 8E000000 		.4byte	0x8e
 1377 024b 07       		.uleb128 0x7
 1378 024c 08       		.byte	0x8
 1379 024d 03       		.byte	0x3
 1380 024e 81       		.byte	0x81
 1381 024f 6C020000 		.4byte	0x26c
 1382 0253 08       		.uleb128 0x8
 1383 0254 32030000 		.4byte	.LASF32
 1384 0258 03       		.byte	0x3
 1385 0259 83       		.byte	0x83
 1386 025a 6C020000 		.4byte	0x26c
 1387 025e 00       		.byte	0
 1388 025f 08       		.uleb128 0x8
 1389 0260 AF030000 		.4byte	.LASF33
 1390 0264 03       		.byte	0x3
 1391 0265 86       		.byte	0x86
 1392 0266 74010000 		.4byte	0x174
 1393 026a 04       		.byte	0x4
 1394 026b 00       		.byte	0
 1395 026c 09       		.uleb128 0x9
 1396 026d 04       		.byte	0x4
 1397 026e 72020000 		.4byte	0x272
 1398 0272 0A       		.uleb128 0xa
 1399 0273 40020000 		.4byte	0x240
 1400 0277 03       		.uleb128 0x3
 1401 0278 02010000 		.4byte	.LASF34
 1402 027c 03       		.byte	0x3
 1403 027d 87       		.byte	0x87
 1404 027e 4B020000 		.4byte	0x24b
 1405 0282 04       		.uleb128 0x4
 1406 0283 01       		.byte	0x1
 1407 0284 06       		.byte	0x6
 1408 0285 F6000000 		.4byte	.LASF35
 1409 0289 04       		.uleb128 0x4
 1410 028a 02       		.byte	0x2
 1411 028b 05       		.byte	0x5
ARM GAS  C:\Users\jo\AppData\Local\Temp\cc4vLKFs.s 			page 26


 1412 028c B6030000 		.4byte	.LASF36
 1413 0290 04       		.uleb128 0x4
 1414 0291 02       		.byte	0x2
 1415 0292 07       		.byte	0x7
 1416 0293 F7010000 		.4byte	.LASF37
 1417 0297 04       		.uleb128 0x4
 1418 0298 04       		.byte	0x4
 1419 0299 05       		.byte	0x5
 1420 029a 0F010000 		.4byte	.LASF38
 1421 029e 04       		.uleb128 0x4
 1422 029f 04       		.byte	0x4
 1423 02a0 07       		.byte	0x7
 1424 02a1 D6010000 		.4byte	.LASF39
 1425 02a5 04       		.uleb128 0x4
 1426 02a6 08       		.byte	0x8
 1427 02a7 05       		.byte	0x5
 1428 02a8 E8000000 		.4byte	.LASF40
 1429 02ac 04       		.uleb128 0x4
 1430 02ad 08       		.byte	0x8
 1431 02ae 07       		.byte	0x7
 1432 02af 7B000000 		.4byte	.LASF41
 1433 02b3 04       		.uleb128 0x4
 1434 02b4 04       		.byte	0x4
 1435 02b5 07       		.byte	0x7
 1436 02b6 3A030000 		.4byte	.LASF42
 1437 02ba 10       		.uleb128 0x10
 1438 02bb 5C040000 		.4byte	.LASF77
 1439 02bf 01       		.byte	0x1
 1440 02c0 84       		.byte	0x84
 1441 02c1 6C020000 		.4byte	0x26c
 1442 02c5 01       		.byte	0x1
 1443 02c6 D6020000 		.4byte	0x2d6
 1444 02ca 11       		.uleb128 0x11
 1445 02cb 7C030000 		.4byte	.LASF43
 1446 02cf 01       		.byte	0x1
 1447 02d0 84       		.byte	0x84
 1448 02d1 83000000 		.4byte	0x83
 1449 02d5 00       		.byte	0
 1450 02d6 12       		.uleb128 0x12
 1451 02d7 6E010000 		.4byte	.LASF78
 1452 02db 01       		.byte	0x1
 1453 02dc 2F       		.byte	0x2f
 1454 02dd 01       		.byte	0x1
 1455 02de FE020000 		.4byte	0x2fe
 1456 02e2 13       		.uleb128 0x13
 1457 02e3 7600     		.ascii	"v\000"
 1458 02e5 01       		.byte	0x1
 1459 02e6 2F       		.byte	0x2f
 1460 02e7 74010000 		.4byte	0x174
 1461 02eb 13       		.uleb128 0x13
 1462 02ec 6E00     		.ascii	"n\000"
 1463 02ee 01       		.byte	0x1
 1464 02ef 2F       		.byte	0x2f
 1465 02f0 2C000000 		.4byte	0x2c
 1466 02f4 14       		.uleb128 0x14
 1467 02f5 7000     		.ascii	"p\000"
 1468 02f7 01       		.byte	0x1
ARM GAS  C:\Users\jo\AppData\Local\Temp\cc4vLKFs.s 			page 27


 1469 02f8 30       		.byte	0x30
 1470 02f9 FE020000 		.4byte	0x2fe
 1471 02fd 00       		.byte	0
 1472 02fe 09       		.uleb128 0x9
 1473 02ff 04       		.byte	0x4
 1474 0300 04030000 		.4byte	0x304
 1475 0304 15       		.uleb128 0x15
 1476 0305 9C010000 		.4byte	0x19c
 1477 0309 16       		.uleb128 0x16
 1478 030a 54040000 		.4byte	.LASF79
 1479 030e 01       		.byte	0x1
 1480 030f 56       		.byte	0x56
 1481 0310 1E030000 		.4byte	0x31e
 1482 0314 00000000 		.4byte	.LFB4
 1483 0318 08000000 		.4byte	.LFE4-.LFB4
 1484 031c 01       		.uleb128 0x1
 1485 031d 9C       		.byte	0x9c
 1486 031e 09       		.uleb128 0x9
 1487 031f 04       		.byte	0x4
 1488 0320 24030000 		.4byte	0x324
 1489 0324 0A       		.uleb128 0xa
 1490 0325 25000000 		.4byte	0x25
 1491 0329 17       		.uleb128 0x17
 1492 032a 4B010000 		.4byte	.LASF47
 1493 032e 01       		.byte	0x1
 1494 032f 5B       		.byte	0x5b
 1495 0330 6C020000 		.4byte	0x26c
 1496 0334 00000000 		.4byte	.LFB5
 1497 0338 B8000000 		.4byte	.LFE5-.LFB5
 1498 033c 01       		.uleb128 0x1
 1499 033d 9C       		.byte	0x9c
 1500 033e 37040000 		.4byte	0x437
 1501 0342 18       		.uleb128 0x18
 1502 0343 18010000 		.4byte	.LASF44
 1503 0347 01       		.byte	0x1
 1504 0348 5B       		.byte	0x5b
 1505 0349 57010000 		.4byte	0x157
 1506 034d 00000000 		.4byte	.LLST0
 1507 0351 19       		.uleb128 0x19
 1508 0352 10000000 		.4byte	.LVL2
 1509 0356 84090000 		.4byte	0x984
 1510 035a 6E030000 		.4byte	0x36e
 1511 035e 1A       		.uleb128 0x1a
 1512 035f 01       		.uleb128 0x1
 1513 0360 51       		.byte	0x51
 1514 0361 02       		.uleb128 0x2
 1515 0362 74       		.byte	0x74
 1516 0363 00       		.sleb128 0
 1517 0364 1A       		.uleb128 0x1a
 1518 0365 01       		.uleb128 0x1
 1519 0366 50       		.byte	0x50
 1520 0367 05       		.uleb128 0x5
 1521 0368 03       		.byte	0x3
 1522 0369 00000000 		.4byte	.LC0
 1523 036d 00       		.byte	0
 1524 036e 19       		.uleb128 0x19
 1525 036f 1A000000 		.4byte	.LVL3
ARM GAS  C:\Users\jo\AppData\Local\Temp\cc4vLKFs.s 			page 28


 1526 0373 84090000 		.4byte	0x984
 1527 0377 8B030000 		.4byte	0x38b
 1528 037b 1A       		.uleb128 0x1a
 1529 037c 01       		.uleb128 0x1
 1530 037d 51       		.byte	0x51
 1531 037e 02       		.uleb128 0x2
 1532 037f 74       		.byte	0x74
 1533 0380 00       		.sleb128 0
 1534 0381 1A       		.uleb128 0x1a
 1535 0382 01       		.uleb128 0x1
 1536 0383 50       		.byte	0x50
 1537 0384 05       		.uleb128 0x5
 1538 0385 03       		.byte	0x3
 1539 0386 04000000 		.4byte	.LC1
 1540 038a 00       		.byte	0
 1541 038b 19       		.uleb128 0x19
 1542 038c 24000000 		.4byte	.LVL4
 1543 0390 84090000 		.4byte	0x984
 1544 0394 A8030000 		.4byte	0x3a8
 1545 0398 1A       		.uleb128 0x1a
 1546 0399 01       		.uleb128 0x1
 1547 039a 51       		.byte	0x51
 1548 039b 02       		.uleb128 0x2
 1549 039c 74       		.byte	0x74
 1550 039d 00       		.sleb128 0
 1551 039e 1A       		.uleb128 0x1a
 1552 039f 01       		.uleb128 0x1
 1553 03a0 50       		.byte	0x50
 1554 03a1 05       		.uleb128 0x5
 1555 03a2 03       		.byte	0x3
 1556 03a3 10000000 		.4byte	.LC2
 1557 03a7 00       		.byte	0
 1558 03a8 19       		.uleb128 0x19
 1559 03a9 2E000000 		.4byte	.LVL5
 1560 03ad 84090000 		.4byte	0x984
 1561 03b1 C5030000 		.4byte	0x3c5
 1562 03b5 1A       		.uleb128 0x1a
 1563 03b6 01       		.uleb128 0x1
 1564 03b7 51       		.byte	0x51
 1565 03b8 02       		.uleb128 0x2
 1566 03b9 74       		.byte	0x74
 1567 03ba 00       		.sleb128 0
 1568 03bb 1A       		.uleb128 0x1a
 1569 03bc 01       		.uleb128 0x1
 1570 03bd 50       		.byte	0x50
 1571 03be 05       		.uleb128 0x5
 1572 03bf 03       		.byte	0x3
 1573 03c0 18000000 		.4byte	.LC3
 1574 03c4 00       		.byte	0
 1575 03c5 19       		.uleb128 0x19
 1576 03c6 38000000 		.4byte	.LVL6
 1577 03ca 84090000 		.4byte	0x984
 1578 03ce E2030000 		.4byte	0x3e2
 1579 03d2 1A       		.uleb128 0x1a
 1580 03d3 01       		.uleb128 0x1
 1581 03d4 51       		.byte	0x51
 1582 03d5 02       		.uleb128 0x2
ARM GAS  C:\Users\jo\AppData\Local\Temp\cc4vLKFs.s 			page 29


 1583 03d6 74       		.byte	0x74
 1584 03d7 00       		.sleb128 0
 1585 03d8 1A       		.uleb128 0x1a
 1586 03d9 01       		.uleb128 0x1
 1587 03da 50       		.byte	0x50
 1588 03db 05       		.uleb128 0x5
 1589 03dc 03       		.byte	0x3
 1590 03dd 1C000000 		.4byte	.LC4
 1591 03e1 00       		.byte	0
 1592 03e2 19       		.uleb128 0x19
 1593 03e3 42000000 		.4byte	.LVL7
 1594 03e7 84090000 		.4byte	0x984
 1595 03eb FF030000 		.4byte	0x3ff
 1596 03ef 1A       		.uleb128 0x1a
 1597 03f0 01       		.uleb128 0x1
 1598 03f1 51       		.byte	0x51
 1599 03f2 02       		.uleb128 0x2
 1600 03f3 74       		.byte	0x74
 1601 03f4 00       		.sleb128 0
 1602 03f5 1A       		.uleb128 0x1a
 1603 03f6 01       		.uleb128 0x1
 1604 03f7 50       		.byte	0x50
 1605 03f8 05       		.uleb128 0x5
 1606 03f9 03       		.byte	0x3
 1607 03fa 24000000 		.4byte	.LC5
 1608 03fe 00       		.byte	0
 1609 03ff 19       		.uleb128 0x19
 1610 0400 4C000000 		.4byte	.LVL8
 1611 0404 84090000 		.4byte	0x984
 1612 0408 1C040000 		.4byte	0x41c
 1613 040c 1A       		.uleb128 0x1a
 1614 040d 01       		.uleb128 0x1
 1615 040e 51       		.byte	0x51
 1616 040f 02       		.uleb128 0x2
 1617 0410 74       		.byte	0x74
 1618 0411 00       		.sleb128 0
 1619 0412 1A       		.uleb128 0x1a
 1620 0413 01       		.uleb128 0x1
 1621 0414 50       		.byte	0x50
 1622 0415 05       		.uleb128 0x5
 1623 0416 03       		.byte	0x3
 1624 0417 2C000000 		.4byte	.LC6
 1625 041b 00       		.byte	0
 1626 041c 1B       		.uleb128 0x1b
 1627 041d 58000000 		.4byte	.LVL10
 1628 0421 84090000 		.4byte	0x984
 1629 0425 1A       		.uleb128 0x1a
 1630 0426 01       		.uleb128 0x1
 1631 0427 51       		.byte	0x51
 1632 0428 03       		.uleb128 0x3
 1633 0429 F3       		.byte	0xf3
 1634 042a 01       		.uleb128 0x1
 1635 042b 50       		.byte	0x50
 1636 042c 1A       		.uleb128 0x1a
 1637 042d 01       		.uleb128 0x1
 1638 042e 50       		.byte	0x50
 1639 042f 05       		.uleb128 0x5
ARM GAS  C:\Users\jo\AppData\Local\Temp\cc4vLKFs.s 			page 30


 1640 0430 03       		.byte	0x3
 1641 0431 34000000 		.4byte	.LC7
 1642 0435 00       		.byte	0
 1643 0436 00       		.byte	0
 1644 0437 1C       		.uleb128 0x1c
 1645 0438 BA020000 		.4byte	0x2ba
 1646 043c 00000000 		.4byte	.LFB6
 1647 0440 18000000 		.4byte	.LFE6-.LFB6
 1648 0444 01       		.uleb128 0x1
 1649 0445 9C       		.byte	0x9c
 1650 0446 54040000 		.4byte	0x454
 1651 044a 1D       		.uleb128 0x1d
 1652 044b CA020000 		.4byte	0x2ca
 1653 044f 58000000 		.4byte	.LLST1
 1654 0453 00       		.byte	0
 1655 0454 1E       		.uleb128 0x1e
 1656 0455 9D040000 		.4byte	.LASF45
 1657 0459 01       		.byte	0x1
 1658 045a AD       		.byte	0xad
 1659 045b 00000000 		.4byte	.LFB7
 1660 045f 24000000 		.4byte	.LFE7-.LFB7
 1661 0463 01       		.uleb128 0x1
 1662 0464 9C       		.byte	0x9c
 1663 0465 77040000 		.4byte	0x477
 1664 0469 1F       		.uleb128 0x1f
 1665 046a 63747800 		.ascii	"ctx\000"
 1666 046e 01       		.byte	0x1
 1667 046f AD       		.byte	0xad
 1668 0470 77040000 		.4byte	0x477
 1669 0474 01       		.uleb128 0x1
 1670 0475 50       		.byte	0x50
 1671 0476 00       		.byte	0
 1672 0477 09       		.uleb128 0x9
 1673 0478 04       		.byte	0x4
 1674 0479 77020000 		.4byte	0x277
 1675 047d 20       		.uleb128 0x20
 1676 047e C4040000 		.4byte	.LASF46
 1677 0482 01       		.byte	0x1
 1678 0483 B2       		.byte	0xb2
 1679 0484 00000000 		.4byte	.LFB8
 1680 0488 20000000 		.4byte	.LFE8-.LFB8
 1681 048c 01       		.uleb128 0x1
 1682 048d 9C       		.byte	0x9c
 1683 048e D3040000 		.4byte	0x4d3
 1684 0492 21       		.uleb128 0x21
 1685 0493 63747800 		.ascii	"ctx\000"
 1686 0497 01       		.byte	0x1
 1687 0498 B2       		.byte	0xb2
 1688 0499 77040000 		.4byte	0x477
 1689 049d 79000000 		.4byte	.LLST2
 1690 04a1 22       		.uleb128 0x22
 1691 04a2 D6020000 		.4byte	0x2d6
 1692 04a6 14000000 		.4byte	.LBB18
 1693 04aa 0C000000 		.4byte	.LBE18-.LBB18
 1694 04ae 01       		.byte	0x1
 1695 04af BA       		.byte	0xba
 1696 04b0 1D       		.uleb128 0x1d
ARM GAS  C:\Users\jo\AppData\Local\Temp\cc4vLKFs.s 			page 31


 1697 04b1 EB020000 		.4byte	0x2eb
 1698 04b5 B2000000 		.4byte	.LLST3
 1699 04b9 23       		.uleb128 0x23
 1700 04ba E2020000 		.4byte	0x2e2
 1701 04be 24       		.uleb128 0x24
 1702 04bf 14000000 		.4byte	.LBB19
 1703 04c3 0C000000 		.4byte	.LBE19-.LBB19
 1704 04c7 25       		.uleb128 0x25
 1705 04c8 F4020000 		.4byte	0x2f4
 1706 04cc C6000000 		.4byte	.LLST4
 1707 04d0 00       		.byte	0
 1708 04d1 00       		.byte	0
 1709 04d2 00       		.byte	0
 1710 04d3 26       		.uleb128 0x26
 1711 04d4 CC040000 		.4byte	.LASF48
 1712 04d8 01       		.byte	0x1
 1713 04d9 BD       		.byte	0xbd
 1714 04da 25000000 		.4byte	0x25
 1715 04de 00000000 		.4byte	.LFB9
 1716 04e2 50000000 		.4byte	.LFE9-.LFB9
 1717 04e6 01       		.uleb128 0x1
 1718 04e7 9C       		.byte	0x9c
 1719 04e8 0B050000 		.4byte	0x50b
 1720 04ec 21       		.uleb128 0x21
 1721 04ed 63747800 		.ascii	"ctx\000"
 1722 04f1 01       		.byte	0x1
 1723 04f2 BD       		.byte	0xbd
 1724 04f3 77040000 		.4byte	0x477
 1725 04f7 F1000000 		.4byte	.LLST5
 1726 04fb 18       		.uleb128 0x18
 1727 04fc 32030000 		.4byte	.LASF32
 1728 0500 01       		.byte	0x1
 1729 0501 BD       		.byte	0xbd
 1730 0502 6C020000 		.4byte	0x26c
 1731 0506 41010000 		.4byte	.LLST6
 1732 050a 00       		.byte	0
 1733 050b 17       		.uleb128 0x17
 1734 050c 3B020000 		.4byte	.LASF49
 1735 0510 01       		.byte	0x1
 1736 0511 CF       		.byte	0xcf
 1737 0512 25000000 		.4byte	0x25
 1738 0516 00000000 		.4byte	.LFB10
 1739 051a 0A000000 		.4byte	.LFE10-.LFB10
 1740 051e 01       		.uleb128 0x1
 1741 051f 9C       		.byte	0x9c
 1742 0520 45050000 		.4byte	0x545
 1743 0524 21       		.uleb128 0x21
 1744 0525 63747800 		.ascii	"ctx\000"
 1745 0529 01       		.byte	0x1
 1746 052a CF       		.byte	0xcf
 1747 052b 77040000 		.4byte	0x477
 1748 052f 83010000 		.4byte	.LLST7
 1749 0533 1B       		.uleb128 0x1b
 1750 0534 06000000 		.4byte	.LVL36
 1751 0538 7D040000 		.4byte	0x47d
 1752 053c 1A       		.uleb128 0x1a
 1753 053d 01       		.uleb128 0x1
ARM GAS  C:\Users\jo\AppData\Local\Temp\cc4vLKFs.s 			page 32


 1754 053e 50       		.byte	0x50
 1755 053f 03       		.uleb128 0x3
 1756 0540 F3       		.byte	0xf3
 1757 0541 01       		.uleb128 0x1
 1758 0542 50       		.byte	0x50
 1759 0543 00       		.byte	0
 1760 0544 00       		.byte	0
 1761 0545 26       		.uleb128 0x26
 1762 0546 47020000 		.4byte	.LASF50
 1763 054a 01       		.byte	0x1
 1764 054b D7       		.byte	0xd7
 1765 054c 25000000 		.4byte	0x25
 1766 0550 00000000 		.4byte	.LFB11
 1767 0554 20000000 		.4byte	.LFE11-.LFB11
 1768 0558 01       		.uleb128 0x1
 1769 0559 9C       		.byte	0x9c
 1770 055a 6E050000 		.4byte	0x56e
 1771 055e 21       		.uleb128 0x21
 1772 055f 63747800 		.ascii	"ctx\000"
 1773 0563 01       		.byte	0x1
 1774 0564 D7       		.byte	0xd7
 1775 0565 77040000 		.4byte	0x477
 1776 0569 A4010000 		.4byte	.LLST8
 1777 056d 00       		.byte	0
 1778 056e 17       		.uleb128 0x17
 1779 056f 0C000000 		.4byte	.LASF51
 1780 0573 01       		.byte	0x1
 1781 0574 E1       		.byte	0xe1
 1782 0575 25000000 		.4byte	0x25
 1783 0579 00000000 		.4byte	.LFB12
 1784 057d 20000000 		.4byte	.LFE12-.LFB12
 1785 0581 01       		.uleb128 0x1
 1786 0582 9C       		.byte	0x9c
 1787 0583 C9050000 		.4byte	0x5c9
 1788 0587 21       		.uleb128 0x21
 1789 0588 63747800 		.ascii	"ctx\000"
 1790 058c 01       		.byte	0x1
 1791 058d E1       		.byte	0xe1
 1792 058e 77040000 		.4byte	0x477
 1793 0592 F7010000 		.4byte	.LLST9
 1794 0596 18       		.uleb128 0x18
 1795 0597 D4030000 		.4byte	.LASF52
 1796 059b 01       		.byte	0x1
 1797 059c E1       		.byte	0xe1
 1798 059d 91010000 		.4byte	0x191
 1799 05a1 4A020000 		.4byte	.LLST10
 1800 05a5 18       		.uleb128 0x18
 1801 05a6 98040000 		.4byte	.LASF53
 1802 05aa 01       		.byte	0x1
 1803 05ab E1       		.byte	0xe1
 1804 05ac 2C000000 		.4byte	0x2c
 1805 05b0 76020000 		.4byte	.LLST11
 1806 05b4 27       		.uleb128 0x27
 1807 05b5 0E000000 		.4byte	.LVL46
 1808 05b9 1A       		.uleb128 0x1a
 1809 05ba 01       		.uleb128 0x1
 1810 05bb 52       		.byte	0x52
ARM GAS  C:\Users\jo\AppData\Local\Temp\cc4vLKFs.s 			page 33


 1811 05bc 03       		.uleb128 0x3
 1812 05bd F3       		.byte	0xf3
 1813 05be 01       		.uleb128 0x1
 1814 05bf 52       		.byte	0x52
 1815 05c0 1A       		.uleb128 0x1a
 1816 05c1 01       		.uleb128 0x1
 1817 05c2 51       		.byte	0x51
 1818 05c3 03       		.uleb128 0x3
 1819 05c4 F3       		.byte	0xf3
 1820 05c5 01       		.uleb128 0x1
 1821 05c6 51       		.byte	0x51
 1822 05c7 00       		.byte	0
 1823 05c8 00       		.byte	0
 1824 05c9 17       		.uleb128 0x17
 1825 05ca 97030000 		.4byte	.LASF54
 1826 05ce 01       		.byte	0x1
 1827 05cf EB       		.byte	0xeb
 1828 05d0 25000000 		.4byte	0x25
 1829 05d4 00000000 		.4byte	.LFB13
 1830 05d8 20000000 		.4byte	.LFE13-.LFB13
 1831 05dc 01       		.uleb128 0x1
 1832 05dd 9C       		.byte	0x9c
 1833 05de 0E060000 		.4byte	0x60e
 1834 05e2 21       		.uleb128 0x21
 1835 05e3 63747800 		.ascii	"ctx\000"
 1836 05e7 01       		.byte	0x1
 1837 05e8 EB       		.byte	0xeb
 1838 05e9 77040000 		.4byte	0x477
 1839 05ed A2020000 		.4byte	.LLST12
 1840 05f1 18       		.uleb128 0x18
 1841 05f2 2B030000 		.4byte	.LASF55
 1842 05f6 01       		.byte	0x1
 1843 05f7 EB       		.byte	0xeb
 1844 05f8 B9010000 		.4byte	0x1b9
 1845 05fc F5020000 		.4byte	.LLST13
 1846 0600 27       		.uleb128 0x27
 1847 0601 0E000000 		.4byte	.LVL53
 1848 0605 1A       		.uleb128 0x1a
 1849 0606 01       		.uleb128 0x1
 1850 0607 51       		.byte	0x51
 1851 0608 03       		.uleb128 0x3
 1852 0609 F3       		.byte	0xf3
 1853 060a 01       		.uleb128 0x1
 1854 060b 51       		.byte	0x51
 1855 060c 00       		.byte	0
 1856 060d 00       		.byte	0
 1857 060e 28       		.uleb128 0x28
 1858 060f 6D6400   		.ascii	"md\000"
 1859 0612 01       		.byte	0x1
 1860 0613 F5       		.byte	0xf5
 1861 0614 25000000 		.4byte	0x25
 1862 0618 00000000 		.4byte	.LFB14
 1863 061c 1C000000 		.4byte	.LFE14-.LFB14
 1864 0620 01       		.uleb128 0x1
 1865 0621 9C       		.byte	0x9c
 1866 0622 81060000 		.4byte	0x681
 1867 0626 18       		.uleb128 0x18
ARM GAS  C:\Users\jo\AppData\Local\Temp\cc4vLKFs.s 			page 34


 1868 0627 32030000 		.4byte	.LASF32
 1869 062b 01       		.byte	0x1
 1870 062c F5       		.byte	0xf5
 1871 062d 6C020000 		.4byte	0x26c
 1872 0631 21030000 		.4byte	.LLST14
 1873 0635 18       		.uleb128 0x18
 1874 0636 D4030000 		.4byte	.LASF52
 1875 063a 01       		.byte	0x1
 1876 063b F5       		.byte	0xf5
 1877 063c 91010000 		.4byte	0x191
 1878 0640 66030000 		.4byte	.LLST15
 1879 0644 18       		.uleb128 0x18
 1880 0645 98040000 		.4byte	.LASF53
 1881 0649 01       		.byte	0x1
 1882 064a F5       		.byte	0xf5
 1883 064b 2C000000 		.4byte	0x2c
 1884 064f 9D030000 		.4byte	.LLST16
 1885 0653 18       		.uleb128 0x18
 1886 0654 2B030000 		.4byte	.LASF55
 1887 0658 01       		.byte	0x1
 1888 0659 F6       		.byte	0xf6
 1889 065a B9010000 		.4byte	0x1b9
 1890 065e D4030000 		.4byte	.LLST17
 1891 0662 29       		.uleb128 0x29
 1892 0663 10000000 		.4byte	.LVL63
 1893 0667 02       		.uleb128 0x2
 1894 0668 74       		.byte	0x74
 1895 0669 00       		.sleb128 0
 1896 066a 1A       		.uleb128 0x1a
 1897 066b 01       		.uleb128 0x1
 1898 066c 52       		.byte	0x52
 1899 066d 03       		.uleb128 0x3
 1900 066e F3       		.byte	0xf3
 1901 066f 01       		.uleb128 0x1
 1902 0670 53       		.byte	0x53
 1903 0671 1A       		.uleb128 0x1a
 1904 0672 01       		.uleb128 0x1
 1905 0673 51       		.byte	0x51
 1906 0674 03       		.uleb128 0x3
 1907 0675 F3       		.byte	0xf3
 1908 0676 01       		.uleb128 0x1
 1909 0677 52       		.byte	0x52
 1910 0678 1A       		.uleb128 0x1a
 1911 0679 01       		.uleb128 0x1
 1912 067a 50       		.byte	0x50
 1913 067b 03       		.uleb128 0x3
 1914 067c F3       		.byte	0xf3
 1915 067d 01       		.uleb128 0x1
 1916 067e 51       		.byte	0x51
 1917 067f 00       		.byte	0
 1918 0680 00       		.byte	0
 1919 0681 2A       		.uleb128 0x2a
 1920 0682 2B010000 		.4byte	.LASF56
 1921 0686 01       		.byte	0x1
 1922 0687 0001     		.2byte	0x100
 1923 0689 25000000 		.4byte	0x25
 1924 068d 00000000 		.4byte	.LFB15
ARM GAS  C:\Users\jo\AppData\Local\Temp\cc4vLKFs.s 			page 35


 1925 0691 20000000 		.4byte	.LFE15-.LFB15
 1926 0695 01       		.uleb128 0x1
 1927 0696 9C       		.byte	0x9c
 1928 0697 F0060000 		.4byte	0x6f0
 1929 069b 2B       		.uleb128 0x2b
 1930 069c 32030000 		.4byte	.LASF32
 1931 06a0 01       		.byte	0x1
 1932 06a1 0001     		.2byte	0x100
 1933 06a3 6C020000 		.4byte	0x26c
 1934 06a7 00040000 		.4byte	.LLST18
 1935 06ab 2B       		.uleb128 0x2b
 1936 06ac 68000000 		.4byte	.LASF57
 1937 06b0 01       		.byte	0x1
 1938 06b1 0001     		.2byte	0x100
 1939 06b3 57010000 		.4byte	0x157
 1940 06b7 45040000 		.4byte	.LLST19
 1941 06bb 2B       		.uleb128 0x2b
 1942 06bc 2B030000 		.4byte	.LASF55
 1943 06c0 01       		.byte	0x1
 1944 06c1 0001     		.2byte	0x100
 1945 06c3 B9010000 		.4byte	0x1b9
 1946 06c7 7C040000 		.4byte	.LLST20
 1947 06cb 2C       		.uleb128 0x2c
 1948 06cc 72657400 		.ascii	"ret\000"
 1949 06d0 01       		.byte	0x1
 1950 06d1 0301     		.2byte	0x103
 1951 06d3 25000000 		.4byte	0x25
 1952 06d7 A8040000 		.4byte	.LLST21
 1953 06db 27       		.uleb128 0x27
 1954 06dc 0E000000 		.4byte	.LVL70
 1955 06e0 1A       		.uleb128 0x1a
 1956 06e1 01       		.uleb128 0x1
 1957 06e2 51       		.byte	0x51
 1958 06e3 03       		.uleb128 0x3
 1959 06e4 F3       		.byte	0xf3
 1960 06e5 01       		.uleb128 0x1
 1961 06e6 52       		.byte	0x52
 1962 06e7 1A       		.uleb128 0x1a
 1963 06e8 01       		.uleb128 0x1
 1964 06e9 50       		.byte	0x50
 1965 06ea 03       		.uleb128 0x3
 1966 06eb F3       		.byte	0xf3
 1967 06ec 01       		.uleb128 0x1
 1968 06ed 51       		.byte	0x51
 1969 06ee 00       		.byte	0
 1970 06ef 00       		.byte	0
 1971 06f0 2A       		.uleb128 0x2a
 1972 06f1 B5040000 		.4byte	.LASF58
 1973 06f5 01       		.byte	0x1
 1974 06f6 1701     		.2byte	0x117
 1975 06f8 25000000 		.4byte	0x25
 1976 06fc 00000000 		.4byte	.LFB16
 1977 0700 20000000 		.4byte	.LFE16-.LFB16
 1978 0704 01       		.uleb128 0x1
 1979 0705 9C       		.byte	0x9c
 1980 0706 4F070000 		.4byte	0x74f
 1981 070a 2D       		.uleb128 0x2d
ARM GAS  C:\Users\jo\AppData\Local\Temp\cc4vLKFs.s 			page 36


 1982 070b 63747800 		.ascii	"ctx\000"
 1983 070f 01       		.byte	0x1
 1984 0710 1701     		.2byte	0x117
 1985 0712 77040000 		.4byte	0x477
 1986 0716 D5040000 		.4byte	.LLST22
 1987 071a 2D       		.uleb128 0x2d
 1988 071b 6B657900 		.ascii	"key\000"
 1989 071f 01       		.byte	0x1
 1990 0720 1701     		.2byte	0x117
 1991 0722 91010000 		.4byte	0x191
 1992 0726 28050000 		.4byte	.LLST23
 1993 072a 2B       		.uleb128 0x2b
 1994 072b 5D030000 		.4byte	.LASF59
 1995 072f 01       		.byte	0x1
 1996 0730 1701     		.2byte	0x117
 1997 0732 2C000000 		.4byte	0x2c
 1998 0736 54050000 		.4byte	.LLST24
 1999 073a 27       		.uleb128 0x27
 2000 073b 0E000000 		.4byte	.LVL77
 2001 073f 1A       		.uleb128 0x1a
 2002 0740 01       		.uleb128 0x1
 2003 0741 52       		.byte	0x52
 2004 0742 03       		.uleb128 0x3
 2005 0743 F3       		.byte	0xf3
 2006 0744 01       		.uleb128 0x1
 2007 0745 52       		.byte	0x52
 2008 0746 1A       		.uleb128 0x1a
 2009 0747 01       		.uleb128 0x1
 2010 0748 51       		.byte	0x51
 2011 0749 03       		.uleb128 0x3
 2012 074a F3       		.byte	0xf3
 2013 074b 01       		.uleb128 0x1
 2014 074c 51       		.byte	0x51
 2015 074d 00       		.byte	0
 2016 074e 00       		.byte	0
 2017 074f 2A       		.uleb128 0x2a
 2018 0750 0A020000 		.4byte	.LASF60
 2019 0754 01       		.byte	0x1
 2020 0755 2101     		.2byte	0x121
 2021 0757 25000000 		.4byte	0x25
 2022 075b 00000000 		.4byte	.LFB17
 2023 075f 20000000 		.4byte	.LFE17-.LFB17
 2024 0763 01       		.uleb128 0x1
 2025 0764 9C       		.byte	0x9c
 2026 0765 AE070000 		.4byte	0x7ae
 2027 0769 2D       		.uleb128 0x2d
 2028 076a 63747800 		.ascii	"ctx\000"
 2029 076e 01       		.byte	0x1
 2030 076f 2101     		.2byte	0x121
 2031 0771 77040000 		.4byte	0x477
 2032 0775 80050000 		.4byte	.LLST25
 2033 0779 2B       		.uleb128 0x2b
 2034 077a D4030000 		.4byte	.LASF52
 2035 077e 01       		.byte	0x1
 2036 077f 2101     		.2byte	0x121
 2037 0781 91010000 		.4byte	0x191
 2038 0785 D3050000 		.4byte	.LLST26
ARM GAS  C:\Users\jo\AppData\Local\Temp\cc4vLKFs.s 			page 37


 2039 0789 2B       		.uleb128 0x2b
 2040 078a 98040000 		.4byte	.LASF53
 2041 078e 01       		.byte	0x1
 2042 078f 2101     		.2byte	0x121
 2043 0791 2C000000 		.4byte	0x2c
 2044 0795 FF050000 		.4byte	.LLST27
 2045 0799 27       		.uleb128 0x27
 2046 079a 0E000000 		.4byte	.LVL84
 2047 079e 1A       		.uleb128 0x1a
 2048 079f 01       		.uleb128 0x1
 2049 07a0 52       		.byte	0x52
 2050 07a1 03       		.uleb128 0x3
 2051 07a2 F3       		.byte	0xf3
 2052 07a3 01       		.uleb128 0x1
 2053 07a4 52       		.byte	0x52
 2054 07a5 1A       		.uleb128 0x1a
 2055 07a6 01       		.uleb128 0x1
 2056 07a7 51       		.byte	0x51
 2057 07a8 03       		.uleb128 0x3
 2058 07a9 F3       		.byte	0xf3
 2059 07aa 01       		.uleb128 0x1
 2060 07ab 51       		.byte	0x51
 2061 07ac 00       		.byte	0
 2062 07ad 00       		.byte	0
 2063 07ae 2A       		.uleb128 0x2a
 2064 07af 5F010000 		.4byte	.LASF61
 2065 07b3 01       		.byte	0x1
 2066 07b4 2B01     		.2byte	0x12b
 2067 07b6 25000000 		.4byte	0x25
 2068 07ba 00000000 		.4byte	.LFB18
 2069 07be 20000000 		.4byte	.LFE18-.LFB18
 2070 07c2 01       		.uleb128 0x1
 2071 07c3 9C       		.byte	0x9c
 2072 07c4 F6070000 		.4byte	0x7f6
 2073 07c8 2D       		.uleb128 0x2d
 2074 07c9 63747800 		.ascii	"ctx\000"
 2075 07cd 01       		.byte	0x1
 2076 07ce 2B01     		.2byte	0x12b
 2077 07d0 77040000 		.4byte	0x477
 2078 07d4 2B060000 		.4byte	.LLST28
 2079 07d8 2B       		.uleb128 0x2b
 2080 07d9 2B030000 		.4byte	.LASF55
 2081 07dd 01       		.byte	0x1
 2082 07de 2B01     		.2byte	0x12b
 2083 07e0 B9010000 		.4byte	0x1b9
 2084 07e4 7E060000 		.4byte	.LLST29
 2085 07e8 27       		.uleb128 0x27
 2086 07e9 0E000000 		.4byte	.LVL91
 2087 07ed 1A       		.uleb128 0x1a
 2088 07ee 01       		.uleb128 0x1
 2089 07ef 51       		.byte	0x51
 2090 07f0 03       		.uleb128 0x3
 2091 07f1 F3       		.byte	0xf3
 2092 07f2 01       		.uleb128 0x1
 2093 07f3 51       		.byte	0x51
 2094 07f4 00       		.byte	0
 2095 07f5 00       		.byte	0
ARM GAS  C:\Users\jo\AppData\Local\Temp\cc4vLKFs.s 			page 38


 2096 07f6 2E       		.uleb128 0x2e
 2097 07f7 6D000000 		.4byte	.LASF62
 2098 07fb 01       		.byte	0x1
 2099 07fc 3501     		.2byte	0x135
 2100 07fe 25000000 		.4byte	0x25
 2101 0802 00000000 		.4byte	.LFB19
 2102 0806 20000000 		.4byte	.LFE19-.LFB19
 2103 080a 01       		.uleb128 0x1
 2104 080b 9C       		.byte	0x9c
 2105 080c 21080000 		.4byte	0x821
 2106 0810 2D       		.uleb128 0x2d
 2107 0811 63747800 		.ascii	"ctx\000"
 2108 0815 01       		.byte	0x1
 2109 0816 3501     		.2byte	0x135
 2110 0818 77040000 		.4byte	0x477
 2111 081c AA060000 		.4byte	.LLST30
 2112 0820 00       		.byte	0
 2113 0821 2A       		.uleb128 0x2a
 2114 0822 92000000 		.4byte	.LASF63
 2115 0826 01       		.byte	0x1
 2116 0827 3F01     		.2byte	0x13f
 2117 0829 25000000 		.4byte	0x25
 2118 082d 00000000 		.4byte	.LFB20
 2119 0831 28000000 		.4byte	.LFE20-.LFB20
 2120 0835 01       		.uleb128 0x1
 2121 0836 9C       		.byte	0x9c
 2122 0837 C9080000 		.4byte	0x8c9
 2123 083b 2B       		.uleb128 0x2b
 2124 083c 32030000 		.4byte	.LASF32
 2125 0840 01       		.byte	0x1
 2126 0841 3F01     		.2byte	0x13f
 2127 0843 6C020000 		.4byte	0x26c
 2128 0847 FD060000 		.4byte	.LLST31
 2129 084b 2D       		.uleb128 0x2d
 2130 084c 6B657900 		.ascii	"key\000"
 2131 0850 01       		.byte	0x1
 2132 0851 3F01     		.2byte	0x13f
 2133 0853 91010000 		.4byte	0x191
 2134 0857 42070000 		.4byte	.LLST32
 2135 085b 2B       		.uleb128 0x2b
 2136 085c 5D030000 		.4byte	.LASF59
 2137 0860 01       		.byte	0x1
 2138 0861 3F01     		.2byte	0x13f
 2139 0863 2C000000 		.4byte	0x2c
 2140 0867 79070000 		.4byte	.LLST33
 2141 086b 2B       		.uleb128 0x2b
 2142 086c D4030000 		.4byte	.LASF52
 2143 0870 01       		.byte	0x1
 2144 0871 4001     		.2byte	0x140
 2145 0873 91010000 		.4byte	0x191
 2146 0877 B0070000 		.4byte	.LLST34
 2147 087b 2B       		.uleb128 0x2b
 2148 087c 98040000 		.4byte	.LASF53
 2149 0880 01       		.byte	0x1
 2150 0881 4001     		.2byte	0x140
 2151 0883 2C000000 		.4byte	0x2c
 2152 0887 E7070000 		.4byte	.LLST35
ARM GAS  C:\Users\jo\AppData\Local\Temp\cc4vLKFs.s 			page 39


 2153 088b 2B       		.uleb128 0x2b
 2154 088c 2B030000 		.4byte	.LASF55
 2155 0890 01       		.byte	0x1
 2156 0891 4101     		.2byte	0x141
 2157 0893 B9010000 		.4byte	0x1b9
 2158 0897 07080000 		.4byte	.LLST36
 2159 089b 29       		.uleb128 0x29
 2160 089c 18000000 		.4byte	.LVL109
 2161 08a0 02       		.uleb128 0x2
 2162 08a1 74       		.byte	0x74
 2163 08a2 00       		.sleb128 0
 2164 08a3 1A       		.uleb128 0x1a
 2165 08a4 01       		.uleb128 0x1
 2166 08a5 53       		.byte	0x53
 2167 08a6 03       		.uleb128 0x3
 2168 08a7 91       		.byte	0x91
 2169 08a8 00       		.sleb128 0
 2170 08a9 06       		.byte	0x6
 2171 08aa 1A       		.uleb128 0x1a
 2172 08ab 01       		.uleb128 0x1
 2173 08ac 52       		.byte	0x52
 2174 08ad 03       		.uleb128 0x3
 2175 08ae F3       		.byte	0xf3
 2176 08af 01       		.uleb128 0x1
 2177 08b0 53       		.byte	0x53
 2178 08b1 1A       		.uleb128 0x1a
 2179 08b2 01       		.uleb128 0x1
 2180 08b3 51       		.byte	0x51
 2181 08b4 03       		.uleb128 0x3
 2182 08b5 F3       		.byte	0xf3
 2183 08b6 01       		.uleb128 0x1
 2184 08b7 52       		.byte	0x52
 2185 08b8 1A       		.uleb128 0x1a
 2186 08b9 01       		.uleb128 0x1
 2187 08ba 50       		.byte	0x50
 2188 08bb 03       		.uleb128 0x3
 2189 08bc F3       		.byte	0xf3
 2190 08bd 01       		.uleb128 0x1
 2191 08be 51       		.byte	0x51
 2192 08bf 1A       		.uleb128 0x1a
 2193 08c0 02       		.uleb128 0x2
 2194 08c1 7D       		.byte	0x7d
 2195 08c2 00       		.sleb128 0
 2196 08c3 03       		.uleb128 0x3
 2197 08c4 91       		.byte	0x91
 2198 08c5 04       		.sleb128 4
 2199 08c6 06       		.byte	0x6
 2200 08c7 00       		.byte	0
 2201 08c8 00       		.byte	0
 2202 08c9 2A       		.uleb128 0x2a
 2203 08ca 20010000 		.4byte	.LASF64
 2204 08ce 01       		.byte	0x1
 2205 08cf 4B01     		.2byte	0x14b
 2206 08d1 25000000 		.4byte	0x25
 2207 08d5 00000000 		.4byte	.LFB21
 2208 08d9 20000000 		.4byte	.LFE21-.LFB21
 2209 08dd 01       		.uleb128 0x1
ARM GAS  C:\Users\jo\AppData\Local\Temp\cc4vLKFs.s 			page 40


 2210 08de 9C       		.byte	0x9c
 2211 08df 11090000 		.4byte	0x911
 2212 08e3 2D       		.uleb128 0x2d
 2213 08e4 63747800 		.ascii	"ctx\000"
 2214 08e8 01       		.byte	0x1
 2215 08e9 4B01     		.2byte	0x14b
 2216 08eb 77040000 		.4byte	0x477
 2217 08ef 27080000 		.4byte	.LLST37
 2218 08f3 2B       		.uleb128 0x2b
 2219 08f4 ED010000 		.4byte	.LASF65
 2220 08f8 01       		.byte	0x1
 2221 08f9 4B01     		.2byte	0x14b
 2222 08fb 91010000 		.4byte	0x191
 2223 08ff 7A080000 		.4byte	.LLST38
 2224 0903 27       		.uleb128 0x27
 2225 0904 0E000000 		.4byte	.LVL114
 2226 0908 1A       		.uleb128 0x1a
 2227 0909 01       		.uleb128 0x1
 2228 090a 51       		.byte	0x51
 2229 090b 03       		.uleb128 0x3
 2230 090c F3       		.byte	0xf3
 2231 090d 01       		.uleb128 0x1
 2232 090e 51       		.byte	0x51
 2233 090f 00       		.byte	0
 2234 0910 00       		.byte	0
 2235 0911 2F       		.uleb128 0x2f
 2236 0912 25000000 		.4byte	0x25
 2237 0916 21090000 		.4byte	0x921
 2238 091a 30       		.uleb128 0x30
 2239 091b B3020000 		.4byte	0x2b3
 2240 091f 07       		.byte	0x7
 2241 0920 00       		.byte	0
 2242 0921 31       		.uleb128 0x31
 2243 0922 C4010000 		.4byte	.LASF66
 2244 0926 01       		.byte	0x1
 2245 0927 33       		.byte	0x33
 2246 0928 32090000 		.4byte	0x932
 2247 092c 05       		.uleb128 0x5
 2248 092d 03       		.byte	0x3
 2249 092e 00000000 		.4byte	supported_digests
 2250 0932 0A       		.uleb128 0xa
 2251 0933 11090000 		.4byte	0x911
 2252 0937 32       		.uleb128 0x32
 2253 0938 43030000 		.4byte	.LASF67
 2254 093c 04       		.byte	0x4
 2255 093d 30       		.byte	0x30
 2256 093e 72020000 		.4byte	0x272
 2257 0942 32       		.uleb128 0x32
 2258 0943 2C020000 		.4byte	.LASF68
 2259 0947 04       		.byte	0x4
 2260 0948 33       		.byte	0x33
 2261 0949 72020000 		.4byte	0x272
 2262 094d 32       		.uleb128 0x32
 2263 094e CA030000 		.4byte	.LASF69
 2264 0952 04       		.byte	0x4
 2265 0953 36       		.byte	0x36
 2266 0954 72020000 		.4byte	0x272
ARM GAS  C:\Users\jo\AppData\Local\Temp\cc4vLKFs.s 			page 41


 2267 0958 32       		.uleb128 0x32
 2268 0959 3F010000 		.4byte	.LASF70
 2269 095d 04       		.byte	0x4
 2270 095e 39       		.byte	0x39
 2271 095f 72020000 		.4byte	0x272
 2272 0963 32       		.uleb128 0x32
 2273 0964 B8010000 		.4byte	.LASF71
 2274 0968 04       		.byte	0x4
 2275 0969 3A       		.byte	0x3a
 2276 096a 72020000 		.4byte	0x272
 2277 096e 32       		.uleb128 0x32
 2278 096f AC010000 		.4byte	.LASF72
 2279 0973 04       		.byte	0x4
 2280 0974 3D       		.byte	0x3d
 2281 0975 72020000 		.4byte	0x272
 2282 0979 32       		.uleb128 0x32
 2283 097a 70030000 		.4byte	.LASF73
 2284 097e 04       		.byte	0x4
 2285 097f 3E       		.byte	0x3e
 2286 0980 72020000 		.4byte	0x272
 2287 0984 33       		.uleb128 0x33
 2288 0985 2E040000 		.4byte	.LASF80
 2289 0989 05       		.byte	0x5
 2290 098a 49       		.byte	0x49
 2291 098b 25000000 		.4byte	0x25
 2292 098f 0C       		.uleb128 0xc
 2293 0990 57010000 		.4byte	0x157
 2294 0994 0C       		.uleb128 0xc
 2295 0995 57010000 		.4byte	0x157
 2296 0999 00       		.byte	0
 2297 099a 00       		.byte	0
 2298              		.section	.debug_abbrev,"",%progbits
 2299              	.Ldebug_abbrev0:
 2300 0000 01       		.uleb128 0x1
 2301 0001 11       		.uleb128 0x11
 2302 0002 01       		.byte	0x1
 2303 0003 25       		.uleb128 0x25
 2304 0004 0E       		.uleb128 0xe
 2305 0005 13       		.uleb128 0x13
 2306 0006 0B       		.uleb128 0xb
 2307 0007 03       		.uleb128 0x3
 2308 0008 0E       		.uleb128 0xe
 2309 0009 1B       		.uleb128 0x1b
 2310 000a 0E       		.uleb128 0xe
 2311 000b 55       		.uleb128 0x55
 2312 000c 17       		.uleb128 0x17
 2313 000d 11       		.uleb128 0x11
 2314 000e 01       		.uleb128 0x1
 2315 000f 10       		.uleb128 0x10
 2316 0010 17       		.uleb128 0x17
 2317 0011 00       		.byte	0
 2318 0012 00       		.byte	0
 2319 0013 02       		.uleb128 0x2
 2320 0014 24       		.uleb128 0x24
 2321 0015 00       		.byte	0
 2322 0016 0B       		.uleb128 0xb
 2323 0017 0B       		.uleb128 0xb
ARM GAS  C:\Users\jo\AppData\Local\Temp\cc4vLKFs.s 			page 42


 2324 0018 3E       		.uleb128 0x3e
 2325 0019 0B       		.uleb128 0xb
 2326 001a 03       		.uleb128 0x3
 2327 001b 08       		.uleb128 0x8
 2328 001c 00       		.byte	0
 2329 001d 00       		.byte	0
 2330 001e 03       		.uleb128 0x3
 2331 001f 16       		.uleb128 0x16
 2332 0020 00       		.byte	0
 2333 0021 03       		.uleb128 0x3
 2334 0022 0E       		.uleb128 0xe
 2335 0023 3A       		.uleb128 0x3a
 2336 0024 0B       		.uleb128 0xb
 2337 0025 3B       		.uleb128 0x3b
 2338 0026 0B       		.uleb128 0xb
 2339 0027 49       		.uleb128 0x49
 2340 0028 13       		.uleb128 0x13
 2341 0029 00       		.byte	0
 2342 002a 00       		.byte	0
 2343 002b 04       		.uleb128 0x4
 2344 002c 24       		.uleb128 0x24
 2345 002d 00       		.byte	0
 2346 002e 0B       		.uleb128 0xb
 2347 002f 0B       		.uleb128 0xb
 2348 0030 3E       		.uleb128 0x3e
 2349 0031 0B       		.uleb128 0xb
 2350 0032 03       		.uleb128 0x3
 2351 0033 0E       		.uleb128 0xe
 2352 0034 00       		.byte	0
 2353 0035 00       		.byte	0
 2354 0036 05       		.uleb128 0x5
 2355 0037 04       		.uleb128 0x4
 2356 0038 01       		.byte	0x1
 2357 0039 0B       		.uleb128 0xb
 2358 003a 0B       		.uleb128 0xb
 2359 003b 3A       		.uleb128 0x3a
 2360 003c 0B       		.uleb128 0xb
 2361 003d 3B       		.uleb128 0x3b
 2362 003e 0B       		.uleb128 0xb
 2363 003f 01       		.uleb128 0x1
 2364 0040 13       		.uleb128 0x13
 2365 0041 00       		.byte	0
 2366 0042 00       		.byte	0
 2367 0043 06       		.uleb128 0x6
 2368 0044 28       		.uleb128 0x28
 2369 0045 00       		.byte	0
 2370 0046 03       		.uleb128 0x3
 2371 0047 0E       		.uleb128 0xe
 2372 0048 1C       		.uleb128 0x1c
 2373 0049 0D       		.uleb128 0xd
 2374 004a 00       		.byte	0
 2375 004b 00       		.byte	0
 2376 004c 07       		.uleb128 0x7
 2377 004d 13       		.uleb128 0x13
 2378 004e 01       		.byte	0x1
 2379 004f 0B       		.uleb128 0xb
 2380 0050 0B       		.uleb128 0xb
ARM GAS  C:\Users\jo\AppData\Local\Temp\cc4vLKFs.s 			page 43


 2381 0051 3A       		.uleb128 0x3a
 2382 0052 0B       		.uleb128 0xb
 2383 0053 3B       		.uleb128 0x3b
 2384 0054 0B       		.uleb128 0xb
 2385 0055 01       		.uleb128 0x1
 2386 0056 13       		.uleb128 0x13
 2387 0057 00       		.byte	0
 2388 0058 00       		.byte	0
 2389 0059 08       		.uleb128 0x8
 2390 005a 0D       		.uleb128 0xd
 2391 005b 00       		.byte	0
 2392 005c 03       		.uleb128 0x3
 2393 005d 0E       		.uleb128 0xe
 2394 005e 3A       		.uleb128 0x3a
 2395 005f 0B       		.uleb128 0xb
 2396 0060 3B       		.uleb128 0x3b
 2397 0061 0B       		.uleb128 0xb
 2398 0062 49       		.uleb128 0x49
 2399 0063 13       		.uleb128 0x13
 2400 0064 38       		.uleb128 0x38
 2401 0065 0B       		.uleb128 0xb
 2402 0066 00       		.byte	0
 2403 0067 00       		.byte	0
 2404 0068 09       		.uleb128 0x9
 2405 0069 0F       		.uleb128 0xf
 2406 006a 00       		.byte	0
 2407 006b 0B       		.uleb128 0xb
 2408 006c 0B       		.uleb128 0xb
 2409 006d 49       		.uleb128 0x49
 2410 006e 13       		.uleb128 0x13
 2411 006f 00       		.byte	0
 2412 0070 00       		.byte	0
 2413 0071 0A       		.uleb128 0xa
 2414 0072 26       		.uleb128 0x26
 2415 0073 00       		.byte	0
 2416 0074 49       		.uleb128 0x49
 2417 0075 13       		.uleb128 0x13
 2418 0076 00       		.byte	0
 2419 0077 00       		.byte	0
 2420 0078 0B       		.uleb128 0xb
 2421 0079 15       		.uleb128 0x15
 2422 007a 01       		.byte	0x1
 2423 007b 27       		.uleb128 0x27
 2424 007c 19       		.uleb128 0x19
 2425 007d 01       		.uleb128 0x1
 2426 007e 13       		.uleb128 0x13
 2427 007f 00       		.byte	0
 2428 0080 00       		.byte	0
 2429 0081 0C       		.uleb128 0xc
 2430 0082 05       		.uleb128 0x5
 2431 0083 00       		.byte	0
 2432 0084 49       		.uleb128 0x49
 2433 0085 13       		.uleb128 0x13
 2434 0086 00       		.byte	0
 2435 0087 00       		.byte	0
 2436 0088 0D       		.uleb128 0xd
 2437 0089 0F       		.uleb128 0xf
ARM GAS  C:\Users\jo\AppData\Local\Temp\cc4vLKFs.s 			page 44


 2438 008a 00       		.byte	0
 2439 008b 0B       		.uleb128 0xb
 2440 008c 0B       		.uleb128 0xb
 2441 008d 00       		.byte	0
 2442 008e 00       		.byte	0
 2443 008f 0E       		.uleb128 0xe
 2444 0090 15       		.uleb128 0x15
 2445 0091 01       		.byte	0x1
 2446 0092 27       		.uleb128 0x27
 2447 0093 19       		.uleb128 0x19
 2448 0094 49       		.uleb128 0x49
 2449 0095 13       		.uleb128 0x13
 2450 0096 01       		.uleb128 0x1
 2451 0097 13       		.uleb128 0x13
 2452 0098 00       		.byte	0
 2453 0099 00       		.byte	0
 2454 009a 0F       		.uleb128 0xf
 2455 009b 15       		.uleb128 0x15
 2456 009c 00       		.byte	0
 2457 009d 27       		.uleb128 0x27
 2458 009e 19       		.uleb128 0x19
 2459 009f 49       		.uleb128 0x49
 2460 00a0 13       		.uleb128 0x13
 2461 00a1 00       		.byte	0
 2462 00a2 00       		.byte	0
 2463 00a3 10       		.uleb128 0x10
 2464 00a4 2E       		.uleb128 0x2e
 2465 00a5 01       		.byte	0x1
 2466 00a6 3F       		.uleb128 0x3f
 2467 00a7 19       		.uleb128 0x19
 2468 00a8 03       		.uleb128 0x3
 2469 00a9 0E       		.uleb128 0xe
 2470 00aa 3A       		.uleb128 0x3a
 2471 00ab 0B       		.uleb128 0xb
 2472 00ac 3B       		.uleb128 0x3b
 2473 00ad 0B       		.uleb128 0xb
 2474 00ae 27       		.uleb128 0x27
 2475 00af 19       		.uleb128 0x19
 2476 00b0 49       		.uleb128 0x49
 2477 00b1 13       		.uleb128 0x13
 2478 00b2 20       		.uleb128 0x20
 2479 00b3 0B       		.uleb128 0xb
 2480 00b4 01       		.uleb128 0x1
 2481 00b5 13       		.uleb128 0x13
 2482 00b6 00       		.byte	0
 2483 00b7 00       		.byte	0
 2484 00b8 11       		.uleb128 0x11
 2485 00b9 05       		.uleb128 0x5
 2486 00ba 00       		.byte	0
 2487 00bb 03       		.uleb128 0x3
 2488 00bc 0E       		.uleb128 0xe
 2489 00bd 3A       		.uleb128 0x3a
 2490 00be 0B       		.uleb128 0xb
 2491 00bf 3B       		.uleb128 0x3b
 2492 00c0 0B       		.uleb128 0xb
 2493 00c1 49       		.uleb128 0x49
 2494 00c2 13       		.uleb128 0x13
ARM GAS  C:\Users\jo\AppData\Local\Temp\cc4vLKFs.s 			page 45


 2495 00c3 00       		.byte	0
 2496 00c4 00       		.byte	0
 2497 00c5 12       		.uleb128 0x12
 2498 00c6 2E       		.uleb128 0x2e
 2499 00c7 01       		.byte	0x1
 2500 00c8 03       		.uleb128 0x3
 2501 00c9 0E       		.uleb128 0xe
 2502 00ca 3A       		.uleb128 0x3a
 2503 00cb 0B       		.uleb128 0xb
 2504 00cc 3B       		.uleb128 0x3b
 2505 00cd 0B       		.uleb128 0xb
 2506 00ce 27       		.uleb128 0x27
 2507 00cf 19       		.uleb128 0x19
 2508 00d0 20       		.uleb128 0x20
 2509 00d1 0B       		.uleb128 0xb
 2510 00d2 01       		.uleb128 0x1
 2511 00d3 13       		.uleb128 0x13
 2512 00d4 00       		.byte	0
 2513 00d5 00       		.byte	0
 2514 00d6 13       		.uleb128 0x13
 2515 00d7 05       		.uleb128 0x5
 2516 00d8 00       		.byte	0
 2517 00d9 03       		.uleb128 0x3
 2518 00da 08       		.uleb128 0x8
 2519 00db 3A       		.uleb128 0x3a
 2520 00dc 0B       		.uleb128 0xb
 2521 00dd 3B       		.uleb128 0x3b
 2522 00de 0B       		.uleb128 0xb
 2523 00df 49       		.uleb128 0x49
 2524 00e0 13       		.uleb128 0x13
 2525 00e1 00       		.byte	0
 2526 00e2 00       		.byte	0
 2527 00e3 14       		.uleb128 0x14
 2528 00e4 34       		.uleb128 0x34
 2529 00e5 00       		.byte	0
 2530 00e6 03       		.uleb128 0x3
 2531 00e7 08       		.uleb128 0x8
 2532 00e8 3A       		.uleb128 0x3a
 2533 00e9 0B       		.uleb128 0xb
 2534 00ea 3B       		.uleb128 0x3b
 2535 00eb 0B       		.uleb128 0xb
 2536 00ec 49       		.uleb128 0x49
 2537 00ed 13       		.uleb128 0x13
 2538 00ee 00       		.byte	0
 2539 00ef 00       		.byte	0
 2540 00f0 15       		.uleb128 0x15
 2541 00f1 35       		.uleb128 0x35
 2542 00f2 00       		.byte	0
 2543 00f3 49       		.uleb128 0x49
 2544 00f4 13       		.uleb128 0x13
 2545 00f5 00       		.byte	0
 2546 00f6 00       		.byte	0
 2547 00f7 16       		.uleb128 0x16
 2548 00f8 2E       		.uleb128 0x2e
 2549 00f9 00       		.byte	0
 2550 00fa 3F       		.uleb128 0x3f
 2551 00fb 19       		.uleb128 0x19
ARM GAS  C:\Users\jo\AppData\Local\Temp\cc4vLKFs.s 			page 46


 2552 00fc 03       		.uleb128 0x3
 2553 00fd 0E       		.uleb128 0xe
 2554 00fe 3A       		.uleb128 0x3a
 2555 00ff 0B       		.uleb128 0xb
 2556 0100 3B       		.uleb128 0x3b
 2557 0101 0B       		.uleb128 0xb
 2558 0102 27       		.uleb128 0x27
 2559 0103 19       		.uleb128 0x19
 2560 0104 49       		.uleb128 0x49
 2561 0105 13       		.uleb128 0x13
 2562 0106 11       		.uleb128 0x11
 2563 0107 01       		.uleb128 0x1
 2564 0108 12       		.uleb128 0x12
 2565 0109 06       		.uleb128 0x6
 2566 010a 40       		.uleb128 0x40
 2567 010b 18       		.uleb128 0x18
 2568 010c 9742     		.uleb128 0x2117
 2569 010e 19       		.uleb128 0x19
 2570 010f 00       		.byte	0
 2571 0110 00       		.byte	0
 2572 0111 17       		.uleb128 0x17
 2573 0112 2E       		.uleb128 0x2e
 2574 0113 01       		.byte	0x1
 2575 0114 3F       		.uleb128 0x3f
 2576 0115 19       		.uleb128 0x19
 2577 0116 03       		.uleb128 0x3
 2578 0117 0E       		.uleb128 0xe
 2579 0118 3A       		.uleb128 0x3a
 2580 0119 0B       		.uleb128 0xb
 2581 011a 3B       		.uleb128 0x3b
 2582 011b 0B       		.uleb128 0xb
 2583 011c 27       		.uleb128 0x27
 2584 011d 19       		.uleb128 0x19
 2585 011e 49       		.uleb128 0x49
 2586 011f 13       		.uleb128 0x13
 2587 0120 11       		.uleb128 0x11
 2588 0121 01       		.uleb128 0x1
 2589 0122 12       		.uleb128 0x12
 2590 0123 06       		.uleb128 0x6
 2591 0124 40       		.uleb128 0x40
 2592 0125 18       		.uleb128 0x18
 2593 0126 9742     		.uleb128 0x2117
 2594 0128 19       		.uleb128 0x19
 2595 0129 01       		.uleb128 0x1
 2596 012a 13       		.uleb128 0x13
 2597 012b 00       		.byte	0
 2598 012c 00       		.byte	0
 2599 012d 18       		.uleb128 0x18
 2600 012e 05       		.uleb128 0x5
 2601 012f 00       		.byte	0
 2602 0130 03       		.uleb128 0x3
 2603 0131 0E       		.uleb128 0xe
 2604 0132 3A       		.uleb128 0x3a
 2605 0133 0B       		.uleb128 0xb
 2606 0134 3B       		.uleb128 0x3b
 2607 0135 0B       		.uleb128 0xb
 2608 0136 49       		.uleb128 0x49
ARM GAS  C:\Users\jo\AppData\Local\Temp\cc4vLKFs.s 			page 47


 2609 0137 13       		.uleb128 0x13
 2610 0138 02       		.uleb128 0x2
 2611 0139 17       		.uleb128 0x17
 2612 013a 00       		.byte	0
 2613 013b 00       		.byte	0
 2614 013c 19       		.uleb128 0x19
 2615 013d 898201   		.uleb128 0x4109
 2616 0140 01       		.byte	0x1
 2617 0141 11       		.uleb128 0x11
 2618 0142 01       		.uleb128 0x1
 2619 0143 31       		.uleb128 0x31
 2620 0144 13       		.uleb128 0x13
 2621 0145 01       		.uleb128 0x1
 2622 0146 13       		.uleb128 0x13
 2623 0147 00       		.byte	0
 2624 0148 00       		.byte	0
 2625 0149 1A       		.uleb128 0x1a
 2626 014a 8A8201   		.uleb128 0x410a
 2627 014d 00       		.byte	0
 2628 014e 02       		.uleb128 0x2
 2629 014f 18       		.uleb128 0x18
 2630 0150 9142     		.uleb128 0x2111
 2631 0152 18       		.uleb128 0x18
 2632 0153 00       		.byte	0
 2633 0154 00       		.byte	0
 2634 0155 1B       		.uleb128 0x1b
 2635 0156 898201   		.uleb128 0x4109
 2636 0159 01       		.byte	0x1
 2637 015a 11       		.uleb128 0x11
 2638 015b 01       		.uleb128 0x1
 2639 015c 31       		.uleb128 0x31
 2640 015d 13       		.uleb128 0x13
 2641 015e 00       		.byte	0
 2642 015f 00       		.byte	0
 2643 0160 1C       		.uleb128 0x1c
 2644 0161 2E       		.uleb128 0x2e
 2645 0162 01       		.byte	0x1
 2646 0163 31       		.uleb128 0x31
 2647 0164 13       		.uleb128 0x13
 2648 0165 11       		.uleb128 0x11
 2649 0166 01       		.uleb128 0x1
 2650 0167 12       		.uleb128 0x12
 2651 0168 06       		.uleb128 0x6
 2652 0169 40       		.uleb128 0x40
 2653 016a 18       		.uleb128 0x18
 2654 016b 9742     		.uleb128 0x2117
 2655 016d 19       		.uleb128 0x19
 2656 016e 01       		.uleb128 0x1
 2657 016f 13       		.uleb128 0x13
 2658 0170 00       		.byte	0
 2659 0171 00       		.byte	0
 2660 0172 1D       		.uleb128 0x1d
 2661 0173 05       		.uleb128 0x5
 2662 0174 00       		.byte	0
 2663 0175 31       		.uleb128 0x31
 2664 0176 13       		.uleb128 0x13
 2665 0177 02       		.uleb128 0x2
ARM GAS  C:\Users\jo\AppData\Local\Temp\cc4vLKFs.s 			page 48


 2666 0178 17       		.uleb128 0x17
 2667 0179 00       		.byte	0
 2668 017a 00       		.byte	0
 2669 017b 1E       		.uleb128 0x1e
 2670 017c 2E       		.uleb128 0x2e
 2671 017d 01       		.byte	0x1
 2672 017e 3F       		.uleb128 0x3f
 2673 017f 19       		.uleb128 0x19
 2674 0180 03       		.uleb128 0x3
 2675 0181 0E       		.uleb128 0xe
 2676 0182 3A       		.uleb128 0x3a
 2677 0183 0B       		.uleb128 0xb
 2678 0184 3B       		.uleb128 0x3b
 2679 0185 0B       		.uleb128 0xb
 2680 0186 27       		.uleb128 0x27
 2681 0187 19       		.uleb128 0x19
 2682 0188 11       		.uleb128 0x11
 2683 0189 01       		.uleb128 0x1
 2684 018a 12       		.uleb128 0x12
 2685 018b 06       		.uleb128 0x6
 2686 018c 40       		.uleb128 0x40
 2687 018d 18       		.uleb128 0x18
 2688 018e 9742     		.uleb128 0x2117
 2689 0190 19       		.uleb128 0x19
 2690 0191 01       		.uleb128 0x1
 2691 0192 13       		.uleb128 0x13
 2692 0193 00       		.byte	0
 2693 0194 00       		.byte	0
 2694 0195 1F       		.uleb128 0x1f
 2695 0196 05       		.uleb128 0x5
 2696 0197 00       		.byte	0
 2697 0198 03       		.uleb128 0x3
 2698 0199 08       		.uleb128 0x8
 2699 019a 3A       		.uleb128 0x3a
 2700 019b 0B       		.uleb128 0xb
 2701 019c 3B       		.uleb128 0x3b
 2702 019d 0B       		.uleb128 0xb
 2703 019e 49       		.uleb128 0x49
 2704 019f 13       		.uleb128 0x13
 2705 01a0 02       		.uleb128 0x2
 2706 01a1 18       		.uleb128 0x18
 2707 01a2 00       		.byte	0
 2708 01a3 00       		.byte	0
 2709 01a4 20       		.uleb128 0x20
 2710 01a5 2E       		.uleb128 0x2e
 2711 01a6 01       		.byte	0x1
 2712 01a7 3F       		.uleb128 0x3f
 2713 01a8 19       		.uleb128 0x19
 2714 01a9 03       		.uleb128 0x3
 2715 01aa 0E       		.uleb128 0xe
 2716 01ab 3A       		.uleb128 0x3a
 2717 01ac 0B       		.uleb128 0xb
 2718 01ad 3B       		.uleb128 0x3b
 2719 01ae 0B       		.uleb128 0xb
 2720 01af 27       		.uleb128 0x27
 2721 01b0 19       		.uleb128 0x19
 2722 01b1 11       		.uleb128 0x11
ARM GAS  C:\Users\jo\AppData\Local\Temp\cc4vLKFs.s 			page 49


 2723 01b2 01       		.uleb128 0x1
 2724 01b3 12       		.uleb128 0x12
 2725 01b4 06       		.uleb128 0x6
 2726 01b5 40       		.uleb128 0x40
 2727 01b6 18       		.uleb128 0x18
 2728 01b7 9642     		.uleb128 0x2116
 2729 01b9 19       		.uleb128 0x19
 2730 01ba 01       		.uleb128 0x1
 2731 01bb 13       		.uleb128 0x13
 2732 01bc 00       		.byte	0
 2733 01bd 00       		.byte	0
 2734 01be 21       		.uleb128 0x21
 2735 01bf 05       		.uleb128 0x5
 2736 01c0 00       		.byte	0
 2737 01c1 03       		.uleb128 0x3
 2738 01c2 08       		.uleb128 0x8
 2739 01c3 3A       		.uleb128 0x3a
 2740 01c4 0B       		.uleb128 0xb
 2741 01c5 3B       		.uleb128 0x3b
 2742 01c6 0B       		.uleb128 0xb
 2743 01c7 49       		.uleb128 0x49
 2744 01c8 13       		.uleb128 0x13
 2745 01c9 02       		.uleb128 0x2
 2746 01ca 17       		.uleb128 0x17
 2747 01cb 00       		.byte	0
 2748 01cc 00       		.byte	0
 2749 01cd 22       		.uleb128 0x22
 2750 01ce 1D       		.uleb128 0x1d
 2751 01cf 01       		.byte	0x1
 2752 01d0 31       		.uleb128 0x31
 2753 01d1 13       		.uleb128 0x13
 2754 01d2 11       		.uleb128 0x11
 2755 01d3 01       		.uleb128 0x1
 2756 01d4 12       		.uleb128 0x12
 2757 01d5 06       		.uleb128 0x6
 2758 01d6 58       		.uleb128 0x58
 2759 01d7 0B       		.uleb128 0xb
 2760 01d8 59       		.uleb128 0x59
 2761 01d9 0B       		.uleb128 0xb
 2762 01da 00       		.byte	0
 2763 01db 00       		.byte	0
 2764 01dc 23       		.uleb128 0x23
 2765 01dd 05       		.uleb128 0x5
 2766 01de 00       		.byte	0
 2767 01df 31       		.uleb128 0x31
 2768 01e0 13       		.uleb128 0x13
 2769 01e1 00       		.byte	0
 2770 01e2 00       		.byte	0
 2771 01e3 24       		.uleb128 0x24
 2772 01e4 0B       		.uleb128 0xb
 2773 01e5 01       		.byte	0x1
 2774 01e6 11       		.uleb128 0x11
 2775 01e7 01       		.uleb128 0x1
 2776 01e8 12       		.uleb128 0x12
 2777 01e9 06       		.uleb128 0x6
 2778 01ea 00       		.byte	0
 2779 01eb 00       		.byte	0
ARM GAS  C:\Users\jo\AppData\Local\Temp\cc4vLKFs.s 			page 50


 2780 01ec 25       		.uleb128 0x25
 2781 01ed 34       		.uleb128 0x34
 2782 01ee 00       		.byte	0
 2783 01ef 31       		.uleb128 0x31
 2784 01f0 13       		.uleb128 0x13
 2785 01f1 02       		.uleb128 0x2
 2786 01f2 17       		.uleb128 0x17
 2787 01f3 00       		.byte	0
 2788 01f4 00       		.byte	0
 2789 01f5 26       		.uleb128 0x26
 2790 01f6 2E       		.uleb128 0x2e
 2791 01f7 01       		.byte	0x1
 2792 01f8 3F       		.uleb128 0x3f
 2793 01f9 19       		.uleb128 0x19
 2794 01fa 03       		.uleb128 0x3
 2795 01fb 0E       		.uleb128 0xe
 2796 01fc 3A       		.uleb128 0x3a
 2797 01fd 0B       		.uleb128 0xb
 2798 01fe 3B       		.uleb128 0x3b
 2799 01ff 0B       		.uleb128 0xb
 2800 0200 27       		.uleb128 0x27
 2801 0201 19       		.uleb128 0x19
 2802 0202 49       		.uleb128 0x49
 2803 0203 13       		.uleb128 0x13
 2804 0204 11       		.uleb128 0x11
 2805 0205 01       		.uleb128 0x1
 2806 0206 12       		.uleb128 0x12
 2807 0207 06       		.uleb128 0x6
 2808 0208 40       		.uleb128 0x40
 2809 0209 18       		.uleb128 0x18
 2810 020a 9642     		.uleb128 0x2116
 2811 020c 19       		.uleb128 0x19
 2812 020d 01       		.uleb128 0x1
 2813 020e 13       		.uleb128 0x13
 2814 020f 00       		.byte	0
 2815 0210 00       		.byte	0
 2816 0211 27       		.uleb128 0x27
 2817 0212 898201   		.uleb128 0x4109
 2818 0215 01       		.byte	0x1
 2819 0216 11       		.uleb128 0x11
 2820 0217 01       		.uleb128 0x1
 2821 0218 00       		.byte	0
 2822 0219 00       		.byte	0
 2823 021a 28       		.uleb128 0x28
 2824 021b 2E       		.uleb128 0x2e
 2825 021c 01       		.byte	0x1
 2826 021d 3F       		.uleb128 0x3f
 2827 021e 19       		.uleb128 0x19
 2828 021f 03       		.uleb128 0x3
 2829 0220 08       		.uleb128 0x8
 2830 0221 3A       		.uleb128 0x3a
 2831 0222 0B       		.uleb128 0xb
 2832 0223 3B       		.uleb128 0x3b
 2833 0224 0B       		.uleb128 0xb
 2834 0225 27       		.uleb128 0x27
 2835 0226 19       		.uleb128 0x19
 2836 0227 49       		.uleb128 0x49
ARM GAS  C:\Users\jo\AppData\Local\Temp\cc4vLKFs.s 			page 51


 2837 0228 13       		.uleb128 0x13
 2838 0229 11       		.uleb128 0x11
 2839 022a 01       		.uleb128 0x1
 2840 022b 12       		.uleb128 0x12
 2841 022c 06       		.uleb128 0x6
 2842 022d 40       		.uleb128 0x40
 2843 022e 18       		.uleb128 0x18
 2844 022f 9742     		.uleb128 0x2117
 2845 0231 19       		.uleb128 0x19
 2846 0232 01       		.uleb128 0x1
 2847 0233 13       		.uleb128 0x13
 2848 0234 00       		.byte	0
 2849 0235 00       		.byte	0
 2850 0236 29       		.uleb128 0x29
 2851 0237 898201   		.uleb128 0x4109
 2852 023a 01       		.byte	0x1
 2853 023b 11       		.uleb128 0x11
 2854 023c 01       		.uleb128 0x1
 2855 023d 9342     		.uleb128 0x2113
 2856 023f 18       		.uleb128 0x18
 2857 0240 00       		.byte	0
 2858 0241 00       		.byte	0
 2859 0242 2A       		.uleb128 0x2a
 2860 0243 2E       		.uleb128 0x2e
 2861 0244 01       		.byte	0x1
 2862 0245 3F       		.uleb128 0x3f
 2863 0246 19       		.uleb128 0x19
 2864 0247 03       		.uleb128 0x3
 2865 0248 0E       		.uleb128 0xe
 2866 0249 3A       		.uleb128 0x3a
 2867 024a 0B       		.uleb128 0xb
 2868 024b 3B       		.uleb128 0x3b
 2869 024c 05       		.uleb128 0x5
 2870 024d 27       		.uleb128 0x27
 2871 024e 19       		.uleb128 0x19
 2872 024f 49       		.uleb128 0x49
 2873 0250 13       		.uleb128 0x13
 2874 0251 11       		.uleb128 0x11
 2875 0252 01       		.uleb128 0x1
 2876 0253 12       		.uleb128 0x12
 2877 0254 06       		.uleb128 0x6
 2878 0255 40       		.uleb128 0x40
 2879 0256 18       		.uleb128 0x18
 2880 0257 9742     		.uleb128 0x2117
 2881 0259 19       		.uleb128 0x19
 2882 025a 01       		.uleb128 0x1
 2883 025b 13       		.uleb128 0x13
 2884 025c 00       		.byte	0
 2885 025d 00       		.byte	0
 2886 025e 2B       		.uleb128 0x2b
 2887 025f 05       		.uleb128 0x5
 2888 0260 00       		.byte	0
 2889 0261 03       		.uleb128 0x3
 2890 0262 0E       		.uleb128 0xe
 2891 0263 3A       		.uleb128 0x3a
 2892 0264 0B       		.uleb128 0xb
 2893 0265 3B       		.uleb128 0x3b
ARM GAS  C:\Users\jo\AppData\Local\Temp\cc4vLKFs.s 			page 52


 2894 0266 05       		.uleb128 0x5
 2895 0267 49       		.uleb128 0x49
 2896 0268 13       		.uleb128 0x13
 2897 0269 02       		.uleb128 0x2
 2898 026a 17       		.uleb128 0x17
 2899 026b 00       		.byte	0
 2900 026c 00       		.byte	0
 2901 026d 2C       		.uleb128 0x2c
 2902 026e 34       		.uleb128 0x34
 2903 026f 00       		.byte	0
 2904 0270 03       		.uleb128 0x3
 2905 0271 08       		.uleb128 0x8
 2906 0272 3A       		.uleb128 0x3a
 2907 0273 0B       		.uleb128 0xb
 2908 0274 3B       		.uleb128 0x3b
 2909 0275 05       		.uleb128 0x5
 2910 0276 49       		.uleb128 0x49
 2911 0277 13       		.uleb128 0x13
 2912 0278 02       		.uleb128 0x2
 2913 0279 17       		.uleb128 0x17
 2914 027a 00       		.byte	0
 2915 027b 00       		.byte	0
 2916 027c 2D       		.uleb128 0x2d
 2917 027d 05       		.uleb128 0x5
 2918 027e 00       		.byte	0
 2919 027f 03       		.uleb128 0x3
 2920 0280 08       		.uleb128 0x8
 2921 0281 3A       		.uleb128 0x3a
 2922 0282 0B       		.uleb128 0xb
 2923 0283 3B       		.uleb128 0x3b
 2924 0284 05       		.uleb128 0x5
 2925 0285 49       		.uleb128 0x49
 2926 0286 13       		.uleb128 0x13
 2927 0287 02       		.uleb128 0x2
 2928 0288 17       		.uleb128 0x17
 2929 0289 00       		.byte	0
 2930 028a 00       		.byte	0
 2931 028b 2E       		.uleb128 0x2e
 2932 028c 2E       		.uleb128 0x2e
 2933 028d 01       		.byte	0x1
 2934 028e 3F       		.uleb128 0x3f
 2935 028f 19       		.uleb128 0x19
 2936 0290 03       		.uleb128 0x3
 2937 0291 0E       		.uleb128 0xe
 2938 0292 3A       		.uleb128 0x3a
 2939 0293 0B       		.uleb128 0xb
 2940 0294 3B       		.uleb128 0x3b
 2941 0295 05       		.uleb128 0x5
 2942 0296 27       		.uleb128 0x27
 2943 0297 19       		.uleb128 0x19
 2944 0298 49       		.uleb128 0x49
 2945 0299 13       		.uleb128 0x13
 2946 029a 11       		.uleb128 0x11
 2947 029b 01       		.uleb128 0x1
 2948 029c 12       		.uleb128 0x12
 2949 029d 06       		.uleb128 0x6
 2950 029e 40       		.uleb128 0x40
ARM GAS  C:\Users\jo\AppData\Local\Temp\cc4vLKFs.s 			page 53


 2951 029f 18       		.uleb128 0x18
 2952 02a0 9642     		.uleb128 0x2116
 2953 02a2 19       		.uleb128 0x19
 2954 02a3 01       		.uleb128 0x1
 2955 02a4 13       		.uleb128 0x13
 2956 02a5 00       		.byte	0
 2957 02a6 00       		.byte	0
 2958 02a7 2F       		.uleb128 0x2f
 2959 02a8 01       		.uleb128 0x1
 2960 02a9 01       		.byte	0x1
 2961 02aa 49       		.uleb128 0x49
 2962 02ab 13       		.uleb128 0x13
 2963 02ac 01       		.uleb128 0x1
 2964 02ad 13       		.uleb128 0x13
 2965 02ae 00       		.byte	0
 2966 02af 00       		.byte	0
 2967 02b0 30       		.uleb128 0x30
 2968 02b1 21       		.uleb128 0x21
 2969 02b2 00       		.byte	0
 2970 02b3 49       		.uleb128 0x49
 2971 02b4 13       		.uleb128 0x13
 2972 02b5 2F       		.uleb128 0x2f
 2973 02b6 0B       		.uleb128 0xb
 2974 02b7 00       		.byte	0
 2975 02b8 00       		.byte	0
 2976 02b9 31       		.uleb128 0x31
 2977 02ba 34       		.uleb128 0x34
 2978 02bb 00       		.byte	0
 2979 02bc 03       		.uleb128 0x3
 2980 02bd 0E       		.uleb128 0xe
 2981 02be 3A       		.uleb128 0x3a
 2982 02bf 0B       		.uleb128 0xb
 2983 02c0 3B       		.uleb128 0x3b
 2984 02c1 0B       		.uleb128 0xb
 2985 02c2 49       		.uleb128 0x49
 2986 02c3 13       		.uleb128 0x13
 2987 02c4 02       		.uleb128 0x2
 2988 02c5 18       		.uleb128 0x18
 2989 02c6 00       		.byte	0
 2990 02c7 00       		.byte	0
 2991 02c8 32       		.uleb128 0x32
 2992 02c9 34       		.uleb128 0x34
 2993 02ca 00       		.byte	0
 2994 02cb 03       		.uleb128 0x3
 2995 02cc 0E       		.uleb128 0xe
 2996 02cd 3A       		.uleb128 0x3a
 2997 02ce 0B       		.uleb128 0xb
 2998 02cf 3B       		.uleb128 0x3b
 2999 02d0 0B       		.uleb128 0xb
 3000 02d1 49       		.uleb128 0x49
 3001 02d2 13       		.uleb128 0x13
 3002 02d3 3F       		.uleb128 0x3f
 3003 02d4 19       		.uleb128 0x19
 3004 02d5 3C       		.uleb128 0x3c
 3005 02d6 19       		.uleb128 0x19
 3006 02d7 00       		.byte	0
 3007 02d8 00       		.byte	0
ARM GAS  C:\Users\jo\AppData\Local\Temp\cc4vLKFs.s 			page 54


 3008 02d9 33       		.uleb128 0x33
 3009 02da 2E       		.uleb128 0x2e
 3010 02db 01       		.byte	0x1
 3011 02dc 3F       		.uleb128 0x3f
 3012 02dd 19       		.uleb128 0x19
 3013 02de 03       		.uleb128 0x3
 3014 02df 0E       		.uleb128 0xe
 3015 02e0 3A       		.uleb128 0x3a
 3016 02e1 0B       		.uleb128 0xb
 3017 02e2 3B       		.uleb128 0x3b
 3018 02e3 0B       		.uleb128 0xb
 3019 02e4 27       		.uleb128 0x27
 3020 02e5 19       		.uleb128 0x19
 3021 02e6 49       		.uleb128 0x49
 3022 02e7 13       		.uleb128 0x13
 3023 02e8 3C       		.uleb128 0x3c
 3024 02e9 19       		.uleb128 0x19
 3025 02ea 00       		.byte	0
 3026 02eb 00       		.byte	0
 3027 02ec 00       		.byte	0
 3028              		.section	.debug_loc,"",%progbits
 3029              	.Ldebug_loc0:
 3030              	.LLST0:
 3031 0000 00000000 		.4byte	.LVL0
 3032 0004 0C000000 		.4byte	.LVL1
 3033 0008 0100     		.2byte	0x1
 3034 000a 50       		.byte	0x50
 3035 000b 0C000000 		.4byte	.LVL1
 3036 000f 0F000000 		.4byte	.LVL2-1
 3037 0013 0100     		.2byte	0x1
 3038 0015 51       		.byte	0x51
 3039 0016 0F000000 		.4byte	.LVL2-1
 3040 001a 54000000 		.4byte	.LVL9
 3041 001e 0100     		.2byte	0x1
 3042 0020 54       		.byte	0x54
 3043 0021 54000000 		.4byte	.LVL9
 3044 0025 57000000 		.4byte	.LVL10-1
 3045 0029 0100     		.2byte	0x1
 3046 002b 51       		.byte	0x51
 3047 002c 57000000 		.4byte	.LVL10-1
 3048 0030 62000000 		.4byte	.LVL11
 3049 0034 0400     		.2byte	0x4
 3050 0036 F3       		.byte	0xf3
 3051 0037 01       		.uleb128 0x1
 3052 0038 50       		.byte	0x50
 3053 0039 9F       		.byte	0x9f
 3054 003a 62000000 		.4byte	.LVL11
 3055 003e 7A000000 		.4byte	.LVL17
 3056 0042 0100     		.2byte	0x1
 3057 0044 54       		.byte	0x54
 3058 0045 7A000000 		.4byte	.LVL17
 3059 0049 B8000000 		.4byte	.LFE5
 3060 004d 0100     		.2byte	0x1
 3061 004f 50       		.byte	0x50
 3062 0050 00000000 		.4byte	0
 3063 0054 00000000 		.4byte	0
 3064              	.LLST1:
ARM GAS  C:\Users\jo\AppData\Local\Temp\cc4vLKFs.s 			page 55


 3065 0058 00000000 		.4byte	.LVL18
 3066 005c 02000000 		.4byte	.LVL19
 3067 0060 0100     		.2byte	0x1
 3068 0062 50       		.byte	0x50
 3069 0063 02000000 		.4byte	.LVL19
 3070 0067 18000000 		.4byte	.LFE6
 3071 006b 0400     		.2byte	0x4
 3072 006d F3       		.byte	0xf3
 3073 006e 01       		.uleb128 0x1
 3074 006f 50       		.byte	0x50
 3075 0070 9F       		.byte	0x9f
 3076 0071 00000000 		.4byte	0
 3077 0075 00000000 		.4byte	0
 3078              	.LLST2:
 3079 0079 00000000 		.4byte	.LVL21
 3080 007d 08000000 		.4byte	.LVL22
 3081 0081 0100     		.2byte	0x1
 3082 0083 50       		.byte	0x50
 3083 0084 08000000 		.4byte	.LVL22
 3084 0088 16000000 		.4byte	.LVL24
 3085 008c 0100     		.2byte	0x1
 3086 008e 54       		.byte	0x54
 3087 008f 16000000 		.4byte	.LVL24
 3088 0093 1E000000 		.4byte	.LVL27
 3089 0097 0300     		.2byte	0x3
 3090 0099 72       		.byte	0x72
 3091 009a 78       		.sleb128 -8
 3092 009b 9F       		.byte	0x9f
 3093 009c 1E000000 		.4byte	.LVL27
 3094 00a0 20000000 		.4byte	.LFE8
 3095 00a4 0400     		.2byte	0x4
 3096 00a6 F3       		.byte	0xf3
 3097 00a7 01       		.uleb128 0x1
 3098 00a8 50       		.byte	0x50
 3099 00a9 9F       		.byte	0x9f
 3100 00aa 00000000 		.4byte	0
 3101 00ae 00000000 		.4byte	0
 3102              	.LLST3:
 3103 00b2 10000000 		.4byte	.LVL23
 3104 00b6 1E000000 		.4byte	.LVL27
 3105 00ba 0200     		.2byte	0x2
 3106 00bc 37       		.byte	0x37
 3107 00bd 9F       		.byte	0x9f
 3108 00be 00000000 		.4byte	0
 3109 00c2 00000000 		.4byte	0
 3110              	.LLST4:
 3111 00c6 10000000 		.4byte	.LVL23
 3112 00ca 16000000 		.4byte	.LVL24
 3113 00ce 0100     		.2byte	0x1
 3114 00d0 54       		.byte	0x54
 3115 00d1 16000000 		.4byte	.LVL24
 3116 00d5 1A000000 		.4byte	.LVL26
 3117 00d9 0300     		.2byte	0x3
 3118 00db 74       		.byte	0x74
 3119 00dc 01       		.sleb128 1
 3120 00dd 9F       		.byte	0x9f
 3121 00de 1A000000 		.4byte	.LVL26
ARM GAS  C:\Users\jo\AppData\Local\Temp\cc4vLKFs.s 			page 56


 3122 00e2 1E000000 		.4byte	.LVL27
 3123 00e6 0100     		.2byte	0x1
 3124 00e8 54       		.byte	0x54
 3125 00e9 00000000 		.4byte	0
 3126 00ed 00000000 		.4byte	0
 3127              	.LLST5:
 3128 00f1 00000000 		.4byte	.LVL28
 3129 00f5 2F000000 		.4byte	.LVL29-1
 3130 00f9 0100     		.2byte	0x1
 3131 00fb 50       		.byte	0x50
 3132 00fc 2F000000 		.4byte	.LVL29-1
 3133 0100 3E000000 		.4byte	.LVL31
 3134 0104 0100     		.2byte	0x1
 3135 0106 55       		.byte	0x55
 3136 0107 3E000000 		.4byte	.LVL31
 3137 010b 40000000 		.4byte	.LVL32
 3138 010f 0100     		.2byte	0x1
 3139 0111 50       		.byte	0x50
 3140 0112 40000000 		.4byte	.LVL32
 3141 0116 42000000 		.4byte	.LVL33
 3142 011a 0400     		.2byte	0x4
 3143 011c F3       		.byte	0xf3
 3144 011d 01       		.uleb128 0x1
 3145 011e 50       		.byte	0x50
 3146 011f 9F       		.byte	0x9f
 3147 0120 42000000 		.4byte	.LVL33
 3148 0124 46000000 		.4byte	.LVL34
 3149 0128 0100     		.2byte	0x1
 3150 012a 55       		.byte	0x55
 3151 012b 46000000 		.4byte	.LVL34
 3152 012f 50000000 		.4byte	.LFE9
 3153 0133 0400     		.2byte	0x4
 3154 0135 F3       		.byte	0xf3
 3155 0136 01       		.uleb128 0x1
 3156 0137 50       		.byte	0x50
 3157 0138 9F       		.byte	0x9f
 3158 0139 00000000 		.4byte	0
 3159 013d 00000000 		.4byte	0
 3160              	.LLST6:
 3161 0141 00000000 		.4byte	.LVL28
 3162 0145 2F000000 		.4byte	.LVL29-1
 3163 0149 0100     		.2byte	0x1
 3164 014b 51       		.byte	0x51
 3165 014c 2F000000 		.4byte	.LVL29-1
 3166 0150 3E000000 		.4byte	.LVL31
 3167 0154 0100     		.2byte	0x1
 3168 0156 56       		.byte	0x56
 3169 0157 3E000000 		.4byte	.LVL31
 3170 015b 42000000 		.4byte	.LVL33
 3171 015f 0100     		.2byte	0x1
 3172 0161 51       		.byte	0x51
 3173 0162 42000000 		.4byte	.LVL33
 3174 0166 46000000 		.4byte	.LVL34
 3175 016a 0100     		.2byte	0x1
 3176 016c 56       		.byte	0x56
 3177 016d 46000000 		.4byte	.LVL34
 3178 0171 50000000 		.4byte	.LFE9
ARM GAS  C:\Users\jo\AppData\Local\Temp\cc4vLKFs.s 			page 57


 3179 0175 0400     		.2byte	0x4
 3180 0177 F3       		.byte	0xf3
 3181 0178 01       		.uleb128 0x1
 3182 0179 51       		.byte	0x51
 3183 017a 9F       		.byte	0x9f
 3184 017b 00000000 		.4byte	0
 3185 017f 00000000 		.4byte	0
 3186              	.LLST7:
 3187 0183 00000000 		.4byte	.LVL35
 3188 0187 05000000 		.4byte	.LVL36-1
 3189 018b 0100     		.2byte	0x1
 3190 018d 50       		.byte	0x50
 3191 018e 05000000 		.4byte	.LVL36-1
 3192 0192 0A000000 		.4byte	.LFE10
 3193 0196 0400     		.2byte	0x4
 3194 0198 F3       		.byte	0xf3
 3195 0199 01       		.uleb128 0x1
 3196 019a 50       		.byte	0x50
 3197 019b 9F       		.byte	0x9f
 3198 019c 00000000 		.4byte	0
 3199 01a0 00000000 		.4byte	0
 3200              	.LLST8:
 3201 01a4 00000000 		.4byte	.LVL37
 3202 01a8 0C000000 		.4byte	.LVL38
 3203 01ac 0100     		.2byte	0x1
 3204 01ae 50       		.byte	0x50
 3205 01af 0C000000 		.4byte	.LVL38
 3206 01b3 12000000 		.4byte	.LVL40
 3207 01b7 0400     		.2byte	0x4
 3208 01b9 F3       		.byte	0xf3
 3209 01ba 01       		.uleb128 0x1
 3210 01bb 50       		.byte	0x50
 3211 01bc 9F       		.byte	0x9f
 3212 01bd 12000000 		.4byte	.LVL40
 3213 01c1 14000000 		.4byte	.LVL41
 3214 01c5 0100     		.2byte	0x1
 3215 01c7 50       		.byte	0x50
 3216 01c8 14000000 		.4byte	.LVL41
 3217 01cc 16000000 		.4byte	.LVL42
 3218 01d0 0400     		.2byte	0x4
 3219 01d2 F3       		.byte	0xf3
 3220 01d3 01       		.uleb128 0x1
 3221 01d4 50       		.byte	0x50
 3222 01d5 9F       		.byte	0x9f
 3223 01d6 16000000 		.4byte	.LVL42
 3224 01da 18000000 		.4byte	.LVL43
 3225 01de 0100     		.2byte	0x1
 3226 01e0 50       		.byte	0x50
 3227 01e1 18000000 		.4byte	.LVL43
 3228 01e5 20000000 		.4byte	.LFE11
 3229 01e9 0400     		.2byte	0x4
 3230 01eb F3       		.byte	0xf3
 3231 01ec 01       		.uleb128 0x1
 3232 01ed 50       		.byte	0x50
 3233 01ee 9F       		.byte	0x9f
 3234 01ef 00000000 		.4byte	0
 3235 01f3 00000000 		.4byte	0
ARM GAS  C:\Users\jo\AppData\Local\Temp\cc4vLKFs.s 			page 58


 3236              	.LLST9:
 3237 01f7 00000000 		.4byte	.LVL44
 3238 01fb 0C000000 		.4byte	.LVL45
 3239 01ff 0100     		.2byte	0x1
 3240 0201 50       		.byte	0x50
 3241 0202 0C000000 		.4byte	.LVL45
 3242 0206 12000000 		.4byte	.LVL47
 3243 020a 0400     		.2byte	0x4
 3244 020c F3       		.byte	0xf3
 3245 020d 01       		.uleb128 0x1
 3246 020e 50       		.byte	0x50
 3247 020f 9F       		.byte	0x9f
 3248 0210 12000000 		.4byte	.LVL47
 3249 0214 14000000 		.4byte	.LVL48
 3250 0218 0100     		.2byte	0x1
 3251 021a 50       		.byte	0x50
 3252 021b 14000000 		.4byte	.LVL48
 3253 021f 16000000 		.4byte	.LVL49
 3254 0223 0400     		.2byte	0x4
 3255 0225 F3       		.byte	0xf3
 3256 0226 01       		.uleb128 0x1
 3257 0227 50       		.byte	0x50
 3258 0228 9F       		.byte	0x9f
 3259 0229 16000000 		.4byte	.LVL49
 3260 022d 18000000 		.4byte	.LVL50
 3261 0231 0100     		.2byte	0x1
 3262 0233 50       		.byte	0x50
 3263 0234 18000000 		.4byte	.LVL50
 3264 0238 20000000 		.4byte	.LFE12
 3265 023c 0400     		.2byte	0x4
 3266 023e F3       		.byte	0xf3
 3267 023f 01       		.uleb128 0x1
 3268 0240 50       		.byte	0x50
 3269 0241 9F       		.byte	0x9f
 3270 0242 00000000 		.4byte	0
 3271 0246 00000000 		.4byte	0
 3272              	.LLST10:
 3273 024a 00000000 		.4byte	.LVL44
 3274 024e 0D000000 		.4byte	.LVL46-1
 3275 0252 0100     		.2byte	0x1
 3276 0254 51       		.byte	0x51
 3277 0255 0D000000 		.4byte	.LVL46-1
 3278 0259 12000000 		.4byte	.LVL47
 3279 025d 0400     		.2byte	0x4
 3280 025f F3       		.byte	0xf3
 3281 0260 01       		.uleb128 0x1
 3282 0261 51       		.byte	0x51
 3283 0262 9F       		.byte	0x9f
 3284 0263 12000000 		.4byte	.LVL47
 3285 0267 20000000 		.4byte	.LFE12
 3286 026b 0100     		.2byte	0x1
 3287 026d 51       		.byte	0x51
 3288 026e 00000000 		.4byte	0
 3289 0272 00000000 		.4byte	0
 3290              	.LLST11:
 3291 0276 00000000 		.4byte	.LVL44
 3292 027a 0D000000 		.4byte	.LVL46-1
ARM GAS  C:\Users\jo\AppData\Local\Temp\cc4vLKFs.s 			page 59


 3293 027e 0100     		.2byte	0x1
 3294 0280 52       		.byte	0x52
 3295 0281 0D000000 		.4byte	.LVL46-1
 3296 0285 12000000 		.4byte	.LVL47
 3297 0289 0400     		.2byte	0x4
 3298 028b F3       		.byte	0xf3
 3299 028c 01       		.uleb128 0x1
 3300 028d 52       		.byte	0x52
 3301 028e 9F       		.byte	0x9f
 3302 028f 12000000 		.4byte	.LVL47
 3303 0293 20000000 		.4byte	.LFE12
 3304 0297 0100     		.2byte	0x1
 3305 0299 52       		.byte	0x52
 3306 029a 00000000 		.4byte	0
 3307 029e 00000000 		.4byte	0
 3308              	.LLST12:
 3309 02a2 00000000 		.4byte	.LVL51
 3310 02a6 0C000000 		.4byte	.LVL52
 3311 02aa 0100     		.2byte	0x1
 3312 02ac 50       		.byte	0x50
 3313 02ad 0C000000 		.4byte	.LVL52
 3314 02b1 12000000 		.4byte	.LVL54
 3315 02b5 0400     		.2byte	0x4
 3316 02b7 F3       		.byte	0xf3
 3317 02b8 01       		.uleb128 0x1
 3318 02b9 50       		.byte	0x50
 3319 02ba 9F       		.byte	0x9f
 3320 02bb 12000000 		.4byte	.LVL54
 3321 02bf 14000000 		.4byte	.LVL55
 3322 02c3 0100     		.2byte	0x1
 3323 02c5 50       		.byte	0x50
 3324 02c6 14000000 		.4byte	.LVL55
 3325 02ca 16000000 		.4byte	.LVL56
 3326 02ce 0400     		.2byte	0x4
 3327 02d0 F3       		.byte	0xf3
 3328 02d1 01       		.uleb128 0x1
 3329 02d2 50       		.byte	0x50
 3330 02d3 9F       		.byte	0x9f
 3331 02d4 16000000 		.4byte	.LVL56
 3332 02d8 18000000 		.4byte	.LVL57
 3333 02dc 0100     		.2byte	0x1
 3334 02de 50       		.byte	0x50
 3335 02df 18000000 		.4byte	.LVL57
 3336 02e3 20000000 		.4byte	.LFE13
 3337 02e7 0400     		.2byte	0x4
 3338 02e9 F3       		.byte	0xf3
 3339 02ea 01       		.uleb128 0x1
 3340 02eb 50       		.byte	0x50
 3341 02ec 9F       		.byte	0x9f
 3342 02ed 00000000 		.4byte	0
 3343 02f1 00000000 		.4byte	0
 3344              	.LLST13:
 3345 02f5 00000000 		.4byte	.LVL51
 3346 02f9 0D000000 		.4byte	.LVL53-1
 3347 02fd 0100     		.2byte	0x1
 3348 02ff 51       		.byte	0x51
 3349 0300 0D000000 		.4byte	.LVL53-1
ARM GAS  C:\Users\jo\AppData\Local\Temp\cc4vLKFs.s 			page 60


 3350 0304 12000000 		.4byte	.LVL54
 3351 0308 0400     		.2byte	0x4
 3352 030a F3       		.byte	0xf3
 3353 030b 01       		.uleb128 0x1
 3354 030c 51       		.byte	0x51
 3355 030d 9F       		.byte	0x9f
 3356 030e 12000000 		.4byte	.LVL54
 3357 0312 20000000 		.4byte	.LFE13
 3358 0316 0100     		.2byte	0x1
 3359 0318 51       		.byte	0x51
 3360 0319 00000000 		.4byte	0
 3361 031d 00000000 		.4byte	0
 3362              	.LLST14:
 3363 0321 00000000 		.4byte	.LVL58
 3364 0325 08000000 		.4byte	.LVL59
 3365 0329 0100     		.2byte	0x1
 3366 032b 50       		.byte	0x50
 3367 032c 08000000 		.4byte	.LVL59
 3368 0330 0A000000 		.4byte	.LVL60
 3369 0334 0100     		.2byte	0x1
 3370 0336 54       		.byte	0x54
 3371 0337 0A000000 		.4byte	.LVL60
 3372 033b 14000000 		.4byte	.LVL64
 3373 033f 0400     		.2byte	0x4
 3374 0341 F3       		.byte	0xf3
 3375 0342 01       		.uleb128 0x1
 3376 0343 50       		.byte	0x50
 3377 0344 9F       		.byte	0x9f
 3378 0345 14000000 		.4byte	.LVL64
 3379 0349 16000000 		.4byte	.LVL65
 3380 034d 0100     		.2byte	0x1
 3381 034f 50       		.byte	0x50
 3382 0350 16000000 		.4byte	.LVL65
 3383 0354 1C000000 		.4byte	.LFE14
 3384 0358 0400     		.2byte	0x4
 3385 035a F3       		.byte	0xf3
 3386 035b 01       		.uleb128 0x1
 3387 035c 50       		.byte	0x50
 3388 035d 9F       		.byte	0x9f
 3389 035e 00000000 		.4byte	0
 3390 0362 00000000 		.4byte	0
 3391              	.LLST15:
 3392 0366 00000000 		.4byte	.LVL58
 3393 036a 0C000000 		.4byte	.LVL61
 3394 036e 0100     		.2byte	0x1
 3395 0370 51       		.byte	0x51
 3396 0371 0C000000 		.4byte	.LVL61
 3397 0375 0F000000 		.4byte	.LVL63-1
 3398 0379 0100     		.2byte	0x1
 3399 037b 50       		.byte	0x50
 3400 037c 0F000000 		.4byte	.LVL63-1
 3401 0380 14000000 		.4byte	.LVL64
 3402 0384 0400     		.2byte	0x4
 3403 0386 F3       		.byte	0xf3
 3404 0387 01       		.uleb128 0x1
 3405 0388 51       		.byte	0x51
 3406 0389 9F       		.byte	0x9f
ARM GAS  C:\Users\jo\AppData\Local\Temp\cc4vLKFs.s 			page 61


 3407 038a 14000000 		.4byte	.LVL64
 3408 038e 1C000000 		.4byte	.LFE14
 3409 0392 0100     		.2byte	0x1
 3410 0394 51       		.byte	0x51
 3411 0395 00000000 		.4byte	0
 3412 0399 00000000 		.4byte	0
 3413              	.LLST16:
 3414 039d 00000000 		.4byte	.LVL58
 3415 03a1 0E000000 		.4byte	.LVL62
 3416 03a5 0100     		.2byte	0x1
 3417 03a7 52       		.byte	0x52
 3418 03a8 0E000000 		.4byte	.LVL62
 3419 03ac 0F000000 		.4byte	.LVL63-1
 3420 03b0 0100     		.2byte	0x1
 3421 03b2 51       		.byte	0x51
 3422 03b3 0F000000 		.4byte	.LVL63-1
 3423 03b7 14000000 		.4byte	.LVL64
 3424 03bb 0400     		.2byte	0x4
 3425 03bd F3       		.byte	0xf3
 3426 03be 01       		.uleb128 0x1
 3427 03bf 52       		.byte	0x52
 3428 03c0 9F       		.byte	0x9f
 3429 03c1 14000000 		.4byte	.LVL64
 3430 03c5 1C000000 		.4byte	.LFE14
 3431 03c9 0100     		.2byte	0x1
 3432 03cb 52       		.byte	0x52
 3433 03cc 00000000 		.4byte	0
 3434 03d0 00000000 		.4byte	0
 3435              	.LLST17:
 3436 03d4 00000000 		.4byte	.LVL58
 3437 03d8 0F000000 		.4byte	.LVL63-1
 3438 03dc 0100     		.2byte	0x1
 3439 03de 53       		.byte	0x53
 3440 03df 0F000000 		.4byte	.LVL63-1
 3441 03e3 14000000 		.4byte	.LVL64
 3442 03e7 0400     		.2byte	0x4
 3443 03e9 F3       		.byte	0xf3
 3444 03ea 01       		.uleb128 0x1
 3445 03eb 53       		.byte	0x53
 3446 03ec 9F       		.byte	0x9f
 3447 03ed 14000000 		.4byte	.LVL64
 3448 03f1 1C000000 		.4byte	.LFE14
 3449 03f5 0100     		.2byte	0x1
 3450 03f7 53       		.byte	0x53
 3451 03f8 00000000 		.4byte	0
 3452 03fc 00000000 		.4byte	0
 3453              	.LLST18:
 3454 0400 00000000 		.4byte	.LVL66
 3455 0404 08000000 		.4byte	.LVL67
 3456 0408 0100     		.2byte	0x1
 3457 040a 50       		.byte	0x50
 3458 040b 08000000 		.4byte	.LVL67
 3459 040f 0A000000 		.4byte	.LVL68
 3460 0413 0100     		.2byte	0x1
 3461 0415 53       		.byte	0x53
 3462 0416 0A000000 		.4byte	.LVL68
 3463 041a 18000000 		.4byte	.LVL73
ARM GAS  C:\Users\jo\AppData\Local\Temp\cc4vLKFs.s 			page 62


 3464 041e 0400     		.2byte	0x4
 3465 0420 F3       		.byte	0xf3
 3466 0421 01       		.uleb128 0x1
 3467 0422 50       		.byte	0x50
 3468 0423 9F       		.byte	0x9f
 3469 0424 18000000 		.4byte	.LVL73
 3470 0428 1A000000 		.4byte	.LVL74
 3471 042c 0100     		.2byte	0x1
 3472 042e 50       		.byte	0x50
 3473 042f 1A000000 		.4byte	.LVL74
 3474 0433 20000000 		.4byte	.LFE15
 3475 0437 0400     		.2byte	0x4
 3476 0439 F3       		.byte	0xf3
 3477 043a 01       		.uleb128 0x1
 3478 043b 50       		.byte	0x50
 3479 043c 9F       		.byte	0x9f
 3480 043d 00000000 		.4byte	0
 3481 0441 00000000 		.4byte	0
 3482              	.LLST19:
 3483 0445 00000000 		.4byte	.LVL66
 3484 0449 0C000000 		.4byte	.LVL69
 3485 044d 0100     		.2byte	0x1
 3486 044f 51       		.byte	0x51
 3487 0450 0C000000 		.4byte	.LVL69
 3488 0454 0D000000 		.4byte	.LVL70-1
 3489 0458 0100     		.2byte	0x1
 3490 045a 50       		.byte	0x50
 3491 045b 0D000000 		.4byte	.LVL70-1
 3492 045f 18000000 		.4byte	.LVL73
 3493 0463 0400     		.2byte	0x4
 3494 0465 F3       		.byte	0xf3
 3495 0466 01       		.uleb128 0x1
 3496 0467 51       		.byte	0x51
 3497 0468 9F       		.byte	0x9f
 3498 0469 18000000 		.4byte	.LVL73
 3499 046d 20000000 		.4byte	.LFE15
 3500 0471 0100     		.2byte	0x1
 3501 0473 51       		.byte	0x51
 3502 0474 00000000 		.4byte	0
 3503 0478 00000000 		.4byte	0
 3504              	.LLST20:
 3505 047c 00000000 		.4byte	.LVL66
 3506 0480 0D000000 		.4byte	.LVL70-1
 3507 0484 0100     		.2byte	0x1
 3508 0486 52       		.byte	0x52
 3509 0487 0D000000 		.4byte	.LVL70-1
 3510 048b 18000000 		.4byte	.LVL73
 3511 048f 0400     		.2byte	0x4
 3512 0491 F3       		.byte	0xf3
 3513 0492 01       		.uleb128 0x1
 3514 0493 52       		.byte	0x52
 3515 0494 9F       		.byte	0x9f
 3516 0495 18000000 		.4byte	.LVL73
 3517 0499 20000000 		.4byte	.LFE15
 3518 049d 0100     		.2byte	0x1
 3519 049f 52       		.byte	0x52
 3520 04a0 00000000 		.4byte	0
ARM GAS  C:\Users\jo\AppData\Local\Temp\cc4vLKFs.s 			page 63


 3521 04a4 00000000 		.4byte	0
 3522              	.LLST21:
 3523 04a8 0E000000 		.4byte	.LVL70
 3524 04ac 14000000 		.4byte	.LVL71
 3525 04b0 0100     		.2byte	0x1
 3526 04b2 50       		.byte	0x50
 3527 04b3 14000000 		.4byte	.LVL71
 3528 04b7 16000000 		.4byte	.LVL72
 3529 04bb 0500     		.2byte	0x5
 3530 04bd 70       		.byte	0x70
 3531 04be 80A401   		.sleb128 20992
 3532 04c1 9F       		.byte	0x9f
 3533 04c2 16000000 		.4byte	.LVL72
 3534 04c6 18000000 		.4byte	.LVL73
 3535 04ca 0100     		.2byte	0x1
 3536 04cc 50       		.byte	0x50
 3537 04cd 00000000 		.4byte	0
 3538 04d1 00000000 		.4byte	0
 3539              	.LLST22:
 3540 04d5 00000000 		.4byte	.LVL75
 3541 04d9 0C000000 		.4byte	.LVL76
 3542 04dd 0100     		.2byte	0x1
 3543 04df 50       		.byte	0x50
 3544 04e0 0C000000 		.4byte	.LVL76
 3545 04e4 12000000 		.4byte	.LVL78
 3546 04e8 0400     		.2byte	0x4
 3547 04ea F3       		.byte	0xf3
 3548 04eb 01       		.uleb128 0x1
 3549 04ec 50       		.byte	0x50
 3550 04ed 9F       		.byte	0x9f
 3551 04ee 12000000 		.4byte	.LVL78
 3552 04f2 14000000 		.4byte	.LVL79
 3553 04f6 0100     		.2byte	0x1
 3554 04f8 50       		.byte	0x50
 3555 04f9 14000000 		.4byte	.LVL79
 3556 04fd 16000000 		.4byte	.LVL80
 3557 0501 0400     		.2byte	0x4
 3558 0503 F3       		.byte	0xf3
 3559 0504 01       		.uleb128 0x1
 3560 0505 50       		.byte	0x50
 3561 0506 9F       		.byte	0x9f
 3562 0507 16000000 		.4byte	.LVL80
 3563 050b 18000000 		.4byte	.LVL81
 3564 050f 0100     		.2byte	0x1
 3565 0511 50       		.byte	0x50
 3566 0512 18000000 		.4byte	.LVL81
 3567 0516 20000000 		.4byte	.LFE16
 3568 051a 0400     		.2byte	0x4
 3569 051c F3       		.byte	0xf3
 3570 051d 01       		.uleb128 0x1
 3571 051e 50       		.byte	0x50
 3572 051f 9F       		.byte	0x9f
 3573 0520 00000000 		.4byte	0
 3574 0524 00000000 		.4byte	0
 3575              	.LLST23:
 3576 0528 00000000 		.4byte	.LVL75
 3577 052c 0D000000 		.4byte	.LVL77-1
ARM GAS  C:\Users\jo\AppData\Local\Temp\cc4vLKFs.s 			page 64


 3578 0530 0100     		.2byte	0x1
 3579 0532 51       		.byte	0x51
 3580 0533 0D000000 		.4byte	.LVL77-1
 3581 0537 12000000 		.4byte	.LVL78
 3582 053b 0400     		.2byte	0x4
 3583 053d F3       		.byte	0xf3
 3584 053e 01       		.uleb128 0x1
 3585 053f 51       		.byte	0x51
 3586 0540 9F       		.byte	0x9f
 3587 0541 12000000 		.4byte	.LVL78
 3588 0545 20000000 		.4byte	.LFE16
 3589 0549 0100     		.2byte	0x1
 3590 054b 51       		.byte	0x51
 3591 054c 00000000 		.4byte	0
 3592 0550 00000000 		.4byte	0
 3593              	.LLST24:
 3594 0554 00000000 		.4byte	.LVL75
 3595 0558 0D000000 		.4byte	.LVL77-1
 3596 055c 0100     		.2byte	0x1
 3597 055e 52       		.byte	0x52
 3598 055f 0D000000 		.4byte	.LVL77-1
 3599 0563 12000000 		.4byte	.LVL78
 3600 0567 0400     		.2byte	0x4
 3601 0569 F3       		.byte	0xf3
 3602 056a 01       		.uleb128 0x1
 3603 056b 52       		.byte	0x52
 3604 056c 9F       		.byte	0x9f
 3605 056d 12000000 		.4byte	.LVL78
 3606 0571 20000000 		.4byte	.LFE16
 3607 0575 0100     		.2byte	0x1
 3608 0577 52       		.byte	0x52
 3609 0578 00000000 		.4byte	0
 3610 057c 00000000 		.4byte	0
 3611              	.LLST25:
 3612 0580 00000000 		.4byte	.LVL82
 3613 0584 0C000000 		.4byte	.LVL83
 3614 0588 0100     		.2byte	0x1
 3615 058a 50       		.byte	0x50
 3616 058b 0C000000 		.4byte	.LVL83
 3617 058f 12000000 		.4byte	.LVL85
 3618 0593 0400     		.2byte	0x4
 3619 0595 F3       		.byte	0xf3
 3620 0596 01       		.uleb128 0x1
 3621 0597 50       		.byte	0x50
 3622 0598 9F       		.byte	0x9f
 3623 0599 12000000 		.4byte	.LVL85
 3624 059d 14000000 		.4byte	.LVL86
 3625 05a1 0100     		.2byte	0x1
 3626 05a3 50       		.byte	0x50
 3627 05a4 14000000 		.4byte	.LVL86
 3628 05a8 16000000 		.4byte	.LVL87
 3629 05ac 0400     		.2byte	0x4
 3630 05ae F3       		.byte	0xf3
 3631 05af 01       		.uleb128 0x1
 3632 05b0 50       		.byte	0x50
 3633 05b1 9F       		.byte	0x9f
 3634 05b2 16000000 		.4byte	.LVL87
ARM GAS  C:\Users\jo\AppData\Local\Temp\cc4vLKFs.s 			page 65


 3635 05b6 18000000 		.4byte	.LVL88
 3636 05ba 0100     		.2byte	0x1
 3637 05bc 50       		.byte	0x50
 3638 05bd 18000000 		.4byte	.LVL88
 3639 05c1 20000000 		.4byte	.LFE17
 3640 05c5 0400     		.2byte	0x4
 3641 05c7 F3       		.byte	0xf3
 3642 05c8 01       		.uleb128 0x1
 3643 05c9 50       		.byte	0x50
 3644 05ca 9F       		.byte	0x9f
 3645 05cb 00000000 		.4byte	0
 3646 05cf 00000000 		.4byte	0
 3647              	.LLST26:
 3648 05d3 00000000 		.4byte	.LVL82
 3649 05d7 0D000000 		.4byte	.LVL84-1
 3650 05db 0100     		.2byte	0x1
 3651 05dd 51       		.byte	0x51
 3652 05de 0D000000 		.4byte	.LVL84-1
 3653 05e2 12000000 		.4byte	.LVL85
 3654 05e6 0400     		.2byte	0x4
 3655 05e8 F3       		.byte	0xf3
 3656 05e9 01       		.uleb128 0x1
 3657 05ea 51       		.byte	0x51
 3658 05eb 9F       		.byte	0x9f
 3659 05ec 12000000 		.4byte	.LVL85
 3660 05f0 20000000 		.4byte	.LFE17
 3661 05f4 0100     		.2byte	0x1
 3662 05f6 51       		.byte	0x51
 3663 05f7 00000000 		.4byte	0
 3664 05fb 00000000 		.4byte	0
 3665              	.LLST27:
 3666 05ff 00000000 		.4byte	.LVL82
 3667 0603 0D000000 		.4byte	.LVL84-1
 3668 0607 0100     		.2byte	0x1
 3669 0609 52       		.byte	0x52
 3670 060a 0D000000 		.4byte	.LVL84-1
 3671 060e 12000000 		.4byte	.LVL85
 3672 0612 0400     		.2byte	0x4
 3673 0614 F3       		.byte	0xf3
 3674 0615 01       		.uleb128 0x1
 3675 0616 52       		.byte	0x52
 3676 0617 9F       		.byte	0x9f
 3677 0618 12000000 		.4byte	.LVL85
 3678 061c 20000000 		.4byte	.LFE17
 3679 0620 0100     		.2byte	0x1
 3680 0622 52       		.byte	0x52
 3681 0623 00000000 		.4byte	0
 3682 0627 00000000 		.4byte	0
 3683              	.LLST28:
 3684 062b 00000000 		.4byte	.LVL89
 3685 062f 0C000000 		.4byte	.LVL90
 3686 0633 0100     		.2byte	0x1
 3687 0635 50       		.byte	0x50
 3688 0636 0C000000 		.4byte	.LVL90
 3689 063a 12000000 		.4byte	.LVL92
 3690 063e 0400     		.2byte	0x4
 3691 0640 F3       		.byte	0xf3
ARM GAS  C:\Users\jo\AppData\Local\Temp\cc4vLKFs.s 			page 66


 3692 0641 01       		.uleb128 0x1
 3693 0642 50       		.byte	0x50
 3694 0643 9F       		.byte	0x9f
 3695 0644 12000000 		.4byte	.LVL92
 3696 0648 14000000 		.4byte	.LVL93
 3697 064c 0100     		.2byte	0x1
 3698 064e 50       		.byte	0x50
 3699 064f 14000000 		.4byte	.LVL93
 3700 0653 16000000 		.4byte	.LVL94
 3701 0657 0400     		.2byte	0x4
 3702 0659 F3       		.byte	0xf3
 3703 065a 01       		.uleb128 0x1
 3704 065b 50       		.byte	0x50
 3705 065c 9F       		.byte	0x9f
 3706 065d 16000000 		.4byte	.LVL94
 3707 0661 18000000 		.4byte	.LVL95
 3708 0665 0100     		.2byte	0x1
 3709 0667 50       		.byte	0x50
 3710 0668 18000000 		.4byte	.LVL95
 3711 066c 20000000 		.4byte	.LFE18
 3712 0670 0400     		.2byte	0x4
 3713 0672 F3       		.byte	0xf3
 3714 0673 01       		.uleb128 0x1
 3715 0674 50       		.byte	0x50
 3716 0675 9F       		.byte	0x9f
 3717 0676 00000000 		.4byte	0
 3718 067a 00000000 		.4byte	0
 3719              	.LLST29:
 3720 067e 00000000 		.4byte	.LVL89
 3721 0682 0D000000 		.4byte	.LVL91-1
 3722 0686 0100     		.2byte	0x1
 3723 0688 51       		.byte	0x51
 3724 0689 0D000000 		.4byte	.LVL91-1
 3725 068d 12000000 		.4byte	.LVL92
 3726 0691 0400     		.2byte	0x4
 3727 0693 F3       		.byte	0xf3
 3728 0694 01       		.uleb128 0x1
 3729 0695 51       		.byte	0x51
 3730 0696 9F       		.byte	0x9f
 3731 0697 12000000 		.4byte	.LVL92
 3732 069b 20000000 		.4byte	.LFE18
 3733 069f 0100     		.2byte	0x1
 3734 06a1 51       		.byte	0x51
 3735 06a2 00000000 		.4byte	0
 3736 06a6 00000000 		.4byte	0
 3737              	.LLST30:
 3738 06aa 00000000 		.4byte	.LVL96
 3739 06ae 0C000000 		.4byte	.LVL97
 3740 06b2 0100     		.2byte	0x1
 3741 06b4 50       		.byte	0x50
 3742 06b5 0C000000 		.4byte	.LVL97
 3743 06b9 12000000 		.4byte	.LVL99
 3744 06bd 0400     		.2byte	0x4
 3745 06bf F3       		.byte	0xf3
 3746 06c0 01       		.uleb128 0x1
 3747 06c1 50       		.byte	0x50
 3748 06c2 9F       		.byte	0x9f
ARM GAS  C:\Users\jo\AppData\Local\Temp\cc4vLKFs.s 			page 67


 3749 06c3 12000000 		.4byte	.LVL99
 3750 06c7 14000000 		.4byte	.LVL100
 3751 06cb 0100     		.2byte	0x1
 3752 06cd 50       		.byte	0x50
 3753 06ce 14000000 		.4byte	.LVL100
 3754 06d2 16000000 		.4byte	.LVL101
 3755 06d6 0400     		.2byte	0x4
 3756 06d8 F3       		.byte	0xf3
 3757 06d9 01       		.uleb128 0x1
 3758 06da 50       		.byte	0x50
 3759 06db 9F       		.byte	0x9f
 3760 06dc 16000000 		.4byte	.LVL101
 3761 06e0 18000000 		.4byte	.LVL102
 3762 06e4 0100     		.2byte	0x1
 3763 06e6 50       		.byte	0x50
 3764 06e7 18000000 		.4byte	.LVL102
 3765 06eb 20000000 		.4byte	.LFE19
 3766 06ef 0400     		.2byte	0x4
 3767 06f1 F3       		.byte	0xf3
 3768 06f2 01       		.uleb128 0x1
 3769 06f3 50       		.byte	0x50
 3770 06f4 9F       		.byte	0x9f
 3771 06f5 00000000 		.4byte	0
 3772 06f9 00000000 		.4byte	0
 3773              	.LLST31:
 3774 06fd 00000000 		.4byte	.LVL103
 3775 0701 0A000000 		.4byte	.LVL104
 3776 0705 0100     		.2byte	0x1
 3777 0707 50       		.byte	0x50
 3778 0708 0A000000 		.4byte	.LVL104
 3779 070c 10000000 		.4byte	.LVL106
 3780 0710 0100     		.2byte	0x1
 3781 0712 54       		.byte	0x54
 3782 0713 10000000 		.4byte	.LVL106
 3783 0717 1E000000 		.4byte	.LVL110
 3784 071b 0400     		.2byte	0x4
 3785 071d F3       		.byte	0xf3
 3786 071e 01       		.uleb128 0x1
 3787 071f 50       		.byte	0x50
 3788 0720 9F       		.byte	0x9f
 3789 0721 1E000000 		.4byte	.LVL110
 3790 0725 20000000 		.4byte	.LVL111
 3791 0729 0100     		.2byte	0x1
 3792 072b 50       		.byte	0x50
 3793 072c 20000000 		.4byte	.LVL111
 3794 0730 28000000 		.4byte	.LFE20
 3795 0734 0400     		.2byte	0x4
 3796 0736 F3       		.byte	0xf3
 3797 0737 01       		.uleb128 0x1
 3798 0738 50       		.byte	0x50
 3799 0739 9F       		.byte	0x9f
 3800 073a 00000000 		.4byte	0
 3801 073e 00000000 		.4byte	0
 3802              	.LLST32:
 3803 0742 00000000 		.4byte	.LVL103
 3804 0746 0C000000 		.4byte	.LVL105
 3805 074a 0100     		.2byte	0x1
ARM GAS  C:\Users\jo\AppData\Local\Temp\cc4vLKFs.s 			page 68


 3806 074c 51       		.byte	0x51
 3807 074d 0C000000 		.4byte	.LVL105
 3808 0751 17000000 		.4byte	.LVL109-1
 3809 0755 0100     		.2byte	0x1
 3810 0757 50       		.byte	0x50
 3811 0758 17000000 		.4byte	.LVL109-1
 3812 075c 1E000000 		.4byte	.LVL110
 3813 0760 0400     		.2byte	0x4
 3814 0762 F3       		.byte	0xf3
 3815 0763 01       		.uleb128 0x1
 3816 0764 51       		.byte	0x51
 3817 0765 9F       		.byte	0x9f
 3818 0766 1E000000 		.4byte	.LVL110
 3819 076a 28000000 		.4byte	.LFE20
 3820 076e 0100     		.2byte	0x1
 3821 0770 51       		.byte	0x51
 3822 0771 00000000 		.4byte	0
 3823 0775 00000000 		.4byte	0
 3824              	.LLST33:
 3825 0779 00000000 		.4byte	.LVL103
 3826 077d 14000000 		.4byte	.LVL107
 3827 0781 0100     		.2byte	0x1
 3828 0783 52       		.byte	0x52
 3829 0784 14000000 		.4byte	.LVL107
 3830 0788 17000000 		.4byte	.LVL109-1
 3831 078c 0100     		.2byte	0x1
 3832 078e 51       		.byte	0x51
 3833 078f 17000000 		.4byte	.LVL109-1
 3834 0793 1E000000 		.4byte	.LVL110
 3835 0797 0400     		.2byte	0x4
 3836 0799 F3       		.byte	0xf3
 3837 079a 01       		.uleb128 0x1
 3838 079b 52       		.byte	0x52
 3839 079c 9F       		.byte	0x9f
 3840 079d 1E000000 		.4byte	.LVL110
 3841 07a1 28000000 		.4byte	.LFE20
 3842 07a5 0100     		.2byte	0x1
 3843 07a7 52       		.byte	0x52
 3844 07a8 00000000 		.4byte	0
 3845 07ac 00000000 		.4byte	0
 3846              	.LLST34:
 3847 07b0 00000000 		.4byte	.LVL103
 3848 07b4 16000000 		.4byte	.LVL108
 3849 07b8 0100     		.2byte	0x1
 3850 07ba 53       		.byte	0x53
 3851 07bb 16000000 		.4byte	.LVL108
 3852 07bf 17000000 		.4byte	.LVL109-1
 3853 07c3 0100     		.2byte	0x1
 3854 07c5 52       		.byte	0x52
 3855 07c6 17000000 		.4byte	.LVL109-1
 3856 07ca 1E000000 		.4byte	.LVL110
 3857 07ce 0400     		.2byte	0x4
 3858 07d0 F3       		.byte	0xf3
 3859 07d1 01       		.uleb128 0x1
 3860 07d2 53       		.byte	0x53
 3861 07d3 9F       		.byte	0x9f
 3862 07d4 1E000000 		.4byte	.LVL110
ARM GAS  C:\Users\jo\AppData\Local\Temp\cc4vLKFs.s 			page 69


 3863 07d8 28000000 		.4byte	.LFE20
 3864 07dc 0100     		.2byte	0x1
 3865 07de 53       		.byte	0x53
 3866 07df 00000000 		.4byte	0
 3867 07e3 00000000 		.4byte	0
 3868              	.LLST35:
 3869 07e7 00000000 		.4byte	.LVL103
 3870 07eb 1E000000 		.4byte	.LVL110
 3871 07ef 0200     		.2byte	0x2
 3872 07f1 91       		.byte	0x91
 3873 07f2 00       		.sleb128 0
 3874 07f3 1E000000 		.4byte	.LVL110
 3875 07f7 28000000 		.4byte	.LFE20
 3876 07fb 0200     		.2byte	0x2
 3877 07fd 91       		.byte	0x91
 3878 07fe 00       		.sleb128 0
 3879 07ff 00000000 		.4byte	0
 3880 0803 00000000 		.4byte	0
 3881              	.LLST36:
 3882 0807 00000000 		.4byte	.LVL103
 3883 080b 1E000000 		.4byte	.LVL110
 3884 080f 0200     		.2byte	0x2
 3885 0811 91       		.byte	0x91
 3886 0812 04       		.sleb128 4
 3887 0813 1E000000 		.4byte	.LVL110
 3888 0817 28000000 		.4byte	.LFE20
 3889 081b 0200     		.2byte	0x2
 3890 081d 91       		.byte	0x91
 3891 081e 04       		.sleb128 4
 3892 081f 00000000 		.4byte	0
 3893 0823 00000000 		.4byte	0
 3894              	.LLST37:
 3895 0827 00000000 		.4byte	.LVL112
 3896 082b 0C000000 		.4byte	.LVL113
 3897 082f 0100     		.2byte	0x1
 3898 0831 50       		.byte	0x50
 3899 0832 0C000000 		.4byte	.LVL113
 3900 0836 12000000 		.4byte	.LVL115
 3901 083a 0400     		.2byte	0x4
 3902 083c F3       		.byte	0xf3
 3903 083d 01       		.uleb128 0x1
 3904 083e 50       		.byte	0x50
 3905 083f 9F       		.byte	0x9f
 3906 0840 12000000 		.4byte	.LVL115
 3907 0844 14000000 		.4byte	.LVL116
 3908 0848 0100     		.2byte	0x1
 3909 084a 50       		.byte	0x50
 3910 084b 14000000 		.4byte	.LVL116
 3911 084f 16000000 		.4byte	.LVL117
 3912 0853 0400     		.2byte	0x4
 3913 0855 F3       		.byte	0xf3
 3914 0856 01       		.uleb128 0x1
 3915 0857 50       		.byte	0x50
 3916 0858 9F       		.byte	0x9f
 3917 0859 16000000 		.4byte	.LVL117
 3918 085d 18000000 		.4byte	.LVL118
 3919 0861 0100     		.2byte	0x1
ARM GAS  C:\Users\jo\AppData\Local\Temp\cc4vLKFs.s 			page 70


 3920 0863 50       		.byte	0x50
 3921 0864 18000000 		.4byte	.LVL118
 3922 0868 20000000 		.4byte	.LFE21
 3923 086c 0400     		.2byte	0x4
 3924 086e F3       		.byte	0xf3
 3925 086f 01       		.uleb128 0x1
 3926 0870 50       		.byte	0x50
 3927 0871 9F       		.byte	0x9f
 3928 0872 00000000 		.4byte	0
 3929 0876 00000000 		.4byte	0
 3930              	.LLST38:
 3931 087a 00000000 		.4byte	.LVL112
 3932 087e 0D000000 		.4byte	.LVL114-1
 3933 0882 0100     		.2byte	0x1
 3934 0884 51       		.byte	0x51
 3935 0885 0D000000 		.4byte	.LVL114-1
 3936 0889 12000000 		.4byte	.LVL115
 3937 088d 0400     		.2byte	0x4
 3938 088f F3       		.byte	0xf3
 3939 0890 01       		.uleb128 0x1
 3940 0891 51       		.byte	0x51
 3941 0892 9F       		.byte	0x9f
 3942 0893 12000000 		.4byte	.LVL115
 3943 0897 20000000 		.4byte	.LFE21
 3944 089b 0100     		.2byte	0x1
 3945 089d 51       		.byte	0x51
 3946 089e 00000000 		.4byte	0
 3947 08a2 00000000 		.4byte	0
 3948              		.section	.debug_aranges,"",%progbits
 3949 0000 A4000000 		.4byte	0xa4
 3950 0004 0200     		.2byte	0x2
 3951 0006 00000000 		.4byte	.Ldebug_info0
 3952 000a 04       		.byte	0x4
 3953 000b 00       		.byte	0
 3954 000c 0000     		.2byte	0
 3955 000e 0000     		.2byte	0
 3956 0010 00000000 		.4byte	.LFB4
 3957 0014 08000000 		.4byte	.LFE4-.LFB4
 3958 0018 00000000 		.4byte	.LFB5
 3959 001c B8000000 		.4byte	.LFE5-.LFB5
 3960 0020 00000000 		.4byte	.LFB6
 3961 0024 18000000 		.4byte	.LFE6-.LFB6
 3962 0028 00000000 		.4byte	.LFB7
 3963 002c 24000000 		.4byte	.LFE7-.LFB7
 3964 0030 00000000 		.4byte	.LFB8
 3965 0034 20000000 		.4byte	.LFE8-.LFB8
 3966 0038 00000000 		.4byte	.LFB9
 3967 003c 50000000 		.4byte	.LFE9-.LFB9
 3968 0040 00000000 		.4byte	.LFB10
 3969 0044 0A000000 		.4byte	.LFE10-.LFB10
 3970 0048 00000000 		.4byte	.LFB11
 3971 004c 20000000 		.4byte	.LFE11-.LFB11
 3972 0050 00000000 		.4byte	.LFB12
 3973 0054 20000000 		.4byte	.LFE12-.LFB12
 3974 0058 00000000 		.4byte	.LFB13
 3975 005c 20000000 		.4byte	.LFE13-.LFB13
 3976 0060 00000000 		.4byte	.LFB14
ARM GAS  C:\Users\jo\AppData\Local\Temp\cc4vLKFs.s 			page 71


 3977 0064 1C000000 		.4byte	.LFE14-.LFB14
 3978 0068 00000000 		.4byte	.LFB15
 3979 006c 20000000 		.4byte	.LFE15-.LFB15
 3980 0070 00000000 		.4byte	.LFB16
 3981 0074 20000000 		.4byte	.LFE16-.LFB16
 3982 0078 00000000 		.4byte	.LFB17
 3983 007c 20000000 		.4byte	.LFE17-.LFB17
 3984 0080 00000000 		.4byte	.LFB18
 3985 0084 20000000 		.4byte	.LFE18-.LFB18
 3986 0088 00000000 		.4byte	.LFB19
 3987 008c 20000000 		.4byte	.LFE19-.LFB19
 3988 0090 00000000 		.4byte	.LFB20
 3989 0094 28000000 		.4byte	.LFE20-.LFB20
 3990 0098 00000000 		.4byte	.LFB21
 3991 009c 20000000 		.4byte	.LFE21-.LFB21
 3992 00a0 00000000 		.4byte	0
 3993 00a4 00000000 		.4byte	0
 3994              		.section	.debug_ranges,"",%progbits
 3995              	.Ldebug_ranges0:
 3996 0000 00000000 		.4byte	.LFB4
 3997 0004 08000000 		.4byte	.LFE4
 3998 0008 00000000 		.4byte	.LFB5
 3999 000c B8000000 		.4byte	.LFE5
 4000 0010 00000000 		.4byte	.LFB6
 4001 0014 18000000 		.4byte	.LFE6
 4002 0018 00000000 		.4byte	.LFB7
 4003 001c 24000000 		.4byte	.LFE7
 4004 0020 00000000 		.4byte	.LFB8
 4005 0024 20000000 		.4byte	.LFE8
 4006 0028 00000000 		.4byte	.LFB9
 4007 002c 50000000 		.4byte	.LFE9
 4008 0030 00000000 		.4byte	.LFB10
 4009 0034 0A000000 		.4byte	.LFE10
 4010 0038 00000000 		.4byte	.LFB11
 4011 003c 20000000 		.4byte	.LFE11
 4012 0040 00000000 		.4byte	.LFB12
 4013 0044 20000000 		.4byte	.LFE12
 4014 0048 00000000 		.4byte	.LFB13
 4015 004c 20000000 		.4byte	.LFE13
 4016 0050 00000000 		.4byte	.LFB14
 4017 0054 1C000000 		.4byte	.LFE14
 4018 0058 00000000 		.4byte	.LFB15
 4019 005c 20000000 		.4byte	.LFE15
 4020 0060 00000000 		.4byte	.LFB16
 4021 0064 20000000 		.4byte	.LFE16
 4022 0068 00000000 		.4byte	.LFB17
 4023 006c 20000000 		.4byte	.LFE17
 4024 0070 00000000 		.4byte	.LFB18
 4025 0074 20000000 		.4byte	.LFE18
 4026 0078 00000000 		.4byte	.LFB19
 4027 007c 20000000 		.4byte	.LFE19
 4028 0080 00000000 		.4byte	.LFB20
 4029 0084 28000000 		.4byte	.LFE20
 4030 0088 00000000 		.4byte	.LFB21
 4031 008c 20000000 		.4byte	.LFE21
 4032 0090 00000000 		.4byte	0
 4033 0094 00000000 		.4byte	0
ARM GAS  C:\Users\jo\AppData\Local\Temp\cc4vLKFs.s 			page 72


 4034              		.section	.debug_line,"",%progbits
 4035              	.Ldebug_line0:
 4036 0000 54030000 		.section	.debug_str,"MS",%progbits,1
 4036      02004401 
 4036      00000201 
 4036      FB0E0D00 
 4036      01010101 
 4037              	.LASF17:
 4038 0000 75706461 		.ascii	"update_func\000"
 4038      74655F66 
 4038      756E6300 
 4039              	.LASF51:
 4040 000c 6D645F75 		.ascii	"md_update\000"
 4040      70646174 
 4040      6500
 4041              	.LASF21:
 4042 0016 686D6163 		.ascii	"hmac_starts_func\000"
 4042      5F737461 
 4042      7274735F 
 4042      66756E63 
 4042      00
 4043              	.LASF11:
 4044 0027 73697A65 		.ascii	"size_t\000"
 4044      5F7400
 4045              	.LASF16:
 4046 002e 73746172 		.ascii	"starts_func\000"
 4046      74735F66 
 4046      756E6300 
 4047              	.LASF75:
 4048 003a 2E2E2F2E 		.ascii	"../../../ext/mbedtls-1.3.11/library/md.c\000"
 4048      2E2F2E2E 
 4048      2F657874 
 4048      2F6D6265 
 4048      64746C73 
 4049              	.LASF13:
 4050 0063 74797065 		.ascii	"type\000"
 4050      00
 4051              	.LASF57:
 4052 0068 70617468 		.ascii	"path\000"
 4052      00
 4053              	.LASF62:
 4054 006d 6D645F68 		.ascii	"md_hmac_reset\000"
 4054      6D61635F 
 4054      72657365 
 4054      7400
 4055              	.LASF41:
 4056 007b 6C6F6E67 		.ascii	"long long unsigned int\000"
 4056      206C6F6E 
 4056      6720756E 
 4056      7369676E 
 4056      65642069 
 4057              	.LASF63:
 4058 0092 6D645F68 		.ascii	"md_hmac\000"
 4058      6D616300 
 4059              	.LASF76:
 4060 009a 433A5C55 		.ascii	"C:\\Users\\jo\\Documents\\GitHub\\ChibiOS\\demos\\S"
 4060      73657273 
ARM GAS  C:\Users\jo\AppData\Local\Temp\cc4vLKFs.s 			page 73


 4060      5C6A6F5C 
 4060      446F6375 
 4060      6D656E74 
 4061 00c6 544D3332 		.ascii	"TM32\\RT-STM32F407-DISCOVERY-uHttp\000"
 4061      5C52542D 
 4061      53544D33 
 4061      32463430 
 4061      372D4449 
 4062              	.LASF40:
 4063 00e8 6C6F6E67 		.ascii	"long long int\000"
 4063      206C6F6E 
 4063      6720696E 
 4063      7400
 4064              	.LASF35:
 4065 00f6 7369676E 		.ascii	"signed char\000"
 4065      65642063 
 4065      68617200 
 4066              	.LASF34:
 4067 0102 6D645F63 		.ascii	"md_context_t\000"
 4067      6F6E7465 
 4067      78745F74 
 4067      00
 4068              	.LASF38:
 4069 010f 6C6F6E67 		.ascii	"long int\000"
 4069      20696E74 
 4069      00
 4070              	.LASF44:
 4071 0118 6D645F6E 		.ascii	"md_name\000"
 4071      616D6500 
 4072              	.LASF64:
 4073 0120 6D645F70 		.ascii	"md_process\000"
 4073      726F6365 
 4073      737300
 4074              	.LASF56:
 4075 012b 6D645F66 		.ascii	"md_file\000"
 4075      696C6500 
 4076              	.LASF19:
 4077 0133 64696765 		.ascii	"digest_func\000"
 4077      73745F66 
 4077      756E6300 
 4078              	.LASF70:
 4079 013f 73686132 		.ascii	"sha224_info\000"
 4079      32345F69 
 4079      6E666F00 
 4080              	.LASF47:
 4081 014b 6D645F69 		.ascii	"md_info_from_string\000"
 4081      6E666F5F 
 4081      66726F6D 
 4081      5F737472 
 4081      696E6700 
 4082              	.LASF61:
 4083 015f 6D645F68 		.ascii	"md_hmac_finish\000"
 4083      6D61635F 
 4083      66696E69 
 4083      736800
 4084              	.LASF78:
 4085 016e 706F6C61 		.ascii	"polarssl_zeroize\000"
ARM GAS  C:\Users\jo\AppData\Local\Temp\cc4vLKFs.s 			page 74


 4085      7273736C 
 4085      5F7A6572 
 4085      6F697A65 
 4085      00
 4086              	.LASF9:
 4087 017f 504F4C41 		.ascii	"POLARSSL_MD_SHA512\000"
 4087      5253534C 
 4087      5F4D445F 
 4087      53484135 
 4087      313200
 4088              	.LASF0:
 4089 0192 756E7369 		.ascii	"unsigned int\000"
 4089      676E6564 
 4089      20696E74 
 4089      00
 4090              	.LASF28:
 4091 019f 70726F63 		.ascii	"process_func\000"
 4091      6573735F 
 4091      66756E63 
 4091      00
 4092              	.LASF72:
 4093 01ac 73686133 		.ascii	"sha384_info\000"
 4093      38345F69 
 4093      6E666F00 
 4094              	.LASF71:
 4095 01b8 73686132 		.ascii	"sha256_info\000"
 4095      35365F69 
 4095      6E666F00 
 4096              	.LASF66:
 4097 01c4 73757070 		.ascii	"supported_digests\000"
 4097      6F727465 
 4097      645F6469 
 4097      67657374 
 4097      7300
 4098              	.LASF39:
 4099 01d6 6C6F6E67 		.ascii	"long unsigned int\000"
 4099      20756E73 
 4099      69676E65 
 4099      6420696E 
 4099      7400
 4100              	.LASF14:
 4101 01e8 6E616D65 		.ascii	"name\000"
 4101      00
 4102              	.LASF65:
 4103 01ed 64617461 		.ascii	"data\000"
 4103      00
 4104              	.LASF15:
 4105 01f2 73697A65 		.ascii	"size\000"
 4105      00
 4106              	.LASF37:
 4107 01f7 73686F72 		.ascii	"short unsigned int\000"
 4107      7420756E 
 4107      7369676E 
 4107      65642069 
 4107      6E7400
 4108              	.LASF60:
 4109 020a 6D645F68 		.ascii	"md_hmac_update\000"
ARM GAS  C:\Users\jo\AppData\Local\Temp\cc4vLKFs.s 			page 75


 4109      6D61635F 
 4109      75706461 
 4109      746500
 4110              	.LASF7:
 4111 0219 504F4C41 		.ascii	"POLARSSL_MD_SHA256\000"
 4111      5253534C 
 4111      5F4D445F 
 4111      53484132 
 4111      353600
 4112              	.LASF68:
 4113 022c 72697065 		.ascii	"ripemd160_info\000"
 4113      6D643136 
 4113      305F696E 
 4113      666F00
 4114              	.LASF49:
 4115 023b 6D645F66 		.ascii	"md_free_ctx\000"
 4115      7265655F 
 4115      63747800 
 4116              	.LASF50:
 4117 0247 6D645F73 		.ascii	"md_starts\000"
 4117      74617274 
 4117      7300
 4118              	.LASF74:
 4119 0251 474E5520 		.ascii	"GNU C 4.9.3 20141119 (release) [ARM/embedded-4_9-br"
 4119      4320342E 
 4119      392E3320 
 4119      32303134 
 4119      31313139 
 4120 0284 616E6368 		.ascii	"anch revision 218278] -mcpu=cortex-m4 -mno-thumb-in"
 4120      20726576 
 4120      6973696F 
 4120      6E203231 
 4120      38323738 
 4121 02b7 74657277 		.ascii	"terwork -mthumb -ggdb -O2 -fomit-frame-pointer -fal"
 4121      6F726B20 
 4121      2D6D7468 
 4121      756D6220 
 4121      2D676764 
 4122 02ea 69676E2D 		.ascii	"ign-functions=16 -ffunction-sections -fdata-section"
 4122      66756E63 
 4122      74696F6E 
 4122      733D3136 
 4122      202D6666 
 4123 031d 73202D66 		.ascii	"s -fno-common\000"
 4123      6E6F2D63 
 4123      6F6D6D6F 
 4123      6E00
 4124              	.LASF55:
 4125 032b 6F757470 		.ascii	"output\000"
 4125      757400
 4126              	.LASF32:
 4127 0332 6D645F69 		.ascii	"md_info\000"
 4127      6E666F00 
 4128              	.LASF42:
 4129 033a 73697A65 		.ascii	"sizetype\000"
 4129      74797065 
 4129      00
ARM GAS  C:\Users\jo\AppData\Local\Temp\cc4vLKFs.s 			page 76


 4130              	.LASF67:
 4131 0343 6D64355F 		.ascii	"md5_info\000"
 4131      696E666F 
 4131      00
 4132              	.LASF23:
 4133 034c 686D6163 		.ascii	"hmac_finish_func\000"
 4133      5F66696E 
 4133      6973685F 
 4133      66756E63 
 4133      00
 4134              	.LASF59:
 4135 035d 6B65796C 		.ascii	"keylen\000"
 4135      656E00
 4136              	.LASF18:
 4137 0364 66696E69 		.ascii	"finish_func\000"
 4137      73685F66 
 4137      756E6300 
 4138              	.LASF73:
 4139 0370 73686135 		.ascii	"sha512_info\000"
 4139      31325F69 
 4139      6E666F00 
 4140              	.LASF43:
 4141 037c 6D645F74 		.ascii	"md_type\000"
 4141      79706500 
 4142              	.LASF8:
 4143 0384 504F4C41 		.ascii	"POLARSSL_MD_SHA384\000"
 4143      5253534C 
 4143      5F4D445F 
 4143      53484133 
 4143      383400
 4144              	.LASF54:
 4145 0397 6D645F66 		.ascii	"md_finish\000"
 4145      696E6973 
 4145      6800
 4146              	.LASF30:
 4147 03a1 756E7369 		.ascii	"unsigned char\000"
 4147      676E6564 
 4147      20636861 
 4147      7200
 4148              	.LASF33:
 4149 03af 6D645F63 		.ascii	"md_ctx\000"
 4149      747800
 4150              	.LASF36:
 4151 03b6 73686F72 		.ascii	"short int\000"
 4151      7420696E 
 4151      7400
 4152              	.LASF20:
 4153 03c0 66696C65 		.ascii	"file_func\000"
 4153      5F66756E 
 4153      6300
 4154              	.LASF69:
 4155 03ca 73686131 		.ascii	"sha1_info\000"
 4155      5F696E66 
 4155      6F00
 4156              	.LASF52:
 4157 03d4 696E7075 		.ascii	"input\000"
 4157      7400
ARM GAS  C:\Users\jo\AppData\Local\Temp\cc4vLKFs.s 			page 77


 4158              	.LASF2:
 4159 03da 504F4C41 		.ascii	"POLARSSL_MD_MD2\000"
 4159      5253534C 
 4159      5F4D445F 
 4159      4D443200 
 4160              	.LASF3:
 4161 03ea 504F4C41 		.ascii	"POLARSSL_MD_MD4\000"
 4161      5253534C 
 4161      5F4D445F 
 4161      4D443400 
 4162              	.LASF4:
 4163 03fa 504F4C41 		.ascii	"POLARSSL_MD_MD5\000"
 4163      5253534C 
 4163      5F4D445F 
 4163      4D443500 
 4164              	.LASF27:
 4165 040a 6374785F 		.ascii	"ctx_free_func\000"
 4165      66726565 
 4165      5F66756E 
 4165      6300
 4166              	.LASF5:
 4167 0418 504F4C41 		.ascii	"POLARSSL_MD_SHA1\000"
 4167      5253534C 
 4167      5F4D445F 
 4167      53484131 
 4167      00
 4168              	.LASF29:
 4169 0429 63686172 		.ascii	"char\000"
 4169      00
 4170              	.LASF80:
 4171 042e 73747263 		.ascii	"strcasecmp\000"
 4171      61736563 
 4171      6D7000
 4172              	.LASF12:
 4173 0439 6D645F74 		.ascii	"md_type_t\000"
 4173      7970655F 
 4173      7400
 4174              	.LASF1:
 4175 0443 504F4C41 		.ascii	"POLARSSL_MD_NONE\000"
 4175      5253534C 
 4175      5F4D445F 
 4175      4E4F4E45 
 4175      00
 4176              	.LASF79:
 4177 0454 6D645F6C 		.ascii	"md_list\000"
 4177      69737400 
 4178              	.LASF77:
 4179 045c 6D645F69 		.ascii	"md_info_from_type\000"
 4179      6E666F5F 
 4179      66726F6D 
 4179      5F747970 
 4179      6500
 4180              	.LASF10:
 4181 046e 504F4C41 		.ascii	"POLARSSL_MD_RIPEMD160\000"
 4181      5253534C 
 4181      5F4D445F 
 4181      52495045 
ARM GAS  C:\Users\jo\AppData\Local\Temp\cc4vLKFs.s 			page 78


 4181      4D443136 
 4182              	.LASF25:
 4183 0484 686D6163 		.ascii	"hmac_func\000"
 4183      5F66756E 
 4183      6300
 4184              	.LASF31:
 4185 048e 6D645F69 		.ascii	"md_info_t\000"
 4185      6E666F5F 
 4185      7400
 4186              	.LASF53:
 4187 0498 696C656E 		.ascii	"ilen\000"
 4187      00
 4188              	.LASF45:
 4189 049d 6D645F69 		.ascii	"md_init\000"
 4189      6E697400 
 4190              	.LASF24:
 4191 04a5 686D6163 		.ascii	"hmac_reset_func\000"
 4191      5F726573 
 4191      65745F66 
 4191      756E6300 
 4192              	.LASF58:
 4193 04b5 6D645F68 		.ascii	"md_hmac_starts\000"
 4193      6D61635F 
 4193      73746172 
 4193      747300
 4194              	.LASF46:
 4195 04c4 6D645F66 		.ascii	"md_free\000"
 4195      72656500 
 4196              	.LASF48:
 4197 04cc 6D645F69 		.ascii	"md_init_ctx\000"
 4197      6E69745F 
 4197      63747800 
 4198              	.LASF22:
 4199 04d8 686D6163 		.ascii	"hmac_update_func\000"
 4199      5F757064 
 4199      6174655F 
 4199      66756E63 
 4199      00
 4200              	.LASF26:
 4201 04e9 6374785F 		.ascii	"ctx_alloc_func\000"
 4201      616C6C6F 
 4201      635F6675 
 4201      6E6300
 4202              	.LASF6:
 4203 04f8 504F4C41 		.ascii	"POLARSSL_MD_SHA224\000"
 4203      5253534C 
 4203      5F4D445F 
 4203      53484132 
 4203      323400
 4204              		.ident	"GCC: (GNU Tools for ARM Embedded Processors) 4.9.3 20141119 (release) [ARM/embedded-4_9-br
ARM GAS  C:\Users\jo\AppData\Local\Temp\cc4vLKFs.s 			page 79


DEFINED SYMBOLS
                            *ABS*:00000000 md.c
C:\Users\jo\AppData\Local\Temp\cc4vLKFs.s:19     .text.md_list:00000000 $t
C:\Users\jo\AppData\Local\Temp\cc4vLKFs.s:25     .text.md_list:00000000 md_list
C:\Users\jo\AppData\Local\Temp\cc4vLKFs.s:39     .text.md_list:00000004 $d
C:\Users\jo\AppData\Local\Temp\cc4vLKFs.s:44     .text.md_info_from_string:00000000 $t
C:\Users\jo\AppData\Local\Temp\cc4vLKFs.s:50     .text.md_info_from_string:00000000 md_info_from_string
C:\Users\jo\AppData\Local\Temp\cc4vLKFs.s:165    .text.md_info_from_string:0000007c $d
C:\Users\jo\AppData\Local\Temp\cc4vLKFs.s:184    .text.md_info_from_type:00000000 $t
C:\Users\jo\AppData\Local\Temp\cc4vLKFs.s:190    .text.md_info_from_type:00000000 md_info_from_type
C:\Users\jo\AppData\Local\Temp\cc4vLKFs.s:212    .text.md_info_from_type:00000014 $d
C:\Users\jo\AppData\Local\Temp\cc4vLKFs.s:217    .text.md_init:00000000 $t
C:\Users\jo\AppData\Local\Temp\cc4vLKFs.s:223    .text.md_init:00000000 md_init
C:\Users\jo\AppData\Local\Temp\cc4vLKFs.s:248    .text.md_free:00000000 $t
C:\Users\jo\AppData\Local\Temp\cc4vLKFs.s:254    .text.md_free:00000000 md_free
C:\Users\jo\AppData\Local\Temp\cc4vLKFs.s:300    .text.md_init_ctx:00000000 $t
C:\Users\jo\AppData\Local\Temp\cc4vLKFs.s:306    .text.md_init_ctx:00000000 md_init_ctx
C:\Users\jo\AppData\Local\Temp\cc4vLKFs.s:380    .text.md_init_ctx:00000048 $d
C:\Users\jo\AppData\Local\Temp\cc4vLKFs.s:386    .text.md_free_ctx:00000000 $t
C:\Users\jo\AppData\Local\Temp\cc4vLKFs.s:392    .text.md_free_ctx:00000000 md_free_ctx
C:\Users\jo\AppData\Local\Temp\cc4vLKFs.s:413    .text.md_starts:00000000 $t
C:\Users\jo\AppData\Local\Temp\cc4vLKFs.s:419    .text.md_starts:00000000 md_starts
C:\Users\jo\AppData\Local\Temp\cc4vLKFs.s:465    .text.md_starts:0000001c $d
C:\Users\jo\AppData\Local\Temp\cc4vLKFs.s:470    .text.md_update:00000000 $t
C:\Users\jo\AppData\Local\Temp\cc4vLKFs.s:476    .text.md_update:00000000 md_update
C:\Users\jo\AppData\Local\Temp\cc4vLKFs.s:522    .text.md_update:0000001c $d
C:\Users\jo\AppData\Local\Temp\cc4vLKFs.s:527    .text.md_finish:00000000 $t
C:\Users\jo\AppData\Local\Temp\cc4vLKFs.s:533    .text.md_finish:00000000 md_finish
C:\Users\jo\AppData\Local\Temp\cc4vLKFs.s:579    .text.md_finish:0000001c $d
C:\Users\jo\AppData\Local\Temp\cc4vLKFs.s:584    .text.md:00000000 $t
C:\Users\jo\AppData\Local\Temp\cc4vLKFs.s:590    .text.md:00000000 md
C:\Users\jo\AppData\Local\Temp\cc4vLKFs.s:631    .text.md:00000018 $d
C:\Users\jo\AppData\Local\Temp\cc4vLKFs.s:636    .text.md_file:00000000 $t
C:\Users\jo\AppData\Local\Temp\cc4vLKFs.s:642    .text.md_file:00000000 md_file
C:\Users\jo\AppData\Local\Temp\cc4vLKFs.s:688    .text.md_file:0000001c $d
C:\Users\jo\AppData\Local\Temp\cc4vLKFs.s:693    .text.md_hmac_starts:00000000 $t
C:\Users\jo\AppData\Local\Temp\cc4vLKFs.s:699    .text.md_hmac_starts:00000000 md_hmac_starts
C:\Users\jo\AppData\Local\Temp\cc4vLKFs.s:745    .text.md_hmac_starts:0000001c $d
C:\Users\jo\AppData\Local\Temp\cc4vLKFs.s:750    .text.md_hmac_update:00000000 $t
C:\Users\jo\AppData\Local\Temp\cc4vLKFs.s:756    .text.md_hmac_update:00000000 md_hmac_update
C:\Users\jo\AppData\Local\Temp\cc4vLKFs.s:802    .text.md_hmac_update:0000001c $d
C:\Users\jo\AppData\Local\Temp\cc4vLKFs.s:807    .text.md_hmac_finish:00000000 $t
C:\Users\jo\AppData\Local\Temp\cc4vLKFs.s:813    .text.md_hmac_finish:00000000 md_hmac_finish
C:\Users\jo\AppData\Local\Temp\cc4vLKFs.s:859    .text.md_hmac_finish:0000001c $d
C:\Users\jo\AppData\Local\Temp\cc4vLKFs.s:864    .text.md_hmac_reset:00000000 $t
C:\Users\jo\AppData\Local\Temp\cc4vLKFs.s:870    .text.md_hmac_reset:00000000 md_hmac_reset
C:\Users\jo\AppData\Local\Temp\cc4vLKFs.s:916    .text.md_hmac_reset:0000001c $d
C:\Users\jo\AppData\Local\Temp\cc4vLKFs.s:921    .text.md_hmac:00000000 $t
C:\Users\jo\AppData\Local\Temp\cc4vLKFs.s:927    .text.md_hmac:00000000 md_hmac
C:\Users\jo\AppData\Local\Temp\cc4vLKFs.s:978    .text.md_hmac:00000024 $d
C:\Users\jo\AppData\Local\Temp\cc4vLKFs.s:983    .text.md_process:00000000 $t
C:\Users\jo\AppData\Local\Temp\cc4vLKFs.s:989    .text.md_process:00000000 md_process
C:\Users\jo\AppData\Local\Temp\cc4vLKFs.s:1035   .text.md_process:0000001c $d
C:\Users\jo\AppData\Local\Temp\cc4vLKFs.s:1040   .rodata.CSWTCH.5:00000000 $d
C:\Users\jo\AppData\Local\Temp\cc4vLKFs.s:1044   .rodata.CSWTCH.5:00000000 CSWTCH.5
C:\Users\jo\AppData\Local\Temp\cc4vLKFs.s:1053   .rodata.supported_digests:00000000 $d
C:\Users\jo\AppData\Local\Temp\cc4vLKFs.s:1057   .rodata.supported_digests:00000000 supported_digests
ARM GAS  C:\Users\jo\AppData\Local\Temp\cc4vLKFs.s 			page 80


C:\Users\jo\AppData\Local\Temp\cc4vLKFs.s:1067   .rodata.str1.4:00000000 $d
                     .debug_frame:00000010 $d
C:\Users\jo\AppData\Local\Temp\cc4vLKFs.s:43     .text.md_list:00000008 $t
C:\Users\jo\AppData\Local\Temp\cc4vLKFs.s:183    .text.md_info_from_string:000000b8 $t
C:\Users\jo\AppData\Local\Temp\cc4vLKFs.s:216    .text.md_info_from_type:00000018 $t
C:\Users\jo\AppData\Local\Temp\cc4vLKFs.s:635    .text.md:0000001c $t
C:\Users\jo\AppData\Local\Temp\cc4vLKFs.s:982    .text.md_hmac:00000028 $t

UNDEFINED SYMBOLS
strcasecmp
sha512_info
ripemd160_info
sha1_info
md5_info
sha224_info
sha384_info
sha256_info
