ARM GAS  C:\Users\jo\AppData\Local\Temp\ccBWvOPb.s 			page 1


   1              		.syntax unified
   2              		.cpu cortex-m4
   3              		.fpu softvfp
   4              		.eabi_attribute 20, 1
   5              		.eabi_attribute 21, 1
   6              		.eabi_attribute 23, 3
   7              		.eabi_attribute 24, 1
   8              		.eabi_attribute 25, 1
   9              		.eabi_attribute 26, 1
  10              		.eabi_attribute 30, 2
  11              		.eabi_attribute 34, 1
  12              		.eabi_attribute 18, 4
  13              		.thumb
  14              		.file	"md5.c"
  15              		.text
  16              	.Ltext0:
  17              		.cfi_sections	.debug_frame
  18              		.section	.text.md5_init,"ax",%progbits
  19              		.align	2
  20              		.p2align 4,,15
  21              		.global	md5_init
  22              		.thumb
  23              		.thumb_func
  24              		.type	md5_init, %function
  25              	md5_init:
  26              	.LFB1:
  27              		.file 1 "../../../ext/mbedtls-1.3.11/library/md5.c"
  28              		.loc 1 84 0
  29              		.cfi_startproc
  30              		@ args = 0, pretend = 0, frame = 0
  31              		@ frame_needed = 0, uses_anonymous_args = 0
  32              		@ link register save eliminated.
  33              	.LVL0:
  34              		.loc 1 85 0
  35 0000 0021     		movs	r1, #0
  36 0002 D822     		movs	r2, #216
  37 0004 FFF7FEBF 		b	memset
  38              	.LVL1:
  39              		.cfi_endproc
  40              	.LFE1:
  41              		.size	md5_init, .-md5_init
  42 0008 AFF30080 		.section	.text.md5_free,"ax",%progbits
  42      AFF30080 
  43              		.align	2
  44              		.p2align 4,,15
  45              		.global	md5_free
  46              		.thumb
  47              		.thumb_func
  48              		.type	md5_free, %function
  49              	md5_free:
  50              	.LFB2:
  51              		.loc 1 89 0
  52              		.cfi_startproc
  53              		@ args = 0, pretend = 0, frame = 0
  54              		@ frame_needed = 0, uses_anonymous_args = 0
  55              		@ link register save eliminated.
  56              	.LVL2:
ARM GAS  C:\Users\jo\AppData\Local\Temp\ccBWvOPb.s 			page 2


  57              		.loc 1 90 0
  58 0000 30B1     		cbz	r0, .L2
  59 0002 00F1D802 		add	r2, r0, #216
  60              	.LBB62:
  61              	.LBB63:
  62              		.loc 1 55 0
  63 0006 0023     		movs	r3, #0
  64              	.LVL3:
  65              	.L4:
  66 0008 0370     		strb	r3, [r0]
  67              	.LVL4:
  68 000a 0130     		adds	r0, r0, #1
  69              	.LVL5:
  70 000c 9042     		cmp	r0, r2
  71 000e FBD1     		bne	.L4
  72              	.LVL6:
  73              	.L2:
  74 0010 7047     		bx	lr
  75              	.LBE63:
  76              	.LBE62:
  77              		.cfi_endproc
  78              	.LFE2:
  79              		.size	md5_free, .-md5_free
  80 0012 00BFAFF3 		.section	.text.md5_starts,"ax",%progbits
  80      0080AFF3 
  80      0080AFF3 
  80      0080
  81              		.align	2
  82              		.p2align 4,,15
  83              		.global	md5_starts
  84              		.thumb
  85              		.thumb_func
  86              		.type	md5_starts, %function
  87              	md5_starts:
  88              	.LFB3:
  89              		.loc 1 100 0
  90              		.cfi_startproc
  91              		@ args = 0, pretend = 0, frame = 0
  92              		@ frame_needed = 0, uses_anonymous_args = 0
  93              		@ link register save eliminated.
  94              	.LVL7:
  95              		.loc 1 104 0
  96 0000 074B     		ldr	r3, .L10
  97              		.loc 1 106 0
  98 0002 0849     		ldr	r1, .L10+4
  99              		.loc 1 107 0
 100 0004 084A     		ldr	r2, .L10+8
 101              		.loc 1 104 0
 102 0006 8360     		str	r3, [r0, #8]
 103              		.loc 1 100 0
 104 0008 10B4     		push	{r4}
 105              		.cfi_def_cfa_offset 4
 106              		.cfi_offset 4, -4
 107              		.loc 1 101 0
 108 000a 0023     		movs	r3, #0
 109              		.loc 1 105 0
 110 000c 074C     		ldr	r4, .L10+12
ARM GAS  C:\Users\jo\AppData\Local\Temp\ccBWvOPb.s 			page 3


 111 000e C460     		str	r4, [r0, #12]
 112              		.loc 1 106 0
 113 0010 0161     		str	r1, [r0, #16]
 114              		.loc 1 107 0
 115 0012 4261     		str	r2, [r0, #20]
 116              		.loc 1 101 0
 117 0014 0360     		str	r3, [r0]
 118              		.loc 1 102 0
 119 0016 4360     		str	r3, [r0, #4]
 120              		.loc 1 108 0
 121 0018 5DF8044B 		ldr	r4, [sp], #4
 122              		.cfi_restore 4
 123              		.cfi_def_cfa_offset 0
 124 001c 7047     		bx	lr
 125              	.L11:
 126 001e 00BF     		.align	2
 127              	.L10:
 128 0020 01234567 		.word	1732584193
 129 0024 FEDCBA98 		.word	-1732584194
 130 0028 76543210 		.word	271733878
 131 002c 89ABCDEF 		.word	-271733879
 132              		.cfi_endproc
 133              	.LFE3:
 134              		.size	md5_starts, .-md5_starts
 135              		.section	.text.md5_process,"ax",%progbits
 136              		.align	2
 137              		.p2align 4,,15
 138              		.global	md5_process
 139              		.thumb
 140              		.thumb_func
 141              		.type	md5_process, %function
 142              	md5_process:
 143              	.LFB4:
 144              		.loc 1 111 0
 145              		.cfi_startproc
 146              		@ args = 0, pretend = 0, frame = 184
 147              		@ frame_needed = 0, uses_anonymous_args = 0
 148              	.LVL8:
 149 0000 2DE9F04F 		push	{r4, r5, r6, r7, r8, r9, r10, fp, lr}
 150              		.cfi_def_cfa_offset 36
 151              		.cfi_offset 4, -36
 152              		.cfi_offset 5, -32
 153              		.cfi_offset 6, -28
 154              		.cfi_offset 7, -24
 155              		.cfi_offset 8, -20
 156              		.cfi_offset 9, -16
 157              		.cfi_offset 10, -12
 158              		.cfi_offset 11, -8
 159              		.cfi_offset 14, -4
 160 0004 AFB0     		sub	sp, sp, #188
 161              		.cfi_def_cfa_offset 224
 162              		.loc 1 116 0
 163 0006 8A7A     		ldrb	r2, [r1, #10]	@ zero_extendqisi2
 164 0008 0292     		str	r2, [sp, #8]
 165              		.loc 1 117 0
 166 000a 4A7B     		ldrb	r2, [r1, #13]	@ zero_extendqisi2
 167 000c 0392     		str	r2, [sp, #12]
ARM GAS  C:\Users\jo\AppData\Local\Temp\ccBWvOPb.s 			page 4


 168 000e 8A7B     		ldrb	r2, [r1, #14]	@ zero_extendqisi2
 169 0010 0492     		str	r2, [sp, #16]
 170 0012 0A7B     		ldrb	r2, [r1, #12]	@ zero_extendqisi2
 171 0014 0592     		str	r2, [sp, #20]
 172 0016 CA7B     		ldrb	r2, [r1, #15]	@ zero_extendqisi2
 173 0018 0692     		str	r2, [sp, #24]
 174              		.loc 1 118 0
 175 001a 4A7C     		ldrb	r2, [r1, #17]	@ zero_extendqisi2
 176 001c 0792     		str	r2, [sp, #28]
 177 001e 8A7C     		ldrb	r2, [r1, #18]	@ zero_extendqisi2
 178 0020 0892     		str	r2, [sp, #32]
 179 0022 0A7C     		ldrb	r2, [r1, #16]	@ zero_extendqisi2
 180 0024 0992     		str	r2, [sp, #36]
 181 0026 CA7C     		ldrb	r2, [r1, #19]	@ zero_extendqisi2
 182 0028 0A92     		str	r2, [sp, #40]
 183              		.loc 1 119 0
 184 002a 4A7D     		ldrb	r2, [r1, #21]	@ zero_extendqisi2
 185              		.loc 1 114 0
 186 002c 8C78     		ldrb	r4, [r1, #2]	@ zero_extendqisi2
 187              		.loc 1 119 0
 188 002e 0B92     		str	r2, [sp, #44]
 189 0030 8A7D     		ldrb	r2, [r1, #22]	@ zero_extendqisi2
 190              		.loc 1 114 0
 191 0032 91F801B0 		ldrb	fp, [r1, #1]	@ zero_extendqisi2
 192 0036 0F78     		ldrb	r7, [r1]	@ zero_extendqisi2
 193 0038 CB78     		ldrb	r3, [r1, #3]	@ zero_extendqisi2
 194              		.loc 1 115 0
 195 003a 91F80590 		ldrb	r9, [r1, #5]	@ zero_extendqisi2
 196 003e 0E79     		ldrb	r6, [r1, #4]	@ zero_extendqisi2
 197 0040 91F80780 		ldrb	r8, [r1, #7]	@ zero_extendqisi2
 198              		.loc 1 116 0
 199 0044 91F809C0 		ldrb	ip, [r1, #9]	@ zero_extendqisi2
 200 0048 0D7A     		ldrb	r5, [r1, #8]	@ zero_extendqisi2
 201 004a 91F80BE0 		ldrb	lr, [r1, #11]	@ zero_extendqisi2
 202              		.loc 1 111 0
 203 004e 8246     		mov	r10, r0
 204              		.loc 1 115 0
 205 0050 8879     		ldrb	r0, [r1, #6]	@ zero_extendqisi2
 206              	.LVL9:
 207              		.loc 1 119 0
 208 0052 0C92     		str	r2, [sp, #48]
 209              	.LVL10:
 210 0054 0A7D     		ldrb	r2, [r1, #20]	@ zero_extendqisi2
 211 0056 0D92     		str	r2, [sp, #52]
 212              		.loc 1 114 0
 213 0058 2404     		lsls	r4, r4, #16
 214              		.loc 1 119 0
 215 005a CA7D     		ldrb	r2, [r1, #23]	@ zero_extendqisi2
 216 005c 0E92     		str	r2, [sp, #56]
 217 005e 44EA0B24 		orr	r4, r4, fp, lsl #8
 218              		.loc 1 120 0
 219 0062 4A7E     		ldrb	r2, [r1, #25]	@ zero_extendqisi2
 220 0064 0F92     		str	r2, [sp, #60]
 221              		.loc 1 114 0
 222 0066 3C43     		orrs	r4, r4, r7
 223              		.loc 1 120 0
 224 0068 8A7E     		ldrb	r2, [r1, #26]	@ zero_extendqisi2
ARM GAS  C:\Users\jo\AppData\Local\Temp\ccBWvOPb.s 			page 5


 225 006a 1092     		str	r2, [sp, #64]
 226              		.loc 1 114 0
 227 006c 44EA0364 		orr	r4, r4, r3, lsl #24
 228              		.loc 1 120 0
 229 0070 0A7E     		ldrb	r2, [r1, #24]	@ zero_extendqisi2
 230 0072 1192     		str	r2, [sp, #68]
 231              		.loc 1 114 0
 232 0074 0094     		str	r4, [sp]
 233              	.LVL11:
 234              		.loc 1 120 0
 235 0076 CA7E     		ldrb	r2, [r1, #27]	@ zero_extendqisi2
 236              		.loc 1 122 0
 237 0078 91F82240 		ldrb	r4, [r1, #34]	@ zero_extendqisi2
 238              		.loc 1 120 0
 239 007c 1292     		str	r2, [sp, #72]
 240              		.loc 1 115 0
 241 007e 0004     		lsls	r0, r0, #16
 242              		.loc 1 121 0
 243 0080 4A7F     		ldrb	r2, [r1, #29]	@ zero_extendqisi2
 244              		.loc 1 122 0
 245 0082 1694     		str	r4, [sp, #88]
 246 0084 40EA0920 		orr	r0, r0, r9, lsl #8
 247 0088 91F82340 		ldrb	r4, [r1, #35]	@ zero_extendqisi2
 248              		.loc 1 121 0
 249 008c 1392     		str	r2, [sp, #76]
 250              		.loc 1 122 0
 251 008e 1794     		str	r4, [sp, #92]
 252              		.loc 1 121 0
 253 0090 CA7F     		ldrb	r2, [r1, #31]	@ zero_extendqisi2
 254              		.loc 1 123 0
 255 0092 91F82540 		ldrb	r4, [r1, #37]	@ zero_extendqisi2
 256              		.loc 1 121 0
 257 0096 1492     		str	r2, [sp, #80]
 258              		.loc 1 115 0
 259 0098 3043     		orrs	r0, r0, r6
 260              		.loc 1 122 0
 261 009a 91F82120 		ldrb	r2, [r1, #33]	@ zero_extendqisi2
 262              		.loc 1 123 0
 263 009e 1894     		str	r4, [sp, #96]
 264              		.loc 1 115 0
 265 00a0 40EA0860 		orr	r0, r0, r8, lsl #24
 266              		.loc 1 124 0
 267 00a4 91F82940 		ldrb	r4, [r1, #41]	@ zero_extendqisi2
 268              		.loc 1 122 0
 269 00a8 91F82090 		ldrb	r9, [r1, #32]	@ zero_extendqisi2
 270              		.loc 1 123 0
 271 00ac 91F82460 		ldrb	r6, [r1, #36]	@ zero_extendqisi2
 272 00b0 91F82780 		ldrb	r8, [r1, #39]	@ zero_extendqisi2
 273              		.loc 1 121 0
 274 00b4 8F7F     		ldrb	r7, [r1, #30]	@ zero_extendqisi2
 275 00b6 91F81CB0 		ldrb	fp, [r1, #28]	@ zero_extendqisi2
 276              		.loc 1 122 0
 277 00ba 1592     		str	r2, [sp, #84]
 278              		.loc 1 115 0
 279 00bc 0190     		str	r0, [sp, #4]
 280              	.LVL12:
 281              		.loc 1 123 0
ARM GAS  C:\Users\jo\AppData\Local\Temp\ccBWvOPb.s 			page 6


 282 00be 91F82600 		ldrb	r0, [r1, #38]	@ zero_extendqisi2
 283              		.loc 1 124 0
 284 00c2 1994     		str	r4, [sp, #100]
 285              		.loc 1 116 0
 286 00c4 029B     		ldr	r3, [sp, #8]
 287              		.loc 1 124 0
 288 00c6 91F82A40 		ldrb	r4, [r1, #42]	@ zero_extendqisi2
 289 00ca 1A94     		str	r4, [sp, #104]
 290              		.loc 1 116 0
 291 00cc 1A04     		lsls	r2, r3, #16
 292              		.loc 1 125 0
 293 00ce 91F82D40 		ldrb	r4, [r1, #45]	@ zero_extendqisi2
 294 00d2 1C94     		str	r4, [sp, #112]
 295 00d4 42EA0C22 		orr	r2, r2, ip, lsl #8
 296 00d8 91F82E40 		ldrb	r4, [r1, #46]	@ zero_extendqisi2
 297              		.loc 1 117 0
 298 00dc 049B     		ldr	r3, [sp, #16]
 299              		.loc 1 125 0
 300 00de 1D94     		str	r4, [sp, #116]
 301              		.loc 1 116 0
 302 00e0 2A43     		orrs	r2, r2, r5
 303              		.loc 1 125 0
 304 00e2 91F82F40 		ldrb	r4, [r1, #47]	@ zero_extendqisi2
 305 00e6 1E94     		str	r4, [sp, #120]
 306              		.loc 1 116 0
 307 00e8 42EA0E6E 		orr	lr, r2, lr, lsl #24
 308 00ec 039A     		ldr	r2, [sp, #12]
 309              		.loc 1 126 0
 310 00ee 91F83140 		ldrb	r4, [r1, #49]	@ zero_extendqisi2
 311 00f2 1F94     		str	r4, [sp, #124]
 312              		.loc 1 117 0
 313 00f4 1B04     		lsls	r3, r3, #16
 314              		.loc 1 126 0
 315 00f6 91F83240 		ldrb	r4, [r1, #50]	@ zero_extendqisi2
 316 00fa 2094     		str	r4, [sp, #128]
 317 00fc 43EA0223 		orr	r3, r3, r2, lsl #8
 318              		.loc 1 117 0
 319 0100 059A     		ldr	r2, [sp, #20]
 320              		.loc 1 126 0
 321 0102 91F83040 		ldrb	r4, [r1, #48]	@ zero_extendqisi2
 322 0106 2194     		str	r4, [sp, #132]
 323              		.loc 1 117 0
 324 0108 1343     		orrs	r3, r3, r2
 325              		.loc 1 126 0
 326 010a 91F83340 		ldrb	r4, [r1, #51]	@ zero_extendqisi2
 327              		.loc 1 117 0
 328 010e 069A     		ldr	r2, [sp, #24]
 329              		.loc 1 126 0
 330 0110 2294     		str	r4, [sp, #136]
 331              		.loc 1 127 0
 332 0112 91F83540 		ldrb	r4, [r1, #53]	@ zero_extendqisi2
 333 0116 2394     		str	r4, [sp, #140]
 334              		.loc 1 117 0
 335 0118 43EA0264 		orr	r4, r3, r2, lsl #24
 336              		.loc 1 118 0
 337 011c 089B     		ldr	r3, [sp, #32]
 338 011e 079A     		ldr	r2, [sp, #28]
ARM GAS  C:\Users\jo\AppData\Local\Temp\ccBWvOPb.s 			page 7


 339              		.loc 1 117 0
 340 0120 0294     		str	r4, [sp, #8]
 341              		.loc 1 127 0
 342 0122 91F83640 		ldrb	r4, [r1, #54]	@ zero_extendqisi2
 343              		.loc 1 124 0
 344 0126 91F82B50 		ldrb	r5, [r1, #43]	@ zero_extendqisi2
 345              		.loc 1 127 0
 346 012a 2494     		str	r4, [sp, #144]
 347              		.loc 1 118 0
 348 012c 1B04     		lsls	r3, r3, #16
 349              		.loc 1 127 0
 350 012e 91F83440 		ldrb	r4, [r1, #52]	@ zero_extendqisi2
 351              		.loc 1 124 0
 352 0132 91F828C0 		ldrb	ip, [r1, #40]	@ zero_extendqisi2
 353 0136 1B95     		str	r5, [sp, #108]
 354 0138 43EA0223 		orr	r3, r3, r2, lsl #8
 355              		.loc 1 116 0
 356 013c 7546     		mov	r5, lr
 357              	.LVL13:
 358              		.loc 1 125 0
 359 013e 91F82CE0 		ldrb	lr, [r1, #44]	@ zero_extendqisi2
 360              		.loc 1 127 0
 361 0142 2594     		str	r4, [sp, #148]
 362              	.LVL14:
 363              		.loc 1 118 0
 364 0144 099A     		ldr	r2, [sp, #36]
 365              		.loc 1 127 0
 366 0146 91F83740 		ldrb	r4, [r1, #55]	@ zero_extendqisi2
 367 014a 2694     		str	r4, [sp, #152]
 368              		.loc 1 118 0
 369 014c 1343     		orrs	r3, r3, r2
 370 014e 0A9A     		ldr	r2, [sp, #40]
 371              		.loc 1 128 0
 372 0150 91F83940 		ldrb	r4, [r1, #57]	@ zero_extendqisi2
 373 0154 2794     		str	r4, [sp, #156]
 374              		.loc 1 118 0
 375 0156 43EA0264 		orr	r4, r3, r2, lsl #24
 376 015a 0394     		str	r4, [sp, #12]
 377              	.LVL15:
 378              		.loc 1 128 0
 379 015c 91F83A40 		ldrb	r4, [r1, #58]	@ zero_extendqisi2
 380 0160 2894     		str	r4, [sp, #160]
 381 0162 91F83840 		ldrb	r4, [r1, #56]	@ zero_extendqisi2
 382 0166 2994     		str	r4, [sp, #164]
 383              		.loc 1 119 0
 384 0168 0C9B     		ldr	r3, [sp, #48]
 385              		.loc 1 128 0
 386 016a 91F83B40 		ldrb	r4, [r1, #59]	@ zero_extendqisi2
 387 016e 0B9A     		ldr	r2, [sp, #44]
 388 0170 2A94     		str	r4, [sp, #168]
 389              		.loc 1 129 0
 390 0172 91F83D40 		ldrb	r4, [r1, #61]	@ zero_extendqisi2
 391 0176 2B94     		str	r4, [sp, #172]
 392              		.loc 1 119 0
 393 0178 1B04     		lsls	r3, r3, #16
 394              		.loc 1 129 0
 395 017a 91F83E40 		ldrb	r4, [r1, #62]	@ zero_extendqisi2
ARM GAS  C:\Users\jo\AppData\Local\Temp\ccBWvOPb.s 			page 8


 396 017e 2C94     		str	r4, [sp, #176]
 397 0180 43EA0223 		orr	r3, r3, r2, lsl #8
 398 0184 91F83C40 		ldrb	r4, [r1, #60]	@ zero_extendqisi2
 399              		.loc 1 119 0
 400 0188 0D9A     		ldr	r2, [sp, #52]
 401              		.loc 1 129 0
 402 018a 0D94     		str	r4, [sp, #52]
 403 018c 91F83F40 		ldrb	r4, [r1, #63]	@ zero_extendqisi2
 404              		.loc 1 119 0
 405 0190 0E99     		ldr	r1, [sp, #56]
 406              	.LVL16:
 407              		.loc 1 129 0
 408 0192 2D94     		str	r4, [sp, #180]
 409              		.loc 1 119 0
 410 0194 1343     		orrs	r3, r3, r2
 411 0196 43EA0164 		orr	r4, r3, r1, lsl #24
 412              		.loc 1 120 0
 413 019a 1099     		ldr	r1, [sp, #64]
 414 019c 0F9B     		ldr	r3, [sp, #60]
 415              		.loc 1 119 0
 416 019e 0A94     		str	r4, [sp, #40]
 417              	.LVL17:
 418              		.loc 1 120 0
 419 01a0 0A04     		lsls	r2, r1, #16
 420 01a2 42EA0322 		orr	r2, r2, r3, lsl #8
 421 01a6 119B     		ldr	r3, [sp, #68]
 422              		.loc 1 145 0
 423 01a8 DAF80C10 		ldr	r1, [r10, #12]
 424              		.loc 1 120 0
 425 01ac 1A43     		orrs	r2, r2, r3
 426              		.loc 1 145 0
 427 01ae DAF81430 		ldr	r3, [r10, #20]
 428 01b2 1C46     		mov	r4, r3
 429 01b4 DAF81030 		ldr	r3, [r10, #16]
 430 01b8 6340     		eors	r3, r3, r4
 431 01ba 0B40     		ands	r3, r3, r1
 432 01bc 6340     		eors	r3, r3, r4
 433 01be D749     		ldr	r1, .L14
 434 01c0 DAF80840 		ldr	r4, [r10, #8]
 435 01c4 2144     		add	r1, r1, r4
 436 01c6 0B44     		add	r3, r3, r1
 437 01c8 0099     		ldr	r1, [sp]
 438              	.LVL18:
 439 01ca DAF80C40 		ldr	r4, [r10, #12]
 440 01ce 0995     		str	r5, [sp, #36]
 441 01d0 0B44     		add	r3, r3, r1
 442              		.loc 1 120 0
 443 01d2 1299     		ldr	r1, [sp, #72]
 444              		.loc 1 145 0
 445 01d4 04EB7363 		add	r3, r4, r3, ror #25
 446              		.loc 1 120 0
 447 01d8 42EA0164 		orr	r4, r2, r1, lsl #24
 448 01dc 1399     		ldr	r1, [sp, #76]
 449 01de 0494     		str	r4, [sp, #16]
 450              	.LVL19:
 451              		.loc 1 121 0
 452 01e0 3F04     		lsls	r7, r7, #16
ARM GAS  C:\Users\jo\AppData\Local\Temp\ccBWvOPb.s 			page 9


 453 01e2 DAF81440 		ldr	r4, [r10, #20]
 454 01e6 019A     		ldr	r2, [sp, #4]
 455 01e8 47EA0127 		orr	r7, r7, r1, lsl #8
 456 01ec CC49     		ldr	r1, .L14+4
 457 01ee 2144     		add	r1, r1, r4
 458              		.loc 1 146 0
 459 01f0 DAF81040 		ldr	r4, [r10, #16]
 460              		.loc 1 121 0
 461 01f4 47EA0B0B 		orr	fp, r7, fp
 462              		.loc 1 146 0
 463 01f8 2746     		mov	r7, r4
 464 01fa DAF80C40 		ldr	r4, [r10, #12]
 465 01fe 1144     		add	r1, r1, r2
 466 0200 87EA0402 		eor	r2, r7, r4
 467 0204 1A40     		ands	r2, r2, r3
 468 0206 7A40     		eors	r2, r2, r7
 469              	.LVL20:
 470 0208 DAF81040 		ldr	r4, [r10, #16]
 471              		.loc 1 121 0
 472 020c 149F     		ldr	r7, [sp, #80]
 473              		.loc 1 146 0
 474 020e 0A44     		add	r2, r2, r1
 475 0210 C449     		ldr	r1, .L14+8
 476 0212 2144     		add	r1, r1, r4
 477              		.loc 1 122 0
 478 0214 169C     		ldr	r4, [sp, #88]
 479              		.loc 1 121 0
 480 0216 4BEA076B 		orr	fp, fp, r7, lsl #24
 481 021a 2944     		add	r1, r1, r5
 482              		.loc 1 147 0
 483 021c DAF80C70 		ldr	r7, [r10, #12]
 484 0220 159D     		ldr	r5, [sp, #84]
 485              	.LVL21:
 486              		.loc 1 121 0
 487 0222 CDF814B0 		str	fp, [sp, #20]
 488              	.LVL22:
 489              		.loc 1 122 0
 490 0226 2404     		lsls	r4, r4, #16
 491              		.loc 1 146 0
 492 0228 03EB3252 		add	r2, r3, r2, ror #20
 493 022c 44EA0524 		orr	r4, r4, r5, lsl #8
 494              		.loc 1 147 0
 495 0230 83EA0705 		eor	r5, r3, r7
 496 0234 1540     		ands	r5, r5, r2
 497 0236 7D40     		eors	r5, r5, r7
 498 0238 0D44     		add	r5, r5, r1
 499 023a BB49     		ldr	r1, .L14+12
 500 023c 3944     		add	r1, r1, r7
 501 023e 029F     		ldr	r7, [sp, #8]
 502 0240 3944     		add	r1, r1, r7
 503              		.loc 1 122 0
 504 0242 179F     		ldr	r7, [sp, #92]
 505 0244 44EA0904 		orr	r4, r4, r9
 506 0248 44EA0764 		orr	r4, r4, r7, lsl #24
 507              		.loc 1 147 0
 508 024c 02EBF535 		add	r5, r2, r5, ror #15
 509              		.loc 1 122 0
ARM GAS  C:\Users\jo\AppData\Local\Temp\ccBWvOPb.s 			page 10


 510 0250 0694     		str	r4, [sp, #24]
 511              		.loc 1 148 0
 512 0252 82EA0304 		eor	r4, r2, r3
 513 0256 2C40     		ands	r4, r4, r5
 514 0258 5C40     		eors	r4, r4, r3
 515 025a 2144     		add	r1, r1, r4
 516 025c 05EBB124 		add	r4, r5, r1, ror #10
 517 0260 1899     		ldr	r1, [sp, #96]
 518 0262 039F     		ldr	r7, [sp, #12]
 519              		.loc 1 123 0
 520 0264 0004     		lsls	r0, r0, #16
 521 0266 40EA0120 		orr	r0, r0, r1, lsl #8
 522 026a B049     		ldr	r1, .L14+16
 523 026c 3944     		add	r1, r1, r7
 524 026e 0B44     		add	r3, r3, r1
 525              		.loc 1 149 0
 526 0270 85EA0201 		eor	r1, r5, r2
 527 0274 2140     		ands	r1, r1, r4
 528 0276 5140     		eors	r1, r1, r2
 529              		.loc 1 123 0
 530 0278 3043     		orrs	r0, r0, r6
 531              		.loc 1 149 0
 532 027a 0B44     		add	r3, r3, r1
 533 027c 0A9E     		ldr	r6, [sp, #40]
 534 027e AC49     		ldr	r1, .L14+20
 535              		.loc 1 123 0
 536 0280 40EA0869 		orr	r9, r0, r8, lsl #24
 537 0284 3144     		add	r1, r1, r6
 538              		.loc 1 124 0
 539 0286 1A98     		ldr	r0, [sp, #104]
 540 0288 069E     		ldr	r6, [sp, #24]
 541 028a 0A44     		add	r2, r2, r1
 542 028c 1999     		ldr	r1, [sp, #100]
 543 028e 0004     		lsls	r0, r0, #16
 544              		.loc 1 149 0
 545 0290 04EB7363 		add	r3, r4, r3, ror #25
 546 0294 40EA0120 		orr	r0, r0, r1, lsl #8
 547              		.loc 1 150 0
 548 0298 84EA0501 		eor	r1, r4, r5
 549 029c 1940     		ands	r1, r1, r3
 550 029e 6940     		eors	r1, r1, r5
 551 02a0 0A44     		add	r2, r2, r1
 552              		.loc 1 124 0
 553 02a2 40EA0C0C 		orr	ip, r0, ip
 554 02a6 A349     		ldr	r1, .L14+24
 555 02a8 0498     		ldr	r0, [sp, #16]
 556 02aa 0144     		add	r1, r1, r0
 557 02ac 0D44     		add	r5, r5, r1
 558 02ae 1B99     		ldr	r1, [sp, #108]
 559 02b0 0598     		ldr	r0, [sp, #20]
 560              		.loc 1 150 0
 561 02b2 03EB3252 		add	r2, r3, r2, ror #20
 562              		.loc 1 124 0
 563 02b6 4CEA016C 		orr	ip, ip, r1, lsl #24
 564              		.loc 1 151 0
 565 02ba 83EA0401 		eor	r1, r3, r4
 566 02be 1140     		ands	r1, r1, r2
ARM GAS  C:\Users\jo\AppData\Local\Temp\ccBWvOPb.s 			page 11


 567 02c0 6140     		eors	r1, r1, r4
 568 02c2 0D44     		add	r5, r5, r1
 569 02c4 9C49     		ldr	r1, .L14+28
 570 02c6 0144     		add	r1, r1, r0
 571 02c8 0C44     		add	r4, r4, r1
 572              		.loc 1 125 0
 573 02ca 1D99     		ldr	r1, [sp, #116]
 574 02cc 0804     		lsls	r0, r1, #16
 575 02ce 1C99     		ldr	r1, [sp, #112]
 576              		.loc 1 151 0
 577 02d0 02EBF535 		add	r5, r2, r5, ror #15
 578 02d4 40EA0120 		orr	r0, r0, r1, lsl #8
 579              		.loc 1 152 0
 580 02d8 82EA0301 		eor	r1, r2, r3
 581 02dc 2940     		ands	r1, r1, r5
 582 02de 5940     		eors	r1, r1, r3
 583 02e0 0C44     		add	r4, r4, r1
 584 02e2 9649     		ldr	r1, .L14+32
 585 02e4 3144     		add	r1, r1, r6
 586 02e6 0B44     		add	r3, r3, r1
 587              		.loc 1 125 0
 588 02e8 1E99     		ldr	r1, [sp, #120]
 589 02ea 40EA0E0E 		orr	lr, r0, lr
 590              		.loc 1 126 0
 591 02ee 2098     		ldr	r0, [sp, #128]
 592              		.loc 1 152 0
 593 02f0 05EBB424 		add	r4, r5, r4, ror #10
 594              		.loc 1 125 0
 595 02f4 4EEA016E 		orr	lr, lr, r1, lsl #24
 596              		.loc 1 153 0
 597 02f8 85EA0201 		eor	r1, r5, r2
 598 02fc 2140     		ands	r1, r1, r4
 599              		.loc 1 126 0
 600 02fe 0604     		lsls	r6, r0, #16
 601 0300 8F48     		ldr	r0, .L14+36
 602              		.loc 1 125 0
 603 0302 CDF81CE0 		str	lr, [sp, #28]
 604              		.loc 1 153 0
 605 0306 5140     		eors	r1, r1, r2
 606 0308 4844     		add	r0, r0, r9
 607 030a 0B44     		add	r3, r3, r1
 608 030c 04EB7363 		add	r3, r4, r3, ror #25
 609 0310 0244     		add	r2, r2, r0
 610              		.loc 1 154 0
 611 0312 84EA0500 		eor	r0, r4, r5
 612 0316 1840     		ands	r0, r0, r3
 613              		.loc 1 124 0
 614 0318 6746     		mov	r7, ip
 615              		.loc 1 154 0
 616 031a 6840     		eors	r0, r0, r5
 617 031c 1F99     		ldr	r1, [sp, #124]
 618 031e 0B97     		str	r7, [sp, #44]
 619 0320 0244     		add	r2, r2, r0
 620 0322 A7F52440 		sub	r0, r7, #41984
 621 0326 4F38     		subs	r0, r0, #79
 622 0328 03EB3252 		add	r2, r3, r2, ror #20
 623 032c 46EA0126 		orr	r6, r6, r1, lsl #8
ARM GAS  C:\Users\jo\AppData\Local\Temp\ccBWvOPb.s 			page 12


 624 0330 0544     		add	r5, r5, r0
 625              		.loc 1 126 0
 626 0332 2199     		ldr	r1, [sp, #132]
 627              		.loc 1 155 0
 628 0334 83EA0400 		eor	r0, r3, r4
 629 0338 1040     		ands	r0, r0, r2
 630              		.loc 1 126 0
 631 033a 0E43     		orrs	r6, r6, r1
 632              		.loc 1 155 0
 633 033c 6040     		eors	r0, r0, r4
 634              		.loc 1 126 0
 635 033e 2299     		ldr	r1, [sp, #136]
 636              		.loc 1 155 0
 637 0340 0544     		add	r5, r5, r0
 638              		.loc 1 127 0
 639 0342 2498     		ldr	r0, [sp, #144]
 640              		.loc 1 126 0
 641 0344 46EA0161 		orr	r1, r6, r1, lsl #24
 642 0348 239E     		ldr	r6, [sp, #140]
 643 034a 0891     		str	r1, [sp, #32]
 644              		.loc 1 127 0
 645 034c 0004     		lsls	r0, r0, #16
 646 034e 40EA0620 		orr	r0, r0, r6, lsl #8
 647 0352 7C49     		ldr	r1, .L14+40
 648 0354 079E     		ldr	r6, [sp, #28]
 649 0356 3144     		add	r1, r1, r6
 650 0358 0C44     		add	r4, r4, r1
 651 035a 2599     		ldr	r1, [sp, #148]
 652              		.loc 1 155 0
 653 035c 02EBF535 		add	r5, r2, r5, ror #15
 654              		.loc 1 127 0
 655 0360 0843     		orrs	r0, r0, r1
 656              		.loc 1 156 0
 657 0362 82EA0301 		eor	r1, r2, r3
 658 0366 2940     		ands	r1, r1, r5
 659 0368 5940     		eors	r1, r1, r3
 660 036a 0C44     		add	r4, r4, r1
 661              		.loc 1 127 0
 662 036c 2699     		ldr	r1, [sp, #152]
 663 036e 40EA016E 		orr	lr, r0, r1, lsl #24
 664 0372 0899     		ldr	r1, [sp, #32]
 665 0374 7448     		ldr	r0, .L14+44
 666 0376 0844     		add	r0, r0, r1
 667              		.loc 1 156 0
 668 0378 05EBB424 		add	r4, r5, r4, ror #10
 669 037c 0344     		add	r3, r3, r0
 670              		.loc 1 157 0
 671 037e 85EA0200 		eor	r0, r5, r2
 672 0382 2040     		ands	r0, r0, r4
 673 0384 5040     		eors	r0, r0, r2
 674 0386 7149     		ldr	r1, .L14+48
 675              		.loc 1 127 0
 676 0388 7646     		mov	r6, lr
 677              		.loc 1 157 0
 678 038a 0344     		add	r3, r3, r0
 679              		.loc 1 128 0
 680 038c 2898     		ldr	r0, [sp, #160]
ARM GAS  C:\Users\jo\AppData\Local\Temp\ccBWvOPb.s 			page 13


 681 038e DFF8F0E1 		ldr	lr, .L14+100
 682 0392 0C96     		str	r6, [sp, #48]
 683 0394 3144     		add	r1, r1, r6
 684              		.loc 1 157 0
 685 0396 04EB7363 		add	r3, r4, r3, ror #25
 686 039a 0A44     		add	r2, r2, r1
 687              		.loc 1 128 0
 688 039c 0704     		lsls	r7, r0, #16
 689              		.loc 1 158 0
 690 039e 84EA0501 		eor	r1, r4, r5
 691 03a2 2798     		ldr	r0, [sp, #156]
 692 03a4 019E     		ldr	r6, [sp, #4]
 693 03a6 1940     		ands	r1, r1, r3
 694 03a8 47EA0027 		orr	r7, r7, r0, lsl #8
 695 03ac 6940     		eors	r1, r1, r5
 696              		.loc 1 128 0
 697 03ae 2998     		ldr	r0, [sp, #164]
 698              		.loc 1 158 0
 699 03b0 1144     		add	r1, r1, r2
 700              		.loc 1 128 0
 701 03b2 2A9A     		ldr	r2, [sp, #168]
 702 03b4 0743     		orrs	r7, r7, r0
 703 03b6 47EA0267 		orr	r7, r7, r2, lsl #24
 704              		.loc 1 129 0
 705 03ba 2C98     		ldr	r0, [sp, #176]
 706 03bc 644A     		ldr	r2, .L14+52
 707              		.loc 1 158 0
 708 03be 03EB3151 		add	r1, r3, r1, ror #20
 709 03c2 3A44     		add	r2, r2, r7
 710              		.loc 1 159 0
 711 03c4 83EA040C 		eor	ip, r3, r4
 712              		.loc 1 129 0
 713 03c8 4FEA004B 		lsl	fp, r0, #16
 714 03cc 2B98     		ldr	r0, [sp, #172]
 715 03ce 1544     		add	r5, r5, r2
 716              		.loc 1 159 0
 717 03d0 01EA0C0C 		and	ip, r1, ip
 718              		.loc 1 129 0
 719 03d4 0D9A     		ldr	r2, [sp, #52]
 720              		.loc 1 159 0
 721 03d6 8CEA040C 		eor	ip, ip, r4
 722 03da 4BEA002B 		orr	fp, fp, r0, lsl #8
 723              		.loc 1 129 0
 724 03de 2D98     		ldr	r0, [sp, #180]
 725 03e0 4BEA020B 		orr	fp, fp, r2
 726              		.loc 1 159 0
 727 03e4 6544     		add	r5, r5, ip
 728 03e6 01EBF535 		add	r5, r1, r5, ror #15
 729              		.loc 1 129 0
 730 03ea 4BEA006B 		orr	fp, fp, r0, lsl #24
 731              	.LVL23:
 732              		.loc 1 160 0
 733 03ee 81EA0300 		eor	r0, r1, r3
 734 03f2 DE44     		add	lr, lr, fp
 735 03f4 2840     		ands	r0, r0, r5
 736 03f6 5840     		eors	r0, r0, r3
 737 03f8 7444     		add	r4, r4, lr
ARM GAS  C:\Users\jo\AppData\Local\Temp\ccBWvOPb.s 			page 14


 738              	.LVL24:
 739 03fa 0444     		add	r4, r4, r0
 740              	.LVL25:
 741 03fc 05EBB424 		add	r4, r5, r4, ror #10
 742              	.LVL26:
 743 0400 544A     		ldr	r2, .L14+56
 744 0402 DFF880C1 		ldr	ip, .L14+104
 745              		.loc 1 166 0
 746 0406 84EA0500 		eor	r0, r4, r5
 747 040a 3244     		add	r2, r2, r6
 748 040c 0840     		ands	r0, r0, r1
 749 040e 6840     		eors	r0, r0, r5
 750 0410 1344     		add	r3, r3, r2
 751              	.LVL27:
 752 0412 0344     		add	r3, r3, r0
 753              	.LVL28:
 754 0414 04EBF363 		add	r3, r4, r3, ror #27
 755              	.LVL29:
 756 0418 049E     		ldr	r6, [sp, #16]
 757 041a 4F48     		ldr	r0, .L14+60
 758 041c 4F4A     		ldr	r2, .L14+64
 759              		.loc 1 167 0
 760 041e 83EA040E 		eor	lr, r3, r4
 761 0422 3044     		add	r0, r0, r6
 762 0424 0EEA050E 		and	lr, lr, r5
 763 0428 8EEA040E 		eor	lr, lr, r4
 764 042c 0144     		add	r1, r1, r0
 765              	.LVL30:
 766 042e 7144     		add	r1, r1, lr
 767              	.LVL31:
 768 0430 03EBF150 		add	r0, r3, r1, ror #23
 769              	.LVL32:
 770 0434 0799     		ldr	r1, [sp, #28]
 771 0436 0A9E     		ldr	r6, [sp, #40]
 772              		.loc 1 168 0
 773 0438 80EA030E 		eor	lr, r0, r3
 774 043c 8C44     		add	ip, ip, r1
 775 043e 0EEA040E 		and	lr, lr, r4
 776 0442 8EEA030E 		eor	lr, lr, r3
 777 0446 6544     		add	r5, r5, ip
 778              	.LVL33:
 779 0448 05EB0E0C 		add	ip, r5, lr
 780              	.LVL34:
 781 044c 00EBBC4C 		add	ip, r0, ip, ror #18
 782              	.LVL35:
 783 0450 009D     		ldr	r5, [sp]
 784 0452 8846     		mov	r8, r1
 785              		.loc 1 169 0
 786 0454 8CEA0001 		eor	r1, ip, r0
 787 0458 2A44     		add	r2, r2, r5
 788 045a 1940     		ands	r1, r1, r3
 789 045c 4140     		eors	r1, r1, r0
 790 045e 1444     		add	r4, r4, r2
 791              	.LVL36:
 792 0460 6218     		adds	r2, r4, r1
 793              	.LVL37:
 794 0462 3F4C     		ldr	r4, .L14+68
ARM GAS  C:\Users\jo\AppData\Local\Temp\ccBWvOPb.s 			page 15


 795 0464 3F4D     		ldr	r5, .L14+72
 796 0466 4049     		ldr	r1, .L14+76
 797 0468 0CEB3232 		add	r2, ip, r2, ror #12
 798              	.LVL38:
 799 046c 3444     		add	r4, r4, r6
 800 046e 2344     		add	r3, r3, r4
 801              	.LVL39:
 802              		.loc 1 170 0
 803 0470 82EA0C04 		eor	r4, r2, ip
 804 0474 0440     		ands	r4, r4, r0
 805 0476 84EA0C04 		eor	r4, r4, ip
 806 047a 2344     		add	r3, r3, r4
 807              	.LVL40:
 808 047c 02EBF363 		add	r3, r2, r3, ror #27
 809              	.LVL41:
 810 0480 0B9E     		ldr	r6, [sp, #44]
 811              		.loc 1 171 0
 812 0482 83EA0204 		eor	r4, r3, r2
 813 0486 3544     		add	r5, r5, r6
 814 0488 04EA0C04 		and	r4, r4, ip
 815 048c 5440     		eors	r4, r4, r2
 816 048e 2844     		add	r0, r0, r5
 817              	.LVL42:
 818 0490 2044     		add	r0, r0, r4
 819              	.LVL43:
 820 0492 03EBF05E 		add	lr, r3, r0, ror #23
 821              	.LVL44:
 822              		.loc 1 172 0
 823 0496 8EEA0300 		eor	r0, lr, r3
 824 049a 5944     		add	r1, r1, fp
 825 049c 1040     		ands	r0, r0, r2
 826 049e 5840     		eors	r0, r0, r3
 827 04a0 8C44     		add	ip, ip, r1
 828              	.LVL45:
 829 04a2 0CEB0001 		add	r1, ip, r0
 830              	.LVL46:
 831 04a6 0EEBB141 		add	r1, lr, r1, ror #18
 832              	.LVL47:
 833 04aa 039E     		ldr	r6, [sp, #12]
 834 04ac 2F4D     		ldr	r5, .L14+80
 835 04ae 304C     		ldr	r4, .L14+84
 836 04b0 3048     		ldr	r0, .L14+88
 837              		.loc 1 173 0
 838 04b2 81EA0E0C 		eor	ip, r1, lr
 839 04b6 3544     		add	r5, r5, r6
 840 04b8 0CEA030C 		and	ip, ip, r3
 841 04bc 8CEA0E0C 		eor	ip, ip, lr
 842 04c0 2A44     		add	r2, r2, r5
 843              	.LVL48:
 844 04c2 6244     		add	r2, r2, ip
 845              	.LVL49:
 846 04c4 01EB3235 		add	r5, r1, r2, ror #12
 847              	.LVL50:
 848              		.loc 1 174 0
 849 04c8 85EA0102 		eor	r2, r5, r1
 850 04cc 4C44     		add	r4, r4, r9
 851 04ce 02EA0E02 		and	r2, r2, lr
ARM GAS  C:\Users\jo\AppData\Local\Temp\ccBWvOPb.s 			page 16


 852 04d2 4A40     		eors	r2, r2, r1
 853 04d4 2344     		add	r3, r3, r4
 854              	.LVL51:
 855 04d6 9C18     		adds	r4, r3, r2
 856              	.LVL52:
 857 04d8 05EBF464 		add	r4, r5, r4, ror #27
 858              	.LVL53:
 859              		.loc 1 175 0
 860 04dc 84EA0503 		eor	r3, r4, r5
 861 04e0 3844     		add	r0, r0, r7
 862 04e2 0B40     		ands	r3, r3, r1
 863 04e4 6B40     		eors	r3, r3, r5
 864 04e6 8644     		add	lr, lr, r0
 865              	.LVL54:
 866 04e8 029E     		ldr	r6, [sp, #8]
 867 04ea 234A     		ldr	r2, .L14+92
 868 04ec 0EEB0300 		add	r0, lr, r3
 869              	.LVL55:
 870 04f0 DFF894E0 		ldr	lr, .L14+108
 871 04f4 214B     		ldr	r3, .L14+96
 872 04f6 04EBF050 		add	r0, r4, r0, ror #23
 873              	.LVL56:
 874 04fa B644     		add	lr, lr, r6
 875 04fc 7144     		add	r1, r1, lr
 876              	.LVL57:
 877              		.loc 1 176 0
 878 04fe 80EA040E 		eor	lr, r0, r4
 879 0502 0EEA050E 		and	lr, lr, r5
 880 0506 8EEA040E 		eor	lr, lr, r4
 881 050a 7144     		add	r1, r1, lr
 882              	.LVL58:
 883 050c 00EBB141 		add	r1, r0, r1, ror #18
 884              	.LVL59:
 885 0510 069E     		ldr	r6, [sp, #24]
 886              		.loc 1 177 0
 887 0512 81EA000E 		eor	lr, r1, r0
 888 0516 3244     		add	r2, r2, r6
 889 0518 38E0     		b	.L15
 890              	.L16:
 891 051a 00BF     		.align	2
 892              	.L14:
 893 051c 78A46AD7 		.word	-680876936
 894 0520 56B7C7E8 		.word	-389564586
 895 0524 DB702024 		.word	606105819
 896 0528 EECEBDC1 		.word	-1044525330
 897 052c AF0F7CF5 		.word	-176418897
 898 0530 2AC68747 		.word	1200080426
 899 0534 134630A8 		.word	-1473231341
 900 0538 019546FD 		.word	-45705983
 901 053c D8988069 		.word	1770035416
 902 0540 AFF7448B 		.word	-1958414417
 903 0544 BED75C89 		.word	-1990404162
 904 0548 2211906B 		.word	1804603682
 905 054c 937198FD 		.word	-40341101
 906 0550 8E4379A6 		.word	-1502002290
 907 0554 62251EF6 		.word	-165796510
 908 0558 40B340C0 		.word	-1069501632
ARM GAS  C:\Users\jo\AppData\Local\Temp\ccBWvOPb.s 			page 17


 909 055c AAC7B6E9 		.word	-373897302
 910 0560 5D102FD6 		.word	-701558691
 911 0564 53144402 		.word	38016083
 912 0568 81E6A1D8 		.word	-660478335
 913 056c C8FBD3E7 		.word	-405537848
 914 0570 E6CDE121 		.word	568446438
 915 0574 D60737C3 		.word	-1019803690
 916 0578 ED145A45 		.word	1163531501
 917 057c 05E9E3A9 		.word	-1444681467
 918 0580 2108B449 		.word	1236535329
 919 0584 515A5E26 		.word	643717713
 920 0588 870DD5F4 		.word	-187363961
 921              	.L15:
 922 058c 0EEA040E 		and	lr, lr, r4
 923 0590 8EEA000E 		eor	lr, lr, r0
 924 0594 1544     		add	r5, r5, r2
 925              	.LVL60:
 926 0596 05EB0E02 		add	r2, r5, lr
 927              	.LVL61:
 928 059a 01EB3232 		add	r2, r1, r2, ror #12
 929              	.LVL62:
 930 059e 0C9E     		ldr	r6, [sp, #48]
 931 05a0 DFF8C0E3 		ldr	lr, .L17+116
 932              		.loc 1 178 0
 933 05a4 82EA0105 		eor	r5, r2, r1
 934 05a8 3344     		add	r3, r3, r6
 935 05aa 0540     		ands	r5, r5, r0
 936 05ac 099E     		ldr	r6, [sp, #36]
 937 05ae 4D40     		eors	r5, r5, r1
 938 05b0 1C44     		add	r4, r4, r3
 939              	.LVL63:
 940 05b2 6319     		adds	r3, r4, r5
 941              	.LVL64:
 942 05b4 02EBF363 		add	r3, r2, r3, ror #27
 943              	.LVL65:
 944 05b8 B644     		add	lr, lr, r6
 945 05ba 7044     		add	r0, r0, lr
 946              	.LVL66:
 947              		.loc 1 179 0
 948 05bc 83EA020E 		eor	lr, r3, r2
 949 05c0 0EEA010E 		and	lr, lr, r1
 950 05c4 8EEA020E 		eor	lr, lr, r2
 951 05c8 7044     		add	r0, r0, lr
 952              	.LVL67:
 953 05ca 03EBF050 		add	r0, r3, r0, ror #23
 954              	.LVL68:
 955 05ce 059E     		ldr	r6, [sp, #20]
 956 05d0 C74D     		ldr	r5, .L17
 957 05d2 C84C     		ldr	r4, .L17+4
 958              		.loc 1 180 0
 959 05d4 80EA030E 		eor	lr, r0, r3
 960 05d8 3544     		add	r5, r5, r6
 961 05da 0EEA020E 		and	lr, lr, r2
 962 05de 8EEA030E 		eor	lr, lr, r3
 963 05e2 2944     		add	r1, r1, r5
 964              	.LVL69:
 965 05e4 7144     		add	r1, r1, lr
ARM GAS  C:\Users\jo\AppData\Local\Temp\ccBWvOPb.s 			page 18


 966              	.LVL70:
 967 05e6 00EBB141 		add	r1, r0, r1, ror #18
 968              	.LVL71:
 969 05ea 089D     		ldr	r5, [sp, #32]
 970 05ec 0A9E     		ldr	r6, [sp, #40]
 971 05ee DFF878E3 		ldr	lr, .L17+120
 972              		.loc 1 181 0
 973 05f2 81EA000C 		eor	ip, r1, r0
 974 05f6 2C44     		add	r4, r4, r5
 975 05f8 0CEA0305 		and	r5, ip, r3
 976 05fc 4540     		eors	r5, r5, r0
 977 05fe 2244     		add	r2, r2, r4
 978              	.LVL72:
 979 0600 2A44     		add	r2, r2, r5
 980              	.LVL73:
 981 0602 A6F5B825 		sub	r5, r6, #376832
 982 0606 01EB3232 		add	r2, r1, r2, ror #12
 983              	.LVL74:
 984 060a A5F2BE65 		subw	r5, r5, #1726
 985 060e 069C     		ldr	r4, [sp, #24]
 986              		.loc 1 187 0
 987 0610 82EA0C0C 		eor	ip, r2, ip
 988 0614 2B44     		add	r3, r3, r5
 989              	.LVL75:
 990 0616 6344     		add	r3, r3, ip
 991              	.LVL76:
 992 0618 02EB3373 		add	r3, r2, r3, ror #28
 993              	.LVL77:
 994 061c A644     		add	lr, lr, r4
 995 061e 82EA0104 		eor	r4, r2, r1
 996              		.loc 1 188 0
 997 0622 5C40     		eors	r4, r4, r3
 998 0624 7044     		add	r0, r0, lr
 999              	.LVL78:
 1000 0626 B44D     		ldr	r5, .L17+8
 1001 0628 2044     		add	r0, r0, r4
 1002              	.LVL79:
 1003 062a 03EB7050 		add	r0, r3, r0, ror #21
 1004              	.LVL80:
 1005 062e 4544     		add	r5, r5, r8
 1006 0630 83EA020C 		eor	ip, r3, r2
 1007              		.loc 1 189 0
 1008 0634 8CEA000C 		eor	ip, ip, r0
 1009 0638 2944     		add	r1, r1, r5
 1010              	.LVL81:
 1011 063a B04C     		ldr	r4, .L17+12
 1012 063c B04D     		ldr	r5, .L17+16
 1013 063e 6144     		add	r1, r1, ip
 1014              	.LVL82:
 1015 0640 00EB3141 		add	r1, r0, r1, ror #16
 1016              	.LVL83:
 1017 0644 3C44     		add	r4, r4, r7
 1018 0646 80EA030C 		eor	ip, r0, r3
 1019              		.loc 1 190 0
 1020 064a 8CEA010C 		eor	ip, ip, r1
 1021 064e 2244     		add	r2, r2, r4
 1022              	.LVL84:
ARM GAS  C:\Users\jo\AppData\Local\Temp\ccBWvOPb.s 			page 19


 1023 0650 019C     		ldr	r4, [sp, #4]
 1024 0652 6244     		add	r2, r2, ip
 1025              	.LVL85:
 1026 0654 01EB7228 		add	r8, r1, r2, ror #9
 1027              	.LVL86:
 1028 0658 2544     		add	r5, r5, r4
 1029 065a 81EA0004 		eor	r4, r1, r0
 1030              		.loc 1 191 0
 1031 065e 84EA0804 		eor	r4, r4, r8
 1032 0662 2B44     		add	r3, r3, r5
 1033              	.LVL87:
 1034 0664 2344     		add	r3, r3, r4
 1035              	.LVL88:
 1036 0666 A74A     		ldr	r2, .L17+20
 1037 0668 039C     		ldr	r4, [sp, #12]
 1038 066a A74D     		ldr	r5, .L17+24
 1039 066c 08EB3373 		add	r3, r8, r3, ror #28
 1040              	.LVL89:
 1041 0670 2244     		add	r2, r2, r4
 1042 0672 88EA0104 		eor	r4, r8, r1
 1043              		.loc 1 192 0
 1044 0676 5C40     		eors	r4, r4, r3
 1045 0678 1044     		add	r0, r0, r2
 1046              	.LVL90:
 1047 067a 2044     		add	r0, r0, r4
 1048              	.LVL91:
 1049 067c 03EB705C 		add	ip, r3, r0, ror #21
 1050              	.LVL92:
 1051 0680 0598     		ldr	r0, [sp, #20]
 1052 0682 A24C     		ldr	r4, .L17+28
 1053 0684 0544     		add	r5, r5, r0
 1054 0686 83EA0802 		eor	r2, r3, r8
 1055              		.loc 1 193 0
 1056 068a 82EA0C02 		eor	r2, r2, ip
 1057 068e 2944     		add	r1, r1, r5
 1058              	.LVL93:
 1059 0690 1144     		add	r1, r1, r2
 1060              	.LVL94:
 1061 0692 0CEB3145 		add	r5, ip, r1, ror #16
 1062              	.LVL95:
 1063 0696 9E48     		ldr	r0, .L17+32
 1064 0698 0B99     		ldr	r1, [sp, #44]
 1065 069a 8CEA0302 		eor	r2, ip, r3
 1066 069e 0844     		add	r0, r0, r1
 1067              		.loc 1 194 0
 1068 06a0 6A40     		eors	r2, r2, r5
 1069 06a2 0C99     		ldr	r1, [sp, #48]
 1070 06a4 8044     		add	r8, r8, r0
 1071              	.LVL96:
 1072 06a6 9044     		add	r8, r8, r2
 1073              	.LVL97:
 1074 06a8 05EB782E 		add	lr, r5, r8, ror #9
 1075              	.LVL98:
 1076 06ac 0C44     		add	r4, r4, r1
 1077 06ae 85EA0C00 		eor	r0, r5, ip
 1078              		.loc 1 195 0
 1079 06b2 80EA0E00 		eor	r0, r0, lr
ARM GAS  C:\Users\jo\AppData\Local\Temp\ccBWvOPb.s 			page 20


 1080 06b6 2344     		add	r3, r3, r4
 1081              	.LVL99:
 1082 06b8 0344     		add	r3, r3, r0
 1083              	.LVL100:
 1084 06ba 0EEB3374 		add	r4, lr, r3, ror #28
 1085              	.LVL101:
 1086 06be 954A     		ldr	r2, .L17+36
 1087 06c0 009B     		ldr	r3, [sp]
 1088 06c2 9549     		ldr	r1, .L17+40
 1089 06c4 1A44     		add	r2, r2, r3
 1090 06c6 8EEA0500 		eor	r0, lr, r5
 1091              		.loc 1 196 0
 1092 06ca 6040     		eors	r0, r0, r4
 1093 06cc 9444     		add	ip, ip, r2
 1094              	.LVL102:
 1095 06ce 0CEB0002 		add	r2, ip, r0
 1096              	.LVL103:
 1097 06d2 0298     		ldr	r0, [sp, #8]
 1098 06d4 914B     		ldr	r3, .L17+44
 1099 06d6 04EB7252 		add	r2, r4, r2, ror #21
 1100              	.LVL104:
 1101 06da 0144     		add	r1, r1, r0
 1102 06dc 84EA0E0C 		eor	ip, r4, lr
 1103              		.loc 1 197 0
 1104 06e0 8CEA020C 		eor	ip, ip, r2
 1105 06e4 0D44     		add	r5, r5, r1
 1106              	.LVL105:
 1107 06e6 6544     		add	r5, r5, ip
 1108              	.LVL106:
 1109 06e8 02EB3541 		add	r1, r2, r5, ror #16
 1110              	.LVL107:
 1111 06ec 8C48     		ldr	r0, .L17+48
 1112 06ee 049D     		ldr	r5, [sp, #16]
 1113 06f0 2844     		add	r0, r0, r5
 1114 06f2 82EA0405 		eor	r5, r2, r4
 1115              		.loc 1 198 0
 1116 06f6 4D40     		eors	r5, r5, r1
 1117 06f8 8644     		add	lr, lr, r0
 1118              	.LVL108:
 1119 06fa 0EEB0500 		add	r0, lr, r5
 1120              	.LVL109:
 1121 06fe 01EB7020 		add	r0, r1, r0, ror #9
 1122              	.LVL110:
 1123 0702 4B44     		add	r3, r3, r9
 1124 0704 81EA020E 		eor	lr, r1, r2
 1125              		.loc 1 199 0
 1126 0708 8EEA000E 		eor	lr, lr, r0
 1127 070c 1C44     		add	r4, r4, r3
 1128              	.LVL111:
 1129 070e 7444     		add	r4, r4, lr
 1130              	.LVL112:
 1131 0710 00EB3478 		add	r8, r0, r4, ror #28
 1132              	.LVL113:
 1133 0714 834B     		ldr	r3, .L17+52
 1134 0716 089C     		ldr	r4, [sp, #32]
 1135 0718 834D     		ldr	r5, .L17+56
 1136 071a 2344     		add	r3, r3, r4
ARM GAS  C:\Users\jo\AppData\Local\Temp\ccBWvOPb.s 			page 21


 1137 071c 80EA0104 		eor	r4, r0, r1
 1138              		.loc 1 200 0
 1139 0720 84EA0804 		eor	r4, r4, r8
 1140 0724 1A44     		add	r2, r2, r3
 1141              	.LVL114:
 1142 0726 1319     		adds	r3, r2, r4
 1143              	.LVL115:
 1144 0728 08EB7353 		add	r3, r8, r3, ror #21
 1145              	.LVL116:
 1146 072c 5D44     		add	r5, r5, fp
 1147 072e 88EA0002 		eor	r2, r8, r0
 1148              		.loc 1 201 0
 1149 0732 5A40     		eors	r2, r2, r3
 1150 0734 2944     		add	r1, r1, r5
 1151              	.LVL117:
 1152 0736 1144     		add	r1, r1, r2
 1153              	.LVL118:
 1154 0738 03EB314C 		add	ip, r3, r1, ror #16
 1155              	.LVL119:
 1156 073c 7B4C     		ldr	r4, .L17+60
 1157 073e 0999     		ldr	r1, [sp, #36]
 1158 0740 7B4D     		ldr	r5, .L17+64
 1159 0742 0C44     		add	r4, r4, r1
 1160 0744 83EA0802 		eor	r2, r3, r8
 1161              		.loc 1 202 0
 1162 0748 82EA0C02 		eor	r2, r2, ip
 1163 074c 2044     		add	r0, r0, r4
 1164              	.LVL120:
 1165 074e 1044     		add	r0, r0, r2
 1166              	.LVL121:
 1167 0750 009A     		ldr	r2, [sp]
 1168 0752 784C     		ldr	r4, .L17+68
 1169 0754 7849     		ldr	r1, .L17+72
 1170 0756 0CEB702E 		add	lr, ip, r0, ror #9
 1171              	.LVL122:
 1172 075a 1544     		add	r5, r5, r2
 1173              		.loc 1 208 0
 1174 075c 6EEA0302 		orn	r2, lr, r3
 1175 0760 82EA0C02 		eor	r2, r2, ip
 1176 0764 4544     		add	r5, r5, r8
 1177              	.LVL123:
 1178 0766 7548     		ldr	r0, .L17+76
 1179 0768 0090     		str	r0, [sp]
 1180 076a 1544     		add	r5, r5, r2
 1181              	.LVL124:
 1182 076c 0598     		ldr	r0, [sp, #20]
 1183 076e 744A     		ldr	r2, .L17+80
 1184 0770 0EEBB565 		add	r5, lr, r5, ror #26
 1185              	.LVL125:
 1186 0774 0244     		add	r2, r2, r0
 1187              		.loc 1 209 0
 1188 0776 65EA0C08 		orn	r8, r5, ip
 1189 077a 88EA0E08 		eor	r8, r8, lr
 1190 077e 1344     		add	r3, r3, r2
 1191              	.LVL126:
 1192 0780 03EB0802 		add	r2, r3, r8
 1193              	.LVL127:
ARM GAS  C:\Users\jo\AppData\Local\Temp\ccBWvOPb.s 			page 22


 1194 0784 05EBB252 		add	r2, r5, r2, ror #22
 1195              	.LVL128:
 1196 0788 3C44     		add	r4, r4, r7
 1197              		.loc 1 210 0
 1198 078a 62EA0E03 		orn	r3, r2, lr
 1199 078e 6B40     		eors	r3, r3, r5
 1200 0790 A444     		add	ip, ip, r4
 1201              	.LVL129:
 1202 0792 0098     		ldr	r0, [sp]
 1203 0794 6B4F     		ldr	r7, .L17+84
 1204 0796 0597     		str	r7, [sp, #20]
 1205 0798 0CEB0304 		add	r4, ip, r3
 1206              	.LVL130:
 1207 079c 02EB7444 		add	r4, r2, r4, ror #17
 1208              	.LVL131:
 1209 07a0 3044     		add	r0, r0, r6
 1210              		.loc 1 211 0
 1211 07a2 64EA0503 		orn	r3, r4, r5
 1212 07a6 5340     		eors	r3, r3, r2
 1213 07a8 8644     		add	lr, lr, r0
 1214              	.LVL132:
 1215 07aa 0EEB0300 		add	r0, lr, r3
 1216              	.LVL133:
 1217 07ae 089B     		ldr	r3, [sp, #32]
 1218 07b0 DFF8B881 		ldr	r8, .L17+124
 1219 07b4 DFF8B8E1 		ldr	lr, .L17+128
 1220 07b8 634F     		ldr	r7, .L17+88
 1221 07ba 644E     		ldr	r6, .L17+92
 1222 07bc 04EBF020 		add	r0, r4, r0, ror #11
 1223              	.LVL134:
 1224 07c0 1944     		add	r1, r1, r3
 1225              		.loc 1 212 0
 1226 07c2 60EA0203 		orn	r3, r0, r2
 1227 07c6 6340     		eors	r3, r3, r4
 1228 07c8 2944     		add	r1, r1, r5
 1229              	.LVL135:
 1230 07ca 1944     		add	r1, r1, r3
 1231              	.LVL136:
 1232 07cc 604B     		ldr	r3, .L17+96
 1233 07ce 0093     		str	r3, [sp]
 1234 07d0 604B     		ldr	r3, .L17+100
 1235 07d2 0893     		str	r3, [sp, #32]
 1236 07d4 604D     		ldr	r5, .L17+104
 1237 07d6 029B     		ldr	r3, [sp, #8]
 1238 07d8 00EBB161 		add	r1, r0, r1, ror #26
 1239              	.LVL137:
 1240 07dc 1D44     		add	r5, r5, r3
 1241              		.loc 1 213 0
 1242 07de 61EA040C 		orn	ip, r1, r4
 1243 07e2 2B46     		mov	r3, r5
 1244 07e4 8CEA000C 		eor	ip, ip, r0
 1245 07e8 1344     		add	r3, r3, r2
 1246              	.LVL138:
 1247 07ea 0B9A     		ldr	r2, [sp, #44]
 1248 07ec 6344     		add	r3, r3, ip
 1249              	.LVL139:
 1250 07ee 01EBB353 		add	r3, r1, r3, ror #22
ARM GAS  C:\Users\jo\AppData\Local\Temp\ccBWvOPb.s 			page 23


 1251              	.LVL140:
 1252 07f2 A2F5801C 		sub	ip, r2, #1048576
 1253 07f6 ACF6833C 		subw	ip, ip, #2947
 1254              		.loc 1 214 0
 1255 07fa 63EA0002 		orn	r2, r3, r0
 1256 07fe 4A40     		eors	r2, r2, r1
 1257 0800 6444     		add	r4, r4, ip
 1258              	.LVL141:
 1259 0802 1444     		add	r4, r4, r2
 1260              	.LVL142:
 1261 0804 019A     		ldr	r2, [sp, #4]
 1262 0806 9446     		mov	ip, r2
 1263 0808 009A     		ldr	r2, [sp]
 1264 080a 6244     		add	r2, r2, ip
 1265 080c 0092     		str	r2, [sp]
 1266 080e 03EB7444 		add	r4, r3, r4, ror #17
 1267              	.LVL143:
 1268 0812 009D     		ldr	r5, [sp]
 1269              		.loc 1 215 0
 1270 0814 64EA0102 		orn	r2, r4, r1
 1271 0818 5A40     		eors	r2, r2, r3
 1272 081a 2844     		add	r0, r0, r5
 1273              	.LVL144:
 1274 081c 1044     		add	r0, r0, r2
 1275              	.LVL145:
 1276 081e 059D     		ldr	r5, [sp, #20]
 1277 0820 069A     		ldr	r2, [sp, #24]
 1278 0822 04EBF020 		add	r0, r4, r0, ror #11
 1279              	.LVL146:
 1280 0826 2A44     		add	r2, r2, r5
 1281              		.loc 1 216 0
 1282 0828 60EA030C 		orn	ip, r0, r3
 1283 082c 8CEA040C 		eor	ip, ip, r4
 1284 0830 1144     		add	r1, r1, r2
 1285              	.LVL147:
 1286 0832 089A     		ldr	r2, [sp, #32]
 1287 0834 6144     		add	r1, r1, ip
 1288              	.LVL148:
 1289 0836 00EBB161 		add	r1, r0, r1, ror #26
 1290              	.LVL149:
 1291 083a 5A44     		add	r2, fp, r2
 1292 083c 1546     		mov	r5, r2
 1293              		.loc 1 217 0
 1294 083e 61EA0402 		orn	r2, r1, r4
 1295 0842 4240     		eors	r2, r2, r0
 1296 0844 2B44     		add	r3, r3, r5
 1297              	.LVL150:
 1298 0846 1344     		add	r3, r3, r2
 1299              	.LVL151:
 1300 0848 049D     		ldr	r5, [sp, #16]
 1301 084a 0C9A     		ldr	r2, [sp, #48]
 1302 084c 01EBB353 		add	r3, r1, r3, ror #22
 1303              	.LVL152:
 1304 0850 A844     		add	r8, r8, r5
 1305              		.loc 1 218 0
 1306 0852 63EA0005 		orn	r5, r3, r0
 1307 0856 4D40     		eors	r5, r5, r1
ARM GAS  C:\Users\jo\AppData\Local\Temp\ccBWvOPb.s 			page 24


 1308 0858 A044     		add	r8, r8, r4
 1309              	.LVL153:
 1310 085a A844     		add	r8, r8, r5
 1311              	.LVL154:
 1312 085c 03EB7848 		add	r8, r3, r8, ror #17
 1313              	.LVL155:
 1314              		.loc 1 219 0
 1315 0860 68EA0104 		orn	r4, r8, r1
 1316 0864 9644     		add	lr, lr, r2
 1317 0866 5C40     		eors	r4, r4, r3
 1318 0868 8644     		add	lr, lr, r0
 1319              	.LVL156:
 1320 086a A644     		add	lr, lr, r4
 1321              	.LVL157:
 1322 086c 039C     		ldr	r4, [sp, #12]
 1323 086e 3B48     		ldr	r0, .L17+108
 1324 0870 08EBFE2E 		add	lr, r8, lr, ror #11
 1325              	.LVL158:
 1326 0874 2744     		add	r7, r7, r4
 1327              		.loc 1 220 0
 1328 0876 6EEA0302 		orn	r2, lr, r3
 1329 087a 82EA0802 		eor	r2, r2, r8
 1330 087e 3944     		add	r1, r1, r7
 1331              	.LVL159:
 1332 0880 079C     		ldr	r4, [sp, #28]
 1333 0882 1144     		add	r1, r1, r2
 1334              	.LVL160:
 1335 0884 0EEBB161 		add	r1, lr, r1, ror #26
 1336              	.LVL161:
 1337              		.loc 1 221 0
 1338 0888 61EA0802 		orn	r2, r1, r8
 1339 088c 2644     		add	r6, r6, r4
 1340 088e 3344     		add	r3, r3, r6
 1341              	.LVL162:
 1342 0890 82EA0E06 		eor	r6, r2, lr
 1343 0894 3344     		add	r3, r3, r6
 1344              	.LVL163:
 1345 0896 324C     		ldr	r4, .L17+112
 1346 0898 099E     		ldr	r6, [sp, #36]
 1347 089a DAF80C20 		ldr	r2, [r10, #12]
 1348 089e 01EBB353 		add	r3, r1, r3, ror #22
 1349              	.LVL164:
 1350 08a2 3444     		add	r4, r4, r6
 1351              		.loc 1 222 0
 1352 08a4 63EA0E05 		orn	r5, r3, lr
 1353 08a8 4D40     		eors	r5, r5, r1
 1354 08aa A044     		add	r8, r8, r4
 1355              	.LVL165:
 1356 08ac A844     		add	r8, r8, r5
 1357              	.LVL166:
 1358 08ae 03EB7848 		add	r8, r3, r8, ror #17
 1359              	.LVL167:
 1360 08b2 4844     		add	r0, r0, r9
 1361 08b4 08EB0209 		add	r9, r8, r2
 1362              		.loc 1 227 0
 1363 08b8 DAF80820 		ldr	r2, [r10, #8]
 1364              		.loc 1 223 0
ARM GAS  C:\Users\jo\AppData\Local\Temp\ccBWvOPb.s 			page 25


 1365 08bc 68EA0104 		orn	r4, r8, r1
 1366              		.loc 1 227 0
 1367 08c0 1144     		add	r1, r1, r2
 1368              	.LVL168:
 1369              		.loc 1 230 0
 1370 08c2 DAF81420 		ldr	r2, [r10, #20]
 1371              		.loc 1 227 0
 1372 08c6 CAF80810 		str	r1, [r10, #8]
 1373              	.LVL169:
 1374              		.loc 1 223 0
 1375 08ca 5C40     		eors	r4, r4, r3
 1376 08cc 8644     		add	lr, lr, r0
 1377              	.LVL170:
 1378              		.loc 1 230 0
 1379 08ce 1344     		add	r3, r3, r2
 1380              	.LVL171:
 1381              		.loc 1 229 0
 1382 08d0 DAF81020 		ldr	r2, [r10, #16]
 1383              		.loc 1 230 0
 1384 08d4 CAF81430 		str	r3, [r10, #20]
 1385              		.loc 1 223 0
 1386 08d8 A644     		add	lr, lr, r4
 1387              		.loc 1 229 0
 1388 08da 08EB0200 		add	r0, r8, r2
 1389              		.loc 1 228 0
 1390 08de 09EBFE24 		add	r4, r9, lr, ror #11
 1391              		.loc 1 229 0
 1392 08e2 CAF81000 		str	r0, [r10, #16]
 1393              		.loc 1 228 0
 1394 08e6 CAF80C40 		str	r4, [r10, #12]
 1395              		.loc 1 231 0
 1396 08ea 2FB0     		add	sp, sp, #188
 1397              		.cfi_def_cfa_offset 36
 1398              		@ sp needed
 1399 08ec BDE8F08F 		pop	{r4, r5, r6, r7, r8, r9, r10, fp, pc}
 1400              	.LVL172:
 1401              	.L18:
 1402              		.align	2
 1403              	.L17:
 1404 08f0 D9026F67 		.word	1735328473
 1405 08f4 8A4C2A8D 		.word	-1926607734
 1406 08f8 22619D6D 		.word	1839030562
 1407 08fc 0C38E5FD 		.word	-35309556
 1408 0900 44EABEA4 		.word	-1530992060
 1409 0904 A9CFDE4B 		.word	1272893353
 1410 0908 604BBBF6 		.word	-155497632
 1411 090c C67E9B28 		.word	681279174
 1412 0910 70BCBFBE 		.word	-1094730640
 1413 0914 FA27A1EA 		.word	-358537222
 1414 0918 8530EFD4 		.word	-722521979
 1415 091c 39D0D4D9 		.word	-640364487
 1416 0920 051D8804 		.word	76029189
 1417 0924 E599DBE6 		.word	-421815835
 1418 0928 F87CA21F 		.word	530742520
 1419 092c 6556ACC4 		.word	-995338651
 1420 0930 442229F4 		.word	-198630844
 1421 0934 A72394AB 		.word	-1416354905
ARM GAS  C:\Users\jo\AppData\Local\Temp\ccBWvOPb.s 			page 26


 1422 0938 C3595B65 		.word	1700485571
 1423 093c 39A093FC 		.word	-57434055
 1424 0940 97FF2A43 		.word	1126891415
 1425 0944 4F7EA86F 		.word	1873313359
 1426 0948 827E53F7 		.word	-145523070
 1427 094c 35F23ABD 		.word	-1120210379
 1428 0950 D15D8485 		.word	-2054922799
 1429 0954 E0E62CFE 		.word	-30611744
 1430 0958 92CC0C8F 		.word	-1894986606
 1431 095c 91D386EB 		.word	-343485551
 1432 0960 BBD2D72A 		.word	718787259
 1433 0964 F8A3EFFC 		.word	-51403784
 1434 0968 81F67187 		.word	-2022574463
 1435 096c 144301A3 		.word	-1560198380
 1436 0970 A111084E 		.word	1309151649
 1437              		.cfi_endproc
 1438              	.LFE4:
 1439              		.size	md5_process, .-md5_process
 1440 0974 AFF30080 		.section	.text.md5_update.part.0,"ax",%progbits
 1440      AFF30080 
 1440      AFF30080 
 1441              		.align	2
 1442              		.p2align 4,,15
 1443              		.thumb
 1444              		.thumb_func
 1445              		.type	md5_update.part.0, %function
 1446              	md5_update.part.0:
 1447              	.LFB15:
 1448              		.loc 1 236 0
 1449              		.cfi_startproc
 1450              		@ args = 0, pretend = 0, frame = 0
 1451              		@ frame_needed = 0, uses_anonymous_args = 0
 1452              	.LVL173:
 1453 0000 2DE9F843 		push	{r3, r4, r5, r6, r7, r8, r9, lr}
 1454              		.cfi_def_cfa_offset 32
 1455              		.cfi_offset 3, -32
 1456              		.cfi_offset 4, -28
 1457              		.cfi_offset 5, -24
 1458              		.cfi_offset 6, -20
 1459              		.cfi_offset 7, -16
 1460              		.cfi_offset 8, -12
 1461              		.cfi_offset 9, -8
 1462              		.cfi_offset 14, -4
 1463              		.loc 1 236 0
 1464 0004 0646     		mov	r6, r0
 1465              		.loc 1 244 0
 1466 0006 0068     		ldr	r0, [r0]
 1467              	.LVL174:
 1468              		.loc 1 247 0
 1469 0008 1318     		adds	r3, r2, r0
 1470              		.loc 1 250 0
 1471 000a 9A42     		cmp	r2, r3
 1472              		.loc 1 236 0
 1473 000c 1746     		mov	r7, r2
 1474 000e 8946     		mov	r9, r1
 1475              		.loc 1 247 0
 1476 0010 3360     		str	r3, [r6]
ARM GAS  C:\Users\jo\AppData\Local\Temp\ccBWvOPb.s 			page 27


 1477              		.loc 1 244 0
 1478 0012 00F03F08 		and	r8, r0, #63
 1479              	.LVL175:
 1480              		.loc 1 250 0
 1481 0016 02D9     		bls	.L20
 1482              		.loc 1 251 0
 1483 0018 7368     		ldr	r3, [r6, #4]
 1484 001a 0133     		adds	r3, r3, #1
 1485 001c 7360     		str	r3, [r6, #4]
 1486              	.L20:
 1487              		.loc 1 253 0
 1488 001e B8F1000F 		cmp	r8, #0
 1489 0022 16D0     		beq	.L21
 1490              		.loc 1 245 0
 1491 0024 C8F14004 		rsb	r4, r8, #64
 1492              		.loc 1 253 0
 1493 0028 BC42     		cmp	r4, r7
 1494 002a 02D9     		bls	.L31
 1495              	.LVL176:
 1496              	.L23:
 1497              		.loc 1 269 0
 1498 002c 47BB     		cbnz	r7, .L32
 1499              	.LVL177:
 1500              	.L19:
 1501 002e BDE8F883 		pop	{r3, r4, r5, r6, r7, r8, r9, pc}
 1502              	.LVL178:
 1503              	.L31:
 1504              		.loc 1 255 0
 1505 0032 08F11800 		add	r0, r8, #24
 1506 0036 4946     		mov	r1, r9
 1507              	.LVL179:
 1508 0038 2246     		mov	r2, r4
 1509              	.LVL180:
 1510 003a 3044     		add	r0, r0, r6
 1511 003c FFF7FEFF 		bl	memcpy
 1512              	.LVL181:
 1513              		.loc 1 256 0
 1514 0040 3046     		mov	r0, r6
 1515 0042 06F11801 		add	r1, r6, #24
 1516 0046 FFF7FEFF 		bl	md5_process
 1517              	.LVL182:
 1518              		.loc 1 258 0
 1519 004a 3F1B     		subs	r7, r7, r4
 1520              	.LVL183:
 1521              		.loc 1 257 0
 1522 004c A144     		add	r9, r9, r4
 1523              	.LVL184:
 1524              		.loc 1 259 0
 1525 004e 4FF00008 		mov	r8, #0
 1526              	.LVL185:
 1527              	.L21:
 1528              		.loc 1 262 0
 1529 0052 3F2F     		cmp	r7, #63
 1530 0054 EAD9     		bls	.L23
 1531 0056 3D46     		mov	r5, r7
 1532 0058 4C46     		mov	r4, r9
 1533              	.LVL186:
ARM GAS  C:\Users\jo\AppData\Local\Temp\ccBWvOPb.s 			page 28


 1534              	.L24:
 1535              		.loc 1 264 0
 1536 005a 2146     		mov	r1, r4
 1537              		.loc 1 266 0
 1538 005c 403D     		subs	r5, r5, #64
 1539              	.LVL187:
 1540              		.loc 1 264 0
 1541 005e 3046     		mov	r0, r6
 1542 0060 FFF7FEFF 		bl	md5_process
 1543              	.LVL188:
 1544              		.loc 1 262 0
 1545 0064 3F2D     		cmp	r5, #63
 1546              		.loc 1 265 0
 1547 0066 04F14004 		add	r4, r4, #64
 1548              	.LVL189:
 1549              		.loc 1 262 0
 1550 006a F6D8     		bhi	.L24
 1551 006c A7F14003 		sub	r3, r7, #64
 1552 0070 23F03F03 		bic	r3, r3, #63
 1553 0074 4033     		adds	r3, r3, #64
 1554 0076 07F03F07 		and	r7, r7, #63
 1555 007a 9944     		add	r9, r9, r3
 1556              		.loc 1 269 0
 1557 007c 002F     		cmp	r7, #0
 1558 007e D6D0     		beq	.L19
 1559              	.LVL190:
 1560              	.L32:
 1561              		.loc 1 271 0
 1562 0080 08F11800 		add	r0, r8, #24
 1563 0084 3044     		add	r0, r0, r6
 1564 0086 4946     		mov	r1, r9
 1565 0088 3A46     		mov	r2, r7
 1566              		.loc 1 273 0
 1567 008a BDE8F843 		pop	{r3, r4, r5, r6, r7, r8, r9, lr}
 1568              		.cfi_restore 14
 1569              		.cfi_restore 9
 1570              		.cfi_restore 8
 1571              		.cfi_restore 7
 1572              		.cfi_restore 6
 1573              		.cfi_restore 5
 1574              		.cfi_restore 4
 1575              		.cfi_restore 3
 1576              		.cfi_def_cfa_offset 0
 1577              	.LVL191:
 1578              		.loc 1 271 0
 1579 008e FFF7FEBF 		b	memcpy
 1580              	.LVL192:
 1581              		.cfi_endproc
 1582              	.LFE15:
 1583              		.size	md5_update.part.0, .-md5_update.part.0
 1584 0092 00BFAFF3 		.section	.text.md5_update,"ax",%progbits
 1584      0080AFF3 
 1584      0080AFF3 
 1584      0080
 1585              		.align	2
 1586              		.p2align 4,,15
 1587              		.global	md5_update
ARM GAS  C:\Users\jo\AppData\Local\Temp\ccBWvOPb.s 			page 29


 1588              		.thumb
 1589              		.thumb_func
 1590              		.type	md5_update, %function
 1591              	md5_update:
 1592              	.LFB5:
 1593              		.loc 1 237 0
 1594              		.cfi_startproc
 1595              		@ args = 0, pretend = 0, frame = 0
 1596              		@ frame_needed = 0, uses_anonymous_args = 0
 1597              		@ link register save eliminated.
 1598              	.LVL193:
 1599              		.loc 1 241 0
 1600 0000 0AB1     		cbz	r2, .L33
 1601 0002 FFF7FEBF 		b	md5_update.part.0
 1602              	.LVL194:
 1603              	.L33:
 1604 0006 7047     		bx	lr
 1605              		.cfi_endproc
 1606              	.LFE5:
 1607              		.size	md5_update, .-md5_update
 1608 0008 AFF30080 		.section	.text.md5_finish,"ax",%progbits
 1608      AFF30080 
 1609              		.align	2
 1610              		.p2align 4,,15
 1611              		.global	md5_finish
 1612              		.thumb
 1613              		.thumb_func
 1614              		.type	md5_finish, %function
 1615              	md5_finish:
 1616              	.LFB6:
 1617              		.loc 1 287 0
 1618              		.cfi_startproc
 1619              		@ args = 0, pretend = 0, frame = 8
 1620              		@ frame_needed = 0, uses_anonymous_args = 0
 1621              	.LVL195:
 1622 0000 2DE9F041 		push	{r4, r5, r6, r7, r8, lr}
 1623              		.cfi_def_cfa_offset 24
 1624              		.cfi_offset 4, -24
 1625              		.cfi_offset 5, -20
 1626              		.cfi_offset 6, -16
 1627              		.cfi_offset 7, -12
 1628              		.cfi_offset 8, -8
 1629              		.cfi_offset 14, -4
 1630              		.loc 1 292 0
 1631 0004 0268     		ldr	r2, [r0]
 1632              		.loc 1 287 0
 1633 0006 0D46     		mov	r5, r1
 1634              		.loc 1 293 0
 1635 0008 4168     		ldr	r1, [r0, #4]
 1636              	.LVL196:
 1637              		.loc 1 292 0
 1638 000a 530F     		lsrs	r3, r2, #29
 1639              		.loc 1 287 0
 1640 000c 82B0     		sub	sp, sp, #8
 1641              		.cfi_def_cfa_offset 32
 1642              		.loc 1 292 0
 1643 000e 43EAC103 		orr	r3, r3, r1, lsl #3
ARM GAS  C:\Users\jo\AppData\Local\Temp\ccBWvOPb.s 			page 30


 1644              	.LVL197:
 1645              		.loc 1 294 0
 1646 0012 D100     		lsls	r1, r2, #3
 1647              	.LVL198:
 1648              		.loc 1 299 0
 1649 0014 02F03F02 		and	r2, r2, #63
 1650              	.LVL199:
 1651              		.loc 1 287 0
 1652 0018 0446     		mov	r4, r0
 1653              		.loc 1 300 0
 1654 001a 372A     		cmp	r2, #55
 1655              		.loc 1 296 0
 1656 001c 4FEA1160 		lsr	r0, r1, #24
 1657              	.LVL200:
 1658              		.loc 1 297 0
 1659 0020 4FEA1328 		lsr	r8, r3, #8
 1660 0024 4FEA134C 		lsr	ip, r3, #16
 1661 0028 4FEA136E 		lsr	lr, r3, #24
 1662              		.loc 1 300 0
 1663 002c 94BF     		ite	ls
 1664 002e C2F13802 		rsbls	r2, r2, #56
 1665              	.LVL201:
 1666 0032 C2F17802 		rsbhi	r2, r2, #120
 1667              	.LVL202:
 1668              		.loc 1 296 0
 1669 0036 0F0A     		lsrs	r7, r1, #8
 1670 0038 0E0C     		lsrs	r6, r1, #16
 1671 003a 8DF80010 		strb	r1, [sp]
 1672 003e 8DF80300 		strb	r0, [sp, #3]
 1673              	.LBB64:
 1674              	.LBB65:
 1675 0042 1E49     		ldr	r1, .L39
 1676              	.LVL203:
 1677              	.LBE65:
 1678              	.LBE64:
 1679              		.loc 1 297 0
 1680 0044 8DF80430 		strb	r3, [sp, #4]
 1681              	.LBB68:
 1682              	.LBB66:
 1683 0048 2046     		mov	r0, r4
 1684              	.LBE66:
 1685              	.LBE68:
 1686 004a 8DF806C0 		strb	ip, [sp, #6]
 1687 004e 8DF807E0 		strb	lr, [sp, #7]
 1688 0052 8DF80580 		strb	r8, [sp, #5]
 1689              		.loc 1 296 0
 1690 0056 8DF80170 		strb	r7, [sp, #1]
 1691 005a 8DF80260 		strb	r6, [sp, #2]
 1692              	.LBB69:
 1693              	.LBB67:
 1694 005e FFF7FEFF 		bl	md5_update.part.0
 1695              	.LVL204:
 1696              	.LBE67:
 1697              	.LBE69:
 1698              	.LBB70:
 1699              	.LBB71:
 1700 0062 2046     		mov	r0, r4
ARM GAS  C:\Users\jo\AppData\Local\Temp\ccBWvOPb.s 			page 31


 1701 0064 6946     		mov	r1, sp
 1702 0066 0822     		movs	r2, #8
 1703 0068 FFF7FEFF 		bl	md5_update.part.0
 1704              	.LVL205:
 1705              	.LBE71:
 1706              	.LBE70:
 1707              		.loc 1 305 0
 1708 006c A368     		ldr	r3, [r4, #8]
 1709 006e 2B70     		strb	r3, [r5]
 1710 0070 A368     		ldr	r3, [r4, #8]
 1711 0072 1B0A     		lsrs	r3, r3, #8
 1712 0074 6B70     		strb	r3, [r5, #1]
 1713 0076 6389     		ldrh	r3, [r4, #10]
 1714 0078 AB70     		strb	r3, [r5, #2]
 1715 007a E37A     		ldrb	r3, [r4, #11]	@ zero_extendqisi2
 1716 007c EB70     		strb	r3, [r5, #3]
 1717              		.loc 1 306 0
 1718 007e E368     		ldr	r3, [r4, #12]
 1719 0080 2B71     		strb	r3, [r5, #4]
 1720 0082 E368     		ldr	r3, [r4, #12]
 1721 0084 1B0A     		lsrs	r3, r3, #8
 1722 0086 6B71     		strb	r3, [r5, #5]
 1723 0088 E389     		ldrh	r3, [r4, #14]
 1724 008a AB71     		strb	r3, [r5, #6]
 1725 008c E37B     		ldrb	r3, [r4, #15]	@ zero_extendqisi2
 1726 008e EB71     		strb	r3, [r5, #7]
 1727              		.loc 1 307 0
 1728 0090 2369     		ldr	r3, [r4, #16]
 1729 0092 2B72     		strb	r3, [r5, #8]
 1730 0094 2369     		ldr	r3, [r4, #16]
 1731 0096 1B0A     		lsrs	r3, r3, #8
 1732 0098 6B72     		strb	r3, [r5, #9]
 1733 009a 638A     		ldrh	r3, [r4, #18]
 1734 009c AB72     		strb	r3, [r5, #10]
 1735 009e E37C     		ldrb	r3, [r4, #19]	@ zero_extendqisi2
 1736 00a0 EB72     		strb	r3, [r5, #11]
 1737              		.loc 1 308 0
 1738 00a2 6369     		ldr	r3, [r4, #20]
 1739 00a4 2B73     		strb	r3, [r5, #12]
 1740 00a6 6369     		ldr	r3, [r4, #20]
 1741 00a8 1B0A     		lsrs	r3, r3, #8
 1742 00aa 6B73     		strb	r3, [r5, #13]
 1743 00ac E38A     		ldrh	r3, [r4, #22]
 1744 00ae AB73     		strb	r3, [r5, #14]
 1745 00b0 E37D     		ldrb	r3, [r4, #23]	@ zero_extendqisi2
 1746 00b2 EB73     		strb	r3, [r5, #15]
 1747              		.loc 1 309 0
 1748 00b4 02B0     		add	sp, sp, #8
 1749              		.cfi_def_cfa_offset 24
 1750              	.LVL206:
 1751              		@ sp needed
 1752 00b6 BDE8F081 		pop	{r4, r5, r6, r7, r8, pc}
 1753              	.LVL207:
 1754              	.L40:
 1755 00ba 00BF     		.align	2
 1756              	.L39:
 1757 00bc 00000000 		.word	.LANCHOR0
ARM GAS  C:\Users\jo\AppData\Local\Temp\ccBWvOPb.s 			page 32


 1758              		.cfi_endproc
 1759              	.LFE6:
 1760              		.size	md5_finish, .-md5_finish
 1761              		.section	.text.md5,"ax",%progbits
 1762              		.align	2
 1763              		.p2align 4,,15
 1764              		.global	md5
 1765              		.thumb
 1766              		.thumb_func
 1767              		.type	md5, %function
 1768              	md5:
 1769              	.LFB7:
 1770              		.loc 1 317 0
 1771              		.cfi_startproc
 1772              		@ args = 0, pretend = 0, frame = 216
 1773              		@ frame_needed = 0, uses_anonymous_args = 0
 1774              	.LVL208:
 1775 0000 70B5     		push	{r4, r5, r6, lr}
 1776              		.cfi_def_cfa_offset 16
 1777              		.cfi_offset 4, -16
 1778              		.cfi_offset 5, -12
 1779              		.cfi_offset 6, -8
 1780              		.cfi_offset 14, -4
 1781 0002 B6B0     		sub	sp, sp, #216
 1782              		.cfi_def_cfa_offset 232
 1783              	.LVL209:
 1784              		.loc 1 317 0
 1785 0004 0646     		mov	r6, r0
 1786 0006 0C46     		mov	r4, r1
 1787 0008 1546     		mov	r5, r2
 1788              	.LBB72:
 1789              	.LBB73:
 1790              		.loc 1 85 0
 1791 000a 0021     		movs	r1, #0
 1792              	.LVL210:
 1793 000c D822     		movs	r2, #216
 1794              	.LVL211:
 1795 000e 6846     		mov	r0, sp
 1796              	.LVL212:
 1797 0010 FFF7FEFF 		bl	memset
 1798              	.LVL213:
 1799              	.LBE73:
 1800              	.LBE72:
 1801              	.LBB74:
 1802              	.LBB75:
 1803              		.loc 1 104 0
 1804 0014 0D48     		ldr	r0, .L50
 1805              		.loc 1 105 0
 1806 0016 0E49     		ldr	r1, .L50+4
 1807              		.loc 1 106 0
 1808 0018 0E4A     		ldr	r2, .L50+8
 1809              		.loc 1 107 0
 1810 001a 0F4B     		ldr	r3, .L50+12
 1811              		.loc 1 104 0
 1812 001c 0290     		str	r0, [sp, #8]
 1813              		.loc 1 105 0
 1814 001e 0391     		str	r1, [sp, #12]
ARM GAS  C:\Users\jo\AppData\Local\Temp\ccBWvOPb.s 			page 33


 1815              		.loc 1 106 0
 1816 0020 0492     		str	r2, [sp, #16]
 1817              		.loc 1 107 0
 1818 0022 0593     		str	r3, [sp, #20]
 1819              	.LVL214:
 1820              	.LBE75:
 1821              	.LBE74:
 1822              	.LBB76:
 1823              	.LBB77:
 1824              		.loc 1 241 0
 1825 0024 64B9     		cbnz	r4, .L49
 1826              	.L42:
 1827              	.LBE77:
 1828              	.LBE76:
 1829              		.loc 1 323 0
 1830 0026 2946     		mov	r1, r5
 1831 0028 6846     		mov	r0, sp
 1832 002a FFF7FEFF 		bl	md5_finish
 1833              	.LVL215:
 1834 002e 6B46     		mov	r3, sp
 1835              	.LBB79:
 1836              	.LBB80:
 1837              	.LBB81:
 1838              		.loc 1 55 0
 1839 0030 0022     		movs	r2, #0
 1840              	.LVL216:
 1841              	.L43:
 1842 0032 1A70     		strb	r2, [r3]
 1843              	.LVL217:
 1844 0034 36A9     		add	r1, sp, #216
 1845 0036 0133     		adds	r3, r3, #1
 1846              	.LVL218:
 1847 0038 8B42     		cmp	r3, r1
 1848 003a FAD1     		bne	.L43
 1849              	.LBE81:
 1850              	.LBE80:
 1851              	.LBE79:
 1852              		.loc 1 325 0
 1853 003c 36B0     		add	sp, sp, #216
 1854              		.cfi_remember_state
 1855              		.cfi_def_cfa_offset 16
 1856              	.LVL219:
 1857              		@ sp needed
 1858 003e 70BD     		pop	{r4, r5, r6, pc}
 1859              	.LVL220:
 1860              	.L49:
 1861              		.cfi_restore_state
 1862              	.LBB82:
 1863              	.LBB78:
 1864 0040 3146     		mov	r1, r6
 1865 0042 2246     		mov	r2, r4
 1866 0044 6846     		mov	r0, sp
 1867 0046 FFF7FEFF 		bl	md5_update.part.0
 1868              	.LVL221:
 1869 004a ECE7     		b	.L42
 1870              	.L51:
 1871              		.align	2
ARM GAS  C:\Users\jo\AppData\Local\Temp\ccBWvOPb.s 			page 34


 1872              	.L50:
 1873 004c 01234567 		.word	1732584193
 1874 0050 89ABCDEF 		.word	-271733879
 1875 0054 FEDCBA98 		.word	-1732584194
 1876 0058 76543210 		.word	271733878
 1877              	.LBE78:
 1878              	.LBE82:
 1879              		.cfi_endproc
 1880              	.LFE7:
 1881              		.size	md5, .-md5
 1882 005c AFF30080 		.section	.text.md5_file,"ax",%progbits
 1883              		.align	2
 1884              		.p2align 4,,15
 1885              		.global	md5_file
 1886              		.thumb
 1887              		.thumb_func
 1888              		.type	md5_file, %function
 1889              	md5_file:
 1890              	.LFB8:
 1891              		.loc 1 332 0
 1892              		.cfi_startproc
 1893              		@ args = 0, pretend = 0, frame = 1240
 1894              		@ frame_needed = 0, uses_anonymous_args = 0
 1895              	.LVL222:
 1896 0000 F0B5     		push	{r4, r5, r6, r7, lr}
 1897              		.cfi_def_cfa_offset 20
 1898              		.cfi_offset 4, -20
 1899              		.cfi_offset 5, -16
 1900              		.cfi_offset 6, -12
 1901              		.cfi_offset 7, -8
 1902              		.cfi_offset 14, -4
 1903 0002 0F46     		mov	r7, r1
 1904 0004 ADF2DC4D 		subw	sp, sp, #1244
 1905              		.cfi_def_cfa_offset 1264
 1906              		.loc 1 338 0
 1907 0008 2049     		ldr	r1, .L63
 1908              	.LVL223:
 1909 000a FFF7FEFF 		bl	fopen
 1910              	.LVL224:
 1911 000e 0646     		mov	r6, r0
 1912 0010 0028     		cmp	r0, #0
 1913 0012 37D0     		beq	.L58
 1914              	.LVL225:
 1915              	.LBB83:
 1916              	.LBB84:
 1917              		.loc 1 85 0
 1918 0014 0021     		movs	r1, #0
 1919 0016 D822     		movs	r2, #216
 1920 0018 6846     		mov	r0, sp
 1921              	.LVL226:
 1922 001a FFF7FEFF 		bl	memset
 1923              	.LVL227:
 1924              	.LBE84:
 1925              	.LBE83:
 1926              	.LBB85:
 1927              	.LBB86:
 1928              		.loc 1 104 0
ARM GAS  C:\Users\jo\AppData\Local\Temp\ccBWvOPb.s 			page 35


 1929 001e 1C48     		ldr	r0, .L63+4
 1930              		.loc 1 105 0
 1931 0020 1C49     		ldr	r1, .L63+8
 1932              		.loc 1 106 0
 1933 0022 1D4A     		ldr	r2, .L63+12
 1934              		.loc 1 107 0
 1935 0024 1D4B     		ldr	r3, .L63+16
 1936              		.loc 1 104 0
 1937 0026 0290     		str	r0, [sp, #8]
 1938              		.loc 1 105 0
 1939 0028 0391     		str	r1, [sp, #12]
 1940              		.loc 1 106 0
 1941 002a 0492     		str	r2, [sp, #16]
 1942              		.loc 1 107 0
 1943 002c 0593     		str	r3, [sp, #20]
 1944 002e 36AD     		add	r5, sp, #216
 1945              	.L54:
 1946              	.LBE86:
 1947              	.LBE85:
 1948              		.loc 1 344 0
 1949 0030 0121     		movs	r1, #1
 1950 0032 4FF48062 		mov	r2, #1024
 1951 0036 2846     		mov	r0, r5
 1952 0038 3346     		mov	r3, r6
 1953 003a FFF7FEFF 		bl	fread
 1954              	.LVL228:
 1955              	.LBB87:
 1956              	.LBB88:
 1957 003e 2946     		mov	r1, r5
 1958              	.LBE88:
 1959              	.LBE87:
 1960 0040 0446     		mov	r4, r0
 1961              	.LVL229:
 1962              	.LBB91:
 1963              	.LBB89:
 1964 0042 0246     		mov	r2, r0
 1965              	.LBE89:
 1966              	.LBE91:
 1967 0044 18B1     		cbz	r0, .L61
 1968              	.LVL230:
 1969              	.LBB92:
 1970              	.LBB90:
 1971 0046 6846     		mov	r0, sp
 1972              	.LVL231:
 1973 0048 FFF7FEFF 		bl	md5_update.part.0
 1974              	.LVL232:
 1975 004c F0E7     		b	.L54
 1976              	.LVL233:
 1977              	.L61:
 1978              	.LBE90:
 1979              	.LBE92:
 1980              		.loc 1 347 0
 1981 004e 6846     		mov	r0, sp
 1982              	.LVL234:
 1983 0050 3946     		mov	r1, r7
 1984              	.LVL235:
 1985 0052 FFF7FEFF 		bl	md5_finish
ARM GAS  C:\Users\jo\AppData\Local\Temp\ccBWvOPb.s 			page 36


 1986              	.LVL236:
 1987 0056 6B46     		mov	r3, sp
 1988              	.LBB93:
 1989              	.LBB94:
 1990              	.LBB95:
 1991              		.loc 1 55 0
 1992 0058 2046     		mov	r0, r4
 1993              	.LVL237:
 1994              	.L56:
 1995 005a 1870     		strb	r0, [r3]
 1996              	.LVL238:
 1997 005c 0133     		adds	r3, r3, #1
 1998              	.LVL239:
 1999 005e AB42     		cmp	r3, r5
 2000 0060 FBD1     		bne	.L56
 2001              	.LBE95:
 2002              	.LBE94:
 2003              	.LBE93:
 2004              		.loc 1 350 0
 2005 0062 B489     		ldrh	r4, [r6, #12]
 2006 0064 04F04004 		and	r4, r4, #64
 2007 0068 A4B2     		uxth	r4, r4
 2008              		.loc 1 352 0
 2009 006a 3046     		mov	r0, r6
 2010              	.LVL240:
 2011              		.loc 1 350 0
 2012 006c 2CB9     		cbnz	r4, .L62
 2013              	.LVL241:
 2014              		.loc 1 356 0
 2015 006e FFF7FEFF 		bl	fclose
 2016              	.LVL242:
 2017              		.loc 1 357 0
 2018 0072 2046     		mov	r0, r4
 2019              	.LVL243:
 2020              	.L53:
 2021              		.loc 1 358 0
 2022 0074 0DF2DC4D 		addw	sp, sp, #1244
 2023              		.cfi_remember_state
 2024              		.cfi_def_cfa_offset 20
 2025              		@ sp needed
 2026 0078 F0BD     		pop	{r4, r5, r6, r7, pc}
 2027              	.LVL244:
 2028              	.L62:
 2029              		.cfi_restore_state
 2030              		.loc 1 352 0
 2031 007a FFF7FEFF 		bl	fclose
 2032              	.LVL245:
 2033              		.loc 1 353 0
 2034 007e 6FF07300 		mvn	r0, #115
 2035 0082 F7E7     		b	.L53
 2036              	.LVL246:
 2037              	.L58:
 2038              		.loc 1 339 0
 2039 0084 6FF07300 		mvn	r0, #115
 2040              	.LVL247:
 2041 0088 F4E7     		b	.L53
 2042              	.L64:
ARM GAS  C:\Users\jo\AppData\Local\Temp\ccBWvOPb.s 			page 37


 2043 008a 00BF     		.align	2
 2044              	.L63:
 2045 008c 00000000 		.word	.LC0
 2046 0090 01234567 		.word	1732584193
 2047 0094 89ABCDEF 		.word	-271733879
 2048 0098 FEDCBA98 		.word	-1732584194
 2049 009c 76543210 		.word	271733878
 2050              		.cfi_endproc
 2051              	.LFE8:
 2052              		.size	md5_file, .-md5_file
 2053              		.section	.text.md5_hmac_starts,"ax",%progbits
 2054              		.align	2
 2055              		.p2align 4,,15
 2056              		.global	md5_hmac_starts
 2057              		.thumb
 2058              		.thumb_func
 2059              		.type	md5_hmac_starts, %function
 2060              	md5_hmac_starts:
 2061              	.LFB9:
 2062              		.loc 1 366 0
 2063              		.cfi_startproc
 2064              		@ args = 0, pretend = 0, frame = 16
 2065              		@ frame_needed = 0, uses_anonymous_args = 0
 2066              	.LVL248:
 2067 0000 2DE9F043 		push	{r4, r5, r6, r7, r8, r9, lr}
 2068              		.cfi_def_cfa_offset 28
 2069              		.cfi_offset 4, -28
 2070              		.cfi_offset 5, -24
 2071              		.cfi_offset 6, -20
 2072              		.cfi_offset 7, -16
 2073              		.cfi_offset 8, -12
 2074              		.cfi_offset 9, -8
 2075              		.cfi_offset 14, -4
 2076              		.loc 1 370 0
 2077 0004 402A     		cmp	r2, #64
 2078              		.loc 1 366 0
 2079 0006 85B0     		sub	sp, sp, #20
 2080              		.cfi_def_cfa_offset 48
 2081              		.loc 1 366 0
 2082 0008 1546     		mov	r5, r2
 2083 000a 0646     		mov	r6, r0
 2084 000c 8946     		mov	r9, r1
 2085              		.loc 1 370 0
 2086 000e 42D8     		bhi	.L77
 2087              		.loc 1 377 0
 2088 0010 00F15807 		add	r7, r0, #88
 2089 0014 3621     		movs	r1, #54
 2090              	.LVL249:
 2091 0016 4022     		movs	r2, #64
 2092              	.LVL250:
 2093 0018 3846     		mov	r0, r7
 2094              	.LVL251:
 2095              		.loc 1 378 0
 2096 001a 06F19808 		add	r8, r6, #152
 2097              		.loc 1 377 0
 2098 001e FFF7FEFF 		bl	memset
 2099              	.LVL252:
ARM GAS  C:\Users\jo\AppData\Local\Temp\ccBWvOPb.s 			page 38


 2100              		.loc 1 378 0
 2101 0022 4046     		mov	r0, r8
 2102 0024 5C21     		movs	r1, #92
 2103 0026 4022     		movs	r2, #64
 2104 0028 FFF7FEFF 		bl	memset
 2105              	.LVL253:
 2106 002c 6C46     		mov	r4, sp
 2107              		.loc 1 380 0
 2108 002e BDB1     		cbz	r5, .L68
 2109              	.LVL254:
 2110              	.L67:
 2111 0030 06F1570E 		add	lr, r6, #87
 2112 0034 4946     		mov	r1, r9
 2113 0036 4046     		mov	r0, r8
 2114              		.loc 1 374 0 discriminator 3
 2115 0038 F446     		mov	ip, lr
 2116 003a 0022     		movs	r2, #0
 2117              	.LVL255:
 2118              	.L69:
 2119              		.loc 1 382 0 discriminator 3
 2120 003c 91F80080 		ldrb	r8, [r1]	@ zero_extendqisi2
 2121 0040 1CF8013F 		ldrb	r3, [ip, #1]!	@ zero_extendqisi2
 2122 0044 88EA0303 		eor	r3, r8, r3
 2123 0048 0EF8013F 		strb	r3, [lr, #1]!
 2124              		.loc 1 383 0 discriminator 3
 2125 004c 11F8018B 		ldrb	r8, [r1], #1	@ zero_extendqisi2
 2126 0050 0378     		ldrb	r3, [r0]	@ zero_extendqisi2
 2127              		.loc 1 380 0 discriminator 3
 2128 0052 0132     		adds	r2, r2, #1
 2129              	.LVL256:
 2130              		.loc 1 383 0 discriminator 3
 2131 0054 88EA0303 		eor	r3, r8, r3
 2132              		.loc 1 380 0 discriminator 3
 2133 0058 AA42     		cmp	r2, r5
 2134              		.loc 1 383 0 discriminator 3
 2135 005a 00F8013B 		strb	r3, [r0], #1
 2136              		.loc 1 380 0 discriminator 3
 2137 005e EDD3     		bcc	.L69
 2138              	.LVL257:
 2139              	.L68:
 2140              	.LBB96:
 2141              	.LBB97:
 2142              		.loc 1 101 0
 2143 0060 0025     		movs	r5, #0
 2144              	.LVL258:
 2145              		.loc 1 107 0
 2146 0062 184B     		ldr	r3, .L78
 2147              		.loc 1 104 0
 2148 0064 DFF868E0 		ldr	lr, .L78+12
 2149              		.loc 1 105 0
 2150 0068 1748     		ldr	r0, .L78+4
 2151              		.loc 1 106 0
 2152 006a 184A     		ldr	r2, .L78+8
 2153              		.loc 1 105 0
 2154 006c F060     		str	r0, [r6, #12]
 2155              		.loc 1 106 0
 2156 006e 3261     		str	r2, [r6, #16]
ARM GAS  C:\Users\jo\AppData\Local\Temp\ccBWvOPb.s 			page 39


 2157              		.loc 1 107 0
 2158 0070 7361     		str	r3, [r6, #20]
 2159              		.loc 1 101 0
 2160 0072 3560     		str	r5, [r6]
 2161              	.LVL259:
 2162              	.LBE97:
 2163              	.LBE96:
 2164              	.LBB99:
 2165              	.LBB100:
 2166 0074 3946     		mov	r1, r7
 2167              	.LBE100:
 2168              	.LBE99:
 2169              	.LBB102:
 2170              	.LBB98:
 2171              		.loc 1 102 0
 2172 0076 7560     		str	r5, [r6, #4]
 2173              		.loc 1 104 0
 2174 0078 C6F808E0 		str	lr, [r6, #8]
 2175              	.LBE98:
 2176              	.LBE102:
 2177              	.LBB103:
 2178              	.LBB101:
 2179 007c 3046     		mov	r0, r6
 2180 007e 4022     		movs	r2, #64
 2181 0080 FFF7FEFF 		bl	md5_update.part.0
 2182              	.LVL260:
 2183              	.LBE101:
 2184              	.LBE103:
 2185              	.LBB104:
 2186              	.LBB105:
 2187              		.loc 1 55 0
 2188 0084 2B46     		mov	r3, r5
 2189              	.LVL261:
 2190              	.L70:
 2191 0086 2370     		strb	r3, [r4]
 2192              	.LVL262:
 2193 0088 04AA     		add	r2, sp, #16
 2194 008a 0134     		adds	r4, r4, #1
 2195              	.LVL263:
 2196 008c 9442     		cmp	r4, r2
 2197 008e FAD1     		bne	.L70
 2198              	.LBE105:
 2199              	.LBE104:
 2200              		.loc 1 390 0
 2201 0090 05B0     		add	sp, sp, #20
 2202              		.cfi_remember_state
 2203              		.cfi_def_cfa_offset 28
 2204              		@ sp needed
 2205 0092 BDE8F083 		pop	{r4, r5, r6, r7, r8, r9, pc}
 2206              	.LVL264:
 2207              	.L77:
 2208              		.cfi_restore_state
 2209              		.loc 1 372 0
 2210 0096 0846     		mov	r0, r1
 2211              	.LVL265:
 2212              		.loc 1 377 0
 2213 0098 06F15807 		add	r7, r6, #88
ARM GAS  C:\Users\jo\AppData\Local\Temp\ccBWvOPb.s 			page 40


 2214              		.loc 1 372 0
 2215 009c 1146     		mov	r1, r2
 2216              	.LVL266:
 2217 009e 6A46     		mov	r2, sp
 2218              	.LVL267:
 2219 00a0 FFF7FEFF 		bl	md5
 2220              	.LVL268:
 2221              		.loc 1 378 0
 2222 00a4 06F19808 		add	r8, r6, #152
 2223              		.loc 1 377 0
 2224 00a8 3621     		movs	r1, #54
 2225 00aa 4022     		movs	r2, #64
 2226 00ac 3846     		mov	r0, r7
 2227 00ae FFF7FEFF 		bl	memset
 2228              	.LVL269:
 2229              		.loc 1 378 0
 2230 00b2 4046     		mov	r0, r8
 2231 00b4 5C21     		movs	r1, #92
 2232 00b6 4022     		movs	r2, #64
 2233              		.loc 1 372 0
 2234 00b8 6C46     		mov	r4, sp
 2235              		.loc 1 378 0
 2236 00ba FFF7FEFF 		bl	memset
 2237              	.LVL270:
 2238              		.loc 1 374 0
 2239 00be E946     		mov	r9, sp
 2240              		.loc 1 373 0
 2241 00c0 1025     		movs	r5, #16
 2242 00c2 B5E7     		b	.L67
 2243              	.L79:
 2244              		.align	2
 2245              	.L78:
 2246 00c4 76543210 		.word	271733878
 2247 00c8 89ABCDEF 		.word	-271733879
 2248 00cc FEDCBA98 		.word	-1732584194
 2249 00d0 01234567 		.word	1732584193
 2250              		.cfi_endproc
 2251              	.LFE9:
 2252              		.size	md5_hmac_starts, .-md5_hmac_starts
 2253 00d4 AFF30080 		.section	.text.md5_hmac_update,"ax",%progbits
 2253      AFF30080 
 2253      AFF30080 
 2254              		.align	2
 2255              		.p2align 4,,15
 2256              		.global	md5_hmac_update
 2257              		.thumb
 2258              		.thumb_func
 2259              		.type	md5_hmac_update, %function
 2260              	md5_hmac_update:
 2261              	.LFB10:
 2262              		.loc 1 397 0
 2263              		.cfi_startproc
 2264              		@ args = 0, pretend = 0, frame = 0
 2265              		@ frame_needed = 0, uses_anonymous_args = 0
 2266              		@ link register save eliminated.
 2267              	.LVL271:
 2268              	.LBB106:
ARM GAS  C:\Users\jo\AppData\Local\Temp\ccBWvOPb.s 			page 41


 2269              	.LBB107:
 2270              		.loc 1 241 0
 2271 0000 02B9     		cbnz	r2, .L82
 2272 0002 7047     		bx	lr
 2273              	.L82:
 2274 0004 FFF7FEBF 		b	md5_update.part.0
 2275              	.LVL272:
 2276              	.LBE107:
 2277              	.LBE106:
 2278              		.cfi_endproc
 2279              	.LFE10:
 2280              		.size	md5_hmac_update, .-md5_hmac_update
 2281 0008 AFF30080 		.section	.text.md5_hmac_finish,"ax",%progbits
 2281      AFF30080 
 2282              		.align	2
 2283              		.p2align 4,,15
 2284              		.global	md5_hmac_finish
 2285              		.thumb
 2286              		.thumb_func
 2287              		.type	md5_hmac_finish, %function
 2288              	md5_hmac_finish:
 2289              	.LFB11:
 2290              		.loc 1 405 0
 2291              		.cfi_startproc
 2292              		@ args = 0, pretend = 0, frame = 16
 2293              		@ frame_needed = 0, uses_anonymous_args = 0
 2294              	.LVL273:
 2295 0000 70B5     		push	{r4, r5, r6, lr}
 2296              		.cfi_def_cfa_offset 16
 2297              		.cfi_offset 4, -16
 2298              		.cfi_offset 5, -12
 2299              		.cfi_offset 6, -8
 2300              		.cfi_offset 14, -4
 2301 0002 84B0     		sub	sp, sp, #16
 2302              		.cfi_def_cfa_offset 32
 2303              		.loc 1 405 0
 2304 0004 0546     		mov	r5, r0
 2305 0006 0E46     		mov	r6, r1
 2306              		.loc 1 408 0
 2307 0008 6946     		mov	r1, sp
 2308              	.LVL274:
 2309 000a FFF7FEFF 		bl	md5_finish
 2310              	.LVL275:
 2311              	.LBB108:
 2312              	.LBB109:
 2313              		.loc 1 101 0
 2314 000e 0024     		movs	r4, #0
 2315              		.loc 1 107 0
 2316 0010 104B     		ldr	r3, .L87
 2317              		.loc 1 104 0
 2318 0012 1148     		ldr	r0, .L87+4
 2319              		.loc 1 105 0
 2320 0014 1149     		ldr	r1, .L87+8
 2321              		.loc 1 106 0
 2322 0016 124A     		ldr	r2, .L87+12
 2323              		.loc 1 107 0
 2324 0018 6B61     		str	r3, [r5, #20]
ARM GAS  C:\Users\jo\AppData\Local\Temp\ccBWvOPb.s 			page 42


 2325              	.LVL276:
 2326              		.loc 1 104 0
 2327 001a A860     		str	r0, [r5, #8]
 2328              		.loc 1 105 0
 2329 001c E960     		str	r1, [r5, #12]
 2330              		.loc 1 106 0
 2331 001e 2A61     		str	r2, [r5, #16]
 2332              	.LBE109:
 2333              	.LBE108:
 2334              	.LBB111:
 2335              	.LBB112:
 2336 0020 2846     		mov	r0, r5
 2337 0022 05F19801 		add	r1, r5, #152
 2338              	.LVL277:
 2339 0026 4022     		movs	r2, #64
 2340              	.LBE112:
 2341              	.LBE111:
 2342              	.LBB114:
 2343              	.LBB110:
 2344              		.loc 1 101 0
 2345 0028 2C60     		str	r4, [r5]
 2346              		.loc 1 102 0
 2347 002a 6C60     		str	r4, [r5, #4]
 2348              	.LBE110:
 2349              	.LBE114:
 2350              	.LBB115:
 2351              	.LBB113:
 2352 002c FFF7FEFF 		bl	md5_update.part.0
 2353              	.LVL278:
 2354              	.LBE113:
 2355              	.LBE115:
 2356              	.LBB116:
 2357              	.LBB117:
 2358 0030 1022     		movs	r2, #16
 2359 0032 2846     		mov	r0, r5
 2360 0034 6946     		mov	r1, sp
 2361 0036 FFF7FEFF 		bl	md5_update.part.0
 2362              	.LVL279:
 2363              	.LBE117:
 2364              	.LBE116:
 2365              		.loc 1 412 0
 2366 003a 2846     		mov	r0, r5
 2367 003c 3146     		mov	r1, r6
 2368 003e FFF7FEFF 		bl	md5_finish
 2369              	.LVL280:
 2370              	.LBB118:
 2371              	.LBB119:
 2372              		.loc 1 55 0
 2373 0042 6B46     		mov	r3, sp
 2374 0044 2246     		mov	r2, r4
 2375              	.LVL281:
 2376              	.L84:
 2377 0046 1A70     		strb	r2, [r3]
 2378              	.LVL282:
 2379 0048 04A9     		add	r1, sp, #16
 2380 004a 0133     		adds	r3, r3, #1
 2381              	.LVL283:
ARM GAS  C:\Users\jo\AppData\Local\Temp\ccBWvOPb.s 			page 43


 2382 004c 8B42     		cmp	r3, r1
 2383 004e FAD1     		bne	.L84
 2384              	.LBE119:
 2385              	.LBE118:
 2386              		.loc 1 415 0
 2387 0050 04B0     		add	sp, sp, #16
 2388              		.cfi_def_cfa_offset 16
 2389              	.LVL284:
 2390              		@ sp needed
 2391 0052 70BD     		pop	{r4, r5, r6, pc}
 2392              	.LVL285:
 2393              	.L88:
 2394              		.align	2
 2395              	.L87:
 2396 0054 76543210 		.word	271733878
 2397 0058 01234567 		.word	1732584193
 2398 005c 89ABCDEF 		.word	-271733879
 2399 0060 FEDCBA98 		.word	-1732584194
 2400              		.cfi_endproc
 2401              	.LFE11:
 2402              		.size	md5_hmac_finish, .-md5_hmac_finish
 2403 0064 AFF30080 		.section	.text.md5_hmac_reset,"ax",%progbits
 2403      AFF30080 
 2403      AFF30080 
 2404              		.align	2
 2405              		.p2align 4,,15
 2406              		.global	md5_hmac_reset
 2407              		.thumb
 2408              		.thumb_func
 2409              		.type	md5_hmac_reset, %function
 2410              	md5_hmac_reset:
 2411              	.LFB12:
 2412              		.loc 1 421 0
 2413              		.cfi_startproc
 2414              		@ args = 0, pretend = 0, frame = 0
 2415              		@ frame_needed = 0, uses_anonymous_args = 0
 2416              		@ link register save eliminated.
 2417              	.LVL286:
 2418 0000 30B4     		push	{r4, r5}
 2419              		.cfi_def_cfa_offset 8
 2420              		.cfi_offset 4, -8
 2421              		.cfi_offset 5, -4
 2422              	.LBB120:
 2423              	.LBB121:
 2424              		.loc 1 104 0
 2425 0002 084B     		ldr	r3, .L91
 2426              		.loc 1 105 0
 2427 0004 084D     		ldr	r5, .L91+4
 2428              		.loc 1 106 0
 2429 0006 094C     		ldr	r4, .L91+8
 2430              		.loc 1 107 0
 2431 0008 094A     		ldr	r2, .L91+12
 2432              		.loc 1 104 0
 2433 000a 8360     		str	r3, [r0, #8]
 2434              	.LBE121:
 2435              	.LBE120:
 2436              		.loc 1 421 0
ARM GAS  C:\Users\jo\AppData\Local\Temp\ccBWvOPb.s 			page 44


 2437 000c 0146     		mov	r1, r0
 2438              	.LVL287:
 2439              	.LBB123:
 2440              	.LBB122:
 2441              		.loc 1 101 0
 2442 000e 0023     		movs	r3, #0
 2443              		.loc 1 105 0
 2444 0010 C560     		str	r5, [r0, #12]
 2445              		.loc 1 106 0
 2446 0012 0461     		str	r4, [r0, #16]
 2447              		.loc 1 107 0
 2448 0014 4261     		str	r2, [r0, #20]
 2449              	.LVL288:
 2450              		.loc 1 101 0
 2451 0016 0360     		str	r3, [r0]
 2452              		.loc 1 102 0
 2453 0018 4360     		str	r3, [r0, #4]
 2454              	.LBE122:
 2455              	.LBE123:
 2456              	.LBB124:
 2457              	.LBB125:
 2458 001a 5831     		adds	r1, r1, #88
 2459              	.LVL289:
 2460 001c 4022     		movs	r2, #64
 2461              	.LBE125:
 2462              	.LBE124:
 2463              		.loc 1 424 0
 2464 001e 30BC     		pop	{r4, r5}
 2465              		.cfi_restore 5
 2466              		.cfi_restore 4
 2467              		.cfi_def_cfa_offset 0
 2468              	.LBB127:
 2469              	.LBB126:
 2470 0020 FFF7FEBF 		b	md5_update.part.0
 2471              	.LVL290:
 2472              	.L92:
 2473              		.align	2
 2474              	.L91:
 2475 0024 01234567 		.word	1732584193
 2476 0028 89ABCDEF 		.word	-271733879
 2477 002c FEDCBA98 		.word	-1732584194
 2478 0030 76543210 		.word	271733878
 2479              	.LBE126:
 2480              	.LBE127:
 2481              		.cfi_endproc
 2482              	.LFE12:
 2483              		.size	md5_hmac_reset, .-md5_hmac_reset
 2484 0034 AFF30080 		.section	.text.md5_hmac,"ax",%progbits
 2484      AFF30080 
 2484      AFF30080 
 2485              		.align	2
 2486              		.p2align 4,,15
 2487              		.global	md5_hmac
 2488              		.thumb
 2489              		.thumb_func
 2490              		.type	md5_hmac, %function
 2491              	md5_hmac:
ARM GAS  C:\Users\jo\AppData\Local\Temp\ccBWvOPb.s 			page 45


 2492              	.LFB13:
 2493              		.loc 1 432 0
 2494              		.cfi_startproc
 2495              		@ args = 4, pretend = 0, frame = 216
 2496              		@ frame_needed = 0, uses_anonymous_args = 0
 2497              	.LVL291:
 2498 0000 F0B5     		push	{r4, r5, r6, r7, lr}
 2499              		.cfi_def_cfa_offset 20
 2500              		.cfi_offset 4, -20
 2501              		.cfi_offset 5, -16
 2502              		.cfi_offset 6, -12
 2503              		.cfi_offset 7, -8
 2504              		.cfi_offset 14, -4
 2505 0002 B7B0     		sub	sp, sp, #220
 2506              		.cfi_def_cfa_offset 240
 2507              	.LVL292:
 2508              		.loc 1 432 0
 2509 0004 0646     		mov	r6, r0
 2510 0006 0D46     		mov	r5, r1
 2511 0008 1746     		mov	r7, r2
 2512              	.LBB128:
 2513              	.LBB129:
 2514              		.loc 1 85 0
 2515 000a 0021     		movs	r1, #0
 2516              	.LVL293:
 2517 000c D822     		movs	r2, #216
 2518              	.LVL294:
 2519 000e 6846     		mov	r0, sp
 2520              	.LVL295:
 2521              	.LBE129:
 2522              	.LBE128:
 2523              		.loc 1 432 0
 2524 0010 1C46     		mov	r4, r3
 2525              	.LBB131:
 2526              	.LBB130:
 2527              		.loc 1 85 0
 2528 0012 FFF7FEFF 		bl	memset
 2529              	.LVL296:
 2530              	.LBE130:
 2531              	.LBE131:
 2532              		.loc 1 436 0
 2533 0016 6846     		mov	r0, sp
 2534 0018 3146     		mov	r1, r6
 2535 001a 2A46     		mov	r2, r5
 2536 001c FFF7FEFF 		bl	md5_hmac_starts
 2537              	.LVL297:
 2538              	.LBB132:
 2539              	.LBB133:
 2540              	.LBB134:
 2541              		.loc 1 241 0
 2542 0020 64B9     		cbnz	r4, .L101
 2543              	.L94:
 2544              	.LBE134:
 2545              	.LBE133:
 2546              	.LBE132:
 2547              		.loc 1 438 0
 2548 0022 6846     		mov	r0, sp
ARM GAS  C:\Users\jo\AppData\Local\Temp\ccBWvOPb.s 			page 46


 2549 0024 3C99     		ldr	r1, [sp, #240]
 2550 0026 FFF7FEFF 		bl	md5_hmac_finish
 2551              	.LVL298:
 2552 002a 6B46     		mov	r3, sp
 2553              	.LBB137:
 2554              	.LBB138:
 2555              	.LBB139:
 2556              		.loc 1 55 0
 2557 002c 0022     		movs	r2, #0
 2558              	.LVL299:
 2559              	.L95:
 2560 002e 1A70     		strb	r2, [r3]
 2561              	.LVL300:
 2562 0030 36A9     		add	r1, sp, #216
 2563 0032 0133     		adds	r3, r3, #1
 2564              	.LVL301:
 2565 0034 8B42     		cmp	r3, r1
 2566 0036 FAD1     		bne	.L95
 2567              	.LBE139:
 2568              	.LBE138:
 2569              	.LBE137:
 2570              		.loc 1 440 0
 2571 0038 37B0     		add	sp, sp, #220
 2572              		.cfi_remember_state
 2573              		.cfi_def_cfa_offset 20
 2574              	.LVL302:
 2575              		@ sp needed
 2576 003a F0BD     		pop	{r4, r5, r6, r7, pc}
 2577              	.LVL303:
 2578              	.L101:
 2579              		.cfi_restore_state
 2580              	.LBB140:
 2581              	.LBB136:
 2582              	.LBB135:
 2583 003c 3946     		mov	r1, r7
 2584 003e 2246     		mov	r2, r4
 2585 0040 6846     		mov	r0, sp
 2586 0042 FFF7FEFF 		bl	md5_update.part.0
 2587              	.LVL304:
 2588 0046 ECE7     		b	.L94
 2589              	.LBE135:
 2590              	.LBE136:
 2591              	.LBE140:
 2592              		.cfi_endproc
 2593              	.LFE13:
 2594              		.size	md5_hmac, .-md5_hmac
 2595 0048 AFF30080 		.section	.text.md5_self_test,"ax",%progbits
 2595      AFF30080 
 2596              		.align	2
 2597              		.p2align 4,,15
 2598              		.global	md5_self_test
 2599              		.thumb
 2600              		.thumb_func
 2601              		.type	md5_self_test, %function
 2602              	md5_self_test:
 2603              	.LFB14:
 2604              		.loc 1 548 0
ARM GAS  C:\Users\jo\AppData\Local\Temp\ccBWvOPb.s 			page 47


 2605              		.cfi_startproc
 2606              		@ args = 0, pretend = 0, frame = 1256
 2607              		@ frame_needed = 0, uses_anonymous_args = 0
 2608              	.LVL305:
 2609 0000 2DE9F04F 		push	{r4, r5, r6, r7, r8, r9, r10, fp, lr}
 2610              		.cfi_def_cfa_offset 36
 2611              		.cfi_offset 4, -36
 2612              		.cfi_offset 5, -32
 2613              		.cfi_offset 6, -28
 2614              		.cfi_offset 7, -24
 2615              		.cfi_offset 8, -20
 2616              		.cfi_offset 9, -16
 2617              		.cfi_offset 10, -12
 2618              		.cfi_offset 11, -8
 2619              		.cfi_offset 14, -4
 2620 0004 4B4C     		ldr	r4, .L151
 2621 0006 4C4F     		ldr	r7, .L151+4
 2622 0008 4C4E     		ldr	r6, .L151+8
 2623 000a ADF2EC4D 		subw	sp, sp, #1260
 2624              		.cfi_def_cfa_offset 1296
 2625              		.loc 1 548 0
 2626 000e 0546     		mov	r5, r0
 2627 0010 04F11C09 		add	r9, r4, #28
 2628 0014 4FF00108 		mov	r8, #1
 2629              	.LVL306:
 2630              	.L107:
 2631              		.loc 1 556 0
 2632 0018 002D     		cmp	r5, #0
 2633 001a 4DD1     		bne	.L143
 2634              	.L103:
 2635              		.loc 1 559 0
 2636 001c 3846     		mov	r0, r7
 2637 001e 54F8041F 		ldr	r1, [r4, #4]!
 2638 0022 6A46     		mov	r2, sp
 2639 0024 FFF7FEFF 		bl	md5
 2640              	.LVL307:
 2641              		.loc 1 561 0
 2642 0028 3146     		mov	r1, r6
 2643 002a 6846     		mov	r0, sp
 2644 002c 1022     		movs	r2, #16
 2645 002e FFF7FEFF 		bl	memcmp
 2646              	.LVL308:
 2647 0032 08F10108 		add	r8, r8, #1
 2648              	.LVL309:
 2649 0036 5137     		adds	r7, r7, #81
 2650 0038 1036     		adds	r6, r6, #16
 2651 003a 0028     		cmp	r0, #0
 2652 003c 5BD1     		bne	.L114
 2653              		.loc 1 569 0
 2654 003e 002D     		cmp	r5, #0
 2655 0040 3FD1     		bne	.L144
 2656              	.L106:
 2657              	.LVL310:
 2658              		.loc 1 554 0 discriminator 2
 2659 0042 4C45     		cmp	r4, r9
 2660 0044 E8D1     		bne	.L107
 2661              		.loc 1 573 0
ARM GAS  C:\Users\jo\AppData\Local\Temp\ccBWvOPb.s 			page 48


 2662 0046 002D     		cmp	r5, #0
 2663 0048 63D1     		bne	.L145
 2664              	.L108:
 2665              	.LVL311:
 2666 004a 3D4F     		ldr	r7, .L151+12
 2667 004c DFF80881 		ldr	r8, .L151+36
 2668 0050 3C4E     		ldr	r6, .L151+16
 2669 0052 DFF808B1 		ldr	fp, .L151+40
 2670              		.loc 1 588 0 discriminator 1
 2671 0056 DFF808A1 		ldr	r10, .L151+44
 2672              		.loc 1 548 0 discriminator 1
 2673 005a 0024     		movs	r4, #0
 2674              	.LVL312:
 2675              	.L116:
 2676              		.loc 1 578 0
 2677 005c 002D     		cmp	r5, #0
 2678 005e 39D1     		bne	.L146
 2679              	.L109:
 2680 0060 631F     		subs	r3, r4, #5
 2681              		.loc 1 581 0
 2682 0062 012B     		cmp	r3, #1
 2683 0064 59D9     		bls	.L147
 2684              		.loc 1 587 0
 2685 0066 04A8     		add	r0, sp, #16
 2686 0068 3146     		mov	r1, r6
 2687 006a 5AF82420 		ldr	r2, [r10, r4, lsl #2]
 2688 006e 4FEA8409 		lsl	r9, r4, #2
 2689 0072 FFF7FEFF 		bl	md5_hmac_starts
 2690              	.LVL313:
 2691              	.L111:
 2692              		.loc 1 590 0
 2693 0076 5BF80920 		ldr	r2, [fp, r9]
 2694              	.LVL314:
 2695              	.LBB141:
 2696              	.LBB142:
 2697              	.LBB143:
 2698              		.loc 1 241 0
 2699 007a 32BB     		cbnz	r2, .L148
 2700              	.LVL315:
 2701              	.L112:
 2702              	.LBE143:
 2703              	.LBE142:
 2704              	.LBE141:
 2705              		.loc 1 593 0
 2706 007c 04A8     		add	r0, sp, #16
 2707              	.LVL316:
 2708 007e 6946     		mov	r1, sp
 2709 0080 FFF7FEFF 		bl	md5_hmac_finish
 2710              	.LVL317:
 2711              		.loc 1 595 0
 2712 0084 042C     		cmp	r4, #4
 2713              		.loc 1 597 0
 2714 0086 0CBF     		ite	eq
 2715 0088 0C22     		moveq	r2, #12
 2716 008a 1022     		movne	r2, #16
 2717 008c 6846     		mov	r0, sp
 2718 008e 3946     		mov	r1, r7
ARM GAS  C:\Users\jo\AppData\Local\Temp\ccBWvOPb.s 			page 49


 2719 0090 FFF7FEFF 		bl	memcmp
 2720              	.LVL318:
 2721 0094 8146     		mov	r9, r0
 2722              	.LVL319:
 2723 0096 70BB     		cbnz	r0, .L114
 2724              		.loc 1 605 0
 2725 0098 0DBB     		cbnz	r5, .L149
 2726              	.L115:
 2727              		.loc 1 576 0 discriminator 2
 2728 009a 0134     		adds	r4, r4, #1
 2729              	.LVL320:
 2730 009c 072C     		cmp	r4, #7
 2731 009e 07F11007 		add	r7, r7, #16
 2732 00a2 08F14A08 		add	r8, r8, #74
 2733 00a6 06F11A06 		add	r6, r6, #26
 2734 00aa D7D1     		bne	.L116
 2735              		.loc 1 609 0
 2736 00ac DDB9     		cbnz	r5, .L150
 2737              	.LVL321:
 2738              	.L105:
 2739              		.loc 1 613 0
 2740 00ae 4846     		mov	r0, r9
 2741 00b0 0DF2EC4D 		addw	sp, sp, #1260
 2742              		.cfi_remember_state
 2743              		.cfi_def_cfa_offset 36
 2744              		@ sp needed
 2745 00b4 BDE8F08F 		pop	{r4, r5, r6, r7, r8, r9, r10, fp, pc}
 2746              	.LVL322:
 2747              	.L143:
 2748              		.cfi_restore_state
 2749              		.loc 1 557 0
 2750 00b8 4146     		mov	r1, r8
 2751 00ba 2348     		ldr	r0, .L151+20
 2752 00bc FFF7FEFF 		bl	printf
 2753              	.LVL323:
 2754 00c0 ACE7     		b	.L103
 2755              	.LVL324:
 2756              	.L144:
 2757              		.loc 1 570 0
 2758 00c2 2248     		ldr	r0, .L151+24
 2759 00c4 FFF7FEFF 		bl	puts
 2760              	.LVL325:
 2761 00c8 BBE7     		b	.L106
 2762              	.LVL326:
 2763              	.L148:
 2764              	.LBB146:
 2765              	.LBB145:
 2766              	.LBB144:
 2767 00ca 04A8     		add	r0, sp, #16
 2768              	.LVL327:
 2769 00cc 4146     		mov	r1, r8
 2770 00ce FFF7FEFF 		bl	md5_update.part.0
 2771              	.LVL328:
 2772 00d2 D3E7     		b	.L112
 2773              	.LVL329:
 2774              	.L146:
 2775              	.LBE144:
ARM GAS  C:\Users\jo\AppData\Local\Temp\ccBWvOPb.s 			page 50


 2776              	.LBE145:
 2777              	.LBE146:
 2778              		.loc 1 579 0
 2779 00d4 611C     		adds	r1, r4, #1
 2780 00d6 1E48     		ldr	r0, .L151+28
 2781 00d8 FFF7FEFF 		bl	printf
 2782              	.LVL330:
 2783 00dc C0E7     		b	.L109
 2784              	.LVL331:
 2785              	.L149:
 2786              		.loc 1 606 0
 2787 00de 1B48     		ldr	r0, .L151+24
 2788 00e0 FFF7FEFF 		bl	puts
 2789              	.LVL332:
 2790 00e4 D9E7     		b	.L115
 2791              	.LVL333:
 2792              	.L150:
 2793              		.loc 1 610 0
 2794 00e6 0A20     		movs	r0, #10
 2795 00e8 FFF7FEFF 		bl	putchar
 2796              	.LVL334:
 2797              		.loc 1 613 0
 2798 00ec 4846     		mov	r0, r9
 2799 00ee 0DF2EC4D 		addw	sp, sp, #1260
 2800              		.cfi_remember_state
 2801              		.cfi_def_cfa_offset 36
 2802              		@ sp needed
 2803 00f2 BDE8F08F 		pop	{r4, r5, r6, r7, r8, r9, r10, fp, pc}
 2804              	.LVL335:
 2805              	.L114:
 2806              		.cfi_restore_state
 2807              		.loc 1 566 0
 2808 00f6 4FF00109 		mov	r9, #1
 2809              		.loc 1 563 0
 2810 00fa 002D     		cmp	r5, #0
 2811 00fc D7D0     		beq	.L105
 2812              		.loc 1 564 0
 2813 00fe 1548     		ldr	r0, .L151+32
 2814 0100 FFF7FEFF 		bl	puts
 2815              	.LVL336:
 2816              		.loc 1 566 0
 2817 0104 4FF00109 		mov	r9, #1
 2818              		.loc 1 613 0
 2819 0108 4846     		mov	r0, r9
 2820 010a 0DF2EC4D 		addw	sp, sp, #1260
 2821              		.cfi_remember_state
 2822              		.cfi_def_cfa_offset 36
 2823              		@ sp needed
 2824 010e BDE8F08F 		pop	{r4, r5, r6, r7, r8, r9, r10, fp, pc}
 2825              	.LVL337:
 2826              	.L145:
 2827              		.cfi_restore_state
 2828              		.loc 1 574 0
 2829 0112 0A20     		movs	r0, #10
 2830 0114 FFF7FEFF 		bl	putchar
 2831              	.LVL338:
 2832 0118 97E7     		b	.L108
ARM GAS  C:\Users\jo\AppData\Local\Temp\ccBWvOPb.s 			page 51


 2833              	.LVL339:
 2834              	.L147:
 2835              		.loc 1 583 0
 2836 011a AA21     		movs	r1, #170
 2837 011c 5022     		movs	r2, #80
 2838 011e 3AA8     		add	r0, sp, #232
 2839 0120 FFF7FEFF 		bl	memset
 2840              	.LVL340:
 2841              		.loc 1 584 0
 2842 0124 04A8     		add	r0, sp, #16
 2843 0126 3AA9     		add	r1, sp, #232
 2844 0128 5022     		movs	r2, #80
 2845 012a FFF7FEFF 		bl	md5_hmac_starts
 2846              	.LVL341:
 2847 012e 4FEA8409 		lsl	r9, r4, #2
 2848 0132 A0E7     		b	.L111
 2849              	.L152:
 2850              		.align	2
 2851              	.L151:
 2852 0134 FCFFFFFF 		.word	.LANCHOR1-4
 2853 0138 00000000 		.word	.LANCHOR2
 2854 013c 00000000 		.word	.LANCHOR3
 2855 0140 00000000 		.word	.LANCHOR4
 2856 0144 00000000 		.word	.LANCHOR6
 2857 0148 04000000 		.word	.LC1
 2858 014c 20000000 		.word	.LC3
 2859 0150 28000000 		.word	.LC4
 2860 0154 18000000 		.word	.LC2
 2861 0158 00000000 		.word	.LANCHOR5
 2862 015c 00000000 		.word	.LANCHOR8
 2863 0160 00000000 		.word	.LANCHOR7
 2864              		.cfi_endproc
 2865              	.LFE14:
 2866              		.size	md5_self_test, .-md5_self_test
 2867 0164 AFF30080 		.section	.rodata.md5_test_buf,"a",%progbits
 2867      AFF30080 
 2867      AFF30080 
 2868              		.align	2
 2869              		.set	.LANCHOR2,. + 0
 2870              		.type	md5_test_buf, %object
 2871              		.size	md5_test_buf, 567
 2872              	md5_test_buf:
 2873 0000 00       		.ascii	"\000"
 2874 0001 00000000 		.space	80
 2874      00000000 
 2874      00000000 
 2874      00000000 
 2874      00000000 
 2875 0051 6100     		.ascii	"a\000"
 2876 0053 00000000 		.space	79
 2876      00000000 
 2876      00000000 
 2876      00000000 
 2876      00000000 
 2877 00a2 61626300 		.ascii	"abc\000"
 2878 00a6 00000000 		.space	77
 2878      00000000 
ARM GAS  C:\Users\jo\AppData\Local\Temp\ccBWvOPb.s 			page 52


 2878      00000000 
 2878      00000000 
 2878      00000000 
 2879 00f3 6D657373 		.ascii	"message digest\000"
 2879      61676520 
 2879      64696765 
 2879      737400
 2880 0102 00000000 		.space	66
 2880      00000000 
 2880      00000000 
 2880      00000000 
 2880      00000000 
 2881 0144 61626364 		.ascii	"abcdefghijklmnopqrstuvwxyz\000"
 2881      65666768 
 2881      696A6B6C 
 2881      6D6E6F70 
 2881      71727374 
 2882 015f 00000000 		.space	54
 2882      00000000 
 2882      00000000 
 2882      00000000 
 2882      00000000 
 2883 0195 41424344 		.ascii	"ABCDEFGHIJKLMNOPQRSTUVWXYZabcdefghijklmnopqrstuvwxy"
 2883      45464748 
 2883      494A4B4C 
 2883      4D4E4F50 
 2883      51525354 
 2884 01c8 7A303132 		.ascii	"z0123456789\000"
 2884      33343536 
 2884      37383900 
 2885 01d4 00000000 		.space	18
 2885      00000000 
 2885      00000000 
 2885      00000000 
 2885      0000
 2886 01e6 31323334 		.ascii	"123456789012345678901234567890123456789012345678901"
 2886      35363738 
 2886      39303132 
 2886      33343536 
 2886      37383930 
 2887 0219 32333435 		.ascii	"23456789012345678901234567890\000"
 2887      36373839 
 2887      30313233 
 2887      34353637 
 2887      38393031 
 2888 0237 00       		.section	.rodata.md5_hmac_test_sum,"a",%progbits
 2889              		.align	2
 2890              		.set	.LANCHOR4,. + 0
 2891              		.type	md5_hmac_test_sum, %object
 2892              		.size	md5_hmac_test_sum, 112
 2893              	md5_hmac_test_sum:
 2894 0000 92       		.byte	-110
 2895 0001 94       		.byte	-108
 2896 0002 72       		.byte	114
 2897 0003 7A       		.byte	122
 2898 0004 36       		.byte	54
 2899 0005 38       		.byte	56
ARM GAS  C:\Users\jo\AppData\Local\Temp\ccBWvOPb.s 			page 53


 2900 0006 BB       		.byte	-69
 2901 0007 1C       		.byte	28
 2902 0008 13       		.byte	19
 2903 0009 F4       		.byte	-12
 2904 000a 8E       		.byte	-114
 2905 000b F8       		.byte	-8
 2906 000c 15       		.byte	21
 2907 000d 8B       		.byte	-117
 2908 000e FC       		.byte	-4
 2909 000f 9D       		.byte	-99
 2910 0010 75       		.byte	117
 2911 0011 0C       		.byte	12
 2912 0012 78       		.byte	120
 2913 0013 3E       		.byte	62
 2914 0014 6A       		.byte	106
 2915 0015 B0       		.byte	-80
 2916 0016 B5       		.byte	-75
 2917 0017 03       		.byte	3
 2918 0018 EA       		.byte	-22
 2919 0019 A8       		.byte	-88
 2920 001a 6E       		.byte	110
 2921 001b 31       		.byte	49
 2922 001c 0A       		.byte	10
 2923 001d 5D       		.byte	93
 2924 001e B7       		.byte	-73
 2925 001f 38       		.byte	56
 2926 0020 56       		.byte	86
 2927 0021 BE       		.byte	-66
 2928 0022 34       		.byte	52
 2929 0023 52       		.byte	82
 2930 0024 1D       		.byte	29
 2931 0025 14       		.byte	20
 2932 0026 4C       		.byte	76
 2933 0027 88       		.byte	-120
 2934 0028 DB       		.byte	-37
 2935 0029 B8       		.byte	-72
 2936 002a C7       		.byte	-57
 2937 002b 33       		.byte	51
 2938 002c F0       		.byte	-16
 2939 002d E8       		.byte	-24
 2940 002e B3       		.byte	-77
 2941 002f F6       		.byte	-10
 2942 0030 69       		.byte	105
 2943 0031 7E       		.byte	126
 2944 0032 AF       		.byte	-81
 2945 0033 0A       		.byte	10
 2946 0034 CA       		.byte	-54
 2947 0035 3A       		.byte	58
 2948 0036 3A       		.byte	58
 2949 0037 EA       		.byte	-22
 2950 0038 3A       		.byte	58
 2951 0039 75       		.byte	117
 2952 003a 16       		.byte	22
 2953 003b 47       		.byte	71
 2954 003c 46       		.byte	70
 2955 003d FF       		.byte	-1
 2956 003e AA       		.byte	-86
ARM GAS  C:\Users\jo\AppData\Local\Temp\ccBWvOPb.s 			page 54


 2957 003f 79       		.byte	121
 2958 0040 56       		.byte	86
 2959 0041 46       		.byte	70
 2960 0042 1E       		.byte	30
 2961 0043 F2       		.byte	-14
 2962 0044 34       		.byte	52
 2963 0045 2E       		.byte	46
 2964 0046 DC       		.byte	-36
 2965 0047 00       		.byte	0
 2966 0048 F9       		.byte	-7
 2967 0049 BA       		.byte	-70
 2968 004a B9       		.byte	-71
 2969 004b 95       		.byte	-107
 2970 004c 00000000 		.space	4
 2971 0050 6B       		.byte	107
 2972 0051 1A       		.byte	26
 2973 0052 B7       		.byte	-73
 2974 0053 FE       		.byte	-2
 2975 0054 4B       		.byte	75
 2976 0055 D7       		.byte	-41
 2977 0056 BF       		.byte	-65
 2978 0057 8F       		.byte	-113
 2979 0058 0B       		.byte	11
 2980 0059 62       		.byte	98
 2981 005a E6       		.byte	-26
 2982 005b CE       		.byte	-50
 2983 005c 61       		.byte	97
 2984 005d B9       		.byte	-71
 2985 005e D0       		.byte	-48
 2986 005f CD       		.byte	-51
 2987 0060 6F       		.byte	111
 2988 0061 63       		.byte	99
 2989 0062 0F       		.byte	15
 2990 0063 AD       		.byte	-83
 2991 0064 67       		.byte	103
 2992 0065 CD       		.byte	-51
 2993 0066 A0       		.byte	-96
 2994 0067 EE       		.byte	-18
 2995 0068 1F       		.byte	31
 2996 0069 B1       		.byte	-79
 2997 006a F5       		.byte	-11
 2998 006b 62       		.byte	98
 2999 006c DB       		.byte	-37
 3000 006d 3A       		.byte	58
 3001 006e A5       		.byte	-91
 3002 006f 3E       		.byte	62
 3003              		.section	.rodata.md5_hmac_test_buflen,"a",%progbits
 3004              		.align	2
 3005              		.set	.LANCHOR8,. + 0
 3006              		.type	md5_hmac_test_buflen, %object
 3007              		.size	md5_hmac_test_buflen, 28
 3008              	md5_hmac_test_buflen:
 3009 0000 08000000 		.word	8
 3010 0004 1C000000 		.word	28
 3011 0008 32000000 		.word	50
 3012 000c 32000000 		.word	50
 3013 0010 14000000 		.word	20
ARM GAS  C:\Users\jo\AppData\Local\Temp\ccBWvOPb.s 			page 55


 3014 0014 36000000 		.word	54
 3015 0018 49000000 		.word	73
 3016              		.section	.rodata.md5_hmac_test_buf,"a",%progbits
 3017              		.align	2
 3018              		.set	.LANCHOR5,. + 0
 3019              		.type	md5_hmac_test_buf, %object
 3020              		.size	md5_hmac_test_buf, 518
 3021              	md5_hmac_test_buf:
 3022 0000 48692054 		.ascii	"Hi There\000"
 3022      68657265 
 3022      00
 3023 0009 00000000 		.space	65
 3023      00000000 
 3023      00000000 
 3023      00000000 
 3023      00000000 
 3024 004a 77686174 		.ascii	"what do ya want for nothing?\000"
 3024      20646F20 
 3024      79612077 
 3024      616E7420 
 3024      666F7220 
 3025 0067 00000000 		.space	45
 3025      00000000 
 3025      00000000 
 3025      00000000 
 3025      00000000 
 3026 0094 DDDDDDDD 		.ascii	"\335\335\335\335\335\335\335\335\335\335\335\335\335"
 3026      DDDDDDDD 
 3026      DDDDDDDD 
 3026      DD
 3027 00a1 DDDDDDDD 		.ascii	"\335\335\335\335\335\335\335\335\335\335\335\335\335"
 3027      DDDDDDDD 
 3027      DDDDDDDD 
 3027      DD
 3028 00ae DDDDDDDD 		.ascii	"\335\335\335\335\335\335\335\335\335\335\335\335\335"
 3028      DDDDDDDD 
 3028      DDDDDDDD 
 3028      DD
 3029 00bb DDDDDDDD 		.ascii	"\335\335\335\335\335\335\335\335\335\335\335\000"
 3029      DDDDDDDD 
 3029      DDDDDD00 
 3030 00c7 00000000 		.space	23
 3030      00000000 
 3030      00000000 
 3030      00000000 
 3030      00000000 
 3031 00de CDCDCDCD 		.ascii	"\315\315\315\315\315\315\315\315\315\315\315\315\315"
 3031      CDCDCDCD 
 3031      CDCDCDCD 
 3031      CD
 3032 00eb CDCDCDCD 		.ascii	"\315\315\315\315\315\315\315\315\315\315\315\315\315"
 3032      CDCDCDCD 
 3032      CDCDCDCD 
 3032      CD
 3033 00f8 CDCDCDCD 		.ascii	"\315\315\315\315\315\315\315\315\315\315\315\315\315"
 3033      CDCDCDCD 
 3033      CDCDCDCD 
ARM GAS  C:\Users\jo\AppData\Local\Temp\ccBWvOPb.s 			page 56


 3033      CD
 3034 0105 CDCDCDCD 		.ascii	"\315\315\315\315\315\315\315\315\315\315\315\000"
 3034      CDCDCDCD 
 3034      CDCDCD00 
 3035 0111 00000000 		.space	23
 3035      00000000 
 3035      00000000 
 3035      00000000 
 3035      00000000 
 3036 0128 54657374 		.ascii	"Test With Truncation\000"
 3036      20576974 
 3036      68205472 
 3036      756E6361 
 3036      74696F6E 
 3037 013d 00000000 		.space	53
 3037      00000000 
 3037      00000000 
 3037      00000000 
 3037      00000000 
 3038 0172 54657374 		.ascii	"Test Using Larger Than Block-Size Key - Hash Key Fi"
 3038      20557369 
 3038      6E67204C 
 3038      61726765 
 3038      72205468 
 3039 01a5 72737400 		.ascii	"rst\000"
 3040 01a9 00000000 		.space	19
 3040      00000000 
 3040      00000000 
 3040      00000000 
 3040      000000
 3041 01bc 54657374 		.ascii	"Test Using Larger Than Block-Size Key and Larger Th"
 3041      20557369 
 3041      6E67204C 
 3041      61726765 
 3041      72205468 
 3042 01ef 616E204F 		.ascii	"an One Block-Size Data\000"
 3042      6E652042 
 3042      6C6F636B 
 3042      2D53697A 
 3042      65204461 
 3043 0206 0000     		.section	.rodata.md5_hmac_test_keylen,"a",%progbits
 3044              		.align	2
 3045              		.set	.LANCHOR7,. + 0
 3046              		.type	md5_hmac_test_keylen, %object
 3047              		.size	md5_hmac_test_keylen, 28
 3048              	md5_hmac_test_keylen:
 3049 0000 10000000 		.word	16
 3050 0004 04000000 		.word	4
 3051 0008 10000000 		.word	16
 3052 000c 19000000 		.word	25
 3053 0010 10000000 		.word	16
 3054 0014 50000000 		.word	80
 3055 0018 50000000 		.word	80
 3056              		.section	.rodata.md5_hmac_test_key,"a",%progbits
 3057              		.align	2
 3058              		.set	.LANCHOR6,. + 0
 3059              		.type	md5_hmac_test_key, %object
ARM GAS  C:\Users\jo\AppData\Local\Temp\ccBWvOPb.s 			page 57


 3060              		.size	md5_hmac_test_key, 182
 3061              	md5_hmac_test_key:
 3062 0000 0B0B0B0B 		.ascii	"\013\013\013\013\013\013\013\013\013\013\013\013\013"
 3062      0B0B0B0B 
 3062      0B0B0B0B 
 3062      0B
 3063 000d 0B0B0B00 		.ascii	"\013\013\013\000"
 3064 0011 00000000 		.space	9
 3064      00000000 
 3064      00
 3065 001a 4A656665 		.ascii	"Jefe\000"
 3065      00
 3066 001f 00000000 		.space	21
 3066      00000000 
 3066      00000000 
 3066      00000000 
 3066      00000000 
 3067 0034 AAAAAAAA 		.ascii	"\252\252\252\252\252\252\252\252\252\252\252\252\252"
 3067      AAAAAAAA 
 3067      AAAAAAAA 
 3067      AA
 3068 0041 AAAAAA00 		.ascii	"\252\252\252\000"
 3069 0045 00000000 		.space	9
 3069      00000000 
 3069      00
 3070 004e 01020304 		.ascii	"\001\002\003\004\005\006\007\010\011\012\013\014\015"
 3070      05060708 
 3070      090A0B0C 
 3070      0D
 3071 005b 0E0F1011 		.ascii	"\016\017\020\021\022\023\024\025\026\027\030\031\000"
 3071      12131415 
 3071      16171819 
 3071      00
 3072 0068 0C0C0C0C 		.ascii	"\014\014\014\014\014\014\014\014\014\014\014\014\014"
 3072      0C0C0C0C 
 3072      0C0C0C0C 
 3072      0C
 3073 0075 0C0C0C00 		.ascii	"\014\014\014\000"
 3074 0079 00000000 		.space	9
 3074      00000000 
 3074      00
 3075 0082 00       		.ascii	"\000"
 3076 0083 00000000 		.space	25
 3076      00000000 
 3076      00000000 
 3076      00000000 
 3076      00000000 
 3077 009c 00       		.ascii	"\000"
 3078 009d 00000000 		.space	25
 3078      00000000 
 3078      00000000 
 3078      00000000 
 3078      00000000 
 3079 00b6 0000     		.section	.rodata.str1.4,"aMS",%progbits,1
 3080              		.align	2
 3081              	.LC0:
 3082 0000 726200   		.ascii	"rb\000"
ARM GAS  C:\Users\jo\AppData\Local\Temp\ccBWvOPb.s 			page 58


 3083 0003 00       		.space	1
 3084              	.LC1:
 3085 0004 20204D44 		.ascii	"  MD5 test #%d: \000"
 3085      35207465 
 3085      73742023 
 3085      25643A20 
 3085      00
 3086 0015 000000   		.space	3
 3087              	.LC2:
 3088 0018 6661696C 		.ascii	"failed\000"
 3088      656400
 3089 001f 00       		.space	1
 3090              	.LC3:
 3091 0020 70617373 		.ascii	"passed\000"
 3091      656400
 3092 0027 00       		.space	1
 3093              	.LC4:
 3094 0028 2020484D 		.ascii	"  HMAC-MD5 test #%d: \000"
 3094      41432D4D 
 3094      44352074 
 3094      65737420 
 3094      2325643A 
 3095 003e 0000     		.section	.rodata.md5_padding,"a",%progbits
 3096              		.align	2
 3097              		.set	.LANCHOR0,. + 0
 3098              		.type	md5_padding, %object
 3099              		.size	md5_padding, 64
 3100              	md5_padding:
 3101 0000 80       		.byte	-128
 3102 0001 00       		.byte	0
 3103 0002 00       		.byte	0
 3104 0003 00       		.byte	0
 3105 0004 00       		.byte	0
 3106 0005 00       		.byte	0
 3107 0006 00       		.byte	0
 3108 0007 00       		.byte	0
 3109 0008 00       		.byte	0
 3110 0009 00       		.byte	0
 3111 000a 00       		.byte	0
 3112 000b 00       		.byte	0
 3113 000c 00       		.byte	0
 3114 000d 00       		.byte	0
 3115 000e 00       		.byte	0
 3116 000f 00       		.byte	0
 3117 0010 00       		.byte	0
 3118 0011 00       		.byte	0
 3119 0012 00       		.byte	0
 3120 0013 00       		.byte	0
 3121 0014 00       		.byte	0
 3122 0015 00       		.byte	0
 3123 0016 00       		.byte	0
 3124 0017 00       		.byte	0
 3125 0018 00       		.byte	0
 3126 0019 00       		.byte	0
 3127 001a 00       		.byte	0
 3128 001b 00       		.byte	0
 3129 001c 00       		.byte	0
ARM GAS  C:\Users\jo\AppData\Local\Temp\ccBWvOPb.s 			page 59


 3130 001d 00       		.byte	0
 3131 001e 00       		.byte	0
 3132 001f 00       		.byte	0
 3133 0020 00       		.byte	0
 3134 0021 00       		.byte	0
 3135 0022 00       		.byte	0
 3136 0023 00       		.byte	0
 3137 0024 00       		.byte	0
 3138 0025 00       		.byte	0
 3139 0026 00       		.byte	0
 3140 0027 00       		.byte	0
 3141 0028 00       		.byte	0
 3142 0029 00       		.byte	0
 3143 002a 00       		.byte	0
 3144 002b 00       		.byte	0
 3145 002c 00       		.byte	0
 3146 002d 00       		.byte	0
 3147 002e 00       		.byte	0
 3148 002f 00       		.byte	0
 3149 0030 00       		.byte	0
 3150 0031 00       		.byte	0
 3151 0032 00       		.byte	0
 3152 0033 00       		.byte	0
 3153 0034 00       		.byte	0
 3154 0035 00       		.byte	0
 3155 0036 00       		.byte	0
 3156 0037 00       		.byte	0
 3157 0038 00       		.byte	0
 3158 0039 00       		.byte	0
 3159 003a 00       		.byte	0
 3160 003b 00       		.byte	0
 3161 003c 00       		.byte	0
 3162 003d 00       		.byte	0
 3163 003e 00       		.byte	0
 3164 003f 00       		.byte	0
 3165              		.section	.rodata.md5_test_buflen,"a",%progbits
 3166              		.align	2
 3167              		.set	.LANCHOR1,. + 0
 3168              		.type	md5_test_buflen, %object
 3169              		.size	md5_test_buflen, 28
 3170              	md5_test_buflen:
 3171 0000 00000000 		.word	0
 3172 0004 01000000 		.word	1
 3173 0008 03000000 		.word	3
 3174 000c 0E000000 		.word	14
 3175 0010 1A000000 		.word	26
 3176 0014 3E000000 		.word	62
 3177 0018 50000000 		.word	80
 3178              		.section	.rodata.md5_test_sum,"a",%progbits
 3179              		.align	2
 3180              		.set	.LANCHOR3,. + 0
 3181              		.type	md5_test_sum, %object
 3182              		.size	md5_test_sum, 112
 3183              	md5_test_sum:
 3184 0000 D4       		.byte	-44
 3185 0001 1D       		.byte	29
 3186 0002 8C       		.byte	-116
ARM GAS  C:\Users\jo\AppData\Local\Temp\ccBWvOPb.s 			page 60


 3187 0003 D9       		.byte	-39
 3188 0004 8F       		.byte	-113
 3189 0005 00       		.byte	0
 3190 0006 B2       		.byte	-78
 3191 0007 04       		.byte	4
 3192 0008 E9       		.byte	-23
 3193 0009 80       		.byte	-128
 3194 000a 09       		.byte	9
 3195 000b 98       		.byte	-104
 3196 000c EC       		.byte	-20
 3197 000d F8       		.byte	-8
 3198 000e 42       		.byte	66
 3199 000f 7E       		.byte	126
 3200 0010 0C       		.byte	12
 3201 0011 C1       		.byte	-63
 3202 0012 75       		.byte	117
 3203 0013 B9       		.byte	-71
 3204 0014 C0       		.byte	-64
 3205 0015 F1       		.byte	-15
 3206 0016 B6       		.byte	-74
 3207 0017 A8       		.byte	-88
 3208 0018 31       		.byte	49
 3209 0019 C3       		.byte	-61
 3210 001a 99       		.byte	-103
 3211 001b E2       		.byte	-30
 3212 001c 69       		.byte	105
 3213 001d 77       		.byte	119
 3214 001e 26       		.byte	38
 3215 001f 61       		.byte	97
 3216 0020 90       		.byte	-112
 3217 0021 01       		.byte	1
 3218 0022 50       		.byte	80
 3219 0023 98       		.byte	-104
 3220 0024 3C       		.byte	60
 3221 0025 D2       		.byte	-46
 3222 0026 4F       		.byte	79
 3223 0027 B0       		.byte	-80
 3224 0028 D6       		.byte	-42
 3225 0029 96       		.byte	-106
 3226 002a 3F       		.byte	63
 3227 002b 7D       		.byte	125
 3228 002c 28       		.byte	40
 3229 002d E1       		.byte	-31
 3230 002e 7F       		.byte	127
 3231 002f 72       		.byte	114
 3232 0030 F9       		.byte	-7
 3233 0031 6B       		.byte	107
 3234 0032 69       		.byte	105
 3235 0033 7D       		.byte	125
 3236 0034 7C       		.byte	124
 3237 0035 B7       		.byte	-73
 3238 0036 93       		.byte	-109
 3239 0037 8D       		.byte	-115
 3240 0038 52       		.byte	82
 3241 0039 5A       		.byte	90
 3242 003a 2F       		.byte	47
 3243 003b 31       		.byte	49
ARM GAS  C:\Users\jo\AppData\Local\Temp\ccBWvOPb.s 			page 61


 3244 003c AA       		.byte	-86
 3245 003d F1       		.byte	-15
 3246 003e 61       		.byte	97
 3247 003f D0       		.byte	-48
 3248 0040 C3       		.byte	-61
 3249 0041 FC       		.byte	-4
 3250 0042 D3       		.byte	-45
 3251 0043 D7       		.byte	-41
 3252 0044 61       		.byte	97
 3253 0045 92       		.byte	-110
 3254 0046 E4       		.byte	-28
 3255 0047 00       		.byte	0
 3256 0048 7D       		.byte	125
 3257 0049 FB       		.byte	-5
 3258 004a 49       		.byte	73
 3259 004b 6C       		.byte	108
 3260 004c CA       		.byte	-54
 3261 004d 67       		.byte	103
 3262 004e E1       		.byte	-31
 3263 004f 3B       		.byte	59
 3264 0050 D1       		.byte	-47
 3265 0051 74       		.byte	116
 3266 0052 AB       		.byte	-85
 3267 0053 98       		.byte	-104
 3268 0054 D2       		.byte	-46
 3269 0055 77       		.byte	119
 3270 0056 D9       		.byte	-39
 3271 0057 F5       		.byte	-11
 3272 0058 A5       		.byte	-91
 3273 0059 61       		.byte	97
 3274 005a 1C       		.byte	28
 3275 005b 2C       		.byte	44
 3276 005c 9F       		.byte	-97
 3277 005d 41       		.byte	65
 3278 005e 9D       		.byte	-99
 3279 005f 9F       		.byte	-97
 3280 0060 57       		.byte	87
 3281 0061 ED       		.byte	-19
 3282 0062 F4       		.byte	-12
 3283 0063 A2       		.byte	-94
 3284 0064 2B       		.byte	43
 3285 0065 E3       		.byte	-29
 3286 0066 C9       		.byte	-55
 3287 0067 55       		.byte	85
 3288 0068 AC       		.byte	-84
 3289 0069 49       		.byte	73
 3290 006a DA       		.byte	-38
 3291 006b 2E       		.byte	46
 3292 006c 21       		.byte	33
 3293 006d 07       		.byte	7
 3294 006e B6       		.byte	-74
 3295 006f 7A       		.byte	122
 3296              		.text
 3297              	.Letext0:
 3298              		.file 2 "c:\\program files\\gnu tools arm embedded\\4.9 2014q4\\lib\\gcc\\arm-none-eabi\\4.9.3\\in
 3299              		.file 3 "c:\\program files\\gnu tools arm embedded\\4.9 2014q4\\arm-none-eabi\\include\\machine\\_
 3300              		.file 4 "c:\\program files\\gnu tools arm embedded\\4.9 2014q4\\arm-none-eabi\\include\\stdint.h"
ARM GAS  C:\Users\jo\AppData\Local\Temp\ccBWvOPb.s 			page 62


 3301              		.file 5 "../../../ext/mbedtls-1.3.11/library/../include/polarssl/md5.h"
 3302              		.file 6 "c:\\program files\\gnu tools arm embedded\\4.9 2014q4\\arm-none-eabi\\include\\sys\\lock.
 3303              		.file 7 "c:\\program files\\gnu tools arm embedded\\4.9 2014q4\\arm-none-eabi\\include\\sys\\_type
 3304              		.file 8 "c:\\program files\\gnu tools arm embedded\\4.9 2014q4\\arm-none-eabi\\include\\sys\\reent
 3305              		.file 9 "c:\\program files\\gnu tools arm embedded\\4.9 2014q4\\arm-none-eabi\\include\\stdio.h"
 3306              		.file 10 "c:\\program files\\gnu tools arm embedded\\4.9 2014q4\\arm-none-eabi\\include\\string.h"
 3307              		.file 11 "<built-in>"