ARM GAS  C:\Users\jo\AppData\Local\Temp\ccBWvOPb.s 			page 1


   1              		.syntax unified
   2              		.cpu cortex-m4
   3              		.fpu softvfp
   4              		.eabi_attribute 20, 1
   5              		.eabi_attribute 21, 1
   6              		.eabi_attribute 23, 3
   7              		.eabi_attribute 24, 1
   8              		.eabi_attribute 25, 1
   9              		.eabi_attribute 26, 1
  10              		.eabi_attribute 30, 2
  11              		.eabi_attribute 34, 1
  12              		.eabi_attribute 18, 4
  13              		.thumb
  14              		.file	"md5.c"
  15              		.text
  16              	.Ltext0:
  17              		.cfi_sections	.debug_frame
  18              		.section	.text.md5_init,"ax",%progbits
  19              		.align	2
  20              		.p2align 4,,15
  21              		.global	md5_init
  22              		.thumb
  23              		.thumb_func
  24              		.type	md5_init, %function
  25              	md5_init:
  26              	.LFB1:
  27              		.file 1 "../../../ext/mbedtls-1.3.11/library/md5.c"
  28              		.loc 1 84 0
  29              		.cfi_startproc
  30              		@ args = 0, pretend = 0, frame = 0
  31              		@ frame_needed = 0, uses_anonymous_args = 0
  32              		@ link register save eliminated.
  33              	.LVL0:
  34              		.loc 1 85 0
  35 0000 0021     		movs	r1, #0
  36 0002 D822     		movs	r2, #216
  37 0004 FFF7FEBF 		b	memset
  38              	.LVL1:
  39              		.cfi_endproc
  40              	.LFE1:
  41              		.size	md5_init, .-md5_init
  42 0008 AFF30080 		.section	.text.md5_free,"ax",%progbits
  42      AFF30080 
  43              		.align	2
  44              		.p2align 4,,15
  45              		.global	md5_free
  46              		.thumb
  47              		.thumb_func
  48              		.type	md5_free, %function
  49              	md5_free:
  50              	.LFB2:
  51              		.loc 1 89 0
  52              		.cfi_startproc
  53              		@ args = 0, pretend = 0, frame = 0
  54              		@ frame_needed = 0, uses_anonymous_args = 0
  55              		@ link register save eliminated.
  56              	.LVL2:
ARM GAS  C:\Users\jo\AppData\Local\Temp\ccBWvOPb.s 			page 2


  57              		.loc 1 90 0
  58 0000 30B1     		cbz	r0, .L2
  59 0002 00F1D802 		add	r2, r0, #216
  60              	.LBB62:
  61              	.LBB63:
  62              		.loc 1 55 0
  63 0006 0023     		movs	r3, #0
  64              	.LVL3:
  65              	.L4:
  66 0008 0370     		strb	r3, [r0]
  67              	.LVL4:
  68 000a 0130     		adds	r0, r0, #1
  69              	.LVL5:
  70 000c 9042     		cmp	r0, r2
  71 000e FBD1     		bne	.L4
  72              	.LVL6:
  73              	.L2:
  74 0010 7047     		bx	lr
  75              	.LBE63:
  76              	.LBE62:
  77              		.cfi_endproc
  78              	.LFE2:
  79              		.size	md5_free, .-md5_free
  80 0012 00BFAFF3 		.section	.text.md5_starts,"ax",%progbits
  80      0080AFF3 
  80      0080AFF3 
  80      0080
  81              		.align	2
  82              		.p2align 4,,15
  83              		.global	md5_starts
  84              		.thumb
  85              		.thumb_func
  86              		.type	md5_starts, %function
  87              	md5_starts:
  88              	.LFB3:
  89              		.loc 1 100 0
  90              		.cfi_startproc
  91              		@ args = 0, pretend = 0, frame = 0
  92              		@ frame_needed = 0, uses_anonymous_args = 0
  93              		@ link register save eliminated.
  94              	.LVL7:
  95              		.loc 1 104 0
  96 0000 074B     		ldr	r3, .L10
  97              		.loc 1 106 0
  98 0002 0849     		ldr	r1, .L10+4
  99              		.loc 1 107 0
 100 0004 084A     		ldr	r2, .L10+8
 101              		.loc 1 104 0
 102 0006 8360     		str	r3, [r0, #8]
 103              		.loc 1 100 0
 104 0008 10B4     		push	{r4}
 105              		.cfi_def_cfa_offset 4
 106              		.cfi_offset 4, -4
 107              		.loc 1 101 0
 108 000a 0023     		movs	r3, #0
 109              		.loc 1 105 0
 110 000c 074C     		ldr	r4, .L10+12
ARM GAS  C:\Users\jo\AppData\Local\Temp\ccBWvOPb.s 			page 3


 111 000e C460     		str	r4, [r0, #12]
 112              		.loc 1 106 0
 113 0010 0161     		str	r1, [r0, #16]
 114              		.loc 1 107 0
 115 0012 4261     		str	r2, [r0, #20]
 116              		.loc 1 101 0
 117 0014 0360     		str	r3, [r0]
 118              		.loc 1 102 0
 119 0016 4360     		str	r3, [r0, #4]
 120              		.loc 1 108 0
 121 0018 5DF8044B 		ldr	r4, [sp], #4
 122              		.cfi_restore 4
 123              		.cfi_def_cfa_offset 0
 124 001c 7047     		bx	lr
 125              	.L11:
 126 001e 00BF     		.align	2
 127              	.L10:
 128 0020 01234567 		.word	1732584193
 129 0024 FEDCBA98 		.word	-1732584194
 130 0028 76543210 		.word	271733878
 131 002c 89ABCDEF 		.word	-271733879
 132              		.cfi_endproc
 133              	.LFE3:
 134              		.size	md5_starts, .-md5_starts
 135              		.section	.text.md5_process,"ax",%progbits
 136              		.align	2
 137              		.p2align 4,,15
 138              		.global	md5_process
 139              		.thumb
 140              		.thumb_func
 141              		.type	md5_process, %function
 142              	md5_process:
 143              	.LFB4:
 144              		.loc 1 111 0
 145              		.cfi_startproc
 146              		@ args = 0, pretend = 0, frame = 184
 147              		@ frame_needed = 0, uses_anonymous_args = 0
 148              	.LVL8:
 149 0000 2DE9F04F 		push	{r4, r5, r6, r7, r8, r9, r10, fp, lr}
 150              		.cfi_def_cfa_offset 36
 151              		.cfi_offset 4, -36
 152              		.cfi_offset 5, -32
 153              		.cfi_offset 6, -28
 154              		.cfi_offset 7, -24
 155              		.cfi_offset 8, -20
 156              		.cfi_offset 9, -16
 157              		.cfi_offset 10, -12
 158              		.cfi_offset 11, -8
 159              		.cfi_offset 14, -4
 160 0004 AFB0     		sub	sp, sp, #188
 161              		.cfi_def_cfa_offset 224
 162              		.loc 1 116 0
 163 0006 8A7A     		ldrb	r2, [r1, #10]	@ zero_extendqisi2
 164 0008 0292     		str	r2, [sp, #8]
 165              		.loc 1 117 0
 166 000a 4A7B     		ldrb	r2, [r1, #13]	@ zero_extendqisi2
 167 000c 0392     		str	r2, [sp, #12]
ARM GAS  C:\Users\jo\AppData\Local\Temp\ccBWvOPb.s 			page 4


 168 000e 8A7B     		ldrb	r2, [r1, #14]	@ zero_extendqisi2
 169 0010 0492     		str	r2, [sp, #16]
 170 0012 0A7B     		ldrb	r2, [r1, #12]	@ zero_extendqisi2
 171 0014 0592     		str	r2, [sp, #20]
 172 0016 CA7B     		ldrb	r2, [r1, #15]	@ zero_extendqisi2
 173 0018 0692     		str	r2, [sp, #24]
 174              		.loc 1 118 0
 175 001a 4A7C     		ldrb	r2, [r1, #17]	@ zero_extendqisi2
 176 001c 0792     		str	r2, [sp, #28]
 177 001e 8A7C     		ldrb	r2, [r1, #18]	@ zero_extendqisi2
 178 0020 0892     		str	r2, [sp, #32]
 179 0022 0A7C     		ldrb	r2, [r1, #16]	@ zero_extendqisi2
 180 0024 0992     		str	r2, [sp, #36]
 181 0026 CA7C     		ldrb	r2, [r1, #19]	@ zero_extendqisi2
 182 0028 0A92     		str	r2, [sp, #40]
 183              		.loc 1 119 0
 184 002a 4A7D     		ldrb	r2, [r1, #21]	@ zero_extendqisi2
 185              		.loc 1 114 0
 186 002c 8C78     		ldrb	r4, [r1, #2]	@ zero_extendqisi2
 187              		.loc 1 119 0
 188 002e 0B92     		str	r2, [sp, #44]
 189 0030 8A7D     		ldrb	r2, [r1, #22]	@ zero_extendqisi2
 190              		.loc 1 114 0
 191 0032 91F801B0 		ldrb	fp, [r1, #1]	@ zero_extendqisi2
 192 0036 0F78     		ldrb	r7, [r1]	@ zero_extendqisi2
 193 0038 CB78     		ldrb	r3, [r1, #3]	@ zero_extendqisi2
 194              		.loc 1 115 0
 195 003a 91F80590 		ldrb	r9, [r1, #5]	@ zero_extendqisi2
 196 003e 0E79     		ldrb	r6, [r1, #4]	@ zero_extendqisi2
 197 0040 91F80780 		ldrb	r8, [r1, #7]	@ zero_extendqisi2
 198              		.loc 1 116 0
 199 0044 91F809C0 		ldrb	ip, [r1, #9]	@ zero_extendqisi2
 200 0048 0D7A     		ldrb	r5, [r1, #8]	@ zero_extendqisi2
 201 004a 91F80BE0 		ldrb	lr, [r1, #11]	@ zero_extendqisi2
 202              		.loc 1 111 0
 203 004e 8246     		mov	r10, r0
 204              		.loc 1 115 0
 205 0050 8879     		ldrb	r0, [r1, #6]	@ zero_extendqisi2
 206              	.LVL9:
 207              		.loc 1 119 0
 208 0052 0C92     		str	r2, [sp, #48]
 209              	.LVL10:
 210 0054 0A7D     		ldrb	r2, [r1, #20]	@ zero_extendqisi2
 211 0056 0D92     		str	r2, [sp, #52]
 212              		.loc 1 114 0
 213 0058 2404     		lsls	r4, r4, #16
 214              		.loc 1 119 0
 215 005a CA7D     		ldrb	r2, [r1, #23]	@ zero_extendqisi2
 216 005c 0E92     		str	r2, [sp, #56]
 217 005e 44EA0B24 		orr	r4, r4, fp, lsl #8
 218              		.loc 1 120 0
 219 0062 4A7E     		ldrb	r2, [r1, #25]	@ zero_extendqisi2
 220 0064 0F92     		str	r2, [sp, #60]
 221              		.loc 1 114 0
 222 0066 3C43     		orrs	r4, r4, r7
 223              		.loc 1 120 0
 224 0068 8A7E     		ldrb	r2, [r1, #26]	@ zero_extendqisi2
ARM GAS  C:\Users\jo\AppData\Local\Temp\ccBWvOPb.s 			page 5


 225 006a 1092     		str	r2, [sp, #64]
 226              		.loc 1 114 0
 227 006c 44EA0364 		orr	r4, r4, r3, lsl #24
 228              		.loc 1 120 0
 229 0070 0A7E     		ldrb	r2, [r1, #24]	@ zero_extendqisi2
 230 0072 1192     		str	r2, [sp, #68]
 231              		.loc 1 114 0
 232 0074 0094     		str	r4, [sp]
 233              	.LVL11:
 234              		.loc 1 120 0
 235 0076 CA7E     		ldrb	r2, [r1, #27]	@ zero_extendqisi2
 236              		.loc 1 122 0
 237 0078 91F82240 		ldrb	r4, [r1, #34]	@ zero_extendqisi2
 238              		.loc 1 120 0
 239 007c 1292     		str	r2, [sp, #72]
 240              		.loc 1 115 0
 241 007e 0004     		lsls	r0, r0, #16
 242              		.loc 1 121 0
 243 0080 4A7F     		ldrb	r2, [r1, #29]	@ zero_extendqisi2
 244              		.loc 1 122 0
 245 0082 1694     		str	r4, [sp, #88]
 246 0084 40EA0920 		orr	r0, r0, r9, lsl #8
 247 0088 91F82340 		ldrb	r4, [r1, #35]	@ zero_extendqisi2
 248              		.loc 1 121 0
 249 008c 1392     		str	r2, [sp, #76]
 250              		.loc 1 122 0
 251 008e 1794     		str	r4, [sp, #92]
 252              		.loc 1 121 0
 253 0090 CA7F     		ldrb	r2, [r1, #31]	@ zero_extendqisi2
 254              		.loc 1 123 0
 255 0092 91F82540 		ldrb	r4, [r1, #37]	@ zero_extendqisi2
 256              		.loc 1 121 0
 257 0096 1492     		str	r2, [sp, #80]
 258              		.loc 1 115 0
 259 0098 3043     		orrs	r0, r0, r6
 260              		.loc 1 122 0
 261 009a 91F82120 		ldrb	r2, [r1, #33]	@ zero_extendqisi2
 262              		.loc 1 123 0
 263 009e 1894     		str	r4, [sp, #96]
 264              		.loc 1 115 0
 265 00a0 40EA0860 		orr	r0, r0, r8, lsl #24
 266              		.loc 1 124 0
 267 00a4 91F82940 		ldrb	r4, [r1, #41]	@ zero_extendqisi2
 268              		.loc 1 122 0
 269 00a8 91F82090 		ldrb	r9, [r1, #32]	@ zero_extendqisi2
 270              		.loc 1 123 0
 271 00ac 91F82460 		ldrb	r6, [r1, #36]	@ zero_extendqisi2
 272 00b0 91F82780 		ldrb	r8, [r1, #39]	@ zero_extendqisi2
 273              		.loc 1 121 0
 274 00b4 8F7F     		ldrb	r7, [r1, #30]	@ zero_extendqisi2
 275 00b6 91F81CB0 		ldrb	fp, [r1, #28]	@ zero_extendqisi2
 276              		.loc 1 122 0
 277 00ba 1592     		str	r2, [sp, #84]
 278              		.loc 1 115 0
 279 00bc 0190     		str	r0, [sp, #4]
 280              	.LVL12:
 281              		.loc 1 123 0
ARM GAS  C:\Users\jo\AppData\Local\Temp\ccBWvOPb.s 			page 6


 282 00be 91F82600 		ldrb	r0, [r1, #38]	@ zero_extendqisi2
 283              		.loc 1 124 0
 284 00c2 1994     		str	r4, [sp, #100]
 285              		.loc 1 116 0
 286 00c4 029B     		ldr	r3, [sp, #8]
 287              		.loc 1 124 0
 288 00c6 91F82A40 		ldrb	r4, [r1, #42]	@ zero_extendqisi2
 289 00ca 1A94     		str	r4, [sp, #104]
 290              		.loc 1 116 0
 291 00cc 1A04     		lsls	r2, r3, #16
 292              		.loc 1 125 0
 293 00ce 91F82D40 		ldrb	r4, [r1, #45]	@ zero_extendqisi2
 294 00d2 1C94     		str	r4, [sp, #112]
 295 00d4 42EA0C22 		orr	r2, r2, ip, lsl #8
 296 00d8 91F82E40 		ldrb	r4, [r1, #46]	@ zero_extendqisi2
 297              		.loc 1 117 0
 298 00dc 049B     		ldr	r3, [sp, #16]
 299              		.loc 1 125 0
 300 00de 1D94     		str	r4, [sp, #116]
 301              		.loc 1 116 0
 302 00e0 2A43     		orrs	r2, r2, r5
 303              		.loc 1 125 0
 304 00e2 91F82F40 		ldrb	r4, [r1, #47]	@ zero_extendqisi2
 305 00e6 1E94     		str	r4, [sp, #120]
 306              		.loc 1 116 0
 307 00e8 42EA0E6E 		orr	lr, r2, lr, lsl #24
 308 00ec 039A     		ldr	r2, [sp, #12]
 309              		.loc 1 126 0
 310 00ee 91F83140 		ldrb	r4, [r1, #49]	@ zero_extendqisi2
 311 00f2 1F94     		str	r4, [sp, #124]
 312              		.loc 1 117 0
 313 00f4 1B04     		lsls	r3, r3, #16
 314              		.loc 1 126 0
 315 00f6 91F83240 		ldrb	r4, [r1, #50]	@ zero_extendqisi2
 316 00fa 2094     		str	r4, [sp, #128]
 317 00fc 43EA0223 		orr	r3, r3, r2, lsl #8
 318              		.loc 1 117 0
 319 0100 059A     		ldr	r2, [sp, #20]
 320              		.loc 1 126 0
 321 0102 91F83040 		ldrb	r4, [r1, #48]	@ zero_extendqisi2
 322 0106 2194     		str	r4, [sp, #132]
 323              		.loc 1 117 0
 324 0108 1343     		orrs	r3, r3, r2
 325              		.loc 1 126 0
 326 010a 91F83340 		ldrb	r4, [r1, #51]	@ zero_extendqisi2
 327              		.loc 1 117 0
 328 010e 069A     		ldr	r2, [sp, #24]
 329              		.loc 1 126 0
 330 0110 2294     		str	r4, [sp, #136]
 331              		.loc 1 127 0
 332 0112 91F83540 		ldrb	r4, [r1, #53]	@ zero_extendqisi2
 333 0116 2394     		str	r4, [sp, #140]
 334              		.loc 1 117 0
 335 0118 43EA0264 		orr	r4, r3, r2, lsl #24
 336              		.loc 1 118 0
 337 011c 089B     		ldr	r3, [sp, #32]
 338 011e 079A     		ldr	r2, [sp, #28]
ARM GAS  C:\Users\jo\AppData\Local\Temp\ccBWvOPb.s 			page 7


 339              		.loc 1 117 0
 340 0120 0294     		str	r4, [sp, #8]
 341              		.loc 1 127 0
 342 0122 91F83640 		ldrb	r4, [r1, #54]	@ zero_extendqisi2
 343              		.loc 1 124 0
 344 0126 91F82B50 		ldrb	r5, [r1, #43]	@ zero_extendqisi2
 345              		.loc 1 127 0
 346 012a 2494     		str	r4, [sp, #144]
 347              		.loc 1 118 0
 348 012c 1B04     		lsls	r3, r3, #16
 349              		.loc 1 127 0
 350 012e 91F83440 		ldrb	r4, [r1, #52]	@ zero_extendqisi2
 351              		.loc 1 124 0
 352 0132 91F828C0 		ldrb	ip, [r1, #40]	@ zero_extendqisi2
 353 0136 1B95     		str	r5, [sp, #108]
 354 0138 43EA0223 		orr	r3, r3, r2, lsl #8
 355              		.loc 1 116 0
 356 013c 7546     		mov	r5, lr
 357              	.LVL13:
 358              		.loc 1 125 0
 359 013e 91F82CE0 		ldrb	lr, [r1, #44]	@ zero_extendqisi2
 360              		.loc 1 127 0
 361 0142 2594     		str	r4, [sp, #148]
 362              	.LVL14:
 363              		.loc 1 118 0
 364 0144 099A     		ldr	r2, [sp, #36]
 365              		.loc 1 127 0
 366 0146 91F83740 		ldrb	r4, [r1, #55]	@ zero_extendqisi2
 367 014a 2694     		str	r4, [sp, #152]
 368              		.loc 1 118 0
 369 014c 1343     		orrs	r3, r3, r2
 370 014e 0A9A     		ldr	r2, [sp, #40]
 371              		.loc 1 128 0
 372 0150 91F83940 		ldrb	r4, [r1, #57]	@ zero_extendqisi2
 373 0154 2794     		str	r4, [sp, #156]
 374              		.loc 1 118 0
 375 0156 43EA0264 		orr	r4, r3, r2, lsl #24
 376 015a 0394     		str	r4, [sp, #12]
 377              	.LVL15:
 378              		.loc 1 128 0
 379 015c 91F83A40 		ldrb	r4, [r1, #58]	@ zero_extendqisi2
 380 0160 2894     		str	r4, [sp, #160]
 381 0162 91F83840 		ldrb	r4, [r1, #56]	@ zero_extendqisi2
 382 0166 2994     		str	r4, [sp, #164]
 383              		.loc 1 119 0
 384 0168 0C9B     		ldr	r3, [sp, #48]
 385              		.loc 1 128 0
 386 016a 91F83B40 		ldrb	r4, [r1, #59]	@ zero_extendqisi2
 387 016e 0B9A     		ldr	r2, [sp, #44]
 388 0170 2A94     		str	r4, [sp, #168]
 389              		.loc 1 129 0
 390 0172 91F83D40 		ldrb	r4, [r1, #61]	@ zero_extendqisi2
 391 0176 2B94     		str	r4, [sp, #172]
 392              		.loc 1 119 0
 393 0178 1B04     		lsls	r3, r3, #16
 394              		.loc 1 129 0
 395 017a 91F83E40 		ldrb	r4, [r1, #62]	@ zero_extendqisi2
ARM GAS  C:\Users\jo\AppData\Local\Temp\ccBWvOPb.s 			page 8


 396 017e 2C94     		str	r4, [sp, #176]
 397 0180 43EA0223 		orr	r3, r3, r2, lsl #8
 398 0184 91F83C40 		ldrb	r4, [r1, #60]	@ zero_extendqisi2
 399              		.loc 1 119 0
 400 0188 0D9A     		ldr	r2, [sp, #52]
 401              		.loc 1 129 0
 402 018a 0D94     		str	r4, [sp, #52]
 403 018c 91F83F40 		ldrb	r4, [r1, #63]	@ zero_extendqisi2
 404              		.loc 1 119 0
 405 0190 0E99     		ldr	r1, [sp, #56]
 406              	.LVL16:
 407              		.loc 1 129 0
 408 0192 2D94     		str	r4, [sp, #180]
 409              		.loc 1 119 0
 410 0194 1343     		orrs	r3, r3, r2
 411 0196 43EA0164 		orr	r4, r3, r1, lsl #24
 412              		.loc 1 120 0
 413 019a 1099     		ldr	r1, [sp, #64]
 414 019c 0F9B     		ldr	r3, [sp, #60]
 415              		.loc 1 119 0
 416 019e 0A94     		str	r4, [sp, #40]
 417              	.LVL17:
 418              		.loc 1 120 0
 419 01a0 0A04     		lsls	r2, r1, #16
 420 01a2 42EA0322 		orr	r2, r2, r3, lsl #8
 421 01a6 119B     		ldr	r3, [sp, #68]
 422              		.loc 1 145 0
 423 01a8 DAF80C10 		ldr	r1, [r10, #12]
 424              		.loc 1 120 0
 425 01ac 1A43     		orrs	r2, r2, r3
 426              		.loc 1 145 0
 427 01ae DAF81430 		ldr	r3, [r10, #20]
 428 01b2 1C46     		mov	r4, r3
 429 01b4 DAF81030 		ldr	r3, [r10, #16]
 430 01b8 6340     		eors	r3, r3, r4
 431 01ba 0B40     		ands	r3, r3, r1
 432 01bc 6340     		eors	r3, r3, r4
 433 01be D749     		ldr	r1, .L14
 434 01c0 DAF80840 		ldr	r4, [r10, #8]
 435 01c4 2144     		add	r1, r1, r4
 436 01c6 0B44     		add	r3, r3, r1
 437 01c8 0099     		ldr	r1, [sp]
 438              	.LVL18:
 439 01ca DAF80C40 		ldr	r4, [r10, #12]
 440 01ce 0995     		str	r5, [sp, #36]
 441 01d0 0B44     		add	r3, r3, r1
 442              		.loc 1 120 0
 443 01d2 1299     		ldr	r1, [sp, #72]
 444              		.loc 1 145 0
 445 01d4 04EB7363 		add	r3, r4, r3, ror #25
 446              		.loc 1 120 0
 447 01d8 42EA0164 		orr	r4, r2, r1, lsl #24
 448 01dc 1399     		ldr	r1, [sp, #76]
 449 01de 0494     		str	r4, [sp, #16]
 450              	.LVL19:
 451              		.loc 1 121 0
 452 01e0 3F04     		lsls	r7, r7, #16
ARM GAS  C:\Users\jo\AppData\Local\Temp\ccBWvOPb.s 			page 9


 453 01e2 DAF81440 		ldr	r4, [r10, #20]
 454 01e6 019A     		ldr	r2, [sp, #4]
 455 01e8 47EA0127 		orr	r7, r7, r1, lsl #8
 456 01ec CC49     		ldr	r1, .L14+4
 457 01ee 2144     		add	r1, r1, r4
 458              		.loc 1 146 0
 459 01f0 DAF81040 		ldr	r4, [r10, #16]
 460              		.loc 1 121 0
 461 01f4 47EA0B0B 		orr	fp, r7, fp
 462              		.loc 1 146 0
 463 01f8 2746     		mov	r7, r4
 464 01fa DAF80C40 		ldr	r4, [r10, #12]
 465 01fe 1144     		add	r1, r1, r2
 466 0200 87EA0402 		eor	r2, r7, r4
 467 0204 1A40     		ands	r2, r2, r3
 468 0206 7A40     		eors	r2, r2, r7
 469              	.LVL20:
 470 0208 DAF81040 		ldr	r4, [r10, #16]
 471              		.loc 1 121 0
 472 020c 149F     		ldr	r7, [sp, #80]
 473              		.loc 1 146 0
 474 020e 0A44     		add	r2, r2, r1
 475 0210 C449     		ldr	r1, .L14+8
 476 0212 2144     		add	r1, r1, r4
 477              		.loc 1 122 0
 478 0214 169C     		ldr	r4, [sp, #88]
 479              		.loc 1 121 0
 480 0216 4BEA076B 		orr	fp, fp, r7, lsl #24
 481 021a 2944     		add	r1, r1, r5
 482              		.loc 1 147 0
 483 021c DAF80C70 		ldr	r7, [r10, #12]
 484 0220 159D     		ldr	r5, [sp, #84]
 485              	.LVL21:
 486              		.loc 1 121 0
 487 0222 CDF814B0 		str	fp, [sp, #20]
 488              	.LVL22:
 489              		.loc 1 122 0
 490 0226 2404     		lsls	r4, r4, #16
 491              		.loc 1 146 0
 492 0228 03EB3252 		add	r2, r3, r2, ror #20
 493 022c 44EA0524 		orr	r4, r4, r5, lsl #8
 494              		.loc 1 147 0
 495 0230 83EA0705 		eor	r5, r3, r7
 496 0234 1540     		ands	r5, r5, r2
 497 0236 7D40     		eors	r5, r5, r7
 498 0238 0D44     		add	r5, r5, r1
 499 023a BB49     		ldr	r1, .L14+12
 500 023c 3944     		add	r1, r1, r7
 501 023e 029F     		ldr	r7, [sp, #8]
 502 0240 3944     		add	r1, r1, r7
 503              		.loc 1 122 0
 504 0242 179F     		ldr	r7, [sp, #92]
 505 0244 44EA0904 		orr	r4, r4, r9
 506 0248 44EA0764 		orr	r4, r4, r7, lsl #24
 507              		.loc 1 147 0
 508 024c 02EBF535 		add	r5, r2, r5, ror #15
 509              		.loc 1 122 0
ARM GAS  C:\Users\jo\AppData\Local\Temp\ccBWvOPb.s 			page 10


 510 0250 0694     		str	r4, [sp, #24]
 511              		.loc 1 148 0
 512 0252 82EA0304 		eor	r4, r2, r3
 513 0256 2C40     		ands	r4, r4, r5
 514 0258 5C40     		eors	r4, r4, r3
 515 025a 2144     		add	r1, r1, r4
 516 025c 05EBB124 		add	r4, r5, r1, ror #10
 517 0260 1899     		ldr	r1, [sp, #96]
 518 0262 039F     		ldr	r7, [sp, #12]
 519              		.loc 1 123 0
 520 0264 0004     		lsls	r0, r0, #16
 521 0266 40EA0120 		orr	r0, r0, r1, lsl #8
 522 026a B049     		ldr	r1, .L14+16
 523 026c 3944     		add	r1, r1, r7
 524 026e 0B44     		add	r3, r3, r1
 525              		.loc 1 149 0
 526 0270 85EA0201 		eor	r1, r5, r2
 527 0274 2140     		ands	r1, r1, r4
 528 0276 5140     		eors	r1, r1, r2
 529              		.loc 1 123 0
 530 0278 3043     		orrs	r0, r0, r6
 531              		.loc 1 149 0
 532 027a 0B44     		add	r3, r3, r1
 533 027c 0A9E     		ldr	r6, [sp, #40]
 534 027e AC49     		ldr	r1, .L14+20
 535              		.loc 1 123 0
 536 0280 40EA0869 		orr	r9, r0, r8, lsl #24
 537 0284 3144     		add	r1, r1, r6
 538              		.loc 1 124 0
 539 0286 1A98     		ldr	r0, [sp, #104]
 540 0288 069E     		ldr	r6, [sp, #24]
 541 028a 0A44     		add	r2, r2, r1
 542 028c 1999     		ldr	r1, [sp, #100]
 543 028e 0004     		lsls	r0, r0, #16
 544              		.loc 1 149 0
 545 0290 04EB7363 		add	r3, r4, r3, ror #25
 546 0294 40EA0120 		orr	r0, r0, r1, lsl #8
 547              		.loc 1 150 0
 548 0298 84EA0501 		eor	r1, r4, r5
 549 029c 1940     		ands	r1, r1, r3
 550 029e 6940     		eors	r1, r1, r5
 551 02a0 0A44     		add	r2, r2, r1
 552              		.loc 1 124 0
 553 02a2 40EA0C0C 		orr	ip, r0, ip
 554 02a6 A349     		ldr	r1, .L14+24
 555 02a8 0498     		ldr	r0, [sp, #16]
 556 02aa 0144     		add	r1, r1, r0
 557 02ac 0D44     		add	r5, r5, r1
 558 02ae 1B99     		ldr	r1, [sp, #108]
 559 02b0 0598     		ldr	r0, [sp, #20]
 560              		.loc 1 150 0
 561 02b2 03EB3252 		add	r2, r3, r2, ror #20
 562              		.loc 1 124 0
 563 02b6 4CEA016C 		orr	ip, ip, r1, lsl #24
 564              		.loc 1 151 0
 565 02ba 83EA0401 		eor	r1, r3, r4
 566 02be 1140     		ands	r1, r1, r2
ARM GAS  C:\Users\jo\AppData\Local\Temp\ccBWvOPb.s 			page 11


 567 02c0 6140     		eors	r1, r1, r4
 568 02c2 0D44     		add	r5, r5, r1
 569 02c4 9C49     		ldr	r1, .L14+28
 570 02c6 0144     		add	r1, r1, r0
 571 02c8 0C44     		add	r4, r4, r1
 572              		.loc 1 125 0
 573 02ca 1D99     		ldr	r1, [sp, #116]
 574 02cc 0804     		lsls	r0, r1, #16
 575 02ce 1C99     		ldr	r1, [sp, #112]
 576              		.loc 1 151 0
 577 02d0 02EBF535 		add	r5, r2, r5, ror #15
 578 02d4 40EA0120 		orr	r0, r0, r1, lsl #8
 579              		.loc 1 152 0
 580 02d8 82EA0301 		eor	r1, r2, r3
 581 02dc 2940     		ands	r1, r1, r5
 582 02de 5940     		eors	r1, r1, r3
 583 02e0 0C44     		add	r4, r4, r1
 584 02e2 9649     		ldr	r1, .L14+32
 585 02e4 3144     		add	r1, r1, r6
 586 02e6 0B44     		add	r3, r3, r1
 587              		.loc 1 125 0
 588 02e8 1E99     		ldr	r1, [sp, #120]
 589 02ea 40EA0E0E 		orr	lr, r0, lr
 590              		.loc 1 126 0
 591 02ee 2098     		ldr	r0, [sp, #128]
 592              		.loc 1 152 0
 593 02f0 05EBB424 		add	r4, r5, r4, ror #10
 594              		.loc 1 125 0
 595 02f4 4EEA016E 		orr	lr, lr, r1, lsl #24
 596              		.loc 1 153 0
 597 02f8 85EA0201 		eor	r1, r5, r2
 598 02fc 2140     		ands	r1, r1, r4
 599              		.loc 1 126 0
 600 02fe 0604     		lsls	r6, r0, #16
 601 0300 8F48     		ldr	r0, .L14+36
 602              		.loc 1 125 0
 603 0302 CDF81CE0 		str	lr, [sp, #28]
 604              		.loc 1 153 0
 605 0306 5140     		eors	r1, r1, r2
 606 0308 4844     		add	r0, r0, r9
 607 030a 0B44     		add	r3, r3, r1
 608 030c 04EB7363 		add	r3, r4, r3, ror #25
 609 0310 0244     		add	r2, r2, r0
 610              		.loc 1 154 0
 611 0312 84EA0500 		eor	r0, r4, r5
 612 0316 1840     		ands	r0, r0, r3
 613              		.loc 1 124 0
 614 0318 6746     		mov	r7, ip
 615              		.loc 1 154 0
 616 031a 6840     		eors	r0, r0, r5
 617 031c 1F99     		ldr	r1, [sp, #124]
 618 031e 0B97     		str	r7, [sp, #44]
 619 0320 0244     		add	r2, r2, r0
 620 0322 A7F52440 		sub	r0, r7, #41984
 621 0326 4F38     		subs	r0, r0, #79
 622 0328 03EB3252 		add	r2, r3, r2, ror #20
 623 032c 46EA0126 		orr	r6, r6, r1, lsl #8
ARM GAS  C:\Users\jo\AppData\Local\Temp\ccBWvOPb.s 			page 12


 624 0330 0544     		add	r5, r5, r0
 625              		.loc 1 126 0
 626 0332 2199     		ldr	r1, [sp, #132]
 627              		.loc 1 155 0
 628 0334 83EA0400 		eor	r0, r3, r4
 629 0338 1040     		ands	r0, r0, r2
 630              		.loc 1 126 0
 631 033a 0E43     		orrs	r6, r6, r1
 632              		.loc 1 155 0
 633 033c 6040     		eors	r0, r0, r4
 634              		.loc 1 126 0
 635 033e 2299     		ldr	r1, [sp, #136]
 636              		.loc 1 155 0
 637 0340 0544     		add	r5, r5, r0
 638              		.loc 1 127 0
 639 0342 2498     		ldr	r0, [sp, #144]
 640              		.loc 1 126 0
 641 0344 46EA0161 		orr	r1, r6, r1, lsl #24
 642 0348 239E     		ldr	r6, [sp, #140]
 643 034a 0891     		str	r1, [sp, #32]
 644              		.loc 1 127 0
 645 034c 0004     		lsls	r0, r0, #16
 646 034e 40EA0620 		orr	r0, r0, r6, lsl #8
 647 0352 7C49     		ldr	r1, .L14+40
 648 0354 079E     		ldr	r6, [sp, #28]
 649 0356 3144     		add	r1, r1, r6
 650 0358 0C44     		add	r4, r4, r1
 651 035a 2599     		ldr	r1, [sp, #148]
 652              		.loc 1 155 0
 653 035c 02EBF535 		add	r5, r2, r5, ror #15
 654              		.loc 1 127 0
 655 0360 0843     		orrs	r0, r0, r1
 656              		.loc 1 156 0
 657 0362 82EA0301 		eor	r1, r2, r3
 658 0366 2940     		ands	r1, r1, r5
 659 0368 5940     		eors	r1, r1, r3
 660 036a 0C44     		add	r4, r4, r1
 661              		.loc 1 127 0
 662 036c 2699     		ldr	r1, [sp, #152]
 663 036e 40EA016E 		orr	lr, r0, r1, lsl #24
 664 0372 0899     		ldr	r1, [sp, #32]
 665 0374 7448     		ldr	r0, .L14+44
 666 0376 0844     		add	r0, r0, r1
 667              		.loc 1 156 0
 668 0378 05EBB424 		add	r4, r5, r4, ror #10
 669 037c 0344     		add	r3, r3, r0
 670              		.loc 1 157 0
 671 037e 85EA0200 		eor	r0, r5, r2
 672 0382 2040     		ands	r0, r0, r4
 673 0384 5040     		eors	r0, r0, r2
 674 0386 7149     		ldr	r1, .L14+48
 675              		.loc 1 127 0
 676 0388 7646     		mov	r6, lr
 677              		.loc 1 157 0
 678 038a 0344     		add	r3, r3, r0
 679              		.loc 1 128 0
 680 038c 2898     		ldr	r0, [sp, #160]
ARM GAS  C:\Users\jo\AppData\Local\Temp\ccBWvOPb.s 			page 13


 681 038e DFF8F0E1 		ldr	lr, .L14+100
 682 0392 0C96     		str	r6, [sp, #48]
 683 0394 3144     		add	r1, r1, r6
 684              		.loc 1 157 0
 685 0396 04EB7363 		add	r3, r4, r3, ror #25
 686 039a 0A44     		add	r2, r2, r1
 687              		.loc 1 128 0
 688 039c 0704     		lsls	r7, r0, #16
 689              		.loc 1 158 0
 690 039e 84EA0501 		eor	r1, r4, r5
 691 03a2 2798     		ldr	r0, [sp, #156]
 692 03a4 019E     		ldr	r6, [sp, #4]
 693 03a6 1940     		ands	r1, r1, r3
 694 03a8 47EA0027 		orr	r7, r7, r0, lsl #8
 695 03ac 6940     		eors	r1, r1, r5
 696              		.loc 1 128 0
 697 03ae 2998     		ldr	r0, [sp, #164]
 698              		.loc 1 158 0
 699 03b0 1144     		add	r1, r1, r2
 700              		.loc 1 128 0
 701 03b2 2A9A     		ldr	r2, [sp, #168]
 702 03b4 0743     		orrs	r7, r7, r0
 703 03b6 47EA0267 		orr	r7, r7, r2, lsl #24
 704              		.loc 1 129 0
 705 03ba 2C98     		ldr	r0, [sp, #176]
 706 03bc 644A     		ldr	r2, .L14+52
 707              		.loc 1 158 0
 708 03be 03EB3151 		add	r1, r3, r1, ror #20
 709 03c2 3A44     		add	r2, r2, r7
 710              		.loc 1 159 0
 711 03c4 83EA040C 		eor	ip, r3, r4
 712              		.loc 1 129 0
 713 03c8 4FEA004B 		lsl	fp, r0, #16
 714 03cc 2B98     		ldr	r0, [sp, #172]
 715 03ce 1544     		add	r5, r5, r2
 716              		.loc 1 159 0
 717 03d0 01EA0C0C 		and	ip, r1, ip
 718              		.loc 1 129 0
 719 03d4 0D9A     		ldr	r2, [sp, #52]
 720              		.loc 1 159 0
 721 03d6 8CEA040C 		eor	ip, ip, r4
 722 03da 4BEA002B 		orr	fp, fp, r0, lsl #8
 723              		.loc 1 129 0
 724 03de 2D98     		ldr	r0, [sp, #180]
 725 03e0 4BEA020B 		orr	fp, fp, r2
 726              		.loc 1 159 0
 727 03e4 6544     		add	r5, r5, ip
 728 03e6 01EBF535 		add	r5, r1, r5, ror #15
 729              		.loc 1 129 0
 730 03ea 4BEA006B 		orr	fp, fp, r0, lsl #24
 731              	.LVL23:
 732              		.loc 1 160 0
 733 03ee 81EA0300 		eor	r0, r1, r3
 734 03f2 DE44     		add	lr, lr, fp
 735 03f4 2840     		ands	r0, r0, r5
 736 03f6 5840     		eors	r0, r0, r3
 737 03f8 7444     		add	r4, r4, lr
ARM GAS  C:\Users\jo\AppData\Local\Temp\ccBWvOPb.s 			page 14


 738              	.LVL24:
 739 03fa 0444     		add	r4, r4, r0
 740              	.LVL25:
 741 03fc 05EBB424 		add	r4, r5, r4, ror #10
 742              	.LVL26:
 743 0400 544A     		ldr	r2, .L14+56
 744 0402 DFF880C1 		ldr	ip, .L14+104
 745              		.loc 1 166 0
 746 0406 84EA0500 		eor	r0, r4, r5
 747 040a 3244     		add	r2, r2, r6
 748 040c 0840     		ands	r0, r0, r1
 749 040e 6840     		eors	r0, r0, r5
 750 0410 1344     		add	r3, r3, r2
 751              	.LVL27:
 752 0412 0344     		add	r3, r3, r0
 753              	.LVL28:
 754 0414 04EBF363 		add	r3, r4, r3, ror #27
 755              	.LVL29:
 756 0418 049E     		ldr	r6, [sp, #16]
 757 041a 4F48     		ldr	r0, .L14+60
 758 041c 4F4A     		ldr	r2, .L14+64
 759              		.loc 1 167 0
 760 041e 83EA040E 		eor	lr, r3, r4
 761 0422 3044     		add	r0, r0, r6
 762 0424 0EEA050E 		and	lr, lr, r5
 763 0428 8EEA040E 		eor	lr, lr, r4
 764 042c 0144     		add	r1, r1, r0
 765              	.LVL30:
 766 042e 7144     		add	r1, r1, lr
 767              	.LVL31:
 768 0430 03EBF150 		add	r0, r3, r1, ror #23
 769              	.LVL32:
 770 0434 0799     		ldr	r1, [sp, #28]
 771 0436 0A9E     		ldr	r6, [sp, #40]
 772              		.loc 1 168 0
 773 0438 80EA030E 		eor	lr, r0, r3
 774 043c 8C44     		add	ip, ip, r1
 775 043e 0EEA040E 		and	lr, lr, r4
 776 0442 8EEA030E 		eor	lr, lr, r3
 777 0446 6544     		add	r5, r5, ip
 778              	.LVL33:
 779 0448 05EB0E0C 		add	ip, r5, lr
 780              	.LVL34:
 781 044c 00EBBC4C 		add	ip, r0, ip, ror #18
 782              	.LVL35:
 783 0450 009D     		ldr	r5, [sp]
 784 0452 8846     		mov	r8, r1
 785              		.loc 1 169 0
 786 0454 8CEA0001 		eor	r1, ip, r0
 787 0458 2A44     		add	r2, r2, r5
 788 045a 1940     		ands	r1, r1, r3
 789 045c 4140     		eors	r1, r1, r0
 790 045e 1444     		add	r4, r4, r2
 791              	.LVL36:
 792 0460 6218     		adds	r2, r4, r1
 793              	.LVL37:
 794 0462 3F4C     		ldr	r4, .L14+68
ARM GAS  C:\Users\jo\AppData\Local\Temp\ccBWvOPb.s 			page 15


 795 0464 3F4D     		ldr	r5, .L14+72
 796 0466 4049     		ldr	r1, .L14+76
 797 0468 0CEB3232 		add	r2, ip, r2, ror #12
 798              	.LVL38:
 799 046c 3444     		add	r4, r4, r6
 800 046e 2344     		add	r3, r3, r4
 801              	.LVL39:
 802              		.loc 1 170 0
 803 0470 82EA0C04 		eor	r4, r2, ip
 804 0474 0440     		ands	r4, r4, r0
 805 0476 84EA0C04 		eor	r4, r4, ip
 806 047a 2344     		add	r3, r3, r4
 807              	.LVL40:
 808 047c 02EBF363 		add	r3, r2, r3, ror #27
 809              	.LVL41:
 810 0480 0B9E     		ldr	r6, [sp, #44]
 811              		.loc 1 171 0
 812 0482 83EA0204 		eor	r4, r3, r2
 813 0486 3544     		add	r5, r5, r6
 814 0488 04EA0C04 		and	r4, r4, ip
 815 048c 5440     		eors	r4, r4, r2
 816 048e 2844     		add	r0, r0, r5
 817              	.LVL42:
 818 0490 2044     		add	r0, r0, r4
 819              	.LVL43:
 820 0492 03EBF05E 		add	lr, r3, r0, ror #23
 821              	.LVL44:
 822              		.loc 1 172 0
 823 0496 8EEA0300 		eor	r0, lr, r3
 824 049a 5944     		add	r1, r1, fp
 825 049c 1040     		ands	r0, r0, r2
 826 049e 5840     		eors	r0, r0, r3
 827 04a0 8C44     		add	ip, ip, r1
 828              	.LVL45:
 829 04a2 0CEB0001 		add	r1, ip, r0
 830              	.LVL46:
 831 04a6 0EEBB141 		add	r1, lr, r1, ror #18
 832              	.LVL47:
 833 04aa 039E     		ldr	r6, [sp, #12]
 834 04ac 2F4D     		ldr	r5, .L14+80
 835 04ae 304C     		ldr	r4, .L14+84
 836 04b0 3048     		ldr	r0, .L14+88
 837              		.loc 1 173 0
 838 04b2 81EA0E0C 		eor	ip, r1, lr
 839 04b6 3544     		add	r5, r5, r6
 840 04b8 0CEA030C 		and	ip, ip, r3
 841 04bc 8CEA0E0C 		eor	ip, ip, lr
 842 04c0 2A44     		add	r2, r2, r5
 843              	.LVL48:
 844 04c2 6244     		add	r2, r2, ip
 845              	.LVL49:
 846 04c4 01EB3235 		add	r5, r1, r2, ror #12
 847              	.LVL50:
 848              		.loc 1 174 0
 849 04c8 85EA0102 		eor	r2, r5, r1
 850 04cc 4C44     		add	r4, r4, r9
 851 04ce 02EA0E02 		and	r2, r2, lr
ARM GAS  C:\Users\jo\AppData\Local\Temp\ccBWvOPb.s 			page 16


 852 04d2 4A40     		eors	r2, r2, r1
 853 04d4 2344     		add	r3, r3, r4
 854              	.LVL51:
 855 04d6 9C18     		adds	r4, r3, r2
 856              	.LVL52:
 857 04d8 05EBF464 		add	r4, r5, r4, ror #27
 858              	.LVL53:
 859              		.loc 1 175 0
 860 04dc 84EA0503 		eor	r3, r4, r5
 861 04e0 3844     		add	r0, r0, r7
 862 04e2 0B40     		ands	r3, r3, r1
 863 04e4 6B40     		eors	r3, r3, r5
 864 04e6 8644     		add	lr, lr, r0
 865              	.LVL54:
 866 04e8 029E     		ldr	r6, [sp, #8]
 867 04ea 234A     		ldr	r2, .L14+92
 868 04ec 0EEB0300 		add	r0, lr, r3
 869              	.LVL55:
 870 04f0 DFF894E0 		ldr	lr, .L14+108
 871 04f4 214B     		ldr	r3, .L14+96
 872 04f6 04EBF050 		add	r0, r4, r0, ror #23
 873              	.LVL56:
 874 04fa B644     		add	lr, lr, r6
 875 04fc 7144     		add	r1, r1, lr
 876              	.LVL57:
 877              		.loc 1 176 0
 878 04fe 80EA040E 		eor	lr, r0, r4
 879 0502 0EEA050E 		and	lr, lr, r5
 880 0506 8EEA040E 		eor	lr, lr, r4
 881 050a 7144     		add	r1, r1, lr
 882              	.LVL58:
 883 050c 00EBB141 		add	r1, r0, r1, ror #18
 884              	.LVL59:
 885 0510 069E     		ldr	r6, [sp, #24]
 886              		.loc 1 177 0
 887 0512 81EA000E 		eor	lr, r1, r0
 888 0516 3244     		add	r2, r2, r6
 889 0518 38E0     		b	.L15
 890              	.L16:
 891 051a 00BF     		.align	2
 892              	.L14:
 893 051c 78A46AD7 		.word	-680876936
 894 0520 56B7C7E8 		.word	-389564586
 895 0524 DB702024 		.word	606105819
 896 0528 EECEBDC1 		.word	-1044525330
 897 052c AF0F7CF5 		.word	-176418897
 898 0530 2AC68747 		.word	1200080426
 899 0534 134630A8 		.word	-1473231341
 900 0538 019546FD 		.word	-45705983
 901 053c D8988069 		.word	1770035416
 902 0540 AFF7448B 		.word	-1958414417
 903 0544 BED75C89 		.word	-1990404162
 904 0548 2211906B 		.word	1804603682
 905 054c 937198FD 		.word	-40341101
 906 0550 8E4379A6 		.word	-1502002290
 907 0554 62251EF6 		.word	-165796510
 908 0558 40B340C0 		.word	-1069501632
ARM GAS  C:\Users\jo\AppData\Local\Temp\ccBWvOPb.s 			page 17


 909 055c AAC7B6E9 		.word	-373897302
 910 0560 5D102FD6 		.word	-701558691
 911 0564 53144402 		.word	38016083
 912 0568 81E6A1D8 		.word	-660478335
 913 056c C8FBD3E7 		.word	-405537848
 914 0570 E6CDE121 		.word	568446438
 915 0574 D60737C3 		.word	-1019803690
 916 0578 ED145A45 		.word	1163531501
 917 057c 05E9E3A9 		.word	-1444681467
 918 0580 2108B449 		.word	1236535329
 919 0584 515A5E26 		.word	643717713
 920 0588 870DD5F4 		.word	-187363961
 921              	.L15:
 922 058c 0EEA040E 		and	lr, lr, r4
 923 0590 8EEA000E 		eor	lr, lr, r0
 924 0594 1544     		add	r5, r5, r2
 925              	.LVL60:
 926 0596 05EB0E02 		add	r2, r5, lr
 927              	.LVL61:
 928 059a 01EB3232 		add	r2, r1, r2, ror #12
 929              	.LVL62:
 930 059e 0C9E     		ldr	r6, [sp, #48]
 931 05a0 DFF8C0E3 		ldr	lr, .L17+116
 932              		.loc 1 178 0
 933 05a4 82EA0105 		eor	r5, r2, r1
 934 05a8 3344     		add	r3, r3, r6
 935 05aa 0540     		ands	r5, r5, r0
 936 05ac 099E     		ldr	r6, [sp, #36]
 937 05ae 4D40     		eors	r5, r5, r1
 938 05b0 1C44     		add	r4, r4, r3
 939              	.LVL63:
 940 05b2 6319     		adds	r3, r4, r5
 941              	.LVL64:
 942 05b4 02EBF363 		add	r3, r2, r3, ror #27
 943              	.LVL65:
 944 05b8 B644     		add	lr, lr, r6
 945 05ba 7044     		add	r0, r0, lr
 946              	.LVL66:
 947              		.loc 1 179 0
 948 05bc 83EA020E 		eor	lr, r3, r2
 949 05c0 0EEA010E 		and	lr, lr, r1
 950 05c4 8EEA020E 		eor	lr, lr, r2
 951 05c8 7044     		add	r0, r0, lr
 952              	.LVL67:
 953 05ca 03EBF050 		add	r0, r3, r0, ror #23
 954              	.LVL68:
 955 05ce 059E     		ldr	r6, [sp, #20]
 956 05d0 C74D     		ldr	r5, .L17
 957 05d2 C84C     		ldr	r4, .L17+4
 958              		.loc 1 180 0
 959 05d4 80EA030E 		eor	lr, r0, r3
 960 05d8 3544     		add	r5, r5, r6
 961 05da 0EEA020E 		and	lr, lr, r2
 962 05de 8EEA030E 		eor	lr, lr, r3
 963 05e2 2944     		add	r1, r1, r5
 964              	.LVL69:
 965 05e4 7144     		add	r1, r1, lr
ARM GAS  C:\Users\jo\AppData\Local\Temp\ccBWvOPb.s 			page 18


 966              	.LVL70:
 967 05e6 00EBB141 		add	r1, r0, r1, ror #18
 968              	.LVL71:
 969 05ea 089D     		ldr	r5, [sp, #32]
 970 05ec 0A9E     		ldr	r6, [sp, #40]
 971 05ee DFF878E3 		ldr	lr, .L17+120
 972              		.loc 1 181 0
 973 05f2 81EA000C 		eor	ip, r1, r0
 974 05f6 2C44     		add	r4, r4, r5
 975 05f8 0CEA0305 		and	r5, ip, r3
 976 05fc 4540     		eors	r5, r5, r0
 977 05fe 2244     		add	r2, r2, r4
 978              	.LVL72:
 979 0600 2A44     		add	r2, r2, r5
 980              	.LVL73:
 981 0602 A6F5B825 		sub	r5, r6, #376832
 982 0606 01EB3232 		add	r2, r1, r2, ror #12
 983              	.LVL74:
 984 060a A5F2BE65 		subw	r5, r5, #1726
 985 060e 069C     		ldr	r4, [sp, #24]
 986              		.loc 1 187 0
 987 0610 82EA0C0C 		eor	ip, r2, ip
 988 0614 2B44     		add	r3, r3, r5
 989              	.LVL75:
 990 0616 6344     		add	r3, r3, ip
 991              	.LVL76:
 992 0618 02EB3373 		add	r3, r2, r3, ror #28
 993              	.LVL77:
 994 061c A644     		add	lr, lr, r4
 995 061e 82EA0104 		eor	r4, r2, r1
 996              		.loc 1 188 0
 997 0622 5C40     		eors	r4, r4, r3
 998 0624 7044     		add	r0, r0, lr
 999              	.LVL78:
 1000 0626 B44D     		ldr	r5, .L17+8
 1001 0628 2044     		add	r0, r0, r4
 1002              	.LVL79:
 1003 062a 03EB7050 		add	r0, r3, r0, ror #21
 1004              	.LVL80:
 1005 062e 4544     		add	r5, r5, r8
 1006 0630 83EA020C 		eor	ip, r3, r2
 1007              		.loc 1 189 0
 1008 0634 8CEA000C 		eor	ip, ip, r0
 1009 0638 2944     		add	r1, r1, r5
 1010              	.LVL81:
 1011 063a B04C     		ldr	r4, .L17+12
 1012 063c B04D     		ldr	r5, .L17+16
 1013 063e 6144     		add	r1, r1, ip
 1014              	.LVL82:
 1015 0640 00EB3141 		add	r1, r0, r1, ror #16
 1016              	.LVL83:
 1017 0644 3C44     		add	r4, r4, r7
 1018 0646 80EA030C 		eor	ip, r0, r3
 1019              		.loc 1 190 0
 1020 064a 8CEA010C 		eor	ip, ip, r1
 1021 064e 2244     		add	r2, r2, r4
 1022              	.LVL84:
ARM GAS  C:\Users\jo\AppData\Local\Temp\ccBWvOPb.s 			page 19


 1023 0650 019C     		ldr	r4, [sp, #4]
 1024 0652 6244     		add	r2, r2, ip
 1025              	.LVL85:
 1026 0654 01EB7228 		add	r8, r1, r2, ror #9
 1027              	.LVL86:
 1028 0658 2544     		add	r5, r5, r4
 1029 065a 81EA0004 		eor	r4, r1, r0
 1030              		.loc 1 191 0
 1031 065e 84EA0804 		eor	r4, r4, r8
 1032 0662 2B44     		add	r3, r3, r5
 1033              	.LVL87:
 1034 0664 2344     		add	r3, r3, r4
 1035              	.LVL88:
 1036 0666 A74A     		ldr	r2, .L17+20
 1037 0668 039C     		ldr	r4, [sp, #12]
 1038 066a A74D     		ldr	r5, .L17+24
 1039 066c 08EB3373 		add	r3, r8, r3, ror #28
 1040              	.LVL89:
 1041 0670 2244     		add	r2, r2, r4
 1042 0672 88EA0104 		eor	r4, r8, r1
 1043              		.loc 1 192 0
 1044 0676 5C40     		eors	r4, r4, r3
 1045 0678 1044     		add	r0, r0, r2
 1046              	.LVL90:
 1047 067a 2044     		add	r0, r0, r4
 1048              	.LVL91:
 1049 067c 03EB705C 		add	ip, r3, r0, ror #21
 1050              	.LVL92:
 1051 0680 0598     		ldr	r0, [sp, #20]
 1052 0682 A24C     		ldr	r4, .L17+28
 1053 0684 0544     		add	r5, r5, r0
 1054 0686 83EA0802 		eor	r2, r3, r8
 1055              		.loc 1 193 0
 1056 068a 82EA0C02 		eor	r2, r2, ip
 1057 068e 2944     		add	r1, r1, r5
 1058              	.LVL93:
 1059 0690 1144     		add	r1, r1, r2
 1060              	.LVL94:
 1061 0692 0CEB3145 		add	r5, ip, r1, ror #16
 1062              	.LVL95:
 1063 0696 9E48     		ldr	r0, .L17+32
 1064 0698 0B99     		ldr	r1, [sp, #44]
 1065 069a 8CEA0302 		eor	r2, ip, r3
 1066 069e 0844     		add	r0, r0, r1
 1067              		.loc 1 194 0
 1068 06a0 6A40     		eors	r2, r2, r5
 1069 06a2 0C99     		ldr	r1, [sp, #48]
 1070 06a4 8044     		add	r8, r8, r0
 1071              	.LVL96:
 1072 06a6 9044     		add	r8, r8, r2
 1073              	.LVL97:
 1074 06a8 05EB782E 		add	lr, r5, r8, ror #9
 1075              	.LVL98:
 1076 06ac 0C44     		add	r4, r4, r1
 1077 06ae 85EA0C00 		eor	r0, r5, ip
 1078              		.loc 1 195 0
 1079 06b2 80EA0E00 		eor	r0, r0, lr
ARM GAS  C:\Users\jo\AppData\Local\Temp\ccBWvOPb.s 			page 20


 1080 06b6 2344     		add	r3, r3, r4
 1081              	.LVL99:
 1082 06b8 0344     		add	r3, r3, r0
 1083              	.LVL100:
 1084 06ba 0EEB3374 		add	r4, lr, r3, ror #28
 1085              	.LVL101:
 1086 06be 954A     		ldr	r2, .L17+36
 1087 06c0 009B     		ldr	r3, [sp]
 1088 06c2 9549     		ldr	r1, .L17+40
 1089 06c4 1A44     		add	r2, r2, r3
 1090 06c6 8EEA0500 		eor	r0, lr, r5
 1091              		.loc 1 196 0
 1092 06ca 6040     		eors	r0, r0, r4
 1093 06cc 9444     		add	ip, ip, r2
 1094              	.LVL102:
 1095 06ce 0CEB0002 		add	r2, ip, r0
 1096              	.LVL103:
 1097 06d2 0298     		ldr	r0, [sp, #8]
 1098 06d4 914B     		ldr	r3, .L17+44
 1099 06d6 04EB7252 		add	r2, r4, r2, ror #21
 1100              	.LVL104:
 1101 06da 0144     		add	r1, r1, r0
 1102 06dc 84EA0E0C 		eor	ip, r4, lr
 1103              		.loc 1 197 0
 1104 06e0 8CEA020C 		eor	ip, ip, r2
 1105 06e4 0D44     		add	r5, r5, r1
 1106              	.LVL105:
 1107 06e6 6544     		add	r5, r5, ip
 1108              	.LVL106:
 1109 06e8 02EB3541 		add	r1, r2, r5, ror #16
 1110              	.LVL107:
 1111 06ec 8C48     		ldr	r0, .L17+48
 1112 06ee 049D     		ldr	r5, [sp, #16]
 1113 06f0 2844     		add	r0, r0, r5
 1114 06f2 82EA0405 		eor	r5, r2, r4
 1115              		.loc 1 198 0
 1116 06f6 4D40     		eors	r5, r5, r1
 1117 06f8 8644     		add	lr, lr, r0
 1118              	.LVL108:
 1119 06fa 0EEB0500 		add	r0, lr, r5
 1120              	.LVL109:
 1121 06fe 01EB7020 		add	r0, r1, r0, ror #9
 1122              	.LVL110:
 1123 0702 4B44     		add	r3, r3, r9
 1124 0704 81EA020E 		eor	lr, r1, r2
 1125              		.loc 1 199 0
 1126 0708 8EEA000E 		eor	lr, lr, r0
 1127 070c 1C44     		add	r4, r4, r3
 1128              	.LVL111:
 1129 070e 7444     		add	r4, r4, lr
 1130              	.LVL112:
 1131 0710 00EB3478 		add	r8, r0, r4, ror #28
 1132              	.LVL113:
 1133 0714 834B     		ldr	r3, .L17+52
 1134 0716 089C     		ldr	r4, [sp, #32]
 1135 0718 834D     		ldr	r5, .L17+56
 1136 071a 2344     		add	r3, r3, r4
ARM GAS  C:\Users\jo\AppData\Local\Temp\ccBWvOPb.s 			page 21


 1137 071c 80EA0104 		eor	r4, r0, r1
 1138              		.loc 1 200 0
 1139 0720 84EA0804 		eor	r4, r4, r8
 1140 0724 1A44     		add	r2, r2, r3
 1141              	.LVL114:
 1142 0726 1319     		adds	r3, r2, r4
 1143              	.LVL115:
 1144 0728 08EB7353 		add	r3, r8, r3, ror #21
 1145              	.LVL116:
 1146 072c 5D44     		add	r5, r5, fp
 1147 072e 88EA0002 		eor	r2, r8, r0
 1148              		.loc 1 201 0
 1149 0732 5A40     		eors	r2, r2, r3
 1150 0734 2944     		add	r1, r1, r5
 1151              	.LVL117:
 1152 0736 1144     		add	r1, r1, r2
 1153              	.LVL118:
 1154 0738 03EB314C 		add	ip, r3, r1, ror #16
 1155              	.LVL119:
 1156 073c 7B4C     		ldr	r4, .L17+60
 1157 073e 0999     		ldr	r1, [sp, #36]
 1158 0740 7B4D     		ldr	r5, .L17+64
 1159 0742 0C44     		add	r4, r4, r1
 1160 0744 83EA0802 		eor	r2, r3, r8
 1161              		.loc 1 202 0
 1162 0748 82EA0C02 		eor	r2, r2, ip
 1163 074c 2044     		add	r0, r0, r4
 1164              	.LVL120:
 1165 074e 1044     		add	r0, r0, r2
 1166              	.LVL121:
 1167 0750 009A     		ldr	r2, [sp]
 1168 0752 784C     		ldr	r4, .L17+68
 1169 0754 7849     		ldr	r1, .L17+72
 1170 0756 0CEB702E 		add	lr, ip, r0, ror #9
 1171              	.LVL122:
 1172 075a 1544     		add	r5, r5, r2
 1173              		.loc 1 208 0
 1174 075c 6EEA0302 		orn	r2, lr, r3
 1175 0760 82EA0C02 		eor	r2, r2, ip
 1176 0764 4544     		add	r5, r5, r8
 1177              	.LVL123:
 1178 0766 7548     		ldr	r0, .L17+76
 1179 0768 0090     		str	r0, [sp]
 1180 076a 1544     		add	r5, r5, r2
 1181              	.LVL124:
 1182 076c 0598     		ldr	r0, [sp, #20]
 1183 076e 744A     		ldr	r2, .L17+80
 1184 0770 0EEBB565 		add	r5, lr, r5, ror #26
 1185              	.LVL125:
 1186 0774 0244     		add	r2, r2, r0
 1187              		.loc 1 209 0
 1188 0776 65EA0C08 		orn	r8, r5, ip
 1189 077a 88EA0E08 		eor	r8, r8, lr
 1190 077e 1344     		add	r3, r3, r2
 1191              	.LVL126:
 1192 0780 03EB0802 		add	r2, r3, r8
 1193              	.LVL127:
ARM GAS  C:\Users\jo\AppData\Local\Temp\ccBWvOPb.s 			page 22


 1194 0784 05EBB252 		add	r2, r5, r2, ror #22
 1195              	.LVL128:
 1196 0788 3C44     		add	r4, r4, r7
 1197              		.loc 1 210 0
 1198 078a 62EA0E03 		orn	r3, r2, lr
 1199 078e 6B40     		eors	r3, r3, r5
 1200 0790 A444     		add	ip, ip, r4
 1201              	.LVL129:
 1202 0792 0098     		ldr	r0, [sp]
 1203 0794 6B4F     		ldr	r7, .L17+84
 1204 0796 0597     		str	r7, [sp, #20]
 1205 0798 0CEB0304 		add	r4, ip, r3
 1206              	.LVL130:
 1207 079c 02EB7444 		add	r4, r2, r4, ror #17
 1208              	.LVL131:
 1209 07a0 3044     		add	r0, r0, r6
 1210              		.loc 1 211 0
 1211 07a2 64EA0503 		orn	r3, r4, r5
 1212 07a6 5340     		eors	r3, r3, r2
 1213 07a8 8644     		add	lr, lr, r0
 1214              	.LVL132:
 1215 07aa 0EEB0300 		add	r0, lr, r3
 1216              	.LVL133:
 1217 07ae 089B     		ldr	r3, [sp, #32]
 1218 07b0 DFF8B881 		ldr	r8, .L17+124
 1219 07b4 DFF8B8E1 		ldr	lr, .L17+128
 1220 07b8 634F     		ldr	r7, .L17+88
 1221 07ba 644E     		ldr	r6, .L17+92
 1222 07bc 04EBF020 		add	r0, r4, r0, ror #11
 1223              	.LVL134:
 1224 07c0 1944     		add	r1, r1, r3
 1225              		.loc 1 212 0
 1226 07c2 60EA0203 		orn	r3, r0, r2
 1227 07c6 6340     		eors	r3, r3, r4
 1228 07c8 2944     		add	r1, r1, r5
 1229              	.LVL135:
 1230 07ca 1944     		add	r1, r1, r3
 1231              	.LVL136:
 1232 07cc 604B     		ldr	r3, .L17+96
 1233 07ce 0093     		str	r3, [sp]
 1234 07d0 604B     		ldr	r3, .L17+100
 1235 07d2 0893     		str	r3, [sp, #32]
 1236 07d4 604D     		ldr	r5, .L17+104
 1237 07d6 029B     		ldr	r3, [sp, #8]
 1238 07d8 00EBB161 		add	r1, r0, r1, ror #26
 1239              	.LVL137:
 1240 07dc 1D44     		add	r5, r5, r3
 1241              		.loc 1 213 0
 1242 07de 61EA040C 		orn	ip, r1, r4
 1243 07e2 2B46     		mov	r3, r5
 1244 07e4 8CEA000C 		eor	ip, ip, r0
 1245 07e8 1344     		add	r3, r3, r2
 1246              	.LVL138:
 1247 07ea 0B9A     		ldr	r2, [sp, #44]
 1248 07ec 6344     		add	r3, r3, ip
 1249              	.LVL139:
 1250 07ee 01EBB353 		add	r3, r1, r3, ror #22
ARM GAS  C:\Users\jo\AppData\Local\Temp\ccBWvOPb.s 			page 23


 1251              	.LVL140:
 1252 07f2 A2F5801C 		sub	ip, r2, #1048576
 1253 07f6 ACF6833C 		subw	ip, ip, #2947
 1254              		.loc 1 214 0
 1255 07fa 63EA0002 		orn	r2, r3, r0
 1256 07fe 4A40     		eors	r2, r2, r1
 1257 0800 6444     		add	r4, r4, ip
 1258              	.LVL141:
 1259 0802 1444     		add	r4, r4, r2
 1260              	.LVL142:
 1261 0804 019A     		ldr	r2, [sp, #4]
 1262 0806 9446     		mov	ip, r2
 1263 0808 009A     		ldr	r2, [sp]
 1264 080a 6244     		add	r2, r2, ip
 1265 080c 0092     		str	r2, [sp]
 1266 080e 03EB7444 		add	r4, r3, r4, ror #17
 1267              	.LVL143:
 1268 0812 009D     		ldr	r5, [sp]
 1269              		.loc 1 215 0
 1270 0814 64EA0102 		orn	r2, r4, r1
 1271 0818 5A40     		eors	r2, r2, r3
 1272 081a 2844     		add	r0, r0, r5
 1273              	.LVL144:
 1274 081c 1044     		add	r0, r0, r2
 1275              	.LVL145:
 1276 081e 059D     		ldr	r5, [sp, #20]
 1277 0820 069A     		ldr	r2, [sp, #24]
 1278 0822 04EBF020 		add	r0, r4, r0, ror #11
 1279              	.LVL146:
 1280 0826 2A44     		add	r2, r2, r5
 1281              		.loc 1 216 0
 1282 0828 60EA030C 		orn	ip, r0, r3
 1283 082c 8CEA040C 		eor	ip, ip, r4
 1284 0830 1144     		add	r1, r1, r2
 1285              	.LVL147:
 1286 0832 089A     		ldr	r2, [sp, #32]
 1287 0834 6144     		add	r1, r1, ip
 1288              	.LVL148:
 1289 0836 00EBB161 		add	r1, r0, r1, ror #26
 1290              	.LVL149:
 1291 083a 5A44     		add	r2, fp, r2
 1292 083c 1546     		mov	r5, r2
 1293              		.loc 1 217 0
 1294 083e 61EA0402 		orn	r2, r1, r4
 1295 0842 4240     		eors	r2, r2, r0
 1296 0844 2B44     		add	r3, r3, r5
 1297              	.LVL150:
 1298 0846 1344     		add	r3, r3, r2
 1299              	.LVL151:
 1300 0848 049D     		ldr	r5, [sp, #16]
 1301 084a 0C9A     		ldr	r2, [sp, #48]
 1302 084c 01EBB353 		add	r3, r1, r3, ror #22
 1303              	.LVL152:
 1304 0850 A844     		add	r8, r8, r5
 1305              		.loc 1 218 0
 1306 0852 63EA0005 		orn	r5, r3, r0
 1307 0856 4D40     		eors	r5, r5, r1
ARM GAS  C:\Users\jo\AppData\Local\Temp\ccBWvOPb.s 			page 24


 1308 0858 A044     		add	r8, r8, r4
 1309              	.LVL153:
 1310 085a A844     		add	r8, r8, r5
 1311              	.LVL154:
 1312 085c 03EB7848 		add	r8, r3, r8, ror #17
 1313              	.LVL155:
 1314              		.loc 1 219 0
 1315 0860 68EA0104 		orn	r4, r8, r1
 1316 0864 9644     		add	lr, lr, r2
 1317 0866 5C40     		eors	r4, r4, r3
 1318 0868 8644     		add	lr, lr, r0
 1319              	.LVL156:
 1320 086a A644     		add	lr, lr, r4
 1321              	.LVL157:
 1322 086c 039C     		ldr	r4, [sp, #12]
 1323 086e 3B48     		ldr	r0, .L17+108
 1324 0870 08EBFE2E 		add	lr, r8, lr, ror #11
 1325              	.LVL158:
 1326 0874 2744     		add	r7, r7, r4
 1327              		.loc 1 220 0
 1328 0876 6EEA0302 		orn	r2, lr, r3
 1329 087a 82EA0802 		eor	r2, r2, r8
 1330 087e 3944     		add	r1, r1, r7
 1331              	.LVL159:
 1332 0880 079C     		ldr	r4, [sp, #28]
 1333 0882 1144     		add	r1, r1, r2
 1334              	.LVL160:
 1335 0884 0EEBB161 		add	r1, lr, r1, ror #26
 1336              	.LVL161:
 1337              		.loc 1 221 0
 1338 0888 61EA0802 		orn	r2, r1, r8
 1339 088c 2644     		add	r6, r6, r4
 1340 088e 3344     		add	r3, r3, r6
 1341              	.LVL162:
 1342 0890 82EA0E06 		eor	r6, r2, lr
 1343 0894 3344     		add	r3, r3, r6
 1344              	.LVL163:
 1345 0896 324C     		ldr	r4, .L17+112
 1346 0898 099E     		ldr	r6, [sp, #36]
 1347 089a DAF80C20 		ldr	r2, [r10, #12]
 1348 089e 01EBB353 		add	r3, r1, r3, ror #22
 1349              	.LVL164:
 1350 08a2 3444     		add	r4, r4, r6
 1351              		.loc 1 222 0
 1352 08a4 63EA0E05 		orn	r5, r3, lr
 1353 08a8 4D40     		eors	r5, r5, r1
 1354 08aa A044     		add	r8, r8, r4
 1355              	.LVL165:
 1356 08ac A844     		add	r8, r8, r5
 1357              	.LVL166:
 1358 08ae 03EB7848 		add	r8, r3, r8, ror #17
 1359              	.LVL167:
 1360 08b2 4844     		add	r0, r0, r9
 1361 08b4 08EB0209 		add	r9, r8, r2
 1362              		.loc 1 227 0
 1363 08b8 DAF80820 		ldr	r2, [r10, #8]
 1364              		.loc 1 223 0
ARM GAS  C:\Users\jo\AppData\Local\Temp\ccBWvOPb.s 			page 25


 1365 08bc 68EA0104 		orn	r4, r8, r1
 1366              		.loc 1 227 0
 1367 08c0 1144     		add	r1, r1, r2
 1368              	.LVL168:
 1369              		.loc 1 230 0
 1370 08c2 DAF81420 		ldr	r2, [r10, #20]
 1371              		.loc 1 227 0
 1372 08c6 CAF80810 		str	r1, [r10, #8]
 1373              	.LVL169:
 1374              		.loc 1 223 0
 1375 08ca 5C40     		eors	r4, r4, r3
 1376 08cc 8644     		add	lr, lr, r0
 1377              	.LVL170:
 1378              		.loc 1 230 0
 1379 08ce 1344     		add	r3, r3, r2
 1380              	.LVL171:
 1381              		.loc 1 229 0
 1382 08d0 DAF81020 		ldr	r2, [r10, #16]
 1383              		.loc 1 230 0
 1384 08d4 CAF81430 		str	r3, [r10, #20]
 1385              		.loc 1 223 0
 1386 08d8 A644     		add	lr, lr, r4
 1387              		.loc 1 229 0
 1388 08da 08EB0200 		add	r0, r8, r2
 1389              		.loc 1 228 0
 1390 08de 09EBFE24 		add	r4, r9, lr, ror #11
 1391              		.loc 1 229 0
 1392 08e2 CAF81000 		str	r0, [r10, #16]
 1393              		.loc 1 228 0
 1394 08e6 CAF80C40 		str	r4, [r10, #12]
 1395              		.loc 1 231 0
 1396 08ea 2FB0     		add	sp, sp, #188
 1397              		.cfi_def_cfa_offset 36
 1398              		@ sp needed
 1399 08ec BDE8F08F 		pop	{r4, r5, r6, r7, r8, r9, r10, fp, pc}
 1400              	.LVL172:
 1401              	.L18:
 1402              		.align	2
 1403              	.L17:
 1404 08f0 D9026F67 		.word	1735328473
 1405 08f4 8A4C2A8D 		.word	-1926607734
 1406 08f8 22619D6D 		.word	1839030562
 1407 08fc 0C38E5FD 		.word	-35309556
 1408 0900 44EABEA4 		.word	-1530992060
 1409 0904 A9CFDE4B 		.word	1272893353
 1410 0908 604BBBF6 		.word	-155497632
 1411 090c C67E9B28 		.word	681279174
 1412 0910 70BCBFBE 		.word	-1094730640
 1413 0914 FA27A1EA 		.word	-358537222
 1414 0918 8530EFD4 		.word	-722521979
 1415 091c 39D0D4D9 		.word	-640364487
 1416 0920 051D8804 		.word	76029189
 1417 0924 E599DBE6 		.word	-421815835
 1418 0928 F87CA21F 		.word	530742520
 1419 092c 6556ACC4 		.word	-995338651
 1420 0930 442229F4 		.word	-198630844
 1421 0934 A72394AB 		.word	-1416354905
ARM GAS  C:\Users\jo\AppData\Local\Temp\ccBWvOPb.s 			page 26


 1422 0938 C3595B65 		.word	1700485571
 1423 093c 39A093FC 		.word	-57434055
 1424 0940 97FF2A43 		.word	1126891415
 1425 0944 4F7EA86F 		.word	1873313359
 1426 0948 827E53F7 		.word	-145523070
 1427 094c 35F23ABD 		.word	-1120210379
 1428 0950 D15D8485 		.word	-2054922799
 1429 0954 E0E62CFE 		.word	-30611744
 1430 0958 92CC0C8F 		.word	-1894986606
 1431 095c 91D386EB 		.word	-343485551
 1432 0960 BBD2D72A 		.word	718787259
 1433 0964 F8A3EFFC 		.word	-51403784
 1434 0968 81F67187 		.word	-2022574463
 1435 096c 144301A3 		.word	-1560198380
 1436 0970 A111084E 		.word	1309151649
 1437              		.cfi_endproc
 1438              	.LFE4:
 1439              		.size	md5_process, .-md5_process
 1440 0974 AFF30080 		.section	.text.md5_update.part.0,"ax",%progbits
 1440      AFF30080 
 1440      AFF30080 
 1441              		.align	2
 1442              		.p2align 4,,15
 1443              		.thumb
 1444              		.thumb_func
 1445              		.type	md5_update.part.0, %function
 1446              	md5_update.part.0:
 1447              	.LFB15:
 1448              		.loc 1 236 0
 1449              		.cfi_startproc
 1450              		@ args = 0, pretend = 0, frame = 0
 1451              		@ frame_needed = 0, uses_anonymous_args = 0
 1452              	.LVL173:
 1453 0000 2DE9F843 		push	{r3, r4, r5, r6, r7, r8, r9, lr}
 1454              		.cfi_def_cfa_offset 32
 1455              		.cfi_offset 3, -32
 1456              		.cfi_offset 4, -28
 1457              		.cfi_offset 5, -24
 1458              		.cfi_offset 6, -20
 1459              		.cfi_offset 7, -16
 1460              		.cfi_offset 8, -12
 1461              		.cfi_offset 9, -8
 1462              		.cfi_offset 14, -4
 1463              		.loc 1 236 0
 1464 0004 0646     		mov	r6, r0
 1465              		.loc 1 244 0
 1466 0006 0068     		ldr	r0, [r0]
 1467              	.LVL174:
 1468              		.loc 1 247 0
 1469 0008 1318     		adds	r3, r2, r0
 1470              		.loc 1 250 0
 1471 000a 9A42     		cmp	r2, r3
 1472              		.loc 1 236 0
 1473 000c 1746     		mov	r7, r2
 1474 000e 8946     		mov	r9, r1
 1475              		.loc 1 247 0
 1476 0010 3360     		str	r3, [r6]
ARM GAS  C:\Users\jo\AppData\Local\Temp\ccBWvOPb.s 			page 27


 1477              		.loc 1 244 0
 1478 0012 00F03F08 		and	r8, r0, #63
 1479              	.LVL175:
 1480              		.loc 1 250 0
 1481 0016 02D9     		bls	.L20
 1482              		.loc 1 251 0
 1483 0018 7368     		ldr	r3, [r6, #4]
 1484 001a 0133     		adds	r3, r3, #1
 1485 001c 7360     		str	r3, [r6, #4]
 1486              	.L20:
 1487              		.loc 1 253 0
 1488 001e B8F1000F 		cmp	r8, #0
 1489 0022 16D0     		beq	.L21
 1490              		.loc 1 245 0
 1491 0024 C8F14004 		rsb	r4, r8, #64
 1492              		.loc 1 253 0
 1493 0028 BC42     		cmp	r4, r7
 1494 002a 02D9     		bls	.L31
 1495              	.LVL176:
 1496              	.L23:
 1497              		.loc 1 269 0
 1498 002c 47BB     		cbnz	r7, .L32
 1499              	.LVL177:
 1500              	.L19:
 1501 002e BDE8F883 		pop	{r3, r4, r5, r6, r7, r8, r9, pc}
 1502              	.LVL178:
 1503              	.L31:
 1504              		.loc 1 255 0
 1505 0032 08F11800 		add	r0, r8, #24
 1506 0036 4946     		mov	r1, r9
 1507              	.LVL179:
 1508 0038 2246     		mov	r2, r4
 1509              	.LVL180:
 1510 003a 3044     		add	r0, r0, r6
 1511 003c FFF7FEFF 		bl	memcpy
 1512              	.LVL181:
 1513              		.loc 1 256 0
 1514 0040 3046     		mov	r0, r6
 1515 0042 06F11801 		add	r1, r6, #24
 1516 0046 FFF7FEFF 		bl	md5_process
 1517              	.LVL182:
 1518              		.loc 1 258 0
 1519 004a 3F1B     		subs	r7, r7, r4
 1520              	.LVL183:
 1521              		.loc 1 257 0
 1522 004c A144     		add	r9, r9, r4
 1523              	.LVL184:
 1524              		.loc 1 259 0
 1525 004e 4FF00008 		mov	r8, #0
 1526              	.LVL185:
 1527              	.L21:
 1528              		.loc 1 262 0
 1529 0052 3F2F     		cmp	r7, #63
 1530 0054 EAD9     		bls	.L23
 1531 0056 3D46     		mov	r5, r7
 1532 0058 4C46     		mov	r4, r9
 1533              	.LVL186:
ARM GAS  C:\Users\jo\AppData\Local\Temp\ccBWvOPb.s 			page 28


 1534              	.L24:
 1535              		.loc 1 264 0
 1536 005a 2146     		mov	r1, r4
 1537              		.loc 1 266 0
 1538 005c 403D     		subs	r5, r5, #64
 1539              	.LVL187:
 1540              		.loc 1 264 0
 1541 005e 3046     		mov	r0, r6
 1542 0060 FFF7FEFF 		bl	md5_process
 1543              	.LVL188:
 1544              		.loc 1 262 0
 1545 0064 3F2D     		cmp	r5, #63
 1546              		.loc 1 265 0
 1547 0066 04F14004 		add	r4, r4, #64
 1548              	.LVL189:
 1549              		.loc 1 262 0
 1550 006a F6D8     		bhi	.L24
 1551 006c A7F14003 		sub	r3, r7, #64
 1552 0070 23F03F03 		bic	r3, r3, #63
 1553 0074 4033     		adds	r3, r3, #64
 1554 0076 07F03F07 		and	r7, r7, #63
 1555 007a 9944     		add	r9, r9, r3
 1556              		.loc 1 269 0
 1557 007c 002F     		cmp	r7, #0
 1558 007e D6D0     		beq	.L19
 1559              	.LVL190:
 1560              	.L32:
 1561              		.loc 1 271 0
 1562 0080 08F11800 		add	r0, r8, #24
 1563 0084 3044     		add	r0, r0, r6
 1564 0086 4946     		mov	r1, r9
 1565 0088 3A46     		mov	r2, r7
 1566              		.loc 1 273 0
 1567 008a BDE8F843 		pop	{r3, r4, r5, r6, r7, r8, r9, lr}
 1568              		.cfi_restore 14
 1569              		.cfi_restore 9
 1570              		.cfi_restore 8
 1571              		.cfi_restore 7
 1572              		.cfi_restore 6
 1573              		.cfi_restore 5
 1574              		.cfi_restore 4
 1575              		.cfi_restore 3
 1576              		.cfi_def_cfa_offset 0
 1577              	.LVL191:
 1578              		.loc 1 271 0
 1579 008e FFF7FEBF 		b	memcpy
 1580              	.LVL192:
 1581              		.cfi_endproc
 1582              	.LFE15:
 1583              		.size	md5_update.part.0, .-md5_update.part.0
 1584 0092 00BFAFF3 		.section	.text.md5_update,"ax",%progbits
 1584      0080AFF3 
 1584      0080AFF3 
 1584      0080
 1585              		.align	2
 1586              		.p2align 4,,15
 1587              		.global	md5_update
ARM GAS  C:\Users\jo\AppData\Local\Temp\ccBWvOPb.s 			page 29


 1588              		.thumb
 1589              		.thumb_func
 1590              		.type	md5_update, %function
 1591              	md5_update:
 1592              	.LFB5:
 1593              		.loc 1 237 0
 1594              		.cfi_startproc
 1595              		@ args = 0, pretend = 0, frame = 0
 1596              		@ frame_needed = 0, uses_anonymous_args = 0
 1597              		@ link register save eliminated.
 1598              	.LVL193:
 1599              		.loc 1 241 0
 1600 0000 0AB1     		cbz	r2, .L33
 1601 0002 FFF7FEBF 		b	md5_update.part.0
 1602              	.LVL194:
 1603              	.L33:
 1604 0006 7047     		bx	lr
 1605              		.cfi_endproc
 1606              	.LFE5:
 1607              		.size	md5_update, .-md5_update
 1608 0008 AFF30080 		.section	.text.md5_finish,"ax",%progbits
 1608      AFF30080 
 1609              		.align	2
 1610              		.p2align 4,,15
 1611              		.global	md5_finish
 1612              		.thumb
 1613              		.thumb_func
 1614              		.type	md5_finish, %function
 1615              	md5_finish:
 1616              	.LFB6:
 1617              		.loc 1 287 0
 1618              		.cfi_startproc
 1619              		@ args = 0, pretend = 0, frame = 8
 1620              		@ frame_needed = 0, uses_anonymous_args = 0
 1621              	.LVL195:
 1622 0000 2DE9F041 		push	{r4, r5, r6, r7, r8, lr}
 1623              		.cfi_def_cfa_offset 24
 1624              		.cfi_offset 4, -24
 1625              		.cfi_offset 5, -20
 1626              		.cfi_offset 6, -16
 1627              		.cfi_offset 7, -12
 1628              		.cfi_offset 8, -8
 1629              		.cfi_offset 14, -4
 1630              		.loc 1 292 0
 1631 0004 0268     		ldr	r2, [r0]
 1632              		.loc 1 287 0
 1633 0006 0D46     		mov	r5, r1
 1634              		.loc 1 293 0
 1635 0008 4168     		ldr	r1, [r0, #4]
 1636              	.LVL196:
 1637              		.loc 1 292 0
 1638 000a 530F     		lsrs	r3, r2, #29
 1639              		.loc 1 287 0
 1640 000c 82B0     		sub	sp, sp, #8
 1641              		.cfi_def_cfa_offset 32
 1642              		.loc 1 292 0
 1643 000e 43EAC103 		orr	r3, r3, r1, lsl #3
ARM GAS  C:\Users\jo\AppData\Local\Temp\ccBWvOPb.s 			page 30


 1644              	.LVL197:
 1645              		.loc 1 294 0
 1646 0012 D100     		lsls	r1, r2, #3
 1647              	.LVL198:
 1648              		.loc 1 299 0
 1649 0014 02F03F02 		and	r2, r2, #63
 1650              	.LVL199:
 1651              		.loc 1 287 0
 1652 0018 0446     		mov	r4, r0
 1653              		.loc 1 300 0
 1654 001a 372A     		cmp	r2, #55
 1655              		.loc 1 296 0
 1656 001c 4FEA1160 		lsr	r0, r1, #24
 1657              	.LVL200:
 1658              		.loc 1 297 0
 1659 0020 4FEA1328 		lsr	r8, r3, #8
 1660 0024 4FEA134C 		lsr	ip, r3, #16
 1661 0028 4FEA136E 		lsr	lr, r3, #24
 1662              		.loc 1 300 0
 1663 002c 94BF     		ite	ls
 1664 002e C2F13802 		rsbls	r2, r2, #56
 1665              	.LVL201:
 1666 0032 C2F17802 		rsbhi	r2, r2, #120
 1667              	.LVL202:
 1668              		.loc 1 296 0
 1669 0036 0F0A     		lsrs	r7, r1, #8
 1670 0038 0E0C     		lsrs	r6, r1, #16
 1671 003a 8DF80010 		strb	r1, [sp]
 1672 003e 8DF80300 		strb	r0, [sp, #3]
 1673              	.LBB64:
 1674              	.LBB65:
 1675 0042 1E49     		ldr	r1, .L39
 1676              	.LVL203:
 1677              	.LBE65:
 1678              	.LBE64:
 1679              		.loc 1 297 0
 1680 0044 8DF80430 		strb	r3, [sp, #4]
 1681              	.LBB68:
 1682              	.LBB66:
 1683 0048 2046     		mov	r0, r4
 1684              	.LBE66:
 1685              	.LBE68:
 1686 004a 8DF806C0 		strb	ip, [sp, #6]
 1687 004e 8DF807E0 		strb	lr, [sp, #7]
 1688 0052 8DF80580 		strb	r8, [sp, #5]
 1689              		.loc 1 296 0
 1690 0056 8DF80170 		strb	r7, [sp, #1]
 1691 005a 8DF80260 		strb	r6, [sp, #2]
 1692              	.LBB69:
 1693              	.LBB67:
 1694 005e FFF7FEFF 		bl	md5_update.part.0
 1695              	.LVL204:
 1696              	.LBE67:
 1697              	.LBE69:
 1698              	.LBB70:
 1699              	.LBB71:
 1700 0062 2046     		mov	r0, r4
ARM GAS  C:\Users\jo\AppData\Local\Temp\ccBWvOPb.s 			page 31


 1701 0064 6946     		mov	r1, sp
 1702 0066 0822     		movs	r2, #8
 1703 0068 FFF7FEFF 		bl	md5_update.part.0
 1704              	.LVL205:
 1705              	.LBE71:
 1706              	.LBE70:
 1707              		.loc 1 305 0
 1708 006c A368     		ldr	r3, [r4, #8]
 1709 006e 2B70     		strb	r3, [r5]
 1710 0070 A368     		ldr	r3, [r4, #8]
 1711 0072 1B0A     		lsrs	r3, r3, #8
 1712 0074 6B70     		strb	r3, [r5, #1]
 1713 0076 6389     		ldrh	r3, [r4, #10]
 1714 0078 AB70     		strb	r3, [r5, #2]
 1715 007a E37A     		ldrb	r3, [r4, #11]	@ zero_extendqisi2
 1716 007c EB70     		strb	r3, [r5, #3]
 1717              		.loc 1 306 0
 1718 007e E368     		ldr	r3, [r4, #12]
 1719 0080 2B71     		strb	r3, [r5, #4]
 1720 0082 E368     		ldr	r3, [r4, #12]
 1721 0084 1B0A     		lsrs	r3, r3, #8
 1722 0086 6B71     		strb	r3, [r5, #5]
 1723 0088 E389     		ldrh	r3, [r4, #14]
 1724 008a AB71     		strb	r3, [r5, #6]
 1725 008c E37B     		ldrb	r3, [r4, #15]	@ zero_extendqisi2
 1726 008e EB71     		strb	r3, [r5, #7]
 1727              		.loc 1 307 0
 1728 0090 2369     		ldr	r3, [r4, #16]
 1729 0092 2B72     		strb	r3, [r5, #8]
 1730 0094 2369     		ldr	r3, [r4, #16]
 1731 0096 1B0A     		lsrs	r3, r3, #8
 1732 0098 6B72     		strb	r3, [r5, #9]
 1733 009a 638A     		ldrh	r3, [r4, #18]
 1734 009c AB72     		strb	r3, [r5, #10]
 1735 009e E37C     		ldrb	r3, [r4, #19]	@ zero_extendqisi2
 1736 00a0 EB72     		strb	r3, [r5, #11]
 1737              		.loc 1 308 0
 1738 00a2 6369     		ldr	r3, [r4, #20]
 1739 00a4 2B73     		strb	r3, [r5, #12]
 1740 00a6 6369     		ldr	r3, [r4, #20]
 1741 00a8 1B0A     		lsrs	r3, r3, #8
 1742 00aa 6B73     		strb	r3, [r5, #13]
 1743 00ac E38A     		ldrh	r3, [r4, #22]
 1744 00ae AB73     		strb	r3, [r5, #14]
 1745 00b0 E37D     		ldrb	r3, [r4, #23]	@ zero_extendqisi2
 1746 00b2 EB73     		strb	r3, [r5, #15]
 1747              		.loc 1 309 0
 1748 00b4 02B0     		add	sp, sp, #8
 1749              		.cfi_def_cfa_offset 24
 1750              	.LVL206:
 1751              		@ sp needed
 1752 00b6 BDE8F081 		pop	{r4, r5, r6, r7, r8, pc}
 1753              	.LVL207:
 1754              	.L40:
 1755 00ba 00BF     		.align	2
 1756              	.L39:
 1757 00bc 00000000 		.word	.LANCHOR0
ARM GAS  C:\Users\jo\AppData\Local\Temp\ccBWvOPb.s 			page 32


 1758              		.cfi_endproc
 1759              	.LFE6:
 1760              		.size	md5_finish, .-md5_finish
 1761              		.section	.text.md5,"ax",%progbits
 1762              		.align	2
 1763              		.p2align 4,,15
 1764              		.global	md5
 1765              		.thumb
 1766              		.thumb_func
 1767              		.type	md5, %function
 1768              	md5:
 1769              	.LFB7:
 1770              		.loc 1 317 0
 1771              		.cfi_startproc
 1772              		@ args = 0, pretend = 0, frame = 216
 1773              		@ frame_needed = 0, uses_anonymous_args = 0
 1774              	.LVL208:
 1775 0000 70B5     		push	{r4, r5, r6, lr}
 1776              		.cfi_def_cfa_offset 16
 1777              		.cfi_offset 4, -16
 1778              		.cfi_offset 5, -12
 1779              		.cfi_offset 6, -8
 1780              		.cfi_offset 14, -4
 1781 0002 B6B0     		sub	sp, sp, #216
 1782              		.cfi_def_cfa_offset 232
 1783              	.LVL209:
 1784              		.loc 1 317 0
 1785 0004 0646     		mov	r6, r0
 1786 0006 0C46     		mov	r4, r1
 1787 0008 1546     		mov	r5, r2
 1788              	.LBB72:
 1789              	.LBB73:
 1790              		.loc 1 85 0
 1791 000a 0021     		movs	r1, #0
 1792              	.LVL210:
 1793 000c D822     		movs	r2, #216
 1794              	.LVL211:
 1795 000e 6846     		mov	r0, sp
 1796              	.LVL212:
 1797 0010 FFF7FEFF 		bl	memset
 1798              	.LVL213:
 1799              	.LBE73:
 1800              	.LBE72:
 1801              	.LBB74:
 1802              	.LBB75:
 1803              		.loc 1 104 0
 1804 0014 0D48     		ldr	r0, .L50
 1805              		.loc 1 105 0
 1806 0016 0E49     		ldr	r1, .L50+4
 1807              		.loc 1 106 0
 1808 0018 0E4A     		ldr	r2, .L50+8
 1809              		.loc 1 107 0
 1810 001a 0F4B     		ldr	r3, .L50+12
 1811              		.loc 1 104 0
 1812 001c 0290     		str	r0, [sp, #8]
 1813              		.loc 1 105 0
 1814 001e 0391     		str	r1, [sp, #12]
ARM GAS  C:\Users\jo\AppData\Local\Temp\ccBWvOPb.s 			page 33


 1815              		.loc 1 106 0
 1816 0020 0492     		str	r2, [sp, #16]
 1817              		.loc 1 107 0
 1818 0022 0593     		str	r3, [sp, #20]
 1819              	.LVL214:
 1820              	.LBE75:
 1821              	.LBE74:
 1822              	.LBB76:
 1823              	.LBB77:
 1824              		.loc 1 241 0
 1825 0024 64B9     		cbnz	r4, .L49
 1826              	.L42:
 1827              	.LBE77:
 1828              	.LBE76:
 1829              		.loc 1 323 0
 1830 0026 2946     		mov	r1, r5
 1831 0028 6846     		mov	r0, sp
 1832 002a FFF7FEFF 		bl	md5_finish
 1833              	.LVL215:
 1834 002e 6B46     		mov	r3, sp
 1835              	.LBB79:
 1836              	.LBB80:
 1837              	.LBB81:
 1838              		.loc 1 55 0
 1839 0030 0022     		movs	r2, #0
 1840              	.LVL216:
 1841              	.L43:
 1842 0032 1A70     		strb	r2, [r3]
 1843              	.LVL217:
 1844 0034 36A9     		add	r1, sp, #216
 1845 0036 0133     		adds	r3, r3, #1
 1846              	.LVL218:
 1847 0038 8B42     		cmp	r3, r1
 1848 003a FAD1     		bne	.L43
 1849              	.LBE81:
 1850              	.LBE80:
 1851              	.LBE79:
 1852              		.loc 1 325 0
 1853 003c 36B0     		add	sp, sp, #216
 1854              		.cfi_remember_state
 1855              		.cfi_def_cfa_offset 16
 1856              	.LVL219:
 1857              		@ sp needed
 1858 003e 70BD     		pop	{r4, r5, r6, pc}
 1859              	.LVL220:
 1860              	.L49:
 1861              		.cfi_restore_state
 1862              	.LBB82:
 1863              	.LBB78:
 1864 0040 3146     		mov	r1, r6
 1865 0042 2246     		mov	r2, r4
 1866 0044 6846     		mov	r0, sp
 1867 0046 FFF7FEFF 		bl	md5_update.part.0
 1868              	.LVL221:
 1869 004a ECE7     		b	.L42
 1870              	.L51:
 1871              		.align	2
ARM GAS  C:\Users\jo\AppData\Local\Temp\ccBWvOPb.s 			page 34


 1872              	.L50:
 1873 004c 01234567 		.word	1732584193
 1874 0050 89ABCDEF 		.word	-271733879
 1875 0054 FEDCBA98 		.word	-1732584194
 1876 0058 76543210 		.word	271733878
 1877              	.LBE78:
 1878              	.LBE82:
 1879              		.cfi_endproc
 1880              	.LFE7:
 1881              		.size	md5, .-md5
 1882 005c AFF30080 		.section	.text.md5_file,"ax",%progbits
 1883              		.align	2
 1884              		.p2align 4,,15
 1885              		.global	md5_file
 1886              		.thumb
 1887              		.thumb_func
 1888              		.type	md5_file, %function
 1889              	md5_file:
 1890              	.LFB8:
 1891              		.loc 1 332 0
 1892              		.cfi_startproc
 1893              		@ args = 0, pretend = 0, frame = 1240
 1894              		@ frame_needed = 0, uses_anonymous_args = 0
 1895              	.LVL222:
 1896 0000 F0B5     		push	{r4, r5, r6, r7, lr}
 1897              		.cfi_def_cfa_offset 20
 1898              		.cfi_offset 4, -20
 1899              		.cfi_offset 5, -16
 1900              		.cfi_offset 6, -12
 1901              		.cfi_offset 7, -8
 1902              		.cfi_offset 14, -4
 1903 0002 0F46     		mov	r7, r1
 1904 0004 ADF2DC4D 		subw	sp, sp, #1244
 1905              		.cfi_def_cfa_offset 1264
 1906              		.loc 1 338 0
 1907 0008 2049     		ldr	r1, .L63
 1908              	.LVL223:
 1909 000a FFF7FEFF 		bl	fopen
 1910              	.LVL224:
 1911 000e 0646     		mov	r6, r0
 1912 0010 0028     		cmp	r0, #0
 1913 0012 37D0     		beq	.L58
 1914              	.LVL225:
 1915              	.LBB83:
 1916              	.LBB84:
 1917              		.loc 1 85 0
 1918 0014 0021     		movs	r1, #0
 1919 0016 D822     		movs	r2, #216
 1920 0018 6846     		mov	r0, sp
 1921              	.LVL226:
 1922 001a FFF7FEFF 		bl	memset
 1923              	.LVL227:
 1924              	.LBE84:
 1925              	.LBE83:
 1926              	.LBB85:
 1927              	.LBB86:
 1928              		.loc 1 104 0
ARM GAS  C:\Users\jo\AppData\Local\Temp\ccBWvOPb.s 			page 35


 1929 001e 1C48     		ldr	r0, .L63+4
 1930              		.loc 1 105 0
 1931 0020 1C49     		ldr	r1, .L63+8
 1932              		.loc 1 106 0
 1933 0022 1D4A     		ldr	r2, .L63+12
 1934              		.loc 1 107 0
 1935 0024 1D4B     		ldr	r3, .L63+16
 1936              		.loc 1 104 0
 1937 0026 0290     		str	r0, [sp, #8]
 1938              		.loc 1 105 0
 1939 0028 0391     		str	r1, [sp, #12]
 1940              		.loc 1 106 0
 1941 002a 0492     		str	r2, [sp, #16]
 1942              		.loc 1 107 0
 1943 002c 0593     		str	r3, [sp, #20]
 1944 002e 36AD     		add	r5, sp, #216
 1945              	.L54:
 1946              	.LBE86:
 1947              	.LBE85:
 1948              		.loc 1 344 0
 1949 0030 0121     		movs	r1, #1
 1950 0032 4FF48062 		mov	r2, #1024
 1951 0036 2846     		mov	r0, r5
 1952 0038 3346     		mov	r3, r6
 1953 003a FFF7FEFF 		bl	fread
 1954              	.LVL228:
 1955              	.LBB87:
 1956              	.LBB88:
 1957 003e 2946     		mov	r1, r5
 1958              	.LBE88:
 1959              	.LBE87:
 1960 0040 0446     		mov	r4, r0
 1961              	.LVL229:
 1962              	.LBB91:
 1963              	.LBB89:
 1964 0042 0246     		mov	r2, r0
 1965              	.LBE89:
 1966              	.LBE91:
 1967 0044 18B1     		cbz	r0, .L61
 1968              	.LVL230:
 1969              	.LBB92:
 1970              	.LBB90:
 1971 0046 6846     		mov	r0, sp
 1972              	.LVL231:
 1973 0048 FFF7FEFF 		bl	md5_update.part.0
 1974              	.LVL232:
 1975 004c F0E7     		b	.L54
 1976              	.LVL233:
 1977              	.L61:
 1978              	.LBE90:
 1979              	.LBE92:
 1980              		.loc 1 347 0
 1981 004e 6846     		mov	r0, sp
 1982              	.LVL234:
 1983 0050 3946     		mov	r1, r7
 1984              	.LVL235:
 1985 0052 FFF7FEFF 		bl	md5_finish
ARM GAS  C:\Users\jo\AppData\Local\Temp\ccBWvOPb.s 			page 36


 1986              	.LVL236:
 1987 0056 6B46     		mov	r3, sp
 1988              	.LBB93:
 1989              	.LBB94:
 1990              	.LBB95:
 1991              		.loc 1 55 0
 1992 0058 2046     		mov	r0, r4
 1993              	.LVL237:
 1994              	.L56:
 1995 005a 1870     		strb	r0, [r3]
 1996              	.LVL238:
 1997 005c 0133     		adds	r3, r3, #1
 1998              	.LVL239:
 1999 005e AB42     		cmp	r3, r5
 2000 0060 FBD1     		bne	.L56
 2001              	.LBE95:
 2002              	.LBE94:
 2003              	.LBE93:
 2004              		.loc 1 350 0
 2005 0062 B489     		ldrh	r4, [r6, #12]
 2006 0064 04F04004 		and	r4, r4, #64
 2007 0068 A4B2     		uxth	r4, r4
 2008              		.loc 1 352 0
 2009 006a 3046     		mov	r0, r6
 2010              	.LVL240:
 2011              		.loc 1 350 0
 2012 006c 2CB9     		cbnz	r4, .L62
 2013              	.LVL241:
 2014              		.loc 1 356 0
 2015 006e FFF7FEFF 		bl	fclose
 2016              	.LVL242:
 2017              		.loc 1 357 0
 2018 0072 2046     		mov	r0, r4
 2019              	.LVL243:
 2020              	.L53:
 2021              		.loc 1 358 0
 2022 0074 0DF2DC4D 		addw	sp, sp, #1244
 2023              		.cfi_remember_state
 2024              		.cfi_def_cfa_offset 20
 2025              		@ sp needed
 2026 0078 F0BD     		pop	{r4, r5, r6, r7, pc}
 2027              	.LVL244:
 2028              	.L62:
 2029              		.cfi_restore_state
 2030              		.loc 1 352 0
 2031 007a FFF7FEFF 		bl	fclose
 2032              	.LVL245:
 2033              		.loc 1 353 0
 2034 007e 6FF07300 		mvn	r0, #115
 2035 0082 F7E7     		b	.L53
 2036              	.LVL246:
 2037              	.L58:
 2038              		.loc 1 339 0
 2039 0084 6FF07300 		mvn	r0, #115
 2040              	.LVL247:
 2041 0088 F4E7     		b	.L53
 2042              	.L64:
ARM GAS  C:\Users\jo\AppData\Local\Temp\ccBWvOPb.s 			page 37


 2043 008a 00BF     		.align	2
 2044              	.L63:
 2045 008c 00000000 		.word	.LC0
 2046 0090 01234567 		.word	1732584193
 2047 0094 89ABCDEF 		.word	-271733879
 2048 0098 FEDCBA98 		.word	-1732584194
 2049 009c 76543210 		.word	271733878
 2050              		.cfi_endproc
 2051              	.LFE8:
 2052              		.size	md5_file, .-md5_file
 2053              		.section	.text.md5_hmac_starts,"ax",%progbits
 2054              		.align	2
 2055              		.p2align 4,,15
 2056              		.global	md5_hmac_starts
 2057              		.thumb
 2058              		.thumb_func
 2059              		.type	md5_hmac_starts, %function
 2060              	md5_hmac_starts:
 2061              	.LFB9:
 2062              		.loc 1 366 0
 2063              		.cfi_startproc
 2064              		@ args = 0, pretend = 0, frame = 16
 2065              		@ frame_needed = 0, uses_anonymous_args = 0
 2066              	.LVL248:
 2067 0000 2DE9F043 		push	{r4, r5, r6, r7, r8, r9, lr}
 2068              		.cfi_def_cfa_offset 28
 2069              		.cfi_offset 4, -28
 2070              		.cfi_offset 5, -24
 2071              		.cfi_offset 6, -20
 2072              		.cfi_offset 7, -16
 2073              		.cfi_offset 8, -12
 2074              		.cfi_offset 9, -8
 2075              		.cfi_offset 14, -4
 2076              		.loc 1 370 0
 2077 0004 402A     		cmp	r2, #64
 2078              		.loc 1 366 0
 2079 0006 85B0     		sub	sp, sp, #20
 2080              		.cfi_def_cfa_offset 48
 2081              		.loc 1 366 0
 2082 0008 1546     		mov	r5, r2
 2083 000a 0646     		mov	r6, r0
 2084 000c 8946     		mov	r9, r1
 2085              		.loc 1 370 0
 2086 000e 42D8     		bhi	.L77
 2087              		.loc 1 377 0
 2088 0010 00F15807 		add	r7, r0, #88
 2089 0014 3621     		movs	r1, #54
 2090              	.LVL249:
 2091 0016 4022     		movs	r2, #64
 2092              	.LVL250:
 2093 0018 3846     		mov	r0, r7
 2094              	.LVL251:
 2095              		.loc 1 378 0
 2096 001a 06F19808 		add	r8, r6, #152
 2097              		.loc 1 377 0
 2098 001e FFF7FEFF 		bl	memset
 2099              	.LVL252:
ARM GAS  C:\Users\jo\AppData\Local\Temp\ccBWvOPb.s 			page 38


 2100              		.loc 1 378 0
 2101 0022 4046     		mov	r0, r8
 2102 0024 5C21     		movs	r1, #92
 2103 0026 4022     		movs	r2, #64
 2104 0028 FFF7FEFF 		bl	memset
 2105              	.LVL253:
 2106 002c 6C46     		mov	r4, sp
 2107              		.loc 1 380 0
 2108 002e BDB1     		cbz	r5, .L68
 2109              	.LVL254:
 2110              	.L67:
 2111 0030 06F1570E 		add	lr, r6, #87
 2112 0034 4946     		mov	r1, r9
 2113 0036 4046     		mov	r0, r8
 2114              		.loc 1 374 0 discriminator 3
 2115 0038 F446     		mov	ip, lr
 2116 003a 0022     		movs	r2, #0
 2117              	.LVL255:
 2118              	.L69:
 2119              		.loc 1 382 0 discriminator 3
 2120 003c 91F80080 		ldrb	r8, [r1]	@ zero_extendqisi2
 2121 0040 1CF8013F 		ldrb	r3, [ip, #1]!	@ zero_extendqisi2
 2122 0044 88EA0303 		eor	r3, r8, r3
 2123 0048 0EF8013F 		strb	r3, [lr, #1]!
 2124              		.loc 1 383 0 discriminator 3
 2125 004c 11F8018B 		ldrb	r8, [r1], #1	@ zero_extendqisi2
 2126 0050 0378     		ldrb	r3, [r0]	@ zero_extendqisi2
 2127              		.loc 1 380 0 discriminator 3
 2128 0052 0132     		adds	r2, r2, #1
 2129              	.LVL256:
 2130              		.loc 1 383 0 discriminator 3
 2131 0054 88EA0303 		eor	r3, r8, r3
 2132              		.loc 1 380 0 discriminator 3
 2133 0058 AA42     		cmp	r2, r5
 2134              		.loc 1 383 0 discriminator 3
 2135 005a 00F8013B 		strb	r3, [r0], #1
 2136              		.loc 1 380 0 discriminator 3
 2137 005e EDD3     		bcc	.L69
 2138              	.LVL257:
 2139              	.L68:
 2140              	.LBB96:
 2141              	.LBB97:
 2142              		.loc 1 101 0
 2143 0060 0025     		movs	r5, #0
 2144              	.LVL258:
 2145              		.loc 1 107 0
 2146 0062 184B     		ldr	r3, .L78
 2147              		.loc 1 104 0
 2148 0064 DFF868E0 		ldr	lr, .L78+12
 2149              		.loc 1 105 0
 2150 0068 1748     		ldr	r0, .L78+4
 2151              		.loc 1 106 0
 2152 006a 184A     		ldr	r2, .L78+8
 2153              		.loc 1 105 0
 2154 006c F060     		str	r0, [r6, #12]
 2155              		.loc 1 106 0
 2156 006e 3261     		str	r2, [r6, #16]
ARM GAS  C:\Users\jo\AppData\Local\Temp\ccBWvOPb.s 			page 39


 2157              		.loc 1 107 0
 2158 0070 7361     		str	r3, [r6, #20]
 2159              		.loc 1 101 0
 2160 0072 3560     		str	r5, [r6]
 2161              	.LVL259:
 2162              	.LBE97:
 2163              	.LBE96:
 2164              	.LBB99:
 2165              	.LBB100:
 2166 0074 3946     		mov	r1, r7
 2167              	.LBE100:
 2168              	.LBE99:
 2169              	.LBB102:
 2170              	.LBB98:
 2171              		.loc 1 102 0
 2172 0076 7560     		str	r5, [r6, #4]
 2173              		.loc 1 104 0
 2174 0078 C6F808E0 		str	lr, [r6, #8]
 2175              	.LBE98:
 2176              	.LBE102:
 2177              	.LBB103:
 2178              	.LBB101:
 2179 007c 3046     		mov	r0, r6
 2180 007e 4022     		movs	r2, #64
 2181 0080 FFF7FEFF 		bl	md5_update.part.0
 2182              	.LVL260:
 2183              	.LBE101:
 2184              	.LBE103:
 2185              	.LBB104:
 2186              	.LBB105:
 2187              		.loc 1 55 0
 2188 0084 2B46     		mov	r3, r5
 2189              	.LVL261:
 2190              	.L70:
 2191 0086 2370     		strb	r3, [r4]
 2192              	.LVL262:
 2193 0088 04AA     		add	r2, sp, #16
 2194 008a 0134     		adds	r4, r4, #1
 2195              	.LVL263:
 2196 008c 9442     		cmp	r4, r2
 2197 008e FAD1     		bne	.L70
 2198              	.LBE105:
 2199              	.LBE104:
 2200              		.loc 1 390 0
 2201 0090 05B0     		add	sp, sp, #20
 2202              		.cfi_remember_state
 2203              		.cfi_def_cfa_offset 28
 2204              		@ sp needed
 2205 0092 BDE8F083 		pop	{r4, r5, r6, r7, r8, r9, pc}
 2206              	.LVL264:
 2207              	.L77:
 2208              		.cfi_restore_state
 2209              		.loc 1 372 0
 2210 0096 0846     		mov	r0, r1
 2211              	.LVL265:
 2212              		.loc 1 377 0
 2213 0098 06F15807 		add	r7, r6, #88
ARM GAS  C:\Users\jo\AppData\Local\Temp\ccBWvOPb.s 			page 40


 2214              		.loc 1 372 0
 2215 009c 1146     		mov	r1, r2
 2216              	.LVL266:
 2217 009e 6A46     		mov	r2, sp
 2218              	.LVL267:
 2219 00a0 FFF7FEFF 		bl	md5
 2220              	.LVL268:
 2221              		.loc 1 378 0
 2222 00a4 06F19808 		add	r8, r6, #152
 2223              		.loc 1 377 0
 2224 00a8 3621     		movs	r1, #54
 2225 00aa 4022     		movs	r2, #64
 2226 00ac 3846     		mov	r0, r7
 2227 00ae FFF7FEFF 		bl	memset
 2228              	.LVL269:
 2229              		.loc 1 378 0
 2230 00b2 4046     		mov	r0, r8
 2231 00b4 5C21     		movs	r1, #92
 2232 00b6 4022     		movs	r2, #64
 2233              		.loc 1 372 0
 2234 00b8 6C46     		mov	r4, sp
 2235              		.loc 1 378 0
 2236 00ba FFF7FEFF 		bl	memset
 2237              	.LVL270:
 2238              		.loc 1 374 0
 2239 00be E946     		mov	r9, sp
 2240              		.loc 1 373 0
 2241 00c0 1025     		movs	r5, #16
 2242 00c2 B5E7     		b	.L67
 2243              	.L79:
 2244              		.align	2
 2245              	.L78:
 2246 00c4 76543210 		.word	271733878
 2247 00c8 89ABCDEF 		.word	-271733879
 2248 00cc FEDCBA98 		.word	-1732584194
 2249 00d0 01234567 		.word	1732584193
 2250              		.cfi_endproc
 2251              	.LFE9:
 2252              		.size	md5_hmac_starts, .-md5_hmac_starts
 2253 00d4 AFF30080 		.section	.text.md5_hmac_update,"ax",%progbits
 2253      AFF30080 
 2253      AFF30080 
 2254              		.align	2
 2255              		.p2align 4,,15
 2256              		.global	md5_hmac_update
 2257              		.thumb
 2258              		.thumb_func
 2259              		.type	md5_hmac_update, %function
 2260              	md5_hmac_update:
 2261              	.LFB10:
 2262              		.loc 1 397 0
 2263              		.cfi_startproc
 2264              		@ args = 0, pretend = 0, frame = 0
 2265              		@ frame_needed = 0, uses_anonymous_args = 0
 2266              		@ link register save eliminated.
 2267              	.LVL271:
 2268              	.LBB106:
ARM GAS  C:\Users\jo\AppData\Local\Temp\ccBWvOPb.s 			page 41


 2269              	.LBB107:
 2270              		.loc 1 241 0
 2271 0000 02B9     		cbnz	r2, .L82
 2272 0002 7047     		bx	lr
 2273              	.L82:
 2274 0004 FFF7FEBF 		b	md5_update.part.0
 2275              	.LVL272:
 2276              	.LBE107:
 2277              	.LBE106:
 2278              		.cfi_endproc
 2279              	.LFE10:
 2280              		.size	md5_hmac_update, .-md5_hmac_update
 2281 0008 AFF30080 		.section	.text.md5_hmac_finish,"ax",%progbits
 2281      AFF30080 
 2282              		.align	2
 2283              		.p2align 4,,15
 2284              		.global	md5_hmac_finish
 2285              		.thumb
 2286              		.thumb_func
 2287              		.type	md5_hmac_finish, %function
 2288              	md5_hmac_finish:
 2289              	.LFB11:
 2290              		.loc 1 405 0
 2291              		.cfi_startproc
 2292              		@ args = 0, pretend = 0, frame = 16
 2293              		@ frame_needed = 0, uses_anonymous_args = 0
 2294              	.LVL273:
 2295 0000 70B5     		push	{r4, r5, r6, lr}
 2296              		.cfi_def_cfa_offset 16
 2297              		.cfi_offset 4, -16
 2298              		.cfi_offset 5, -12
 2299              		.cfi_offset 6, -8
 2300              		.cfi_offset 14, -4
 2301 0002 84B0     		sub	sp, sp, #16
 2302              		.cfi_def_cfa_offset 32
 2303              		.loc 1 405 0
 2304 0004 0546     		mov	r5, r0
 2305 0006 0E46     		mov	r6, r1
 2306              		.loc 1 408 0
 2307 0008 6946     		mov	r1, sp
 2308              	.LVL274:
 2309 000a FFF7FEFF 		bl	md5_finish
 2310              	.LVL275:
 2311              	.LBB108:
 2312              	.LBB109:
 2313              		.loc 1 101 0
 2314 000e 0024     		movs	r4, #0
 2315              		.loc 1 107 0
 2316 0010 104B     		ldr	r3, .L87
 2317              		.loc 1 104 0
 2318 0012 1148     		ldr	r0, .L87+4
 2319              		.loc 1 105 0
 2320 0014 1149     		ldr	r1, .L87+8
 2321              		.loc 1 106 0
 2322 0016 124A     		ldr	r2, .L87+12
 2323              		.loc 1 107 0
 2324 0018 6B61     		str	r3, [r5, #20]
ARM GAS  C:\Users\jo\AppData\Local\Temp\ccBWvOPb.s 			page 42


 2325              	.LVL276:
 2326              		.loc 1 104 0
 2327 001a A860     		str	r0, [r5, #8]
 2328              		.loc 1 105 0
 2329 001c E960     		str	r1, [r5, #12]
 2330              		.loc 1 106 0
 2331 001e 2A61     		str	r2, [r5, #16]
 2332              	.LBE109:
 2333              	.LBE108:
 2334              	.LBB111:
 2335              	.LBB112:
 2336 0020 2846     		mov	r0, r5
 2337 0022 05F19801 		add	r1, r5, #152
 2338              	.LVL277:
 2339 0026 4022     		movs	r2, #64
 2340              	.LBE112:
 2341              	.LBE111:
 2342              	.LBB114:
 2343              	.LBB110:
 2344              		.loc 1 101 0
 2345 0028 2C60     		str	r4, [r5]
 2346              		.loc 1 102 0
 2347 002a 6C60     		str	r4, [r5, #4]
 2348              	.LBE110:
 2349              	.LBE114:
 2350              	.LBB115:
 2351              	.LBB113:
 2352 002c FFF7FEFF 		bl	md5_update.part.0
 2353              	.LVL278:
 2354              	.LBE113:
 2355              	.LBE115:
 2356              	.LBB116:
 2357              	.LBB117:
 2358 0030 1022     		movs	r2, #16
 2359 0032 2846     		mov	r0, r5
 2360 0034 6946     		mov	r1, sp
 2361 0036 FFF7FEFF 		bl	md5_update.part.0
 2362              	.LVL279:
 2363              	.LBE117:
 2364              	.LBE116:
 2365              		.loc 1 412 0
 2366 003a 2846     		mov	r0, r5
 2367 003c 3146     		mov	r1, r6
 2368 003e FFF7FEFF 		bl	md5_finish
 2369              	.LVL280:
 2370              	.LBB118:
 2371              	.LBB119:
 2372              		.loc 1 55 0
 2373 0042 6B46     		mov	r3, sp
 2374 0044 2246     		mov	r2, r4
 2375              	.LVL281:
 2376              	.L84:
 2377 0046 1A70     		strb	r2, [r3]
 2378              	.LVL282:
 2379 0048 04A9     		add	r1, sp, #16
 2380 004a 0133     		adds	r3, r3, #1
 2381              	.LVL283:
ARM GAS  C:\Users\jo\AppData\Local\Temp\ccBWvOPb.s 			page 43


 2382 004c 8B42     		cmp	r3, r1
 2383 004e FAD1     		bne	.L84
 2384              	.LBE119:
 2385              	.LBE118:
 2386              		.loc 1 415 0
 2387 0050 04B0     		add	sp, sp, #16
 2388              		.cfi_def_cfa_offset 16
 2389              	.LVL284:
 2390              		@ sp needed
 2391 0052 70BD     		pop	{r4, r5, r6, pc}
 2392              	.LVL285:
 2393              	.L88:
 2394              		.align	2
 2395              	.L87:
 2396 0054 76543210 		.word	271733878
 2397 0058 01234567 		.word	1732584193
 2398 005c 89ABCDEF 		.word	-271733879
 2399 0060 FEDCBA98 		.word	-1732584194
 2400              		.cfi_endproc
 2401              	.LFE11:
 2402              		.size	md5_hmac_finish, .-md5_hmac_finish
 2403 0064 AFF30080 		.section	.text.md5_hmac_reset,"ax",%progbits
 2403      AFF30080 
 2403      AFF30080 
 2404              		.align	2
 2405              		.p2align 4,,15
 2406              		.global	md5_hmac_reset
 2407              		.thumb
 2408              		.thumb_func
 2409              		.type	md5_hmac_reset, %function
 2410              	md5_hmac_reset:
 2411              	.LFB12:
 2412              		.loc 1 421 0
 2413              		.cfi_startproc
 2414              		@ args = 0, pretend = 0, frame = 0
 2415              		@ frame_needed = 0, uses_anonymous_args = 0
 2416              		@ link register save eliminated.
 2417              	.LVL286:
 2418 0000 30B4     		push	{r4, r5}
 2419              		.cfi_def_cfa_offset 8
 2420              		.cfi_offset 4, -8
 2421              		.cfi_offset 5, -4
 2422              	.LBB120:
 2423              	.LBB121:
 2424              		.loc 1 104 0
 2425 0002 084B     		ldr	r3, .L91
 2426              		.loc 1 105 0
 2427 0004 084D     		ldr	r5, .L91+4
 2428              		.loc 1 106 0
 2429 0006 094C     		ldr	r4, .L91+8
 2430              		.loc 1 107 0
 2431 0008 094A     		ldr	r2, .L91+12
 2432              		.loc 1 104 0
 2433 000a 8360     		str	r3, [r0, #8]
 2434              	.LBE121:
 2435              	.LBE120:
 2436              		.loc 1 421 0
ARM GAS  C:\Users\jo\AppData\Local\Temp\ccBWvOPb.s 			page 44


 2437 000c 0146     		mov	r1, r0
 2438              	.LVL287:
 2439              	.LBB123:
 2440              	.LBB122:
 2441              		.loc 1 101 0
 2442 000e 0023     		movs	r3, #0
 2443              		.loc 1 105 0
 2444 0010 C560     		str	r5, [r0, #12]
 2445              		.loc 1 106 0
 2446 0012 0461     		str	r4, [r0, #16]
 2447              		.loc 1 107 0
 2448 0014 4261     		str	r2, [r0, #20]
 2449              	.LVL288:
 2450              		.loc 1 101 0
 2451 0016 0360     		str	r3, [r0]
 2452              		.loc 1 102 0
 2453 0018 4360     		str	r3, [r0, #4]
 2454              	.LBE122:
 2455              	.LBE123:
 2456              	.LBB124:
 2457              	.LBB125:
 2458 001a 5831     		adds	r1, r1, #88
 2459              	.LVL289:
 2460 001c 4022     		movs	r2, #64
 2461              	.LBE125:
 2462              	.LBE124:
 2463              		.loc 1 424 0
 2464 001e 30BC     		pop	{r4, r5}
 2465              		.cfi_restore 5
 2466              		.cfi_restore 4
 2467              		.cfi_def_cfa_offset 0
 2468              	.LBB127:
 2469              	.LBB126:
 2470 0020 FFF7FEBF 		b	md5_update.part.0
 2471              	.LVL290:
 2472              	.L92:
 2473              		.align	2
 2474              	.L91:
 2475 0024 01234567 		.word	1732584193
 2476 0028 89ABCDEF 		.word	-271733879
 2477 002c FEDCBA98 		.word	-1732584194
 2478 0030 76543210 		.word	271733878
 2479              	.LBE126:
 2480              	.LBE127:
 2481              		.cfi_endproc
 2482              	.LFE12:
 2483              		.size	md5_hmac_reset, .-md5_hmac_reset
 2484 0034 AFF30080 		.section	.text.md5_hmac,"ax",%progbits
 2484      AFF30080 
 2484      AFF30080 
 2485              		.align	2
 2486              		.p2align 4,,15
 2487              		.global	md5_hmac
 2488              		.thumb
 2489              		.thumb_func
 2490              		.type	md5_hmac, %function
 2491              	md5_hmac:
ARM GAS  C:\Users\jo\AppData\Local\Temp\ccBWvOPb.s 			page 45


 2492              	.LFB13:
 2493              		.loc 1 432 0
 2494              		.cfi_startproc
 2495              		@ args = 4, pretend = 0, frame = 216
 2496              		@ frame_needed = 0, uses_anonymous_args = 0
 2497              	.LVL291:
 2498 0000 F0B5     		push	{r4, r5, r6, r7, lr}
 2499              		.cfi_def_cfa_offset 20
 2500              		.cfi_offset 4, -20
 2501              		.cfi_offset 5, -16
 2502              		.cfi_offset 6, -12
 2503              		.cfi_offset 7, -8
 2504              		.cfi_offset 14, -4
 2505 0002 B7B0     		sub	sp, sp, #220
 2506              		.cfi_def_cfa_offset 240
 2507              	.LVL292:
 2508              		.loc 1 432 0
 2509 0004 0646     		mov	r6, r0
 2510 0006 0D46     		mov	r5, r1
 2511 0008 1746     		mov	r7, r2
 2512              	.LBB128:
 2513              	.LBB129:
 2514              		.loc 1 85 0
 2515 000a 0021     		movs	r1, #0
 2516              	.LVL293:
 2517 000c D822     		movs	r2, #216
 2518              	.LVL294:
 2519 000e 6846     		mov	r0, sp
 2520              	.LVL295:
 2521              	.LBE129:
 2522              	.LBE128:
 2523              		.loc 1 432 0
 2524 0010 1C46     		mov	r4, r3
 2525              	.LBB131:
 2526              	.LBB130:
 2527              		.loc 1 85 0
 2528 0012 FFF7FEFF 		bl	memset
 2529              	.LVL296:
 2530              	.LBE130:
 2531              	.LBE131:
 2532              		.loc 1 436 0
 2533 0016 6846     		mov	r0, sp
 2534 0018 3146     		mov	r1, r6
 2535 001a 2A46     		mov	r2, r5
 2536 001c FFF7FEFF 		bl	md5_hmac_starts
 2537              	.LVL297:
 2538              	.LBB132:
 2539              	.LBB133:
 2540              	.LBB134:
 2541              		.loc 1 241 0
 2542 0020 64B9     		cbnz	r4, .L101
 2543              	.L94:
 2544              	.LBE134:
 2545              	.LBE133:
 2546              	.LBE132:
 2547              		.loc 1 438 0
 2548 0022 6846     		mov	r0, sp
ARM GAS  C:\Users\jo\AppData\Local\Temp\ccBWvOPb.s 			page 46


 2549 0024 3C99     		ldr	r1, [sp, #240]
 2550 0026 FFF7FEFF 		bl	md5_hmac_finish
 2551              	.LVL298:
 2552 002a 6B46     		mov	r3, sp
 2553              	.LBB137:
 2554              	.LBB138:
 2555              	.LBB139:
 2556              		.loc 1 55 0
 2557 002c 0022     		movs	r2, #0
 2558              	.LVL299:
 2559              	.L95:
 2560 002e 1A70     		strb	r2, [r3]
 2561              	.LVL300:
 2562 0030 36A9     		add	r1, sp, #216
 2563 0032 0133     		adds	r3, r3, #1
 2564              	.LVL301:
 2565 0034 8B42     		cmp	r3, r1
 2566 0036 FAD1     		bne	.L95
 2567              	.LBE139:
 2568              	.LBE138:
 2569              	.LBE137:
 2570              		.loc 1 440 0
 2571 0038 37B0     		add	sp, sp, #220
 2572              		.cfi_remember_state
 2573              		.cfi_def_cfa_offset 20
 2574              	.LVL302:
 2575              		@ sp needed
 2576 003a F0BD     		pop	{r4, r5, r6, r7, pc}
 2577              	.LVL303:
 2578              	.L101:
 2579              		.cfi_restore_state
 2580              	.LBB140:
 2581              	.LBB136:
 2582              	.LBB135:
 2583 003c 3946     		mov	r1, r7
 2584 003e 2246     		mov	r2, r4
 2585 0040 6846     		mov	r0, sp
 2586 0042 FFF7FEFF 		bl	md5_update.part.0
 2587              	.LVL304:
 2588 0046 ECE7     		b	.L94
 2589              	.LBE135:
 2590              	.LBE136:
 2591              	.LBE140:
 2592              		.cfi_endproc
 2593              	.LFE13:
 2594              		.size	md5_hmac, .-md5_hmac
 2595 0048 AFF30080 		.section	.text.md5_self_test,"ax",%progbits
 2595      AFF30080 
 2596              		.align	2
 2597              		.p2align 4,,15
 2598              		.global	md5_self_test
 2599              		.thumb
 2600              		.thumb_func
 2601              		.type	md5_self_test, %function
 2602              	md5_self_test:
 2603              	.LFB14:
 2604              		.loc 1 548 0
ARM GAS  C:\Users\jo\AppData\Local\Temp\ccBWvOPb.s 			page 47


 2605              		.cfi_startproc
 2606              		@ args = 0, pretend = 0, frame = 1256
 2607              		@ frame_needed = 0, uses_anonymous_args = 0
 2608              	.LVL305:
 2609 0000 2DE9F04F 		push	{r4, r5, r6, r7, r8, r9, r10, fp, lr}
 2610              		.cfi_def_cfa_offset 36
 2611              		.cfi_offset 4, -36
 2612              		.cfi_offset 5, -32
 2613              		.cfi_offset 6, -28
 2614              		.cfi_offset 7, -24
 2615              		.cfi_offset 8, -20
 2616              		.cfi_offset 9, -16
 2617              		.cfi_offset 10, -12
 2618              		.cfi_offset 11, -8
 2619              		.cfi_offset 14, -4
 2620 0004 4B4C     		ldr	r4, .L151
 2621 0006 4C4F     		ldr	r7, .L151+4
 2622 0008 4C4E     		ldr	r6, .L151+8
 2623 000a ADF2EC4D 		subw	sp, sp, #1260
 2624              		.cfi_def_cfa_offset 1296
 2625              		.loc 1 548 0
 2626 000e 0546     		mov	r5, r0
 2627 0010 04F11C09 		add	r9, r4, #28
 2628 0014 4FF00108 		mov	r8, #1
 2629              	.LVL306:
 2630              	.L107:
 2631              		.loc 1 556 0
 2632 0018 002D     		cmp	r5, #0
 2633 001a 4DD1     		bne	.L143
 2634              	.L103:
 2635              		.loc 1 559 0
 2636 001c 3846     		mov	r0, r7
 2637 001e 54F8041F 		ldr	r1, [r4, #4]!
 2638 0022 6A46     		mov	r2, sp
 2639 0024 FFF7FEFF 		bl	md5
 2640              	.LVL307:
 2641              		.loc 1 561 0
 2642 0028 3146     		mov	r1, r6
 2643 002a 6846     		mov	r0, sp
 2644 002c 1022     		movs	r2, #16
 2645 002e FFF7FEFF 		bl	memcmp
 2646              	.LVL308:
 2647 0032 08F10108 		add	r8, r8, #1
 2648              	.LVL309:
 2649 0036 5137     		adds	r7, r7, #81
 2650 0038 1036     		adds	r6, r6, #16
 2651 003a 0028     		cmp	r0, #0
 2652 003c 5BD1     		bne	.L114
 2653              		.loc 1 569 0
 2654 003e 002D     		cmp	r5, #0
 2655 0040 3FD1     		bne	.L144
 2656              	.L106:
 2657              	.LVL310:
 2658              		.loc 1 554 0 discriminator 2
 2659 0042 4C45     		cmp	r4, r9
 2660 0044 E8D1     		bne	.L107
 2661              		.loc 1 573 0
ARM GAS  C:\Users\jo\AppData\Local\Temp\ccBWvOPb.s 			page 48


 2662 0046 002D     		cmp	r5, #0
 2663 0048 63D1     		bne	.L145
 2664              	.L108:
 2665              	.LVL311:
 2666 004a 3D4F     		ldr	r7, .L151+12
 2667 004c DFF80881 		ldr	r8, .L151+36
 2668 0050 3C4E     		ldr	r6, .L151+16
 2669 0052 DFF808B1 		ldr	fp, .L151+40
 2670              		.loc 1 588 0 discriminator 1
 2671 0056 DFF808A1 		ldr	r10, .L151+44
 2672              		.loc 1 548 0 discriminator 1
 2673 005a 0024     		movs	r4, #0
 2674              	.LVL312:
 2675              	.L116:
 2676              		.loc 1 578 0
 2677 005c 002D     		cmp	r5, #0
 2678 005e 39D1     		bne	.L146
 2679              	.L109:
 2680 0060 631F     		subs	r3, r4, #5
 2681              		.loc 1 581 0
 2682 0062 012B     		cmp	r3, #1
 2683 0064 59D9     		bls	.L147
 2684              		.loc 1 587 0
 2685 0066 04A8     		add	r0, sp, #16
 2686 0068 3146     		mov	r1, r6
 2687 006a 5AF82420 		ldr	r2, [r10, r4, lsl #2]
 2688 006e 4FEA8409 		lsl	r9, r4, #2
 2689 0072 FFF7FEFF 		bl	md5_hmac_starts
 2690              	.LVL313:
 2691              	.L111:
 2692              		.loc 1 590 0
 2693 0076 5BF80920 		ldr	r2, [fp, r9]
 2694              	.LVL314:
 2695              	.LBB141:
 2696              	.LBB142:
 2697              	.LBB143:
 2698              		.loc 1 241 0
 2699 007a 32BB     		cbnz	r2, .L148
 2700              	.LVL315:
 2701              	.L112:
 2702              	.LBE143:
 2703              	.LBE142:
 2704              	.LBE141:
 2705              		.loc 1 593 0
 2706 007c 04A8     		add	r0, sp, #16
 2707              	.LVL316:
 2708 007e 6946     		mov	r1, sp
 2709 0080 FFF7FEFF 		bl	md5_hmac_finish
 2710              	.LVL317:
 2711              		.loc 1 595 0
 2712 0084 042C     		cmp	r4, #4
 2713              		.loc 1 597 0
 2714 0086 0CBF     		ite	eq
 2715 0088 0C22     		moveq	r2, #12
 2716 008a 1022     		movne	r2, #16
 2717 008c 6846     		mov	r0, sp
 2718 008e 3946     		mov	r1, r7
ARM GAS  C:\Users\jo\AppData\Local\Temp\ccBWvOPb.s 			page 49


 2719 0090 FFF7FEFF 		bl	memcmp
 2720              	.LVL318:
 2721 0094 8146     		mov	r9, r0
 2722              	.LVL319:
 2723 0096 70BB     		cbnz	r0, .L114
 2724              		.loc 1 605 0
 2725 0098 0DBB     		cbnz	r5, .L149
 2726              	.L115:
 2727              		.loc 1 576 0 discriminator 2
 2728 009a 0134     		adds	r4, r4, #1
 2729              	.LVL320:
 2730 009c 072C     		cmp	r4, #7
 2731 009e 07F11007 		add	r7, r7, #16
 2732 00a2 08F14A08 		add	r8, r8, #74
 2733 00a6 06F11A06 		add	r6, r6, #26
 2734 00aa D7D1     		bne	.L116
 2735              		.loc 1 609 0
 2736 00ac DDB9     		cbnz	r5, .L150
 2737              	.LVL321:
 2738              	.L105:
 2739              		.loc 1 613 0
 2740 00ae 4846     		mov	r0, r9
 2741 00b0 0DF2EC4D 		addw	sp, sp, #1260
 2742              		.cfi_remember_state
 2743              		.cfi_def_cfa_offset 36
 2744              		@ sp needed
 2745 00b4 BDE8F08F 		pop	{r4, r5, r6, r7, r8, r9, r10, fp, pc}
 2746              	.LVL322:
 2747              	.L143:
 2748              		.cfi_restore_state
 2749              		.loc 1 557 0
 2750 00b8 4146     		mov	r1, r8
 2751 00ba 2348     		ldr	r0, .L151+20
 2752 00bc FFF7FEFF 		bl	printf
 2753              	.LVL323:
 2754 00c0 ACE7     		b	.L103
 2755              	.LVL324:
 2756              	.L144:
 2757              		.loc 1 570 0
 2758 00c2 2248     		ldr	r0, .L151+24
 2759 00c4 FFF7FEFF 		bl	puts
 2760              	.LVL325:
 2761 00c8 BBE7     		b	.L106
 2762              	.LVL326:
 2763              	.L148:
 2764              	.LBB146:
 2765              	.LBB145:
 2766              	.LBB144:
 2767 00ca 04A8     		add	r0, sp, #16
 2768              	.LVL327:
 2769 00cc 4146     		mov	r1, r8
 2770 00ce FFF7FEFF 		bl	md5_update.part.0
 2771              	.LVL328:
 2772 00d2 D3E7     		b	.L112
 2773              	.LVL329:
 2774              	.L146:
 2775              	.LBE144:
ARM GAS  C:\Users\jo\AppData\Local\Temp\ccBWvOPb.s 			page 50


 2776              	.LBE145:
 2777              	.LBE146:
 2778              		.loc 1 579 0
 2779 00d4 611C     		adds	r1, r4, #1
 2780 00d6 1E48     		ldr	r0, .L151+28
 2781 00d8 FFF7FEFF 		bl	printf
 2782              	.LVL330:
 2783 00dc C0E7     		b	.L109
 2784              	.LVL331:
 2785              	.L149:
 2786              		.loc 1 606 0
 2787 00de 1B48     		ldr	r0, .L151+24
 2788 00e0 FFF7FEFF 		bl	puts
 2789              	.LVL332:
 2790 00e4 D9E7     		b	.L115
 2791              	.LVL333:
 2792              	.L150:
 2793              		.loc 1 610 0
 2794 00e6 0A20     		movs	r0, #10
 2795 00e8 FFF7FEFF 		bl	putchar
 2796              	.LVL334:
 2797              		.loc 1 613 0
 2798 00ec 4846     		mov	r0, r9
 2799 00ee 0DF2EC4D 		addw	sp, sp, #1260
 2800              		.cfi_remember_state
 2801              		.cfi_def_cfa_offset 36
 2802              		@ sp needed
 2803 00f2 BDE8F08F 		pop	{r4, r5, r6, r7, r8, r9, r10, fp, pc}
 2804              	.LVL335:
 2805              	.L114:
 2806              		.cfi_restore_state
 2807              		.loc 1 566 0
 2808 00f6 4FF00109 		mov	r9, #1
 2809              		.loc 1 563 0
 2810 00fa 002D     		cmp	r5, #0
 2811 00fc D7D0     		beq	.L105
 2812              		.loc 1 564 0
 2813 00fe 1548     		ldr	r0, .L151+32
 2814 0100 FFF7FEFF 		bl	puts
 2815              	.LVL336:
 2816              		.loc 1 566 0
 2817 0104 4FF00109 		mov	r9, #1
 2818              		.loc 1 613 0
 2819 0108 4846     		mov	r0, r9
 2820 010a 0DF2EC4D 		addw	sp, sp, #1260
 2821              		.cfi_remember_state
 2822              		.cfi_def_cfa_offset 36
 2823              		@ sp needed
 2824 010e BDE8F08F 		pop	{r4, r5, r6, r7, r8, r9, r10, fp, pc}
 2825              	.LVL337:
 2826              	.L145:
 2827              		.cfi_restore_state
 2828              		.loc 1 574 0
 2829 0112 0A20     		movs	r0, #10
 2830 0114 FFF7FEFF 		bl	putchar
 2831              	.LVL338:
 2832 0118 97E7     		b	.L108
ARM GAS  C:\Users\jo\AppData\Local\Temp\ccBWvOPb.s 			page 51


 2833              	.LVL339:
 2834              	.L147:
 2835              		.loc 1 583 0
 2836 011a AA21     		movs	r1, #170
 2837 011c 5022     		movs	r2, #80
 2838 011e 3AA8     		add	r0, sp, #232
 2839 0120 FFF7FEFF 		bl	memset
 2840              	.LVL340:
 2841              		.loc 1 584 0
 2842 0124 04A8     		add	r0, sp, #16
 2843 0126 3AA9     		add	r1, sp, #232
 2844 0128 5022     		movs	r2, #80
 2845 012a FFF7FEFF 		bl	md5_hmac_starts
 2846              	.LVL341:
 2847 012e 4FEA8409 		lsl	r9, r4, #2
 2848 0132 A0E7     		b	.L111
 2849              	.L152:
 2850              		.align	2
 2851              	.L151:
 2852 0134 FCFFFFFF 		.word	.LANCHOR1-4
 2853 0138 00000000 		.word	.LANCHOR2
 2854 013c 00000000 		.word	.LANCHOR3
 2855 0140 00000000 		.word	.LANCHOR4
 2856 0144 00000000 		.word	.LANCHOR6
 2857 0148 04000000 		.word	.LC1
 2858 014c 20000000 		.word	.LC3
 2859 0150 28000000 		.word	.LC4
 2860 0154 18000000 		.word	.LC2
 2861 0158 00000000 		.word	.LANCHOR5
 2862 015c 00000000 		.word	.LANCHOR8
 2863 0160 00000000 		.word	.LANCHOR7
 2864              		.cfi_endproc
 2865              	.LFE14:
 2866              		.size	md5_self_test, .-md5_self_test
 2867 0164 AFF30080 		.section	.rodata.md5_test_buf,"a",%progbits
 2867      AFF30080 
 2867      AFF30080 
 2868              		.align	2
 2869              		.set	.LANCHOR2,. + 0
 2870              		.type	md5_test_buf, %object
 2871              		.size	md5_test_buf, 567
 2872              	md5_test_buf:
 2873 0000 00       		.ascii	"\000"
 2874 0001 00000000 		.space	80
 2874      00000000 
 2874      00000000 
 2874      00000000 
 2874      00000000 
 2875 0051 6100     		.ascii	"a\000"
 2876 0053 00000000 		.space	79
 2876      00000000 
 2876      00000000 
 2876      00000000 
 2876      00000000 
 2877 00a2 61626300 		.ascii	"abc\000"
 2878 00a6 00000000 		.space	77
 2878      00000000 
ARM GAS  C:\Users\jo\AppData\Local\Temp\ccBWvOPb.s 			page 52


 2878      00000000 
 2878      00000000 
 2878      00000000 
 2879 00f3 6D657373 		.ascii	"message digest\000"
 2879      61676520 
 2879      64696765 
 2879      737400
 2880 0102 00000000 		.space	66
 2880      00000000 
 2880      00000000 
 2880      00000000 
 2880      00000000 
 2881 0144 61626364 		.ascii	"abcdefghijklmnopqrstuvwxyz\000"
 2881      65666768 
 2881      696A6B6C 
 2881      6D6E6F70 
 2881      71727374 
 2882 015f 00000000 		.space	54
 2882      00000000 
 2882      00000000 
 2882      00000000 
 2882      00000000 
 2883 0195 41424344 		.ascii	"ABCDEFGHIJKLMNOPQRSTUVWXYZabcdefghijklmnopqrstuvwxy"
 2883      45464748 
 2883      494A4B4C 
 2883      4D4E4F50 
 2883      51525354 
 2884 01c8 7A303132 		.ascii	"z0123456789\000"
 2884      33343536 
 2884      37383900 
 2885 01d4 00000000 		.space	18
 2885      00000000 
 2885      00000000 
 2885      00000000 
 2885      0000
 2886 01e6 31323334 		.ascii	"123456789012345678901234567890123456789012345678901"
 2886      35363738 
 2886      39303132 
 2886      33343536 
 2886      37383930 
 2887 0219 32333435 		.ascii	"23456789012345678901234567890\000"
 2887      36373839 
 2887      30313233 
 2887      34353637 
 2887      38393031 
 2888 0237 00       		.section	.rodata.md5_hmac_test_sum,"a",%progbits
 2889              		.align	2
 2890              		.set	.LANCHOR4,. + 0
 2891              		.type	md5_hmac_test_sum, %object
 2892              		.size	md5_hmac_test_sum, 112
 2893              	md5_hmac_test_sum:
 2894 0000 92       		.byte	-110
 2895 0001 94       		.byte	-108
 2896 0002 72       		.byte	114
 2897 0003 7A       		.byte	122
 2898 0004 36       		.byte	54
 2899 0005 38       		.byte	56
ARM GAS  C:\Users\jo\AppData\Local\Temp\ccBWvOPb.s 			page 53


 2900 0006 BB       		.byte	-69
 2901 0007 1C       		.byte	28
 2902 0008 13       		.byte	19
 2903 0009 F4       		.byte	-12
 2904 000a 8E       		.byte	-114
 2905 000b F8       		.byte	-8
 2906 000c 15       		.byte	21
 2907 000d 8B       		.byte	-117
 2908 000e FC       		.byte	-4
 2909 000f 9D       		.byte	-99
 2910 0010 75       		.byte	117
 2911 0011 0C       		.byte	12
 2912 0012 78       		.byte	120
 2913 0013 3E       		.byte	62
 2914 0014 6A       		.byte	106
 2915 0015 B0       		.byte	-80
 2916 0016 B5       		.byte	-75
 2917 0017 03       		.byte	3
 2918 0018 EA       		.byte	-22
 2919 0019 A8       		.byte	-88
 2920 001a 6E       		.byte	110
 2921 001b 31       		.byte	49
 2922 001c 0A       		.byte	10
 2923 001d 5D       		.byte	93
 2924 001e B7       		.byte	-73
 2925 001f 38       		.byte	56
 2926 0020 56       		.byte	86
 2927 0021 BE       		.byte	-66
 2928 0022 34       		.byte	52
 2929 0023 52       		.byte	82
 2930 0024 1D       		.byte	29
 2931 0025 14       		.byte	20
 2932 0026 4C       		.byte	76
 2933 0027 88       		.byte	-120
 2934 0028 DB       		.byte	-37
 2935 0029 B8       		.byte	-72
 2936 002a C7       		.byte	-57
 2937 002b 33       		.byte	51
 2938 002c F0       		.byte	-16
 2939 002d E8       		.byte	-24
 2940 002e B3       		.byte	-77
 2941 002f F6       		.byte	-10
 2942 0030 69       		.byte	105
 2943 0031 7E       		.byte	126
 2944 0032 AF       		.byte	-81
 2945 0033 0A       		.byte	10
 2946 0034 CA       		.byte	-54
 2947 0035 3A       		.byte	58
 2948 0036 3A       		.byte	58
 2949 0037 EA       		.byte	-22
 2950 0038 3A       		.byte	58
 2951 0039 75       		.byte	117
 2952 003a 16       		.byte	22
 2953 003b 47       		.byte	71
 2954 003c 46       		.byte	70
 2955 003d FF       		.byte	-1
 2956 003e AA       		.byte	-86
ARM GAS  C:\Users\jo\AppData\Local\Temp\ccBWvOPb.s 			page 54


 2957 003f 79       		.byte	121
 2958 0040 56       		.byte	86
 2959 0041 46       		.byte	70
 2960 0042 1E       		.byte	30
 2961 0043 F2       		.byte	-14
 2962 0044 34       		.byte	52
 2963 0045 2E       		.byte	46
 2964 0046 DC       		.byte	-36
 2965 0047 00       		.byte	0
 2966 0048 F9       		.byte	-7
 2967 0049 BA       		.byte	-70
 2968 004a B9       		.byte	-71
 2969 004b 95       		.byte	-107
 2970 004c 00000000 		.space	4
 2971 0050 6B       		.byte	107
 2972 0051 1A       		.byte	26
 2973 0052 B7       		.byte	-73
 2974 0053 FE       		.byte	-2
 2975 0054 4B       		.byte	75
 2976 0055 D7       		.byte	-41
 2977 0056 BF       		.byte	-65
 2978 0057 8F       		.byte	-113
 2979 0058 0B       		.byte	11
 2980 0059 62       		.byte	98
 2981 005a E6       		.byte	-26
 2982 005b CE       		.byte	-50
 2983 005c 61       		.byte	97
 2984 005d B9       		.byte	-71
 2985 005e D0       		.byte	-48
 2986 005f CD       		.byte	-51
 2987 0060 6F       		.byte	111
 2988 0061 63       		.byte	99
 2989 0062 0F       		.byte	15
 2990 0063 AD       		.byte	-83
 2991 0064 67       		.byte	103
 2992 0065 CD       		.byte	-51
 2993 0066 A0       		.byte	-96
 2994 0067 EE       		.byte	-18
 2995 0068 1F       		.byte	31
 2996 0069 B1       		.byte	-79
 2997 006a F5       		.byte	-11
 2998 006b 62       		.byte	98
 2999 006c DB       		.byte	-37
 3000 006d 3A       		.byte	58
 3001 006e A5       		.byte	-91
 3002 006f 3E       		.byte	62
 3003              		.section	.rodata.md5_hmac_test_buflen,"a",%progbits
 3004              		.align	2
 3005              		.set	.LANCHOR8,. + 0
 3006              		.type	md5_hmac_test_buflen, %object
 3007              		.size	md5_hmac_test_buflen, 28
 3008              	md5_hmac_test_buflen:
 3009 0000 08000000 		.word	8
 3010 0004 1C000000 		.word	28
 3011 0008 32000000 		.word	50
 3012 000c 32000000 		.word	50
 3013 0010 14000000 		.word	20
ARM GAS  C:\Users\jo\AppData\Local\Temp\ccBWvOPb.s 			page 55


 3014 0014 36000000 		.word	54
 3015 0018 49000000 		.word	73
 3016              		.section	.rodata.md5_hmac_test_buf,"a",%progbits
 3017              		.align	2
 3018              		.set	.LANCHOR5,. + 0
 3019              		.type	md5_hmac_test_buf, %object
 3020              		.size	md5_hmac_test_buf, 518
 3021              	md5_hmac_test_buf:
 3022 0000 48692054 		.ascii	"Hi There\000"
 3022      68657265 
 3022      00
 3023 0009 00000000 		.space	65
 3023      00000000 
 3023      00000000 
 3023      00000000 
 3023      00000000 
 3024 004a 77686174 		.ascii	"what do ya want for nothing?\000"
 3024      20646F20 
 3024      79612077 
 3024      616E7420 
 3024      666F7220 
 3025 0067 00000000 		.space	45
 3025      00000000 
 3025      00000000 
 3025      00000000 
 3025      00000000 
 3026 0094 DDDDDDDD 		.ascii	"\335\335\335\335\335\335\335\335\335\335\335\335\335"
 3026      DDDDDDDD 
 3026      DDDDDDDD 
 3026      DD
 3027 00a1 DDDDDDDD 		.ascii	"\335\335\335\335\335\335\335\335\335\335\335\335\335"
 3027      DDDDDDDD 
 3027      DDDDDDDD 
 3027      DD
 3028 00ae DDDDDDDD 		.ascii	"\335\335\335\335\335\335\335\335\335\335\335\335\335"
 3028      DDDDDDDD 
 3028      DDDDDDDD 
 3028      DD
 3029 00bb DDDDDDDD 		.ascii	"\335\335\335\335\335\335\335\335\335\335\335\000"
 3029      DDDDDDDD 
 3029      DDDDDD00 
 3030 00c7 00000000 		.space	23
 3030      00000000 
 3030      00000000 
 3030      00000000 
 3030      00000000 
 3031 00de CDCDCDCD 		.ascii	"\315\315\315\315\315\315\315\315\315\315\315\315\315"
 3031      CDCDCDCD 
 3031      CDCDCDCD 
 3031      CD
 3032 00eb CDCDCDCD 		.ascii	"\315\315\315\315\315\315\315\315\315\315\315\315\315"
 3032      CDCDCDCD 
 3032      CDCDCDCD 
 3032      CD
 3033 00f8 CDCDCDCD 		.ascii	"\315\315\315\315\315\315\315\315\315\315\315\315\315"
 3033      CDCDCDCD 
 3033      CDCDCDCD 
ARM GAS  C:\Users\jo\AppData\Local\Temp\ccBWvOPb.s 			page 56


 3033      CD
 3034 0105 CDCDCDCD 		.ascii	"\315\315\315\315\315\315\315\315\315\315\315\000"
 3034      CDCDCDCD 
 3034      CDCDCD00 
 3035 0111 00000000 		.space	23
 3035      00000000 
 3035      00000000 
 3035      00000000 
 3035      00000000 
 3036 0128 54657374 		.ascii	"Test With Truncation\000"
 3036      20576974 
 3036      68205472 
 3036      756E6361 
 3036      74696F6E 
 3037 013d 00000000 		.space	53
 3037      00000000 
 3037      00000000 
 3037      00000000 
 3037      00000000 
 3038 0172 54657374 		.ascii	"Test Using Larger Than Block-Size Key - Hash Key Fi"
 3038      20557369 
 3038      6E67204C 
 3038      61726765 
 3038      72205468 
 3039 01a5 72737400 		.ascii	"rst\000"
 3040 01a9 00000000 		.space	19
 3040      00000000 
 3040      00000000 
 3040      00000000 
 3040      000000
 3041 01bc 54657374 		.ascii	"Test Using Larger Than Block-Size Key and Larger Th"
 3041      20557369 
 3041      6E67204C 
 3041      61726765 
 3041      72205468 
 3042 01ef 616E204F 		.ascii	"an One Block-Size Data\000"
 3042      6E652042 
 3042      6C6F636B 
 3042      2D53697A 
 3042      65204461 
 3043 0206 0000     		.section	.rodata.md5_hmac_test_keylen,"a",%progbits
 3044              		.align	2
 3045              		.set	.LANCHOR7,. + 0
 3046              		.type	md5_hmac_test_keylen, %object
 3047              		.size	md5_hmac_test_keylen, 28
 3048              	md5_hmac_test_keylen:
 3049 0000 10000000 		.word	16
 3050 0004 04000000 		.word	4
 3051 0008 10000000 		.word	16
 3052 000c 19000000 		.word	25
 3053 0010 10000000 		.word	16
 3054 0014 50000000 		.word	80
 3055 0018 50000000 		.word	80
 3056              		.section	.rodata.md5_hmac_test_key,"a",%progbits
 3057              		.align	2
 3058              		.set	.LANCHOR6,. + 0
 3059              		.type	md5_hmac_test_key, %object
ARM GAS  C:\Users\jo\AppData\Local\Temp\ccBWvOPb.s 			page 57


 3060              		.size	md5_hmac_test_key, 182
 3061              	md5_hmac_test_key:
 3062 0000 0B0B0B0B 		.ascii	"\013\013\013\013\013\013\013\013\013\013\013\013\013"
 3062      0B0B0B0B 
 3062      0B0B0B0B 
 3062      0B
 3063 000d 0B0B0B00 		.ascii	"\013\013\013\000"
 3064 0011 00000000 		.space	9
 3064      00000000 
 3064      00
 3065 001a 4A656665 		.ascii	"Jefe\000"
 3065      00
 3066 001f 00000000 		.space	21
 3066      00000000 
 3066      00000000 
 3066      00000000 
 3066      00000000 
 3067 0034 AAAAAAAA 		.ascii	"\252\252\252\252\252\252\252\252\252\252\252\252\252"
 3067      AAAAAAAA 
 3067      AAAAAAAA 
 3067      AA
 3068 0041 AAAAAA00 		.ascii	"\252\252\252\000"
 3069 0045 00000000 		.space	9
 3069      00000000 
 3069      00
 3070 004e 01020304 		.ascii	"\001\002\003\004\005\006\007\010\011\012\013\014\015"
 3070      05060708 
 3070      090A0B0C 
 3070      0D
 3071 005b 0E0F1011 		.ascii	"\016\017\020\021\022\023\024\025\026\027\030\031\000"
 3071      12131415 
 3071      16171819 
 3071      00
 3072 0068 0C0C0C0C 		.ascii	"\014\014\014\014\014\014\014\014\014\014\014\014\014"
 3072      0C0C0C0C 
 3072      0C0C0C0C 
 3072      0C
 3073 0075 0C0C0C00 		.ascii	"\014\014\014\000"
 3074 0079 00000000 		.space	9
 3074      00000000 
 3074      00
 3075 0082 00       		.ascii	"\000"
 3076 0083 00000000 		.space	25
 3076      00000000 
 3076      00000000 
 3076      00000000 
 3076      00000000 
 3077 009c 00       		.ascii	"\000"
 3078 009d 00000000 		.space	25
 3078      00000000 
 3078      00000000 
 3078      00000000 
 3078      00000000 
 3079 00b6 0000     		.section	.rodata.str1.4,"aMS",%progbits,1
 3080              		.align	2
 3081              	.LC0:
 3082 0000 726200   		.ascii	"rb\000"
ARM GAS  C:\Users\jo\AppData\Local\Temp\ccBWvOPb.s 			page 58


 3083 0003 00       		.space	1
 3084              	.LC1:
 3085 0004 20204D44 		.ascii	"  MD5 test #%d: \000"
 3085      35207465 
 3085      73742023 
 3085      25643A20 
 3085      00
 3086 0015 000000   		.space	3
 3087              	.LC2:
 3088 0018 6661696C 		.ascii	"failed\000"
 3088      656400
 3089 001f 00       		.space	1
 3090              	.LC3:
 3091 0020 70617373 		.ascii	"passed\000"
 3091      656400
 3092 0027 00       		.space	1
 3093              	.LC4:
 3094 0028 2020484D 		.ascii	"  HMAC-MD5 test #%d: \000"
 3094      41432D4D 
 3094      44352074 
 3094      65737420 
 3094      2325643A 
 3095 003e 0000     		.section	.rodata.md5_padding,"a",%progbits
 3096              		.align	2
 3097              		.set	.LANCHOR0,. + 0
 3098              		.type	md5_padding, %object
 3099              		.size	md5_padding, 64
 3100              	md5_padding:
 3101 0000 80       		.byte	-128
 3102 0001 00       		.byte	0
 3103 0002 00       		.byte	0
 3104 0003 00       		.byte	0
 3105 0004 00       		.byte	0
 3106 0005 00       		.byte	0
 3107 0006 00       		.byte	0
 3108 0007 00       		.byte	0
 3109 0008 00       		.byte	0
 3110 0009 00       		.byte	0
 3111 000a 00       		.byte	0
 3112 000b 00       		.byte	0
 3113 000c 00       		.byte	0
 3114 000d 00       		.byte	0
 3115 000e 00       		.byte	0
 3116 000f 00       		.byte	0
 3117 0010 00       		.byte	0
 3118 0011 00       		.byte	0
 3119 0012 00       		.byte	0
 3120 0013 00       		.byte	0
 3121 0014 00       		.byte	0
 3122 0015 00       		.byte	0
 3123 0016 00       		.byte	0
 3124 0017 00       		.byte	0
 3125 0018 00       		.byte	0
 3126 0019 00       		.byte	0
 3127 001a 00       		.byte	0
 3128 001b 00       		.byte	0
 3129 001c 00       		.byte	0
ARM GAS  C:\Users\jo\AppData\Local\Temp\ccBWvOPb.s 			page 59


 3130 001d 00       		.byte	0
 3131 001e 00       		.byte	0
 3132 001f 00       		.byte	0
 3133 0020 00       		.byte	0
 3134 0021 00       		.byte	0
 3135 0022 00       		.byte	0
 3136 0023 00       		.byte	0
 3137 0024 00       		.byte	0
 3138 0025 00       		.byte	0
 3139 0026 00       		.byte	0
 3140 0027 00       		.byte	0
 3141 0028 00       		.byte	0
 3142 0029 00       		.byte	0
 3143 002a 00       		.byte	0
 3144 002b 00       		.byte	0
 3145 002c 00       		.byte	0
 3146 002d 00       		.byte	0
 3147 002e 00       		.byte	0
 3148 002f 00       		.byte	0
 3149 0030 00       		.byte	0
 3150 0031 00       		.byte	0
 3151 0032 00       		.byte	0
 3152 0033 00       		.byte	0
 3153 0034 00       		.byte	0
 3154 0035 00       		.byte	0
 3155 0036 00       		.byte	0
 3156 0037 00       		.byte	0
 3157 0038 00       		.byte	0
 3158 0039 00       		.byte	0
 3159 003a 00       		.byte	0
 3160 003b 00       		.byte	0
 3161 003c 00       		.byte	0
 3162 003d 00       		.byte	0
 3163 003e 00       		.byte	0
 3164 003f 00       		.byte	0
 3165              		.section	.rodata.md5_test_buflen,"a",%progbits
 3166              		.align	2
 3167              		.set	.LANCHOR1,. + 0
 3168              		.type	md5_test_buflen, %object
 3169              		.size	md5_test_buflen, 28
 3170              	md5_test_buflen:
 3171 0000 00000000 		.word	0
 3172 0004 01000000 		.word	1
 3173 0008 03000000 		.word	3
 3174 000c 0E000000 		.word	14
 3175 0010 1A000000 		.word	26
 3176 0014 3E000000 		.word	62
 3177 0018 50000000 		.word	80
 3178              		.section	.rodata.md5_test_sum,"a",%progbits
 3179              		.align	2
 3180              		.set	.LANCHOR3,. + 0
 3181              		.type	md5_test_sum, %object
 3182              		.size	md5_test_sum, 112
 3183              	md5_test_sum:
 3184 0000 D4       		.byte	-44
 3185 0001 1D       		.byte	29
 3186 0002 8C       		.byte	-116
ARM GAS  C:\Users\jo\AppData\Local\Temp\ccBWvOPb.s 			page 60


 3187 0003 D9       		.byte	-39
 3188 0004 8F       		.byte	-113
 3189 0005 00       		.byte	0
 3190 0006 B2       		.byte	-78
 3191 0007 04       		.byte	4
 3192 0008 E9       		.byte	-23
 3193 0009 80       		.byte	-128
 3194 000a 09       		.byte	9
 3195 000b 98       		.byte	-104
 3196 000c EC       		.byte	-20
 3197 000d F8       		.byte	-8
 3198 000e 42       		.byte	66
 3199 000f 7E       		.byte	126
 3200 0010 0C       		.byte	12
 3201 0011 C1       		.byte	-63
 3202 0012 75       		.byte	117
 3203 0013 B9       		.byte	-71
 3204 0014 C0       		.byte	-64
 3205 0015 F1       		.byte	-15
 3206 0016 B6       		.byte	-74
 3207 0017 A8       		.byte	-88
 3208 0018 31       		.byte	49
 3209 0019 C3       		.byte	-61
 3210 001a 99       		.byte	-103
 3211 001b E2       		.byte	-30
 3212 001c 69       		.byte	105
 3213 001d 77       		.byte	119
 3214 001e 26       		.byte	38
 3215 001f 61       		.byte	97
 3216 0020 90       		.byte	-112
 3217 0021 01       		.byte	1
 3218 0022 50       		.byte	80
 3219 0023 98       		.byte	-104
 3220 0024 3C       		.byte	60
 3221 0025 D2       		.byte	-46
 3222 0026 4F       		.byte	79
 3223 0027 B0       		.byte	-80
 3224 0028 D6       		.byte	-42
 3225 0029 96       		.byte	-106
 3226 002a 3F       		.byte	63
 3227 002b 7D       		.byte	125
 3228 002c 28       		.byte	40
 3229 002d E1       		.byte	-31
 3230 002e 7F       		.byte	127
 3231 002f 72       		.byte	114
 3232 0030 F9       		.byte	-7
 3233 0031 6B       		.byte	107
 3234 0032 69       		.byte	105
 3235 0033 7D       		.byte	125
 3236 0034 7C       		.byte	124
 3237 0035 B7       		.byte	-73
 3238 0036 93       		.byte	-109
 3239 0037 8D       		.byte	-115
 3240 0038 52       		.byte	82
 3241 0039 5A       		.byte	90
 3242 003a 2F       		.byte	47
 3243 003b 31       		.byte	49
ARM GAS  C:\Users\jo\AppData\Local\Temp\ccBWvOPb.s 			page 61


 3244 003c AA       		.byte	-86
 3245 003d F1       		.byte	-15
 3246 003e 61       		.byte	97
 3247 003f D0       		.byte	-48
 3248 0040 C3       		.byte	-61
 3249 0041 FC       		.byte	-4
 3250 0042 D3       		.byte	-45
 3251 0043 D7       		.byte	-41
 3252 0044 61       		.byte	97
 3253 0045 92       		.byte	-110
 3254 0046 E4       		.byte	-28
 3255 0047 00       		.byte	0
 3256 0048 7D       		.byte	125
 3257 0049 FB       		.byte	-5
 3258 004a 49       		.byte	73
 3259 004b 6C       		.byte	108
 3260 004c CA       		.byte	-54
 3261 004d 67       		.byte	103
 3262 004e E1       		.byte	-31
 3263 004f 3B       		.byte	59
 3264 0050 D1       		.byte	-47
 3265 0051 74       		.byte	116
 3266 0052 AB       		.byte	-85
 3267 0053 98       		.byte	-104
 3268 0054 D2       		.byte	-46
 3269 0055 77       		.byte	119
 3270 0056 D9       		.byte	-39
 3271 0057 F5       		.byte	-11
 3272 0058 A5       		.byte	-91
 3273 0059 61       		.byte	97
 3274 005a 1C       		.byte	28
 3275 005b 2C       		.byte	44
 3276 005c 9F       		.byte	-97
 3277 005d 41       		.byte	65
 3278 005e 9D       		.byte	-99
 3279 005f 9F       		.byte	-97
 3280 0060 57       		.byte	87
 3281 0061 ED       		.byte	-19
 3282 0062 F4       		.byte	-12
 3283 0063 A2       		.byte	-94
 3284 0064 2B       		.byte	43
 3285 0065 E3       		.byte	-29
 3286 0066 C9       		.byte	-55
 3287 0067 55       		.byte	85
 3288 0068 AC       		.byte	-84
 3289 0069 49       		.byte	73
 3290 006a DA       		.byte	-38
 3291 006b 2E       		.byte	46
 3292 006c 21       		.byte	33
 3293 006d 07       		.byte	7
 3294 006e B6       		.byte	-74
 3295 006f 7A       		.byte	122
 3296              		.text
 3297              	.Letext0:
 3298              		.file 2 "c:\\program files\\gnu tools arm embedded\\4.9 2014q4\\lib\\gcc\\arm-none-eabi\\4.9.3\\in
 3299              		.file 3 "c:\\program files\\gnu tools arm embedded\\4.9 2014q4\\arm-none-eabi\\include\\machine\\_
 3300              		.file 4 "c:\\program files\\gnu tools arm embedded\\4.9 2014q4\\arm-none-eabi\\include\\stdint.h"
ARM GAS  C:\Users\jo\AppData\Local\Temp\ccBWvOPb.s 			page 62


 3301              		.file 5 "../../../ext/mbedtls-1.3.11/library/../include/polarssl/md5.h"
 3302              		.file 6 "c:\\program files\\gnu tools arm embedded\\4.9 2014q4\\arm-none-eabi\\include\\sys\\lock.
 3303              		.file 7 "c:\\program files\\gnu tools arm embedded\\4.9 2014q4\\arm-none-eabi\\include\\sys\\_type
 3304              		.file 8 "c:\\program files\\gnu tools arm embedded\\4.9 2014q4\\arm-none-eabi\\include\\sys\\reent
 3305              		.file 9 "c:\\program files\\gnu tools arm embedded\\4.9 2014q4\\arm-none-eabi\\include\\stdio.h"
 3306              		.file 10 "c:\\program files\\gnu tools arm embedded\\4.9 2014q4\\arm-none-eabi\\include\\string.h"
 3307              		.file 11 "<built-in>"
 3308              		.section	.debug_info,"",%progbits
 3309              	.Ldebug_info0:
 3310 0000 BD1B0000 		.4byte	0x1bbd
 3311 0004 0400     		.2byte	0x4
 3312 0006 00000000 		.4byte	.Ldebug_abbrev0
 3313 000a 04       		.byte	0x4
 3314 000b 01       		.uleb128 0x1
 3315 000c 80030000 		.4byte	.LASF173
 3316 0010 01       		.byte	0x1
 3317 0011 48030000 		.4byte	.LASF174
 3318 0015 BC000000 		.4byte	.LASF175
 3319 0019 30010000 		.4byte	.Ldebug_ranges0+0x130
 3320 001d 00000000 		.4byte	0
 3321 0021 00000000 		.4byte	.Ldebug_line0
 3322 0025 02       		.uleb128 0x2
 3323 0026 04       		.byte	0x4
 3324 0027 05       		.byte	0x5
 3325 0028 696E7400 		.ascii	"int\000"
 3326 002c 03       		.uleb128 0x3
 3327 002d 12000000 		.4byte	.LASF6
 3328 0031 02       		.byte	0x2
 3329 0032 D4       		.byte	0xd4
 3330 0033 37000000 		.4byte	0x37
 3331 0037 04       		.uleb128 0x4
 3332 0038 04       		.byte	0x4
 3333 0039 07       		.byte	0x7
 3334 003a 71020000 		.4byte	.LASF0
 3335 003e 04       		.uleb128 0x4
 3336 003f 01       		.byte	0x1
 3337 0040 06       		.byte	0x6
 3338 0041 18010000 		.4byte	.LASF1
 3339 0045 04       		.uleb128 0x4
 3340 0046 01       		.byte	0x1
 3341 0047 08       		.byte	0x8
 3342 0048 63050000 		.4byte	.LASF2
 3343 004c 04       		.uleb128 0x4
 3344 004d 02       		.byte	0x2
 3345 004e 05       		.byte	0x5
 3346 004f 7F050000 		.4byte	.LASF3
 3347 0053 04       		.uleb128 0x4
 3348 0054 02       		.byte	0x2
 3349 0055 07       		.byte	0x7
 3350 0056 EB020000 		.4byte	.LASF4
 3351 005a 04       		.uleb128 0x4
 3352 005b 04       		.byte	0x4
 3353 005c 05       		.byte	0x5
 3354 005d 6A010000 		.4byte	.LASF5
 3355 0061 03       		.uleb128 0x3
 3356 0062 02020000 		.4byte	.LASF7
 3357 0066 03       		.byte	0x3
ARM GAS  C:\Users\jo\AppData\Local\Temp\ccBWvOPb.s 			page 63


 3358 0067 41       		.byte	0x41
 3359 0068 6C000000 		.4byte	0x6c
 3360 006c 04       		.uleb128 0x4
 3361 006d 04       		.byte	0x4
 3362 006e 07       		.byte	0x7
 3363 006f 95020000 		.4byte	.LASF8
 3364 0073 04       		.uleb128 0x4
 3365 0074 08       		.byte	0x8
 3366 0075 05       		.byte	0x5
 3367 0076 0A010000 		.4byte	.LASF9
 3368 007a 04       		.uleb128 0x4
 3369 007b 08       		.byte	0x8
 3370 007c 07       		.byte	0x7
 3371 007d 76000000 		.4byte	.LASF10
 3372 0081 03       		.uleb128 0x3
 3373 0082 34060000 		.4byte	.LASF11
 3374 0086 04       		.byte	0x4
 3375 0087 2D       		.byte	0x2d
 3376 0088 61000000 		.4byte	0x61
 3377 008c 05       		.uleb128 0x5
 3378 008d D8       		.byte	0xd8
 3379 008e 05       		.byte	0x5
 3380 008f 37       		.byte	0x37
 3381 0090 D1000000 		.4byte	0xd1
 3382 0094 06       		.uleb128 0x6
 3383 0095 7A030000 		.4byte	.LASF12
 3384 0099 05       		.byte	0x5
 3385 009a 39       		.byte	0x39
 3386 009b D1000000 		.4byte	0xd1
 3387 009f 00       		.byte	0
 3388 00a0 06       		.uleb128 0x6
 3389 00a1 64010000 		.4byte	.LASF13
 3390 00a5 05       		.byte	0x5
 3391 00a6 3A       		.byte	0x3a
 3392 00a7 E8000000 		.4byte	0xe8
 3393 00ab 08       		.byte	0x8
 3394 00ac 06       		.uleb128 0x6
 3395 00ad 68060000 		.4byte	.LASF14
 3396 00b1 05       		.byte	0x5
 3397 00b2 3B       		.byte	0x3b
 3398 00b3 F8000000 		.4byte	0xf8
 3399 00b7 18       		.byte	0x18
 3400 00b8 06       		.uleb128 0x6
 3401 00b9 4C050000 		.4byte	.LASF15
 3402 00bd 05       		.byte	0x5
 3403 00be 3D       		.byte	0x3d
 3404 00bf F8000000 		.4byte	0xf8
 3405 00c3 58       		.byte	0x58
 3406 00c4 06       		.uleb128 0x6
 3407 00c5 C0070000 		.4byte	.LASF16
 3408 00c9 05       		.byte	0x5
 3409 00ca 3E       		.byte	0x3e
 3410 00cb F8000000 		.4byte	0xf8
 3411 00cf 98       		.byte	0x98
 3412 00d0 00       		.byte	0
 3413 00d1 07       		.uleb128 0x7
 3414 00d2 81000000 		.4byte	0x81
ARM GAS  C:\Users\jo\AppData\Local\Temp\ccBWvOPb.s 			page 64


 3415 00d6 E1000000 		.4byte	0xe1
 3416 00da 08       		.uleb128 0x8
 3417 00db E1000000 		.4byte	0xe1
 3418 00df 01       		.byte	0x1
 3419 00e0 00       		.byte	0
 3420 00e1 04       		.uleb128 0x4
 3421 00e2 04       		.byte	0x4
 3422 00e3 07       		.byte	0x7
 3423 00e4 99040000 		.4byte	.LASF17
 3424 00e8 07       		.uleb128 0x7
 3425 00e9 81000000 		.4byte	0x81
 3426 00ed F8000000 		.4byte	0xf8
 3427 00f1 08       		.uleb128 0x8
 3428 00f2 E1000000 		.4byte	0xe1
 3429 00f6 03       		.byte	0x3
 3430 00f7 00       		.byte	0
 3431 00f8 07       		.uleb128 0x7
 3432 00f9 45000000 		.4byte	0x45
 3433 00fd 08010000 		.4byte	0x108
 3434 0101 08       		.uleb128 0x8
 3435 0102 E1000000 		.4byte	0xe1
 3436 0106 3F       		.byte	0x3f
 3437 0107 00       		.byte	0
 3438 0108 03       		.uleb128 0x3
 3439 0109 EC060000 		.4byte	.LASF18
 3440 010d 05       		.byte	0x5
 3441 010e 40       		.byte	0x40
 3442 010f 8C000000 		.4byte	0x8c
 3443 0113 03       		.uleb128 0x3
 3444 0114 2F050000 		.4byte	.LASF19
 3445 0118 06       		.byte	0x6
 3446 0119 07       		.byte	0x7
 3447 011a 25000000 		.4byte	0x25
 3448 011e 03       		.uleb128 0x3
 3449 011f E3040000 		.4byte	.LASF20
 3450 0123 07       		.byte	0x7
 3451 0124 10       		.byte	0x10
 3452 0125 5A000000 		.4byte	0x5a
 3453 0129 03       		.uleb128 0x3
 3454 012a 43060000 		.4byte	.LASF21
 3455 012e 07       		.byte	0x7
 3456 012f 27       		.byte	0x27
 3457 0130 5A000000 		.4byte	0x5a
 3458 0134 09       		.uleb128 0x9
 3459 0135 41030000 		.4byte	.LASF22
 3460 0139 02       		.byte	0x2
 3461 013a 6101     		.2byte	0x161
 3462 013c 37000000 		.4byte	0x37
 3463 0140 0A       		.uleb128 0xa
 3464 0141 04       		.byte	0x4
 3465 0142 07       		.byte	0x7
 3466 0143 4A       		.byte	0x4a
 3467 0144 5F010000 		.4byte	0x15f
 3468 0148 0B       		.uleb128 0xb
 3469 0149 34030000 		.4byte	.LASF23
 3470 014d 07       		.byte	0x7
 3471 014e 4C       		.byte	0x4c
ARM GAS  C:\Users\jo\AppData\Local\Temp\ccBWvOPb.s 			page 65


 3472 014f 34010000 		.4byte	0x134
 3473 0153 0B       		.uleb128 0xb
 3474 0154 7E020000 		.4byte	.LASF24
 3475 0158 07       		.byte	0x7
 3476 0159 4D       		.byte	0x4d
 3477 015a 5F010000 		.4byte	0x15f
 3478 015e 00       		.byte	0
 3479 015f 07       		.uleb128 0x7
 3480 0160 45000000 		.4byte	0x45
 3481 0164 6F010000 		.4byte	0x16f
 3482 0168 08       		.uleb128 0x8
 3483 0169 E1000000 		.4byte	0xe1
 3484 016d 03       		.byte	0x3
 3485 016e 00       		.byte	0
 3486 016f 05       		.uleb128 0x5
 3487 0170 08       		.byte	0x8
 3488 0171 07       		.byte	0x7
 3489 0172 47       		.byte	0x47
 3490 0173 90010000 		.4byte	0x190
 3491 0177 06       		.uleb128 0x6
 3492 0178 2C060000 		.4byte	.LASF25
 3493 017c 07       		.byte	0x7
 3494 017d 49       		.byte	0x49
 3495 017e 25000000 		.4byte	0x25
 3496 0182 00       		.byte	0
 3497 0183 06       		.uleb128 0x6
 3498 0184 9D060000 		.4byte	.LASF26
 3499 0188 07       		.byte	0x7
 3500 0189 4E       		.byte	0x4e
 3501 018a 40010000 		.4byte	0x140
 3502 018e 04       		.byte	0x4
 3503 018f 00       		.byte	0
 3504 0190 03       		.uleb128 0x3
 3505 0191 A7050000 		.4byte	.LASF27
 3506 0195 07       		.byte	0x7
 3507 0196 4F       		.byte	0x4f
 3508 0197 6F010000 		.4byte	0x16f
 3509 019b 03       		.uleb128 0x3
 3510 019c 13020000 		.4byte	.LASF28
 3511 01a0 07       		.byte	0x7
 3512 01a1 53       		.byte	0x53
 3513 01a2 13010000 		.4byte	0x113
 3514 01a6 0C       		.uleb128 0xc
 3515 01a7 04       		.byte	0x4
 3516 01a8 03       		.uleb128 0x3
 3517 01a9 C5060000 		.4byte	.LASF29
 3518 01ad 08       		.byte	0x8
 3519 01ae 16       		.byte	0x16
 3520 01af 6C000000 		.4byte	0x6c
 3521 01b3 0D       		.uleb128 0xd
 3522 01b4 24020000 		.4byte	.LASF34
 3523 01b8 18       		.byte	0x18
 3524 01b9 08       		.byte	0x8
 3525 01ba 2D       		.byte	0x2d
 3526 01bb 06020000 		.4byte	0x206
 3527 01bf 06       		.uleb128 0x6
 3528 01c0 8A060000 		.4byte	.LASF30
ARM GAS  C:\Users\jo\AppData\Local\Temp\ccBWvOPb.s 			page 66


 3529 01c4 08       		.byte	0x8
 3530 01c5 2F       		.byte	0x2f
 3531 01c6 06020000 		.4byte	0x206
 3532 01ca 00       		.byte	0
 3533 01cb 0E       		.uleb128 0xe
 3534 01cc 5F6B00   		.ascii	"_k\000"
 3535 01cf 08       		.byte	0x8
 3536 01d0 30       		.byte	0x30
 3537 01d1 25000000 		.4byte	0x25
 3538 01d5 04       		.byte	0x4
 3539 01d6 06       		.uleb128 0x6
 3540 01d7 17060000 		.4byte	.LASF31
 3541 01db 08       		.byte	0x8
 3542 01dc 30       		.byte	0x30
 3543 01dd 25000000 		.4byte	0x25
 3544 01e1 08       		.byte	0x8
 3545 01e2 06       		.uleb128 0x6
 3546 01e3 0D020000 		.4byte	.LASF32
 3547 01e7 08       		.byte	0x8
 3548 01e8 30       		.byte	0x30
 3549 01e9 25000000 		.4byte	0x25
 3550 01ed 0C       		.byte	0xc
 3551 01ee 06       		.uleb128 0x6
 3552 01ef 15070000 		.4byte	.LASF33
 3553 01f3 08       		.byte	0x8
 3554 01f4 30       		.byte	0x30
 3555 01f5 25000000 		.4byte	0x25
 3556 01f9 10       		.byte	0x10
 3557 01fa 0E       		.uleb128 0xe
 3558 01fb 5F7800   		.ascii	"_x\000"
 3559 01fe 08       		.byte	0x8
 3560 01ff 31       		.byte	0x31
 3561 0200 0C020000 		.4byte	0x20c
 3562 0204 14       		.byte	0x14
 3563 0205 00       		.byte	0
 3564 0206 0F       		.uleb128 0xf
 3565 0207 04       		.byte	0x4
 3566 0208 B3010000 		.4byte	0x1b3
 3567 020c 07       		.uleb128 0x7
 3568 020d A8010000 		.4byte	0x1a8
 3569 0211 1C020000 		.4byte	0x21c
 3570 0215 08       		.uleb128 0x8
 3571 0216 E1000000 		.4byte	0xe1
 3572 021a 00       		.byte	0
 3573 021b 00       		.byte	0
 3574 021c 0D       		.uleb128 0xd
 3575 021d 6C020000 		.4byte	.LASF35
 3576 0221 24       		.byte	0x24
 3577 0222 08       		.byte	0x8
 3578 0223 35       		.byte	0x35
 3579 0224 95020000 		.4byte	0x295
 3580 0228 06       		.uleb128 0x6
 3581 0229 0C070000 		.4byte	.LASF36
 3582 022d 08       		.byte	0x8
 3583 022e 37       		.byte	0x37
 3584 022f 25000000 		.4byte	0x25
 3585 0233 00       		.byte	0
ARM GAS  C:\Users\jo\AppData\Local\Temp\ccBWvOPb.s 			page 67


 3586 0234 06       		.uleb128 0x6
 3587 0235 57060000 		.4byte	.LASF37
 3588 0239 08       		.byte	0x8
 3589 023a 38       		.byte	0x38
 3590 023b 25000000 		.4byte	0x25
 3591 023f 04       		.byte	0x4
 3592 0240 06       		.uleb128 0x6
 3593 0241 30010000 		.4byte	.LASF38
 3594 0245 08       		.byte	0x8
 3595 0246 39       		.byte	0x39
 3596 0247 25000000 		.4byte	0x25
 3597 024b 08       		.byte	0x8
 3598 024c 06       		.uleb128 0x6
 3599 024d D4070000 		.4byte	.LASF39
 3600 0251 08       		.byte	0x8
 3601 0252 3A       		.byte	0x3a
 3602 0253 25000000 		.4byte	0x25
 3603 0257 0C       		.byte	0xc
 3604 0258 06       		.uleb128 0x6
 3605 0259 B7040000 		.4byte	.LASF40
 3606 025d 08       		.byte	0x8
 3607 025e 3B       		.byte	0x3b
 3608 025f 25000000 		.4byte	0x25
 3609 0263 10       		.byte	0x10
 3610 0264 06       		.uleb128 0x6
 3611 0265 81040000 		.4byte	.LASF41
 3612 0269 08       		.byte	0x8
 3613 026a 3C       		.byte	0x3c
 3614 026b 25000000 		.4byte	0x25
 3615 026f 14       		.byte	0x14
 3616 0270 06       		.uleb128 0x6
 3617 0271 1A070000 		.4byte	.LASF42
 3618 0275 08       		.byte	0x8
 3619 0276 3D       		.byte	0x3d
 3620 0277 25000000 		.4byte	0x25
 3621 027b 18       		.byte	0x18
 3622 027c 06       		.uleb128 0x6
 3623 027d 89050000 		.4byte	.LASF43
 3624 0281 08       		.byte	0x8
 3625 0282 3E       		.byte	0x3e
 3626 0283 25000000 		.4byte	0x25
 3627 0287 1C       		.byte	0x1c
 3628 0288 06       		.uleb128 0x6
 3629 0289 7C070000 		.4byte	.LASF44
 3630 028d 08       		.byte	0x8
 3631 028e 3F       		.byte	0x3f
 3632 028f 25000000 		.4byte	0x25
 3633 0293 20       		.byte	0x20
 3634 0294 00       		.byte	0
 3635 0295 10       		.uleb128 0x10
 3636 0296 3F010000 		.4byte	.LASF45
 3637 029a 0801     		.2byte	0x108
 3638 029c 08       		.byte	0x8
 3639 029d 48       		.byte	0x48
 3640 029e D5020000 		.4byte	0x2d5
 3641 02a2 06       		.uleb128 0x6
 3642 02a3 DE010000 		.4byte	.LASF46
ARM GAS  C:\Users\jo\AppData\Local\Temp\ccBWvOPb.s 			page 68


 3643 02a7 08       		.byte	0x8
 3644 02a8 49       		.byte	0x49
 3645 02a9 D5020000 		.4byte	0x2d5
 3646 02ad 00       		.byte	0
 3647 02ae 06       		.uleb128 0x6
 3648 02af 00000000 		.4byte	.LASF47
 3649 02b3 08       		.byte	0x8
 3650 02b4 4A       		.byte	0x4a
 3651 02b5 D5020000 		.4byte	0x2d5
 3652 02b9 80       		.byte	0x80
 3653 02ba 11       		.uleb128 0x11
 3654 02bb A5060000 		.4byte	.LASF48
 3655 02bf 08       		.byte	0x8
 3656 02c0 4C       		.byte	0x4c
 3657 02c1 A8010000 		.4byte	0x1a8
 3658 02c5 0001     		.2byte	0x100
 3659 02c7 11       		.uleb128 0x11
 3660 02c8 7A010000 		.4byte	.LASF49
 3661 02cc 08       		.byte	0x8
 3662 02cd 4F       		.byte	0x4f
 3663 02ce A8010000 		.4byte	0x1a8
 3664 02d2 0401     		.2byte	0x104
 3665 02d4 00       		.byte	0
 3666 02d5 07       		.uleb128 0x7
 3667 02d6 A6010000 		.4byte	0x1a6
 3668 02da E5020000 		.4byte	0x2e5
 3669 02de 08       		.uleb128 0x8
 3670 02df E1000000 		.4byte	0xe1
 3671 02e3 1F       		.byte	0x1f
 3672 02e4 00       		.byte	0
 3673 02e5 10       		.uleb128 0x10
 3674 02e6 D0040000 		.4byte	.LASF50
 3675 02ea 9001     		.2byte	0x190
 3676 02ec 08       		.byte	0x8
 3677 02ed 5B       		.byte	0x5b
 3678 02ee 23030000 		.4byte	0x323
 3679 02f2 06       		.uleb128 0x6
 3680 02f3 8A060000 		.4byte	.LASF30
 3681 02f7 08       		.byte	0x8
 3682 02f8 5C       		.byte	0x5c
 3683 02f9 23030000 		.4byte	0x323
 3684 02fd 00       		.byte	0
 3685 02fe 06       		.uleb128 0x6
 3686 02ff E0050000 		.4byte	.LASF51
 3687 0303 08       		.byte	0x8
 3688 0304 5D       		.byte	0x5d
 3689 0305 25000000 		.4byte	0x25
 3690 0309 04       		.byte	0x4
 3691 030a 06       		.uleb128 0x6
 3692 030b FD010000 		.4byte	.LASF52
 3693 030f 08       		.byte	0x8
 3694 0310 5F       		.byte	0x5f
 3695 0311 29030000 		.4byte	0x329
 3696 0315 08       		.byte	0x8
 3697 0316 06       		.uleb128 0x6
 3698 0317 3F010000 		.4byte	.LASF45
 3699 031b 08       		.byte	0x8
ARM GAS  C:\Users\jo\AppData\Local\Temp\ccBWvOPb.s 			page 69


 3700 031c 60       		.byte	0x60
 3701 031d 95020000 		.4byte	0x295
 3702 0321 88       		.byte	0x88
 3703 0322 00       		.byte	0
 3704 0323 0F       		.uleb128 0xf
 3705 0324 04       		.byte	0x4
 3706 0325 E5020000 		.4byte	0x2e5
 3707 0329 07       		.uleb128 0x7
 3708 032a 39030000 		.4byte	0x339
 3709 032e 39030000 		.4byte	0x339
 3710 0332 08       		.uleb128 0x8
 3711 0333 E1000000 		.4byte	0xe1
 3712 0337 1F       		.byte	0x1f
 3713 0338 00       		.byte	0
 3714 0339 0F       		.uleb128 0xf
 3715 033a 04       		.byte	0x4
 3716 033b 3F030000 		.4byte	0x33f
 3717 033f 12       		.uleb128 0x12
 3718 0340 0D       		.uleb128 0xd
 3719 0341 93050000 		.4byte	.LASF53
 3720 0345 08       		.byte	0x8
 3721 0346 08       		.byte	0x8
 3722 0347 73       		.byte	0x73
 3723 0348 65030000 		.4byte	0x365
 3724 034c 06       		.uleb128 0x6
 3725 034d 2A010000 		.4byte	.LASF54
 3726 0351 08       		.byte	0x8
 3727 0352 74       		.byte	0x74
 3728 0353 65030000 		.4byte	0x365
 3729 0357 00       		.byte	0
 3730 0358 06       		.uleb128 0x6
 3731 0359 0C000000 		.4byte	.LASF55
 3732 035d 08       		.byte	0x8
 3733 035e 75       		.byte	0x75
 3734 035f 25000000 		.4byte	0x25
 3735 0363 04       		.byte	0x4
 3736 0364 00       		.byte	0
 3737 0365 0F       		.uleb128 0xf
 3738 0366 04       		.byte	0x4
 3739 0367 45000000 		.4byte	0x45
 3740 036b 0D       		.uleb128 0xd
 3741 036c B2050000 		.4byte	.LASF56
 3742 0370 68       		.byte	0x68
 3743 0371 08       		.byte	0x8
 3744 0372 B3       		.byte	0xb3
 3745 0373 95040000 		.4byte	0x495
 3746 0377 0E       		.uleb128 0xe
 3747 0378 5F7000   		.ascii	"_p\000"
 3748 037b 08       		.byte	0x8
 3749 037c B4       		.byte	0xb4
 3750 037d 65030000 		.4byte	0x365
 3751 0381 00       		.byte	0
 3752 0382 0E       		.uleb128 0xe
 3753 0383 5F7200   		.ascii	"_r\000"
 3754 0386 08       		.byte	0x8
 3755 0387 B5       		.byte	0xb5
 3756 0388 25000000 		.4byte	0x25
ARM GAS  C:\Users\jo\AppData\Local\Temp\ccBWvOPb.s 			page 70


 3757 038c 04       		.byte	0x4
 3758 038d 0E       		.uleb128 0xe
 3759 038e 5F7700   		.ascii	"_w\000"
 3760 0391 08       		.byte	0x8
 3761 0392 B6       		.byte	0xb6
 3762 0393 25000000 		.4byte	0x25
 3763 0397 08       		.byte	0x8
 3764 0398 06       		.uleb128 0x6
 3765 0399 73010000 		.4byte	.LASF57
 3766 039d 08       		.byte	0x8
 3767 039e B7       		.byte	0xb7
 3768 039f 4C000000 		.4byte	0x4c
 3769 03a3 0C       		.byte	0xc
 3770 03a4 06       		.uleb128 0x6
 3771 03a5 A7020000 		.4byte	.LASF58
 3772 03a9 08       		.byte	0x8
 3773 03aa B8       		.byte	0xb8
 3774 03ab 4C000000 		.4byte	0x4c
 3775 03af 0E       		.byte	0xe
 3776 03b0 0E       		.uleb128 0xe
 3777 03b1 5F626600 		.ascii	"_bf\000"
 3778 03b5 08       		.byte	0x8
 3779 03b6 B9       		.byte	0xb9
 3780 03b7 40030000 		.4byte	0x340
 3781 03bb 10       		.byte	0x10
 3782 03bc 06       		.uleb128 0x6
 3783 03bd 8D000000 		.4byte	.LASF59
 3784 03c1 08       		.byte	0x8
 3785 03c2 BA       		.byte	0xba
 3786 03c3 25000000 		.4byte	0x25
 3787 03c7 18       		.byte	0x18
 3788 03c8 06       		.uleb128 0x6
 3789 03c9 54010000 		.4byte	.LASF60
 3790 03cd 08       		.byte	0x8
 3791 03ce C1       		.byte	0xc1
 3792 03cf A6010000 		.4byte	0x1a6
 3793 03d3 1C       		.byte	0x1c
 3794 03d4 06       		.uleb128 0x6
 3795 03d5 5C020000 		.4byte	.LASF61
 3796 03d9 08       		.byte	0x8
 3797 03da C3       		.byte	0xc3
 3798 03db F8050000 		.4byte	0x5f8
 3799 03df 20       		.byte	0x20
 3800 03e0 06       		.uleb128 0x6
 3801 03e1 7A040000 		.4byte	.LASF62
 3802 03e5 08       		.byte	0x8
 3803 03e6 C5       		.byte	0xc5
 3804 03e7 27060000 		.4byte	0x627
 3805 03eb 24       		.byte	0x24
 3806 03ec 06       		.uleb128 0x6
 3807 03ed 3D060000 		.4byte	.LASF63
 3808 03f1 08       		.byte	0x8
 3809 03f2 C8       		.byte	0xc8
 3810 03f3 4B060000 		.4byte	0x64b
 3811 03f7 28       		.byte	0x28
 3812 03f8 06       		.uleb128 0x6
 3813 03f9 96070000 		.4byte	.LASF64
ARM GAS  C:\Users\jo\AppData\Local\Temp\ccBWvOPb.s 			page 71


 3814 03fd 08       		.byte	0x8
 3815 03fe C9       		.byte	0xc9
 3816 03ff 65060000 		.4byte	0x665
 3817 0403 2C       		.byte	0x2c
 3818 0404 0E       		.uleb128 0xe
 3819 0405 5F756200 		.ascii	"_ub\000"
 3820 0409 08       		.byte	0x8
 3821 040a CC       		.byte	0xcc
 3822 040b 40030000 		.4byte	0x340
 3823 040f 30       		.byte	0x30
 3824 0410 0E       		.uleb128 0xe
 3825 0411 5F757000 		.ascii	"_up\000"
 3826 0415 08       		.byte	0x8
 3827 0416 CD       		.byte	0xcd
 3828 0417 65030000 		.4byte	0x365
 3829 041b 38       		.byte	0x38
 3830 041c 0E       		.uleb128 0xe
 3831 041d 5F757200 		.ascii	"_ur\000"
 3832 0421 08       		.byte	0x8
 3833 0422 CE       		.byte	0xce
 3834 0423 25000000 		.4byte	0x25
 3835 0427 3C       		.byte	0x3c
 3836 0428 06       		.uleb128 0x6
 3837 0429 24010000 		.4byte	.LASF65
 3838 042d 08       		.byte	0x8
 3839 042e D1       		.byte	0xd1
 3840 042f 6B060000 		.4byte	0x66b
 3841 0433 40       		.byte	0x40
 3842 0434 06       		.uleb128 0x6
 3843 0435 6E070000 		.4byte	.LASF66
 3844 0439 08       		.byte	0x8
 3845 043a D2       		.byte	0xd2
 3846 043b 7B060000 		.4byte	0x67b
 3847 043f 43       		.byte	0x43
 3848 0440 0E       		.uleb128 0xe
 3849 0441 5F6C6200 		.ascii	"_lb\000"
 3850 0445 08       		.byte	0x8
 3851 0446 D5       		.byte	0xd5
 3852 0447 40030000 		.4byte	0x340
 3853 044b 44       		.byte	0x44
 3854 044c 06       		.uleb128 0x6
 3855 044d 98010000 		.4byte	.LASF67
 3856 0451 08       		.byte	0x8
 3857 0452 D8       		.byte	0xd8
 3858 0453 25000000 		.4byte	0x25
 3859 0457 4C       		.byte	0x4c
 3860 0458 06       		.uleb128 0x6
 3861 0459 B7010000 		.4byte	.LASF68
 3862 045d 08       		.byte	0x8
 3863 045e D9       		.byte	0xd9
 3864 045f 1E010000 		.4byte	0x11e
 3865 0463 50       		.byte	0x50
 3866 0464 06       		.uleb128 0x6
 3867 0465 38000000 		.4byte	.LASF69
 3868 0469 08       		.byte	0x8
 3869 046a DC       		.byte	0xdc
 3870 046b B3040000 		.4byte	0x4b3
ARM GAS  C:\Users\jo\AppData\Local\Temp\ccBWvOPb.s 			page 72


 3871 046f 54       		.byte	0x54
 3872 0470 06       		.uleb128 0x6
 3873 0471 A9010000 		.4byte	.LASF70
 3874 0475 08       		.byte	0x8
 3875 0476 E0       		.byte	0xe0
 3876 0477 9B010000 		.4byte	0x19b
 3877 047b 58       		.byte	0x58
 3878 047c 06       		.uleb128 0x6
 3879 047d BA050000 		.4byte	.LASF71
 3880 0481 08       		.byte	0x8
 3881 0482 E2       		.byte	0xe2
 3882 0483 90010000 		.4byte	0x190
 3883 0487 5C       		.byte	0x5c
 3884 0488 06       		.uleb128 0x6
 3885 0489 72030000 		.4byte	.LASF72
 3886 048d 08       		.byte	0x8
 3887 048e E3       		.byte	0xe3
 3888 048f 25000000 		.4byte	0x25
 3889 0493 64       		.byte	0x64
 3890 0494 00       		.byte	0
 3891 0495 13       		.uleb128 0x13
 3892 0496 25000000 		.4byte	0x25
 3893 049a B3040000 		.4byte	0x4b3
 3894 049e 14       		.uleb128 0x14
 3895 049f B3040000 		.4byte	0x4b3
 3896 04a3 14       		.uleb128 0x14
 3897 04a4 A6010000 		.4byte	0x1a6
 3898 04a8 14       		.uleb128 0x14
 3899 04a9 EB050000 		.4byte	0x5eb
 3900 04ad 14       		.uleb128 0x14
 3901 04ae 25000000 		.4byte	0x25
 3902 04b2 00       		.byte	0
 3903 04b3 0F       		.uleb128 0xf
 3904 04b4 04       		.byte	0x4
 3905 04b5 B9040000 		.4byte	0x4b9
 3906 04b9 15       		.uleb128 0x15
 3907 04ba 1F060000 		.4byte	.LASF73
 3908 04be 2804     		.2byte	0x428
 3909 04c0 08       		.byte	0x8
 3910 04c1 3902     		.2byte	0x239
 3911 04c3 EB050000 		.4byte	0x5eb
 3912 04c7 16       		.uleb128 0x16
 3913 04c8 4B060000 		.4byte	.LASF74
 3914 04cc 08       		.byte	0x8
 3915 04cd 3B02     		.2byte	0x23b
 3916 04cf 25000000 		.4byte	0x25
 3917 04d3 00       		.byte	0
 3918 04d4 16       		.uleb128 0x16
 3919 04d5 82010000 		.4byte	.LASF75
 3920 04d9 08       		.byte	0x8
 3921 04da 4002     		.2byte	0x240
 3922 04dc D2060000 		.4byte	0x6d2
 3923 04e0 04       		.byte	0x4
 3924 04e1 16       		.uleb128 0x16
 3925 04e2 85020000 		.4byte	.LASF76
 3926 04e6 08       		.byte	0x8
 3927 04e7 4002     		.2byte	0x240
ARM GAS  C:\Users\jo\AppData\Local\Temp\ccBWvOPb.s 			page 73


 3928 04e9 D2060000 		.4byte	0x6d2
 3929 04ed 08       		.byte	0x8
 3930 04ee 16       		.uleb128 0x16
 3931 04ef 1C020000 		.4byte	.LASF77
 3932 04f3 08       		.byte	0x8
 3933 04f4 4002     		.2byte	0x240
 3934 04f6 D2060000 		.4byte	0x6d2
 3935 04fa 0C       		.byte	0xc
 3936 04fb 16       		.uleb128 0x16
 3937 04fc DB050000 		.4byte	.LASF78
 3938 0500 08       		.byte	0x8
 3939 0501 4202     		.2byte	0x242
 3940 0503 25000000 		.4byte	0x25
 3941 0507 10       		.byte	0x10
 3942 0508 16       		.uleb128 0x16
 3943 0509 21000000 		.4byte	.LASF79
 3944 050d 08       		.byte	0x8
 3945 050e 4302     		.2byte	0x243
 3946 0510 B4080000 		.4byte	0x8b4
 3947 0514 14       		.byte	0x14
 3948 0515 16       		.uleb128 0x16
 3949 0516 DA060000 		.4byte	.LASF80
 3950 051a 08       		.byte	0x8
 3951 051b 4502     		.2byte	0x245
 3952 051d 25000000 		.4byte	0x25
 3953 0521 30       		.byte	0x30
 3954 0522 16       		.uleb128 0x16
 3955 0523 E5050000 		.4byte	.LASF81
 3956 0527 08       		.byte	0x8
 3957 0528 4602     		.2byte	0x246
 3958 052a 1C060000 		.4byte	0x61c
 3959 052e 34       		.byte	0x34
 3960 052f 16       		.uleb128 0x16
 3961 0530 D8040000 		.4byte	.LASF82
 3962 0534 08       		.byte	0x8
 3963 0535 4802     		.2byte	0x248
 3964 0537 25000000 		.4byte	0x25
 3965 053b 38       		.byte	0x38
 3966 053c 16       		.uleb128 0x16
 3967 053d 01060000 		.4byte	.LASF83
 3968 0541 08       		.byte	0x8
 3969 0542 4A02     		.2byte	0x24a
 3970 0544 CF080000 		.4byte	0x8cf
 3971 0548 3C       		.byte	0x3c
 3972 0549 16       		.uleb128 0x16
 3973 054a 2C030000 		.4byte	.LASF84
 3974 054e 08       		.byte	0x8
 3975 054f 4D02     		.2byte	0x24d
 3976 0551 06020000 		.4byte	0x206
 3977 0555 40       		.byte	0x40
 3978 0556 16       		.uleb128 0x16
 3979 0557 62020000 		.4byte	.LASF85
 3980 055b 08       		.byte	0x8
 3981 055c 4E02     		.2byte	0x24e
 3982 055e 25000000 		.4byte	0x25
 3983 0562 44       		.byte	0x44
 3984 0563 16       		.uleb128 0x16
ARM GAS  C:\Users\jo\AppData\Local\Temp\ccBWvOPb.s 			page 74


 3985 0564 BB070000 		.4byte	.LASF86
 3986 0568 08       		.byte	0x8
 3987 0569 4F02     		.2byte	0x24f
 3988 056b 06020000 		.4byte	0x206
 3989 056f 48       		.byte	0x48
 3990 0570 16       		.uleb128 0x16
 3991 0571 25050000 		.4byte	.LASF87
 3992 0575 08       		.byte	0x8
 3993 0576 5002     		.2byte	0x250
 3994 0578 D5080000 		.4byte	0x8d5
 3995 057c 4C       		.byte	0x4c
 3996 057d 16       		.uleb128 0x16
 3997 057e 8D020000 		.4byte	.LASF88
 3998 0582 08       		.byte	0x8
 3999 0583 5302     		.2byte	0x253
 4000 0585 25000000 		.4byte	0x25
 4001 0589 50       		.byte	0x50
 4002 058a 16       		.uleb128 0x16
 4003 058b AF010000 		.4byte	.LASF89
 4004 058f 08       		.byte	0x8
 4005 0590 5402     		.2byte	0x254
 4006 0592 EB050000 		.4byte	0x5eb
 4007 0596 54       		.byte	0x54
 4008 0597 16       		.uleb128 0x16
 4009 0598 71050000 		.4byte	.LASF90
 4010 059c 08       		.byte	0x8
 4011 059d 7702     		.2byte	0x277
 4012 059f 92080000 		.4byte	0x892
 4013 05a3 58       		.byte	0x58
 4014 05a4 17       		.uleb128 0x17
 4015 05a5 D0040000 		.4byte	.LASF50
 4016 05a9 08       		.byte	0x8
 4017 05aa 7B02     		.2byte	0x27b
 4018 05ac 23030000 		.4byte	0x323
 4019 05b0 4801     		.2byte	0x148
 4020 05b2 17       		.uleb128 0x17
 4021 05b3 05030000 		.4byte	.LASF91
 4022 05b7 08       		.byte	0x8
 4023 05b8 7C02     		.2byte	0x27c
 4024 05ba E5020000 		.4byte	0x2e5
 4025 05be 4C01     		.2byte	0x14c
 4026 05c0 17       		.uleb128 0x17
 4027 05c1 52070000 		.4byte	.LASF92
 4028 05c5 08       		.byte	0x8
 4029 05c6 8002     		.2byte	0x280
 4030 05c8 E6080000 		.4byte	0x8e6
 4031 05cc DC02     		.2byte	0x2dc
 4032 05ce 17       		.uleb128 0x17
 4033 05cf 5C010000 		.4byte	.LASF93
 4034 05d3 08       		.byte	0x8
 4035 05d4 8502     		.2byte	0x285
 4036 05d6 97060000 		.4byte	0x697
 4037 05da E002     		.2byte	0x2e0
 4038 05dc 17       		.uleb128 0x17
 4039 05dd 3A010000 		.4byte	.LASF94
 4040 05e1 08       		.byte	0x8
 4041 05e2 8602     		.2byte	0x286
ARM GAS  C:\Users\jo\AppData\Local\Temp\ccBWvOPb.s 			page 75


 4042 05e4 F2080000 		.4byte	0x8f2
 4043 05e8 EC02     		.2byte	0x2ec
 4044 05ea 00       		.byte	0
 4045 05eb 0F       		.uleb128 0xf
 4046 05ec 04       		.byte	0x4
 4047 05ed F1050000 		.4byte	0x5f1
 4048 05f1 04       		.uleb128 0x4
 4049 05f2 01       		.byte	0x1
 4050 05f3 08       		.byte	0x8
 4051 05f4 52060000 		.4byte	.LASF95
 4052 05f8 0F       		.uleb128 0xf
 4053 05f9 04       		.byte	0x4
 4054 05fa 95040000 		.4byte	0x495
 4055 05fe 13       		.uleb128 0x13
 4056 05ff 25000000 		.4byte	0x25
 4057 0603 1C060000 		.4byte	0x61c
 4058 0607 14       		.uleb128 0x14
 4059 0608 B3040000 		.4byte	0x4b3
 4060 060c 14       		.uleb128 0x14
 4061 060d A6010000 		.4byte	0x1a6
 4062 0611 14       		.uleb128 0x14
 4063 0612 1C060000 		.4byte	0x61c
 4064 0616 14       		.uleb128 0x14
 4065 0617 25000000 		.4byte	0x25
 4066 061b 00       		.byte	0
 4067 061c 0F       		.uleb128 0xf
 4068 061d 04       		.byte	0x4
 4069 061e 22060000 		.4byte	0x622
 4070 0622 18       		.uleb128 0x18
 4071 0623 F1050000 		.4byte	0x5f1
 4072 0627 0F       		.uleb128 0xf
 4073 0628 04       		.byte	0x4
 4074 0629 FE050000 		.4byte	0x5fe
 4075 062d 13       		.uleb128 0x13
 4076 062e 29010000 		.4byte	0x129
 4077 0632 4B060000 		.4byte	0x64b
 4078 0636 14       		.uleb128 0x14
 4079 0637 B3040000 		.4byte	0x4b3
 4080 063b 14       		.uleb128 0x14
 4081 063c A6010000 		.4byte	0x1a6
 4082 0640 14       		.uleb128 0x14
 4083 0641 29010000 		.4byte	0x129
 4084 0645 14       		.uleb128 0x14
 4085 0646 25000000 		.4byte	0x25
 4086 064a 00       		.byte	0
 4087 064b 0F       		.uleb128 0xf
 4088 064c 04       		.byte	0x4
 4089 064d 2D060000 		.4byte	0x62d
 4090 0651 13       		.uleb128 0x13
 4091 0652 25000000 		.4byte	0x25
 4092 0656 65060000 		.4byte	0x665
 4093 065a 14       		.uleb128 0x14
 4094 065b B3040000 		.4byte	0x4b3
 4095 065f 14       		.uleb128 0x14
 4096 0660 A6010000 		.4byte	0x1a6
 4097 0664 00       		.byte	0
 4098 0665 0F       		.uleb128 0xf
ARM GAS  C:\Users\jo\AppData\Local\Temp\ccBWvOPb.s 			page 76


 4099 0666 04       		.byte	0x4
 4100 0667 51060000 		.4byte	0x651
 4101 066b 07       		.uleb128 0x7
 4102 066c 45000000 		.4byte	0x45
 4103 0670 7B060000 		.4byte	0x67b
 4104 0674 08       		.uleb128 0x8
 4105 0675 E1000000 		.4byte	0xe1
 4106 0679 02       		.byte	0x2
 4107 067a 00       		.byte	0
 4108 067b 07       		.uleb128 0x7
 4109 067c 45000000 		.4byte	0x45
 4110 0680 8B060000 		.4byte	0x68b
 4111 0684 08       		.uleb128 0x8
 4112 0685 E1000000 		.4byte	0xe1
 4113 0689 00       		.byte	0
 4114 068a 00       		.byte	0
 4115 068b 09       		.uleb128 0x9
 4116 068c A0050000 		.4byte	.LASF96
 4117 0690 08       		.byte	0x8
 4118 0691 1D01     		.2byte	0x11d
 4119 0693 6B030000 		.4byte	0x36b
 4120 0697 19       		.uleb128 0x19
 4121 0698 24070000 		.4byte	.LASF97
 4122 069c 0C       		.byte	0xc
 4123 069d 08       		.byte	0x8
 4124 069e 2101     		.2byte	0x121
 4125 06a0 CC060000 		.4byte	0x6cc
 4126 06a4 16       		.uleb128 0x16
 4127 06a5 8A060000 		.4byte	.LASF30
 4128 06a9 08       		.byte	0x8
 4129 06aa 2301     		.2byte	0x123
 4130 06ac CC060000 		.4byte	0x6cc
 4131 06b0 00       		.byte	0
 4132 06b1 16       		.uleb128 0x16
 4133 06b2 DF020000 		.4byte	.LASF98
 4134 06b6 08       		.byte	0x8
 4135 06b7 2401     		.2byte	0x124
 4136 06b9 25000000 		.4byte	0x25
 4137 06bd 04       		.byte	0x4
 4138 06be 16       		.uleb128 0x16
 4139 06bf 9A050000 		.4byte	.LASF99
 4140 06c3 08       		.byte	0x8
 4141 06c4 2501     		.2byte	0x125
 4142 06c6 D2060000 		.4byte	0x6d2
 4143 06ca 08       		.byte	0x8
 4144 06cb 00       		.byte	0
 4145 06cc 0F       		.uleb128 0xf
 4146 06cd 04       		.byte	0x4
 4147 06ce 97060000 		.4byte	0x697
 4148 06d2 0F       		.uleb128 0xf
 4149 06d3 04       		.byte	0x4
 4150 06d4 8B060000 		.4byte	0x68b
 4151 06d8 19       		.uleb128 0x19
 4152 06d9 19000000 		.4byte	.LASF100
 4153 06dd 0E       		.byte	0xe
 4154 06de 08       		.byte	0x8
 4155 06df 3D01     		.2byte	0x13d
ARM GAS  C:\Users\jo\AppData\Local\Temp\ccBWvOPb.s 			page 77


 4156 06e1 0D070000 		.4byte	0x70d
 4157 06e5 16       		.uleb128 0x16
 4158 06e6 26060000 		.4byte	.LASF101
 4159 06ea 08       		.byte	0x8
 4160 06eb 3E01     		.2byte	0x13e
 4161 06ed 0D070000 		.4byte	0x70d
 4162 06f1 00       		.byte	0
 4163 06f2 16       		.uleb128 0x16
 4164 06f3 6F060000 		.4byte	.LASF102
 4165 06f7 08       		.byte	0x8
 4166 06f8 3F01     		.2byte	0x13f
 4167 06fa 0D070000 		.4byte	0x70d
 4168 06fe 06       		.byte	0x6
 4169 06ff 16       		.uleb128 0x16
 4170 0700 C0060000 		.4byte	.LASF103
 4171 0704 08       		.byte	0x8
 4172 0705 4001     		.2byte	0x140
 4173 0707 53000000 		.4byte	0x53
 4174 070b 0C       		.byte	0xc
 4175 070c 00       		.byte	0
 4176 070d 07       		.uleb128 0x7
 4177 070e 53000000 		.4byte	0x53
 4178 0712 1D070000 		.4byte	0x71d
 4179 0716 08       		.uleb128 0x8
 4180 0717 E1000000 		.4byte	0xe1
 4181 071b 02       		.byte	0x2
 4182 071c 00       		.byte	0
 4183 071d 1A       		.uleb128 0x1a
 4184 071e D0       		.byte	0xd0
 4185 071f 08       		.byte	0x8
 4186 0720 5802     		.2byte	0x258
 4187 0722 1E080000 		.4byte	0x81e
 4188 0726 16       		.uleb128 0x16
 4189 0727 FF060000 		.4byte	.LASF104
 4190 072b 08       		.byte	0x8
 4191 072c 5A02     		.2byte	0x25a
 4192 072e 37000000 		.4byte	0x37
 4193 0732 00       		.byte	0
 4194 0733 16       		.uleb128 0x16
 4195 0734 90060000 		.4byte	.LASF105
 4196 0738 08       		.byte	0x8
 4197 0739 5B02     		.2byte	0x25b
 4198 073b EB050000 		.4byte	0x5eb
 4199 073f 04       		.byte	0x4
 4200 0740 16       		.uleb128 0x16
 4201 0741 1A030000 		.4byte	.LASF106
 4202 0745 08       		.byte	0x8
 4203 0746 5C02     		.2byte	0x25c
 4204 0748 1E080000 		.4byte	0x81e
 4205 074c 08       		.byte	0x8
 4206 074d 16       		.uleb128 0x16
 4207 074e 87070000 		.4byte	.LASF107
 4208 0752 08       		.byte	0x8
 4209 0753 5D02     		.2byte	0x25d
 4210 0755 1C020000 		.4byte	0x21c
 4211 0759 24       		.byte	0x24
 4212 075a 16       		.uleb128 0x16
ARM GAS  C:\Users\jo\AppData\Local\Temp\ccBWvOPb.s 			page 78


 4213 075b 2C020000 		.4byte	.LASF108
 4214 075f 08       		.byte	0x8
 4215 0760 5E02     		.2byte	0x25e
 4216 0762 25000000 		.4byte	0x25
 4217 0766 48       		.byte	0x48
 4218 0767 16       		.uleb128 0x16
 4219 0768 C3050000 		.4byte	.LASF109
 4220 076c 08       		.byte	0x8
 4221 076d 5F02     		.2byte	0x25f
 4222 076f 7A000000 		.4byte	0x7a
 4223 0773 50       		.byte	0x50
 4224 0774 16       		.uleb128 0x16
 4225 0775 9D070000 		.4byte	.LASF110
 4226 0779 08       		.byte	0x8
 4227 077a 6002     		.2byte	0x260
 4228 077c D8060000 		.4byte	0x6d8
 4229 0780 58       		.byte	0x58
 4230 0781 16       		.uleb128 0x16
 4231 0782 CE050000 		.4byte	.LASF111
 4232 0786 08       		.byte	0x8
 4233 0787 6102     		.2byte	0x261
 4234 0789 90010000 		.4byte	0x190
 4235 078d 68       		.byte	0x68
 4236 078e 16       		.uleb128 0x16
 4237 078f AD070000 		.4byte	.LASF112
 4238 0793 08       		.byte	0x8
 4239 0794 6202     		.2byte	0x262
 4240 0796 90010000 		.4byte	0x190
 4241 079a 70       		.byte	0x70
 4242 079b 16       		.uleb128 0x16
 4243 079c AE000000 		.4byte	.LASF113
 4244 07a0 08       		.byte	0x8
 4245 07a1 6302     		.2byte	0x263
 4246 07a3 90010000 		.4byte	0x190
 4247 07a7 78       		.byte	0x78
 4248 07a8 16       		.uleb128 0x16
 4249 07a9 48070000 		.4byte	.LASF114
 4250 07ad 08       		.byte	0x8
 4251 07ae 6402     		.2byte	0x264
 4252 07b0 2E080000 		.4byte	0x82e
 4253 07b4 80       		.byte	0x80
 4254 07b5 16       		.uleb128 0x16
 4255 07b6 0E030000 		.4byte	.LASF115
 4256 07ba 08       		.byte	0x8
 4257 07bb 6502     		.2byte	0x265
 4258 07bd 3E080000 		.4byte	0x83e
 4259 07c1 88       		.byte	0x88
 4260 07c2 16       		.uleb128 0x16
 4261 07c3 CD060000 		.4byte	.LASF116
 4262 07c7 08       		.byte	0x8
 4263 07c8 6602     		.2byte	0x266
 4264 07ca 25000000 		.4byte	0x25
 4265 07ce A0       		.byte	0xa0
 4266 07cf 16       		.uleb128 0x16
 4267 07d0 D0010000 		.4byte	.LASF117
 4268 07d4 08       		.byte	0x8
 4269 07d5 6702     		.2byte	0x267
ARM GAS  C:\Users\jo\AppData\Local\Temp\ccBWvOPb.s 			page 79


 4270 07d7 90010000 		.4byte	0x190
 4271 07db A4       		.byte	0xa4
 4272 07dc 16       		.uleb128 0x16
 4273 07dd 9F000000 		.4byte	.LASF118
 4274 07e1 08       		.byte	0x8
 4275 07e2 6802     		.2byte	0x268
 4276 07e4 90010000 		.4byte	0x190
 4277 07e8 AC       		.byte	0xac
 4278 07e9 16       		.uleb128 0x16
 4279 07ea BF010000 		.4byte	.LASF119
 4280 07ee 08       		.byte	0x8
 4281 07ef 6902     		.2byte	0x269
 4282 07f1 90010000 		.4byte	0x190
 4283 07f5 B4       		.byte	0xb4
 4284 07f6 16       		.uleb128 0x16
 4285 07f7 4F000000 		.4byte	.LASF120
 4286 07fb 08       		.byte	0x8
 4287 07fc 6A02     		.2byte	0x26a
 4288 07fe 90010000 		.4byte	0x190
 4289 0802 BC       		.byte	0xbc
 4290 0803 16       		.uleb128 0x16
 4291 0804 5E000000 		.4byte	.LASF121
 4292 0808 08       		.byte	0x8
 4293 0809 6B02     		.2byte	0x26b
 4294 080b 90010000 		.4byte	0x190
 4295 080f C4       		.byte	0xc4
 4296 0810 16       		.uleb128 0x16
 4297 0811 76050000 		.4byte	.LASF122
 4298 0815 08       		.byte	0x8
 4299 0816 6C02     		.2byte	0x26c
 4300 0818 25000000 		.4byte	0x25
 4301 081c CC       		.byte	0xcc
 4302 081d 00       		.byte	0
 4303 081e 07       		.uleb128 0x7
 4304 081f F1050000 		.4byte	0x5f1
 4305 0823 2E080000 		.4byte	0x82e
 4306 0827 08       		.uleb128 0x8
 4307 0828 E1000000 		.4byte	0xe1
 4308 082c 19       		.byte	0x19
 4309 082d 00       		.byte	0
 4310 082e 07       		.uleb128 0x7
 4311 082f F1050000 		.4byte	0x5f1
 4312 0833 3E080000 		.4byte	0x83e
 4313 0837 08       		.uleb128 0x8
 4314 0838 E1000000 		.4byte	0xe1
 4315 083c 07       		.byte	0x7
 4316 083d 00       		.byte	0
 4317 083e 07       		.uleb128 0x7
 4318 083f F1050000 		.4byte	0x5f1
 4319 0843 4E080000 		.4byte	0x84e
 4320 0847 08       		.uleb128 0x8
 4321 0848 E1000000 		.4byte	0xe1
 4322 084c 17       		.byte	0x17
 4323 084d 00       		.byte	0
 4324 084e 1A       		.uleb128 0x1a
 4325 084f F0       		.byte	0xf0
 4326 0850 08       		.byte	0x8
ARM GAS  C:\Users\jo\AppData\Local\Temp\ccBWvOPb.s 			page 80


 4327 0851 7102     		.2byte	0x271
 4328 0853 72080000 		.4byte	0x872
 4329 0857 16       		.uleb128 0x16
 4330 0858 B0040000 		.4byte	.LASF123
 4331 085c 08       		.byte	0x8
 4332 085d 7402     		.2byte	0x274
 4333 085f 72080000 		.4byte	0x872
 4334 0863 00       		.byte	0
 4335 0864 16       		.uleb128 0x16
 4336 0865 3F070000 		.4byte	.LASF124
 4337 0869 08       		.byte	0x8
 4338 086a 7502     		.2byte	0x275
 4339 086c 82080000 		.4byte	0x882
 4340 0870 78       		.byte	0x78
 4341 0871 00       		.byte	0
 4342 0872 07       		.uleb128 0x7
 4343 0873 65030000 		.4byte	0x365
 4344 0877 82080000 		.4byte	0x882
 4345 087b 08       		.uleb128 0x8
 4346 087c E1000000 		.4byte	0xe1
 4347 0880 1D       		.byte	0x1d
 4348 0881 00       		.byte	0
 4349 0882 07       		.uleb128 0x7
 4350 0883 37000000 		.4byte	0x37
 4351 0887 92080000 		.4byte	0x892
 4352 088b 08       		.uleb128 0x8
 4353 088c E1000000 		.4byte	0xe1
 4354 0890 1D       		.byte	0x1d
 4355 0891 00       		.byte	0
 4356 0892 1B       		.uleb128 0x1b
 4357 0893 F0       		.byte	0xf0
 4358 0894 08       		.byte	0x8
 4359 0895 5602     		.2byte	0x256
 4360 0897 B4080000 		.4byte	0x8b4
 4361 089b 1C       		.uleb128 0x1c
 4362 089c 1F060000 		.4byte	.LASF73
 4363 08a0 08       		.byte	0x8
 4364 08a1 6D02     		.2byte	0x26d
 4365 08a3 1D070000 		.4byte	0x71d
 4366 08a7 1C       		.uleb128 0x1c
 4367 08a8 74070000 		.4byte	.LASF125
 4368 08ac 08       		.byte	0x8
 4369 08ad 7602     		.2byte	0x276
 4370 08af 4E080000 		.4byte	0x84e
 4371 08b3 00       		.byte	0
 4372 08b4 07       		.uleb128 0x7
 4373 08b5 F1050000 		.4byte	0x5f1
 4374 08b9 C4080000 		.4byte	0x8c4
 4375 08bd 08       		.uleb128 0x8
 4376 08be E1000000 		.4byte	0xe1
 4377 08c2 18       		.byte	0x18
 4378 08c3 00       		.byte	0
 4379 08c4 1D       		.uleb128 0x1d
 4380 08c5 CF080000 		.4byte	0x8cf
 4381 08c9 14       		.uleb128 0x14
 4382 08ca B3040000 		.4byte	0x4b3
 4383 08ce 00       		.byte	0
ARM GAS  C:\Users\jo\AppData\Local\Temp\ccBWvOPb.s 			page 81


 4384 08cf 0F       		.uleb128 0xf
 4385 08d0 04       		.byte	0x4
 4386 08d1 C4080000 		.4byte	0x8c4
 4387 08d5 0F       		.uleb128 0xf
 4388 08d6 04       		.byte	0x4
 4389 08d7 06020000 		.4byte	0x206
 4390 08db 1D       		.uleb128 0x1d
 4391 08dc E6080000 		.4byte	0x8e6
 4392 08e0 14       		.uleb128 0x14
 4393 08e1 25000000 		.4byte	0x25
 4394 08e5 00       		.byte	0
 4395 08e6 0F       		.uleb128 0xf
 4396 08e7 04       		.byte	0x4
 4397 08e8 EC080000 		.4byte	0x8ec
 4398 08ec 0F       		.uleb128 0xf
 4399 08ed 04       		.byte	0x4
 4400 08ee DB080000 		.4byte	0x8db
 4401 08f2 07       		.uleb128 0x7
 4402 08f3 8B060000 		.4byte	0x68b
 4403 08f7 02090000 		.4byte	0x902
 4404 08fb 08       		.uleb128 0x8
 4405 08fc E1000000 		.4byte	0xe1
 4406 0900 02       		.byte	0x2
 4407 0901 00       		.byte	0
 4408 0902 03       		.uleb128 0x3
 4409 0903 0B060000 		.4byte	.LASF126
 4410 0907 09       		.byte	0x9
 4411 0908 34       		.byte	0x34
 4412 0909 8B060000 		.4byte	0x68b
 4413 090d 0F       		.uleb128 0xf
 4414 090e 04       		.byte	0x4
 4415 090f 13090000 		.4byte	0x913
 4416 0913 1E       		.uleb128 0x1e
 4417 0914 1F       		.uleb128 0x1f
 4418 0915 3B020000 		.4byte	.LASF176
 4419 0919 01       		.byte	0x1
 4420 091a 36       		.byte	0x36
 4421 091b 01       		.byte	0x1
 4422 091c 3C090000 		.4byte	0x93c
 4423 0920 20       		.uleb128 0x20
 4424 0921 7600     		.ascii	"v\000"
 4425 0923 01       		.byte	0x1
 4426 0924 36       		.byte	0x36
 4427 0925 A6010000 		.4byte	0x1a6
 4428 0929 20       		.uleb128 0x20
 4429 092a 6E00     		.ascii	"n\000"
 4430 092c 01       		.byte	0x1
 4431 092d 36       		.byte	0x36
 4432 092e 2C000000 		.4byte	0x2c
 4433 0932 21       		.uleb128 0x21
 4434 0933 7000     		.ascii	"p\000"
 4435 0935 01       		.byte	0x1
 4436 0936 37       		.byte	0x37
 4437 0937 3C090000 		.4byte	0x93c
 4438 093b 00       		.byte	0
 4439 093c 0F       		.uleb128 0xf
 4440 093d 04       		.byte	0x4
ARM GAS  C:\Users\jo\AppData\Local\Temp\ccBWvOPb.s 			page 82


 4441 093e 42090000 		.4byte	0x942
 4442 0942 22       		.uleb128 0x22
 4443 0943 45000000 		.4byte	0x45
 4444 0947 23       		.uleb128 0x23
 4445 0948 C2020000 		.4byte	.LASF131
 4446 094c 01       		.byte	0x1
 4447 094d EC       		.byte	0xec
 4448 094e 01       		.byte	0x1
 4449 094f 8B090000 		.4byte	0x98b
 4450 0953 20       		.uleb128 0x20
 4451 0954 63747800 		.ascii	"ctx\000"
 4452 0958 01       		.byte	0x1
 4453 0959 EC       		.byte	0xec
 4454 095a 8B090000 		.4byte	0x98b
 4455 095e 24       		.uleb128 0x24
 4456 095f FB050000 		.4byte	.LASF127
 4457 0963 01       		.byte	0x1
 4458 0964 EC       		.byte	0xec
 4459 0965 91090000 		.4byte	0x991
 4460 0969 24       		.uleb128 0x24
 4461 096a 3A070000 		.4byte	.LASF128
 4462 096e 01       		.byte	0x1
 4463 096f EC       		.byte	0xec
 4464 0970 2C000000 		.4byte	0x2c
 4465 0974 25       		.uleb128 0x25
 4466 0975 5E050000 		.4byte	.LASF129
 4467 0979 01       		.byte	0x1
 4468 097a EE       		.byte	0xee
 4469 097b 2C000000 		.4byte	0x2c
 4470 097f 25       		.uleb128 0x25
 4471 0980 CA070000 		.4byte	.LASF130
 4472 0984 01       		.byte	0x1
 4473 0985 EF       		.byte	0xef
 4474 0986 81000000 		.4byte	0x81
 4475 098a 00       		.byte	0
 4476 098b 0F       		.uleb128 0xf
 4477 098c 04       		.byte	0x4
 4478 098d 08010000 		.4byte	0x108
 4479 0991 0F       		.uleb128 0xf
 4480 0992 04       		.byte	0x4
 4481 0993 97090000 		.4byte	0x997
 4482 0997 18       		.uleb128 0x18
 4483 0998 45000000 		.4byte	0x45
 4484 099c 23       		.uleb128 0x23
 4485 099d 5C070000 		.4byte	.LASF132
 4486 09a1 01       		.byte	0x1
 4487 09a2 53       		.byte	0x53
 4488 09a3 01       		.byte	0x1
 4489 09a4 B4090000 		.4byte	0x9b4
 4490 09a8 20       		.uleb128 0x20
 4491 09a9 63747800 		.ascii	"ctx\000"
 4492 09ad 01       		.byte	0x1
 4493 09ae 53       		.byte	0x53
 4494 09af 8B090000 		.4byte	0x98b
 4495 09b3 00       		.byte	0
 4496 09b4 23       		.uleb128 0x23
 4497 09b5 41050000 		.4byte	.LASF133
ARM GAS  C:\Users\jo\AppData\Local\Temp\ccBWvOPb.s 			page 83


 4498 09b9 01       		.byte	0x1
 4499 09ba 63       		.byte	0x63
 4500 09bb 01       		.byte	0x1
 4501 09bc CC090000 		.4byte	0x9cc
 4502 09c0 20       		.uleb128 0x20
 4503 09c1 63747800 		.ascii	"ctx\000"
 4504 09c5 01       		.byte	0x1
 4505 09c6 63       		.byte	0x63
 4506 09c7 8B090000 		.4byte	0x98b
 4507 09cb 00       		.byte	0
 4508 09cc 23       		.uleb128 0x23
 4509 09cd 65070000 		.4byte	.LASF134
 4510 09d1 01       		.byte	0x1
 4511 09d2 58       		.byte	0x58
 4512 09d3 01       		.byte	0x1
 4513 09d4 E4090000 		.4byte	0x9e4
 4514 09d8 20       		.uleb128 0x20
 4515 09d9 63747800 		.ascii	"ctx\000"
 4516 09dd 01       		.byte	0x1
 4517 09de 58       		.byte	0x58
 4518 09df 8B090000 		.4byte	0x98b
 4519 09e3 00       		.byte	0
 4520 09e4 26       		.uleb128 0x26
 4521 09e5 4C020000 		.4byte	.LASF135
 4522 09e9 01       		.byte	0x1
 4523 09ea 8B01     		.2byte	0x18b
 4524 09ec 01       		.byte	0x1
 4525 09ed 160A0000 		.4byte	0xa16
 4526 09f1 27       		.uleb128 0x27
 4527 09f2 63747800 		.ascii	"ctx\000"
 4528 09f6 01       		.byte	0x1
 4529 09f7 8B01     		.2byte	0x18b
 4530 09f9 8B090000 		.4byte	0x98b
 4531 09fd 28       		.uleb128 0x28
 4532 09fe FB050000 		.4byte	.LASF127
 4533 0a02 01       		.byte	0x1
 4534 0a03 8B01     		.2byte	0x18b
 4535 0a05 91090000 		.4byte	0x991
 4536 0a09 28       		.uleb128 0x28
 4537 0a0a 3A070000 		.4byte	.LASF128
 4538 0a0e 01       		.byte	0x1
 4539 0a0f 8C01     		.2byte	0x18c
 4540 0a11 2C000000 		.4byte	0x2c
 4541 0a15 00       		.byte	0
 4542 0a16 29       		.uleb128 0x29
 4543 0a17 9C090000 		.4byte	0x99c
 4544 0a1b 00000000 		.4byte	.LFB1
 4545 0a1f 08000000 		.4byte	.LFE1-.LFB1
 4546 0a23 01       		.uleb128 0x1
 4547 0a24 9C       		.byte	0x9c
 4548 0a25 4F0A0000 		.4byte	0xa4f
 4549 0a29 2A       		.uleb128 0x2a
 4550 0a2a A8090000 		.4byte	0x9a8
 4551 0a2e 00000000 		.4byte	.LLST0
 4552 0a32 2B       		.uleb128 0x2b
 4553 0a33 08000000 		.4byte	.LVL1
 4554 0a37 B11A0000 		.4byte	0x1ab1
ARM GAS  C:\Users\jo\AppData\Local\Temp\ccBWvOPb.s 			page 84


 4555 0a3b 2C       		.uleb128 0x2c
 4556 0a3c 01       		.uleb128 0x1
 4557 0a3d 52       		.byte	0x52
 4558 0a3e 02       		.uleb128 0x2
 4559 0a3f 08       		.byte	0x8
 4560 0a40 D8       		.byte	0xd8
 4561 0a41 2C       		.uleb128 0x2c
 4562 0a42 01       		.uleb128 0x1
 4563 0a43 51       		.byte	0x51
 4564 0a44 01       		.uleb128 0x1
 4565 0a45 30       		.byte	0x30
 4566 0a46 2C       		.uleb128 0x2c
 4567 0a47 01       		.uleb128 0x1
 4568 0a48 50       		.byte	0x50
 4569 0a49 03       		.uleb128 0x3
 4570 0a4a F3       		.byte	0xf3
 4571 0a4b 01       		.uleb128 0x1
 4572 0a4c 50       		.byte	0x50
 4573 0a4d 00       		.byte	0
 4574 0a4e 00       		.byte	0
 4575 0a4f 29       		.uleb128 0x29
 4576 0a50 CC090000 		.4byte	0x9cc
 4577 0a54 00000000 		.4byte	.LFB2
 4578 0a58 12000000 		.4byte	.LFE2-.LFB2
 4579 0a5c 01       		.uleb128 0x1
 4580 0a5d 9C       		.byte	0x9c
 4581 0a5e 9D0A0000 		.4byte	0xa9d
 4582 0a62 2A       		.uleb128 0x2a
 4583 0a63 D8090000 		.4byte	0x9d8
 4584 0a67 21000000 		.4byte	.LLST1
 4585 0a6b 2D       		.uleb128 0x2d
 4586 0a6c 14090000 		.4byte	0x914
 4587 0a70 06000000 		.4byte	.LBB62
 4588 0a74 0C000000 		.4byte	.LBE62-.LBB62
 4589 0a78 01       		.byte	0x1
 4590 0a79 5D       		.byte	0x5d
 4591 0a7a 2A       		.uleb128 0x2a
 4592 0a7b 29090000 		.4byte	0x929
 4593 0a7f 50000000 		.4byte	.LLST2
 4594 0a83 2E       		.uleb128 0x2e
 4595 0a84 20090000 		.4byte	0x920
 4596 0a88 2F       		.uleb128 0x2f
 4597 0a89 06000000 		.4byte	.LBB63
 4598 0a8d 0C000000 		.4byte	.LBE63-.LBB63
 4599 0a91 30       		.uleb128 0x30
 4600 0a92 32090000 		.4byte	0x932
 4601 0a96 65000000 		.4byte	.LLST3
 4602 0a9a 00       		.byte	0
 4603 0a9b 00       		.byte	0
 4604 0a9c 00       		.byte	0
 4605 0a9d 29       		.uleb128 0x29
 4606 0a9e B4090000 		.4byte	0x9b4
 4607 0aa2 00000000 		.4byte	.LFB3
 4608 0aa6 30000000 		.4byte	.LFE3-.LFB3
 4609 0aaa 01       		.uleb128 0x1
 4610 0aab 9C       		.byte	0x9c
 4611 0aac B80A0000 		.4byte	0xab8
ARM GAS  C:\Users\jo\AppData\Local\Temp\ccBWvOPb.s 			page 85


 4612 0ab0 31       		.uleb128 0x31
 4613 0ab1 C0090000 		.4byte	0x9c0
 4614 0ab5 01       		.uleb128 0x1
 4615 0ab6 50       		.byte	0x50
 4616 0ab7 00       		.byte	0
 4617 0ab8 32       		.uleb128 0x32
 4618 0ab9 3E000000 		.4byte	.LASF137
 4619 0abd 01       		.byte	0x1
 4620 0abe 6E       		.byte	0x6e
 4621 0abf 00000000 		.4byte	.LFB4
 4622 0ac3 74090000 		.4byte	.LFE4-.LFB4
 4623 0ac7 01       		.uleb128 0x1
 4624 0ac8 9C       		.byte	0x9c
 4625 0ac9 2D0B0000 		.4byte	0xb2d
 4626 0acd 33       		.uleb128 0x33
 4627 0ace 63747800 		.ascii	"ctx\000"
 4628 0ad2 01       		.byte	0x1
 4629 0ad3 6E       		.byte	0x6e
 4630 0ad4 8B090000 		.4byte	0x98b
 4631 0ad8 85000000 		.4byte	.LLST4
 4632 0adc 34       		.uleb128 0x34
 4633 0add E6020000 		.4byte	.LASF136
 4634 0ae1 01       		.byte	0x1
 4635 0ae2 6E       		.byte	0x6e
 4636 0ae3 91090000 		.4byte	0x991
 4637 0ae7 B1000000 		.4byte	.LLST5
 4638 0aeb 35       		.uleb128 0x35
 4639 0aec 5800     		.ascii	"X\000"
 4640 0aee 01       		.byte	0x1
 4641 0aef 70       		.byte	0x70
 4642 0af0 2D0B0000 		.4byte	0xb2d
 4643 0af4 D2000000 		.4byte	.LLST6
 4644 0af8 35       		.uleb128 0x35
 4645 0af9 4100     		.ascii	"A\000"
 4646 0afb 01       		.byte	0x1
 4647 0afc 70       		.byte	0x70
 4648 0afd 81000000 		.4byte	0x81
 4649 0b01 68010000 		.4byte	.LLST7
 4650 0b05 35       		.uleb128 0x35
 4651 0b06 4200     		.ascii	"B\000"
 4652 0b08 01       		.byte	0x1
 4653 0b09 70       		.byte	0x70
 4654 0b0a 81000000 		.4byte	0x81
 4655 0b0e 2D030000 		.4byte	.LLST8
 4656 0b12 35       		.uleb128 0x35
 4657 0b13 4300     		.ascii	"C\000"
 4658 0b15 01       		.byte	0x1
 4659 0b16 70       		.byte	0x70
 4660 0b17 81000000 		.4byte	0x81
 4661 0b1b 07050000 		.4byte	.LLST9
 4662 0b1f 35       		.uleb128 0x35
 4663 0b20 4400     		.ascii	"D\000"
 4664 0b22 01       		.byte	0x1
 4665 0b23 70       		.byte	0x70
 4666 0b24 81000000 		.4byte	0x81
 4667 0b28 D7060000 		.4byte	.LLST10
 4668 0b2c 00       		.byte	0
ARM GAS  C:\Users\jo\AppData\Local\Temp\ccBWvOPb.s 			page 86


 4669 0b2d 07       		.uleb128 0x7
 4670 0b2e 81000000 		.4byte	0x81
 4671 0b32 3D0B0000 		.4byte	0xb3d
 4672 0b36 08       		.uleb128 0x8
 4673 0b37 E1000000 		.4byte	0xe1
 4674 0b3b 0F       		.byte	0xf
 4675 0b3c 00       		.byte	0
 4676 0b3d 29       		.uleb128 0x29
 4677 0b3e 47090000 		.4byte	0x947
 4678 0b42 00000000 		.4byte	.LFB15
 4679 0b46 92000000 		.4byte	.LFE15-.LFB15
 4680 0b4a 01       		.uleb128 0x1
 4681 0b4b 9C       		.byte	0x9c
 4682 0b4c E00B0000 		.4byte	0xbe0
 4683 0b50 2A       		.uleb128 0x2a
 4684 0b51 53090000 		.4byte	0x953
 4685 0b55 A7080000 		.4byte	.LLST11
 4686 0b59 2A       		.uleb128 0x2a
 4687 0b5a 5E090000 		.4byte	0x95e
 4688 0b5e D3080000 		.4byte	.LLST12
 4689 0b62 2A       		.uleb128 0x2a
 4690 0b63 69090000 		.4byte	0x969
 4691 0b67 12090000 		.4byte	.LLST13
 4692 0b6b 30       		.uleb128 0x30
 4693 0b6c 74090000 		.4byte	0x974
 4694 0b70 83090000 		.4byte	.LLST14
 4695 0b74 30       		.uleb128 0x30
 4696 0b75 7F090000 		.4byte	0x97f
 4697 0b79 AB090000 		.4byte	.LLST15
 4698 0b7d 36       		.uleb128 0x36
 4699 0b7e 40000000 		.4byte	.LVL181
 4700 0b82 CE1A0000 		.4byte	0x1ace
 4701 0b86 A20B0000 		.4byte	0xba2
 4702 0b8a 2C       		.uleb128 0x2c
 4703 0b8b 01       		.uleb128 0x1
 4704 0b8c 52       		.byte	0x52
 4705 0b8d 02       		.uleb128 0x2
 4706 0b8e 74       		.byte	0x74
 4707 0b8f 00       		.sleb128 0
 4708 0b90 2C       		.uleb128 0x2c
 4709 0b91 01       		.uleb128 0x1
 4710 0b92 51       		.byte	0x51
 4711 0b93 02       		.uleb128 0x2
 4712 0b94 79       		.byte	0x79
 4713 0b95 00       		.sleb128 0
 4714 0b96 2C       		.uleb128 0x2c
 4715 0b97 01       		.uleb128 0x1
 4716 0b98 50       		.byte	0x50
 4717 0b99 07       		.uleb128 0x7
 4718 0b9a 76       		.byte	0x76
 4719 0b9b 00       		.sleb128 0
 4720 0b9c 78       		.byte	0x78
 4721 0b9d 00       		.sleb128 0
 4722 0b9e 22       		.byte	0x22
 4723 0b9f 23       		.byte	0x23
 4724 0ba0 18       		.uleb128 0x18
 4725 0ba1 00       		.byte	0
ARM GAS  C:\Users\jo\AppData\Local\Temp\ccBWvOPb.s 			page 87


 4726 0ba2 36       		.uleb128 0x36
 4727 0ba3 4A000000 		.4byte	.LVL182
 4728 0ba7 B80A0000 		.4byte	0xab8
 4729 0bab BC0B0000 		.4byte	0xbbc
 4730 0baf 2C       		.uleb128 0x2c
 4731 0bb0 01       		.uleb128 0x1
 4732 0bb1 51       		.byte	0x51
 4733 0bb2 02       		.uleb128 0x2
 4734 0bb3 76       		.byte	0x76
 4735 0bb4 18       		.sleb128 24
 4736 0bb5 2C       		.uleb128 0x2c
 4737 0bb6 01       		.uleb128 0x1
 4738 0bb7 50       		.byte	0x50
 4739 0bb8 02       		.uleb128 0x2
 4740 0bb9 76       		.byte	0x76
 4741 0bba 00       		.sleb128 0
 4742 0bbb 00       		.byte	0
 4743 0bbc 36       		.uleb128 0x36
 4744 0bbd 64000000 		.4byte	.LVL188
 4745 0bc1 B80A0000 		.4byte	0xab8
 4746 0bc5 D60B0000 		.4byte	0xbd6
 4747 0bc9 2C       		.uleb128 0x2c
 4748 0bca 01       		.uleb128 0x1
 4749 0bcb 51       		.byte	0x51
 4750 0bcc 02       		.uleb128 0x2
 4751 0bcd 74       		.byte	0x74
 4752 0bce 00       		.sleb128 0
 4753 0bcf 2C       		.uleb128 0x2c
 4754 0bd0 01       		.uleb128 0x1
 4755 0bd1 50       		.byte	0x50
 4756 0bd2 02       		.uleb128 0x2
 4757 0bd3 76       		.byte	0x76
 4758 0bd4 00       		.sleb128 0
 4759 0bd5 00       		.byte	0
 4760 0bd6 37       		.uleb128 0x37
 4761 0bd7 92000000 		.4byte	.LVL192
 4762 0bdb CE1A0000 		.4byte	0x1ace
 4763 0bdf 00       		.byte	0
 4764 0be0 29       		.uleb128 0x29
 4765 0be1 47090000 		.4byte	0x947
 4766 0be5 00000000 		.4byte	.LFB5
 4767 0be9 08000000 		.4byte	.LFE5-.LFB5
 4768 0bed 01       		.uleb128 0x1
 4769 0bee 9C       		.byte	0x9c
 4770 0bef 380C0000 		.4byte	0xc38
 4771 0bf3 2A       		.uleb128 0x2a
 4772 0bf4 53090000 		.4byte	0x953
 4773 0bf8 E0090000 		.4byte	.LLST16
 4774 0bfc 2A       		.uleb128 0x2a
 4775 0bfd 5E090000 		.4byte	0x95e
 4776 0c01 0C0A0000 		.4byte	.LLST17
 4777 0c05 2A       		.uleb128 0x2a
 4778 0c06 69090000 		.4byte	0x969
 4779 0c0a 380A0000 		.4byte	.LLST18
 4780 0c0e 38       		.uleb128 0x38
 4781 0c0f 74090000 		.4byte	0x974
 4782 0c13 38       		.uleb128 0x38
ARM GAS  C:\Users\jo\AppData\Local\Temp\ccBWvOPb.s 			page 88


 4783 0c14 7F090000 		.4byte	0x97f
 4784 0c18 2B       		.uleb128 0x2b
 4785 0c19 06000000 		.4byte	.LVL194
 4786 0c1d 3D0B0000 		.4byte	0xb3d
 4787 0c21 2C       		.uleb128 0x2c
 4788 0c22 01       		.uleb128 0x1
 4789 0c23 52       		.byte	0x52
 4790 0c24 03       		.uleb128 0x3
 4791 0c25 F3       		.byte	0xf3
 4792 0c26 01       		.uleb128 0x1
 4793 0c27 52       		.byte	0x52
 4794 0c28 2C       		.uleb128 0x2c
 4795 0c29 01       		.uleb128 0x1
 4796 0c2a 51       		.byte	0x51
 4797 0c2b 03       		.uleb128 0x3
 4798 0c2c F3       		.byte	0xf3
 4799 0c2d 01       		.uleb128 0x1
 4800 0c2e 51       		.byte	0x51
 4801 0c2f 2C       		.uleb128 0x2c
 4802 0c30 01       		.uleb128 0x1
 4803 0c31 50       		.byte	0x50
 4804 0c32 03       		.uleb128 0x3
 4805 0c33 F3       		.byte	0xf3
 4806 0c34 01       		.uleb128 0x1
 4807 0c35 50       		.byte	0x50
 4808 0c36 00       		.byte	0
 4809 0c37 00       		.byte	0
 4810 0c38 39       		.uleb128 0x39
 4811 0c39 A2070000 		.4byte	.LASF138
 4812 0c3d 01       		.byte	0x1
 4813 0c3e 1E01     		.2byte	0x11e
 4814 0c40 00000000 		.4byte	.LFB6
 4815 0c44 C0000000 		.4byte	.LFE6-.LFB6
 4816 0c48 01       		.uleb128 0x1
 4817 0c49 9C       		.byte	0x9c
 4818 0c4a 720D0000 		.4byte	0xd72
 4819 0c4e 3A       		.uleb128 0x3a
 4820 0c4f 63747800 		.ascii	"ctx\000"
 4821 0c53 01       		.byte	0x1
 4822 0c54 1E01     		.2byte	0x11e
 4823 0c56 8B090000 		.4byte	0x98b
 4824 0c5a 640A0000 		.4byte	.LLST19
 4825 0c5e 3B       		.uleb128 0x3b
 4826 0c5f 8B040000 		.4byte	.LASF139
 4827 0c63 01       		.byte	0x1
 4828 0c64 1E01     		.2byte	0x11e
 4829 0c66 65030000 		.4byte	0x365
 4830 0c6a 900A0000 		.4byte	.LLST20
 4831 0c6e 3C       		.uleb128 0x3c
 4832 0c6f 27030000 		.4byte	.LASF140
 4833 0c73 01       		.byte	0x1
 4834 0c74 2001     		.2byte	0x120
 4835 0c76 81000000 		.4byte	0x81
 4836 0c7a BC0A0000 		.4byte	.LLST21
 4837 0c7e 3C       		.uleb128 0x3c
 4838 0c7f CF070000 		.4byte	.LASF141
 4839 0c83 01       		.byte	0x1
ARM GAS  C:\Users\jo\AppData\Local\Temp\ccBWvOPb.s 			page 89


 4840 0c84 2001     		.2byte	0x120
 4841 0c86 81000000 		.4byte	0x81
 4842 0c8a E00A0000 		.4byte	.LLST22
 4843 0c8e 3C       		.uleb128 0x3c
 4844 0c8f AB040000 		.4byte	.LASF142
 4845 0c93 01       		.byte	0x1
 4846 0c94 2101     		.2byte	0x121
 4847 0c96 81000000 		.4byte	0x81
 4848 0c9a F30A0000 		.4byte	.LLST23
 4849 0c9e 3D       		.uleb128 0x3d
 4850 0c9f 6C6F7700 		.ascii	"low\000"
 4851 0ca3 01       		.byte	0x1
 4852 0ca4 2101     		.2byte	0x121
 4853 0ca6 81000000 		.4byte	0x81
 4854 0caa 060B0000 		.4byte	.LLST24
 4855 0cae 3E       		.uleb128 0x3e
 4856 0caf 09050000 		.4byte	.LASF143
 4857 0cb3 01       		.byte	0x1
 4858 0cb4 2201     		.2byte	0x122
 4859 0cb6 720D0000 		.4byte	0xd72
 4860 0cba 02       		.uleb128 0x2
 4861 0cbb 91       		.byte	0x91
 4862 0cbc 60       		.sleb128 -32
 4863 0cbd 3F       		.uleb128 0x3f
 4864 0cbe 47090000 		.4byte	0x947
 4865 0cc2 42000000 		.4byte	.LBB64
 4866 0cc6 00000000 		.4byte	.Ldebug_ranges0+0
 4867 0cca 01       		.byte	0x1
 4868 0ccb 2E01     		.2byte	0x12e
 4869 0ccd 190D0000 		.4byte	0xd19
 4870 0cd1 2A       		.uleb128 0x2a
 4871 0cd2 69090000 		.4byte	0x969
 4872 0cd6 E00A0000 		.4byte	.LLST22
 4873 0cda 31       		.uleb128 0x31
 4874 0cdb 5E090000 		.4byte	0x95e
 4875 0cdf 06       		.uleb128 0x6
 4876 0ce0 03       		.byte	0x3
 4877 0ce1 00000000 		.4byte	md5_padding
 4878 0ce5 9F       		.byte	0x9f
 4879 0ce6 2A       		.uleb128 0x2a
 4880 0ce7 53090000 		.4byte	0x953
 4881 0ceb 290B0000 		.4byte	.LLST26
 4882 0cef 40       		.uleb128 0x40
 4883 0cf0 00000000 		.4byte	.Ldebug_ranges0+0
 4884 0cf4 38       		.uleb128 0x38
 4885 0cf5 74090000 		.4byte	0x974
 4886 0cf9 38       		.uleb128 0x38
 4887 0cfa 7F090000 		.4byte	0x97f
 4888 0cfe 41       		.uleb128 0x41
 4889 0cff 62000000 		.4byte	.LVL204
 4890 0d03 3D0B0000 		.4byte	0xb3d
 4891 0d07 2C       		.uleb128 0x2c
 4892 0d08 01       		.uleb128 0x1
 4893 0d09 51       		.byte	0x51
 4894 0d0a 05       		.uleb128 0x5
 4895 0d0b 03       		.byte	0x3
 4896 0d0c 00000000 		.4byte	.LANCHOR0
ARM GAS  C:\Users\jo\AppData\Local\Temp\ccBWvOPb.s 			page 90


 4897 0d10 2C       		.uleb128 0x2c
 4898 0d11 01       		.uleb128 0x1
 4899 0d12 50       		.byte	0x50
 4900 0d13 02       		.uleb128 0x2
 4901 0d14 74       		.byte	0x74
 4902 0d15 00       		.sleb128 0
 4903 0d16 00       		.byte	0
 4904 0d17 00       		.byte	0
 4905 0d18 00       		.byte	0
 4906 0d19 42       		.uleb128 0x42
 4907 0d1a 47090000 		.4byte	0x947
 4908 0d1e 62000000 		.4byte	.LBB70
 4909 0d22 0A000000 		.4byte	.LBE70-.LBB70
 4910 0d26 01       		.byte	0x1
 4911 0d27 2F01     		.2byte	0x12f
 4912 0d29 43       		.uleb128 0x43
 4913 0d2a 69090000 		.4byte	0x969
 4914 0d2e 08       		.byte	0x8
 4915 0d2f 2A       		.uleb128 0x2a
 4916 0d30 5E090000 		.4byte	0x95e
 4917 0d34 4A0B0000 		.4byte	.LLST27
 4918 0d38 2A       		.uleb128 0x2a
 4919 0d39 53090000 		.4byte	0x953
 4920 0d3d 770B0000 		.4byte	.LLST28
 4921 0d41 2F       		.uleb128 0x2f
 4922 0d42 62000000 		.4byte	.LBB71
 4923 0d46 0A000000 		.4byte	.LBE71-.LBB71
 4924 0d4a 38       		.uleb128 0x38
 4925 0d4b 74090000 		.4byte	0x974
 4926 0d4f 38       		.uleb128 0x38
 4927 0d50 7F090000 		.4byte	0x97f
 4928 0d54 41       		.uleb128 0x41
 4929 0d55 6C000000 		.4byte	.LVL205
 4930 0d59 3D0B0000 		.4byte	0xb3d
 4931 0d5d 2C       		.uleb128 0x2c
 4932 0d5e 01       		.uleb128 0x1
 4933 0d5f 52       		.byte	0x52
 4934 0d60 01       		.uleb128 0x1
 4935 0d61 38       		.byte	0x38
 4936 0d62 2C       		.uleb128 0x2c
 4937 0d63 01       		.uleb128 0x1
 4938 0d64 51       		.byte	0x51
 4939 0d65 02       		.uleb128 0x2
 4940 0d66 7D       		.byte	0x7d
 4941 0d67 00       		.sleb128 0
 4942 0d68 2C       		.uleb128 0x2c
 4943 0d69 01       		.uleb128 0x1
 4944 0d6a 50       		.byte	0x50
 4945 0d6b 02       		.uleb128 0x2
 4946 0d6c 74       		.byte	0x74
 4947 0d6d 00       		.sleb128 0
 4948 0d6e 00       		.byte	0
 4949 0d6f 00       		.byte	0
 4950 0d70 00       		.byte	0
 4951 0d71 00       		.byte	0
 4952 0d72 07       		.uleb128 0x7
 4953 0d73 45000000 		.4byte	0x45
ARM GAS  C:\Users\jo\AppData\Local\Temp\ccBWvOPb.s 			page 91


 4954 0d77 820D0000 		.4byte	0xd82
 4955 0d7b 08       		.uleb128 0x8
 4956 0d7c E1000000 		.4byte	0xe1
 4957 0d80 07       		.byte	0x7
 4958 0d81 00       		.byte	0
 4959 0d82 44       		.uleb128 0x44
 4960 0d83 6D643500 		.ascii	"md5\000"
 4961 0d87 01       		.byte	0x1
 4962 0d88 3C01     		.2byte	0x13c
 4963 0d8a 00000000 		.4byte	.LFB7
 4964 0d8e 5C000000 		.4byte	.LFE7-.LFB7
 4965 0d92 01       		.uleb128 0x1
 4966 0d93 9C       		.byte	0x9c
 4967 0d94 ED0E0000 		.4byte	0xeed
 4968 0d98 3B       		.uleb128 0x3b
 4969 0d99 FB050000 		.4byte	.LASF127
 4970 0d9d 01       		.byte	0x1
 4971 0d9e 3C01     		.2byte	0x13c
 4972 0da0 91090000 		.4byte	0x991
 4973 0da4 980B0000 		.4byte	.LLST29
 4974 0da8 3B       		.uleb128 0x3b
 4975 0da9 3A070000 		.4byte	.LASF128
 4976 0dad 01       		.byte	0x1
 4977 0dae 3C01     		.2byte	0x13c
 4978 0db0 2C000000 		.4byte	0x2c
 4979 0db4 B60B0000 		.4byte	.LLST30
 4980 0db8 3B       		.uleb128 0x3b
 4981 0db9 8B040000 		.4byte	.LASF139
 4982 0dbd 01       		.byte	0x1
 4983 0dbe 3C01     		.2byte	0x13c
 4984 0dc0 65030000 		.4byte	0x365
 4985 0dc4 D40B0000 		.4byte	.LLST31
 4986 0dc8 45       		.uleb128 0x45
 4987 0dc9 63747800 		.ascii	"ctx\000"
 4988 0dcd 01       		.byte	0x1
 4989 0dce 3E01     		.2byte	0x13e
 4990 0dd0 08010000 		.4byte	0x108
 4991 0dd4 03       		.uleb128 0x3
 4992 0dd5 91       		.byte	0x91
 4993 0dd6 987E     		.sleb128 -232
 4994 0dd8 46       		.uleb128 0x46
 4995 0dd9 9C090000 		.4byte	0x99c
 4996 0ddd 0A000000 		.4byte	.LBB72
 4997 0de1 0A000000 		.4byte	.LBE72-.LBB72
 4998 0de5 01       		.byte	0x1
 4999 0de6 4001     		.2byte	0x140
 5000 0de8 110E0000 		.4byte	0xe11
 5001 0dec 2A       		.uleb128 0x2a
 5002 0ded A8090000 		.4byte	0x9a8
 5003 0df1 F20B0000 		.4byte	.LLST32
 5004 0df5 41       		.uleb128 0x41
 5005 0df6 14000000 		.4byte	.LVL213
 5006 0dfa B11A0000 		.4byte	0x1ab1
 5007 0dfe 2C       		.uleb128 0x2c
 5008 0dff 01       		.uleb128 0x1
 5009 0e00 52       		.byte	0x52
 5010 0e01 02       		.uleb128 0x2
ARM GAS  C:\Users\jo\AppData\Local\Temp\ccBWvOPb.s 			page 92


 5011 0e02 08       		.byte	0x8
 5012 0e03 D8       		.byte	0xd8
 5013 0e04 2C       		.uleb128 0x2c
 5014 0e05 01       		.uleb128 0x1
 5015 0e06 51       		.byte	0x51
 5016 0e07 01       		.uleb128 0x1
 5017 0e08 30       		.byte	0x30
 5018 0e09 2C       		.uleb128 0x2c
 5019 0e0a 01       		.uleb128 0x1
 5020 0e0b 50       		.byte	0x50
 5021 0e0c 02       		.uleb128 0x2
 5022 0e0d 7D       		.byte	0x7d
 5023 0e0e 00       		.sleb128 0
 5024 0e0f 00       		.byte	0
 5025 0e10 00       		.byte	0
 5026 0e11 46       		.uleb128 0x46
 5027 0e12 B4090000 		.4byte	0x9b4
 5028 0e16 14000000 		.4byte	.LBB74
 5029 0e1a 10000000 		.4byte	.LBE74-.LBB74
 5030 0e1e 01       		.byte	0x1
 5031 0e1f 4101     		.2byte	0x141
 5032 0e21 2F0E0000 		.4byte	0xe2f
 5033 0e25 2A       		.uleb128 0x2a
 5034 0e26 C0090000 		.4byte	0x9c0
 5035 0e2a 1E0C0000 		.4byte	.LLST33
 5036 0e2e 00       		.byte	0
 5037 0e2f 3F       		.uleb128 0x3f
 5038 0e30 47090000 		.4byte	0x947
 5039 0e34 24000000 		.4byte	.LBB76
 5040 0e38 20000000 		.4byte	.Ldebug_ranges0+0x20
 5041 0e3c 01       		.byte	0x1
 5042 0e3d 4201     		.2byte	0x142
 5043 0e3f 870E0000 		.4byte	0xe87
 5044 0e43 31       		.uleb128 0x31
 5045 0e44 69090000 		.4byte	0x969
 5046 0e48 01       		.uleb128 0x1
 5047 0e49 54       		.byte	0x54
 5048 0e4a 31       		.uleb128 0x31
 5049 0e4b 5E090000 		.4byte	0x95e
 5050 0e4f 01       		.uleb128 0x1
 5051 0e50 56       		.byte	0x56
 5052 0e51 2A       		.uleb128 0x2a
 5053 0e52 53090000 		.4byte	0x953
 5054 0e56 4A0C0000 		.4byte	.LLST34
 5055 0e5a 40       		.uleb128 0x40
 5056 0e5b 20000000 		.4byte	.Ldebug_ranges0+0x20
 5057 0e5f 38       		.uleb128 0x38
 5058 0e60 74090000 		.4byte	0x974
 5059 0e64 38       		.uleb128 0x38
 5060 0e65 7F090000 		.4byte	0x97f
 5061 0e69 41       		.uleb128 0x41
 5062 0e6a 4A000000 		.4byte	.LVL221
 5063 0e6e 3D0B0000 		.4byte	0xb3d
 5064 0e72 2C       		.uleb128 0x2c
 5065 0e73 01       		.uleb128 0x1
 5066 0e74 52       		.byte	0x52
 5067 0e75 02       		.uleb128 0x2
ARM GAS  C:\Users\jo\AppData\Local\Temp\ccBWvOPb.s 			page 93


 5068 0e76 74       		.byte	0x74
 5069 0e77 00       		.sleb128 0
 5070 0e78 2C       		.uleb128 0x2c
 5071 0e79 01       		.uleb128 0x1
 5072 0e7a 51       		.byte	0x51
 5073 0e7b 02       		.uleb128 0x2
 5074 0e7c 76       		.byte	0x76
 5075 0e7d 00       		.sleb128 0
 5076 0e7e 2C       		.uleb128 0x2c
 5077 0e7f 01       		.uleb128 0x1
 5078 0e80 50       		.byte	0x50
 5079 0e81 02       		.uleb128 0x2
 5080 0e82 7D       		.byte	0x7d
 5081 0e83 00       		.sleb128 0
 5082 0e84 00       		.byte	0
 5083 0e85 00       		.byte	0
 5084 0e86 00       		.byte	0
 5085 0e87 46       		.uleb128 0x46
 5086 0e88 CC090000 		.4byte	0x9cc
 5087 0e8c 30000000 		.4byte	.LBB79
 5088 0e90 0C000000 		.4byte	.LBE79-.LBB79
 5089 0e94 01       		.byte	0x1
 5090 0e95 4401     		.2byte	0x144
 5091 0e97 D60E0000 		.4byte	0xed6
 5092 0e9b 2A       		.uleb128 0x2a
 5093 0e9c D8090000 		.4byte	0x9d8
 5094 0ea0 760C0000 		.4byte	.LLST35
 5095 0ea4 2D       		.uleb128 0x2d
 5096 0ea5 14090000 		.4byte	0x914
 5097 0ea9 30000000 		.4byte	.LBB80
 5098 0ead 0C000000 		.4byte	.LBE80-.LBB80
 5099 0eb1 01       		.byte	0x1
 5100 0eb2 5D       		.byte	0x5d
 5101 0eb3 2A       		.uleb128 0x2a
 5102 0eb4 29090000 		.4byte	0x929
 5103 0eb8 970C0000 		.4byte	.LLST36
 5104 0ebc 2E       		.uleb128 0x2e
 5105 0ebd 20090000 		.4byte	0x920
 5106 0ec1 2F       		.uleb128 0x2f
 5107 0ec2 30000000 		.4byte	.LBB81
 5108 0ec6 0C000000 		.4byte	.LBE81-.LBB81
 5109 0eca 30       		.uleb128 0x30
 5110 0ecb 32090000 		.4byte	0x932
 5111 0ecf E20C0000 		.4byte	.LLST37
 5112 0ed3 00       		.byte	0
 5113 0ed4 00       		.byte	0
 5114 0ed5 00       		.byte	0
 5115 0ed6 41       		.uleb128 0x41
 5116 0ed7 2E000000 		.4byte	.LVL215
 5117 0edb 380C0000 		.4byte	0xc38
 5118 0edf 2C       		.uleb128 0x2c
 5119 0ee0 01       		.uleb128 0x1
 5120 0ee1 51       		.byte	0x51
 5121 0ee2 02       		.uleb128 0x2
 5122 0ee3 75       		.byte	0x75
 5123 0ee4 00       		.sleb128 0
 5124 0ee5 2C       		.uleb128 0x2c
ARM GAS  C:\Users\jo\AppData\Local\Temp\ccBWvOPb.s 			page 94


 5125 0ee6 01       		.uleb128 0x1
 5126 0ee7 50       		.byte	0x50
 5127 0ee8 02       		.uleb128 0x2
 5128 0ee9 7D       		.byte	0x7d
 5129 0eea 00       		.sleb128 0
 5130 0eeb 00       		.byte	0
 5131 0eec 00       		.byte	0
 5132 0eed 47       		.uleb128 0x47
 5133 0eee A2040000 		.4byte	.LASF151
 5134 0ef2 01       		.byte	0x1
 5135 0ef3 4B01     		.2byte	0x14b
 5136 0ef5 25000000 		.4byte	0x25
 5137 0ef9 00000000 		.4byte	.LFB8
 5138 0efd A0000000 		.4byte	.LFE8-.LFB8
 5139 0f01 01       		.uleb128 0x1
 5140 0f02 9C       		.byte	0x9c
 5141 0f03 E1100000 		.4byte	0x10e1
 5142 0f07 3B       		.uleb128 0x3b
 5143 0f08 4A000000 		.4byte	.LASF144
 5144 0f0c 01       		.byte	0x1
 5145 0f0d 4B01     		.2byte	0x14b
 5146 0f0f 1C060000 		.4byte	0x61c
 5147 0f13 0D0D0000 		.4byte	.LLST38
 5148 0f17 3B       		.uleb128 0x3b
 5149 0f18 8B040000 		.4byte	.LASF139
 5150 0f1c 01       		.byte	0x1
 5151 0f1d 4B01     		.2byte	0x14b
 5152 0f1f 65030000 		.4byte	0x365
 5153 0f23 2E0D0000 		.4byte	.LLST39
 5154 0f27 3D       		.uleb128 0x3d
 5155 0f28 6600     		.ascii	"f\000"
 5156 0f2a 01       		.byte	0x1
 5157 0f2b 4D01     		.2byte	0x14d
 5158 0f2d E1100000 		.4byte	0x10e1
 5159 0f31 4C0D0000 		.4byte	.LLST40
 5160 0f35 3D       		.uleb128 0x3d
 5161 0f36 6E00     		.ascii	"n\000"
 5162 0f38 01       		.byte	0x1
 5163 0f39 4E01     		.2byte	0x14e
 5164 0f3b 2C000000 		.4byte	0x2c
 5165 0f3f AC0D0000 		.4byte	.LLST41
 5166 0f43 45       		.uleb128 0x45
 5167 0f44 63747800 		.ascii	"ctx\000"
 5168 0f48 01       		.byte	0x1
 5169 0f49 4F01     		.2byte	0x14f
 5170 0f4b 08010000 		.4byte	0x108
 5171 0f4f 03       		.uleb128 0x3
 5172 0f50 91       		.byte	0x91
 5173 0f51 9076     		.sleb128 -1264
 5174 0f53 45       		.uleb128 0x45
 5175 0f54 62756600 		.ascii	"buf\000"
 5176 0f58 01       		.byte	0x1
 5177 0f59 5001     		.2byte	0x150
 5178 0f5b E7100000 		.4byte	0x10e7
 5179 0f5f 03       		.uleb128 0x3
 5180 0f60 91       		.byte	0x91
 5181 0f61 E877     		.sleb128 -1048
ARM GAS  C:\Users\jo\AppData\Local\Temp\ccBWvOPb.s 			page 95


 5182 0f63 46       		.uleb128 0x46
 5183 0f64 9C090000 		.4byte	0x99c
 5184 0f68 14000000 		.4byte	.LBB83
 5185 0f6c 0A000000 		.4byte	.LBE83-.LBB83
 5186 0f70 01       		.byte	0x1
 5187 0f71 5501     		.2byte	0x155
 5188 0f73 9C0F0000 		.4byte	0xf9c
 5189 0f77 2A       		.uleb128 0x2a
 5190 0f78 A8090000 		.4byte	0x9a8
 5191 0f7c 010E0000 		.4byte	.LLST42
 5192 0f80 41       		.uleb128 0x41
 5193 0f81 1E000000 		.4byte	.LVL227
 5194 0f85 B11A0000 		.4byte	0x1ab1
 5195 0f89 2C       		.uleb128 0x2c
 5196 0f8a 01       		.uleb128 0x1
 5197 0f8b 52       		.byte	0x52
 5198 0f8c 02       		.uleb128 0x2
 5199 0f8d 08       		.byte	0x8
 5200 0f8e D8       		.byte	0xd8
 5201 0f8f 2C       		.uleb128 0x2c
 5202 0f90 01       		.uleb128 0x1
 5203 0f91 51       		.byte	0x51
 5204 0f92 01       		.uleb128 0x1
 5205 0f93 30       		.byte	0x30
 5206 0f94 2C       		.uleb128 0x2c
 5207 0f95 01       		.uleb128 0x1
 5208 0f96 50       		.byte	0x50
 5209 0f97 02       		.uleb128 0x2
 5210 0f98 7D       		.byte	0x7d
 5211 0f99 00       		.sleb128 0
 5212 0f9a 00       		.byte	0
 5213 0f9b 00       		.byte	0
 5214 0f9c 46       		.uleb128 0x46
 5215 0f9d B4090000 		.4byte	0x9b4
 5216 0fa1 1E000000 		.4byte	.LBB85
 5217 0fa5 12000000 		.4byte	.LBE85-.LBB85
 5218 0fa9 01       		.byte	0x1
 5219 0faa 5601     		.2byte	0x156
 5220 0fac BA0F0000 		.4byte	0xfba
 5221 0fb0 2A       		.uleb128 0x2a
 5222 0fb1 C0090000 		.4byte	0x9c0
 5223 0fb5 1F0E0000 		.4byte	.LLST43
 5224 0fb9 00       		.byte	0
 5225 0fba 3F       		.uleb128 0x3f
 5226 0fbb 47090000 		.4byte	0x947
 5227 0fbf 3E000000 		.4byte	.LBB87
 5228 0fc3 38000000 		.4byte	.Ldebug_ranges0+0x38
 5229 0fc7 01       		.byte	0x1
 5230 0fc8 5901     		.2byte	0x159
 5231 0fca 16100000 		.4byte	0x1016
 5232 0fce 2A       		.uleb128 0x2a
 5233 0fcf 69090000 		.4byte	0x969
 5234 0fd3 3D0E0000 		.4byte	.LLST44
 5235 0fd7 2A       		.uleb128 0x2a
 5236 0fd8 5E090000 		.4byte	0x95e
 5237 0fdc 920E0000 		.4byte	.LLST45
 5238 0fe0 2A       		.uleb128 0x2a
ARM GAS  C:\Users\jo\AppData\Local\Temp\ccBWvOPb.s 			page 96


 5239 0fe1 53090000 		.4byte	0x953
 5240 0fe5 DC0E0000 		.4byte	.LLST46
 5241 0fe9 40       		.uleb128 0x40
 5242 0fea 38000000 		.4byte	.Ldebug_ranges0+0x38
 5243 0fee 38       		.uleb128 0x38
 5244 0fef 74090000 		.4byte	0x974
 5245 0ff3 38       		.uleb128 0x38
 5246 0ff4 7F090000 		.4byte	0x97f
 5247 0ff8 41       		.uleb128 0x41
 5248 0ff9 4C000000 		.4byte	.LVL232
 5249 0ffd 3D0B0000 		.4byte	0xb3d
 5250 1001 2C       		.uleb128 0x2c
 5251 1002 01       		.uleb128 0x1
 5252 1003 52       		.byte	0x52
 5253 1004 02       		.uleb128 0x2
 5254 1005 74       		.byte	0x74
 5255 1006 00       		.sleb128 0
 5256 1007 2C       		.uleb128 0x2c
 5257 1008 01       		.uleb128 0x1
 5258 1009 51       		.byte	0x51
 5259 100a 02       		.uleb128 0x2
 5260 100b 75       		.byte	0x75
 5261 100c 00       		.sleb128 0
 5262 100d 2C       		.uleb128 0x2c
 5263 100e 01       		.uleb128 0x1
 5264 100f 50       		.byte	0x50
 5265 1010 02       		.uleb128 0x2
 5266 1011 7D       		.byte	0x7d
 5267 1012 00       		.sleb128 0
 5268 1013 00       		.byte	0
 5269 1014 00       		.byte	0
 5270 1015 00       		.byte	0
 5271 1016 46       		.uleb128 0x46
 5272 1017 CC090000 		.4byte	0x9cc
 5273 101b 58000000 		.4byte	.LBB93
 5274 101f 0A000000 		.4byte	.LBE93-.LBB93
 5275 1023 01       		.byte	0x1
 5276 1024 5C01     		.2byte	0x15c
 5277 1026 65100000 		.4byte	0x1065
 5278 102a 2A       		.uleb128 0x2a
 5279 102b D8090000 		.4byte	0x9d8
 5280 102f FA0E0000 		.4byte	.LLST47
 5281 1033 2D       		.uleb128 0x2d
 5282 1034 14090000 		.4byte	0x914
 5283 1038 58000000 		.4byte	.LBB94
 5284 103c 0A000000 		.4byte	.LBE94-.LBB94
 5285 1040 01       		.byte	0x1
 5286 1041 5D       		.byte	0x5d
 5287 1042 2A       		.uleb128 0x2a
 5288 1043 29090000 		.4byte	0x929
 5289 1047 180F0000 		.4byte	.LLST48
 5290 104b 2E       		.uleb128 0x2e
 5291 104c 20090000 		.4byte	0x920
 5292 1050 2F       		.uleb128 0x2f
 5293 1051 58000000 		.4byte	.LBB95
 5294 1055 0A000000 		.4byte	.LBE95-.LBB95
 5295 1059 30       		.uleb128 0x30
ARM GAS  C:\Users\jo\AppData\Local\Temp\ccBWvOPb.s 			page 97


 5296 105a 32090000 		.4byte	0x932
 5297 105e 7D0F0000 		.4byte	.LLST49
 5298 1062 00       		.byte	0
 5299 1063 00       		.byte	0
 5300 1064 00       		.byte	0
 5301 1065 36       		.uleb128 0x36
 5302 1066 0E000000 		.4byte	.LVL224
 5303 106a EB1A0000 		.4byte	0x1aeb
 5304 106e 83100000 		.4byte	0x1083
 5305 1072 2C       		.uleb128 0x2c
 5306 1073 01       		.uleb128 0x1
 5307 1074 51       		.byte	0x51
 5308 1075 05       		.uleb128 0x5
 5309 1076 03       		.byte	0x3
 5310 1077 00000000 		.4byte	.LC0
 5311 107b 2C       		.uleb128 0x2c
 5312 107c 01       		.uleb128 0x1
 5313 107d 50       		.byte	0x50
 5314 107e 03       		.uleb128 0x3
 5315 107f F3       		.byte	0xf3
 5316 1080 01       		.uleb128 0x1
 5317 1081 50       		.byte	0x50
 5318 1082 00       		.byte	0
 5319 1083 36       		.uleb128 0x36
 5320 1084 3E000000 		.4byte	.LVL228
 5321 1088 051B0000 		.4byte	0x1b05
 5322 108c A9100000 		.4byte	0x10a9
 5323 1090 2C       		.uleb128 0x2c
 5324 1091 01       		.uleb128 0x1
 5325 1092 53       		.byte	0x53
 5326 1093 02       		.uleb128 0x2
 5327 1094 76       		.byte	0x76
 5328 1095 00       		.sleb128 0
 5329 1096 2C       		.uleb128 0x2c
 5330 1097 01       		.uleb128 0x1
 5331 1098 52       		.byte	0x52
 5332 1099 03       		.uleb128 0x3
 5333 109a 0A       		.byte	0xa
 5334 109b 0004     		.2byte	0x400
 5335 109d 2C       		.uleb128 0x2c
 5336 109e 01       		.uleb128 0x1
 5337 109f 51       		.byte	0x51
 5338 10a0 01       		.uleb128 0x1
 5339 10a1 31       		.byte	0x31
 5340 10a2 2C       		.uleb128 0x2c
 5341 10a3 01       		.uleb128 0x1
 5342 10a4 50       		.byte	0x50
 5343 10a5 02       		.uleb128 0x2
 5344 10a6 75       		.byte	0x75
 5345 10a7 00       		.sleb128 0
 5346 10a8 00       		.byte	0
 5347 10a9 36       		.uleb128 0x36
 5348 10aa 56000000 		.4byte	.LVL236
 5349 10ae 380C0000 		.4byte	0xc38
 5350 10b2 C3100000 		.4byte	0x10c3
 5351 10b6 2C       		.uleb128 0x2c
 5352 10b7 01       		.uleb128 0x1
ARM GAS  C:\Users\jo\AppData\Local\Temp\ccBWvOPb.s 			page 98


 5353 10b8 51       		.byte	0x51
 5354 10b9 02       		.uleb128 0x2
 5355 10ba 77       		.byte	0x77
 5356 10bb 00       		.sleb128 0
 5357 10bc 2C       		.uleb128 0x2c
 5358 10bd 01       		.uleb128 0x1
 5359 10be 50       		.byte	0x50
 5360 10bf 02       		.uleb128 0x2
 5361 10c0 7D       		.byte	0x7d
 5362 10c1 00       		.sleb128 0
 5363 10c2 00       		.byte	0
 5364 10c3 36       		.uleb128 0x36
 5365 10c4 72000000 		.4byte	.LVL242
 5366 10c8 291B0000 		.4byte	0x1b29
 5367 10cc D7100000 		.4byte	0x10d7
 5368 10d0 2C       		.uleb128 0x2c
 5369 10d1 01       		.uleb128 0x1
 5370 10d2 50       		.byte	0x50
 5371 10d3 02       		.uleb128 0x2
 5372 10d4 76       		.byte	0x76
 5373 10d5 00       		.sleb128 0
 5374 10d6 00       		.byte	0
 5375 10d7 48       		.uleb128 0x48
 5376 10d8 7E000000 		.4byte	.LVL245
 5377 10dc 291B0000 		.4byte	0x1b29
 5378 10e0 00       		.byte	0
 5379 10e1 0F       		.uleb128 0xf
 5380 10e2 04       		.byte	0x4
 5381 10e3 02090000 		.4byte	0x902
 5382 10e7 07       		.uleb128 0x7
 5383 10e8 45000000 		.4byte	0x45
 5384 10ec F8100000 		.4byte	0x10f8
 5385 10f0 49       		.uleb128 0x49
 5386 10f1 E1000000 		.4byte	0xe1
 5387 10f5 FF03     		.2byte	0x3ff
 5388 10f7 00       		.byte	0
 5389 10f8 39       		.uleb128 0x39
 5390 10f9 C0040000 		.4byte	.LASF145
 5391 10fd 01       		.byte	0x1
 5392 10fe 6C01     		.2byte	0x16c
 5393 1100 00000000 		.4byte	.LFB9
 5394 1104 D4000000 		.4byte	.LFE9-.LFB9
 5395 1108 01       		.uleb128 0x1
 5396 1109 9C       		.byte	0x9c
 5397 110a A8120000 		.4byte	0x12a8
 5398 110e 3A       		.uleb128 0x3a
 5399 110f 63747800 		.ascii	"ctx\000"
 5400 1113 01       		.byte	0x1
 5401 1114 6C01     		.2byte	0x16c
 5402 1116 8B090000 		.4byte	0x98b
 5403 111a B30F0000 		.4byte	.LLST50
 5404 111e 3A       		.uleb128 0x3a
 5405 111f 6B657900 		.ascii	"key\000"
 5406 1123 01       		.byte	0x1
 5407 1124 6C01     		.2byte	0x16c
 5408 1126 91090000 		.4byte	0x991
 5409 112a E70F0000 		.4byte	.LLST51
ARM GAS  C:\Users\jo\AppData\Local\Temp\ccBWvOPb.s 			page 99


 5410 112e 3B       		.uleb128 0x3b
 5411 112f 10060000 		.4byte	.LASF146
 5412 1133 01       		.byte	0x1
 5413 1134 6D01     		.2byte	0x16d
 5414 1136 2C000000 		.4byte	0x2c
 5415 113a 26100000 		.4byte	.LLST52
 5416 113e 3D       		.uleb128 0x3d
 5417 113f 6900     		.ascii	"i\000"
 5418 1141 01       		.byte	0x1
 5419 1142 6F01     		.2byte	0x16f
 5420 1144 2C000000 		.4byte	0x2c
 5421 1148 66100000 		.4byte	.LLST53
 5422 114c 45       		.uleb128 0x45
 5423 114d 73756D00 		.ascii	"sum\000"
 5424 1151 01       		.byte	0x1
 5425 1152 7001     		.2byte	0x170
 5426 1154 A8120000 		.4byte	0x12a8
 5427 1158 02       		.uleb128 0x2
 5428 1159 91       		.byte	0x91
 5429 115a 50       		.sleb128 -48
 5430 115b 3F       		.uleb128 0x3f
 5431 115c B4090000 		.4byte	0x9b4
 5432 1160 60000000 		.4byte	.LBB96
 5433 1164 58000000 		.4byte	.Ldebug_ranges0+0x58
 5434 1168 01       		.byte	0x1
 5435 1169 8201     		.2byte	0x182
 5436 116b 79110000 		.4byte	0x1179
 5437 116f 2A       		.uleb128 0x2a
 5438 1170 C0090000 		.4byte	0x9c0
 5439 1174 91100000 		.4byte	.LLST54
 5440 1178 00       		.byte	0
 5441 1179 3F       		.uleb128 0x3f
 5442 117a 47090000 		.4byte	0x947
 5443 117e 74000000 		.4byte	.LBB99
 5444 1182 70000000 		.4byte	.Ldebug_ranges0+0x70
 5445 1186 01       		.byte	0x1
 5446 1187 8301     		.2byte	0x183
 5447 1189 D5110000 		.4byte	0x11d5
 5448 118d 2A       		.uleb128 0x2a
 5449 118e 69090000 		.4byte	0x969
 5450 1192 A4100000 		.4byte	.LLST55
 5451 1196 2A       		.uleb128 0x2a
 5452 1197 5E090000 		.4byte	0x95e
 5453 119b B9100000 		.4byte	.LLST56
 5454 119f 2A       		.uleb128 0x2a
 5455 11a0 53090000 		.4byte	0x953
 5456 11a4 CC100000 		.4byte	.LLST57
 5457 11a8 40       		.uleb128 0x40
 5458 11a9 70000000 		.4byte	.Ldebug_ranges0+0x70
 5459 11ad 38       		.uleb128 0x38
 5460 11ae 74090000 		.4byte	0x974
 5461 11b2 38       		.uleb128 0x38
 5462 11b3 7F090000 		.4byte	0x97f
 5463 11b7 41       		.uleb128 0x41
 5464 11b8 84000000 		.4byte	.LVL260
 5465 11bc 3D0B0000 		.4byte	0xb3d
 5466 11c0 2C       		.uleb128 0x2c
ARM GAS  C:\Users\jo\AppData\Local\Temp\ccBWvOPb.s 			page 100


 5467 11c1 01       		.uleb128 0x1
 5468 11c2 52       		.byte	0x52
 5469 11c3 02       		.uleb128 0x2
 5470 11c4 08       		.byte	0x8
 5471 11c5 40       		.byte	0x40
 5472 11c6 2C       		.uleb128 0x2c
 5473 11c7 01       		.uleb128 0x1
 5474 11c8 51       		.byte	0x51
 5475 11c9 02       		.uleb128 0x2
 5476 11ca 77       		.byte	0x77
 5477 11cb 00       		.sleb128 0
 5478 11cc 2C       		.uleb128 0x2c
 5479 11cd 01       		.uleb128 0x1
 5480 11ce 50       		.byte	0x50
 5481 11cf 02       		.uleb128 0x2
 5482 11d0 76       		.byte	0x76
 5483 11d1 00       		.sleb128 0
 5484 11d2 00       		.byte	0
 5485 11d3 00       		.byte	0
 5486 11d4 00       		.byte	0
 5487 11d5 46       		.uleb128 0x46
 5488 11d6 14090000 		.4byte	0x914
 5489 11da 84000000 		.4byte	.LBB104
 5490 11de 0C000000 		.4byte	.LBE104-.LBB104
 5491 11e2 01       		.byte	0x1
 5492 11e3 8501     		.2byte	0x185
 5493 11e5 0B120000 		.4byte	0x120b
 5494 11e9 2A       		.uleb128 0x2a
 5495 11ea 29090000 		.4byte	0x929
 5496 11ee DF100000 		.4byte	.LLST58
 5497 11f2 2E       		.uleb128 0x2e
 5498 11f3 20090000 		.4byte	0x920
 5499 11f7 2F       		.uleb128 0x2f
 5500 11f8 84000000 		.4byte	.LBB105
 5501 11fc 0C000000 		.4byte	.LBE105-.LBB105
 5502 1200 30       		.uleb128 0x30
 5503 1201 32090000 		.4byte	0x932
 5504 1205 2C110000 		.4byte	.LLST59
 5505 1209 00       		.byte	0
 5506 120a 00       		.byte	0
 5507 120b 36       		.uleb128 0x36
 5508 120c 22000000 		.4byte	.LVL252
 5509 1210 3E1B0000 		.4byte	0x1b3e
 5510 1214 2B120000 		.4byte	0x122b
 5511 1218 2C       		.uleb128 0x2c
 5512 1219 01       		.uleb128 0x1
 5513 121a 52       		.byte	0x52
 5514 121b 02       		.uleb128 0x2
 5515 121c 08       		.byte	0x8
 5516 121d 40       		.byte	0x40
 5517 121e 2C       		.uleb128 0x2c
 5518 121f 01       		.uleb128 0x1
 5519 1220 51       		.byte	0x51
 5520 1221 02       		.uleb128 0x2
 5521 1222 08       		.byte	0x8
 5522 1223 36       		.byte	0x36
 5523 1224 2C       		.uleb128 0x2c
ARM GAS  C:\Users\jo\AppData\Local\Temp\ccBWvOPb.s 			page 101


 5524 1225 01       		.uleb128 0x1
 5525 1226 50       		.byte	0x50
 5526 1227 02       		.uleb128 0x2
 5527 1228 77       		.byte	0x77
 5528 1229 00       		.sleb128 0
 5529 122a 00       		.byte	0
 5530 122b 36       		.uleb128 0x36
 5531 122c 2C000000 		.4byte	.LVL253
 5532 1230 3E1B0000 		.4byte	0x1b3e
 5533 1234 4B120000 		.4byte	0x124b
 5534 1238 2C       		.uleb128 0x2c
 5535 1239 01       		.uleb128 0x1
 5536 123a 52       		.byte	0x52
 5537 123b 02       		.uleb128 0x2
 5538 123c 08       		.byte	0x8
 5539 123d 40       		.byte	0x40
 5540 123e 2C       		.uleb128 0x2c
 5541 123f 01       		.uleb128 0x1
 5542 1240 51       		.byte	0x51
 5543 1241 02       		.uleb128 0x2
 5544 1242 08       		.byte	0x8
 5545 1243 5C       		.byte	0x5c
 5546 1244 2C       		.uleb128 0x2c
 5547 1245 01       		.uleb128 0x1
 5548 1246 50       		.byte	0x50
 5549 1247 02       		.uleb128 0x2
 5550 1248 78       		.byte	0x78
 5551 1249 00       		.sleb128 0
 5552 124a 00       		.byte	0
 5553 124b 36       		.uleb128 0x36
 5554 124c A4000000 		.4byte	.LVL268
 5555 1250 820D0000 		.4byte	0xd82
 5556 1254 6B120000 		.4byte	0x126b
 5557 1258 2C       		.uleb128 0x2c
 5558 1259 01       		.uleb128 0x1
 5559 125a 52       		.byte	0x52
 5560 125b 02       		.uleb128 0x2
 5561 125c 7D       		.byte	0x7d
 5562 125d 00       		.sleb128 0
 5563 125e 2C       		.uleb128 0x2c
 5564 125f 01       		.uleb128 0x1
 5565 1260 51       		.byte	0x51
 5566 1261 02       		.uleb128 0x2
 5567 1262 75       		.byte	0x75
 5568 1263 00       		.sleb128 0
 5569 1264 2C       		.uleb128 0x2c
 5570 1265 01       		.uleb128 0x1
 5571 1266 50       		.byte	0x50
 5572 1267 02       		.uleb128 0x2
 5573 1268 79       		.byte	0x79
 5574 1269 00       		.sleb128 0
 5575 126a 00       		.byte	0
 5576 126b 36       		.uleb128 0x36
 5577 126c B2000000 		.4byte	.LVL269
 5578 1270 3E1B0000 		.4byte	0x1b3e
 5579 1274 8B120000 		.4byte	0x128b
 5580 1278 2C       		.uleb128 0x2c
ARM GAS  C:\Users\jo\AppData\Local\Temp\ccBWvOPb.s 			page 102


 5581 1279 01       		.uleb128 0x1
 5582 127a 52       		.byte	0x52
 5583 127b 02       		.uleb128 0x2
 5584 127c 08       		.byte	0x8
 5585 127d 40       		.byte	0x40
 5586 127e 2C       		.uleb128 0x2c
 5587 127f 01       		.uleb128 0x1
 5588 1280 51       		.byte	0x51
 5589 1281 02       		.uleb128 0x2
 5590 1282 08       		.byte	0x8
 5591 1283 36       		.byte	0x36
 5592 1284 2C       		.uleb128 0x2c
 5593 1285 01       		.uleb128 0x1
 5594 1286 50       		.byte	0x50
 5595 1287 02       		.uleb128 0x2
 5596 1288 77       		.byte	0x77
 5597 1289 00       		.sleb128 0
 5598 128a 00       		.byte	0
 5599 128b 41       		.uleb128 0x41
 5600 128c BE000000 		.4byte	.LVL270
 5601 1290 3E1B0000 		.4byte	0x1b3e
 5602 1294 2C       		.uleb128 0x2c
 5603 1295 01       		.uleb128 0x1
 5604 1296 52       		.byte	0x52
 5605 1297 02       		.uleb128 0x2
 5606 1298 08       		.byte	0x8
 5607 1299 40       		.byte	0x40
 5608 129a 2C       		.uleb128 0x2c
 5609 129b 01       		.uleb128 0x1
 5610 129c 51       		.byte	0x51
 5611 129d 02       		.uleb128 0x2
 5612 129e 08       		.byte	0x8
 5613 129f 5C       		.byte	0x5c
 5614 12a0 2C       		.uleb128 0x2c
 5615 12a1 01       		.uleb128 0x1
 5616 12a2 50       		.byte	0x50
 5617 12a3 02       		.uleb128 0x2
 5618 12a4 78       		.byte	0x78
 5619 12a5 00       		.sleb128 0
 5620 12a6 00       		.byte	0
 5621 12a7 00       		.byte	0
 5622 12a8 07       		.uleb128 0x7
 5623 12a9 45000000 		.4byte	0x45
 5624 12ad B8120000 		.4byte	0x12b8
 5625 12b1 08       		.uleb128 0x8
 5626 12b2 E1000000 		.4byte	0xe1
 5627 12b6 0F       		.byte	0xf
 5628 12b7 00       		.byte	0
 5629 12b8 29       		.uleb128 0x29
 5630 12b9 E4090000 		.4byte	0x9e4
 5631 12bd 00000000 		.4byte	.LFB10
 5632 12c1 08000000 		.4byte	.LFE10-.LFB10
 5633 12c5 01       		.uleb128 0x1
 5634 12c6 9C       		.byte	0x9c
 5635 12c7 30130000 		.4byte	0x1330
 5636 12cb 2A       		.uleb128 0x2a
 5637 12cc F1090000 		.4byte	0x9f1
ARM GAS  C:\Users\jo\AppData\Local\Temp\ccBWvOPb.s 			page 103


 5638 12d0 57110000 		.4byte	.LLST60
 5639 12d4 2A       		.uleb128 0x2a
 5640 12d5 FD090000 		.4byte	0x9fd
 5641 12d9 78110000 		.4byte	.LLST61
 5642 12dd 2A       		.uleb128 0x2a
 5643 12de 090A0000 		.4byte	0xa09
 5644 12e2 99110000 		.4byte	.LLST62
 5645 12e6 42       		.uleb128 0x42
 5646 12e7 47090000 		.4byte	0x947
 5647 12eb 00000000 		.4byte	.LBB106
 5648 12ef 08000000 		.4byte	.LBE106-.LBB106
 5649 12f3 01       		.byte	0x1
 5650 12f4 8E01     		.2byte	0x18e
 5651 12f6 2A       		.uleb128 0x2a
 5652 12f7 69090000 		.4byte	0x969
 5653 12fb 99110000 		.4byte	.LLST62
 5654 12ff 2A       		.uleb128 0x2a
 5655 1300 5E090000 		.4byte	0x95e
 5656 1304 78110000 		.4byte	.LLST61
 5657 1308 2A       		.uleb128 0x2a
 5658 1309 53090000 		.4byte	0x953
 5659 130d 57110000 		.4byte	.LLST60
 5660 1311 2F       		.uleb128 0x2f
 5661 1312 00000000 		.4byte	.LBB107
 5662 1316 08000000 		.4byte	.LBE107-.LBB107
 5663 131a 38       		.uleb128 0x38
 5664 131b 74090000 		.4byte	0x974
 5665 131f 38       		.uleb128 0x38
 5666 1320 7F090000 		.4byte	0x97f
 5667 1324 37       		.uleb128 0x37
 5668 1325 08000000 		.4byte	.LVL272
 5669 1329 3D0B0000 		.4byte	0xb3d
 5670 132d 00       		.byte	0
 5671 132e 00       		.byte	0
 5672 132f 00       		.byte	0
 5673 1330 39       		.uleb128 0x39
 5674 1331 2A070000 		.4byte	.LASF147
 5675 1335 01       		.byte	0x1
 5676 1336 9401     		.2byte	0x194
 5677 1338 00000000 		.4byte	.LFB11
 5678 133c 64000000 		.4byte	.LFE11-.LFB11
 5679 1340 01       		.uleb128 0x1
 5680 1341 9C       		.byte	0x9c
 5681 1342 B4140000 		.4byte	0x14b4
 5682 1346 3A       		.uleb128 0x3a
 5683 1347 63747800 		.ascii	"ctx\000"
 5684 134b 01       		.byte	0x1
 5685 134c 9401     		.2byte	0x194
 5686 134e 8B090000 		.4byte	0x98b
 5687 1352 BA110000 		.4byte	.LLST66
 5688 1356 3B       		.uleb128 0x3b
 5689 1357 8B040000 		.4byte	.LASF139
 5690 135b 01       		.byte	0x1
 5691 135c 9401     		.2byte	0x194
 5692 135e 65030000 		.4byte	0x365
 5693 1362 E6110000 		.4byte	.LLST67
 5694 1366 3E       		.uleb128 0x3e
ARM GAS  C:\Users\jo\AppData\Local\Temp\ccBWvOPb.s 			page 104


 5695 1367 4D010000 		.4byte	.LASF148
 5696 136b 01       		.byte	0x1
 5697 136c 9601     		.2byte	0x196
 5698 136e A8120000 		.4byte	0x12a8
 5699 1372 02       		.uleb128 0x2
 5700 1373 91       		.byte	0x91
 5701 1374 60       		.sleb128 -32
 5702 1375 3F       		.uleb128 0x3f
 5703 1376 B4090000 		.4byte	0x9b4
 5704 137a 0E000000 		.4byte	.LBB108
 5705 137e 88000000 		.4byte	.Ldebug_ranges0+0x88
 5706 1382 01       		.byte	0x1
 5707 1383 9901     		.2byte	0x199
 5708 1385 93130000 		.4byte	0x1393
 5709 1389 2A       		.uleb128 0x2a
 5710 138a C0090000 		.4byte	0x9c0
 5711 138e 12120000 		.4byte	.LLST68
 5712 1392 00       		.byte	0
 5713 1393 3F       		.uleb128 0x3f
 5714 1394 47090000 		.4byte	0x947
 5715 1398 20000000 		.4byte	.LBB111
 5716 139c A0000000 		.4byte	.Ldebug_ranges0+0xa0
 5717 13a0 01       		.byte	0x1
 5718 13a1 9A01     		.2byte	0x19a
 5719 13a3 ED130000 		.4byte	0x13ed
 5720 13a7 43       		.uleb128 0x43
 5721 13a8 69090000 		.4byte	0x969
 5722 13ac 40       		.byte	0x40
 5723 13ad 2A       		.uleb128 0x2a
 5724 13ae 5E090000 		.4byte	0x95e
 5725 13b2 33120000 		.4byte	.LLST69
 5726 13b6 2A       		.uleb128 0x2a
 5727 13b7 53090000 		.4byte	0x953
 5728 13bb 73120000 		.4byte	.LLST70
 5729 13bf 40       		.uleb128 0x40
 5730 13c0 A0000000 		.4byte	.Ldebug_ranges0+0xa0
 5731 13c4 38       		.uleb128 0x38
 5732 13c5 74090000 		.4byte	0x974
 5733 13c9 38       		.uleb128 0x38
 5734 13ca 7F090000 		.4byte	0x97f
 5735 13ce 41       		.uleb128 0x41
 5736 13cf 30000000 		.4byte	.LVL278
 5737 13d3 3D0B0000 		.4byte	0xb3d
 5738 13d7 2C       		.uleb128 0x2c
 5739 13d8 01       		.uleb128 0x1
 5740 13d9 52       		.byte	0x52
 5741 13da 02       		.uleb128 0x2
 5742 13db 08       		.byte	0x8
 5743 13dc 40       		.byte	0x40
 5744 13dd 2C       		.uleb128 0x2c
 5745 13de 01       		.uleb128 0x1
 5746 13df 51       		.byte	0x51
 5747 13e0 03       		.uleb128 0x3
 5748 13e1 75       		.byte	0x75
 5749 13e2 9801     		.sleb128 152
 5750 13e4 2C       		.uleb128 0x2c
 5751 13e5 01       		.uleb128 0x1
ARM GAS  C:\Users\jo\AppData\Local\Temp\ccBWvOPb.s 			page 105


 5752 13e6 50       		.byte	0x50
 5753 13e7 02       		.uleb128 0x2
 5754 13e8 75       		.byte	0x75
 5755 13e9 00       		.sleb128 0
 5756 13ea 00       		.byte	0
 5757 13eb 00       		.byte	0
 5758 13ec 00       		.byte	0
 5759 13ed 46       		.uleb128 0x46
 5760 13ee 47090000 		.4byte	0x947
 5761 13f2 30000000 		.4byte	.LBB116
 5762 13f6 0A000000 		.4byte	.LBE116-.LBB116
 5763 13fa 01       		.byte	0x1
 5764 13fb 9B01     		.2byte	0x19b
 5765 13fd 49140000 		.4byte	0x1449
 5766 1401 43       		.uleb128 0x43
 5767 1402 69090000 		.4byte	0x969
 5768 1406 10       		.byte	0x10
 5769 1407 2A       		.uleb128 0x2a
 5770 1408 5E090000 		.4byte	0x95e
 5771 140c 94120000 		.4byte	.LLST71
 5772 1410 2A       		.uleb128 0x2a
 5773 1411 53090000 		.4byte	0x953
 5774 1415 C1120000 		.4byte	.LLST72
 5775 1419 2F       		.uleb128 0x2f
 5776 141a 30000000 		.4byte	.LBB117
 5777 141e 0A000000 		.4byte	.LBE117-.LBB117
 5778 1422 38       		.uleb128 0x38
 5779 1423 74090000 		.4byte	0x974
 5780 1427 38       		.uleb128 0x38
 5781 1428 7F090000 		.4byte	0x97f
 5782 142c 41       		.uleb128 0x41
 5783 142d 3A000000 		.4byte	.LVL279
 5784 1431 3D0B0000 		.4byte	0xb3d
 5785 1435 2C       		.uleb128 0x2c
 5786 1436 01       		.uleb128 0x1
 5787 1437 52       		.byte	0x52
 5788 1438 01       		.uleb128 0x1
 5789 1439 40       		.byte	0x40
 5790 143a 2C       		.uleb128 0x2c
 5791 143b 01       		.uleb128 0x1
 5792 143c 51       		.byte	0x51
 5793 143d 02       		.uleb128 0x2
 5794 143e 7D       		.byte	0x7d
 5795 143f 00       		.sleb128 0
 5796 1440 2C       		.uleb128 0x2c
 5797 1441 01       		.uleb128 0x1
 5798 1442 50       		.byte	0x50
 5799 1443 02       		.uleb128 0x2
 5800 1444 75       		.byte	0x75
 5801 1445 00       		.sleb128 0
 5802 1446 00       		.byte	0
 5803 1447 00       		.byte	0
 5804 1448 00       		.byte	0
 5805 1449 46       		.uleb128 0x46
 5806 144a 14090000 		.4byte	0x914
 5807 144e 42000000 		.4byte	.LBB118
 5808 1452 0E000000 		.4byte	.LBE118-.LBB118
ARM GAS  C:\Users\jo\AppData\Local\Temp\ccBWvOPb.s 			page 106


 5809 1456 01       		.byte	0x1
 5810 1457 9E01     		.2byte	0x19e
 5811 1459 83140000 		.4byte	0x1483
 5812 145d 2A       		.uleb128 0x2a
 5813 145e 29090000 		.4byte	0x929
 5814 1462 E2120000 		.4byte	.LLST73
 5815 1466 2A       		.uleb128 0x2a
 5816 1467 20090000 		.4byte	0x920
 5817 146b 3E130000 		.4byte	.LLST74
 5818 146f 2F       		.uleb128 0x2f
 5819 1470 42000000 		.4byte	.LBB119
 5820 1474 0E000000 		.4byte	.LBE119-.LBB119
 5821 1478 30       		.uleb128 0x30
 5822 1479 32090000 		.4byte	0x932
 5823 147d 6B130000 		.4byte	.LLST75
 5824 1481 00       		.byte	0
 5825 1482 00       		.byte	0
 5826 1483 36       		.uleb128 0x36
 5827 1484 0E000000 		.4byte	.LVL275
 5828 1488 380C0000 		.4byte	0xc38
 5829 148c 9D140000 		.4byte	0x149d
 5830 1490 2C       		.uleb128 0x2c
 5831 1491 01       		.uleb128 0x1
 5832 1492 51       		.byte	0x51
 5833 1493 02       		.uleb128 0x2
 5834 1494 7D       		.byte	0x7d
 5835 1495 00       		.sleb128 0
 5836 1496 2C       		.uleb128 0x2c
 5837 1497 01       		.uleb128 0x1
 5838 1498 50       		.byte	0x50
 5839 1499 02       		.uleb128 0x2
 5840 149a 75       		.byte	0x75
 5841 149b 00       		.sleb128 0
 5842 149c 00       		.byte	0
 5843 149d 41       		.uleb128 0x41
 5844 149e 42000000 		.4byte	.LVL280
 5845 14a2 380C0000 		.4byte	0xc38
 5846 14a6 2C       		.uleb128 0x2c
 5847 14a7 01       		.uleb128 0x1
 5848 14a8 51       		.byte	0x51
 5849 14a9 02       		.uleb128 0x2
 5850 14aa 76       		.byte	0x76
 5851 14ab 00       		.sleb128 0
 5852 14ac 2C       		.uleb128 0x2c
 5853 14ad 01       		.uleb128 0x1
 5854 14ae 50       		.byte	0x50
 5855 14af 02       		.uleb128 0x2
 5856 14b0 75       		.byte	0x75
 5857 14b1 00       		.sleb128 0
 5858 14b2 00       		.byte	0
 5859 14b3 00       		.byte	0
 5860 14b4 39       		.uleb128 0x39
 5861 14b5 10050000 		.4byte	.LASF149
 5862 14b9 01       		.byte	0x1
 5863 14ba A401     		.2byte	0x1a4
 5864 14bc 00000000 		.4byte	.LFB12
 5865 14c0 34000000 		.4byte	.LFE12-.LFB12
ARM GAS  C:\Users\jo\AppData\Local\Temp\ccBWvOPb.s 			page 107


 5866 14c4 01       		.uleb128 0x1
 5867 14c5 9C       		.byte	0x9c
 5868 14c6 52150000 		.4byte	0x1552
 5869 14ca 3A       		.uleb128 0x3a
 5870 14cb 63747800 		.ascii	"ctx\000"
 5871 14cf 01       		.byte	0x1
 5872 14d0 A401     		.2byte	0x1a4
 5873 14d2 8B090000 		.4byte	0x98b
 5874 14d6 96130000 		.4byte	.LLST76
 5875 14da 3F       		.uleb128 0x3f
 5876 14db B4090000 		.4byte	0x9b4
 5877 14df 02000000 		.4byte	.LBB120
 5878 14e3 B8000000 		.4byte	.Ldebug_ranges0+0xb8
 5879 14e7 01       		.byte	0x1
 5880 14e8 A601     		.2byte	0x1a6
 5881 14ea F8140000 		.4byte	0x14f8
 5882 14ee 2A       		.uleb128 0x2a
 5883 14ef C0090000 		.4byte	0x9c0
 5884 14f3 B7130000 		.4byte	.LLST77
 5885 14f7 00       		.byte	0
 5886 14f8 4A       		.uleb128 0x4a
 5887 14f9 47090000 		.4byte	0x947
 5888 14fd 1A000000 		.4byte	.LBB124
 5889 1501 D0000000 		.4byte	.Ldebug_ranges0+0xd0
 5890 1505 01       		.byte	0x1
 5891 1506 A701     		.2byte	0x1a7
 5892 1508 43       		.uleb128 0x43
 5893 1509 69090000 		.4byte	0x969
 5894 150d 40       		.byte	0x40
 5895 150e 2A       		.uleb128 0x2a
 5896 150f 5E090000 		.4byte	0x95e
 5897 1513 D8130000 		.4byte	.LLST78
 5898 1517 2A       		.uleb128 0x2a
 5899 1518 53090000 		.4byte	0x953
 5900 151c 09140000 		.4byte	.LLST79
 5901 1520 40       		.uleb128 0x40
 5902 1521 D0000000 		.4byte	.Ldebug_ranges0+0xd0
 5903 1525 38       		.uleb128 0x38
 5904 1526 74090000 		.4byte	0x974
 5905 152a 38       		.uleb128 0x38
 5906 152b 7F090000 		.4byte	0x97f
 5907 152f 2B       		.uleb128 0x2b
 5908 1530 24000000 		.4byte	.LVL290
 5909 1534 3D0B0000 		.4byte	0xb3d
 5910 1538 2C       		.uleb128 0x2c
 5911 1539 01       		.uleb128 0x1
 5912 153a 52       		.byte	0x52
 5913 153b 02       		.uleb128 0x2
 5914 153c 08       		.byte	0x8
 5915 153d 40       		.byte	0x40
 5916 153e 2C       		.uleb128 0x2c
 5917 153f 01       		.uleb128 0x1
 5918 1540 51       		.byte	0x51
 5919 1541 05       		.uleb128 0x5
 5920 1542 F3       		.byte	0xf3
 5921 1543 01       		.uleb128 0x1
 5922 1544 50       		.byte	0x50
ARM GAS  C:\Users\jo\AppData\Local\Temp\ccBWvOPb.s 			page 108


 5923 1545 23       		.byte	0x23
 5924 1546 58       		.uleb128 0x58
 5925 1547 2C       		.uleb128 0x2c
 5926 1548 01       		.uleb128 0x1
 5927 1549 50       		.byte	0x50
 5928 154a 03       		.uleb128 0x3
 5929 154b F3       		.byte	0xf3
 5930 154c 01       		.uleb128 0x1
 5931 154d 50       		.byte	0x50
 5932 154e 00       		.byte	0
 5933 154f 00       		.byte	0
 5934 1550 00       		.byte	0
 5935 1551 00       		.byte	0
 5936 1552 39       		.uleb128 0x39
 5937 1553 96000000 		.4byte	.LASF150
 5938 1557 01       		.byte	0x1
 5939 1558 AD01     		.2byte	0x1ad
 5940 155a 00000000 		.4byte	.LFB13
 5941 155e 48000000 		.4byte	.LFE13-.LFB13
 5942 1562 01       		.uleb128 0x1
 5943 1563 9C       		.byte	0x9c
 5944 1564 08170000 		.4byte	0x1708
 5945 1568 3A       		.uleb128 0x3a
 5946 1569 6B657900 		.ascii	"key\000"
 5947 156d 01       		.byte	0x1
 5948 156e AD01     		.2byte	0x1ad
 5949 1570 91090000 		.4byte	0x991
 5950 1574 2A140000 		.4byte	.LLST80
 5951 1578 3B       		.uleb128 0x3b
 5952 1579 10060000 		.4byte	.LASF146
 5953 157d 01       		.byte	0x1
 5954 157e AD01     		.2byte	0x1ad
 5955 1580 2C000000 		.4byte	0x2c
 5956 1584 48140000 		.4byte	.LLST81
 5957 1588 3B       		.uleb128 0x3b
 5958 1589 FB050000 		.4byte	.LASF127
 5959 158d 01       		.byte	0x1
 5960 158e AE01     		.2byte	0x1ae
 5961 1590 91090000 		.4byte	0x991
 5962 1594 66140000 		.4byte	.LLST82
 5963 1598 3B       		.uleb128 0x3b
 5964 1599 3A070000 		.4byte	.LASF128
 5965 159d 01       		.byte	0x1
 5966 159e AE01     		.2byte	0x1ae
 5967 15a0 2C000000 		.4byte	0x2c
 5968 15a4 84140000 		.4byte	.LLST83
 5969 15a8 3B       		.uleb128 0x3b
 5970 15a9 8B040000 		.4byte	.LASF139
 5971 15ad 01       		.byte	0x1
 5972 15ae AF01     		.2byte	0x1af
 5973 15b0 65030000 		.4byte	0x365
 5974 15b4 A2140000 		.4byte	.LLST84
 5975 15b8 45       		.uleb128 0x45
 5976 15b9 63747800 		.ascii	"ctx\000"
 5977 15bd 01       		.byte	0x1
 5978 15be B101     		.2byte	0x1b1
 5979 15c0 08010000 		.4byte	0x108
ARM GAS  C:\Users\jo\AppData\Local\Temp\ccBWvOPb.s 			page 109


 5980 15c4 03       		.uleb128 0x3
 5981 15c5 91       		.byte	0x91
 5982 15c6 907E     		.sleb128 -240
 5983 15c8 3F       		.uleb128 0x3f
 5984 15c9 9C090000 		.4byte	0x99c
 5985 15cd 0A000000 		.4byte	.LBB128
 5986 15d1 E8000000 		.4byte	.Ldebug_ranges0+0xe8
 5987 15d5 01       		.byte	0x1
 5988 15d6 B301     		.2byte	0x1b3
 5989 15d8 01160000 		.4byte	0x1601
 5990 15dc 2A       		.uleb128 0x2a
 5991 15dd A8090000 		.4byte	0x9a8
 5992 15e1 C2140000 		.4byte	.LLST85
 5993 15e5 41       		.uleb128 0x41
 5994 15e6 16000000 		.4byte	.LVL296
 5995 15ea B11A0000 		.4byte	0x1ab1
 5996 15ee 2C       		.uleb128 0x2c
 5997 15ef 01       		.uleb128 0x1
 5998 15f0 52       		.byte	0x52
 5999 15f1 02       		.uleb128 0x2
 6000 15f2 08       		.byte	0x8
 6001 15f3 D8       		.byte	0xd8
 6002 15f4 2C       		.uleb128 0x2c
 6003 15f5 01       		.uleb128 0x1
 6004 15f6 51       		.byte	0x51
 6005 15f7 01       		.uleb128 0x1
 6006 15f8 30       		.byte	0x30
 6007 15f9 2C       		.uleb128 0x2c
 6008 15fa 01       		.uleb128 0x1
 6009 15fb 50       		.byte	0x50
 6010 15fc 02       		.uleb128 0x2
 6011 15fd 7D       		.byte	0x7d
 6012 15fe 00       		.sleb128 0
 6013 15ff 00       		.byte	0
 6014 1600 00       		.byte	0
 6015 1601 3F       		.uleb128 0x3f
 6016 1602 E4090000 		.4byte	0x9e4
 6017 1606 20000000 		.4byte	.LBB132
 6018 160a 00010000 		.4byte	.Ldebug_ranges0+0x100
 6019 160e 01       		.byte	0x1
 6020 160f B501     		.2byte	0x1b5
 6021 1611 81160000 		.4byte	0x1681
 6022 1615 31       		.uleb128 0x31
 6023 1616 090A0000 		.4byte	0xa09
 6024 161a 01       		.uleb128 0x1
 6025 161b 54       		.byte	0x54
 6026 161c 31       		.uleb128 0x31
 6027 161d FD090000 		.4byte	0x9fd
 6028 1621 01       		.uleb128 0x1
 6029 1622 57       		.byte	0x57
 6030 1623 2A       		.uleb128 0x2a
 6031 1624 F1090000 		.4byte	0x9f1
 6032 1628 EE140000 		.4byte	.LLST86
 6033 162c 4A       		.uleb128 0x4a
 6034 162d 47090000 		.4byte	0x947
 6035 1631 20000000 		.4byte	.LBB133
 6036 1635 00010000 		.4byte	.Ldebug_ranges0+0x100
ARM GAS  C:\Users\jo\AppData\Local\Temp\ccBWvOPb.s 			page 110


 6037 1639 01       		.byte	0x1
 6038 163a 8E01     		.2byte	0x18e
 6039 163c 31       		.uleb128 0x31
 6040 163d 69090000 		.4byte	0x969
 6041 1641 01       		.uleb128 0x1
 6042 1642 54       		.byte	0x54
 6043 1643 31       		.uleb128 0x31
 6044 1644 5E090000 		.4byte	0x95e
 6045 1648 01       		.uleb128 0x1
 6046 1649 57       		.byte	0x57
 6047 164a 2A       		.uleb128 0x2a
 6048 164b 53090000 		.4byte	0x953
 6049 164f EE140000 		.4byte	.LLST86
 6050 1653 40       		.uleb128 0x40
 6051 1654 00010000 		.4byte	.Ldebug_ranges0+0x100
 6052 1658 38       		.uleb128 0x38
 6053 1659 74090000 		.4byte	0x974
 6054 165d 38       		.uleb128 0x38
 6055 165e 7F090000 		.4byte	0x97f
 6056 1662 41       		.uleb128 0x41
 6057 1663 46000000 		.4byte	.LVL304
 6058 1667 3D0B0000 		.4byte	0xb3d
 6059 166b 2C       		.uleb128 0x2c
 6060 166c 01       		.uleb128 0x1
 6061 166d 52       		.byte	0x52
 6062 166e 02       		.uleb128 0x2
 6063 166f 74       		.byte	0x74
 6064 1670 00       		.sleb128 0
 6065 1671 2C       		.uleb128 0x2c
 6066 1672 01       		.uleb128 0x1
 6067 1673 51       		.byte	0x51
 6068 1674 02       		.uleb128 0x2
 6069 1675 77       		.byte	0x77
 6070 1676 00       		.sleb128 0
 6071 1677 2C       		.uleb128 0x2c
 6072 1678 01       		.uleb128 0x1
 6073 1679 50       		.byte	0x50
 6074 167a 02       		.uleb128 0x2
 6075 167b 7D       		.byte	0x7d
 6076 167c 00       		.sleb128 0
 6077 167d 00       		.byte	0
 6078 167e 00       		.byte	0
 6079 167f 00       		.byte	0
 6080 1680 00       		.byte	0
 6081 1681 46       		.uleb128 0x46
 6082 1682 CC090000 		.4byte	0x9cc
 6083 1686 2C000000 		.4byte	.LBB137
 6084 168a 0C000000 		.4byte	.LBE137-.LBB137
 6085 168e 01       		.byte	0x1
 6086 168f B701     		.2byte	0x1b7
 6087 1691 D0160000 		.4byte	0x16d0
 6088 1695 2A       		.uleb128 0x2a
 6089 1696 D8090000 		.4byte	0x9d8
 6090 169a 1A150000 		.4byte	.LLST88
 6091 169e 2D       		.uleb128 0x2d
 6092 169f 14090000 		.4byte	0x914
 6093 16a3 2C000000 		.4byte	.LBB138
ARM GAS  C:\Users\jo\AppData\Local\Temp\ccBWvOPb.s 			page 111


 6094 16a7 0C000000 		.4byte	.LBE138-.LBB138
 6095 16ab 01       		.byte	0x1
 6096 16ac 5D       		.byte	0x5d
 6097 16ad 2A       		.uleb128 0x2a
 6098 16ae 29090000 		.4byte	0x929
 6099 16b2 3B150000 		.4byte	.LLST89
 6100 16b6 2E       		.uleb128 0x2e
 6101 16b7 20090000 		.4byte	0x920
 6102 16bb 2F       		.uleb128 0x2f
 6103 16bc 2C000000 		.4byte	.LBB139
 6104 16c0 0C000000 		.4byte	.LBE139-.LBB139
 6105 16c4 30       		.uleb128 0x30
 6106 16c5 32090000 		.4byte	0x932
 6107 16c9 86150000 		.4byte	.LLST90
 6108 16cd 00       		.byte	0
 6109 16ce 00       		.byte	0
 6110 16cf 00       		.byte	0
 6111 16d0 36       		.uleb128 0x36
 6112 16d1 20000000 		.4byte	.LVL297
 6113 16d5 F8100000 		.4byte	0x10f8
 6114 16d9 F0160000 		.4byte	0x16f0
 6115 16dd 2C       		.uleb128 0x2c
 6116 16de 01       		.uleb128 0x1
 6117 16df 52       		.byte	0x52
 6118 16e0 02       		.uleb128 0x2
 6119 16e1 75       		.byte	0x75
 6120 16e2 00       		.sleb128 0
 6121 16e3 2C       		.uleb128 0x2c
 6122 16e4 01       		.uleb128 0x1
 6123 16e5 51       		.byte	0x51
 6124 16e6 02       		.uleb128 0x2
 6125 16e7 76       		.byte	0x76
 6126 16e8 00       		.sleb128 0
 6127 16e9 2C       		.uleb128 0x2c
 6128 16ea 01       		.uleb128 0x1
 6129 16eb 50       		.byte	0x50
 6130 16ec 02       		.uleb128 0x2
 6131 16ed 7D       		.byte	0x7d
 6132 16ee 00       		.sleb128 0
 6133 16ef 00       		.byte	0
 6134 16f0 41       		.uleb128 0x41
 6135 16f1 2A000000 		.4byte	.LVL298
 6136 16f5 30130000 		.4byte	0x1330
 6137 16f9 2C       		.uleb128 0x2c
 6138 16fa 01       		.uleb128 0x1
 6139 16fb 51       		.byte	0x51
 6140 16fc 03       		.uleb128 0x3
 6141 16fd 91       		.byte	0x91
 6142 16fe 00       		.sleb128 0
 6143 16ff 06       		.byte	0x6
 6144 1700 2C       		.uleb128 0x2c
 6145 1701 01       		.uleb128 0x1
 6146 1702 50       		.byte	0x50
 6147 1703 02       		.uleb128 0x2
 6148 1704 7D       		.byte	0x7d
 6149 1705 00       		.sleb128 0
 6150 1706 00       		.byte	0
ARM GAS  C:\Users\jo\AppData\Local\Temp\ccBWvOPb.s 			page 112


 6151 1707 00       		.byte	0
 6152 1708 47       		.uleb128 0x47
 6153 1709 5A040000 		.4byte	.LASF152
 6154 170d 01       		.byte	0x1
 6155 170e 2302     		.2byte	0x223
 6156 1710 25000000 		.4byte	0x25
 6157 1714 00000000 		.4byte	.LFB14
 6158 1718 64010000 		.4byte	.LFE14-.LFB14
 6159 171c 01       		.uleb128 0x1
 6160 171d 9C       		.byte	0x9c
 6161 171e 7A190000 		.4byte	0x197a
 6162 1722 3B       		.uleb128 0x3b
 6163 1723 60060000 		.4byte	.LASF153
 6164 1727 01       		.byte	0x1
 6165 1728 2302     		.2byte	0x223
 6166 172a 25000000 		.4byte	0x25
 6167 172e B1150000 		.4byte	.LLST91
 6168 1732 3D       		.uleb128 0x3d
 6169 1733 6900     		.ascii	"i\000"
 6170 1735 01       		.byte	0x1
 6171 1736 2502     		.2byte	0x225
 6172 1738 25000000 		.4byte	0x25
 6173 173c CF150000 		.4byte	.LLST92
 6174 1740 4B       		.uleb128 0x4b
 6175 1741 E6010000 		.4byte	.LASF154
 6176 1745 01       		.byte	0x1
 6177 1746 2502     		.2byte	0x225
 6178 1748 25000000 		.4byte	0x25
 6179 174c 50       		.byte	0x50
 6180 174d 45       		.uleb128 0x45
 6181 174e 62756600 		.ascii	"buf\000"
 6182 1752 01       		.byte	0x1
 6183 1753 2602     		.2byte	0x226
 6184 1755 E7100000 		.4byte	0x10e7
 6185 1759 03       		.uleb128 0x3
 6186 175a 91       		.byte	0x91
 6187 175b D877     		.sleb128 -1064
 6188 175d 3E       		.uleb128 0x3e
 6189 175e 92040000 		.4byte	.LASF155
 6190 1762 01       		.byte	0x1
 6191 1763 2702     		.2byte	0x227
 6192 1765 A8120000 		.4byte	0x12a8
 6193 1769 03       		.uleb128 0x3
 6194 176a 91       		.byte	0x91
 6195 176b F075     		.sleb128 -1296
 6196 176d 45       		.uleb128 0x45
 6197 176e 63747800 		.ascii	"ctx\000"
 6198 1772 01       		.byte	0x1
 6199 1773 2802     		.2byte	0x228
 6200 1775 08010000 		.4byte	0x108
 6201 1779 03       		.uleb128 0x3
 6202 177a 91       		.byte	0x91
 6203 177b 8076     		.sleb128 -1280
 6204 177d 3F       		.uleb128 0x3f
 6205 177e E4090000 		.4byte	0x9e4
 6206 1782 7A000000 		.4byte	.LBB141
 6207 1786 18010000 		.4byte	.Ldebug_ranges0+0x118
ARM GAS  C:\Users\jo\AppData\Local\Temp\ccBWvOPb.s 			page 113


 6208 178a 01       		.byte	0x1
 6209 178b 4E02     		.2byte	0x24e
 6210 178d 00180000 		.4byte	0x1800
 6211 1791 2A       		.uleb128 0x2a
 6212 1792 090A0000 		.4byte	0xa09
 6213 1796 44160000 		.4byte	.LLST93
 6214 179a 2A       		.uleb128 0x2a
 6215 179b FD090000 		.4byte	0x9fd
 6216 179f 80160000 		.4byte	.LLST94
 6217 17a3 2A       		.uleb128 0x2a
 6218 17a4 F1090000 		.4byte	0x9f1
 6219 17a8 F6160000 		.4byte	.LLST95
 6220 17ac 4A       		.uleb128 0x4a
 6221 17ad 47090000 		.4byte	0x947
 6222 17b1 7A000000 		.4byte	.LBB142
 6223 17b5 18010000 		.4byte	.Ldebug_ranges0+0x118
 6224 17b9 01       		.byte	0x1
 6225 17ba 8E01     		.2byte	0x18e
 6226 17bc 2A       		.uleb128 0x2a
 6227 17bd 69090000 		.4byte	0x969
 6228 17c1 44160000 		.4byte	.LLST93
 6229 17c5 2A       		.uleb128 0x2a
 6230 17c6 5E090000 		.4byte	0x95e
 6231 17ca 80160000 		.4byte	.LLST94
 6232 17ce 2A       		.uleb128 0x2a
 6233 17cf 53090000 		.4byte	0x953
 6234 17d3 F6160000 		.4byte	.LLST95
 6235 17d7 40       		.uleb128 0x40
 6236 17d8 18010000 		.4byte	.Ldebug_ranges0+0x118
 6237 17dc 38       		.uleb128 0x38
 6238 17dd 74090000 		.4byte	0x974
 6239 17e1 38       		.uleb128 0x38
 6240 17e2 7F090000 		.4byte	0x97f
 6241 17e6 41       		.uleb128 0x41
 6242 17e7 D2000000 		.4byte	.LVL328
 6243 17eb 3D0B0000 		.4byte	0xb3d
 6244 17ef 2C       		.uleb128 0x2c
 6245 17f0 01       		.uleb128 0x1
 6246 17f1 51       		.byte	0x51
 6247 17f2 02       		.uleb128 0x2
 6248 17f3 78       		.byte	0x78
 6249 17f4 00       		.sleb128 0
 6250 17f5 2C       		.uleb128 0x2c
 6251 17f6 01       		.uleb128 0x1
 6252 17f7 50       		.byte	0x50
 6253 17f8 03       		.uleb128 0x3
 6254 17f9 91       		.byte	0x91
 6255 17fa 8076     		.sleb128 -1280
 6256 17fc 00       		.byte	0
 6257 17fd 00       		.byte	0
 6258 17fe 00       		.byte	0
 6259 17ff 00       		.byte	0
 6260 1800 36       		.uleb128 0x36
 6261 1801 28000000 		.4byte	.LVL307
 6262 1805 820D0000 		.4byte	0xd82
 6263 1809 1A180000 		.4byte	0x181a
 6264 180d 2C       		.uleb128 0x2c
ARM GAS  C:\Users\jo\AppData\Local\Temp\ccBWvOPb.s 			page 114


 6265 180e 01       		.uleb128 0x1
 6266 180f 52       		.byte	0x52
 6267 1810 02       		.uleb128 0x2
 6268 1811 7D       		.byte	0x7d
 6269 1812 00       		.sleb128 0
 6270 1813 2C       		.uleb128 0x2c
 6271 1814 01       		.uleb128 0x1
 6272 1815 50       		.byte	0x50
 6273 1816 02       		.uleb128 0x2
 6274 1817 77       		.byte	0x77
 6275 1818 00       		.sleb128 0
 6276 1819 00       		.byte	0
 6277 181a 36       		.uleb128 0x36
 6278 181b 32000000 		.4byte	.LVL308
 6279 181f 5D1B0000 		.4byte	0x1b5d
 6280 1823 39180000 		.4byte	0x1839
 6281 1827 2C       		.uleb128 0x2c
 6282 1828 01       		.uleb128 0x1
 6283 1829 52       		.byte	0x52
 6284 182a 01       		.uleb128 0x1
 6285 182b 40       		.byte	0x40
 6286 182c 2C       		.uleb128 0x2c
 6287 182d 01       		.uleb128 0x1
 6288 182e 51       		.byte	0x51
 6289 182f 02       		.uleb128 0x2
 6290 1830 76       		.byte	0x76
 6291 1831 00       		.sleb128 0
 6292 1832 2C       		.uleb128 0x2c
 6293 1833 01       		.uleb128 0x1
 6294 1834 50       		.byte	0x50
 6295 1835 02       		.uleb128 0x2
 6296 1836 7D       		.byte	0x7d
 6297 1837 00       		.sleb128 0
 6298 1838 00       		.byte	0
 6299 1839 36       		.uleb128 0x36
 6300 183a 76000000 		.4byte	.LVL313
 6301 183e F8100000 		.4byte	0x10f8
 6302 1842 60180000 		.4byte	0x1860
 6303 1846 2C       		.uleb128 0x2c
 6304 1847 01       		.uleb128 0x1
 6305 1848 52       		.byte	0x52
 6306 1849 08       		.uleb128 0x8
 6307 184a 74       		.byte	0x74
 6308 184b 00       		.sleb128 0
 6309 184c 32       		.byte	0x32
 6310 184d 24       		.byte	0x24
 6311 184e 7A       		.byte	0x7a
 6312 184f 00       		.sleb128 0
 6313 1850 22       		.byte	0x22
 6314 1851 06       		.byte	0x6
 6315 1852 2C       		.uleb128 0x2c
 6316 1853 01       		.uleb128 0x1
 6317 1854 51       		.byte	0x51
 6318 1855 02       		.uleb128 0x2
 6319 1856 76       		.byte	0x76
 6320 1857 00       		.sleb128 0
 6321 1858 2C       		.uleb128 0x2c
ARM GAS  C:\Users\jo\AppData\Local\Temp\ccBWvOPb.s 			page 115


 6322 1859 01       		.uleb128 0x1
 6323 185a 50       		.byte	0x50
 6324 185b 03       		.uleb128 0x3
 6325 185c 91       		.byte	0x91
 6326 185d 8076     		.sleb128 -1280
 6327 185f 00       		.byte	0
 6328 1860 36       		.uleb128 0x36
 6329 1861 84000000 		.4byte	.LVL317
 6330 1865 30130000 		.4byte	0x1330
 6331 1869 7B180000 		.4byte	0x187b
 6332 186d 2C       		.uleb128 0x2c
 6333 186e 01       		.uleb128 0x1
 6334 186f 51       		.byte	0x51
 6335 1870 02       		.uleb128 0x2
 6336 1871 7D       		.byte	0x7d
 6337 1872 00       		.sleb128 0
 6338 1873 2C       		.uleb128 0x2c
 6339 1874 01       		.uleb128 0x1
 6340 1875 50       		.byte	0x50
 6341 1876 03       		.uleb128 0x3
 6342 1877 91       		.byte	0x91
 6343 1878 8076     		.sleb128 -1280
 6344 187a 00       		.byte	0
 6345 187b 36       		.uleb128 0x36
 6346 187c 94000000 		.4byte	.LVL318
 6347 1880 5D1B0000 		.4byte	0x1b5d
 6348 1884 95180000 		.4byte	0x1895
 6349 1888 2C       		.uleb128 0x2c
 6350 1889 01       		.uleb128 0x1
 6351 188a 51       		.byte	0x51
 6352 188b 02       		.uleb128 0x2
 6353 188c 77       		.byte	0x77
 6354 188d 00       		.sleb128 0
 6355 188e 2C       		.uleb128 0x2c
 6356 188f 01       		.uleb128 0x1
 6357 1890 50       		.byte	0x50
 6358 1891 02       		.uleb128 0x2
 6359 1892 7D       		.byte	0x7d
 6360 1893 00       		.sleb128 0
 6361 1894 00       		.byte	0
 6362 1895 36       		.uleb128 0x36
 6363 1896 C0000000 		.4byte	.LVL323
 6364 189a 7C1B0000 		.4byte	0x1b7c
 6365 189e B2180000 		.4byte	0x18b2
 6366 18a2 2C       		.uleb128 0x2c
 6367 18a3 01       		.uleb128 0x1
 6368 18a4 51       		.byte	0x51
 6369 18a5 02       		.uleb128 0x2
 6370 18a6 78       		.byte	0x78
 6371 18a7 00       		.sleb128 0
 6372 18a8 2C       		.uleb128 0x2c
 6373 18a9 01       		.uleb128 0x1
 6374 18aa 50       		.byte	0x50
 6375 18ab 05       		.uleb128 0x5
 6376 18ac 03       		.byte	0x3
 6377 18ad 04000000 		.4byte	.LC1
 6378 18b1 00       		.byte	0
ARM GAS  C:\Users\jo\AppData\Local\Temp\ccBWvOPb.s 			page 116


 6379 18b2 36       		.uleb128 0x36
 6380 18b3 C8000000 		.4byte	.LVL325
 6381 18b7 921B0000 		.4byte	0x1b92
 6382 18bb C9180000 		.4byte	0x18c9
 6383 18bf 2C       		.uleb128 0x2c
 6384 18c0 01       		.uleb128 0x1
 6385 18c1 50       		.byte	0x50
 6386 18c2 05       		.uleb128 0x5
 6387 18c3 03       		.byte	0x3
 6388 18c4 20000000 		.4byte	.LC3
 6389 18c8 00       		.byte	0
 6390 18c9 36       		.uleb128 0x36
 6391 18ca DC000000 		.4byte	.LVL330
 6392 18ce 7C1B0000 		.4byte	0x1b7c
 6393 18d2 E6180000 		.4byte	0x18e6
 6394 18d6 2C       		.uleb128 0x2c
 6395 18d7 01       		.uleb128 0x1
 6396 18d8 51       		.byte	0x51
 6397 18d9 02       		.uleb128 0x2
 6398 18da 74       		.byte	0x74
 6399 18db 01       		.sleb128 1
 6400 18dc 2C       		.uleb128 0x2c
 6401 18dd 01       		.uleb128 0x1
 6402 18de 50       		.byte	0x50
 6403 18df 05       		.uleb128 0x5
 6404 18e0 03       		.byte	0x3
 6405 18e1 28000000 		.4byte	.LC4
 6406 18e5 00       		.byte	0
 6407 18e6 36       		.uleb128 0x36
 6408 18e7 E4000000 		.4byte	.LVL332
 6409 18eb 921B0000 		.4byte	0x1b92
 6410 18ef FD180000 		.4byte	0x18fd
 6411 18f3 2C       		.uleb128 0x2c
 6412 18f4 01       		.uleb128 0x1
 6413 18f5 50       		.byte	0x50
 6414 18f6 05       		.uleb128 0x5
 6415 18f7 03       		.byte	0x3
 6416 18f8 20000000 		.4byte	.LC3
 6417 18fc 00       		.byte	0
 6418 18fd 36       		.uleb128 0x36
 6419 18fe EC000000 		.4byte	.LVL334
 6420 1902 AB1B0000 		.4byte	0x1bab
 6421 1906 10190000 		.4byte	0x1910
 6422 190a 2C       		.uleb128 0x2c
 6423 190b 01       		.uleb128 0x1
 6424 190c 50       		.byte	0x50
 6425 190d 01       		.uleb128 0x1
 6426 190e 3A       		.byte	0x3a
 6427 190f 00       		.byte	0
 6428 1910 36       		.uleb128 0x36
 6429 1911 04010000 		.4byte	.LVL336
 6430 1915 921B0000 		.4byte	0x1b92
 6431 1919 27190000 		.4byte	0x1927
 6432 191d 2C       		.uleb128 0x2c
 6433 191e 01       		.uleb128 0x1
 6434 191f 50       		.byte	0x50
 6435 1920 05       		.uleb128 0x5
ARM GAS  C:\Users\jo\AppData\Local\Temp\ccBWvOPb.s 			page 117


 6436 1921 03       		.byte	0x3
 6437 1922 18000000 		.4byte	.LC2
 6438 1926 00       		.byte	0
 6439 1927 36       		.uleb128 0x36
 6440 1928 18010000 		.4byte	.LVL338
 6441 192c AB1B0000 		.4byte	0x1bab
 6442 1930 3A190000 		.4byte	0x193a
 6443 1934 2C       		.uleb128 0x2c
 6444 1935 01       		.uleb128 0x1
 6445 1936 50       		.byte	0x50
 6446 1937 01       		.uleb128 0x1
 6447 1938 3A       		.byte	0x3a
 6448 1939 00       		.byte	0
 6449 193a 36       		.uleb128 0x36
 6450 193b 24010000 		.4byte	.LVL340
 6451 193f 3E1B0000 		.4byte	0x1b3e
 6452 1943 5B190000 		.4byte	0x195b
 6453 1947 2C       		.uleb128 0x2c
 6454 1948 01       		.uleb128 0x1
 6455 1949 52       		.byte	0x52
 6456 194a 02       		.uleb128 0x2
 6457 194b 08       		.byte	0x8
 6458 194c 50       		.byte	0x50
 6459 194d 2C       		.uleb128 0x2c
 6460 194e 01       		.uleb128 0x1
 6461 194f 51       		.byte	0x51
 6462 1950 02       		.uleb128 0x2
 6463 1951 08       		.byte	0x8
 6464 1952 AA       		.byte	0xaa
 6465 1953 2C       		.uleb128 0x2c
 6466 1954 01       		.uleb128 0x1
 6467 1955 50       		.byte	0x50
 6468 1956 03       		.uleb128 0x3
 6469 1957 91       		.byte	0x91
 6470 1958 D877     		.sleb128 -1064
 6471 195a 00       		.byte	0
 6472 195b 41       		.uleb128 0x41
 6473 195c 2E010000 		.4byte	.LVL341
 6474 1960 F8100000 		.4byte	0x10f8
 6475 1964 2C       		.uleb128 0x2c
 6476 1965 01       		.uleb128 0x1
 6477 1966 52       		.byte	0x52
 6478 1967 02       		.uleb128 0x2
 6479 1968 08       		.byte	0x8
 6480 1969 50       		.byte	0x50
 6481 196a 2C       		.uleb128 0x2c
 6482 196b 01       		.uleb128 0x1
 6483 196c 51       		.byte	0x51
 6484 196d 03       		.uleb128 0x3
 6485 196e 91       		.byte	0x91
 6486 196f D877     		.sleb128 -1064
 6487 1971 2C       		.uleb128 0x2c
 6488 1972 01       		.uleb128 0x1
 6489 1973 50       		.byte	0x50
 6490 1974 03       		.uleb128 0x3
 6491 1975 91       		.byte	0x91
 6492 1976 8076     		.sleb128 -1280
ARM GAS  C:\Users\jo\AppData\Local\Temp\ccBWvOPb.s 			page 118


 6493 1978 00       		.byte	0
 6494 1979 00       		.byte	0
 6495 197a 3E       		.uleb128 0x3e
 6496 197b 2C000000 		.4byte	.LASF156
 6497 197f 01       		.byte	0x1
 6498 1980 1301     		.2byte	0x113
 6499 1982 8C190000 		.4byte	0x198c
 6500 1986 05       		.uleb128 0x5
 6501 1987 03       		.byte	0x3
 6502 1988 00000000 		.4byte	md5_padding
 6503 198c 18       		.uleb128 0x18
 6504 198d F8000000 		.4byte	0xf8
 6505 1991 07       		.uleb128 0x7
 6506 1992 45000000 		.4byte	0x45
 6507 1996 A7190000 		.4byte	0x19a7
 6508 199a 08       		.uleb128 0x8
 6509 199b E1000000 		.4byte	0xe1
 6510 199f 06       		.byte	0x6
 6511 19a0 08       		.uleb128 0x8
 6512 19a1 E1000000 		.4byte	0xe1
 6513 19a5 50       		.byte	0x50
 6514 19a6 00       		.byte	0
 6515 19a7 3E       		.uleb128 0x3e
 6516 19a8 51050000 		.4byte	.LASF157
 6517 19ac 01       		.byte	0x1
 6518 19ad BE01     		.2byte	0x1be
 6519 19af B9190000 		.4byte	0x19b9
 6520 19b3 05       		.uleb128 0x5
 6521 19b4 03       		.byte	0x3
 6522 19b5 00000000 		.4byte	md5_test_buf
 6523 19b9 18       		.uleb128 0x18
 6524 19ba 91190000 		.4byte	0x1991
 6525 19be 07       		.uleb128 0x7
 6526 19bf 25000000 		.4byte	0x25
 6527 19c3 CE190000 		.4byte	0x19ce
 6528 19c7 08       		.uleb128 0x8
 6529 19c8 E1000000 		.4byte	0xe1
 6530 19cc 06       		.byte	0x6
 6531 19cd 00       		.byte	0
 6532 19ce 3E       		.uleb128 0x3e
 6533 19cf ED010000 		.4byte	.LASF158
 6534 19d3 01       		.byte	0x1
 6535 19d4 CA01     		.2byte	0x1ca
 6536 19d6 E0190000 		.4byte	0x19e0
 6537 19da 05       		.uleb128 0x5
 6538 19db 03       		.byte	0x3
 6539 19dc 00000000 		.4byte	md5_test_buflen
 6540 19e0 18       		.uleb128 0x18
 6541 19e1 BE190000 		.4byte	0x19be
 6542 19e5 07       		.uleb128 0x7
 6543 19e6 45000000 		.4byte	0x45
 6544 19ea FB190000 		.4byte	0x19fb
 6545 19ee 08       		.uleb128 0x8
 6546 19ef E1000000 		.4byte	0xe1
 6547 19f3 06       		.byte	0x6
 6548 19f4 08       		.uleb128 0x8
 6549 19f5 E1000000 		.4byte	0xe1
ARM GAS  C:\Users\jo\AppData\Local\Temp\ccBWvOPb.s 			page 119


 6550 19f9 0F       		.byte	0xf
 6551 19fa 00       		.byte	0
 6552 19fb 3E       		.uleb128 0x3e
 6553 19fc FC040000 		.4byte	.LASF159
 6554 1a00 01       		.byte	0x1
 6555 1a01 CF01     		.2byte	0x1cf
 6556 1a03 0D1A0000 		.4byte	0x1a0d
 6557 1a07 05       		.uleb128 0x5
 6558 1a08 03       		.byte	0x3
 6559 1a09 00000000 		.4byte	md5_test_sum
 6560 1a0d 18       		.uleb128 0x18
 6561 1a0e E5190000 		.4byte	0x19e5
 6562 1a12 07       		.uleb128 0x7
 6563 1a13 45000000 		.4byte	0x45
 6564 1a17 281A0000 		.4byte	0x1a28
 6565 1a1b 08       		.uleb128 0x8
 6566 1a1c E1000000 		.4byte	0xe1
 6567 1a20 06       		.byte	0x6
 6568 1a21 08       		.uleb128 0x8
 6569 1a22 E1000000 		.4byte	0xe1
 6570 1a26 19       		.byte	0x19
 6571 1a27 00       		.byte	0
 6572 1a28 3E       		.uleb128 0x3e
 6573 1a29 EA040000 		.4byte	.LASF160
 6574 1a2d 01       		.byte	0x1
 6575 1a2e E401     		.2byte	0x1e4
 6576 1a30 3A1A0000 		.4byte	0x1a3a
 6577 1a34 05       		.uleb128 0x5
 6578 1a35 03       		.byte	0x3
 6579 1a36 00000000 		.4byte	md5_hmac_test_key
 6580 1a3a 18       		.uleb128 0x18
 6581 1a3b 121A0000 		.4byte	0x1a12
 6582 1a3f 3E       		.uleb128 0x3e
 6583 1a40 AD020000 		.4byte	.LASF161
 6584 1a44 01       		.byte	0x1
 6585 1a45 F001     		.2byte	0x1f0
 6586 1a47 511A0000 		.4byte	0x1a51
 6587 1a4b 05       		.uleb128 0x5
 6588 1a4c 03       		.byte	0x3
 6589 1a4d 00000000 		.4byte	md5_hmac_test_keylen
 6590 1a51 18       		.uleb128 0x18
 6591 1a52 BE190000 		.4byte	0x19be
 6592 1a56 07       		.uleb128 0x7
 6593 1a57 45000000 		.4byte	0x45
 6594 1a5b 6C1A0000 		.4byte	0x1a6c
 6595 1a5f 08       		.uleb128 0x8
 6596 1a60 E1000000 		.4byte	0xe1
 6597 1a64 06       		.byte	0x6
 6598 1a65 08       		.uleb128 0x8
 6599 1a66 E1000000 		.4byte	0xe1
 6600 1a6a 49       		.byte	0x49
 6601 1a6b 00       		.byte	0
 6602 1a6c 3E       		.uleb128 0x3e
 6603 1a6d 68040000 		.4byte	.LASF162
 6604 1a71 01       		.byte	0x1
 6605 1a72 F501     		.2byte	0x1f5
 6606 1a74 7E1A0000 		.4byte	0x1a7e
ARM GAS  C:\Users\jo\AppData\Local\Temp\ccBWvOPb.s 			page 120


 6607 1a78 05       		.uleb128 0x5
 6608 1a79 03       		.byte	0x3
 6609 1a7a 00000000 		.4byte	md5_hmac_test_buf
 6610 1a7e 18       		.uleb128 0x18
 6611 1a7f 561A0000 		.4byte	0x1a56
 6612 1a83 3E       		.uleb128 0x3e
 6613 1a84 75060000 		.4byte	.LASF163
 6614 1a88 01       		.byte	0x1
 6615 1a89 0902     		.2byte	0x209
 6616 1a8b 951A0000 		.4byte	0x1a95
 6617 1a8f 05       		.uleb128 0x5
 6618 1a90 03       		.byte	0x3
 6619 1a91 00000000 		.4byte	md5_hmac_test_buflen
 6620 1a95 18       		.uleb128 0x18
 6621 1a96 BE190000 		.4byte	0x19be
 6622 1a9a 3E       		.uleb128 0x3e
 6623 1a9b AE060000 		.4byte	.LASF164
 6624 1a9f 01       		.byte	0x1
 6625 1aa0 0E02     		.2byte	0x20e
 6626 1aa2 AC1A0000 		.4byte	0x1aac
 6627 1aa6 05       		.uleb128 0x5
 6628 1aa7 03       		.byte	0x3
 6629 1aa8 00000000 		.4byte	md5_hmac_test_sum
 6630 1aac 18       		.uleb128 0x18
 6631 1aad E5190000 		.4byte	0x19e5
 6632 1ab1 4C       		.uleb128 0x4c
 6633 1ab2 F8060000 		.4byte	.LASF165
 6634 1ab6 A6010000 		.4byte	0x1a6
 6635 1aba CE1A0000 		.4byte	0x1ace
 6636 1abe 14       		.uleb128 0x14
 6637 1abf A6010000 		.4byte	0x1a6
 6638 1ac3 14       		.uleb128 0x14
 6639 1ac4 25000000 		.4byte	0x25
 6640 1ac8 14       		.uleb128 0x14
 6641 1ac9 E1000000 		.4byte	0xe1
 6642 1acd 00       		.byte	0
 6643 1ace 4C       		.uleb128 0x4c
 6644 1acf 3A030000 		.4byte	.LASF166
 6645 1ad3 A6010000 		.4byte	0x1a6
 6646 1ad7 EB1A0000 		.4byte	0x1aeb
 6647 1adb 14       		.uleb128 0x14
 6648 1adc A6010000 		.4byte	0x1a6
 6649 1ae0 14       		.uleb128 0x14
 6650 1ae1 0D090000 		.4byte	0x90d
 6651 1ae5 14       		.uleb128 0x14
 6652 1ae6 E1000000 		.4byte	0xe1
 6653 1aea 00       		.byte	0
 6654 1aeb 4D       		.uleb128 0x4d
 6655 1aec 1F050000 		.4byte	.LASF167
 6656 1af0 09       		.byte	0x9
 6657 1af1 DC       		.byte	0xdc
 6658 1af2 E1100000 		.4byte	0x10e1
 6659 1af6 051B0000 		.4byte	0x1b05
 6660 1afa 14       		.uleb128 0x14
 6661 1afb 1C060000 		.4byte	0x61c
 6662 1aff 14       		.uleb128 0x14
 6663 1b00 1C060000 		.4byte	0x61c
ARM GAS  C:\Users\jo\AppData\Local\Temp\ccBWvOPb.s 			page 121


 6664 1b04 00       		.byte	0
 6665 1b05 4D       		.uleb128 0x4d
 6666 1b06 F5050000 		.4byte	.LASF168
 6667 1b0a 09       		.byte	0x9
 6668 1b0b C8       		.byte	0xc8
 6669 1b0c 2C000000 		.4byte	0x2c
 6670 1b10 291B0000 		.4byte	0x1b29
 6671 1b14 14       		.uleb128 0x14
 6672 1b15 A6010000 		.4byte	0x1a6
 6673 1b19 14       		.uleb128 0x14
 6674 1b1a 2C000000 		.4byte	0x2c
 6675 1b1e 14       		.uleb128 0x14
 6676 1b1f 2C000000 		.4byte	0x2c
 6677 1b23 14       		.uleb128 0x14
 6678 1b24 E1100000 		.4byte	0x10e1
 6679 1b28 00       		.byte	0
 6680 1b29 4D       		.uleb128 0x4d
 6681 1b2a FE020000 		.4byte	.LASF169
 6682 1b2e 09       		.byte	0x9
 6683 1b2f A8       		.byte	0xa8
 6684 1b30 25000000 		.4byte	0x25
 6685 1b34 3E1B0000 		.4byte	0x1b3e
 6686 1b38 14       		.uleb128 0x14
 6687 1b39 E1100000 		.4byte	0x10e1
 6688 1b3d 00       		.byte	0
 6689 1b3e 4D       		.uleb128 0x4d
 6690 1b3f F8060000 		.4byte	.LASF165
 6691 1b43 0A       		.byte	0xa
 6692 1b44 19       		.byte	0x19
 6693 1b45 A6010000 		.4byte	0x1a6
 6694 1b49 5D1B0000 		.4byte	0x1b5d
 6695 1b4d 14       		.uleb128 0x14
 6696 1b4e A6010000 		.4byte	0x1a6
 6697 1b52 14       		.uleb128 0x14
 6698 1b53 25000000 		.4byte	0x25
 6699 1b57 14       		.uleb128 0x14
 6700 1b58 2C000000 		.4byte	0x2c
 6701 1b5c 00       		.byte	0
 6702 1b5d 4D       		.uleb128 0x4d
 6703 1b5e DE070000 		.4byte	.LASF170
 6704 1b62 0A       		.byte	0xa
 6705 1b63 16       		.byte	0x16
 6706 1b64 25000000 		.4byte	0x25
 6707 1b68 7C1B0000 		.4byte	0x1b7c
 6708 1b6c 14       		.uleb128 0x14
 6709 1b6d 0D090000 		.4byte	0x90d
 6710 1b71 14       		.uleb128 0x14
 6711 1b72 0D090000 		.4byte	0x90d
 6712 1b76 14       		.uleb128 0x14
 6713 1b77 2C000000 		.4byte	0x2c
 6714 1b7b 00       		.byte	0
 6715 1b7c 4D       		.uleb128 0x4d
 6716 1b7d 6F000000 		.4byte	.LASF171
 6717 1b81 09       		.byte	0x9
 6718 1b82 B1       		.byte	0xb1
 6719 1b83 25000000 		.4byte	0x25
 6720 1b87 921B0000 		.4byte	0x1b92
ARM GAS  C:\Users\jo\AppData\Local\Temp\ccBWvOPb.s 			page 122


 6721 1b8b 14       		.uleb128 0x14
 6722 1b8c 1C060000 		.4byte	0x61c
 6723 1b90 4E       		.uleb128 0x4e
 6724 1b91 00       		.byte	0
 6725 1b92 4F       		.uleb128 0x4f
 6726 1b93 89010000 		.4byte	.LASF177
 6727 1b97 0B       		.byte	0xb
 6728 1b98 00       		.byte	0
 6729 1b99 C5070000 		.4byte	.LASF178
 6730 1b9d 25000000 		.4byte	0x25
 6731 1ba1 AB1B0000 		.4byte	0x1bab
 6732 1ba5 14       		.uleb128 0x14
 6733 1ba6 1C060000 		.4byte	0x61c
 6734 1baa 00       		.byte	0
 6735 1bab 50       		.uleb128 0x50
 6736 1bac CD020000 		.4byte	.LASF172
 6737 1bb0 0B       		.byte	0xb
 6738 1bb1 00       		.byte	0
 6739 1bb2 A1010000 		.4byte	.LASF179
 6740 1bb6 25000000 		.4byte	0x25
 6741 1bba 14       		.uleb128 0x14
 6742 1bbb 25000000 		.4byte	0x25
 6743 1bbf 00       		.byte	0
 6744 1bc0 00       		.byte	0
 6745              		.section	.debug_abbrev,"",%progbits
 6746              	.Ldebug_abbrev0:
 6747 0000 01       		.uleb128 0x1
 6748 0001 11       		.uleb128 0x11
 6749 0002 01       		.byte	0x1
 6750 0003 25       		.uleb128 0x25
 6751 0004 0E       		.uleb128 0xe
 6752 0005 13       		.uleb128 0x13
 6753 0006 0B       		.uleb128 0xb
 6754 0007 03       		.uleb128 0x3
 6755 0008 0E       		.uleb128 0xe
 6756 0009 1B       		.uleb128 0x1b
 6757 000a 0E       		.uleb128 0xe
 6758 000b 55       		.uleb128 0x55
 6759 000c 17       		.uleb128 0x17
 6760 000d 11       		.uleb128 0x11
 6761 000e 01       		.uleb128 0x1
 6762 000f 10       		.uleb128 0x10
 6763 0010 17       		.uleb128 0x17
 6764 0011 00       		.byte	0
 6765 0012 00       		.byte	0
 6766 0013 02       		.uleb128 0x2
 6767 0014 24       		.uleb128 0x24
 6768 0015 00       		.byte	0
 6769 0016 0B       		.uleb128 0xb
 6770 0017 0B       		.uleb128 0xb
 6771 0018 3E       		.uleb128 0x3e
 6772 0019 0B       		.uleb128 0xb
 6773 001a 03       		.uleb128 0x3
 6774 001b 08       		.uleb128 0x8
 6775 001c 00       		.byte	0
 6776 001d 00       		.byte	0
 6777 001e 03       		.uleb128 0x3
ARM GAS  C:\Users\jo\AppData\Local\Temp\ccBWvOPb.s 			page 123


 6778 001f 16       		.uleb128 0x16
 6779 0020 00       		.byte	0
 6780 0021 03       		.uleb128 0x3
 6781 0022 0E       		.uleb128 0xe
 6782 0023 3A       		.uleb128 0x3a
 6783 0024 0B       		.uleb128 0xb
 6784 0025 3B       		.uleb128 0x3b
 6785 0026 0B       		.uleb128 0xb
 6786 0027 49       		.uleb128 0x49
 6787 0028 13       		.uleb128 0x13
 6788 0029 00       		.byte	0
 6789 002a 00       		.byte	0
 6790 002b 04       		.uleb128 0x4
 6791 002c 24       		.uleb128 0x24
 6792 002d 00       		.byte	0
 6793 002e 0B       		.uleb128 0xb
 6794 002f 0B       		.uleb128 0xb
 6795 0030 3E       		.uleb128 0x3e
 6796 0031 0B       		.uleb128 0xb
 6797 0032 03       		.uleb128 0x3
 6798 0033 0E       		.uleb128 0xe
 6799 0034 00       		.byte	0
 6800 0035 00       		.byte	0
 6801 0036 05       		.uleb128 0x5
 6802 0037 13       		.uleb128 0x13
 6803 0038 01       		.byte	0x1
 6804 0039 0B       		.uleb128 0xb
 6805 003a 0B       		.uleb128 0xb
 6806 003b 3A       		.uleb128 0x3a
 6807 003c 0B       		.uleb128 0xb
 6808 003d 3B       		.uleb128 0x3b
 6809 003e 0B       		.uleb128 0xb
 6810 003f 01       		.uleb128 0x1
 6811 0040 13       		.uleb128 0x13
 6812 0041 00       		.byte	0
 6813 0042 00       		.byte	0
 6814 0043 06       		.uleb128 0x6
 6815 0044 0D       		.uleb128 0xd
 6816 0045 00       		.byte	0
 6817 0046 03       		.uleb128 0x3
 6818 0047 0E       		.uleb128 0xe
 6819 0048 3A       		.uleb128 0x3a
 6820 0049 0B       		.uleb128 0xb
 6821 004a 3B       		.uleb128 0x3b
 6822 004b 0B       		.uleb128 0xb
 6823 004c 49       		.uleb128 0x49
 6824 004d 13       		.uleb128 0x13
 6825 004e 38       		.uleb128 0x38
 6826 004f 0B       		.uleb128 0xb
 6827 0050 00       		.byte	0
 6828 0051 00       		.byte	0
 6829 0052 07       		.uleb128 0x7
 6830 0053 01       		.uleb128 0x1
 6831 0054 01       		.byte	0x1
 6832 0055 49       		.uleb128 0x49
 6833 0056 13       		.uleb128 0x13
 6834 0057 01       		.uleb128 0x1
ARM GAS  C:\Users\jo\AppData\Local\Temp\ccBWvOPb.s 			page 124


 6835 0058 13       		.uleb128 0x13
 6836 0059 00       		.byte	0
 6837 005a 00       		.byte	0
 6838 005b 08       		.uleb128 0x8
 6839 005c 21       		.uleb128 0x21
 6840 005d 00       		.byte	0
 6841 005e 49       		.uleb128 0x49
 6842 005f 13       		.uleb128 0x13
 6843 0060 2F       		.uleb128 0x2f
 6844 0061 0B       		.uleb128 0xb
 6845 0062 00       		.byte	0
 6846 0063 00       		.byte	0
 6847 0064 09       		.uleb128 0x9
 6848 0065 16       		.uleb128 0x16
 6849 0066 00       		.byte	0
 6850 0067 03       		.uleb128 0x3
 6851 0068 0E       		.uleb128 0xe
 6852 0069 3A       		.uleb128 0x3a
 6853 006a 0B       		.uleb128 0xb
 6854 006b 3B       		.uleb128 0x3b
 6855 006c 05       		.uleb128 0x5
 6856 006d 49       		.uleb128 0x49
 6857 006e 13       		.uleb128 0x13
 6858 006f 00       		.byte	0
 6859 0070 00       		.byte	0
 6860 0071 0A       		.uleb128 0xa
 6861 0072 17       		.uleb128 0x17
 6862 0073 01       		.byte	0x1
 6863 0074 0B       		.uleb128 0xb
 6864 0075 0B       		.uleb128 0xb
 6865 0076 3A       		.uleb128 0x3a
 6866 0077 0B       		.uleb128 0xb
 6867 0078 3B       		.uleb128 0x3b
 6868 0079 0B       		.uleb128 0xb
 6869 007a 01       		.uleb128 0x1
 6870 007b 13       		.uleb128 0x13
 6871 007c 00       		.byte	0
 6872 007d 00       		.byte	0
 6873 007e 0B       		.uleb128 0xb
 6874 007f 0D       		.uleb128 0xd
 6875 0080 00       		.byte	0
 6876 0081 03       		.uleb128 0x3
 6877 0082 0E       		.uleb128 0xe
 6878 0083 3A       		.uleb128 0x3a
 6879 0084 0B       		.uleb128 0xb
 6880 0085 3B       		.uleb128 0x3b
 6881 0086 0B       		.uleb128 0xb
 6882 0087 49       		.uleb128 0x49
 6883 0088 13       		.uleb128 0x13
 6884 0089 00       		.byte	0
 6885 008a 00       		.byte	0
 6886 008b 0C       		.uleb128 0xc
 6887 008c 0F       		.uleb128 0xf
 6888 008d 00       		.byte	0
 6889 008e 0B       		.uleb128 0xb
 6890 008f 0B       		.uleb128 0xb
 6891 0090 00       		.byte	0
ARM GAS  C:\Users\jo\AppData\Local\Temp\ccBWvOPb.s 			page 125


 6892 0091 00       		.byte	0
 6893 0092 0D       		.uleb128 0xd
 6894 0093 13       		.uleb128 0x13
 6895 0094 01       		.byte	0x1
 6896 0095 03       		.uleb128 0x3
 6897 0096 0E       		.uleb128 0xe
 6898 0097 0B       		.uleb128 0xb
 6899 0098 0B       		.uleb128 0xb
 6900 0099 3A       		.uleb128 0x3a
 6901 009a 0B       		.uleb128 0xb
 6902 009b 3B       		.uleb128 0x3b
 6903 009c 0B       		.uleb128 0xb
 6904 009d 01       		.uleb128 0x1
 6905 009e 13       		.uleb128 0x13
 6906 009f 00       		.byte	0
 6907 00a0 00       		.byte	0
 6908 00a1 0E       		.uleb128 0xe
 6909 00a2 0D       		.uleb128 0xd
 6910 00a3 00       		.byte	0
 6911 00a4 03       		.uleb128 0x3
 6912 00a5 08       		.uleb128 0x8
 6913 00a6 3A       		.uleb128 0x3a
 6914 00a7 0B       		.uleb128 0xb
 6915 00a8 3B       		.uleb128 0x3b
 6916 00a9 0B       		.uleb128 0xb
 6917 00aa 49       		.uleb128 0x49
 6918 00ab 13       		.uleb128 0x13
 6919 00ac 38       		.uleb128 0x38
 6920 00ad 0B       		.uleb128 0xb
 6921 00ae 00       		.byte	0
 6922 00af 00       		.byte	0
 6923 00b0 0F       		.uleb128 0xf
 6924 00b1 0F       		.uleb128 0xf
 6925 00b2 00       		.byte	0
 6926 00b3 0B       		.uleb128 0xb
 6927 00b4 0B       		.uleb128 0xb
 6928 00b5 49       		.uleb128 0x49
 6929 00b6 13       		.uleb128 0x13
 6930 00b7 00       		.byte	0
 6931 00b8 00       		.byte	0
 6932 00b9 10       		.uleb128 0x10
 6933 00ba 13       		.uleb128 0x13
 6934 00bb 01       		.byte	0x1
 6935 00bc 03       		.uleb128 0x3
 6936 00bd 0E       		.uleb128 0xe
 6937 00be 0B       		.uleb128 0xb
 6938 00bf 05       		.uleb128 0x5
 6939 00c0 3A       		.uleb128 0x3a
 6940 00c1 0B       		.uleb128 0xb
 6941 00c2 3B       		.uleb128 0x3b
 6942 00c3 0B       		.uleb128 0xb
 6943 00c4 01       		.uleb128 0x1
 6944 00c5 13       		.uleb128 0x13
 6945 00c6 00       		.byte	0
 6946 00c7 00       		.byte	0
 6947 00c8 11       		.uleb128 0x11
 6948 00c9 0D       		.uleb128 0xd
ARM GAS  C:\Users\jo\AppData\Local\Temp\ccBWvOPb.s 			page 126


 6949 00ca 00       		.byte	0
 6950 00cb 03       		.uleb128 0x3
 6951 00cc 0E       		.uleb128 0xe
 6952 00cd 3A       		.uleb128 0x3a
 6953 00ce 0B       		.uleb128 0xb
 6954 00cf 3B       		.uleb128 0x3b
 6955 00d0 0B       		.uleb128 0xb
 6956 00d1 49       		.uleb128 0x49
 6957 00d2 13       		.uleb128 0x13
 6958 00d3 38       		.uleb128 0x38
 6959 00d4 05       		.uleb128 0x5
 6960 00d5 00       		.byte	0
 6961 00d6 00       		.byte	0
 6962 00d7 12       		.uleb128 0x12
 6963 00d8 15       		.uleb128 0x15
 6964 00d9 00       		.byte	0
 6965 00da 27       		.uleb128 0x27
 6966 00db 19       		.uleb128 0x19
 6967 00dc 00       		.byte	0
 6968 00dd 00       		.byte	0
 6969 00de 13       		.uleb128 0x13
 6970 00df 15       		.uleb128 0x15
 6971 00e0 01       		.byte	0x1
 6972 00e1 27       		.uleb128 0x27
 6973 00e2 19       		.uleb128 0x19
 6974 00e3 49       		.uleb128 0x49
 6975 00e4 13       		.uleb128 0x13
 6976 00e5 01       		.uleb128 0x1
 6977 00e6 13       		.uleb128 0x13
 6978 00e7 00       		.byte	0
 6979 00e8 00       		.byte	0
 6980 00e9 14       		.uleb128 0x14
 6981 00ea 05       		.uleb128 0x5
 6982 00eb 00       		.byte	0
 6983 00ec 49       		.uleb128 0x49
 6984 00ed 13       		.uleb128 0x13
 6985 00ee 00       		.byte	0
 6986 00ef 00       		.byte	0
 6987 00f0 15       		.uleb128 0x15
 6988 00f1 13       		.uleb128 0x13
 6989 00f2 01       		.byte	0x1
 6990 00f3 03       		.uleb128 0x3
 6991 00f4 0E       		.uleb128 0xe
 6992 00f5 0B       		.uleb128 0xb
 6993 00f6 05       		.uleb128 0x5
 6994 00f7 3A       		.uleb128 0x3a
 6995 00f8 0B       		.uleb128 0xb
 6996 00f9 3B       		.uleb128 0x3b
 6997 00fa 05       		.uleb128 0x5
 6998 00fb 01       		.uleb128 0x1
 6999 00fc 13       		.uleb128 0x13
 7000 00fd 00       		.byte	0
 7001 00fe 00       		.byte	0
 7002 00ff 16       		.uleb128 0x16
 7003 0100 0D       		.uleb128 0xd
 7004 0101 00       		.byte	0
 7005 0102 03       		.uleb128 0x3
ARM GAS  C:\Users\jo\AppData\Local\Temp\ccBWvOPb.s 			page 127


 7006 0103 0E       		.uleb128 0xe
 7007 0104 3A       		.uleb128 0x3a
 7008 0105 0B       		.uleb128 0xb
 7009 0106 3B       		.uleb128 0x3b
 7010 0107 05       		.uleb128 0x5
 7011 0108 49       		.uleb128 0x49
 7012 0109 13       		.uleb128 0x13
 7013 010a 38       		.uleb128 0x38
 7014 010b 0B       		.uleb128 0xb
 7015 010c 00       		.byte	0
 7016 010d 00       		.byte	0
 7017 010e 17       		.uleb128 0x17
 7018 010f 0D       		.uleb128 0xd
 7019 0110 00       		.byte	0
 7020 0111 03       		.uleb128 0x3
 7021 0112 0E       		.uleb128 0xe
 7022 0113 3A       		.uleb128 0x3a
 7023 0114 0B       		.uleb128 0xb
 7024 0115 3B       		.uleb128 0x3b
 7025 0116 05       		.uleb128 0x5
 7026 0117 49       		.uleb128 0x49
 7027 0118 13       		.uleb128 0x13
 7028 0119 38       		.uleb128 0x38
 7029 011a 05       		.uleb128 0x5
 7030 011b 00       		.byte	0
 7031 011c 00       		.byte	0
 7032 011d 18       		.uleb128 0x18
 7033 011e 26       		.uleb128 0x26
 7034 011f 00       		.byte	0
 7035 0120 49       		.uleb128 0x49
 7036 0121 13       		.uleb128 0x13
 7037 0122 00       		.byte	0
 7038 0123 00       		.byte	0
 7039 0124 19       		.uleb128 0x19
 7040 0125 13       		.uleb128 0x13
 7041 0126 01       		.byte	0x1
 7042 0127 03       		.uleb128 0x3
 7043 0128 0E       		.uleb128 0xe
 7044 0129 0B       		.uleb128 0xb
 7045 012a 0B       		.uleb128 0xb
 7046 012b 3A       		.uleb128 0x3a
 7047 012c 0B       		.uleb128 0xb
 7048 012d 3B       		.uleb128 0x3b
 7049 012e 05       		.uleb128 0x5
 7050 012f 01       		.uleb128 0x1
 7051 0130 13       		.uleb128 0x13
 7052 0131 00       		.byte	0
 7053 0132 00       		.byte	0
 7054 0133 1A       		.uleb128 0x1a
 7055 0134 13       		.uleb128 0x13
 7056 0135 01       		.byte	0x1
 7057 0136 0B       		.uleb128 0xb
 7058 0137 0B       		.uleb128 0xb
 7059 0138 3A       		.uleb128 0x3a
 7060 0139 0B       		.uleb128 0xb
 7061 013a 3B       		.uleb128 0x3b
 7062 013b 05       		.uleb128 0x5
ARM GAS  C:\Users\jo\AppData\Local\Temp\ccBWvOPb.s 			page 128


 7063 013c 01       		.uleb128 0x1
 7064 013d 13       		.uleb128 0x13
 7065 013e 00       		.byte	0
 7066 013f 00       		.byte	0
 7067 0140 1B       		.uleb128 0x1b
 7068 0141 17       		.uleb128 0x17
 7069 0142 01       		.byte	0x1
 7070 0143 0B       		.uleb128 0xb
 7071 0144 0B       		.uleb128 0xb
 7072 0145 3A       		.uleb128 0x3a
 7073 0146 0B       		.uleb128 0xb
 7074 0147 3B       		.uleb128 0x3b
 7075 0148 05       		.uleb128 0x5
 7076 0149 01       		.uleb128 0x1
 7077 014a 13       		.uleb128 0x13
 7078 014b 00       		.byte	0
 7079 014c 00       		.byte	0
 7080 014d 1C       		.uleb128 0x1c
 7081 014e 0D       		.uleb128 0xd
 7082 014f 00       		.byte	0
 7083 0150 03       		.uleb128 0x3
 7084 0151 0E       		.uleb128 0xe
 7085 0152 3A       		.uleb128 0x3a
 7086 0153 0B       		.uleb128 0xb
 7087 0154 3B       		.uleb128 0x3b
 7088 0155 05       		.uleb128 0x5
 7089 0156 49       		.uleb128 0x49
 7090 0157 13       		.uleb128 0x13
 7091 0158 00       		.byte	0
 7092 0159 00       		.byte	0
 7093 015a 1D       		.uleb128 0x1d
 7094 015b 15       		.uleb128 0x15
 7095 015c 01       		.byte	0x1
 7096 015d 27       		.uleb128 0x27
 7097 015e 19       		.uleb128 0x19
 7098 015f 01       		.uleb128 0x1
 7099 0160 13       		.uleb128 0x13
 7100 0161 00       		.byte	0
 7101 0162 00       		.byte	0
 7102 0163 1E       		.uleb128 0x1e
 7103 0164 26       		.uleb128 0x26
 7104 0165 00       		.byte	0
 7105 0166 00       		.byte	0
 7106 0167 00       		.byte	0
 7107 0168 1F       		.uleb128 0x1f
 7108 0169 2E       		.uleb128 0x2e
 7109 016a 01       		.byte	0x1
 7110 016b 03       		.uleb128 0x3
 7111 016c 0E       		.uleb128 0xe
 7112 016d 3A       		.uleb128 0x3a
 7113 016e 0B       		.uleb128 0xb
 7114 016f 3B       		.uleb128 0x3b
 7115 0170 0B       		.uleb128 0xb
 7116 0171 27       		.uleb128 0x27
 7117 0172 19       		.uleb128 0x19
 7118 0173 20       		.uleb128 0x20
 7119 0174 0B       		.uleb128 0xb
ARM GAS  C:\Users\jo\AppData\Local\Temp\ccBWvOPb.s 			page 129


 7120 0175 01       		.uleb128 0x1
 7121 0176 13       		.uleb128 0x13
 7122 0177 00       		.byte	0
 7123 0178 00       		.byte	0
 7124 0179 20       		.uleb128 0x20
 7125 017a 05       		.uleb128 0x5
 7126 017b 00       		.byte	0
 7127 017c 03       		.uleb128 0x3
 7128 017d 08       		.uleb128 0x8
 7129 017e 3A       		.uleb128 0x3a
 7130 017f 0B       		.uleb128 0xb
 7131 0180 3B       		.uleb128 0x3b
 7132 0181 0B       		.uleb128 0xb
 7133 0182 49       		.uleb128 0x49
 7134 0183 13       		.uleb128 0x13
 7135 0184 00       		.byte	0
 7136 0185 00       		.byte	0
 7137 0186 21       		.uleb128 0x21
 7138 0187 34       		.uleb128 0x34
 7139 0188 00       		.byte	0
 7140 0189 03       		.uleb128 0x3
 7141 018a 08       		.uleb128 0x8
 7142 018b 3A       		.uleb128 0x3a
 7143 018c 0B       		.uleb128 0xb
 7144 018d 3B       		.uleb128 0x3b
 7145 018e 0B       		.uleb128 0xb
 7146 018f 49       		.uleb128 0x49
 7147 0190 13       		.uleb128 0x13
 7148 0191 00       		.byte	0
 7149 0192 00       		.byte	0
 7150 0193 22       		.uleb128 0x22
 7151 0194 35       		.uleb128 0x35
 7152 0195 00       		.byte	0
 7153 0196 49       		.uleb128 0x49
 7154 0197 13       		.uleb128 0x13
 7155 0198 00       		.byte	0
 7156 0199 00       		.byte	0
 7157 019a 23       		.uleb128 0x23
 7158 019b 2E       		.uleb128 0x2e
 7159 019c 01       		.byte	0x1
 7160 019d 3F       		.uleb128 0x3f
 7161 019e 19       		.uleb128 0x19
 7162 019f 03       		.uleb128 0x3
 7163 01a0 0E       		.uleb128 0xe
 7164 01a1 3A       		.uleb128 0x3a
 7165 01a2 0B       		.uleb128 0xb
 7166 01a3 3B       		.uleb128 0x3b
 7167 01a4 0B       		.uleb128 0xb
 7168 01a5 27       		.uleb128 0x27
 7169 01a6 19       		.uleb128 0x19
 7170 01a7 20       		.uleb128 0x20
 7171 01a8 0B       		.uleb128 0xb
 7172 01a9 01       		.uleb128 0x1
 7173 01aa 13       		.uleb128 0x13
 7174 01ab 00       		.byte	0
 7175 01ac 00       		.byte	0
 7176 01ad 24       		.uleb128 0x24
ARM GAS  C:\Users\jo\AppData\Local\Temp\ccBWvOPb.s 			page 130


 7177 01ae 05       		.uleb128 0x5
 7178 01af 00       		.byte	0
 7179 01b0 03       		.uleb128 0x3
 7180 01b1 0E       		.uleb128 0xe
 7181 01b2 3A       		.uleb128 0x3a
 7182 01b3 0B       		.uleb128 0xb
 7183 01b4 3B       		.uleb128 0x3b
 7184 01b5 0B       		.uleb128 0xb
 7185 01b6 49       		.uleb128 0x49
 7186 01b7 13       		.uleb128 0x13
 7187 01b8 00       		.byte	0
 7188 01b9 00       		.byte	0
 7189 01ba 25       		.uleb128 0x25
 7190 01bb 34       		.uleb128 0x34
 7191 01bc 00       		.byte	0
 7192 01bd 03       		.uleb128 0x3
 7193 01be 0E       		.uleb128 0xe
 7194 01bf 3A       		.uleb128 0x3a
 7195 01c0 0B       		.uleb128 0xb
 7196 01c1 3B       		.uleb128 0x3b
 7197 01c2 0B       		.uleb128 0xb
 7198 01c3 49       		.uleb128 0x49
 7199 01c4 13       		.uleb128 0x13
 7200 01c5 00       		.byte	0
 7201 01c6 00       		.byte	0
 7202 01c7 26       		.uleb128 0x26
 7203 01c8 2E       		.uleb128 0x2e
 7204 01c9 01       		.byte	0x1
 7205 01ca 3F       		.uleb128 0x3f
 7206 01cb 19       		.uleb128 0x19
 7207 01cc 03       		.uleb128 0x3
 7208 01cd 0E       		.uleb128 0xe
 7209 01ce 3A       		.uleb128 0x3a
 7210 01cf 0B       		.uleb128 0xb
 7211 01d0 3B       		.uleb128 0x3b
 7212 01d1 05       		.uleb128 0x5
 7213 01d2 27       		.uleb128 0x27
 7214 01d3 19       		.uleb128 0x19
 7215 01d4 20       		.uleb128 0x20
 7216 01d5 0B       		.uleb128 0xb
 7217 01d6 01       		.uleb128 0x1
 7218 01d7 13       		.uleb128 0x13
 7219 01d8 00       		.byte	0
 7220 01d9 00       		.byte	0
 7221 01da 27       		.uleb128 0x27
 7222 01db 05       		.uleb128 0x5
 7223 01dc 00       		.byte	0
 7224 01dd 03       		.uleb128 0x3
 7225 01de 08       		.uleb128 0x8
 7226 01df 3A       		.uleb128 0x3a
 7227 01e0 0B       		.uleb128 0xb
 7228 01e1 3B       		.uleb128 0x3b
 7229 01e2 05       		.uleb128 0x5
 7230 01e3 49       		.uleb128 0x49
 7231 01e4 13       		.uleb128 0x13
 7232 01e5 00       		.byte	0
 7233 01e6 00       		.byte	0
ARM GAS  C:\Users\jo\AppData\Local\Temp\ccBWvOPb.s 			page 131


 7234 01e7 28       		.uleb128 0x28
 7235 01e8 05       		.uleb128 0x5
 7236 01e9 00       		.byte	0
 7237 01ea 03       		.uleb128 0x3
 7238 01eb 0E       		.uleb128 0xe
 7239 01ec 3A       		.uleb128 0x3a
 7240 01ed 0B       		.uleb128 0xb
 7241 01ee 3B       		.uleb128 0x3b
 7242 01ef 05       		.uleb128 0x5
 7243 01f0 49       		.uleb128 0x49
 7244 01f1 13       		.uleb128 0x13
 7245 01f2 00       		.byte	0
 7246 01f3 00       		.byte	0
 7247 01f4 29       		.uleb128 0x29
 7248 01f5 2E       		.uleb128 0x2e
 7249 01f6 01       		.byte	0x1
 7250 01f7 31       		.uleb128 0x31
 7251 01f8 13       		.uleb128 0x13
 7252 01f9 11       		.uleb128 0x11
 7253 01fa 01       		.uleb128 0x1
 7254 01fb 12       		.uleb128 0x12
 7255 01fc 06       		.uleb128 0x6
 7256 01fd 40       		.uleb128 0x40
 7257 01fe 18       		.uleb128 0x18
 7258 01ff 9742     		.uleb128 0x2117
 7259 0201 19       		.uleb128 0x19
 7260 0202 01       		.uleb128 0x1
 7261 0203 13       		.uleb128 0x13
 7262 0204 00       		.byte	0
 7263 0205 00       		.byte	0
 7264 0206 2A       		.uleb128 0x2a
 7265 0207 05       		.uleb128 0x5
 7266 0208 00       		.byte	0
 7267 0209 31       		.uleb128 0x31
 7268 020a 13       		.uleb128 0x13
 7269 020b 02       		.uleb128 0x2
 7270 020c 17       		.uleb128 0x17
 7271 020d 00       		.byte	0
 7272 020e 00       		.byte	0
 7273 020f 2B       		.uleb128 0x2b
 7274 0210 898201   		.uleb128 0x4109
 7275 0213 01       		.byte	0x1
 7276 0214 11       		.uleb128 0x11
 7277 0215 01       		.uleb128 0x1
 7278 0216 9542     		.uleb128 0x2115
 7279 0218 19       		.uleb128 0x19
 7280 0219 31       		.uleb128 0x31
 7281 021a 13       		.uleb128 0x13
 7282 021b 00       		.byte	0
 7283 021c 00       		.byte	0
 7284 021d 2C       		.uleb128 0x2c
 7285 021e 8A8201   		.uleb128 0x410a
 7286 0221 00       		.byte	0
 7287 0222 02       		.uleb128 0x2
 7288 0223 18       		.uleb128 0x18
 7289 0224 9142     		.uleb128 0x2111
 7290 0226 18       		.uleb128 0x18
ARM GAS  C:\Users\jo\AppData\Local\Temp\ccBWvOPb.s 			page 132


 7291 0227 00       		.byte	0
 7292 0228 00       		.byte	0
 7293 0229 2D       		.uleb128 0x2d
 7294 022a 1D       		.uleb128 0x1d
 7295 022b 01       		.byte	0x1
 7296 022c 31       		.uleb128 0x31
 7297 022d 13       		.uleb128 0x13
 7298 022e 11       		.uleb128 0x11
 7299 022f 01       		.uleb128 0x1
 7300 0230 12       		.uleb128 0x12
 7301 0231 06       		.uleb128 0x6
 7302 0232 58       		.uleb128 0x58
 7303 0233 0B       		.uleb128 0xb
 7304 0234 59       		.uleb128 0x59
 7305 0235 0B       		.uleb128 0xb
 7306 0236 00       		.byte	0
 7307 0237 00       		.byte	0
 7308 0238 2E       		.uleb128 0x2e
 7309 0239 05       		.uleb128 0x5
 7310 023a 00       		.byte	0
 7311 023b 31       		.uleb128 0x31
 7312 023c 13       		.uleb128 0x13
 7313 023d 00       		.byte	0
 7314 023e 00       		.byte	0
 7315 023f 2F       		.uleb128 0x2f
 7316 0240 0B       		.uleb128 0xb
 7317 0241 01       		.byte	0x1
 7318 0242 11       		.uleb128 0x11
 7319 0243 01       		.uleb128 0x1
 7320 0244 12       		.uleb128 0x12
 7321 0245 06       		.uleb128 0x6
 7322 0246 00       		.byte	0
 7323 0247 00       		.byte	0
 7324 0248 30       		.uleb128 0x30
 7325 0249 34       		.uleb128 0x34
 7326 024a 00       		.byte	0
 7327 024b 31       		.uleb128 0x31
 7328 024c 13       		.uleb128 0x13
 7329 024d 02       		.uleb128 0x2
 7330 024e 17       		.uleb128 0x17
 7331 024f 00       		.byte	0
 7332 0250 00       		.byte	0
 7333 0251 31       		.uleb128 0x31
 7334 0252 05       		.uleb128 0x5
 7335 0253 00       		.byte	0
 7336 0254 31       		.uleb128 0x31
 7337 0255 13       		.uleb128 0x13
 7338 0256 02       		.uleb128 0x2
 7339 0257 18       		.uleb128 0x18
 7340 0258 00       		.byte	0
 7341 0259 00       		.byte	0
 7342 025a 32       		.uleb128 0x32
 7343 025b 2E       		.uleb128 0x2e
 7344 025c 01       		.byte	0x1
 7345 025d 3F       		.uleb128 0x3f
 7346 025e 19       		.uleb128 0x19
 7347 025f 03       		.uleb128 0x3
ARM GAS  C:\Users\jo\AppData\Local\Temp\ccBWvOPb.s 			page 133


 7348 0260 0E       		.uleb128 0xe
 7349 0261 3A       		.uleb128 0x3a
 7350 0262 0B       		.uleb128 0xb
 7351 0263 3B       		.uleb128 0x3b
 7352 0264 0B       		.uleb128 0xb
 7353 0265 27       		.uleb128 0x27
 7354 0266 19       		.uleb128 0x19
 7355 0267 11       		.uleb128 0x11
 7356 0268 01       		.uleb128 0x1
 7357 0269 12       		.uleb128 0x12
 7358 026a 06       		.uleb128 0x6
 7359 026b 40       		.uleb128 0x40
 7360 026c 18       		.uleb128 0x18
 7361 026d 9742     		.uleb128 0x2117
 7362 026f 19       		.uleb128 0x19
 7363 0270 01       		.uleb128 0x1
 7364 0271 13       		.uleb128 0x13
 7365 0272 00       		.byte	0
 7366 0273 00       		.byte	0
 7367 0274 33       		.uleb128 0x33
 7368 0275 05       		.uleb128 0x5
 7369 0276 00       		.byte	0
 7370 0277 03       		.uleb128 0x3
 7371 0278 08       		.uleb128 0x8
 7372 0279 3A       		.uleb128 0x3a
 7373 027a 0B       		.uleb128 0xb
 7374 027b 3B       		.uleb128 0x3b
 7375 027c 0B       		.uleb128 0xb
 7376 027d 49       		.uleb128 0x49
 7377 027e 13       		.uleb128 0x13
 7378 027f 02       		.uleb128 0x2
 7379 0280 17       		.uleb128 0x17
 7380 0281 00       		.byte	0
 7381 0282 00       		.byte	0
 7382 0283 34       		.uleb128 0x34
 7383 0284 05       		.uleb128 0x5
 7384 0285 00       		.byte	0
 7385 0286 03       		.uleb128 0x3
 7386 0287 0E       		.uleb128 0xe
 7387 0288 3A       		.uleb128 0x3a
 7388 0289 0B       		.uleb128 0xb
 7389 028a 3B       		.uleb128 0x3b
 7390 028b 0B       		.uleb128 0xb
 7391 028c 49       		.uleb128 0x49
 7392 028d 13       		.uleb128 0x13
 7393 028e 02       		.uleb128 0x2
 7394 028f 17       		.uleb128 0x17
 7395 0290 00       		.byte	0
 7396 0291 00       		.byte	0
 7397 0292 35       		.uleb128 0x35
 7398 0293 34       		.uleb128 0x34
 7399 0294 00       		.byte	0
 7400 0295 03       		.uleb128 0x3
 7401 0296 08       		.uleb128 0x8
 7402 0297 3A       		.uleb128 0x3a
 7403 0298 0B       		.uleb128 0xb
 7404 0299 3B       		.uleb128 0x3b
ARM GAS  C:\Users\jo\AppData\Local\Temp\ccBWvOPb.s 			page 134


 7405 029a 0B       		.uleb128 0xb
 7406 029b 49       		.uleb128 0x49
 7407 029c 13       		.uleb128 0x13
 7408 029d 02       		.uleb128 0x2
 7409 029e 17       		.uleb128 0x17
 7410 029f 00       		.byte	0
 7411 02a0 00       		.byte	0
 7412 02a1 36       		.uleb128 0x36
 7413 02a2 898201   		.uleb128 0x4109
 7414 02a5 01       		.byte	0x1
 7415 02a6 11       		.uleb128 0x11
 7416 02a7 01       		.uleb128 0x1
 7417 02a8 31       		.uleb128 0x31
 7418 02a9 13       		.uleb128 0x13
 7419 02aa 01       		.uleb128 0x1
 7420 02ab 13       		.uleb128 0x13
 7421 02ac 00       		.byte	0
 7422 02ad 00       		.byte	0
 7423 02ae 37       		.uleb128 0x37
 7424 02af 898201   		.uleb128 0x4109
 7425 02b2 00       		.byte	0
 7426 02b3 11       		.uleb128 0x11
 7427 02b4 01       		.uleb128 0x1
 7428 02b5 9542     		.uleb128 0x2115
 7429 02b7 19       		.uleb128 0x19
 7430 02b8 31       		.uleb128 0x31
 7431 02b9 13       		.uleb128 0x13
 7432 02ba 00       		.byte	0
 7433 02bb 00       		.byte	0
 7434 02bc 38       		.uleb128 0x38
 7435 02bd 34       		.uleb128 0x34
 7436 02be 00       		.byte	0
 7437 02bf 31       		.uleb128 0x31
 7438 02c0 13       		.uleb128 0x13
 7439 02c1 00       		.byte	0
 7440 02c2 00       		.byte	0
 7441 02c3 39       		.uleb128 0x39
 7442 02c4 2E       		.uleb128 0x2e
 7443 02c5 01       		.byte	0x1
 7444 02c6 3F       		.uleb128 0x3f
 7445 02c7 19       		.uleb128 0x19
 7446 02c8 03       		.uleb128 0x3
 7447 02c9 0E       		.uleb128 0xe
 7448 02ca 3A       		.uleb128 0x3a
 7449 02cb 0B       		.uleb128 0xb
 7450 02cc 3B       		.uleb128 0x3b
 7451 02cd 05       		.uleb128 0x5
 7452 02ce 27       		.uleb128 0x27
 7453 02cf 19       		.uleb128 0x19
 7454 02d0 11       		.uleb128 0x11
 7455 02d1 01       		.uleb128 0x1
 7456 02d2 12       		.uleb128 0x12
 7457 02d3 06       		.uleb128 0x6
 7458 02d4 40       		.uleb128 0x40
 7459 02d5 18       		.uleb128 0x18
 7460 02d6 9742     		.uleb128 0x2117
 7461 02d8 19       		.uleb128 0x19
ARM GAS  C:\Users\jo\AppData\Local\Temp\ccBWvOPb.s 			page 135


 7462 02d9 01       		.uleb128 0x1
 7463 02da 13       		.uleb128 0x13
 7464 02db 00       		.byte	0
 7465 02dc 00       		.byte	0
 7466 02dd 3A       		.uleb128 0x3a
 7467 02de 05       		.uleb128 0x5
 7468 02df 00       		.byte	0
 7469 02e0 03       		.uleb128 0x3
 7470 02e1 08       		.uleb128 0x8
 7471 02e2 3A       		.uleb128 0x3a
 7472 02e3 0B       		.uleb128 0xb
 7473 02e4 3B       		.uleb128 0x3b
 7474 02e5 05       		.uleb128 0x5
 7475 02e6 49       		.uleb128 0x49
 7476 02e7 13       		.uleb128 0x13
 7477 02e8 02       		.uleb128 0x2
 7478 02e9 17       		.uleb128 0x17
 7479 02ea 00       		.byte	0
 7480 02eb 00       		.byte	0
 7481 02ec 3B       		.uleb128 0x3b
 7482 02ed 05       		.uleb128 0x5
 7483 02ee 00       		.byte	0
 7484 02ef 03       		.uleb128 0x3
 7485 02f0 0E       		.uleb128 0xe
 7486 02f1 3A       		.uleb128 0x3a
 7487 02f2 0B       		.uleb128 0xb
 7488 02f3 3B       		.uleb128 0x3b
 7489 02f4 05       		.uleb128 0x5
 7490 02f5 49       		.uleb128 0x49
 7491 02f6 13       		.uleb128 0x13
 7492 02f7 02       		.uleb128 0x2
 7493 02f8 17       		.uleb128 0x17
 7494 02f9 00       		.byte	0
 7495 02fa 00       		.byte	0
 7496 02fb 3C       		.uleb128 0x3c
 7497 02fc 34       		.uleb128 0x34
 7498 02fd 00       		.byte	0
 7499 02fe 03       		.uleb128 0x3
 7500 02ff 0E       		.uleb128 0xe
 7501 0300 3A       		.uleb128 0x3a
 7502 0301 0B       		.uleb128 0xb
 7503 0302 3B       		.uleb128 0x3b
 7504 0303 05       		.uleb128 0x5
 7505 0304 49       		.uleb128 0x49
 7506 0305 13       		.uleb128 0x13
 7507 0306 02       		.uleb128 0x2
 7508 0307 17       		.uleb128 0x17
 7509 0308 00       		.byte	0
 7510 0309 00       		.byte	0
 7511 030a 3D       		.uleb128 0x3d
 7512 030b 34       		.uleb128 0x34
 7513 030c 00       		.byte	0
 7514 030d 03       		.uleb128 0x3
 7515 030e 08       		.uleb128 0x8
 7516 030f 3A       		.uleb128 0x3a
 7517 0310 0B       		.uleb128 0xb
 7518 0311 3B       		.uleb128 0x3b
ARM GAS  C:\Users\jo\AppData\Local\Temp\ccBWvOPb.s 			page 136


 7519 0312 05       		.uleb128 0x5
 7520 0313 49       		.uleb128 0x49
 7521 0314 13       		.uleb128 0x13
 7522 0315 02       		.uleb128 0x2
 7523 0316 17       		.uleb128 0x17
 7524 0317 00       		.byte	0
 7525 0318 00       		.byte	0
 7526 0319 3E       		.uleb128 0x3e
 7527 031a 34       		.uleb128 0x34
 7528 031b 00       		.byte	0
 7529 031c 03       		.uleb128 0x3
 7530 031d 0E       		.uleb128 0xe
 7531 031e 3A       		.uleb128 0x3a
 7532 031f 0B       		.uleb128 0xb
 7533 0320 3B       		.uleb128 0x3b
 7534 0321 05       		.uleb128 0x5
 7535 0322 49       		.uleb128 0x49
 7536 0323 13       		.uleb128 0x13
 7537 0324 02       		.uleb128 0x2
 7538 0325 18       		.uleb128 0x18
 7539 0326 00       		.byte	0
 7540 0327 00       		.byte	0
 7541 0328 3F       		.uleb128 0x3f
 7542 0329 1D       		.uleb128 0x1d
 7543 032a 01       		.byte	0x1
 7544 032b 31       		.uleb128 0x31
 7545 032c 13       		.uleb128 0x13
 7546 032d 52       		.uleb128 0x52
 7547 032e 01       		.uleb128 0x1
 7548 032f 55       		.uleb128 0x55
 7549 0330 17       		.uleb128 0x17
 7550 0331 58       		.uleb128 0x58
 7551 0332 0B       		.uleb128 0xb
 7552 0333 59       		.uleb128 0x59
 7553 0334 05       		.uleb128 0x5
 7554 0335 01       		.uleb128 0x1
 7555 0336 13       		.uleb128 0x13
 7556 0337 00       		.byte	0
 7557 0338 00       		.byte	0
 7558 0339 40       		.uleb128 0x40
 7559 033a 0B       		.uleb128 0xb
 7560 033b 01       		.byte	0x1
 7561 033c 55       		.uleb128 0x55
 7562 033d 17       		.uleb128 0x17
 7563 033e 00       		.byte	0
 7564 033f 00       		.byte	0
 7565 0340 41       		.uleb128 0x41
 7566 0341 898201   		.uleb128 0x4109
 7567 0344 01       		.byte	0x1
 7568 0345 11       		.uleb128 0x11
 7569 0346 01       		.uleb128 0x1
 7570 0347 31       		.uleb128 0x31
 7571 0348 13       		.uleb128 0x13
 7572 0349 00       		.byte	0
 7573 034a 00       		.byte	0
 7574 034b 42       		.uleb128 0x42
 7575 034c 1D       		.uleb128 0x1d
ARM GAS  C:\Users\jo\AppData\Local\Temp\ccBWvOPb.s 			page 137


 7576 034d 01       		.byte	0x1
 7577 034e 31       		.uleb128 0x31
 7578 034f 13       		.uleb128 0x13
 7579 0350 11       		.uleb128 0x11
 7580 0351 01       		.uleb128 0x1
 7581 0352 12       		.uleb128 0x12
 7582 0353 06       		.uleb128 0x6
 7583 0354 58       		.uleb128 0x58
 7584 0355 0B       		.uleb128 0xb
 7585 0356 59       		.uleb128 0x59
 7586 0357 05       		.uleb128 0x5
 7587 0358 00       		.byte	0
 7588 0359 00       		.byte	0
 7589 035a 43       		.uleb128 0x43
 7590 035b 05       		.uleb128 0x5
 7591 035c 00       		.byte	0
 7592 035d 31       		.uleb128 0x31
 7593 035e 13       		.uleb128 0x13
 7594 035f 1C       		.uleb128 0x1c
 7595 0360 0B       		.uleb128 0xb
 7596 0361 00       		.byte	0
 7597 0362 00       		.byte	0
 7598 0363 44       		.uleb128 0x44
 7599 0364 2E       		.uleb128 0x2e
 7600 0365 01       		.byte	0x1
 7601 0366 3F       		.uleb128 0x3f
 7602 0367 19       		.uleb128 0x19
 7603 0368 03       		.uleb128 0x3
 7604 0369 08       		.uleb128 0x8
 7605 036a 3A       		.uleb128 0x3a
 7606 036b 0B       		.uleb128 0xb
 7607 036c 3B       		.uleb128 0x3b
 7608 036d 05       		.uleb128 0x5
 7609 036e 27       		.uleb128 0x27
 7610 036f 19       		.uleb128 0x19
 7611 0370 11       		.uleb128 0x11
 7612 0371 01       		.uleb128 0x1
 7613 0372 12       		.uleb128 0x12
 7614 0373 06       		.uleb128 0x6
 7615 0374 40       		.uleb128 0x40
 7616 0375 18       		.uleb128 0x18
 7617 0376 9742     		.uleb128 0x2117
 7618 0378 19       		.uleb128 0x19
 7619 0379 01       		.uleb128 0x1
 7620 037a 13       		.uleb128 0x13
 7621 037b 00       		.byte	0
 7622 037c 00       		.byte	0
 7623 037d 45       		.uleb128 0x45
 7624 037e 34       		.uleb128 0x34
 7625 037f 00       		.byte	0
 7626 0380 03       		.uleb128 0x3
 7627 0381 08       		.uleb128 0x8
 7628 0382 3A       		.uleb128 0x3a
 7629 0383 0B       		.uleb128 0xb
 7630 0384 3B       		.uleb128 0x3b
 7631 0385 05       		.uleb128 0x5
 7632 0386 49       		.uleb128 0x49
ARM GAS  C:\Users\jo\AppData\Local\Temp\ccBWvOPb.s 			page 138


 7633 0387 13       		.uleb128 0x13
 7634 0388 02       		.uleb128 0x2
 7635 0389 18       		.uleb128 0x18
 7636 038a 00       		.byte	0
 7637 038b 00       		.byte	0
 7638 038c 46       		.uleb128 0x46
 7639 038d 1D       		.uleb128 0x1d
 7640 038e 01       		.byte	0x1
 7641 038f 31       		.uleb128 0x31
 7642 0390 13       		.uleb128 0x13
 7643 0391 11       		.uleb128 0x11
 7644 0392 01       		.uleb128 0x1
 7645 0393 12       		.uleb128 0x12
 7646 0394 06       		.uleb128 0x6
 7647 0395 58       		.uleb128 0x58
 7648 0396 0B       		.uleb128 0xb
 7649 0397 59       		.uleb128 0x59
 7650 0398 05       		.uleb128 0x5
 7651 0399 01       		.uleb128 0x1
 7652 039a 13       		.uleb128 0x13
 7653 039b 00       		.byte	0
 7654 039c 00       		.byte	0
 7655 039d 47       		.uleb128 0x47
 7656 039e 2E       		.uleb128 0x2e
 7657 039f 01       		.byte	0x1
 7658 03a0 3F       		.uleb128 0x3f
 7659 03a1 19       		.uleb128 0x19
 7660 03a2 03       		.uleb128 0x3
 7661 03a3 0E       		.uleb128 0xe
 7662 03a4 3A       		.uleb128 0x3a
 7663 03a5 0B       		.uleb128 0xb
 7664 03a6 3B       		.uleb128 0x3b
 7665 03a7 05       		.uleb128 0x5
 7666 03a8 27       		.uleb128 0x27
 7667 03a9 19       		.uleb128 0x19
 7668 03aa 49       		.uleb128 0x49
 7669 03ab 13       		.uleb128 0x13
 7670 03ac 11       		.uleb128 0x11
 7671 03ad 01       		.uleb128 0x1
 7672 03ae 12       		.uleb128 0x12
 7673 03af 06       		.uleb128 0x6
 7674 03b0 40       		.uleb128 0x40
 7675 03b1 18       		.uleb128 0x18
 7676 03b2 9742     		.uleb128 0x2117
 7677 03b4 19       		.uleb128 0x19
 7678 03b5 01       		.uleb128 0x1
 7679 03b6 13       		.uleb128 0x13
 7680 03b7 00       		.byte	0
 7681 03b8 00       		.byte	0
 7682 03b9 48       		.uleb128 0x48
 7683 03ba 898201   		.uleb128 0x4109
 7684 03bd 00       		.byte	0
 7685 03be 11       		.uleb128 0x11
 7686 03bf 01       		.uleb128 0x1
 7687 03c0 31       		.uleb128 0x31
 7688 03c1 13       		.uleb128 0x13
 7689 03c2 00       		.byte	0
ARM GAS  C:\Users\jo\AppData\Local\Temp\ccBWvOPb.s 			page 139


 7690 03c3 00       		.byte	0
 7691 03c4 49       		.uleb128 0x49
 7692 03c5 21       		.uleb128 0x21
 7693 03c6 00       		.byte	0
 7694 03c7 49       		.uleb128 0x49
 7695 03c8 13       		.uleb128 0x13
 7696 03c9 2F       		.uleb128 0x2f
 7697 03ca 05       		.uleb128 0x5
 7698 03cb 00       		.byte	0
 7699 03cc 00       		.byte	0
 7700 03cd 4A       		.uleb128 0x4a
 7701 03ce 1D       		.uleb128 0x1d
 7702 03cf 01       		.byte	0x1
 7703 03d0 31       		.uleb128 0x31
 7704 03d1 13       		.uleb128 0x13
 7705 03d2 52       		.uleb128 0x52
 7706 03d3 01       		.uleb128 0x1
 7707 03d4 55       		.uleb128 0x55
 7708 03d5 17       		.uleb128 0x17
 7709 03d6 58       		.uleb128 0x58
 7710 03d7 0B       		.uleb128 0xb
 7711 03d8 59       		.uleb128 0x59
 7712 03d9 05       		.uleb128 0x5
 7713 03da 00       		.byte	0
 7714 03db 00       		.byte	0
 7715 03dc 4B       		.uleb128 0x4b
 7716 03dd 34       		.uleb128 0x34
 7717 03de 00       		.byte	0
 7718 03df 03       		.uleb128 0x3
 7719 03e0 0E       		.uleb128 0xe
 7720 03e1 3A       		.uleb128 0x3a
 7721 03e2 0B       		.uleb128 0xb
 7722 03e3 3B       		.uleb128 0x3b
 7723 03e4 05       		.uleb128 0x5
 7724 03e5 49       		.uleb128 0x49
 7725 03e6 13       		.uleb128 0x13
 7726 03e7 1C       		.uleb128 0x1c
 7727 03e8 0B       		.uleb128 0xb
 7728 03e9 00       		.byte	0
 7729 03ea 00       		.byte	0
 7730 03eb 4C       		.uleb128 0x4c
 7731 03ec 2E       		.uleb128 0x2e
 7732 03ed 01       		.byte	0x1
 7733 03ee 3F       		.uleb128 0x3f
 7734 03ef 19       		.uleb128 0x19
 7735 03f0 03       		.uleb128 0x3
 7736 03f1 0E       		.uleb128 0xe
 7737 03f2 27       		.uleb128 0x27
 7738 03f3 19       		.uleb128 0x19
 7739 03f4 49       		.uleb128 0x49
 7740 03f5 13       		.uleb128 0x13
 7741 03f6 34       		.uleb128 0x34
 7742 03f7 19       		.uleb128 0x19
 7743 03f8 3C       		.uleb128 0x3c
 7744 03f9 19       		.uleb128 0x19
 7745 03fa 01       		.uleb128 0x1
 7746 03fb 13       		.uleb128 0x13
ARM GAS  C:\Users\jo\AppData\Local\Temp\ccBWvOPb.s 			page 140


 7747 03fc 00       		.byte	0
 7748 03fd 00       		.byte	0
 7749 03fe 4D       		.uleb128 0x4d
 7750 03ff 2E       		.uleb128 0x2e
 7751 0400 01       		.byte	0x1
 7752 0401 3F       		.uleb128 0x3f
 7753 0402 19       		.uleb128 0x19
 7754 0403 03       		.uleb128 0x3
 7755 0404 0E       		.uleb128 0xe
 7756 0405 3A       		.uleb128 0x3a
 7757 0406 0B       		.uleb128 0xb
 7758 0407 3B       		.uleb128 0x3b
 7759 0408 0B       		.uleb128 0xb
 7760 0409 27       		.uleb128 0x27
 7761 040a 19       		.uleb128 0x19
 7762 040b 49       		.uleb128 0x49
 7763 040c 13       		.uleb128 0x13
 7764 040d 3C       		.uleb128 0x3c
 7765 040e 19       		.uleb128 0x19
 7766 040f 01       		.uleb128 0x1
 7767 0410 13       		.uleb128 0x13
 7768 0411 00       		.byte	0
 7769 0412 00       		.byte	0
 7770 0413 4E       		.uleb128 0x4e
 7771 0414 18       		.uleb128 0x18
 7772 0415 00       		.byte	0
 7773 0416 00       		.byte	0
 7774 0417 00       		.byte	0
 7775 0418 4F       		.uleb128 0x4f
 7776 0419 2E       		.uleb128 0x2e
 7777 041a 01       		.byte	0x1
 7778 041b 3F       		.uleb128 0x3f
 7779 041c 19       		.uleb128 0x19
 7780 041d 03       		.uleb128 0x3
 7781 041e 0E       		.uleb128 0xe
 7782 041f 3A       		.uleb128 0x3a
 7783 0420 0B       		.uleb128 0xb
 7784 0421 3B       		.uleb128 0x3b
 7785 0422 0B       		.uleb128 0xb
 7786 0423 6E       		.uleb128 0x6e
 7787 0424 0E       		.uleb128 0xe
 7788 0425 27       		.uleb128 0x27
 7789 0426 19       		.uleb128 0x19
 7790 0427 49       		.uleb128 0x49
 7791 0428 13       		.uleb128 0x13
 7792 0429 3C       		.uleb128 0x3c
 7793 042a 19       		.uleb128 0x19
 7794 042b 01       		.uleb128 0x1
 7795 042c 13       		.uleb128 0x13
 7796 042d 00       		.byte	0
 7797 042e 00       		.byte	0
 7798 042f 50       		.uleb128 0x50
 7799 0430 2E       		.uleb128 0x2e
 7800 0431 01       		.byte	0x1
 7801 0432 3F       		.uleb128 0x3f
 7802 0433 19       		.uleb128 0x19
 7803 0434 03       		.uleb128 0x3
ARM GAS  C:\Users\jo\AppData\Local\Temp\ccBWvOPb.s 			page 141


 7804 0435 0E       		.uleb128 0xe
 7805 0436 3A       		.uleb128 0x3a
 7806 0437 0B       		.uleb128 0xb
 7807 0438 3B       		.uleb128 0x3b
 7808 0439 0B       		.uleb128 0xb
 7809 043a 6E       		.uleb128 0x6e
 7810 043b 0E       		.uleb128 0xe
 7811 043c 27       		.uleb128 0x27
 7812 043d 19       		.uleb128 0x19
 7813 043e 49       		.uleb128 0x49
 7814 043f 13       		.uleb128 0x13
 7815 0440 3C       		.uleb128 0x3c
 7816 0441 19       		.uleb128 0x19
 7817 0442 00       		.byte	0
 7818 0443 00       		.byte	0
 7819 0444 00       		.byte	0
 7820              		.section	.debug_loc,"",%progbits
 7821              	.Ldebug_loc0:
 7822              	.LLST0:
 7823 0000 00000000 		.4byte	.LVL0
 7824 0004 07000000 		.4byte	.LVL1-1
 7825 0008 0100     		.2byte	0x1
 7826 000a 50       		.byte	0x50
 7827 000b 07000000 		.4byte	.LVL1-1
 7828 000f 08000000 		.4byte	.LFE1
 7829 0013 0400     		.2byte	0x4
 7830 0015 F3       		.byte	0xf3
 7831 0016 01       		.uleb128 0x1
 7832 0017 50       		.byte	0x50
 7833 0018 9F       		.byte	0x9f
 7834 0019 00000000 		.4byte	0
 7835 001d 00000000 		.4byte	0
 7836              	.LLST1:
 7837 0021 00000000 		.4byte	.LVL2
 7838 0025 08000000 		.4byte	.LVL3
 7839 0029 0100     		.2byte	0x1
 7840 002b 50       		.byte	0x50
 7841 002c 08000000 		.4byte	.LVL3
 7842 0030 10000000 		.4byte	.LVL6
 7843 0034 0400     		.2byte	0x4
 7844 0036 72       		.byte	0x72
 7845 0037 A87E     		.sleb128 -216
 7846 0039 9F       		.byte	0x9f
 7847 003a 10000000 		.4byte	.LVL6
 7848 003e 12000000 		.4byte	.LFE2
 7849 0042 0400     		.2byte	0x4
 7850 0044 F3       		.byte	0xf3
 7851 0045 01       		.uleb128 0x1
 7852 0046 50       		.byte	0x50
 7853 0047 9F       		.byte	0x9f
 7854 0048 00000000 		.4byte	0
 7855 004c 00000000 		.4byte	0
 7856              	.LLST2:
 7857 0050 08000000 		.4byte	.LVL3
 7858 0054 10000000 		.4byte	.LVL6
 7859 0058 0300     		.2byte	0x3
 7860 005a 08       		.byte	0x8
ARM GAS  C:\Users\jo\AppData\Local\Temp\ccBWvOPb.s 			page 142


 7861 005b D7       		.byte	0xd7
 7862 005c 9F       		.byte	0x9f
 7863 005d 00000000 		.4byte	0
 7864 0061 00000000 		.4byte	0
 7865              	.LLST3:
 7866 0065 08000000 		.4byte	.LVL3
 7867 0069 0C000000 		.4byte	.LVL5
 7868 006d 0300     		.2byte	0x3
 7869 006f 70       		.byte	0x70
 7870 0070 01       		.sleb128 1
 7871 0071 9F       		.byte	0x9f
 7872 0072 0C000000 		.4byte	.LVL5
 7873 0076 10000000 		.4byte	.LVL6
 7874 007a 0100     		.2byte	0x1
 7875 007c 50       		.byte	0x50
 7876 007d 00000000 		.4byte	0
 7877 0081 00000000 		.4byte	0
 7878              	.LLST4:
 7879 0085 00000000 		.4byte	.LVL8
 7880 0089 52000000 		.4byte	.LVL9
 7881 008d 0100     		.2byte	0x1
 7882 008f 50       		.byte	0x50
 7883 0090 52000000 		.4byte	.LVL9
 7884 0094 F0080000 		.4byte	.LVL172
 7885 0098 0100     		.2byte	0x1
 7886 009a 5A       		.byte	0x5a
 7887 009b F0080000 		.4byte	.LVL172
 7888 009f 74090000 		.4byte	.LFE4
 7889 00a3 0400     		.2byte	0x4
 7890 00a5 F3       		.byte	0xf3
 7891 00a6 01       		.uleb128 0x1
 7892 00a7 50       		.byte	0x50
 7893 00a8 9F       		.byte	0x9f
 7894 00a9 00000000 		.4byte	0
 7895 00ad 00000000 		.4byte	0
 7896              	.LLST5:
 7897 00b1 00000000 		.4byte	.LVL8
 7898 00b5 92010000 		.4byte	.LVL16
 7899 00b9 0100     		.2byte	0x1
 7900 00bb 51       		.byte	0x51
 7901 00bc 92010000 		.4byte	.LVL16
 7902 00c0 74090000 		.4byte	.LFE4
 7903 00c4 0400     		.2byte	0x4
 7904 00c6 F3       		.byte	0xf3
 7905 00c7 01       		.uleb128 0x1
 7906 00c8 51       		.byte	0x51
 7907 00c9 9F       		.byte	0x9f
 7908 00ca 00000000 		.4byte	0
 7909 00ce 00000000 		.4byte	0
 7910              	.LLST6:
 7911 00d2 54000000 		.4byte	.LVL10
 7912 00d6 76000000 		.4byte	.LVL11
 7913 00da 0B00     		.2byte	0xb
 7914 00dc 7D       		.byte	0x7d
 7915 00dd 00       		.sleb128 0
 7916 00de 93       		.byte	0x93
 7917 00df 04       		.uleb128 0x4
ARM GAS  C:\Users\jo\AppData\Local\Temp\ccBWvOPb.s 			page 143


 7918 00e0 91       		.byte	0x91
 7919 00e1 A47E     		.sleb128 -220
 7920 00e3 93       		.byte	0x93
 7921 00e4 04       		.uleb128 0x4
 7922 00e5 93       		.byte	0x93
 7923 00e6 38       		.uleb128 0x38
 7924 00e7 76000000 		.4byte	.LVL11
 7925 00eb BE000000 		.4byte	.LVL12
 7926 00ef 0900     		.2byte	0x9
 7927 00f1 93       		.byte	0x93
 7928 00f2 04       		.uleb128 0x4
 7929 00f3 91       		.byte	0x91
 7930 00f4 A47E     		.sleb128 -220
 7931 00f6 93       		.byte	0x93
 7932 00f7 04       		.uleb128 0x4
 7933 00f8 93       		.byte	0x93
 7934 00f9 38       		.uleb128 0x38
 7935 00fa 3E010000 		.4byte	.LVL13
 7936 00fe 44010000 		.4byte	.LVL14
 7937 0102 0C00     		.2byte	0xc
 7938 0104 93       		.byte	0x93
 7939 0105 08       		.uleb128 0x8
 7940 0106 55       		.byte	0x55
 7941 0107 93       		.byte	0x93
 7942 0108 04       		.uleb128 0x4
 7943 0109 91       		.byte	0x91
 7944 010a A87E     		.sleb128 -216
 7945 010c 93       		.byte	0x93
 7946 010d 04       		.uleb128 0x4
 7947 010e 93       		.byte	0x93
 7948 010f 30       		.uleb128 0x30
 7949 0110 44010000 		.4byte	.LVL14
 7950 0114 5C010000 		.4byte	.LVL15
 7951 0118 1600     		.2byte	0x16
 7952 011a 93       		.byte	0x93
 7953 011b 08       		.uleb128 0x8
 7954 011c 55       		.byte	0x55
 7955 011d 93       		.byte	0x93
 7956 011e 04       		.uleb128 0x4
 7957 011f 91       		.byte	0x91
 7958 0120 A87E     		.sleb128 -216
 7959 0122 93       		.byte	0x93
 7960 0123 04       		.uleb128 0x4
 7961 0124 91       		.byte	0x91
 7962 0125 AC7E     		.sleb128 -212
 7963 0127 93       		.byte	0x93
 7964 0128 04       		.uleb128 0x4
 7965 0129 91       		.byte	0x91
 7966 012a C87E     		.sleb128 -184
 7967 012c 93       		.byte	0x93
 7968 012d 04       		.uleb128 0x4
 7969 012e 93       		.byte	0x93
 7970 012f 28       		.uleb128 0x28
 7971 0130 CA080000 		.4byte	.LVL169
 7972 0134 F0080000 		.4byte	.LVL172
 7973 0138 0E00     		.2byte	0xe
 7974 013a 93       		.byte	0x93
ARM GAS  C:\Users\jo\AppData\Local\Temp\ccBWvOPb.s 			page 144


 7975 013b 08       		.uleb128 0x8
 7976 013c 91       		.byte	0x91
 7977 013d C47E     		.sleb128 -188
 7978 013f 93       		.byte	0x93
 7979 0140 04       		.uleb128 0x4
 7980 0141 91       		.byte	0x91
 7981 0142 A87E     		.sleb128 -216
 7982 0144 93       		.byte	0x93
 7983 0145 04       		.uleb128 0x4
 7984 0146 93       		.byte	0x93
 7985 0147 30       		.uleb128 0x30
 7986 0148 F0080000 		.4byte	.LVL172
 7987 014c 74090000 		.4byte	.LFE4
 7988 0150 0E00     		.2byte	0xe
 7989 0152 93       		.byte	0x93
 7990 0153 08       		.uleb128 0x8
 7991 0154 7D       		.byte	0x7d
 7992 0155 C47E     		.sleb128 -188
 7993 0157 93       		.byte	0x93
 7994 0158 04       		.uleb128 0x4
 7995 0159 7D       		.byte	0x7d
 7996 015a A87E     		.sleb128 -216
 7997 015c 93       		.byte	0x93
 7998 015d 04       		.uleb128 0x4
 7999 015e 93       		.byte	0x93
 8000 015f 30       		.uleb128 0x30
 8001 0160 00000000 		.4byte	0
 8002 0164 00000000 		.4byte	0
 8003              	.LLST7:
 8004 0168 EE030000 		.4byte	.LVL23
 8005 016c 12040000 		.4byte	.LVL27
 8006 0170 0100     		.2byte	0x1
 8007 0172 53       		.byte	0x53
 8008 0173 12040000 		.4byte	.LVL27
 8009 0177 14040000 		.4byte	.LVL28
 8010 017b 0F00     		.2byte	0xf
 8011 017d 74       		.byte	0x74
 8012 017e 00       		.sleb128 0
 8013 017f 75       		.byte	0x75
 8014 0180 00       		.sleb128 0
 8015 0181 27       		.byte	0x27
 8016 0182 71       		.byte	0x71
 8017 0183 00       		.sleb128 0
 8018 0184 1A       		.byte	0x1a
 8019 0185 75       		.byte	0x75
 8020 0186 00       		.sleb128 0
 8021 0187 27       		.byte	0x27
 8022 0188 73       		.byte	0x73
 8023 0189 00       		.sleb128 0
 8024 018a 22       		.byte	0x22
 8025 018b 9F       		.byte	0x9f
 8026 018c 14040000 		.4byte	.LVL28
 8027 0190 70040000 		.4byte	.LVL39
 8028 0194 0100     		.2byte	0x1
 8029 0196 53       		.byte	0x53
 8030 0197 70040000 		.4byte	.LVL39
 8031 019b 7C040000 		.4byte	.LVL40
ARM GAS  C:\Users\jo\AppData\Local\Temp\ccBWvOPb.s 			page 145


 8032 019f 0F00     		.2byte	0xf
 8033 01a1 72       		.byte	0x72
 8034 01a2 00       		.sleb128 0
 8035 01a3 7C       		.byte	0x7c
 8036 01a4 00       		.sleb128 0
 8037 01a5 27       		.byte	0x27
 8038 01a6 70       		.byte	0x70
 8039 01a7 00       		.sleb128 0
 8040 01a8 1A       		.byte	0x1a
 8041 01a9 7C       		.byte	0x7c
 8042 01aa 00       		.sleb128 0
 8043 01ab 27       		.byte	0x27
 8044 01ac 73       		.byte	0x73
 8045 01ad 00       		.sleb128 0
 8046 01ae 22       		.byte	0x22
 8047 01af 9F       		.byte	0x9f
 8048 01b0 7C040000 		.4byte	.LVL40
 8049 01b4 D6040000 		.4byte	.LVL51
 8050 01b8 0100     		.2byte	0x1
 8051 01ba 53       		.byte	0x53
 8052 01bb D6040000 		.4byte	.LVL51
 8053 01bf D8040000 		.4byte	.LVL52
 8054 01c3 0F00     		.2byte	0xf
 8055 01c5 75       		.byte	0x75
 8056 01c6 00       		.sleb128 0
 8057 01c7 71       		.byte	0x71
 8058 01c8 00       		.sleb128 0
 8059 01c9 27       		.byte	0x27
 8060 01ca 7E       		.byte	0x7e
 8061 01cb 00       		.sleb128 0
 8062 01cc 1A       		.byte	0x1a
 8063 01cd 71       		.byte	0x71
 8064 01ce 00       		.sleb128 0
 8065 01cf 27       		.byte	0x27
 8066 01d0 73       		.byte	0x73
 8067 01d1 00       		.sleb128 0
 8068 01d2 22       		.byte	0x22
 8069 01d3 9F       		.byte	0x9f
 8070 01d4 D8040000 		.4byte	.LVL52
 8071 01d8 B2050000 		.4byte	.LVL63
 8072 01dc 0100     		.2byte	0x1
 8073 01de 54       		.byte	0x54
 8074 01df B2050000 		.4byte	.LVL63
 8075 01e3 B4050000 		.4byte	.LVL64
 8076 01e7 0F00     		.2byte	0xf
 8077 01e9 72       		.byte	0x72
 8078 01ea 00       		.sleb128 0
 8079 01eb 71       		.byte	0x71
 8080 01ec 00       		.sleb128 0
 8081 01ed 27       		.byte	0x27
 8082 01ee 70       		.byte	0x70
 8083 01ef 00       		.sleb128 0
 8084 01f0 1A       		.byte	0x1a
 8085 01f1 71       		.byte	0x71
 8086 01f2 00       		.sleb128 0
 8087 01f3 27       		.byte	0x27
 8088 01f4 74       		.byte	0x74
ARM GAS  C:\Users\jo\AppData\Local\Temp\ccBWvOPb.s 			page 146


 8089 01f5 00       		.sleb128 0
 8090 01f6 22       		.byte	0x22
 8091 01f7 9F       		.byte	0x9f
 8092 01f8 B4050000 		.4byte	.LVL64
 8093 01fc 16060000 		.4byte	.LVL75
 8094 0200 0100     		.2byte	0x1
 8095 0202 53       		.byte	0x53
 8096 0203 16060000 		.4byte	.LVL75
 8097 0207 18060000 		.4byte	.LVL76
 8098 020b 0C00     		.2byte	0xc
 8099 020d 71       		.byte	0x71
 8100 020e 00       		.sleb128 0
 8101 020f 70       		.byte	0x70
 8102 0210 00       		.sleb128 0
 8103 0211 27       		.byte	0x27
 8104 0212 72       		.byte	0x72
 8105 0213 00       		.sleb128 0
 8106 0214 27       		.byte	0x27
 8107 0215 73       		.byte	0x73
 8108 0216 00       		.sleb128 0
 8109 0217 22       		.byte	0x22
 8110 0218 9F       		.byte	0x9f
 8111 0219 1C060000 		.4byte	.LVL77
 8112 021d 64060000 		.4byte	.LVL87
 8113 0221 0100     		.2byte	0x1
 8114 0223 53       		.byte	0x53
 8115 0224 64060000 		.4byte	.LVL87
 8116 0228 66060000 		.4byte	.LVL88
 8117 022c 0C00     		.2byte	0xc
 8118 022e 71       		.byte	0x71
 8119 022f 00       		.sleb128 0
 8120 0230 70       		.byte	0x70
 8121 0231 00       		.sleb128 0
 8122 0232 27       		.byte	0x27
 8123 0233 78       		.byte	0x78
 8124 0234 00       		.sleb128 0
 8125 0235 27       		.byte	0x27
 8126 0236 73       		.byte	0x73
 8127 0237 00       		.sleb128 0
 8128 0238 22       		.byte	0x22
 8129 0239 9F       		.byte	0x9f
 8130 023a 66060000 		.4byte	.LVL88
 8131 023e B8060000 		.4byte	.LVL99
 8132 0242 0100     		.2byte	0x1
 8133 0244 53       		.byte	0x53
 8134 0245 B8060000 		.4byte	.LVL99
 8135 0249 BA060000 		.4byte	.LVL100
 8136 024d 0C00     		.2byte	0xc
 8137 024f 75       		.byte	0x75
 8138 0250 00       		.sleb128 0
 8139 0251 7C       		.byte	0x7c
 8140 0252 00       		.sleb128 0
 8141 0253 27       		.byte	0x27
 8142 0254 7E       		.byte	0x7e
 8143 0255 00       		.sleb128 0
 8144 0256 27       		.byte	0x27
 8145 0257 73       		.byte	0x73
ARM GAS  C:\Users\jo\AppData\Local\Temp\ccBWvOPb.s 			page 147


 8146 0258 00       		.sleb128 0
 8147 0259 22       		.byte	0x22
 8148 025a 9F       		.byte	0x9f
 8149 025b BA060000 		.4byte	.LVL100
 8150 025f BE060000 		.4byte	.LVL101
 8151 0263 0100     		.2byte	0x1
 8152 0265 53       		.byte	0x53
 8153 0266 BE060000 		.4byte	.LVL101
 8154 026a 0E070000 		.4byte	.LVL111
 8155 026e 0100     		.2byte	0x1
 8156 0270 54       		.byte	0x54
 8157 0271 0E070000 		.4byte	.LVL111
 8158 0275 10070000 		.4byte	.LVL112
 8159 0279 0C00     		.2byte	0xc
 8160 027b 71       		.byte	0x71
 8161 027c 00       		.sleb128 0
 8162 027d 72       		.byte	0x72
 8163 027e 00       		.sleb128 0
 8164 027f 27       		.byte	0x27
 8165 0280 70       		.byte	0x70
 8166 0281 00       		.sleb128 0
 8167 0282 27       		.byte	0x27
 8168 0283 74       		.byte	0x74
 8169 0284 00       		.sleb128 0
 8170 0285 22       		.byte	0x22
 8171 0286 9F       		.byte	0x9f
 8172 0287 10070000 		.4byte	.LVL112
 8173 028b 14070000 		.4byte	.LVL113
 8174 028f 0100     		.2byte	0x1
 8175 0291 54       		.byte	0x54
 8176 0292 14070000 		.4byte	.LVL113
 8177 0296 66070000 		.4byte	.LVL123
 8178 029a 0100     		.2byte	0x1
 8179 029c 58       		.byte	0x58
 8180 029d 66070000 		.4byte	.LVL123
 8181 02a1 6C070000 		.4byte	.LVL124
 8182 02a5 0D00     		.2byte	0xd
 8183 02a7 73       		.byte	0x73
 8184 02a8 00       		.sleb128 0
 8185 02a9 20       		.byte	0x20
 8186 02aa 7E       		.byte	0x7e
 8187 02ab 00       		.sleb128 0
 8188 02ac 21       		.byte	0x21
 8189 02ad 7C       		.byte	0x7c
 8190 02ae 00       		.sleb128 0
 8191 02af 27       		.byte	0x27
 8192 02b0 75       		.byte	0x75
 8193 02b1 00       		.sleb128 0
 8194 02b2 22       		.byte	0x22
 8195 02b3 9F       		.byte	0x9f
 8196 02b4 6C070000 		.4byte	.LVL124
 8197 02b8 CA070000 		.4byte	.LVL135
 8198 02bc 0100     		.2byte	0x1
 8199 02be 55       		.byte	0x55
 8200 02bf CA070000 		.4byte	.LVL135
 8201 02c3 CC070000 		.4byte	.LVL136
 8202 02c7 0D00     		.2byte	0xd
ARM GAS  C:\Users\jo\AppData\Local\Temp\ccBWvOPb.s 			page 148


 8203 02c9 72       		.byte	0x72
 8204 02ca 00       		.sleb128 0
 8205 02cb 20       		.byte	0x20
 8206 02cc 70       		.byte	0x70
 8207 02cd 00       		.sleb128 0
 8208 02ce 21       		.byte	0x21
 8209 02cf 74       		.byte	0x74
 8210 02d0 00       		.sleb128 0
 8211 02d1 27       		.byte	0x27
 8212 02d2 71       		.byte	0x71
 8213 02d3 00       		.sleb128 0
 8214 02d4 22       		.byte	0x22
 8215 02d5 9F       		.byte	0x9f
 8216 02d6 CC070000 		.4byte	.LVL136
 8217 02da 32080000 		.4byte	.LVL147
 8218 02de 0100     		.2byte	0x1
 8219 02e0 51       		.byte	0x51
 8220 02e1 32080000 		.4byte	.LVL147
 8221 02e5 36080000 		.4byte	.LVL148
 8222 02e9 0D00     		.2byte	0xd
 8223 02eb 73       		.byte	0x73
 8224 02ec 00       		.sleb128 0
 8225 02ed 20       		.byte	0x20
 8226 02ee 70       		.byte	0x70
 8227 02ef 00       		.sleb128 0
 8228 02f0 21       		.byte	0x21
 8229 02f1 74       		.byte	0x74
 8230 02f2 00       		.sleb128 0
 8231 02f3 27       		.byte	0x27
 8232 02f4 71       		.byte	0x71
 8233 02f5 00       		.sleb128 0
 8234 02f6 22       		.byte	0x22
 8235 02f7 9F       		.byte	0x9f
 8236 02f8 36080000 		.4byte	.LVL148
 8237 02fc 80080000 		.4byte	.LVL159
 8238 0300 0100     		.2byte	0x1
 8239 0302 51       		.byte	0x51
 8240 0303 80080000 		.4byte	.LVL159
 8241 0307 84080000 		.4byte	.LVL160
 8242 030b 0D00     		.2byte	0xd
 8243 030d 73       		.byte	0x73
 8244 030e 00       		.sleb128 0
 8245 030f 20       		.byte	0x20
 8246 0310 7E       		.byte	0x7e
 8247 0311 00       		.sleb128 0
 8248 0312 21       		.byte	0x21
 8249 0313 78       		.byte	0x78
 8250 0314 00       		.sleb128 0
 8251 0315 27       		.byte	0x27
 8252 0316 71       		.byte	0x71
 8253 0317 00       		.sleb128 0
 8254 0318 22       		.byte	0x22
 8255 0319 9F       		.byte	0x9f
 8256 031a 84080000 		.4byte	.LVL160
 8257 031e C2080000 		.4byte	.LVL168
 8258 0322 0100     		.2byte	0x1
 8259 0324 51       		.byte	0x51
ARM GAS  C:\Users\jo\AppData\Local\Temp\ccBWvOPb.s 			page 149


 8260 0325 00000000 		.4byte	0
 8261 0329 00000000 		.4byte	0
 8262              	.LLST8:
 8263 032d EE030000 		.4byte	.LVL23
 8264 0331 FA030000 		.4byte	.LVL24
 8265 0335 0100     		.2byte	0x1
 8266 0337 54       		.byte	0x54
 8267 0338 FA030000 		.4byte	.LVL24
 8268 033c FC030000 		.4byte	.LVL25
 8269 0340 0F00     		.2byte	0xf
 8270 0342 71       		.byte	0x71
 8271 0343 00       		.sleb128 0
 8272 0344 73       		.byte	0x73
 8273 0345 00       		.sleb128 0
 8274 0346 27       		.byte	0x27
 8275 0347 75       		.byte	0x75
 8276 0348 00       		.sleb128 0
 8277 0349 1A       		.byte	0x1a
 8278 034a 73       		.byte	0x73
 8279 034b 00       		.sleb128 0
 8280 034c 27       		.byte	0x27
 8281 034d 74       		.byte	0x74
 8282 034e 00       		.sleb128 0
 8283 034f 22       		.byte	0x22
 8284 0350 9F       		.byte	0x9f
 8285 0351 FC030000 		.4byte	.LVL25
 8286 0355 60040000 		.4byte	.LVL36
 8287 0359 0100     		.2byte	0x1
 8288 035b 54       		.byte	0x54
 8289 035c 60040000 		.4byte	.LVL36
 8290 0360 62040000 		.4byte	.LVL37
 8291 0364 0F00     		.2byte	0xf
 8292 0366 7C       		.byte	0x7c
 8293 0367 00       		.sleb128 0
 8294 0368 70       		.byte	0x70
 8295 0369 00       		.sleb128 0
 8296 036a 27       		.byte	0x27
 8297 036b 73       		.byte	0x73
 8298 036c 00       		.sleb128 0
 8299 036d 1A       		.byte	0x1a
 8300 036e 70       		.byte	0x70
 8301 036f 00       		.sleb128 0
 8302 0370 27       		.byte	0x27
 8303 0371 74       		.byte	0x74
 8304 0372 00       		.sleb128 0
 8305 0373 22       		.byte	0x22
 8306 0374 9F       		.byte	0x9f
 8307 0375 62040000 		.4byte	.LVL37
 8308 0379 C2040000 		.4byte	.LVL48
 8309 037d 0100     		.2byte	0x1
 8310 037f 52       		.byte	0x52
 8311 0380 C2040000 		.4byte	.LVL48
 8312 0384 C4040000 		.4byte	.LVL49
 8313 0388 0F00     		.2byte	0xf
 8314 038a 71       		.byte	0x71
 8315 038b 00       		.sleb128 0
 8316 038c 7E       		.byte	0x7e
ARM GAS  C:\Users\jo\AppData\Local\Temp\ccBWvOPb.s 			page 150


 8317 038d 00       		.sleb128 0
 8318 038e 27       		.byte	0x27
 8319 038f 73       		.byte	0x73
 8320 0390 00       		.sleb128 0
 8321 0391 1A       		.byte	0x1a
 8322 0392 7E       		.byte	0x7e
 8323 0393 00       		.sleb128 0
 8324 0394 27       		.byte	0x27
 8325 0395 72       		.byte	0x72
 8326 0396 00       		.sleb128 0
 8327 0397 22       		.byte	0x22
 8328 0398 9F       		.byte	0x9f
 8329 0399 C4040000 		.4byte	.LVL49
 8330 039d C8040000 		.4byte	.LVL50
 8331 03a1 0100     		.2byte	0x1
 8332 03a3 52       		.byte	0x52
 8333 03a4 C8040000 		.4byte	.LVL50
 8334 03a8 96050000 		.4byte	.LVL60
 8335 03ac 0100     		.2byte	0x1
 8336 03ae 55       		.byte	0x55
 8337 03af 96050000 		.4byte	.LVL60
 8338 03b3 9A050000 		.4byte	.LVL61
 8339 03b7 0F00     		.2byte	0xf
 8340 03b9 71       		.byte	0x71
 8341 03ba 00       		.sleb128 0
 8342 03bb 70       		.byte	0x70
 8343 03bc 00       		.sleb128 0
 8344 03bd 27       		.byte	0x27
 8345 03be 74       		.byte	0x74
 8346 03bf 00       		.sleb128 0
 8347 03c0 1A       		.byte	0x1a
 8348 03c1 70       		.byte	0x70
 8349 03c2 00       		.sleb128 0
 8350 03c3 27       		.byte	0x27
 8351 03c4 75       		.byte	0x75
 8352 03c5 00       		.sleb128 0
 8353 03c6 22       		.byte	0x22
 8354 03c7 9F       		.byte	0x9f
 8355 03c8 9A050000 		.4byte	.LVL61
 8356 03cc 00060000 		.4byte	.LVL72
 8357 03d0 0100     		.2byte	0x1
 8358 03d2 52       		.byte	0x52
 8359 03d3 00060000 		.4byte	.LVL72
 8360 03d7 02060000 		.4byte	.LVL73
 8361 03db 0C00     		.2byte	0xc
 8362 03dd 7C       		.byte	0x7c
 8363 03de 00       		.sleb128 0
 8364 03df 73       		.byte	0x73
 8365 03e0 00       		.sleb128 0
 8366 03e1 1A       		.byte	0x1a
 8367 03e2 70       		.byte	0x70
 8368 03e3 00       		.sleb128 0
 8369 03e4 27       		.byte	0x27
 8370 03e5 72       		.byte	0x72
 8371 03e6 00       		.sleb128 0
 8372 03e7 22       		.byte	0x22
 8373 03e8 9F       		.byte	0x9f
ARM GAS  C:\Users\jo\AppData\Local\Temp\ccBWvOPb.s 			page 151


 8374 03e9 02060000 		.4byte	.LVL73
 8375 03ed 50060000 		.4byte	.LVL84
 8376 03f1 0100     		.2byte	0x1
 8377 03f3 52       		.byte	0x52
 8378 03f4 50060000 		.4byte	.LVL84
 8379 03f8 54060000 		.4byte	.LVL85
 8380 03fc 0C00     		.2byte	0xc
 8381 03fe 70       		.byte	0x70
 8382 03ff 00       		.sleb128 0
 8383 0400 73       		.byte	0x73
 8384 0401 00       		.sleb128 0
 8385 0402 27       		.byte	0x27
 8386 0403 71       		.byte	0x71
 8387 0404 00       		.sleb128 0
 8388 0405 27       		.byte	0x27
 8389 0406 72       		.byte	0x72
 8390 0407 00       		.sleb128 0
 8391 0408 22       		.byte	0x22
 8392 0409 9F       		.byte	0x9f
 8393 040a 54060000 		.4byte	.LVL85
 8394 040e 58060000 		.4byte	.LVL86
 8395 0412 0100     		.2byte	0x1
 8396 0414 52       		.byte	0x52
 8397 0415 58060000 		.4byte	.LVL86
 8398 0419 A6060000 		.4byte	.LVL96
 8399 041d 0100     		.2byte	0x1
 8400 041f 58       		.byte	0x58
 8401 0420 A6060000 		.4byte	.LVL96
 8402 0424 A8060000 		.4byte	.LVL97
 8403 0428 0C00     		.2byte	0xc
 8404 042a 7C       		.byte	0x7c
 8405 042b 00       		.sleb128 0
 8406 042c 73       		.byte	0x73
 8407 042d 00       		.sleb128 0
 8408 042e 27       		.byte	0x27
 8409 042f 75       		.byte	0x75
 8410 0430 00       		.sleb128 0
 8411 0431 27       		.byte	0x27
 8412 0432 78       		.byte	0x78
 8413 0433 00       		.sleb128 0
 8414 0434 22       		.byte	0x22
 8415 0435 9F       		.byte	0x9f
 8416 0436 A8060000 		.4byte	.LVL97
 8417 043a AC060000 		.4byte	.LVL98
 8418 043e 0100     		.2byte	0x1
 8419 0440 58       		.byte	0x58
 8420 0441 AC060000 		.4byte	.LVL98
 8421 0445 FA060000 		.4byte	.LVL108
 8422 0449 0100     		.2byte	0x1
 8423 044b 5E       		.byte	0x5e
 8424 044c FA060000 		.4byte	.LVL108
 8425 0450 FE060000 		.4byte	.LVL109
 8426 0454 0C00     		.2byte	0xc
 8427 0456 72       		.byte	0x72
 8428 0457 00       		.sleb128 0
 8429 0458 74       		.byte	0x74
 8430 0459 00       		.sleb128 0
ARM GAS  C:\Users\jo\AppData\Local\Temp\ccBWvOPb.s 			page 152


 8431 045a 27       		.byte	0x27
 8432 045b 71       		.byte	0x71
 8433 045c 00       		.sleb128 0
 8434 045d 27       		.byte	0x27
 8435 045e 7E       		.byte	0x7e
 8436 045f 00       		.sleb128 0
 8437 0460 22       		.byte	0x22
 8438 0461 9F       		.byte	0x9f
 8439 0462 FE060000 		.4byte	.LVL109
 8440 0466 4E070000 		.4byte	.LVL120
 8441 046a 0100     		.2byte	0x1
 8442 046c 50       		.byte	0x50
 8443 046d 4E070000 		.4byte	.LVL120
 8444 0471 50070000 		.4byte	.LVL121
 8445 0475 0C00     		.2byte	0xc
 8446 0477 73       		.byte	0x73
 8447 0478 00       		.sleb128 0
 8448 0479 78       		.byte	0x78
 8449 047a 00       		.sleb128 0
 8450 047b 27       		.byte	0x27
 8451 047c 7C       		.byte	0x7c
 8452 047d 00       		.sleb128 0
 8453 047e 27       		.byte	0x27
 8454 047f 70       		.byte	0x70
 8455 0480 00       		.sleb128 0
 8456 0481 22       		.byte	0x22
 8457 0482 9F       		.byte	0x9f
 8458 0483 50070000 		.4byte	.LVL121
 8459 0487 5A070000 		.4byte	.LVL122
 8460 048b 0100     		.2byte	0x1
 8461 048d 50       		.byte	0x50
 8462 048e 5A070000 		.4byte	.LVL122
 8463 0492 AA070000 		.4byte	.LVL132
 8464 0496 0100     		.2byte	0x1
 8465 0498 5E       		.byte	0x5e
 8466 0499 AA070000 		.4byte	.LVL132
 8467 049d AE070000 		.4byte	.LVL133
 8468 04a1 0D00     		.2byte	0xd
 8469 04a3 75       		.byte	0x75
 8470 04a4 00       		.sleb128 0
 8471 04a5 20       		.byte	0x20
 8472 04a6 74       		.byte	0x74
 8473 04a7 00       		.sleb128 0
 8474 04a8 21       		.byte	0x21
 8475 04a9 72       		.byte	0x72
 8476 04aa 00       		.sleb128 0
 8477 04ab 27       		.byte	0x27
 8478 04ac 7E       		.byte	0x7e
 8479 04ad 00       		.sleb128 0
 8480 04ae 22       		.byte	0x22
 8481 04af 9F       		.byte	0x9f
 8482 04b0 AE070000 		.4byte	.LVL133
 8483 04b4 1C080000 		.4byte	.LVL144
 8484 04b8 0100     		.2byte	0x1
 8485 04ba 50       		.byte	0x50
 8486 04bb 1C080000 		.4byte	.LVL144
 8487 04bf 1E080000 		.4byte	.LVL145
ARM GAS  C:\Users\jo\AppData\Local\Temp\ccBWvOPb.s 			page 153


 8488 04c3 0D00     		.2byte	0xd
 8489 04c5 71       		.byte	0x71
 8490 04c6 00       		.sleb128 0
 8491 04c7 20       		.byte	0x20
 8492 04c8 74       		.byte	0x74
 8493 04c9 00       		.sleb128 0
 8494 04ca 21       		.byte	0x21
 8495 04cb 73       		.byte	0x73
 8496 04cc 00       		.sleb128 0
 8497 04cd 27       		.byte	0x27
 8498 04ce 70       		.byte	0x70
 8499 04cf 00       		.sleb128 0
 8500 04d0 22       		.byte	0x22
 8501 04d1 9F       		.byte	0x9f
 8502 04d2 1E080000 		.4byte	.LVL145
 8503 04d6 6A080000 		.4byte	.LVL156
 8504 04da 0100     		.2byte	0x1
 8505 04dc 50       		.byte	0x50
 8506 04dd 6A080000 		.4byte	.LVL156
 8507 04e1 6C080000 		.4byte	.LVL157
 8508 04e5 0D00     		.2byte	0xd
 8509 04e7 71       		.byte	0x71
 8510 04e8 00       		.sleb128 0
 8511 04e9 20       		.byte	0x20
 8512 04ea 78       		.byte	0x78
 8513 04eb 00       		.sleb128 0
 8514 04ec 21       		.byte	0x21
 8515 04ed 73       		.byte	0x73
 8516 04ee 00       		.sleb128 0
 8517 04ef 27       		.byte	0x27
 8518 04f0 7E       		.byte	0x7e
 8519 04f1 00       		.sleb128 0
 8520 04f2 22       		.byte	0x22
 8521 04f3 9F       		.byte	0x9f
 8522 04f4 6C080000 		.4byte	.LVL157
 8523 04f8 CE080000 		.4byte	.LVL170
 8524 04fc 0100     		.2byte	0x1
 8525 04fe 5E       		.byte	0x5e
 8526 04ff 00000000 		.4byte	0
 8527 0503 00000000 		.4byte	0
 8528              	.LLST9:
 8529 0507 EE030000 		.4byte	.LVL23
 8530 050b 48040000 		.4byte	.LVL33
 8531 050f 0100     		.2byte	0x1
 8532 0511 55       		.byte	0x55
 8533 0512 48040000 		.4byte	.LVL33
 8534 0516 4C040000 		.4byte	.LVL34
 8535 051a 0F00     		.2byte	0xf
 8536 051c 70       		.byte	0x70
 8537 051d 00       		.sleb128 0
 8538 051e 73       		.byte	0x73
 8539 051f 00       		.sleb128 0
 8540 0520 27       		.byte	0x27
 8541 0521 74       		.byte	0x74
 8542 0522 00       		.sleb128 0
 8543 0523 1A       		.byte	0x1a
 8544 0524 73       		.byte	0x73
ARM GAS  C:\Users\jo\AppData\Local\Temp\ccBWvOPb.s 			page 154


 8545 0525 00       		.sleb128 0
 8546 0526 27       		.byte	0x27
 8547 0527 75       		.byte	0x75
 8548 0528 00       		.sleb128 0
 8549 0529 22       		.byte	0x22
 8550 052a 9F       		.byte	0x9f
 8551 052b 4C040000 		.4byte	.LVL34
 8552 052f A2040000 		.4byte	.LVL45
 8553 0533 0100     		.2byte	0x1
 8554 0535 5C       		.byte	0x5c
 8555 0536 A2040000 		.4byte	.LVL45
 8556 053a A6040000 		.4byte	.LVL46
 8557 053e 0F00     		.2byte	0xf
 8558 0540 7E       		.byte	0x7e
 8559 0541 00       		.sleb128 0
 8560 0542 73       		.byte	0x73
 8561 0543 00       		.sleb128 0
 8562 0544 27       		.byte	0x27
 8563 0545 72       		.byte	0x72
 8564 0546 00       		.sleb128 0
 8565 0547 1A       		.byte	0x1a
 8566 0548 73       		.byte	0x73
 8567 0549 00       		.sleb128 0
 8568 054a 27       		.byte	0x27
 8569 054b 7C       		.byte	0x7c
 8570 054c 00       		.sleb128 0
 8571 054d 22       		.byte	0x22
 8572 054e 9F       		.byte	0x9f
 8573 054f A6040000 		.4byte	.LVL46
 8574 0553 FE040000 		.4byte	.LVL57
 8575 0557 0100     		.2byte	0x1
 8576 0559 51       		.byte	0x51
 8577 055a FE040000 		.4byte	.LVL57
 8578 055e 0C050000 		.4byte	.LVL58
 8579 0562 0F00     		.2byte	0xf
 8580 0564 70       		.byte	0x70
 8581 0565 00       		.sleb128 0
 8582 0566 74       		.byte	0x74
 8583 0567 00       		.sleb128 0
 8584 0568 27       		.byte	0x27
 8585 0569 75       		.byte	0x75
 8586 056a 00       		.sleb128 0
 8587 056b 1A       		.byte	0x1a
 8588 056c 74       		.byte	0x74
 8589 056d 00       		.sleb128 0
 8590 056e 27       		.byte	0x27
 8591 056f 71       		.byte	0x71
 8592 0570 00       		.sleb128 0
 8593 0571 22       		.byte	0x22
 8594 0572 9F       		.byte	0x9f
 8595 0573 0C050000 		.4byte	.LVL58
 8596 0577 E4050000 		.4byte	.LVL69
 8597 057b 0100     		.2byte	0x1
 8598 057d 51       		.byte	0x51
 8599 057e E4050000 		.4byte	.LVL69
 8600 0582 E6050000 		.4byte	.LVL70
 8601 0586 0F00     		.2byte	0xf
ARM GAS  C:\Users\jo\AppData\Local\Temp\ccBWvOPb.s 			page 155


 8602 0588 70       		.byte	0x70
 8603 0589 00       		.sleb128 0
 8604 058a 73       		.byte	0x73
 8605 058b 00       		.sleb128 0
 8606 058c 27       		.byte	0x27
 8607 058d 72       		.byte	0x72
 8608 058e 00       		.sleb128 0
 8609 058f 1A       		.byte	0x1a
 8610 0590 73       		.byte	0x73
 8611 0591 00       		.sleb128 0
 8612 0592 27       		.byte	0x27
 8613 0593 71       		.byte	0x71
 8614 0594 00       		.sleb128 0
 8615 0595 22       		.byte	0x22
 8616 0596 9F       		.byte	0x9f
 8617 0597 E6050000 		.4byte	.LVL70
 8618 059b 3A060000 		.4byte	.LVL81
 8619 059f 0100     		.2byte	0x1
 8620 05a1 51       		.byte	0x51
 8621 05a2 3A060000 		.4byte	.LVL81
 8622 05a6 40060000 		.4byte	.LVL82
 8623 05aa 0C00     		.2byte	0xc
 8624 05ac 73       		.byte	0x73
 8625 05ad 00       		.sleb128 0
 8626 05ae 72       		.byte	0x72
 8627 05af 00       		.sleb128 0
 8628 05b0 27       		.byte	0x27
 8629 05b1 70       		.byte	0x70
 8630 05b2 00       		.sleb128 0
 8631 05b3 27       		.byte	0x27
 8632 05b4 71       		.byte	0x71
 8633 05b5 00       		.sleb128 0
 8634 05b6 22       		.byte	0x22
 8635 05b7 9F       		.byte	0x9f
 8636 05b8 40060000 		.4byte	.LVL82
 8637 05bc 90060000 		.4byte	.LVL93
 8638 05c0 0100     		.2byte	0x1
 8639 05c2 51       		.byte	0x51
 8640 05c3 90060000 		.4byte	.LVL93
 8641 05c7 92060000 		.4byte	.LVL94
 8642 05cb 0C00     		.2byte	0xc
 8643 05cd 73       		.byte	0x73
 8644 05ce 00       		.sleb128 0
 8645 05cf 78       		.byte	0x78
 8646 05d0 00       		.sleb128 0
 8647 05d1 27       		.byte	0x27
 8648 05d2 7C       		.byte	0x7c
 8649 05d3 00       		.sleb128 0
 8650 05d4 27       		.byte	0x27
 8651 05d5 71       		.byte	0x71
 8652 05d6 00       		.sleb128 0
 8653 05d7 22       		.byte	0x22
 8654 05d8 9F       		.byte	0x9f
 8655 05d9 92060000 		.4byte	.LVL94
 8656 05dd 96060000 		.4byte	.LVL95
 8657 05e1 0100     		.2byte	0x1
 8658 05e3 51       		.byte	0x51
ARM GAS  C:\Users\jo\AppData\Local\Temp\ccBWvOPb.s 			page 156


 8659 05e4 96060000 		.4byte	.LVL95
 8660 05e8 E6060000 		.4byte	.LVL105
 8661 05ec 0100     		.2byte	0x1
 8662 05ee 55       		.byte	0x55
 8663 05ef E6060000 		.4byte	.LVL105
 8664 05f3 E8060000 		.4byte	.LVL106
 8665 05f7 0C00     		.2byte	0xc
 8666 05f9 74       		.byte	0x74
 8667 05fa 00       		.sleb128 0
 8668 05fb 7E       		.byte	0x7e
 8669 05fc 00       		.sleb128 0
 8670 05fd 27       		.byte	0x27
 8671 05fe 72       		.byte	0x72
 8672 05ff 00       		.sleb128 0
 8673 0600 27       		.byte	0x27
 8674 0601 75       		.byte	0x75
 8675 0602 00       		.sleb128 0
 8676 0603 22       		.byte	0x22
 8677 0604 9F       		.byte	0x9f
 8678 0605 E8060000 		.4byte	.LVL106
 8679 0609 EC060000 		.4byte	.LVL107
 8680 060d 0100     		.2byte	0x1
 8681 060f 55       		.byte	0x55
 8682 0610 EC060000 		.4byte	.LVL107
 8683 0614 36070000 		.4byte	.LVL117
 8684 0618 0100     		.2byte	0x1
 8685 061a 51       		.byte	0x51
 8686 061b 36070000 		.4byte	.LVL117
 8687 061f 38070000 		.4byte	.LVL118
 8688 0623 0C00     		.2byte	0xc
 8689 0625 78       		.byte	0x78
 8690 0626 00       		.sleb128 0
 8691 0627 70       		.byte	0x70
 8692 0628 00       		.sleb128 0
 8693 0629 27       		.byte	0x27
 8694 062a 73       		.byte	0x73
 8695 062b 00       		.sleb128 0
 8696 062c 27       		.byte	0x27
 8697 062d 71       		.byte	0x71
 8698 062e 00       		.sleb128 0
 8699 062f 22       		.byte	0x22
 8700 0630 9F       		.byte	0x9f
 8701 0631 38070000 		.4byte	.LVL118
 8702 0635 3C070000 		.4byte	.LVL119
 8703 0639 0100     		.2byte	0x1
 8704 063b 51       		.byte	0x51
 8705 063c 3C070000 		.4byte	.LVL119
 8706 0640 92070000 		.4byte	.LVL129
 8707 0644 0100     		.2byte	0x1
 8708 0646 5C       		.byte	0x5c
 8709 0647 92070000 		.4byte	.LVL129
 8710 064b 9C070000 		.4byte	.LVL130
 8711 064f 0D00     		.2byte	0xd
 8712 0651 7E       		.byte	0x7e
 8713 0652 00       		.sleb128 0
 8714 0653 20       		.byte	0x20
 8715 0654 72       		.byte	0x72
ARM GAS  C:\Users\jo\AppData\Local\Temp\ccBWvOPb.s 			page 157


 8716 0655 00       		.sleb128 0
 8717 0656 21       		.byte	0x21
 8718 0657 75       		.byte	0x75
 8719 0658 00       		.sleb128 0
 8720 0659 27       		.byte	0x27
 8721 065a 7C       		.byte	0x7c
 8722 065b 00       		.sleb128 0
 8723 065c 22       		.byte	0x22
 8724 065d 9F       		.byte	0x9f
 8725 065e 9C070000 		.4byte	.LVL130
 8726 0662 02080000 		.4byte	.LVL141
 8727 0666 0100     		.2byte	0x1
 8728 0668 54       		.byte	0x54
 8729 0669 02080000 		.4byte	.LVL141
 8730 066d 04080000 		.4byte	.LVL142
 8731 0671 0D00     		.2byte	0xd
 8732 0673 70       		.byte	0x70
 8733 0674 00       		.sleb128 0
 8734 0675 20       		.byte	0x20
 8735 0676 73       		.byte	0x73
 8736 0677 00       		.sleb128 0
 8737 0678 21       		.byte	0x21
 8738 0679 71       		.byte	0x71
 8739 067a 00       		.sleb128 0
 8740 067b 27       		.byte	0x27
 8741 067c 74       		.byte	0x74
 8742 067d 00       		.sleb128 0
 8743 067e 22       		.byte	0x22
 8744 067f 9F       		.byte	0x9f
 8745 0680 04080000 		.4byte	.LVL142
 8746 0684 5A080000 		.4byte	.LVL153
 8747 0688 0100     		.2byte	0x1
 8748 068a 54       		.byte	0x54
 8749 068b 5A080000 		.4byte	.LVL153
 8750 068f 5C080000 		.4byte	.LVL154
 8751 0693 0D00     		.2byte	0xd
 8752 0695 70       		.byte	0x70
 8753 0696 00       		.sleb128 0
 8754 0697 20       		.byte	0x20
 8755 0698 73       		.byte	0x73
 8756 0699 00       		.sleb128 0
 8757 069a 21       		.byte	0x21
 8758 069b 71       		.byte	0x71
 8759 069c 00       		.sleb128 0
 8760 069d 27       		.byte	0x27
 8761 069e 78       		.byte	0x78
 8762 069f 00       		.sleb128 0
 8763 06a0 22       		.byte	0x22
 8764 06a1 9F       		.byte	0x9f
 8765 06a2 5C080000 		.4byte	.LVL154
 8766 06a6 AC080000 		.4byte	.LVL165
 8767 06aa 0100     		.2byte	0x1
 8768 06ac 58       		.byte	0x58
 8769 06ad AC080000 		.4byte	.LVL165
 8770 06b1 AE080000 		.4byte	.LVL166
 8771 06b5 0D00     		.2byte	0xd
 8772 06b7 7E       		.byte	0x7e
ARM GAS  C:\Users\jo\AppData\Local\Temp\ccBWvOPb.s 			page 158


 8773 06b8 00       		.sleb128 0
 8774 06b9 20       		.byte	0x20
 8775 06ba 73       		.byte	0x73
 8776 06bb 00       		.sleb128 0
 8777 06bc 21       		.byte	0x21
 8778 06bd 71       		.byte	0x71
 8779 06be 00       		.sleb128 0
 8780 06bf 27       		.byte	0x27
 8781 06c0 78       		.byte	0x78
 8782 06c1 00       		.sleb128 0
 8783 06c2 22       		.byte	0x22
 8784 06c3 9F       		.byte	0x9f
 8785 06c4 AE080000 		.4byte	.LVL166
 8786 06c8 F0080000 		.4byte	.LVL172
 8787 06cc 0100     		.2byte	0x1
 8788 06ce 58       		.byte	0x58
 8789 06cf 00000000 		.4byte	0
 8790 06d3 00000000 		.4byte	0
 8791              	.LLST10:
 8792 06d7 EE030000 		.4byte	.LVL23
 8793 06db 2E040000 		.4byte	.LVL30
 8794 06df 0100     		.2byte	0x1
 8795 06e1 51       		.byte	0x51
 8796 06e2 2E040000 		.4byte	.LVL30
 8797 06e6 30040000 		.4byte	.LVL31
 8798 06ea 0F00     		.2byte	0xf
 8799 06ec 73       		.byte	0x73
 8800 06ed 00       		.sleb128 0
 8801 06ee 74       		.byte	0x74
 8802 06ef 00       		.sleb128 0
 8803 06f0 27       		.byte	0x27
 8804 06f1 75       		.byte	0x75
 8805 06f2 00       		.sleb128 0
 8806 06f3 1A       		.byte	0x1a
 8807 06f4 74       		.byte	0x74
 8808 06f5 00       		.sleb128 0
 8809 06f6 27       		.byte	0x27
 8810 06f7 71       		.byte	0x71
 8811 06f8 00       		.sleb128 0
 8812 06f9 22       		.byte	0x22
 8813 06fa 9F       		.byte	0x9f
 8814 06fb 30040000 		.4byte	.LVL31
 8815 06ff 34040000 		.4byte	.LVL32
 8816 0703 0100     		.2byte	0x1
 8817 0705 51       		.byte	0x51
 8818 0706 34040000 		.4byte	.LVL32
 8819 070a 90040000 		.4byte	.LVL42
 8820 070e 0100     		.2byte	0x1
 8821 0710 50       		.byte	0x50
 8822 0711 90040000 		.4byte	.LVL42
 8823 0715 92040000 		.4byte	.LVL43
 8824 0719 0F00     		.2byte	0xf
 8825 071b 73       		.byte	0x73
 8826 071c 00       		.sleb128 0
 8827 071d 72       		.byte	0x72
 8828 071e 00       		.sleb128 0
 8829 071f 27       		.byte	0x27
ARM GAS  C:\Users\jo\AppData\Local\Temp\ccBWvOPb.s 			page 159


 8830 0720 7C       		.byte	0x7c
 8831 0721 00       		.sleb128 0
 8832 0722 1A       		.byte	0x1a
 8833 0723 72       		.byte	0x72
 8834 0724 00       		.sleb128 0
 8835 0725 27       		.byte	0x27
 8836 0726 70       		.byte	0x70
 8837 0727 00       		.sleb128 0
 8838 0728 22       		.byte	0x22
 8839 0729 9F       		.byte	0x9f
 8840 072a 92040000 		.4byte	.LVL43
 8841 072e 96040000 		.4byte	.LVL44
 8842 0732 0100     		.2byte	0x1
 8843 0734 50       		.byte	0x50
 8844 0735 96040000 		.4byte	.LVL44
 8845 0739 E8040000 		.4byte	.LVL54
 8846 073d 0100     		.2byte	0x1
 8847 073f 5E       		.byte	0x5e
 8848 0740 E8040000 		.4byte	.LVL54
 8849 0744 F0040000 		.4byte	.LVL55
 8850 0748 0F00     		.2byte	0xf
 8851 074a 74       		.byte	0x74
 8852 074b 00       		.sleb128 0
 8853 074c 75       		.byte	0x75
 8854 074d 00       		.sleb128 0
 8855 074e 27       		.byte	0x27
 8856 074f 71       		.byte	0x71
 8857 0750 00       		.sleb128 0
 8858 0751 1A       		.byte	0x1a
 8859 0752 75       		.byte	0x75
 8860 0753 00       		.sleb128 0
 8861 0754 27       		.byte	0x27
 8862 0755 7E       		.byte	0x7e
 8863 0756 00       		.sleb128 0
 8864 0757 22       		.byte	0x22
 8865 0758 9F       		.byte	0x9f
 8866 0759 F0040000 		.4byte	.LVL55
 8867 075d BC050000 		.4byte	.LVL66
 8868 0761 0100     		.2byte	0x1
 8869 0763 50       		.byte	0x50
 8870 0764 BC050000 		.4byte	.LVL66
 8871 0768 CA050000 		.4byte	.LVL67
 8872 076c 0F00     		.2byte	0xf
 8873 076e 73       		.byte	0x73
 8874 076f 00       		.sleb128 0
 8875 0770 72       		.byte	0x72
 8876 0771 00       		.sleb128 0
 8877 0772 27       		.byte	0x27
 8878 0773 71       		.byte	0x71
 8879 0774 00       		.sleb128 0
 8880 0775 1A       		.byte	0x1a
 8881 0776 72       		.byte	0x72
 8882 0777 00       		.sleb128 0
 8883 0778 27       		.byte	0x27
 8884 0779 70       		.byte	0x70
 8885 077a 00       		.sleb128 0
 8886 077b 22       		.byte	0x22
ARM GAS  C:\Users\jo\AppData\Local\Temp\ccBWvOPb.s 			page 160


 8887 077c 9F       		.byte	0x9f
 8888 077d CA050000 		.4byte	.LVL67
 8889 0781 26060000 		.4byte	.LVL78
 8890 0785 0100     		.2byte	0x1
 8891 0787 50       		.byte	0x50
 8892 0788 26060000 		.4byte	.LVL78
 8893 078c 2A060000 		.4byte	.LVL79
 8894 0790 0C00     		.2byte	0xc
 8895 0792 72       		.byte	0x72
 8896 0793 00       		.sleb128 0
 8897 0794 71       		.byte	0x71
 8898 0795 00       		.sleb128 0
 8899 0796 27       		.byte	0x27
 8900 0797 73       		.byte	0x73
 8901 0798 00       		.sleb128 0
 8902 0799 27       		.byte	0x27
 8903 079a 70       		.byte	0x70
 8904 079b 00       		.sleb128 0
 8905 079c 22       		.byte	0x22
 8906 079d 9F       		.byte	0x9f
 8907 079e 2A060000 		.4byte	.LVL79
 8908 07a2 7A060000 		.4byte	.LVL90
 8909 07a6 0100     		.2byte	0x1
 8910 07a8 50       		.byte	0x50
 8911 07a9 7A060000 		.4byte	.LVL90
 8912 07ad 7C060000 		.4byte	.LVL91
 8913 07b1 0C00     		.2byte	0xc
 8914 07b3 78       		.byte	0x78
 8915 07b4 00       		.sleb128 0
 8916 07b5 71       		.byte	0x71
 8917 07b6 00       		.sleb128 0
 8918 07b7 27       		.byte	0x27
 8919 07b8 73       		.byte	0x73
 8920 07b9 00       		.sleb128 0
 8921 07ba 27       		.byte	0x27
 8922 07bb 70       		.byte	0x70
 8923 07bc 00       		.sleb128 0
 8924 07bd 22       		.byte	0x22
 8925 07be 9F       		.byte	0x9f
 8926 07bf 7C060000 		.4byte	.LVL91
 8927 07c3 80060000 		.4byte	.LVL92
 8928 07c7 0100     		.2byte	0x1
 8929 07c9 50       		.byte	0x50
 8930 07ca 80060000 		.4byte	.LVL92
 8931 07ce CE060000 		.4byte	.LVL102
 8932 07d2 0100     		.2byte	0x1
 8933 07d4 5C       		.byte	0x5c
 8934 07d5 CE060000 		.4byte	.LVL102
 8935 07d9 D2060000 		.4byte	.LVL103
 8936 07dd 0C00     		.2byte	0xc
 8937 07df 7E       		.byte	0x7e
 8938 07e0 00       		.sleb128 0
 8939 07e1 75       		.byte	0x75
 8940 07e2 00       		.sleb128 0
 8941 07e3 27       		.byte	0x27
 8942 07e4 74       		.byte	0x74
 8943 07e5 00       		.sleb128 0
ARM GAS  C:\Users\jo\AppData\Local\Temp\ccBWvOPb.s 			page 161


 8944 07e6 27       		.byte	0x27
 8945 07e7 7C       		.byte	0x7c
 8946 07e8 00       		.sleb128 0
 8947 07e9 22       		.byte	0x22
 8948 07ea 9F       		.byte	0x9f
 8949 07eb D2060000 		.4byte	.LVL103
 8950 07ef 26070000 		.4byte	.LVL114
 8951 07f3 0100     		.2byte	0x1
 8952 07f5 52       		.byte	0x52
 8953 07f6 26070000 		.4byte	.LVL114
 8954 07fa 28070000 		.4byte	.LVL115
 8955 07fe 0C00     		.2byte	0xc
 8956 0800 70       		.byte	0x70
 8957 0801 00       		.sleb128 0
 8958 0802 71       		.byte	0x71
 8959 0803 00       		.sleb128 0
 8960 0804 27       		.byte	0x27
 8961 0805 78       		.byte	0x78
 8962 0806 00       		.sleb128 0
 8963 0807 27       		.byte	0x27
 8964 0808 72       		.byte	0x72
 8965 0809 00       		.sleb128 0
 8966 080a 22       		.byte	0x22
 8967 080b 9F       		.byte	0x9f
 8968 080c 28070000 		.4byte	.LVL115
 8969 0810 80070000 		.4byte	.LVL126
 8970 0814 0100     		.2byte	0x1
 8971 0816 53       		.byte	0x53
 8972 0817 80070000 		.4byte	.LVL126
 8973 081b 84070000 		.4byte	.LVL127
 8974 081f 0D00     		.2byte	0xd
 8975 0821 7C       		.byte	0x7c
 8976 0822 00       		.sleb128 0
 8977 0823 20       		.byte	0x20
 8978 0824 75       		.byte	0x75
 8979 0825 00       		.sleb128 0
 8980 0826 21       		.byte	0x21
 8981 0827 7E       		.byte	0x7e
 8982 0828 00       		.sleb128 0
 8983 0829 27       		.byte	0x27
 8984 082a 73       		.byte	0x73
 8985 082b 00       		.sleb128 0
 8986 082c 22       		.byte	0x22
 8987 082d 9F       		.byte	0x9f
 8988 082e 84070000 		.4byte	.LVL127
 8989 0832 EA070000 		.4byte	.LVL138
 8990 0836 0100     		.2byte	0x1
 8991 0838 52       		.byte	0x52
 8992 0839 EA070000 		.4byte	.LVL138
 8993 083d EE070000 		.4byte	.LVL139
 8994 0841 0D00     		.2byte	0xd
 8995 0843 74       		.byte	0x74
 8996 0844 00       		.sleb128 0
 8997 0845 20       		.byte	0x20
 8998 0846 71       		.byte	0x71
 8999 0847 00       		.sleb128 0
 9000 0848 21       		.byte	0x21
ARM GAS  C:\Users\jo\AppData\Local\Temp\ccBWvOPb.s 			page 162


 9001 0849 70       		.byte	0x70
 9002 084a 00       		.sleb128 0
 9003 084b 27       		.byte	0x27
 9004 084c 73       		.byte	0x73
 9005 084d 00       		.sleb128 0
 9006 084e 22       		.byte	0x22
 9007 084f 9F       		.byte	0x9f
 9008 0850 EE070000 		.4byte	.LVL139
 9009 0854 46080000 		.4byte	.LVL150
 9010 0858 0100     		.2byte	0x1
 9011 085a 53       		.byte	0x53
 9012 085b 46080000 		.4byte	.LVL150
 9013 085f 48080000 		.4byte	.LVL151
 9014 0863 0D00     		.2byte	0xd
 9015 0865 74       		.byte	0x74
 9016 0866 00       		.sleb128 0
 9017 0867 20       		.byte	0x20
 9018 0868 71       		.byte	0x71
 9019 0869 00       		.sleb128 0
 9020 086a 21       		.byte	0x21
 9021 086b 70       		.byte	0x70
 9022 086c 00       		.sleb128 0
 9023 086d 27       		.byte	0x27
 9024 086e 73       		.byte	0x73
 9025 086f 00       		.sleb128 0
 9026 0870 22       		.byte	0x22
 9027 0871 9F       		.byte	0x9f
 9028 0872 48080000 		.4byte	.LVL151
 9029 0876 90080000 		.4byte	.LVL162
 9030 087a 0100     		.2byte	0x1
 9031 087c 53       		.byte	0x53
 9032 087d 90080000 		.4byte	.LVL162
 9033 0881 96080000 		.4byte	.LVL163
 9034 0885 0D00     		.2byte	0xd
 9035 0887 78       		.byte	0x78
 9036 0888 00       		.sleb128 0
 9037 0889 20       		.byte	0x20
 9038 088a 71       		.byte	0x71
 9039 088b 00       		.sleb128 0
 9040 088c 21       		.byte	0x21
 9041 088d 7E       		.byte	0x7e
 9042 088e 00       		.sleb128 0
 9043 088f 27       		.byte	0x27
 9044 0890 73       		.byte	0x73
 9045 0891 00       		.sleb128 0
 9046 0892 22       		.byte	0x22
 9047 0893 9F       		.byte	0x9f
 9048 0894 96080000 		.4byte	.LVL163
 9049 0898 D0080000 		.4byte	.LVL171
 9050 089c 0100     		.2byte	0x1
 9051 089e 53       		.byte	0x53
 9052 089f 00000000 		.4byte	0
 9053 08a3 00000000 		.4byte	0
 9054              	.LLST11:
 9055 08a7 00000000 		.4byte	.LVL173
 9056 08ab 08000000 		.4byte	.LVL174
 9057 08af 0100     		.2byte	0x1
ARM GAS  C:\Users\jo\AppData\Local\Temp\ccBWvOPb.s 			page 163


 9058 08b1 50       		.byte	0x50
 9059 08b2 08000000 		.4byte	.LVL174
 9060 08b6 8E000000 		.4byte	.LVL191
 9061 08ba 0100     		.2byte	0x1
 9062 08bc 56       		.byte	0x56
 9063 08bd 8E000000 		.4byte	.LVL191
 9064 08c1 92000000 		.4byte	.LFE15
 9065 08c5 0400     		.2byte	0x4
 9066 08c7 F3       		.byte	0xf3
 9067 08c8 01       		.uleb128 0x1
 9068 08c9 50       		.byte	0x50
 9069 08ca 9F       		.byte	0x9f
 9070 08cb 00000000 		.4byte	0
 9071 08cf 00000000 		.4byte	0
 9072              	.LLST12:
 9073 08d3 00000000 		.4byte	.LVL173
 9074 08d7 2C000000 		.4byte	.LVL176
 9075 08db 0100     		.2byte	0x1
 9076 08dd 51       		.byte	0x51
 9077 08de 2C000000 		.4byte	.LVL176
 9078 08e2 2E000000 		.4byte	.LVL177
 9079 08e6 0100     		.2byte	0x1
 9080 08e8 59       		.byte	0x59
 9081 08e9 32000000 		.4byte	.LVL178
 9082 08ed 38000000 		.4byte	.LVL179
 9083 08f1 0100     		.2byte	0x1
 9084 08f3 51       		.byte	0x51
 9085 08f4 38000000 		.4byte	.LVL179
 9086 08f8 5A000000 		.4byte	.LVL186
 9087 08fc 0100     		.2byte	0x1
 9088 08fe 59       		.byte	0x59
 9089 08ff 5A000000 		.4byte	.LVL186
 9090 0903 80000000 		.4byte	.LVL190
 9091 0907 0100     		.2byte	0x1
 9092 0909 54       		.byte	0x54
 9093 090a 00000000 		.4byte	0
 9094 090e 00000000 		.4byte	0
 9095              	.LLST13:
 9096 0912 00000000 		.4byte	.LVL173
 9097 0916 2C000000 		.4byte	.LVL176
 9098 091a 0100     		.2byte	0x1
 9099 091c 52       		.byte	0x52
 9100 091d 2C000000 		.4byte	.LVL176
 9101 0921 2E000000 		.4byte	.LVL177
 9102 0925 0100     		.2byte	0x1
 9103 0927 57       		.byte	0x57
 9104 0928 32000000 		.4byte	.LVL178
 9105 092c 3A000000 		.4byte	.LVL180
 9106 0930 0100     		.2byte	0x1
 9107 0932 52       		.byte	0x52
 9108 0933 3A000000 		.4byte	.LVL180
 9109 0937 4C000000 		.4byte	.LVL183
 9110 093b 0100     		.2byte	0x1
 9111 093d 57       		.byte	0x57
 9112 093e 4C000000 		.4byte	.LVL183
 9113 0942 4E000000 		.4byte	.LVL184
 9114 0946 0400     		.2byte	0x4
ARM GAS  C:\Users\jo\AppData\Local\Temp\ccBWvOPb.s 			page 164


 9115 0948 F3       		.byte	0xf3
 9116 0949 01       		.uleb128 0x1
 9117 094a 52       		.byte	0x52
 9118 094b 9F       		.byte	0x9f
 9119 094c 4E000000 		.4byte	.LVL184
 9120 0950 5A000000 		.4byte	.LVL186
 9121 0954 0100     		.2byte	0x1
 9122 0956 57       		.byte	0x57
 9123 0957 5A000000 		.4byte	.LVL186
 9124 095b 5E000000 		.4byte	.LVL187
 9125 095f 0100     		.2byte	0x1
 9126 0961 55       		.byte	0x55
 9127 0962 5E000000 		.4byte	.LVL187
 9128 0966 6A000000 		.4byte	.LVL189
 9129 096a 0400     		.2byte	0x4
 9130 096c 75       		.byte	0x75
 9131 096d C000     		.sleb128 64
 9132 096f 9F       		.byte	0x9f
 9133 0970 6A000000 		.4byte	.LVL189
 9134 0974 80000000 		.4byte	.LVL190
 9135 0978 0100     		.2byte	0x1
 9136 097a 55       		.byte	0x55
 9137 097b 00000000 		.4byte	0
 9138 097f 00000000 		.4byte	0
 9139              	.LLST14:
 9140 0983 16000000 		.4byte	.LVL175
 9141 0987 2C000000 		.4byte	.LVL176
 9142 098b 0600     		.2byte	0x6
 9143 098d 08       		.byte	0x8
 9144 098e 40       		.byte	0x40
 9145 098f 78       		.byte	0x78
 9146 0990 00       		.sleb128 0
 9147 0991 1C       		.byte	0x1c
 9148 0992 9F       		.byte	0x9f
 9149 0993 32000000 		.4byte	.LVL178
 9150 0997 52000000 		.4byte	.LVL185
 9151 099b 0600     		.2byte	0x6
 9152 099d 08       		.byte	0x8
 9153 099e 40       		.byte	0x40
 9154 099f 78       		.byte	0x78
 9155 09a0 00       		.sleb128 0
 9156 09a1 1C       		.byte	0x1c
 9157 09a2 9F       		.byte	0x9f
 9158 09a3 00000000 		.4byte	0
 9159 09a7 00000000 		.4byte	0
 9160              	.LLST15:
 9161 09ab 16000000 		.4byte	.LVL175
 9162 09af 2E000000 		.4byte	.LVL177
 9163 09b3 0100     		.2byte	0x1
 9164 09b5 58       		.byte	0x58
 9165 09b6 32000000 		.4byte	.LVL178
 9166 09ba 4E000000 		.4byte	.LVL184
 9167 09be 0100     		.2byte	0x1
 9168 09c0 58       		.byte	0x58
 9169 09c1 4E000000 		.4byte	.LVL184
 9170 09c5 52000000 		.4byte	.LVL185
 9171 09c9 0200     		.2byte	0x2
ARM GAS  C:\Users\jo\AppData\Local\Temp\ccBWvOPb.s 			page 165


 9172 09cb 30       		.byte	0x30
 9173 09cc 9F       		.byte	0x9f
 9174 09cd 52000000 		.4byte	.LVL185
 9175 09d1 5A000000 		.4byte	.LVL186
 9176 09d5 0100     		.2byte	0x1
 9177 09d7 58       		.byte	0x58
 9178 09d8 00000000 		.4byte	0
 9179 09dc 00000000 		.4byte	0
 9180              	.LLST16:
 9181 09e0 00000000 		.4byte	.LVL193
 9182 09e4 05000000 		.4byte	.LVL194-1
 9183 09e8 0100     		.2byte	0x1
 9184 09ea 50       		.byte	0x50
 9185 09eb 05000000 		.4byte	.LVL194-1
 9186 09ef 06000000 		.4byte	.LVL194
 9187 09f3 0400     		.2byte	0x4
 9188 09f5 F3       		.byte	0xf3
 9189 09f6 01       		.uleb128 0x1
 9190 09f7 50       		.byte	0x50
 9191 09f8 9F       		.byte	0x9f
 9192 09f9 06000000 		.4byte	.LVL194
 9193 09fd 08000000 		.4byte	.LFE5
 9194 0a01 0100     		.2byte	0x1
 9195 0a03 50       		.byte	0x50
 9196 0a04 00000000 		.4byte	0
 9197 0a08 00000000 		.4byte	0
 9198              	.LLST17:
 9199 0a0c 00000000 		.4byte	.LVL193
 9200 0a10 05000000 		.4byte	.LVL194-1
 9201 0a14 0100     		.2byte	0x1
 9202 0a16 51       		.byte	0x51
 9203 0a17 05000000 		.4byte	.LVL194-1
 9204 0a1b 06000000 		.4byte	.LVL194
 9205 0a1f 0400     		.2byte	0x4
 9206 0a21 F3       		.byte	0xf3
 9207 0a22 01       		.uleb128 0x1
 9208 0a23 51       		.byte	0x51
 9209 0a24 9F       		.byte	0x9f
 9210 0a25 06000000 		.4byte	.LVL194
 9211 0a29 08000000 		.4byte	.LFE5
 9212 0a2d 0100     		.2byte	0x1
 9213 0a2f 51       		.byte	0x51
 9214 0a30 00000000 		.4byte	0
 9215 0a34 00000000 		.4byte	0
 9216              	.LLST18:
 9217 0a38 00000000 		.4byte	.LVL193
 9218 0a3c 05000000 		.4byte	.LVL194-1
 9219 0a40 0100     		.2byte	0x1
 9220 0a42 52       		.byte	0x52
 9221 0a43 05000000 		.4byte	.LVL194-1
 9222 0a47 06000000 		.4byte	.LVL194
 9223 0a4b 0400     		.2byte	0x4
 9224 0a4d F3       		.byte	0xf3
 9225 0a4e 01       		.uleb128 0x1
 9226 0a4f 52       		.byte	0x52
 9227 0a50 9F       		.byte	0x9f
 9228 0a51 06000000 		.4byte	.LVL194
ARM GAS  C:\Users\jo\AppData\Local\Temp\ccBWvOPb.s 			page 166


 9229 0a55 08000000 		.4byte	.LFE5
 9230 0a59 0100     		.2byte	0x1
 9231 0a5b 52       		.byte	0x52
 9232 0a5c 00000000 		.4byte	0
 9233 0a60 00000000 		.4byte	0
 9234              	.LLST19:
 9235 0a64 00000000 		.4byte	.LVL195
 9236 0a68 20000000 		.4byte	.LVL200
 9237 0a6c 0100     		.2byte	0x1
 9238 0a6e 50       		.byte	0x50
 9239 0a6f 20000000 		.4byte	.LVL200
 9240 0a73 BA000000 		.4byte	.LVL207
 9241 0a77 0100     		.2byte	0x1
 9242 0a79 54       		.byte	0x54
 9243 0a7a BA000000 		.4byte	.LVL207
 9244 0a7e C0000000 		.4byte	.LFE6
 9245 0a82 0400     		.2byte	0x4
 9246 0a84 F3       		.byte	0xf3
 9247 0a85 01       		.uleb128 0x1
 9248 0a86 50       		.byte	0x50
 9249 0a87 9F       		.byte	0x9f
 9250 0a88 00000000 		.4byte	0
 9251 0a8c 00000000 		.4byte	0
 9252              	.LLST20:
 9253 0a90 00000000 		.4byte	.LVL195
 9254 0a94 0A000000 		.4byte	.LVL196
 9255 0a98 0100     		.2byte	0x1
 9256 0a9a 51       		.byte	0x51
 9257 0a9b 0A000000 		.4byte	.LVL196
 9258 0a9f BA000000 		.4byte	.LVL207
 9259 0aa3 0100     		.2byte	0x1
 9260 0aa5 55       		.byte	0x55
 9261 0aa6 BA000000 		.4byte	.LVL207
 9262 0aaa C0000000 		.4byte	.LFE6
 9263 0aae 0400     		.2byte	0x4
 9264 0ab0 F3       		.byte	0xf3
 9265 0ab1 01       		.uleb128 0x1
 9266 0ab2 51       		.byte	0x51
 9267 0ab3 9F       		.byte	0x9f
 9268 0ab4 00000000 		.4byte	0
 9269 0ab8 00000000 		.4byte	0
 9270              	.LLST21:
 9271 0abc 18000000 		.4byte	.LVL199
 9272 0ac0 32000000 		.4byte	.LVL201
 9273 0ac4 0100     		.2byte	0x1
 9274 0ac6 52       		.byte	0x52
 9275 0ac7 32000000 		.4byte	.LVL201
 9276 0acb 61000000 		.4byte	.LVL204-1
 9277 0acf 0700     		.2byte	0x7
 9278 0ad1 74       		.byte	0x74
 9279 0ad2 00       		.sleb128 0
 9280 0ad3 06       		.byte	0x6
 9281 0ad4 08       		.byte	0x8
 9282 0ad5 3F       		.byte	0x3f
 9283 0ad6 1A       		.byte	0x1a
 9284 0ad7 9F       		.byte	0x9f
 9285 0ad8 00000000 		.4byte	0
ARM GAS  C:\Users\jo\AppData\Local\Temp\ccBWvOPb.s 			page 167


 9286 0adc 00000000 		.4byte	0
 9287              	.LLST22:
 9288 0ae0 36000000 		.4byte	.LVL202
 9289 0ae4 61000000 		.4byte	.LVL204-1
 9290 0ae8 0100     		.2byte	0x1
 9291 0aea 52       		.byte	0x52
 9292 0aeb 00000000 		.4byte	0
 9293 0aef 00000000 		.4byte	0
 9294              	.LLST23:
 9295 0af3 12000000 		.4byte	.LVL197
 9296 0af7 61000000 		.4byte	.LVL204-1
 9297 0afb 0100     		.2byte	0x1
 9298 0afd 53       		.byte	0x53
 9299 0afe 00000000 		.4byte	0
 9300 0b02 00000000 		.4byte	0
 9301              	.LLST24:
 9302 0b06 14000000 		.4byte	.LVL198
 9303 0b0a 44000000 		.4byte	.LVL203
 9304 0b0e 0100     		.2byte	0x1
 9305 0b10 51       		.byte	0x51
 9306 0b11 44000000 		.4byte	.LVL203
 9307 0b15 61000000 		.4byte	.LVL204-1
 9308 0b19 0600     		.2byte	0x6
 9309 0b1b 74       		.byte	0x74
 9310 0b1c 00       		.sleb128 0
 9311 0b1d 06       		.byte	0x6
 9312 0b1e 33       		.byte	0x33
 9313 0b1f 24       		.byte	0x24
 9314 0b20 9F       		.byte	0x9f
 9315 0b21 00000000 		.4byte	0
 9316 0b25 00000000 		.4byte	0
 9317              	.LLST26:
 9318 0b29 36000000 		.4byte	.LVL202
 9319 0b2d BA000000 		.4byte	.LVL207
 9320 0b31 0100     		.2byte	0x1
 9321 0b33 54       		.byte	0x54
 9322 0b34 BA000000 		.4byte	.LVL207
 9323 0b38 C0000000 		.4byte	.LFE6
 9324 0b3c 0400     		.2byte	0x4
 9325 0b3e F3       		.byte	0xf3
 9326 0b3f 01       		.uleb128 0x1
 9327 0b40 50       		.byte	0x50
 9328 0b41 9F       		.byte	0x9f
 9329 0b42 00000000 		.4byte	0
 9330 0b46 00000000 		.4byte	0
 9331              	.LLST27:
 9332 0b4a 62000000 		.4byte	.LVL204
 9333 0b4e B6000000 		.4byte	.LVL206
 9334 0b52 0100     		.2byte	0x1
 9335 0b54 5D       		.byte	0x5d
 9336 0b55 B6000000 		.4byte	.LVL206
 9337 0b59 BA000000 		.4byte	.LVL207
 9338 0b5d 0300     		.2byte	0x3
 9339 0b5f 91       		.byte	0x91
 9340 0b60 60       		.sleb128 -32
 9341 0b61 9F       		.byte	0x9f
 9342 0b62 BA000000 		.4byte	.LVL207
ARM GAS  C:\Users\jo\AppData\Local\Temp\ccBWvOPb.s 			page 168


 9343 0b66 C0000000 		.4byte	.LFE6
 9344 0b6a 0300     		.2byte	0x3
 9345 0b6c 7D       		.byte	0x7d
 9346 0b6d 60       		.sleb128 -32
 9347 0b6e 9F       		.byte	0x9f
 9348 0b6f 00000000 		.4byte	0
 9349 0b73 00000000 		.4byte	0
 9350              	.LLST28:
 9351 0b77 62000000 		.4byte	.LVL204
 9352 0b7b BA000000 		.4byte	.LVL207
 9353 0b7f 0100     		.2byte	0x1
 9354 0b81 54       		.byte	0x54
 9355 0b82 BA000000 		.4byte	.LVL207
 9356 0b86 C0000000 		.4byte	.LFE6
 9357 0b8a 0400     		.2byte	0x4
 9358 0b8c F3       		.byte	0xf3
 9359 0b8d 01       		.uleb128 0x1
 9360 0b8e 50       		.byte	0x50
 9361 0b8f 9F       		.byte	0x9f
 9362 0b90 00000000 		.4byte	0
 9363 0b94 00000000 		.4byte	0
 9364              	.LLST29:
 9365 0b98 00000000 		.4byte	.LVL208
 9366 0b9c 10000000 		.4byte	.LVL212
 9367 0ba0 0100     		.2byte	0x1
 9368 0ba2 50       		.byte	0x50
 9369 0ba3 10000000 		.4byte	.LVL212
 9370 0ba7 5C000000 		.4byte	.LFE7
 9371 0bab 0100     		.2byte	0x1
 9372 0bad 56       		.byte	0x56
 9373 0bae 00000000 		.4byte	0
 9374 0bb2 00000000 		.4byte	0
 9375              	.LLST30:
 9376 0bb6 00000000 		.4byte	.LVL208
 9377 0bba 0C000000 		.4byte	.LVL210
 9378 0bbe 0100     		.2byte	0x1
 9379 0bc0 51       		.byte	0x51
 9380 0bc1 0C000000 		.4byte	.LVL210
 9381 0bc5 5C000000 		.4byte	.LFE7
 9382 0bc9 0100     		.2byte	0x1
 9383 0bcb 54       		.byte	0x54
 9384 0bcc 00000000 		.4byte	0
 9385 0bd0 00000000 		.4byte	0
 9386              	.LLST31:
 9387 0bd4 00000000 		.4byte	.LVL208
 9388 0bd8 0E000000 		.4byte	.LVL211
 9389 0bdc 0100     		.2byte	0x1
 9390 0bde 52       		.byte	0x52
 9391 0bdf 0E000000 		.4byte	.LVL211
 9392 0be3 5C000000 		.4byte	.LFE7
 9393 0be7 0100     		.2byte	0x1
 9394 0be9 55       		.byte	0x55
 9395 0bea 00000000 		.4byte	0
 9396 0bee 00000000 		.4byte	0
 9397              	.LLST32:
 9398 0bf2 04000000 		.4byte	.LVL209
 9399 0bf6 3E000000 		.4byte	.LVL219
ARM GAS  C:\Users\jo\AppData\Local\Temp\ccBWvOPb.s 			page 169


 9400 0bfa 0100     		.2byte	0x1
 9401 0bfc 5D       		.byte	0x5d
 9402 0bfd 3E000000 		.4byte	.LVL219
 9403 0c01 40000000 		.4byte	.LVL220
 9404 0c05 0400     		.2byte	0x4
 9405 0c07 91       		.byte	0x91
 9406 0c08 987E     		.sleb128 -232
 9407 0c0a 9F       		.byte	0x9f
 9408 0c0b 40000000 		.4byte	.LVL220
 9409 0c0f 5C000000 		.4byte	.LFE7
 9410 0c13 0100     		.2byte	0x1
 9411 0c15 5D       		.byte	0x5d
 9412 0c16 00000000 		.4byte	0
 9413 0c1a 00000000 		.4byte	0
 9414              	.LLST33:
 9415 0c1e 14000000 		.4byte	.LVL213
 9416 0c22 3E000000 		.4byte	.LVL219
 9417 0c26 0100     		.2byte	0x1
 9418 0c28 5D       		.byte	0x5d
 9419 0c29 3E000000 		.4byte	.LVL219
 9420 0c2d 40000000 		.4byte	.LVL220
 9421 0c31 0400     		.2byte	0x4
 9422 0c33 91       		.byte	0x91
 9423 0c34 987E     		.sleb128 -232
 9424 0c36 9F       		.byte	0x9f
 9425 0c37 40000000 		.4byte	.LVL220
 9426 0c3b 5C000000 		.4byte	.LFE7
 9427 0c3f 0100     		.2byte	0x1
 9428 0c41 5D       		.byte	0x5d
 9429 0c42 00000000 		.4byte	0
 9430 0c46 00000000 		.4byte	0
 9431              	.LLST34:
 9432 0c4a 24000000 		.4byte	.LVL214
 9433 0c4e 3E000000 		.4byte	.LVL219
 9434 0c52 0100     		.2byte	0x1
 9435 0c54 5D       		.byte	0x5d
 9436 0c55 3E000000 		.4byte	.LVL219
 9437 0c59 40000000 		.4byte	.LVL220
 9438 0c5d 0400     		.2byte	0x4
 9439 0c5f 91       		.byte	0x91
 9440 0c60 987E     		.sleb128 -232
 9441 0c62 9F       		.byte	0x9f
 9442 0c63 40000000 		.4byte	.LVL220
 9443 0c67 5C000000 		.4byte	.LFE7
 9444 0c6b 0100     		.2byte	0x1
 9445 0c6d 5D       		.byte	0x5d
 9446 0c6e 00000000 		.4byte	0
 9447 0c72 00000000 		.4byte	0
 9448              	.LLST35:
 9449 0c76 2E000000 		.4byte	.LVL215
 9450 0c7a 3E000000 		.4byte	.LVL219
 9451 0c7e 0100     		.2byte	0x1
 9452 0c80 5D       		.byte	0x5d
 9453 0c81 3E000000 		.4byte	.LVL219
 9454 0c85 40000000 		.4byte	.LVL220
 9455 0c89 0400     		.2byte	0x4
 9456 0c8b 91       		.byte	0x91
ARM GAS  C:\Users\jo\AppData\Local\Temp\ccBWvOPb.s 			page 170


 9457 0c8c 987E     		.sleb128 -232
 9458 0c8e 9F       		.byte	0x9f
 9459 0c8f 00000000 		.4byte	0
 9460 0c93 00000000 		.4byte	0
 9461              	.LLST36:
 9462 0c97 2E000000 		.4byte	.LVL215
 9463 0c9b 32000000 		.4byte	.LVL216
 9464 0c9f 0300     		.2byte	0x3
 9465 0ca1 08       		.byte	0x8
 9466 0ca2 D7       		.byte	0xd7
 9467 0ca3 9F       		.byte	0x9f
 9468 0ca4 32000000 		.4byte	.LVL216
 9469 0ca8 34000000 		.4byte	.LVL217
 9470 0cac 0800     		.2byte	0x8
 9471 0cae 91       		.byte	0x91
 9472 0caf 00       		.sleb128 0
 9473 0cb0 73       		.byte	0x73
 9474 0cb1 00       		.sleb128 0
 9475 0cb2 1C       		.byte	0x1c
 9476 0cb3 41       		.byte	0x41
 9477 0cb4 1C       		.byte	0x1c
 9478 0cb5 9F       		.byte	0x9f
 9479 0cb6 34000000 		.4byte	.LVL217
 9480 0cba 38000000 		.4byte	.LVL218
 9481 0cbe 0800     		.2byte	0x8
 9482 0cc0 91       		.byte	0x91
 9483 0cc1 00       		.sleb128 0
 9484 0cc2 73       		.byte	0x73
 9485 0cc3 00       		.sleb128 0
 9486 0cc4 1C       		.byte	0x1c
 9487 0cc5 42       		.byte	0x42
 9488 0cc6 1C       		.byte	0x1c
 9489 0cc7 9F       		.byte	0x9f
 9490 0cc8 38000000 		.4byte	.LVL218
 9491 0ccc 40000000 		.4byte	.LVL220
 9492 0cd0 0800     		.2byte	0x8
 9493 0cd2 91       		.byte	0x91
 9494 0cd3 00       		.sleb128 0
 9495 0cd4 73       		.byte	0x73
 9496 0cd5 00       		.sleb128 0
 9497 0cd6 1C       		.byte	0x1c
 9498 0cd7 41       		.byte	0x41
 9499 0cd8 1C       		.byte	0x1c
 9500 0cd9 9F       		.byte	0x9f
 9501 0cda 00000000 		.4byte	0
 9502 0cde 00000000 		.4byte	0
 9503              	.LLST37:
 9504 0ce2 2E000000 		.4byte	.LVL215
 9505 0ce6 32000000 		.4byte	.LVL216
 9506 0cea 0100     		.2byte	0x1
 9507 0cec 5D       		.byte	0x5d
 9508 0ced 32000000 		.4byte	.LVL216
 9509 0cf1 38000000 		.4byte	.LVL218
 9510 0cf5 0300     		.2byte	0x3
 9511 0cf7 73       		.byte	0x73
 9512 0cf8 01       		.sleb128 1
 9513 0cf9 9F       		.byte	0x9f
ARM GAS  C:\Users\jo\AppData\Local\Temp\ccBWvOPb.s 			page 171


 9514 0cfa 38000000 		.4byte	.LVL218
 9515 0cfe 40000000 		.4byte	.LVL220
 9516 0d02 0100     		.2byte	0x1
 9517 0d04 53       		.byte	0x53
 9518 0d05 00000000 		.4byte	0
 9519 0d09 00000000 		.4byte	0
 9520              	.LLST38:
 9521 0d0d 00000000 		.4byte	.LVL222
 9522 0d11 0D000000 		.4byte	.LVL224-1
 9523 0d15 0100     		.2byte	0x1
 9524 0d17 50       		.byte	0x50
 9525 0d18 0D000000 		.4byte	.LVL224-1
 9526 0d1c A0000000 		.4byte	.LFE8
 9527 0d20 0400     		.2byte	0x4
 9528 0d22 F3       		.byte	0xf3
 9529 0d23 01       		.uleb128 0x1
 9530 0d24 50       		.byte	0x50
 9531 0d25 9F       		.byte	0x9f
 9532 0d26 00000000 		.4byte	0
 9533 0d2a 00000000 		.4byte	0
 9534              	.LLST39:
 9535 0d2e 00000000 		.4byte	.LVL222
 9536 0d32 0A000000 		.4byte	.LVL223
 9537 0d36 0100     		.2byte	0x1
 9538 0d38 51       		.byte	0x51
 9539 0d39 0A000000 		.4byte	.LVL223
 9540 0d3d A0000000 		.4byte	.LFE8
 9541 0d41 0100     		.2byte	0x1
 9542 0d43 57       		.byte	0x57
 9543 0d44 00000000 		.4byte	0
 9544 0d48 00000000 		.4byte	0
 9545              	.LLST40:
 9546 0d4c 0E000000 		.4byte	.LVL224
 9547 0d50 1A000000 		.4byte	.LVL226
 9548 0d54 0100     		.2byte	0x1
 9549 0d56 50       		.byte	0x50
 9550 0d57 1A000000 		.4byte	.LVL226
 9551 0d5b 6E000000 		.4byte	.LVL241
 9552 0d5f 0100     		.2byte	0x1
 9553 0d61 56       		.byte	0x56
 9554 0d62 6E000000 		.4byte	.LVL241
 9555 0d66 71000000 		.4byte	.LVL242-1
 9556 0d6a 0100     		.2byte	0x1
 9557 0d6c 50       		.byte	0x50
 9558 0d6d 71000000 		.4byte	.LVL242-1
 9559 0d71 7A000000 		.4byte	.LVL244
 9560 0d75 0100     		.2byte	0x1
 9561 0d77 56       		.byte	0x56
 9562 0d78 7A000000 		.4byte	.LVL244
 9563 0d7c 7D000000 		.4byte	.LVL245-1
 9564 0d80 0100     		.2byte	0x1
 9565 0d82 50       		.byte	0x50
 9566 0d83 7D000000 		.4byte	.LVL245-1
 9567 0d87 84000000 		.4byte	.LVL246
 9568 0d8b 0100     		.2byte	0x1
 9569 0d8d 56       		.byte	0x56
 9570 0d8e 84000000 		.4byte	.LVL246
ARM GAS  C:\Users\jo\AppData\Local\Temp\ccBWvOPb.s 			page 172


 9571 0d92 88000000 		.4byte	.LVL247
 9572 0d96 0100     		.2byte	0x1
 9573 0d98 50       		.byte	0x50
 9574 0d99 88000000 		.4byte	.LVL247
 9575 0d9d A0000000 		.4byte	.LFE8
 9576 0da1 0100     		.2byte	0x1
 9577 0da3 56       		.byte	0x56
 9578 0da4 00000000 		.4byte	0
 9579 0da8 00000000 		.4byte	0
 9580              	.LLST41:
 9581 0dac 3E000000 		.4byte	.LVL228
 9582 0db0 48000000 		.4byte	.LVL231
 9583 0db4 0100     		.2byte	0x1
 9584 0db6 50       		.byte	0x50
 9585 0db7 48000000 		.4byte	.LVL231
 9586 0dbb 4B000000 		.4byte	.LVL232-1
 9587 0dbf 0100     		.2byte	0x1
 9588 0dc1 52       		.byte	0x52
 9589 0dc2 4B000000 		.4byte	.LVL232-1
 9590 0dc6 4E000000 		.4byte	.LVL233
 9591 0dca 0100     		.2byte	0x1
 9592 0dcc 54       		.byte	0x54
 9593 0dcd 4E000000 		.4byte	.LVL233
 9594 0dd1 50000000 		.4byte	.LVL234
 9595 0dd5 0100     		.2byte	0x1
 9596 0dd7 50       		.byte	0x50
 9597 0dd8 50000000 		.4byte	.LVL234
 9598 0ddc 55000000 		.4byte	.LVL236-1
 9599 0de0 0100     		.2byte	0x1
 9600 0de2 52       		.byte	0x52
 9601 0de3 55000000 		.4byte	.LVL236-1
 9602 0de7 5A000000 		.4byte	.LVL237
 9603 0deb 0100     		.2byte	0x1
 9604 0ded 54       		.byte	0x54
 9605 0dee 5A000000 		.4byte	.LVL237
 9606 0df2 6C000000 		.4byte	.LVL240
 9607 0df6 0100     		.2byte	0x1
 9608 0df8 50       		.byte	0x50
 9609 0df9 00000000 		.4byte	0
 9610 0dfd 00000000 		.4byte	0
 9611              	.LLST42:
 9612 0e01 14000000 		.4byte	.LVL225
 9613 0e05 74000000 		.4byte	.LVL243
 9614 0e09 0100     		.2byte	0x1
 9615 0e0b 5D       		.byte	0x5d
 9616 0e0c 7A000000 		.4byte	.LVL244
 9617 0e10 84000000 		.4byte	.LVL246
 9618 0e14 0100     		.2byte	0x1
 9619 0e16 5D       		.byte	0x5d
 9620 0e17 00000000 		.4byte	0
 9621 0e1b 00000000 		.4byte	0
 9622              	.LLST43:
 9623 0e1f 1E000000 		.4byte	.LVL227
 9624 0e23 74000000 		.4byte	.LVL243
 9625 0e27 0100     		.2byte	0x1
 9626 0e29 5D       		.byte	0x5d
 9627 0e2a 7A000000 		.4byte	.LVL244
ARM GAS  C:\Users\jo\AppData\Local\Temp\ccBWvOPb.s 			page 173


 9628 0e2e 84000000 		.4byte	.LVL246
 9629 0e32 0100     		.2byte	0x1
 9630 0e34 5D       		.byte	0x5d
 9631 0e35 00000000 		.4byte	0
 9632 0e39 00000000 		.4byte	0
 9633              	.LLST44:
 9634 0e3d 42000000 		.4byte	.LVL229
 9635 0e41 48000000 		.4byte	.LVL231
 9636 0e45 0100     		.2byte	0x1
 9637 0e47 50       		.byte	0x50
 9638 0e48 48000000 		.4byte	.LVL231
 9639 0e4c 4B000000 		.4byte	.LVL232-1
 9640 0e50 0100     		.2byte	0x1
 9641 0e52 52       		.byte	0x52
 9642 0e53 4B000000 		.4byte	.LVL232-1
 9643 0e57 4E000000 		.4byte	.LVL233
 9644 0e5b 0100     		.2byte	0x1
 9645 0e5d 54       		.byte	0x54
 9646 0e5e 4E000000 		.4byte	.LVL233
 9647 0e62 50000000 		.4byte	.LVL234
 9648 0e66 0100     		.2byte	0x1
 9649 0e68 50       		.byte	0x50
 9650 0e69 50000000 		.4byte	.LVL234
 9651 0e6d 55000000 		.4byte	.LVL236-1
 9652 0e71 0100     		.2byte	0x1
 9653 0e73 52       		.byte	0x52
 9654 0e74 55000000 		.4byte	.LVL236-1
 9655 0e78 5A000000 		.4byte	.LVL237
 9656 0e7c 0100     		.2byte	0x1
 9657 0e7e 54       		.byte	0x54
 9658 0e7f 5A000000 		.4byte	.LVL237
 9659 0e83 6C000000 		.4byte	.LVL240
 9660 0e87 0100     		.2byte	0x1
 9661 0e89 50       		.byte	0x50
 9662 0e8a 00000000 		.4byte	0
 9663 0e8e 00000000 		.4byte	0
 9664              	.LLST45:
 9665 0e92 3E000000 		.4byte	.LVL228
 9666 0e96 46000000 		.4byte	.LVL230
 9667 0e9a 0100     		.2byte	0x1
 9668 0e9c 55       		.byte	0x55
 9669 0e9d 46000000 		.4byte	.LVL230
 9670 0ea1 4B000000 		.4byte	.LVL232-1
 9671 0ea5 0100     		.2byte	0x1
 9672 0ea7 51       		.byte	0x51
 9673 0ea8 4B000000 		.4byte	.LVL232-1
 9674 0eac 4E000000 		.4byte	.LVL233
 9675 0eb0 0100     		.2byte	0x1
 9676 0eb2 55       		.byte	0x55
 9677 0eb3 4E000000 		.4byte	.LVL233
 9678 0eb7 52000000 		.4byte	.LVL235
 9679 0ebb 0100     		.2byte	0x1
 9680 0ebd 51       		.byte	0x51
 9681 0ebe 52000000 		.4byte	.LVL235
 9682 0ec2 74000000 		.4byte	.LVL243
 9683 0ec6 0100     		.2byte	0x1
 9684 0ec8 55       		.byte	0x55
ARM GAS  C:\Users\jo\AppData\Local\Temp\ccBWvOPb.s 			page 174


 9685 0ec9 7A000000 		.4byte	.LVL244
 9686 0ecd 84000000 		.4byte	.LVL246
 9687 0ed1 0100     		.2byte	0x1
 9688 0ed3 55       		.byte	0x55
 9689 0ed4 00000000 		.4byte	0
 9690 0ed8 00000000 		.4byte	0
 9691              	.LLST46:
 9692 0edc 3E000000 		.4byte	.LVL228
 9693 0ee0 74000000 		.4byte	.LVL243
 9694 0ee4 0100     		.2byte	0x1
 9695 0ee6 5D       		.byte	0x5d
 9696 0ee7 7A000000 		.4byte	.LVL244
 9697 0eeb 84000000 		.4byte	.LVL246
 9698 0eef 0100     		.2byte	0x1
 9699 0ef1 5D       		.byte	0x5d
 9700 0ef2 00000000 		.4byte	0
 9701 0ef6 00000000 		.4byte	0
 9702              	.LLST47:
 9703 0efa 56000000 		.4byte	.LVL236
 9704 0efe 74000000 		.4byte	.LVL243
 9705 0f02 0100     		.2byte	0x1
 9706 0f04 5D       		.byte	0x5d
 9707 0f05 7A000000 		.4byte	.LVL244
 9708 0f09 84000000 		.4byte	.LVL246
 9709 0f0d 0100     		.2byte	0x1
 9710 0f0f 5D       		.byte	0x5d
 9711 0f10 00000000 		.4byte	0
 9712 0f14 00000000 		.4byte	0
 9713              	.LLST48:
 9714 0f18 56000000 		.4byte	.LVL236
 9715 0f1c 5A000000 		.4byte	.LVL237
 9716 0f20 0300     		.2byte	0x3
 9717 0f22 08       		.byte	0x8
 9718 0f23 D7       		.byte	0xd7
 9719 0f24 9F       		.byte	0x9f
 9720 0f25 5A000000 		.4byte	.LVL237
 9721 0f29 5C000000 		.4byte	.LVL238
 9722 0f2d 0A00     		.2byte	0xa
 9723 0f2f 91       		.byte	0x91
 9724 0f30 00       		.sleb128 0
 9725 0f31 73       		.byte	0x73
 9726 0f32 00       		.sleb128 0
 9727 0f33 1C       		.byte	0x1c
 9728 0f34 0A       		.byte	0xa
 9729 0f35 1904     		.2byte	0x419
 9730 0f37 1C       		.byte	0x1c
 9731 0f38 9F       		.byte	0x9f
 9732 0f39 5C000000 		.4byte	.LVL238
 9733 0f3d 5E000000 		.4byte	.LVL239
 9734 0f41 0A00     		.2byte	0xa
 9735 0f43 91       		.byte	0x91
 9736 0f44 00       		.sleb128 0
 9737 0f45 73       		.byte	0x73
 9738 0f46 00       		.sleb128 0
 9739 0f47 1C       		.byte	0x1c
 9740 0f48 0A       		.byte	0xa
 9741 0f49 1A04     		.2byte	0x41a
ARM GAS  C:\Users\jo\AppData\Local\Temp\ccBWvOPb.s 			page 175


 9742 0f4b 1C       		.byte	0x1c
 9743 0f4c 9F       		.byte	0x9f
 9744 0f4d 5E000000 		.4byte	.LVL239
 9745 0f51 71000000 		.4byte	.LVL242-1
 9746 0f55 0A00     		.2byte	0xa
 9747 0f57 91       		.byte	0x91
 9748 0f58 00       		.sleb128 0
 9749 0f59 73       		.byte	0x73
 9750 0f5a 00       		.sleb128 0
 9751 0f5b 1C       		.byte	0x1c
 9752 0f5c 0A       		.byte	0xa
 9753 0f5d 1904     		.2byte	0x419
 9754 0f5f 1C       		.byte	0x1c
 9755 0f60 9F       		.byte	0x9f
 9756 0f61 7A000000 		.4byte	.LVL244
 9757 0f65 7D000000 		.4byte	.LVL245-1
 9758 0f69 0A00     		.2byte	0xa
 9759 0f6b 91       		.byte	0x91
 9760 0f6c 00       		.sleb128 0
 9761 0f6d 73       		.byte	0x73
 9762 0f6e 00       		.sleb128 0
 9763 0f6f 1C       		.byte	0x1c
 9764 0f70 0A       		.byte	0xa
 9765 0f71 1904     		.2byte	0x419
 9766 0f73 1C       		.byte	0x1c
 9767 0f74 9F       		.byte	0x9f
 9768 0f75 00000000 		.4byte	0
 9769 0f79 00000000 		.4byte	0
 9770              	.LLST49:
 9771 0f7d 56000000 		.4byte	.LVL236
 9772 0f81 5A000000 		.4byte	.LVL237
 9773 0f85 0100     		.2byte	0x1
 9774 0f87 5D       		.byte	0x5d
 9775 0f88 5A000000 		.4byte	.LVL237
 9776 0f8c 5E000000 		.4byte	.LVL239
 9777 0f90 0300     		.2byte	0x3
 9778 0f92 73       		.byte	0x73
 9779 0f93 01       		.sleb128 1
 9780 0f94 9F       		.byte	0x9f
 9781 0f95 5E000000 		.4byte	.LVL239
 9782 0f99 71000000 		.4byte	.LVL242-1
 9783 0f9d 0100     		.2byte	0x1
 9784 0f9f 53       		.byte	0x53
 9785 0fa0 7A000000 		.4byte	.LVL244
 9786 0fa4 7D000000 		.4byte	.LVL245-1
 9787 0fa8 0100     		.2byte	0x1
 9788 0faa 53       		.byte	0x53
 9789 0fab 00000000 		.4byte	0
 9790 0faf 00000000 		.4byte	0
 9791              	.LLST50:
 9792 0fb3 00000000 		.4byte	.LVL248
 9793 0fb7 1A000000 		.4byte	.LVL251
 9794 0fbb 0100     		.2byte	0x1
 9795 0fbd 50       		.byte	0x50
 9796 0fbe 1A000000 		.4byte	.LVL251
 9797 0fc2 96000000 		.4byte	.LVL264
 9798 0fc6 0100     		.2byte	0x1
ARM GAS  C:\Users\jo\AppData\Local\Temp\ccBWvOPb.s 			page 176


 9799 0fc8 56       		.byte	0x56
 9800 0fc9 96000000 		.4byte	.LVL264
 9801 0fcd 98000000 		.4byte	.LVL265
 9802 0fd1 0100     		.2byte	0x1
 9803 0fd3 50       		.byte	0x50
 9804 0fd4 98000000 		.4byte	.LVL265
 9805 0fd8 D4000000 		.4byte	.LFE9
 9806 0fdc 0100     		.2byte	0x1
 9807 0fde 56       		.byte	0x56
 9808 0fdf 00000000 		.4byte	0
 9809 0fe3 00000000 		.4byte	0
 9810              	.LLST51:
 9811 0fe7 00000000 		.4byte	.LVL248
 9812 0feb 16000000 		.4byte	.LVL249
 9813 0fef 0100     		.2byte	0x1
 9814 0ff1 51       		.byte	0x51
 9815 0ff2 16000000 		.4byte	.LVL249
 9816 0ff6 96000000 		.4byte	.LVL264
 9817 0ffa 0100     		.2byte	0x1
 9818 0ffc 59       		.byte	0x59
 9819 0ffd 96000000 		.4byte	.LVL264
 9820 1001 9E000000 		.4byte	.LVL266
 9821 1005 0100     		.2byte	0x1
 9822 1007 51       		.byte	0x51
 9823 1008 9E000000 		.4byte	.LVL266
 9824 100c A4000000 		.4byte	.LVL268
 9825 1010 0100     		.2byte	0x1
 9826 1012 59       		.byte	0x59
 9827 1013 A4000000 		.4byte	.LVL268
 9828 1017 D4000000 		.4byte	.LFE9
 9829 101b 0100     		.2byte	0x1
 9830 101d 5D       		.byte	0x5d
 9831 101e 00000000 		.4byte	0
 9832 1022 00000000 		.4byte	0
 9833              	.LLST52:
 9834 1026 00000000 		.4byte	.LVL248
 9835 102a 18000000 		.4byte	.LVL250
 9836 102e 0100     		.2byte	0x1
 9837 1030 52       		.byte	0x52
 9838 1031 18000000 		.4byte	.LVL250
 9839 1035 62000000 		.4byte	.LVL258
 9840 1039 0100     		.2byte	0x1
 9841 103b 55       		.byte	0x55
 9842 103c 96000000 		.4byte	.LVL264
 9843 1040 A0000000 		.4byte	.LVL267
 9844 1044 0100     		.2byte	0x1
 9845 1046 52       		.byte	0x52
 9846 1047 A0000000 		.4byte	.LVL267
 9847 104b A4000000 		.4byte	.LVL268
 9848 104f 0100     		.2byte	0x1
 9849 1051 55       		.byte	0x55
 9850 1052 A4000000 		.4byte	.LVL268
 9851 1056 D4000000 		.4byte	.LFE9
 9852 105a 0200     		.2byte	0x2
 9853 105c 40       		.byte	0x40
 9854 105d 9F       		.byte	0x9f
 9855 105e 00000000 		.4byte	0
ARM GAS  C:\Users\jo\AppData\Local\Temp\ccBWvOPb.s 			page 177


 9856 1062 00000000 		.4byte	0
 9857              	.LLST53:
 9858 1066 2C000000 		.4byte	.LVL253
 9859 106a 3C000000 		.4byte	.LVL255
 9860 106e 0200     		.2byte	0x2
 9861 1070 30       		.byte	0x30
 9862 1071 9F       		.byte	0x9f
 9863 1072 3C000000 		.4byte	.LVL255
 9864 1076 60000000 		.4byte	.LVL257
 9865 107a 0100     		.2byte	0x1
 9866 107c 52       		.byte	0x52
 9867 107d BE000000 		.4byte	.LVL270
 9868 1081 D4000000 		.4byte	.LFE9
 9869 1085 0200     		.2byte	0x2
 9870 1087 30       		.byte	0x30
 9871 1088 9F       		.byte	0x9f
 9872 1089 00000000 		.4byte	0
 9873 108d 00000000 		.4byte	0
 9874              	.LLST54:
 9875 1091 60000000 		.4byte	.LVL257
 9876 1095 96000000 		.4byte	.LVL264
 9877 1099 0100     		.2byte	0x1
 9878 109b 56       		.byte	0x56
 9879 109c 00000000 		.4byte	0
 9880 10a0 00000000 		.4byte	0
 9881              	.LLST55:
 9882 10a4 74000000 		.4byte	.LVL259
 9883 10a8 96000000 		.4byte	.LVL264
 9884 10ac 0300     		.2byte	0x3
 9885 10ae 08       		.byte	0x8
 9886 10af 40       		.byte	0x40
 9887 10b0 9F       		.byte	0x9f
 9888 10b1 00000000 		.4byte	0
 9889 10b5 00000000 		.4byte	0
 9890              	.LLST56:
 9891 10b9 74000000 		.4byte	.LVL259
 9892 10bd 96000000 		.4byte	.LVL264
 9893 10c1 0100     		.2byte	0x1
 9894 10c3 57       		.byte	0x57
 9895 10c4 00000000 		.4byte	0
 9896 10c8 00000000 		.4byte	0
 9897              	.LLST57:
 9898 10cc 74000000 		.4byte	.LVL259
 9899 10d0 96000000 		.4byte	.LVL264
 9900 10d4 0100     		.2byte	0x1
 9901 10d6 56       		.byte	0x56
 9902 10d7 00000000 		.4byte	0
 9903 10db 00000000 		.4byte	0
 9904              	.LLST58:
 9905 10df 84000000 		.4byte	.LVL260
 9906 10e3 86000000 		.4byte	.LVL261
 9907 10e7 0200     		.2byte	0x2
 9908 10e9 3F       		.byte	0x3f
 9909 10ea 9F       		.byte	0x9f
 9910 10eb 86000000 		.4byte	.LVL261
 9911 10ef 88000000 		.4byte	.LVL262
 9912 10f3 0900     		.2byte	0x9
ARM GAS  C:\Users\jo\AppData\Local\Temp\ccBWvOPb.s 			page 178


 9913 10f5 91       		.byte	0x91
 9914 10f6 00       		.sleb128 0
 9915 10f7 74       		.byte	0x74
 9916 10f8 00       		.sleb128 0
 9917 10f9 1C       		.byte	0x1c
 9918 10fa 08       		.byte	0x8
 9919 10fb 21       		.byte	0x21
 9920 10fc 1C       		.byte	0x1c
 9921 10fd 9F       		.byte	0x9f
 9922 10fe 88000000 		.4byte	.LVL262
 9923 1102 8C000000 		.4byte	.LVL263
 9924 1106 0900     		.2byte	0x9
 9925 1108 91       		.byte	0x91
 9926 1109 00       		.sleb128 0
 9927 110a 74       		.byte	0x74
 9928 110b 00       		.sleb128 0
 9929 110c 1C       		.byte	0x1c
 9930 110d 08       		.byte	0x8
 9931 110e 22       		.byte	0x22
 9932 110f 1C       		.byte	0x1c
 9933 1110 9F       		.byte	0x9f
 9934 1111 8C000000 		.4byte	.LVL263
 9935 1115 96000000 		.4byte	.LVL264
 9936 1119 0900     		.2byte	0x9
 9937 111b 91       		.byte	0x91
 9938 111c 00       		.sleb128 0
 9939 111d 74       		.byte	0x74
 9940 111e 00       		.sleb128 0
 9941 111f 1C       		.byte	0x1c
 9942 1120 08       		.byte	0x8
 9943 1121 21       		.byte	0x21
 9944 1122 1C       		.byte	0x1c
 9945 1123 9F       		.byte	0x9f
 9946 1124 00000000 		.4byte	0
 9947 1128 00000000 		.4byte	0
 9948              	.LLST59:
 9949 112c 84000000 		.4byte	.LVL260
 9950 1130 86000000 		.4byte	.LVL261
 9951 1134 0100     		.2byte	0x1
 9952 1136 54       		.byte	0x54
 9953 1137 86000000 		.4byte	.LVL261
 9954 113b 8C000000 		.4byte	.LVL263
 9955 113f 0300     		.2byte	0x3
 9956 1141 74       		.byte	0x74
 9957 1142 01       		.sleb128 1
 9958 1143 9F       		.byte	0x9f
 9959 1144 8C000000 		.4byte	.LVL263
 9960 1148 96000000 		.4byte	.LVL264
 9961 114c 0100     		.2byte	0x1
 9962 114e 54       		.byte	0x54
 9963 114f 00000000 		.4byte	0
 9964 1153 00000000 		.4byte	0
 9965              	.LLST60:
 9966 1157 00000000 		.4byte	.LVL271
 9967 115b 07000000 		.4byte	.LVL272-1
 9968 115f 0100     		.2byte	0x1
 9969 1161 50       		.byte	0x50
ARM GAS  C:\Users\jo\AppData\Local\Temp\ccBWvOPb.s 			page 179


 9970 1162 07000000 		.4byte	.LVL272-1
 9971 1166 08000000 		.4byte	.LFE10
 9972 116a 0400     		.2byte	0x4
 9973 116c F3       		.byte	0xf3
 9974 116d 01       		.uleb128 0x1
 9975 116e 50       		.byte	0x50
 9976 116f 9F       		.byte	0x9f
 9977 1170 00000000 		.4byte	0
 9978 1174 00000000 		.4byte	0
 9979              	.LLST61:
 9980 1178 00000000 		.4byte	.LVL271
 9981 117c 07000000 		.4byte	.LVL272-1
 9982 1180 0100     		.2byte	0x1
 9983 1182 51       		.byte	0x51
 9984 1183 07000000 		.4byte	.LVL272-1
 9985 1187 08000000 		.4byte	.LFE10
 9986 118b 0400     		.2byte	0x4
 9987 118d F3       		.byte	0xf3
 9988 118e 01       		.uleb128 0x1
 9989 118f 51       		.byte	0x51
 9990 1190 9F       		.byte	0x9f
 9991 1191 00000000 		.4byte	0
 9992 1195 00000000 		.4byte	0
 9993              	.LLST62:
 9994 1199 00000000 		.4byte	.LVL271
 9995 119d 07000000 		.4byte	.LVL272-1
 9996 11a1 0100     		.2byte	0x1
 9997 11a3 52       		.byte	0x52
 9998 11a4 07000000 		.4byte	.LVL272-1
 9999 11a8 08000000 		.4byte	.LFE10
 10000 11ac 0400     		.2byte	0x4
 10001 11ae F3       		.byte	0xf3
 10002 11af 01       		.uleb128 0x1
 10003 11b0 52       		.byte	0x52
 10004 11b1 9F       		.byte	0x9f
 10005 11b2 00000000 		.4byte	0
 10006 11b6 00000000 		.4byte	0
 10007              	.LLST66:
 10008 11ba 00000000 		.4byte	.LVL273
 10009 11be 0D000000 		.4byte	.LVL275-1
 10010 11c2 0100     		.2byte	0x1
 10011 11c4 50       		.byte	0x50
 10012 11c5 0D000000 		.4byte	.LVL275-1
 10013 11c9 54000000 		.4byte	.LVL285
 10014 11cd 0100     		.2byte	0x1
 10015 11cf 55       		.byte	0x55
 10016 11d0 54000000 		.4byte	.LVL285
 10017 11d4 64000000 		.4byte	.LFE11
 10018 11d8 0400     		.2byte	0x4
 10019 11da F3       		.byte	0xf3
 10020 11db 01       		.uleb128 0x1
 10021 11dc 50       		.byte	0x50
 10022 11dd 9F       		.byte	0x9f
 10023 11de 00000000 		.4byte	0
 10024 11e2 00000000 		.4byte	0
 10025              	.LLST67:
 10026 11e6 00000000 		.4byte	.LVL273
ARM GAS  C:\Users\jo\AppData\Local\Temp\ccBWvOPb.s 			page 180


 10027 11ea 0A000000 		.4byte	.LVL274
 10028 11ee 0100     		.2byte	0x1
 10029 11f0 51       		.byte	0x51
 10030 11f1 0A000000 		.4byte	.LVL274
 10031 11f5 54000000 		.4byte	.LVL285
 10032 11f9 0100     		.2byte	0x1
 10033 11fb 56       		.byte	0x56
 10034 11fc 54000000 		.4byte	.LVL285
 10035 1200 64000000 		.4byte	.LFE11
 10036 1204 0400     		.2byte	0x4
 10037 1206 F3       		.byte	0xf3
 10038 1207 01       		.uleb128 0x1
 10039 1208 51       		.byte	0x51
 10040 1209 9F       		.byte	0x9f
 10041 120a 00000000 		.4byte	0
 10042 120e 00000000 		.4byte	0
 10043              	.LLST68:
 10044 1212 0E000000 		.4byte	.LVL275
 10045 1216 54000000 		.4byte	.LVL285
 10046 121a 0100     		.2byte	0x1
 10047 121c 55       		.byte	0x55
 10048 121d 54000000 		.4byte	.LVL285
 10049 1221 64000000 		.4byte	.LFE11
 10050 1225 0400     		.2byte	0x4
 10051 1227 F3       		.byte	0xf3
 10052 1228 01       		.uleb128 0x1
 10053 1229 50       		.byte	0x50
 10054 122a 9F       		.byte	0x9f
 10055 122b 00000000 		.4byte	0
 10056 122f 00000000 		.4byte	0
 10057              	.LLST69:
 10058 1233 1A000000 		.4byte	.LVL276
 10059 1237 26000000 		.4byte	.LVL277
 10060 123b 0400     		.2byte	0x4
 10061 123d 75       		.byte	0x75
 10062 123e 9801     		.sleb128 152
 10063 1240 9F       		.byte	0x9f
 10064 1241 26000000 		.4byte	.LVL277
 10065 1245 2F000000 		.4byte	.LVL278-1
 10066 1249 0100     		.2byte	0x1
 10067 124b 51       		.byte	0x51
 10068 124c 2F000000 		.4byte	.LVL278-1
 10069 1250 54000000 		.4byte	.LVL285
 10070 1254 0400     		.2byte	0x4
 10071 1256 75       		.byte	0x75
 10072 1257 9801     		.sleb128 152
 10073 1259 9F       		.byte	0x9f
 10074 125a 54000000 		.4byte	.LVL285
 10075 125e 64000000 		.4byte	.LFE11
 10076 1262 0700     		.2byte	0x7
 10077 1264 F3       		.byte	0xf3
 10078 1265 01       		.uleb128 0x1
 10079 1266 50       		.byte	0x50
 10080 1267 23       		.byte	0x23
 10081 1268 9801     		.uleb128 0x98
 10082 126a 9F       		.byte	0x9f
 10083 126b 00000000 		.4byte	0
ARM GAS  C:\Users\jo\AppData\Local\Temp\ccBWvOPb.s 			page 181


 10084 126f 00000000 		.4byte	0
 10085              	.LLST70:
 10086 1273 1A000000 		.4byte	.LVL276
 10087 1277 54000000 		.4byte	.LVL285
 10088 127b 0100     		.2byte	0x1
 10089 127d 55       		.byte	0x55
 10090 127e 54000000 		.4byte	.LVL285
 10091 1282 64000000 		.4byte	.LFE11
 10092 1286 0400     		.2byte	0x4
 10093 1288 F3       		.byte	0xf3
 10094 1289 01       		.uleb128 0x1
 10095 128a 50       		.byte	0x50
 10096 128b 9F       		.byte	0x9f
 10097 128c 00000000 		.4byte	0
 10098 1290 00000000 		.4byte	0
 10099              	.LLST71:
 10100 1294 30000000 		.4byte	.LVL278
 10101 1298 52000000 		.4byte	.LVL284
 10102 129c 0100     		.2byte	0x1
 10103 129e 5D       		.byte	0x5d
 10104 129f 52000000 		.4byte	.LVL284
 10105 12a3 54000000 		.4byte	.LVL285
 10106 12a7 0300     		.2byte	0x3
 10107 12a9 91       		.byte	0x91
 10108 12aa 60       		.sleb128 -32
 10109 12ab 9F       		.byte	0x9f
 10110 12ac 54000000 		.4byte	.LVL285
 10111 12b0 64000000 		.4byte	.LFE11
 10112 12b4 0300     		.2byte	0x3
 10113 12b6 7D       		.byte	0x7d
 10114 12b7 60       		.sleb128 -32
 10115 12b8 9F       		.byte	0x9f
 10116 12b9 00000000 		.4byte	0
 10117 12bd 00000000 		.4byte	0
 10118              	.LLST72:
 10119 12c1 30000000 		.4byte	.LVL278
 10120 12c5 54000000 		.4byte	.LVL285
 10121 12c9 0100     		.2byte	0x1
 10122 12cb 55       		.byte	0x55
 10123 12cc 54000000 		.4byte	.LVL285
 10124 12d0 64000000 		.4byte	.LFE11
 10125 12d4 0400     		.2byte	0x4
 10126 12d6 F3       		.byte	0xf3
 10127 12d7 01       		.uleb128 0x1
 10128 12d8 50       		.byte	0x50
 10129 12d9 9F       		.byte	0x9f
 10130 12da 00000000 		.4byte	0
 10131 12de 00000000 		.4byte	0
 10132              	.LLST73:
 10133 12e2 42000000 		.4byte	.LVL280
 10134 12e6 46000000 		.4byte	.LVL281
 10135 12ea 0200     		.2byte	0x2
 10136 12ec 3F       		.byte	0x3f
 10137 12ed 9F       		.byte	0x9f
 10138 12ee 46000000 		.4byte	.LVL281
 10139 12f2 48000000 		.4byte	.LVL282
 10140 12f6 0800     		.2byte	0x8
ARM GAS  C:\Users\jo\AppData\Local\Temp\ccBWvOPb.s 			page 182


 10141 12f8 91       		.byte	0x91
 10142 12f9 00       		.sleb128 0
 10143 12fa 73       		.byte	0x73
 10144 12fb 00       		.sleb128 0
 10145 12fc 1C       		.byte	0x1c
 10146 12fd 41       		.byte	0x41
 10147 12fe 1C       		.byte	0x1c
 10148 12ff 9F       		.byte	0x9f
 10149 1300 48000000 		.4byte	.LVL282
 10150 1304 4C000000 		.4byte	.LVL283
 10151 1308 0800     		.2byte	0x8
 10152 130a 91       		.byte	0x91
 10153 130b 00       		.sleb128 0
 10154 130c 73       		.byte	0x73
 10155 130d 00       		.sleb128 0
 10156 130e 1C       		.byte	0x1c
 10157 130f 42       		.byte	0x42
 10158 1310 1C       		.byte	0x1c
 10159 1311 9F       		.byte	0x9f
 10160 1312 4C000000 		.4byte	.LVL283
 10161 1316 54000000 		.4byte	.LVL285
 10162 131a 0800     		.2byte	0x8
 10163 131c 91       		.byte	0x91
 10164 131d 00       		.sleb128 0
 10165 131e 73       		.byte	0x73
 10166 131f 00       		.sleb128 0
 10167 1320 1C       		.byte	0x1c
 10168 1321 41       		.byte	0x41
 10169 1322 1C       		.byte	0x1c
 10170 1323 9F       		.byte	0x9f
 10171 1324 54000000 		.4byte	.LVL285
 10172 1328 64000000 		.4byte	.LFE11
 10173 132c 0800     		.2byte	0x8
 10174 132e 7D       		.byte	0x7d
 10175 132f 00       		.sleb128 0
 10176 1330 73       		.byte	0x73
 10177 1331 00       		.sleb128 0
 10178 1332 1C       		.byte	0x1c
 10179 1333 41       		.byte	0x41
 10180 1334 1C       		.byte	0x1c
 10181 1335 9F       		.byte	0x9f
 10182 1336 00000000 		.4byte	0
 10183 133a 00000000 		.4byte	0
 10184              	.LLST74:
 10185 133e 42000000 		.4byte	.LVL280
 10186 1342 52000000 		.4byte	.LVL284
 10187 1346 0100     		.2byte	0x1
 10188 1348 5D       		.byte	0x5d
 10189 1349 52000000 		.4byte	.LVL284
 10190 134d 54000000 		.4byte	.LVL285
 10191 1351 0300     		.2byte	0x3
 10192 1353 91       		.byte	0x91
 10193 1354 60       		.sleb128 -32
 10194 1355 9F       		.byte	0x9f
 10195 1356 54000000 		.4byte	.LVL285
 10196 135a 64000000 		.4byte	.LFE11
 10197 135e 0300     		.2byte	0x3
ARM GAS  C:\Users\jo\AppData\Local\Temp\ccBWvOPb.s 			page 183


 10198 1360 7D       		.byte	0x7d
 10199 1361 60       		.sleb128 -32
 10200 1362 9F       		.byte	0x9f
 10201 1363 00000000 		.4byte	0
 10202 1367 00000000 		.4byte	0
 10203              	.LLST75:
 10204 136b 42000000 		.4byte	.LVL280
 10205 136f 46000000 		.4byte	.LVL281
 10206 1373 0100     		.2byte	0x1
 10207 1375 5D       		.byte	0x5d
 10208 1376 46000000 		.4byte	.LVL281
 10209 137a 4C000000 		.4byte	.LVL283
 10210 137e 0300     		.2byte	0x3
 10211 1380 73       		.byte	0x73
 10212 1381 01       		.sleb128 1
 10213 1382 9F       		.byte	0x9f
 10214 1383 4C000000 		.4byte	.LVL283
 10215 1387 64000000 		.4byte	.LFE11
 10216 138b 0100     		.2byte	0x1
 10217 138d 53       		.byte	0x53
 10218 138e 00000000 		.4byte	0
 10219 1392 00000000 		.4byte	0
 10220              	.LLST76:
 10221 1396 00000000 		.4byte	.LVL286
 10222 139a 23000000 		.4byte	.LVL290-1
 10223 139e 0100     		.2byte	0x1
 10224 13a0 50       		.byte	0x50
 10225 13a1 23000000 		.4byte	.LVL290-1
 10226 13a5 34000000 		.4byte	.LFE12
 10227 13a9 0400     		.2byte	0x4
 10228 13ab F3       		.byte	0xf3
 10229 13ac 01       		.uleb128 0x1
 10230 13ad 50       		.byte	0x50
 10231 13ae 9F       		.byte	0x9f
 10232 13af 00000000 		.4byte	0
 10233 13b3 00000000 		.4byte	0
 10234              	.LLST77:
 10235 13b7 0E000000 		.4byte	.LVL287
 10236 13bb 23000000 		.4byte	.LVL290-1
 10237 13bf 0100     		.2byte	0x1
 10238 13c1 50       		.byte	0x50
 10239 13c2 23000000 		.4byte	.LVL290-1
 10240 13c6 34000000 		.4byte	.LFE12
 10241 13ca 0400     		.2byte	0x4
 10242 13cc F3       		.byte	0xf3
 10243 13cd 01       		.uleb128 0x1
 10244 13ce 50       		.byte	0x50
 10245 13cf 9F       		.byte	0x9f
 10246 13d0 00000000 		.4byte	0
 10247 13d4 00000000 		.4byte	0
 10248              	.LLST78:
 10249 13d8 16000000 		.4byte	.LVL288
 10250 13dc 1C000000 		.4byte	.LVL289
 10251 13e0 0400     		.2byte	0x4
 10252 13e2 70       		.byte	0x70
 10253 13e3 D800     		.sleb128 88
 10254 13e5 9F       		.byte	0x9f
ARM GAS  C:\Users\jo\AppData\Local\Temp\ccBWvOPb.s 			page 184


 10255 13e6 1C000000 		.4byte	.LVL289
 10256 13ea 23000000 		.4byte	.LVL290-1
 10257 13ee 0100     		.2byte	0x1
 10258 13f0 51       		.byte	0x51
 10259 13f1 23000000 		.4byte	.LVL290-1
 10260 13f5 34000000 		.4byte	.LFE12
 10261 13f9 0600     		.2byte	0x6
 10262 13fb F3       		.byte	0xf3
 10263 13fc 01       		.uleb128 0x1
 10264 13fd 50       		.byte	0x50
 10265 13fe 23       		.byte	0x23
 10266 13ff 58       		.uleb128 0x58
 10267 1400 9F       		.byte	0x9f
 10268 1401 00000000 		.4byte	0
 10269 1405 00000000 		.4byte	0
 10270              	.LLST79:
 10271 1409 16000000 		.4byte	.LVL288
 10272 140d 23000000 		.4byte	.LVL290-1
 10273 1411 0100     		.2byte	0x1
 10274 1413 50       		.byte	0x50
 10275 1414 23000000 		.4byte	.LVL290-1
 10276 1418 34000000 		.4byte	.LFE12
 10277 141c 0400     		.2byte	0x4
 10278 141e F3       		.byte	0xf3
 10279 141f 01       		.uleb128 0x1
 10280 1420 50       		.byte	0x50
 10281 1421 9F       		.byte	0x9f
 10282 1422 00000000 		.4byte	0
 10283 1426 00000000 		.4byte	0
 10284              	.LLST80:
 10285 142a 00000000 		.4byte	.LVL291
 10286 142e 10000000 		.4byte	.LVL295
 10287 1432 0100     		.2byte	0x1
 10288 1434 50       		.byte	0x50
 10289 1435 10000000 		.4byte	.LVL295
 10290 1439 48000000 		.4byte	.LFE13
 10291 143d 0100     		.2byte	0x1
 10292 143f 56       		.byte	0x56
 10293 1440 00000000 		.4byte	0
 10294 1444 00000000 		.4byte	0
 10295              	.LLST81:
 10296 1448 00000000 		.4byte	.LVL291
 10297 144c 0C000000 		.4byte	.LVL293
 10298 1450 0100     		.2byte	0x1
 10299 1452 51       		.byte	0x51
 10300 1453 0C000000 		.4byte	.LVL293
 10301 1457 48000000 		.4byte	.LFE13
 10302 145b 0100     		.2byte	0x1
 10303 145d 55       		.byte	0x55
 10304 145e 00000000 		.4byte	0
 10305 1462 00000000 		.4byte	0
 10306              	.LLST82:
 10307 1466 00000000 		.4byte	.LVL291
 10308 146a 0E000000 		.4byte	.LVL294
 10309 146e 0100     		.2byte	0x1
 10310 1470 52       		.byte	0x52
 10311 1471 0E000000 		.4byte	.LVL294
ARM GAS  C:\Users\jo\AppData\Local\Temp\ccBWvOPb.s 			page 185


 10312 1475 48000000 		.4byte	.LFE13
 10313 1479 0100     		.2byte	0x1
 10314 147b 57       		.byte	0x57
 10315 147c 00000000 		.4byte	0
 10316 1480 00000000 		.4byte	0
 10317              	.LLST83:
 10318 1484 00000000 		.4byte	.LVL291
 10319 1488 15000000 		.4byte	.LVL296-1
 10320 148c 0100     		.2byte	0x1
 10321 148e 53       		.byte	0x53
 10322 148f 15000000 		.4byte	.LVL296-1
 10323 1493 48000000 		.4byte	.LFE13
 10324 1497 0100     		.2byte	0x1
 10325 1499 54       		.byte	0x54
 10326 149a 00000000 		.4byte	0
 10327 149e 00000000 		.4byte	0
 10328              	.LLST84:
 10329 14a2 00000000 		.4byte	.LVL291
 10330 14a6 3C000000 		.4byte	.LVL303
 10331 14aa 0200     		.2byte	0x2
 10332 14ac 91       		.byte	0x91
 10333 14ad 00       		.sleb128 0
 10334 14ae 3C000000 		.4byte	.LVL303
 10335 14b2 48000000 		.4byte	.LFE13
 10336 14b6 0200     		.2byte	0x2
 10337 14b8 91       		.byte	0x91
 10338 14b9 00       		.sleb128 0
 10339 14ba 00000000 		.4byte	0
 10340 14be 00000000 		.4byte	0
 10341              	.LLST85:
 10342 14c2 04000000 		.4byte	.LVL292
 10343 14c6 3A000000 		.4byte	.LVL302
 10344 14ca 0100     		.2byte	0x1
 10345 14cc 5D       		.byte	0x5d
 10346 14cd 3A000000 		.4byte	.LVL302
 10347 14d1 3C000000 		.4byte	.LVL303
 10348 14d5 0400     		.2byte	0x4
 10349 14d7 91       		.byte	0x91
 10350 14d8 907E     		.sleb128 -240
 10351 14da 9F       		.byte	0x9f
 10352 14db 3C000000 		.4byte	.LVL303
 10353 14df 48000000 		.4byte	.LFE13
 10354 14e3 0100     		.2byte	0x1
 10355 14e5 5D       		.byte	0x5d
 10356 14e6 00000000 		.4byte	0
 10357 14ea 00000000 		.4byte	0
 10358              	.LLST86:
 10359 14ee 20000000 		.4byte	.LVL297
 10360 14f2 3A000000 		.4byte	.LVL302
 10361 14f6 0100     		.2byte	0x1
 10362 14f8 5D       		.byte	0x5d
 10363 14f9 3A000000 		.4byte	.LVL302
 10364 14fd 3C000000 		.4byte	.LVL303
 10365 1501 0400     		.2byte	0x4
 10366 1503 91       		.byte	0x91
 10367 1504 907E     		.sleb128 -240
 10368 1506 9F       		.byte	0x9f
ARM GAS  C:\Users\jo\AppData\Local\Temp\ccBWvOPb.s 			page 186


 10369 1507 3C000000 		.4byte	.LVL303
 10370 150b 48000000 		.4byte	.LFE13
 10371 150f 0100     		.2byte	0x1
 10372 1511 5D       		.byte	0x5d
 10373 1512 00000000 		.4byte	0
 10374 1516 00000000 		.4byte	0
 10375              	.LLST88:
 10376 151a 2A000000 		.4byte	.LVL298
 10377 151e 3A000000 		.4byte	.LVL302
 10378 1522 0100     		.2byte	0x1
 10379 1524 5D       		.byte	0x5d
 10380 1525 3A000000 		.4byte	.LVL302
 10381 1529 3C000000 		.4byte	.LVL303
 10382 152d 0400     		.2byte	0x4
 10383 152f 91       		.byte	0x91
 10384 1530 907E     		.sleb128 -240
 10385 1532 9F       		.byte	0x9f
 10386 1533 00000000 		.4byte	0
 10387 1537 00000000 		.4byte	0
 10388              	.LLST89:
 10389 153b 2A000000 		.4byte	.LVL298
 10390 153f 2E000000 		.4byte	.LVL299
 10391 1543 0300     		.2byte	0x3
 10392 1545 08       		.byte	0x8
 10393 1546 D7       		.byte	0xd7
 10394 1547 9F       		.byte	0x9f
 10395 1548 2E000000 		.4byte	.LVL299
 10396 154c 30000000 		.4byte	.LVL300
 10397 1550 0800     		.2byte	0x8
 10398 1552 91       		.byte	0x91
 10399 1553 00       		.sleb128 0
 10400 1554 73       		.byte	0x73
 10401 1555 00       		.sleb128 0
 10402 1556 1C       		.byte	0x1c
 10403 1557 49       		.byte	0x49
 10404 1558 1C       		.byte	0x1c
 10405 1559 9F       		.byte	0x9f
 10406 155a 30000000 		.4byte	.LVL300
 10407 155e 34000000 		.4byte	.LVL301
 10408 1562 0800     		.2byte	0x8
 10409 1564 91       		.byte	0x91
 10410 1565 00       		.sleb128 0
 10411 1566 73       		.byte	0x73
 10412 1567 00       		.sleb128 0
 10413 1568 1C       		.byte	0x1c
 10414 1569 4A       		.byte	0x4a
 10415 156a 1C       		.byte	0x1c
 10416 156b 9F       		.byte	0x9f
 10417 156c 34000000 		.4byte	.LVL301
 10418 1570 3C000000 		.4byte	.LVL303
 10419 1574 0800     		.2byte	0x8
 10420 1576 91       		.byte	0x91
 10421 1577 00       		.sleb128 0
 10422 1578 73       		.byte	0x73
 10423 1579 00       		.sleb128 0
 10424 157a 1C       		.byte	0x1c
 10425 157b 49       		.byte	0x49
ARM GAS  C:\Users\jo\AppData\Local\Temp\ccBWvOPb.s 			page 187


 10426 157c 1C       		.byte	0x1c
 10427 157d 9F       		.byte	0x9f
 10428 157e 00000000 		.4byte	0
 10429 1582 00000000 		.4byte	0
 10430              	.LLST90:
 10431 1586 2A000000 		.4byte	.LVL298
 10432 158a 2E000000 		.4byte	.LVL299
 10433 158e 0100     		.2byte	0x1
 10434 1590 5D       		.byte	0x5d
 10435 1591 2E000000 		.4byte	.LVL299
 10436 1595 34000000 		.4byte	.LVL301
 10437 1599 0300     		.2byte	0x3
 10438 159b 73       		.byte	0x73
 10439 159c 01       		.sleb128 1
 10440 159d 9F       		.byte	0x9f
 10441 159e 34000000 		.4byte	.LVL301
 10442 15a2 3C000000 		.4byte	.LVL303
 10443 15a6 0100     		.2byte	0x1
 10444 15a8 53       		.byte	0x53
 10445 15a9 00000000 		.4byte	0
 10446 15ad 00000000 		.4byte	0
 10447              	.LLST91:
 10448 15b1 00000000 		.4byte	.LVL305
 10449 15b5 18000000 		.4byte	.LVL306
 10450 15b9 0100     		.2byte	0x1
 10451 15bb 50       		.byte	0x50
 10452 15bc 18000000 		.4byte	.LVL306
 10453 15c0 64010000 		.4byte	.LFE14
 10454 15c4 0100     		.2byte	0x1
 10455 15c6 55       		.byte	0x55
 10456 15c7 00000000 		.4byte	0
 10457 15cb 00000000 		.4byte	0
 10458              	.LLST92:
 10459 15cf 00000000 		.4byte	.LVL305
 10460 15d3 18000000 		.4byte	.LVL306
 10461 15d7 0200     		.2byte	0x2
 10462 15d9 30       		.byte	0x30
 10463 15da 9F       		.byte	0x9f
 10464 15db 18000000 		.4byte	.LVL306
 10465 15df 36000000 		.4byte	.LVL309
 10466 15e3 0300     		.2byte	0x3
 10467 15e5 78       		.byte	0x78
 10468 15e6 7F       		.sleb128 -1
 10469 15e7 9F       		.byte	0x9f
 10470 15e8 36000000 		.4byte	.LVL309
 10471 15ec 42000000 		.4byte	.LVL310
 10472 15f0 0300     		.2byte	0x3
 10473 15f2 78       		.byte	0x78
 10474 15f3 7E       		.sleb128 -2
 10475 15f4 9F       		.byte	0x9f
 10476 15f5 4A000000 		.4byte	.LVL311
 10477 15f9 5C000000 		.4byte	.LVL312
 10478 15fd 0200     		.2byte	0x2
 10479 15ff 30       		.byte	0x30
 10480 1600 9F       		.byte	0x9f
 10481 1601 5C000000 		.4byte	.LVL312
 10482 1605 AE000000 		.4byte	.LVL321
ARM GAS  C:\Users\jo\AppData\Local\Temp\ccBWvOPb.s 			page 188


 10483 1609 0100     		.2byte	0x1
 10484 160b 54       		.byte	0x54
 10485 160c B8000000 		.4byte	.LVL322
 10486 1610 C2000000 		.4byte	.LVL324
 10487 1614 0300     		.2byte	0x3
 10488 1616 78       		.byte	0x78
 10489 1617 7F       		.sleb128 -1
 10490 1618 9F       		.byte	0x9f
 10491 1619 C2000000 		.4byte	.LVL324
 10492 161d CA000000 		.4byte	.LVL326
 10493 1621 0300     		.2byte	0x3
 10494 1623 78       		.byte	0x78
 10495 1624 7E       		.sleb128 -2
 10496 1625 9F       		.byte	0x9f
 10497 1626 CA000000 		.4byte	.LVL326
 10498 162a F6000000 		.4byte	.LVL335
 10499 162e 0100     		.2byte	0x1
 10500 1630 54       		.byte	0x54
 10501 1631 1A010000 		.4byte	.LVL339
 10502 1635 64010000 		.4byte	.LFE14
 10503 1639 0100     		.2byte	0x1
 10504 163b 54       		.byte	0x54
 10505 163c 00000000 		.4byte	0
 10506 1640 00000000 		.4byte	0
 10507              	.LLST93:
 10508 1644 7A000000 		.4byte	.LVL314
 10509 1648 7C000000 		.4byte	.LVL315
 10510 164c 0100     		.2byte	0x1
 10511 164e 52       		.byte	0x52
 10512 164f 7C000000 		.4byte	.LVL315
 10513 1653 96000000 		.4byte	.LVL319
 10514 1657 0500     		.2byte	0x5
 10515 1659 7B       		.byte	0x7b
 10516 165a 00       		.sleb128 0
 10517 165b 79       		.byte	0x79
 10518 165c 00       		.sleb128 0
 10519 165d 22       		.byte	0x22
 10520 165e CA000000 		.4byte	.LVL326
 10521 1662 D1000000 		.4byte	.LVL328-1
 10522 1666 0100     		.2byte	0x1
 10523 1668 52       		.byte	0x52
 10524 1669 D1000000 		.4byte	.LVL328-1
 10525 166d D4000000 		.4byte	.LVL329
 10526 1671 0500     		.2byte	0x5
 10527 1673 7B       		.byte	0x7b
 10528 1674 00       		.sleb128 0
 10529 1675 79       		.byte	0x79
 10530 1676 00       		.sleb128 0
 10531 1677 22       		.byte	0x22
 10532 1678 00000000 		.4byte	0
 10533 167c 00000000 		.4byte	0
 10534              	.LLST94:
 10535 1680 7A000000 		.4byte	.LVL314
 10536 1684 9C000000 		.4byte	.LVL320
 10537 1688 0C00     		.2byte	0xc
 10538 168a 74       		.byte	0x74
 10539 168b 00       		.sleb128 0
ARM GAS  C:\Users\jo\AppData\Local\Temp\ccBWvOPb.s 			page 189


 10540 168c 08       		.byte	0x8
 10541 168d 4A       		.byte	0x4a
 10542 168e 1E       		.byte	0x1e
 10543 168f 03       		.byte	0x3
 10544 1690 00000000 		.4byte	md5_hmac_test_buf
 10545 1694 22       		.byte	0x22
 10546 1695 9F       		.byte	0x9f
 10547 1696 9C000000 		.4byte	.LVL320
 10548 169a AE000000 		.4byte	.LVL321
 10549 169e 0C00     		.2byte	0xc
 10550 16a0 74       		.byte	0x74
 10551 16a1 7F       		.sleb128 -1
 10552 16a2 08       		.byte	0x8
 10553 16a3 4A       		.byte	0x4a
 10554 16a4 1E       		.byte	0x1e
 10555 16a5 03       		.byte	0x3
 10556 16a6 00000000 		.4byte	md5_hmac_test_buf
 10557 16aa 22       		.byte	0x22
 10558 16ab 9F       		.byte	0x9f
 10559 16ac CA000000 		.4byte	.LVL326
 10560 16b0 D4000000 		.4byte	.LVL329
 10561 16b4 0C00     		.2byte	0xc
 10562 16b6 74       		.byte	0x74
 10563 16b7 00       		.sleb128 0
 10564 16b8 08       		.byte	0x8
 10565 16b9 4A       		.byte	0x4a
 10566 16ba 1E       		.byte	0x1e
 10567 16bb 03       		.byte	0x3
 10568 16bc 00000000 		.4byte	md5_hmac_test_buf
 10569 16c0 22       		.byte	0x22
 10570 16c1 9F       		.byte	0x9f
 10571 16c2 DE000000 		.4byte	.LVL331
 10572 16c6 E6000000 		.4byte	.LVL333
 10573 16ca 0C00     		.2byte	0xc
 10574 16cc 74       		.byte	0x74
 10575 16cd 00       		.sleb128 0
 10576 16ce 08       		.byte	0x8
 10577 16cf 4A       		.byte	0x4a
 10578 16d0 1E       		.byte	0x1e
 10579 16d1 03       		.byte	0x3
 10580 16d2 00000000 		.4byte	md5_hmac_test_buf
 10581 16d6 22       		.byte	0x22
 10582 16d7 9F       		.byte	0x9f
 10583 16d8 E6000000 		.4byte	.LVL333
 10584 16dc F6000000 		.4byte	.LVL335
 10585 16e0 0C00     		.2byte	0xc
 10586 16e2 74       		.byte	0x74
 10587 16e3 7F       		.sleb128 -1
 10588 16e4 08       		.byte	0x8
 10589 16e5 4A       		.byte	0x4a
 10590 16e6 1E       		.byte	0x1e
 10591 16e7 03       		.byte	0x3
 10592 16e8 00000000 		.4byte	md5_hmac_test_buf
 10593 16ec 22       		.byte	0x22
 10594 16ed 9F       		.byte	0x9f
 10595 16ee 00000000 		.4byte	0
 10596 16f2 00000000 		.4byte	0
ARM GAS  C:\Users\jo\AppData\Local\Temp\ccBWvOPb.s 			page 190


 10597              	.LLST95:
 10598 16f6 7A000000 		.4byte	.LVL314
 10599 16fa 7E000000 		.4byte	.LVL316
 10600 16fe 0400     		.2byte	0x4
 10601 1700 91       		.byte	0x91
 10602 1701 8076     		.sleb128 -1280
 10603 1703 9F       		.byte	0x9f
 10604 1704 7E000000 		.4byte	.LVL316
 10605 1708 83000000 		.4byte	.LVL317-1
 10606 170c 0100     		.2byte	0x1
 10607 170e 50       		.byte	0x50
 10608 170f 83000000 		.4byte	.LVL317-1
 10609 1713 AE000000 		.4byte	.LVL321
 10610 1717 0400     		.2byte	0x4
 10611 1719 91       		.byte	0x91
 10612 171a 8076     		.sleb128 -1280
 10613 171c 9F       		.byte	0x9f
 10614 171d CA000000 		.4byte	.LVL326
 10615 1721 CC000000 		.4byte	.LVL327
 10616 1725 0400     		.2byte	0x4
 10617 1727 91       		.byte	0x91
 10618 1728 8076     		.sleb128 -1280
 10619 172a 9F       		.byte	0x9f
 10620 172b CC000000 		.4byte	.LVL327
 10621 172f D1000000 		.4byte	.LVL328-1
 10622 1733 0100     		.2byte	0x1
 10623 1735 50       		.byte	0x50
 10624 1736 D1000000 		.4byte	.LVL328-1
 10625 173a D4000000 		.4byte	.LVL329
 10626 173e 0400     		.2byte	0x4
 10627 1740 91       		.byte	0x91
 10628 1741 8076     		.sleb128 -1280
 10629 1743 9F       		.byte	0x9f
 10630 1744 DE000000 		.4byte	.LVL331
 10631 1748 F6000000 		.4byte	.LVL335
 10632 174c 0400     		.2byte	0x4
 10633 174e 91       		.byte	0x91
 10634 174f 8076     		.sleb128 -1280
 10635 1751 9F       		.byte	0x9f
 10636 1752 00000000 		.4byte	0
 10637 1756 00000000 		.4byte	0
 10638              		.section	.debug_aranges,"",%progbits
 10639 0000 8C000000 		.4byte	0x8c
 10640 0004 0200     		.2byte	0x2
 10641 0006 00000000 		.4byte	.Ldebug_info0
 10642 000a 04       		.byte	0x4
 10643 000b 00       		.byte	0
 10644 000c 0000     		.2byte	0
 10645 000e 0000     		.2byte	0
 10646 0010 00000000 		.4byte	.LFB1
 10647 0014 08000000 		.4byte	.LFE1-.LFB1
 10648 0018 00000000 		.4byte	.LFB2
 10649 001c 12000000 		.4byte	.LFE2-.LFB2
 10650 0020 00000000 		.4byte	.LFB3
 10651 0024 30000000 		.4byte	.LFE3-.LFB3
 10652 0028 00000000 		.4byte	.LFB4
 10653 002c 74090000 		.4byte	.LFE4-.LFB4
ARM GAS  C:\Users\jo\AppData\Local\Temp\ccBWvOPb.s 			page 191


 10654 0030 00000000 		.4byte	.LFB15
 10655 0034 92000000 		.4byte	.LFE15-.LFB15
 10656 0038 00000000 		.4byte	.LFB5
 10657 003c 08000000 		.4byte	.LFE5-.LFB5
 10658 0040 00000000 		.4byte	.LFB6
 10659 0044 C0000000 		.4byte	.LFE6-.LFB6
 10660 0048 00000000 		.4byte	.LFB7
 10661 004c 5C000000 		.4byte	.LFE7-.LFB7
 10662 0050 00000000 		.4byte	.LFB8
 10663 0054 A0000000 		.4byte	.LFE8-.LFB8
 10664 0058 00000000 		.4byte	.LFB9
 10665 005c D4000000 		.4byte	.LFE9-.LFB9
 10666 0060 00000000 		.4byte	.LFB10
 10667 0064 08000000 		.4byte	.LFE10-.LFB10
 10668 0068 00000000 		.4byte	.LFB11
 10669 006c 64000000 		.4byte	.LFE11-.LFB11
 10670 0070 00000000 		.4byte	.LFB12
 10671 0074 34000000 		.4byte	.LFE12-.LFB12
 10672 0078 00000000 		.4byte	.LFB13
 10673 007c 48000000 		.4byte	.LFE13-.LFB13
 10674 0080 00000000 		.4byte	.LFB14
 10675 0084 64010000 		.4byte	.LFE14-.LFB14
 10676 0088 00000000 		.4byte	0
 10677 008c 00000000 		.4byte	0
 10678              		.section	.debug_ranges,"",%progbits
 10679              	.Ldebug_ranges0:
 10680 0000 42000000 		.4byte	.LBB64
 10681 0004 44000000 		.4byte	.LBE64
 10682 0008 48000000 		.4byte	.LBB68
 10683 000c 4A000000 		.4byte	.LBE68
 10684 0010 5E000000 		.4byte	.LBB69
 10685 0014 62000000 		.4byte	.LBE69
 10686 0018 00000000 		.4byte	0
 10687 001c 00000000 		.4byte	0
 10688 0020 24000000 		.4byte	.LBB76
 10689 0024 26000000 		.4byte	.LBE76
 10690 0028 40000000 		.4byte	.LBB82
 10691 002c 5C000000 		.4byte	.LBE82
 10692 0030 00000000 		.4byte	0
 10693 0034 00000000 		.4byte	0
 10694 0038 3E000000 		.4byte	.LBB87
 10695 003c 40000000 		.4byte	.LBE87
 10696 0040 42000000 		.4byte	.LBB91
 10697 0044 44000000 		.4byte	.LBE91
 10698 0048 46000000 		.4byte	.LBB92
 10699 004c 4E000000 		.4byte	.LBE92
 10700 0050 00000000 		.4byte	0
 10701 0054 00000000 		.4byte	0
 10702 0058 60000000 		.4byte	.LBB96
 10703 005c 74000000 		.4byte	.LBE96
 10704 0060 76000000 		.4byte	.LBB102
 10705 0064 7C000000 		.4byte	.LBE102
 10706 0068 00000000 		.4byte	0
 10707 006c 00000000 		.4byte	0
 10708 0070 74000000 		.4byte	.LBB99
 10709 0074 76000000 		.4byte	.LBE99
 10710 0078 7C000000 		.4byte	.LBB103
ARM GAS  C:\Users\jo\AppData\Local\Temp\ccBWvOPb.s 			page 192


 10711 007c 84000000 		.4byte	.LBE103
 10712 0080 00000000 		.4byte	0
 10713 0084 00000000 		.4byte	0
 10714 0088 0E000000 		.4byte	.LBB108
 10715 008c 20000000 		.4byte	.LBE108
 10716 0090 28000000 		.4byte	.LBB114
 10717 0094 2C000000 		.4byte	.LBE114
 10718 0098 00000000 		.4byte	0
 10719 009c 00000000 		.4byte	0
 10720 00a0 20000000 		.4byte	.LBB111
 10721 00a4 28000000 		.4byte	.LBE111
 10722 00a8 2C000000 		.4byte	.LBB115
 10723 00ac 30000000 		.4byte	.LBE115
 10724 00b0 00000000 		.4byte	0
 10725 00b4 00000000 		.4byte	0
 10726 00b8 02000000 		.4byte	.LBB120
 10727 00bc 0C000000 		.4byte	.LBE120
 10728 00c0 0E000000 		.4byte	.LBB123
 10729 00c4 1A000000 		.4byte	.LBE123
 10730 00c8 00000000 		.4byte	0
 10731 00cc 00000000 		.4byte	0
 10732 00d0 1A000000 		.4byte	.LBB124
 10733 00d4 1E000000 		.4byte	.LBE124
 10734 00d8 20000000 		.4byte	.LBB127
 10735 00dc 34000000 		.4byte	.LBE127
 10736 00e0 00000000 		.4byte	0
 10737 00e4 00000000 		.4byte	0
 10738 00e8 0A000000 		.4byte	.LBB128
 10739 00ec 10000000 		.4byte	.LBE128
 10740 00f0 12000000 		.4byte	.LBB131
 10741 00f4 16000000 		.4byte	.LBE131
 10742 00f8 00000000 		.4byte	0
 10743 00fc 00000000 		.4byte	0
 10744 0100 20000000 		.4byte	.LBB132
 10745 0104 22000000 		.4byte	.LBE132
 10746 0108 3C000000 		.4byte	.LBB140
 10747 010c 48000000 		.4byte	.LBE140
 10748 0110 00000000 		.4byte	0
 10749 0114 00000000 		.4byte	0
 10750 0118 7A000000 		.4byte	.LBB141
 10751 011c 7C000000 		.4byte	.LBE141
 10752 0120 CA000000 		.4byte	.LBB146
 10753 0124 D4000000 		.4byte	.LBE146
 10754 0128 00000000 		.4byte	0
 10755 012c 00000000 		.4byte	0
 10756 0130 00000000 		.4byte	.LFB1
 10757 0134 08000000 		.4byte	.LFE1
 10758 0138 00000000 		.4byte	.LFB2
 10759 013c 12000000 		.4byte	.LFE2
 10760 0140 00000000 		.4byte	.LFB3
 10761 0144 30000000 		.4byte	.LFE3
 10762 0148 00000000 		.4byte	.LFB4
 10763 014c 74090000 		.4byte	.LFE4
 10764 0150 00000000 		.4byte	.LFB15
 10765 0154 92000000 		.4byte	.LFE15
 10766 0158 00000000 		.4byte	.LFB5
 10767 015c 08000000 		.4byte	.LFE5
ARM GAS  C:\Users\jo\AppData\Local\Temp\ccBWvOPb.s 			page 193


 10768 0160 00000000 		.4byte	.LFB6
 10769 0164 C0000000 		.4byte	.LFE6
 10770 0168 00000000 		.4byte	.LFB7
 10771 016c 5C000000 		.4byte	.LFE7
 10772 0170 00000000 		.4byte	.LFB8
 10773 0174 A0000000 		.4byte	.LFE8
 10774 0178 00000000 		.4byte	.LFB9
 10775 017c D4000000 		.4byte	.LFE9
 10776 0180 00000000 		.4byte	.LFB10
 10777 0184 08000000 		.4byte	.LFE10
 10778 0188 00000000 		.4byte	.LFB11
 10779 018c 64000000 		.4byte	.LFE11
 10780 0190 00000000 		.4byte	.LFB12
 10781 0194 34000000 		.4byte	.LFE12
 10782 0198 00000000 		.4byte	.LFB13
 10783 019c 48000000 		.4byte	.LFE13
 10784 01a0 00000000 		.4byte	.LFB14
 10785 01a4 64010000 		.4byte	.LFE14
 10786 01a8 00000000 		.4byte	0
 10787 01ac 00000000 		.4byte	0
 10788              		.section	.debug_line,"",%progbits
 10789              	.Ldebug_line0:
 10790 0000 A6060000 		.section	.debug_str,"MS",%progbits,1
 10790      02003102 
 10790      00000201 
 10790      FB0E0D00 
 10790      01010101 
 10791              	.LASF47:
 10792 0000 5F64736F 		.ascii	"_dso_handle\000"
 10792      5F68616E 
 10792      646C6500 
 10793              	.LASF55:
 10794 000c 5F73697A 		.ascii	"_size\000"
 10794      6500
 10795              	.LASF6:
 10796 0012 73697A65 		.ascii	"size_t\000"
 10796      5F7400
 10797              	.LASF100:
 10798 0019 5F72616E 		.ascii	"_rand48\000"
 10798      64343800 
 10799              	.LASF79:
 10800 0021 5F656D65 		.ascii	"_emergency\000"
 10800      7267656E 
 10800      637900
 10801              	.LASF156:
 10802 002c 6D64355F 		.ascii	"md5_padding\000"
 10802      70616464 
 10802      696E6700 
 10803              	.LASF69:
 10804 0038 5F646174 		.ascii	"_data\000"
 10804      6100
 10805              	.LASF137:
 10806 003e 6D64355F 		.ascii	"md5_process\000"
 10806      70726F63 
 10806      65737300 
 10807              	.LASF144:
 10808 004a 70617468 		.ascii	"path\000"
ARM GAS  C:\Users\jo\AppData\Local\Temp\ccBWvOPb.s 			page 194


 10808      00
 10809              	.LASF120:
 10810 004f 5F776372 		.ascii	"_wcrtomb_state\000"
 10810      746F6D62 
 10810      5F737461 
 10810      746500
 10811              	.LASF121:
 10812 005e 5F776373 		.ascii	"_wcsrtombs_state\000"
 10812      72746F6D 
 10812      62735F73 
 10812      74617465 
 10812      00
 10813              	.LASF171:
 10814 006f 7072696E 		.ascii	"printf\000"
 10814      746600
 10815              	.LASF10:
 10816 0076 6C6F6E67 		.ascii	"long long unsigned int\000"
 10816      206C6F6E 
 10816      6720756E 
 10816      7369676E 
 10816      65642069 
 10817              	.LASF59:
 10818 008d 5F6C6266 		.ascii	"_lbfsize\000"
 10818      73697A65 
 10818      00
 10819              	.LASF150:
 10820 0096 6D64355F 		.ascii	"md5_hmac\000"
 10820      686D6163 
 10820      00
 10821              	.LASF118:
 10822 009f 5F6D6272 		.ascii	"_mbrtowc_state\000"
 10822      746F7763 
 10822      5F737461 
 10822      746500
 10823              	.LASF113:
 10824 00ae 5F776374 		.ascii	"_wctomb_state\000"
 10824      6F6D625F 
 10824      73746174 
 10824      6500
 10825              	.LASF175:
 10826 00bc 433A5C55 		.ascii	"C:\\Users\\jo\\Documents\\GitHub\\ChibiOS\\demos\\S"
 10826      73657273 
 10826      5C6A6F5C 
 10826      446F6375 
 10826      6D656E74 
 10827 00e8 544D3332 		.ascii	"TM32\\RT-STM32F407-DISCOVERY-uHttp\000"
 10827      5C52542D 
 10827      53544D33 
 10827      32463430 
 10827      372D4449 
 10828              	.LASF9:
 10829 010a 6C6F6E67 		.ascii	"long long int\000"
 10829      206C6F6E 
 10829      6720696E 
 10829      7400
 10830              	.LASF1:
 10831 0118 7369676E 		.ascii	"signed char\000"
ARM GAS  C:\Users\jo\AppData\Local\Temp\ccBWvOPb.s 			page 195


 10831      65642063 
 10831      68617200 
 10832              	.LASF65:
 10833 0124 5F756275 		.ascii	"_ubuf\000"
 10833      6600
 10834              	.LASF54:
 10835 012a 5F626173 		.ascii	"_base\000"
 10835      6500
 10836              	.LASF38:
 10837 0130 5F5F746D 		.ascii	"__tm_hour\000"
 10837      5F686F75 
 10837      7200
 10838              	.LASF94:
 10839 013a 5F5F7366 		.ascii	"__sf\000"
 10839      00
 10840              	.LASF45:
 10841 013f 5F6F6E5F 		.ascii	"_on_exit_args\000"
 10841      65786974 
 10841      5F617267 
 10841      7300
 10842              	.LASF148:
 10843 014d 746D7062 		.ascii	"tmpbuf\000"
 10843      756600
 10844              	.LASF60:
 10845 0154 5F636F6F 		.ascii	"_cookie\000"
 10845      6B696500 
 10846              	.LASF93:
 10847 015c 5F5F7367 		.ascii	"__sglue\000"
 10847      6C756500 
 10848              	.LASF13:
 10849 0164 73746174 		.ascii	"state\000"
 10849      6500
 10850              	.LASF5:
 10851 016a 6C6F6E67 		.ascii	"long int\000"
 10851      20696E74 
 10851      00
 10852              	.LASF57:
 10853 0173 5F666C61 		.ascii	"_flags\000"
 10853      677300
 10854              	.LASF49:
 10855 017a 5F69735F 		.ascii	"_is_cxa\000"
 10855      63786100 
 10856              	.LASF75:
 10857 0182 5F737464 		.ascii	"_stdin\000"
 10857      696E00
 10858              	.LASF177:
 10859 0189 5F5F6275 		.ascii	"__builtin_puts\000"
 10859      696C7469 
 10859      6E5F7075 
 10859      747300
 10860              	.LASF67:
 10861 0198 5F626C6B 		.ascii	"_blksize\000"
 10861      73697A65 
 10861      00
 10862              	.LASF179:
 10863 01a1 70757463 		.ascii	"putchar\000"
 10863      68617200 
ARM GAS  C:\Users\jo\AppData\Local\Temp\ccBWvOPb.s 			page 196


 10864              	.LASF70:
 10865 01a9 5F6C6F63 		.ascii	"_lock\000"
 10865      6B00
 10866              	.LASF89:
 10867 01af 5F637674 		.ascii	"_cvtbuf\000"
 10867      62756600 
 10868              	.LASF68:
 10869 01b7 5F6F6666 		.ascii	"_offset\000"
 10869      73657400 
 10870              	.LASF119:
 10871 01bf 5F6D6273 		.ascii	"_mbsrtowcs_state\000"
 10871      72746F77 
 10871      63735F73 
 10871      74617465 
 10871      00
 10872              	.LASF117:
 10873 01d0 5F6D6272 		.ascii	"_mbrlen_state\000"
 10873      6C656E5F 
 10873      73746174 
 10873      6500
 10874              	.LASF46:
 10875 01de 5F666E61 		.ascii	"_fnargs\000"
 10875      72677300 
 10876              	.LASF154:
 10877 01e6 6275666C 		.ascii	"buflen\000"
 10877      656E00
 10878              	.LASF158:
 10879 01ed 6D64355F 		.ascii	"md5_test_buflen\000"
 10879      74657374 
 10879      5F627566 
 10879      6C656E00 
 10880              	.LASF52:
 10881 01fd 5F666E73 		.ascii	"_fns\000"
 10881      00
 10882              	.LASF7:
 10883 0202 5F5F7569 		.ascii	"__uint32_t\000"
 10883      6E743332 
 10883      5F7400
 10884              	.LASF32:
 10885 020d 5F736967 		.ascii	"_sign\000"
 10885      6E00
 10886              	.LASF28:
 10887 0213 5F666C6F 		.ascii	"_flock_t\000"
 10887      636B5F74 
 10887      00
 10888              	.LASF77:
 10889 021c 5F737464 		.ascii	"_stderr\000"
 10889      65727200 
 10890              	.LASF34:
 10891 0224 5F426967 		.ascii	"_Bigint\000"
 10891      696E7400 
 10892              	.LASF108:
 10893 022c 5F67616D 		.ascii	"_gamma_signgam\000"
 10893      6D615F73 
 10893      69676E67 
 10893      616D00
 10894              	.LASF176:
ARM GAS  C:\Users\jo\AppData\Local\Temp\ccBWvOPb.s 			page 197


 10895 023b 706F6C61 		.ascii	"polarssl_zeroize\000"
 10895      7273736C 
 10895      5F7A6572 
 10895      6F697A65 
 10895      00
 10896              	.LASF135:
 10897 024c 6D64355F 		.ascii	"md5_hmac_update\000"
 10897      686D6163 
 10897      5F757064 
 10897      61746500 
 10898              	.LASF61:
 10899 025c 5F726561 		.ascii	"_read\000"
 10899      6400
 10900              	.LASF85:
 10901 0262 5F726573 		.ascii	"_result_k\000"
 10901      756C745F 
 10901      6B00
 10902              	.LASF35:
 10903 026c 5F5F746D 		.ascii	"__tm\000"
 10903      00
 10904              	.LASF0:
 10905 0271 756E7369 		.ascii	"unsigned int\000"
 10905      676E6564 
 10905      20696E74 
 10905      00
 10906              	.LASF24:
 10907 027e 5F5F7763 		.ascii	"__wchb\000"
 10907      686200
 10908              	.LASF76:
 10909 0285 5F737464 		.ascii	"_stdout\000"
 10909      6F757400 
 10910              	.LASF88:
 10911 028d 5F637674 		.ascii	"_cvtlen\000"
 10911      6C656E00 
 10912              	.LASF8:
 10913 0295 6C6F6E67 		.ascii	"long unsigned int\000"
 10913      20756E73 
 10913      69676E65 
 10913      6420696E 
 10913      7400
 10914              	.LASF58:
 10915 02a7 5F66696C 		.ascii	"_file\000"
 10915      6500
 10916              	.LASF161:
 10917 02ad 6D64355F 		.ascii	"md5_hmac_test_keylen\000"
 10917      686D6163 
 10917      5F746573 
 10917      745F6B65 
 10917      796C656E 
 10918              	.LASF131:
 10919 02c2 6D64355F 		.ascii	"md5_update\000"
 10919      75706461 
 10919      746500
 10920              	.LASF172:
 10921 02cd 5F5F6275 		.ascii	"__builtin_putchar\000"
 10921      696C7469 
 10921      6E5F7075 
ARM GAS  C:\Users\jo\AppData\Local\Temp\ccBWvOPb.s 			page 198


 10921      74636861 
 10921      7200
 10922              	.LASF98:
 10923 02df 5F6E696F 		.ascii	"_niobs\000"
 10923      627300
 10924              	.LASF136:
 10925 02e6 64617461 		.ascii	"data\000"
 10925      00
 10926              	.LASF4:
 10927 02eb 73686F72 		.ascii	"short unsigned int\000"
 10927      7420756E 
 10927      7369676E 
 10927      65642069 
 10927      6E7400
 10928              	.LASF169:
 10929 02fe 66636C6F 		.ascii	"fclose\000"
 10929      736500
 10930              	.LASF91:
 10931 0305 5F617465 		.ascii	"_atexit0\000"
 10931      78697430 
 10931      00
 10932              	.LASF115:
 10933 030e 5F736967 		.ascii	"_signal_buf\000"
 10933      6E616C5F 
 10933      62756600 
 10934              	.LASF106:
 10935 031a 5F617363 		.ascii	"_asctime_buf\000"
 10935      74696D65 
 10935      5F627566 
 10935      00
 10936              	.LASF140:
 10937 0327 6C617374 		.ascii	"last\000"
 10937      00
 10938              	.LASF84:
 10939 032c 5F726573 		.ascii	"_result\000"
 10939      756C7400 
 10940              	.LASF23:
 10941 0334 5F5F7763 		.ascii	"__wch\000"
 10941      6800
 10942              	.LASF166:
 10943 033a 6D656D63 		.ascii	"memcpy\000"
 10943      707900
 10944              	.LASF22:
 10945 0341 77696E74 		.ascii	"wint_t\000"
 10945      5F7400
 10946              	.LASF174:
 10947 0348 2E2E2F2E 		.ascii	"../../../ext/mbedtls-1.3.11/library/md5.c\000"
 10947      2E2F2E2E 
 10947      2F657874 
 10947      2F6D6265 
 10947      64746C73 
 10948              	.LASF72:
 10949 0372 5F666C61 		.ascii	"_flags2\000"
 10949      67733200 
 10950              	.LASF12:
 10951 037a 746F7461 		.ascii	"total\000"
 10951      6C00
ARM GAS  C:\Users\jo\AppData\Local\Temp\ccBWvOPb.s 			page 199


 10952              	.LASF173:
 10953 0380 474E5520 		.ascii	"GNU C 4.9.3 20141119 (release) [ARM/embedded-4_9-br"
 10953      4320342E 
 10953      392E3320 
 10953      32303134 
 10953      31313139 
 10954 03b3 616E6368 		.ascii	"anch revision 218278] -mcpu=cortex-m4 -mno-thumb-in"
 10954      20726576 
 10954      6973696F 
 10954      6E203231 
 10954      38323738 
 10955 03e6 74657277 		.ascii	"terwork -mthumb -ggdb -O2 -fomit-frame-pointer -fal"
 10955      6F726B20 
 10955      2D6D7468 
 10955      756D6220 
 10955      2D676764 
 10956 0419 69676E2D 		.ascii	"ign-functions=16 -ffunction-sections -fdata-section"
 10956      66756E63 
 10956      74696F6E 
 10956      733D3136 
 10956      202D6666 
 10957 044c 73202D66 		.ascii	"s -fno-common\000"
 10957      6E6F2D63 
 10957      6F6D6D6F 
 10957      6E00
 10958              	.LASF152:
 10959 045a 6D64355F 		.ascii	"md5_self_test\000"
 10959      73656C66 
 10959      5F746573 
 10959      7400
 10960              	.LASF162:
 10961 0468 6D64355F 		.ascii	"md5_hmac_test_buf\000"
 10961      686D6163 
 10961      5F746573 
 10961      745F6275 
 10961      6600
 10962              	.LASF62:
 10963 047a 5F777269 		.ascii	"_write\000"
 10963      746500
 10964              	.LASF41:
 10965 0481 5F5F746D 		.ascii	"__tm_year\000"
 10965      5F796561 
 10965      7200
 10966              	.LASF139:
 10967 048b 6F757470 		.ascii	"output\000"
 10967      757400
 10968              	.LASF155:
 10969 0492 6D643573 		.ascii	"md5sum\000"
 10969      756D00
 10970              	.LASF17:
 10971 0499 73697A65 		.ascii	"sizetype\000"
 10971      74797065 
 10971      00
 10972              	.LASF151:
 10973 04a2 6D64355F 		.ascii	"md5_file\000"
 10973      66696C65 
 10973      00
ARM GAS  C:\Users\jo\AppData\Local\Temp\ccBWvOPb.s 			page 200


 10974              	.LASF142:
 10975 04ab 68696768 		.ascii	"high\000"
 10975      00
 10976              	.LASF123:
 10977 04b0 5F6E6578 		.ascii	"_nextf\000"
 10977      746600
 10978              	.LASF40:
 10979 04b7 5F5F746D 		.ascii	"__tm_mon\000"
 10979      5F6D6F6E 
 10979      00
 10980              	.LASF145:
 10981 04c0 6D64355F 		.ascii	"md5_hmac_starts\000"
 10981      686D6163 
 10981      5F737461 
 10981      72747300 
 10982              	.LASF50:
 10983 04d0 5F617465 		.ascii	"_atexit\000"
 10983      78697400 
 10984              	.LASF82:
 10985 04d8 5F5F7364 		.ascii	"__sdidinit\000"
 10985      6964696E 
 10985      697400
 10986              	.LASF20:
 10987 04e3 5F6F6666 		.ascii	"_off_t\000"
 10987      5F7400
 10988              	.LASF160:
 10989 04ea 6D64355F 		.ascii	"md5_hmac_test_key\000"
 10989      686D6163 
 10989      5F746573 
 10989      745F6B65 
 10989      7900
 10990              	.LASF159:
 10991 04fc 6D64355F 		.ascii	"md5_test_sum\000"
 10991      74657374 
 10991      5F73756D 
 10991      00
 10992              	.LASF143:
 10993 0509 6D73676C 		.ascii	"msglen\000"
 10993      656E00
 10994              	.LASF149:
 10995 0510 6D64355F 		.ascii	"md5_hmac_reset\000"
 10995      686D6163 
 10995      5F726573 
 10995      657400
 10996              	.LASF167:
 10997 051f 666F7065 		.ascii	"fopen\000"
 10997      6E00
 10998              	.LASF87:
 10999 0525 5F667265 		.ascii	"_freelist\000"
 10999      656C6973 
 10999      7400
 11000              	.LASF19:
 11001 052f 5F4C4F43 		.ascii	"_LOCK_RECURSIVE_T\000"
 11001      4B5F5245 
 11001      43555253 
 11001      4956455F 
 11001      5400
ARM GAS  C:\Users\jo\AppData\Local\Temp\ccBWvOPb.s 			page 201


 11002              	.LASF133:
 11003 0541 6D64355F 		.ascii	"md5_starts\000"
 11003      73746172 
 11003      747300
 11004              	.LASF15:
 11005 054c 69706164 		.ascii	"ipad\000"
 11005      00
 11006              	.LASF157:
 11007 0551 6D64355F 		.ascii	"md5_test_buf\000"
 11007      74657374 
 11007      5F627566 
 11007      00
 11008              	.LASF129:
 11009 055e 66696C6C 		.ascii	"fill\000"
 11009      00
 11010              	.LASF2:
 11011 0563 756E7369 		.ascii	"unsigned char\000"
 11011      676E6564 
 11011      20636861 
 11011      7200
 11012              	.LASF90:
 11013 0571 5F6E6577 		.ascii	"_new\000"
 11013      00
 11014              	.LASF122:
 11015 0576 5F685F65 		.ascii	"_h_errno\000"
 11015      72726E6F 
 11015      00
 11016              	.LASF3:
 11017 057f 73686F72 		.ascii	"short int\000"
 11017      7420696E 
 11017      7400
 11018              	.LASF43:
 11019 0589 5F5F746D 		.ascii	"__tm_yday\000"
 11019      5F796461 
 11019      7900
 11020              	.LASF53:
 11021 0593 5F5F7362 		.ascii	"__sbuf\000"
 11021      756600
 11022              	.LASF99:
 11023 059a 5F696F62 		.ascii	"_iobs\000"
 11023      7300
 11024              	.LASF96:
 11025 05a0 5F5F4649 		.ascii	"__FILE\000"
 11025      4C4500
 11026              	.LASF27:
 11027 05a7 5F6D6273 		.ascii	"_mbstate_t\000"
 11027      74617465 
 11027      5F7400
 11028              	.LASF56:
 11029 05b2 5F5F7346 		.ascii	"__sFILE\000"
 11029      494C4500 
 11030              	.LASF71:
 11031 05ba 5F6D6273 		.ascii	"_mbstate\000"
 11031      74617465 
 11031      00
 11032              	.LASF109:
 11033 05c3 5F72616E 		.ascii	"_rand_next\000"
ARM GAS  C:\Users\jo\AppData\Local\Temp\ccBWvOPb.s 			page 202


 11033      645F6E65 
 11033      787400
 11034              	.LASF111:
 11035 05ce 5F6D626C 		.ascii	"_mblen_state\000"
 11035      656E5F73 
 11035      74617465 
 11035      00
 11036              	.LASF78:
 11037 05db 5F696E63 		.ascii	"_inc\000"
 11037      00
 11038              	.LASF51:
 11039 05e0 5F696E64 		.ascii	"_ind\000"
 11039      00
 11040              	.LASF81:
 11041 05e5 5F637572 		.ascii	"_current_locale\000"
 11041      72656E74 
 11041      5F6C6F63 
 11041      616C6500 
 11042              	.LASF168:
 11043 05f5 66726561 		.ascii	"fread\000"
 11043      6400
 11044              	.LASF127:
 11045 05fb 696E7075 		.ascii	"input\000"
 11045      7400
 11046              	.LASF83:
 11047 0601 5F5F636C 		.ascii	"__cleanup\000"
 11047      65616E75 
 11047      7000
 11048              	.LASF126:
 11049 060b 46494C45 		.ascii	"FILE\000"
 11049      00
 11050              	.LASF146:
 11051 0610 6B65796C 		.ascii	"keylen\000"
 11051      656E00
 11052              	.LASF31:
 11053 0617 5F6D6178 		.ascii	"_maxwds\000"
 11053      77647300 
 11054              	.LASF73:
 11055 061f 5F726565 		.ascii	"_reent\000"
 11055      6E7400
 11056              	.LASF101:
 11057 0626 5F736565 		.ascii	"_seed\000"
 11057      6400
 11058              	.LASF25:
 11059 062c 5F5F636F 		.ascii	"__count\000"
 11059      756E7400 
 11060              	.LASF11:
 11061 0634 75696E74 		.ascii	"uint32_t\000"
 11061      33325F74 
 11061      00
 11062              	.LASF63:
 11063 063d 5F736565 		.ascii	"_seek\000"
 11063      6B00
 11064              	.LASF21:
 11065 0643 5F66706F 		.ascii	"_fpos_t\000"
 11065      735F7400 
 11066              	.LASF74:
ARM GAS  C:\Users\jo\AppData\Local\Temp\ccBWvOPb.s 			page 203


 11067 064b 5F657272 		.ascii	"_errno\000"
 11067      6E6F00
 11068              	.LASF95:
 11069 0652 63686172 		.ascii	"char\000"
 11069      00
 11070              	.LASF37:
 11071 0657 5F5F746D 		.ascii	"__tm_min\000"
 11071      5F6D696E 
 11071      00
 11072              	.LASF153:
 11073 0660 76657262 		.ascii	"verbose\000"
 11073      6F736500 
 11074              	.LASF14:
 11075 0668 62756666 		.ascii	"buffer\000"
 11075      657200
 11076              	.LASF102:
 11077 066f 5F6D756C 		.ascii	"_mult\000"
 11077      7400
 11078              	.LASF163:
 11079 0675 6D64355F 		.ascii	"md5_hmac_test_buflen\000"
 11079      686D6163 
 11079      5F746573 
 11079      745F6275 
 11079      666C656E 
 11080              	.LASF30:
 11081 068a 5F6E6578 		.ascii	"_next\000"
 11081      7400
 11082              	.LASF105:
 11083 0690 5F737472 		.ascii	"_strtok_last\000"
 11083      746F6B5F 
 11083      6C617374 
 11083      00
 11084              	.LASF26:
 11085 069d 5F5F7661 		.ascii	"__value\000"
 11085      6C756500 
 11086              	.LASF48:
 11087 06a5 5F666E74 		.ascii	"_fntypes\000"
 11087      79706573 
 11087      00
 11088              	.LASF164:
 11089 06ae 6D64355F 		.ascii	"md5_hmac_test_sum\000"
 11089      686D6163 
 11089      5F746573 
 11089      745F7375 
 11089      6D00
 11090              	.LASF103:
 11091 06c0 5F616464 		.ascii	"_add\000"
 11091      00
 11092              	.LASF29:
 11093 06c5 5F5F554C 		.ascii	"__ULong\000"
 11093      6F6E6700 
 11094              	.LASF116:
 11095 06cd 5F676574 		.ascii	"_getdate_err\000"
 11095      64617465 
 11095      5F657272 
 11095      00
 11096              	.LASF80:
ARM GAS  C:\Users\jo\AppData\Local\Temp\ccBWvOPb.s 			page 204


 11097 06da 5F637572 		.ascii	"_current_category\000"
 11097      72656E74 
 11097      5F636174 
 11097      65676F72 
 11097      7900
 11098              	.LASF18:
 11099 06ec 6D64355F 		.ascii	"md5_context\000"
 11099      636F6E74 
 11099      65787400 
 11100              	.LASF165:
 11101 06f8 6D656D73 		.ascii	"memset\000"
 11101      657400
 11102              	.LASF104:
 11103 06ff 5F756E75 		.ascii	"_unused_rand\000"
 11103      7365645F 
 11103      72616E64 
 11103      00
 11104              	.LASF36:
 11105 070c 5F5F746D 		.ascii	"__tm_sec\000"
 11105      5F736563 
 11105      00
 11106              	.LASF33:
 11107 0715 5F776473 		.ascii	"_wds\000"
 11107      00
 11108              	.LASF42:
 11109 071a 5F5F746D 		.ascii	"__tm_wday\000"
 11109      5F776461 
 11109      7900
 11110              	.LASF97:
 11111 0724 5F676C75 		.ascii	"_glue\000"
 11111      6500
 11112              	.LASF147:
 11113 072a 6D64355F 		.ascii	"md5_hmac_finish\000"
 11113      686D6163 
 11113      5F66696E 
 11113      69736800 
 11114              	.LASF128:
 11115 073a 696C656E 		.ascii	"ilen\000"
 11115      00
 11116              	.LASF124:
 11117 073f 5F6E6D61 		.ascii	"_nmalloc\000"
 11117      6C6C6F63 
 11117      00
 11118              	.LASF114:
 11119 0748 5F6C3634 		.ascii	"_l64a_buf\000"
 11119      615F6275 
 11119      6600
 11120              	.LASF92:
 11121 0752 5F736967 		.ascii	"_sig_func\000"
 11121      5F66756E 
 11121      6300
 11122              	.LASF132:
 11123 075c 6D64355F 		.ascii	"md5_init\000"
 11123      696E6974 
 11123      00
 11124              	.LASF134:
 11125 0765 6D64355F 		.ascii	"md5_free\000"
ARM GAS  C:\Users\jo\AppData\Local\Temp\ccBWvOPb.s 			page 205


 11125      66726565 
 11125      00
 11126              	.LASF66:
 11127 076e 5F6E6275 		.ascii	"_nbuf\000"
 11127      6600
 11128              	.LASF125:
 11129 0774 5F756E75 		.ascii	"_unused\000"
 11129      73656400 
 11130              	.LASF44:
 11131 077c 5F5F746D 		.ascii	"__tm_isdst\000"
 11131      5F697364 
 11131      737400
 11132              	.LASF107:
 11133 0787 5F6C6F63 		.ascii	"_localtime_buf\000"
 11133      616C7469 
 11133      6D655F62 
 11133      756600
 11134              	.LASF64:
 11135 0796 5F636C6F 		.ascii	"_close\000"
 11135      736500
 11136              	.LASF110:
 11137 079d 5F723438 		.ascii	"_r48\000"
 11137      00
 11138              	.LASF138:
 11139 07a2 6D64355F 		.ascii	"md5_finish\000"
 11139      66696E69 
 11139      736800
 11140              	.LASF112:
 11141 07ad 5F6D6274 		.ascii	"_mbtowc_state\000"
 11141      6F77635F 
 11141      73746174 
 11141      6500
 11142              	.LASF86:
 11143 07bb 5F703573 		.ascii	"_p5s\000"
 11143      00
 11144              	.LASF16:
 11145 07c0 6F706164 		.ascii	"opad\000"
 11145      00
 11146              	.LASF178:
 11147 07c5 70757473 		.ascii	"puts\000"
 11147      00
 11148              	.LASF130:
 11149 07ca 6C656674 		.ascii	"left\000"
 11149      00
 11150              	.LASF141:
 11151 07cf 7061646E 		.ascii	"padn\000"
 11151      00
 11152              	.LASF39:
 11153 07d4 5F5F746D 		.ascii	"__tm_mday\000"
 11153      5F6D6461 
 11153      7900
 11154              	.LASF170:
 11155 07de 6D656D63 		.ascii	"memcmp\000"
 11155      6D7000
 11156              		.ident	"GCC: (GNU Tools for ARM Embedded Processors) 4.9.3 20141119 (release) [ARM/embedded-4_9-br
ARM GAS  C:\Users\jo\AppData\Local\Temp\ccBWvOPb.s 			page 206


DEFINED SYMBOLS
                            *ABS*:00000000 md5.c
C:\Users\jo\AppData\Local\Temp\ccBWvOPb.s:19     .text.md5_init:00000000 $t
C:\Users\jo\AppData\Local\Temp\ccBWvOPb.s:25     .text.md5_init:00000000 md5_init
C:\Users\jo\AppData\Local\Temp\ccBWvOPb.s:43     .text.md5_free:00000000 $t
C:\Users\jo\AppData\Local\Temp\ccBWvOPb.s:49     .text.md5_free:00000000 md5_free
C:\Users\jo\AppData\Local\Temp\ccBWvOPb.s:81     .text.md5_starts:00000000 $t
C:\Users\jo\AppData\Local\Temp\ccBWvOPb.s:87     .text.md5_starts:00000000 md5_starts
C:\Users\jo\AppData\Local\Temp\ccBWvOPb.s:128    .text.md5_starts:00000020 $d
C:\Users\jo\AppData\Local\Temp\ccBWvOPb.s:136    .text.md5_process:00000000 $t
C:\Users\jo\AppData\Local\Temp\ccBWvOPb.s:142    .text.md5_process:00000000 md5_process
C:\Users\jo\AppData\Local\Temp\ccBWvOPb.s:893    .text.md5_process:0000051c $d
C:\Users\jo\AppData\Local\Temp\ccBWvOPb.s:922    .text.md5_process:0000058c $t
C:\Users\jo\AppData\Local\Temp\ccBWvOPb.s:1404   .text.md5_process:000008f0 $d
C:\Users\jo\AppData\Local\Temp\ccBWvOPb.s:1441   .text.md5_update.part.0:00000000 $t
C:\Users\jo\AppData\Local\Temp\ccBWvOPb.s:1446   .text.md5_update.part.0:00000000 md5_update.part.0
C:\Users\jo\AppData\Local\Temp\ccBWvOPb.s:1585   .text.md5_update:00000000 $t
C:\Users\jo\AppData\Local\Temp\ccBWvOPb.s:1591   .text.md5_update:00000000 md5_update
C:\Users\jo\AppData\Local\Temp\ccBWvOPb.s:1609   .text.md5_finish:00000000 $t
C:\Users\jo\AppData\Local\Temp\ccBWvOPb.s:1615   .text.md5_finish:00000000 md5_finish
C:\Users\jo\AppData\Local\Temp\ccBWvOPb.s:1757   .text.md5_finish:000000bc $d
C:\Users\jo\AppData\Local\Temp\ccBWvOPb.s:1762   .text.md5:00000000 $t
C:\Users\jo\AppData\Local\Temp\ccBWvOPb.s:1768   .text.md5:00000000 md5
C:\Users\jo\AppData\Local\Temp\ccBWvOPb.s:1873   .text.md5:0000004c $d
C:\Users\jo\AppData\Local\Temp\ccBWvOPb.s:1883   .text.md5_file:00000000 $t
C:\Users\jo\AppData\Local\Temp\ccBWvOPb.s:1889   .text.md5_file:00000000 md5_file
C:\Users\jo\AppData\Local\Temp\ccBWvOPb.s:2045   .text.md5_file:0000008c $d
C:\Users\jo\AppData\Local\Temp\ccBWvOPb.s:2054   .text.md5_hmac_starts:00000000 $t
C:\Users\jo\AppData\Local\Temp\ccBWvOPb.s:2060   .text.md5_hmac_starts:00000000 md5_hmac_starts
C:\Users\jo\AppData\Local\Temp\ccBWvOPb.s:2246   .text.md5_hmac_starts:000000c4 $d
C:\Users\jo\AppData\Local\Temp\ccBWvOPb.s:2254   .text.md5_hmac_update:00000000 $t
C:\Users\jo\AppData\Local\Temp\ccBWvOPb.s:2260   .text.md5_hmac_update:00000000 md5_hmac_update
C:\Users\jo\AppData\Local\Temp\ccBWvOPb.s:2282   .text.md5_hmac_finish:00000000 $t
C:\Users\jo\AppData\Local\Temp\ccBWvOPb.s:2288   .text.md5_hmac_finish:00000000 md5_hmac_finish
C:\Users\jo\AppData\Local\Temp\ccBWvOPb.s:2396   .text.md5_hmac_finish:00000054 $d
C:\Users\jo\AppData\Local\Temp\ccBWvOPb.s:2404   .text.md5_hmac_reset:00000000 $t
C:\Users\jo\AppData\Local\Temp\ccBWvOPb.s:2410   .text.md5_hmac_reset:00000000 md5_hmac_reset
C:\Users\jo\AppData\Local\Temp\ccBWvOPb.s:2475   .text.md5_hmac_reset:00000024 $d
C:\Users\jo\AppData\Local\Temp\ccBWvOPb.s:2485   .text.md5_hmac:00000000 $t
C:\Users\jo\AppData\Local\Temp\ccBWvOPb.s:2491   .text.md5_hmac:00000000 md5_hmac
C:\Users\jo\AppData\Local\Temp\ccBWvOPb.s:2596   .text.md5_self_test:00000000 $t
C:\Users\jo\AppData\Local\Temp\ccBWvOPb.s:2602   .text.md5_self_test:00000000 md5_self_test
C:\Users\jo\AppData\Local\Temp\ccBWvOPb.s:2852   .text.md5_self_test:00000134 $d
C:\Users\jo\AppData\Local\Temp\ccBWvOPb.s:2868   .rodata.md5_test_buf:00000000 $d
C:\Users\jo\AppData\Local\Temp\ccBWvOPb.s:2872   .rodata.md5_test_buf:00000000 md5_test_buf
C:\Users\jo\AppData\Local\Temp\ccBWvOPb.s:2889   .rodata.md5_hmac_test_sum:00000000 $d
C:\Users\jo\AppData\Local\Temp\ccBWvOPb.s:2893   .rodata.md5_hmac_test_sum:00000000 md5_hmac_test_sum
C:\Users\jo\AppData\Local\Temp\ccBWvOPb.s:3004   .rodata.md5_hmac_test_buflen:00000000 $d
C:\Users\jo\AppData\Local\Temp\ccBWvOPb.s:3008   .rodata.md5_hmac_test_buflen:00000000 md5_hmac_test_buflen
C:\Users\jo\AppData\Local\Temp\ccBWvOPb.s:3017   .rodata.md5_hmac_test_buf:00000000 $d
C:\Users\jo\AppData\Local\Temp\ccBWvOPb.s:3021   .rodata.md5_hmac_test_buf:00000000 md5_hmac_test_buf
C:\Users\jo\AppData\Local\Temp\ccBWvOPb.s:3044   .rodata.md5_hmac_test_keylen:00000000 $d
C:\Users\jo\AppData\Local\Temp\ccBWvOPb.s:3048   .rodata.md5_hmac_test_keylen:00000000 md5_hmac_test_keylen
C:\Users\jo\AppData\Local\Temp\ccBWvOPb.s:3057   .rodata.md5_hmac_test_key:00000000 $d
C:\Users\jo\AppData\Local\Temp\ccBWvOPb.s:3061   .rodata.md5_hmac_test_key:00000000 md5_hmac_test_key
C:\Users\jo\AppData\Local\Temp\ccBWvOPb.s:3080   .rodata.str1.4:00000000 $d
C:\Users\jo\AppData\Local\Temp\ccBWvOPb.s:3096   .rodata.md5_padding:00000000 $d
ARM GAS  C:\Users\jo\AppData\Local\Temp\ccBWvOPb.s 			page 207


C:\Users\jo\AppData\Local\Temp\ccBWvOPb.s:3100   .rodata.md5_padding:00000000 md5_padding
C:\Users\jo\AppData\Local\Temp\ccBWvOPb.s:3166   .rodata.md5_test_buflen:00000000 $d
C:\Users\jo\AppData\Local\Temp\ccBWvOPb.s:3170   .rodata.md5_test_buflen:00000000 md5_test_buflen
C:\Users\jo\AppData\Local\Temp\ccBWvOPb.s:3179   .rodata.md5_test_sum:00000000 $d
C:\Users\jo\AppData\Local\Temp\ccBWvOPb.s:3183   .rodata.md5_test_sum:00000000 md5_test_sum
                     .debug_frame:00000010 $d
C:\Users\jo\AppData\Local\Temp\ccBWvOPb.s:1440   .text.md5_process:00000974 $t
C:\Users\jo\AppData\Local\Temp\ccBWvOPb.s:1882   .text.md5:0000005c $t
C:\Users\jo\AppData\Local\Temp\ccBWvOPb.s:2253   .text.md5_hmac_starts:000000d4 $t
C:\Users\jo\AppData\Local\Temp\ccBWvOPb.s:2403   .text.md5_hmac_finish:00000064 $t
C:\Users\jo\AppData\Local\Temp\ccBWvOPb.s:2484   .text.md5_hmac_reset:00000034 $t
C:\Users\jo\AppData\Local\Temp\ccBWvOPb.s:2867   .text.md5_self_test:00000164 $t

UNDEFINED SYMBOLS
memset
memcpy
fopen
fread
fclose
memcmp
printf
puts
putchar
