ARM GAS  C:\Users\jo\AppData\Local\Temp\ccPkvB6H.s 			page 1


   1              		.syntax unified
   2              		.cpu cortex-m4
   3              		.fpu softvfp
   4              		.eabi_attribute 20, 1
   5              		.eabi_attribute 21, 1
   6              		.eabi_attribute 23, 3
   7              		.eabi_attribute 24, 1
   8              		.eabi_attribute 25, 1
   9              		.eabi_attribute 26, 1
  10              		.eabi_attribute 30, 2
  11              		.eabi_attribute 34, 1
  12              		.eabi_attribute 18, 4
  13              		.thumb
  14              		.file	"mediatypes.c"
  15              		.text
  16              	.Ltext0:
  17              		.cfi_sections	.debug_frame
  18              		.section	.text.MediaTypesFindByExt,"ax",%progbits
  19              		.align	2
  20              		.p2align 4,,15
  21              		.global	MediaTypesFindByExt
  22              		.thumb
  23              		.thumb_func
  24              		.type	MediaTypesFindByExt, %function
  25              	MediaTypesFindByExt:
  26              	.LFB260:
  27              		.file 1 "../../../demos/STM32/RT-STM32F407-DISCOVERY-uHttp/uhttp-1.1/mediatypes.c"
  28              		.loc 1 63 0
  29              		.cfi_startproc
  30              		@ args = 0, pretend = 0, frame = 0
  31              		@ frame_needed = 0, uses_anonymous_args = 0
  32              	.LVL0:
  33 0000 38B5     		push	{r3, r4, r5, lr}
  34              		.cfi_def_cfa_offset 16
  35              		.cfi_offset 3, -16
  36              		.cfi_offset 4, -12
  37              		.cfi_offset 5, -8
  38              		.cfi_offset 14, -4
  39              		.loc 1 67 0
  40 0002 094B     		ldr	r3, .L11
  41 0004 1C68     		ldr	r4, [r3]
  42              	.LVL1:
  43              		.loc 1 63 0
  44 0006 0546     		mov	r5, r0
  45              		.loc 1 67 0
  46 0008 14B9     		cbnz	r4, .L4
  47 000a 0AE0     		b	.L2
  48              	.LVL2:
  49              	.L3:
  50              		.loc 1 67 0 is_stmt 0 discriminator 2
  51 000c 6468     		ldr	r4, [r4, #4]
  52              	.LVL3:
  53 000e 44B1     		cbz	r4, .L2
  54              	.LVL4:
  55              	.L4:
  56              		.loc 1 68 0 is_stmt 1
  57 0010 04F11800 		add	r0, r4, #24
ARM GAS  C:\Users\jo\AppData\Local\Temp\ccPkvB6H.s 			page 2


  58 0014 2946     		mov	r1, r5
  59 0016 FFF7FEFF 		bl	strcasecmp
  60              	.LVL5:
  61              		.loc 1 69 0
  62 001a 0028     		cmp	r0, #0
  63 001c F6DC     		bgt	.L3
  64              		.loc 1 71 0
  65 001e 18BF     		it	ne
  66 0020 0024     		movne	r4, #0
  67              	.LVL6:
  68              	.L2:
  69              		.loc 1 77 0
  70 0022 2046     		mov	r0, r4
  71 0024 38BD     		pop	{r3, r4, r5, pc}
  72              	.LVL7:
  73              	.L12:
  74 0026 00BF     		.align	2
  75              	.L11:
  76 0028 00000000 		.word	.LANCHOR0
  77              		.cfi_endproc
  78              	.LFE260:
  79              		.size	MediaTypesFindByExt, .-MediaTypesFindByExt
  80 002c AFF30080 		.section	.text.GetMediaTypeEntry,"ax",%progbits
  81              		.align	2
  82              		.p2align 4,,15
  83              		.global	GetMediaTypeEntry
  84              		.thumb
  85              		.thumb_func
  86              		.type	GetMediaTypeEntry, %function
  87              	GetMediaTypeEntry:
  88              	.LFB261:
  89              		.loc 1 80 0
  90              		.cfi_startproc
  91              		@ args = 0, pretend = 0, frame = 0
  92              		@ frame_needed = 0, uses_anonymous_args = 0
  93              	.LVL8:
  94              		.loc 1 83 0
  95 0000 A8B1     		cbz	r0, .L25
  96              		.loc 1 80 0 discriminator 1
  97 0002 08B5     		push	{r3, lr}
  98              		.cfi_def_cfa_offset 8
  99              		.cfi_offset 3, -8
 100              		.cfi_offset 14, -4
 101              		.loc 1 83 0 discriminator 1
 102 0004 0378     		ldrb	r3, [r0]	@ zero_extendqisi2
 103 0006 43B1     		cbz	r3, .L26
 104              	.LBB2:
 105              		.loc 1 86 0
 106 0008 2E21     		movs	r1, #46
 107 000a FFF7FEFF 		bl	strrchr
 108              	.LVL9:
 109              		.loc 1 87 0
 110 000e 48B1     		cbz	r0, .L16
 111              		.loc 1 87 0 is_stmt 0 discriminator 1
 112 0010 0130     		adds	r0, r0, #1
 113              	.LVL10:
 114 0012 FFF7FEFF 		bl	MediaTypesFindByExt
ARM GAS  C:\Users\jo\AppData\Local\Temp\ccPkvB6H.s 			page 3


 115              	.LVL11:
 116 0016 28B1     		cbz	r0, .L16
 117              	.LBE2:
 118              		.loc 1 92 0 is_stmt 1
 119 0018 08BD     		pop	{r3, pc}
 120              	.LVL12:
 121              	.L26:
 122              		.loc 1 84 0
 123 001a 0648     		ldr	r0, .L27
 124              	.LVL13:
 125              		.loc 1 92 0
 126 001c BDE80840 		pop	{r3, lr}
 127              		.cfi_remember_state
 128              		.cfi_restore 14
 129              		.cfi_restore 3
 130              		.cfi_def_cfa_offset 0
 131              		.loc 1 84 0
 132 0020 FFF7FEBF 		b	MediaTypesFindByExt
 133              	.LVL14:
 134              	.L16:
 135              		.cfi_restore_state
 136              	.LBB3:
 137              		.loc 1 88 0
 138 0024 0448     		ldr	r0, .L27+4
 139              	.LBE3:
 140              		.loc 1 92 0
 141 0026 BDE80840 		pop	{r3, lr}
 142              		.cfi_restore 14
 143              		.cfi_restore 3
 144              		.cfi_def_cfa_offset 0
 145              	.LBB4:
 146              		.loc 1 88 0
 147 002a FFF7FEBF 		b	MediaTypesFindByExt
 148              	.LVL15:
 149              	.L25:
 150              	.LBE4:
 151              		.loc 1 84 0
 152 002e 0148     		ldr	r0, .L27
 153              	.LVL16:
 154 0030 FFF7FEBF 		b	MediaTypesFindByExt
 155              	.LVL17:
 156              	.L28:
 157              		.align	2
 158              	.L27:
 159 0034 00000000 		.word	.LC0
 160 0038 08000000 		.word	.LC1
 161              		.cfi_endproc
 162              	.LFE261:
 163              		.size	GetMediaTypeEntry, .-GetMediaTypeEntry
 164 003c AFF30080 		.section	.text.MediaTypeHandlerBinary,"ax",%progbits
 165              		.align	2
 166              		.p2align 4,,15
 167              		.global	MediaTypeHandlerBinary
 168              		.thumb
 169              		.thumb_func
 170              		.type	MediaTypeHandlerBinary, %function
 171              	MediaTypeHandlerBinary:
ARM GAS  C:\Users\jo\AppData\Local\Temp\ccPkvB6H.s 			page 4


 172              	.LFB262:
 173              		.loc 1 95 0
 174              		.cfi_startproc
 175              		@ args = 0, pretend = 0, frame = 64
 176              		@ frame_needed = 0, uses_anonymous_args = 0
 177              	.LVL18:
 178 0000 2DE9F041 		push	{r4, r5, r6, r7, r8, lr}
 179              		.cfi_def_cfa_offset 24
 180              		.cfi_offset 4, -24
 181              		.cfi_offset 5, -20
 182              		.cfi_offset 6, -16
 183              		.cfi_offset 7, -12
 184              		.cfi_offset 8, -8
 185              		.cfi_offset 14, -4
 186 0004 0746     		mov	r7, r0
 187 0006 90B0     		sub	sp, sp, #64
 188              		.cfi_def_cfa_offset 88
 189              		.loc 1 98 0
 190 0008 40F2B450 		movw	r0, #1460
 191              	.LVL19:
 192              		.loc 1 95 0
 193 000c 1646     		mov	r6, r2
 194 000e 0C46     		mov	r4, r1
 195              		.loc 1 98 0
 196 0010 FFF7FEFF 		bl	malloc
 197              	.LVL20:
 198              		.loc 1 107 0
 199 0014 4FF40041 		mov	r1, #32768
 200              		.loc 1 98 0
 201 0018 0546     		mov	r5, r0
 202              	.LVL21:
 203              		.loc 1 107 0
 204 001a 3046     		mov	r0, r6
 205              	.LVL22:
 206 001c FFF7FEFF 		bl	_open
 207              	.LVL23:
 208              		.loc 1 108 0
 209 0020 431C     		adds	r3, r0, #1
 210              		.loc 1 107 0
 211 0022 0646     		mov	r6, r0
 212              	.LVL24:
 213              		.loc 1 108 0
 214 0024 33D0     		beq	.L39
 215              	.LBB5:
 216              		.loc 1 112 0
 217 0026 01A9     		add	r1, sp, #4
 218 0028 FFF7FEFF 		bl	fstat
 219              	.LVL25:
 220              		.loc 1 113 0
 221 002c 30B3     		cbz	r0, .L40
 222              	.LBE5:
 223              		.loc 1 99 0
 224 002e 4FF0FF38 		mov	r8, #-1
 225              	.LVL26:
 226              	.L32:
 227              	.LBB6:
 228              		.loc 1 129 0
ARM GAS  C:\Users\jo\AppData\Local\Temp\ccPkvB6H.s 			page 5


 229 0032 3846     		mov	r0, r7
 230              	.LVL27:
 231 0034 C821     		movs	r1, #200
 232 0036 FFF7FEFF 		bl	HttpSendHeaderTop
 233              	.LVL28:
 234              		.loc 1 133 0
 235 003a 4346     		mov	r3, r8
 236 003c 3846     		mov	r0, r7
 237 003e A168     		ldr	r1, [r4, #8]
 238 0040 E268     		ldr	r2, [r4, #12]
 239 0042 FFF7FEFF 		bl	HttpSendHeaderBottom
 240              	.LVL29:
 241              		.loc 1 135 0
 242 0046 40F2B458 		movw	r8, #1460
 243              	.LVL30:
 244              	.L34:
 245 004a 2946     		mov	r1, r5
 246 004c 40F2B452 		movw	r2, #1460
 247 0050 3046     		mov	r0, r6
 248 0052 FFF7FEFF 		bl	_read
 249              	.LVL31:
 250              		.loc 1 136 0
 251 0056 041E     		subs	r4, r0, #0
 252              		.loc 1 137 0
 253 0058 4FF00101 		mov	r1, #1
 254 005c 2246     		mov	r2, r4
 255 005e 2846     		mov	r0, r5
 256              	.LVL32:
 257              		.loc 1 136 0
 258 0060 0FDC     		bgt	.L33
 259              	.LVL33:
 260              	.L35:
 261              		.loc 1 141 0
 262 0062 3046     		mov	r0, r6
 263 0064 FFF7FEFF 		bl	_close
 264              	.LVL34:
 265              	.L31:
 266              	.LBE6:
 267              		.loc 1 143 0
 268 0068 3868     		ldr	r0, [r7]
 269 006a FFF7FEFF 		bl	s_flush
 270              	.LVL35:
 271              		.loc 1 144 0
 272 006e 2846     		mov	r0, r5
 273 0070 FFF7FEFF 		bl	free
 274              	.LVL36:
 275              		.loc 1 147 0
 276 0074 0020     		movs	r0, #0
 277 0076 10B0     		add	sp, sp, #64
 278              		.cfi_remember_state
 279              		.cfi_def_cfa_offset 24
 280              		@ sp needed
 281 0078 BDE8F081 		pop	{r4, r5, r6, r7, r8, pc}
 282              	.LVL37:
 283              	.L40:
 284              		.cfi_restore_state
 285              	.LBB7:
ARM GAS  C:\Users\jo\AppData\Local\Temp\ccPkvB6H.s 			page 6


 286              		.loc 1 114 0
 287 007c DDF81480 		ldr	r8, [sp, #20]
 288              	.LVL38:
 289 0080 D7E7     		b	.L32
 290              	.LVL39:
 291              	.L33:
 292              		.loc 1 137 0
 293 0082 3B68     		ldr	r3, [r7]
 294 0084 FFF7FEFF 		bl	s_write
 295              	.LVL40:
 296              		.loc 1 139 0
 297 0088 4445     		cmp	r4, r8
 298 008a DED0     		beq	.L34
 299 008c E9E7     		b	.L35
 300              	.LVL41:
 301              	.L39:
 302              	.LBE7:
 303              		.loc 1 109 0
 304 008e 3846     		mov	r0, r7
 305              	.LVL42:
 306 0090 4FF4CA71 		mov	r1, #404
 307 0094 FFF7FEFF 		bl	HttpSendError
 308              	.LVL43:
 309 0098 E6E7     		b	.L31
 310              		.cfi_endproc
 311              	.LFE262:
 312              		.size	MediaTypeHandlerBinary, .-MediaTypeHandlerBinary
 313 009a 00BFAFF3 		.section	.text.MediaTypeHandlerText,"ax",%progbits
 313      0080
 314              		.align	2
 315              		.p2align 4,,15
 316              		.global	MediaTypeHandlerText
 317              		.thumb
 318              		.thumb_func
 319              		.type	MediaTypeHandlerText, %function
 320              	MediaTypeHandlerText:
 321              	.LFB263:
 322              		.loc 1 150 0
 323              		.cfi_startproc
 324              		@ args = 0, pretend = 0, frame = 0
 325              		@ frame_needed = 0, uses_anonymous_args = 0
 326              		@ link register save eliminated.
 327              	.LVL44:
 328              		.loc 1 151 0
 329 0000 FFF7FEBF 		b	MediaTypeHandlerBinary
 330              	.LVL45:
 331              		.cfi_endproc
 332              	.LFE263:
 333              		.size	MediaTypeHandlerText, .-MediaTypeHandlerText
 334              		.global	mediaTypeList
 335 0004 AFF30080 		.section	.bss.mediaTypeList,"aw",%nobits
 335      AFF30080 
 335      AFF30080 
 336              		.align	2
 337              		.set	.LANCHOR0,. + 0
 338              		.type	mediaTypeList, %object
 339              		.size	mediaTypeList, 8
ARM GAS  C:\Users\jo\AppData\Local\Temp\ccPkvB6H.s 			page 7


 340              	mediaTypeList:
 341 0000 00000000 		.space	8
 341      00000000 
 342              		.section	.rodata.str1.4,"aMS",%progbits,1
 343              		.align	2
 344              	.LC0:
 345 0000 68746D6C 		.ascii	"html\000"
 345      00
 346 0005 000000   		.space	3
 347              	.LC1:
 348 0008 74787400 		.ascii	"txt\000"
 349              		.text
 350              	.Letext0:
 351              		.file 2 "c:\\program files\\gnu tools arm embedded\\4.9 2014q4\\lib\\gcc\\arm-none-eabi\\4.9.3\\in
 352              		.file 3 "c:\\program files\\gnu tools arm embedded\\4.9 2014q4\\arm-none-eabi\\include\\machine\\_
 353              		.file 4 "c:\\program files\\gnu tools arm embedded\\4.9 2014q4\\arm-none-eabi\\include\\sys\\_type
 354              		.file 5 "c:\\program files\\gnu tools arm embedded\\4.9 2014q4\\arm-none-eabi\\include\\sys\\types
 355              		.file 6 "c:\\program files\\gnu tools arm embedded\\4.9 2014q4\\arm-none-eabi\\include\\sys\\stat.
 356              		.file 7 "c:\\program files\\gnu tools arm embedded\\4.9 2014q4\\arm-none-eabi\\include\\stdint.h"
 357              		.file 8 "../../../os/rt/ports/ARMCMx/compilers/GCC/chtypes.h"
 358              		.file 9 "../../../os/rt/include/chsystypes.h"
 359              		.file 10 "../../../os/rt/include/chschd.h"
 360              		.file 11 "../../../os/rt/ports/ARMCMx/chcore.h"
 361              		.file 12 "../../../os/rt/ports/ARMCMx/chcore_v7m.h"
 362              		.file 13 "../../../os/rt/include/chdebug.h"
 363              		.file 14 "../../../os/rt/include/chtm.h"
 364              		.file 15 "../../../os/rt/include/chsem.h"
 365              		.file 16 "../../../os/rt/include/chmtx.h"
 366              		.file 17 "../../../os/various/lwip_bindings/arch/cc.h"
 367              		.file 18 "../../../ext/lwip/src/include/ipv4/lwip/inet.h"
 368              		.file 19 "../../../ext/lwip/src/include/lwip\\sockets.h"
 369              		.file 20 "./uhttp-1.1/pro/lwip/streamio.h"
 370              		.file 21 "./os/streamio.h"
 371              		.file 22 "./uhttp-1.1/uhttpd.h"
 372              		.file 23 "./uhttp-1.1/mediatypes.h"
 373              		.file 24 "../../../os/ext/CMSIS/include/core_cm4.h"
 374              		.file 25 "c:\\program files\\gnu tools arm embedded\\4.9 2014q4\\arm-none-eabi\\include\\string.h"
 375              		.file 26 "./uhttp-1.1/io.h"
 376              		.file 27 "c:\\program files\\gnu tools arm embedded\\4.9 2014q4\\arm-none-eabi\\include\\stdlib.h"
 377              		.section	.debug_info,"",%progbits
 378              	.Ldebug_info0:
 379 0000 3A100000 		.4byte	0x103a
 380 0004 0400     		.2byte	0x4
 381 0006 00000000 		.4byte	.Ldebug_abbrev0
 382 000a 04       		.byte	0x4
 383 000b 01       		.uleb128 0x1
 384 000c 80080000 		.4byte	.LASF228
 385 0010 01       		.byte	0x1
 386 0011 E6040000 		.4byte	.LASF229
 387 0015 0A0A0000 		.4byte	.LASF230
 388 0019 40000000 		.4byte	.Ldebug_ranges0+0x40
 389 001d 00000000 		.4byte	0
 390 0021 00000000 		.4byte	.Ldebug_line0
 391 0025 02       		.uleb128 0x2
 392 0026 04       		.byte	0x4
 393 0027 05       		.byte	0x5
 394 0028 696E7400 		.ascii	"int\000"
ARM GAS  C:\Users\jo\AppData\Local\Temp\ccPkvB6H.s 			page 8


 395 002c 03       		.uleb128 0x3
 396 002d 00000000 		.4byte	.LASF2
 397 0031 02       		.byte	0x2
 398 0032 D4       		.byte	0xd4
 399 0033 37000000 		.4byte	0x37
 400 0037 04       		.uleb128 0x4
 401 0038 04       		.byte	0x4
 402 0039 07       		.byte	0x7
 403 003a AA050000 		.4byte	.LASF0
 404 003e 04       		.uleb128 0x4
 405 003f 01       		.byte	0x1
 406 0040 06       		.byte	0x6
 407 0041 BF010000 		.4byte	.LASF1
 408 0045 03       		.uleb128 0x3
 409 0046 23010000 		.4byte	.LASF3
 410 004a 03       		.byte	0x3
 411 004b 1D       		.byte	0x1d
 412 004c 50000000 		.4byte	0x50
 413 0050 04       		.uleb128 0x4
 414 0051 01       		.byte	0x1
 415 0052 08       		.byte	0x8
 416 0053 19020000 		.4byte	.LASF4
 417 0057 04       		.uleb128 0x4
 418 0058 02       		.byte	0x2
 419 0059 05       		.byte	0x5
 420 005a D8070000 		.4byte	.LASF5
 421 005e 03       		.uleb128 0x3
 422 005f 90020000 		.4byte	.LASF6
 423 0063 03       		.byte	0x3
 424 0064 2B       		.byte	0x2b
 425 0065 69000000 		.4byte	0x69
 426 0069 04       		.uleb128 0x4
 427 006a 02       		.byte	0x2
 428 006b 07       		.byte	0x7
 429 006c 93090000 		.4byte	.LASF7
 430 0070 03       		.uleb128 0x3
 431 0071 C2090000 		.4byte	.LASF8
 432 0075 03       		.byte	0x3
 433 0076 3F       		.byte	0x3f
 434 0077 7B000000 		.4byte	0x7b
 435 007b 04       		.uleb128 0x4
 436 007c 04       		.byte	0x4
 437 007d 05       		.byte	0x5
 438 007e 4B010000 		.4byte	.LASF9
 439 0082 03       		.uleb128 0x3
 440 0083 93040000 		.4byte	.LASF10
 441 0087 03       		.byte	0x3
 442 0088 41       		.byte	0x41
 443 0089 8D000000 		.4byte	0x8d
 444 008d 04       		.uleb128 0x4
 445 008e 04       		.byte	0x4
 446 008f 07       		.byte	0x7
 447 0090 BE030000 		.4byte	.LASF11
 448 0094 04       		.uleb128 0x4
 449 0095 08       		.byte	0x8
 450 0096 05       		.byte	0x5
 451 0097 9E040000 		.4byte	.LASF12
ARM GAS  C:\Users\jo\AppData\Local\Temp\ccPkvB6H.s 			page 9


 452 009b 03       		.uleb128 0x3
 453 009c AD030000 		.4byte	.LASF13
 454 00a0 03       		.byte	0x3
 455 00a1 5B       		.byte	0x5b
 456 00a2 A6000000 		.4byte	0xa6
 457 00a6 04       		.uleb128 0x4
 458 00a7 08       		.byte	0x8
 459 00a8 07       		.byte	0x7
 460 00a9 ED060000 		.4byte	.LASF14
 461 00ad 03       		.uleb128 0x3
 462 00ae 74090000 		.4byte	.LASF15
 463 00b2 04       		.byte	0x4
 464 00b3 10       		.byte	0x10
 465 00b4 7B000000 		.4byte	0x7b
 466 00b8 03       		.uleb128 0x3
 467 00b9 2D010000 		.4byte	.LASF16
 468 00bd 04       		.byte	0x4
 469 00be 14       		.byte	0x14
 470 00bf 57000000 		.4byte	0x57
 471 00c3 03       		.uleb128 0x3
 472 00c4 54080000 		.4byte	.LASF17
 473 00c8 04       		.byte	0x4
 474 00c9 18       		.byte	0x18
 475 00ca 69000000 		.4byte	0x69
 476 00ce 03       		.uleb128 0x3
 477 00cf A4000000 		.4byte	.LASF18
 478 00d3 04       		.byte	0x4
 479 00d4 1B       		.byte	0x1b
 480 00d5 69000000 		.4byte	0x69
 481 00d9 04       		.uleb128 0x4
 482 00da 04       		.byte	0x4
 483 00db 07       		.byte	0x7
 484 00dc 07000000 		.4byte	.LASF19
 485 00e0 05       		.uleb128 0x5
 486 00e1 04       		.byte	0x4
 487 00e2 06       		.uleb128 0x6
 488 00e3 04       		.byte	0x4
 489 00e4 E8000000 		.4byte	0xe8
 490 00e8 04       		.uleb128 0x4
 491 00e9 01       		.byte	0x1
 492 00ea 08       		.byte	0x8
 493 00eb 72020000 		.4byte	.LASF20
 494 00ef 06       		.uleb128 0x6
 495 00f0 04       		.byte	0x4
 496 00f1 F5000000 		.4byte	0xf5
 497 00f5 07       		.uleb128 0x7
 498 00f6 E8000000 		.4byte	0xe8
 499 00fa 08       		.uleb128 0x8
 500 00fb E8000000 		.4byte	0xe8
 501 00ff 0A010000 		.4byte	0x10a
 502 0103 09       		.uleb128 0x9
 503 0104 D9000000 		.4byte	0xd9
 504 0108 07       		.byte	0x7
 505 0109 00       		.byte	0
 506 010a 03       		.uleb128 0x3
 507 010b AC000000 		.4byte	.LASF21
 508 010f 05       		.byte	0x5
ARM GAS  C:\Users\jo\AppData\Local\Temp\ccPkvB6H.s 			page 10


 509 0110 7A       		.byte	0x7a
 510 0111 7B000000 		.4byte	0x7b
 511 0115 03       		.uleb128 0x3
 512 0116 B8030000 		.4byte	.LASF22
 513 011a 05       		.byte	0x5
 514 011b 9B       		.byte	0x9b
 515 011c 69000000 		.4byte	0x69
 516 0120 03       		.uleb128 0x3
 517 0121 2D060000 		.4byte	.LASF23
 518 0125 05       		.byte	0x5
 519 0126 B8       		.byte	0xb8
 520 0127 AD000000 		.4byte	0xad
 521 012b 03       		.uleb128 0x3
 522 012c 96000000 		.4byte	.LASF24
 523 0130 05       		.byte	0x5
 524 0131 B9       		.byte	0xb9
 525 0132 B8000000 		.4byte	0xb8
 526 0136 03       		.uleb128 0x3
 527 0137 35010000 		.4byte	.LASF25
 528 013b 05       		.byte	0x5
 529 013c BA       		.byte	0xba
 530 013d C3000000 		.4byte	0xc3
 531 0141 03       		.uleb128 0x3
 532 0142 F1090000 		.4byte	.LASF26
 533 0146 05       		.byte	0x5
 534 0147 BB       		.byte	0xbb
 535 0148 CE000000 		.4byte	0xce
 536 014c 03       		.uleb128 0x3
 537 014d 33060000 		.4byte	.LASF27
 538 0151 05       		.byte	0x5
 539 0152 D9       		.byte	0xd9
 540 0153 37000000 		.4byte	0x37
 541 0157 03       		.uleb128 0x3
 542 0158 9C000000 		.4byte	.LASF28
 543 015c 05       		.byte	0x5
 544 015d DE       		.byte	0xde
 545 015e 69000000 		.4byte	0x69
 546 0162 0A       		.uleb128 0xa
 547 0163 CF000000 		.4byte	.LASF61
 548 0167 3C       		.byte	0x3c
 549 0168 06       		.byte	0x6
 550 0169 1A       		.byte	0x1a
 551 016a 3B020000 		.4byte	0x23b
 552 016e 0B       		.uleb128 0xb
 553 016f 99060000 		.4byte	.LASF29
 554 0173 06       		.byte	0x6
 555 0174 1C       		.byte	0x1c
 556 0175 2B010000 		.4byte	0x12b
 557 0179 00       		.byte	0
 558 017a 0B       		.uleb128 0xb
 559 017b D6090000 		.4byte	.LASF30
 560 017f 06       		.byte	0x6
 561 0180 1D       		.byte	0x1d
 562 0181 15010000 		.4byte	0x115
 563 0185 02       		.byte	0x2
 564 0186 0B       		.uleb128 0xb
 565 0187 4C080000 		.4byte	.LASF31
ARM GAS  C:\Users\jo\AppData\Local\Temp\ccPkvB6H.s 			page 11


 566 018b 06       		.byte	0x6
 567 018c 1E       		.byte	0x1e
 568 018d 4C010000 		.4byte	0x14c
 569 0191 04       		.byte	0x4
 570 0192 0B       		.uleb128 0xb
 571 0193 24060000 		.4byte	.LASF32
 572 0197 06       		.byte	0x6
 573 0198 1F       		.byte	0x1f
 574 0199 57010000 		.4byte	0x157
 575 019d 08       		.byte	0x8
 576 019e 0B       		.uleb128 0xb
 577 019f E4010000 		.4byte	.LASF33
 578 01a3 06       		.byte	0x6
 579 01a4 20       		.byte	0x20
 580 01a5 36010000 		.4byte	0x136
 581 01a9 0A       		.byte	0xa
 582 01aa 0B       		.uleb128 0xb
 583 01ab 8F030000 		.4byte	.LASF34
 584 01af 06       		.byte	0x6
 585 01b0 21       		.byte	0x21
 586 01b1 41010000 		.4byte	0x141
 587 01b5 0C       		.byte	0xc
 588 01b6 0B       		.uleb128 0xb
 589 01b7 27020000 		.4byte	.LASF35
 590 01bb 06       		.byte	0x6
 591 01bc 22       		.byte	0x22
 592 01bd 2B010000 		.4byte	0x12b
 593 01c1 0E       		.byte	0xe
 594 01c2 0B       		.uleb128 0xb
 595 01c3 D0030000 		.4byte	.LASF36
 596 01c7 06       		.byte	0x6
 597 01c8 23       		.byte	0x23
 598 01c9 20010000 		.4byte	0x120
 599 01cd 10       		.byte	0x10
 600 01ce 0B       		.uleb128 0xb
 601 01cf 60060000 		.4byte	.LASF37
 602 01d3 06       		.byte	0x6
 603 01d4 31       		.byte	0x31
 604 01d5 0A010000 		.4byte	0x10a
 605 01d9 14       		.byte	0x14
 606 01da 0B       		.uleb128 0xb
 607 01db DA010000 		.4byte	.LASF38
 608 01df 06       		.byte	0x6
 609 01e0 32       		.byte	0x32
 610 01e1 7B000000 		.4byte	0x7b
 611 01e5 18       		.byte	0x18
 612 01e6 0B       		.uleb128 0xb
 613 01e7 9E070000 		.4byte	.LASF39
 614 01eb 06       		.byte	0x6
 615 01ec 33       		.byte	0x33
 616 01ed 0A010000 		.4byte	0x10a
 617 01f1 1C       		.byte	0x1c
 618 01f2 0B       		.uleb128 0xb
 619 01f3 39040000 		.4byte	.LASF40
 620 01f7 06       		.byte	0x6
 621 01f8 34       		.byte	0x34
 622 01f9 7B000000 		.4byte	0x7b
ARM GAS  C:\Users\jo\AppData\Local\Temp\ccPkvB6H.s 			page 12


 623 01fd 20       		.byte	0x20
 624 01fe 0B       		.uleb128 0xb
 625 01ff 2F030000 		.4byte	.LASF41
 626 0203 06       		.byte	0x6
 627 0204 35       		.byte	0x35
 628 0205 0A010000 		.4byte	0x10a
 629 0209 24       		.byte	0x24
 630 020a 0B       		.uleb128 0xb
 631 020b EB010000 		.4byte	.LASF42
 632 020f 06       		.byte	0x6
 633 0210 36       		.byte	0x36
 634 0211 7B000000 		.4byte	0x7b
 635 0215 28       		.byte	0x28
 636 0216 0B       		.uleb128 0xb
 637 0217 27000000 		.4byte	.LASF43
 638 021b 06       		.byte	0x6
 639 021c 37       		.byte	0x37
 640 021d 7B000000 		.4byte	0x7b
 641 0221 2C       		.byte	0x2c
 642 0222 0B       		.uleb128 0xb
 643 0223 3A000000 		.4byte	.LASF44
 644 0227 06       		.byte	0x6
 645 0228 38       		.byte	0x38
 646 0229 7B000000 		.4byte	0x7b
 647 022d 30       		.byte	0x30
 648 022e 0B       		.uleb128 0xb
 649 022f F5010000 		.4byte	.LASF45
 650 0233 06       		.byte	0x6
 651 0234 39       		.byte	0x39
 652 0235 3B020000 		.4byte	0x23b
 653 0239 34       		.byte	0x34
 654 023a 00       		.byte	0
 655 023b 08       		.uleb128 0x8
 656 023c 7B000000 		.4byte	0x7b
 657 0240 4B020000 		.4byte	0x24b
 658 0244 09       		.uleb128 0x9
 659 0245 D9000000 		.4byte	0xd9
 660 0249 01       		.byte	0x1
 661 024a 00       		.byte	0
 662 024b 03       		.uleb128 0x3
 663 024c D2010000 		.4byte	.LASF46
 664 0250 07       		.byte	0x7
 665 0251 15       		.byte	0x15
 666 0252 45000000 		.4byte	0x45
 667 0256 03       		.uleb128 0x3
 668 0257 1A070000 		.4byte	.LASF47
 669 025b 07       		.byte	0x7
 670 025c 21       		.byte	0x21
 671 025d 5E000000 		.4byte	0x5e
 672 0261 03       		.uleb128 0x3
 673 0262 5A000000 		.4byte	.LASF48
 674 0266 07       		.byte	0x7
 675 0267 2C       		.byte	0x2c
 676 0268 70000000 		.4byte	0x70
 677 026c 03       		.uleb128 0x3
 678 026d 6B090000 		.4byte	.LASF49
 679 0271 07       		.byte	0x7
ARM GAS  C:\Users\jo\AppData\Local\Temp\ccPkvB6H.s 			page 13


 680 0272 2D       		.byte	0x2d
 681 0273 82000000 		.4byte	0x82
 682 0277 03       		.uleb128 0x3
 683 0278 E2070000 		.4byte	.LASF50
 684 027c 07       		.byte	0x7
 685 027d 39       		.byte	0x39
 686 027e 9B000000 		.4byte	0x9b
 687 0282 0C       		.uleb128 0xc
 688 0283 61020000 		.4byte	0x261
 689 0287 03       		.uleb128 0x3
 690 0288 C9050000 		.4byte	.LASF51
 691 028c 08       		.byte	0x8
 692 028d 45       		.byte	0x45
 693 028e 6C020000 		.4byte	0x26c
 694 0292 03       		.uleb128 0x3
 695 0293 96070000 		.4byte	.LASF52
 696 0297 08       		.byte	0x8
 697 0298 48       		.byte	0x48
 698 0299 4B020000 		.4byte	0x24b
 699 029d 03       		.uleb128 0x3
 700 029e 7A010000 		.4byte	.LASF53
 701 02a2 08       		.byte	0x8
 702 02a3 49       		.byte	0x49
 703 02a4 4B020000 		.4byte	0x24b
 704 02a8 03       		.uleb128 0x3
 705 02a9 1E030000 		.4byte	.LASF54
 706 02ad 08       		.byte	0x8
 707 02ae 4A       		.byte	0x4a
 708 02af 4B020000 		.4byte	0x24b
 709 02b3 03       		.uleb128 0x3
 710 02b4 32000000 		.4byte	.LASF55
 711 02b8 08       		.byte	0x8
 712 02b9 4C       		.byte	0x4c
 713 02ba 6C020000 		.4byte	0x26c
 714 02be 03       		.uleb128 0x3
 715 02bf 23070000 		.4byte	.LASF56
 716 02c3 08       		.byte	0x8
 717 02c4 4D       		.byte	0x4d
 718 02c5 61020000 		.4byte	0x261
 719 02c9 03       		.uleb128 0x3
 720 02ca FF010000 		.4byte	.LASF57
 721 02ce 08       		.byte	0x8
 722 02cf 4F       		.byte	0x4f
 723 02d0 6C020000 		.4byte	0x26c
 724 02d4 03       		.uleb128 0x3
 725 02d5 38030000 		.4byte	.LASF58
 726 02d9 08       		.byte	0x8
 727 02da 51       		.byte	0x51
 728 02db 61020000 		.4byte	0x261
 729 02df 03       		.uleb128 0x3
 730 02e0 17000000 		.4byte	.LASF59
 731 02e4 09       		.byte	0x9
 732 02e5 33       		.byte	0x33
 733 02e6 6C020000 		.4byte	0x26c
 734 02ea 03       		.uleb128 0x3
 735 02eb 57060000 		.4byte	.LASF60
 736 02ef 09       		.byte	0x9
ARM GAS  C:\Users\jo\AppData\Local\Temp\ccPkvB6H.s 			page 14


 737 02f0 3F       		.byte	0x3f
 738 02f1 F5020000 		.4byte	0x2f5
 739 02f5 0A       		.uleb128 0xa
 740 02f6 E5030000 		.4byte	.LASF62
 741 02fa 48       		.byte	0x48
 742 02fb 0A       		.byte	0xa
 743 02fc C2       		.byte	0xc2
 744 02fd EE030000 		.4byte	0x3ee
 745 0301 0B       		.uleb128 0xb
 746 0302 54010000 		.4byte	.LASF63
 747 0306 0A       		.byte	0xa
 748 0307 C3       		.byte	0xc3
 749 0308 F9030000 		.4byte	0x3f9
 750 030c 00       		.byte	0
 751 030d 0B       		.uleb128 0xb
 752 030e 5B010000 		.4byte	.LASF64
 753 0312 0A       		.byte	0xa
 754 0313 C5       		.byte	0xc5
 755 0314 F9030000 		.4byte	0x3f9
 756 0318 04       		.byte	0x4
 757 0319 0B       		.uleb128 0xb
 758 031a 89020000 		.4byte	.LASF65
 759 031e 0A       		.byte	0xa
 760 031f C7       		.byte	0xc7
 761 0320 B3020000 		.4byte	0x2b3
 762 0324 08       		.byte	0x8
 763 0325 0B       		.uleb128 0xb
 764 0326 21000000 		.4byte	.LASF66
 765 032a 0A       		.byte	0xa
 766 032b C8       		.byte	0xc8
 767 032c 4B060000 		.4byte	0x64b
 768 0330 0C       		.byte	0xc
 769 0331 0B       		.uleb128 0xb
 770 0332 43010000 		.4byte	.LASF67
 771 0336 0A       		.byte	0xa
 772 0337 CA       		.byte	0xca
 773 0338 F9030000 		.4byte	0x3f9
 774 033c 10       		.byte	0x10
 775 033d 0B       		.uleb128 0xb
 776 033e 12070000 		.4byte	.LASF68
 777 0342 0A       		.byte	0xa
 778 0343 CB       		.byte	0xcb
 779 0344 F9030000 		.4byte	0x3f9
 780 0348 14       		.byte	0x14
 781 0349 0B       		.uleb128 0xb
 782 034a E5090000 		.4byte	.LASF69
 783 034e 0A       		.byte	0xa
 784 034f D2       		.byte	0xd2
 785 0350 EF000000 		.4byte	0xef
 786 0354 18       		.byte	0x18
 787 0355 0B       		.uleb128 0xb
 788 0356 B7090000 		.4byte	.LASF70
 789 035a 0A       		.byte	0xa
 790 035b D8       		.byte	0xd8
 791 035c 5D080000 		.4byte	0x85d
 792 0360 1C       		.byte	0x1c
 793 0361 0B       		.uleb128 0xb
ARM GAS  C:\Users\jo\AppData\Local\Temp\ccPkvB6H.s 			page 15


 794 0362 630A0000 		.4byte	.LASF71
 795 0366 0A       		.byte	0xa
 796 0367 DD       		.byte	0xdd
 797 0368 9D020000 		.4byte	0x29d
 798 036c 20       		.byte	0x20
 799 036d 0B       		.uleb128 0xb
 800 036e 89050000 		.4byte	.LASF72
 801 0372 0A       		.byte	0xa
 802 0373 E1       		.byte	0xe1
 803 0374 92020000 		.4byte	0x292
 804 0378 21       		.byte	0x21
 805 0379 0B       		.uleb128 0xb
 806 037a E8050000 		.4byte	.LASF73
 807 037e 0A       		.byte	0xa
 808 037f E6       		.byte	0xe6
 809 0380 A8020000 		.4byte	0x2a8
 810 0384 22       		.byte	0x22
 811 0385 0D       		.uleb128 0xd
 812 0386 705F7500 		.ascii	"p_u\000"
 813 038a 0A       		.byte	0xa
 814 038b 3101     		.2byte	0x131
 815 038d 98070000 		.4byte	0x798
 816 0391 24       		.byte	0x24
 817 0392 0E       		.uleb128 0xe
 818 0393 6A050000 		.4byte	.LASF74
 819 0397 0A       		.byte	0xa
 820 0398 3601     		.2byte	0x136
 821 039a FF030000 		.4byte	0x3ff
 822 039e 28       		.byte	0x28
 823 039f 0E       		.uleb128 0xe
 824 03a0 49000000 		.4byte	.LASF75
 825 03a4 0A       		.byte	0xa
 826 03a5 3C01     		.2byte	0x13c
 827 03a7 23040000 		.4byte	0x423
 828 03ab 2C       		.byte	0x2c
 829 03ac 0E       		.uleb128 0xe
 830 03ad 5D0A0000 		.4byte	.LASF76
 831 03b1 0A       		.byte	0xa
 832 03b2 4001     		.2byte	0x140
 833 03b4 BE020000 		.4byte	0x2be
 834 03b8 34       		.byte	0x34
 835 03b9 0E       		.uleb128 0xe
 836 03ba 66030000 		.4byte	.LASF77
 837 03be 0A       		.byte	0xa
 838 03bf 4601     		.2byte	0x146
 839 03c1 C9020000 		.4byte	0x2c9
 840 03c5 38       		.byte	0x38
 841 03c6 0E       		.uleb128 0xe
 842 03c7 93010000 		.4byte	.LASF78
 843 03cb 0A       		.byte	0xa
 844 03cc 4D01     		.2byte	0x14d
 845 03ce 57080000 		.4byte	0x857
 846 03d2 3C       		.byte	0x3c
 847 03d3 0E       		.uleb128 0xe
 848 03d4 82060000 		.4byte	.LASF79
 849 03d8 0A       		.byte	0xa
 850 03d9 5101     		.2byte	0x151
ARM GAS  C:\Users\jo\AppData\Local\Temp\ccPkvB6H.s 			page 16


 851 03db B3020000 		.4byte	0x2b3
 852 03df 40       		.byte	0x40
 853 03e0 0E       		.uleb128 0xe
 854 03e1 D1050000 		.4byte	.LASF80
 855 03e5 0A       		.byte	0xa
 856 03e6 5801     		.2byte	0x158
 857 03e8 E0000000 		.4byte	0xe0
 858 03ec 44       		.byte	0x44
 859 03ed 00       		.byte	0
 860 03ee 03       		.uleb128 0x3
 861 03ef 69060000 		.4byte	.LASF81
 862 03f3 09       		.byte	0x9
 863 03f4 44       		.byte	0x44
 864 03f5 F9030000 		.4byte	0x3f9
 865 03f9 06       		.uleb128 0x6
 866 03fa 04       		.byte	0x4
 867 03fb EA020000 		.4byte	0x2ea
 868 03ff 03       		.uleb128 0x3
 869 0400 71080000 		.4byte	.LASF82
 870 0404 09       		.byte	0x9
 871 0405 49       		.byte	0x49
 872 0406 0A040000 		.4byte	0x40a
 873 040a 0A       		.uleb128 0xa
 874 040b 64040000 		.4byte	.LASF83
 875 040f 04       		.byte	0x4
 876 0410 0A       		.byte	0xa
 877 0411 B0       		.byte	0xb0
 878 0412 23040000 		.4byte	0x423
 879 0416 0B       		.uleb128 0xb
 880 0417 54010000 		.4byte	.LASF63
 881 041b 0A       		.byte	0xa
 882 041c B1       		.byte	0xb1
 883 041d F9030000 		.4byte	0x3f9
 884 0421 00       		.byte	0
 885 0422 00       		.byte	0
 886 0423 03       		.uleb128 0x3
 887 0424 83010000 		.4byte	.LASF84
 888 0428 09       		.byte	0x9
 889 0429 50       		.byte	0x50
 890 042a 2E040000 		.4byte	0x42e
 891 042e 0A       		.uleb128 0xa
 892 042f 29070000 		.4byte	.LASF85
 893 0433 08       		.byte	0x8
 894 0434 0A       		.byte	0xa
 895 0435 B7       		.byte	0xb7
 896 0436 53040000 		.4byte	0x453
 897 043a 0B       		.uleb128 0xb
 898 043b 54010000 		.4byte	.LASF63
 899 043f 0A       		.byte	0xa
 900 0440 B8       		.byte	0xb8
 901 0441 F9030000 		.4byte	0x3f9
 902 0445 00       		.byte	0
 903 0446 0B       		.uleb128 0xb
 904 0447 5B010000 		.4byte	.LASF64
 905 044b 0A       		.byte	0xa
 906 044c B9       		.byte	0xb9
 907 044d F9030000 		.4byte	0x3f9
ARM GAS  C:\Users\jo\AppData\Local\Temp\ccPkvB6H.s 			page 17


 908 0451 04       		.byte	0x4
 909 0452 00       		.byte	0
 910 0453 03       		.uleb128 0x3
 911 0454 2C040000 		.4byte	.LASF86
 912 0458 09       		.byte	0x9
 913 0459 57       		.byte	0x57
 914 045a 5E040000 		.4byte	0x45e
 915 045e 0F       		.uleb128 0xf
 916 045f 78030000 		.4byte	.LASF87
 917 0463 1C       		.byte	0x1c
 918 0464 0A       		.byte	0xa
 919 0465 9001     		.2byte	0x190
 920 0467 BA040000 		.4byte	0x4ba
 921 046b 0E       		.uleb128 0xe
 922 046c 66070000 		.4byte	.LASF88
 923 0470 0A       		.byte	0xa
 924 0471 9101     		.2byte	0x191
 925 0473 23040000 		.4byte	0x423
 926 0477 00       		.byte	0
 927 0478 0E       		.uleb128 0xe
 928 0479 09080000 		.4byte	.LASF89
 929 047d 0A       		.byte	0xa
 930 047e 9201     		.2byte	0x192
 931 0480 B3020000 		.4byte	0x2b3
 932 0484 08       		.byte	0x8
 933 0485 0E       		.uleb128 0xe
 934 0486 54000000 		.4byte	.LASF90
 935 048a 0A       		.byte	0xa
 936 048b 9401     		.2byte	0x194
 937 048d 4B060000 		.4byte	0x64b
 938 0491 0C       		.byte	0xc
 939 0492 0E       		.uleb128 0xe
 940 0493 55020000 		.4byte	.LASF91
 941 0497 0A       		.byte	0xa
 942 0498 9701     		.2byte	0x197
 943 049a F9030000 		.4byte	0x3f9
 944 049e 10       		.byte	0x10
 945 049f 0E       		.uleb128 0xe
 946 04a0 B2070000 		.4byte	.LASF92
 947 04a4 0A       		.byte	0xa
 948 04a5 9801     		.2byte	0x198
 949 04a7 F9030000 		.4byte	0x3f9
 950 04ab 14       		.byte	0x14
 951 04ac 0E       		.uleb128 0xe
 952 04ad 45070000 		.4byte	.LASF93
 953 04b1 0A       		.byte	0xa
 954 04b2 9B01     		.2byte	0x19b
 955 04b4 F9030000 		.4byte	0x3f9
 956 04b8 18       		.byte	0x18
 957 04b9 00       		.byte	0
 958 04ba 03       		.uleb128 0x3
 959 04bb 6D000000 		.4byte	.LASF94
 960 04bf 09       		.byte	0x9
 961 04c0 5C       		.byte	0x5c
 962 04c1 C5040000 		.4byte	0x4c5
 963 04c5 06       		.uleb128 0x6
 964 04c6 04       		.byte	0x4
ARM GAS  C:\Users\jo\AppData\Local\Temp\ccPkvB6H.s 			page 18


 965 04c7 CB040000 		.4byte	0x4cb
 966 04cb 10       		.uleb128 0x10
 967 04cc D6040000 		.4byte	0x4d6
 968 04d0 11       		.uleb128 0x11
 969 04d1 E0000000 		.4byte	0xe0
 970 04d5 00       		.byte	0
 971 04d6 03       		.uleb128 0x3
 972 04d7 1C040000 		.4byte	.LASF95
 973 04db 09       		.byte	0x9
 974 04dc 61       		.byte	0x61
 975 04dd E1040000 		.4byte	0x4e1
 976 04e1 0F       		.uleb128 0xf
 977 04e2 C5060000 		.4byte	.LASF96
 978 04e6 14       		.byte	0x14
 979 04e7 0A       		.byte	0xa
 980 04e8 6B01     		.2byte	0x16b
 981 04ea 30050000 		.4byte	0x530
 982 04ee 0E       		.uleb128 0xe
 983 04ef BC040000 		.4byte	.LASF97
 984 04f3 0A       		.byte	0xa
 985 04f4 6C01     		.2byte	0x16c
 986 04f6 63080000 		.4byte	0x863
 987 04fa 00       		.byte	0
 988 04fb 0E       		.uleb128 0xe
 989 04fc D6040000 		.4byte	.LASF98
 990 0500 0A       		.byte	0xa
 991 0501 6D01     		.2byte	0x16d
 992 0503 63080000 		.4byte	0x863
 993 0507 04       		.byte	0x4
 994 0508 0E       		.uleb128 0xe
 995 0509 AE060000 		.4byte	.LASF99
 996 050d 0A       		.byte	0xa
 997 050e 6E01     		.2byte	0x16e
 998 0510 DF020000 		.4byte	0x2df
 999 0514 08       		.byte	0x8
 1000 0515 0E       		.uleb128 0xe
 1001 0516 3E030000 		.4byte	.LASF100
 1002 051a 0A       		.byte	0xa
 1003 051b 6F01     		.2byte	0x16f
 1004 051d BA040000 		.4byte	0x4ba
 1005 0521 0C       		.byte	0xc
 1006 0522 0E       		.uleb128 0xe
 1007 0523 00010000 		.4byte	.LASF101
 1008 0527 0A       		.byte	0xa
 1009 0528 7101     		.2byte	0x171
 1010 052a E0000000 		.4byte	0xe0
 1011 052e 10       		.byte	0x10
 1012 052f 00       		.byte	0
 1013 0530 03       		.uleb128 0x3
 1014 0531 FA030000 		.4byte	.LASF102
 1015 0535 09       		.byte	0x9
 1016 0536 66       		.byte	0x66
 1017 0537 3B050000 		.4byte	0x53b
 1018 053b 0F       		.uleb128 0xf
 1019 053c 7F000000 		.4byte	.LASF103
 1020 0540 10       		.byte	0x10
 1021 0541 0A       		.byte	0xa
ARM GAS  C:\Users\jo\AppData\Local\Temp\ccPkvB6H.s 			page 19


 1022 0542 7B01     		.2byte	0x17b
 1023 0544 7D050000 		.4byte	0x57d
 1024 0548 0E       		.uleb128 0xe
 1025 0549 BC040000 		.4byte	.LASF97
 1026 054d 0A       		.byte	0xa
 1027 054e 7C01     		.2byte	0x17c
 1028 0550 63080000 		.4byte	0x863
 1029 0554 00       		.byte	0
 1030 0555 0E       		.uleb128 0xe
 1031 0556 D6040000 		.4byte	.LASF98
 1032 055a 0A       		.byte	0xa
 1033 055b 7E01     		.2byte	0x17e
 1034 055d 63080000 		.4byte	0x863
 1035 0561 04       		.byte	0x4
 1036 0562 0E       		.uleb128 0xe
 1037 0563 AE060000 		.4byte	.LASF99
 1038 0567 0A       		.byte	0xa
 1039 0568 8001     		.2byte	0x180
 1040 056a DF020000 		.4byte	0x2df
 1041 056e 08       		.byte	0x8
 1042 056f 0E       		.uleb128 0xe
 1043 0570 87090000 		.4byte	.LASF104
 1044 0574 0A       		.byte	0xa
 1045 0575 8801     		.2byte	0x188
 1046 0577 DF020000 		.4byte	0x2df
 1047 057b 0C       		.byte	0xc
 1048 057c 00       		.byte	0
 1049 057d 03       		.uleb128 0x3
 1050 057e 5D020000 		.4byte	.LASF105
 1051 0582 09       		.byte	0x9
 1052 0583 6B       		.byte	0x6b
 1053 0584 88050000 		.4byte	0x588
 1054 0588 12       		.uleb128 0x12
 1055 0589 10080000 		.4byte	.LASF106
 1056 058d 1404     		.2byte	0x414
 1057 058f 0A       		.byte	0xa
 1058 0590 A201     		.2byte	0x1a2
 1059 0592 CB050000 		.4byte	0x5cb
 1060 0596 0E       		.uleb128 0xe
 1061 0597 3E020000 		.4byte	.LASF107
 1062 059b 0A       		.byte	0xa
 1063 059c AA01     		.2byte	0x1aa
 1064 059e 69080000 		.4byte	0x869
 1065 05a2 00       		.byte	0
 1066 05a3 0E       		.uleb128 0xe
 1067 05a4 96030000 		.4byte	.LASF108
 1068 05a8 0A       		.byte	0xa
 1069 05a9 AF01     		.2byte	0x1af
 1070 05ab D4020000 		.4byte	0x2d4
 1071 05af 04       		.byte	0x4
 1072 05b0 0E       		.uleb128 0xe
 1073 05b1 B9000000 		.4byte	.LASF109
 1074 05b5 0A       		.byte	0xa
 1075 05b6 B301     		.2byte	0x1b3
 1076 05b8 D4020000 		.4byte	0x2d4
 1077 05bc 08       		.byte	0x8
 1078 05bd 0E       		.uleb128 0xe
ARM GAS  C:\Users\jo\AppData\Local\Temp\ccPkvB6H.s 			page 20


 1079 05be 48020000 		.4byte	.LASF110
 1080 05c2 0A       		.byte	0xa
 1081 05c3 B901     		.2byte	0x1b9
 1082 05c5 6D070000 		.4byte	0x76d
 1083 05c9 0C       		.byte	0xc
 1084 05ca 00       		.byte	0
 1085 05cb 03       		.uleb128 0x3
 1086 05cc A6090000 		.4byte	.LASF111
 1087 05d0 09       		.byte	0x9
 1088 05d1 70       		.byte	0x70
 1089 05d2 D6050000 		.4byte	0x5d6
 1090 05d6 12       		.uleb128 0x12
 1091 05d7 61090000 		.4byte	.LASF112
 1092 05db 7005     		.2byte	0x570
 1093 05dd 0A       		.byte	0xa
 1094 05de C201     		.2byte	0x1c2
 1095 05e0 35060000 		.4byte	0x635
 1096 05e4 0E       		.uleb128 0xe
 1097 05e5 90070000 		.4byte	.LASF113
 1098 05e9 0A       		.byte	0xa
 1099 05ea C601     		.2byte	0x1c6
 1100 05ec 53040000 		.4byte	0x453
 1101 05f0 00       		.byte	0
 1102 05f1 0E       		.uleb128 0xe
 1103 05f2 3D080000 		.4byte	.LASF114
 1104 05f6 0A       		.byte	0xa
 1105 05f7 CA01     		.2byte	0x1ca
 1106 05f9 30050000 		.4byte	0x530
 1107 05fd 1C       		.byte	0x1c
 1108 05fe 0D       		.uleb128 0xd
 1109 05ff 64626700 		.ascii	"dbg\000"
 1110 0603 0A       		.byte	0xa
 1111 0604 CE01     		.2byte	0x1ce
 1112 0606 7D050000 		.4byte	0x57d
 1113 060a 2C       		.byte	0x2c
 1114 060b 13       		.uleb128 0x13
 1115 060c 5B070000 		.4byte	.LASF115
 1116 0610 0A       		.byte	0xa
 1117 0611 D201     		.2byte	0x1d2
 1118 0613 EA020000 		.4byte	0x2ea
 1119 0617 4004     		.2byte	0x440
 1120 0619 14       		.uleb128 0x14
 1121 061a 746D00   		.ascii	"tm\000"
 1122 061d 0A       		.byte	0xa
 1123 061e D701     		.2byte	0x1d7
 1124 0620 8D070000 		.4byte	0x78d
 1125 0624 8804     		.2byte	0x488
 1126 0626 13       		.uleb128 0x13
 1127 0627 9B050000 		.4byte	.LASF116
 1128 062b 0A       		.byte	0xa
 1129 062c E301     		.2byte	0x1e3
 1130 062e 6E080000 		.4byte	0x86e
 1131 0632 9004     		.2byte	0x490
 1132 0634 00       		.byte	0
 1133 0635 03       		.uleb128 0x3
 1134 0636 A5010000 		.4byte	.LASF117
 1135 063a 0B       		.byte	0xb
ARM GAS  C:\Users\jo\AppData\Local\Temp\ccPkvB6H.s 			page 21


 1136 063b 65       		.byte	0x65
 1137 063c E0000000 		.4byte	0xe0
 1138 0640 03       		.uleb128 0x3
 1139 0641 D0020000 		.4byte	.LASF118
 1140 0645 0B       		.byte	0xb
 1141 0646 6D       		.byte	0x6d
 1142 0647 77020000 		.4byte	0x277
 1143 064b 0A       		.uleb128 0xa
 1144 064c 0B020000 		.4byte	.LASF119
 1145 0650 04       		.byte	0x4
 1146 0651 0B       		.byte	0xb
 1147 0652 89       		.byte	0x89
 1148 0653 64060000 		.4byte	0x664
 1149 0657 15       		.uleb128 0x15
 1150 0658 72313300 		.ascii	"r13\000"
 1151 065c 0B       		.byte	0xb
 1152 065d 8A       		.byte	0x8a
 1153 065e DF060000 		.4byte	0x6df
 1154 0662 00       		.byte	0
 1155 0663 00       		.byte	0
 1156 0664 0A       		.uleb128 0xa
 1157 0665 8D060000 		.4byte	.LASF120
 1158 0669 24       		.byte	0x24
 1159 066a 0C       		.byte	0xc
 1160 066b F4       		.byte	0xf4
 1161 066c DF060000 		.4byte	0x6df
 1162 0670 0D       		.uleb128 0xd
 1163 0671 723400   		.ascii	"r4\000"
 1164 0674 0C       		.byte	0xc
 1165 0675 0701     		.2byte	0x107
 1166 0677 35060000 		.4byte	0x635
 1167 067b 00       		.byte	0
 1168 067c 0D       		.uleb128 0xd
 1169 067d 723500   		.ascii	"r5\000"
 1170 0680 0C       		.byte	0xc
 1171 0681 0801     		.2byte	0x108
 1172 0683 35060000 		.4byte	0x635
 1173 0687 04       		.byte	0x4
 1174 0688 0D       		.uleb128 0xd
 1175 0689 723600   		.ascii	"r6\000"
 1176 068c 0C       		.byte	0xc
 1177 068d 0901     		.2byte	0x109
 1178 068f 35060000 		.4byte	0x635
 1179 0693 08       		.byte	0x8
 1180 0694 0D       		.uleb128 0xd
 1181 0695 723700   		.ascii	"r7\000"
 1182 0698 0C       		.byte	0xc
 1183 0699 0A01     		.2byte	0x10a
 1184 069b 35060000 		.4byte	0x635
 1185 069f 0C       		.byte	0xc
 1186 06a0 0D       		.uleb128 0xd
 1187 06a1 723800   		.ascii	"r8\000"
 1188 06a4 0C       		.byte	0xc
 1189 06a5 0B01     		.2byte	0x10b
 1190 06a7 35060000 		.4byte	0x635
 1191 06ab 10       		.byte	0x10
 1192 06ac 0D       		.uleb128 0xd
ARM GAS  C:\Users\jo\AppData\Local\Temp\ccPkvB6H.s 			page 22


 1193 06ad 723900   		.ascii	"r9\000"
 1194 06b0 0C       		.byte	0xc
 1195 06b1 0C01     		.2byte	0x10c
 1196 06b3 35060000 		.4byte	0x635
 1197 06b7 14       		.byte	0x14
 1198 06b8 0D       		.uleb128 0xd
 1199 06b9 72313000 		.ascii	"r10\000"
 1200 06bd 0C       		.byte	0xc
 1201 06be 0D01     		.2byte	0x10d
 1202 06c0 35060000 		.4byte	0x635
 1203 06c4 18       		.byte	0x18
 1204 06c5 0D       		.uleb128 0xd
 1205 06c6 72313100 		.ascii	"r11\000"
 1206 06ca 0C       		.byte	0xc
 1207 06cb 0E01     		.2byte	0x10e
 1208 06cd 35060000 		.4byte	0x635
 1209 06d1 1C       		.byte	0x1c
 1210 06d2 0D       		.uleb128 0xd
 1211 06d3 6C7200   		.ascii	"lr\000"
 1212 06d6 0C       		.byte	0xc
 1213 06d7 0F01     		.2byte	0x10f
 1214 06d9 35060000 		.4byte	0x635
 1215 06dd 20       		.byte	0x20
 1216 06de 00       		.byte	0
 1217 06df 06       		.uleb128 0x6
 1218 06e0 04       		.byte	0x4
 1219 06e1 64060000 		.4byte	0x664
 1220 06e5 16       		.uleb128 0x16
 1221 06e6 10       		.byte	0x10
 1222 06e7 0D       		.byte	0xd
 1223 06e8 51       		.byte	0x51
 1224 06e9 1E070000 		.4byte	0x71e
 1225 06ed 0B       		.uleb128 0xb
 1226 06ee DD090000 		.4byte	.LASF121
 1227 06f2 0D       		.byte	0xd
 1228 06f3 55       		.byte	0x55
 1229 06f4 DF020000 		.4byte	0x2df
 1230 06f8 00       		.byte	0
 1231 06f9 0B       		.uleb128 0xb
 1232 06fa DE000000 		.4byte	.LASF122
 1233 06fe 0D       		.byte	0xd
 1234 06ff 59       		.byte	0x59
 1235 0700 F9030000 		.4byte	0x3f9
 1236 0704 04       		.byte	0x4
 1237 0705 0B       		.uleb128 0xb
 1238 0706 7F050000 		.4byte	.LASF123
 1239 070a 0D       		.byte	0xd
 1240 070b 5D       		.byte	0x5d
 1241 070c E0000000 		.4byte	0xe0
 1242 0710 08       		.byte	0x8
 1243 0711 0B       		.uleb128 0xb
 1244 0712 9E030000 		.4byte	.LASF124
 1245 0716 0D       		.byte	0xd
 1246 0717 61       		.byte	0x61
 1247 0718 4B020000 		.4byte	0x24b
 1248 071c 0C       		.byte	0xc
 1249 071d 00       		.byte	0
ARM GAS  C:\Users\jo\AppData\Local\Temp\ccPkvB6H.s 			page 23


 1250 071e 03       		.uleb128 0x3
 1251 071f 74040000 		.4byte	.LASF125
 1252 0723 0D       		.byte	0xd
 1253 0724 62       		.byte	0x62
 1254 0725 E5060000 		.4byte	0x6e5
 1255 0729 17       		.uleb128 0x17
 1256 072a 0804     		.2byte	0x408
 1257 072c 0D       		.byte	0xd
 1258 072d 67       		.byte	0x67
 1259 072e 57070000 		.4byte	0x757
 1260 0732 0B       		.uleb128 0xb
 1261 0733 DE040000 		.4byte	.LASF126
 1262 0737 0D       		.byte	0xd
 1263 0738 6B       		.byte	0x6b
 1264 0739 37000000 		.4byte	0x37
 1265 073d 00       		.byte	0
 1266 073e 0B       		.uleb128 0xb
 1267 073f 030A0000 		.4byte	.LASF127
 1268 0743 0D       		.byte	0xd
 1269 0744 6F       		.byte	0x6f
 1270 0745 57070000 		.4byte	0x757
 1271 0749 04       		.byte	0x4
 1272 074a 0B       		.uleb128 0xb
 1273 074b 11060000 		.4byte	.LASF128
 1274 074f 0D       		.byte	0xd
 1275 0750 73       		.byte	0x73
 1276 0751 5D070000 		.4byte	0x75d
 1277 0755 08       		.byte	0x8
 1278 0756 00       		.byte	0
 1279 0757 06       		.uleb128 0x6
 1280 0758 04       		.byte	0x4
 1281 0759 1E070000 		.4byte	0x71e
 1282 075d 08       		.uleb128 0x8
 1283 075e 1E070000 		.4byte	0x71e
 1284 0762 6D070000 		.4byte	0x76d
 1285 0766 09       		.uleb128 0x9
 1286 0767 D9000000 		.4byte	0xd9
 1287 076b 3F       		.byte	0x3f
 1288 076c 00       		.byte	0
 1289 076d 03       		.uleb128 0x3
 1290 076e 54030000 		.4byte	.LASF129
 1291 0772 0D       		.byte	0xd
 1292 0773 74       		.byte	0x74
 1293 0774 29070000 		.4byte	0x729
 1294 0778 16       		.uleb128 0x16
 1295 0779 04       		.byte	0x4
 1296 077a 0E       		.byte	0xe
 1297 077b 38       		.byte	0x38
 1298 077c 8D070000 		.4byte	0x78d
 1299 0780 0B       		.uleb128 0xb
 1300 0781 0A060000 		.4byte	.LASF130
 1301 0785 0E       		.byte	0xe
 1302 0786 3C       		.byte	0x3c
 1303 0787 87020000 		.4byte	0x287
 1304 078b 00       		.byte	0
 1305 078c 00       		.byte	0
 1306 078d 03       		.uleb128 0x3
ARM GAS  C:\Users\jo\AppData\Local\Temp\ccPkvB6H.s 			page 24


 1307 078e BA070000 		.4byte	.LASF131
 1308 0792 0E       		.byte	0xe
 1309 0793 3D       		.byte	0x3d
 1310 0794 78070000 		.4byte	0x778
 1311 0798 18       		.uleb128 0x18
 1312 0799 04       		.byte	0x4
 1313 079a 0A       		.byte	0xa
 1314 079b FA       		.byte	0xfa
 1315 079c F5070000 		.4byte	0x7f5
 1316 07a0 19       		.uleb128 0x19
 1317 07a1 80090000 		.4byte	.LASF132
 1318 07a5 0A       		.byte	0xa
 1319 07a6 0101     		.2byte	0x101
 1320 07a8 BE020000 		.4byte	0x2be
 1321 07ac 19       		.uleb128 0x19
 1322 07ad 07010000 		.4byte	.LASF133
 1323 07b1 0A       		.byte	0xa
 1324 07b2 0801     		.2byte	0x108
 1325 07b4 BE020000 		.4byte	0x2be
 1326 07b8 19       		.uleb128 0x19
 1327 07b9 9B020000 		.4byte	.LASF134
 1328 07bd 0A       		.byte	0xa
 1329 07be 0F01     		.2byte	0x10f
 1330 07c0 E0000000 		.4byte	0xe0
 1331 07c4 19       		.uleb128 0x19
 1332 07c5 13020000 		.4byte	.LASF135
 1333 07c9 0A       		.byte	0xa
 1334 07ca 1601     		.2byte	0x116
 1335 07cc F5070000 		.4byte	0x7f5
 1336 07d0 19       		.uleb128 0x19
 1337 07d1 10000000 		.4byte	.LASF136
 1338 07d5 0A       		.byte	0xa
 1339 07d6 1E01     		.2byte	0x11e
 1340 07d8 20080000 		.4byte	0x820
 1341 07dc 19       		.uleb128 0x19
 1342 07dd 71030000 		.4byte	.LASF137
 1343 07e1 0A       		.byte	0xa
 1344 07e2 2701     		.2byte	0x127
 1345 07e4 57080000 		.4byte	0x857
 1346 07e8 19       		.uleb128 0x19
 1347 07e9 CB010000 		.4byte	.LASF138
 1348 07ed 0A       		.byte	0xa
 1349 07ee 2F01     		.2byte	0x12f
 1350 07f0 C9020000 		.4byte	0x2c9
 1351 07f4 00       		.byte	0
 1352 07f5 06       		.uleb128 0x6
 1353 07f6 04       		.byte	0x4
 1354 07f7 EE030000 		.4byte	0x3ee
 1355 07fb 0A       		.uleb128 0xa
 1356 07fc D8030000 		.4byte	.LASF139
 1357 0800 0C       		.byte	0xc
 1358 0801 0F       		.byte	0xf
 1359 0802 34       		.byte	0x34
 1360 0803 20080000 		.4byte	0x820
 1361 0807 0B       		.uleb128 0xb
 1362 0808 D0070000 		.4byte	.LASF140
 1363 080c 0F       		.byte	0xf
ARM GAS  C:\Users\jo\AppData\Local\Temp\ccPkvB6H.s 			page 25


 1364 080d 35       		.byte	0x35
 1365 080e 23040000 		.4byte	0x423
 1366 0812 00       		.byte	0
 1367 0813 0B       		.uleb128 0xb
 1368 0814 D6060000 		.4byte	.LASF141
 1369 0818 0F       		.byte	0xf
 1370 0819 37       		.byte	0x37
 1371 081a D4020000 		.4byte	0x2d4
 1372 081e 08       		.byte	0x8
 1373 081f 00       		.byte	0
 1374 0820 06       		.uleb128 0x6
 1375 0821 04       		.byte	0x4
 1376 0822 FB070000 		.4byte	0x7fb
 1377 0826 0A       		.uleb128 0xa
 1378 0827 EB070000 		.4byte	.LASF142
 1379 082b 10       		.byte	0x10
 1380 082c 10       		.byte	0x10
 1381 082d 39       		.byte	0x39
 1382 082e 57080000 		.4byte	0x857
 1383 0832 0B       		.uleb128 0xb
 1384 0833 AC040000 		.4byte	.LASF143
 1385 0837 10       		.byte	0x10
 1386 0838 3A       		.byte	0x3a
 1387 0839 23040000 		.4byte	0x423
 1388 083d 00       		.byte	0
 1389 083e 0B       		.uleb128 0xb
 1390 083f F8000000 		.4byte	.LASF144
 1391 0843 10       		.byte	0x10
 1392 0844 3C       		.byte	0x3c
 1393 0845 F9030000 		.4byte	0x3f9
 1394 0849 08       		.byte	0x8
 1395 084a 0B       		.uleb128 0xb
 1396 084b FC090000 		.4byte	.LASF145
 1397 084f 10       		.byte	0x10
 1398 0850 3E       		.byte	0x3e
 1399 0851 89080000 		.4byte	0x889
 1400 0855 0C       		.byte	0xc
 1401 0856 00       		.byte	0
 1402 0857 06       		.uleb128 0x6
 1403 0858 04       		.byte	0x4
 1404 0859 26080000 		.4byte	0x826
 1405 085d 06       		.uleb128 0x6
 1406 085e 04       		.byte	0x4
 1407 085f 40060000 		.4byte	0x640
 1408 0863 06       		.uleb128 0x6
 1409 0864 04       		.byte	0x4
 1410 0865 D6040000 		.4byte	0x4d6
 1411 0869 0C       		.uleb128 0xc
 1412 086a EF000000 		.4byte	0xef
 1413 086e 08       		.uleb128 0x8
 1414 086f 40060000 		.4byte	0x640
 1415 0873 7E080000 		.4byte	0x87e
 1416 0877 09       		.uleb128 0x9
 1417 0878 D9000000 		.4byte	0xd9
 1418 087c 1B       		.byte	0x1b
 1419 087d 00       		.byte	0
 1420 087e 03       		.uleb128 0x3
ARM GAS  C:\Users\jo\AppData\Local\Temp\ccPkvB6H.s 			page 26


 1421 087f 44080000 		.4byte	.LASF146
 1422 0883 10       		.byte	0x10
 1423 0884 34       		.byte	0x34
 1424 0885 26080000 		.4byte	0x826
 1425 0889 06       		.uleb128 0x6
 1426 088a 04       		.byte	0x4
 1427 088b 7E080000 		.4byte	0x87e
 1428 088f 04       		.uleb128 0x4
 1429 0890 01       		.byte	0x1
 1430 0891 02       		.byte	0x2
 1431 0892 6C020000 		.4byte	.LASF147
 1432 0896 03       		.uleb128 0x3
 1433 0897 B2090000 		.4byte	.LASF148
 1434 089b 11       		.byte	0x11
 1435 089c 3F       		.byte	0x3f
 1436 089d 4B020000 		.4byte	0x24b
 1437 08a1 03       		.uleb128 0x3
 1438 08a2 C3050000 		.4byte	.LASF149
 1439 08a6 11       		.byte	0x11
 1440 08a7 41       		.byte	0x41
 1441 08a8 56020000 		.4byte	0x256
 1442 08ac 03       		.uleb128 0x3
 1443 08ad 8A070000 		.4byte	.LASF150
 1444 08b1 11       		.byte	0x11
 1445 08b2 43       		.byte	0x43
 1446 08b3 6C020000 		.4byte	0x26c
 1447 08b7 0A       		.uleb128 0xa
 1448 08b8 82070000 		.4byte	.LASF151
 1449 08bc 04       		.byte	0x4
 1450 08bd 12       		.byte	0x12
 1451 08be 2C       		.byte	0x2c
 1452 08bf D0080000 		.4byte	0x8d0
 1453 08c3 0B       		.uleb128 0xb
 1454 08c4 5A090000 		.4byte	.LASF152
 1455 08c8 12       		.byte	0x12
 1456 08c9 2D       		.byte	0x2d
 1457 08ca AC080000 		.4byte	0x8ac
 1458 08ce 00       		.byte	0
 1459 08cf 00       		.byte	0
 1460 08d0 0A       		.uleb128 0xa
 1461 08d1 4F070000 		.4byte	.LASF153
 1462 08d5 10       		.byte	0x10
 1463 08d6 13       		.byte	0x13
 1464 08d7 33       		.byte	0x33
 1465 08d8 19090000 		.4byte	0x919
 1466 08dc 0B       		.uleb128 0xb
 1467 08dd 9D010000 		.4byte	.LASF154
 1468 08e1 13       		.byte	0x13
 1469 08e2 34       		.byte	0x34
 1470 08e3 96080000 		.4byte	0x896
 1471 08e7 00       		.byte	0
 1472 08e8 0B       		.uleb128 0xb
 1473 08e9 62000000 		.4byte	.LASF155
 1474 08ed 13       		.byte	0x13
 1475 08ee 35       		.byte	0x35
 1476 08ef 96080000 		.4byte	0x896
 1477 08f3 01       		.byte	0x1
ARM GAS  C:\Users\jo\AppData\Local\Temp\ccPkvB6H.s 			page 27


 1478 08f4 0B       		.uleb128 0xb
 1479 08f5 B4020000 		.4byte	.LASF156
 1480 08f9 13       		.byte	0x13
 1481 08fa 36       		.byte	0x36
 1482 08fb A1080000 		.4byte	0x8a1
 1483 08ff 02       		.byte	0x2
 1484 0900 0B       		.uleb128 0xb
 1485 0901 76000000 		.4byte	.LASF157
 1486 0905 13       		.byte	0x13
 1487 0906 37       		.byte	0x37
 1488 0907 B7080000 		.4byte	0x8b7
 1489 090b 04       		.byte	0x4
 1490 090c 0B       		.uleb128 0xb
 1491 090d 26030000 		.4byte	.LASF158
 1492 0911 13       		.byte	0x13
 1493 0912 38       		.byte	0x38
 1494 0913 FA000000 		.4byte	0xfa
 1495 0917 08       		.byte	0x8
 1496 0918 00       		.byte	0
 1497 0919 1A       		.uleb128 0x1a
 1498 091a 6E070000 		.4byte	.LASF159
 1499 091e 6406     		.2byte	0x664
 1500 0920 14       		.byte	0x14
 1501 0921 3A       		.byte	0x3a
 1502 0922 7F090000 		.4byte	0x97f
 1503 0926 0B       		.uleb128 0xb
 1504 0927 D4000000 		.4byte	.LASF160
 1505 092b 14       		.byte	0x14
 1506 092c 3B       		.byte	0x3b
 1507 092d 25000000 		.4byte	0x25
 1508 0931 00       		.byte	0
 1509 0932 0B       		.uleb128 0xb
 1510 0933 CC090000 		.4byte	.LASF161
 1511 0937 14       		.byte	0x14
 1512 0938 3C       		.byte	0x3c
 1513 0939 25000000 		.4byte	0x25
 1514 093d 04       		.byte	0x4
 1515 093e 0B       		.uleb128 0xb
 1516 093f 5A040000 		.4byte	.LASF162
 1517 0943 14       		.byte	0x14
 1518 0944 3D       		.byte	0x3d
 1519 0945 7F090000 		.4byte	0x97f
 1520 0949 08       		.byte	0x8
 1521 094a 1B       		.uleb128 0x1b
 1522 094b 74050000 		.4byte	.LASF163
 1523 094f 14       		.byte	0x14
 1524 0950 3E       		.byte	0x3e
 1525 0951 25000000 		.4byte	0x25
 1526 0955 3C06     		.2byte	0x63c
 1527 0957 1B       		.uleb128 0x1b
 1528 0958 3A070000 		.4byte	.LASF164
 1529 095c 14       		.byte	0x14
 1530 095d 3F       		.byte	0x3f
 1531 095e 25000000 		.4byte	0x25
 1532 0962 4006     		.2byte	0x640
 1533 0964 1B       		.uleb128 0x1b
 1534 0965 77020000 		.4byte	.LASF165
ARM GAS  C:\Users\jo\AppData\Local\Temp\ccPkvB6H.s 			page 28


 1535 0969 14       		.byte	0x14
 1536 096a 40       		.byte	0x40
 1537 096b D0080000 		.4byte	0x8d0
 1538 096f 4406     		.2byte	0x644
 1539 0971 1B       		.uleb128 0x1b
 1540 0972 EF030000 		.4byte	.LASF166
 1541 0976 14       		.byte	0x14
 1542 0977 41       		.byte	0x41
 1543 0978 D0080000 		.4byte	0x8d0
 1544 097c 5406     		.2byte	0x654
 1545 097e 00       		.byte	0
 1546 097f 08       		.uleb128 0x8
 1547 0980 E8000000 		.4byte	0xe8
 1548 0984 90090000 		.4byte	0x990
 1549 0988 1C       		.uleb128 0x1c
 1550 0989 D9000000 		.4byte	0xd9
 1551 098d 3306     		.2byte	0x633
 1552 098f 00       		.byte	0
 1553 0990 03       		.uleb128 0x3
 1554 0991 B7050000 		.4byte	.LASF167
 1555 0995 15       		.byte	0x15
 1556 0996 3D       		.byte	0x3d
 1557 0997 19090000 		.4byte	0x919
 1558 099b 06       		.uleb128 0x6
 1559 099c 04       		.byte	0x4
 1560 099d 90090000 		.4byte	0x990
 1561 09a1 03       		.uleb128 0x3
 1562 09a2 6D010000 		.4byte	.LASF168
 1563 09a6 16       		.byte	0x16
 1564 09a7 89       		.byte	0x89
 1565 09a8 AC090000 		.4byte	0x9ac
 1566 09ac 0A       		.uleb128 0xa
 1567 09ad 04070000 		.4byte	.LASF169
 1568 09b1 4C       		.byte	0x4c
 1569 09b2 16       		.byte	0x16
 1570 09b3 8C       		.byte	0x8c
 1571 09b4 9D0A0000 		.4byte	0xa9d
 1572 09b8 0B       		.uleb128 0xb
 1573 09b9 05030000 		.4byte	.LASF170
 1574 09bd 16       		.byte	0x16
 1575 09be 8D       		.byte	0x8d
 1576 09bf 25000000 		.4byte	0x25
 1577 09c3 00       		.byte	0
 1578 09c4 0B       		.uleb128 0xb
 1579 09c5 F0000000 		.4byte	.LASF171
 1580 09c9 16       		.byte	0x16
 1581 09ca 8E       		.byte	0x8e
 1582 09cb E2000000 		.4byte	0xe2
 1583 09cf 04       		.byte	0x4
 1584 09d0 0B       		.uleb128 0xb
 1585 09d1 E4000000 		.4byte	.LASF172
 1586 09d5 16       		.byte	0x16
 1587 09d6 8F       		.byte	0x8f
 1588 09d7 25000000 		.4byte	0x25
 1589 09db 08       		.byte	0x8
 1590 09dc 0B       		.uleb128 0xb
 1591 09dd 91050000 		.4byte	.LASF173
ARM GAS  C:\Users\jo\AppData\Local\Temp\ccPkvB6H.s 			page 29


 1592 09e1 16       		.byte	0x16
 1593 09e2 90       		.byte	0x90
 1594 09e3 E2000000 		.4byte	0xe2
 1595 09e7 0C       		.byte	0xc
 1596 09e8 0B       		.uleb128 0xb
 1597 09e9 AB020000 		.4byte	.LASF174
 1598 09ed 16       		.byte	0x16
 1599 09ee 91       		.byte	0x91
 1600 09ef E2000000 		.4byte	0xe2
 1601 09f3 10       		.byte	0x10
 1602 09f4 0B       		.uleb128 0xb
 1603 09f5 A2020000 		.4byte	.LASF175
 1604 09f9 16       		.byte	0x16
 1605 09fa 92       		.byte	0x92
 1606 09fb E2000000 		.4byte	0xe2
 1607 09ff 14       		.byte	0x14
 1608 0a00 0B       		.uleb128 0xb
 1609 0a01 BD020000 		.4byte	.LASF176
 1610 0a05 16       		.byte	0x16
 1611 0a06 93       		.byte	0x93
 1612 0a07 E2000000 		.4byte	0xe2
 1613 0a0b 18       		.byte	0x18
 1614 0a0c 0B       		.uleb128 0xb
 1615 0a0d 2F020000 		.4byte	.LASF177
 1616 0a11 16       		.byte	0x16
 1617 0a12 94       		.byte	0x94
 1618 0a13 25000000 		.4byte	0x25
 1619 0a17 1C       		.byte	0x1c
 1620 0a18 0B       		.uleb128 0xb
 1621 0a19 4C060000 		.4byte	.LASF178
 1622 0a1d 16       		.byte	0x16
 1623 0a1e 96       		.byte	0x96
 1624 0a1f 7B000000 		.4byte	0x7b
 1625 0a23 20       		.byte	0x20
 1626 0a24 0B       		.uleb128 0xb
 1627 0a25 C6020000 		.4byte	.LASF179
 1628 0a29 16       		.byte	0x16
 1629 0a2a 97       		.byte	0x97
 1630 0a2b E2000000 		.4byte	0xe2
 1631 0a2f 24       		.byte	0x24
 1632 0a30 0B       		.uleb128 0xb
 1633 0a31 EF050000 		.4byte	.LASF180
 1634 0a35 16       		.byte	0x16
 1635 0a36 98       		.byte	0x98
 1636 0a37 E2000000 		.4byte	0xe2
 1637 0a3b 28       		.byte	0x28
 1638 0a3c 0B       		.uleb128 0xb
 1639 0a3d 2F050000 		.4byte	.LASF181
 1640 0a41 16       		.byte	0x16
 1641 0a42 99       		.byte	0x99
 1642 0a43 E2000000 		.4byte	0xe2
 1643 0a47 2C       		.byte	0x2c
 1644 0a48 0B       		.uleb128 0xb
 1645 0a49 FC020000 		.4byte	.LASF182
 1646 0a4d 16       		.byte	0x16
 1647 0a4e 9A       		.byte	0x9a
 1648 0a4f E2000000 		.4byte	0xe2
ARM GAS  C:\Users\jo\AppData\Local\Temp\ccPkvB6H.s 			page 30


 1649 0a53 30       		.byte	0x30
 1650 0a54 0B       		.uleb128 0xb
 1651 0a55 F4070000 		.4byte	.LASF183
 1652 0a59 16       		.byte	0x16
 1653 0a5a 9B       		.byte	0x9b
 1654 0a5b E2000000 		.4byte	0xe2
 1655 0a5f 34       		.byte	0x34
 1656 0a60 0B       		.uleb128 0xb
 1657 0a61 B3010000 		.4byte	.LASF184
 1658 0a65 16       		.byte	0x16
 1659 0a66 9F       		.byte	0x9f
 1660 0a67 E2000000 		.4byte	0xe2
 1661 0a6b 38       		.byte	0x38
 1662 0a6c 0B       		.uleb128 0xb
 1663 0a6d 1B060000 		.4byte	.LASF185
 1664 0a71 16       		.byte	0x16
 1665 0a72 A0       		.byte	0xa0
 1666 0a73 E2000000 		.4byte	0xe2
 1667 0a77 3C       		.byte	0x3c
 1668 0a78 0B       		.uleb128 0xb
 1669 0a79 C2000000 		.4byte	.LASF186
 1670 0a7d 16       		.byte	0x16
 1671 0a7e A1       		.byte	0xa1
 1672 0a7f E2000000 		.4byte	0xe2
 1673 0a83 40       		.byte	0x40
 1674 0a84 0B       		.uleb128 0xb
 1675 0a85 46030000 		.4byte	.LASF187
 1676 0a89 16       		.byte	0x16
 1677 0a8a A2       		.byte	0xa2
 1678 0a8b E2000000 		.4byte	0xe2
 1679 0a8f 44       		.byte	0x44
 1680 0a90 0B       		.uleb128 0xb
 1681 0a91 DB020000 		.4byte	.LASF188
 1682 0a95 16       		.byte	0x16
 1683 0a96 A3       		.byte	0xa3
 1684 0a97 E2000000 		.4byte	0xe2
 1685 0a9b 48       		.byte	0x48
 1686 0a9c 00       		.byte	0
 1687 0a9d 03       		.uleb128 0x3
 1688 0a9e 4C040000 		.4byte	.LASF189
 1689 0aa2 16       		.byte	0x16
 1690 0aa3 A8       		.byte	0xa8
 1691 0aa4 A80A0000 		.4byte	0xaa8
 1692 0aa8 0A       		.uleb128 0xa
 1693 0aa9 D9050000 		.4byte	.LASF190
 1694 0aad 50       		.byte	0x50
 1695 0aae 16       		.byte	0x16
 1696 0aaf AB       		.byte	0xab
 1697 0ab0 CD0A0000 		.4byte	0xacd
 1698 0ab4 0B       		.uleb128 0xb
 1699 0ab5 86030000 		.4byte	.LASF191
 1700 0ab9 16       		.byte	0x16
 1701 0aba AC       		.byte	0xac
 1702 0abb 9B090000 		.4byte	0x99b
 1703 0abf 00       		.byte	0
 1704 0ac0 0B       		.uleb128 0xb
 1705 0ac1 A7030000 		.4byte	.LASF192
ARM GAS  C:\Users\jo\AppData\Local\Temp\ccPkvB6H.s 			page 31


 1706 0ac5 16       		.byte	0x16
 1707 0ac6 AD       		.byte	0xad
 1708 0ac7 A1090000 		.4byte	0x9a1
 1709 0acb 04       		.byte	0x4
 1710 0acc 00       		.byte	0
 1711 0acd 06       		.uleb128 0x6
 1712 0ace 04       		.byte	0x4
 1713 0acf 9D0A0000 		.4byte	0xa9d
 1714 0ad3 03       		.uleb128 0x3
 1715 0ad4 DC060000 		.4byte	.LASF193
 1716 0ad8 17       		.byte	0x17
 1717 0ad9 3A       		.byte	0x3a
 1718 0ada DE0A0000 		.4byte	0xade
 1719 0ade 0A       		.uleb128 0xa
 1720 0adf A7070000 		.4byte	.LASF194
 1721 0ae3 24       		.byte	0x24
 1722 0ae4 17       		.byte	0x17
 1723 0ae5 3F       		.byte	0x3f
 1724 0ae6 330B0000 		.4byte	0xb33
 1725 0aea 0B       		.uleb128 0xb
 1726 0aeb FE070000 		.4byte	.LASF195
 1727 0aef 17       		.byte	0x17
 1728 0af0 41       		.byte	0x41
 1729 0af1 680B0000 		.4byte	0xb68
 1730 0af5 00       		.byte	0
 1731 0af6 0B       		.uleb128 0xb
 1732 0af7 62010000 		.4byte	.LASF196
 1733 0afb 17       		.byte	0x17
 1734 0afc 43       		.byte	0x43
 1735 0afd E2000000 		.4byte	0xe2
 1736 0b01 08       		.byte	0x8
 1737 0b02 0B       		.uleb128 0xb
 1738 0b03 5C050000 		.4byte	.LASF197
 1739 0b07 17       		.byte	0x17
 1740 0b08 45       		.byte	0x45
 1741 0b09 E2000000 		.4byte	0xe2
 1742 0b0d 0C       		.byte	0xc
 1743 0b0e 0B       		.uleb128 0xb
 1744 0b0f 10040000 		.4byte	.LASF198
 1745 0b13 17       		.byte	0x17
 1746 0b14 47       		.byte	0x47
 1747 0b15 37000000 		.4byte	0x37
 1748 0b19 10       		.byte	0x10
 1749 0b1a 0B       		.uleb128 0xb
 1750 0b1b B7060000 		.4byte	.LASF199
 1751 0b1f 17       		.byte	0x17
 1752 0b20 49       		.byte	0x49
 1753 0b21 330B0000 		.4byte	0xb33
 1754 0b25 14       		.byte	0x14
 1755 0b26 0B       		.uleb128 0xb
 1756 0b27 89040000 		.4byte	.LASF200
 1757 0b2b 17       		.byte	0x17
 1758 0b2c 4B       		.byte	0x4b
 1759 0b2d 8F0B0000 		.4byte	0xb8f
 1760 0b31 18       		.byte	0x18
 1761 0b32 00       		.byte	0
 1762 0b33 03       		.uleb128 0x3
ARM GAS  C:\Users\jo\AppData\Local\Temp\ccPkvB6H.s 			page 32


 1763 0b34 C4040000 		.4byte	.LASF201
 1764 0b38 17       		.byte	0x17
 1765 0b39 3C       		.byte	0x3c
 1766 0b3a 3E0B0000 		.4byte	0xb3e
 1767 0b3e 06       		.uleb128 0x6
 1768 0b3f 04       		.byte	0x4
 1769 0b40 440B0000 		.4byte	0xb44
 1770 0b44 1D       		.uleb128 0x1d
 1771 0b45 25000000 		.4byte	0x25
 1772 0b49 5D0B0000 		.4byte	0xb5d
 1773 0b4d 11       		.uleb128 0x11
 1774 0b4e CD0A0000 		.4byte	0xacd
 1775 0b52 11       		.uleb128 0x11
 1776 0b53 5D0B0000 		.4byte	0xb5d
 1777 0b57 11       		.uleb128 0x11
 1778 0b58 EF000000 		.4byte	0xef
 1779 0b5c 00       		.byte	0
 1780 0b5d 06       		.uleb128 0x6
 1781 0b5e 04       		.byte	0x4
 1782 0b5f 630B0000 		.4byte	0xb63
 1783 0b63 07       		.uleb128 0x7
 1784 0b64 D30A0000 		.4byte	0xad3
 1785 0b68 16       		.uleb128 0x16
 1786 0b69 08       		.byte	0x8
 1787 0b6a 17       		.byte	0x17
 1788 0b6b 41       		.byte	0x41
 1789 0b6c 890B0000 		.4byte	0xb89
 1790 0b70 0B       		.uleb128 0xb
 1791 0b71 580A0000 		.4byte	.LASF202
 1792 0b75 17       		.byte	0x17
 1793 0b76 41       		.byte	0x41
 1794 0b77 890B0000 		.4byte	0xb89
 1795 0b7b 00       		.byte	0
 1796 0b7c 0B       		.uleb128 0xb
 1797 0b7d EC090000 		.4byte	.LASF203
 1798 0b81 17       		.byte	0x17
 1799 0b82 41       		.byte	0x41
 1800 0b83 890B0000 		.4byte	0xb89
 1801 0b87 04       		.byte	0x4
 1802 0b88 00       		.byte	0
 1803 0b89 06       		.uleb128 0x6
 1804 0b8a 04       		.byte	0x4
 1805 0b8b D30A0000 		.4byte	0xad3
 1806 0b8f 08       		.uleb128 0x8
 1807 0b90 E8000000 		.4byte	0xe8
 1808 0b94 9F0B0000 		.4byte	0xb9f
 1809 0b98 09       		.uleb128 0x9
 1810 0b99 D9000000 		.4byte	0xd9
 1811 0b9d 08       		.byte	0x8
 1812 0b9e 00       		.byte	0
 1813 0b9f 06       		.uleb128 0x6
 1814 0ba0 04       		.byte	0x4
 1815 0ba1 A50B0000 		.4byte	0xba5
 1816 0ba5 1E       		.uleb128 0x1e
 1817 0ba6 16       		.uleb128 0x16
 1818 0ba7 08       		.byte	0x8
 1819 0ba8 01       		.byte	0x1
ARM GAS  C:\Users\jo\AppData\Local\Temp\ccPkvB6H.s 			page 33


 1820 0ba9 3C       		.byte	0x3c
 1821 0baa C70B0000 		.4byte	0xbc7
 1822 0bae 0B       		.uleb128 0xb
 1823 0baf AE010000 		.4byte	.LASF204
 1824 0bb3 01       		.byte	0x1
 1825 0bb4 3C       		.byte	0x3c
 1826 0bb5 890B0000 		.4byte	0xb89
 1827 0bb9 00       		.byte	0
 1828 0bba 0B       		.uleb128 0xb
 1829 0bbb 44000000 		.4byte	.LASF205
 1830 0bbf 01       		.byte	0x1
 1831 0bc0 3C       		.byte	0x3c
 1832 0bc1 890B0000 		.4byte	0xb89
 1833 0bc5 04       		.byte	0x4
 1834 0bc6 00       		.byte	0
 1835 0bc7 1F       		.uleb128 0x1f
 1836 0bc8 E8020000 		.4byte	.LASF206
 1837 0bcc 01       		.byte	0x1
 1838 0bcd 3E       		.byte	0x3e
 1839 0bce 890B0000 		.4byte	0xb89
 1840 0bd2 00000000 		.4byte	.LFB260
 1841 0bd6 2C000000 		.4byte	.LFE260-.LFB260
 1842 0bda 01       		.uleb128 0x1
 1843 0bdb 9C       		.byte	0x9c
 1844 0bdc 210C0000 		.4byte	0xc21
 1845 0be0 20       		.uleb128 0x20
 1846 0be1 65787400 		.ascii	"ext\000"
 1847 0be5 01       		.byte	0x1
 1848 0be6 3E       		.byte	0x3e
 1849 0be7 EF000000 		.4byte	0xef
 1850 0beb 00000000 		.4byte	.LLST0
 1851 0bef 21       		.uleb128 0x21
 1852 0bf0 6D7400   		.ascii	"mt\000"
 1853 0bf3 01       		.byte	0x1
 1854 0bf4 40       		.byte	0x40
 1855 0bf5 890B0000 		.4byte	0xb89
 1856 0bf9 2C000000 		.4byte	.LLST1
 1857 0bfd 21       		.uleb128 0x21
 1858 0bfe 6900     		.ascii	"i\000"
 1859 0c00 01       		.byte	0x1
 1860 0c01 41       		.byte	0x41
 1861 0c02 25000000 		.4byte	0x25
 1862 0c06 4A000000 		.4byte	.LLST2
 1863 0c0a 22       		.uleb128 0x22
 1864 0c0b 1A000000 		.4byte	.LVL5
 1865 0c0f F20E0000 		.4byte	0xef2
 1866 0c13 23       		.uleb128 0x23
 1867 0c14 01       		.uleb128 0x1
 1868 0c15 51       		.byte	0x51
 1869 0c16 02       		.uleb128 0x2
 1870 0c17 75       		.byte	0x75
 1871 0c18 00       		.sleb128 0
 1872 0c19 23       		.uleb128 0x23
 1873 0c1a 01       		.uleb128 0x1
 1874 0c1b 50       		.byte	0x50
 1875 0c1c 02       		.uleb128 0x2
 1876 0c1d 74       		.byte	0x74
ARM GAS  C:\Users\jo\AppData\Local\Temp\ccPkvB6H.s 			page 34


 1877 0c1e 18       		.sleb128 24
 1878 0c1f 00       		.byte	0
 1879 0c20 00       		.byte	0
 1880 0c21 1F       		.uleb128 0x1f
 1881 0c22 F8050000 		.4byte	.LASF207
 1882 0c26 01       		.byte	0x1
 1883 0c27 4F       		.byte	0x4f
 1884 0c28 890B0000 		.4byte	0xb89
 1885 0c2c 00000000 		.4byte	.LFB261
 1886 0c30 3C000000 		.4byte	.LFE261-.LFB261
 1887 0c34 01       		.uleb128 0x1
 1888 0c35 9C       		.byte	0x9c
 1889 0c36 D10C0000 		.4byte	0xcd1
 1890 0c3a 24       		.uleb128 0x24
 1891 0c3b CB070000 		.4byte	.LASF208
 1892 0c3f 01       		.byte	0x1
 1893 0c40 4F       		.byte	0x4f
 1894 0c41 E2000000 		.4byte	0xe2
 1895 0c45 68000000 		.4byte	.LLST3
 1896 0c49 21       		.uleb128 0x21
 1897 0c4a 6D7400   		.ascii	"mt\000"
 1898 0c4d 01       		.byte	0x1
 1899 0c4e 51       		.byte	0x51
 1900 0c4f 890B0000 		.4byte	0xb89
 1901 0c53 BB000000 		.4byte	.LLST4
 1902 0c57 25       		.uleb128 0x25
 1903 0c58 00000000 		.4byte	.Ldebug_ranges0+0
 1904 0c5c A60C0000 		.4byte	0xca6
 1905 0c60 21       		.uleb128 0x21
 1906 0c61 637000   		.ascii	"cp\000"
 1907 0c64 01       		.byte	0x1
 1908 0c65 56       		.byte	0x56
 1909 0c66 E2000000 		.4byte	0xe2
 1910 0c6a CE000000 		.4byte	.LLST5
 1911 0c6e 26       		.uleb128 0x26
 1912 0c6f 0E000000 		.4byte	.LVL9
 1913 0c73 0C0F0000 		.4byte	0xf0c
 1914 0c77 890C0000 		.4byte	0xc89
 1915 0c7b 23       		.uleb128 0x23
 1916 0c7c 01       		.uleb128 0x1
 1917 0c7d 51       		.byte	0x51
 1918 0c7e 02       		.uleb128 0x2
 1919 0c7f 08       		.byte	0x8
 1920 0c80 2E       		.byte	0x2e
 1921 0c81 23       		.uleb128 0x23
 1922 0c82 01       		.uleb128 0x1
 1923 0c83 50       		.byte	0x50
 1924 0c84 03       		.uleb128 0x3
 1925 0c85 F3       		.byte	0xf3
 1926 0c86 01       		.uleb128 0x1
 1927 0c87 50       		.byte	0x50
 1928 0c88 00       		.byte	0
 1929 0c89 27       		.uleb128 0x27
 1930 0c8a 16000000 		.4byte	.LVL11
 1931 0c8e C70B0000 		.4byte	0xbc7
 1932 0c92 28       		.uleb128 0x28
 1933 0c93 2E000000 		.4byte	.LVL15
ARM GAS  C:\Users\jo\AppData\Local\Temp\ccPkvB6H.s 			page 35


 1934 0c97 C70B0000 		.4byte	0xbc7
 1935 0c9b 23       		.uleb128 0x23
 1936 0c9c 01       		.uleb128 0x1
 1937 0c9d 50       		.byte	0x50
 1938 0c9e 05       		.uleb128 0x5
 1939 0c9f 03       		.byte	0x3
 1940 0ca0 08000000 		.4byte	.LC1
 1941 0ca4 00       		.byte	0
 1942 0ca5 00       		.byte	0
 1943 0ca6 29       		.uleb128 0x29
 1944 0ca7 24000000 		.4byte	.LVL14
 1945 0cab C70B0000 		.4byte	0xbc7
 1946 0caf BD0C0000 		.4byte	0xcbd
 1947 0cb3 23       		.uleb128 0x23
 1948 0cb4 01       		.uleb128 0x1
 1949 0cb5 50       		.byte	0x50
 1950 0cb6 05       		.uleb128 0x5
 1951 0cb7 03       		.byte	0x3
 1952 0cb8 00000000 		.4byte	.LC0
 1953 0cbc 00       		.byte	0
 1954 0cbd 28       		.uleb128 0x28
 1955 0cbe 34000000 		.4byte	.LVL17
 1956 0cc2 C70B0000 		.4byte	0xbc7
 1957 0cc6 23       		.uleb128 0x23
 1958 0cc7 01       		.uleb128 0x1
 1959 0cc8 50       		.byte	0x50
 1960 0cc9 05       		.uleb128 0x5
 1961 0cca 03       		.byte	0x3
 1962 0ccb 00000000 		.4byte	.LC0
 1963 0ccf 00       		.byte	0
 1964 0cd0 00       		.byte	0
 1965 0cd1 1F       		.uleb128 0x1f
 1966 0cd2 20080000 		.4byte	.LASF209
 1967 0cd6 01       		.byte	0x1
 1968 0cd7 5E       		.byte	0x5e
 1969 0cd8 25000000 		.4byte	0x25
 1970 0cdc 00000000 		.4byte	.LFB262
 1971 0ce0 9A000000 		.4byte	.LFE262-.LFB262
 1972 0ce4 01       		.uleb128 0x1
 1973 0ce5 9C       		.byte	0x9c
 1974 0ce6 660E0000 		.4byte	0xe66
 1975 0cea 20       		.uleb128 0x20
 1976 0ceb 687300   		.ascii	"hs\000"
 1977 0cee 01       		.byte	0x1
 1978 0cef 5E       		.byte	0x5e
 1979 0cf0 CD0A0000 		.4byte	0xacd
 1980 0cf4 EE000000 		.4byte	.LLST6
 1981 0cf8 20       		.uleb128 0x20
 1982 0cf9 6D7400   		.ascii	"mt\000"
 1983 0cfc 01       		.byte	0x1
 1984 0cfd 5E       		.byte	0x5e
 1985 0cfe 5D0B0000 		.4byte	0xb5d
 1986 0d02 0C010000 		.4byte	.LLST7
 1987 0d06 24       		.uleb128 0x24
 1988 0d07 43040000 		.4byte	.LASF210
 1989 0d0b 01       		.byte	0x1
 1990 0d0c 5E       		.byte	0x5e
ARM GAS  C:\Users\jo\AppData\Local\Temp\ccPkvB6H.s 			page 36


 1991 0d0d EF000000 		.4byte	0xef
 1992 0d11 5C010000 		.4byte	.LLST8
 1993 0d15 21       		.uleb128 0x21
 1994 0d16 666400   		.ascii	"fd\000"
 1995 0d19 01       		.byte	0x1
 1996 0d1a 60       		.byte	0x60
 1997 0d1b 25000000 		.4byte	0x25
 1998 0d1f 88010000 		.4byte	.LLST9
 1999 0d23 21       		.uleb128 0x21
 2000 0d24 676F7400 		.ascii	"got\000"
 2001 0d28 01       		.byte	0x1
 2002 0d29 61       		.byte	0x61
 2003 0d2a 25000000 		.4byte	0x25
 2004 0d2e BC010000 		.4byte	.LLST10
 2005 0d32 2A       		.uleb128 0x2a
 2006 0d33 F7090000 		.4byte	.LASF211
 2007 0d37 01       		.byte	0x1
 2008 0d38 62       		.byte	0x62
 2009 0d39 E2000000 		.4byte	0xe2
 2010 0d3d FB010000 		.4byte	.LLST11
 2011 0d41 2A       		.uleb128 0x2a
 2012 0d42 B3000000 		.4byte	.LASF212
 2013 0d46 01       		.byte	0x1
 2014 0d47 63       		.byte	0x63
 2015 0d48 7B000000 		.4byte	0x7b
 2016 0d4c 2F020000 		.4byte	.LLST12
 2017 0d50 2B       		.uleb128 0x2b
 2018 0d51 7300     		.ascii	"s\000"
 2019 0d53 01       		.byte	0x1
 2020 0d54 65       		.byte	0x65
 2021 0d55 62010000 		.4byte	0x162
 2022 0d59 03       		.uleb128 0x3
 2023 0d5a 91       		.byte	0x91
 2024 0d5b AC7F     		.sleb128 -84
 2025 0d5d 25       		.uleb128 0x25
 2026 0d5e 20000000 		.4byte	.Ldebug_ranges0+0x20
 2027 0d62 010E0000 		.4byte	0xe01
 2028 0d66 21       		.uleb128 0x21
 2029 0d67 726300   		.ascii	"rc\000"
 2030 0d6a 01       		.byte	0x1
 2031 0d6b 70       		.byte	0x70
 2032 0d6c 25000000 		.4byte	0x25
 2033 0d70 74020000 		.4byte	.LLST13
 2034 0d74 26       		.uleb128 0x26
 2035 0d75 2C000000 		.4byte	.LVL25
 2036 0d79 260F0000 		.4byte	0xf26
 2037 0d7d 8F0D0000 		.4byte	0xd8f
 2038 0d81 23       		.uleb128 0x23
 2039 0d82 01       		.uleb128 0x1
 2040 0d83 51       		.byte	0x51
 2041 0d84 03       		.uleb128 0x3
 2042 0d85 91       		.byte	0x91
 2043 0d86 AC7F     		.sleb128 -84
 2044 0d88 23       		.uleb128 0x23
 2045 0d89 01       		.uleb128 0x1
 2046 0d8a 50       		.byte	0x50
 2047 0d8b 02       		.uleb128 0x2
ARM GAS  C:\Users\jo\AppData\Local\Temp\ccPkvB6H.s 			page 37


 2048 0d8c 76       		.byte	0x76
 2049 0d8d 00       		.sleb128 0
 2050 0d8e 00       		.byte	0
 2051 0d8f 26       		.uleb128 0x26
 2052 0d90 3A000000 		.4byte	.LVL28
 2053 0d94 460F0000 		.4byte	0xf46
 2054 0d98 A90D0000 		.4byte	0xda9
 2055 0d9c 23       		.uleb128 0x23
 2056 0d9d 01       		.uleb128 0x1
 2057 0d9e 51       		.byte	0x51
 2058 0d9f 02       		.uleb128 0x2
 2059 0da0 08       		.byte	0x8
 2060 0da1 C8       		.byte	0xc8
 2061 0da2 23       		.uleb128 0x23
 2062 0da3 01       		.uleb128 0x1
 2063 0da4 50       		.byte	0x50
 2064 0da5 02       		.uleb128 0x2
 2065 0da6 77       		.byte	0x77
 2066 0da7 00       		.sleb128 0
 2067 0da8 00       		.byte	0
 2068 0da9 26       		.uleb128 0x26
 2069 0daa 46000000 		.4byte	.LVL29
 2070 0dae 5C0F0000 		.4byte	0xf5c
 2071 0db2 C30D0000 		.4byte	0xdc3
 2072 0db6 23       		.uleb128 0x23
 2073 0db7 01       		.uleb128 0x1
 2074 0db8 53       		.byte	0x53
 2075 0db9 02       		.uleb128 0x2
 2076 0dba 78       		.byte	0x78
 2077 0dbb 00       		.sleb128 0
 2078 0dbc 23       		.uleb128 0x23
 2079 0dbd 01       		.uleb128 0x1
 2080 0dbe 50       		.byte	0x50
 2081 0dbf 02       		.uleb128 0x2
 2082 0dc0 77       		.byte	0x77
 2083 0dc1 00       		.sleb128 0
 2084 0dc2 00       		.byte	0
 2085 0dc3 26       		.uleb128 0x26
 2086 0dc4 56000000 		.4byte	.LVL31
 2087 0dc8 7D0F0000 		.4byte	0xf7d
 2088 0dcc E30D0000 		.4byte	0xde3
 2089 0dd0 23       		.uleb128 0x23
 2090 0dd1 01       		.uleb128 0x1
 2091 0dd2 52       		.byte	0x52
 2092 0dd3 02       		.uleb128 0x2
 2093 0dd4 78       		.byte	0x78
 2094 0dd5 00       		.sleb128 0
 2095 0dd6 23       		.uleb128 0x23
 2096 0dd7 01       		.uleb128 0x1
 2097 0dd8 51       		.byte	0x51
 2098 0dd9 02       		.uleb128 0x2
 2099 0dda 75       		.byte	0x75
 2100 0ddb 00       		.sleb128 0
 2101 0ddc 23       		.uleb128 0x23
 2102 0ddd 01       		.uleb128 0x1
 2103 0dde 50       		.byte	0x50
 2104 0ddf 02       		.uleb128 0x2
ARM GAS  C:\Users\jo\AppData\Local\Temp\ccPkvB6H.s 			page 38


 2105 0de0 76       		.byte	0x76
 2106 0de1 00       		.sleb128 0
 2107 0de2 00       		.byte	0
 2108 0de3 26       		.uleb128 0x26
 2109 0de4 68000000 		.4byte	.LVL34
 2110 0de8 9C0F0000 		.4byte	0xf9c
 2111 0dec F70D0000 		.4byte	0xdf7
 2112 0df0 23       		.uleb128 0x23
 2113 0df1 01       		.uleb128 0x1
 2114 0df2 50       		.byte	0x50
 2115 0df3 02       		.uleb128 0x2
 2116 0df4 76       		.byte	0x76
 2117 0df5 00       		.sleb128 0
 2118 0df6 00       		.byte	0
 2119 0df7 27       		.uleb128 0x27
 2120 0df8 88000000 		.4byte	.LVL40
 2121 0dfc B10F0000 		.4byte	0xfb1
 2122 0e00 00       		.byte	0
 2123 0e01 26       		.uleb128 0x26
 2124 0e02 14000000 		.4byte	.LVL20
 2125 0e06 D50F0000 		.4byte	0xfd5
 2126 0e0a 160E0000 		.4byte	0xe16
 2127 0e0e 23       		.uleb128 0x23
 2128 0e0f 01       		.uleb128 0x1
 2129 0e10 50       		.byte	0x50
 2130 0e11 03       		.uleb128 0x3
 2131 0e12 0A       		.byte	0xa
 2132 0e13 B405     		.2byte	0x5b4
 2133 0e15 00       		.byte	0
 2134 0e16 26       		.uleb128 0x26
 2135 0e17 20000000 		.4byte	.LVL23
 2136 0e1b EA0F0000 		.4byte	0xfea
 2137 0e1f 310E0000 		.4byte	0xe31
 2138 0e23 23       		.uleb128 0x23
 2139 0e24 01       		.uleb128 0x1
 2140 0e25 51       		.byte	0x51
 2141 0e26 03       		.uleb128 0x3
 2142 0e27 0A       		.byte	0xa
 2143 0e28 0080     		.2byte	0x8000
 2144 0e2a 23       		.uleb128 0x23
 2145 0e2b 01       		.uleb128 0x1
 2146 0e2c 50       		.byte	0x50
 2147 0e2d 02       		.uleb128 0x2
 2148 0e2e 76       		.byte	0x76
 2149 0e2f 00       		.sleb128 0
 2150 0e30 00       		.byte	0
 2151 0e31 27       		.uleb128 0x27
 2152 0e32 6E000000 		.4byte	.LVL35
 2153 0e36 04100000 		.4byte	0x1004
 2154 0e3a 26       		.uleb128 0x26
 2155 0e3b 74000000 		.4byte	.LVL36
 2156 0e3f 19100000 		.4byte	0x1019
 2157 0e43 4E0E0000 		.4byte	0xe4e
 2158 0e47 23       		.uleb128 0x23
 2159 0e48 01       		.uleb128 0x1
 2160 0e49 50       		.byte	0x50
 2161 0e4a 02       		.uleb128 0x2
ARM GAS  C:\Users\jo\AppData\Local\Temp\ccPkvB6H.s 			page 39


 2162 0e4b 75       		.byte	0x75
 2163 0e4c 00       		.sleb128 0
 2164 0e4d 00       		.byte	0
 2165 0e4e 22       		.uleb128 0x22
 2166 0e4f 98000000 		.4byte	.LVL43
 2167 0e53 2A100000 		.4byte	0x102a
 2168 0e57 23       		.uleb128 0x23
 2169 0e58 01       		.uleb128 0x1
 2170 0e59 51       		.byte	0x51
 2171 0e5a 03       		.uleb128 0x3
 2172 0e5b 0A       		.byte	0xa
 2173 0e5c 9401     		.2byte	0x194
 2174 0e5e 23       		.uleb128 0x23
 2175 0e5f 01       		.uleb128 0x1
 2176 0e60 50       		.byte	0x50
 2177 0e61 02       		.uleb128 0x2
 2178 0e62 77       		.byte	0x77
 2179 0e63 00       		.sleb128 0
 2180 0e64 00       		.byte	0
 2181 0e65 00       		.byte	0
 2182 0e66 1F       		.uleb128 0x1f
 2183 0e67 5C080000 		.4byte	.LASF213
 2184 0e6b 01       		.byte	0x1
 2185 0e6c 95       		.byte	0x95
 2186 0e6d 25000000 		.4byte	0x25
 2187 0e71 00000000 		.4byte	.LFB263
 2188 0e75 04000000 		.4byte	.LFE263-.LFB263
 2189 0e79 01       		.uleb128 0x1
 2190 0e7a 9C       		.byte	0x9c
 2191 0e7b CA0E0000 		.4byte	0xeca
 2192 0e7f 20       		.uleb128 0x20
 2193 0e80 687300   		.ascii	"hs\000"
 2194 0e83 01       		.byte	0x1
 2195 0e84 95       		.byte	0x95
 2196 0e85 CD0A0000 		.4byte	0xacd
 2197 0e89 92020000 		.4byte	.LLST14
 2198 0e8d 20       		.uleb128 0x20
 2199 0e8e 6D7400   		.ascii	"mt\000"
 2200 0e91 01       		.byte	0x1
 2201 0e92 95       		.byte	0x95
 2202 0e93 5D0B0000 		.4byte	0xb5d
 2203 0e97 B3020000 		.4byte	.LLST15
 2204 0e9b 24       		.uleb128 0x24
 2205 0e9c 43040000 		.4byte	.LASF210
 2206 0ea0 01       		.byte	0x1
 2207 0ea1 95       		.byte	0x95
 2208 0ea2 EF000000 		.4byte	0xef
 2209 0ea6 D4020000 		.4byte	.LLST16
 2210 0eaa 28       		.uleb128 0x28
 2211 0eab 04000000 		.4byte	.LVL45
 2212 0eaf D10C0000 		.4byte	0xcd1
 2213 0eb3 23       		.uleb128 0x23
 2214 0eb4 01       		.uleb128 0x1
 2215 0eb5 52       		.byte	0x52
 2216 0eb6 03       		.uleb128 0x3
 2217 0eb7 F3       		.byte	0xf3
 2218 0eb8 01       		.uleb128 0x1
ARM GAS  C:\Users\jo\AppData\Local\Temp\ccPkvB6H.s 			page 40


 2219 0eb9 52       		.byte	0x52
 2220 0eba 23       		.uleb128 0x23
 2221 0ebb 01       		.uleb128 0x1
 2222 0ebc 51       		.byte	0x51
 2223 0ebd 03       		.uleb128 0x3
 2224 0ebe F3       		.byte	0xf3
 2225 0ebf 01       		.uleb128 0x1
 2226 0ec0 51       		.byte	0x51
 2227 0ec1 23       		.uleb128 0x23
 2228 0ec2 01       		.uleb128 0x1
 2229 0ec3 50       		.byte	0x50
 2230 0ec4 03       		.uleb128 0x3
 2231 0ec5 F3       		.byte	0xf3
 2232 0ec6 01       		.uleb128 0x1
 2233 0ec7 50       		.byte	0x50
 2234 0ec8 00       		.byte	0
 2235 0ec9 00       		.byte	0
 2236 0eca 2C       		.uleb128 0x2c
 2237 0ecb 3A050000 		.4byte	.LASF214
 2238 0ecf 18       		.byte	0x18
 2239 0ed0 A706     		.2byte	0x6a7
 2240 0ed2 82020000 		.4byte	0x282
 2241 0ed6 2D       		.uleb128 0x2d
 2242 0ed7 636800   		.ascii	"ch\000"
 2243 0eda 0A       		.byte	0xa
 2244 0edb 0902     		.2byte	0x209
 2245 0edd CB050000 		.4byte	0x5cb
 2246 0ee1 2E       		.uleb128 0x2e
 2247 0ee2 10030000 		.4byte	.LASF215
 2248 0ee6 01       		.byte	0x1
 2249 0ee7 3C       		.byte	0x3c
 2250 0ee8 A60B0000 		.4byte	0xba6
 2251 0eec 05       		.uleb128 0x5
 2252 0eed 03       		.byte	0x3
 2253 0eee 00000000 		.4byte	mediaTypeList
 2254 0ef2 2F       		.uleb128 0x2f
 2255 0ef3 10010000 		.4byte	.LASF216
 2256 0ef7 19       		.byte	0x19
 2257 0ef8 49       		.byte	0x49
 2258 0ef9 25000000 		.4byte	0x25
 2259 0efd 0C0F0000 		.4byte	0xf0c
 2260 0f01 11       		.uleb128 0x11
 2261 0f02 EF000000 		.4byte	0xef
 2262 0f06 11       		.uleb128 0x11
 2263 0f07 EF000000 		.4byte	0xef
 2264 0f0b 00       		.byte	0
 2265 0f0c 2F       		.uleb128 0x2f
 2266 0f0d B4040000 		.4byte	.LASF217
 2267 0f11 19       		.byte	0x19
 2268 0f12 26       		.byte	0x26
 2269 0f13 E2000000 		.4byte	0xe2
 2270 0f17 260F0000 		.4byte	0xf26
 2271 0f1b 11       		.uleb128 0x11
 2272 0f1c EF000000 		.4byte	0xef
 2273 0f20 11       		.uleb128 0x11
 2274 0f21 25000000 		.4byte	0x25
 2275 0f25 00       		.byte	0
ARM GAS  C:\Users\jo\AppData\Local\Temp\ccPkvB6H.s 			page 41


 2276 0f26 2F       		.uleb128 0x2f
 2277 0f27 83040000 		.4byte	.LASF218
 2278 0f2b 06       		.byte	0x6
 2279 0f2c 94       		.byte	0x94
 2280 0f2d 25000000 		.4byte	0x25
 2281 0f31 400F0000 		.4byte	0xf40
 2282 0f35 11       		.uleb128 0x11
 2283 0f36 25000000 		.4byte	0x25
 2284 0f3a 11       		.uleb128 0x11
 2285 0f3b 400F0000 		.4byte	0xf40
 2286 0f3f 00       		.byte	0
 2287 0f40 06       		.uleb128 0x6
 2288 0f41 04       		.byte	0x4
 2289 0f42 62010000 		.4byte	0x162
 2290 0f46 30       		.uleb128 0x30
 2291 0f47 3A060000 		.4byte	.LASF219
 2292 0f4b 16       		.byte	0x16
 2293 0f4c FA       		.byte	0xfa
 2294 0f4d 5C0F0000 		.4byte	0xf5c
 2295 0f51 11       		.uleb128 0x11
 2296 0f52 CD0A0000 		.4byte	0xacd
 2297 0f56 11       		.uleb128 0x11
 2298 0f57 25000000 		.4byte	0x25
 2299 0f5b 00       		.byte	0
 2300 0f5c 31       		.uleb128 0x31
 2301 0f5d 47050000 		.4byte	.LASF220
 2302 0f61 16       		.byte	0x16
 2303 0f62 0A01     		.2byte	0x10a
 2304 0f64 7D0F0000 		.4byte	0xf7d
 2305 0f68 11       		.uleb128 0x11
 2306 0f69 CD0A0000 		.4byte	0xacd
 2307 0f6d 11       		.uleb128 0x11
 2308 0f6e E2000000 		.4byte	0xe2
 2309 0f72 11       		.uleb128 0x11
 2310 0f73 E2000000 		.4byte	0xe2
 2311 0f77 11       		.uleb128 0x11
 2312 0f78 7B000000 		.4byte	0x7b
 2313 0f7c 00       		.byte	0
 2314 0f7d 2F       		.uleb128 0x2f
 2315 0f7e 7C060000 		.4byte	.LASF221
 2316 0f82 1A       		.byte	0x1a
 2317 0f83 09       		.byte	0x9
 2318 0f84 25000000 		.4byte	0x25
 2319 0f88 9C0F0000 		.4byte	0xf9c
 2320 0f8c 11       		.uleb128 0x11
 2321 0f8d 25000000 		.4byte	0x25
 2322 0f91 11       		.uleb128 0x11
 2323 0f92 E0000000 		.4byte	0xe0
 2324 0f96 11       		.uleb128 0x11
 2325 0f97 2C000000 		.4byte	0x2c
 2326 0f9b 00       		.byte	0
 2327 0f9c 2F       		.uleb128 0x2f
 2328 0f9d 82020000 		.4byte	.LASF222
 2329 0fa1 1A       		.byte	0x1a
 2330 0fa2 07       		.byte	0x7
 2331 0fa3 25000000 		.4byte	0x25
 2332 0fa7 B10F0000 		.4byte	0xfb1
ARM GAS  C:\Users\jo\AppData\Local\Temp\ccPkvB6H.s 			page 42


 2333 0fab 11       		.uleb128 0x11
 2334 0fac 25000000 		.4byte	0x25
 2335 0fb0 00       		.byte	0
 2336 0fb1 2F       		.uleb128 0x2f
 2337 0fb2 3B010000 		.4byte	.LASF223
 2338 0fb6 15       		.byte	0x15
 2339 0fb7 9E       		.byte	0x9e
 2340 0fb8 25000000 		.4byte	0x25
 2341 0fbc D50F0000 		.4byte	0xfd5
 2342 0fc0 11       		.uleb128 0x11
 2343 0fc1 9F0B0000 		.4byte	0xb9f
 2344 0fc5 11       		.uleb128 0x11
 2345 0fc6 2C000000 		.4byte	0x2c
 2346 0fca 11       		.uleb128 0x11
 2347 0fcb 2C000000 		.4byte	0x2c
 2348 0fcf 11       		.uleb128 0x11
 2349 0fd0 9B090000 		.4byte	0x99b
 2350 0fd4 00       		.byte	0
 2351 0fd5 2F       		.uleb128 0x2f
 2352 0fd6 7B070000 		.4byte	.LASF224
 2353 0fda 1B       		.byte	0x1b
 2354 0fdb 60       		.byte	0x60
 2355 0fdc E0000000 		.4byte	0xe0
 2356 0fe0 EA0F0000 		.4byte	0xfea
 2357 0fe4 11       		.uleb128 0x11
 2358 0fe5 2C000000 		.4byte	0x2c
 2359 0fe9 00       		.byte	0
 2360 0fea 2F       		.uleb128 0x2f
 2361 0feb 37080000 		.4byte	.LASF225
 2362 0fef 1A       		.byte	0x1a
 2363 0ff0 08       		.byte	0x8
 2364 0ff1 25000000 		.4byte	0x25
 2365 0ff5 04100000 		.4byte	0x1004
 2366 0ff9 11       		.uleb128 0x11
 2367 0ffa EF000000 		.4byte	0xef
 2368 0ffe 11       		.uleb128 0x11
 2369 0fff 25000000 		.4byte	0x25
 2370 1003 00       		.byte	0
 2371 1004 2F       		.uleb128 0x2f
 2372 1005 1B010000 		.4byte	.LASF226
 2373 1009 15       		.byte	0x15
 2374 100a CF       		.byte	0xcf
 2375 100b 25000000 		.4byte	0x25
 2376 100f 19100000 		.4byte	0x1019
 2377 1013 11       		.uleb128 0x11
 2378 1014 9B090000 		.4byte	0x99b
 2379 1018 00       		.byte	0
 2380 1019 30       		.uleb128 0x30
 2381 101a 7B090000 		.4byte	.LASF227
 2382 101e 1B       		.byte	0x1b
 2383 101f 55       		.byte	0x55
 2384 1020 2A100000 		.4byte	0x102a
 2385 1024 11       		.uleb128 0x11
 2386 1025 E0000000 		.4byte	0xe0
 2387 1029 00       		.byte	0
 2388 102a 32       		.uleb128 0x32
 2389 102b A0060000 		.4byte	.LASF231
ARM GAS  C:\Users\jo\AppData\Local\Temp\ccPkvB6H.s 			page 43


 2390 102f 16       		.byte	0x16
 2391 1030 1101     		.2byte	0x111
 2392 1032 11       		.uleb128 0x11
 2393 1033 CD0A0000 		.4byte	0xacd
 2394 1037 11       		.uleb128 0x11
 2395 1038 25000000 		.4byte	0x25
 2396 103c 00       		.byte	0
 2397 103d 00       		.byte	0
 2398              		.section	.debug_abbrev,"",%progbits
 2399              	.Ldebug_abbrev0:
 2400 0000 01       		.uleb128 0x1
 2401 0001 11       		.uleb128 0x11
 2402 0002 01       		.byte	0x1
 2403 0003 25       		.uleb128 0x25
 2404 0004 0E       		.uleb128 0xe
 2405 0005 13       		.uleb128 0x13
 2406 0006 0B       		.uleb128 0xb
 2407 0007 03       		.uleb128 0x3
 2408 0008 0E       		.uleb128 0xe
 2409 0009 1B       		.uleb128 0x1b
 2410 000a 0E       		.uleb128 0xe
 2411 000b 55       		.uleb128 0x55
 2412 000c 17       		.uleb128 0x17
 2413 000d 11       		.uleb128 0x11
 2414 000e 01       		.uleb128 0x1
 2415 000f 10       		.uleb128 0x10
 2416 0010 17       		.uleb128 0x17
 2417 0011 00       		.byte	0
 2418 0012 00       		.byte	0
 2419 0013 02       		.uleb128 0x2
 2420 0014 24       		.uleb128 0x24
 2421 0015 00       		.byte	0
 2422 0016 0B       		.uleb128 0xb
 2423 0017 0B       		.uleb128 0xb
 2424 0018 3E       		.uleb128 0x3e
 2425 0019 0B       		.uleb128 0xb
 2426 001a 03       		.uleb128 0x3
 2427 001b 08       		.uleb128 0x8
 2428 001c 00       		.byte	0
 2429 001d 00       		.byte	0
 2430 001e 03       		.uleb128 0x3
 2431 001f 16       		.uleb128 0x16
 2432 0020 00       		.byte	0
 2433 0021 03       		.uleb128 0x3
 2434 0022 0E       		.uleb128 0xe
 2435 0023 3A       		.uleb128 0x3a
 2436 0024 0B       		.uleb128 0xb
 2437 0025 3B       		.uleb128 0x3b
 2438 0026 0B       		.uleb128 0xb
 2439 0027 49       		.uleb128 0x49
 2440 0028 13       		.uleb128 0x13
 2441 0029 00       		.byte	0
 2442 002a 00       		.byte	0
 2443 002b 04       		.uleb128 0x4
 2444 002c 24       		.uleb128 0x24
 2445 002d 00       		.byte	0
 2446 002e 0B       		.uleb128 0xb
ARM GAS  C:\Users\jo\AppData\Local\Temp\ccPkvB6H.s 			page 44


 2447 002f 0B       		.uleb128 0xb
 2448 0030 3E       		.uleb128 0x3e
 2449 0031 0B       		.uleb128 0xb
 2450 0032 03       		.uleb128 0x3
 2451 0033 0E       		.uleb128 0xe
 2452 0034 00       		.byte	0
 2453 0035 00       		.byte	0
 2454 0036 05       		.uleb128 0x5
 2455 0037 0F       		.uleb128 0xf
 2456 0038 00       		.byte	0
 2457 0039 0B       		.uleb128 0xb
 2458 003a 0B       		.uleb128 0xb
 2459 003b 00       		.byte	0
 2460 003c 00       		.byte	0
 2461 003d 06       		.uleb128 0x6
 2462 003e 0F       		.uleb128 0xf
 2463 003f 00       		.byte	0
 2464 0040 0B       		.uleb128 0xb
 2465 0041 0B       		.uleb128 0xb
 2466 0042 49       		.uleb128 0x49
 2467 0043 13       		.uleb128 0x13
 2468 0044 00       		.byte	0
 2469 0045 00       		.byte	0
 2470 0046 07       		.uleb128 0x7
 2471 0047 26       		.uleb128 0x26
 2472 0048 00       		.byte	0
 2473 0049 49       		.uleb128 0x49
 2474 004a 13       		.uleb128 0x13
 2475 004b 00       		.byte	0
 2476 004c 00       		.byte	0
 2477 004d 08       		.uleb128 0x8
 2478 004e 01       		.uleb128 0x1
 2479 004f 01       		.byte	0x1
 2480 0050 49       		.uleb128 0x49
 2481 0051 13       		.uleb128 0x13
 2482 0052 01       		.uleb128 0x1
 2483 0053 13       		.uleb128 0x13
 2484 0054 00       		.byte	0
 2485 0055 00       		.byte	0
 2486 0056 09       		.uleb128 0x9
 2487 0057 21       		.uleb128 0x21
 2488 0058 00       		.byte	0
 2489 0059 49       		.uleb128 0x49
 2490 005a 13       		.uleb128 0x13
 2491 005b 2F       		.uleb128 0x2f
 2492 005c 0B       		.uleb128 0xb
 2493 005d 00       		.byte	0
 2494 005e 00       		.byte	0
 2495 005f 0A       		.uleb128 0xa
 2496 0060 13       		.uleb128 0x13
 2497 0061 01       		.byte	0x1
 2498 0062 03       		.uleb128 0x3
 2499 0063 0E       		.uleb128 0xe
 2500 0064 0B       		.uleb128 0xb
 2501 0065 0B       		.uleb128 0xb
 2502 0066 3A       		.uleb128 0x3a
 2503 0067 0B       		.uleb128 0xb
ARM GAS  C:\Users\jo\AppData\Local\Temp\ccPkvB6H.s 			page 45


 2504 0068 3B       		.uleb128 0x3b
 2505 0069 0B       		.uleb128 0xb
 2506 006a 01       		.uleb128 0x1
 2507 006b 13       		.uleb128 0x13
 2508 006c 00       		.byte	0
 2509 006d 00       		.byte	0
 2510 006e 0B       		.uleb128 0xb
 2511 006f 0D       		.uleb128 0xd
 2512 0070 00       		.byte	0
 2513 0071 03       		.uleb128 0x3
 2514 0072 0E       		.uleb128 0xe
 2515 0073 3A       		.uleb128 0x3a
 2516 0074 0B       		.uleb128 0xb
 2517 0075 3B       		.uleb128 0x3b
 2518 0076 0B       		.uleb128 0xb
 2519 0077 49       		.uleb128 0x49
 2520 0078 13       		.uleb128 0x13
 2521 0079 38       		.uleb128 0x38
 2522 007a 0B       		.uleb128 0xb
 2523 007b 00       		.byte	0
 2524 007c 00       		.byte	0
 2525 007d 0C       		.uleb128 0xc
 2526 007e 35       		.uleb128 0x35
 2527 007f 00       		.byte	0
 2528 0080 49       		.uleb128 0x49
 2529 0081 13       		.uleb128 0x13
 2530 0082 00       		.byte	0
 2531 0083 00       		.byte	0
 2532 0084 0D       		.uleb128 0xd
 2533 0085 0D       		.uleb128 0xd
 2534 0086 00       		.byte	0
 2535 0087 03       		.uleb128 0x3
 2536 0088 08       		.uleb128 0x8
 2537 0089 3A       		.uleb128 0x3a
 2538 008a 0B       		.uleb128 0xb
 2539 008b 3B       		.uleb128 0x3b
 2540 008c 05       		.uleb128 0x5
 2541 008d 49       		.uleb128 0x49
 2542 008e 13       		.uleb128 0x13
 2543 008f 38       		.uleb128 0x38
 2544 0090 0B       		.uleb128 0xb
 2545 0091 00       		.byte	0
 2546 0092 00       		.byte	0
 2547 0093 0E       		.uleb128 0xe
 2548 0094 0D       		.uleb128 0xd
 2549 0095 00       		.byte	0
 2550 0096 03       		.uleb128 0x3
 2551 0097 0E       		.uleb128 0xe
 2552 0098 3A       		.uleb128 0x3a
 2553 0099 0B       		.uleb128 0xb
 2554 009a 3B       		.uleb128 0x3b
 2555 009b 05       		.uleb128 0x5
 2556 009c 49       		.uleb128 0x49
 2557 009d 13       		.uleb128 0x13
 2558 009e 38       		.uleb128 0x38
 2559 009f 0B       		.uleb128 0xb
 2560 00a0 00       		.byte	0
ARM GAS  C:\Users\jo\AppData\Local\Temp\ccPkvB6H.s 			page 46


 2561 00a1 00       		.byte	0
 2562 00a2 0F       		.uleb128 0xf
 2563 00a3 13       		.uleb128 0x13
 2564 00a4 01       		.byte	0x1
 2565 00a5 03       		.uleb128 0x3
 2566 00a6 0E       		.uleb128 0xe
 2567 00a7 0B       		.uleb128 0xb
 2568 00a8 0B       		.uleb128 0xb
 2569 00a9 3A       		.uleb128 0x3a
 2570 00aa 0B       		.uleb128 0xb
 2571 00ab 3B       		.uleb128 0x3b
 2572 00ac 05       		.uleb128 0x5
 2573 00ad 01       		.uleb128 0x1
 2574 00ae 13       		.uleb128 0x13
 2575 00af 00       		.byte	0
 2576 00b0 00       		.byte	0
 2577 00b1 10       		.uleb128 0x10
 2578 00b2 15       		.uleb128 0x15
 2579 00b3 01       		.byte	0x1
 2580 00b4 27       		.uleb128 0x27
 2581 00b5 19       		.uleb128 0x19
 2582 00b6 01       		.uleb128 0x1
 2583 00b7 13       		.uleb128 0x13
 2584 00b8 00       		.byte	0
 2585 00b9 00       		.byte	0
 2586 00ba 11       		.uleb128 0x11
 2587 00bb 05       		.uleb128 0x5
 2588 00bc 00       		.byte	0
 2589 00bd 49       		.uleb128 0x49
 2590 00be 13       		.uleb128 0x13
 2591 00bf 00       		.byte	0
 2592 00c0 00       		.byte	0
 2593 00c1 12       		.uleb128 0x12
 2594 00c2 13       		.uleb128 0x13
 2595 00c3 01       		.byte	0x1
 2596 00c4 03       		.uleb128 0x3
 2597 00c5 0E       		.uleb128 0xe
 2598 00c6 0B       		.uleb128 0xb
 2599 00c7 05       		.uleb128 0x5
 2600 00c8 3A       		.uleb128 0x3a
 2601 00c9 0B       		.uleb128 0xb
 2602 00ca 3B       		.uleb128 0x3b
 2603 00cb 05       		.uleb128 0x5
 2604 00cc 01       		.uleb128 0x1
 2605 00cd 13       		.uleb128 0x13
 2606 00ce 00       		.byte	0
 2607 00cf 00       		.byte	0
 2608 00d0 13       		.uleb128 0x13
 2609 00d1 0D       		.uleb128 0xd
 2610 00d2 00       		.byte	0
 2611 00d3 03       		.uleb128 0x3
 2612 00d4 0E       		.uleb128 0xe
 2613 00d5 3A       		.uleb128 0x3a
 2614 00d6 0B       		.uleb128 0xb
 2615 00d7 3B       		.uleb128 0x3b
 2616 00d8 05       		.uleb128 0x5
 2617 00d9 49       		.uleb128 0x49
ARM GAS  C:\Users\jo\AppData\Local\Temp\ccPkvB6H.s 			page 47


 2618 00da 13       		.uleb128 0x13
 2619 00db 38       		.uleb128 0x38
 2620 00dc 05       		.uleb128 0x5
 2621 00dd 00       		.byte	0
 2622 00de 00       		.byte	0
 2623 00df 14       		.uleb128 0x14
 2624 00e0 0D       		.uleb128 0xd
 2625 00e1 00       		.byte	0
 2626 00e2 03       		.uleb128 0x3
 2627 00e3 08       		.uleb128 0x8
 2628 00e4 3A       		.uleb128 0x3a
 2629 00e5 0B       		.uleb128 0xb
 2630 00e6 3B       		.uleb128 0x3b
 2631 00e7 05       		.uleb128 0x5
 2632 00e8 49       		.uleb128 0x49
 2633 00e9 13       		.uleb128 0x13
 2634 00ea 38       		.uleb128 0x38
 2635 00eb 05       		.uleb128 0x5
 2636 00ec 00       		.byte	0
 2637 00ed 00       		.byte	0
 2638 00ee 15       		.uleb128 0x15
 2639 00ef 0D       		.uleb128 0xd
 2640 00f0 00       		.byte	0
 2641 00f1 03       		.uleb128 0x3
 2642 00f2 08       		.uleb128 0x8
 2643 00f3 3A       		.uleb128 0x3a
 2644 00f4 0B       		.uleb128 0xb
 2645 00f5 3B       		.uleb128 0x3b
 2646 00f6 0B       		.uleb128 0xb
 2647 00f7 49       		.uleb128 0x49
 2648 00f8 13       		.uleb128 0x13
 2649 00f9 38       		.uleb128 0x38
 2650 00fa 0B       		.uleb128 0xb
 2651 00fb 00       		.byte	0
 2652 00fc 00       		.byte	0
 2653 00fd 16       		.uleb128 0x16
 2654 00fe 13       		.uleb128 0x13
 2655 00ff 01       		.byte	0x1
 2656 0100 0B       		.uleb128 0xb
 2657 0101 0B       		.uleb128 0xb
 2658 0102 3A       		.uleb128 0x3a
 2659 0103 0B       		.uleb128 0xb
 2660 0104 3B       		.uleb128 0x3b
 2661 0105 0B       		.uleb128 0xb
 2662 0106 01       		.uleb128 0x1
 2663 0107 13       		.uleb128 0x13
 2664 0108 00       		.byte	0
 2665 0109 00       		.byte	0
 2666 010a 17       		.uleb128 0x17
 2667 010b 13       		.uleb128 0x13
 2668 010c 01       		.byte	0x1
 2669 010d 0B       		.uleb128 0xb
 2670 010e 05       		.uleb128 0x5
 2671 010f 3A       		.uleb128 0x3a
 2672 0110 0B       		.uleb128 0xb
 2673 0111 3B       		.uleb128 0x3b
 2674 0112 0B       		.uleb128 0xb
ARM GAS  C:\Users\jo\AppData\Local\Temp\ccPkvB6H.s 			page 48


 2675 0113 01       		.uleb128 0x1
 2676 0114 13       		.uleb128 0x13
 2677 0115 00       		.byte	0
 2678 0116 00       		.byte	0
 2679 0117 18       		.uleb128 0x18
 2680 0118 17       		.uleb128 0x17
 2681 0119 01       		.byte	0x1
 2682 011a 0B       		.uleb128 0xb
 2683 011b 0B       		.uleb128 0xb
 2684 011c 3A       		.uleb128 0x3a
 2685 011d 0B       		.uleb128 0xb
 2686 011e 3B       		.uleb128 0x3b
 2687 011f 0B       		.uleb128 0xb
 2688 0120 01       		.uleb128 0x1
 2689 0121 13       		.uleb128 0x13
 2690 0122 00       		.byte	0
 2691 0123 00       		.byte	0
 2692 0124 19       		.uleb128 0x19
 2693 0125 0D       		.uleb128 0xd
 2694 0126 00       		.byte	0
 2695 0127 03       		.uleb128 0x3
 2696 0128 0E       		.uleb128 0xe
 2697 0129 3A       		.uleb128 0x3a
 2698 012a 0B       		.uleb128 0xb
 2699 012b 3B       		.uleb128 0x3b
 2700 012c 05       		.uleb128 0x5
 2701 012d 49       		.uleb128 0x49
 2702 012e 13       		.uleb128 0x13
 2703 012f 00       		.byte	0
 2704 0130 00       		.byte	0
 2705 0131 1A       		.uleb128 0x1a
 2706 0132 13       		.uleb128 0x13
 2707 0133 01       		.byte	0x1
 2708 0134 03       		.uleb128 0x3
 2709 0135 0E       		.uleb128 0xe
 2710 0136 0B       		.uleb128 0xb
 2711 0137 05       		.uleb128 0x5
 2712 0138 3A       		.uleb128 0x3a
 2713 0139 0B       		.uleb128 0xb
 2714 013a 3B       		.uleb128 0x3b
 2715 013b 0B       		.uleb128 0xb
 2716 013c 01       		.uleb128 0x1
 2717 013d 13       		.uleb128 0x13
 2718 013e 00       		.byte	0
 2719 013f 00       		.byte	0
 2720 0140 1B       		.uleb128 0x1b
 2721 0141 0D       		.uleb128 0xd
 2722 0142 00       		.byte	0
 2723 0143 03       		.uleb128 0x3
 2724 0144 0E       		.uleb128 0xe
 2725 0145 3A       		.uleb128 0x3a
 2726 0146 0B       		.uleb128 0xb
 2727 0147 3B       		.uleb128 0x3b
 2728 0148 0B       		.uleb128 0xb
 2729 0149 49       		.uleb128 0x49
 2730 014a 13       		.uleb128 0x13
 2731 014b 38       		.uleb128 0x38
ARM GAS  C:\Users\jo\AppData\Local\Temp\ccPkvB6H.s 			page 49


 2732 014c 05       		.uleb128 0x5
 2733 014d 00       		.byte	0
 2734 014e 00       		.byte	0
 2735 014f 1C       		.uleb128 0x1c
 2736 0150 21       		.uleb128 0x21
 2737 0151 00       		.byte	0
 2738 0152 49       		.uleb128 0x49
 2739 0153 13       		.uleb128 0x13
 2740 0154 2F       		.uleb128 0x2f
 2741 0155 05       		.uleb128 0x5
 2742 0156 00       		.byte	0
 2743 0157 00       		.byte	0
 2744 0158 1D       		.uleb128 0x1d
 2745 0159 15       		.uleb128 0x15
 2746 015a 01       		.byte	0x1
 2747 015b 27       		.uleb128 0x27
 2748 015c 19       		.uleb128 0x19
 2749 015d 49       		.uleb128 0x49
 2750 015e 13       		.uleb128 0x13
 2751 015f 01       		.uleb128 0x1
 2752 0160 13       		.uleb128 0x13
 2753 0161 00       		.byte	0
 2754 0162 00       		.byte	0
 2755 0163 1E       		.uleb128 0x1e
 2756 0164 26       		.uleb128 0x26
 2757 0165 00       		.byte	0
 2758 0166 00       		.byte	0
 2759 0167 00       		.byte	0
 2760 0168 1F       		.uleb128 0x1f
 2761 0169 2E       		.uleb128 0x2e
 2762 016a 01       		.byte	0x1
 2763 016b 3F       		.uleb128 0x3f
 2764 016c 19       		.uleb128 0x19
 2765 016d 03       		.uleb128 0x3
 2766 016e 0E       		.uleb128 0xe
 2767 016f 3A       		.uleb128 0x3a
 2768 0170 0B       		.uleb128 0xb
 2769 0171 3B       		.uleb128 0x3b
 2770 0172 0B       		.uleb128 0xb
 2771 0173 27       		.uleb128 0x27
 2772 0174 19       		.uleb128 0x19
 2773 0175 49       		.uleb128 0x49
 2774 0176 13       		.uleb128 0x13
 2775 0177 11       		.uleb128 0x11
 2776 0178 01       		.uleb128 0x1
 2777 0179 12       		.uleb128 0x12
 2778 017a 06       		.uleb128 0x6
 2779 017b 40       		.uleb128 0x40
 2780 017c 18       		.uleb128 0x18
 2781 017d 9742     		.uleb128 0x2117
 2782 017f 19       		.uleb128 0x19
 2783 0180 01       		.uleb128 0x1
 2784 0181 13       		.uleb128 0x13
 2785 0182 00       		.byte	0
 2786 0183 00       		.byte	0
 2787 0184 20       		.uleb128 0x20
 2788 0185 05       		.uleb128 0x5
ARM GAS  C:\Users\jo\AppData\Local\Temp\ccPkvB6H.s 			page 50


 2789 0186 00       		.byte	0
 2790 0187 03       		.uleb128 0x3
 2791 0188 08       		.uleb128 0x8
 2792 0189 3A       		.uleb128 0x3a
 2793 018a 0B       		.uleb128 0xb
 2794 018b 3B       		.uleb128 0x3b
 2795 018c 0B       		.uleb128 0xb
 2796 018d 49       		.uleb128 0x49
 2797 018e 13       		.uleb128 0x13
 2798 018f 02       		.uleb128 0x2
 2799 0190 17       		.uleb128 0x17
 2800 0191 00       		.byte	0
 2801 0192 00       		.byte	0
 2802 0193 21       		.uleb128 0x21
 2803 0194 34       		.uleb128 0x34
 2804 0195 00       		.byte	0
 2805 0196 03       		.uleb128 0x3
 2806 0197 08       		.uleb128 0x8
 2807 0198 3A       		.uleb128 0x3a
 2808 0199 0B       		.uleb128 0xb
 2809 019a 3B       		.uleb128 0x3b
 2810 019b 0B       		.uleb128 0xb
 2811 019c 49       		.uleb128 0x49
 2812 019d 13       		.uleb128 0x13
 2813 019e 02       		.uleb128 0x2
 2814 019f 17       		.uleb128 0x17
 2815 01a0 00       		.byte	0
 2816 01a1 00       		.byte	0
 2817 01a2 22       		.uleb128 0x22
 2818 01a3 898201   		.uleb128 0x4109
 2819 01a6 01       		.byte	0x1
 2820 01a7 11       		.uleb128 0x11
 2821 01a8 01       		.uleb128 0x1
 2822 01a9 31       		.uleb128 0x31
 2823 01aa 13       		.uleb128 0x13
 2824 01ab 00       		.byte	0
 2825 01ac 00       		.byte	0
 2826 01ad 23       		.uleb128 0x23
 2827 01ae 8A8201   		.uleb128 0x410a
 2828 01b1 00       		.byte	0
 2829 01b2 02       		.uleb128 0x2
 2830 01b3 18       		.uleb128 0x18
 2831 01b4 9142     		.uleb128 0x2111
 2832 01b6 18       		.uleb128 0x18
 2833 01b7 00       		.byte	0
 2834 01b8 00       		.byte	0
 2835 01b9 24       		.uleb128 0x24
 2836 01ba 05       		.uleb128 0x5
 2837 01bb 00       		.byte	0
 2838 01bc 03       		.uleb128 0x3
 2839 01bd 0E       		.uleb128 0xe
 2840 01be 3A       		.uleb128 0x3a
 2841 01bf 0B       		.uleb128 0xb
 2842 01c0 3B       		.uleb128 0x3b
 2843 01c1 0B       		.uleb128 0xb
 2844 01c2 49       		.uleb128 0x49
 2845 01c3 13       		.uleb128 0x13
ARM GAS  C:\Users\jo\AppData\Local\Temp\ccPkvB6H.s 			page 51


 2846 01c4 02       		.uleb128 0x2
 2847 01c5 17       		.uleb128 0x17
 2848 01c6 00       		.byte	0
 2849 01c7 00       		.byte	0
 2850 01c8 25       		.uleb128 0x25
 2851 01c9 0B       		.uleb128 0xb
 2852 01ca 01       		.byte	0x1
 2853 01cb 55       		.uleb128 0x55
 2854 01cc 17       		.uleb128 0x17
 2855 01cd 01       		.uleb128 0x1
 2856 01ce 13       		.uleb128 0x13
 2857 01cf 00       		.byte	0
 2858 01d0 00       		.byte	0
 2859 01d1 26       		.uleb128 0x26
 2860 01d2 898201   		.uleb128 0x4109
 2861 01d5 01       		.byte	0x1
 2862 01d6 11       		.uleb128 0x11
 2863 01d7 01       		.uleb128 0x1
 2864 01d8 31       		.uleb128 0x31
 2865 01d9 13       		.uleb128 0x13
 2866 01da 01       		.uleb128 0x1
 2867 01db 13       		.uleb128 0x13
 2868 01dc 00       		.byte	0
 2869 01dd 00       		.byte	0
 2870 01de 27       		.uleb128 0x27
 2871 01df 898201   		.uleb128 0x4109
 2872 01e2 00       		.byte	0
 2873 01e3 11       		.uleb128 0x11
 2874 01e4 01       		.uleb128 0x1
 2875 01e5 31       		.uleb128 0x31
 2876 01e6 13       		.uleb128 0x13
 2877 01e7 00       		.byte	0
 2878 01e8 00       		.byte	0
 2879 01e9 28       		.uleb128 0x28
 2880 01ea 898201   		.uleb128 0x4109
 2881 01ed 01       		.byte	0x1
 2882 01ee 11       		.uleb128 0x11
 2883 01ef 01       		.uleb128 0x1
 2884 01f0 9542     		.uleb128 0x2115
 2885 01f2 19       		.uleb128 0x19
 2886 01f3 31       		.uleb128 0x31
 2887 01f4 13       		.uleb128 0x13
 2888 01f5 00       		.byte	0
 2889 01f6 00       		.byte	0
 2890 01f7 29       		.uleb128 0x29
 2891 01f8 898201   		.uleb128 0x4109
 2892 01fb 01       		.byte	0x1
 2893 01fc 11       		.uleb128 0x11
 2894 01fd 01       		.uleb128 0x1
 2895 01fe 9542     		.uleb128 0x2115
 2896 0200 19       		.uleb128 0x19
 2897 0201 31       		.uleb128 0x31
 2898 0202 13       		.uleb128 0x13
 2899 0203 01       		.uleb128 0x1
 2900 0204 13       		.uleb128 0x13
 2901 0205 00       		.byte	0
 2902 0206 00       		.byte	0
ARM GAS  C:\Users\jo\AppData\Local\Temp\ccPkvB6H.s 			page 52


 2903 0207 2A       		.uleb128 0x2a
 2904 0208 34       		.uleb128 0x34
 2905 0209 00       		.byte	0
 2906 020a 03       		.uleb128 0x3
 2907 020b 0E       		.uleb128 0xe
 2908 020c 3A       		.uleb128 0x3a
 2909 020d 0B       		.uleb128 0xb
 2910 020e 3B       		.uleb128 0x3b
 2911 020f 0B       		.uleb128 0xb
 2912 0210 49       		.uleb128 0x49
 2913 0211 13       		.uleb128 0x13
 2914 0212 02       		.uleb128 0x2
 2915 0213 17       		.uleb128 0x17
 2916 0214 00       		.byte	0
 2917 0215 00       		.byte	0
 2918 0216 2B       		.uleb128 0x2b
 2919 0217 34       		.uleb128 0x34
 2920 0218 00       		.byte	0
 2921 0219 03       		.uleb128 0x3
 2922 021a 08       		.uleb128 0x8
 2923 021b 3A       		.uleb128 0x3a
 2924 021c 0B       		.uleb128 0xb
 2925 021d 3B       		.uleb128 0x3b
 2926 021e 0B       		.uleb128 0xb
 2927 021f 49       		.uleb128 0x49
 2928 0220 13       		.uleb128 0x13
 2929 0221 02       		.uleb128 0x2
 2930 0222 18       		.uleb128 0x18
 2931 0223 00       		.byte	0
 2932 0224 00       		.byte	0
 2933 0225 2C       		.uleb128 0x2c
 2934 0226 34       		.uleb128 0x34
 2935 0227 00       		.byte	0
 2936 0228 03       		.uleb128 0x3
 2937 0229 0E       		.uleb128 0xe
 2938 022a 3A       		.uleb128 0x3a
 2939 022b 0B       		.uleb128 0xb
 2940 022c 3B       		.uleb128 0x3b
 2941 022d 05       		.uleb128 0x5
 2942 022e 49       		.uleb128 0x49
 2943 022f 13       		.uleb128 0x13
 2944 0230 3F       		.uleb128 0x3f
 2945 0231 19       		.uleb128 0x19
 2946 0232 3C       		.uleb128 0x3c
 2947 0233 19       		.uleb128 0x19
 2948 0234 00       		.byte	0
 2949 0235 00       		.byte	0
 2950 0236 2D       		.uleb128 0x2d
 2951 0237 34       		.uleb128 0x34
 2952 0238 00       		.byte	0
 2953 0239 03       		.uleb128 0x3
 2954 023a 08       		.uleb128 0x8
 2955 023b 3A       		.uleb128 0x3a
 2956 023c 0B       		.uleb128 0xb
 2957 023d 3B       		.uleb128 0x3b
 2958 023e 05       		.uleb128 0x5
 2959 023f 49       		.uleb128 0x49
ARM GAS  C:\Users\jo\AppData\Local\Temp\ccPkvB6H.s 			page 53


 2960 0240 13       		.uleb128 0x13
 2961 0241 3F       		.uleb128 0x3f
 2962 0242 19       		.uleb128 0x19
 2963 0243 3C       		.uleb128 0x3c
 2964 0244 19       		.uleb128 0x19
 2965 0245 00       		.byte	0
 2966 0246 00       		.byte	0
 2967 0247 2E       		.uleb128 0x2e
 2968 0248 34       		.uleb128 0x34
 2969 0249 00       		.byte	0
 2970 024a 03       		.uleb128 0x3
 2971 024b 0E       		.uleb128 0xe
 2972 024c 3A       		.uleb128 0x3a
 2973 024d 0B       		.uleb128 0xb
 2974 024e 3B       		.uleb128 0x3b
 2975 024f 0B       		.uleb128 0xb
 2976 0250 49       		.uleb128 0x49
 2977 0251 13       		.uleb128 0x13
 2978 0252 3F       		.uleb128 0x3f
 2979 0253 19       		.uleb128 0x19
 2980 0254 02       		.uleb128 0x2
 2981 0255 18       		.uleb128 0x18
 2982 0256 00       		.byte	0
 2983 0257 00       		.byte	0
 2984 0258 2F       		.uleb128 0x2f
 2985 0259 2E       		.uleb128 0x2e
 2986 025a 01       		.byte	0x1
 2987 025b 3F       		.uleb128 0x3f
 2988 025c 19       		.uleb128 0x19
 2989 025d 03       		.uleb128 0x3
 2990 025e 0E       		.uleb128 0xe
 2991 025f 3A       		.uleb128 0x3a
 2992 0260 0B       		.uleb128 0xb
 2993 0261 3B       		.uleb128 0x3b
 2994 0262 0B       		.uleb128 0xb
 2995 0263 27       		.uleb128 0x27
 2996 0264 19       		.uleb128 0x19
 2997 0265 49       		.uleb128 0x49
 2998 0266 13       		.uleb128 0x13
 2999 0267 3C       		.uleb128 0x3c
 3000 0268 19       		.uleb128 0x19
 3001 0269 01       		.uleb128 0x1
 3002 026a 13       		.uleb128 0x13
 3003 026b 00       		.byte	0
 3004 026c 00       		.byte	0
 3005 026d 30       		.uleb128 0x30
 3006 026e 2E       		.uleb128 0x2e
 3007 026f 01       		.byte	0x1
 3008 0270 3F       		.uleb128 0x3f
 3009 0271 19       		.uleb128 0x19
 3010 0272 03       		.uleb128 0x3
 3011 0273 0E       		.uleb128 0xe
 3012 0274 3A       		.uleb128 0x3a
 3013 0275 0B       		.uleb128 0xb
 3014 0276 3B       		.uleb128 0x3b
 3015 0277 0B       		.uleb128 0xb
 3016 0278 27       		.uleb128 0x27
ARM GAS  C:\Users\jo\AppData\Local\Temp\ccPkvB6H.s 			page 54


 3017 0279 19       		.uleb128 0x19
 3018 027a 3C       		.uleb128 0x3c
 3019 027b 19       		.uleb128 0x19
 3020 027c 01       		.uleb128 0x1
 3021 027d 13       		.uleb128 0x13
 3022 027e 00       		.byte	0
 3023 027f 00       		.byte	0
 3024 0280 31       		.uleb128 0x31
 3025 0281 2E       		.uleb128 0x2e
 3026 0282 01       		.byte	0x1
 3027 0283 3F       		.uleb128 0x3f
 3028 0284 19       		.uleb128 0x19
 3029 0285 03       		.uleb128 0x3
 3030 0286 0E       		.uleb128 0xe
 3031 0287 3A       		.uleb128 0x3a
 3032 0288 0B       		.uleb128 0xb
 3033 0289 3B       		.uleb128 0x3b
 3034 028a 05       		.uleb128 0x5
 3035 028b 27       		.uleb128 0x27
 3036 028c 19       		.uleb128 0x19
 3037 028d 3C       		.uleb128 0x3c
 3038 028e 19       		.uleb128 0x19
 3039 028f 01       		.uleb128 0x1
 3040 0290 13       		.uleb128 0x13
 3041 0291 00       		.byte	0
 3042 0292 00       		.byte	0
 3043 0293 32       		.uleb128 0x32
 3044 0294 2E       		.uleb128 0x2e
 3045 0295 01       		.byte	0x1
 3046 0296 3F       		.uleb128 0x3f
 3047 0297 19       		.uleb128 0x19
 3048 0298 03       		.uleb128 0x3
 3049 0299 0E       		.uleb128 0xe
 3050 029a 3A       		.uleb128 0x3a
 3051 029b 0B       		.uleb128 0xb
 3052 029c 3B       		.uleb128 0x3b
 3053 029d 05       		.uleb128 0x5
 3054 029e 27       		.uleb128 0x27
 3055 029f 19       		.uleb128 0x19
 3056 02a0 3C       		.uleb128 0x3c
 3057 02a1 19       		.uleb128 0x19
 3058 02a2 00       		.byte	0
 3059 02a3 00       		.byte	0
 3060 02a4 00       		.byte	0
 3061              		.section	.debug_loc,"",%progbits
 3062              	.Ldebug_loc0:
 3063              	.LLST0:
 3064 0000 00000000 		.4byte	.LVL0
 3065 0004 0C000000 		.4byte	.LVL2
 3066 0008 0100     		.2byte	0x1
 3067 000a 50       		.byte	0x50
 3068 000b 0C000000 		.4byte	.LVL2
 3069 000f 26000000 		.4byte	.LVL7
 3070 0013 0100     		.2byte	0x1
 3071 0015 55       		.byte	0x55
 3072 0016 26000000 		.4byte	.LVL7
 3073 001a 2C000000 		.4byte	.LFE260
ARM GAS  C:\Users\jo\AppData\Local\Temp\ccPkvB6H.s 			page 55


 3074 001e 0400     		.2byte	0x4
 3075 0020 F3       		.byte	0xf3
 3076 0021 01       		.uleb128 0x1
 3077 0022 50       		.byte	0x50
 3078 0023 9F       		.byte	0x9f
 3079 0024 00000000 		.4byte	0
 3080 0028 00000000 		.4byte	0
 3081              	.LLST1:
 3082 002c 06000000 		.4byte	.LVL1
 3083 0030 26000000 		.4byte	.LVL7
 3084 0034 0100     		.2byte	0x1
 3085 0036 54       		.byte	0x54
 3086 0037 26000000 		.4byte	.LVL7
 3087 003b 2C000000 		.4byte	.LFE260
 3088 003f 0100     		.2byte	0x1
 3089 0041 50       		.byte	0x50
 3090 0042 00000000 		.4byte	0
 3091 0046 00000000 		.4byte	0
 3092              	.LLST2:
 3093 004a 0C000000 		.4byte	.LVL2
 3094 004e 10000000 		.4byte	.LVL4
 3095 0052 0100     		.2byte	0x1
 3096 0054 50       		.byte	0x50
 3097 0055 1A000000 		.4byte	.LVL5
 3098 0059 22000000 		.4byte	.LVL6
 3099 005d 0100     		.2byte	0x1
 3100 005f 50       		.byte	0x50
 3101 0060 00000000 		.4byte	0
 3102 0064 00000000 		.4byte	0
 3103              	.LLST3:
 3104 0068 00000000 		.4byte	.LVL8
 3105 006c 0D000000 		.4byte	.LVL9-1
 3106 0070 0100     		.2byte	0x1
 3107 0072 50       		.byte	0x50
 3108 0073 0D000000 		.4byte	.LVL9-1
 3109 0077 1A000000 		.4byte	.LVL12
 3110 007b 0400     		.2byte	0x4
 3111 007d F3       		.byte	0xf3
 3112 007e 01       		.uleb128 0x1
 3113 007f 50       		.byte	0x50
 3114 0080 9F       		.byte	0x9f
 3115 0081 1A000000 		.4byte	.LVL12
 3116 0085 1C000000 		.4byte	.LVL13
 3117 0089 0100     		.2byte	0x1
 3118 008b 50       		.byte	0x50
 3119 008c 1C000000 		.4byte	.LVL13
 3120 0090 2E000000 		.4byte	.LVL15
 3121 0094 0400     		.2byte	0x4
 3122 0096 F3       		.byte	0xf3
 3123 0097 01       		.uleb128 0x1
 3124 0098 50       		.byte	0x50
 3125 0099 9F       		.byte	0x9f
 3126 009a 2E000000 		.4byte	.LVL15
 3127 009e 30000000 		.4byte	.LVL16
 3128 00a2 0100     		.2byte	0x1
 3129 00a4 50       		.byte	0x50
 3130 00a5 30000000 		.4byte	.LVL16
ARM GAS  C:\Users\jo\AppData\Local\Temp\ccPkvB6H.s 			page 56


 3131 00a9 3C000000 		.4byte	.LFE261
 3132 00ad 0400     		.2byte	0x4
 3133 00af F3       		.byte	0xf3
 3134 00b0 01       		.uleb128 0x1
 3135 00b1 50       		.byte	0x50
 3136 00b2 9F       		.byte	0x9f
 3137 00b3 00000000 		.4byte	0
 3138 00b7 00000000 		.4byte	0
 3139              	.LLST4:
 3140 00bb 16000000 		.4byte	.LVL11
 3141 00bf 1A000000 		.4byte	.LVL12
 3142 00c3 0100     		.2byte	0x1
 3143 00c5 50       		.byte	0x50
 3144 00c6 00000000 		.4byte	0
 3145 00ca 00000000 		.4byte	0
 3146              	.LLST5:
 3147 00ce 0E000000 		.4byte	.LVL9
 3148 00d2 12000000 		.4byte	.LVL10
 3149 00d6 0100     		.2byte	0x1
 3150 00d8 50       		.byte	0x50
 3151 00d9 12000000 		.4byte	.LVL10
 3152 00dd 15000000 		.4byte	.LVL11-1
 3153 00e1 0300     		.2byte	0x3
 3154 00e3 70       		.byte	0x70
 3155 00e4 7F       		.sleb128 -1
 3156 00e5 9F       		.byte	0x9f
 3157 00e6 00000000 		.4byte	0
 3158 00ea 00000000 		.4byte	0
 3159              	.LLST6:
 3160 00ee 00000000 		.4byte	.LVL18
 3161 00f2 0C000000 		.4byte	.LVL19
 3162 00f6 0100     		.2byte	0x1
 3163 00f8 50       		.byte	0x50
 3164 00f9 0C000000 		.4byte	.LVL19
 3165 00fd 9A000000 		.4byte	.LFE262
 3166 0101 0100     		.2byte	0x1
 3167 0103 57       		.byte	0x57
 3168 0104 00000000 		.4byte	0
 3169 0108 00000000 		.4byte	0
 3170              	.LLST7:
 3171 010c 00000000 		.4byte	.LVL18
 3172 0110 13000000 		.4byte	.LVL20-1
 3173 0114 0100     		.2byte	0x1
 3174 0116 51       		.byte	0x51
 3175 0117 13000000 		.4byte	.LVL20-1
 3176 011b 4A000000 		.4byte	.LVL30
 3177 011f 0100     		.2byte	0x1
 3178 0121 54       		.byte	0x54
 3179 0122 4A000000 		.4byte	.LVL30
 3180 0126 7C000000 		.4byte	.LVL37
 3181 012a 0400     		.2byte	0x4
 3182 012c F3       		.byte	0xf3
 3183 012d 01       		.uleb128 0x1
 3184 012e 51       		.byte	0x51
 3185 012f 9F       		.byte	0x9f
 3186 0130 7C000000 		.4byte	.LVL37
 3187 0134 82000000 		.4byte	.LVL39
ARM GAS  C:\Users\jo\AppData\Local\Temp\ccPkvB6H.s 			page 57


 3188 0138 0100     		.2byte	0x1
 3189 013a 54       		.byte	0x54
 3190 013b 82000000 		.4byte	.LVL39
 3191 013f 8E000000 		.4byte	.LVL41
 3192 0143 0400     		.2byte	0x4
 3193 0145 F3       		.byte	0xf3
 3194 0146 01       		.uleb128 0x1
 3195 0147 51       		.byte	0x51
 3196 0148 9F       		.byte	0x9f
 3197 0149 8E000000 		.4byte	.LVL41
 3198 014d 9A000000 		.4byte	.LFE262
 3199 0151 0100     		.2byte	0x1
 3200 0153 54       		.byte	0x54
 3201 0154 00000000 		.4byte	0
 3202 0158 00000000 		.4byte	0
 3203              	.LLST8:
 3204 015c 00000000 		.4byte	.LVL18
 3205 0160 13000000 		.4byte	.LVL20-1
 3206 0164 0100     		.2byte	0x1
 3207 0166 52       		.byte	0x52
 3208 0167 13000000 		.4byte	.LVL20-1
 3209 016b 24000000 		.4byte	.LVL24
 3210 016f 0100     		.2byte	0x1
 3211 0171 56       		.byte	0x56
 3212 0172 24000000 		.4byte	.LVL24
 3213 0176 9A000000 		.4byte	.LFE262
 3214 017a 0400     		.2byte	0x4
 3215 017c F3       		.byte	0xf3
 3216 017d 01       		.uleb128 0x1
 3217 017e 52       		.byte	0x52
 3218 017f 9F       		.byte	0x9f
 3219 0180 00000000 		.4byte	0
 3220 0184 00000000 		.4byte	0
 3221              	.LLST9:
 3222 0188 24000000 		.4byte	.LVL24
 3223 018c 2B000000 		.4byte	.LVL25-1
 3224 0190 0100     		.2byte	0x1
 3225 0192 50       		.byte	0x50
 3226 0193 2B000000 		.4byte	.LVL25-1
 3227 0197 8E000000 		.4byte	.LVL41
 3228 019b 0100     		.2byte	0x1
 3229 019d 56       		.byte	0x56
 3230 019e 8E000000 		.4byte	.LVL41
 3231 01a2 90000000 		.4byte	.LVL42
 3232 01a6 0100     		.2byte	0x1
 3233 01a8 50       		.byte	0x50
 3234 01a9 90000000 		.4byte	.LVL42
 3235 01ad 9A000000 		.4byte	.LFE262
 3236 01b1 0100     		.2byte	0x1
 3237 01b3 56       		.byte	0x56
 3238 01b4 00000000 		.4byte	0
 3239 01b8 00000000 		.4byte	0
 3240              	.LLST10:
 3241 01bc 56000000 		.4byte	.LVL31
 3242 01c0 60000000 		.4byte	.LVL32
 3243 01c4 0100     		.2byte	0x1
 3244 01c6 50       		.byte	0x50
ARM GAS  C:\Users\jo\AppData\Local\Temp\ccPkvB6H.s 			page 58


 3245 01c7 60000000 		.4byte	.LVL32
 3246 01cb 62000000 		.4byte	.LVL33
 3247 01cf 0100     		.2byte	0x1
 3248 01d1 52       		.byte	0x52
 3249 01d2 62000000 		.4byte	.LVL33
 3250 01d6 68000000 		.4byte	.LVL34
 3251 01da 0100     		.2byte	0x1
 3252 01dc 54       		.byte	0x54
 3253 01dd 82000000 		.4byte	.LVL39
 3254 01e1 87000000 		.4byte	.LVL40-1
 3255 01e5 0100     		.2byte	0x1
 3256 01e7 52       		.byte	0x52
 3257 01e8 87000000 		.4byte	.LVL40-1
 3258 01ec 8E000000 		.4byte	.LVL41
 3259 01f0 0100     		.2byte	0x1
 3260 01f2 54       		.byte	0x54
 3261 01f3 00000000 		.4byte	0
 3262 01f7 00000000 		.4byte	0
 3263              	.LLST11:
 3264 01fb 1A000000 		.4byte	.LVL21
 3265 01ff 1C000000 		.4byte	.LVL22
 3266 0203 0100     		.2byte	0x1
 3267 0205 50       		.byte	0x50
 3268 0206 1C000000 		.4byte	.LVL22
 3269 020a 82000000 		.4byte	.LVL39
 3270 020e 0100     		.2byte	0x1
 3271 0210 55       		.byte	0x55
 3272 0211 82000000 		.4byte	.LVL39
 3273 0215 87000000 		.4byte	.LVL40-1
 3274 0219 0100     		.2byte	0x1
 3275 021b 50       		.byte	0x50
 3276 021c 87000000 		.4byte	.LVL40-1
 3277 0220 9A000000 		.4byte	.LFE262
 3278 0224 0100     		.2byte	0x1
 3279 0226 55       		.byte	0x55
 3280 0227 00000000 		.4byte	0
 3281 022b 00000000 		.4byte	0
 3282              	.LLST12:
 3283 022f 1A000000 		.4byte	.LVL21
 3284 0233 32000000 		.4byte	.LVL26
 3285 0237 0300     		.2byte	0x3
 3286 0239 09       		.byte	0x9
 3287 023a FF       		.byte	0xff
 3288 023b 9F       		.byte	0x9f
 3289 023c 32000000 		.4byte	.LVL26
 3290 0240 4A000000 		.4byte	.LVL30
 3291 0244 0100     		.2byte	0x1
 3292 0246 58       		.byte	0x58
 3293 0247 7C000000 		.4byte	.LVL37
 3294 024b 80000000 		.4byte	.LVL38
 3295 024f 0300     		.2byte	0x3
 3296 0251 09       		.byte	0x9
 3297 0252 FF       		.byte	0xff
 3298 0253 9F       		.byte	0x9f
 3299 0254 80000000 		.4byte	.LVL38
 3300 0258 82000000 		.4byte	.LVL39
 3301 025c 0100     		.2byte	0x1
ARM GAS  C:\Users\jo\AppData\Local\Temp\ccPkvB6H.s 			page 59


 3302 025e 58       		.byte	0x58
 3303 025f 8E000000 		.4byte	.LVL41
 3304 0263 9A000000 		.4byte	.LFE262
 3305 0267 0300     		.2byte	0x3
 3306 0269 09       		.byte	0x9
 3307 026a FF       		.byte	0xff
 3308 026b 9F       		.byte	0x9f
 3309 026c 00000000 		.4byte	0
 3310 0270 00000000 		.4byte	0
 3311              	.LLST13:
 3312 0274 2C000000 		.4byte	.LVL25
 3313 0278 34000000 		.4byte	.LVL27
 3314 027c 0100     		.2byte	0x1
 3315 027e 50       		.byte	0x50
 3316 027f 7C000000 		.4byte	.LVL37
 3317 0283 82000000 		.4byte	.LVL39
 3318 0287 0100     		.2byte	0x1
 3319 0289 50       		.byte	0x50
 3320 028a 00000000 		.4byte	0
 3321 028e 00000000 		.4byte	0
 3322              	.LLST14:
 3323 0292 00000000 		.4byte	.LVL44
 3324 0296 03000000 		.4byte	.LVL45-1
 3325 029a 0100     		.2byte	0x1
 3326 029c 50       		.byte	0x50
 3327 029d 03000000 		.4byte	.LVL45-1
 3328 02a1 04000000 		.4byte	.LFE263
 3329 02a5 0400     		.2byte	0x4
 3330 02a7 F3       		.byte	0xf3
 3331 02a8 01       		.uleb128 0x1
 3332 02a9 50       		.byte	0x50
 3333 02aa 9F       		.byte	0x9f
 3334 02ab 00000000 		.4byte	0
 3335 02af 00000000 		.4byte	0
 3336              	.LLST15:
 3337 02b3 00000000 		.4byte	.LVL44
 3338 02b7 03000000 		.4byte	.LVL45-1
 3339 02bb 0100     		.2byte	0x1
 3340 02bd 51       		.byte	0x51
 3341 02be 03000000 		.4byte	.LVL45-1
 3342 02c2 04000000 		.4byte	.LFE263
 3343 02c6 0400     		.2byte	0x4
 3344 02c8 F3       		.byte	0xf3
 3345 02c9 01       		.uleb128 0x1
 3346 02ca 51       		.byte	0x51
 3347 02cb 9F       		.byte	0x9f
 3348 02cc 00000000 		.4byte	0
 3349 02d0 00000000 		.4byte	0
 3350              	.LLST16:
 3351 02d4 00000000 		.4byte	.LVL44
 3352 02d8 03000000 		.4byte	.LVL45-1
 3353 02dc 0100     		.2byte	0x1
 3354 02de 52       		.byte	0x52
 3355 02df 03000000 		.4byte	.LVL45-1
 3356 02e3 04000000 		.4byte	.LFE263
 3357 02e7 0400     		.2byte	0x4
 3358 02e9 F3       		.byte	0xf3
ARM GAS  C:\Users\jo\AppData\Local\Temp\ccPkvB6H.s 			page 60


 3359 02ea 01       		.uleb128 0x1
 3360 02eb 52       		.byte	0x52
 3361 02ec 9F       		.byte	0x9f
 3362 02ed 00000000 		.4byte	0
 3363 02f1 00000000 		.4byte	0
 3364              		.section	.debug_aranges,"",%progbits
 3365 0000 34000000 		.4byte	0x34
 3366 0004 0200     		.2byte	0x2
 3367 0006 00000000 		.4byte	.Ldebug_info0
 3368 000a 04       		.byte	0x4
 3369 000b 00       		.byte	0
 3370 000c 0000     		.2byte	0
 3371 000e 0000     		.2byte	0
 3372 0010 00000000 		.4byte	.LFB260
 3373 0014 2C000000 		.4byte	.LFE260-.LFB260
 3374 0018 00000000 		.4byte	.LFB261
 3375 001c 3C000000 		.4byte	.LFE261-.LFB261
 3376 0020 00000000 		.4byte	.LFB262
 3377 0024 9A000000 		.4byte	.LFE262-.LFB262
 3378 0028 00000000 		.4byte	.LFB263
 3379 002c 04000000 		.4byte	.LFE263-.LFB263
 3380 0030 00000000 		.4byte	0
 3381 0034 00000000 		.4byte	0
 3382              		.section	.debug_ranges,"",%progbits
 3383              	.Ldebug_ranges0:
 3384 0000 08000000 		.4byte	.LBB2
 3385 0004 18000000 		.4byte	.LBE2
 3386 0008 24000000 		.4byte	.LBB3
 3387 000c 26000000 		.4byte	.LBE3
 3388 0010 2A000000 		.4byte	.LBB4
 3389 0014 2E000000 		.4byte	.LBE4
 3390 0018 00000000 		.4byte	0
 3391 001c 00000000 		.4byte	0
 3392 0020 26000000 		.4byte	.LBB5
 3393 0024 2E000000 		.4byte	.LBE5
 3394 0028 32000000 		.4byte	.LBB6
 3395 002c 68000000 		.4byte	.LBE6
 3396 0030 7C000000 		.4byte	.LBB7
 3397 0034 8E000000 		.4byte	.LBE7
 3398 0038 00000000 		.4byte	0
 3399 003c 00000000 		.4byte	0
 3400 0040 00000000 		.4byte	.LFB260
 3401 0044 2C000000 		.4byte	.LFE260
 3402 0048 00000000 		.4byte	.LFB261
 3403 004c 3C000000 		.4byte	.LFE261
 3404 0050 00000000 		.4byte	.LFB262
 3405 0054 9A000000 		.4byte	.LFE262
 3406 0058 00000000 		.4byte	.LFB263
 3407 005c 04000000 		.4byte	.LFE263
 3408 0060 00000000 		.4byte	0
 3409 0064 00000000 		.4byte	0
 3410              		.section	.debug_line,"",%progbits
 3411              	.Ldebug_line0:
 3412 0000 92040000 		.section	.debug_str,"MS",%progbits,1
 3412      0200F403 
 3412      00000201 
 3412      FB0E0D00 
ARM GAS  C:\Users\jo\AppData\Local\Temp\ccPkvB6H.s 			page 61


 3412      01010101 
 3413              	.LASF2:
 3414 0000 73697A65 		.ascii	"size_t\000"
 3414      5F7400
 3415              	.LASF19:
 3416 0007 73697A65 		.ascii	"sizetype\000"
 3416      74797065 
 3416      00
 3417              	.LASF136:
 3418 0010 77747365 		.ascii	"wtsemp\000"
 3418      6D7000
 3419              	.LASF59:
 3420 0017 73797374 		.ascii	"systime_t\000"
 3420      696D655F 
 3420      7400
 3421              	.LASF66:
 3422 0021 705F6374 		.ascii	"p_ctx\000"
 3422      7800
 3423              	.LASF43:
 3424 0027 73745F62 		.ascii	"st_blksize\000"
 3424      6C6B7369 
 3424      7A6500
 3425              	.LASF55:
 3426 0032 74707269 		.ascii	"tprio_t\000"
 3426      6F5F7400 
 3427              	.LASF44:
 3428 003a 73745F62 		.ascii	"st_blocks\000"
 3428      6C6F636B 
 3428      7300
 3429              	.LASF205:
 3430 0044 7461696C 		.ascii	"tail\000"
 3430      00
 3431              	.LASF75:
 3432 0049 705F6D73 		.ascii	"p_msgqueue\000"
 3432      67717565 
 3432      756500
 3433              	.LASF90:
 3434 0054 725F6374 		.ascii	"r_ctx\000"
 3434      7800
 3435              	.LASF48:
 3436 005a 696E7433 		.ascii	"int32_t\000"
 3436      325F7400 
 3437              	.LASF155:
 3438 0062 73696E5F 		.ascii	"sin_family\000"
 3438      66616D69 
 3438      6C7900
 3439              	.LASF94:
 3440 006d 76746675 		.ascii	"vtfunc_t\000"
 3440      6E635F74 
 3440      00
 3441              	.LASF157:
 3442 0076 73696E5F 		.ascii	"sin_addr\000"
 3442      61646472 
 3442      00
 3443              	.LASF103:
 3444 007f 63685F76 		.ascii	"ch_virtual_timers_list\000"
 3444      69727475 
ARM GAS  C:\Users\jo\AppData\Local\Temp\ccPkvB6H.s 			page 62


 3444      616C5F74 
 3444      696D6572 
 3444      735F6C69 
 3445              	.LASF24:
 3446 0096 6465765F 		.ascii	"dev_t\000"
 3446      7400
 3447              	.LASF28:
 3448 009c 6E6C696E 		.ascii	"nlink_t\000"
 3448      6B5F7400 
 3449              	.LASF18:
 3450 00a4 5F5F6769 		.ascii	"__gid_t\000"
 3450      645F7400 
 3451              	.LASF21:
 3452 00ac 74696D65 		.ascii	"time_t\000"
 3452      5F7400
 3453              	.LASF212:
 3454 00b3 6673697A 		.ascii	"fsize\000"
 3454      6500
 3455              	.LASF109:
 3456 00b9 6C6F636B 		.ascii	"lock_cnt\000"
 3456      5F636E74 
 3456      00
 3457              	.LASF186:
 3458 00c2 7265715F 		.ascii	"req_encoding\000"
 3458      656E636F 
 3458      64696E67 
 3458      00
 3459              	.LASF61:
 3460 00cf 73746174 		.ascii	"stat\000"
 3460      00
 3461              	.LASF160:
 3462 00d4 7374726D 		.ascii	"strm_ipos\000"
 3462      5F69706F 
 3462      7300
 3463              	.LASF122:
 3464 00de 73655F74 		.ascii	"se_tp\000"
 3464      7000
 3465              	.LASF172:
 3466 00e4 7265715F 		.ascii	"req_version\000"
 3466      76657273 
 3466      696F6E00 
 3467              	.LASF171:
 3468 00f0 7265715F 		.ascii	"req_url\000"
 3468      75726C00 
 3469              	.LASF144:
 3470 00f8 6D5F6F77 		.ascii	"m_owner\000"
 3470      6E657200 
 3471              	.LASF101:
 3472 0100 76745F70 		.ascii	"vt_par\000"
 3472      617200
 3473              	.LASF133:
 3474 0107 65786974 		.ascii	"exitcode\000"
 3474      636F6465 
 3474      00
 3475              	.LASF216:
 3476 0110 73747263 		.ascii	"strcasecmp\000"
 3476      61736563 
ARM GAS  C:\Users\jo\AppData\Local\Temp\ccPkvB6H.s 			page 63


 3476      6D7000
 3477              	.LASF226:
 3478 011b 735F666C 		.ascii	"s_flush\000"
 3478      75736800 
 3479              	.LASF3:
 3480 0123 5F5F7569 		.ascii	"__uint8_t\000"
 3480      6E74385F 
 3480      7400
 3481              	.LASF16:
 3482 012d 5F5F6465 		.ascii	"__dev_t\000"
 3482      765F7400 
 3483              	.LASF25:
 3484 0135 7569645F 		.ascii	"uid_t\000"
 3484      7400
 3485              	.LASF223:
 3486 013b 735F7772 		.ascii	"s_write\000"
 3486      69746500 
 3487              	.LASF67:
 3488 0143 705F6E65 		.ascii	"p_newer\000"
 3488      77657200 
 3489              	.LASF9:
 3490 014b 6C6F6E67 		.ascii	"long int\000"
 3490      20696E74 
 3490      00
 3491              	.LASF63:
 3492 0154 705F6E65 		.ascii	"p_next\000"
 3492      787400
 3493              	.LASF64:
 3494 015b 705F7072 		.ascii	"p_prev\000"
 3494      657600
 3495              	.LASF196:
 3496 0162 6D656469 		.ascii	"media_type\000"
 3496      615F7479 
 3496      706500
 3497              	.LASF168:
 3498 016d 48545450 		.ascii	"HTTP_REQUEST\000"
 3498      5F524551 
 3498      55455354 
 3498      00
 3499              	.LASF53:
 3500 017a 74737461 		.ascii	"tstate_t\000"
 3500      74655F74 
 3500      00
 3501              	.LASF84:
 3502 0183 74687265 		.ascii	"threads_queue_t\000"
 3502      6164735F 
 3502      71756575 
 3502      655F7400 
 3503              	.LASF78:
 3504 0193 705F6D74 		.ascii	"p_mtxlist\000"
 3504      786C6973 
 3504      7400
 3505              	.LASF154:
 3506 019d 73696E5F 		.ascii	"sin_len\000"
 3506      6C656E00 
 3507              	.LASF117:
 3508 01a5 72656761 		.ascii	"regarm_t\000"
ARM GAS  C:\Users\jo\AppData\Local\Temp\ccPkvB6H.s 			page 64


 3508      726D5F74 
 3508      00
 3509              	.LASF204:
 3510 01ae 68656164 		.ascii	"head\000"
 3510      00
 3511              	.LASF184:
 3512 01b3 7265715F 		.ascii	"req_referer\000"
 3512      72656665 
 3512      72657200 
 3513              	.LASF1:
 3514 01bf 7369676E 		.ascii	"signed char\000"
 3514      65642063 
 3514      68617200 
 3515              	.LASF138:
 3516 01cb 65776D61 		.ascii	"ewmask\000"
 3516      736B00
 3517              	.LASF46:
 3518 01d2 75696E74 		.ascii	"uint8_t\000"
 3518      385F7400 
 3519              	.LASF38:
 3520 01da 73745F73 		.ascii	"st_spare1\000"
 3520      70617265 
 3520      3100
 3521              	.LASF33:
 3522 01e4 73745F75 		.ascii	"st_uid\000"
 3522      696400
 3523              	.LASF42:
 3524 01eb 73745F73 		.ascii	"st_spare3\000"
 3524      70617265 
 3524      3300
 3525              	.LASF45:
 3526 01f5 73745F73 		.ascii	"st_spare4\000"
 3526      70617265 
 3526      3400
 3527              	.LASF57:
 3528 01ff 6576656E 		.ascii	"eventmask_t\000"
 3528      746D6173 
 3528      6B5F7400 
 3529              	.LASF119:
 3530 020b 636F6E74 		.ascii	"context\000"
 3530      65787400 
 3531              	.LASF135:
 3532 0213 77747472 		.ascii	"wttrp\000"
 3532      7000
 3533              	.LASF4:
 3534 0219 756E7369 		.ascii	"unsigned char\000"
 3534      676E6564 
 3534      20636861 
 3534      7200
 3535              	.LASF35:
 3536 0227 73745F72 		.ascii	"st_rdev\000"
 3536      64657600 
 3537              	.LASF177:
 3538 022f 7265715F 		.ascii	"req_connection\000"
 3538      636F6E6E 
 3538      65637469 
 3538      6F6E00
ARM GAS  C:\Users\jo\AppData\Local\Temp\ccPkvB6H.s 			page 65


 3539              	.LASF107:
 3540 023e 70616E69 		.ascii	"panic_msg\000"
 3540      635F6D73 
 3540      6700
 3541              	.LASF110:
 3542 0248 74726163 		.ascii	"trace_buffer\000"
 3542      655F6275 
 3542      66666572 
 3542      00
 3543              	.LASF91:
 3544 0255 725F6E65 		.ascii	"r_newer\000"
 3544      77657200 
 3545              	.LASF105:
 3546 025d 73797374 		.ascii	"system_debug_t\000"
 3546      656D5F64 
 3546      65627567 
 3546      5F7400
 3547              	.LASF147:
 3548 026c 5F426F6F 		.ascii	"_Bool\000"
 3548      6C00
 3549              	.LASF20:
 3550 0272 63686172 		.ascii	"char\000"
 3550      00
 3551              	.LASF165:
 3552 0277 7374726D 		.ascii	"strm_saddr\000"
 3552      5F736164 
 3552      647200
 3553              	.LASF222:
 3554 0282 5F636C6F 		.ascii	"_close\000"
 3554      736500
 3555              	.LASF65:
 3556 0289 705F7072 		.ascii	"p_prio\000"
 3556      696F00
 3557              	.LASF6:
 3558 0290 5F5F7569 		.ascii	"__uint16_t\000"
 3558      6E743136 
 3558      5F7400
 3559              	.LASF134:
 3560 029b 77746F62 		.ascii	"wtobjp\000"
 3560      6A7000
 3561              	.LASF175:
 3562 02a2 7265715F 		.ascii	"req_argn\000"
 3562      6172676E 
 3562      00
 3563              	.LASF174:
 3564 02ab 7265715F 		.ascii	"req_argp\000"
 3564      61726770 
 3564      00
 3565              	.LASF156:
 3566 02b4 73696E5F 		.ascii	"sin_port\000"
 3566      706F7274 
 3566      00
 3567              	.LASF176:
 3568 02bd 7265715F 		.ascii	"req_argv\000"
 3568      61726776 
 3568      00
 3569              	.LASF179:
ARM GAS  C:\Users\jo\AppData\Local\Temp\ccPkvB6H.s 			page 66


 3570 02c6 7265715F 		.ascii	"req_realm\000"
 3570      7265616C 
 3570      6D00
 3571              	.LASF118:
 3572 02d0 73746B61 		.ascii	"stkalign_t\000"
 3572      6C69676E 
 3572      5F7400
 3573              	.LASF188:
 3574 02db 7265715F 		.ascii	"req_bnd_type\000"
 3574      626E645F 
 3574      74797065 
 3574      00
 3575              	.LASF206:
 3576 02e8 4D656469 		.ascii	"MediaTypesFindByExt\000"
 3576      61547970 
 3576      65734669 
 3576      6E644279 
 3576      45787400 
 3577              	.LASF182:
 3578 02fc 7265715F 		.ascii	"req_auth\000"
 3578      61757468 
 3578      00
 3579              	.LASF170:
 3580 0305 7265715F 		.ascii	"req_method\000"
 3580      6D657468 
 3580      6F6400
 3581              	.LASF215:
 3582 0310 6D656469 		.ascii	"mediaTypeList\000"
 3582      61547970 
 3582      654C6973 
 3582      7400
 3583              	.LASF54:
 3584 031e 74726566 		.ascii	"trefs_t\000"
 3584      735F7400 
 3585              	.LASF158:
 3586 0326 73696E5F 		.ascii	"sin_zero\000"
 3586      7A65726F 
 3586      00
 3587              	.LASF41:
 3588 032f 73745F63 		.ascii	"st_ctime\000"
 3588      74696D65 
 3588      00
 3589              	.LASF58:
 3590 0338 636E745F 		.ascii	"cnt_t\000"
 3590      7400
 3591              	.LASF100:
 3592 033e 76745F66 		.ascii	"vt_func\000"
 3592      756E6300 
 3593              	.LASF187:
 3594 0346 7265715F 		.ascii	"req_bnd_dispo\000"
 3594      626E645F 
 3594      64697370 
 3594      6F00
 3595              	.LASF129:
 3596 0354 63685F74 		.ascii	"ch_trace_buffer_t\000"
 3596      72616365 
 3596      5F627566 
ARM GAS  C:\Users\jo\AppData\Local\Temp\ccPkvB6H.s 			page 67


 3596      6665725F 
 3596      7400
 3597              	.LASF77:
 3598 0366 705F6570 		.ascii	"p_epending\000"
 3598      656E6469 
 3598      6E6700
 3599              	.LASF137:
 3600 0371 77746D74 		.ascii	"wtmtxp\000"
 3600      787000
 3601              	.LASF87:
 3602 0378 63685F72 		.ascii	"ch_ready_list\000"
 3602      65616479 
 3602      5F6C6973 
 3602      7400
 3603              	.LASF191:
 3604 0386 735F7374 		.ascii	"s_stream\000"
 3604      7265616D 
 3604      00
 3605              	.LASF34:
 3606 038f 73745F67 		.ascii	"st_gid\000"
 3606      696400
 3607              	.LASF108:
 3608 0396 6973725F 		.ascii	"isr_cnt\000"
 3608      636E7400 
 3609              	.LASF124:
 3610 039e 73655F73 		.ascii	"se_state\000"
 3610      74617465 
 3610      00
 3611              	.LASF192:
 3612 03a7 735F7265 		.ascii	"s_req\000"
 3612      7100
 3613              	.LASF13:
 3614 03ad 5F5F7569 		.ascii	"__uint64_t\000"
 3614      6E743634 
 3614      5F7400
 3615              	.LASF22:
 3616 03b8 696E6F5F 		.ascii	"ino_t\000"
 3616      7400
 3617              	.LASF11:
 3618 03be 6C6F6E67 		.ascii	"long unsigned int\000"
 3618      20756E73 
 3618      69676E65 
 3618      6420696E 
 3618      7400
 3619              	.LASF36:
 3620 03d0 73745F73 		.ascii	"st_size\000"
 3620      697A6500 
 3621              	.LASF139:
 3622 03d8 63685F73 		.ascii	"ch_semaphore\000"
 3622      656D6170 
 3622      686F7265 
 3622      00
 3623              	.LASF62:
 3624 03e5 63685F74 		.ascii	"ch_thread\000"
 3624      68726561 
 3624      6400
 3625              	.LASF166:
ARM GAS  C:\Users\jo\AppData\Local\Temp\ccPkvB6H.s 			page 68


 3626 03ef 7374726D 		.ascii	"strm_caddr\000"
 3626      5F636164 
 3626      647200
 3627              	.LASF102:
 3628 03fa 76697274 		.ascii	"virtual_timers_list_t\000"
 3628      75616C5F 
 3628      74696D65 
 3628      72735F6C 
 3628      6973745F 
 3629              	.LASF198:
 3630 0410 6D656469 		.ascii	"media_flags\000"
 3630      615F666C 
 3630      61677300 
 3631              	.LASF95:
 3632 041c 76697274 		.ascii	"virtual_timer_t\000"
 3632      75616C5F 
 3632      74696D65 
 3632      725F7400 
 3633              	.LASF86:
 3634 042c 72656164 		.ascii	"ready_list_t\000"
 3634      795F6C69 
 3634      73745F74 
 3634      00
 3635              	.LASF40:
 3636 0439 73745F73 		.ascii	"st_spare2\000"
 3636      70617265 
 3636      3200
 3637              	.LASF210:
 3638 0443 66696C65 		.ascii	"filepath\000"
 3638      70617468 
 3638      00
 3639              	.LASF189:
 3640 044c 48545450 		.ascii	"HTTPD_SESSION\000"
 3640      445F5345 
 3640      5353494F 
 3640      4E00
 3641              	.LASF162:
 3642 045a 7374726D 		.ascii	"strm_ibuf\000"
 3642      5F696275 
 3642      6600
 3643              	.LASF83:
 3644 0464 63685F74 		.ascii	"ch_threads_list\000"
 3644      68726561 
 3644      64735F6C 
 3644      69737400 
 3645              	.LASF125:
 3646 0474 63685F73 		.ascii	"ch_swc_event_t\000"
 3646      77635F65 
 3646      76656E74 
 3646      5F7400
 3647              	.LASF218:
 3648 0483 66737461 		.ascii	"fstat\000"
 3648      7400
 3649              	.LASF200:
 3650 0489 6D656469 		.ascii	"media_ext\000"
 3650      615F6578 
 3650      7400
ARM GAS  C:\Users\jo\AppData\Local\Temp\ccPkvB6H.s 			page 69


 3651              	.LASF10:
 3652 0493 5F5F7569 		.ascii	"__uint32_t\000"
 3652      6E743332 
 3652      5F7400
 3653              	.LASF12:
 3654 049e 6C6F6E67 		.ascii	"long long int\000"
 3654      206C6F6E 
 3654      6720696E 
 3654      7400
 3655              	.LASF143:
 3656 04ac 6D5F7175 		.ascii	"m_queue\000"
 3656      65756500 
 3657              	.LASF217:
 3658 04b4 73747272 		.ascii	"strrchr\000"
 3658      63687200 
 3659              	.LASF97:
 3660 04bc 76745F6E 		.ascii	"vt_next\000"
 3660      65787400 
 3661              	.LASF201:
 3662 04c4 4D454449 		.ascii	"MEDIATYPE_HANDLER\000"
 3662      41545950 
 3662      455F4841 
 3662      4E444C45 
 3662      5200
 3663              	.LASF98:
 3664 04d6 76745F70 		.ascii	"vt_prev\000"
 3664      72657600 
 3665              	.LASF126:
 3666 04de 74625F73 		.ascii	"tb_size\000"
 3666      697A6500 
 3667              	.LASF229:
 3668 04e6 2E2E2F2E 		.ascii	"../../../demos/STM32/RT-STM32F407-DISCOVERY-uHttp/u"
 3668      2E2F2E2E 
 3668      2F64656D 
 3668      6F732F53 
 3668      544D3332 
 3669 0519 68747470 		.ascii	"http-1.1/mediatypes.c\000"
 3669      2D312E31 
 3669      2F6D6564 
 3669      69617479 
 3669      7065732E 
 3670              	.LASF181:
 3671 052f 7265715F 		.ascii	"req_cookie\000"
 3671      636F6F6B 
 3671      696500
 3672              	.LASF214:
 3673 053a 49544D5F 		.ascii	"ITM_RxBuffer\000"
 3673      52784275 
 3673      66666572 
 3673      00
 3674              	.LASF220:
 3675 0547 48747470 		.ascii	"HttpSendHeaderBottom\000"
 3675      53656E64 
 3675      48656164 
 3675      6572426F 
 3675      74746F6D 
 3676              	.LASF197:
ARM GAS  C:\Users\jo\AppData\Local\Temp\ccPkvB6H.s 			page 70


 3677 055c 6D656469 		.ascii	"media_subtype\000"
 3677      615F7375 
 3677      62747970 
 3677      6500
 3678              	.LASF74:
 3679 056a 705F7761 		.ascii	"p_waiting\000"
 3679      6974696E 
 3679      6700
 3680              	.LASF163:
 3681 0574 7374726D 		.ascii	"strm_ssock\000"
 3681      5F73736F 
 3681      636B00
 3682              	.LASF123:
 3683 057f 73655F77 		.ascii	"se_wtobjp\000"
 3683      746F626A 
 3683      7000
 3684              	.LASF72:
 3685 0589 705F666C 		.ascii	"p_flags\000"
 3685      61677300 
 3686              	.LASF173:
 3687 0591 7265715F 		.ascii	"req_query\000"
 3687      71756572 
 3687      7900
 3688              	.LASF116:
 3689 059b 69646C65 		.ascii	"idle_thread_wa\000"
 3689      5F746872 
 3689      6561645F 
 3689      776100
 3690              	.LASF0:
 3691 05aa 756E7369 		.ascii	"unsigned int\000"
 3691      676E6564 
 3691      20696E74 
 3691      00
 3692              	.LASF167:
 3693 05b7 48545450 		.ascii	"HTTP_STREAM\000"
 3693      5F535452 
 3693      45414D00 
 3694              	.LASF149:
 3695 05c3 7531365F 		.ascii	"u16_t\000"
 3695      7400
 3696              	.LASF51:
 3697 05c9 7274636E 		.ascii	"rtcnt_t\000"
 3697      745F7400 
 3698              	.LASF80:
 3699 05d1 705F6D70 		.ascii	"p_mpool\000"
 3699      6F6F6C00 
 3700              	.LASF190:
 3701 05d9 5F485454 		.ascii	"_HTTPD_SESSION\000"
 3701      50445F53 
 3701      45535349 
 3701      4F4E00
 3702              	.LASF73:
 3703 05e8 705F7265 		.ascii	"p_refs\000"
 3703      667300
 3704              	.LASF180:
 3705 05ef 7265715F 		.ascii	"req_type\000"
 3705      74797065 
ARM GAS  C:\Users\jo\AppData\Local\Temp\ccPkvB6H.s 			page 71


 3705      00
 3706              	.LASF207:
 3707 05f8 4765744D 		.ascii	"GetMediaTypeEntry\000"
 3707      65646961 
 3707      54797065 
 3707      456E7472 
 3707      7900
 3708              	.LASF130:
 3709 060a 6F666673 		.ascii	"offset\000"
 3709      657400
 3710              	.LASF128:
 3711 0611 74625F62 		.ascii	"tb_buffer\000"
 3711      75666665 
 3711      7200
 3712              	.LASF185:
 3713 061b 7265715F 		.ascii	"req_host\000"
 3713      686F7374 
 3713      00
 3714              	.LASF32:
 3715 0624 73745F6E 		.ascii	"st_nlink\000"
 3715      6C696E6B 
 3715      00
 3716              	.LASF23:
 3717 062d 6F66665F 		.ascii	"off_t\000"
 3717      7400
 3718              	.LASF27:
 3719 0633 6D6F6465 		.ascii	"mode_t\000"
 3719      5F7400
 3720              	.LASF219:
 3721 063a 48747470 		.ascii	"HttpSendHeaderTop\000"
 3721      53656E64 
 3721      48656164 
 3721      6572546F 
 3721      7000
 3722              	.LASF178:
 3723 064c 7265715F 		.ascii	"req_length\000"
 3723      6C656E67 
 3723      746800
 3724              	.LASF60:
 3725 0657 74687265 		.ascii	"thread_t\000"
 3725      61645F74 
 3725      00
 3726              	.LASF37:
 3727 0660 73745F61 		.ascii	"st_atime\000"
 3727      74696D65 
 3727      00
 3728              	.LASF81:
 3729 0669 74687265 		.ascii	"thread_reference_t\000"
 3729      61645F72 
 3729      65666572 
 3729      656E6365 
 3729      5F7400
 3730              	.LASF221:
 3731 067c 5F726561 		.ascii	"_read\000"
 3731      6400
 3732              	.LASF79:
 3733 0682 705F7265 		.ascii	"p_realprio\000"
ARM GAS  C:\Users\jo\AppData\Local\Temp\ccPkvB6H.s 			page 72


 3733      616C7072 
 3733      696F00
 3734              	.LASF120:
 3735 068d 706F7274 		.ascii	"port_intctx\000"
 3735      5F696E74 
 3735      63747800 
 3736              	.LASF29:
 3737 0699 73745F64 		.ascii	"st_dev\000"
 3737      657600
 3738              	.LASF231:
 3739 06a0 48747470 		.ascii	"HttpSendError\000"
 3739      53656E64 
 3739      4572726F 
 3739      7200
 3740              	.LASF99:
 3741 06ae 76745F64 		.ascii	"vt_delta\000"
 3741      656C7461 
 3741      00
 3742              	.LASF199:
 3743 06b7 6D656469 		.ascii	"media_handler\000"
 3743      615F6861 
 3743      6E646C65 
 3743      7200
 3744              	.LASF96:
 3745 06c5 63685F76 		.ascii	"ch_virtual_timer\000"
 3745      69727475 
 3745      616C5F74 
 3745      696D6572 
 3745      00
 3746              	.LASF141:
 3747 06d6 735F636E 		.ascii	"s_cnt\000"
 3747      7400
 3748              	.LASF193:
 3749 06dc 4D454449 		.ascii	"MEDIA_TYPE_ENTRY\000"
 3749      415F5459 
 3749      50455F45 
 3749      4E545259 
 3749      00
 3750              	.LASF14:
 3751 06ed 6C6F6E67 		.ascii	"long long unsigned int\000"
 3751      206C6F6E 
 3751      6720756E 
 3751      7369676E 
 3751      65642069 
 3752              	.LASF169:
 3753 0704 5F485454 		.ascii	"_HTTP_REQUEST\000"
 3753      505F5245 
 3753      51554553 
 3753      5400
 3754              	.LASF68:
 3755 0712 705F6F6C 		.ascii	"p_older\000"
 3755      64657200 
 3756              	.LASF47:
 3757 071a 75696E74 		.ascii	"uint16_t\000"
 3757      31365F74 
 3757      00
 3758              	.LASF56:
ARM GAS  C:\Users\jo\AppData\Local\Temp\ccPkvB6H.s 			page 73


 3759 0723 6D73675F 		.ascii	"msg_t\000"
 3759      7400
 3760              	.LASF85:
 3761 0729 63685F74 		.ascii	"ch_threads_queue\000"
 3761      68726561 
 3761      64735F71 
 3761      75657565 
 3761      00
 3762              	.LASF164:
 3763 073a 7374726D 		.ascii	"strm_csock\000"
 3763      5F63736F 
 3763      636B00
 3764              	.LASF93:
 3765 0745 725F6375 		.ascii	"r_current\000"
 3765      7272656E 
 3765      7400
 3766              	.LASF153:
 3767 074f 736F636B 		.ascii	"sockaddr_in\000"
 3767      61646472 
 3767      5F696E00 
 3768              	.LASF115:
 3769 075b 6D61696E 		.ascii	"mainthread\000"
 3769      74687265 
 3769      616400
 3770              	.LASF88:
 3771 0766 725F7175 		.ascii	"r_queue\000"
 3771      65756500 
 3772              	.LASF159:
 3773 076e 5F485454 		.ascii	"_HTTP_STREAM\000"
 3773      505F5354 
 3773      5245414D 
 3773      00
 3774              	.LASF224:
 3775 077b 6D616C6C 		.ascii	"malloc\000"
 3775      6F6300
 3776              	.LASF151:
 3777 0782 696E5F61 		.ascii	"in_addr\000"
 3777      64647200 
 3778              	.LASF150:
 3779 078a 7533325F 		.ascii	"u32_t\000"
 3779      7400
 3780              	.LASF113:
 3781 0790 726C6973 		.ascii	"rlist\000"
 3781      7400
 3782              	.LASF52:
 3783 0796 746D6F64 		.ascii	"tmode_t\000"
 3783      655F7400 
 3784              	.LASF39:
 3785 079e 73745F6D 		.ascii	"st_mtime\000"
 3785      74696D65 
 3785      00
 3786              	.LASF194:
 3787 07a7 5F4D4544 		.ascii	"_MEDIATYPE\000"
 3787      49415459 
 3787      504500
 3788              	.LASF92:
 3789 07b2 725F6F6C 		.ascii	"r_older\000"
ARM GAS  C:\Users\jo\AppData\Local\Temp\ccPkvB6H.s 			page 74


 3789      64657200 
 3790              	.LASF131:
 3791 07ba 746D5F63 		.ascii	"tm_calibration_t\000"
 3791      616C6962 
 3791      72617469 
 3791      6F6E5F74 
 3791      00
 3792              	.LASF208:
 3793 07cb 6E616D65 		.ascii	"name\000"
 3793      00
 3794              	.LASF140:
 3795 07d0 735F7175 		.ascii	"s_queue\000"
 3795      65756500 
 3796              	.LASF5:
 3797 07d8 73686F72 		.ascii	"short int\000"
 3797      7420696E 
 3797      7400
 3798              	.LASF50:
 3799 07e2 75696E74 		.ascii	"uint64_t\000"
 3799      36345F74 
 3799      00
 3800              	.LASF142:
 3801 07eb 63685F6D 		.ascii	"ch_mutex\000"
 3801      75746578 
 3801      00
 3802              	.LASF183:
 3803 07f4 7265715F 		.ascii	"req_agent\000"
 3803      6167656E 
 3803      7400
 3804              	.LASF195:
 3805 07fe 6D656469 		.ascii	"media_link\000"
 3805      615F6C69 
 3805      6E6B00
 3806              	.LASF89:
 3807 0809 725F7072 		.ascii	"r_prio\000"
 3807      696F00
 3808              	.LASF106:
 3809 0810 63685F73 		.ascii	"ch_system_debug\000"
 3809      79737465 
 3809      6D5F6465 
 3809      62756700 
 3810              	.LASF209:
 3811 0820 4D656469 		.ascii	"MediaTypeHandlerBinary\000"
 3811      61547970 
 3811      6548616E 
 3811      646C6572 
 3811      42696E61 
 3812              	.LASF225:
 3813 0837 5F6F7065 		.ascii	"_open\000"
 3813      6E00
 3814              	.LASF114:
 3815 083d 76746C69 		.ascii	"vtlist\000"
 3815      737400
 3816              	.LASF146:
 3817 0844 6D757465 		.ascii	"mutex_t\000"
 3817      785F7400 
 3818              	.LASF31:
ARM GAS  C:\Users\jo\AppData\Local\Temp\ccPkvB6H.s 			page 75


 3819 084c 73745F6D 		.ascii	"st_mode\000"
 3819      6F646500 
 3820              	.LASF17:
 3821 0854 5F5F7569 		.ascii	"__uid_t\000"
 3821      645F7400 
 3822              	.LASF213:
 3823 085c 4D656469 		.ascii	"MediaTypeHandlerText\000"
 3823      61547970 
 3823      6548616E 
 3823      646C6572 
 3823      54657874 
 3824              	.LASF82:
 3825 0871 74687265 		.ascii	"threads_list_t\000"
 3825      6164735F 
 3825      6C697374 
 3825      5F7400
 3826              	.LASF228:
 3827 0880 474E5520 		.ascii	"GNU C 4.9.3 20141119 (release) [ARM/embedded-4_9-br"
 3827      4320342E 
 3827      392E3320 
 3827      32303134 
 3827      31313139 
 3828 08b3 616E6368 		.ascii	"anch revision 218278] -mcpu=cortex-m4 -mno-thumb-in"
 3828      20726576 
 3828      6973696F 
 3828      6E203231 
 3828      38323738 
 3829 08e6 74657277 		.ascii	"terwork -mthumb -ggdb -O2 -fomit-frame-pointer -fal"
 3829      6F726B20 
 3829      2D6D7468 
 3829      756D6220 
 3829      2D676764 
 3830 0919 69676E2D 		.ascii	"ign-functions=16 -ffunction-sections -fdata-section"
 3830      66756E63 
 3830      74696F6E 
 3830      733D3136 
 3830      202D6666 
 3831 094c 73202D66 		.ascii	"s -fno-common\000"
 3831      6E6F2D63 
 3831      6F6D6D6F 
 3831      6E00
 3832              	.LASF152:
 3833 095a 735F6164 		.ascii	"s_addr\000"
 3833      647200
 3834              	.LASF112:
 3835 0961 63685F73 		.ascii	"ch_system\000"
 3835      79737465 
 3835      6D00
 3836              	.LASF49:
 3837 096b 75696E74 		.ascii	"uint32_t\000"
 3837      33325F74 
 3837      00
 3838              	.LASF15:
 3839 0974 5F6F6666 		.ascii	"_off_t\000"
 3839      5F7400
 3840              	.LASF227:
 3841 097b 66726565 		.ascii	"free\000"
ARM GAS  C:\Users\jo\AppData\Local\Temp\ccPkvB6H.s 			page 76


 3841      00
 3842              	.LASF132:
 3843 0980 7264796D 		.ascii	"rdymsg\000"
 3843      736700
 3844              	.LASF104:
 3845 0987 76745F6C 		.ascii	"vt_lasttime\000"
 3845      61737474 
 3845      696D6500 
 3846              	.LASF7:
 3847 0993 73686F72 		.ascii	"short unsigned int\000"
 3847      7420756E 
 3847      7369676E 
 3847      65642069 
 3847      6E7400
 3848              	.LASF111:
 3849 09a6 63685F73 		.ascii	"ch_system_t\000"
 3849      79737465 
 3849      6D5F7400 
 3850              	.LASF148:
 3851 09b2 75385F74 		.ascii	"u8_t\000"
 3851      00
 3852              	.LASF70:
 3853 09b7 705F7374 		.ascii	"p_stklimit\000"
 3853      6B6C696D 
 3853      697400
 3854              	.LASF8:
 3855 09c2 5F5F696E 		.ascii	"__int32_t\000"
 3855      7433325F 
 3855      7400
 3856              	.LASF161:
 3857 09cc 7374726D 		.ascii	"strm_ilen\000"
 3857      5F696C65 
 3857      6E00
 3858              	.LASF30:
 3859 09d6 73745F69 		.ascii	"st_ino\000"
 3859      6E6F00
 3860              	.LASF121:
 3861 09dd 73655F74 		.ascii	"se_time\000"
 3861      696D6500 
 3862              	.LASF69:
 3863 09e5 705F6E61 		.ascii	"p_name\000"
 3863      6D6500
 3864              	.LASF203:
 3865 09ec 6E657874 		.ascii	"next\000"
 3865      00
 3866              	.LASF26:
 3867 09f1 6769645F 		.ascii	"gid_t\000"
 3867      7400
 3868              	.LASF211:
 3869 09f7 64617461 		.ascii	"data\000"
 3869      00
 3870              	.LASF145:
 3871 09fc 6D5F6E65 		.ascii	"m_next\000"
 3871      787400
 3872              	.LASF127:
 3873 0a03 74625F70 		.ascii	"tb_ptr\000"
 3873      747200
ARM GAS  C:\Users\jo\AppData\Local\Temp\ccPkvB6H.s 			page 77


 3874              	.LASF230:
 3875 0a0a 433A5C55 		.ascii	"C:\\Users\\jo\\Documents\\GitHub\\ChibiOS\\demos\\S"
 3875      73657273 
 3875      5C6A6F5C 
 3875      446F6375 
 3875      6D656E74 
 3876 0a36 544D3332 		.ascii	"TM32\\RT-STM32F407-DISCOVERY-uHttp\000"
 3876      5C52542D 
 3876      53544D33 
 3876      32463430 
 3876      372D4449 
 3877              	.LASF202:
 3878 0a58 70726576 		.ascii	"prev\000"
 3878      00
 3879              	.LASF76:
 3880 0a5d 705F6D73 		.ascii	"p_msg\000"
 3880      6700
 3881              	.LASF71:
 3882 0a63 705F7374 		.ascii	"p_state\000"
 3882      61746500 
 3883              		.ident	"GCC: (GNU Tools for ARM Embedded Processors) 4.9.3 20141119 (release) [ARM/embedded-4_9-br
ARM GAS  C:\Users\jo\AppData\Local\Temp\ccPkvB6H.s 			page 78


DEFINED SYMBOLS
                            *ABS*:00000000 mediatypes.c
C:\Users\jo\AppData\Local\Temp\ccPkvB6H.s:19     .text.MediaTypesFindByExt:00000000 $t
C:\Users\jo\AppData\Local\Temp\ccPkvB6H.s:25     .text.MediaTypesFindByExt:00000000 MediaTypesFindByExt
C:\Users\jo\AppData\Local\Temp\ccPkvB6H.s:76     .text.MediaTypesFindByExt:00000028 $d
C:\Users\jo\AppData\Local\Temp\ccPkvB6H.s:81     .text.GetMediaTypeEntry:00000000 $t
C:\Users\jo\AppData\Local\Temp\ccPkvB6H.s:87     .text.GetMediaTypeEntry:00000000 GetMediaTypeEntry
C:\Users\jo\AppData\Local\Temp\ccPkvB6H.s:159    .text.GetMediaTypeEntry:00000034 $d
C:\Users\jo\AppData\Local\Temp\ccPkvB6H.s:165    .text.MediaTypeHandlerBinary:00000000 $t
C:\Users\jo\AppData\Local\Temp\ccPkvB6H.s:171    .text.MediaTypeHandlerBinary:00000000 MediaTypeHandlerBinary
C:\Users\jo\AppData\Local\Temp\ccPkvB6H.s:314    .text.MediaTypeHandlerText:00000000 $t
C:\Users\jo\AppData\Local\Temp\ccPkvB6H.s:320    .text.MediaTypeHandlerText:00000000 MediaTypeHandlerText
C:\Users\jo\AppData\Local\Temp\ccPkvB6H.s:340    .bss.mediaTypeList:00000000 mediaTypeList
C:\Users\jo\AppData\Local\Temp\ccPkvB6H.s:336    .bss.mediaTypeList:00000000 $d
C:\Users\jo\AppData\Local\Temp\ccPkvB6H.s:343    .rodata.str1.4:00000000 $d
                     .debug_frame:00000010 $d
C:\Users\jo\AppData\Local\Temp\ccPkvB6H.s:80     .text.MediaTypesFindByExt:0000002c $t
C:\Users\jo\AppData\Local\Temp\ccPkvB6H.s:164    .text.GetMediaTypeEntry:0000003c $t

UNDEFINED SYMBOLS
strcasecmp
strrchr
malloc
_open
fstat
HttpSendHeaderTop
HttpSendHeaderBottom
_read
_close
s_flush
free
s_write
HttpSendError
