ARM GAS  C:\Users\jo\AppData\Local\Temp\ccPkvB6H.s 			page 1


   1              		.syntax unified
   2              		.cpu cortex-m4
   3              		.fpu softvfp
   4              		.eabi_attribute 20, 1
   5              		.eabi_attribute 21, 1
   6              		.eabi_attribute 23, 3
   7              		.eabi_attribute 24, 1
   8              		.eabi_attribute 25, 1
   9              		.eabi_attribute 26, 1
  10              		.eabi_attribute 30, 2
  11              		.eabi_attribute 34, 1
  12              		.eabi_attribute 18, 4
  13              		.thumb
  14              		.file	"mediatypes.c"
  15              		.text
  16              	.Ltext0:
  17              		.cfi_sections	.debug_frame
  18              		.section	.text.MediaTypesFindByExt,"ax",%progbits
  19              		.align	2
  20              		.p2align 4,,15
  21              		.global	MediaTypesFindByExt
  22              		.thumb
  23              		.thumb_func
  24              		.type	MediaTypesFindByExt, %function
  25              	MediaTypesFindByExt:
  26              	.LFB260:
  27              		.file 1 "../../../demos/STM32/RT-STM32F407-DISCOVERY-uHttp/uhttp-1.1/mediatypes.c"
  28              		.loc 1 63 0
  29              		.cfi_startproc
  30              		@ args = 0, pretend = 0, frame = 0
  31              		@ frame_needed = 0, uses_anonymous_args = 0
  32              	.LVL0:
  33 0000 38B5     		push	{r3, r4, r5, lr}
  34              		.cfi_def_cfa_offset 16
  35              		.cfi_offset 3, -16
  36              		.cfi_offset 4, -12
  37              		.cfi_offset 5, -8
  38              		.cfi_offset 14, -4
  39              		.loc 1 67 0
  40 0002 094B     		ldr	r3, .L11
  41 0004 1C68     		ldr	r4, [r3]
  42              	.LVL1:
  43              		.loc 1 63 0
  44 0006 0546     		mov	r5, r0
  45              		.loc 1 67 0
  46 0008 14B9     		cbnz	r4, .L4
  47 000a 0AE0     		b	.L2
  48              	.LVL2:
  49              	.L3:
  50              		.loc 1 67 0 is_stmt 0 discriminator 2
  51 000c 6468     		ldr	r4, [r4, #4]
  52              	.LVL3:
  53 000e 44B1     		cbz	r4, .L2
  54              	.LVL4:
  55              	.L4:
  56              		.loc 1 68 0 is_stmt 1
  57 0010 04F11800 		add	r0, r4, #24
ARM GAS  C:\Users\jo\AppData\Local\Temp\ccPkvB6H.s 			page 2


  58 0014 2946     		mov	r1, r5
  59 0016 FFF7FEFF 		bl	strcasecmp
  60              	.LVL5:
  61              		.loc 1 69 0
  62 001a 0028     		cmp	r0, #0
  63 001c F6DC     		bgt	.L3
  64              		.loc 1 71 0
  65 001e 18BF     		it	ne
  66 0020 0024     		movne	r4, #0
  67              	.LVL6:
  68              	.L2:
  69              		.loc 1 77 0
  70 0022 2046     		mov	r0, r4
  71 0024 38BD     		pop	{r3, r4, r5, pc}
  72              	.LVL7:
  73              	.L12:
  74 0026 00BF     		.align	2
  75              	.L11:
  76 0028 00000000 		.word	.LANCHOR0
  77              		.cfi_endproc
  78              	.LFE260:
  79              		.size	MediaTypesFindByExt, .-MediaTypesFindByExt
  80 002c AFF30080 		.section	.text.GetMediaTypeEntry,"ax",%progbits
  81              		.align	2
  82              		.p2align 4,,15
  83              		.global	GetMediaTypeEntry
  84              		.thumb
  85              		.thumb_func
  86              		.type	GetMediaTypeEntry, %function
  87              	GetMediaTypeEntry:
  88              	.LFB261:
  89              		.loc 1 80 0
  90              		.cfi_startproc
  91              		@ args = 0, pretend = 0, frame = 0
  92              		@ frame_needed = 0, uses_anonymous_args = 0
  93              	.LVL8:
  94              		.loc 1 83 0
  95 0000 A8B1     		cbz	r0, .L25
  96              		.loc 1 80 0 discriminator 1
  97 0002 08B5     		push	{r3, lr}
  98              		.cfi_def_cfa_offset 8
  99              		.cfi_offset 3, -8
 100              		.cfi_offset 14, -4
 101              		.loc 1 83 0 discriminator 1
 102 0004 0378     		ldrb	r3, [r0]	@ zero_extendqisi2
 103 0006 43B1     		cbz	r3, .L26
 104              	.LBB2:
 105              		.loc 1 86 0
 106 0008 2E21     		movs	r1, #46
 107 000a FFF7FEFF 		bl	strrchr
 108              	.LVL9:
 109              		.loc 1 87 0
 110 000e 48B1     		cbz	r0, .L16
 111              		.loc 1 87 0 is_stmt 0 discriminator 1
 112 0010 0130     		adds	r0, r0, #1
 113              	.LVL10:
 114 0012 FFF7FEFF 		bl	MediaTypesFindByExt
ARM GAS  C:\Users\jo\AppData\Local\Temp\ccPkvB6H.s 			page 3


 115              	.LVL11:
 116 0016 28B1     		cbz	r0, .L16
 117              	.LBE2:
 118              		.loc 1 92 0 is_stmt 1
 119 0018 08BD     		pop	{r3, pc}
 120              	.LVL12:
 121              	.L26:
 122              		.loc 1 84 0
 123 001a 0648     		ldr	r0, .L27
 124              	.LVL13:
 125              		.loc 1 92 0
 126 001c BDE80840 		pop	{r3, lr}
 127              		.cfi_remember_state
 128              		.cfi_restore 14
 129              		.cfi_restore 3
 130              		.cfi_def_cfa_offset 0
 131              		.loc 1 84 0
 132 0020 FFF7FEBF 		b	MediaTypesFindByExt
 133              	.LVL14:
 134              	.L16:
 135              		.cfi_restore_state
 136              	.LBB3:
 137              		.loc 1 88 0
 138 0024 0448     		ldr	r0, .L27+4
 139              	.LBE3:
 140              		.loc 1 92 0
 141 0026 BDE80840 		pop	{r3, lr}
 142              		.cfi_restore 14
 143              		.cfi_restore 3
 144              		.cfi_def_cfa_offset 0
 145              	.LBB4:
 146              		.loc 1 88 0
 147 002a FFF7FEBF 		b	MediaTypesFindByExt
 148              	.LVL15:
 149              	.L25:
 150              	.LBE4:
 151              		.loc 1 84 0
 152 002e 0148     		ldr	r0, .L27
 153              	.LVL16:
 154 0030 FFF7FEBF 		b	MediaTypesFindByExt
 155              	.LVL17:
 156              	.L28:
 157              		.align	2
 158              	.L27:
 159 0034 00000000 		.word	.LC0
 160 0038 08000000 		.word	.LC1
 161              		.cfi_endproc
 162              	.LFE261:
 163              		.size	GetMediaTypeEntry, .-GetMediaTypeEntry
 164 003c AFF30080 		.section	.text.MediaTypeHandlerBinary,"ax",%progbits
 165              		.align	2
 166              		.p2align 4,,15
 167              		.global	MediaTypeHandlerBinary
 168              		.thumb
 169              		.thumb_func
 170              		.type	MediaTypeHandlerBinary, %function
 171              	MediaTypeHandlerBinary:
ARM GAS  C:\Users\jo\AppData\Local\Temp\ccPkvB6H.s 			page 4


 172              	.LFB262:
 173              		.loc 1 95 0
 174              		.cfi_startproc
 175              		@ args = 0, pretend = 0, frame = 64
 176              		@ frame_needed = 0, uses_anonymous_args = 0
 177              	.LVL18:
 178 0000 2DE9F041 		push	{r4, r5, r6, r7, r8, lr}
 179              		.cfi_def_cfa_offset 24
 180              		.cfi_offset 4, -24
 181              		.cfi_offset 5, -20
 182              		.cfi_offset 6, -16
 183              		.cfi_offset 7, -12
 184              		.cfi_offset 8, -8
 185              		.cfi_offset 14, -4
 186 0004 0746     		mov	r7, r0
 187 0006 90B0     		sub	sp, sp, #64
 188              		.cfi_def_cfa_offset 88
 189              		.loc 1 98 0
 190 0008 40F2B450 		movw	r0, #1460
 191              	.LVL19:
 192              		.loc 1 95 0
 193 000c 1646     		mov	r6, r2
 194 000e 0C46     		mov	r4, r1
 195              		.loc 1 98 0
 196 0010 FFF7FEFF 		bl	malloc
 197              	.LVL20:
 198              		.loc 1 107 0
 199 0014 4FF40041 		mov	r1, #32768
 200              		.loc 1 98 0
 201 0018 0546     		mov	r5, r0
 202              	.LVL21:
 203              		.loc 1 107 0
 204 001a 3046     		mov	r0, r6
 205              	.LVL22:
 206 001c FFF7FEFF 		bl	_open
 207              	.LVL23:
 208              		.loc 1 108 0
 209 0020 431C     		adds	r3, r0, #1
 210              		.loc 1 107 0
 211 0022 0646     		mov	r6, r0
 212              	.LVL24:
 213              		.loc 1 108 0
 214 0024 33D0     		beq	.L39
 215              	.LBB5:
 216              		.loc 1 112 0
 217 0026 01A9     		add	r1, sp, #4
 218 0028 FFF7FEFF 		bl	fstat
 219              	.LVL25:
 220              		.loc 1 113 0
 221 002c 30B3     		cbz	r0, .L40
 222              	.LBE5:
 223              		.loc 1 99 0
 224 002e 4FF0FF38 		mov	r8, #-1
 225              	.LVL26:
 226              	.L32:
 227              	.LBB6:
 228              		.loc 1 129 0
ARM GAS  C:\Users\jo\AppData\Local\Temp\ccPkvB6H.s 			page 5


 229 0032 3846     		mov	r0, r7
 230              	.LVL27:
 231 0034 C821     		movs	r1, #200
 232 0036 FFF7FEFF 		bl	HttpSendHeaderTop
 233              	.LVL28:
 234              		.loc 1 133 0
 235 003a 4346     		mov	r3, r8
 236 003c 3846     		mov	r0, r7
 237 003e A168     		ldr	r1, [r4, #8]
 238 0040 E268     		ldr	r2, [r4, #12]
 239 0042 FFF7FEFF 		bl	HttpSendHeaderBottom
 240              	.LVL29:
 241              		.loc 1 135 0
 242 0046 40F2B458 		movw	r8, #1460
 243              	.LVL30:
 244              	.L34:
 245 004a 2946     		mov	r1, r5
 246 004c 40F2B452 		movw	r2, #1460
 247 0050 3046     		mov	r0, r6
 248 0052 FFF7FEFF 		bl	_read
 249              	.LVL31:
 250              		.loc 1 136 0
 251 0056 041E     		subs	r4, r0, #0
 252              		.loc 1 137 0
 253 0058 4FF00101 		mov	r1, #1
 254 005c 2246     		mov	r2, r4
 255 005e 2846     		mov	r0, r5
 256              	.LVL32:
 257              		.loc 1 136 0
 258 0060 0FDC     		bgt	.L33
 259              	.LVL33:
 260              	.L35:
 261              		.loc 1 141 0
 262 0062 3046     		mov	r0, r6
 263 0064 FFF7FEFF 		bl	_close
 264              	.LVL34:
 265              	.L31:
 266              	.LBE6:
 267              		.loc 1 143 0
 268 0068 3868     		ldr	r0, [r7]
 269 006a FFF7FEFF 		bl	s_flush
 270              	.LVL35:
 271              		.loc 1 144 0
 272 006e 2846     		mov	r0, r5
 273 0070 FFF7FEFF 		bl	free
 274              	.LVL36:
 275              		.loc 1 147 0
 276 0074 0020     		movs	r0, #0
 277 0076 10B0     		add	sp, sp, #64
 278              		.cfi_remember_state
 279              		.cfi_def_cfa_offset 24
 280              		@ sp needed
 281 0078 BDE8F081 		pop	{r4, r5, r6, r7, r8, pc}
 282              	.LVL37:
 283              	.L40:
 284              		.cfi_restore_state
 285              	.LBB7:
ARM GAS  C:\Users\jo\AppData\Local\Temp\ccPkvB6H.s 			page 6


 286              		.loc 1 114 0
 287 007c DDF81480 		ldr	r8, [sp, #20]
 288              	.LVL38:
 289 0080 D7E7     		b	.L32
 290              	.LVL39:
 291              	.L33:
 292              		.loc 1 137 0
 293 0082 3B68     		ldr	r3, [r7]
 294 0084 FFF7FEFF 		bl	s_write
 295              	.LVL40:
 296              		.loc 1 139 0
 297 0088 4445     		cmp	r4, r8
 298 008a DED0     		beq	.L34
 299 008c E9E7     		b	.L35
 300              	.LVL41:
 301              	.L39:
 302              	.LBE7:
 303              		.loc 1 109 0
 304 008e 3846     		mov	r0, r7
 305              	.LVL42:
 306 0090 4FF4CA71 		mov	r1, #404
 307 0094 FFF7FEFF 		bl	HttpSendError
 308              	.LVL43:
 309 0098 E6E7     		b	.L31
 310              		.cfi_endproc
 311              	.LFE262:
 312              		.size	MediaTypeHandlerBinary, .-MediaTypeHandlerBinary
 313 009a 00BFAFF3 		.section	.text.MediaTypeHandlerText,"ax",%progbits
 313      0080
 314              		.align	2
 315              		.p2align 4,,15
 316              		.global	MediaTypeHandlerText
 317              		.thumb
 318              		.thumb_func
 319              		.type	MediaTypeHandlerText, %function
 320              	MediaTypeHandlerText:
 321              	.LFB263:
 322              		.loc 1 150 0
 323              		.cfi_startproc
 324              		@ args = 0, pretend = 0, frame = 0
 325              		@ frame_needed = 0, uses_anonymous_args = 0
 326              		@ link register save eliminated.
 327              	.LVL44:
 328              		.loc 1 151 0
 329 0000 FFF7FEBF 		b	MediaTypeHandlerBinary
 330              	.LVL45:
 331              		.cfi_endproc
 332              	.LFE263:
 333              		.size	MediaTypeHandlerText, .-MediaTypeHandlerText
 334              		.global	mediaTypeList
 335 0004 AFF30080 		.section	.bss.mediaTypeList,"aw",%nobits
 335      AFF30080 
 335      AFF30080 
 336              		.align	2
 337              		.set	.LANCHOR0,. + 0
 338              		.type	mediaTypeList, %object
 339              		.size	mediaTypeList, 8
ARM GAS  C:\Users\jo\AppData\Local\Temp\ccPkvB6H.s 			page 7


 340              	mediaTypeList:
 341 0000 00000000 		.space	8
 341      00000000 
 342              		.section	.rodata.str1.4,"aMS",%progbits,1
 343              		.align	2
 344              	.LC0:
 345 0000 68746D6C 		.ascii	"html\000"
 345      00
 346 0005 000000   		.space	3
 347              	.LC1:
 348 0008 74787400 		.ascii	"txt\000"
 349              		.text
 350              	.Letext0:
 351              		.file 2 "c:\\program files\\gnu tools arm embedded\\4.9 2014q4\\lib\\gcc\\arm-none-eabi\\4.9.3\\in
 352              		.file 3 "c:\\program files\\gnu tools arm embedded\\4.9 2014q4\\arm-none-eabi\\include\\machine\\_
 353              		.file 4 "c:\\program files\\gnu tools arm embedded\\4.9 2014q4\\arm-none-eabi\\include\\sys\\_type
 354              		.file 5 "c:\\program files\\gnu tools arm embedded\\4.9 2014q4\\arm-none-eabi\\include\\sys\\types
 355              		.file 6 "c:\\program files\\gnu tools arm embedded\\4.9 2014q4\\arm-none-eabi\\include\\sys\\stat.
 356              		.file 7 "c:\\program files\\gnu tools arm embedded\\4.9 2014q4\\arm-none-eabi\\include\\stdint.h"
 357              		.file 8 "../../../os/rt/ports/ARMCMx/compilers/GCC/chtypes.h"
 358              		.file 9 "../../../os/rt/include/chsystypes.h"
 359              		.file 10 "../../../os/rt/include/chschd.h"
 360              		.file 11 "../../../os/rt/ports/ARMCMx/chcore.h"
 361              		.file 12 "../../../os/rt/ports/ARMCMx/chcore_v7m.h"
 362              		.file 13 "../../../os/rt/include/chdebug.h"
 363              		.file 14 "../../../os/rt/include/chtm.h"
 364              		.file 15 "../../../os/rt/include/chsem.h"
 365              		.file 16 "../../../os/rt/include/chmtx.h"
 366              		.file 17 "../../../os/various/lwip_bindings/arch/cc.h"
 367              		.file 18 "../../../ext/lwip/src/include/ipv4/lwip/inet.h"
 368              		.file 19 "../../../ext/lwip/src/include/lwip\\sockets.h"
 369              		.file 20 "./uhttp-1.1/pro/lwip/streamio.h"
 370              		.file 21 "./os/streamio.h"
 371              		.file 22 "./uhttp-1.1/uhttpd.h"
 372              		.file 23 "./uhttp-1.1/mediatypes.h"
 373              		.file 24 "../../../os/ext/CMSIS/include/core_cm4.h"
 374              		.file 25 "c:\\program files\\gnu tools arm embedded\\4.9 2014q4\\arm-none-eabi\\include\\string.h"
 375              		.file 26 "./uhttp-1.1/io.h"
 376              		.file 27 "c:\\program files\\gnu tools arm embedded\\4.9 2014q4\\arm-none-eabi\\include\\stdlib.h"