ARM GAS  C:\Users\jo\AppData\Local\Temp\ccVc71DF.s 			page 1


   1              		.syntax unified
   2              		.cpu cortex-m4
   3              		.fpu softvfp
   4              		.eabi_attribute 20, 1
   5              		.eabi_attribute 21, 1
   6              		.eabi_attribute 23, 3
   7              		.eabi_attribute 24, 1
   8              		.eabi_attribute 25, 1
   9              		.eabi_attribute 26, 1
  10              		.eabi_attribute 30, 2
  11              		.eabi_attribute 34, 1
  12              		.eabi_attribute 18, 4
  13              		.thumb
  14              		.file	"mod_cgi_func.c"
  15              		.text
  16              	.Ltext0:
  17              		.cfi_sections	.debug_frame
  18              		.section	.text.HttpCgiFunctionLookup,"ax",%progbits
  19              		.align	2
  20              		.p2align 4,,15
  21              		.global	HttpCgiFunctionLookup
  22              		.thumb
  23              		.thumb_func
  24              		.type	HttpCgiFunctionLookup, %function
  25              	HttpCgiFunctionLookup:
  26              	.LFB260:
  27              		.file 1 "../../../demos/STM32/RT-STM32F407-DISCOVERY-uHttp/uhttp-1.1/pro/modules/mod_cgi_func.c"
  28              		.loc 1 47 0
  29              		.cfi_startproc
  30              		@ args = 0, pretend = 0, frame = 0
  31              		@ frame_needed = 0, uses_anonymous_args = 0
  32              	.LVL0:
  33 0000 38B5     		push	{r3, r4, r5, lr}
  34              		.cfi_def_cfa_offset 16
  35              		.cfi_offset 3, -16
  36              		.cfi_offset 4, -12
  37              		.cfi_offset 5, -8
  38              		.cfi_offset 14, -4
  39              		.loc 1 53 0
  40 0002 084B     		ldr	r3, .L11
  41 0004 1C68     		ldr	r4, [r3]
  42              	.LVL1:
  43              		.loc 1 47 0
  44 0006 0546     		mov	r5, r0
  45              		.loc 1 53 0
  46 0008 14B9     		cbnz	r4, .L4
  47 000a 09E0     		b	.L2
  48              	.LVL2:
  49              	.L3:
  50              		.loc 1 53 0 is_stmt 0 discriminator 2
  51 000c 6468     		ldr	r4, [r4, #4]
  52              	.LVL3:
  53 000e 3CB1     		cbz	r4, .L2
  54              	.LVL4:
  55              	.L4:
  56              		.loc 1 54 0 is_stmt 1
  57 0010 A068     		ldr	r0, [r4, #8]
ARM GAS  C:\Users\jo\AppData\Local\Temp\ccVc71DF.s 			page 2


  58 0012 2946     		mov	r1, r5
  59 0014 FFF7FEFF 		bl	strcasecmp
  60              	.LVL5:
  61              		.loc 1 55 0
  62 0018 0028     		cmp	r0, #0
  63 001a F7DC     		bgt	.L3
  64              		.loc 1 57 0
  65 001c 18BF     		it	ne
  66 001e 0024     		movne	r4, #0
  67              	.LVL6:
  68              	.L2:
  69              		.loc 1 63 0
  70 0020 2046     		mov	r0, r4
  71 0022 38BD     		pop	{r3, r4, r5, pc}
  72              	.LVL7:
  73              	.L12:
  74              		.align	2
  75              	.L11:
  76 0024 00000000 		.word	.LANCHOR0
  77              		.cfi_endproc
  78              	.LFE260:
  79              		.size	HttpCgiFunctionLookup, .-HttpCgiFunctionLookup
  80 0028 AFF30080 		.section	.text.HttpRegisterCgiFunction,"ax",%progbits
  80      AFF30080 
  81              		.align	2
  82              		.p2align 4,,15
  83              		.global	HttpRegisterCgiFunction
  84              		.thumb
  85              		.thumb_func
  86              		.type	HttpRegisterCgiFunction, %function
  87              	HttpRegisterCgiFunction:
  88              	.LFB261:
  89              		.loc 1 66 0
  90              		.cfi_startproc
  91              		@ args = 0, pretend = 0, frame = 0
  92              		@ frame_needed = 0, uses_anonymous_args = 0
  93              	.LVL8:
  94 0000 2DE9F843 		push	{r3, r4, r5, r6, r7, r8, r9, lr}
  95              		.cfi_def_cfa_offset 32
  96              		.cfi_offset 3, -32
  97              		.cfi_offset 4, -28
  98              		.cfi_offset 5, -24
  99              		.cfi_offset 6, -20
 100              		.cfi_offset 7, -16
 101              		.cfi_offset 8, -12
 102              		.cfi_offset 9, -8
 103              		.cfi_offset 14, -4
 104              		.loc 1 73 0
 105 0004 DFF8E890 		ldr	r9, .L37
 106 0008 D9F80070 		ldr	r7, [r9]
 107              	.LVL9:
 108              		.loc 1 66 0
 109 000c 0646     		mov	r6, r0
 110 000e 8846     		mov	r8, r1
 111              		.loc 1 73 0
 112 0010 3C46     		mov	r4, r7
 113 0012 17B9     		cbnz	r7, .L16
ARM GAS  C:\Users\jo\AppData\Local\Temp\ccVc71DF.s 			page 3


 114 0014 12E0     		b	.L14
 115              	.LVL10:
 116              	.L35:
 117              		.loc 1 73 0 is_stmt 0 discriminator 2
 118 0016 6468     		ldr	r4, [r4, #4]
 119              	.LVL11:
 120 0018 84B1     		cbz	r4, .L14
 121              	.LVL12:
 122              	.L16:
 123              		.loc 1 74 0 is_stmt 1
 124 001a A568     		ldr	r5, [r4, #8]
 125 001c 3146     		mov	r1, r6
 126 001e 2846     		mov	r0, r5
 127 0020 FFF7FEFF 		bl	strcasecmp
 128              	.LVL13:
 129              		.loc 1 75 0
 130 0024 0028     		cmp	r0, #0
 131 0026 F6DC     		bgt	.L35
 132              		.loc 1 79 0
 133 0028 08D1     		bne	.L14
 134              		.loc 1 98 0
 135 002a B8F1000F 		cmp	r8, #0
 136 002e 28D0     		beq	.L26
 137              		.loc 1 100 0
 138 0030 C4F80C80 		str	r8, [r4, #12]
 139              		.loc 1 67 0
 140 0034 4FF0FF30 		mov	r0, #-1
 141              	.LVL14:
 142 0038 BDE8F883 		pop	{r3, r4, r5, r6, r7, r8, r9, pc}
 143              	.LVL15:
 144              	.L14:
 145              	.LBB2:
 146              		.loc 1 82 0
 147 003c 0120     		movs	r0, #1
 148 003e 1021     		movs	r1, #16
 149 0040 FFF7FEFF 		bl	calloc
 150              	.LVL16:
 151              		.loc 1 83 0
 152 0044 0546     		mov	r5, r0
 153 0046 0028     		cmp	r0, #0
 154 0048 46D0     		beq	.L32
 155              		.loc 1 84 0
 156 004a 3046     		mov	r0, r6
 157              	.LVL17:
 158 004c FFF7FEFF 		bl	strdup
 159              	.LVL18:
 160 0050 A860     		str	r0, [r5, #8]
 161              		.loc 1 85 0
 162 0052 0028     		cmp	r0, #0
 163 0054 44D0     		beq	.L19
 164              		.loc 1 86 0
 165 0056 C5F80C80 		str	r8, [r5, #12]
 166              		.loc 1 87 0
 167 005a 4CB3     		cbz	r4, .L20
 168              		.loc 1 88 0
 169 005c 2368     		ldr	r3, [r4]
 170 005e 3BB1     		cbz	r3, .L36
ARM GAS  C:\Users\jo\AppData\Local\Temp\ccVc71DF.s 			page 4


 171              		.loc 1 88 0 is_stmt 0 discriminator 2
 172 0060 2B60     		str	r3, [r5]
 173 0062 2560     		str	r5, [r4]
 174 0064 2B68     		ldr	r3, [r5]
 175              		.loc 1 92 0 is_stmt 1 discriminator 2
 176 0066 0020     		movs	r0, #0
 177              		.loc 1 88 0 discriminator 2
 178 0068 5D60     		str	r5, [r3, #4]
 179 006a 6C60     		str	r4, [r5, #4]
 180 006c BDE8F883 		pop	{r3, r4, r5, r6, r7, r8, r9, pc}
 181              	.LVL19:
 182              	.L36:
 183              		.loc 1 88 0 is_stmt 0 discriminator 1
 184 0070 DFB1     		cbz	r7, .L22
 185              		.loc 1 88 0 discriminator 3
 186 0072 3D60     		str	r5, [r7]
 187              	.L23:
 188              		.loc 1 88 0 discriminator 6
 189 0074 0020     		movs	r0, #0
 190 0076 6F60     		str	r7, [r5, #4]
 191 0078 C9F80050 		str	r5, [r9]
 192 007c 2860     		str	r0, [r5]
 193 007e BDE8F883 		pop	{r3, r4, r5, r6, r7, r8, r9, pc}
 194              	.LVL20:
 195              	.L26:
 196              	.LBE2:
 197              		.loc 1 104 0 is_stmt 1
 198 0082 94E80C00 		ldmia	r4, {r2, r3}
 199 0086 FBB1     		cbz	r3, .L27
 200              		.loc 1 104 0 is_stmt 0 discriminator 1
 201 0088 1A60     		str	r2, [r3]
 202 008a 2268     		ldr	r2, [r4]
 203              	.L28:
 204              		.loc 1 104 0 discriminator 4
 205 008c FAB1     		cbz	r2, .L29
 206              		.loc 1 104 0 discriminator 5
 207 008e 5360     		str	r3, [r2, #4]
 208              	.L30:
 209              		.loc 1 104 0 discriminator 8
 210 0090 4FF0FF36 		mov	r6, #-1
 211              	.LVL21:
 212              		.loc 1 105 0 is_stmt 1 discriminator 8
 213 0094 2846     		mov	r0, r5
 214              	.LVL22:
 215              		.loc 1 104 0 discriminator 8
 216 0096 2660     		str	r6, [r4]
 217 0098 6660     		str	r6, [r4, #4]
 218              		.loc 1 105 0 discriminator 8
 219 009a FFF7FEFF 		bl	free
 220              	.LVL23:
 221              		.loc 1 106 0 discriminator 8
 222 009e 2046     		mov	r0, r4
 223 00a0 FFF7FEFF 		bl	free
 224              	.LVL24:
 225              		.loc 1 67 0 discriminator 8
 226 00a4 3046     		mov	r0, r6
 227 00a6 BDE8F883 		pop	{r3, r4, r5, r6, r7, r8, r9, pc}
ARM GAS  C:\Users\jo\AppData\Local\Temp\ccVc71DF.s 			page 5


 228              	.LVL25:
 229              	.L22:
 230              	.LBB3:
 231              		.loc 1 88 0 discriminator 4
 232 00aa C9F80450 		str	r5, [r9, #4]
 233 00ae E1E7     		b	.L23
 234              	.L20:
 235              		.loc 1 90 0
 236 00b0 D9F80430 		ldr	r3, [r9, #4]
 237 00b4 0E4A     		ldr	r2, .L37
 238 00b6 6BB1     		cbz	r3, .L24
 239              		.loc 1 90 0 is_stmt 0 discriminator 1
 240 00b8 5D60     		str	r5, [r3, #4]
 241              	.L25:
 242              		.loc 1 90 0 discriminator 4
 243 00ba 0020     		movs	r0, #0
 244 00bc 2B60     		str	r3, [r5]
 245 00be C9F80450 		str	r5, [r9, #4]
 246 00c2 6860     		str	r0, [r5, #4]
 247 00c4 BDE8F883 		pop	{r3, r4, r5, r6, r7, r8, r9, pc}
 248              	.LVL26:
 249              	.L27:
 250              	.LBE3:
 251              		.loc 1 104 0 is_stmt 1 discriminator 2
 252 00c8 C9F80420 		str	r2, [r9, #4]
 253 00cc DEE7     		b	.L28
 254              	.L29:
 255              		.loc 1 104 0 is_stmt 0 discriminator 6
 256 00ce C9F80030 		str	r3, [r9]
 257 00d2 DDE7     		b	.L30
 258              	.LVL27:
 259              	.L24:
 260              	.LBB4:
 261              		.loc 1 90 0 is_stmt 1 discriminator 2
 262 00d4 1560     		str	r5, [r2]
 263 00d6 F0E7     		b	.L25
 264              	.LVL28:
 265              	.L32:
 266              	.LBE4:
 267              		.loc 1 67 0
 268 00d8 4FF0FF30 		mov	r0, #-1
 269              	.LVL29:
 270              		.loc 1 109 0
 271 00dc BDE8F883 		pop	{r3, r4, r5, r6, r7, r8, r9, pc}
 272              	.LVL30:
 273              	.L19:
 274              	.LBB5:
 275              		.loc 1 94 0
 276 00e0 2846     		mov	r0, r5
 277 00e2 FFF7FEFF 		bl	free
 278              	.LVL31:
 279              	.LBE5:
 280              		.loc 1 67 0
 281 00e6 4FF0FF30 		mov	r0, #-1
 282 00ea BDE8F883 		pop	{r3, r4, r5, r6, r7, r8, r9, pc}
 283              	.LVL32:
 284              	.L38:
ARM GAS  C:\Users\jo\AppData\Local\Temp\ccVc71DF.s 			page 6


 285 00ee 00BF     		.align	2
 286              	.L37:
 287 00f0 00000000 		.word	.LANCHOR0
 288              		.cfi_endproc
 289              	.LFE261:
 290              		.size	HttpRegisterCgiFunction, .-HttpRegisterCgiFunction
 291 00f4 AFF30080 		.section	.text.HttpCgiFunctionHandler,"ax",%progbits
 291      AFF30080 
 291      AFF30080 
 292              		.align	2
 293              		.p2align 4,,15
 294              		.global	HttpCgiFunctionHandler
 295              		.thumb
 296              		.thumb_func
 297              		.type	HttpCgiFunctionHandler, %function
 298              	HttpCgiFunctionHandler:
 299              	.LFB262:
 300              		.loc 1 112 0
 301              		.cfi_startproc
 302              		@ args = 0, pretend = 0, frame = 0
 303              		@ frame_needed = 0, uses_anonymous_args = 0
 304              	.LVL33:
 305 0000 F8B5     		push	{r3, r4, r5, r6, r7, lr}
 306              		.cfi_def_cfa_offset 24
 307              		.cfi_offset 3, -24
 308              		.cfi_offset 4, -20
 309              		.cfi_offset 5, -16
 310              		.cfi_offset 6, -12
 311              		.cfi_offset 7, -8
 312              		.cfi_offset 14, -4
 313              		.loc 1 118 0
 314 0002 134B     		ldr	r3, .L58
 315 0004 1D68     		ldr	r5, [r3]
 316              		.loc 1 112 0
 317 0006 0746     		mov	r7, r0
 318 0008 1446     		mov	r4, r2
 319              		.loc 1 118 0
 320 000a B5B1     		cbz	r5, .L57
 321 000c 2846     		mov	r0, r5
 322              	.LVL34:
 323 000e FFF7FEFF 		bl	strlen
 324              	.LVL35:
 325 0012 0646     		mov	r6, r0
 326 0014 2946     		mov	r1, r5
 327 0016 2046     		mov	r0, r4
 328 0018 3246     		mov	r2, r6
 329 001a FFF7FEFF 		bl	strncasecmp
 330              	.LVL36:
 331 001e A0B1     		cbz	r0, .L44
 332              	.L45:
 333              		.loc 1 122 0
 334 0020 2078     		ldrb	r0, [r4]	@ zero_extendqisi2
 335 0022 2F28     		cmp	r0, #47
 336 0024 14BF     		ite	ne
 337 0026 2046     		movne	r0, r4
 338 0028 601C     		addeq	r0, r4, #1
 339              	.LVL37:
ARM GAS  C:\Users\jo\AppData\Local\Temp\ccVc71DF.s 			page 7


 340              	.L42:
 341              		.loc 1 124 0
 342 002a FFF7FEFF 		bl	HttpCgiFunctionLookup
 343              	.LVL38:
 344              		.loc 1 125 0
 345 002e 10B1     		cbz	r0, .L51
 346              		.loc 1 126 0
 347 0030 C368     		ldr	r3, [r0, #12]
 348 0032 3846     		mov	r0, r7
 349              	.LVL39:
 350 0034 9847     		blx	r3
 351              	.LVL40:
 352              	.L51:
 353              		.loc 1 129 0
 354 0036 0020     		movs	r0, #0
 355 0038 F8BD     		pop	{r3, r4, r5, r6, r7, pc}
 356              	.LVL41:
 357              	.L57:
 358              		.loc 1 118 0
 359 003a 1046     		mov	r0, r2
 360              	.LVL42:
 361 003c 0549     		ldr	r1, .L58+4
 362              	.LVL43:
 363 003e 0522     		movs	r2, #5
 364              	.LVL44:
 365 0040 FFF7FEFF 		bl	strncasecmp
 366              	.LVL45:
 367 0044 0028     		cmp	r0, #0
 368 0046 EBD1     		bne	.L45
 369 0048 0526     		movs	r6, #5
 370              	.L44:
 371              		.loc 1 119 0 discriminator 4
 372 004a A019     		adds	r0, r4, r6
 373              	.LVL46:
 374 004c EDE7     		b	.L42
 375              	.L59:
 376 004e 00BF     		.align	2
 377              	.L58:
 378 0050 00000000 		.word	http_root_path
 379 0054 00000000 		.word	.LC0
 380              		.cfi_endproc
 381              	.LFE262:
 382              		.size	HttpCgiFunctionHandler, .-HttpCgiFunctionHandler
 383 0058 AFF30080 		.section	.bss.cgiFunctionList,"aw",%nobits
 383      AFF30080 
 384              		.align	2
 385              		.set	.LANCHOR0,. + 0
 386              		.type	cgiFunctionList, %object
 387              		.size	cgiFunctionList, 8
 388              	cgiFunctionList:
 389 0000 00000000 		.space	8
 389      00000000 
 390              		.section	.rodata.str1.4,"aMS",%progbits,1
 391              		.align	2
 392              	.LC0:
 393 0000 55524F4D 		.ascii	"UROM:\000"
 393      3A00
ARM GAS  C:\Users\jo\AppData\Local\Temp\ccVc71DF.s 			page 8


 394 0006 0000     		.text
 395              	.Letext0:
 396              		.file 2 "c:\\program files\\gnu tools arm embedded\\4.9 2014q4\\lib\\gcc\\arm-none-eabi\\4.9.3\\in
 397              		.file 3 "c:\\program files\\gnu tools arm embedded\\4.9 2014q4\\arm-none-eabi\\include\\machine\\_
 398              		.file 4 "c:\\program files\\gnu tools arm embedded\\4.9 2014q4\\arm-none-eabi\\include\\stdint.h"
 399              		.file 5 "../../../os/rt/ports/ARMCMx/compilers/GCC/chtypes.h"
 400              		.file 6 "../../../os/rt/include/chsystypes.h"
 401              		.file 7 "../../../os/rt/include/chschd.h"
 402              		.file 8 "../../../os/rt/ports/ARMCMx/chcore.h"
 403              		.file 9 "../../../os/rt/ports/ARMCMx/chcore_v7m.h"
 404              		.file 10 "../../../os/rt/include/chdebug.h"
 405              		.file 11 "../../../os/rt/include/chtm.h"
 406              		.file 12 "../../../os/rt/include/chsem.h"
 407              		.file 13 "../../../os/rt/include/chmtx.h"
 408              		.file 14 "../../../os/various/lwip_bindings/arch/cc.h"
 409              		.file 15 "../../../ext/lwip/src/include/ipv4/lwip/inet.h"
 410              		.file 16 "../../../ext/lwip/src/include/lwip\\sockets.h"
 411              		.file 17 "./uhttp-1.1/pro/lwip/streamio.h"
 412              		.file 18 "./os/streamio.h"
 413              		.file 19 "./uhttp-1.1/uhttpd.h"
 414              		.file 20 "./uhttp-1.1/mediatypes.h"
 415              		.file 21 "./uhttp-1.1/pro/modules/mod_cgi_func.h"
 416              		.file 22 "../../../os/ext/CMSIS/include/core_cm4.h"
 417              		.file 23 "c:\\program files\\gnu tools arm embedded\\4.9 2014q4\\arm-none-eabi\\include\\string.h"
 418              		.file 24 "c:\\program files\\gnu tools arm embedded\\4.9 2014q4\\arm-none-eabi\\include\\stdlib.h"
 419              		.section	.debug_info,"",%progbits
 420              	.Ldebug_info0:
 421 0000 A70D0000 		.4byte	0xda7
 422 0004 0400     		.2byte	0x4
 423 0006 00000000 		.4byte	.Ldebug_abbrev0
 424 000a 04       		.byte	0x4
 425 000b 01       		.uleb128 0x1
 426 000c D4030000 		.4byte	.LASF196
 427 0010 01       		.byte	0x1
 428 0011 26090000 		.4byte	.LASF197
 429 0015 36010000 		.4byte	.LASF198
 430 0019 28000000 		.4byte	.Ldebug_ranges0+0x28
 431 001d 00000000 		.4byte	0
 432 0021 00000000 		.4byte	.Ldebug_line0
 433 0025 02       		.uleb128 0x2
 434 0026 04       		.byte	0x4
 435 0027 05       		.byte	0x5
 436 0028 696E7400 		.ascii	"int\000"
 437 002c 03       		.uleb128 0x3
 438 002d 28000000 		.4byte	.LASF2
 439 0031 02       		.byte	0x2
 440 0032 D4       		.byte	0xd4
 441 0033 37000000 		.4byte	0x37
 442 0037 04       		.uleb128 0x4
 443 0038 04       		.byte	0x4
 444 0039 07       		.byte	0x7
 445 003a DA020000 		.4byte	.LASF0
 446 003e 04       		.uleb128 0x4
 447 003f 01       		.byte	0x1
 448 0040 06       		.byte	0x6
 449 0041 9F010000 		.4byte	.LASF1
 450 0045 03       		.uleb128 0x3
ARM GAS  C:\Users\jo\AppData\Local\Temp\ccVc71DF.s 			page 9


 451 0046 58000000 		.4byte	.LASF3
 452 004a 03       		.byte	0x3
 453 004b 1D       		.byte	0x1d
 454 004c 50000000 		.4byte	0x50
 455 0050 04       		.uleb128 0x4
 456 0051 01       		.byte	0x1
 457 0052 08       		.byte	0x8
 458 0053 3C060000 		.4byte	.LASF4
 459 0057 04       		.uleb128 0x4
 460 0058 02       		.byte	0x2
 461 0059 05       		.byte	0x5
 462 005a 54060000 		.4byte	.LASF5
 463 005e 03       		.uleb128 0x3
 464 005f 6F070000 		.4byte	.LASF6
 465 0063 03       		.byte	0x3
 466 0064 2B       		.byte	0x2b
 467 0065 69000000 		.4byte	0x69
 468 0069 04       		.uleb128 0x4
 469 006a 02       		.byte	0x2
 470 006b 07       		.byte	0x7
 471 006c 5C020000 		.4byte	.LASF7
 472 0070 03       		.uleb128 0x3
 473 0071 CA030000 		.4byte	.LASF8
 474 0075 03       		.byte	0x3
 475 0076 3F       		.byte	0x3f
 476 0077 7B000000 		.4byte	0x7b
 477 007b 04       		.uleb128 0x4
 478 007c 04       		.byte	0x4
 479 007d 05       		.byte	0x5
 480 007e FA010000 		.4byte	.LASF9
 481 0082 03       		.uleb128 0x3
 482 0083 CE070000 		.4byte	.LASF10
 483 0087 03       		.byte	0x3
 484 0088 41       		.byte	0x41
 485 0089 8D000000 		.4byte	0x8d
 486 008d 04       		.uleb128 0x4
 487 008e 04       		.byte	0x4
 488 008f 07       		.byte	0x7
 489 0090 1C070000 		.4byte	.LASF11
 490 0094 04       		.uleb128 0x4
 491 0095 08       		.byte	0x8
 492 0096 05       		.byte	0x5
 493 0097 91010000 		.4byte	.LASF12
 494 009b 03       		.uleb128 0x3
 495 009c AD050000 		.4byte	.LASF13
 496 00a0 03       		.byte	0x3
 497 00a1 5B       		.byte	0x5b
 498 00a2 A6000000 		.4byte	0xa6
 499 00a6 04       		.uleb128 0x4
 500 00a7 08       		.byte	0x8
 501 00a8 07       		.byte	0x7
 502 00a9 9F000000 		.4byte	.LASF14
 503 00ad 03       		.uleb128 0x3
 504 00ae AD080000 		.4byte	.LASF15
 505 00b2 04       		.byte	0x4
 506 00b3 15       		.byte	0x15
 507 00b4 45000000 		.4byte	0x45
ARM GAS  C:\Users\jo\AppData\Local\Temp\ccVc71DF.s 			page 10


 508 00b8 03       		.uleb128 0x3
 509 00b9 3C020000 		.4byte	.LASF16
 510 00bd 04       		.byte	0x4
 511 00be 21       		.byte	0x21
 512 00bf 5E000000 		.4byte	0x5e
 513 00c3 03       		.uleb128 0x3
 514 00c4 34060000 		.4byte	.LASF17
 515 00c8 04       		.byte	0x4
 516 00c9 2C       		.byte	0x2c
 517 00ca 70000000 		.4byte	0x70
 518 00ce 03       		.uleb128 0x3
 519 00cf E0060000 		.4byte	.LASF18
 520 00d3 04       		.byte	0x4
 521 00d4 2D       		.byte	0x2d
 522 00d5 82000000 		.4byte	0x82
 523 00d9 03       		.uleb128 0x3
 524 00da 41050000 		.4byte	.LASF19
 525 00de 04       		.byte	0x4
 526 00df 39       		.byte	0x39
 527 00e0 9B000000 		.4byte	0x9b
 528 00e4 05       		.uleb128 0x5
 529 00e5 C3000000 		.4byte	0xc3
 530 00e9 03       		.uleb128 0x3
 531 00ea 0A080000 		.4byte	.LASF20
 532 00ee 05       		.byte	0x5
 533 00ef 45       		.byte	0x45
 534 00f0 CE000000 		.4byte	0xce
 535 00f4 03       		.uleb128 0x3
 536 00f5 9C030000 		.4byte	.LASF21
 537 00f9 05       		.byte	0x5
 538 00fa 48       		.byte	0x48
 539 00fb AD000000 		.4byte	0xad
 540 00ff 03       		.uleb128 0x3
 541 0100 11020000 		.4byte	.LASF22
 542 0104 05       		.byte	0x5
 543 0105 49       		.byte	0x49
 544 0106 AD000000 		.4byte	0xad
 545 010a 03       		.uleb128 0x3
 546 010b CE050000 		.4byte	.LASF23
 547 010f 05       		.byte	0x5
 548 0110 4A       		.byte	0x4a
 549 0111 AD000000 		.4byte	0xad
 550 0115 03       		.uleb128 0x3
 551 0116 0B060000 		.4byte	.LASF24
 552 011a 05       		.byte	0x5
 553 011b 4C       		.byte	0x4c
 554 011c CE000000 		.4byte	0xce
 555 0120 03       		.uleb128 0x3
 556 0121 05060000 		.4byte	.LASF25
 557 0125 05       		.byte	0x5
 558 0126 4D       		.byte	0x4d
 559 0127 C3000000 		.4byte	0xc3
 560 012b 03       		.uleb128 0x3
 561 012c BE030000 		.4byte	.LASF26
 562 0130 05       		.byte	0x5
 563 0131 4F       		.byte	0x4f
 564 0132 CE000000 		.4byte	0xce
ARM GAS  C:\Users\jo\AppData\Local\Temp\ccVc71DF.s 			page 11


 565 0136 03       		.uleb128 0x3
 566 0137 C9020000 		.4byte	.LASF27
 567 013b 05       		.byte	0x5
 568 013c 51       		.byte	0x51
 569 013d C3000000 		.4byte	0xc3
 570 0141 03       		.uleb128 0x3
 571 0142 B0070000 		.4byte	.LASF28
 572 0146 06       		.byte	0x6
 573 0147 33       		.byte	0x33
 574 0148 CE000000 		.4byte	0xce
 575 014c 03       		.uleb128 0x3
 576 014d 7A070000 		.4byte	.LASF29
 577 0151 06       		.byte	0x6
 578 0152 3F       		.byte	0x3f
 579 0153 57010000 		.4byte	0x157
 580 0157 06       		.uleb128 0x6
 581 0158 73030000 		.4byte	.LASF50
 582 015c 48       		.byte	0x48
 583 015d 07       		.byte	0x7
 584 015e C2       		.byte	0xc2
 585 015f 50020000 		.4byte	0x250
 586 0163 07       		.uleb128 0x7
 587 0164 74060000 		.4byte	.LASF30
 588 0168 07       		.byte	0x7
 589 0169 C3       		.byte	0xc3
 590 016a 5B020000 		.4byte	0x25b
 591 016e 00       		.byte	0
 592 016f 07       		.uleb128 0x7
 593 0170 FE050000 		.4byte	.LASF31
 594 0174 07       		.byte	0x7
 595 0175 C5       		.byte	0xc5
 596 0176 5B020000 		.4byte	0x25b
 597 017a 04       		.byte	0x4
 598 017b 07       		.uleb128 0x7
 599 017c 2F010000 		.4byte	.LASF32
 600 0180 07       		.byte	0x7
 601 0181 C7       		.byte	0xc7
 602 0182 15010000 		.4byte	0x115
 603 0186 08       		.byte	0x8
 604 0187 07       		.uleb128 0x7
 605 0188 18090000 		.4byte	.LASF33
 606 018c 07       		.byte	0x7
 607 018d C8       		.byte	0xc8
 608 018e B6040000 		.4byte	0x4b6
 609 0192 0C       		.byte	0xc
 610 0193 07       		.uleb128 0x7
 611 0194 4C020000 		.4byte	.LASF34
 612 0198 07       		.byte	0x7
 613 0199 CA       		.byte	0xca
 614 019a 5B020000 		.4byte	0x25b
 615 019e 10       		.byte	0x10
 616 019f 07       		.uleb128 0x7
 617 01a0 4A050000 		.4byte	.LASF35
 618 01a4 07       		.byte	0x7
 619 01a5 CB       		.byte	0xcb
 620 01a6 5B020000 		.4byte	0x25b
 621 01aa 14       		.byte	0x14
ARM GAS  C:\Users\jo\AppData\Local\Temp\ccVc71DF.s 			page 12


 622 01ab 07       		.uleb128 0x7
 623 01ac CF080000 		.4byte	.LASF36
 624 01b0 07       		.byte	0x7
 625 01b1 D2       		.byte	0xd2
 626 01b2 C8060000 		.4byte	0x6c8
 627 01b6 18       		.byte	0x18
 628 01b7 07       		.uleb128 0x7
 629 01b8 84050000 		.4byte	.LASF37
 630 01bc 07       		.byte	0x7
 631 01bd D8       		.byte	0xd8
 632 01be DA060000 		.4byte	0x6da
 633 01c2 1C       		.byte	0x1c
 634 01c3 07       		.uleb128 0x7
 635 01c4 5E060000 		.4byte	.LASF38
 636 01c8 07       		.byte	0x7
 637 01c9 DD       		.byte	0xdd
 638 01ca FF000000 		.4byte	0xff
 639 01ce 20       		.byte	0x20
 640 01cf 07       		.uleb128 0x7
 641 01d0 7B060000 		.4byte	.LASF39
 642 01d4 07       		.byte	0x7
 643 01d5 E1       		.byte	0xe1
 644 01d6 F4000000 		.4byte	0xf4
 645 01da 21       		.byte	0x21
 646 01db 07       		.uleb128 0x7
 647 01dc 63080000 		.4byte	.LASF40
 648 01e0 07       		.byte	0x7
 649 01e1 E6       		.byte	0xe6
 650 01e2 0A010000 		.4byte	0x10a
 651 01e6 22       		.byte	0x22
 652 01e7 08       		.uleb128 0x8
 653 01e8 705F7500 		.ascii	"p_u\000"
 654 01ec 07       		.byte	0x7
 655 01ed 3101     		.2byte	0x131
 656 01ef 03060000 		.4byte	0x603
 657 01f3 24       		.byte	0x24
 658 01f4 09       		.uleb128 0x9
 659 01f5 D2040000 		.4byte	.LASF41
 660 01f9 07       		.byte	0x7
 661 01fa 3601     		.2byte	0x136
 662 01fc 61020000 		.4byte	0x261
 663 0200 28       		.byte	0x28
 664 0201 09       		.uleb128 0x9
 665 0202 0E030000 		.4byte	.LASF42
 666 0206 07       		.byte	0x7
 667 0207 3C01     		.2byte	0x13c
 668 0209 85020000 		.4byte	0x285
 669 020d 2C       		.byte	0x2c
 670 020e 09       		.uleb128 0x9
 671 020f F7080000 		.4byte	.LASF43
 672 0213 07       		.byte	0x7
 673 0214 4001     		.2byte	0x140
 674 0216 20010000 		.4byte	0x120
 675 021a 34       		.byte	0x34
 676 021b 09       		.uleb128 0x9
 677 021c D0060000 		.4byte	.LASF44
 678 0220 07       		.byte	0x7
ARM GAS  C:\Users\jo\AppData\Local\Temp\ccVc71DF.s 			page 13


 679 0221 4601     		.2byte	0x146
 680 0223 2B010000 		.4byte	0x12b
 681 0227 38       		.byte	0x38
 682 0228 09       		.uleb128 0x9
 683 0229 4A060000 		.4byte	.LASF45
 684 022d 07       		.byte	0x7
 685 022e 4D01     		.2byte	0x14d
 686 0230 C2060000 		.4byte	0x6c2
 687 0234 3C       		.byte	0x3c
 688 0235 09       		.uleb128 0x9
 689 0236 BA070000 		.4byte	.LASF46
 690 023a 07       		.byte	0x7
 691 023b 5101     		.2byte	0x151
 692 023d 15010000 		.4byte	0x115
 693 0241 40       		.byte	0x40
 694 0242 09       		.uleb128 0x9
 695 0243 B9010000 		.4byte	.LASF47
 696 0247 07       		.byte	0x7
 697 0248 5801     		.2byte	0x158
 698 024a 38030000 		.4byte	0x338
 699 024e 44       		.byte	0x44
 700 024f 00       		.byte	0
 701 0250 03       		.uleb128 0x3
 702 0251 EA040000 		.4byte	.LASF48
 703 0255 06       		.byte	0x6
 704 0256 44       		.byte	0x44
 705 0257 5B020000 		.4byte	0x25b
 706 025b 0A       		.uleb128 0xa
 707 025c 04       		.byte	0x4
 708 025d 4C010000 		.4byte	0x14c
 709 0261 03       		.uleb128 0x3
 710 0262 DB080000 		.4byte	.LASF49
 711 0266 06       		.byte	0x6
 712 0267 49       		.byte	0x49
 713 0268 6C020000 		.4byte	0x26c
 714 026c 06       		.uleb128 0x6
 715 026d 01070000 		.4byte	.LASF51
 716 0271 04       		.byte	0x4
 717 0272 07       		.byte	0x7
 718 0273 B0       		.byte	0xb0
 719 0274 85020000 		.4byte	0x285
 720 0278 07       		.uleb128 0x7
 721 0279 74060000 		.4byte	.LASF30
 722 027d 07       		.byte	0x7
 723 027e B1       		.byte	0xb1
 724 027f 5B020000 		.4byte	0x25b
 725 0283 00       		.byte	0
 726 0284 00       		.byte	0
 727 0285 03       		.uleb128 0x3
 728 0286 49080000 		.4byte	.LASF52
 729 028a 06       		.byte	0x6
 730 028b 50       		.byte	0x50
 731 028c 90020000 		.4byte	0x290
 732 0290 06       		.uleb128 0x6
 733 0291 1E010000 		.4byte	.LASF53
 734 0295 08       		.byte	0x8
 735 0296 07       		.byte	0x7
ARM GAS  C:\Users\jo\AppData\Local\Temp\ccVc71DF.s 			page 14


 736 0297 B7       		.byte	0xb7
 737 0298 B5020000 		.4byte	0x2b5
 738 029c 07       		.uleb128 0x7
 739 029d 74060000 		.4byte	.LASF30
 740 02a1 07       		.byte	0x7
 741 02a2 B8       		.byte	0xb8
 742 02a3 5B020000 		.4byte	0x25b
 743 02a7 00       		.byte	0
 744 02a8 07       		.uleb128 0x7
 745 02a9 FE050000 		.4byte	.LASF31
 746 02ad 07       		.byte	0x7
 747 02ae B9       		.byte	0xb9
 748 02af 5B020000 		.4byte	0x25b
 749 02b3 04       		.byte	0x4
 750 02b4 00       		.byte	0
 751 02b5 03       		.uleb128 0x3
 752 02b6 13000000 		.4byte	.LASF54
 753 02ba 06       		.byte	0x6
 754 02bb 57       		.byte	0x57
 755 02bc C0020000 		.4byte	0x2c0
 756 02c0 0B       		.uleb128 0xb
 757 02c1 B0030000 		.4byte	.LASF55
 758 02c5 1C       		.byte	0x1c
 759 02c6 07       		.byte	0x7
 760 02c7 9001     		.2byte	0x190
 761 02c9 1C030000 		.4byte	0x31c
 762 02cd 09       		.uleb128 0x9
 763 02ce F0060000 		.4byte	.LASF56
 764 02d2 07       		.byte	0x7
 765 02d3 9101     		.2byte	0x191
 766 02d5 85020000 		.4byte	0x285
 767 02d9 00       		.byte	0
 768 02da 09       		.uleb128 0x9
 769 02db 66060000 		.4byte	.LASF57
 770 02df 07       		.byte	0x7
 771 02e0 9201     		.2byte	0x192
 772 02e2 15010000 		.4byte	0x115
 773 02e6 08       		.byte	0x8
 774 02e7 09       		.uleb128 0x9
 775 02e8 52050000 		.4byte	.LASF58
 776 02ec 07       		.byte	0x7
 777 02ed 9401     		.2byte	0x194
 778 02ef B6040000 		.4byte	0x4b6
 779 02f3 0C       		.byte	0xc
 780 02f4 09       		.uleb128 0x9
 781 02f5 77020000 		.4byte	.LASF59
 782 02f9 07       		.byte	0x7
 783 02fa 9701     		.2byte	0x197
 784 02fc 5B020000 		.4byte	0x25b
 785 0300 10       		.byte	0x10
 786 0301 09       		.uleb128 0x9
 787 0302 99050000 		.4byte	.LASF60
 788 0306 07       		.byte	0x7
 789 0307 9801     		.2byte	0x198
 790 0309 5B020000 		.4byte	0x25b
 791 030d 14       		.byte	0x14
 792 030e 09       		.uleb128 0x9
ARM GAS  C:\Users\jo\AppData\Local\Temp\ccVc71DF.s 			page 15


 793 030f 8F050000 		.4byte	.LASF61
 794 0313 07       		.byte	0x7
 795 0314 9B01     		.2byte	0x19b
 796 0316 5B020000 		.4byte	0x25b
 797 031a 18       		.byte	0x18
 798 031b 00       		.byte	0
 799 031c 03       		.uleb128 0x3
 800 031d C5070000 		.4byte	.LASF62
 801 0321 06       		.byte	0x6
 802 0322 5C       		.byte	0x5c
 803 0323 27030000 		.4byte	0x327
 804 0327 0A       		.uleb128 0xa
 805 0328 04       		.byte	0x4
 806 0329 2D030000 		.4byte	0x32d
 807 032d 0C       		.uleb128 0xc
 808 032e 38030000 		.4byte	0x338
 809 0332 0D       		.uleb128 0xd
 810 0333 38030000 		.4byte	0x338
 811 0337 00       		.byte	0
 812 0338 0E       		.uleb128 0xe
 813 0339 04       		.byte	0x4
 814 033a 03       		.uleb128 0x3
 815 033b EE050000 		.4byte	.LASF63
 816 033f 06       		.byte	0x6
 817 0340 61       		.byte	0x61
 818 0341 45030000 		.4byte	0x345
 819 0345 0B       		.uleb128 0xb
 820 0346 B2060000 		.4byte	.LASF64
 821 034a 14       		.byte	0x14
 822 034b 07       		.byte	0x7
 823 034c 6B01     		.2byte	0x16b
 824 034e 94030000 		.4byte	0x394
 825 0352 09       		.uleb128 0x9
 826 0353 EE020000 		.4byte	.LASF65
 827 0357 07       		.byte	0x7
 828 0358 6C01     		.2byte	0x16c
 829 035a E0060000 		.4byte	0x6e0
 830 035e 00       		.byte	0
 831 035f 09       		.uleb128 0x9
 832 0360 88020000 		.4byte	.LASF66
 833 0364 07       		.byte	0x7
 834 0365 6D01     		.2byte	0x16d
 835 0367 E0060000 		.4byte	0x6e0
 836 036b 04       		.byte	0x4
 837 036c 09       		.uleb128 0x9
 838 036d F8060000 		.4byte	.LASF67
 839 0371 07       		.byte	0x7
 840 0372 6E01     		.2byte	0x16e
 841 0374 41010000 		.4byte	0x141
 842 0378 08       		.byte	0x8
 843 0379 09       		.uleb128 0x9
 844 037a 1E090000 		.4byte	.LASF68
 845 037e 07       		.byte	0x7
 846 037f 6F01     		.2byte	0x16f
 847 0381 1C030000 		.4byte	0x31c
 848 0385 0C       		.byte	0xc
 849 0386 09       		.uleb128 0x9
ARM GAS  C:\Users\jo\AppData\Local\Temp\ccVc71DF.s 			page 16


 850 0387 20080000 		.4byte	.LASF69
 851 038b 07       		.byte	0x7
 852 038c 7101     		.2byte	0x171
 853 038e 38030000 		.4byte	0x338
 854 0392 10       		.byte	0x10
 855 0393 00       		.byte	0
 856 0394 03       		.uleb128 0x3
 857 0395 E5000000 		.4byte	.LASF70
 858 0399 06       		.byte	0x6
 859 039a 66       		.byte	0x66
 860 039b 9F030000 		.4byte	0x39f
 861 039f 0B       		.uleb128 0xb
 862 03a0 06050000 		.4byte	.LASF71
 863 03a4 10       		.byte	0x10
 864 03a5 07       		.byte	0x7
 865 03a6 7B01     		.2byte	0x17b
 866 03a8 E1030000 		.4byte	0x3e1
 867 03ac 09       		.uleb128 0x9
 868 03ad EE020000 		.4byte	.LASF65
 869 03b1 07       		.byte	0x7
 870 03b2 7C01     		.2byte	0x17c
 871 03b4 E0060000 		.4byte	0x6e0
 872 03b8 00       		.byte	0
 873 03b9 09       		.uleb128 0x9
 874 03ba 88020000 		.4byte	.LASF66
 875 03be 07       		.byte	0x7
 876 03bf 7E01     		.2byte	0x17e
 877 03c1 E0060000 		.4byte	0x6e0
 878 03c5 04       		.byte	0x4
 879 03c6 09       		.uleb128 0x9
 880 03c7 F8060000 		.4byte	.LASF67
 881 03cb 07       		.byte	0x7
 882 03cc 8001     		.2byte	0x180
 883 03ce 41010000 		.4byte	0x141
 884 03d2 08       		.byte	0x8
 885 03d3 09       		.uleb128 0x9
 886 03d4 35050000 		.4byte	.LASF72
 887 03d8 07       		.byte	0x7
 888 03d9 8801     		.2byte	0x188
 889 03db 41010000 		.4byte	0x141
 890 03df 0C       		.byte	0xc
 891 03e0 00       		.byte	0
 892 03e1 03       		.uleb128 0x3
 893 03e2 73000000 		.4byte	.LASF73
 894 03e6 06       		.byte	0x6
 895 03e7 6B       		.byte	0x6b
 896 03e8 EC030000 		.4byte	0x3ec
 897 03ec 0F       		.uleb128 0xf
 898 03ed 1E060000 		.4byte	.LASF74
 899 03f1 1404     		.2byte	0x414
 900 03f3 07       		.byte	0x7
 901 03f4 A201     		.2byte	0x1a2
 902 03f6 2F040000 		.4byte	0x42f
 903 03fa 09       		.uleb128 0x9
 904 03fb BE080000 		.4byte	.LASF75
 905 03ff 07       		.byte	0x7
 906 0400 AA01     		.2byte	0x1aa
ARM GAS  C:\Users\jo\AppData\Local\Temp\ccVc71DF.s 			page 17


 907 0402 E6060000 		.4byte	0x6e6
 908 0406 00       		.byte	0
 909 0407 09       		.uleb128 0x9
 910 0408 6A080000 		.4byte	.LASF76
 911 040c 07       		.byte	0x7
 912 040d AF01     		.2byte	0x1af
 913 040f 36010000 		.4byte	0x136
 914 0413 04       		.byte	0x4
 915 0414 09       		.uleb128 0x9
 916 0415 B7020000 		.4byte	.LASF77
 917 0419 07       		.byte	0x7
 918 041a B301     		.2byte	0x1b3
 919 041c 36010000 		.4byte	0x136
 920 0420 08       		.byte	0x8
 921 0421 09       		.uleb128 0x9
 922 0422 EA080000 		.4byte	.LASF78
 923 0426 07       		.byte	0x7
 924 0427 B901     		.2byte	0x1b9
 925 0429 D8050000 		.4byte	0x5d8
 926 042d 0C       		.byte	0xc
 927 042e 00       		.byte	0
 928 042f 03       		.uleb128 0x3
 929 0430 90030000 		.4byte	.LASF79
 930 0434 06       		.byte	0x6
 931 0435 70       		.byte	0x70
 932 0436 3A040000 		.4byte	0x43a
 933 043a 0F       		.uleb128 0xf
 934 043b 9D060000 		.4byte	.LASF80
 935 043f 7005     		.2byte	0x570
 936 0441 07       		.byte	0x7
 937 0442 C201     		.2byte	0x1c2
 938 0444 99040000 		.4byte	0x499
 939 0448 09       		.uleb128 0x9
 940 0449 9D080000 		.4byte	.LASF81
 941 044d 07       		.byte	0x7
 942 044e C601     		.2byte	0x1c6
 943 0450 B5020000 		.4byte	0x2b5
 944 0454 00       		.byte	0
 945 0455 09       		.uleb128 0x9
 946 0456 90020000 		.4byte	.LASF82
 947 045a 07       		.byte	0x7
 948 045b CA01     		.2byte	0x1ca
 949 045d 94030000 		.4byte	0x394
 950 0461 1C       		.byte	0x1c
 951 0462 08       		.uleb128 0x8
 952 0463 64626700 		.ascii	"dbg\000"
 953 0467 07       		.byte	0x7
 954 0468 CE01     		.2byte	0x1ce
 955 046a E1030000 		.4byte	0x3e1
 956 046e 2C       		.byte	0x2c
 957 046f 10       		.uleb128 0x10
 958 0470 DA000000 		.4byte	.LASF83
 959 0474 07       		.byte	0x7
 960 0475 D201     		.2byte	0x1d2
 961 0477 4C010000 		.4byte	0x14c
 962 047b 4004     		.2byte	0x440
 963 047d 11       		.uleb128 0x11
ARM GAS  C:\Users\jo\AppData\Local\Temp\ccVc71DF.s 			page 18


 964 047e 746D00   		.ascii	"tm\000"
 965 0481 07       		.byte	0x7
 966 0482 D701     		.2byte	0x1d7
 967 0484 F8050000 		.4byte	0x5f8
 968 0488 8804     		.2byte	0x488
 969 048a 10       		.uleb128 0x10
 970 048b 8E060000 		.4byte	.LASF84
 971 048f 07       		.byte	0x7
 972 0490 E301     		.2byte	0x1e3
 973 0492 EB060000 		.4byte	0x6eb
 974 0496 9004     		.2byte	0x490
 975 0498 00       		.byte	0
 976 0499 04       		.uleb128 0x4
 977 049a 04       		.byte	0x4
 978 049b 07       		.byte	0x7
 979 049c E1040000 		.4byte	.LASF85
 980 04a0 03       		.uleb128 0x3
 981 04a1 7F020000 		.4byte	.LASF86
 982 04a5 08       		.byte	0x8
 983 04a6 65       		.byte	0x65
 984 04a7 38030000 		.4byte	0x338
 985 04ab 03       		.uleb128 0x3
 986 04ac AE040000 		.4byte	.LASF87
 987 04b0 08       		.byte	0x8
 988 04b1 6D       		.byte	0x6d
 989 04b2 D9000000 		.4byte	0xd9
 990 04b6 06       		.uleb128 0x6
 991 04b7 02080000 		.4byte	.LASF88
 992 04bb 04       		.byte	0x4
 993 04bc 08       		.byte	0x8
 994 04bd 89       		.byte	0x89
 995 04be CF040000 		.4byte	0x4cf
 996 04c2 12       		.uleb128 0x12
 997 04c3 72313300 		.ascii	"r13\000"
 998 04c7 08       		.byte	0x8
 999 04c8 8A       		.byte	0x8a
 1000 04c9 4A050000 		.4byte	0x54a
 1001 04cd 00       		.byte	0
 1002 04ce 00       		.byte	0
 1003 04cf 06       		.uleb128 0x6
 1004 04d0 67000000 		.4byte	.LASF89
 1005 04d4 24       		.byte	0x24
 1006 04d5 09       		.byte	0x9
 1007 04d6 F4       		.byte	0xf4
 1008 04d7 4A050000 		.4byte	0x54a
 1009 04db 08       		.uleb128 0x8
 1010 04dc 723400   		.ascii	"r4\000"
 1011 04df 09       		.byte	0x9
 1012 04e0 0701     		.2byte	0x107
 1013 04e2 A0040000 		.4byte	0x4a0
 1014 04e6 00       		.byte	0
 1015 04e7 08       		.uleb128 0x8
 1016 04e8 723500   		.ascii	"r5\000"
 1017 04eb 09       		.byte	0x9
 1018 04ec 0801     		.2byte	0x108
 1019 04ee A0040000 		.4byte	0x4a0
 1020 04f2 04       		.byte	0x4
ARM GAS  C:\Users\jo\AppData\Local\Temp\ccVc71DF.s 			page 19


 1021 04f3 08       		.uleb128 0x8
 1022 04f4 723600   		.ascii	"r6\000"
 1023 04f7 09       		.byte	0x9
 1024 04f8 0901     		.2byte	0x109
 1025 04fa A0040000 		.4byte	0x4a0
 1026 04fe 08       		.byte	0x8
 1027 04ff 08       		.uleb128 0x8
 1028 0500 723700   		.ascii	"r7\000"
 1029 0503 09       		.byte	0x9
 1030 0504 0A01     		.2byte	0x10a
 1031 0506 A0040000 		.4byte	0x4a0
 1032 050a 0C       		.byte	0xc
 1033 050b 08       		.uleb128 0x8
 1034 050c 723800   		.ascii	"r8\000"
 1035 050f 09       		.byte	0x9
 1036 0510 0B01     		.2byte	0x10b
 1037 0512 A0040000 		.4byte	0x4a0
 1038 0516 10       		.byte	0x10
 1039 0517 08       		.uleb128 0x8
 1040 0518 723900   		.ascii	"r9\000"
 1041 051b 09       		.byte	0x9
 1042 051c 0C01     		.2byte	0x10c
 1043 051e A0040000 		.4byte	0x4a0
 1044 0522 14       		.byte	0x14
 1045 0523 08       		.uleb128 0x8
 1046 0524 72313000 		.ascii	"r10\000"
 1047 0528 09       		.byte	0x9
 1048 0529 0D01     		.2byte	0x10d
 1049 052b A0040000 		.4byte	0x4a0
 1050 052f 18       		.byte	0x18
 1051 0530 08       		.uleb128 0x8
 1052 0531 72313100 		.ascii	"r11\000"
 1053 0535 09       		.byte	0x9
 1054 0536 0E01     		.2byte	0x10e
 1055 0538 A0040000 		.4byte	0x4a0
 1056 053c 1C       		.byte	0x1c
 1057 053d 08       		.uleb128 0x8
 1058 053e 6C7200   		.ascii	"lr\000"
 1059 0541 09       		.byte	0x9
 1060 0542 0F01     		.2byte	0x10f
 1061 0544 A0040000 		.4byte	0x4a0
 1062 0548 20       		.byte	0x20
 1063 0549 00       		.byte	0
 1064 054a 0A       		.uleb128 0xa
 1065 054b 04       		.byte	0x4
 1066 054c CF040000 		.4byte	0x4cf
 1067 0550 13       		.uleb128 0x13
 1068 0551 10       		.byte	0x10
 1069 0552 0A       		.byte	0xa
 1070 0553 51       		.byte	0x51
 1071 0554 89050000 		.4byte	0x589
 1072 0558 07       		.uleb128 0x7
 1073 0559 20000000 		.4byte	.LASF90
 1074 055d 0A       		.byte	0xa
 1075 055e 55       		.byte	0x55
 1076 055f 41010000 		.4byte	0x141
 1077 0563 00       		.byte	0
ARM GAS  C:\Users\jo\AppData\Local\Temp\ccVc71DF.s 			page 20


 1078 0564 07       		.uleb128 0x7
 1079 0565 2D020000 		.4byte	.LASF91
 1080 0569 0A       		.byte	0xa
 1081 056a 59       		.byte	0x59
 1082 056b 5B020000 		.4byte	0x25b
 1083 056f 04       		.byte	0x4
 1084 0570 07       		.uleb128 0x7
 1085 0571 0E090000 		.4byte	.LASF92
 1086 0575 0A       		.byte	0xa
 1087 0576 5D       		.byte	0x5d
 1088 0577 38030000 		.4byte	0x338
 1089 057b 08       		.byte	0x8
 1090 057c 07       		.uleb128 0x7
 1091 057d C8000000 		.4byte	.LASF93
 1092 0581 0A       		.byte	0xa
 1093 0582 61       		.byte	0x61
 1094 0583 AD000000 		.4byte	0xad
 1095 0587 0C       		.byte	0xc
 1096 0588 00       		.byte	0
 1097 0589 03       		.uleb128 0x3
 1098 058a 26050000 		.4byte	.LASF94
 1099 058e 0A       		.byte	0xa
 1100 058f 62       		.byte	0x62
 1101 0590 50050000 		.4byte	0x550
 1102 0594 14       		.uleb128 0x14
 1103 0595 0804     		.2byte	0x408
 1104 0597 0A       		.byte	0xa
 1105 0598 67       		.byte	0x67
 1106 0599 C2050000 		.4byte	0x5c2
 1107 059d 07       		.uleb128 0x7
 1108 059e 6F020000 		.4byte	.LASF95
 1109 05a2 0A       		.byte	0xa
 1110 05a3 6B       		.byte	0x6b
 1111 05a4 37000000 		.4byte	0x37
 1112 05a8 00       		.byte	0
 1113 05a9 07       		.uleb128 0x7
 1114 05aa 0C000000 		.4byte	.LASF96
 1115 05ae 0A       		.byte	0xa
 1116 05af 6F       		.byte	0x6f
 1117 05b0 C2050000 		.4byte	0x5c2
 1118 05b4 04       		.byte	0x4
 1119 05b5 07       		.uleb128 0x7
 1120 05b6 D6050000 		.4byte	.LASF97
 1121 05ba 0A       		.byte	0xa
 1122 05bb 73       		.byte	0x73
 1123 05bc C8050000 		.4byte	0x5c8
 1124 05c0 08       		.byte	0x8
 1125 05c1 00       		.byte	0
 1126 05c2 0A       		.uleb128 0xa
 1127 05c3 04       		.byte	0x4
 1128 05c4 89050000 		.4byte	0x589
 1129 05c8 15       		.uleb128 0x15
 1130 05c9 89050000 		.4byte	0x589
 1131 05cd D8050000 		.4byte	0x5d8
 1132 05d1 16       		.uleb128 0x16
 1133 05d2 99040000 		.4byte	0x499
 1134 05d6 3F       		.byte	0x3f
ARM GAS  C:\Users\jo\AppData\Local\Temp\ccVc71DF.s 			page 21


 1135 05d7 00       		.byte	0
 1136 05d8 03       		.uleb128 0x3
 1137 05d9 B6000000 		.4byte	.LASF98
 1138 05dd 0A       		.byte	0xa
 1139 05de 74       		.byte	0x74
 1140 05df 94050000 		.4byte	0x594
 1141 05e3 13       		.uleb128 0x13
 1142 05e4 04       		.byte	0x4
 1143 05e5 0B       		.byte	0xb
 1144 05e6 38       		.byte	0x38
 1145 05e7 F8050000 		.4byte	0x5f8
 1146 05eb 07       		.uleb128 0x7
 1147 05ec F2070000 		.4byte	.LASF99
 1148 05f0 0B       		.byte	0xb
 1149 05f1 3C       		.byte	0x3c
 1150 05f2 E9000000 		.4byte	0xe9
 1151 05f6 00       		.byte	0
 1152 05f7 00       		.byte	0
 1153 05f8 03       		.uleb128 0x3
 1154 05f9 6B050000 		.4byte	.LASF100
 1155 05fd 0B       		.byte	0xb
 1156 05fe 3D       		.byte	0x3d
 1157 05ff E3050000 		.4byte	0x5e3
 1158 0603 17       		.uleb128 0x17
 1159 0604 04       		.byte	0x4
 1160 0605 07       		.byte	0x7
 1161 0606 FA       		.byte	0xfa
 1162 0607 60060000 		.4byte	0x660
 1163 060b 18       		.uleb128 0x18
 1164 060c 47000000 		.4byte	.LASF101
 1165 0610 07       		.byte	0x7
 1166 0611 0101     		.2byte	0x101
 1167 0613 20010000 		.4byte	0x120
 1168 0617 18       		.uleb128 0x18
 1169 0618 D1000000 		.4byte	.LASF102
 1170 061c 07       		.byte	0x7
 1171 061d 0801     		.2byte	0x108
 1172 061f 20010000 		.4byte	0x120
 1173 0623 18       		.uleb128 0x18
 1174 0624 C8080000 		.4byte	.LASF103
 1175 0628 07       		.byte	0x7
 1176 0629 0F01     		.2byte	0x10f
 1177 062b 38030000 		.4byte	0x338
 1178 062f 18       		.uleb128 0x18
 1179 0630 EA010000 		.4byte	.LASF104
 1180 0634 07       		.byte	0x7
 1181 0635 1601     		.2byte	0x116
 1182 0637 60060000 		.4byte	0x660
 1183 063b 18       		.uleb128 0x18
 1184 063c FD020000 		.4byte	.LASF105
 1185 0640 07       		.byte	0x7
 1186 0641 1E01     		.2byte	0x11e
 1187 0643 8B060000 		.4byte	0x68b
 1188 0647 18       		.uleb128 0x18
 1189 0648 E9060000 		.4byte	.LASF106
 1190 064c 07       		.byte	0x7
 1191 064d 2701     		.2byte	0x127
ARM GAS  C:\Users\jo\AppData\Local\Temp\ccVc71DF.s 			page 22


 1192 064f C2060000 		.4byte	0x6c2
 1193 0653 18       		.uleb128 0x18
 1194 0654 6D060000 		.4byte	.LASF107
 1195 0658 07       		.byte	0x7
 1196 0659 2F01     		.2byte	0x12f
 1197 065b 2B010000 		.4byte	0x12b
 1198 065f 00       		.byte	0
 1199 0660 0A       		.uleb128 0xa
 1200 0661 04       		.byte	0x4
 1201 0662 50020000 		.4byte	0x250
 1202 0666 06       		.uleb128 0x6
 1203 0667 C3060000 		.4byte	.LASF108
 1204 066b 0C       		.byte	0xc
 1205 066c 0C       		.byte	0xc
 1206 066d 34       		.byte	0x34
 1207 066e 8B060000 		.4byte	0x68b
 1208 0672 07       		.uleb128 0x7
 1209 0673 54020000 		.4byte	.LASF109
 1210 0677 0C       		.byte	0xc
 1211 0678 35       		.byte	0x35
 1212 0679 85020000 		.4byte	0x285
 1213 067d 00       		.byte	0
 1214 067e 07       		.uleb128 0x7
 1215 067f 47030000 		.4byte	.LASF110
 1216 0683 0C       		.byte	0xc
 1217 0684 37       		.byte	0x37
 1218 0685 36010000 		.4byte	0x136
 1219 0689 08       		.byte	0x8
 1220 068a 00       		.byte	0
 1221 068b 0A       		.uleb128 0xa
 1222 068c 04       		.byte	0x4
 1223 068d 66060000 		.4byte	0x666
 1224 0691 06       		.uleb128 0x6
 1225 0692 F9070000 		.4byte	.LASF111
 1226 0696 10       		.byte	0x10
 1227 0697 0D       		.byte	0xd
 1228 0698 39       		.byte	0x39
 1229 0699 C2060000 		.4byte	0x6c2
 1230 069d 07       		.uleb128 0x7
 1231 069e CA010000 		.4byte	.LASF112
 1232 06a2 0D       		.byte	0xd
 1233 06a3 3A       		.byte	0x3a
 1234 06a4 85020000 		.4byte	0x285
 1235 06a8 00       		.byte	0
 1236 06a9 07       		.uleb128 0x7
 1237 06aa 06090000 		.4byte	.LASF113
 1238 06ae 0D       		.byte	0xd
 1239 06af 3C       		.byte	0x3c
 1240 06b0 5B020000 		.4byte	0x25b
 1241 06b4 08       		.byte	0x8
 1242 06b5 07       		.uleb128 0x7
 1243 06b6 A9070000 		.4byte	.LASF114
 1244 06ba 0D       		.byte	0xd
 1245 06bb 3E       		.byte	0x3e
 1246 06bc 06070000 		.4byte	0x706
 1247 06c0 0C       		.byte	0xc
 1248 06c1 00       		.byte	0
ARM GAS  C:\Users\jo\AppData\Local\Temp\ccVc71DF.s 			page 23


 1249 06c2 0A       		.uleb128 0xa
 1250 06c3 04       		.byte	0x4
 1251 06c4 91060000 		.4byte	0x691
 1252 06c8 0A       		.uleb128 0xa
 1253 06c9 04       		.byte	0x4
 1254 06ca CE060000 		.4byte	0x6ce
 1255 06ce 19       		.uleb128 0x19
 1256 06cf D3060000 		.4byte	0x6d3
 1257 06d3 04       		.uleb128 0x4
 1258 06d4 01       		.byte	0x1
 1259 06d5 08       		.byte	0x8
 1260 06d6 2E070000 		.4byte	.LASF115
 1261 06da 0A       		.uleb128 0xa
 1262 06db 04       		.byte	0x4
 1263 06dc AB040000 		.4byte	0x4ab
 1264 06e0 0A       		.uleb128 0xa
 1265 06e1 04       		.byte	0x4
 1266 06e2 3A030000 		.4byte	0x33a
 1267 06e6 05       		.uleb128 0x5
 1268 06e7 C8060000 		.4byte	0x6c8
 1269 06eb 15       		.uleb128 0x15
 1270 06ec AB040000 		.4byte	0x4ab
 1271 06f0 FB060000 		.4byte	0x6fb
 1272 06f4 16       		.uleb128 0x16
 1273 06f5 99040000 		.4byte	0x499
 1274 06f9 1B       		.byte	0x1b
 1275 06fa 00       		.byte	0
 1276 06fb 03       		.uleb128 0x3
 1277 06fc AF020000 		.4byte	.LASF116
 1278 0700 0D       		.byte	0xd
 1279 0701 34       		.byte	0x34
 1280 0702 91060000 		.4byte	0x691
 1281 0706 0A       		.uleb128 0xa
 1282 0707 04       		.byte	0x4
 1283 0708 FB060000 		.4byte	0x6fb
 1284 070c 04       		.uleb128 0x4
 1285 070d 01       		.byte	0x1
 1286 070e 02       		.byte	0x2
 1287 070f 2E060000 		.4byte	.LASF117
 1288 0713 0A       		.uleb128 0xa
 1289 0714 04       		.byte	0x4
 1290 0715 D3060000 		.4byte	0x6d3
 1291 0719 15       		.uleb128 0x15
 1292 071a D3060000 		.4byte	0x6d3
 1293 071e 29070000 		.4byte	0x729
 1294 0722 16       		.uleb128 0x16
 1295 0723 99040000 		.4byte	0x499
 1296 0727 07       		.byte	0x7
 1297 0728 00       		.byte	0
 1298 0729 03       		.uleb128 0x3
 1299 072a AB010000 		.4byte	.LASF118
 1300 072e 0E       		.byte	0xe
 1301 072f 3F       		.byte	0x3f
 1302 0730 AD000000 		.4byte	0xad
 1303 0734 03       		.uleb128 0x3
 1304 0735 27080000 		.4byte	.LASF119
 1305 0739 0E       		.byte	0xe
ARM GAS  C:\Users\jo\AppData\Local\Temp\ccVc71DF.s 			page 24


 1306 073a 41       		.byte	0x41
 1307 073b B8000000 		.4byte	0xb8
 1308 073f 03       		.uleb128 0x3
 1309 0740 19030000 		.4byte	.LASF120
 1310 0744 0E       		.byte	0xe
 1311 0745 43       		.byte	0x43
 1312 0746 CE000000 		.4byte	0xce
 1313 074a 06       		.uleb128 0x6
 1314 074b 7D090000 		.4byte	.LASF121
 1315 074f 04       		.byte	0x4
 1316 0750 0F       		.byte	0xf
 1317 0751 2C       		.byte	0x2c
 1318 0752 63070000 		.4byte	0x763
 1319 0756 07       		.uleb128 0x7
 1320 0757 E7020000 		.4byte	.LASF122
 1321 075b 0F       		.byte	0xf
 1322 075c 2D       		.byte	0x2d
 1323 075d 3F070000 		.4byte	0x73f
 1324 0761 00       		.byte	0
 1325 0762 00       		.byte	0
 1326 0763 06       		.uleb128 0x6
 1327 0764 91080000 		.4byte	.LASF123
 1328 0768 10       		.byte	0x10
 1329 0769 10       		.byte	0x10
 1330 076a 33       		.byte	0x33
 1331 076b AC070000 		.4byte	0x7ac
 1332 076f 07       		.uleb128 0x7
 1333 0770 7C050000 		.4byte	.LASF124
 1334 0774 10       		.byte	0x10
 1335 0775 34       		.byte	0x34
 1336 0776 29070000 		.4byte	0x729
 1337 077a 00       		.byte	0
 1338 077b 07       		.uleb128 0x7
 1339 077c C7040000 		.4byte	.LASF125
 1340 0780 10       		.byte	0x10
 1341 0781 35       		.byte	0x35
 1342 0782 29070000 		.4byte	0x729
 1343 0786 01       		.byte	0x1
 1344 0787 07       		.uleb128 0x7
 1345 0788 D9070000 		.4byte	.LASF126
 1346 078c 10       		.byte	0x10
 1347 078d 36       		.byte	0x36
 1348 078e 34070000 		.4byte	0x734
 1349 0792 02       		.byte	0x2
 1350 0793 07       		.uleb128 0x7
 1351 0794 6A030000 		.4byte	.LASF127
 1352 0798 10       		.byte	0x10
 1353 0799 37       		.byte	0x37
 1354 079a 4A070000 		.4byte	0x74a
 1355 079e 04       		.byte	0x4
 1356 079f 07       		.uleb128 0x7
 1357 07a0 97020000 		.4byte	.LASF128
 1358 07a4 10       		.byte	0x10
 1359 07a5 38       		.byte	0x38
 1360 07a6 19070000 		.4byte	0x719
 1361 07aa 08       		.byte	0x8
 1362 07ab 00       		.byte	0
ARM GAS  C:\Users\jo\AppData\Local\Temp\ccVc71DF.s 			page 25


 1363 07ac 1A       		.uleb128 0x1a
 1364 07ad 3E070000 		.4byte	.LASF129
 1365 07b1 6406     		.2byte	0x664
 1366 07b3 11       		.byte	0x11
 1367 07b4 3A       		.byte	0x3a
 1368 07b5 12080000 		.4byte	0x812
 1369 07b9 07       		.uleb128 0x7
 1370 07ba C4050000 		.4byte	.LASF130
 1371 07be 11       		.byte	0x11
 1372 07bf 3B       		.byte	0x3b
 1373 07c0 25000000 		.4byte	0x25
 1374 07c4 00       		.byte	0
 1375 07c5 07       		.uleb128 0x7
 1376 07c6 85090000 		.4byte	.LASF131
 1377 07ca 11       		.byte	0x11
 1378 07cb 3C       		.byte	0x3c
 1379 07cc 25000000 		.4byte	0x25
 1380 07d0 04       		.byte	0x4
 1381 07d1 07       		.uleb128 0x7
 1382 07d2 A3080000 		.4byte	.LASF132
 1383 07d6 11       		.byte	0x11
 1384 07d7 3D       		.byte	0x3d
 1385 07d8 12080000 		.4byte	0x812
 1386 07dc 08       		.byte	0x8
 1387 07dd 1B       		.uleb128 0x1b
 1388 07de 13060000 		.4byte	.LASF133
 1389 07e2 11       		.byte	0x11
 1390 07e3 3E       		.byte	0x3e
 1391 07e4 25000000 		.4byte	0x25
 1392 07e8 3C06     		.2byte	0x63c
 1393 07ea 1B       		.uleb128 0x1b
 1394 07eb CF020000 		.4byte	.LASF134
 1395 07ef 11       		.byte	0x11
 1396 07f0 3F       		.byte	0x3f
 1397 07f1 25000000 		.4byte	0x25
 1398 07f5 4006     		.2byte	0x640
 1399 07f7 1B       		.uleb128 0x1b
 1400 07f8 11070000 		.4byte	.LASF135
 1401 07fc 11       		.byte	0x11
 1402 07fd 40       		.byte	0x40
 1403 07fe 63070000 		.4byte	0x763
 1404 0802 4406     		.2byte	0x644
 1405 0804 1B       		.uleb128 0x1b
 1406 0805 4D030000 		.4byte	.LASF136
 1407 0809 11       		.byte	0x11
 1408 080a 41       		.byte	0x41
 1409 080b 63070000 		.4byte	0x763
 1410 080f 5406     		.2byte	0x654
 1411 0811 00       		.byte	0
 1412 0812 15       		.uleb128 0x15
 1413 0813 D3060000 		.4byte	0x6d3
 1414 0817 23080000 		.4byte	0x823
 1415 081b 1C       		.uleb128 0x1c
 1416 081c 99040000 		.4byte	0x499
 1417 0820 3306     		.2byte	0x633
 1418 0822 00       		.byte	0
 1419 0823 03       		.uleb128 0x3
ARM GAS  C:\Users\jo\AppData\Local\Temp\ccVc71DF.s 			page 26


 1420 0824 A4030000 		.4byte	.LASF137
 1421 0828 12       		.byte	0x12
 1422 0829 3D       		.byte	0x3d
 1423 082a AC070000 		.4byte	0x7ac
 1424 082e 0A       		.uleb128 0xa
 1425 082f 04       		.byte	0x4
 1426 0830 23080000 		.4byte	0x823
 1427 0834 03       		.uleb128 0x3
 1428 0835 7D080000 		.4byte	.LASF138
 1429 0839 13       		.byte	0x13
 1430 083a 89       		.byte	0x89
 1431 083b 3F080000 		.4byte	0x83f
 1432 083f 06       		.uleb128 0x6
 1433 0840 E0050000 		.4byte	.LASF139
 1434 0844 4C       		.byte	0x4c
 1435 0845 13       		.byte	0x13
 1436 0846 8C       		.byte	0x8c
 1437 0847 30090000 		.4byte	0x930
 1438 084b 07       		.uleb128 0x7
 1439 084c 72080000 		.4byte	.LASF140
 1440 0850 13       		.byte	0x13
 1441 0851 8D       		.byte	0x8d
 1442 0852 25000000 		.4byte	0x25
 1443 0856 00       		.byte	0
 1444 0857 07       		.uleb128 0x7
 1445 0858 25020000 		.4byte	.LASF141
 1446 085c 13       		.byte	0x13
 1447 085d 8E       		.byte	0x8e
 1448 085e 13070000 		.4byte	0x713
 1449 0862 04       		.byte	0x4
 1450 0863 07       		.uleb128 0x7
 1451 0864 2F000000 		.4byte	.LASF142
 1452 0868 13       		.byte	0x13
 1453 0869 8F       		.byte	0x8f
 1454 086a 25000000 		.4byte	0x25
 1455 086e 08       		.byte	0x8
 1456 086f 07       		.uleb128 0x7
 1457 0870 4E000000 		.4byte	.LASF143
 1458 0874 13       		.byte	0x13
 1459 0875 90       		.byte	0x90
 1460 0876 13070000 		.4byte	0x713
 1461 087a 0C       		.byte	0xc
 1462 087b 07       		.uleb128 0x7
 1463 087c C1010000 		.4byte	.LASF144
 1464 0880 13       		.byte	0x13
 1465 0881 91       		.byte	0x91
 1466 0882 13070000 		.4byte	0x713
 1467 0886 10       		.byte	0x10
 1468 0887 07       		.uleb128 0x7
 1469 0888 B0010000 		.4byte	.LASF145
 1470 088c 13       		.byte	0x13
 1471 088d 92       		.byte	0x92
 1472 088e 13070000 		.4byte	0x713
 1473 0892 14       		.byte	0x14
 1474 0893 07       		.uleb128 0x7
 1475 0894 E1010000 		.4byte	.LASF146
 1476 0898 13       		.byte	0x13
ARM GAS  C:\Users\jo\AppData\Local\Temp\ccVc71DF.s 			page 27


 1477 0899 93       		.byte	0x93
 1478 089a 13070000 		.4byte	0x713
 1479 089e 18       		.byte	0x18
 1480 089f 07       		.uleb128 0x7
 1481 08a0 D2010000 		.4byte	.LASF147
 1482 08a4 13       		.byte	0x13
 1483 08a5 94       		.byte	0x94
 1484 08a6 25000000 		.4byte	0x25
 1485 08aa 1C       		.byte	0x1c
 1486 08ab 07       		.uleb128 0x7
 1487 08ac 7D030000 		.4byte	.LASF148
 1488 08b0 13       		.byte	0x13
 1489 08b1 96       		.byte	0x96
 1490 08b2 7B000000 		.4byte	0x7b
 1491 08b6 20       		.byte	0x20
 1492 08b7 07       		.uleb128 0x7
 1493 08b8 04030000 		.4byte	.LASF149
 1494 08bc 13       		.byte	0x13
 1495 08bd 97       		.byte	0x97
 1496 08be 13070000 		.4byte	0x713
 1497 08c2 24       		.byte	0x24
 1498 08c3 07       		.uleb128 0x7
 1499 08c4 FD080000 		.4byte	.LASF150
 1500 08c8 13       		.byte	0x13
 1501 08c9 98       		.byte	0x98
 1502 08ca 13070000 		.4byte	0x713
 1503 08ce 28       		.byte	0x28
 1504 08cf 07       		.uleb128 0x7
 1505 08d0 94000000 		.4byte	.LASF151
 1506 08d4 13       		.byte	0x13
 1507 08d5 99       		.byte	0x99
 1508 08d6 13070000 		.4byte	0x713
 1509 08da 2C       		.byte	0x2c
 1510 08db 07       		.uleb128 0x7
 1511 08dc C0020000 		.4byte	.LASF152
 1512 08e0 13       		.byte	0x13
 1513 08e1 9A       		.byte	0x9a
 1514 08e2 13070000 		.4byte	0x713
 1515 08e6 30       		.byte	0x30
 1516 08e7 07       		.uleb128 0x7
 1517 08e8 F0010000 		.4byte	.LASF153
 1518 08ec 13       		.byte	0x13
 1519 08ed 9B       		.byte	0x9b
 1520 08ee 13070000 		.4byte	0x713
 1521 08f2 34       		.byte	0x34
 1522 08f3 07       		.uleb128 0x7
 1523 08f4 3B000000 		.4byte	.LASF154
 1524 08f8 13       		.byte	0x13
 1525 08f9 9F       		.byte	0x9f
 1526 08fa 13070000 		.4byte	0x713
 1527 08fe 38       		.byte	0x38
 1528 08ff 07       		.uleb128 0x7
 1529 0900 1D050000 		.4byte	.LASF155
 1530 0904 13       		.byte	0x13
 1531 0905 A0       		.byte	0xa0
 1532 0906 13070000 		.4byte	0x713
 1533 090a 3C       		.byte	0x3c
ARM GAS  C:\Users\jo\AppData\Local\Temp\ccVc71DF.s 			page 28


 1534 090b 07       		.uleb128 0x7
 1535 090c 2D080000 		.4byte	.LASF156
 1536 0910 13       		.byte	0x13
 1537 0911 A1       		.byte	0xa1
 1538 0912 13070000 		.4byte	0x713
 1539 0916 40       		.byte	0x40
 1540 0917 07       		.uleb128 0x7
 1541 0918 12080000 		.4byte	.LASF157
 1542 091c 13       		.byte	0x13
 1543 091d A2       		.byte	0xa2
 1544 091e 13070000 		.4byte	0x713
 1545 0922 44       		.byte	0x44
 1546 0923 07       		.uleb128 0x7
 1547 0924 84010000 		.4byte	.LASF158
 1548 0928 13       		.byte	0x13
 1549 0929 A3       		.byte	0xa3
 1550 092a 13070000 		.4byte	0x713
 1551 092e 48       		.byte	0x48
 1552 092f 00       		.byte	0
 1553 0930 03       		.uleb128 0x3
 1554 0931 03020000 		.4byte	.LASF159
 1555 0935 13       		.byte	0x13
 1556 0936 A8       		.byte	0xa8
 1557 0937 3B090000 		.4byte	0x93b
 1558 093b 06       		.uleb128 0x6
 1559 093c 3A080000 		.4byte	.LASF160
 1560 0940 50       		.byte	0x50
 1561 0941 13       		.byte	0x13
 1562 0942 AB       		.byte	0xab
 1563 0943 60090000 		.4byte	0x960
 1564 0947 07       		.uleb128 0x7
 1565 0948 B5080000 		.4byte	.LASF161
 1566 094c 13       		.byte	0x13
 1567 094d AC       		.byte	0xac
 1568 094e 2E080000 		.4byte	0x82e
 1569 0952 00       		.byte	0
 1570 0953 07       		.uleb128 0x7
 1571 0954 C1040000 		.4byte	.LASF162
 1572 0958 13       		.byte	0x13
 1573 0959 AD       		.byte	0xad
 1574 095a 34080000 		.4byte	0x834
 1575 095e 04       		.byte	0x4
 1576 095f 00       		.byte	0
 1577 0960 0A       		.uleb128 0xa
 1578 0961 04       		.byte	0x4
 1579 0962 66090000 		.4byte	0x966
 1580 0966 1D       		.uleb128 0x1d
 1581 0967 25000000 		.4byte	0x25
 1582 096b 75090000 		.4byte	0x975
 1583 096f 0D       		.uleb128 0xd
 1584 0970 75090000 		.4byte	0x975
 1585 0974 00       		.byte	0
 1586 0975 0A       		.uleb128 0xa
 1587 0976 04       		.byte	0x4
 1588 0977 30090000 		.4byte	0x930
 1589 097b 03       		.uleb128 0x3
 1590 097c 36030000 		.4byte	.LASF163
ARM GAS  C:\Users\jo\AppData\Local\Temp\ccVc71DF.s 			page 29


 1591 0980 14       		.byte	0x14
 1592 0981 3A       		.byte	0x3a
 1593 0982 86090000 		.4byte	0x986
 1594 0986 06       		.uleb128 0x6
 1595 0987 A7060000 		.4byte	.LASF164
 1596 098b 24       		.byte	0x24
 1597 098c 14       		.byte	0x14
 1598 098d 3F       		.byte	0x3f
 1599 098e DB090000 		.4byte	0x9db
 1600 0992 07       		.uleb128 0x7
 1601 0993 1A020000 		.4byte	.LASF165
 1602 0997 14       		.byte	0x14
 1603 0998 41       		.byte	0x41
 1604 0999 100A0000 		.4byte	0xa10
 1605 099d 00       		.byte	0
 1606 099e 07       		.uleb128 0x7
 1607 099f 83060000 		.4byte	.LASF166
 1608 09a3 14       		.byte	0x14
 1609 09a4 43       		.byte	0x43
 1610 09a5 13070000 		.4byte	0x713
 1611 09a9 08       		.byte	0x8
 1612 09aa 07       		.uleb128 0x7
 1613 09ab 61070000 		.4byte	.LASF167
 1614 09af 14       		.byte	0x14
 1615 09b0 45       		.byte	0x45
 1616 09b1 13070000 		.4byte	0x713
 1617 09b5 0C       		.byte	0xc
 1618 09b6 07       		.uleb128 0x7
 1619 09b7 00000000 		.4byte	.LASF168
 1620 09bb 14       		.byte	0x14
 1621 09bc 47       		.byte	0x47
 1622 09bd 37000000 		.4byte	0x37
 1623 09c1 10       		.byte	0x10
 1624 09c2 07       		.uleb128 0x7
 1625 09c3 9B070000 		.4byte	.LASF169
 1626 09c7 14       		.byte	0x14
 1627 09c8 49       		.byte	0x49
 1628 09c9 DB090000 		.4byte	0x9db
 1629 09cd 14       		.byte	0x14
 1630 09ce 07       		.uleb128 0x7
 1631 09cf 59080000 		.4byte	.LASF170
 1632 09d3 14       		.byte	0x14
 1633 09d4 4B       		.byte	0x4b
 1634 09d5 370A0000 		.4byte	0xa37
 1635 09d9 18       		.byte	0x18
 1636 09da 00       		.byte	0
 1637 09db 03       		.uleb128 0x3
 1638 09dc 58030000 		.4byte	.LASF171
 1639 09e0 14       		.byte	0x14
 1640 09e1 3C       		.byte	0x3c
 1641 09e2 E6090000 		.4byte	0x9e6
 1642 09e6 0A       		.uleb128 0xa
 1643 09e7 04       		.byte	0x4
 1644 09e8 EC090000 		.4byte	0x9ec
 1645 09ec 1D       		.uleb128 0x1d
 1646 09ed 25000000 		.4byte	0x25
 1647 09f1 050A0000 		.4byte	0xa05
ARM GAS  C:\Users\jo\AppData\Local\Temp\ccVc71DF.s 			page 30


 1648 09f5 0D       		.uleb128 0xd
 1649 09f6 75090000 		.4byte	0x975
 1650 09fa 0D       		.uleb128 0xd
 1651 09fb 050A0000 		.4byte	0xa05
 1652 09ff 0D       		.uleb128 0xd
 1653 0a00 C8060000 		.4byte	0x6c8
 1654 0a04 00       		.byte	0
 1655 0a05 0A       		.uleb128 0xa
 1656 0a06 04       		.byte	0x4
 1657 0a07 0B0A0000 		.4byte	0xa0b
 1658 0a0b 19       		.uleb128 0x19
 1659 0a0c 7B090000 		.4byte	0x97b
 1660 0a10 13       		.uleb128 0x13
 1661 0a11 08       		.byte	0x8
 1662 0a12 14       		.byte	0x14
 1663 0a13 41       		.byte	0x41
 1664 0a14 310A0000 		.4byte	0xa31
 1665 0a18 07       		.uleb128 0x7
 1666 0a19 62000000 		.4byte	.LASF172
 1667 0a1d 14       		.byte	0x14
 1668 0a1e 41       		.byte	0x41
 1669 0a1f 310A0000 		.4byte	0xa31
 1670 0a23 00       		.byte	0
 1671 0a24 07       		.uleb128 0x7
 1672 0a25 D6080000 		.4byte	.LASF173
 1673 0a29 14       		.byte	0x14
 1674 0a2a 41       		.byte	0x41
 1675 0a2b 310A0000 		.4byte	0xa31
 1676 0a2f 04       		.byte	0x4
 1677 0a30 00       		.byte	0
 1678 0a31 0A       		.uleb128 0xa
 1679 0a32 04       		.byte	0x4
 1680 0a33 7B090000 		.4byte	0x97b
 1681 0a37 15       		.uleb128 0x15
 1682 0a38 D3060000 		.4byte	0x6d3
 1683 0a3c 470A0000 		.4byte	0xa47
 1684 0a40 16       		.uleb128 0x16
 1685 0a41 99040000 		.4byte	0x499
 1686 0a45 08       		.byte	0x8
 1687 0a46 00       		.byte	0
 1688 0a47 03       		.uleb128 0x3
 1689 0a48 82000000 		.4byte	.LASF174
 1690 0a4c 15       		.byte	0x15
 1691 0a4d 36       		.byte	0x36
 1692 0a4e 520A0000 		.4byte	0xa52
 1693 0a52 06       		.uleb128 0x6
 1694 0a53 58050000 		.4byte	.LASF175
 1695 0a57 10       		.byte	0x10
 1696 0a58 15       		.byte	0x15
 1697 0a59 40       		.byte	0x40
 1698 0a5a 830A0000 		.4byte	0xa83
 1699 0a5e 07       		.uleb128 0x7
 1700 0a5f FD040000 		.4byte	.LASF176
 1701 0a63 15       		.byte	0x15
 1702 0a64 42       		.byte	0x42
 1703 0a65 8E0A0000 		.4byte	0xa8e
 1704 0a69 00       		.byte	0
ARM GAS  C:\Users\jo\AppData\Local\Temp\ccVc71DF.s 			page 31


 1705 0a6a 07       		.uleb128 0x7
 1706 0a6b 88030000 		.4byte	.LASF177
 1707 0a6f 15       		.byte	0x15
 1708 0a70 44       		.byte	0x44
 1709 0a71 13070000 		.4byte	0x713
 1710 0a75 08       		.byte	0x8
 1711 0a76 07       		.uleb128 0x7
 1712 0a77 B8050000 		.4byte	.LASF178
 1713 0a7b 15       		.byte	0x15
 1714 0a7c 46       		.byte	0x46
 1715 0a7d 830A0000 		.4byte	0xa83
 1716 0a81 0C       		.byte	0xc
 1717 0a82 00       		.byte	0
 1718 0a83 03       		.uleb128 0x3
 1719 0a84 08010000 		.4byte	.LASF179
 1720 0a88 15       		.byte	0x15
 1721 0a89 38       		.byte	0x38
 1722 0a8a 60090000 		.4byte	0x960
 1723 0a8e 13       		.uleb128 0x13
 1724 0a8f 08       		.byte	0x8
 1725 0a90 15       		.byte	0x15
 1726 0a91 42       		.byte	0x42
 1727 0a92 AF0A0000 		.4byte	0xaaf
 1728 0a96 07       		.uleb128 0x7
 1729 0a97 62000000 		.4byte	.LASF172
 1730 0a9b 15       		.byte	0x15
 1731 0a9c 42       		.byte	0x42
 1732 0a9d AF0A0000 		.4byte	0xaaf
 1733 0aa1 00       		.byte	0
 1734 0aa2 07       		.uleb128 0x7
 1735 0aa3 D6080000 		.4byte	.LASF173
 1736 0aa7 15       		.byte	0x15
 1737 0aa8 42       		.byte	0x42
 1738 0aa9 AF0A0000 		.4byte	0xaaf
 1739 0aad 04       		.byte	0x4
 1740 0aae 00       		.byte	0
 1741 0aaf 0A       		.uleb128 0xa
 1742 0ab0 04       		.byte	0x4
 1743 0ab1 470A0000 		.4byte	0xa47
 1744 0ab5 13       		.uleb128 0x13
 1745 0ab6 08       		.byte	0x8
 1746 0ab7 01       		.byte	0x1
 1747 0ab8 2C       		.byte	0x2c
 1748 0ab9 D60A0000 		.4byte	0xad6
 1749 0abd 07       		.uleb128 0x7
 1750 0abe DB060000 		.4byte	.LASF180
 1751 0ac2 01       		.byte	0x1
 1752 0ac3 2C       		.byte	0x2c
 1753 0ac4 AF0A0000 		.4byte	0xaaf
 1754 0ac8 00       		.byte	0
 1755 0ac9 07       		.uleb128 0x7
 1756 0aca DC040000 		.4byte	.LASF181
 1757 0ace 01       		.byte	0x1
 1758 0acf 2C       		.byte	0x2c
 1759 0ad0 AF0A0000 		.4byte	0xaaf
 1760 0ad4 04       		.byte	0x4
 1761 0ad5 00       		.byte	0
ARM GAS  C:\Users\jo\AppData\Local\Temp\ccVc71DF.s 			page 32


 1762 0ad6 1E       		.uleb128 0x1e
 1763 0ad7 4B070000 		.4byte	.LASF182
 1764 0adb 01       		.byte	0x1
 1765 0adc 2E       		.byte	0x2e
 1766 0add AF0A0000 		.4byte	0xaaf
 1767 0ae1 00000000 		.4byte	.LFB260
 1768 0ae5 28000000 		.4byte	.LFE260-.LFB260
 1769 0ae9 01       		.uleb128 0x1
 1770 0aea 9C       		.byte	0x9c
 1771 0aeb 2B0B0000 		.4byte	0xb2b
 1772 0aef 1F       		.uleb128 0x1f
 1773 0af0 75726900 		.ascii	"uri\000"
 1774 0af4 01       		.byte	0x1
 1775 0af5 2E       		.byte	0x2e
 1776 0af6 C8060000 		.4byte	0x6c8
 1777 0afa 00000000 		.4byte	.LLST0
 1778 0afe 20       		.uleb128 0x20
 1779 0aff 63676900 		.ascii	"cgi\000"
 1780 0b03 01       		.byte	0x1
 1781 0b04 30       		.byte	0x30
 1782 0b05 AF0A0000 		.4byte	0xaaf
 1783 0b09 2C000000 		.4byte	.LLST1
 1784 0b0d 20       		.uleb128 0x20
 1785 0b0e 6900     		.ascii	"i\000"
 1786 0b10 01       		.byte	0x1
 1787 0b11 31       		.byte	0x31
 1788 0b12 25000000 		.4byte	0x25
 1789 0b16 4A000000 		.4byte	.LLST2
 1790 0b1a 21       		.uleb128 0x21
 1791 0b1b 18000000 		.4byte	.LVL5
 1792 0b1f 200D0000 		.4byte	0xd20
 1793 0b23 22       		.uleb128 0x22
 1794 0b24 01       		.uleb128 0x1
 1795 0b25 51       		.byte	0x51
 1796 0b26 02       		.uleb128 0x2
 1797 0b27 75       		.byte	0x75
 1798 0b28 00       		.sleb128 0
 1799 0b29 00       		.byte	0
 1800 0b2a 00       		.byte	0
 1801 0b2b 1E       		.uleb128 0x1e
 1802 0b2c 83070000 		.4byte	.LASF183
 1803 0b30 01       		.byte	0x1
 1804 0b31 41       		.byte	0x41
 1805 0b32 25000000 		.4byte	0x25
 1806 0b36 00000000 		.4byte	.LFB261
 1807 0b3a F4000000 		.4byte	.LFE261-.LFB261
 1808 0b3e 01       		.uleb128 0x1
 1809 0b3f 9C       		.byte	0x9c
 1810 0b40 200C0000 		.4byte	0xc20
 1811 0b44 1F       		.uleb128 0x1f
 1812 0b45 75726900 		.ascii	"uri\000"
 1813 0b49 01       		.byte	0x1
 1814 0b4a 41       		.byte	0x41
 1815 0b4b C8060000 		.4byte	0x6c8
 1816 0b4f 68000000 		.4byte	.LLST3
 1817 0b53 23       		.uleb128 0x23
 1818 0b54 B9040000 		.4byte	.LASF184
ARM GAS  C:\Users\jo\AppData\Local\Temp\ccVc71DF.s 			page 33


 1819 0b58 01       		.byte	0x1
 1820 0b59 41       		.byte	0x41
 1821 0b5a 830A0000 		.4byte	0xa83
 1822 0b5e AD000000 		.4byte	.LLST4
 1823 0b62 20       		.uleb128 0x20
 1824 0b63 726300   		.ascii	"rc\000"
 1825 0b66 01       		.byte	0x1
 1826 0b67 43       		.byte	0x43
 1827 0b68 25000000 		.4byte	0x25
 1828 0b6c D9000000 		.4byte	.LLST5
 1829 0b70 20       		.uleb128 0x20
 1830 0b71 63757200 		.ascii	"cur\000"
 1831 0b75 01       		.byte	0x1
 1832 0b76 44       		.byte	0x44
 1833 0b77 AF0A0000 		.4byte	0xaaf
 1834 0b7b 06010000 		.4byte	.LLST6
 1835 0b7f 20       		.uleb128 0x20
 1836 0b80 6900     		.ascii	"i\000"
 1837 0b82 01       		.byte	0x1
 1838 0b83 45       		.byte	0x45
 1839 0b84 25000000 		.4byte	0x25
 1840 0b88 30010000 		.4byte	.LLST7
 1841 0b8c 24       		.uleb128 0x24
 1842 0b8d 00000000 		.4byte	.Ldebug_ranges0+0
 1843 0b91 E10B0000 		.4byte	0xbe1
 1844 0b95 20       		.uleb128 0x20
 1845 0b96 63676900 		.ascii	"cgi\000"
 1846 0b9a 01       		.byte	0x1
 1847 0b9b 50       		.byte	0x50
 1848 0b9c AF0A0000 		.4byte	0xaaf
 1849 0ba0 7E010000 		.4byte	.LLST8
 1850 0ba4 25       		.uleb128 0x25
 1851 0ba5 44000000 		.4byte	.LVL16
 1852 0ba9 3A0D0000 		.4byte	0xd3a
 1853 0bad BC0B0000 		.4byte	0xbbc
 1854 0bb1 22       		.uleb128 0x22
 1855 0bb2 01       		.uleb128 0x1
 1856 0bb3 51       		.byte	0x51
 1857 0bb4 01       		.uleb128 0x1
 1858 0bb5 40       		.byte	0x40
 1859 0bb6 22       		.uleb128 0x22
 1860 0bb7 01       		.uleb128 0x1
 1861 0bb8 50       		.byte	0x50
 1862 0bb9 01       		.uleb128 0x1
 1863 0bba 31       		.byte	0x31
 1864 0bbb 00       		.byte	0
 1865 0bbc 25       		.uleb128 0x25
 1866 0bbd 50000000 		.4byte	.LVL18
 1867 0bc1 540D0000 		.4byte	0xd54
 1868 0bc5 D00B0000 		.4byte	0xbd0
 1869 0bc9 22       		.uleb128 0x22
 1870 0bca 01       		.uleb128 0x1
 1871 0bcb 50       		.byte	0x50
 1872 0bcc 02       		.uleb128 0x2
 1873 0bcd 76       		.byte	0x76
 1874 0bce 00       		.sleb128 0
 1875 0bcf 00       		.byte	0
ARM GAS  C:\Users\jo\AppData\Local\Temp\ccVc71DF.s 			page 34


 1876 0bd0 21       		.uleb128 0x21
 1877 0bd1 E6000000 		.4byte	.LVL31
 1878 0bd5 690D0000 		.4byte	0xd69
 1879 0bd9 22       		.uleb128 0x22
 1880 0bda 01       		.uleb128 0x1
 1881 0bdb 50       		.byte	0x50
 1882 0bdc 02       		.uleb128 0x2
 1883 0bdd 75       		.byte	0x75
 1884 0bde 00       		.sleb128 0
 1885 0bdf 00       		.byte	0
 1886 0be0 00       		.byte	0
 1887 0be1 25       		.uleb128 0x25
 1888 0be2 24000000 		.4byte	.LVL13
 1889 0be6 200D0000 		.4byte	0xd20
 1890 0bea FB0B0000 		.4byte	0xbfb
 1891 0bee 22       		.uleb128 0x22
 1892 0bef 01       		.uleb128 0x1
 1893 0bf0 51       		.byte	0x51
 1894 0bf1 02       		.uleb128 0x2
 1895 0bf2 76       		.byte	0x76
 1896 0bf3 00       		.sleb128 0
 1897 0bf4 22       		.uleb128 0x22
 1898 0bf5 01       		.uleb128 0x1
 1899 0bf6 50       		.byte	0x50
 1900 0bf7 02       		.uleb128 0x2
 1901 0bf8 75       		.byte	0x75
 1902 0bf9 00       		.sleb128 0
 1903 0bfa 00       		.byte	0
 1904 0bfb 25       		.uleb128 0x25
 1905 0bfc 9E000000 		.4byte	.LVL23
 1906 0c00 690D0000 		.4byte	0xd69
 1907 0c04 0F0C0000 		.4byte	0xc0f
 1908 0c08 22       		.uleb128 0x22
 1909 0c09 01       		.uleb128 0x1
 1910 0c0a 50       		.byte	0x50
 1911 0c0b 02       		.uleb128 0x2
 1912 0c0c 75       		.byte	0x75
 1913 0c0d 00       		.sleb128 0
 1914 0c0e 00       		.byte	0
 1915 0c0f 21       		.uleb128 0x21
 1916 0c10 A4000000 		.4byte	.LVL24
 1917 0c14 690D0000 		.4byte	0xd69
 1918 0c18 22       		.uleb128 0x22
 1919 0c19 01       		.uleb128 0x1
 1920 0c1a 50       		.byte	0x50
 1921 0c1b 02       		.uleb128 0x2
 1922 0c1c 74       		.byte	0x74
 1923 0c1d 00       		.sleb128 0
 1924 0c1e 00       		.byte	0
 1925 0c1f 00       		.byte	0
 1926 0c20 1E       		.uleb128 0x1e
 1927 0c21 1F030000 		.4byte	.LASF185
 1928 0c25 01       		.byte	0x1
 1929 0c26 6F       		.byte	0x6f
 1930 0c27 25000000 		.4byte	0x25
 1931 0c2b 00000000 		.4byte	.LFB262
 1932 0c2f 58000000 		.4byte	.LFE262-.LFB262
ARM GAS  C:\Users\jo\AppData\Local\Temp\ccVc71DF.s 			page 35


 1933 0c33 01       		.uleb128 0x1
 1934 0c34 9C       		.byte	0x9c
 1935 0c35 ED0C0000 		.4byte	0xced
 1936 0c39 1F       		.uleb128 0x1f
 1937 0c3a 687300   		.ascii	"hs\000"
 1938 0c3d 01       		.byte	0x1
 1939 0c3e 6F       		.byte	0x6f
 1940 0c3f 75090000 		.4byte	0x975
 1941 0c43 C8010000 		.4byte	.LLST9
 1942 0c47 1F       		.uleb128 0x1f
 1943 0c48 6D7400   		.ascii	"mt\000"
 1944 0c4b 01       		.byte	0x1
 1945 0c4c 6F       		.byte	0x6f
 1946 0c4d 050A0000 		.4byte	0xa05
 1947 0c51 FC010000 		.4byte	.LLST10
 1948 0c55 23       		.uleb128 0x23
 1949 0c56 33020000 		.4byte	.LASF186
 1950 0c5a 01       		.byte	0x1
 1951 0c5b 6F       		.byte	0x6f
 1952 0c5c C8060000 		.4byte	0x6c8
 1953 0c60 36020000 		.4byte	.LLST11
 1954 0c64 20       		.uleb128 0x20
 1955 0c65 63676900 		.ascii	"cgi\000"
 1956 0c69 01       		.byte	0x1
 1957 0c6a 71       		.byte	0x71
 1958 0c6b AF0A0000 		.4byte	0xaaf
 1959 0c6f 6A020000 		.4byte	.LLST12
 1960 0c73 20       		.uleb128 0x20
 1961 0c74 707000   		.ascii	"pp\000"
 1962 0c77 01       		.byte	0x1
 1963 0c78 72       		.byte	0x72
 1964 0c79 C8060000 		.4byte	0x6c8
 1965 0c7d 7D020000 		.4byte	.LLST13
 1966 0c81 25       		.uleb128 0x25
 1967 0c82 12000000 		.4byte	.LVL35
 1968 0c86 7A0D0000 		.4byte	0xd7a
 1969 0c8a 950C0000 		.4byte	0xc95
 1970 0c8e 22       		.uleb128 0x22
 1971 0c8f 01       		.uleb128 0x1
 1972 0c90 50       		.byte	0x50
 1973 0c91 02       		.uleb128 0x2
 1974 0c92 75       		.byte	0x75
 1975 0c93 00       		.sleb128 0
 1976 0c94 00       		.byte	0
 1977 0c95 25       		.uleb128 0x25
 1978 0c96 1E000000 		.4byte	.LVL36
 1979 0c9a 8F0D0000 		.4byte	0xd8f
 1980 0c9e B50C0000 		.4byte	0xcb5
 1981 0ca2 22       		.uleb128 0x22
 1982 0ca3 01       		.uleb128 0x1
 1983 0ca4 52       		.byte	0x52
 1984 0ca5 02       		.uleb128 0x2
 1985 0ca6 76       		.byte	0x76
 1986 0ca7 00       		.sleb128 0
 1987 0ca8 22       		.uleb128 0x22
 1988 0ca9 01       		.uleb128 0x1
 1989 0caa 51       		.byte	0x51
ARM GAS  C:\Users\jo\AppData\Local\Temp\ccVc71DF.s 			page 36


 1990 0cab 02       		.uleb128 0x2
 1991 0cac 75       		.byte	0x75
 1992 0cad 00       		.sleb128 0
 1993 0cae 22       		.uleb128 0x22
 1994 0caf 01       		.uleb128 0x1
 1995 0cb0 50       		.byte	0x50
 1996 0cb1 02       		.uleb128 0x2
 1997 0cb2 74       		.byte	0x74
 1998 0cb3 00       		.sleb128 0
 1999 0cb4 00       		.byte	0
 2000 0cb5 26       		.uleb128 0x26
 2001 0cb6 2E000000 		.4byte	.LVL38
 2002 0cba D60A0000 		.4byte	0xad6
 2003 0cbe 27       		.uleb128 0x27
 2004 0cbf 36000000 		.4byte	.LVL40
 2005 0cc3 CE0C0000 		.4byte	0xcce
 2006 0cc7 22       		.uleb128 0x22
 2007 0cc8 01       		.uleb128 0x1
 2008 0cc9 50       		.byte	0x50
 2009 0cca 02       		.uleb128 0x2
 2010 0ccb 77       		.byte	0x77
 2011 0ccc 00       		.sleb128 0
 2012 0ccd 00       		.byte	0
 2013 0cce 21       		.uleb128 0x21
 2014 0ccf 44000000 		.4byte	.LVL45
 2015 0cd3 8F0D0000 		.4byte	0xd8f
 2016 0cd7 22       		.uleb128 0x22
 2017 0cd8 01       		.uleb128 0x1
 2018 0cd9 52       		.byte	0x52
 2019 0cda 01       		.uleb128 0x1
 2020 0cdb 35       		.byte	0x35
 2021 0cdc 22       		.uleb128 0x22
 2022 0cdd 01       		.uleb128 0x1
 2023 0cde 51       		.byte	0x51
 2024 0cdf 05       		.uleb128 0x5
 2025 0ce0 03       		.byte	0x3
 2026 0ce1 00000000 		.4byte	.LC0
 2027 0ce5 22       		.uleb128 0x22
 2028 0ce6 01       		.uleb128 0x1
 2029 0ce7 50       		.byte	0x50
 2030 0ce8 02       		.uleb128 0x2
 2031 0ce9 74       		.byte	0x74
 2032 0cea 00       		.sleb128 0
 2033 0ceb 00       		.byte	0
 2034 0cec 00       		.byte	0
 2035 0ced 28       		.uleb128 0x28
 2036 0cee E2070000 		.4byte	.LASF187
 2037 0cf2 01       		.byte	0x1
 2038 0cf3 2C       		.byte	0x2c
 2039 0cf4 B50A0000 		.4byte	0xab5
 2040 0cf8 05       		.uleb128 0x5
 2041 0cf9 03       		.byte	0x3
 2042 0cfa 00000000 		.4byte	cgiFunctionList
 2043 0cfe 29       		.uleb128 0x29
 2044 0cff FB000000 		.4byte	.LASF188
 2045 0d03 16       		.byte	0x16
 2046 0d04 A706     		.2byte	0x6a7
ARM GAS  C:\Users\jo\AppData\Local\Temp\ccVc71DF.s 			page 37


 2047 0d06 E4000000 		.4byte	0xe4
 2048 0d0a 2A       		.uleb128 0x2a
 2049 0d0b 636800   		.ascii	"ch\000"
 2050 0d0e 07       		.byte	0x7
 2051 0d0f 0902     		.2byte	0x209
 2052 0d11 2F040000 		.4byte	0x42f
 2053 0d15 2B       		.uleb128 0x2b
 2054 0d16 A0020000 		.4byte	.LASF189
 2055 0d1a 13       		.byte	0x13
 2056 0d1b CC       		.byte	0xcc
 2057 0d1c 13070000 		.4byte	0x713
 2058 0d20 2C       		.uleb128 0x2c
 2059 0d21 33070000 		.4byte	.LASF190
 2060 0d25 17       		.byte	0x17
 2061 0d26 49       		.byte	0x49
 2062 0d27 25000000 		.4byte	0x25
 2063 0d2b 3A0D0000 		.4byte	0xd3a
 2064 0d2f 0D       		.uleb128 0xd
 2065 0d30 C8060000 		.4byte	0x6c8
 2066 0d34 0D       		.uleb128 0xd
 2067 0d35 C8060000 		.4byte	0x6c8
 2068 0d39 00       		.byte	0
 2069 0d3a 2C       		.uleb128 0x2c
 2070 0d3b 8A080000 		.4byte	.LASF191
 2071 0d3f 18       		.byte	0x18
 2072 0d40 52       		.byte	0x52
 2073 0d41 38030000 		.4byte	0x338
 2074 0d45 540D0000 		.4byte	0xd54
 2075 0d49 0D       		.uleb128 0xd
 2076 0d4a 2C000000 		.4byte	0x2c
 2077 0d4e 0D       		.uleb128 0xd
 2078 0d4f 2C000000 		.4byte	0x2c
 2079 0d53 00       		.byte	0
 2080 0d54 2C       		.uleb128 0x2c
 2081 0d55 45020000 		.4byte	.LASF192
 2082 0d59 17       		.byte	0x17
 2083 0d5a 50       		.byte	0x50
 2084 0d5b 13070000 		.4byte	0x713
 2085 0d5f 690D0000 		.4byte	0xd69
 2086 0d63 0D       		.uleb128 0xd
 2087 0d64 C8060000 		.4byte	0x6c8
 2088 0d68 00       		.byte	0
 2089 0d69 2D       		.uleb128 0x2d
 2090 0d6a 19010000 		.4byte	.LASF194
 2091 0d6e 18       		.byte	0x18
 2092 0d6f 55       		.byte	0x55
 2093 0d70 7A0D0000 		.4byte	0xd7a
 2094 0d74 0D       		.uleb128 0xd
 2095 0d75 38030000 		.4byte	0x338
 2096 0d79 00       		.byte	0
 2097 0d7a 2C       		.uleb128 0x2c
 2098 0d7b F6020000 		.4byte	.LASF193
 2099 0d7f 17       		.byte	0x17
 2100 0d80 21       		.byte	0x21
 2101 0d81 2C000000 		.4byte	0x2c
 2102 0d85 8F0D0000 		.4byte	0xd8f
 2103 0d89 0D       		.uleb128 0xd
ARM GAS  C:\Users\jo\AppData\Local\Temp\ccVc71DF.s 			page 38


 2104 0d8a C8060000 		.4byte	0x6c8
 2105 0d8e 00       		.byte	0
 2106 0d8f 2E       		.uleb128 0x2e
 2107 0d90 A1050000 		.4byte	.LASF195
 2108 0d94 17       		.byte	0x17
 2109 0d95 7A       		.byte	0x7a
 2110 0d96 25000000 		.4byte	0x25
 2111 0d9a 0D       		.uleb128 0xd
 2112 0d9b C8060000 		.4byte	0x6c8
 2113 0d9f 0D       		.uleb128 0xd
 2114 0da0 C8060000 		.4byte	0x6c8
 2115 0da4 0D       		.uleb128 0xd
 2116 0da5 2C000000 		.4byte	0x2c
 2117 0da9 00       		.byte	0
 2118 0daa 00       		.byte	0
 2119              		.section	.debug_abbrev,"",%progbits
 2120              	.Ldebug_abbrev0:
 2121 0000 01       		.uleb128 0x1
 2122 0001 11       		.uleb128 0x11
 2123 0002 01       		.byte	0x1
 2124 0003 25       		.uleb128 0x25
 2125 0004 0E       		.uleb128 0xe
 2126 0005 13       		.uleb128 0x13
 2127 0006 0B       		.uleb128 0xb
 2128 0007 03       		.uleb128 0x3
 2129 0008 0E       		.uleb128 0xe
 2130 0009 1B       		.uleb128 0x1b
 2131 000a 0E       		.uleb128 0xe
 2132 000b 55       		.uleb128 0x55
 2133 000c 17       		.uleb128 0x17
 2134 000d 11       		.uleb128 0x11
 2135 000e 01       		.uleb128 0x1
 2136 000f 10       		.uleb128 0x10
 2137 0010 17       		.uleb128 0x17
 2138 0011 00       		.byte	0
 2139 0012 00       		.byte	0
 2140 0013 02       		.uleb128 0x2
 2141 0014 24       		.uleb128 0x24
 2142 0015 00       		.byte	0
 2143 0016 0B       		.uleb128 0xb
 2144 0017 0B       		.uleb128 0xb
 2145 0018 3E       		.uleb128 0x3e
 2146 0019 0B       		.uleb128 0xb
 2147 001a 03       		.uleb128 0x3
 2148 001b 08       		.uleb128 0x8
 2149 001c 00       		.byte	0
 2150 001d 00       		.byte	0
 2151 001e 03       		.uleb128 0x3
 2152 001f 16       		.uleb128 0x16
 2153 0020 00       		.byte	0
 2154 0021 03       		.uleb128 0x3
 2155 0022 0E       		.uleb128 0xe
 2156 0023 3A       		.uleb128 0x3a
 2157 0024 0B       		.uleb128 0xb
 2158 0025 3B       		.uleb128 0x3b
 2159 0026 0B       		.uleb128 0xb
 2160 0027 49       		.uleb128 0x49
ARM GAS  C:\Users\jo\AppData\Local\Temp\ccVc71DF.s 			page 39


 2161 0028 13       		.uleb128 0x13
 2162 0029 00       		.byte	0
 2163 002a 00       		.byte	0
 2164 002b 04       		.uleb128 0x4
 2165 002c 24       		.uleb128 0x24
 2166 002d 00       		.byte	0
 2167 002e 0B       		.uleb128 0xb
 2168 002f 0B       		.uleb128 0xb
 2169 0030 3E       		.uleb128 0x3e
 2170 0031 0B       		.uleb128 0xb
 2171 0032 03       		.uleb128 0x3
 2172 0033 0E       		.uleb128 0xe
 2173 0034 00       		.byte	0
 2174 0035 00       		.byte	0
 2175 0036 05       		.uleb128 0x5
 2176 0037 35       		.uleb128 0x35
 2177 0038 00       		.byte	0
 2178 0039 49       		.uleb128 0x49
 2179 003a 13       		.uleb128 0x13
 2180 003b 00       		.byte	0
 2181 003c 00       		.byte	0
 2182 003d 06       		.uleb128 0x6
 2183 003e 13       		.uleb128 0x13
 2184 003f 01       		.byte	0x1
 2185 0040 03       		.uleb128 0x3
 2186 0041 0E       		.uleb128 0xe
 2187 0042 0B       		.uleb128 0xb
 2188 0043 0B       		.uleb128 0xb
 2189 0044 3A       		.uleb128 0x3a
 2190 0045 0B       		.uleb128 0xb
 2191 0046 3B       		.uleb128 0x3b
 2192 0047 0B       		.uleb128 0xb
 2193 0048 01       		.uleb128 0x1
 2194 0049 13       		.uleb128 0x13
 2195 004a 00       		.byte	0
 2196 004b 00       		.byte	0
 2197 004c 07       		.uleb128 0x7
 2198 004d 0D       		.uleb128 0xd
 2199 004e 00       		.byte	0
 2200 004f 03       		.uleb128 0x3
 2201 0050 0E       		.uleb128 0xe
 2202 0051 3A       		.uleb128 0x3a
 2203 0052 0B       		.uleb128 0xb
 2204 0053 3B       		.uleb128 0x3b
 2205 0054 0B       		.uleb128 0xb
 2206 0055 49       		.uleb128 0x49
 2207 0056 13       		.uleb128 0x13
 2208 0057 38       		.uleb128 0x38
 2209 0058 0B       		.uleb128 0xb
 2210 0059 00       		.byte	0
 2211 005a 00       		.byte	0
 2212 005b 08       		.uleb128 0x8
 2213 005c 0D       		.uleb128 0xd
 2214 005d 00       		.byte	0
 2215 005e 03       		.uleb128 0x3
 2216 005f 08       		.uleb128 0x8
 2217 0060 3A       		.uleb128 0x3a
ARM GAS  C:\Users\jo\AppData\Local\Temp\ccVc71DF.s 			page 40


 2218 0061 0B       		.uleb128 0xb
 2219 0062 3B       		.uleb128 0x3b
 2220 0063 05       		.uleb128 0x5
 2221 0064 49       		.uleb128 0x49
 2222 0065 13       		.uleb128 0x13
 2223 0066 38       		.uleb128 0x38
 2224 0067 0B       		.uleb128 0xb
 2225 0068 00       		.byte	0
 2226 0069 00       		.byte	0
 2227 006a 09       		.uleb128 0x9
 2228 006b 0D       		.uleb128 0xd
 2229 006c 00       		.byte	0
 2230 006d 03       		.uleb128 0x3
 2231 006e 0E       		.uleb128 0xe
 2232 006f 3A       		.uleb128 0x3a
 2233 0070 0B       		.uleb128 0xb
 2234 0071 3B       		.uleb128 0x3b
 2235 0072 05       		.uleb128 0x5
 2236 0073 49       		.uleb128 0x49
 2237 0074 13       		.uleb128 0x13
 2238 0075 38       		.uleb128 0x38
 2239 0076 0B       		.uleb128 0xb
 2240 0077 00       		.byte	0
 2241 0078 00       		.byte	0
 2242 0079 0A       		.uleb128 0xa
 2243 007a 0F       		.uleb128 0xf
 2244 007b 00       		.byte	0
 2245 007c 0B       		.uleb128 0xb
 2246 007d 0B       		.uleb128 0xb
 2247 007e 49       		.uleb128 0x49
 2248 007f 13       		.uleb128 0x13
 2249 0080 00       		.byte	0
 2250 0081 00       		.byte	0
 2251 0082 0B       		.uleb128 0xb
 2252 0083 13       		.uleb128 0x13
 2253 0084 01       		.byte	0x1
 2254 0085 03       		.uleb128 0x3
 2255 0086 0E       		.uleb128 0xe
 2256 0087 0B       		.uleb128 0xb
 2257 0088 0B       		.uleb128 0xb
 2258 0089 3A       		.uleb128 0x3a
 2259 008a 0B       		.uleb128 0xb
 2260 008b 3B       		.uleb128 0x3b
 2261 008c 05       		.uleb128 0x5
 2262 008d 01       		.uleb128 0x1
 2263 008e 13       		.uleb128 0x13
 2264 008f 00       		.byte	0
 2265 0090 00       		.byte	0
 2266 0091 0C       		.uleb128 0xc
 2267 0092 15       		.uleb128 0x15
 2268 0093 01       		.byte	0x1
 2269 0094 27       		.uleb128 0x27
 2270 0095 19       		.uleb128 0x19
 2271 0096 01       		.uleb128 0x1
 2272 0097 13       		.uleb128 0x13
 2273 0098 00       		.byte	0
 2274 0099 00       		.byte	0
ARM GAS  C:\Users\jo\AppData\Local\Temp\ccVc71DF.s 			page 41


 2275 009a 0D       		.uleb128 0xd
 2276 009b 05       		.uleb128 0x5
 2277 009c 00       		.byte	0
 2278 009d 49       		.uleb128 0x49
 2279 009e 13       		.uleb128 0x13
 2280 009f 00       		.byte	0
 2281 00a0 00       		.byte	0
 2282 00a1 0E       		.uleb128 0xe
 2283 00a2 0F       		.uleb128 0xf
 2284 00a3 00       		.byte	0
 2285 00a4 0B       		.uleb128 0xb
 2286 00a5 0B       		.uleb128 0xb
 2287 00a6 00       		.byte	0
 2288 00a7 00       		.byte	0
 2289 00a8 0F       		.uleb128 0xf
 2290 00a9 13       		.uleb128 0x13
 2291 00aa 01       		.byte	0x1
 2292 00ab 03       		.uleb128 0x3
 2293 00ac 0E       		.uleb128 0xe
 2294 00ad 0B       		.uleb128 0xb
 2295 00ae 05       		.uleb128 0x5
 2296 00af 3A       		.uleb128 0x3a
 2297 00b0 0B       		.uleb128 0xb
 2298 00b1 3B       		.uleb128 0x3b
 2299 00b2 05       		.uleb128 0x5
 2300 00b3 01       		.uleb128 0x1
 2301 00b4 13       		.uleb128 0x13
 2302 00b5 00       		.byte	0
 2303 00b6 00       		.byte	0
 2304 00b7 10       		.uleb128 0x10
 2305 00b8 0D       		.uleb128 0xd
 2306 00b9 00       		.byte	0
 2307 00ba 03       		.uleb128 0x3
 2308 00bb 0E       		.uleb128 0xe
 2309 00bc 3A       		.uleb128 0x3a
 2310 00bd 0B       		.uleb128 0xb
 2311 00be 3B       		.uleb128 0x3b
 2312 00bf 05       		.uleb128 0x5
 2313 00c0 49       		.uleb128 0x49
 2314 00c1 13       		.uleb128 0x13
 2315 00c2 38       		.uleb128 0x38
 2316 00c3 05       		.uleb128 0x5
 2317 00c4 00       		.byte	0
 2318 00c5 00       		.byte	0
 2319 00c6 11       		.uleb128 0x11
 2320 00c7 0D       		.uleb128 0xd
 2321 00c8 00       		.byte	0
 2322 00c9 03       		.uleb128 0x3
 2323 00ca 08       		.uleb128 0x8
 2324 00cb 3A       		.uleb128 0x3a
 2325 00cc 0B       		.uleb128 0xb
 2326 00cd 3B       		.uleb128 0x3b
 2327 00ce 05       		.uleb128 0x5
 2328 00cf 49       		.uleb128 0x49
 2329 00d0 13       		.uleb128 0x13
 2330 00d1 38       		.uleb128 0x38
 2331 00d2 05       		.uleb128 0x5
ARM GAS  C:\Users\jo\AppData\Local\Temp\ccVc71DF.s 			page 42


 2332 00d3 00       		.byte	0
 2333 00d4 00       		.byte	0
 2334 00d5 12       		.uleb128 0x12
 2335 00d6 0D       		.uleb128 0xd
 2336 00d7 00       		.byte	0
 2337 00d8 03       		.uleb128 0x3
 2338 00d9 08       		.uleb128 0x8
 2339 00da 3A       		.uleb128 0x3a
 2340 00db 0B       		.uleb128 0xb
 2341 00dc 3B       		.uleb128 0x3b
 2342 00dd 0B       		.uleb128 0xb
 2343 00de 49       		.uleb128 0x49
 2344 00df 13       		.uleb128 0x13
 2345 00e0 38       		.uleb128 0x38
 2346 00e1 0B       		.uleb128 0xb
 2347 00e2 00       		.byte	0
 2348 00e3 00       		.byte	0
 2349 00e4 13       		.uleb128 0x13
 2350 00e5 13       		.uleb128 0x13
 2351 00e6 01       		.byte	0x1
 2352 00e7 0B       		.uleb128 0xb
 2353 00e8 0B       		.uleb128 0xb
 2354 00e9 3A       		.uleb128 0x3a
 2355 00ea 0B       		.uleb128 0xb
 2356 00eb 3B       		.uleb128 0x3b
 2357 00ec 0B       		.uleb128 0xb
 2358 00ed 01       		.uleb128 0x1
 2359 00ee 13       		.uleb128 0x13
 2360 00ef 00       		.byte	0
 2361 00f0 00       		.byte	0
 2362 00f1 14       		.uleb128 0x14
 2363 00f2 13       		.uleb128 0x13
 2364 00f3 01       		.byte	0x1
 2365 00f4 0B       		.uleb128 0xb
 2366 00f5 05       		.uleb128 0x5
 2367 00f6 3A       		.uleb128 0x3a
 2368 00f7 0B       		.uleb128 0xb
 2369 00f8 3B       		.uleb128 0x3b
 2370 00f9 0B       		.uleb128 0xb
 2371 00fa 01       		.uleb128 0x1
 2372 00fb 13       		.uleb128 0x13
 2373 00fc 00       		.byte	0
 2374 00fd 00       		.byte	0
 2375 00fe 15       		.uleb128 0x15
 2376 00ff 01       		.uleb128 0x1
 2377 0100 01       		.byte	0x1
 2378 0101 49       		.uleb128 0x49
 2379 0102 13       		.uleb128 0x13
 2380 0103 01       		.uleb128 0x1
 2381 0104 13       		.uleb128 0x13
 2382 0105 00       		.byte	0
 2383 0106 00       		.byte	0
 2384 0107 16       		.uleb128 0x16
 2385 0108 21       		.uleb128 0x21
 2386 0109 00       		.byte	0
 2387 010a 49       		.uleb128 0x49
 2388 010b 13       		.uleb128 0x13
ARM GAS  C:\Users\jo\AppData\Local\Temp\ccVc71DF.s 			page 43


 2389 010c 2F       		.uleb128 0x2f
 2390 010d 0B       		.uleb128 0xb
 2391 010e 00       		.byte	0
 2392 010f 00       		.byte	0
 2393 0110 17       		.uleb128 0x17
 2394 0111 17       		.uleb128 0x17
 2395 0112 01       		.byte	0x1
 2396 0113 0B       		.uleb128 0xb
 2397 0114 0B       		.uleb128 0xb
 2398 0115 3A       		.uleb128 0x3a
 2399 0116 0B       		.uleb128 0xb
 2400 0117 3B       		.uleb128 0x3b
 2401 0118 0B       		.uleb128 0xb
 2402 0119 01       		.uleb128 0x1
 2403 011a 13       		.uleb128 0x13
 2404 011b 00       		.byte	0
 2405 011c 00       		.byte	0
 2406 011d 18       		.uleb128 0x18
 2407 011e 0D       		.uleb128 0xd
 2408 011f 00       		.byte	0
 2409 0120 03       		.uleb128 0x3
 2410 0121 0E       		.uleb128 0xe
 2411 0122 3A       		.uleb128 0x3a
 2412 0123 0B       		.uleb128 0xb
 2413 0124 3B       		.uleb128 0x3b
 2414 0125 05       		.uleb128 0x5
 2415 0126 49       		.uleb128 0x49
 2416 0127 13       		.uleb128 0x13
 2417 0128 00       		.byte	0
 2418 0129 00       		.byte	0
 2419 012a 19       		.uleb128 0x19
 2420 012b 26       		.uleb128 0x26
 2421 012c 00       		.byte	0
 2422 012d 49       		.uleb128 0x49
 2423 012e 13       		.uleb128 0x13
 2424 012f 00       		.byte	0
 2425 0130 00       		.byte	0
 2426 0131 1A       		.uleb128 0x1a
 2427 0132 13       		.uleb128 0x13
 2428 0133 01       		.byte	0x1
 2429 0134 03       		.uleb128 0x3
 2430 0135 0E       		.uleb128 0xe
 2431 0136 0B       		.uleb128 0xb
 2432 0137 05       		.uleb128 0x5
 2433 0138 3A       		.uleb128 0x3a
 2434 0139 0B       		.uleb128 0xb
 2435 013a 3B       		.uleb128 0x3b
 2436 013b 0B       		.uleb128 0xb
 2437 013c 01       		.uleb128 0x1
 2438 013d 13       		.uleb128 0x13
 2439 013e 00       		.byte	0
 2440 013f 00       		.byte	0
 2441 0140 1B       		.uleb128 0x1b
 2442 0141 0D       		.uleb128 0xd
 2443 0142 00       		.byte	0
 2444 0143 03       		.uleb128 0x3
 2445 0144 0E       		.uleb128 0xe
ARM GAS  C:\Users\jo\AppData\Local\Temp\ccVc71DF.s 			page 44


 2446 0145 3A       		.uleb128 0x3a
 2447 0146 0B       		.uleb128 0xb
 2448 0147 3B       		.uleb128 0x3b
 2449 0148 0B       		.uleb128 0xb
 2450 0149 49       		.uleb128 0x49
 2451 014a 13       		.uleb128 0x13
 2452 014b 38       		.uleb128 0x38
 2453 014c 05       		.uleb128 0x5
 2454 014d 00       		.byte	0
 2455 014e 00       		.byte	0
 2456 014f 1C       		.uleb128 0x1c
 2457 0150 21       		.uleb128 0x21
 2458 0151 00       		.byte	0
 2459 0152 49       		.uleb128 0x49
 2460 0153 13       		.uleb128 0x13
 2461 0154 2F       		.uleb128 0x2f
 2462 0155 05       		.uleb128 0x5
 2463 0156 00       		.byte	0
 2464 0157 00       		.byte	0
 2465 0158 1D       		.uleb128 0x1d
 2466 0159 15       		.uleb128 0x15
 2467 015a 01       		.byte	0x1
 2468 015b 27       		.uleb128 0x27
 2469 015c 19       		.uleb128 0x19
 2470 015d 49       		.uleb128 0x49
 2471 015e 13       		.uleb128 0x13
 2472 015f 01       		.uleb128 0x1
 2473 0160 13       		.uleb128 0x13
 2474 0161 00       		.byte	0
 2475 0162 00       		.byte	0
 2476 0163 1E       		.uleb128 0x1e
 2477 0164 2E       		.uleb128 0x2e
 2478 0165 01       		.byte	0x1
 2479 0166 3F       		.uleb128 0x3f
 2480 0167 19       		.uleb128 0x19
 2481 0168 03       		.uleb128 0x3
 2482 0169 0E       		.uleb128 0xe
 2483 016a 3A       		.uleb128 0x3a
 2484 016b 0B       		.uleb128 0xb
 2485 016c 3B       		.uleb128 0x3b
 2486 016d 0B       		.uleb128 0xb
 2487 016e 27       		.uleb128 0x27
 2488 016f 19       		.uleb128 0x19
 2489 0170 49       		.uleb128 0x49
 2490 0171 13       		.uleb128 0x13
 2491 0172 11       		.uleb128 0x11
 2492 0173 01       		.uleb128 0x1
 2493 0174 12       		.uleb128 0x12
 2494 0175 06       		.uleb128 0x6
 2495 0176 40       		.uleb128 0x40
 2496 0177 18       		.uleb128 0x18
 2497 0178 9742     		.uleb128 0x2117
 2498 017a 19       		.uleb128 0x19
 2499 017b 01       		.uleb128 0x1
 2500 017c 13       		.uleb128 0x13
 2501 017d 00       		.byte	0
 2502 017e 00       		.byte	0
ARM GAS  C:\Users\jo\AppData\Local\Temp\ccVc71DF.s 			page 45


 2503 017f 1F       		.uleb128 0x1f
 2504 0180 05       		.uleb128 0x5
 2505 0181 00       		.byte	0
 2506 0182 03       		.uleb128 0x3
 2507 0183 08       		.uleb128 0x8
 2508 0184 3A       		.uleb128 0x3a
 2509 0185 0B       		.uleb128 0xb
 2510 0186 3B       		.uleb128 0x3b
 2511 0187 0B       		.uleb128 0xb
 2512 0188 49       		.uleb128 0x49
 2513 0189 13       		.uleb128 0x13
 2514 018a 02       		.uleb128 0x2
 2515 018b 17       		.uleb128 0x17
 2516 018c 00       		.byte	0
 2517 018d 00       		.byte	0
 2518 018e 20       		.uleb128 0x20
 2519 018f 34       		.uleb128 0x34
 2520 0190 00       		.byte	0
 2521 0191 03       		.uleb128 0x3
 2522 0192 08       		.uleb128 0x8
 2523 0193 3A       		.uleb128 0x3a
 2524 0194 0B       		.uleb128 0xb
 2525 0195 3B       		.uleb128 0x3b
 2526 0196 0B       		.uleb128 0xb
 2527 0197 49       		.uleb128 0x49
 2528 0198 13       		.uleb128 0x13
 2529 0199 02       		.uleb128 0x2
 2530 019a 17       		.uleb128 0x17
 2531 019b 00       		.byte	0
 2532 019c 00       		.byte	0
 2533 019d 21       		.uleb128 0x21
 2534 019e 898201   		.uleb128 0x4109
 2535 01a1 01       		.byte	0x1
 2536 01a2 11       		.uleb128 0x11
 2537 01a3 01       		.uleb128 0x1
 2538 01a4 31       		.uleb128 0x31
 2539 01a5 13       		.uleb128 0x13
 2540 01a6 00       		.byte	0
 2541 01a7 00       		.byte	0
 2542 01a8 22       		.uleb128 0x22
 2543 01a9 8A8201   		.uleb128 0x410a
 2544 01ac 00       		.byte	0
 2545 01ad 02       		.uleb128 0x2
 2546 01ae 18       		.uleb128 0x18
 2547 01af 9142     		.uleb128 0x2111
 2548 01b1 18       		.uleb128 0x18
 2549 01b2 00       		.byte	0
 2550 01b3 00       		.byte	0
 2551 01b4 23       		.uleb128 0x23
 2552 01b5 05       		.uleb128 0x5
 2553 01b6 00       		.byte	0
 2554 01b7 03       		.uleb128 0x3
 2555 01b8 0E       		.uleb128 0xe
 2556 01b9 3A       		.uleb128 0x3a
 2557 01ba 0B       		.uleb128 0xb
 2558 01bb 3B       		.uleb128 0x3b
 2559 01bc 0B       		.uleb128 0xb
ARM GAS  C:\Users\jo\AppData\Local\Temp\ccVc71DF.s 			page 46


 2560 01bd 49       		.uleb128 0x49
 2561 01be 13       		.uleb128 0x13
 2562 01bf 02       		.uleb128 0x2
 2563 01c0 17       		.uleb128 0x17
 2564 01c1 00       		.byte	0
 2565 01c2 00       		.byte	0
 2566 01c3 24       		.uleb128 0x24
 2567 01c4 0B       		.uleb128 0xb
 2568 01c5 01       		.byte	0x1
 2569 01c6 55       		.uleb128 0x55
 2570 01c7 17       		.uleb128 0x17
 2571 01c8 01       		.uleb128 0x1
 2572 01c9 13       		.uleb128 0x13
 2573 01ca 00       		.byte	0
 2574 01cb 00       		.byte	0
 2575 01cc 25       		.uleb128 0x25
 2576 01cd 898201   		.uleb128 0x4109
 2577 01d0 01       		.byte	0x1
 2578 01d1 11       		.uleb128 0x11
 2579 01d2 01       		.uleb128 0x1
 2580 01d3 31       		.uleb128 0x31
 2581 01d4 13       		.uleb128 0x13
 2582 01d5 01       		.uleb128 0x1
 2583 01d6 13       		.uleb128 0x13
 2584 01d7 00       		.byte	0
 2585 01d8 00       		.byte	0
 2586 01d9 26       		.uleb128 0x26
 2587 01da 898201   		.uleb128 0x4109
 2588 01dd 00       		.byte	0
 2589 01de 11       		.uleb128 0x11
 2590 01df 01       		.uleb128 0x1
 2591 01e0 31       		.uleb128 0x31
 2592 01e1 13       		.uleb128 0x13
 2593 01e2 00       		.byte	0
 2594 01e3 00       		.byte	0
 2595 01e4 27       		.uleb128 0x27
 2596 01e5 898201   		.uleb128 0x4109
 2597 01e8 01       		.byte	0x1
 2598 01e9 11       		.uleb128 0x11
 2599 01ea 01       		.uleb128 0x1
 2600 01eb 01       		.uleb128 0x1
 2601 01ec 13       		.uleb128 0x13
 2602 01ed 00       		.byte	0
 2603 01ee 00       		.byte	0
 2604 01ef 28       		.uleb128 0x28
 2605 01f0 34       		.uleb128 0x34
 2606 01f1 00       		.byte	0
 2607 01f2 03       		.uleb128 0x3
 2608 01f3 0E       		.uleb128 0xe
 2609 01f4 3A       		.uleb128 0x3a
 2610 01f5 0B       		.uleb128 0xb
 2611 01f6 3B       		.uleb128 0x3b
 2612 01f7 0B       		.uleb128 0xb
 2613 01f8 49       		.uleb128 0x49
 2614 01f9 13       		.uleb128 0x13
 2615 01fa 02       		.uleb128 0x2
 2616 01fb 18       		.uleb128 0x18
ARM GAS  C:\Users\jo\AppData\Local\Temp\ccVc71DF.s 			page 47


 2617 01fc 00       		.byte	0
 2618 01fd 00       		.byte	0
 2619 01fe 29       		.uleb128 0x29
 2620 01ff 34       		.uleb128 0x34
 2621 0200 00       		.byte	0
 2622 0201 03       		.uleb128 0x3
 2623 0202 0E       		.uleb128 0xe
 2624 0203 3A       		.uleb128 0x3a
 2625 0204 0B       		.uleb128 0xb
 2626 0205 3B       		.uleb128 0x3b
 2627 0206 05       		.uleb128 0x5
 2628 0207 49       		.uleb128 0x49
 2629 0208 13       		.uleb128 0x13
 2630 0209 3F       		.uleb128 0x3f
 2631 020a 19       		.uleb128 0x19
 2632 020b 3C       		.uleb128 0x3c
 2633 020c 19       		.uleb128 0x19
 2634 020d 00       		.byte	0
 2635 020e 00       		.byte	0
 2636 020f 2A       		.uleb128 0x2a
 2637 0210 34       		.uleb128 0x34
 2638 0211 00       		.byte	0
 2639 0212 03       		.uleb128 0x3
 2640 0213 08       		.uleb128 0x8
 2641 0214 3A       		.uleb128 0x3a
 2642 0215 0B       		.uleb128 0xb
 2643 0216 3B       		.uleb128 0x3b
 2644 0217 05       		.uleb128 0x5
 2645 0218 49       		.uleb128 0x49
 2646 0219 13       		.uleb128 0x13
 2647 021a 3F       		.uleb128 0x3f
 2648 021b 19       		.uleb128 0x19
 2649 021c 3C       		.uleb128 0x3c
 2650 021d 19       		.uleb128 0x19
 2651 021e 00       		.byte	0
 2652 021f 00       		.byte	0
 2653 0220 2B       		.uleb128 0x2b
 2654 0221 34       		.uleb128 0x34
 2655 0222 00       		.byte	0
 2656 0223 03       		.uleb128 0x3
 2657 0224 0E       		.uleb128 0xe
 2658 0225 3A       		.uleb128 0x3a
 2659 0226 0B       		.uleb128 0xb
 2660 0227 3B       		.uleb128 0x3b
 2661 0228 0B       		.uleb128 0xb
 2662 0229 49       		.uleb128 0x49
 2663 022a 13       		.uleb128 0x13
 2664 022b 3F       		.uleb128 0x3f
 2665 022c 19       		.uleb128 0x19
 2666 022d 3C       		.uleb128 0x3c
 2667 022e 19       		.uleb128 0x19
 2668 022f 00       		.byte	0
 2669 0230 00       		.byte	0
 2670 0231 2C       		.uleb128 0x2c
 2671 0232 2E       		.uleb128 0x2e
 2672 0233 01       		.byte	0x1
 2673 0234 3F       		.uleb128 0x3f
ARM GAS  C:\Users\jo\AppData\Local\Temp\ccVc71DF.s 			page 48


 2674 0235 19       		.uleb128 0x19
 2675 0236 03       		.uleb128 0x3
 2676 0237 0E       		.uleb128 0xe
 2677 0238 3A       		.uleb128 0x3a
 2678 0239 0B       		.uleb128 0xb
 2679 023a 3B       		.uleb128 0x3b
 2680 023b 0B       		.uleb128 0xb
 2681 023c 27       		.uleb128 0x27
 2682 023d 19       		.uleb128 0x19
 2683 023e 49       		.uleb128 0x49
 2684 023f 13       		.uleb128 0x13
 2685 0240 3C       		.uleb128 0x3c
 2686 0241 19       		.uleb128 0x19
 2687 0242 01       		.uleb128 0x1
 2688 0243 13       		.uleb128 0x13
 2689 0244 00       		.byte	0
 2690 0245 00       		.byte	0
 2691 0246 2D       		.uleb128 0x2d
 2692 0247 2E       		.uleb128 0x2e
 2693 0248 01       		.byte	0x1
 2694 0249 3F       		.uleb128 0x3f
 2695 024a 19       		.uleb128 0x19
 2696 024b 03       		.uleb128 0x3
 2697 024c 0E       		.uleb128 0xe
 2698 024d 3A       		.uleb128 0x3a
 2699 024e 0B       		.uleb128 0xb
 2700 024f 3B       		.uleb128 0x3b
 2701 0250 0B       		.uleb128 0xb
 2702 0251 27       		.uleb128 0x27
 2703 0252 19       		.uleb128 0x19
 2704 0253 3C       		.uleb128 0x3c
 2705 0254 19       		.uleb128 0x19
 2706 0255 01       		.uleb128 0x1
 2707 0256 13       		.uleb128 0x13
 2708 0257 00       		.byte	0
 2709 0258 00       		.byte	0
 2710 0259 2E       		.uleb128 0x2e
 2711 025a 2E       		.uleb128 0x2e
 2712 025b 01       		.byte	0x1
 2713 025c 3F       		.uleb128 0x3f
 2714 025d 19       		.uleb128 0x19
 2715 025e 03       		.uleb128 0x3
 2716 025f 0E       		.uleb128 0xe
 2717 0260 3A       		.uleb128 0x3a
 2718 0261 0B       		.uleb128 0xb
 2719 0262 3B       		.uleb128 0x3b
 2720 0263 0B       		.uleb128 0xb
 2721 0264 27       		.uleb128 0x27
 2722 0265 19       		.uleb128 0x19
 2723 0266 49       		.uleb128 0x49
 2724 0267 13       		.uleb128 0x13
 2725 0268 3C       		.uleb128 0x3c
 2726 0269 19       		.uleb128 0x19
 2727 026a 00       		.byte	0
 2728 026b 00       		.byte	0
 2729 026c 00       		.byte	0
 2730              		.section	.debug_loc,"",%progbits
ARM GAS  C:\Users\jo\AppData\Local\Temp\ccVc71DF.s 			page 49


 2731              	.Ldebug_loc0:
 2732              	.LLST0:
 2733 0000 00000000 		.4byte	.LVL0
 2734 0004 0C000000 		.4byte	.LVL2
 2735 0008 0100     		.2byte	0x1
 2736 000a 50       		.byte	0x50
 2737 000b 0C000000 		.4byte	.LVL2
 2738 000f 24000000 		.4byte	.LVL7
 2739 0013 0100     		.2byte	0x1
 2740 0015 55       		.byte	0x55
 2741 0016 24000000 		.4byte	.LVL7
 2742 001a 28000000 		.4byte	.LFE260
 2743 001e 0400     		.2byte	0x4
 2744 0020 F3       		.byte	0xf3
 2745 0021 01       		.uleb128 0x1
 2746 0022 50       		.byte	0x50
 2747 0023 9F       		.byte	0x9f
 2748 0024 00000000 		.4byte	0
 2749 0028 00000000 		.4byte	0
 2750              	.LLST1:
 2751 002c 06000000 		.4byte	.LVL1
 2752 0030 24000000 		.4byte	.LVL7
 2753 0034 0100     		.2byte	0x1
 2754 0036 54       		.byte	0x54
 2755 0037 24000000 		.4byte	.LVL7
 2756 003b 28000000 		.4byte	.LFE260
 2757 003f 0100     		.2byte	0x1
 2758 0041 50       		.byte	0x50
 2759 0042 00000000 		.4byte	0
 2760 0046 00000000 		.4byte	0
 2761              	.LLST2:
 2762 004a 0C000000 		.4byte	.LVL2
 2763 004e 10000000 		.4byte	.LVL4
 2764 0052 0100     		.2byte	0x1
 2765 0054 50       		.byte	0x50
 2766 0055 18000000 		.4byte	.LVL5
 2767 0059 20000000 		.4byte	.LVL6
 2768 005d 0100     		.2byte	0x1
 2769 005f 50       		.byte	0x50
 2770 0060 00000000 		.4byte	0
 2771 0064 00000000 		.4byte	0
 2772              	.LLST3:
 2773 0068 00000000 		.4byte	.LVL8
 2774 006c 16000000 		.4byte	.LVL10
 2775 0070 0100     		.2byte	0x1
 2776 0072 50       		.byte	0x50
 2777 0073 16000000 		.4byte	.LVL10
 2778 0077 94000000 		.4byte	.LVL21
 2779 007b 0100     		.2byte	0x1
 2780 007d 56       		.byte	0x56
 2781 007e 94000000 		.4byte	.LVL21
 2782 0082 AA000000 		.4byte	.LVL25
 2783 0086 0400     		.2byte	0x4
 2784 0088 F3       		.byte	0xf3
 2785 0089 01       		.uleb128 0x1
 2786 008a 50       		.byte	0x50
 2787 008b 9F       		.byte	0x9f
ARM GAS  C:\Users\jo\AppData\Local\Temp\ccVc71DF.s 			page 50


 2788 008c AA000000 		.4byte	.LVL25
 2789 0090 EE000000 		.4byte	.LVL32
 2790 0094 0100     		.2byte	0x1
 2791 0096 56       		.byte	0x56
 2792 0097 EE000000 		.4byte	.LVL32
 2793 009b F4000000 		.4byte	.LFE261
 2794 009f 0400     		.2byte	0x4
 2795 00a1 F3       		.byte	0xf3
 2796 00a2 01       		.uleb128 0x1
 2797 00a3 50       		.byte	0x50
 2798 00a4 9F       		.byte	0x9f
 2799 00a5 00000000 		.4byte	0
 2800 00a9 00000000 		.4byte	0
 2801              	.LLST4:
 2802 00ad 00000000 		.4byte	.LVL8
 2803 00b1 16000000 		.4byte	.LVL10
 2804 00b5 0100     		.2byte	0x1
 2805 00b7 51       		.byte	0x51
 2806 00b8 16000000 		.4byte	.LVL10
 2807 00bc EE000000 		.4byte	.LVL32
 2808 00c0 0100     		.2byte	0x1
 2809 00c2 58       		.byte	0x58
 2810 00c3 EE000000 		.4byte	.LVL32
 2811 00c7 F4000000 		.4byte	.LFE261
 2812 00cb 0400     		.2byte	0x4
 2813 00cd F3       		.byte	0xf3
 2814 00ce 01       		.uleb128 0x1
 2815 00cf 51       		.byte	0x51
 2816 00d0 9F       		.byte	0x9f
 2817 00d1 00000000 		.4byte	0
 2818 00d5 00000000 		.4byte	0
 2819              	.LLST5:
 2820 00d9 00000000 		.4byte	.LVL8
 2821 00dd DC000000 		.4byte	.LVL29
 2822 00e1 0300     		.2byte	0x3
 2823 00e3 09       		.byte	0x9
 2824 00e4 FF       		.byte	0xff
 2825 00e5 9F       		.byte	0x9f
 2826 00e6 DC000000 		.4byte	.LVL29
 2827 00ea E0000000 		.4byte	.LVL30
 2828 00ee 0100     		.2byte	0x1
 2829 00f0 50       		.byte	0x50
 2830 00f1 E0000000 		.4byte	.LVL30
 2831 00f5 F4000000 		.4byte	.LFE261
 2832 00f9 0300     		.2byte	0x3
 2833 00fb 09       		.byte	0x9
 2834 00fc FF       		.byte	0xff
 2835 00fd 9F       		.byte	0x9f
 2836 00fe 00000000 		.4byte	0
 2837 0102 00000000 		.4byte	0
 2838              	.LLST6:
 2839 0106 00000000 		.4byte	.LVL8
 2840 010a 0C000000 		.4byte	.LVL9
 2841 010e 0200     		.2byte	0x2
 2842 0110 30       		.byte	0x30
 2843 0111 9F       		.byte	0x9f
 2844 0112 0C000000 		.4byte	.LVL9
ARM GAS  C:\Users\jo\AppData\Local\Temp\ccVc71DF.s 			page 51


 2845 0116 16000000 		.4byte	.LVL10
 2846 011a 0100     		.2byte	0x1
 2847 011c 57       		.byte	0x57
 2848 011d 16000000 		.4byte	.LVL10
 2849 0121 EE000000 		.4byte	.LVL32
 2850 0125 0100     		.2byte	0x1
 2851 0127 54       		.byte	0x54
 2852 0128 00000000 		.4byte	0
 2853 012c 00000000 		.4byte	0
 2854              	.LLST7:
 2855 0130 00000000 		.4byte	.LVL8
 2856 0134 16000000 		.4byte	.LVL10
 2857 0138 0300     		.2byte	0x3
 2858 013a 09       		.byte	0x9
 2859 013b FF       		.byte	0xff
 2860 013c 9F       		.byte	0x9f
 2861 013d 16000000 		.4byte	.LVL10
 2862 0141 1A000000 		.4byte	.LVL12
 2863 0145 0100     		.2byte	0x1
 2864 0147 50       		.byte	0x50
 2865 0148 1A000000 		.4byte	.LVL12
 2866 014c 24000000 		.4byte	.LVL13
 2867 0150 0300     		.2byte	0x3
 2868 0152 09       		.byte	0x9
 2869 0153 FF       		.byte	0xff
 2870 0154 9F       		.byte	0x9f
 2871 0155 24000000 		.4byte	.LVL13
 2872 0159 38000000 		.4byte	.LVL14
 2873 015d 0100     		.2byte	0x1
 2874 015f 50       		.byte	0x50
 2875 0160 82000000 		.4byte	.LVL20
 2876 0164 96000000 		.4byte	.LVL22
 2877 0168 0100     		.2byte	0x1
 2878 016a 50       		.byte	0x50
 2879 016b C8000000 		.4byte	.LVL26
 2880 016f D4000000 		.4byte	.LVL27
 2881 0173 0100     		.2byte	0x1
 2882 0175 50       		.byte	0x50
 2883 0176 00000000 		.4byte	0
 2884 017a 00000000 		.4byte	0
 2885              	.LLST8:
 2886 017e 44000000 		.4byte	.LVL16
 2887 0182 4C000000 		.4byte	.LVL17
 2888 0186 0100     		.2byte	0x1
 2889 0188 50       		.byte	0x50
 2890 0189 4C000000 		.4byte	.LVL17
 2891 018d 82000000 		.4byte	.LVL20
 2892 0191 0100     		.2byte	0x1
 2893 0193 55       		.byte	0x55
 2894 0194 AA000000 		.4byte	.LVL25
 2895 0198 C8000000 		.4byte	.LVL26
 2896 019c 0100     		.2byte	0x1
 2897 019e 55       		.byte	0x55
 2898 019f D4000000 		.4byte	.LVL27
 2899 01a3 D8000000 		.4byte	.LVL28
 2900 01a7 0100     		.2byte	0x1
 2901 01a9 55       		.byte	0x55
ARM GAS  C:\Users\jo\AppData\Local\Temp\ccVc71DF.s 			page 52


 2902 01aa D8000000 		.4byte	.LVL28
 2903 01ae DC000000 		.4byte	.LVL29
 2904 01b2 0100     		.2byte	0x1
 2905 01b4 50       		.byte	0x50
 2906 01b5 DC000000 		.4byte	.LVL29
 2907 01b9 EE000000 		.4byte	.LVL32
 2908 01bd 0100     		.2byte	0x1
 2909 01bf 55       		.byte	0x55
 2910 01c0 00000000 		.4byte	0
 2911 01c4 00000000 		.4byte	0
 2912              	.LLST9:
 2913 01c8 00000000 		.4byte	.LVL33
 2914 01cc 0E000000 		.4byte	.LVL34
 2915 01d0 0100     		.2byte	0x1
 2916 01d2 50       		.byte	0x50
 2917 01d3 0E000000 		.4byte	.LVL34
 2918 01d7 3A000000 		.4byte	.LVL41
 2919 01db 0100     		.2byte	0x1
 2920 01dd 57       		.byte	0x57
 2921 01de 3A000000 		.4byte	.LVL41
 2922 01e2 3C000000 		.4byte	.LVL42
 2923 01e6 0100     		.2byte	0x1
 2924 01e8 50       		.byte	0x50
 2925 01e9 3C000000 		.4byte	.LVL42
 2926 01ed 58000000 		.4byte	.LFE262
 2927 01f1 0100     		.2byte	0x1
 2928 01f3 57       		.byte	0x57
 2929 01f4 00000000 		.4byte	0
 2930 01f8 00000000 		.4byte	0
 2931              	.LLST10:
 2932 01fc 00000000 		.4byte	.LVL33
 2933 0200 11000000 		.4byte	.LVL35-1
 2934 0204 0100     		.2byte	0x1
 2935 0206 51       		.byte	0x51
 2936 0207 11000000 		.4byte	.LVL35-1
 2937 020b 3A000000 		.4byte	.LVL41
 2938 020f 0400     		.2byte	0x4
 2939 0211 F3       		.byte	0xf3
 2940 0212 01       		.uleb128 0x1
 2941 0213 51       		.byte	0x51
 2942 0214 9F       		.byte	0x9f
 2943 0215 3A000000 		.4byte	.LVL41
 2944 0219 3E000000 		.4byte	.LVL43
 2945 021d 0100     		.2byte	0x1
 2946 021f 51       		.byte	0x51
 2947 0220 3E000000 		.4byte	.LVL43
 2948 0224 58000000 		.4byte	.LFE262
 2949 0228 0400     		.2byte	0x4
 2950 022a F3       		.byte	0xf3
 2951 022b 01       		.uleb128 0x1
 2952 022c 51       		.byte	0x51
 2953 022d 9F       		.byte	0x9f
 2954 022e 00000000 		.4byte	0
 2955 0232 00000000 		.4byte	0
 2956              	.LLST11:
 2957 0236 00000000 		.4byte	.LVL33
 2958 023a 11000000 		.4byte	.LVL35-1
ARM GAS  C:\Users\jo\AppData\Local\Temp\ccVc71DF.s 			page 53


 2959 023e 0100     		.2byte	0x1
 2960 0240 52       		.byte	0x52
 2961 0241 11000000 		.4byte	.LVL35-1
 2962 0245 3A000000 		.4byte	.LVL41
 2963 0249 0100     		.2byte	0x1
 2964 024b 54       		.byte	0x54
 2965 024c 3A000000 		.4byte	.LVL41
 2966 0250 40000000 		.4byte	.LVL44
 2967 0254 0100     		.2byte	0x1
 2968 0256 52       		.byte	0x52
 2969 0257 40000000 		.4byte	.LVL44
 2970 025b 58000000 		.4byte	.LFE262
 2971 025f 0100     		.2byte	0x1
 2972 0261 54       		.byte	0x54
 2973 0262 00000000 		.4byte	0
 2974 0266 00000000 		.4byte	0
 2975              	.LLST12:
 2976 026a 2E000000 		.4byte	.LVL38
 2977 026e 34000000 		.4byte	.LVL39
 2978 0272 0100     		.2byte	0x1
 2979 0274 50       		.byte	0x50
 2980 0275 00000000 		.4byte	0
 2981 0279 00000000 		.4byte	0
 2982              	.LLST13:
 2983 027d 2A000000 		.4byte	.LVL37
 2984 0281 2D000000 		.4byte	.LVL38-1
 2985 0285 0100     		.2byte	0x1
 2986 0287 50       		.byte	0x50
 2987 0288 4C000000 		.4byte	.LVL46
 2988 028c 58000000 		.4byte	.LFE262
 2989 0290 0100     		.2byte	0x1
 2990 0292 50       		.byte	0x50
 2991 0293 00000000 		.4byte	0
 2992 0297 00000000 		.4byte	0
 2993              		.section	.debug_aranges,"",%progbits
 2994 0000 2C000000 		.4byte	0x2c
 2995 0004 0200     		.2byte	0x2
 2996 0006 00000000 		.4byte	.Ldebug_info0
 2997 000a 04       		.byte	0x4
 2998 000b 00       		.byte	0
 2999 000c 0000     		.2byte	0
 3000 000e 0000     		.2byte	0
 3001 0010 00000000 		.4byte	.LFB260
 3002 0014 28000000 		.4byte	.LFE260-.LFB260
 3003 0018 00000000 		.4byte	.LFB261
 3004 001c F4000000 		.4byte	.LFE261-.LFB261
 3005 0020 00000000 		.4byte	.LFB262
 3006 0024 58000000 		.4byte	.LFE262-.LFB262
 3007 0028 00000000 		.4byte	0
 3008 002c 00000000 		.4byte	0
 3009              		.section	.debug_ranges,"",%progbits
 3010              	.Ldebug_ranges0:
 3011 0000 3C000000 		.4byte	.LBB2
 3012 0004 82000000 		.4byte	.LBE2
 3013 0008 AA000000 		.4byte	.LBB3
 3014 000c C8000000 		.4byte	.LBE3
 3015 0010 D4000000 		.4byte	.LBB4
ARM GAS  C:\Users\jo\AppData\Local\Temp\ccVc71DF.s 			page 54


 3016 0014 D8000000 		.4byte	.LBE4
 3017 0018 E0000000 		.4byte	.LBB5
 3018 001c E6000000 		.4byte	.LBE5
 3019 0020 00000000 		.4byte	0
 3020 0024 00000000 		.4byte	0
 3021 0028 00000000 		.4byte	.LFB260
 3022 002c 28000000 		.4byte	.LFE260
 3023 0030 00000000 		.4byte	.LFB261
 3024 0034 F4000000 		.4byte	.LFE261
 3025 0038 00000000 		.4byte	.LFB262
 3026 003c 58000000 		.4byte	.LFE262
 3027 0040 00000000 		.4byte	0
 3028 0044 00000000 		.4byte	0
 3029              		.section	.debug_line,"",%progbits
 3030              	.Ldebug_line0:
 3031 0000 B7040000 		.section	.debug_str,"MS",%progbits,1
 3031      0200B603 
 3031      00000201 
 3031      FB0E0D00 
 3031      01010101 
 3032              	.LASF168:
 3033 0000 6D656469 		.ascii	"media_flags\000"
 3033      615F666C 
 3033      61677300 
 3034              	.LASF96:
 3035 000c 74625F70 		.ascii	"tb_ptr\000"
 3035      747200
 3036              	.LASF54:
 3037 0013 72656164 		.ascii	"ready_list_t\000"
 3037      795F6C69 
 3037      73745F74 
 3037      00
 3038              	.LASF90:
 3039 0020 73655F74 		.ascii	"se_time\000"
 3039      696D6500 
 3040              	.LASF2:
 3041 0028 73697A65 		.ascii	"size_t\000"
 3041      5F7400
 3042              	.LASF142:
 3043 002f 7265715F 		.ascii	"req_version\000"
 3043      76657273 
 3043      696F6E00 
 3044              	.LASF154:
 3045 003b 7265715F 		.ascii	"req_referer\000"
 3045      72656665 
 3045      72657200 
 3046              	.LASF101:
 3047 0047 7264796D 		.ascii	"rdymsg\000"
 3047      736700
 3048              	.LASF143:
 3049 004e 7265715F 		.ascii	"req_query\000"
 3049      71756572 
 3049      7900
 3050              	.LASF3:
 3051 0058 5F5F7569 		.ascii	"__uint8_t\000"
 3051      6E74385F 
 3051      7400
ARM GAS  C:\Users\jo\AppData\Local\Temp\ccVc71DF.s 			page 55


 3052              	.LASF172:
 3053 0062 70726576 		.ascii	"prev\000"
 3053      00
 3054              	.LASF89:
 3055 0067 706F7274 		.ascii	"port_intctx\000"
 3055      5F696E74 
 3055      63747800 
 3056              	.LASF73:
 3057 0073 73797374 		.ascii	"system_debug_t\000"
 3057      656D5F64 
 3057      65627567 
 3057      5F7400
 3058              	.LASF174:
 3059 0082 48545450 		.ascii	"HTTP_CGI_FUNCTION\000"
 3059      5F434749 
 3059      5F46554E 
 3059      4354494F 
 3059      4E00
 3060              	.LASF151:
 3061 0094 7265715F 		.ascii	"req_cookie\000"
 3061      636F6F6B 
 3061      696500
 3062              	.LASF14:
 3063 009f 6C6F6E67 		.ascii	"long long unsigned int\000"
 3063      206C6F6E 
 3063      6720756E 
 3063      7369676E 
 3063      65642069 
 3064              	.LASF98:
 3065 00b6 63685F74 		.ascii	"ch_trace_buffer_t\000"
 3065      72616365 
 3065      5F627566 
 3065      6665725F 
 3065      7400
 3066              	.LASF93:
 3067 00c8 73655F73 		.ascii	"se_state\000"
 3067      74617465 
 3067      00
 3068              	.LASF102:
 3069 00d1 65786974 		.ascii	"exitcode\000"
 3069      636F6465 
 3069      00
 3070              	.LASF83:
 3071 00da 6D61696E 		.ascii	"mainthread\000"
 3071      74687265 
 3071      616400
 3072              	.LASF70:
 3073 00e5 76697274 		.ascii	"virtual_timers_list_t\000"
 3073      75616C5F 
 3073      74696D65 
 3073      72735F6C 
 3073      6973745F 
 3074              	.LASF188:
 3075 00fb 49544D5F 		.ascii	"ITM_RxBuffer\000"
 3075      52784275 
 3075      66666572 
 3075      00
ARM GAS  C:\Users\jo\AppData\Local\Temp\ccVc71DF.s 			page 56


 3076              	.LASF179:
 3077 0108 48545450 		.ascii	"HTTP_CGI_HANDLER\000"
 3077      5F434749 
 3077      5F48414E 
 3077      444C4552 
 3077      00
 3078              	.LASF194:
 3079 0119 66726565 		.ascii	"free\000"
 3079      00
 3080              	.LASF53:
 3081 011e 63685F74 		.ascii	"ch_threads_queue\000"
 3081      68726561 
 3081      64735F71 
 3081      75657565 
 3081      00
 3082              	.LASF32:
 3083 012f 705F7072 		.ascii	"p_prio\000"
 3083      696F00
 3084              	.LASF198:
 3085 0136 433A5C55 		.ascii	"C:\\Users\\jo\\Documents\\GitHub\\ChibiOS\\demos\\S"
 3085      73657273 
 3085      5C6A6F5C 
 3085      446F6375 
 3085      6D656E74 
 3086 0162 544D3332 		.ascii	"TM32\\RT-STM32F407-DISCOVERY-uHttp\000"
 3086      5C52542D 
 3086      53544D33 
 3086      32463430 
 3086      372D4449 
 3087              	.LASF158:
 3088 0184 7265715F 		.ascii	"req_bnd_type\000"
 3088      626E645F 
 3088      74797065 
 3088      00
 3089              	.LASF12:
 3090 0191 6C6F6E67 		.ascii	"long long int\000"
 3090      206C6F6E 
 3090      6720696E 
 3090      7400
 3091              	.LASF1:
 3092 019f 7369676E 		.ascii	"signed char\000"
 3092      65642063 
 3092      68617200 
 3093              	.LASF118:
 3094 01ab 75385F74 		.ascii	"u8_t\000"
 3094      00
 3095              	.LASF145:
 3096 01b0 7265715F 		.ascii	"req_argn\000"
 3096      6172676E 
 3096      00
 3097              	.LASF47:
 3098 01b9 705F6D70 		.ascii	"p_mpool\000"
 3098      6F6F6C00 
 3099              	.LASF144:
 3100 01c1 7265715F 		.ascii	"req_argp\000"
 3100      61726770 
 3100      00
ARM GAS  C:\Users\jo\AppData\Local\Temp\ccVc71DF.s 			page 57


 3101              	.LASF112:
 3102 01ca 6D5F7175 		.ascii	"m_queue\000"
 3102      65756500 
 3103              	.LASF147:
 3104 01d2 7265715F 		.ascii	"req_connection\000"
 3104      636F6E6E 
 3104      65637469 
 3104      6F6E00
 3105              	.LASF146:
 3106 01e1 7265715F 		.ascii	"req_argv\000"
 3106      61726776 
 3106      00
 3107              	.LASF104:
 3108 01ea 77747472 		.ascii	"wttrp\000"
 3108      7000
 3109              	.LASF153:
 3110 01f0 7265715F 		.ascii	"req_agent\000"
 3110      6167656E 
 3110      7400
 3111              	.LASF9:
 3112 01fa 6C6F6E67 		.ascii	"long int\000"
 3112      20696E74 
 3112      00
 3113              	.LASF159:
 3114 0203 48545450 		.ascii	"HTTPD_SESSION\000"
 3114      445F5345 
 3114      5353494F 
 3114      4E00
 3115              	.LASF22:
 3116 0211 74737461 		.ascii	"tstate_t\000"
 3116      74655F74 
 3116      00
 3117              	.LASF165:
 3118 021a 6D656469 		.ascii	"media_link\000"
 3118      615F6C69 
 3118      6E6B00
 3119              	.LASF141:
 3120 0225 7265715F 		.ascii	"req_url\000"
 3120      75726C00 
 3121              	.LASF91:
 3122 022d 73655F74 		.ascii	"se_tp\000"
 3122      7000
 3123              	.LASF186:
 3124 0233 66696C65 		.ascii	"filepath\000"
 3124      70617468 
 3124      00
 3125              	.LASF16:
 3126 023c 75696E74 		.ascii	"uint16_t\000"
 3126      31365F74 
 3126      00
 3127              	.LASF192:
 3128 0245 73747264 		.ascii	"strdup\000"
 3128      757000
 3129              	.LASF34:
 3130 024c 705F6E65 		.ascii	"p_newer\000"
 3130      77657200 
 3131              	.LASF109:
ARM GAS  C:\Users\jo\AppData\Local\Temp\ccVc71DF.s 			page 58


 3132 0254 735F7175 		.ascii	"s_queue\000"
 3132      65756500 
 3133              	.LASF7:
 3134 025c 73686F72 		.ascii	"short unsigned int\000"
 3134      7420756E 
 3134      7369676E 
 3134      65642069 
 3134      6E7400
 3135              	.LASF95:
 3136 026f 74625F73 		.ascii	"tb_size\000"
 3136      697A6500 
 3137              	.LASF59:
 3138 0277 725F6E65 		.ascii	"r_newer\000"
 3138      77657200 
 3139              	.LASF86:
 3140 027f 72656761 		.ascii	"regarm_t\000"
 3140      726D5F74 
 3140      00
 3141              	.LASF66:
 3142 0288 76745F70 		.ascii	"vt_prev\000"
 3142      72657600 
 3143              	.LASF82:
 3144 0290 76746C69 		.ascii	"vtlist\000"
 3144      737400
 3145              	.LASF128:
 3146 0297 73696E5F 		.ascii	"sin_zero\000"
 3146      7A65726F 
 3146      00
 3147              	.LASF189:
 3148 02a0 68747470 		.ascii	"http_root_path\000"
 3148      5F726F6F 
 3148      745F7061 
 3148      746800
 3149              	.LASF116:
 3150 02af 6D757465 		.ascii	"mutex_t\000"
 3150      785F7400 
 3151              	.LASF77:
 3152 02b7 6C6F636B 		.ascii	"lock_cnt\000"
 3152      5F636E74 
 3152      00
 3153              	.LASF152:
 3154 02c0 7265715F 		.ascii	"req_auth\000"
 3154      61757468 
 3154      00
 3155              	.LASF27:
 3156 02c9 636E745F 		.ascii	"cnt_t\000"
 3156      7400
 3157              	.LASF134:
 3158 02cf 7374726D 		.ascii	"strm_csock\000"
 3158      5F63736F 
 3158      636B00
 3159              	.LASF0:
 3160 02da 756E7369 		.ascii	"unsigned int\000"
 3160      676E6564 
 3160      20696E74 
 3160      00
 3161              	.LASF122:
ARM GAS  C:\Users\jo\AppData\Local\Temp\ccVc71DF.s 			page 59


 3162 02e7 735F6164 		.ascii	"s_addr\000"
 3162      647200
 3163              	.LASF65:
 3164 02ee 76745F6E 		.ascii	"vt_next\000"
 3164      65787400 
 3165              	.LASF193:
 3166 02f6 7374726C 		.ascii	"strlen\000"
 3166      656E00
 3167              	.LASF105:
 3168 02fd 77747365 		.ascii	"wtsemp\000"
 3168      6D7000
 3169              	.LASF149:
 3170 0304 7265715F 		.ascii	"req_realm\000"
 3170      7265616C 
 3170      6D00
 3171              	.LASF42:
 3172 030e 705F6D73 		.ascii	"p_msgqueue\000"
 3172      67717565 
 3172      756500
 3173              	.LASF120:
 3174 0319 7533325F 		.ascii	"u32_t\000"
 3174      7400
 3175              	.LASF185:
 3176 031f 48747470 		.ascii	"HttpCgiFunctionHandler\000"
 3176      43676946 
 3176      756E6374 
 3176      696F6E48 
 3176      616E646C 
 3177              	.LASF163:
 3178 0336 4D454449 		.ascii	"MEDIA_TYPE_ENTRY\000"
 3178      415F5459 
 3178      50455F45 
 3178      4E545259 
 3178      00
 3179              	.LASF110:
 3180 0347 735F636E 		.ascii	"s_cnt\000"
 3180      7400
 3181              	.LASF136:
 3182 034d 7374726D 		.ascii	"strm_caddr\000"
 3182      5F636164 
 3182      647200
 3183              	.LASF171:
 3184 0358 4D454449 		.ascii	"MEDIATYPE_HANDLER\000"
 3184      41545950 
 3184      455F4841 
 3184      4E444C45 
 3184      5200
 3185              	.LASF127:
 3186 036a 73696E5F 		.ascii	"sin_addr\000"
 3186      61646472 
 3186      00
 3187              	.LASF50:
 3188 0373 63685F74 		.ascii	"ch_thread\000"
 3188      68726561 
 3188      6400
 3189              	.LASF148:
 3190 037d 7265715F 		.ascii	"req_length\000"
ARM GAS  C:\Users\jo\AppData\Local\Temp\ccVc71DF.s 			page 60


 3190      6C656E67 
 3190      746800
 3191              	.LASF177:
 3192 0388 6367695F 		.ascii	"cgi_uri\000"
 3192      75726900 
 3193              	.LASF79:
 3194 0390 63685F73 		.ascii	"ch_system_t\000"
 3194      79737465 
 3194      6D5F7400 
 3195              	.LASF21:
 3196 039c 746D6F64 		.ascii	"tmode_t\000"
 3196      655F7400 
 3197              	.LASF137:
 3198 03a4 48545450 		.ascii	"HTTP_STREAM\000"
 3198      5F535452 
 3198      45414D00 
 3199              	.LASF55:
 3200 03b0 63685F72 		.ascii	"ch_ready_list\000"
 3200      65616479 
 3200      5F6C6973 
 3200      7400
 3201              	.LASF26:
 3202 03be 6576656E 		.ascii	"eventmask_t\000"
 3202      746D6173 
 3202      6B5F7400 
 3203              	.LASF8:
 3204 03ca 5F5F696E 		.ascii	"__int32_t\000"
 3204      7433325F 
 3204      7400
 3205              	.LASF196:
 3206 03d4 474E5520 		.ascii	"GNU C 4.9.3 20141119 (release) [ARM/embedded-4_9-br"
 3206      4320342E 
 3206      392E3320 
 3206      32303134 
 3206      31313139 
 3207 0407 616E6368 		.ascii	"anch revision 218278] -mcpu=cortex-m4 -mno-thumb-in"
 3207      20726576 
 3207      6973696F 
 3207      6E203231 
 3207      38323738 
 3208 043a 74657277 		.ascii	"terwork -mthumb -ggdb -O2 -fomit-frame-pointer -fal"
 3208      6F726B20 
 3208      2D6D7468 
 3208      756D6220 
 3208      2D676764 
 3209 046d 69676E2D 		.ascii	"ign-functions=16 -ffunction-sections -fdata-section"
 3209      66756E63 
 3209      74696F6E 
 3209      733D3136 
 3209      202D6666 
 3210 04a0 73202D66 		.ascii	"s -fno-common\000"
 3210      6E6F2D63 
 3210      6F6D6D6F 
 3210      6E00
 3211              	.LASF87:
 3212 04ae 73746B61 		.ascii	"stkalign_t\000"
 3212      6C69676E 
ARM GAS  C:\Users\jo\AppData\Local\Temp\ccVc71DF.s 			page 61


 3212      5F7400
 3213              	.LASF184:
 3214 04b9 68616E64 		.ascii	"handler\000"
 3214      6C657200 
 3215              	.LASF162:
 3216 04c1 735F7265 		.ascii	"s_req\000"
 3216      7100
 3217              	.LASF125:
 3218 04c7 73696E5F 		.ascii	"sin_family\000"
 3218      66616D69 
 3218      6C7900
 3219              	.LASF41:
 3220 04d2 705F7761 		.ascii	"p_waiting\000"
 3220      6974696E 
 3220      6700
 3221              	.LASF181:
 3222 04dc 7461696C 		.ascii	"tail\000"
 3222      00
 3223              	.LASF85:
 3224 04e1 73697A65 		.ascii	"sizetype\000"
 3224      74797065 
 3224      00
 3225              	.LASF48:
 3226 04ea 74687265 		.ascii	"thread_reference_t\000"
 3226      61645F72 
 3226      65666572 
 3226      656E6365 
 3226      5F7400
 3227              	.LASF176:
 3228 04fd 6367695F 		.ascii	"cgi_link\000"
 3228      6C696E6B 
 3228      00
 3229              	.LASF71:
 3230 0506 63685F76 		.ascii	"ch_virtual_timers_list\000"
 3230      69727475 
 3230      616C5F74 
 3230      696D6572 
 3230      735F6C69 
 3231              	.LASF155:
 3232 051d 7265715F 		.ascii	"req_host\000"
 3232      686F7374 
 3232      00
 3233              	.LASF94:
 3234 0526 63685F73 		.ascii	"ch_swc_event_t\000"
 3234      77635F65 
 3234      76656E74 
 3234      5F7400
 3235              	.LASF72:
 3236 0535 76745F6C 		.ascii	"vt_lasttime\000"
 3236      61737474 
 3236      696D6500 
 3237              	.LASF19:
 3238 0541 75696E74 		.ascii	"uint64_t\000"
 3238      36345F74 
 3238      00
 3239              	.LASF35:
 3240 054a 705F6F6C 		.ascii	"p_older\000"
ARM GAS  C:\Users\jo\AppData\Local\Temp\ccVc71DF.s 			page 62


 3240      64657200 
 3241              	.LASF58:
 3242 0552 725F6374 		.ascii	"r_ctx\000"
 3242      7800
 3243              	.LASF175:
 3244 0558 5F485454 		.ascii	"_HTTP_CGI_FUNCTION\000"
 3244      505F4347 
 3244      495F4655 
 3244      4E435449 
 3244      4F4E00
 3245              	.LASF100:
 3246 056b 746D5F63 		.ascii	"tm_calibration_t\000"
 3246      616C6962 
 3246      72617469 
 3246      6F6E5F74 
 3246      00
 3247              	.LASF124:
 3248 057c 73696E5F 		.ascii	"sin_len\000"
 3248      6C656E00 
 3249              	.LASF37:
 3250 0584 705F7374 		.ascii	"p_stklimit\000"
 3250      6B6C696D 
 3250      697400
 3251              	.LASF61:
 3252 058f 725F6375 		.ascii	"r_current\000"
 3252      7272656E 
 3252      7400
 3253              	.LASF60:
 3254 0599 725F6F6C 		.ascii	"r_older\000"
 3254      64657200 
 3255              	.LASF195:
 3256 05a1 7374726E 		.ascii	"strncasecmp\000"
 3256      63617365 
 3256      636D7000 
 3257              	.LASF13:
 3258 05ad 5F5F7569 		.ascii	"__uint64_t\000"
 3258      6E743634 
 3258      5F7400
 3259              	.LASF178:
 3260 05b8 6367695F 		.ascii	"cgi_handler\000"
 3260      68616E64 
 3260      6C657200 
 3261              	.LASF130:
 3262 05c4 7374726D 		.ascii	"strm_ipos\000"
 3262      5F69706F 
 3262      7300
 3263              	.LASF23:
 3264 05ce 74726566 		.ascii	"trefs_t\000"
 3264      735F7400 
 3265              	.LASF97:
 3266 05d6 74625F62 		.ascii	"tb_buffer\000"
 3266      75666665 
 3266      7200
 3267              	.LASF139:
 3268 05e0 5F485454 		.ascii	"_HTTP_REQUEST\000"
 3268      505F5245 
 3268      51554553 
ARM GAS  C:\Users\jo\AppData\Local\Temp\ccVc71DF.s 			page 63


 3268      5400
 3269              	.LASF63:
 3270 05ee 76697274 		.ascii	"virtual_timer_t\000"
 3270      75616C5F 
 3270      74696D65 
 3270      725F7400 
 3271              	.LASF31:
 3272 05fe 705F7072 		.ascii	"p_prev\000"
 3272      657600
 3273              	.LASF25:
 3274 0605 6D73675F 		.ascii	"msg_t\000"
 3274      7400
 3275              	.LASF24:
 3276 060b 74707269 		.ascii	"tprio_t\000"
 3276      6F5F7400 
 3277              	.LASF133:
 3278 0613 7374726D 		.ascii	"strm_ssock\000"
 3278      5F73736F 
 3278      636B00
 3279              	.LASF74:
 3280 061e 63685F73 		.ascii	"ch_system_debug\000"
 3280      79737465 
 3280      6D5F6465 
 3280      62756700 
 3281              	.LASF117:
 3282 062e 5F426F6F 		.ascii	"_Bool\000"
 3282      6C00
 3283              	.LASF17:
 3284 0634 696E7433 		.ascii	"int32_t\000"
 3284      325F7400 
 3285              	.LASF4:
 3286 063c 756E7369 		.ascii	"unsigned char\000"
 3286      676E6564 
 3286      20636861 
 3286      7200
 3287              	.LASF45:
 3288 064a 705F6D74 		.ascii	"p_mtxlist\000"
 3288      786C6973 
 3288      7400
 3289              	.LASF5:
 3290 0654 73686F72 		.ascii	"short int\000"
 3290      7420696E 
 3290      7400
 3291              	.LASF38:
 3292 065e 705F7374 		.ascii	"p_state\000"
 3292      61746500 
 3293              	.LASF57:
 3294 0666 725F7072 		.ascii	"r_prio\000"
 3294      696F00
 3295              	.LASF107:
 3296 066d 65776D61 		.ascii	"ewmask\000"
 3296      736B00
 3297              	.LASF30:
 3298 0674 705F6E65 		.ascii	"p_next\000"
 3298      787400
 3299              	.LASF39:
 3300 067b 705F666C 		.ascii	"p_flags\000"
ARM GAS  C:\Users\jo\AppData\Local\Temp\ccVc71DF.s 			page 64


 3300      61677300 
 3301              	.LASF166:
 3302 0683 6D656469 		.ascii	"media_type\000"
 3302      615F7479 
 3302      706500
 3303              	.LASF84:
 3304 068e 69646C65 		.ascii	"idle_thread_wa\000"
 3304      5F746872 
 3304      6561645F 
 3304      776100
 3305              	.LASF80:
 3306 069d 63685F73 		.ascii	"ch_system\000"
 3306      79737465 
 3306      6D00
 3307              	.LASF164:
 3308 06a7 5F4D4544 		.ascii	"_MEDIATYPE\000"
 3308      49415459 
 3308      504500
 3309              	.LASF64:
 3310 06b2 63685F76 		.ascii	"ch_virtual_timer\000"
 3310      69727475 
 3310      616C5F74 
 3310      696D6572 
 3310      00
 3311              	.LASF108:
 3312 06c3 63685F73 		.ascii	"ch_semaphore\000"
 3312      656D6170 
 3312      686F7265 
 3312      00
 3313              	.LASF44:
 3314 06d0 705F6570 		.ascii	"p_epending\000"
 3314      656E6469 
 3314      6E6700
 3315              	.LASF180:
 3316 06db 68656164 		.ascii	"head\000"
 3316      00
 3317              	.LASF18:
 3318 06e0 75696E74 		.ascii	"uint32_t\000"
 3318      33325F74 
 3318      00
 3319              	.LASF106:
 3320 06e9 77746D74 		.ascii	"wtmtxp\000"
 3320      787000
 3321              	.LASF56:
 3322 06f0 725F7175 		.ascii	"r_queue\000"
 3322      65756500 
 3323              	.LASF67:
 3324 06f8 76745F64 		.ascii	"vt_delta\000"
 3324      656C7461 
 3324      00
 3325              	.LASF51:
 3326 0701 63685F74 		.ascii	"ch_threads_list\000"
 3326      68726561 
 3326      64735F6C 
 3326      69737400 
 3327              	.LASF135:
 3328 0711 7374726D 		.ascii	"strm_saddr\000"
ARM GAS  C:\Users\jo\AppData\Local\Temp\ccVc71DF.s 			page 65


 3328      5F736164 
 3328      647200
 3329              	.LASF11:
 3330 071c 6C6F6E67 		.ascii	"long unsigned int\000"
 3330      20756E73 
 3330      69676E65 
 3330      6420696E 
 3330      7400
 3331              	.LASF115:
 3332 072e 63686172 		.ascii	"char\000"
 3332      00
 3333              	.LASF190:
 3334 0733 73747263 		.ascii	"strcasecmp\000"
 3334      61736563 
 3334      6D7000
 3335              	.LASF129:
 3336 073e 5F485454 		.ascii	"_HTTP_STREAM\000"
 3336      505F5354 
 3336      5245414D 
 3336      00
 3337              	.LASF182:
 3338 074b 48747470 		.ascii	"HttpCgiFunctionLookup\000"
 3338      43676946 
 3338      756E6374 
 3338      696F6E4C 
 3338      6F6F6B75 
 3339              	.LASF167:
 3340 0761 6D656469 		.ascii	"media_subtype\000"
 3340      615F7375 
 3340      62747970 
 3340      6500
 3341              	.LASF6:
 3342 076f 5F5F7569 		.ascii	"__uint16_t\000"
 3342      6E743136 
 3342      5F7400
 3343              	.LASF29:
 3344 077a 74687265 		.ascii	"thread_t\000"
 3344      61645F74 
 3344      00
 3345              	.LASF183:
 3346 0783 48747470 		.ascii	"HttpRegisterCgiFunction\000"
 3346      52656769 
 3346      73746572 
 3346      43676946 
 3346      756E6374 
 3347              	.LASF169:
 3348 079b 6D656469 		.ascii	"media_handler\000"
 3348      615F6861 
 3348      6E646C65 
 3348      7200
 3349              	.LASF114:
 3350 07a9 6D5F6E65 		.ascii	"m_next\000"
 3350      787400
 3351              	.LASF28:
 3352 07b0 73797374 		.ascii	"systime_t\000"
 3352      696D655F 
 3352      7400
ARM GAS  C:\Users\jo\AppData\Local\Temp\ccVc71DF.s 			page 66


 3353              	.LASF46:
 3354 07ba 705F7265 		.ascii	"p_realprio\000"
 3354      616C7072 
 3354      696F00
 3355              	.LASF62:
 3356 07c5 76746675 		.ascii	"vtfunc_t\000"
 3356      6E635F74 
 3356      00
 3357              	.LASF10:
 3358 07ce 5F5F7569 		.ascii	"__uint32_t\000"
 3358      6E743332 
 3358      5F7400
 3359              	.LASF126:
 3360 07d9 73696E5F 		.ascii	"sin_port\000"
 3360      706F7274 
 3360      00
 3361              	.LASF187:
 3362 07e2 63676946 		.ascii	"cgiFunctionList\000"
 3362      756E6374 
 3362      696F6E4C 
 3362      69737400 
 3363              	.LASF99:
 3364 07f2 6F666673 		.ascii	"offset\000"
 3364      657400
 3365              	.LASF111:
 3366 07f9 63685F6D 		.ascii	"ch_mutex\000"
 3366      75746578 
 3366      00
 3367              	.LASF88:
 3368 0802 636F6E74 		.ascii	"context\000"
 3368      65787400 
 3369              	.LASF20:
 3370 080a 7274636E 		.ascii	"rtcnt_t\000"
 3370      745F7400 
 3371              	.LASF157:
 3372 0812 7265715F 		.ascii	"req_bnd_dispo\000"
 3372      626E645F 
 3372      64697370 
 3372      6F00
 3373              	.LASF69:
 3374 0820 76745F70 		.ascii	"vt_par\000"
 3374      617200
 3375              	.LASF119:
 3376 0827 7531365F 		.ascii	"u16_t\000"
 3376      7400
 3377              	.LASF156:
 3378 082d 7265715F 		.ascii	"req_encoding\000"
 3378      656E636F 
 3378      64696E67 
 3378      00
 3379              	.LASF160:
 3380 083a 5F485454 		.ascii	"_HTTPD_SESSION\000"
 3380      50445F53 
 3380      45535349 
 3380      4F4E00
 3381              	.LASF52:
 3382 0849 74687265 		.ascii	"threads_queue_t\000"
ARM GAS  C:\Users\jo\AppData\Local\Temp\ccVc71DF.s 			page 67


 3382      6164735F 
 3382      71756575 
 3382      655F7400 
 3383              	.LASF170:
 3384 0859 6D656469 		.ascii	"media_ext\000"
 3384      615F6578 
 3384      7400
 3385              	.LASF40:
 3386 0863 705F7265 		.ascii	"p_refs\000"
 3386      667300
 3387              	.LASF76:
 3388 086a 6973725F 		.ascii	"isr_cnt\000"
 3388      636E7400 
 3389              	.LASF140:
 3390 0872 7265715F 		.ascii	"req_method\000"
 3390      6D657468 
 3390      6F6400
 3391              	.LASF138:
 3392 087d 48545450 		.ascii	"HTTP_REQUEST\000"
 3392      5F524551 
 3392      55455354 
 3392      00
 3393              	.LASF191:
 3394 088a 63616C6C 		.ascii	"calloc\000"
 3394      6F6300
 3395              	.LASF123:
 3396 0891 736F636B 		.ascii	"sockaddr_in\000"
 3396      61646472 
 3396      5F696E00 
 3397              	.LASF81:
 3398 089d 726C6973 		.ascii	"rlist\000"
 3398      7400
 3399              	.LASF132:
 3400 08a3 7374726D 		.ascii	"strm_ibuf\000"
 3400      5F696275 
 3400      6600
 3401              	.LASF15:
 3402 08ad 75696E74 		.ascii	"uint8_t\000"
 3402      385F7400 
 3403              	.LASF161:
 3404 08b5 735F7374 		.ascii	"s_stream\000"
 3404      7265616D 
 3404      00
 3405              	.LASF75:
 3406 08be 70616E69 		.ascii	"panic_msg\000"
 3406      635F6D73 
 3406      6700
 3407              	.LASF103:
 3408 08c8 77746F62 		.ascii	"wtobjp\000"
 3408      6A7000
 3409              	.LASF36:
 3410 08cf 705F6E61 		.ascii	"p_name\000"
 3410      6D6500
 3411              	.LASF173:
 3412 08d6 6E657874 		.ascii	"next\000"
 3412      00
 3413              	.LASF49:
ARM GAS  C:\Users\jo\AppData\Local\Temp\ccVc71DF.s 			page 68


 3414 08db 74687265 		.ascii	"threads_list_t\000"
 3414      6164735F 
 3414      6C697374 
 3414      5F7400
 3415              	.LASF78:
 3416 08ea 74726163 		.ascii	"trace_buffer\000"
 3416      655F6275 
 3416      66666572 
 3416      00
 3417              	.LASF43:
 3418 08f7 705F6D73 		.ascii	"p_msg\000"
 3418      6700
 3419              	.LASF150:
 3420 08fd 7265715F 		.ascii	"req_type\000"
 3420      74797065 
 3420      00
 3421              	.LASF113:
 3422 0906 6D5F6F77 		.ascii	"m_owner\000"
 3422      6E657200 
 3423              	.LASF92:
 3424 090e 73655F77 		.ascii	"se_wtobjp\000"
 3424      746F626A 
 3424      7000
 3425              	.LASF33:
 3426 0918 705F6374 		.ascii	"p_ctx\000"
 3426      7800
 3427              	.LASF68:
 3428 091e 76745F66 		.ascii	"vt_func\000"
 3428      756E6300 
 3429              	.LASF197:
 3430 0926 2E2E2F2E 		.ascii	"../../../demos/STM32/RT-STM32F407-DISCOVERY-uHttp/u"
 3430      2E2F2E2E 
 3430      2F64656D 
 3430      6F732F53 
 3430      544D3332 
 3431 0959 68747470 		.ascii	"http-1.1/pro/modules/mod_cgi_func.c\000"
 3431      2D312E31 
 3431      2F70726F 
 3431      2F6D6F64 
 3431      756C6573 
 3432              	.LASF121:
 3433 097d 696E5F61 		.ascii	"in_addr\000"
 3433      64647200 
 3434              	.LASF131:
 3435 0985 7374726D 		.ascii	"strm_ilen\000"
 3435      5F696C65 
 3435      6E00
 3436              		.ident	"GCC: (GNU Tools for ARM Embedded Processors) 4.9.3 20141119 (release) [ARM/embedded-4_9-br
ARM GAS  C:\Users\jo\AppData\Local\Temp\ccVc71DF.s 			page 69


DEFINED SYMBOLS
                            *ABS*:00000000 mod_cgi_func.c
C:\Users\jo\AppData\Local\Temp\ccVc71DF.s:19     .text.HttpCgiFunctionLookup:00000000 $t
C:\Users\jo\AppData\Local\Temp\ccVc71DF.s:25     .text.HttpCgiFunctionLookup:00000000 HttpCgiFunctionLookup
C:\Users\jo\AppData\Local\Temp\ccVc71DF.s:76     .text.HttpCgiFunctionLookup:00000024 $d
C:\Users\jo\AppData\Local\Temp\ccVc71DF.s:81     .text.HttpRegisterCgiFunction:00000000 $t
C:\Users\jo\AppData\Local\Temp\ccVc71DF.s:87     .text.HttpRegisterCgiFunction:00000000 HttpRegisterCgiFunction
C:\Users\jo\AppData\Local\Temp\ccVc71DF.s:287    .text.HttpRegisterCgiFunction:000000f0 $d
C:\Users\jo\AppData\Local\Temp\ccVc71DF.s:292    .text.HttpCgiFunctionHandler:00000000 $t
C:\Users\jo\AppData\Local\Temp\ccVc71DF.s:298    .text.HttpCgiFunctionHandler:00000000 HttpCgiFunctionHandler
C:\Users\jo\AppData\Local\Temp\ccVc71DF.s:378    .text.HttpCgiFunctionHandler:00000050 $d
C:\Users\jo\AppData\Local\Temp\ccVc71DF.s:384    .bss.cgiFunctionList:00000000 $d
C:\Users\jo\AppData\Local\Temp\ccVc71DF.s:388    .bss.cgiFunctionList:00000000 cgiFunctionList
C:\Users\jo\AppData\Local\Temp\ccVc71DF.s:391    .rodata.str1.4:00000000 $d
                     .debug_frame:00000010 $d
C:\Users\jo\AppData\Local\Temp\ccVc71DF.s:80     .text.HttpCgiFunctionLookup:00000028 $t
C:\Users\jo\AppData\Local\Temp\ccVc71DF.s:291    .text.HttpRegisterCgiFunction:000000f4 $t
C:\Users\jo\AppData\Local\Temp\ccVc71DF.s:383    .text.HttpCgiFunctionHandler:00000058 $t

UNDEFINED SYMBOLS
strcasecmp
calloc
strdup
free
strlen
strncasecmp
http_root_path
