ARM GAS  C:\Users\jo\AppData\Local\Temp\ccVc71DF.s 			page 1


   1              		.syntax unified
   2              		.cpu cortex-m4
   3              		.fpu softvfp
   4              		.eabi_attribute 20, 1
   5              		.eabi_attribute 21, 1
   6              		.eabi_attribute 23, 3
   7              		.eabi_attribute 24, 1
   8              		.eabi_attribute 25, 1
   9              		.eabi_attribute 26, 1
  10              		.eabi_attribute 30, 2
  11              		.eabi_attribute 34, 1
  12              		.eabi_attribute 18, 4
  13              		.thumb
  14              		.file	"mod_cgi_func.c"
  15              		.text
  16              	.Ltext0:
  17              		.cfi_sections	.debug_frame
  18              		.section	.text.HttpCgiFunctionLookup,"ax",%progbits
  19              		.align	2
  20              		.p2align 4,,15
  21              		.global	HttpCgiFunctionLookup
  22              		.thumb
  23              		.thumb_func
  24              		.type	HttpCgiFunctionLookup, %function
  25              	HttpCgiFunctionLookup:
  26              	.LFB260:
  27              		.file 1 "../../../demos/STM32/RT-STM32F407-DISCOVERY-uHttp/uhttp-1.1/pro/modules/mod_cgi_func.c"
  28              		.loc 1 47 0
  29              		.cfi_startproc
  30              		@ args = 0, pretend = 0, frame = 0
  31              		@ frame_needed = 0, uses_anonymous_args = 0
  32              	.LVL0:
  33 0000 38B5     		push	{r3, r4, r5, lr}
  34              		.cfi_def_cfa_offset 16
  35              		.cfi_offset 3, -16
  36              		.cfi_offset 4, -12
  37              		.cfi_offset 5, -8
  38              		.cfi_offset 14, -4
  39              		.loc 1 53 0
  40 0002 084B     		ldr	r3, .L11
  41 0004 1C68     		ldr	r4, [r3]
  42              	.LVL1:
  43              		.loc 1 47 0
  44 0006 0546     		mov	r5, r0
  45              		.loc 1 53 0
  46 0008 14B9     		cbnz	r4, .L4
  47 000a 09E0     		b	.L2
  48              	.LVL2:
  49              	.L3:
  50              		.loc 1 53 0 is_stmt 0 discriminator 2
  51 000c 6468     		ldr	r4, [r4, #4]
  52              	.LVL3:
  53 000e 3CB1     		cbz	r4, .L2
  54              	.LVL4:
  55              	.L4:
  56              		.loc 1 54 0 is_stmt 1
  57 0010 A068     		ldr	r0, [r4, #8]
ARM GAS  C:\Users\jo\AppData\Local\Temp\ccVc71DF.s 			page 2


  58 0012 2946     		mov	r1, r5
  59 0014 FFF7FEFF 		bl	strcasecmp
  60              	.LVL5:
  61              		.loc 1 55 0
  62 0018 0028     		cmp	r0, #0
  63 001a F7DC     		bgt	.L3
  64              		.loc 1 57 0
  65 001c 18BF     		it	ne
  66 001e 0024     		movne	r4, #0
  67              	.LVL6:
  68              	.L2:
  69              		.loc 1 63 0
  70 0020 2046     		mov	r0, r4
  71 0022 38BD     		pop	{r3, r4, r5, pc}
  72              	.LVL7:
  73              	.L12:
  74              		.align	2
  75              	.L11:
  76 0024 00000000 		.word	.LANCHOR0
  77              		.cfi_endproc
  78              	.LFE260:
  79              		.size	HttpCgiFunctionLookup, .-HttpCgiFunctionLookup
  80 0028 AFF30080 		.section	.text.HttpRegisterCgiFunction,"ax",%progbits
  80      AFF30080 
  81              		.align	2
  82              		.p2align 4,,15
  83              		.global	HttpRegisterCgiFunction
  84              		.thumb
  85              		.thumb_func
  86              		.type	HttpRegisterCgiFunction, %function
  87              	HttpRegisterCgiFunction:
  88              	.LFB261:
  89              		.loc 1 66 0
  90              		.cfi_startproc
  91              		@ args = 0, pretend = 0, frame = 0
  92              		@ frame_needed = 0, uses_anonymous_args = 0
  93              	.LVL8:
  94 0000 2DE9F843 		push	{r3, r4, r5, r6, r7, r8, r9, lr}
  95              		.cfi_def_cfa_offset 32
  96              		.cfi_offset 3, -32
  97              		.cfi_offset 4, -28
  98              		.cfi_offset 5, -24
  99              		.cfi_offset 6, -20
 100              		.cfi_offset 7, -16
 101              		.cfi_offset 8, -12
 102              		.cfi_offset 9, -8
 103              		.cfi_offset 14, -4
 104              		.loc 1 73 0
 105 0004 DFF8E890 		ldr	r9, .L37
 106 0008 D9F80070 		ldr	r7, [r9]
 107              	.LVL9:
 108              		.loc 1 66 0
 109 000c 0646     		mov	r6, r0
 110 000e 8846     		mov	r8, r1
 111              		.loc 1 73 0
 112 0010 3C46     		mov	r4, r7
 113 0012 17B9     		cbnz	r7, .L16
ARM GAS  C:\Users\jo\AppData\Local\Temp\ccVc71DF.s 			page 3


 114 0014 12E0     		b	.L14
 115              	.LVL10:
 116              	.L35:
 117              		.loc 1 73 0 is_stmt 0 discriminator 2
 118 0016 6468     		ldr	r4, [r4, #4]
 119              	.LVL11:
 120 0018 84B1     		cbz	r4, .L14
 121              	.LVL12:
 122              	.L16:
 123              		.loc 1 74 0 is_stmt 1
 124 001a A568     		ldr	r5, [r4, #8]
 125 001c 3146     		mov	r1, r6
 126 001e 2846     		mov	r0, r5
 127 0020 FFF7FEFF 		bl	strcasecmp
 128              	.LVL13:
 129              		.loc 1 75 0
 130 0024 0028     		cmp	r0, #0
 131 0026 F6DC     		bgt	.L35
 132              		.loc 1 79 0
 133 0028 08D1     		bne	.L14
 134              		.loc 1 98 0
 135 002a B8F1000F 		cmp	r8, #0
 136 002e 28D0     		beq	.L26
 137              		.loc 1 100 0
 138 0030 C4F80C80 		str	r8, [r4, #12]
 139              		.loc 1 67 0
 140 0034 4FF0FF30 		mov	r0, #-1
 141              	.LVL14:
 142 0038 BDE8F883 		pop	{r3, r4, r5, r6, r7, r8, r9, pc}
 143              	.LVL15:
 144              	.L14:
 145              	.LBB2:
 146              		.loc 1 82 0
 147 003c 0120     		movs	r0, #1
 148 003e 1021     		movs	r1, #16
 149 0040 FFF7FEFF 		bl	calloc
 150              	.LVL16:
 151              		.loc 1 83 0
 152 0044 0546     		mov	r5, r0
 153 0046 0028     		cmp	r0, #0
 154 0048 46D0     		beq	.L32
 155              		.loc 1 84 0
 156 004a 3046     		mov	r0, r6
 157              	.LVL17:
 158 004c FFF7FEFF 		bl	strdup
 159              	.LVL18:
 160 0050 A860     		str	r0, [r5, #8]
 161              		.loc 1 85 0
 162 0052 0028     		cmp	r0, #0
 163 0054 44D0     		beq	.L19
 164              		.loc 1 86 0
 165 0056 C5F80C80 		str	r8, [r5, #12]
 166              		.loc 1 87 0
 167 005a 4CB3     		cbz	r4, .L20
 168              		.loc 1 88 0
 169 005c 2368     		ldr	r3, [r4]
 170 005e 3BB1     		cbz	r3, .L36
ARM GAS  C:\Users\jo\AppData\Local\Temp\ccVc71DF.s 			page 4


 171              		.loc 1 88 0 is_stmt 0 discriminator 2
 172 0060 2B60     		str	r3, [r5]
 173 0062 2560     		str	r5, [r4]
 174 0064 2B68     		ldr	r3, [r5]
 175              		.loc 1 92 0 is_stmt 1 discriminator 2
 176 0066 0020     		movs	r0, #0
 177              		.loc 1 88 0 discriminator 2
 178 0068 5D60     		str	r5, [r3, #4]
 179 006a 6C60     		str	r4, [r5, #4]
 180 006c BDE8F883 		pop	{r3, r4, r5, r6, r7, r8, r9, pc}
 181              	.LVL19:
 182              	.L36:
 183              		.loc 1 88 0 is_stmt 0 discriminator 1
 184 0070 DFB1     		cbz	r7, .L22
 185              		.loc 1 88 0 discriminator 3
 186 0072 3D60     		str	r5, [r7]
 187              	.L23:
 188              		.loc 1 88 0 discriminator 6
 189 0074 0020     		movs	r0, #0
 190 0076 6F60     		str	r7, [r5, #4]
 191 0078 C9F80050 		str	r5, [r9]
 192 007c 2860     		str	r0, [r5]
 193 007e BDE8F883 		pop	{r3, r4, r5, r6, r7, r8, r9, pc}
 194              	.LVL20:
 195              	.L26:
 196              	.LBE2:
 197              		.loc 1 104 0 is_stmt 1
 198 0082 94E80C00 		ldmia	r4, {r2, r3}
 199 0086 FBB1     		cbz	r3, .L27
 200              		.loc 1 104 0 is_stmt 0 discriminator 1
 201 0088 1A60     		str	r2, [r3]
 202 008a 2268     		ldr	r2, [r4]
 203              	.L28:
 204              		.loc 1 104 0 discriminator 4
 205 008c FAB1     		cbz	r2, .L29
 206              		.loc 1 104 0 discriminator 5
 207 008e 5360     		str	r3, [r2, #4]
 208              	.L30:
 209              		.loc 1 104 0 discriminator 8
 210 0090 4FF0FF36 		mov	r6, #-1
 211              	.LVL21:
 212              		.loc 1 105 0 is_stmt 1 discriminator 8
 213 0094 2846     		mov	r0, r5
 214              	.LVL22:
 215              		.loc 1 104 0 discriminator 8
 216 0096 2660     		str	r6, [r4]
 217 0098 6660     		str	r6, [r4, #4]
 218              		.loc 1 105 0 discriminator 8
 219 009a FFF7FEFF 		bl	free
 220              	.LVL23:
 221              		.loc 1 106 0 discriminator 8
 222 009e 2046     		mov	r0, r4
 223 00a0 FFF7FEFF 		bl	free
 224              	.LVL24:
 225              		.loc 1 67 0 discriminator 8
 226 00a4 3046     		mov	r0, r6
 227 00a6 BDE8F883 		pop	{r3, r4, r5, r6, r7, r8, r9, pc}
ARM GAS  C:\Users\jo\AppData\Local\Temp\ccVc71DF.s 			page 5


 228              	.LVL25:
 229              	.L22:
 230              	.LBB3:
 231              		.loc 1 88 0 discriminator 4
 232 00aa C9F80450 		str	r5, [r9, #4]
 233 00ae E1E7     		b	.L23
 234              	.L20:
 235              		.loc 1 90 0
 236 00b0 D9F80430 		ldr	r3, [r9, #4]
 237 00b4 0E4A     		ldr	r2, .L37
 238 00b6 6BB1     		cbz	r3, .L24
 239              		.loc 1 90 0 is_stmt 0 discriminator 1
 240 00b8 5D60     		str	r5, [r3, #4]
 241              	.L25:
 242              		.loc 1 90 0 discriminator 4
 243 00ba 0020     		movs	r0, #0
 244 00bc 2B60     		str	r3, [r5]
 245 00be C9F80450 		str	r5, [r9, #4]
 246 00c2 6860     		str	r0, [r5, #4]
 247 00c4 BDE8F883 		pop	{r3, r4, r5, r6, r7, r8, r9, pc}
 248              	.LVL26:
 249              	.L27:
 250              	.LBE3:
 251              		.loc 1 104 0 is_stmt 1 discriminator 2
 252 00c8 C9F80420 		str	r2, [r9, #4]
 253 00cc DEE7     		b	.L28
 254              	.L29:
 255              		.loc 1 104 0 is_stmt 0 discriminator 6
 256 00ce C9F80030 		str	r3, [r9]
 257 00d2 DDE7     		b	.L30
 258              	.LVL27:
 259              	.L24:
 260              	.LBB4:
 261              		.loc 1 90 0 is_stmt 1 discriminator 2
 262 00d4 1560     		str	r5, [r2]
 263 00d6 F0E7     		b	.L25
 264              	.LVL28:
 265              	.L32:
 266              	.LBE4:
 267              		.loc 1 67 0
 268 00d8 4FF0FF30 		mov	r0, #-1
 269              	.LVL29:
 270              		.loc 1 109 0
 271 00dc BDE8F883 		pop	{r3, r4, r5, r6, r7, r8, r9, pc}
 272              	.LVL30:
 273              	.L19:
 274              	.LBB5:
 275              		.loc 1 94 0
 276 00e0 2846     		mov	r0, r5
 277 00e2 FFF7FEFF 		bl	free
 278              	.LVL31:
 279              	.LBE5:
 280              		.loc 1 67 0
 281 00e6 4FF0FF30 		mov	r0, #-1
 282 00ea BDE8F883 		pop	{r3, r4, r5, r6, r7, r8, r9, pc}
 283              	.LVL32:
 284              	.L38:
ARM GAS  C:\Users\jo\AppData\Local\Temp\ccVc71DF.s 			page 6


 285 00ee 00BF     		.align	2
 286              	.L37:
 287 00f0 00000000 		.word	.LANCHOR0
 288              		.cfi_endproc
 289              	.LFE261:
 290              		.size	HttpRegisterCgiFunction, .-HttpRegisterCgiFunction
 291 00f4 AFF30080 		.section	.text.HttpCgiFunctionHandler,"ax",%progbits
 291      AFF30080 
 291      AFF30080 
 292              		.align	2
 293              		.p2align 4,,15
 294              		.global	HttpCgiFunctionHandler
 295              		.thumb
 296              		.thumb_func
 297              		.type	HttpCgiFunctionHandler, %function
 298              	HttpCgiFunctionHandler:
 299              	.LFB262:
 300              		.loc 1 112 0
 301              		.cfi_startproc
 302              		@ args = 0, pretend = 0, frame = 0
 303              		@ frame_needed = 0, uses_anonymous_args = 0
 304              	.LVL33:
 305 0000 F8B5     		push	{r3, r4, r5, r6, r7, lr}
 306              		.cfi_def_cfa_offset 24
 307              		.cfi_offset 3, -24
 308              		.cfi_offset 4, -20
 309              		.cfi_offset 5, -16
 310              		.cfi_offset 6, -12
 311              		.cfi_offset 7, -8
 312              		.cfi_offset 14, -4
 313              		.loc 1 118 0
 314 0002 134B     		ldr	r3, .L58
 315 0004 1D68     		ldr	r5, [r3]
 316              		.loc 1 112 0
 317 0006 0746     		mov	r7, r0
 318 0008 1446     		mov	r4, r2
 319              		.loc 1 118 0
 320 000a B5B1     		cbz	r5, .L57
 321 000c 2846     		mov	r0, r5
 322              	.LVL34:
 323 000e FFF7FEFF 		bl	strlen
 324              	.LVL35:
 325 0012 0646     		mov	r6, r0
 326 0014 2946     		mov	r1, r5
 327 0016 2046     		mov	r0, r4
 328 0018 3246     		mov	r2, r6
 329 001a FFF7FEFF 		bl	strncasecmp
 330              	.LVL36:
 331 001e A0B1     		cbz	r0, .L44
 332              	.L45:
 333              		.loc 1 122 0
 334 0020 2078     		ldrb	r0, [r4]	@ zero_extendqisi2
 335 0022 2F28     		cmp	r0, #47
 336 0024 14BF     		ite	ne
 337 0026 2046     		movne	r0, r4
 338 0028 601C     		addeq	r0, r4, #1
 339              	.LVL37:
ARM GAS  C:\Users\jo\AppData\Local\Temp\ccVc71DF.s 			page 7


 340              	.L42:
 341              		.loc 1 124 0
 342 002a FFF7FEFF 		bl	HttpCgiFunctionLookup
 343              	.LVL38:
 344              		.loc 1 125 0
 345 002e 10B1     		cbz	r0, .L51
 346              		.loc 1 126 0
 347 0030 C368     		ldr	r3, [r0, #12]
 348 0032 3846     		mov	r0, r7
 349              	.LVL39:
 350 0034 9847     		blx	r3
 351              	.LVL40:
 352              	.L51:
 353              		.loc 1 129 0
 354 0036 0020     		movs	r0, #0
 355 0038 F8BD     		pop	{r3, r4, r5, r6, r7, pc}
 356              	.LVL41:
 357              	.L57:
 358              		.loc 1 118 0
 359 003a 1046     		mov	r0, r2
 360              	.LVL42:
 361 003c 0549     		ldr	r1, .L58+4
 362              	.LVL43:
 363 003e 0522     		movs	r2, #5
 364              	.LVL44:
 365 0040 FFF7FEFF 		bl	strncasecmp
 366              	.LVL45:
 367 0044 0028     		cmp	r0, #0
 368 0046 EBD1     		bne	.L45
 369 0048 0526     		movs	r6, #5
 370              	.L44:
 371              		.loc 1 119 0 discriminator 4
 372 004a A019     		adds	r0, r4, r6
 373              	.LVL46:
 374 004c EDE7     		b	.L42
 375              	.L59:
 376 004e 00BF     		.align	2
 377              	.L58:
 378 0050 00000000 		.word	http_root_path
 379 0054 00000000 		.word	.LC0
 380              		.cfi_endproc
 381              	.LFE262:
 382              		.size	HttpCgiFunctionHandler, .-HttpCgiFunctionHandler
 383 0058 AFF30080 		.section	.bss.cgiFunctionList,"aw",%nobits
 383      AFF30080 
 384              		.align	2
 385              		.set	.LANCHOR0,. + 0
 386              		.type	cgiFunctionList, %object
 387              		.size	cgiFunctionList, 8
 388              	cgiFunctionList:
 389 0000 00000000 		.space	8
 389      00000000 
 390              		.section	.rodata.str1.4,"aMS",%progbits,1
 391              		.align	2
 392              	.LC0:
 393 0000 55524F4D 		.ascii	"UROM:\000"
 393      3A00
ARM GAS  C:\Users\jo\AppData\Local\Temp\ccVc71DF.s 			page 8


 394 0006 0000     		.text
 395              	.Letext0:
 396              		.file 2 "c:\\program files\\gnu tools arm embedded\\4.9 2014q4\\lib\\gcc\\arm-none-eabi\\4.9.3\\in
 397              		.file 3 "c:\\program files\\gnu tools arm embedded\\4.9 2014q4\\arm-none-eabi\\include\\machine\\_
 398              		.file 4 "c:\\program files\\gnu tools arm embedded\\4.9 2014q4\\arm-none-eabi\\include\\stdint.h"
 399              		.file 5 "../../../os/rt/ports/ARMCMx/compilers/GCC/chtypes.h"
 400              		.file 6 "../../../os/rt/include/chsystypes.h"
 401              		.file 7 "../../../os/rt/include/chschd.h"
 402              		.file 8 "../../../os/rt/ports/ARMCMx/chcore.h"
 403              		.file 9 "../../../os/rt/ports/ARMCMx/chcore_v7m.h"
 404              		.file 10 "../../../os/rt/include/chdebug.h"
 405              		.file 11 "../../../os/rt/include/chtm.h"
 406              		.file 12 "../../../os/rt/include/chsem.h"
 407              		.file 13 "../../../os/rt/include/chmtx.h"
 408              		.file 14 "../../../os/various/lwip_bindings/arch/cc.h"
 409              		.file 15 "../../../ext/lwip/src/include/ipv4/lwip/inet.h"
 410              		.file 16 "../../../ext/lwip/src/include/lwip\\sockets.h"
 411              		.file 17 "./uhttp-1.1/pro/lwip/streamio.h"
 412              		.file 18 "./os/streamio.h"
 413              		.file 19 "./uhttp-1.1/uhttpd.h"
 414              		.file 20 "./uhttp-1.1/mediatypes.h"
 415              		.file 21 "./uhttp-1.1/pro/modules/mod_cgi_func.h"
 416              		.file 22 "../../../os/ext/CMSIS/include/core_cm4.h"
 417              		.file 23 "c:\\program files\\gnu tools arm embedded\\4.9 2014q4\\arm-none-eabi\\include\\string.h"
 418              		.file 24 "c:\\program files\\gnu tools arm embedded\\4.9 2014q4\\arm-none-eabi\\include\\stdlib.h"