ARM GAS  C:\Users\jo\AppData\Local\Temp\ccvxPQfj.s 			page 1


   1              		.syntax unified
   2              		.cpu cortex-m4
   3              		.fpu softvfp
   4              		.eabi_attribute 20, 1
   5              		.eabi_attribute 21, 1
   6              		.eabi_attribute 23, 3
   7              		.eabi_attribute 24, 1
   8              		.eabi_attribute 25, 1
   9              		.eabi_attribute 26, 1
  10              		.eabi_attribute 30, 2
  11              		.eabi_attribute 34, 1
  12              		.eabi_attribute 18, 4
  13              		.thumb
  14              		.file	"mtreg.c"
  15              		.text
  16              	.Ltext0:
  17              		.cfi_sections	.debug_frame
  18              		.section	.text.HttpRegisterMediaType,"ax",%progbits
  19              		.align	2
  20              		.p2align 4,,15
  21              		.global	HttpRegisterMediaType
  22              		.thumb
  23              		.thumb_func
  24              		.type	HttpRegisterMediaType, %function
  25              	HttpRegisterMediaType:
  26              	.LFB260:
  27              		.file 1 "../../../demos/STM32/RT-STM32F407-DISCOVERY-uHttp/uhttp-1.1/pro/mtreg.c"
  28              		.loc 1 51 0
  29              		.cfi_startproc
  30              		@ args = 0, pretend = 0, frame = 0
  31              		@ frame_needed = 0, uses_anonymous_args = 0
  32              	.LVL0:
  33 0000 2DE9F84F 		push	{r3, r4, r5, r6, r7, r8, r9, r10, fp, lr}
  34              		.cfi_def_cfa_offset 40
  35              		.cfi_offset 3, -40
  36              		.cfi_offset 4, -36
  37              		.cfi_offset 5, -32
  38              		.cfi_offset 6, -28
  39              		.cfi_offset 7, -24
  40              		.cfi_offset 8, -20
  41              		.cfi_offset 9, -16
  42              		.cfi_offset 10, -12
  43              		.cfi_offset 11, -8
  44              		.cfi_offset 14, -4
  45              		.loc 1 57 0
  46 0004 DFF838A1 		ldr	r10, .L46
  47 0008 DAF80060 		ldr	r6, [r10]
  48              	.LVL1:
  49              		.loc 1 51 0
  50 000c 0546     		mov	r5, r0
  51 000e 8946     		mov	r9, r1
  52 0010 9346     		mov	fp, r2
  53 0012 9846     		mov	r8, r3
  54              		.loc 1 57 0
  55 0014 3446     		mov	r4, r6
  56 0016 16B9     		cbnz	r6, .L4
  57 0018 24E0     		b	.L2
ARM GAS  C:\Users\jo\AppData\Local\Temp\ccvxPQfj.s 			page 2


  58              	.LVL2:
  59              	.L43:
  60              		.loc 1 57 0 is_stmt 0 discriminator 2
  61 001a 6468     		ldr	r4, [r4, #4]
  62              	.LVL3:
  63 001c 14B3     		cbz	r4, .L2
  64              	.LVL4:
  65              	.L4:
  66              		.loc 1 58 0 is_stmt 1
  67 001e 04F11800 		add	r0, r4, #24
  68 0022 2946     		mov	r1, r5
  69 0024 FFF7FEFF 		bl	strcasecmp
  70              	.LVL5:
  71              		.loc 1 59 0
  72 0028 0028     		cmp	r0, #0
  73 002a F6DC     		bgt	.L43
  74              		.loc 1 64 0
  75 002c 1AD1     		bne	.L2
  76              		.loc 1 66 0
  77 002e B8F1000F 		cmp	r8, #0
  78 0032 56D0     		beq	.L6
  79              		.loc 1 68 0
  80 0034 C4F81480 		str	r8, [r4, #20]
  81              		.loc 1 69 0
  82 0038 B9F1000F 		cmp	r9, #0
  83 003c 0FD0     		beq	.L9
  84              		.loc 1 69 0 is_stmt 0 discriminator 1
  85 003e BBF1000F 		cmp	fp, #0
  86 0042 0CD0     		beq	.L9
  87              		.loc 1 70 0 is_stmt 1
  88 0044 2369     		ldr	r3, [r4, #16]
  89 0046 DB07     		lsls	r3, r3, #31
  90 0048 44D5     		bpl	.L44
  91              	.LVL6:
  92              	.L8:
  93              		.loc 1 74 0
  94 004a 4846     		mov	r0, r9
  95 004c FFF7FEFF 		bl	strdup
  96              	.LVL7:
  97 0050 A060     		str	r0, [r4, #8]
  98              		.loc 1 75 0
  99 0052 5846     		mov	r0, fp
 100 0054 FFF7FEFF 		bl	strdup
 101              	.LVL8:
 102              		.loc 1 76 0
 103 0058 0023     		movs	r3, #0
 104              		.loc 1 75 0
 105 005a E060     		str	r0, [r4, #12]
 106              		.loc 1 76 0
 107 005c 2361     		str	r3, [r4, #16]
 108              	.L9:
 109              	.LVL9:
 110              		.loc 1 52 0
 111 005e 0020     		movs	r0, #0
 112              	.LVL10:
 113 0060 BDE8F88F 		pop	{r3, r4, r5, r6, r7, r8, r9, r10, fp, pc}
 114              	.LVL11:
ARM GAS  C:\Users\jo\AppData\Local\Temp\ccvxPQfj.s 			page 3


 115              	.L2:
 116              		.loc 1 89 0
 117 0064 B8F1000F 		cmp	r8, #0
 118 0068 30D0     		beq	.L25
 119              		.loc 1 91 0
 120 006a 0120     		movs	r0, #1
 121 006c 2421     		movs	r1, #36
 122 006e FFF7FEFF 		bl	calloc
 123              	.LVL12:
 124              		.loc 1 92 0
 125 0072 0746     		mov	r7, r0
 126 0074 50B3     		cbz	r0, .L25
 127              		.loc 1 93 0
 128 0076 2946     		mov	r1, r5
 129 0078 07F11800 		add	r0, r7, #24
 130              	.LVL13:
 131 007c 0822     		movs	r2, #8
 132 007e FFF7FEFF 		bl	strncpy
 133              	.LVL14:
 134              		.loc 1 94 0
 135 0082 B9F1000F 		cmp	r9, #0
 136 0086 03D0     		beq	.L16
 137              		.loc 1 95 0
 138 0088 4846     		mov	r0, r9
 139 008a FFF7FEFF 		bl	strdup
 140              	.LVL15:
 141 008e B860     		str	r0, [r7, #8]
 142              	.L16:
 143              		.loc 1 97 0
 144 0090 BBF1000F 		cmp	fp, #0
 145 0094 03D0     		beq	.L17
 146              		.loc 1 98 0
 147 0096 5846     		mov	r0, fp
 148 0098 FFF7FEFF 		bl	strdup
 149              	.LVL16:
 150 009c F860     		str	r0, [r7, #12]
 151              	.L17:
 152              		.loc 1 100 0
 153 009e C7F81480 		str	r8, [r7, #20]
 154              		.loc 1 101 0
 155 00a2 002C     		cmp	r4, #0
 156 00a4 38D0     		beq	.L18
 157              		.loc 1 103 0
 158 00a6 2368     		ldr	r3, [r4]
 159 00a8 3BB1     		cbz	r3, .L45
 160              		.loc 1 103 0 is_stmt 0 discriminator 2
 161 00aa 3B60     		str	r3, [r7]
 162 00ac 2760     		str	r7, [r4]
 163 00ae 3B68     		ldr	r3, [r7]
 164              		.loc 1 109 0 is_stmt 1 discriminator 2
 165 00b0 0020     		movs	r0, #0
 166              		.loc 1 103 0 discriminator 2
 167 00b2 5F60     		str	r7, [r3, #4]
 168 00b4 7C60     		str	r4, [r7, #4]
 169 00b6 BDE8F88F 		pop	{r3, r4, r5, r6, r7, r8, r9, r10, fp, pc}
 170              	.LVL17:
 171              	.L45:
ARM GAS  C:\Users\jo\AppData\Local\Temp\ccvxPQfj.s 			page 4


 172              		.loc 1 103 0 is_stmt 0 discriminator 1
 173 00ba 56B3     		cbz	r6, .L20
 174              		.loc 1 103 0 discriminator 3
 175 00bc 3760     		str	r7, [r6]
 176              	.L21:
 177              		.loc 1 103 0 discriminator 6
 178 00be 0020     		movs	r0, #0
 179 00c0 7E60     		str	r6, [r7, #4]
 180 00c2 CAF80070 		str	r7, [r10]
 181 00c6 3860     		str	r0, [r7]
 182 00c8 BDE8F88F 		pop	{r3, r4, r5, r6, r7, r8, r9, r10, fp, pc}
 183              	.LVL18:
 184              	.L25:
 185              		.loc 1 52 0 is_stmt 1
 186 00cc 4FF0FF30 		mov	r0, #-1
 187 00d0 BDE8F88F 		pop	{r3, r4, r5, r6, r7, r8, r9, r10, fp, pc}
 188              	.LVL19:
 189              	.L44:
 190              		.loc 1 71 0
 191 00d4 A068     		ldr	r0, [r4, #8]
 192              	.LVL20:
 193 00d6 FFF7FEFF 		bl	free
 194              	.LVL21:
 195              		.loc 1 72 0
 196 00da E068     		ldr	r0, [r4, #12]
 197 00dc FFF7FEFF 		bl	free
 198              	.LVL22:
 199 00e0 B3E7     		b	.L8
 200              	.LVL23:
 201              	.L6:
 202              		.loc 1 80 0
 203 00e2 94E80C00 		ldmia	r4, {r2, r3}
 204 00e6 1BB3     		cbz	r3, .L10
 205              		.loc 1 80 0 is_stmt 0 discriminator 1
 206 00e8 1A60     		str	r2, [r3]
 207 00ea 2268     		ldr	r2, [r4]
 208              	.L11:
 209              		.loc 1 80 0 discriminator 4
 210 00ec 1AB3     		cbz	r2, .L12
 211              		.loc 1 80 0 discriminator 5
 212 00ee 5360     		str	r3, [r2, #4]
 213              	.L13:
 214              		.loc 1 81 0 is_stmt 1 discriminator 8
 215 00f0 2269     		ldr	r2, [r4, #16]
 216              		.loc 1 80 0 discriminator 8
 217 00f2 4FF0FF33 		mov	r3, #-1
 218 00f6 2360     		str	r3, [r4]
 219 00f8 6360     		str	r3, [r4, #4]
 220              		.loc 1 81 0 discriminator 8
 221 00fa 002A     		cmp	r2, #0
 222 00fc AFD1     		bne	.L9
 223              		.loc 1 82 0
 224 00fe A068     		ldr	r0, [r4, #8]
 225              	.LVL24:
 226 0100 FFF7FEFF 		bl	free
 227              	.LVL25:
 228              		.loc 1 83 0
ARM GAS  C:\Users\jo\AppData\Local\Temp\ccvxPQfj.s 			page 5


 229 0104 E068     		ldr	r0, [r4, #12]
 230 0106 FFF7FEFF 		bl	free
 231              	.LVL26:
 232              		.loc 1 84 0
 233 010a 2046     		mov	r0, r4
 234 010c FFF7FEFF 		bl	free
 235              	.LVL27:
 236 0110 A5E7     		b	.L9
 237              	.LVL28:
 238              	.L20:
 239              		.loc 1 103 0 discriminator 4
 240 0112 CAF80470 		str	r7, [r10, #4]
 241 0116 D2E7     		b	.L21
 242              	.L18:
 243              		.loc 1 106 0
 244 0118 DAF80430 		ldr	r3, [r10, #4]
 245 011c 084A     		ldr	r2, .L46
 246 011e 6BB1     		cbz	r3, .L22
 247              		.loc 1 106 0 is_stmt 0 discriminator 1
 248 0120 5F60     		str	r7, [r3, #4]
 249              	.L23:
 250              		.loc 1 106 0 discriminator 4
 251 0122 0020     		movs	r0, #0
 252 0124 3B60     		str	r3, [r7]
 253 0126 CAF80470 		str	r7, [r10, #4]
 254 012a 7860     		str	r0, [r7, #4]
 255 012c BDE8F88F 		pop	{r3, r4, r5, r6, r7, r8, r9, r10, fp, pc}
 256              	.LVL29:
 257              	.L10:
 258              		.loc 1 80 0 is_stmt 1 discriminator 2
 259 0130 CAF80420 		str	r2, [r10, #4]
 260 0134 DAE7     		b	.L11
 261              	.L12:
 262              		.loc 1 80 0 is_stmt 0 discriminator 6
 263 0136 CAF80030 		str	r3, [r10]
 264 013a D9E7     		b	.L13
 265              	.LVL30:
 266              	.L22:
 267              		.loc 1 106 0 is_stmt 1 discriminator 2
 268 013c 1760     		str	r7, [r2]
 269 013e F0E7     		b	.L23
 270              	.L47:
 271              		.align	2
 272              	.L46:
 273 0140 00000000 		.word	mediaTypeList
 274              		.cfi_endproc
 275              	.LFE260:
 276              		.size	HttpRegisterMediaType, .-HttpRegisterMediaType
 277 0144 AFF30080 		.text
 277      AFF30080 
 277      AFF30080 
 278              	.Letext0:
 279              		.file 2 "c:\\program files\\gnu tools arm embedded\\4.9 2014q4\\lib\\gcc\\arm-none-eabi\\4.9.3\\in
 280              		.file 3 "c:\\program files\\gnu tools arm embedded\\4.9 2014q4\\arm-none-eabi\\include\\machine\\_
 281              		.file 4 "c:\\program files\\gnu tools arm embedded\\4.9 2014q4\\arm-none-eabi\\include\\stdint.h"
 282              		.file 5 "../../../os/rt/ports/ARMCMx/compilers/GCC/chtypes.h"
 283              		.file 6 "../../../os/rt/include/chsystypes.h"
ARM GAS  C:\Users\jo\AppData\Local\Temp\ccvxPQfj.s 			page 6


 284              		.file 7 "../../../os/rt/include/chschd.h"
 285              		.file 8 "../../../os/rt/ports/ARMCMx/chcore.h"
 286              		.file 9 "../../../os/rt/ports/ARMCMx/chcore_v7m.h"
 287              		.file 10 "../../../os/rt/include/chdebug.h"
 288              		.file 11 "../../../os/rt/include/chtm.h"
 289              		.file 12 "../../../os/rt/include/chsem.h"
 290              		.file 13 "../../../os/rt/include/chmtx.h"
 291              		.file 14 "../../../os/various/lwip_bindings/arch/cc.h"
 292              		.file 15 "../../../ext/lwip/src/include/ipv4/lwip/inet.h"
 293              		.file 16 "../../../ext/lwip/src/include/lwip\\sockets.h"
 294              		.file 17 "./uhttp-1.1/pro/lwip/streamio.h"
 295              		.file 18 "./os/streamio.h"
 296              		.file 19 "./uhttp-1.1/uhttpd.h"
 297              		.file 20 "./uhttp-1.1/mediatypes.h"
 298              		.file 21 "../../../os/ext/CMSIS/include/core_cm4.h"
 299              		.file 22 "c:\\program files\\gnu tools arm embedded\\4.9 2014q4\\arm-none-eabi\\include\\string.h"
 300              		.file 23 "c:\\program files\\gnu tools arm embedded\\4.9 2014q4\\arm-none-eabi\\include\\stdlib.h"