ARM GAS  C:\Users\jo\AppData\Local\Temp\ccvxPQfj.s 			page 1


   1              		.syntax unified
   2              		.cpu cortex-m4
   3              		.fpu softvfp
   4              		.eabi_attribute 20, 1
   5              		.eabi_attribute 21, 1
   6              		.eabi_attribute 23, 3
   7              		.eabi_attribute 24, 1
   8              		.eabi_attribute 25, 1
   9              		.eabi_attribute 26, 1
  10              		.eabi_attribute 30, 2
  11              		.eabi_attribute 34, 1
  12              		.eabi_attribute 18, 4
  13              		.thumb
  14              		.file	"mtreg.c"
  15              		.text
  16              	.Ltext0:
  17              		.cfi_sections	.debug_frame
  18              		.section	.text.HttpRegisterMediaType,"ax",%progbits
  19              		.align	2
  20              		.p2align 4,,15
  21              		.global	HttpRegisterMediaType
  22              		.thumb
  23              		.thumb_func
  24              		.type	HttpRegisterMediaType, %function
  25              	HttpRegisterMediaType:
  26              	.LFB260:
  27              		.file 1 "../../../demos/STM32/RT-STM32F407-DISCOVERY-uHttp/uhttp-1.1/pro/mtreg.c"
  28              		.loc 1 51 0
  29              		.cfi_startproc
  30              		@ args = 0, pretend = 0, frame = 0
  31              		@ frame_needed = 0, uses_anonymous_args = 0
  32              	.LVL0:
  33 0000 2DE9F84F 		push	{r3, r4, r5, r6, r7, r8, r9, r10, fp, lr}
  34              		.cfi_def_cfa_offset 40
  35              		.cfi_offset 3, -40
  36              		.cfi_offset 4, -36
  37              		.cfi_offset 5, -32
  38              		.cfi_offset 6, -28
  39              		.cfi_offset 7, -24
  40              		.cfi_offset 8, -20
  41              		.cfi_offset 9, -16
  42              		.cfi_offset 10, -12
  43              		.cfi_offset 11, -8
  44              		.cfi_offset 14, -4
  45              		.loc 1 57 0
  46 0004 DFF838A1 		ldr	r10, .L46
  47 0008 DAF80060 		ldr	r6, [r10]
  48              	.LVL1:
  49              		.loc 1 51 0
  50 000c 0546     		mov	r5, r0
  51 000e 8946     		mov	r9, r1
  52 0010 9346     		mov	fp, r2
  53 0012 9846     		mov	r8, r3
  54              		.loc 1 57 0
  55 0014 3446     		mov	r4, r6
  56 0016 16B9     		cbnz	r6, .L4
  57 0018 24E0     		b	.L2
ARM GAS  C:\Users\jo\AppData\Local\Temp\ccvxPQfj.s 			page 2


  58              	.LVL2:
  59              	.L43:
  60              		.loc 1 57 0 is_stmt 0 discriminator 2
  61 001a 6468     		ldr	r4, [r4, #4]
  62              	.LVL3:
  63 001c 14B3     		cbz	r4, .L2
  64              	.LVL4:
  65              	.L4:
  66              		.loc 1 58 0 is_stmt 1
  67 001e 04F11800 		add	r0, r4, #24
  68 0022 2946     		mov	r1, r5
  69 0024 FFF7FEFF 		bl	strcasecmp
  70              	.LVL5:
  71              		.loc 1 59 0
  72 0028 0028     		cmp	r0, #0
  73 002a F6DC     		bgt	.L43
  74              		.loc 1 64 0
  75 002c 1AD1     		bne	.L2
  76              		.loc 1 66 0
  77 002e B8F1000F 		cmp	r8, #0
  78 0032 56D0     		beq	.L6
  79              		.loc 1 68 0
  80 0034 C4F81480 		str	r8, [r4, #20]
  81              		.loc 1 69 0
  82 0038 B9F1000F 		cmp	r9, #0
  83 003c 0FD0     		beq	.L9
  84              		.loc 1 69 0 is_stmt 0 discriminator 1
  85 003e BBF1000F 		cmp	fp, #0
  86 0042 0CD0     		beq	.L9
  87              		.loc 1 70 0 is_stmt 1
  88 0044 2369     		ldr	r3, [r4, #16]
  89 0046 DB07     		lsls	r3, r3, #31
  90 0048 44D5     		bpl	.L44
  91              	.LVL6:
  92              	.L8:
  93              		.loc 1 74 0
  94 004a 4846     		mov	r0, r9
  95 004c FFF7FEFF 		bl	strdup
  96              	.LVL7:
  97 0050 A060     		str	r0, [r4, #8]
  98              		.loc 1 75 0
  99 0052 5846     		mov	r0, fp
 100 0054 FFF7FEFF 		bl	strdup
 101              	.LVL8:
 102              		.loc 1 76 0
 103 0058 0023     		movs	r3, #0
 104              		.loc 1 75 0
 105 005a E060     		str	r0, [r4, #12]
 106              		.loc 1 76 0
 107 005c 2361     		str	r3, [r4, #16]
 108              	.L9:
 109              	.LVL9:
 110              		.loc 1 52 0
 111 005e 0020     		movs	r0, #0
 112              	.LVL10:
 113 0060 BDE8F88F 		pop	{r3, r4, r5, r6, r7, r8, r9, r10, fp, pc}
 114              	.LVL11:
ARM GAS  C:\Users\jo\AppData\Local\Temp\ccvxPQfj.s 			page 3


 115              	.L2:
 116              		.loc 1 89 0
 117 0064 B8F1000F 		cmp	r8, #0
 118 0068 30D0     		beq	.L25
 119              		.loc 1 91 0
 120 006a 0120     		movs	r0, #1
 121 006c 2421     		movs	r1, #36
 122 006e FFF7FEFF 		bl	calloc
 123              	.LVL12:
 124              		.loc 1 92 0
 125 0072 0746     		mov	r7, r0
 126 0074 50B3     		cbz	r0, .L25
 127              		.loc 1 93 0
 128 0076 2946     		mov	r1, r5
 129 0078 07F11800 		add	r0, r7, #24
 130              	.LVL13:
 131 007c 0822     		movs	r2, #8
 132 007e FFF7FEFF 		bl	strncpy
 133              	.LVL14:
 134              		.loc 1 94 0
 135 0082 B9F1000F 		cmp	r9, #0
 136 0086 03D0     		beq	.L16
 137              		.loc 1 95 0
 138 0088 4846     		mov	r0, r9
 139 008a FFF7FEFF 		bl	strdup
 140              	.LVL15:
 141 008e B860     		str	r0, [r7, #8]
 142              	.L16:
 143              		.loc 1 97 0
 144 0090 BBF1000F 		cmp	fp, #0
 145 0094 03D0     		beq	.L17
 146              		.loc 1 98 0
 147 0096 5846     		mov	r0, fp
 148 0098 FFF7FEFF 		bl	strdup
 149              	.LVL16:
 150 009c F860     		str	r0, [r7, #12]
 151              	.L17:
 152              		.loc 1 100 0
 153 009e C7F81480 		str	r8, [r7, #20]
 154              		.loc 1 101 0
 155 00a2 002C     		cmp	r4, #0
 156 00a4 38D0     		beq	.L18
 157              		.loc 1 103 0
 158 00a6 2368     		ldr	r3, [r4]
 159 00a8 3BB1     		cbz	r3, .L45
 160              		.loc 1 103 0 is_stmt 0 discriminator 2
 161 00aa 3B60     		str	r3, [r7]
 162 00ac 2760     		str	r7, [r4]
 163 00ae 3B68     		ldr	r3, [r7]
 164              		.loc 1 109 0 is_stmt 1 discriminator 2
 165 00b0 0020     		movs	r0, #0
 166              		.loc 1 103 0 discriminator 2
 167 00b2 5F60     		str	r7, [r3, #4]
 168 00b4 7C60     		str	r4, [r7, #4]
 169 00b6 BDE8F88F 		pop	{r3, r4, r5, r6, r7, r8, r9, r10, fp, pc}
 170              	.LVL17:
 171              	.L45:
ARM GAS  C:\Users\jo\AppData\Local\Temp\ccvxPQfj.s 			page 4


 172              		.loc 1 103 0 is_stmt 0 discriminator 1
 173 00ba 56B3     		cbz	r6, .L20
 174              		.loc 1 103 0 discriminator 3
 175 00bc 3760     		str	r7, [r6]
 176              	.L21:
 177              		.loc 1 103 0 discriminator 6
 178 00be 0020     		movs	r0, #0
 179 00c0 7E60     		str	r6, [r7, #4]
 180 00c2 CAF80070 		str	r7, [r10]
 181 00c6 3860     		str	r0, [r7]
 182 00c8 BDE8F88F 		pop	{r3, r4, r5, r6, r7, r8, r9, r10, fp, pc}
 183              	.LVL18:
 184              	.L25:
 185              		.loc 1 52 0 is_stmt 1
 186 00cc 4FF0FF30 		mov	r0, #-1
 187 00d0 BDE8F88F 		pop	{r3, r4, r5, r6, r7, r8, r9, r10, fp, pc}
 188              	.LVL19:
 189              	.L44:
 190              		.loc 1 71 0
 191 00d4 A068     		ldr	r0, [r4, #8]
 192              	.LVL20:
 193 00d6 FFF7FEFF 		bl	free
 194              	.LVL21:
 195              		.loc 1 72 0
 196 00da E068     		ldr	r0, [r4, #12]
 197 00dc FFF7FEFF 		bl	free
 198              	.LVL22:
 199 00e0 B3E7     		b	.L8
 200              	.LVL23:
 201              	.L6:
 202              		.loc 1 80 0
 203 00e2 94E80C00 		ldmia	r4, {r2, r3}
 204 00e6 1BB3     		cbz	r3, .L10
 205              		.loc 1 80 0 is_stmt 0 discriminator 1
 206 00e8 1A60     		str	r2, [r3]
 207 00ea 2268     		ldr	r2, [r4]
 208              	.L11:
 209              		.loc 1 80 0 discriminator 4
 210 00ec 1AB3     		cbz	r2, .L12
 211              		.loc 1 80 0 discriminator 5
 212 00ee 5360     		str	r3, [r2, #4]
 213              	.L13:
 214              		.loc 1 81 0 is_stmt 1 discriminator 8
 215 00f0 2269     		ldr	r2, [r4, #16]
 216              		.loc 1 80 0 discriminator 8
 217 00f2 4FF0FF33 		mov	r3, #-1
 218 00f6 2360     		str	r3, [r4]
 219 00f8 6360     		str	r3, [r4, #4]
 220              		.loc 1 81 0 discriminator 8
 221 00fa 002A     		cmp	r2, #0
 222 00fc AFD1     		bne	.L9
 223              		.loc 1 82 0
 224 00fe A068     		ldr	r0, [r4, #8]
 225              	.LVL24:
 226 0100 FFF7FEFF 		bl	free
 227              	.LVL25:
 228              		.loc 1 83 0
ARM GAS  C:\Users\jo\AppData\Local\Temp\ccvxPQfj.s 			page 5


 229 0104 E068     		ldr	r0, [r4, #12]
 230 0106 FFF7FEFF 		bl	free
 231              	.LVL26:
 232              		.loc 1 84 0
 233 010a 2046     		mov	r0, r4
 234 010c FFF7FEFF 		bl	free
 235              	.LVL27:
 236 0110 A5E7     		b	.L9
 237              	.LVL28:
 238              	.L20:
 239              		.loc 1 103 0 discriminator 4
 240 0112 CAF80470 		str	r7, [r10, #4]
 241 0116 D2E7     		b	.L21
 242              	.L18:
 243              		.loc 1 106 0
 244 0118 DAF80430 		ldr	r3, [r10, #4]
 245 011c 084A     		ldr	r2, .L46
 246 011e 6BB1     		cbz	r3, .L22
 247              		.loc 1 106 0 is_stmt 0 discriminator 1
 248 0120 5F60     		str	r7, [r3, #4]
 249              	.L23:
 250              		.loc 1 106 0 discriminator 4
 251 0122 0020     		movs	r0, #0
 252 0124 3B60     		str	r3, [r7]
 253 0126 CAF80470 		str	r7, [r10, #4]
 254 012a 7860     		str	r0, [r7, #4]
 255 012c BDE8F88F 		pop	{r3, r4, r5, r6, r7, r8, r9, r10, fp, pc}
 256              	.LVL29:
 257              	.L10:
 258              		.loc 1 80 0 is_stmt 1 discriminator 2
 259 0130 CAF80420 		str	r2, [r10, #4]
 260 0134 DAE7     		b	.L11
 261              	.L12:
 262              		.loc 1 80 0 is_stmt 0 discriminator 6
 263 0136 CAF80030 		str	r3, [r10]
 264 013a D9E7     		b	.L13
 265              	.LVL30:
 266              	.L22:
 267              		.loc 1 106 0 is_stmt 1 discriminator 2
 268 013c 1760     		str	r7, [r2]
 269 013e F0E7     		b	.L23
 270              	.L47:
 271              		.align	2
 272              	.L46:
 273 0140 00000000 		.word	mediaTypeList
 274              		.cfi_endproc
 275              	.LFE260:
 276              		.size	HttpRegisterMediaType, .-HttpRegisterMediaType
 277 0144 AFF30080 		.text
 277      AFF30080 
 277      AFF30080 
 278              	.Letext0:
 279              		.file 2 "c:\\program files\\gnu tools arm embedded\\4.9 2014q4\\lib\\gcc\\arm-none-eabi\\4.9.3\\in
 280              		.file 3 "c:\\program files\\gnu tools arm embedded\\4.9 2014q4\\arm-none-eabi\\include\\machine\\_
 281              		.file 4 "c:\\program files\\gnu tools arm embedded\\4.9 2014q4\\arm-none-eabi\\include\\stdint.h"
 282              		.file 5 "../../../os/rt/ports/ARMCMx/compilers/GCC/chtypes.h"
 283              		.file 6 "../../../os/rt/include/chsystypes.h"
ARM GAS  C:\Users\jo\AppData\Local\Temp\ccvxPQfj.s 			page 6


 284              		.file 7 "../../../os/rt/include/chschd.h"
 285              		.file 8 "../../../os/rt/ports/ARMCMx/chcore.h"
 286              		.file 9 "../../../os/rt/ports/ARMCMx/chcore_v7m.h"
 287              		.file 10 "../../../os/rt/include/chdebug.h"
 288              		.file 11 "../../../os/rt/include/chtm.h"
 289              		.file 12 "../../../os/rt/include/chsem.h"
 290              		.file 13 "../../../os/rt/include/chmtx.h"
 291              		.file 14 "../../../os/various/lwip_bindings/arch/cc.h"
 292              		.file 15 "../../../ext/lwip/src/include/ipv4/lwip/inet.h"
 293              		.file 16 "../../../ext/lwip/src/include/lwip\\sockets.h"
 294              		.file 17 "./uhttp-1.1/pro/lwip/streamio.h"
 295              		.file 18 "./os/streamio.h"
 296              		.file 19 "./uhttp-1.1/uhttpd.h"
 297              		.file 20 "./uhttp-1.1/mediatypes.h"
 298              		.file 21 "../../../os/ext/CMSIS/include/core_cm4.h"
 299              		.file 22 "c:\\program files\\gnu tools arm embedded\\4.9 2014q4\\arm-none-eabi\\include\\string.h"
 300              		.file 23 "c:\\program files\\gnu tools arm embedded\\4.9 2014q4\\arm-none-eabi\\include\\stdlib.h"
 301              		.section	.debug_info,"",%progbits
 302              	.Ldebug_info0:
 303 0000 4B0C0000 		.4byte	0xc4b
 304 0004 0400     		.2byte	0x4
 305 0006 00000000 		.4byte	.Ldebug_abbrev0
 306 000a 04       		.byte	0x4
 307 000b 01       		.uleb128 0x1
 308 000c F7030000 		.4byte	.LASF185
 309 0010 01       		.byte	0x1
 310 0011 83030000 		.4byte	.LASF186
 311 0015 20010000 		.4byte	.LASF187
 312 0019 00000000 		.4byte	.Ldebug_ranges0+0
 313 001d 00000000 		.4byte	0
 314 0021 00000000 		.4byte	.Ldebug_line0
 315 0025 02       		.uleb128 0x2
 316 0026 04       		.byte	0x4
 317 0027 05       		.byte	0x5
 318 0028 696E7400 		.ascii	"int\000"
 319 002c 03       		.uleb128 0x3
 320 002d 28000000 		.4byte	.LASF2
 321 0031 02       		.byte	0x2
 322 0032 D4       		.byte	0xd4
 323 0033 37000000 		.4byte	0x37
 324 0037 04       		.uleb128 0x4
 325 0038 04       		.byte	0x4
 326 0039 07       		.byte	0x7
 327 003a BD020000 		.4byte	.LASF0
 328 003e 04       		.uleb128 0x4
 329 003f 01       		.byte	0x1
 330 0040 06       		.byte	0x6
 331 0041 89010000 		.4byte	.LASF1
 332 0045 03       		.uleb128 0x3
 333 0046 58000000 		.4byte	.LASF3
 334 004a 03       		.byte	0x3
 335 004b 1D       		.byte	0x1d
 336 004c 50000000 		.4byte	0x50
 337 0050 04       		.uleb128 0x4
 338 0051 01       		.byte	0x1
 339 0052 08       		.byte	0x8
 340 0053 3C060000 		.4byte	.LASF4
ARM GAS  C:\Users\jo\AppData\Local\Temp\ccvxPQfj.s 			page 7


 341 0057 04       		.uleb128 0x4
 342 0058 02       		.byte	0x2
 343 0059 05       		.byte	0x5
 344 005a 54060000 		.4byte	.LASF5
 345 005e 03       		.uleb128 0x3
 346 005f 59070000 		.4byte	.LASF6
 347 0063 03       		.byte	0x3
 348 0064 2B       		.byte	0x2b
 349 0065 69000000 		.4byte	0x69
 350 0069 04       		.uleb128 0x4
 351 006a 02       		.byte	0x2
 352 006b 07       		.byte	0x7
 353 006c 3D020000 		.4byte	.LASF7
 354 0070 03       		.uleb128 0x3
 355 0071 E5030000 		.4byte	.LASF8
 356 0075 03       		.byte	0x3
 357 0076 3F       		.byte	0x3f
 358 0077 7B000000 		.4byte	0x7b
 359 007b 04       		.uleb128 0x4
 360 007c 04       		.byte	0x4
 361 007d 05       		.byte	0x5
 362 007e E4010000 		.4byte	.LASF9
 363 0082 03       		.uleb128 0x3
 364 0083 95070000 		.4byte	.LASF10
 365 0087 03       		.byte	0x3
 366 0088 41       		.byte	0x41
 367 0089 8D000000 		.4byte	0x8d
 368 008d 04       		.uleb128 0x4
 369 008e 04       		.byte	0x4
 370 008f 07       		.byte	0x7
 371 0090 1C070000 		.4byte	.LASF11
 372 0094 04       		.uleb128 0x4
 373 0095 08       		.byte	0x8
 374 0096 05       		.byte	0x5
 375 0097 7B010000 		.4byte	.LASF12
 376 009b 03       		.uleb128 0x3
 377 009c B6050000 		.4byte	.LASF13
 378 00a0 03       		.byte	0x3
 379 00a1 5B       		.byte	0x5b
 380 00a2 A6000000 		.4byte	0xa6
 381 00a6 04       		.uleb128 0x4
 382 00a7 08       		.byte	0x8
 383 00a8 07       		.byte	0x7
 384 00a9 9A000000 		.4byte	.LASF14
 385 00ad 03       		.uleb128 0x3
 386 00ae 65080000 		.4byte	.LASF15
 387 00b2 04       		.byte	0x4
 388 00b3 15       		.byte	0x15
 389 00b4 45000000 		.4byte	0x45
 390 00b8 03       		.uleb128 0x3
 391 00b9 1D020000 		.4byte	.LASF16
 392 00bd 04       		.byte	0x4
 393 00be 21       		.byte	0x21
 394 00bf 5E000000 		.4byte	0x5e
 395 00c3 03       		.uleb128 0x3
 396 00c4 34060000 		.4byte	.LASF17
 397 00c8 04       		.byte	0x4
ARM GAS  C:\Users\jo\AppData\Local\Temp\ccvxPQfj.s 			page 8


 398 00c9 2C       		.byte	0x2c
 399 00ca 70000000 		.4byte	0x70
 400 00ce 03       		.uleb128 0x3
 401 00cf E0060000 		.4byte	.LASF18
 402 00d3 04       		.byte	0x4
 403 00d4 2D       		.byte	0x2d
 404 00d5 82000000 		.4byte	0x82
 405 00d9 03       		.uleb128 0x3
 406 00da 5B050000 		.4byte	.LASF19
 407 00de 04       		.byte	0x4
 408 00df 39       		.byte	0x39
 409 00e0 9B000000 		.4byte	0x9b
 410 00e4 05       		.uleb128 0x5
 411 00e5 C3000000 		.4byte	0xc3
 412 00e9 03       		.uleb128 0x3
 413 00ea C2070000 		.4byte	.LASF20
 414 00ee 05       		.byte	0x5
 415 00ef 45       		.byte	0x45
 416 00f0 CE000000 		.4byte	0xce
 417 00f4 03       		.uleb128 0x3
 418 00f5 6F030000 		.4byte	.LASF21
 419 00f9 05       		.byte	0x5
 420 00fa 48       		.byte	0x48
 421 00fb AD000000 		.4byte	0xad
 422 00ff 03       		.uleb128 0x3
 423 0100 FB010000 		.4byte	.LASF22
 424 0104 05       		.byte	0x5
 425 0105 49       		.byte	0x49
 426 0106 AD000000 		.4byte	0xad
 427 010a 03       		.uleb128 0x3
 428 010b D4050000 		.4byte	.LASF23
 429 010f 05       		.byte	0x5
 430 0110 4A       		.byte	0x4a
 431 0111 AD000000 		.4byte	0xad
 432 0115 03       		.uleb128 0x3
 433 0116 0B060000 		.4byte	.LASF24
 434 011a 05       		.byte	0x5
 435 011b 4C       		.byte	0x4c
 436 011c CE000000 		.4byte	0xce
 437 0120 03       		.uleb128 0x3
 438 0121 52030000 		.4byte	.LASF25
 439 0125 05       		.byte	0x5
 440 0126 4D       		.byte	0x4d
 441 0127 C3000000 		.4byte	0xc3
 442 012b 03       		.uleb128 0x3
 443 012c D9030000 		.4byte	.LASF26
 444 0130 05       		.byte	0x5
 445 0131 4F       		.byte	0x4f
 446 0132 CE000000 		.4byte	0xce
 447 0136 03       		.uleb128 0x3
 448 0137 AC020000 		.4byte	.LASF27
 449 013b 05       		.byte	0x5
 450 013c 51       		.byte	0x51
 451 013d C3000000 		.4byte	0xc3
 452 0141 03       		.uleb128 0x3
 453 0142 82070000 		.4byte	.LASF28
 454 0146 06       		.byte	0x6
ARM GAS  C:\Users\jo\AppData\Local\Temp\ccvxPQfj.s 			page 9


 455 0147 33       		.byte	0x33
 456 0148 CE000000 		.4byte	0xce
 457 014c 03       		.uleb128 0x3
 458 014d 64070000 		.4byte	.LASF29
 459 0151 06       		.byte	0x6
 460 0152 3F       		.byte	0x3f
 461 0153 57010000 		.4byte	0x157
 462 0157 06       		.uleb128 0x6
 463 0158 3D030000 		.4byte	.LASF50
 464 015c 48       		.byte	0x48
 465 015d 07       		.byte	0x7
 466 015e C2       		.byte	0xc2
 467 015f 50020000 		.4byte	0x250
 468 0163 07       		.uleb128 0x7
 469 0164 74060000 		.4byte	.LASF30
 470 0168 07       		.byte	0x7
 471 0169 C3       		.byte	0xc3
 472 016a 5B020000 		.4byte	0x25b
 473 016e 00       		.byte	0
 474 016f 07       		.uleb128 0x7
 475 0170 04060000 		.4byte	.LASF31
 476 0174 07       		.byte	0x7
 477 0175 C5       		.byte	0xc5
 478 0176 5B020000 		.4byte	0x25b
 479 017a 04       		.byte	0x4
 480 017b 07       		.uleb128 0x7
 481 017c 19010000 		.4byte	.LASF32
 482 0180 07       		.byte	0x7
 483 0181 C7       		.byte	0xc7
 484 0182 15010000 		.4byte	0x115
 485 0186 08       		.byte	0x8
 486 0187 07       		.uleb128 0x7
 487 0188 C6080000 		.4byte	.LASF33
 488 018c 07       		.byte	0x7
 489 018d C8       		.byte	0xc8
 490 018e B6040000 		.4byte	0x4b6
 491 0192 0C       		.byte	0xc
 492 0193 07       		.uleb128 0x7
 493 0194 2D020000 		.4byte	.LASF34
 494 0198 07       		.byte	0x7
 495 0199 CA       		.byte	0xca
 496 019a 5B020000 		.4byte	0x25b
 497 019e 10       		.byte	0x10
 498 019f 07       		.uleb128 0x7
 499 01a0 64050000 		.4byte	.LASF35
 500 01a4 07       		.byte	0x7
 501 01a5 CB       		.byte	0xcb
 502 01a6 5B020000 		.4byte	0x25b
 503 01aa 14       		.byte	0x14
 504 01ab 07       		.uleb128 0x7
 505 01ac 7D080000 		.4byte	.LASF36
 506 01b0 07       		.byte	0x7
 507 01b1 D2       		.byte	0xd2
 508 01b2 C8060000 		.4byte	0x6c8
 509 01b6 18       		.byte	0x18
 510 01b7 07       		.uleb128 0x7
 511 01b8 8B050000 		.4byte	.LASF37
ARM GAS  C:\Users\jo\AppData\Local\Temp\ccvxPQfj.s 			page 10


 512 01bc 07       		.byte	0x7
 513 01bd D8       		.byte	0xd8
 514 01be DA060000 		.4byte	0x6da
 515 01c2 1C       		.byte	0x1c
 516 01c3 07       		.uleb128 0x7
 517 01c4 5E060000 		.4byte	.LASF38
 518 01c8 07       		.byte	0x7
 519 01c9 DD       		.byte	0xdd
 520 01ca FF000000 		.4byte	0xff
 521 01ce 20       		.byte	0x20
 522 01cf 07       		.uleb128 0x7
 523 01d0 7B060000 		.4byte	.LASF39
 524 01d4 07       		.byte	0x7
 525 01d5 E1       		.byte	0xe1
 526 01d6 F4000000 		.4byte	0xf4
 527 01da 21       		.byte	0x21
 528 01db 07       		.uleb128 0x7
 529 01dc 1B080000 		.4byte	.LASF40
 530 01e0 07       		.byte	0x7
 531 01e1 E6       		.byte	0xe6
 532 01e2 0A010000 		.4byte	0x10a
 533 01e6 22       		.byte	0x22
 534 01e7 08       		.uleb128 0x8
 535 01e8 705F7500 		.ascii	"p_u\000"
 536 01ec 07       		.byte	0x7
 537 01ed 3101     		.2byte	0x131
 538 01ef 03060000 		.4byte	0x603
 539 01f3 24       		.byte	0x24
 540 01f4 09       		.uleb128 0x9
 541 01f5 F5040000 		.4byte	.LASF41
 542 01f9 07       		.byte	0x7
 543 01fa 3601     		.2byte	0x136
 544 01fc 61020000 		.4byte	0x261
 545 0200 28       		.byte	0x28
 546 0201 09       		.uleb128 0x9
 547 0202 EA020000 		.4byte	.LASF42
 548 0206 07       		.byte	0x7
 549 0207 3C01     		.2byte	0x13c
 550 0209 85020000 		.4byte	0x285
 551 020d 2C       		.byte	0x2c
 552 020e 09       		.uleb128 0x9
 553 020f A5080000 		.4byte	.LASF43
 554 0213 07       		.byte	0x7
 555 0214 4001     		.2byte	0x140
 556 0216 20010000 		.4byte	0x120
 557 021a 34       		.byte	0x34
 558 021b 09       		.uleb128 0x9
 559 021c D0060000 		.4byte	.LASF44
 560 0220 07       		.byte	0x7
 561 0221 4601     		.2byte	0x146
 562 0223 2B010000 		.4byte	0x12b
 563 0227 38       		.byte	0x38
 564 0228 09       		.uleb128 0x9
 565 0229 4A060000 		.4byte	.LASF45
 566 022d 07       		.byte	0x7
 567 022e 4D01     		.2byte	0x14d
 568 0230 C2060000 		.4byte	0x6c2
ARM GAS  C:\Users\jo\AppData\Local\Temp\ccvxPQfj.s 			page 11


 569 0234 3C       		.byte	0x3c
 570 0235 09       		.uleb128 0x9
 571 0236 58030000 		.4byte	.LASF46
 572 023a 07       		.byte	0x7
 573 023b 5101     		.2byte	0x151
 574 023d 15010000 		.4byte	0x115
 575 0241 40       		.byte	0x40
 576 0242 09       		.uleb128 0x9
 577 0243 A3010000 		.4byte	.LASF47
 578 0247 07       		.byte	0x7
 579 0248 5801     		.2byte	0x158
 580 024a 38030000 		.4byte	0x338
 581 024e 44       		.byte	0x44
 582 024f 00       		.byte	0
 583 0250 03       		.uleb128 0x3
 584 0251 0D050000 		.4byte	.LASF48
 585 0255 06       		.byte	0x6
 586 0256 44       		.byte	0x44
 587 0257 5B020000 		.4byte	0x25b
 588 025b 0A       		.uleb128 0xa
 589 025c 04       		.byte	0x4
 590 025d 4C010000 		.4byte	0x14c
 591 0261 03       		.uleb128 0x3
 592 0262 89080000 		.4byte	.LASF49
 593 0266 06       		.byte	0x6
 594 0267 49       		.byte	0x49
 595 0268 6C020000 		.4byte	0x26c
 596 026c 06       		.uleb128 0x6
 597 026d 01070000 		.4byte	.LASF51
 598 0271 04       		.byte	0x4
 599 0272 07       		.byte	0x7
 600 0273 B0       		.byte	0xb0
 601 0274 85020000 		.4byte	0x285
 602 0278 07       		.uleb128 0x7
 603 0279 74060000 		.4byte	.LASF30
 604 027d 07       		.byte	0x7
 605 027e B1       		.byte	0xb1
 606 027f 5B020000 		.4byte	0x25b
 607 0283 00       		.byte	0
 608 0284 00       		.byte	0
 609 0285 03       		.uleb128 0x3
 610 0286 01080000 		.4byte	.LASF52
 611 028a 06       		.byte	0x6
 612 028b 50       		.byte	0x50
 613 028c 90020000 		.4byte	0x290
 614 0290 06       		.uleb128 0x6
 615 0291 08010000 		.4byte	.LASF53
 616 0295 08       		.byte	0x8
 617 0296 07       		.byte	0x7
 618 0297 B7       		.byte	0xb7
 619 0298 B5020000 		.4byte	0x2b5
 620 029c 07       		.uleb128 0x7
 621 029d 74060000 		.4byte	.LASF30
 622 02a1 07       		.byte	0x7
 623 02a2 B8       		.byte	0xb8
 624 02a3 5B020000 		.4byte	0x25b
 625 02a7 00       		.byte	0
ARM GAS  C:\Users\jo\AppData\Local\Temp\ccvxPQfj.s 			page 12


 626 02a8 07       		.uleb128 0x7
 627 02a9 04060000 		.4byte	.LASF31
 628 02ad 07       		.byte	0x7
 629 02ae B9       		.byte	0xb9
 630 02af 5B020000 		.4byte	0x25b
 631 02b3 04       		.byte	0x4
 632 02b4 00       		.byte	0
 633 02b5 03       		.uleb128 0x3
 634 02b6 13000000 		.4byte	.LASF54
 635 02ba 06       		.byte	0x6
 636 02bb 57       		.byte	0x57
 637 02bc C0020000 		.4byte	0x2c0
 638 02c0 0B       		.uleb128 0xb
 639 02c1 CB030000 		.4byte	.LASF55
 640 02c5 1C       		.byte	0x1c
 641 02c6 07       		.byte	0x7
 642 02c7 9001     		.2byte	0x190
 643 02c9 1C030000 		.4byte	0x31c
 644 02cd 09       		.uleb128 0x9
 645 02ce F0060000 		.4byte	.LASF56
 646 02d2 07       		.byte	0x7
 647 02d3 9101     		.2byte	0x191
 648 02d5 85020000 		.4byte	0x285
 649 02d9 00       		.byte	0
 650 02da 09       		.uleb128 0x9
 651 02db 66060000 		.4byte	.LASF57
 652 02df 07       		.byte	0x7
 653 02e0 9201     		.2byte	0x192
 654 02e2 15010000 		.4byte	0x115
 655 02e6 08       		.byte	0x8
 656 02e7 09       		.uleb128 0x9
 657 02e8 6C050000 		.4byte	.LASF58
 658 02ec 07       		.byte	0x7
 659 02ed 9401     		.2byte	0x194
 660 02ef B6040000 		.4byte	0x4b6
 661 02f3 0C       		.byte	0xc
 662 02f4 09       		.uleb128 0x9
 663 02f5 69020000 		.4byte	.LASF59
 664 02f9 07       		.byte	0x7
 665 02fa 9701     		.2byte	0x197
 666 02fc 5B020000 		.4byte	0x25b
 667 0300 10       		.byte	0x10
 668 0301 09       		.uleb128 0x9
 669 0302 A0050000 		.4byte	.LASF60
 670 0306 07       		.byte	0x7
 671 0307 9801     		.2byte	0x198
 672 0309 5B020000 		.4byte	0x25b
 673 030d 14       		.byte	0x14
 674 030e 09       		.uleb128 0x9
 675 030f 96050000 		.4byte	.LASF61
 676 0313 07       		.byte	0x7
 677 0314 9B01     		.2byte	0x19b
 678 0316 5B020000 		.4byte	0x25b
 679 031a 18       		.byte	0x18
 680 031b 00       		.byte	0
 681 031c 03       		.uleb128 0x3
 682 031d 8C070000 		.4byte	.LASF62
ARM GAS  C:\Users\jo\AppData\Local\Temp\ccvxPQfj.s 			page 13


 683 0321 06       		.byte	0x6
 684 0322 5C       		.byte	0x5c
 685 0323 27030000 		.4byte	0x327
 686 0327 0A       		.uleb128 0xa
 687 0328 04       		.byte	0x4
 688 0329 2D030000 		.4byte	0x32d
 689 032d 0C       		.uleb128 0xc
 690 032e 38030000 		.4byte	0x338
 691 0332 0D       		.uleb128 0xd
 692 0333 38030000 		.4byte	0x338
 693 0337 00       		.byte	0
 694 0338 0E       		.uleb128 0xe
 695 0339 04       		.byte	0x4
 696 033a 03       		.uleb128 0x3
 697 033b F4050000 		.4byte	.LASF63
 698 033f 06       		.byte	0x6
 699 0340 61       		.byte	0x61
 700 0341 45030000 		.4byte	0x345
 701 0345 0B       		.uleb128 0xb
 702 0346 B2060000 		.4byte	.LASF64
 703 034a 14       		.byte	0x14
 704 034b 07       		.byte	0x7
 705 034c 6B01     		.2byte	0x16b
 706 034e 94030000 		.4byte	0x394
 707 0352 09       		.uleb128 0x9
 708 0353 D1020000 		.4byte	.LASF65
 709 0357 07       		.byte	0x7
 710 0358 6C01     		.2byte	0x16c
 711 035a E0060000 		.4byte	0x6e0
 712 035e 00       		.byte	0
 713 035f 09       		.uleb128 0x9
 714 0360 7A020000 		.4byte	.LASF66
 715 0364 07       		.byte	0x7
 716 0365 6D01     		.2byte	0x16d
 717 0367 E0060000 		.4byte	0x6e0
 718 036b 04       		.byte	0x4
 719 036c 09       		.uleb128 0x9
 720 036d F8060000 		.4byte	.LASF67
 721 0371 07       		.byte	0x7
 722 0372 6E01     		.2byte	0x16e
 723 0374 41010000 		.4byte	0x141
 724 0378 08       		.byte	0x8
 725 0379 09       		.uleb128 0x9
 726 037a CC080000 		.4byte	.LASF68
 727 037e 07       		.byte	0x7
 728 037f 6F01     		.2byte	0x16f
 729 0381 1C030000 		.4byte	0x31c
 730 0385 0C       		.byte	0xc
 731 0386 09       		.uleb128 0x9
 732 0387 D8070000 		.4byte	.LASF69
 733 038b 07       		.byte	0x7
 734 038c 7101     		.2byte	0x171
 735 038e 38030000 		.4byte	0x338
 736 0392 10       		.byte	0x10
 737 0393 00       		.byte	0
 738 0394 03       		.uleb128 0x3
 739 0395 E0000000 		.4byte	.LASF70
ARM GAS  C:\Users\jo\AppData\Local\Temp\ccvxPQfj.s 			page 14


 740 0399 06       		.byte	0x6
 741 039a 66       		.byte	0x66
 742 039b 9F030000 		.4byte	0x39f
 743 039f 0B       		.uleb128 0xb
 744 03a0 20050000 		.4byte	.LASF71
 745 03a4 10       		.byte	0x10
 746 03a5 07       		.byte	0x7
 747 03a6 7B01     		.2byte	0x17b
 748 03a8 E1030000 		.4byte	0x3e1
 749 03ac 09       		.uleb128 0x9
 750 03ad D1020000 		.4byte	.LASF65
 751 03b1 07       		.byte	0x7
 752 03b2 7C01     		.2byte	0x17c
 753 03b4 E0060000 		.4byte	0x6e0
 754 03b8 00       		.byte	0
 755 03b9 09       		.uleb128 0x9
 756 03ba 7A020000 		.4byte	.LASF66
 757 03be 07       		.byte	0x7
 758 03bf 7E01     		.2byte	0x17e
 759 03c1 E0060000 		.4byte	0x6e0
 760 03c5 04       		.byte	0x4
 761 03c6 09       		.uleb128 0x9
 762 03c7 F8060000 		.4byte	.LASF67
 763 03cb 07       		.byte	0x7
 764 03cc 8001     		.2byte	0x180
 765 03ce 41010000 		.4byte	0x141
 766 03d2 08       		.byte	0x8
 767 03d3 09       		.uleb128 0x9
 768 03d4 4F050000 		.4byte	.LASF72
 769 03d8 07       		.byte	0x7
 770 03d9 8801     		.2byte	0x188
 771 03db 41010000 		.4byte	0x141
 772 03df 0C       		.byte	0xc
 773 03e0 00       		.byte	0
 774 03e1 03       		.uleb128 0x3
 775 03e2 73000000 		.4byte	.LASF73
 776 03e6 06       		.byte	0x6
 777 03e7 6B       		.byte	0x6b
 778 03e8 EC030000 		.4byte	0x3ec
 779 03ec 0F       		.uleb128 0xf
 780 03ed 1E060000 		.4byte	.LASF74
 781 03f1 1404     		.2byte	0x414
 782 03f3 07       		.byte	0x7
 783 03f4 A201     		.2byte	0x1a2
 784 03f6 2F040000 		.4byte	0x42f
 785 03fa 09       		.uleb128 0x9
 786 03fb A0070000 		.4byte	.LASF75
 787 03ff 07       		.byte	0x7
 788 0400 AA01     		.2byte	0x1aa
 789 0402 E6060000 		.4byte	0x6e6
 790 0406 00       		.byte	0
 791 0407 09       		.uleb128 0x9
 792 0408 22080000 		.4byte	.LASF76
 793 040c 07       		.byte	0x7
 794 040d AF01     		.2byte	0x1af
 795 040f 36010000 		.4byte	0x136
 796 0413 04       		.byte	0x4
ARM GAS  C:\Users\jo\AppData\Local\Temp\ccvxPQfj.s 			page 15


 797 0414 09       		.uleb128 0x9
 798 0415 9A020000 		.4byte	.LASF77
 799 0419 07       		.byte	0x7
 800 041a B301     		.2byte	0x1b3
 801 041c 36010000 		.4byte	0x136
 802 0420 08       		.byte	0x8
 803 0421 09       		.uleb128 0x9
 804 0422 98080000 		.4byte	.LASF78
 805 0426 07       		.byte	0x7
 806 0427 B901     		.2byte	0x1b9
 807 0429 D8050000 		.4byte	0x5d8
 808 042d 0C       		.byte	0xc
 809 042e 00       		.byte	0
 810 042f 03       		.uleb128 0x3
 811 0430 63030000 		.4byte	.LASF79
 812 0434 06       		.byte	0x6
 813 0435 70       		.byte	0x70
 814 0436 3A040000 		.4byte	0x43a
 815 043a 0F       		.uleb128 0xf
 816 043b 9D060000 		.4byte	.LASF80
 817 043f 7005     		.2byte	0x570
 818 0441 07       		.byte	0x7
 819 0442 C201     		.2byte	0x1c2
 820 0444 99040000 		.4byte	0x499
 821 0448 09       		.uleb128 0x9
 822 0449 55080000 		.4byte	.LASF81
 823 044d 07       		.byte	0x7
 824 044e C601     		.2byte	0x1c6
 825 0450 B5020000 		.4byte	0x2b5
 826 0454 00       		.byte	0
 827 0455 09       		.uleb128 0x9
 828 0456 82020000 		.4byte	.LASF82
 829 045a 07       		.byte	0x7
 830 045b CA01     		.2byte	0x1ca
 831 045d 94030000 		.4byte	0x394
 832 0461 1C       		.byte	0x1c
 833 0462 08       		.uleb128 0x8
 834 0463 64626700 		.ascii	"dbg\000"
 835 0467 07       		.byte	0x7
 836 0468 CE01     		.2byte	0x1ce
 837 046a E1030000 		.4byte	0x3e1
 838 046e 2C       		.byte	0x2c
 839 046f 10       		.uleb128 0x10
 840 0470 D5000000 		.4byte	.LASF83
 841 0474 07       		.byte	0x7
 842 0475 D201     		.2byte	0x1d2
 843 0477 4C010000 		.4byte	0x14c
 844 047b 4004     		.2byte	0x440
 845 047d 11       		.uleb128 0x11
 846 047e 746D00   		.ascii	"tm\000"
 847 0481 07       		.byte	0x7
 848 0482 D701     		.2byte	0x1d7
 849 0484 F8050000 		.4byte	0x5f8
 850 0488 8804     		.2byte	0x488
 851 048a 10       		.uleb128 0x10
 852 048b 8E060000 		.4byte	.LASF84
 853 048f 07       		.byte	0x7
ARM GAS  C:\Users\jo\AppData\Local\Temp\ccvxPQfj.s 			page 16


 854 0490 E301     		.2byte	0x1e3
 855 0492 EB060000 		.4byte	0x6eb
 856 0496 9004     		.2byte	0x490
 857 0498 00       		.byte	0
 858 0499 04       		.uleb128 0x4
 859 049a 04       		.byte	0x4
 860 049b 07       		.byte	0x7
 861 049c 04050000 		.4byte	.LASF85
 862 04a0 03       		.uleb128 0x3
 863 04a1 71020000 		.4byte	.LASF86
 864 04a5 08       		.byte	0x8
 865 04a6 65       		.byte	0x65
 866 04a7 38030000 		.4byte	0x338
 867 04ab 03       		.uleb128 0x3
 868 04ac D1040000 		.4byte	.LASF87
 869 04b0 08       		.byte	0x8
 870 04b1 6D       		.byte	0x6d
 871 04b2 D9000000 		.4byte	0xd9
 872 04b6 06       		.uleb128 0x6
 873 04b7 BA070000 		.4byte	.LASF88
 874 04bb 04       		.byte	0x4
 875 04bc 08       		.byte	0x8
 876 04bd 89       		.byte	0x89
 877 04be CF040000 		.4byte	0x4cf
 878 04c2 12       		.uleb128 0x12
 879 04c3 72313300 		.ascii	"r13\000"
 880 04c7 08       		.byte	0x8
 881 04c8 8A       		.byte	0x8a
 882 04c9 4A050000 		.4byte	0x54a
 883 04cd 00       		.byte	0
 884 04ce 00       		.byte	0
 885 04cf 06       		.uleb128 0x6
 886 04d0 67000000 		.4byte	.LASF89
 887 04d4 24       		.byte	0x24
 888 04d5 09       		.byte	0x9
 889 04d6 F4       		.byte	0xf4
 890 04d7 4A050000 		.4byte	0x54a
 891 04db 08       		.uleb128 0x8
 892 04dc 723400   		.ascii	"r4\000"
 893 04df 09       		.byte	0x9
 894 04e0 0701     		.2byte	0x107
 895 04e2 A0040000 		.4byte	0x4a0
 896 04e6 00       		.byte	0
 897 04e7 08       		.uleb128 0x8
 898 04e8 723500   		.ascii	"r5\000"
 899 04eb 09       		.byte	0x9
 900 04ec 0801     		.2byte	0x108
 901 04ee A0040000 		.4byte	0x4a0
 902 04f2 04       		.byte	0x4
 903 04f3 08       		.uleb128 0x8
 904 04f4 723600   		.ascii	"r6\000"
 905 04f7 09       		.byte	0x9
 906 04f8 0901     		.2byte	0x109
 907 04fa A0040000 		.4byte	0x4a0
 908 04fe 08       		.byte	0x8
 909 04ff 08       		.uleb128 0x8
 910 0500 723700   		.ascii	"r7\000"
ARM GAS  C:\Users\jo\AppData\Local\Temp\ccvxPQfj.s 			page 17


 911 0503 09       		.byte	0x9
 912 0504 0A01     		.2byte	0x10a
 913 0506 A0040000 		.4byte	0x4a0
 914 050a 0C       		.byte	0xc
 915 050b 08       		.uleb128 0x8
 916 050c 723800   		.ascii	"r8\000"
 917 050f 09       		.byte	0x9
 918 0510 0B01     		.2byte	0x10b
 919 0512 A0040000 		.4byte	0x4a0
 920 0516 10       		.byte	0x10
 921 0517 08       		.uleb128 0x8
 922 0518 723900   		.ascii	"r9\000"
 923 051b 09       		.byte	0x9
 924 051c 0C01     		.2byte	0x10c
 925 051e A0040000 		.4byte	0x4a0
 926 0522 14       		.byte	0x14
 927 0523 08       		.uleb128 0x8
 928 0524 72313000 		.ascii	"r10\000"
 929 0528 09       		.byte	0x9
 930 0529 0D01     		.2byte	0x10d
 931 052b A0040000 		.4byte	0x4a0
 932 052f 18       		.byte	0x18
 933 0530 08       		.uleb128 0x8
 934 0531 72313100 		.ascii	"r11\000"
 935 0535 09       		.byte	0x9
 936 0536 0E01     		.2byte	0x10e
 937 0538 A0040000 		.4byte	0x4a0
 938 053c 1C       		.byte	0x1c
 939 053d 08       		.uleb128 0x8
 940 053e 6C7200   		.ascii	"lr\000"
 941 0541 09       		.byte	0x9
 942 0542 0F01     		.2byte	0x10f
 943 0544 A0040000 		.4byte	0x4a0
 944 0548 20       		.byte	0x20
 945 0549 00       		.byte	0
 946 054a 0A       		.uleb128 0xa
 947 054b 04       		.byte	0x4
 948 054c CF040000 		.4byte	0x4cf
 949 0550 13       		.uleb128 0x13
 950 0551 10       		.byte	0x10
 951 0552 0A       		.byte	0xa
 952 0553 51       		.byte	0x51
 953 0554 89050000 		.4byte	0x589
 954 0558 07       		.uleb128 0x7
 955 0559 20000000 		.4byte	.LASF90
 956 055d 0A       		.byte	0xa
 957 055e 55       		.byte	0x55
 958 055f 41010000 		.4byte	0x141
 959 0563 00       		.byte	0
 960 0564 07       		.uleb128 0x7
 961 0565 17020000 		.4byte	.LASF91
 962 0569 0A       		.byte	0xa
 963 056a 59       		.byte	0x59
 964 056b 5B020000 		.4byte	0x25b
 965 056f 04       		.byte	0x4
 966 0570 07       		.uleb128 0x7
 967 0571 BC080000 		.4byte	.LASF92
ARM GAS  C:\Users\jo\AppData\Local\Temp\ccvxPQfj.s 			page 18


 968 0575 0A       		.byte	0xa
 969 0576 5D       		.byte	0x5d
 970 0577 38030000 		.4byte	0x338
 971 057b 08       		.byte	0x8
 972 057c 07       		.uleb128 0x7
 973 057d C3000000 		.4byte	.LASF93
 974 0581 0A       		.byte	0xa
 975 0582 61       		.byte	0x61
 976 0583 AD000000 		.4byte	0xad
 977 0587 0C       		.byte	0xc
 978 0588 00       		.byte	0
 979 0589 03       		.uleb128 0x3
 980 058a 40050000 		.4byte	.LASF94
 981 058e 0A       		.byte	0xa
 982 058f 62       		.byte	0x62
 983 0590 50050000 		.4byte	0x550
 984 0594 14       		.uleb128 0x14
 985 0595 0804     		.2byte	0x408
 986 0597 0A       		.byte	0xa
 987 0598 67       		.byte	0x67
 988 0599 C2050000 		.4byte	0x5c2
 989 059d 07       		.uleb128 0x7
 990 059e 61020000 		.4byte	.LASF95
 991 05a2 0A       		.byte	0xa
 992 05a3 6B       		.byte	0x6b
 993 05a4 37000000 		.4byte	0x37
 994 05a8 00       		.byte	0
 995 05a9 07       		.uleb128 0x7
 996 05aa 0C000000 		.4byte	.LASF96
 997 05ae 0A       		.byte	0xa
 998 05af 6F       		.byte	0x6f
 999 05b0 C2050000 		.4byte	0x5c2
 1000 05b4 04       		.byte	0x4
 1001 05b5 07       		.uleb128 0x7
 1002 05b6 DC050000 		.4byte	.LASF97
 1003 05ba 0A       		.byte	0xa
 1004 05bb 73       		.byte	0x73
 1005 05bc C8050000 		.4byte	0x5c8
 1006 05c0 08       		.byte	0x8
 1007 05c1 00       		.byte	0
 1008 05c2 0A       		.uleb128 0xa
 1009 05c3 04       		.byte	0x4
 1010 05c4 89050000 		.4byte	0x589
 1011 05c8 15       		.uleb128 0x15
 1012 05c9 89050000 		.4byte	0x589
 1013 05cd D8050000 		.4byte	0x5d8
 1014 05d1 16       		.uleb128 0x16
 1015 05d2 99040000 		.4byte	0x499
 1016 05d6 3F       		.byte	0x3f
 1017 05d7 00       		.byte	0
 1018 05d8 03       		.uleb128 0x3
 1019 05d9 B1000000 		.4byte	.LASF98
 1020 05dd 0A       		.byte	0xa
 1021 05de 74       		.byte	0x74
 1022 05df 94050000 		.4byte	0x594
 1023 05e3 13       		.uleb128 0x13
 1024 05e4 04       		.byte	0x4
ARM GAS  C:\Users\jo\AppData\Local\Temp\ccvxPQfj.s 			page 19


 1025 05e5 0B       		.byte	0xb
 1026 05e6 38       		.byte	0x38
 1027 05e7 F8050000 		.4byte	0x5f8
 1028 05eb 07       		.uleb128 0x7
 1029 05ec AA070000 		.4byte	.LASF99
 1030 05f0 0B       		.byte	0xb
 1031 05f1 3C       		.byte	0x3c
 1032 05f2 E9000000 		.4byte	0xe9
 1033 05f6 00       		.byte	0
 1034 05f7 00       		.byte	0
 1035 05f8 03       		.uleb128 0x3
 1036 05f9 72050000 		.4byte	.LASF100
 1037 05fd 0B       		.byte	0xb
 1038 05fe 3D       		.byte	0x3d
 1039 05ff E3050000 		.4byte	0x5e3
 1040 0603 17       		.uleb128 0x17
 1041 0604 04       		.byte	0x4
 1042 0605 07       		.byte	0x7
 1043 0606 FA       		.byte	0xfa
 1044 0607 60060000 		.4byte	0x660
 1045 060b 18       		.uleb128 0x18
 1046 060c 47000000 		.4byte	.LASF101
 1047 0610 07       		.byte	0x7
 1048 0611 0101     		.2byte	0x101
 1049 0613 20010000 		.4byte	0x120
 1050 0617 18       		.uleb128 0x18
 1051 0618 CC000000 		.4byte	.LASF102
 1052 061c 07       		.byte	0x7
 1053 061d 0801     		.2byte	0x108
 1054 061f 20010000 		.4byte	0x120
 1055 0623 18       		.uleb128 0x18
 1056 0624 76080000 		.4byte	.LASF103
 1057 0628 07       		.byte	0x7
 1058 0629 0F01     		.2byte	0x10f
 1059 062b 38030000 		.4byte	0x338
 1060 062f 18       		.uleb128 0x18
 1061 0630 D4010000 		.4byte	.LASF104
 1062 0634 07       		.byte	0x7
 1063 0635 1601     		.2byte	0x116
 1064 0637 60060000 		.4byte	0x660
 1065 063b 18       		.uleb128 0x18
 1066 063c D9020000 		.4byte	.LASF105
 1067 0640 07       		.byte	0x7
 1068 0641 1E01     		.2byte	0x11e
 1069 0643 8B060000 		.4byte	0x68b
 1070 0647 18       		.uleb128 0x18
 1071 0648 E9060000 		.4byte	.LASF106
 1072 064c 07       		.byte	0x7
 1073 064d 2701     		.2byte	0x127
 1074 064f C2060000 		.4byte	0x6c2
 1075 0653 18       		.uleb128 0x18
 1076 0654 6D060000 		.4byte	.LASF107
 1077 0658 07       		.byte	0x7
 1078 0659 2F01     		.2byte	0x12f
 1079 065b 2B010000 		.4byte	0x12b
 1080 065f 00       		.byte	0
 1081 0660 0A       		.uleb128 0xa
ARM GAS  C:\Users\jo\AppData\Local\Temp\ccvxPQfj.s 			page 20


 1082 0661 04       		.byte	0x4
 1083 0662 50020000 		.4byte	0x250
 1084 0666 06       		.uleb128 0x6
 1085 0667 C3060000 		.4byte	.LASF108
 1086 066b 0C       		.byte	0xc
 1087 066c 0C       		.byte	0xc
 1088 066d 34       		.byte	0x34
 1089 066e 8B060000 		.4byte	0x68b
 1090 0672 07       		.uleb128 0x7
 1091 0673 35020000 		.4byte	.LASF109
 1092 0677 0C       		.byte	0xc
 1093 0678 35       		.byte	0x35
 1094 0679 85020000 		.4byte	0x285
 1095 067d 00       		.byte	0
 1096 067e 07       		.uleb128 0x7
 1097 067f 11030000 		.4byte	.LASF110
 1098 0683 0C       		.byte	0xc
 1099 0684 37       		.byte	0x37
 1100 0685 36010000 		.4byte	0x136
 1101 0689 08       		.byte	0x8
 1102 068a 00       		.byte	0
 1103 068b 0A       		.uleb128 0xa
 1104 068c 04       		.byte	0x4
 1105 068d 66060000 		.4byte	0x666
 1106 0691 06       		.uleb128 0x6
 1107 0692 B1070000 		.4byte	.LASF111
 1108 0696 10       		.byte	0x10
 1109 0697 0D       		.byte	0xd
 1110 0698 39       		.byte	0x39
 1111 0699 C2060000 		.4byte	0x6c2
 1112 069d 07       		.uleb128 0x7
 1113 069e B4010000 		.4byte	.LASF112
 1114 06a2 0D       		.byte	0xd
 1115 06a3 3A       		.byte	0x3a
 1116 06a4 85020000 		.4byte	0x285
 1117 06a8 00       		.byte	0
 1118 06a9 07       		.uleb128 0x7
 1119 06aa B4080000 		.4byte	.LASF113
 1120 06ae 0D       		.byte	0xd
 1121 06af 3C       		.byte	0x3c
 1122 06b0 5B020000 		.4byte	0x25b
 1123 06b4 08       		.byte	0x8
 1124 06b5 07       		.uleb128 0x7
 1125 06b6 7B070000 		.4byte	.LASF114
 1126 06ba 0D       		.byte	0xd
 1127 06bb 3E       		.byte	0x3e
 1128 06bc 06070000 		.4byte	0x706
 1129 06c0 0C       		.byte	0xc
 1130 06c1 00       		.byte	0
 1131 06c2 0A       		.uleb128 0xa
 1132 06c3 04       		.byte	0x4
 1133 06c4 91060000 		.4byte	0x691
 1134 06c8 0A       		.uleb128 0xa
 1135 06c9 04       		.byte	0x4
 1136 06ca CE060000 		.4byte	0x6ce
 1137 06ce 19       		.uleb128 0x19
 1138 06cf D3060000 		.4byte	0x6d3
ARM GAS  C:\Users\jo\AppData\Local\Temp\ccvxPQfj.s 			page 21


 1139 06d3 04       		.uleb128 0x4
 1140 06d4 01       		.byte	0x1
 1141 06d5 08       		.byte	0x8
 1142 06d6 2E070000 		.4byte	.LASF115
 1143 06da 0A       		.uleb128 0xa
 1144 06db 04       		.byte	0x4
 1145 06dc AB040000 		.4byte	0x4ab
 1146 06e0 0A       		.uleb128 0xa
 1147 06e1 04       		.byte	0x4
 1148 06e2 3A030000 		.4byte	0x33a
 1149 06e6 05       		.uleb128 0x5
 1150 06e7 C8060000 		.4byte	0x6c8
 1151 06eb 15       		.uleb128 0x15
 1152 06ec AB040000 		.4byte	0x4ab
 1153 06f0 FB060000 		.4byte	0x6fb
 1154 06f4 16       		.uleb128 0x16
 1155 06f5 99040000 		.4byte	0x499
 1156 06f9 1B       		.byte	0x1b
 1157 06fa 00       		.byte	0
 1158 06fb 03       		.uleb128 0x3
 1159 06fc 92020000 		.4byte	.LASF116
 1160 0700 0D       		.byte	0xd
 1161 0701 34       		.byte	0x34
 1162 0702 91060000 		.4byte	0x691
 1163 0706 0A       		.uleb128 0xa
 1164 0707 04       		.byte	0x4
 1165 0708 FB060000 		.4byte	0x6fb
 1166 070c 04       		.uleb128 0x4
 1167 070d 01       		.byte	0x1
 1168 070e 02       		.byte	0x2
 1169 070f 2E060000 		.4byte	.LASF117
 1170 0713 0A       		.uleb128 0xa
 1171 0714 04       		.byte	0x4
 1172 0715 D3060000 		.4byte	0x6d3
 1173 0719 15       		.uleb128 0x15
 1174 071a D3060000 		.4byte	0x6d3
 1175 071e 29070000 		.4byte	0x729
 1176 0722 16       		.uleb128 0x16
 1177 0723 99040000 		.4byte	0x499
 1178 0727 07       		.byte	0x7
 1179 0728 00       		.byte	0
 1180 0729 03       		.uleb128 0x3
 1181 072a 95010000 		.4byte	.LASF118
 1182 072e 0E       		.byte	0xe
 1183 072f 3F       		.byte	0x3f
 1184 0730 AD000000 		.4byte	0xad
 1185 0734 03       		.uleb128 0x3
 1186 0735 DF070000 		.4byte	.LASF119
 1187 0739 0E       		.byte	0xe
 1188 073a 41       		.byte	0x41
 1189 073b B8000000 		.4byte	0xb8
 1190 073f 03       		.uleb128 0x3
 1191 0740 F5020000 		.4byte	.LASF120
 1192 0744 0E       		.byte	0xe
 1193 0745 43       		.byte	0x43
 1194 0746 CE000000 		.4byte	0xce
 1195 074a 06       		.uleb128 0x6
ARM GAS  C:\Users\jo\AppData\Local\Temp\ccvxPQfj.s 			page 22


 1196 074b D4080000 		.4byte	.LASF121
 1197 074f 04       		.byte	0x4
 1198 0750 0F       		.byte	0xf
 1199 0751 2C       		.byte	0x2c
 1200 0752 63070000 		.4byte	0x763
 1201 0756 07       		.uleb128 0x7
 1202 0757 CA020000 		.4byte	.LASF122
 1203 075b 0F       		.byte	0xf
 1204 075c 2D       		.byte	0x2d
 1205 075d 3F070000 		.4byte	0x73f
 1206 0761 00       		.byte	0
 1207 0762 00       		.byte	0
 1208 0763 06       		.uleb128 0x6
 1209 0764 49080000 		.4byte	.LASF123
 1210 0768 10       		.byte	0x10
 1211 0769 10       		.byte	0x10
 1212 076a 33       		.byte	0x33
 1213 076b AC070000 		.4byte	0x7ac
 1214 076f 07       		.uleb128 0x7
 1215 0770 83050000 		.4byte	.LASF124
 1216 0774 10       		.byte	0x10
 1217 0775 34       		.byte	0x34
 1218 0776 29070000 		.4byte	0x729
 1219 077a 00       		.byte	0
 1220 077b 07       		.uleb128 0x7
 1221 077c EA040000 		.4byte	.LASF125
 1222 0780 10       		.byte	0x10
 1223 0781 35       		.byte	0x35
 1224 0782 29070000 		.4byte	0x729
 1225 0786 01       		.byte	0x1
 1226 0787 07       		.uleb128 0x7
 1227 0788 C1050000 		.4byte	.LASF126
 1228 078c 10       		.byte	0x10
 1229 078d 36       		.byte	0x36
 1230 078e 34070000 		.4byte	0x734
 1231 0792 02       		.byte	0x2
 1232 0793 07       		.uleb128 0x7
 1233 0794 34030000 		.4byte	.LASF127
 1234 0798 10       		.byte	0x10
 1235 0799 37       		.byte	0x37
 1236 079a 4A070000 		.4byte	0x74a
 1237 079e 04       		.byte	0x4
 1238 079f 07       		.uleb128 0x7
 1239 07a0 89020000 		.4byte	.LASF128
 1240 07a4 10       		.byte	0x10
 1241 07a5 38       		.byte	0x38
 1242 07a6 19070000 		.4byte	0x719
 1243 07aa 08       		.byte	0x8
 1244 07ab 00       		.byte	0
 1245 07ac 1A       		.uleb128 0x1a
 1246 07ad 3E070000 		.4byte	.LASF129
 1247 07b1 6406     		.2byte	0x664
 1248 07b3 11       		.byte	0x11
 1249 07b4 3A       		.byte	0x3a
 1250 07b5 12080000 		.4byte	0x812
 1251 07b9 07       		.uleb128 0x7
 1252 07ba CA050000 		.4byte	.LASF130
ARM GAS  C:\Users\jo\AppData\Local\Temp\ccvxPQfj.s 			page 23


 1253 07be 11       		.byte	0x11
 1254 07bf 3B       		.byte	0x3b
 1255 07c0 25000000 		.4byte	0x25
 1256 07c4 00       		.byte	0
 1257 07c5 07       		.uleb128 0x7
 1258 07c6 DC080000 		.4byte	.LASF131
 1259 07ca 11       		.byte	0x11
 1260 07cb 3C       		.byte	0x3c
 1261 07cc 25000000 		.4byte	0x25
 1262 07d0 04       		.byte	0x4
 1263 07d1 07       		.uleb128 0x7
 1264 07d2 5B080000 		.4byte	.LASF132
 1265 07d6 11       		.byte	0x11
 1266 07d7 3D       		.byte	0x3d
 1267 07d8 12080000 		.4byte	0x812
 1268 07dc 08       		.byte	0x8
 1269 07dd 1B       		.uleb128 0x1b
 1270 07de 13060000 		.4byte	.LASF133
 1271 07e2 11       		.byte	0x11
 1272 07e3 3E       		.byte	0x3e
 1273 07e4 25000000 		.4byte	0x25
 1274 07e8 3C06     		.2byte	0x63c
 1275 07ea 1B       		.uleb128 0x1b
 1276 07eb B2020000 		.4byte	.LASF134
 1277 07ef 11       		.byte	0x11
 1278 07f0 3F       		.byte	0x3f
 1279 07f1 25000000 		.4byte	0x25
 1280 07f5 4006     		.2byte	0x640
 1281 07f7 1B       		.uleb128 0x1b
 1282 07f8 11070000 		.4byte	.LASF135
 1283 07fc 11       		.byte	0x11
 1284 07fd 40       		.byte	0x40
 1285 07fe 63070000 		.4byte	0x763
 1286 0802 4406     		.2byte	0x644
 1287 0804 1B       		.uleb128 0x1b
 1288 0805 17030000 		.4byte	.LASF136
 1289 0809 11       		.byte	0x11
 1290 080a 41       		.byte	0x41
 1291 080b 63070000 		.4byte	0x763
 1292 080f 5406     		.2byte	0x654
 1293 0811 00       		.byte	0
 1294 0812 15       		.uleb128 0x15
 1295 0813 D3060000 		.4byte	0x6d3
 1296 0817 23080000 		.4byte	0x823
 1297 081b 1C       		.uleb128 0x1c
 1298 081c 99040000 		.4byte	0x499
 1299 0820 3306     		.2byte	0x633
 1300 0822 00       		.byte	0
 1301 0823 03       		.uleb128 0x3
 1302 0824 77030000 		.4byte	.LASF137
 1303 0828 12       		.byte	0x12
 1304 0829 3D       		.byte	0x3d
 1305 082a AC070000 		.4byte	0x7ac
 1306 082e 0A       		.uleb128 0xa
 1307 082f 04       		.byte	0x4
 1308 0830 23080000 		.4byte	0x823
 1309 0834 03       		.uleb128 0x3
ARM GAS  C:\Users\jo\AppData\Local\Temp\ccvxPQfj.s 			page 24


 1310 0835 35080000 		.4byte	.LASF138
 1311 0839 13       		.byte	0x13
 1312 083a 89       		.byte	0x89
 1313 083b 3F080000 		.4byte	0x83f
 1314 083f 06       		.uleb128 0x6
 1315 0840 E6050000 		.4byte	.LASF139
 1316 0844 4C       		.byte	0x4c
 1317 0845 13       		.byte	0x13
 1318 0846 8C       		.byte	0x8c
 1319 0847 30090000 		.4byte	0x930
 1320 084b 07       		.uleb128 0x7
 1321 084c 2A080000 		.4byte	.LASF140
 1322 0850 13       		.byte	0x13
 1323 0851 8D       		.byte	0x8d
 1324 0852 25000000 		.4byte	0x25
 1325 0856 00       		.byte	0
 1326 0857 07       		.uleb128 0x7
 1327 0858 0F020000 		.4byte	.LASF141
 1328 085c 13       		.byte	0x13
 1329 085d 8E       		.byte	0x8e
 1330 085e 13070000 		.4byte	0x713
 1331 0862 04       		.byte	0x4
 1332 0863 07       		.uleb128 0x7
 1333 0864 2F000000 		.4byte	.LASF142
 1334 0868 13       		.byte	0x13
 1335 0869 8F       		.byte	0x8f
 1336 086a 25000000 		.4byte	0x25
 1337 086e 08       		.byte	0x8
 1338 086f 07       		.uleb128 0x7
 1339 0870 4E000000 		.4byte	.LASF143
 1340 0874 13       		.byte	0x13
 1341 0875 90       		.byte	0x90
 1342 0876 13070000 		.4byte	0x713
 1343 087a 0C       		.byte	0xc
 1344 087b 07       		.uleb128 0x7
 1345 087c AB010000 		.4byte	.LASF144
 1346 0880 13       		.byte	0x13
 1347 0881 91       		.byte	0x91
 1348 0882 13070000 		.4byte	0x713
 1349 0886 10       		.byte	0x10
 1350 0887 07       		.uleb128 0x7
 1351 0888 9A010000 		.4byte	.LASF145
 1352 088c 13       		.byte	0x13
 1353 088d 92       		.byte	0x92
 1354 088e 13070000 		.4byte	0x713
 1355 0892 14       		.byte	0x14
 1356 0893 07       		.uleb128 0x7
 1357 0894 CB010000 		.4byte	.LASF146
 1358 0898 13       		.byte	0x13
 1359 0899 93       		.byte	0x93
 1360 089a 13070000 		.4byte	0x713
 1361 089e 18       		.byte	0x18
 1362 089f 07       		.uleb128 0x7
 1363 08a0 BC010000 		.4byte	.LASF147
 1364 08a4 13       		.byte	0x13
 1365 08a5 94       		.byte	0x94
 1366 08a6 25000000 		.4byte	0x25
ARM GAS  C:\Users\jo\AppData\Local\Temp\ccvxPQfj.s 			page 25


 1367 08aa 1C       		.byte	0x1c
 1368 08ab 07       		.uleb128 0x7
 1369 08ac 47030000 		.4byte	.LASF148
 1370 08b0 13       		.byte	0x13
 1371 08b1 96       		.byte	0x96
 1372 08b2 7B000000 		.4byte	0x7b
 1373 08b6 20       		.byte	0x20
 1374 08b7 07       		.uleb128 0x7
 1375 08b8 E0020000 		.4byte	.LASF149
 1376 08bc 13       		.byte	0x13
 1377 08bd 97       		.byte	0x97
 1378 08be 13070000 		.4byte	0x713
 1379 08c2 24       		.byte	0x24
 1380 08c3 07       		.uleb128 0x7
 1381 08c4 AB080000 		.4byte	.LASF150
 1382 08c8 13       		.byte	0x13
 1383 08c9 98       		.byte	0x98
 1384 08ca 13070000 		.4byte	0x713
 1385 08ce 28       		.byte	0x28
 1386 08cf 07       		.uleb128 0x7
 1387 08d0 8F000000 		.4byte	.LASF151
 1388 08d4 13       		.byte	0x13
 1389 08d5 99       		.byte	0x99
 1390 08d6 13070000 		.4byte	0x713
 1391 08da 2C       		.byte	0x2c
 1392 08db 07       		.uleb128 0x7
 1393 08dc A3020000 		.4byte	.LASF152
 1394 08e0 13       		.byte	0x13
 1395 08e1 9A       		.byte	0x9a
 1396 08e2 13070000 		.4byte	0x713
 1397 08e6 30       		.byte	0x30
 1398 08e7 07       		.uleb128 0x7
 1399 08e8 DA010000 		.4byte	.LASF153
 1400 08ec 13       		.byte	0x13
 1401 08ed 9B       		.byte	0x9b
 1402 08ee 13070000 		.4byte	0x713
 1403 08f2 34       		.byte	0x34
 1404 08f3 07       		.uleb128 0x7
 1405 08f4 3B000000 		.4byte	.LASF154
 1406 08f8 13       		.byte	0x13
 1407 08f9 9F       		.byte	0x9f
 1408 08fa 13070000 		.4byte	0x713
 1409 08fe 38       		.byte	0x38
 1410 08ff 07       		.uleb128 0x7
 1411 0900 37050000 		.4byte	.LASF155
 1412 0904 13       		.byte	0x13
 1413 0905 A0       		.byte	0xa0
 1414 0906 13070000 		.4byte	0x713
 1415 090a 3C       		.byte	0x3c
 1416 090b 07       		.uleb128 0x7
 1417 090c E5070000 		.4byte	.LASF156
 1418 0910 13       		.byte	0x13
 1419 0911 A1       		.byte	0xa1
 1420 0912 13070000 		.4byte	0x713
 1421 0916 40       		.byte	0x40
 1422 0917 07       		.uleb128 0x7
 1423 0918 CA070000 		.4byte	.LASF157
ARM GAS  C:\Users\jo\AppData\Local\Temp\ccvxPQfj.s 			page 26


 1424 091c 13       		.byte	0x13
 1425 091d A2       		.byte	0xa2
 1426 091e 13070000 		.4byte	0x713
 1427 0922 44       		.byte	0x44
 1428 0923 07       		.uleb128 0x7
 1429 0924 6E010000 		.4byte	.LASF158
 1430 0928 13       		.byte	0x13
 1431 0929 A3       		.byte	0xa3
 1432 092a 13070000 		.4byte	0x713
 1433 092e 48       		.byte	0x48
 1434 092f 00       		.byte	0
 1435 0930 03       		.uleb128 0x3
 1436 0931 ED010000 		.4byte	.LASF159
 1437 0935 13       		.byte	0x13
 1438 0936 A8       		.byte	0xa8
 1439 0937 3B090000 		.4byte	0x93b
 1440 093b 06       		.uleb128 0x6
 1441 093c F2070000 		.4byte	.LASF160
 1442 0940 50       		.byte	0x50
 1443 0941 13       		.byte	0x13
 1444 0942 AB       		.byte	0xab
 1445 0943 60090000 		.4byte	0x960
 1446 0947 07       		.uleb128 0x7
 1447 0948 6D080000 		.4byte	.LASF161
 1448 094c 13       		.byte	0x13
 1449 094d AC       		.byte	0xac
 1450 094e 2E080000 		.4byte	0x82e
 1451 0952 00       		.byte	0
 1452 0953 07       		.uleb128 0x7
 1453 0954 E4040000 		.4byte	.LASF162
 1454 0958 13       		.byte	0x13
 1455 0959 AD       		.byte	0xad
 1456 095a 34080000 		.4byte	0x834
 1457 095e 04       		.byte	0x4
 1458 095f 00       		.byte	0
 1459 0960 0A       		.uleb128 0xa
 1460 0961 04       		.byte	0x4
 1461 0962 30090000 		.4byte	0x930
 1462 0966 03       		.uleb128 0x3
 1463 0967 50020000 		.4byte	.LASF163
 1464 096b 14       		.byte	0x14
 1465 096c 3A       		.byte	0x3a
 1466 096d 71090000 		.4byte	0x971
 1467 0971 06       		.uleb128 0x6
 1468 0972 A7060000 		.4byte	.LASF164
 1469 0976 24       		.byte	0x24
 1470 0977 14       		.byte	0x14
 1471 0978 3F       		.byte	0x3f
 1472 0979 C6090000 		.4byte	0x9c6
 1473 097d 07       		.uleb128 0x7
 1474 097e 04020000 		.4byte	.LASF165
 1475 0982 14       		.byte	0x14
 1476 0983 41       		.byte	0x41
 1477 0984 FB090000 		.4byte	0x9fb
 1478 0988 00       		.byte	0
 1479 0989 07       		.uleb128 0x7
 1480 098a 83060000 		.4byte	.LASF166
ARM GAS  C:\Users\jo\AppData\Local\Temp\ccvxPQfj.s 			page 27


 1481 098e 14       		.byte	0x14
 1482 098f 43       		.byte	0x43
 1483 0990 13070000 		.4byte	0x713
 1484 0994 08       		.byte	0x8
 1485 0995 07       		.uleb128 0x7
 1486 0996 4B070000 		.4byte	.LASF167
 1487 099a 14       		.byte	0x14
 1488 099b 45       		.byte	0x45
 1489 099c 13070000 		.4byte	0x713
 1490 09a0 0C       		.byte	0xc
 1491 09a1 07       		.uleb128 0x7
 1492 09a2 00000000 		.4byte	.LASF168
 1493 09a6 14       		.byte	0x14
 1494 09a7 47       		.byte	0x47
 1495 09a8 37000000 		.4byte	0x37
 1496 09ac 10       		.byte	0x10
 1497 09ad 07       		.uleb128 0x7
 1498 09ae 6D070000 		.4byte	.LASF169
 1499 09b2 14       		.byte	0x14
 1500 09b3 49       		.byte	0x49
 1501 09b4 C6090000 		.4byte	0x9c6
 1502 09b8 14       		.byte	0x14
 1503 09b9 07       		.uleb128 0x7
 1504 09ba 11080000 		.4byte	.LASF170
 1505 09be 14       		.byte	0x14
 1506 09bf 4B       		.byte	0x4b
 1507 09c0 220A0000 		.4byte	0xa22
 1508 09c4 18       		.byte	0x18
 1509 09c5 00       		.byte	0
 1510 09c6 03       		.uleb128 0x3
 1511 09c7 22030000 		.4byte	.LASF171
 1512 09cb 14       		.byte	0x14
 1513 09cc 3C       		.byte	0x3c
 1514 09cd D1090000 		.4byte	0x9d1
 1515 09d1 0A       		.uleb128 0xa
 1516 09d2 04       		.byte	0x4
 1517 09d3 D7090000 		.4byte	0x9d7
 1518 09d7 1D       		.uleb128 0x1d
 1519 09d8 25000000 		.4byte	0x25
 1520 09dc F0090000 		.4byte	0x9f0
 1521 09e0 0D       		.uleb128 0xd
 1522 09e1 60090000 		.4byte	0x960
 1523 09e5 0D       		.uleb128 0xd
 1524 09e6 F0090000 		.4byte	0x9f0
 1525 09ea 0D       		.uleb128 0xd
 1526 09eb C8060000 		.4byte	0x6c8
 1527 09ef 00       		.byte	0
 1528 09f0 0A       		.uleb128 0xa
 1529 09f1 04       		.byte	0x4
 1530 09f2 F6090000 		.4byte	0x9f6
 1531 09f6 19       		.uleb128 0x19
 1532 09f7 66090000 		.4byte	0x966
 1533 09fb 13       		.uleb128 0x13
 1534 09fc 08       		.byte	0x8
 1535 09fd 14       		.byte	0x14
 1536 09fe 41       		.byte	0x41
 1537 09ff 1C0A0000 		.4byte	0xa1c
ARM GAS  C:\Users\jo\AppData\Local\Temp\ccvxPQfj.s 			page 28


 1538 0a03 07       		.uleb128 0x7
 1539 0a04 62000000 		.4byte	.LASF172
 1540 0a08 14       		.byte	0x14
 1541 0a09 41       		.byte	0x41
 1542 0a0a 1C0A0000 		.4byte	0xa1c
 1543 0a0e 00       		.byte	0
 1544 0a0f 07       		.uleb128 0x7
 1545 0a10 84080000 		.4byte	.LASF173
 1546 0a14 14       		.byte	0x14
 1547 0a15 41       		.byte	0x41
 1548 0a16 1C0A0000 		.4byte	0xa1c
 1549 0a1a 04       		.byte	0x4
 1550 0a1b 00       		.byte	0
 1551 0a1c 0A       		.uleb128 0xa
 1552 0a1d 04       		.byte	0x4
 1553 0a1e 66090000 		.4byte	0x966
 1554 0a22 15       		.uleb128 0x15
 1555 0a23 D3060000 		.4byte	0x6d3
 1556 0a27 320A0000 		.4byte	0xa32
 1557 0a2b 16       		.uleb128 0x16
 1558 0a2c 99040000 		.4byte	0x499
 1559 0a30 08       		.byte	0x8
 1560 0a31 00       		.byte	0
 1561 0a32 13       		.uleb128 0x13
 1562 0a33 08       		.byte	0x8
 1563 0a34 01       		.byte	0x1
 1564 0a35 30       		.byte	0x30
 1565 0a36 530A0000 		.4byte	0xa53
 1566 0a3a 07       		.uleb128 0x7
 1567 0a3b DB060000 		.4byte	.LASF174
 1568 0a3f 01       		.byte	0x1
 1569 0a40 30       		.byte	0x30
 1570 0a41 1C0A0000 		.4byte	0xa1c
 1571 0a45 00       		.byte	0
 1572 0a46 07       		.uleb128 0x7
 1573 0a47 FF040000 		.4byte	.LASF175
 1574 0a4b 01       		.byte	0x1
 1575 0a4c 30       		.byte	0x30
 1576 0a4d 1C0A0000 		.4byte	0xa1c
 1577 0a51 04       		.byte	0x4
 1578 0a52 00       		.byte	0
 1579 0a53 1E       		.uleb128 0x1e
 1580 0a54 FB020000 		.4byte	.LASF188
 1581 0a58 01       		.byte	0x1
 1582 0a59 32       		.byte	0x32
 1583 0a5a 25000000 		.4byte	0x25
 1584 0a5e 00000000 		.4byte	.LFB260
 1585 0a62 44010000 		.4byte	.LFE260-.LFB260
 1586 0a66 01       		.uleb128 0x1
 1587 0a67 9C       		.byte	0x9c
 1588 0a68 B70B0000 		.4byte	0xbb7
 1589 0a6c 1F       		.uleb128 0x1f
 1590 0a6d 65787400 		.ascii	"ext\000"
 1591 0a71 01       		.byte	0x1
 1592 0a72 32       		.byte	0x32
 1593 0a73 13070000 		.4byte	0x713
 1594 0a77 00000000 		.4byte	.LLST0
ARM GAS  C:\Users\jo\AppData\Local\Temp\ccvxPQfj.s 			page 29


 1595 0a7b 20       		.uleb128 0x20
 1596 0a7c 82000000 		.4byte	.LASF176
 1597 0a80 01       		.byte	0x1
 1598 0a81 32       		.byte	0x32
 1599 0a82 13070000 		.4byte	0x713
 1600 0a86 1E000000 		.4byte	.LLST1
 1601 0a8a 20       		.uleb128 0x20
 1602 0a8b EF030000 		.4byte	.LASF177
 1603 0a8f 01       		.byte	0x1
 1604 0a90 32       		.byte	0x32
 1605 0a91 13070000 		.4byte	0x713
 1606 0a95 3C000000 		.4byte	.LLST2
 1607 0a99 20       		.uleb128 0x20
 1608 0a9a DC040000 		.4byte	.LASF178
 1609 0a9e 01       		.byte	0x1
 1610 0a9f 32       		.byte	0x32
 1611 0aa0 C6090000 		.4byte	0x9c6
 1612 0aa4 5A000000 		.4byte	.LLST3
 1613 0aa8 21       		.uleb128 0x21
 1614 0aa9 726300   		.ascii	"rc\000"
 1615 0aac 01       		.byte	0x1
 1616 0aad 34       		.byte	0x34
 1617 0aae 25000000 		.4byte	0x25
 1618 0ab2 78000000 		.4byte	.LLST4
 1619 0ab6 21       		.uleb128 0x21
 1620 0ab7 63757200 		.ascii	"cur\000"
 1621 0abb 01       		.byte	0x1
 1622 0abc 35       		.byte	0x35
 1623 0abd 1C0A0000 		.4byte	0xa1c
 1624 0ac1 B1000000 		.4byte	.LLST5
 1625 0ac5 21       		.uleb128 0x21
 1626 0ac6 6D7400   		.ascii	"mt\000"
 1627 0ac9 01       		.byte	0x1
 1628 0aca 36       		.byte	0x36
 1629 0acb 1C0A0000 		.4byte	0xa1c
 1630 0acf CF000000 		.4byte	.LLST6
 1631 0ad3 21       		.uleb128 0x21
 1632 0ad4 6900     		.ascii	"i\000"
 1633 0ad6 01       		.byte	0x1
 1634 0ad7 37       		.byte	0x37
 1635 0ad8 25000000 		.4byte	0x25
 1636 0adc 03010000 		.4byte	.LLST7
 1637 0ae0 22       		.uleb128 0x22
 1638 0ae1 28000000 		.4byte	.LVL5
 1639 0ae5 D90B0000 		.4byte	0xbd9
 1640 0ae9 FA0A0000 		.4byte	0xafa
 1641 0aed 23       		.uleb128 0x23
 1642 0aee 01       		.uleb128 0x1
 1643 0aef 51       		.byte	0x51
 1644 0af0 02       		.uleb128 0x2
 1645 0af1 75       		.byte	0x75
 1646 0af2 00       		.sleb128 0
 1647 0af3 23       		.uleb128 0x23
 1648 0af4 01       		.uleb128 0x1
 1649 0af5 50       		.byte	0x50
 1650 0af6 02       		.uleb128 0x2
 1651 0af7 74       		.byte	0x74
ARM GAS  C:\Users\jo\AppData\Local\Temp\ccvxPQfj.s 			page 30


 1652 0af8 18       		.sleb128 24
 1653 0af9 00       		.byte	0
 1654 0afa 22       		.uleb128 0x22
 1655 0afb 50000000 		.4byte	.LVL7
 1656 0aff F30B0000 		.4byte	0xbf3
 1657 0b03 0E0B0000 		.4byte	0xb0e
 1658 0b07 23       		.uleb128 0x23
 1659 0b08 01       		.uleb128 0x1
 1660 0b09 50       		.byte	0x50
 1661 0b0a 02       		.uleb128 0x2
 1662 0b0b 79       		.byte	0x79
 1663 0b0c 00       		.sleb128 0
 1664 0b0d 00       		.byte	0
 1665 0b0e 22       		.uleb128 0x22
 1666 0b0f 58000000 		.4byte	.LVL8
 1667 0b13 F30B0000 		.4byte	0xbf3
 1668 0b17 220B0000 		.4byte	0xb22
 1669 0b1b 23       		.uleb128 0x23
 1670 0b1c 01       		.uleb128 0x1
 1671 0b1d 50       		.byte	0x50
 1672 0b1e 02       		.uleb128 0x2
 1673 0b1f 7B       		.byte	0x7b
 1674 0b20 00       		.sleb128 0
 1675 0b21 00       		.byte	0
 1676 0b22 22       		.uleb128 0x22
 1677 0b23 72000000 		.4byte	.LVL12
 1678 0b27 080C0000 		.4byte	0xc08
 1679 0b2b 3B0B0000 		.4byte	0xb3b
 1680 0b2f 23       		.uleb128 0x23
 1681 0b30 01       		.uleb128 0x1
 1682 0b31 51       		.byte	0x51
 1683 0b32 02       		.uleb128 0x2
 1684 0b33 08       		.byte	0x8
 1685 0b34 24       		.byte	0x24
 1686 0b35 23       		.uleb128 0x23
 1687 0b36 01       		.uleb128 0x1
 1688 0b37 50       		.byte	0x50
 1689 0b38 01       		.uleb128 0x1
 1690 0b39 31       		.byte	0x31
 1691 0b3a 00       		.byte	0
 1692 0b3b 22       		.uleb128 0x22
 1693 0b3c 82000000 		.4byte	.LVL14
 1694 0b40 220C0000 		.4byte	0xc22
 1695 0b44 5A0B0000 		.4byte	0xb5a
 1696 0b48 23       		.uleb128 0x23
 1697 0b49 01       		.uleb128 0x1
 1698 0b4a 52       		.byte	0x52
 1699 0b4b 01       		.uleb128 0x1
 1700 0b4c 38       		.byte	0x38
 1701 0b4d 23       		.uleb128 0x23
 1702 0b4e 01       		.uleb128 0x1
 1703 0b4f 51       		.byte	0x51
 1704 0b50 02       		.uleb128 0x2
 1705 0b51 75       		.byte	0x75
 1706 0b52 00       		.sleb128 0
 1707 0b53 23       		.uleb128 0x23
 1708 0b54 01       		.uleb128 0x1
ARM GAS  C:\Users\jo\AppData\Local\Temp\ccvxPQfj.s 			page 31


 1709 0b55 50       		.byte	0x50
 1710 0b56 02       		.uleb128 0x2
 1711 0b57 77       		.byte	0x77
 1712 0b58 18       		.sleb128 24
 1713 0b59 00       		.byte	0
 1714 0b5a 22       		.uleb128 0x22
 1715 0b5b 8E000000 		.4byte	.LVL15
 1716 0b5f F30B0000 		.4byte	0xbf3
 1717 0b63 6E0B0000 		.4byte	0xb6e
 1718 0b67 23       		.uleb128 0x23
 1719 0b68 01       		.uleb128 0x1
 1720 0b69 50       		.byte	0x50
 1721 0b6a 02       		.uleb128 0x2
 1722 0b6b 79       		.byte	0x79
 1723 0b6c 00       		.sleb128 0
 1724 0b6d 00       		.byte	0
 1725 0b6e 22       		.uleb128 0x22
 1726 0b6f 9C000000 		.4byte	.LVL16
 1727 0b73 F30B0000 		.4byte	0xbf3
 1728 0b77 820B0000 		.4byte	0xb82
 1729 0b7b 23       		.uleb128 0x23
 1730 0b7c 01       		.uleb128 0x1
 1731 0b7d 50       		.byte	0x50
 1732 0b7e 02       		.uleb128 0x2
 1733 0b7f 7B       		.byte	0x7b
 1734 0b80 00       		.sleb128 0
 1735 0b81 00       		.byte	0
 1736 0b82 24       		.uleb128 0x24
 1737 0b83 DA000000 		.4byte	.LVL21
 1738 0b87 410C0000 		.4byte	0xc41
 1739 0b8b 24       		.uleb128 0x24
 1740 0b8c E0000000 		.4byte	.LVL22
 1741 0b90 410C0000 		.4byte	0xc41
 1742 0b94 24       		.uleb128 0x24
 1743 0b95 04010000 		.4byte	.LVL25
 1744 0b99 410C0000 		.4byte	0xc41
 1745 0b9d 24       		.uleb128 0x24
 1746 0b9e 0A010000 		.4byte	.LVL26
 1747 0ba2 410C0000 		.4byte	0xc41
 1748 0ba6 25       		.uleb128 0x25
 1749 0ba7 10010000 		.4byte	.LVL27
 1750 0bab 410C0000 		.4byte	0xc41
 1751 0baf 23       		.uleb128 0x23
 1752 0bb0 01       		.uleb128 0x1
 1753 0bb1 50       		.byte	0x50
 1754 0bb2 02       		.uleb128 0x2
 1755 0bb3 74       		.byte	0x74
 1756 0bb4 00       		.sleb128 0
 1757 0bb5 00       		.byte	0
 1758 0bb6 00       		.byte	0
 1759 0bb7 26       		.uleb128 0x26
 1760 0bb8 F6000000 		.4byte	.LASF179
 1761 0bbc 15       		.byte	0x15
 1762 0bbd A706     		.2byte	0x6a7
 1763 0bbf E4000000 		.4byte	0xe4
 1764 0bc3 27       		.uleb128 0x27
 1765 0bc4 636800   		.ascii	"ch\000"
ARM GAS  C:\Users\jo\AppData\Local\Temp\ccvxPQfj.s 			page 32


 1766 0bc7 07       		.byte	0x7
 1767 0bc8 0902     		.2byte	0x209
 1768 0bca 2F040000 		.4byte	0x42f
 1769 0bce 28       		.uleb128 0x28
 1770 0bcf A8050000 		.4byte	.LASF180
 1771 0bd3 01       		.byte	0x1
 1772 0bd4 30       		.byte	0x30
 1773 0bd5 320A0000 		.4byte	0xa32
 1774 0bd9 29       		.uleb128 0x29
 1775 0bda 33070000 		.4byte	.LASF181
 1776 0bde 16       		.byte	0x16
 1777 0bdf 49       		.byte	0x49
 1778 0be0 25000000 		.4byte	0x25
 1779 0be4 F30B0000 		.4byte	0xbf3
 1780 0be8 0D       		.uleb128 0xd
 1781 0be9 C8060000 		.4byte	0x6c8
 1782 0bed 0D       		.uleb128 0xd
 1783 0bee C8060000 		.4byte	0x6c8
 1784 0bf2 00       		.byte	0
 1785 0bf3 29       		.uleb128 0x29
 1786 0bf4 26020000 		.4byte	.LASF182
 1787 0bf8 16       		.byte	0x16
 1788 0bf9 50       		.byte	0x50
 1789 0bfa 13070000 		.4byte	0x713
 1790 0bfe 080C0000 		.4byte	0xc08
 1791 0c02 0D       		.uleb128 0xd
 1792 0c03 C8060000 		.4byte	0x6c8
 1793 0c07 00       		.byte	0
 1794 0c08 29       		.uleb128 0x29
 1795 0c09 42080000 		.4byte	.LASF183
 1796 0c0d 17       		.byte	0x17
 1797 0c0e 52       		.byte	0x52
 1798 0c0f 38030000 		.4byte	0x338
 1799 0c13 220C0000 		.4byte	0xc22
 1800 0c17 0D       		.uleb128 0xd
 1801 0c18 2C000000 		.4byte	0x2c
 1802 0c1c 0D       		.uleb128 0xd
 1803 0c1d 2C000000 		.4byte	0x2c
 1804 0c21 00       		.byte	0
 1805 0c22 29       		.uleb128 0x29
 1806 0c23 87000000 		.4byte	.LASF184
 1807 0c27 16       		.byte	0x16
 1808 0c28 24       		.byte	0x24
 1809 0c29 13070000 		.4byte	0x713
 1810 0c2d 410C0000 		.4byte	0xc41
 1811 0c31 0D       		.uleb128 0xd
 1812 0c32 13070000 		.4byte	0x713
 1813 0c36 0D       		.uleb128 0xd
 1814 0c37 C8060000 		.4byte	0x6c8
 1815 0c3b 0D       		.uleb128 0xd
 1816 0c3c 2C000000 		.4byte	0x2c
 1817 0c40 00       		.byte	0
 1818 0c41 2A       		.uleb128 0x2a
 1819 0c42 03010000 		.4byte	.LASF189
 1820 0c46 17       		.byte	0x17
 1821 0c47 55       		.byte	0x55
 1822 0c48 0D       		.uleb128 0xd
ARM GAS  C:\Users\jo\AppData\Local\Temp\ccvxPQfj.s 			page 33


 1823 0c49 38030000 		.4byte	0x338
 1824 0c4d 00       		.byte	0
 1825 0c4e 00       		.byte	0
 1826              		.section	.debug_abbrev,"",%progbits
 1827              	.Ldebug_abbrev0:
 1828 0000 01       		.uleb128 0x1
 1829 0001 11       		.uleb128 0x11
 1830 0002 01       		.byte	0x1
 1831 0003 25       		.uleb128 0x25
 1832 0004 0E       		.uleb128 0xe
 1833 0005 13       		.uleb128 0x13
 1834 0006 0B       		.uleb128 0xb
 1835 0007 03       		.uleb128 0x3
 1836 0008 0E       		.uleb128 0xe
 1837 0009 1B       		.uleb128 0x1b
 1838 000a 0E       		.uleb128 0xe
 1839 000b 55       		.uleb128 0x55
 1840 000c 17       		.uleb128 0x17
 1841 000d 11       		.uleb128 0x11
 1842 000e 01       		.uleb128 0x1
 1843 000f 10       		.uleb128 0x10
 1844 0010 17       		.uleb128 0x17
 1845 0011 00       		.byte	0
 1846 0012 00       		.byte	0
 1847 0013 02       		.uleb128 0x2
 1848 0014 24       		.uleb128 0x24
 1849 0015 00       		.byte	0
 1850 0016 0B       		.uleb128 0xb
 1851 0017 0B       		.uleb128 0xb
 1852 0018 3E       		.uleb128 0x3e
 1853 0019 0B       		.uleb128 0xb
 1854 001a 03       		.uleb128 0x3
 1855 001b 08       		.uleb128 0x8
 1856 001c 00       		.byte	0
 1857 001d 00       		.byte	0
 1858 001e 03       		.uleb128 0x3
 1859 001f 16       		.uleb128 0x16
 1860 0020 00       		.byte	0
 1861 0021 03       		.uleb128 0x3
 1862 0022 0E       		.uleb128 0xe
 1863 0023 3A       		.uleb128 0x3a
 1864 0024 0B       		.uleb128 0xb
 1865 0025 3B       		.uleb128 0x3b
 1866 0026 0B       		.uleb128 0xb
 1867 0027 49       		.uleb128 0x49
 1868 0028 13       		.uleb128 0x13
 1869 0029 00       		.byte	0
 1870 002a 00       		.byte	0
 1871 002b 04       		.uleb128 0x4
 1872 002c 24       		.uleb128 0x24
 1873 002d 00       		.byte	0
 1874 002e 0B       		.uleb128 0xb
 1875 002f 0B       		.uleb128 0xb
 1876 0030 3E       		.uleb128 0x3e
 1877 0031 0B       		.uleb128 0xb
 1878 0032 03       		.uleb128 0x3
 1879 0033 0E       		.uleb128 0xe
ARM GAS  C:\Users\jo\AppData\Local\Temp\ccvxPQfj.s 			page 34


 1880 0034 00       		.byte	0
 1881 0035 00       		.byte	0
 1882 0036 05       		.uleb128 0x5
 1883 0037 35       		.uleb128 0x35
 1884 0038 00       		.byte	0
 1885 0039 49       		.uleb128 0x49
 1886 003a 13       		.uleb128 0x13
 1887 003b 00       		.byte	0
 1888 003c 00       		.byte	0
 1889 003d 06       		.uleb128 0x6
 1890 003e 13       		.uleb128 0x13
 1891 003f 01       		.byte	0x1
 1892 0040 03       		.uleb128 0x3
 1893 0041 0E       		.uleb128 0xe
 1894 0042 0B       		.uleb128 0xb
 1895 0043 0B       		.uleb128 0xb
 1896 0044 3A       		.uleb128 0x3a
 1897 0045 0B       		.uleb128 0xb
 1898 0046 3B       		.uleb128 0x3b
 1899 0047 0B       		.uleb128 0xb
 1900 0048 01       		.uleb128 0x1
 1901 0049 13       		.uleb128 0x13
 1902 004a 00       		.byte	0
 1903 004b 00       		.byte	0
 1904 004c 07       		.uleb128 0x7
 1905 004d 0D       		.uleb128 0xd
 1906 004e 00       		.byte	0
 1907 004f 03       		.uleb128 0x3
 1908 0050 0E       		.uleb128 0xe
 1909 0051 3A       		.uleb128 0x3a
 1910 0052 0B       		.uleb128 0xb
 1911 0053 3B       		.uleb128 0x3b
 1912 0054 0B       		.uleb128 0xb
 1913 0055 49       		.uleb128 0x49
 1914 0056 13       		.uleb128 0x13
 1915 0057 38       		.uleb128 0x38
 1916 0058 0B       		.uleb128 0xb
 1917 0059 00       		.byte	0
 1918 005a 00       		.byte	0
 1919 005b 08       		.uleb128 0x8
 1920 005c 0D       		.uleb128 0xd
 1921 005d 00       		.byte	0
 1922 005e 03       		.uleb128 0x3
 1923 005f 08       		.uleb128 0x8
 1924 0060 3A       		.uleb128 0x3a
 1925 0061 0B       		.uleb128 0xb
 1926 0062 3B       		.uleb128 0x3b
 1927 0063 05       		.uleb128 0x5
 1928 0064 49       		.uleb128 0x49
 1929 0065 13       		.uleb128 0x13
 1930 0066 38       		.uleb128 0x38
 1931 0067 0B       		.uleb128 0xb
 1932 0068 00       		.byte	0
 1933 0069 00       		.byte	0
 1934 006a 09       		.uleb128 0x9
 1935 006b 0D       		.uleb128 0xd
 1936 006c 00       		.byte	0
ARM GAS  C:\Users\jo\AppData\Local\Temp\ccvxPQfj.s 			page 35


 1937 006d 03       		.uleb128 0x3
 1938 006e 0E       		.uleb128 0xe
 1939 006f 3A       		.uleb128 0x3a
 1940 0070 0B       		.uleb128 0xb
 1941 0071 3B       		.uleb128 0x3b
 1942 0072 05       		.uleb128 0x5
 1943 0073 49       		.uleb128 0x49
 1944 0074 13       		.uleb128 0x13
 1945 0075 38       		.uleb128 0x38
 1946 0076 0B       		.uleb128 0xb
 1947 0077 00       		.byte	0
 1948 0078 00       		.byte	0
 1949 0079 0A       		.uleb128 0xa
 1950 007a 0F       		.uleb128 0xf
 1951 007b 00       		.byte	0
 1952 007c 0B       		.uleb128 0xb
 1953 007d 0B       		.uleb128 0xb
 1954 007e 49       		.uleb128 0x49
 1955 007f 13       		.uleb128 0x13
 1956 0080 00       		.byte	0
 1957 0081 00       		.byte	0
 1958 0082 0B       		.uleb128 0xb
 1959 0083 13       		.uleb128 0x13
 1960 0084 01       		.byte	0x1
 1961 0085 03       		.uleb128 0x3
 1962 0086 0E       		.uleb128 0xe
 1963 0087 0B       		.uleb128 0xb
 1964 0088 0B       		.uleb128 0xb
 1965 0089 3A       		.uleb128 0x3a
 1966 008a 0B       		.uleb128 0xb
 1967 008b 3B       		.uleb128 0x3b
 1968 008c 05       		.uleb128 0x5
 1969 008d 01       		.uleb128 0x1
 1970 008e 13       		.uleb128 0x13
 1971 008f 00       		.byte	0
 1972 0090 00       		.byte	0
 1973 0091 0C       		.uleb128 0xc
 1974 0092 15       		.uleb128 0x15
 1975 0093 01       		.byte	0x1
 1976 0094 27       		.uleb128 0x27
 1977 0095 19       		.uleb128 0x19
 1978 0096 01       		.uleb128 0x1
 1979 0097 13       		.uleb128 0x13
 1980 0098 00       		.byte	0
 1981 0099 00       		.byte	0
 1982 009a 0D       		.uleb128 0xd
 1983 009b 05       		.uleb128 0x5
 1984 009c 00       		.byte	0
 1985 009d 49       		.uleb128 0x49
 1986 009e 13       		.uleb128 0x13
 1987 009f 00       		.byte	0
 1988 00a0 00       		.byte	0
 1989 00a1 0E       		.uleb128 0xe
 1990 00a2 0F       		.uleb128 0xf
 1991 00a3 00       		.byte	0
 1992 00a4 0B       		.uleb128 0xb
 1993 00a5 0B       		.uleb128 0xb
ARM GAS  C:\Users\jo\AppData\Local\Temp\ccvxPQfj.s 			page 36


 1994 00a6 00       		.byte	0
 1995 00a7 00       		.byte	0
 1996 00a8 0F       		.uleb128 0xf
 1997 00a9 13       		.uleb128 0x13
 1998 00aa 01       		.byte	0x1
 1999 00ab 03       		.uleb128 0x3
 2000 00ac 0E       		.uleb128 0xe
 2001 00ad 0B       		.uleb128 0xb
 2002 00ae 05       		.uleb128 0x5
 2003 00af 3A       		.uleb128 0x3a
 2004 00b0 0B       		.uleb128 0xb
 2005 00b1 3B       		.uleb128 0x3b
 2006 00b2 05       		.uleb128 0x5
 2007 00b3 01       		.uleb128 0x1
 2008 00b4 13       		.uleb128 0x13
 2009 00b5 00       		.byte	0
 2010 00b6 00       		.byte	0
 2011 00b7 10       		.uleb128 0x10
 2012 00b8 0D       		.uleb128 0xd
 2013 00b9 00       		.byte	0
 2014 00ba 03       		.uleb128 0x3
 2015 00bb 0E       		.uleb128 0xe
 2016 00bc 3A       		.uleb128 0x3a
 2017 00bd 0B       		.uleb128 0xb
 2018 00be 3B       		.uleb128 0x3b
 2019 00bf 05       		.uleb128 0x5
 2020 00c0 49       		.uleb128 0x49
 2021 00c1 13       		.uleb128 0x13
 2022 00c2 38       		.uleb128 0x38
 2023 00c3 05       		.uleb128 0x5
 2024 00c4 00       		.byte	0
 2025 00c5 00       		.byte	0
 2026 00c6 11       		.uleb128 0x11
 2027 00c7 0D       		.uleb128 0xd
 2028 00c8 00       		.byte	0
 2029 00c9 03       		.uleb128 0x3
 2030 00ca 08       		.uleb128 0x8
 2031 00cb 3A       		.uleb128 0x3a
 2032 00cc 0B       		.uleb128 0xb
 2033 00cd 3B       		.uleb128 0x3b
 2034 00ce 05       		.uleb128 0x5
 2035 00cf 49       		.uleb128 0x49
 2036 00d0 13       		.uleb128 0x13
 2037 00d1 38       		.uleb128 0x38
 2038 00d2 05       		.uleb128 0x5
 2039 00d3 00       		.byte	0
 2040 00d4 00       		.byte	0
 2041 00d5 12       		.uleb128 0x12
 2042 00d6 0D       		.uleb128 0xd
 2043 00d7 00       		.byte	0
 2044 00d8 03       		.uleb128 0x3
 2045 00d9 08       		.uleb128 0x8
 2046 00da 3A       		.uleb128 0x3a
 2047 00db 0B       		.uleb128 0xb
 2048 00dc 3B       		.uleb128 0x3b
 2049 00dd 0B       		.uleb128 0xb
 2050 00de 49       		.uleb128 0x49
ARM GAS  C:\Users\jo\AppData\Local\Temp\ccvxPQfj.s 			page 37


 2051 00df 13       		.uleb128 0x13
 2052 00e0 38       		.uleb128 0x38
 2053 00e1 0B       		.uleb128 0xb
 2054 00e2 00       		.byte	0
 2055 00e3 00       		.byte	0
 2056 00e4 13       		.uleb128 0x13
 2057 00e5 13       		.uleb128 0x13
 2058 00e6 01       		.byte	0x1
 2059 00e7 0B       		.uleb128 0xb
 2060 00e8 0B       		.uleb128 0xb
 2061 00e9 3A       		.uleb128 0x3a
 2062 00ea 0B       		.uleb128 0xb
 2063 00eb 3B       		.uleb128 0x3b
 2064 00ec 0B       		.uleb128 0xb
 2065 00ed 01       		.uleb128 0x1
 2066 00ee 13       		.uleb128 0x13
 2067 00ef 00       		.byte	0
 2068 00f0 00       		.byte	0
 2069 00f1 14       		.uleb128 0x14
 2070 00f2 13       		.uleb128 0x13
 2071 00f3 01       		.byte	0x1
 2072 00f4 0B       		.uleb128 0xb
 2073 00f5 05       		.uleb128 0x5
 2074 00f6 3A       		.uleb128 0x3a
 2075 00f7 0B       		.uleb128 0xb
 2076 00f8 3B       		.uleb128 0x3b
 2077 00f9 0B       		.uleb128 0xb
 2078 00fa 01       		.uleb128 0x1
 2079 00fb 13       		.uleb128 0x13
 2080 00fc 00       		.byte	0
 2081 00fd 00       		.byte	0
 2082 00fe 15       		.uleb128 0x15
 2083 00ff 01       		.uleb128 0x1
 2084 0100 01       		.byte	0x1
 2085 0101 49       		.uleb128 0x49
 2086 0102 13       		.uleb128 0x13
 2087 0103 01       		.uleb128 0x1
 2088 0104 13       		.uleb128 0x13
 2089 0105 00       		.byte	0
 2090 0106 00       		.byte	0
 2091 0107 16       		.uleb128 0x16
 2092 0108 21       		.uleb128 0x21
 2093 0109 00       		.byte	0
 2094 010a 49       		.uleb128 0x49
 2095 010b 13       		.uleb128 0x13
 2096 010c 2F       		.uleb128 0x2f
 2097 010d 0B       		.uleb128 0xb
 2098 010e 00       		.byte	0
 2099 010f 00       		.byte	0
 2100 0110 17       		.uleb128 0x17
 2101 0111 17       		.uleb128 0x17
 2102 0112 01       		.byte	0x1
 2103 0113 0B       		.uleb128 0xb
 2104 0114 0B       		.uleb128 0xb
 2105 0115 3A       		.uleb128 0x3a
 2106 0116 0B       		.uleb128 0xb
 2107 0117 3B       		.uleb128 0x3b
ARM GAS  C:\Users\jo\AppData\Local\Temp\ccvxPQfj.s 			page 38


 2108 0118 0B       		.uleb128 0xb
 2109 0119 01       		.uleb128 0x1
 2110 011a 13       		.uleb128 0x13
 2111 011b 00       		.byte	0
 2112 011c 00       		.byte	0
 2113 011d 18       		.uleb128 0x18
 2114 011e 0D       		.uleb128 0xd
 2115 011f 00       		.byte	0
 2116 0120 03       		.uleb128 0x3
 2117 0121 0E       		.uleb128 0xe
 2118 0122 3A       		.uleb128 0x3a
 2119 0123 0B       		.uleb128 0xb
 2120 0124 3B       		.uleb128 0x3b
 2121 0125 05       		.uleb128 0x5
 2122 0126 49       		.uleb128 0x49
 2123 0127 13       		.uleb128 0x13
 2124 0128 00       		.byte	0
 2125 0129 00       		.byte	0
 2126 012a 19       		.uleb128 0x19
 2127 012b 26       		.uleb128 0x26
 2128 012c 00       		.byte	0
 2129 012d 49       		.uleb128 0x49
 2130 012e 13       		.uleb128 0x13
 2131 012f 00       		.byte	0
 2132 0130 00       		.byte	0
 2133 0131 1A       		.uleb128 0x1a
 2134 0132 13       		.uleb128 0x13
 2135 0133 01       		.byte	0x1
 2136 0134 03       		.uleb128 0x3
 2137 0135 0E       		.uleb128 0xe
 2138 0136 0B       		.uleb128 0xb
 2139 0137 05       		.uleb128 0x5
 2140 0138 3A       		.uleb128 0x3a
 2141 0139 0B       		.uleb128 0xb
 2142 013a 3B       		.uleb128 0x3b
 2143 013b 0B       		.uleb128 0xb
 2144 013c 01       		.uleb128 0x1
 2145 013d 13       		.uleb128 0x13
 2146 013e 00       		.byte	0
 2147 013f 00       		.byte	0
 2148 0140 1B       		.uleb128 0x1b
 2149 0141 0D       		.uleb128 0xd
 2150 0142 00       		.byte	0
 2151 0143 03       		.uleb128 0x3
 2152 0144 0E       		.uleb128 0xe
 2153 0145 3A       		.uleb128 0x3a
 2154 0146 0B       		.uleb128 0xb
 2155 0147 3B       		.uleb128 0x3b
 2156 0148 0B       		.uleb128 0xb
 2157 0149 49       		.uleb128 0x49
 2158 014a 13       		.uleb128 0x13
 2159 014b 38       		.uleb128 0x38
 2160 014c 05       		.uleb128 0x5
 2161 014d 00       		.byte	0
 2162 014e 00       		.byte	0
 2163 014f 1C       		.uleb128 0x1c
 2164 0150 21       		.uleb128 0x21
ARM GAS  C:\Users\jo\AppData\Local\Temp\ccvxPQfj.s 			page 39


 2165 0151 00       		.byte	0
 2166 0152 49       		.uleb128 0x49
 2167 0153 13       		.uleb128 0x13
 2168 0154 2F       		.uleb128 0x2f
 2169 0155 05       		.uleb128 0x5
 2170 0156 00       		.byte	0
 2171 0157 00       		.byte	0
 2172 0158 1D       		.uleb128 0x1d
 2173 0159 15       		.uleb128 0x15
 2174 015a 01       		.byte	0x1
 2175 015b 27       		.uleb128 0x27
 2176 015c 19       		.uleb128 0x19
 2177 015d 49       		.uleb128 0x49
 2178 015e 13       		.uleb128 0x13
 2179 015f 01       		.uleb128 0x1
 2180 0160 13       		.uleb128 0x13
 2181 0161 00       		.byte	0
 2182 0162 00       		.byte	0
 2183 0163 1E       		.uleb128 0x1e
 2184 0164 2E       		.uleb128 0x2e
 2185 0165 01       		.byte	0x1
 2186 0166 3F       		.uleb128 0x3f
 2187 0167 19       		.uleb128 0x19
 2188 0168 03       		.uleb128 0x3
 2189 0169 0E       		.uleb128 0xe
 2190 016a 3A       		.uleb128 0x3a
 2191 016b 0B       		.uleb128 0xb
 2192 016c 3B       		.uleb128 0x3b
 2193 016d 0B       		.uleb128 0xb
 2194 016e 27       		.uleb128 0x27
 2195 016f 19       		.uleb128 0x19
 2196 0170 49       		.uleb128 0x49
 2197 0171 13       		.uleb128 0x13
 2198 0172 11       		.uleb128 0x11
 2199 0173 01       		.uleb128 0x1
 2200 0174 12       		.uleb128 0x12
 2201 0175 06       		.uleb128 0x6
 2202 0176 40       		.uleb128 0x40
 2203 0177 18       		.uleb128 0x18
 2204 0178 9742     		.uleb128 0x2117
 2205 017a 19       		.uleb128 0x19
 2206 017b 01       		.uleb128 0x1
 2207 017c 13       		.uleb128 0x13
 2208 017d 00       		.byte	0
 2209 017e 00       		.byte	0
 2210 017f 1F       		.uleb128 0x1f
 2211 0180 05       		.uleb128 0x5
 2212 0181 00       		.byte	0
 2213 0182 03       		.uleb128 0x3
 2214 0183 08       		.uleb128 0x8
 2215 0184 3A       		.uleb128 0x3a
 2216 0185 0B       		.uleb128 0xb
 2217 0186 3B       		.uleb128 0x3b
 2218 0187 0B       		.uleb128 0xb
 2219 0188 49       		.uleb128 0x49
 2220 0189 13       		.uleb128 0x13
 2221 018a 02       		.uleb128 0x2
ARM GAS  C:\Users\jo\AppData\Local\Temp\ccvxPQfj.s 			page 40


 2222 018b 17       		.uleb128 0x17
 2223 018c 00       		.byte	0
 2224 018d 00       		.byte	0
 2225 018e 20       		.uleb128 0x20
 2226 018f 05       		.uleb128 0x5
 2227 0190 00       		.byte	0
 2228 0191 03       		.uleb128 0x3
 2229 0192 0E       		.uleb128 0xe
 2230 0193 3A       		.uleb128 0x3a
 2231 0194 0B       		.uleb128 0xb
 2232 0195 3B       		.uleb128 0x3b
 2233 0196 0B       		.uleb128 0xb
 2234 0197 49       		.uleb128 0x49
 2235 0198 13       		.uleb128 0x13
 2236 0199 02       		.uleb128 0x2
 2237 019a 17       		.uleb128 0x17
 2238 019b 00       		.byte	0
 2239 019c 00       		.byte	0
 2240 019d 21       		.uleb128 0x21
 2241 019e 34       		.uleb128 0x34
 2242 019f 00       		.byte	0
 2243 01a0 03       		.uleb128 0x3
 2244 01a1 08       		.uleb128 0x8
 2245 01a2 3A       		.uleb128 0x3a
 2246 01a3 0B       		.uleb128 0xb
 2247 01a4 3B       		.uleb128 0x3b
 2248 01a5 0B       		.uleb128 0xb
 2249 01a6 49       		.uleb128 0x49
 2250 01a7 13       		.uleb128 0x13
 2251 01a8 02       		.uleb128 0x2
 2252 01a9 17       		.uleb128 0x17
 2253 01aa 00       		.byte	0
 2254 01ab 00       		.byte	0
 2255 01ac 22       		.uleb128 0x22
 2256 01ad 898201   		.uleb128 0x4109
 2257 01b0 01       		.byte	0x1
 2258 01b1 11       		.uleb128 0x11
 2259 01b2 01       		.uleb128 0x1
 2260 01b3 31       		.uleb128 0x31
 2261 01b4 13       		.uleb128 0x13
 2262 01b5 01       		.uleb128 0x1
 2263 01b6 13       		.uleb128 0x13
 2264 01b7 00       		.byte	0
 2265 01b8 00       		.byte	0
 2266 01b9 23       		.uleb128 0x23
 2267 01ba 8A8201   		.uleb128 0x410a
 2268 01bd 00       		.byte	0
 2269 01be 02       		.uleb128 0x2
 2270 01bf 18       		.uleb128 0x18
 2271 01c0 9142     		.uleb128 0x2111
 2272 01c2 18       		.uleb128 0x18
 2273 01c3 00       		.byte	0
 2274 01c4 00       		.byte	0
 2275 01c5 24       		.uleb128 0x24
 2276 01c6 898201   		.uleb128 0x4109
 2277 01c9 00       		.byte	0
 2278 01ca 11       		.uleb128 0x11
ARM GAS  C:\Users\jo\AppData\Local\Temp\ccvxPQfj.s 			page 41


 2279 01cb 01       		.uleb128 0x1
 2280 01cc 31       		.uleb128 0x31
 2281 01cd 13       		.uleb128 0x13
 2282 01ce 00       		.byte	0
 2283 01cf 00       		.byte	0
 2284 01d0 25       		.uleb128 0x25
 2285 01d1 898201   		.uleb128 0x4109
 2286 01d4 01       		.byte	0x1
 2287 01d5 11       		.uleb128 0x11
 2288 01d6 01       		.uleb128 0x1
 2289 01d7 31       		.uleb128 0x31
 2290 01d8 13       		.uleb128 0x13
 2291 01d9 00       		.byte	0
 2292 01da 00       		.byte	0
 2293 01db 26       		.uleb128 0x26
 2294 01dc 34       		.uleb128 0x34
 2295 01dd 00       		.byte	0
 2296 01de 03       		.uleb128 0x3
 2297 01df 0E       		.uleb128 0xe
 2298 01e0 3A       		.uleb128 0x3a
 2299 01e1 0B       		.uleb128 0xb
 2300 01e2 3B       		.uleb128 0x3b
 2301 01e3 05       		.uleb128 0x5
 2302 01e4 49       		.uleb128 0x49
 2303 01e5 13       		.uleb128 0x13
 2304 01e6 3F       		.uleb128 0x3f
 2305 01e7 19       		.uleb128 0x19
 2306 01e8 3C       		.uleb128 0x3c
 2307 01e9 19       		.uleb128 0x19
 2308 01ea 00       		.byte	0
 2309 01eb 00       		.byte	0
 2310 01ec 27       		.uleb128 0x27
 2311 01ed 34       		.uleb128 0x34
 2312 01ee 00       		.byte	0
 2313 01ef 03       		.uleb128 0x3
 2314 01f0 08       		.uleb128 0x8
 2315 01f1 3A       		.uleb128 0x3a
 2316 01f2 0B       		.uleb128 0xb
 2317 01f3 3B       		.uleb128 0x3b
 2318 01f4 05       		.uleb128 0x5
 2319 01f5 49       		.uleb128 0x49
 2320 01f6 13       		.uleb128 0x13
 2321 01f7 3F       		.uleb128 0x3f
 2322 01f8 19       		.uleb128 0x19
 2323 01f9 3C       		.uleb128 0x3c
 2324 01fa 19       		.uleb128 0x19
 2325 01fb 00       		.byte	0
 2326 01fc 00       		.byte	0
 2327 01fd 28       		.uleb128 0x28
 2328 01fe 34       		.uleb128 0x34
 2329 01ff 00       		.byte	0
 2330 0200 03       		.uleb128 0x3
 2331 0201 0E       		.uleb128 0xe
 2332 0202 3A       		.uleb128 0x3a
 2333 0203 0B       		.uleb128 0xb
 2334 0204 3B       		.uleb128 0x3b
 2335 0205 0B       		.uleb128 0xb
ARM GAS  C:\Users\jo\AppData\Local\Temp\ccvxPQfj.s 			page 42


 2336 0206 49       		.uleb128 0x49
 2337 0207 13       		.uleb128 0x13
 2338 0208 3F       		.uleb128 0x3f
 2339 0209 19       		.uleb128 0x19
 2340 020a 3C       		.uleb128 0x3c
 2341 020b 19       		.uleb128 0x19
 2342 020c 00       		.byte	0
 2343 020d 00       		.byte	0
 2344 020e 29       		.uleb128 0x29
 2345 020f 2E       		.uleb128 0x2e
 2346 0210 01       		.byte	0x1
 2347 0211 3F       		.uleb128 0x3f
 2348 0212 19       		.uleb128 0x19
 2349 0213 03       		.uleb128 0x3
 2350 0214 0E       		.uleb128 0xe
 2351 0215 3A       		.uleb128 0x3a
 2352 0216 0B       		.uleb128 0xb
 2353 0217 3B       		.uleb128 0x3b
 2354 0218 0B       		.uleb128 0xb
 2355 0219 27       		.uleb128 0x27
 2356 021a 19       		.uleb128 0x19
 2357 021b 49       		.uleb128 0x49
 2358 021c 13       		.uleb128 0x13
 2359 021d 3C       		.uleb128 0x3c
 2360 021e 19       		.uleb128 0x19
 2361 021f 01       		.uleb128 0x1
 2362 0220 13       		.uleb128 0x13
 2363 0221 00       		.byte	0
 2364 0222 00       		.byte	0
 2365 0223 2A       		.uleb128 0x2a
 2366 0224 2E       		.uleb128 0x2e
 2367 0225 01       		.byte	0x1
 2368 0226 3F       		.uleb128 0x3f
 2369 0227 19       		.uleb128 0x19
 2370 0228 03       		.uleb128 0x3
 2371 0229 0E       		.uleb128 0xe
 2372 022a 3A       		.uleb128 0x3a
 2373 022b 0B       		.uleb128 0xb
 2374 022c 3B       		.uleb128 0x3b
 2375 022d 0B       		.uleb128 0xb
 2376 022e 27       		.uleb128 0x27
 2377 022f 19       		.uleb128 0x19
 2378 0230 3C       		.uleb128 0x3c
 2379 0231 19       		.uleb128 0x19
 2380 0232 00       		.byte	0
 2381 0233 00       		.byte	0
 2382 0234 00       		.byte	0
 2383              		.section	.debug_loc,"",%progbits
 2384              	.Ldebug_loc0:
 2385              	.LLST0:
 2386 0000 00000000 		.4byte	.LVL0
 2387 0004 1A000000 		.4byte	.LVL2
 2388 0008 0100     		.2byte	0x1
 2389 000a 50       		.byte	0x50
 2390 000b 1A000000 		.4byte	.LVL2
 2391 000f 44010000 		.4byte	.LFE260
 2392 0013 0100     		.2byte	0x1
ARM GAS  C:\Users\jo\AppData\Local\Temp\ccvxPQfj.s 			page 43


 2393 0015 55       		.byte	0x55
 2394 0016 00000000 		.4byte	0
 2395 001a 00000000 		.4byte	0
 2396              	.LLST1:
 2397 001e 00000000 		.4byte	.LVL0
 2398 0022 1A000000 		.4byte	.LVL2
 2399 0026 0100     		.2byte	0x1
 2400 0028 51       		.byte	0x51
 2401 0029 1A000000 		.4byte	.LVL2
 2402 002d 44010000 		.4byte	.LFE260
 2403 0031 0100     		.2byte	0x1
 2404 0033 59       		.byte	0x59
 2405 0034 00000000 		.4byte	0
 2406 0038 00000000 		.4byte	0
 2407              	.LLST2:
 2408 003c 00000000 		.4byte	.LVL0
 2409 0040 1A000000 		.4byte	.LVL2
 2410 0044 0100     		.2byte	0x1
 2411 0046 52       		.byte	0x52
 2412 0047 1A000000 		.4byte	.LVL2
 2413 004b 44010000 		.4byte	.LFE260
 2414 004f 0100     		.2byte	0x1
 2415 0051 5B       		.byte	0x5b
 2416 0052 00000000 		.4byte	0
 2417 0056 00000000 		.4byte	0
 2418              	.LLST3:
 2419 005a 00000000 		.4byte	.LVL0
 2420 005e 1A000000 		.4byte	.LVL2
 2421 0062 0100     		.2byte	0x1
 2422 0064 53       		.byte	0x53
 2423 0065 1A000000 		.4byte	.LVL2
 2424 0069 44010000 		.4byte	.LFE260
 2425 006d 0100     		.2byte	0x1
 2426 006f 58       		.byte	0x58
 2427 0070 00000000 		.4byte	0
 2428 0074 00000000 		.4byte	0
 2429              	.LLST4:
 2430 0078 00000000 		.4byte	.LVL0
 2431 007c 5E000000 		.4byte	.LVL9
 2432 0080 0300     		.2byte	0x3
 2433 0082 09       		.byte	0x9
 2434 0083 FF       		.byte	0xff
 2435 0084 9F       		.byte	0x9f
 2436 0085 5E000000 		.4byte	.LVL9
 2437 0089 60000000 		.4byte	.LVL10
 2438 008d 0200     		.2byte	0x2
 2439 008f 30       		.byte	0x30
 2440 0090 9F       		.byte	0x9f
 2441 0091 60000000 		.4byte	.LVL10
 2442 0095 64000000 		.4byte	.LVL11
 2443 0099 0100     		.2byte	0x1
 2444 009b 50       		.byte	0x50
 2445 009c 64000000 		.4byte	.LVL11
 2446 00a0 44010000 		.4byte	.LFE260
 2447 00a4 0300     		.2byte	0x3
 2448 00a6 09       		.byte	0x9
 2449 00a7 FF       		.byte	0xff
ARM GAS  C:\Users\jo\AppData\Local\Temp\ccvxPQfj.s 			page 44


 2450 00a8 9F       		.byte	0x9f
 2451 00a9 00000000 		.4byte	0
 2452 00ad 00000000 		.4byte	0
 2453              	.LLST5:
 2454 00b1 0C000000 		.4byte	.LVL1
 2455 00b5 1A000000 		.4byte	.LVL2
 2456 00b9 0100     		.2byte	0x1
 2457 00bb 56       		.byte	0x56
 2458 00bc 1A000000 		.4byte	.LVL2
 2459 00c0 44010000 		.4byte	.LFE260
 2460 00c4 0100     		.2byte	0x1
 2461 00c6 54       		.byte	0x54
 2462 00c7 00000000 		.4byte	0
 2463 00cb 00000000 		.4byte	0
 2464              	.LLST6:
 2465 00cf 72000000 		.4byte	.LVL12
 2466 00d3 7C000000 		.4byte	.LVL13
 2467 00d7 0100     		.2byte	0x1
 2468 00d9 50       		.byte	0x50
 2469 00da 7C000000 		.4byte	.LVL13
 2470 00de CC000000 		.4byte	.LVL18
 2471 00e2 0100     		.2byte	0x1
 2472 00e4 57       		.byte	0x57
 2473 00e5 12010000 		.4byte	.LVL28
 2474 00e9 30010000 		.4byte	.LVL29
 2475 00ed 0100     		.2byte	0x1
 2476 00ef 57       		.byte	0x57
 2477 00f0 3C010000 		.4byte	.LVL30
 2478 00f4 44010000 		.4byte	.LFE260
 2479 00f8 0100     		.2byte	0x1
 2480 00fa 57       		.byte	0x57
 2481 00fb 00000000 		.4byte	0
 2482 00ff 00000000 		.4byte	0
 2483              	.LLST7:
 2484 0103 00000000 		.4byte	.LVL0
 2485 0107 1A000000 		.4byte	.LVL2
 2486 010b 0300     		.2byte	0x3
 2487 010d 09       		.byte	0x9
 2488 010e FF       		.byte	0xff
 2489 010f 9F       		.byte	0x9f
 2490 0110 1A000000 		.4byte	.LVL2
 2491 0114 1E000000 		.4byte	.LVL4
 2492 0118 0100     		.2byte	0x1
 2493 011a 50       		.byte	0x50
 2494 011b 1E000000 		.4byte	.LVL4
 2495 011f 28000000 		.4byte	.LVL5
 2496 0123 0300     		.2byte	0x3
 2497 0125 09       		.byte	0x9
 2498 0126 FF       		.byte	0xff
 2499 0127 9F       		.byte	0x9f
 2500 0128 28000000 		.4byte	.LVL5
 2501 012c 4A000000 		.4byte	.LVL6
 2502 0130 0100     		.2byte	0x1
 2503 0132 50       		.byte	0x50
 2504 0133 D4000000 		.4byte	.LVL19
 2505 0137 D6000000 		.4byte	.LVL20
 2506 013b 0100     		.2byte	0x1
ARM GAS  C:\Users\jo\AppData\Local\Temp\ccvxPQfj.s 			page 45


 2507 013d 50       		.byte	0x50
 2508 013e E2000000 		.4byte	.LVL23
 2509 0142 00010000 		.4byte	.LVL24
 2510 0146 0100     		.2byte	0x1
 2511 0148 50       		.byte	0x50
 2512 0149 30010000 		.4byte	.LVL29
 2513 014d 3C010000 		.4byte	.LVL30
 2514 0151 0100     		.2byte	0x1
 2515 0153 50       		.byte	0x50
 2516 0154 00000000 		.4byte	0
 2517 0158 00000000 		.4byte	0
 2518              		.section	.debug_aranges,"",%progbits
 2519 0000 1C000000 		.4byte	0x1c
 2520 0004 0200     		.2byte	0x2
 2521 0006 00000000 		.4byte	.Ldebug_info0
 2522 000a 04       		.byte	0x4
 2523 000b 00       		.byte	0
 2524 000c 0000     		.2byte	0
 2525 000e 0000     		.2byte	0
 2526 0010 00000000 		.4byte	.LFB260
 2527 0014 44010000 		.4byte	.LFE260-.LFB260
 2528 0018 00000000 		.4byte	0
 2529 001c 00000000 		.4byte	0
 2530              		.section	.debug_ranges,"",%progbits
 2531              	.Ldebug_ranges0:
 2532 0000 00000000 		.4byte	.LFB260
 2533 0004 44010000 		.4byte	.LFE260
 2534 0008 00000000 		.4byte	0
 2535 000c 00000000 		.4byte	0
 2536              		.section	.debug_line,"",%progbits
 2537              	.Ldebug_line0:
 2538 0000 39040000 		.section	.debug_str,"MS",%progbits,1
 2538      02007D03 
 2538      00000201 
 2538      FB0E0D00 
 2538      01010101 
 2539              	.LASF168:
 2540 0000 6D656469 		.ascii	"media_flags\000"
 2540      615F666C 
 2540      61677300 
 2541              	.LASF96:
 2542 000c 74625F70 		.ascii	"tb_ptr\000"
 2542      747200
 2543              	.LASF54:
 2544 0013 72656164 		.ascii	"ready_list_t\000"
 2544      795F6C69 
 2544      73745F74 
 2544      00
 2545              	.LASF90:
 2546 0020 73655F74 		.ascii	"se_time\000"
 2546      696D6500 
 2547              	.LASF2:
 2548 0028 73697A65 		.ascii	"size_t\000"
 2548      5F7400
 2549              	.LASF142:
 2550 002f 7265715F 		.ascii	"req_version\000"
 2550      76657273 
ARM GAS  C:\Users\jo\AppData\Local\Temp\ccvxPQfj.s 			page 46


 2550      696F6E00 
 2551              	.LASF154:
 2552 003b 7265715F 		.ascii	"req_referer\000"
 2552      72656665 
 2552      72657200 
 2553              	.LASF101:
 2554 0047 7264796D 		.ascii	"rdymsg\000"
 2554      736700
 2555              	.LASF143:
 2556 004e 7265715F 		.ascii	"req_query\000"
 2556      71756572 
 2556      7900
 2557              	.LASF3:
 2558 0058 5F5F7569 		.ascii	"__uint8_t\000"
 2558      6E74385F 
 2558      7400
 2559              	.LASF172:
 2560 0062 70726576 		.ascii	"prev\000"
 2560      00
 2561              	.LASF89:
 2562 0067 706F7274 		.ascii	"port_intctx\000"
 2562      5F696E74 
 2562      63747800 
 2563              	.LASF73:
 2564 0073 73797374 		.ascii	"system_debug_t\000"
 2564      656D5F64 
 2564      65627567 
 2564      5F7400
 2565              	.LASF176:
 2566 0082 74797065 		.ascii	"type\000"
 2566      00
 2567              	.LASF184:
 2568 0087 7374726E 		.ascii	"strncpy\000"
 2568      63707900 
 2569              	.LASF151:
 2570 008f 7265715F 		.ascii	"req_cookie\000"
 2570      636F6F6B 
 2570      696500
 2571              	.LASF14:
 2572 009a 6C6F6E67 		.ascii	"long long unsigned int\000"
 2572      206C6F6E 
 2572      6720756E 
 2572      7369676E 
 2572      65642069 
 2573              	.LASF98:
 2574 00b1 63685F74 		.ascii	"ch_trace_buffer_t\000"
 2574      72616365 
 2574      5F627566 
 2574      6665725F 
 2574      7400
 2575              	.LASF93:
 2576 00c3 73655F73 		.ascii	"se_state\000"
 2576      74617465 
 2576      00
 2577              	.LASF102:
 2578 00cc 65786974 		.ascii	"exitcode\000"
 2578      636F6465 
ARM GAS  C:\Users\jo\AppData\Local\Temp\ccvxPQfj.s 			page 47


 2578      00
 2579              	.LASF83:
 2580 00d5 6D61696E 		.ascii	"mainthread\000"
 2580      74687265 
 2580      616400
 2581              	.LASF70:
 2582 00e0 76697274 		.ascii	"virtual_timers_list_t\000"
 2582      75616C5F 
 2582      74696D65 
 2582      72735F6C 
 2582      6973745F 
 2583              	.LASF179:
 2584 00f6 49544D5F 		.ascii	"ITM_RxBuffer\000"
 2584      52784275 
 2584      66666572 
 2584      00
 2585              	.LASF189:
 2586 0103 66726565 		.ascii	"free\000"
 2586      00
 2587              	.LASF53:
 2588 0108 63685F74 		.ascii	"ch_threads_queue\000"
 2588      68726561 
 2588      64735F71 
 2588      75657565 
 2588      00
 2589              	.LASF32:
 2590 0119 705F7072 		.ascii	"p_prio\000"
 2590      696F00
 2591              	.LASF187:
 2592 0120 433A5C55 		.ascii	"C:\\Users\\jo\\Documents\\GitHub\\ChibiOS\\demos\\S"
 2592      73657273 
 2592      5C6A6F5C 
 2592      446F6375 
 2592      6D656E74 
 2593 014c 544D3332 		.ascii	"TM32\\RT-STM32F407-DISCOVERY-uHttp\000"
 2593      5C52542D 
 2593      53544D33 
 2593      32463430 
 2593      372D4449 
 2594              	.LASF158:
 2595 016e 7265715F 		.ascii	"req_bnd_type\000"
 2595      626E645F 
 2595      74797065 
 2595      00
 2596              	.LASF12:
 2597 017b 6C6F6E67 		.ascii	"long long int\000"
 2597      206C6F6E 
 2597      6720696E 
 2597      7400
 2598              	.LASF1:
 2599 0189 7369676E 		.ascii	"signed char\000"
 2599      65642063 
 2599      68617200 
 2600              	.LASF118:
 2601 0195 75385F74 		.ascii	"u8_t\000"
 2601      00
 2602              	.LASF145:
ARM GAS  C:\Users\jo\AppData\Local\Temp\ccvxPQfj.s 			page 48


 2603 019a 7265715F 		.ascii	"req_argn\000"
 2603      6172676E 
 2603      00
 2604              	.LASF47:
 2605 01a3 705F6D70 		.ascii	"p_mpool\000"
 2605      6F6F6C00 
 2606              	.LASF144:
 2607 01ab 7265715F 		.ascii	"req_argp\000"
 2607      61726770 
 2607      00
 2608              	.LASF112:
 2609 01b4 6D5F7175 		.ascii	"m_queue\000"
 2609      65756500 
 2610              	.LASF147:
 2611 01bc 7265715F 		.ascii	"req_connection\000"
 2611      636F6E6E 
 2611      65637469 
 2611      6F6E00
 2612              	.LASF146:
 2613 01cb 7265715F 		.ascii	"req_argv\000"
 2613      61726776 
 2613      00
 2614              	.LASF104:
 2615 01d4 77747472 		.ascii	"wttrp\000"
 2615      7000
 2616              	.LASF153:
 2617 01da 7265715F 		.ascii	"req_agent\000"
 2617      6167656E 
 2617      7400
 2618              	.LASF9:
 2619 01e4 6C6F6E67 		.ascii	"long int\000"
 2619      20696E74 
 2619      00
 2620              	.LASF159:
 2621 01ed 48545450 		.ascii	"HTTPD_SESSION\000"
 2621      445F5345 
 2621      5353494F 
 2621      4E00
 2622              	.LASF22:
 2623 01fb 74737461 		.ascii	"tstate_t\000"
 2623      74655F74 
 2623      00
 2624              	.LASF165:
 2625 0204 6D656469 		.ascii	"media_link\000"
 2625      615F6C69 
 2625      6E6B00
 2626              	.LASF141:
 2627 020f 7265715F 		.ascii	"req_url\000"
 2627      75726C00 
 2628              	.LASF91:
 2629 0217 73655F74 		.ascii	"se_tp\000"
 2629      7000
 2630              	.LASF16:
 2631 021d 75696E74 		.ascii	"uint16_t\000"
 2631      31365F74 
 2631      00
 2632              	.LASF182:
ARM GAS  C:\Users\jo\AppData\Local\Temp\ccvxPQfj.s 			page 49


 2633 0226 73747264 		.ascii	"strdup\000"
 2633      757000
 2634              	.LASF34:
 2635 022d 705F6E65 		.ascii	"p_newer\000"
 2635      77657200 
 2636              	.LASF109:
 2637 0235 735F7175 		.ascii	"s_queue\000"
 2637      65756500 
 2638              	.LASF7:
 2639 023d 73686F72 		.ascii	"short unsigned int\000"
 2639      7420756E 
 2639      7369676E 
 2639      65642069 
 2639      6E7400
 2640              	.LASF163:
 2641 0250 4D454449 		.ascii	"MEDIA_TYPE_ENTRY\000"
 2641      415F5459 
 2641      50455F45 
 2641      4E545259 
 2641      00
 2642              	.LASF95:
 2643 0261 74625F73 		.ascii	"tb_size\000"
 2643      697A6500 
 2644              	.LASF59:
 2645 0269 725F6E65 		.ascii	"r_newer\000"
 2645      77657200 
 2646              	.LASF86:
 2647 0271 72656761 		.ascii	"regarm_t\000"
 2647      726D5F74 
 2647      00
 2648              	.LASF66:
 2649 027a 76745F70 		.ascii	"vt_prev\000"
 2649      72657600 
 2650              	.LASF82:
 2651 0282 76746C69 		.ascii	"vtlist\000"
 2651      737400
 2652              	.LASF128:
 2653 0289 73696E5F 		.ascii	"sin_zero\000"
 2653      7A65726F 
 2653      00
 2654              	.LASF116:
 2655 0292 6D757465 		.ascii	"mutex_t\000"
 2655      785F7400 
 2656              	.LASF77:
 2657 029a 6C6F636B 		.ascii	"lock_cnt\000"
 2657      5F636E74 
 2657      00
 2658              	.LASF152:
 2659 02a3 7265715F 		.ascii	"req_auth\000"
 2659      61757468 
 2659      00
 2660              	.LASF27:
 2661 02ac 636E745F 		.ascii	"cnt_t\000"
 2661      7400
 2662              	.LASF134:
 2663 02b2 7374726D 		.ascii	"strm_csock\000"
 2663      5F63736F 
ARM GAS  C:\Users\jo\AppData\Local\Temp\ccvxPQfj.s 			page 50


 2663      636B00
 2664              	.LASF0:
 2665 02bd 756E7369 		.ascii	"unsigned int\000"
 2665      676E6564 
 2665      20696E74 
 2665      00
 2666              	.LASF122:
 2667 02ca 735F6164 		.ascii	"s_addr\000"
 2667      647200
 2668              	.LASF65:
 2669 02d1 76745F6E 		.ascii	"vt_next\000"
 2669      65787400 
 2670              	.LASF105:
 2671 02d9 77747365 		.ascii	"wtsemp\000"
 2671      6D7000
 2672              	.LASF149:
 2673 02e0 7265715F 		.ascii	"req_realm\000"
 2673      7265616C 
 2673      6D00
 2674              	.LASF42:
 2675 02ea 705F6D73 		.ascii	"p_msgqueue\000"
 2675      67717565 
 2675      756500
 2676              	.LASF120:
 2677 02f5 7533325F 		.ascii	"u32_t\000"
 2677      7400
 2678              	.LASF188:
 2679 02fb 48747470 		.ascii	"HttpRegisterMediaType\000"
 2679      52656769 
 2679      73746572 
 2679      4D656469 
 2679      61547970 
 2680              	.LASF110:
 2681 0311 735F636E 		.ascii	"s_cnt\000"
 2681      7400
 2682              	.LASF136:
 2683 0317 7374726D 		.ascii	"strm_caddr\000"
 2683      5F636164 
 2683      647200
 2684              	.LASF171:
 2685 0322 4D454449 		.ascii	"MEDIATYPE_HANDLER\000"
 2685      41545950 
 2685      455F4841 
 2685      4E444C45 
 2685      5200
 2686              	.LASF127:
 2687 0334 73696E5F 		.ascii	"sin_addr\000"
 2687      61646472 
 2687      00
 2688              	.LASF50:
 2689 033d 63685F74 		.ascii	"ch_thread\000"
 2689      68726561 
 2689      6400
 2690              	.LASF148:
 2691 0347 7265715F 		.ascii	"req_length\000"
 2691      6C656E67 
 2691      746800
ARM GAS  C:\Users\jo\AppData\Local\Temp\ccvxPQfj.s 			page 51


 2692              	.LASF25:
 2693 0352 6D73675F 		.ascii	"msg_t\000"
 2693      7400
 2694              	.LASF46:
 2695 0358 705F7265 		.ascii	"p_realprio\000"
 2695      616C7072 
 2695      696F00
 2696              	.LASF79:
 2697 0363 63685F73 		.ascii	"ch_system_t\000"
 2697      79737465 
 2697      6D5F7400 
 2698              	.LASF21:
 2699 036f 746D6F64 		.ascii	"tmode_t\000"
 2699      655F7400 
 2700              	.LASF137:
 2701 0377 48545450 		.ascii	"HTTP_STREAM\000"
 2701      5F535452 
 2701      45414D00 
 2702              	.LASF186:
 2703 0383 2E2E2F2E 		.ascii	"../../../demos/STM32/RT-STM32F407-DISCOVERY-uHttp/u"
 2703      2E2F2E2E 
 2703      2F64656D 
 2703      6F732F53 
 2703      544D3332 
 2704 03b6 68747470 		.ascii	"http-1.1/pro/mtreg.c\000"
 2704      2D312E31 
 2704      2F70726F 
 2704      2F6D7472 
 2704      65672E63 
 2705              	.LASF55:
 2706 03cb 63685F72 		.ascii	"ch_ready_list\000"
 2706      65616479 
 2706      5F6C6973 
 2706      7400
 2707              	.LASF26:
 2708 03d9 6576656E 		.ascii	"eventmask_t\000"
 2708      746D6173 
 2708      6B5F7400 
 2709              	.LASF8:
 2710 03e5 5F5F696E 		.ascii	"__int32_t\000"
 2710      7433325F 
 2710      7400
 2711              	.LASF177:
 2712 03ef 73756274 		.ascii	"subtype\000"
 2712      79706500 
 2713              	.LASF185:
 2714 03f7 474E5520 		.ascii	"GNU C 4.9.3 20141119 (release) [ARM/embedded-4_9-br"
 2714      4320342E 
 2714      392E3320 
 2714      32303134 
 2714      31313139 
 2715 042a 616E6368 		.ascii	"anch revision 218278] -mcpu=cortex-m4 -mno-thumb-in"
 2715      20726576 
 2715      6973696F 
 2715      6E203231 
 2715      38323738 
 2716 045d 74657277 		.ascii	"terwork -mthumb -ggdb -O2 -fomit-frame-pointer -fal"
ARM GAS  C:\Users\jo\AppData\Local\Temp\ccvxPQfj.s 			page 52


 2716      6F726B20 
 2716      2D6D7468 
 2716      756D6220 
 2716      2D676764 
 2717 0490 69676E2D 		.ascii	"ign-functions=16 -ffunction-sections -fdata-section"
 2717      66756E63 
 2717      74696F6E 
 2717      733D3136 
 2717      202D6666 
 2718 04c3 73202D66 		.ascii	"s -fno-common\000"
 2718      6E6F2D63 
 2718      6F6D6D6F 
 2718      6E00
 2719              	.LASF87:
 2720 04d1 73746B61 		.ascii	"stkalign_t\000"
 2720      6C69676E 
 2720      5F7400
 2721              	.LASF178:
 2722 04dc 68616E64 		.ascii	"handler\000"
 2722      6C657200 
 2723              	.LASF162:
 2724 04e4 735F7265 		.ascii	"s_req\000"
 2724      7100
 2725              	.LASF125:
 2726 04ea 73696E5F 		.ascii	"sin_family\000"
 2726      66616D69 
 2726      6C7900
 2727              	.LASF41:
 2728 04f5 705F7761 		.ascii	"p_waiting\000"
 2728      6974696E 
 2728      6700
 2729              	.LASF175:
 2730 04ff 7461696C 		.ascii	"tail\000"
 2730      00
 2731              	.LASF85:
 2732 0504 73697A65 		.ascii	"sizetype\000"
 2732      74797065 
 2732      00
 2733              	.LASF48:
 2734 050d 74687265 		.ascii	"thread_reference_t\000"
 2734      61645F72 
 2734      65666572 
 2734      656E6365 
 2734      5F7400
 2735              	.LASF71:
 2736 0520 63685F76 		.ascii	"ch_virtual_timers_list\000"
 2736      69727475 
 2736      616C5F74 
 2736      696D6572 
 2736      735F6C69 
 2737              	.LASF155:
 2738 0537 7265715F 		.ascii	"req_host\000"
 2738      686F7374 
 2738      00
 2739              	.LASF94:
 2740 0540 63685F73 		.ascii	"ch_swc_event_t\000"
 2740      77635F65 
ARM GAS  C:\Users\jo\AppData\Local\Temp\ccvxPQfj.s 			page 53


 2740      76656E74 
 2740      5F7400
 2741              	.LASF72:
 2742 054f 76745F6C 		.ascii	"vt_lasttime\000"
 2742      61737474 
 2742      696D6500 
 2743              	.LASF19:
 2744 055b 75696E74 		.ascii	"uint64_t\000"
 2744      36345F74 
 2744      00
 2745              	.LASF35:
 2746 0564 705F6F6C 		.ascii	"p_older\000"
 2746      64657200 
 2747              	.LASF58:
 2748 056c 725F6374 		.ascii	"r_ctx\000"
 2748      7800
 2749              	.LASF100:
 2750 0572 746D5F63 		.ascii	"tm_calibration_t\000"
 2750      616C6962 
 2750      72617469 
 2750      6F6E5F74 
 2750      00
 2751              	.LASF124:
 2752 0583 73696E5F 		.ascii	"sin_len\000"
 2752      6C656E00 
 2753              	.LASF37:
 2754 058b 705F7374 		.ascii	"p_stklimit\000"
 2754      6B6C696D 
 2754      697400
 2755              	.LASF61:
 2756 0596 725F6375 		.ascii	"r_current\000"
 2756      7272656E 
 2756      7400
 2757              	.LASF60:
 2758 05a0 725F6F6C 		.ascii	"r_older\000"
 2758      64657200 
 2759              	.LASF180:
 2760 05a8 6D656469 		.ascii	"mediaTypeList\000"
 2760      61547970 
 2760      654C6973 
 2760      7400
 2761              	.LASF13:
 2762 05b6 5F5F7569 		.ascii	"__uint64_t\000"
 2762      6E743634 
 2762      5F7400
 2763              	.LASF126:
 2764 05c1 73696E5F 		.ascii	"sin_port\000"
 2764      706F7274 
 2764      00
 2765              	.LASF130:
 2766 05ca 7374726D 		.ascii	"strm_ipos\000"
 2766      5F69706F 
 2766      7300
 2767              	.LASF23:
 2768 05d4 74726566 		.ascii	"trefs_t\000"
 2768      735F7400 
 2769              	.LASF97:
ARM GAS  C:\Users\jo\AppData\Local\Temp\ccvxPQfj.s 			page 54


 2770 05dc 74625F62 		.ascii	"tb_buffer\000"
 2770      75666665 
 2770      7200
 2771              	.LASF139:
 2772 05e6 5F485454 		.ascii	"_HTTP_REQUEST\000"
 2772      505F5245 
 2772      51554553 
 2772      5400
 2773              	.LASF63:
 2774 05f4 76697274 		.ascii	"virtual_timer_t\000"
 2774      75616C5F 
 2774      74696D65 
 2774      725F7400 
 2775              	.LASF31:
 2776 0604 705F7072 		.ascii	"p_prev\000"
 2776      657600
 2777              	.LASF24:
 2778 060b 74707269 		.ascii	"tprio_t\000"
 2778      6F5F7400 
 2779              	.LASF133:
 2780 0613 7374726D 		.ascii	"strm_ssock\000"
 2780      5F73736F 
 2780      636B00
 2781              	.LASF74:
 2782 061e 63685F73 		.ascii	"ch_system_debug\000"
 2782      79737465 
 2782      6D5F6465 
 2782      62756700 
 2783              	.LASF117:
 2784 062e 5F426F6F 		.ascii	"_Bool\000"
 2784      6C00
 2785              	.LASF17:
 2786 0634 696E7433 		.ascii	"int32_t\000"
 2786      325F7400 
 2787              	.LASF4:
 2788 063c 756E7369 		.ascii	"unsigned char\000"
 2788      676E6564 
 2788      20636861 
 2788      7200
 2789              	.LASF45:
 2790 064a 705F6D74 		.ascii	"p_mtxlist\000"
 2790      786C6973 
 2790      7400
 2791              	.LASF5:
 2792 0654 73686F72 		.ascii	"short int\000"
 2792      7420696E 
 2792      7400
 2793              	.LASF38:
 2794 065e 705F7374 		.ascii	"p_state\000"
 2794      61746500 
 2795              	.LASF57:
 2796 0666 725F7072 		.ascii	"r_prio\000"
 2796      696F00
 2797              	.LASF107:
 2798 066d 65776D61 		.ascii	"ewmask\000"
 2798      736B00
 2799              	.LASF30:
ARM GAS  C:\Users\jo\AppData\Local\Temp\ccvxPQfj.s 			page 55


 2800 0674 705F6E65 		.ascii	"p_next\000"
 2800      787400
 2801              	.LASF39:
 2802 067b 705F666C 		.ascii	"p_flags\000"
 2802      61677300 
 2803              	.LASF166:
 2804 0683 6D656469 		.ascii	"media_type\000"
 2804      615F7479 
 2804      706500
 2805              	.LASF84:
 2806 068e 69646C65 		.ascii	"idle_thread_wa\000"
 2806      5F746872 
 2806      6561645F 
 2806      776100
 2807              	.LASF80:
 2808 069d 63685F73 		.ascii	"ch_system\000"
 2808      79737465 
 2808      6D00
 2809              	.LASF164:
 2810 06a7 5F4D4544 		.ascii	"_MEDIATYPE\000"
 2810      49415459 
 2810      504500
 2811              	.LASF64:
 2812 06b2 63685F76 		.ascii	"ch_virtual_timer\000"
 2812      69727475 
 2812      616C5F74 
 2812      696D6572 
 2812      00
 2813              	.LASF108:
 2814 06c3 63685F73 		.ascii	"ch_semaphore\000"
 2814      656D6170 
 2814      686F7265 
 2814      00
 2815              	.LASF44:
 2816 06d0 705F6570 		.ascii	"p_epending\000"
 2816      656E6469 
 2816      6E6700
 2817              	.LASF174:
 2818 06db 68656164 		.ascii	"head\000"
 2818      00
 2819              	.LASF18:
 2820 06e0 75696E74 		.ascii	"uint32_t\000"
 2820      33325F74 
 2820      00
 2821              	.LASF106:
 2822 06e9 77746D74 		.ascii	"wtmtxp\000"
 2822      787000
 2823              	.LASF56:
 2824 06f0 725F7175 		.ascii	"r_queue\000"
 2824      65756500 
 2825              	.LASF67:
 2826 06f8 76745F64 		.ascii	"vt_delta\000"
 2826      656C7461 
 2826      00
 2827              	.LASF51:
 2828 0701 63685F74 		.ascii	"ch_threads_list\000"
 2828      68726561 
ARM GAS  C:\Users\jo\AppData\Local\Temp\ccvxPQfj.s 			page 56


 2828      64735F6C 
 2828      69737400 
 2829              	.LASF135:
 2830 0711 7374726D 		.ascii	"strm_saddr\000"
 2830      5F736164 
 2830      647200
 2831              	.LASF11:
 2832 071c 6C6F6E67 		.ascii	"long unsigned int\000"
 2832      20756E73 
 2832      69676E65 
 2832      6420696E 
 2832      7400
 2833              	.LASF115:
 2834 072e 63686172 		.ascii	"char\000"
 2834      00
 2835              	.LASF181:
 2836 0733 73747263 		.ascii	"strcasecmp\000"
 2836      61736563 
 2836      6D7000
 2837              	.LASF129:
 2838 073e 5F485454 		.ascii	"_HTTP_STREAM\000"
 2838      505F5354 
 2838      5245414D 
 2838      00
 2839              	.LASF167:
 2840 074b 6D656469 		.ascii	"media_subtype\000"
 2840      615F7375 
 2840      62747970 
 2840      6500
 2841              	.LASF6:
 2842 0759 5F5F7569 		.ascii	"__uint16_t\000"
 2842      6E743136 
 2842      5F7400
 2843              	.LASF29:
 2844 0764 74687265 		.ascii	"thread_t\000"
 2844      61645F74 
 2844      00
 2845              	.LASF169:
 2846 076d 6D656469 		.ascii	"media_handler\000"
 2846      615F6861 
 2846      6E646C65 
 2846      7200
 2847              	.LASF114:
 2848 077b 6D5F6E65 		.ascii	"m_next\000"
 2848      787400
 2849              	.LASF28:
 2850 0782 73797374 		.ascii	"systime_t\000"
 2850      696D655F 
 2850      7400
 2851              	.LASF62:
 2852 078c 76746675 		.ascii	"vtfunc_t\000"
 2852      6E635F74 
 2852      00
 2853              	.LASF10:
 2854 0795 5F5F7569 		.ascii	"__uint32_t\000"
 2854      6E743332 
 2854      5F7400
ARM GAS  C:\Users\jo\AppData\Local\Temp\ccvxPQfj.s 			page 57


 2855              	.LASF75:
 2856 07a0 70616E69 		.ascii	"panic_msg\000"
 2856      635F6D73 
 2856      6700
 2857              	.LASF99:
 2858 07aa 6F666673 		.ascii	"offset\000"
 2858      657400
 2859              	.LASF111:
 2860 07b1 63685F6D 		.ascii	"ch_mutex\000"
 2860      75746578 
 2860      00
 2861              	.LASF88:
 2862 07ba 636F6E74 		.ascii	"context\000"
 2862      65787400 
 2863              	.LASF20:
 2864 07c2 7274636E 		.ascii	"rtcnt_t\000"
 2864      745F7400 
 2865              	.LASF157:
 2866 07ca 7265715F 		.ascii	"req_bnd_dispo\000"
 2866      626E645F 
 2866      64697370 
 2866      6F00
 2867              	.LASF69:
 2868 07d8 76745F70 		.ascii	"vt_par\000"
 2868      617200
 2869              	.LASF119:
 2870 07df 7531365F 		.ascii	"u16_t\000"
 2870      7400
 2871              	.LASF156:
 2872 07e5 7265715F 		.ascii	"req_encoding\000"
 2872      656E636F 
 2872      64696E67 
 2872      00
 2873              	.LASF160:
 2874 07f2 5F485454 		.ascii	"_HTTPD_SESSION\000"
 2874      50445F53 
 2874      45535349 
 2874      4F4E00
 2875              	.LASF52:
 2876 0801 74687265 		.ascii	"threads_queue_t\000"
 2876      6164735F 
 2876      71756575 
 2876      655F7400 
 2877              	.LASF170:
 2878 0811 6D656469 		.ascii	"media_ext\000"
 2878      615F6578 
 2878      7400
 2879              	.LASF40:
 2880 081b 705F7265 		.ascii	"p_refs\000"
 2880      667300
 2881              	.LASF76:
 2882 0822 6973725F 		.ascii	"isr_cnt\000"
 2882      636E7400 
 2883              	.LASF140:
 2884 082a 7265715F 		.ascii	"req_method\000"
 2884      6D657468 
 2884      6F6400
ARM GAS  C:\Users\jo\AppData\Local\Temp\ccvxPQfj.s 			page 58


 2885              	.LASF138:
 2886 0835 48545450 		.ascii	"HTTP_REQUEST\000"
 2886      5F524551 
 2886      55455354 
 2886      00
 2887              	.LASF183:
 2888 0842 63616C6C 		.ascii	"calloc\000"
 2888      6F6300
 2889              	.LASF123:
 2890 0849 736F636B 		.ascii	"sockaddr_in\000"
 2890      61646472 
 2890      5F696E00 
 2891              	.LASF81:
 2892 0855 726C6973 		.ascii	"rlist\000"
 2892      7400
 2893              	.LASF132:
 2894 085b 7374726D 		.ascii	"strm_ibuf\000"
 2894      5F696275 
 2894      6600
 2895              	.LASF15:
 2896 0865 75696E74 		.ascii	"uint8_t\000"
 2896      385F7400 
 2897              	.LASF161:
 2898 086d 735F7374 		.ascii	"s_stream\000"
 2898      7265616D 
 2898      00
 2899              	.LASF103:
 2900 0876 77746F62 		.ascii	"wtobjp\000"
 2900      6A7000
 2901              	.LASF36:
 2902 087d 705F6E61 		.ascii	"p_name\000"
 2902      6D6500
 2903              	.LASF173:
 2904 0884 6E657874 		.ascii	"next\000"
 2904      00
 2905              	.LASF49:
 2906 0889 74687265 		.ascii	"threads_list_t\000"
 2906      6164735F 
 2906      6C697374 
 2906      5F7400
 2907              	.LASF78:
 2908 0898 74726163 		.ascii	"trace_buffer\000"
 2908      655F6275 
 2908      66666572 
 2908      00
 2909              	.LASF43:
 2910 08a5 705F6D73 		.ascii	"p_msg\000"
 2910      6700
 2911              	.LASF150:
 2912 08ab 7265715F 		.ascii	"req_type\000"
 2912      74797065 
 2912      00
 2913              	.LASF113:
 2914 08b4 6D5F6F77 		.ascii	"m_owner\000"
 2914      6E657200 
 2915              	.LASF92:
 2916 08bc 73655F77 		.ascii	"se_wtobjp\000"
ARM GAS  C:\Users\jo\AppData\Local\Temp\ccvxPQfj.s 			page 59


 2916      746F626A 
 2916      7000
 2917              	.LASF33:
 2918 08c6 705F6374 		.ascii	"p_ctx\000"
 2918      7800
 2919              	.LASF68:
 2920 08cc 76745F66 		.ascii	"vt_func\000"
 2920      756E6300 
 2921              	.LASF121:
 2922 08d4 696E5F61 		.ascii	"in_addr\000"
 2922      64647200 
 2923              	.LASF131:
 2924 08dc 7374726D 		.ascii	"strm_ilen\000"
 2924      5F696C65 
 2924      6E00
 2925              		.ident	"GCC: (GNU Tools for ARM Embedded Processors) 4.9.3 20141119 (release) [ARM/embedded-4_9-br
ARM GAS  C:\Users\jo\AppData\Local\Temp\ccvxPQfj.s 			page 60


DEFINED SYMBOLS
                            *ABS*:00000000 mtreg.c
C:\Users\jo\AppData\Local\Temp\ccvxPQfj.s:19     .text.HttpRegisterMediaType:00000000 $t
C:\Users\jo\AppData\Local\Temp\ccvxPQfj.s:25     .text.HttpRegisterMediaType:00000000 HttpRegisterMediaType
C:\Users\jo\AppData\Local\Temp\ccvxPQfj.s:273    .text.HttpRegisterMediaType:00000140 $d
                     .debug_frame:00000010 $d
C:\Users\jo\AppData\Local\Temp\ccvxPQfj.s:277    .text.HttpRegisterMediaType:00000144 $t

UNDEFINED SYMBOLS
strcasecmp
strdup
calloc
strncpy
free
mediaTypeList
