ARM GAS  C:\Users\jo\AppData\Local\Temp\cctZeUuD.s 			page 1


   1              		.syntax unified
   2              		.cpu cortex-m4
   3              		.fpu softvfp
   4              		.eabi_attribute 20, 1
   5              		.eabi_attribute 21, 1
   6              		.eabi_attribute 23, 3
   7              		.eabi_attribute 24, 1
   8              		.eabi_attribute 25, 1
   9              		.eabi_attribute 26, 1
  10              		.eabi_attribute 30, 2
  11              		.eabi_attribute 34, 1
  12              		.eabi_attribute 18, 4
  13              		.thumb
  14              		.file	"netbuf.c"
  15              		.text
  16              	.Ltext0:
  17              		.cfi_sections	.debug_frame
  18              		.section	.text.chprintf.constprop.0,"ax",%progbits
  19              		.align	2
  20              		.p2align 4,,15
  21              		.thumb
  22              		.thumb_func
  23              		.type	chprintf.constprop.0, %function
  24              	chprintf.constprop.0:
  25              	.LFB269:
  26              		.file 1 "../../../os/hal/lib/streams/chprintf.h"
  27              		.loc 1 69 0
  28              		.cfi_startproc
  29              		@ args = 4, pretend = 12, frame = 8
  30              		@ frame_needed = 0, uses_anonymous_args = 1
  31              	.LVL0:
  32 0000 0EB4     		push	{r1, r2, r3}
  33              		.cfi_def_cfa_offset 12
  34              		.cfi_offset 1, -12
  35              		.cfi_offset 2, -8
  36              		.cfi_offset 3, -4
  37 0002 00B5     		push	{lr}
  38              		.cfi_def_cfa_offset 16
  39              		.cfi_offset 14, -16
  40 0004 82B0     		sub	sp, sp, #8
  41              		.cfi_def_cfa_offset 24
  42              		.loc 1 73 0
  43 0006 04AB     		add	r3, sp, #16
  44              		.loc 1 74 0
  45 0008 1A46     		mov	r2, r3
  46 000a 0549     		ldr	r1, .L3
  47 000c 0548     		ldr	r0, .L3+4
  48              	.LVL1:
  49              		.loc 1 73 0
  50 000e 0193     		str	r3, [sp, #4]
  51              		.loc 1 74 0
  52 0010 FFF7FEFF 		bl	chvprintf
  53              	.LVL2:
  54              		.loc 1 78 0
  55 0014 02B0     		add	sp, sp, #8
  56              		.cfi_def_cfa_offset 16
  57              		@ sp needed
ARM GAS  C:\Users\jo\AppData\Local\Temp\cctZeUuD.s 			page 2


  58 0016 5DF804EB 		ldr	lr, [sp], #4
  59              		.cfi_restore 14
  60              		.cfi_def_cfa_offset 12
  61 001a 03B0     		add	sp, sp, #12
  62              		.cfi_restore 3
  63              		.cfi_restore 2
  64              		.cfi_restore 1
  65              		.cfi_def_cfa_offset 0
  66 001c 7047     		bx	lr
  67              	.L4:
  68 001e 00BF     		.align	2
  69              	.L3:
  70 0020 00000000 		.word	.LC0
  71 0024 00000000 		.word	itm_port
  72              		.cfi_endproc
  73              	.LFE269:
  74              		.size	chprintf.constprop.0, .-chprintf.constprop.0
  75 0028 AFF30080 		.section	.text.netbuf_new,"ax",%progbits
  75      AFF30080 
  76              		.align	2
  77              		.p2align 4,,15
  78              		.global	netbuf_new
  79              		.thumb
  80              		.thumb_func
  81              		.type	netbuf_new, %function
  82              	netbuf_new:
  83              	.LFB260:
  84              		.file 2 "../../../ext/lwip/src/api/netbuf.c"
  85              		.loc 2 57 0
  86              		.cfi_startproc
  87              		@ args = 0, pretend = 0, frame = 0
  88              		@ frame_needed = 0, uses_anonymous_args = 0
  89 0000 08B5     		push	{r3, lr}
  90              		.cfi_def_cfa_offset 8
  91              		.cfi_offset 3, -8
  92              		.cfi_offset 14, -4
  93              		.loc 2 60 0
  94 0002 054B     		ldr	r3, .L12
  95 0004 9889     		ldrh	r0, [r3, #12]
  96 0006 FFF7FEFF 		bl	malloc
  97              	.LVL3:
  98              		.loc 2 61 0
  99 000a 20B1     		cbz	r0, .L6
 100              		.loc 2 62 0
 101 000c 0023     		movs	r3, #0
 102 000e 0360     		str	r3, [r0]
 103              		.loc 2 63 0
 104 0010 4360     		str	r3, [r0, #4]
 105              		.loc 2 64 0
 106 0012 8360     		str	r3, [r0, #8]
 107              		.loc 2 65 0
 108 0014 8381     		strh	r3, [r0, #12]	@ movhi
 109              	.L6:
 110              		.loc 2 79 0
 111 0016 08BD     		pop	{r3, pc}
 112              	.L13:
 113              		.align	2
ARM GAS  C:\Users\jo\AppData\Local\Temp\cctZeUuD.s 			page 3


 114              	.L12:
 115 0018 00000000 		.word	memp_sizes
 116              		.cfi_endproc
 117              	.LFE260:
 118              		.size	netbuf_new, .-netbuf_new
 119              		.section	.text.netbuf_delete,"ax",%progbits
 120              		.align	2
 121              		.p2align 4,,15
 122              		.global	netbuf_delete
 123              		.thumb
 124              		.thumb_func
 125              		.type	netbuf_delete, %function
 126              	netbuf_delete:
 127              	.LFB261:
 128              		.loc 2 88 0
 129              		.cfi_startproc
 130              		@ args = 0, pretend = 0, frame = 0
 131              		@ frame_needed = 0, uses_anonymous_args = 0
 132              	.LVL4:
 133              		.loc 2 89 0
 134 0000 50B1     		cbz	r0, .L21
 135              		.loc 2 88 0
 136 0002 10B5     		push	{r4, lr}
 137              		.cfi_def_cfa_offset 8
 138              		.cfi_offset 4, -8
 139              		.cfi_offset 14, -4
 140 0004 0446     		mov	r4, r0
 141              		.loc 2 90 0
 142 0006 0068     		ldr	r0, [r0]
 143              	.LVL5:
 144 0008 08B1     		cbz	r0, .L16
 145              		.loc 2 91 0
 146 000a FFF7FEFF 		bl	pbuf_free
 147              	.LVL6:
 148              	.L16:
 149              		.loc 2 94 0
 150 000e 2046     		mov	r0, r4
 151              		.loc 2 96 0
 152 0010 BDE81040 		pop	{r4, lr}
 153              		.cfi_restore 14
 154              		.cfi_restore 4
 155              		.cfi_def_cfa_offset 0
 156              	.LVL7:
 157              		.loc 2 94 0
 158 0014 FFF7FEBF 		b	free
 159              	.LVL8:
 160              	.L21:
 161 0018 7047     		bx	lr
 162              		.cfi_endproc
 163              	.LFE261:
 164              		.size	netbuf_delete, .-netbuf_delete
 165 001a 00BFAFF3 		.section	.text.netbuf_alloc,"ax",%progbits
 165      0080
 166              		.align	2
 167              		.p2align 4,,15
 168              		.global	netbuf_alloc
 169              		.thumb
ARM GAS  C:\Users\jo\AppData\Local\Temp\cctZeUuD.s 			page 4


 170              		.thumb_func
 171              		.type	netbuf_alloc, %function
 172              	netbuf_alloc:
 173              	.LFB262:
 174              		.loc 2 108 0
 175              		.cfi_startproc
 176              		@ args = 0, pretend = 0, frame = 0
 177              		@ frame_needed = 0, uses_anonymous_args = 0
 178              	.LVL9:
 179 0000 30B5     		push	{r4, r5, lr}
 180              		.cfi_def_cfa_offset 12
 181              		.cfi_offset 4, -12
 182              		.cfi_offset 5, -8
 183              		.cfi_offset 14, -4
 184              		.loc 2 109 0
 185 0002 0446     		mov	r4, r0
 186              		.loc 2 108 0
 187 0004 83B0     		sub	sp, sp, #12
 188              		.cfi_def_cfa_offset 24
 189              		.loc 2 109 0
 190 0006 F8B1     		cbz	r0, .L32
 191              		.loc 2 112 0
 192 0008 0068     		ldr	r0, [r0]
 193              	.LVL10:
 194 000a 0D46     		mov	r5, r1
 195 000c 08B1     		cbz	r0, .L25
 196              		.loc 2 113 0
 197 000e FFF7FEFF 		bl	pbuf_free
 198              	.LVL11:
 199              	.L25:
 200              		.loc 2 115 0
 201 0012 0020     		movs	r0, #0
 202 0014 0246     		mov	r2, r0
 203 0016 2946     		mov	r1, r5
 204 0018 FFF7FEFF 		bl	pbuf_alloc
 205              	.LVL12:
 206 001c 2060     		str	r0, [r4]
 207              		.loc 2 116 0
 208 001e 20B1     		cbz	r0, .L24
 209              		.loc 2 119 0
 210 0020 4389     		ldrh	r3, [r0, #10]
 211 0022 AB42     		cmp	r3, r5
 212 0024 03D3     		bcc	.L33
 213              	.L26:
 214              		.loc 2 121 0
 215 0026 6060     		str	r0, [r4, #4]
 216              		.loc 2 122 0
 217 0028 4068     		ldr	r0, [r0, #4]
 218              	.L24:
 219              		.loc 2 123 0
 220 002a 03B0     		add	sp, sp, #12
 221              		.cfi_remember_state
 222              		.cfi_def_cfa_offset 12
 223              		@ sp needed
 224 002c 30BD     		pop	{r4, r5, pc}
 225              	.LVL13:
 226              	.L33:
ARM GAS  C:\Users\jo\AppData\Local\Temp\cctZeUuD.s 			page 5


 227              		.cfi_restore_state
 228              		.loc 2 119 0 discriminator 1
 229 002e 0D4B     		ldr	r3, .L34
 230 0030 0093     		str	r3, [sp]
 231 0032 0D49     		ldr	r1, .L34+4
 232 0034 0D4A     		ldr	r2, .L34+8
 233 0036 0E48     		ldr	r0, .L34+12
 234 0038 7823     		movs	r3, #120
 235 003a FFF7FEFF 		bl	chprintf.constprop.0
 236              	.LVL14:
 237              	.LBB24:
 238              	.LBB25:
 239              		.file 3 "../../../os/hal/osal/rt/osal.h"
 240              		.loc 3 416 0 discriminator 1
 241 003e 0B48     		ldr	r0, .L34+8
 242 0040 FFF7FEFF 		bl	chSysHalt
 243              	.LVL15:
 244 0044 2068     		ldr	r0, [r4]
 245 0046 EEE7     		b	.L26
 246              	.LVL16:
 247              	.L32:
 248              	.LBE25:
 249              	.LBE24:
 250              		.loc 2 109 0 discriminator 1
 251 0048 064B     		ldr	r3, .L34
 252 004a 0093     		str	r3, [sp]
 253 004c 0649     		ldr	r1, .L34+4
 254              	.LVL17:
 255 004e 094A     		ldr	r2, .L34+16
 256 0050 0748     		ldr	r0, .L34+12
 257              	.LVL18:
 258 0052 6D23     		movs	r3, #109
 259 0054 FFF7FEFF 		bl	chprintf.constprop.0
 260              	.LVL19:
 261              	.LBB26:
 262              	.LBB27:
 263              		.loc 3 416 0 discriminator 1
 264 0058 0648     		ldr	r0, .L34+16
 265 005a FFF7FEFF 		bl	chSysHalt
 266              	.LVL20:
 267              	.LBE27:
 268              	.LBE26:
 269              		.loc 2 109 0 discriminator 1
 270 005e 2046     		mov	r0, r4
 271 0060 E3E7     		b	.L24
 272              	.L35:
 273 0062 00BF     		.align	2
 274              	.L34:
 275 0064 44000000 		.word	.LC2
 276 0068 00000000 		.word	.LC0
 277 006c 68000000 		.word	.LC3
 278 0070 00000000 		.word	itm_port
 279 0074 28000000 		.word	.LC1
 280              		.cfi_endproc
 281              	.LFE262:
 282              		.size	netbuf_alloc, .-netbuf_alloc
 283 0078 AFF30080 		.section	.text.netbuf_free,"ax",%progbits
ARM GAS  C:\Users\jo\AppData\Local\Temp\cctZeUuD.s 			page 6


 283      AFF30080 
 284              		.align	2
 285              		.p2align 4,,15
 286              		.global	netbuf_free
 287              		.thumb
 288              		.thumb_func
 289              		.type	netbuf_free, %function
 290              	netbuf_free:
 291              	.LFB263:
 292              		.loc 2 132 0
 293              		.cfi_startproc
 294              		@ args = 0, pretend = 0, frame = 0
 295              		@ frame_needed = 0, uses_anonymous_args = 0
 296              	.LVL21:
 297 0000 10B5     		push	{r4, lr}
 298              		.cfi_def_cfa_offset 8
 299              		.cfi_offset 4, -8
 300              		.cfi_offset 14, -4
 301              		.loc 2 133 0
 302 0002 0446     		mov	r4, r0
 303              		.loc 2 132 0
 304 0004 82B0     		sub	sp, sp, #8
 305              		.cfi_def_cfa_offset 16
 306              		.loc 2 133 0
 307 0006 40B1     		cbz	r0, .L43
 308              		.loc 2 134 0
 309 0008 0068     		ldr	r0, [r0]
 310              	.LVL22:
 311 000a 08B1     		cbz	r0, .L38
 312              		.loc 2 135 0
 313 000c FFF7FEFF 		bl	pbuf_free
 314              	.LVL23:
 315              	.L38:
 316              		.loc 2 137 0
 317 0010 0023     		movs	r3, #0
 318 0012 6360     		str	r3, [r4, #4]
 319 0014 2360     		str	r3, [r4]
 320              		.loc 2 138 0
 321 0016 02B0     		add	sp, sp, #8
 322              		.cfi_remember_state
 323              		.cfi_def_cfa_offset 8
 324              		@ sp needed
 325 0018 10BD     		pop	{r4, pc}
 326              	.LVL24:
 327              	.L43:
 328              		.cfi_restore_state
 329              		.loc 2 133 0 discriminator 1
 330 001a 074B     		ldr	r3, .L44
 331 001c 0093     		str	r3, [sp]
 332 001e 0749     		ldr	r1, .L44+4
 333 0020 074A     		ldr	r2, .L44+8
 334 0022 0848     		ldr	r0, .L44+12
 335              	.LVL25:
 336 0024 8523     		movs	r3, #133
 337 0026 FFF7FEFF 		bl	chprintf.constprop.0
 338              	.LVL26:
 339              	.LBB28:
ARM GAS  C:\Users\jo\AppData\Local\Temp\cctZeUuD.s 			page 7


 340              	.LBB29:
 341              		.loc 3 416 0 discriminator 1
 342 002a 0548     		ldr	r0, .L44+8
 343              	.LBE29:
 344              	.LBE28:
 345              		.loc 2 138 0 discriminator 1
 346 002c 02B0     		add	sp, sp, #8
 347              		.cfi_def_cfa_offset 8
 348              		@ sp needed
 349 002e BDE81040 		pop	{r4, lr}
 350              		.cfi_restore 14
 351              		.cfi_restore 4
 352              		.cfi_def_cfa_offset 0
 353              	.LVL27:
 354              	.LBB31:
 355              	.LBB30:
 356              		.loc 3 416 0 discriminator 1
 357 0032 FFF7FEBF 		b	chSysHalt
 358              	.LVL28:
 359              	.L45:
 360 0036 00BF     		.align	2
 361              	.L44:
 362 0038 44000000 		.word	.LC2
 363 003c 00000000 		.word	.LC0
 364 0040 8C000000 		.word	.LC4
 365 0044 00000000 		.word	itm_port
 366              	.LBE30:
 367              	.LBE31:
 368              		.cfi_endproc
 369              	.LFE263:
 370              		.size	netbuf_free, .-netbuf_free
 371 0048 AFF30080 		.section	.text.netbuf_ref,"ax",%progbits
 371      AFF30080 
 372              		.align	2
 373              		.p2align 4,,15
 374              		.global	netbuf_ref
 375              		.thumb
 376              		.thumb_func
 377              		.type	netbuf_ref, %function
 378              	netbuf_ref:
 379              	.LFB264:
 380              		.loc 2 151 0
 381              		.cfi_startproc
 382              		@ args = 0, pretend = 0, frame = 0
 383              		@ frame_needed = 0, uses_anonymous_args = 0
 384              	.LVL29:
 385 0000 70B5     		push	{r4, r5, r6, lr}
 386              		.cfi_def_cfa_offset 16
 387              		.cfi_offset 4, -16
 388              		.cfi_offset 5, -12
 389              		.cfi_offset 6, -8
 390              		.cfi_offset 14, -4
 391              		.loc 2 152 0
 392 0002 0446     		mov	r4, r0
 393              		.loc 2 151 0
 394 0004 82B0     		sub	sp, sp, #8
 395              		.cfi_def_cfa_offset 24
ARM GAS  C:\Users\jo\AppData\Local\Temp\cctZeUuD.s 			page 8


 396              		.loc 2 152 0
 397 0006 B8B1     		cbz	r0, .L55
 398              		.loc 2 153 0
 399 0008 0068     		ldr	r0, [r0]
 400              	.LVL30:
 401 000a 0E46     		mov	r6, r1
 402 000c 1546     		mov	r5, r2
 403 000e 08B1     		cbz	r0, .L49
 404              		.loc 2 154 0
 405 0010 FFF7FEFF 		bl	pbuf_free
 406              	.LVL31:
 407              	.L49:
 408              		.loc 2 156 0
 409 0014 0020     		movs	r0, #0
 410 0016 0146     		mov	r1, r0
 411 0018 0222     		movs	r2, #2
 412 001a FFF7FEFF 		bl	pbuf_alloc
 413              	.LVL32:
 414 001e 2060     		str	r0, [r4]
 415              		.loc 2 157 0
 416 0020 38B1     		cbz	r0, .L56
 417              		.loc 2 161 0
 418 0022 4660     		str	r6, [r0, #4]
 419              		.loc 2 162 0
 420 0024 0581     		strh	r5, [r0, #8]	@ movhi
 421 0026 4581     		strh	r5, [r0, #10]	@ movhi
 422              		.loc 2 164 0
 423 0028 0023     		movs	r3, #0
 424              		.loc 2 163 0
 425 002a 6060     		str	r0, [r4, #4]
 426              	.LVL33:
 427              	.L48:
 428              		.loc 2 165 0
 429 002c 58B2     		sxtb	r0, r3
 430 002e 02B0     		add	sp, sp, #8
 431              		.cfi_remember_state
 432              		.cfi_def_cfa_offset 16
 433              		@ sp needed
 434 0030 70BD     		pop	{r4, r5, r6, pc}
 435              	.LVL34:
 436              	.L56:
 437              		.cfi_restore_state
 438              		.loc 2 158 0
 439 0032 6060     		str	r0, [r4, #4]
 440              		.loc 2 159 0
 441 0034 FF23     		movs	r3, #255
 442 0036 F9E7     		b	.L48
 443              	.LVL35:
 444              	.L55:
 445              		.loc 2 152 0 discriminator 1
 446 0038 064B     		ldr	r3, .L57
 447 003a 0093     		str	r3, [sp]
 448 003c 0649     		ldr	r1, .L57+4
 449              	.LVL36:
 450 003e 074A     		ldr	r2, .L57+8
 451              	.LVL37:
 452 0040 0748     		ldr	r0, .L57+12
ARM GAS  C:\Users\jo\AppData\Local\Temp\cctZeUuD.s 			page 9


 453              	.LVL38:
 454 0042 9823     		movs	r3, #152
 455 0044 FFF7FEFF 		bl	chprintf.constprop.0
 456              	.LVL39:
 457              	.LBB32:
 458              	.LBB33:
 459              		.loc 3 416 0 discriminator 1
 460 0048 0448     		ldr	r0, .L57+8
 461 004a FFF7FEFF 		bl	chSysHalt
 462              	.LVL40:
 463              	.LBE33:
 464              	.LBE32:
 465              		.loc 2 152 0 discriminator 1
 466 004e F223     		movs	r3, #242
 467 0050 ECE7     		b	.L48
 468              	.L58:
 469 0052 00BF     		.align	2
 470              	.L57:
 471 0054 44000000 		.word	.LC2
 472 0058 00000000 		.word	.LC0
 473 005c A8000000 		.word	.LC5
 474 0060 00000000 		.word	itm_port
 475              		.cfi_endproc
 476              	.LFE264:
 477              		.size	netbuf_ref, .-netbuf_ref
 478 0064 AFF30080 		.section	.text.netbuf_chain,"ax",%progbits
 478      AFF30080 
 478      AFF30080 
 479              		.align	2
 480              		.p2align 4,,15
 481              		.global	netbuf_chain
 482              		.thumb
 483              		.thumb_func
 484              		.type	netbuf_chain, %function
 485              	netbuf_chain:
 486              	.LFB265:
 487              		.loc 2 175 0
 488              		.cfi_startproc
 489              		@ args = 0, pretend = 0, frame = 0
 490              		@ frame_needed = 0, uses_anonymous_args = 0
 491              	.LVL41:
 492 0000 30B5     		push	{r4, r5, lr}
 493              		.cfi_def_cfa_offset 12
 494              		.cfi_offset 4, -12
 495              		.cfi_offset 5, -8
 496              		.cfi_offset 14, -4
 497              		.loc 2 176 0
 498 0002 0446     		mov	r4, r0
 499              		.loc 2 175 0
 500 0004 83B0     		sub	sp, sp, #12
 501              		.cfi_def_cfa_offset 24
 502              		.loc 2 176 0
 503 0006 D8B1     		cbz	r0, .L64
 504 0008 0D46     		mov	r5, r1
 505              		.loc 2 177 0
 506 000a 59B1     		cbz	r1, .L65
 507              		.loc 2 178 0
ARM GAS  C:\Users\jo\AppData\Local\Temp\cctZeUuD.s 			page 10


 508 000c 0068     		ldr	r0, [r0]
 509              	.LVL42:
 510 000e 0968     		ldr	r1, [r1]
 511              	.LVL43:
 512 0010 FFF7FEFF 		bl	pbuf_cat
 513              	.LVL44:
 514              		.loc 2 179 0
 515 0014 2368     		ldr	r3, [r4]
 516 0016 6360     		str	r3, [r4, #4]
 517              		.loc 2 180 0
 518 0018 2846     		mov	r0, r5
 519              		.loc 2 181 0
 520 001a 03B0     		add	sp, sp, #12
 521              		.cfi_remember_state
 522              		.cfi_def_cfa_offset 12
 523              		@ sp needed
 524 001c BDE83040 		pop	{r4, r5, lr}
 525              		.cfi_restore 14
 526              		.cfi_restore 5
 527              		.cfi_restore 4
 528              		.cfi_def_cfa_offset 0
 529              	.LVL45:
 530              		.loc 2 180 0
 531 0020 FFF7FEBF 		b	free
 532              	.LVL46:
 533              	.L65:
 534              		.cfi_restore_state
 535              		.loc 2 177 0 discriminator 1
 536 0024 0B4B     		ldr	r3, .L66
 537 0026 0093     		str	r3, [sp]
 538 0028 0B48     		ldr	r0, .L66+4
 539              	.LVL47:
 540 002a 0C49     		ldr	r1, .L66+8
 541              	.LVL48:
 542 002c 0C4A     		ldr	r2, .L66+12
 543 002e B123     		movs	r3, #177
 544 0030 FFF7FEFF 		bl	chprintf.constprop.0
 545              	.LVL49:
 546              	.LBB34:
 547              	.LBB35:
 548              		.loc 3 416 0 discriminator 1
 549 0034 0A48     		ldr	r0, .L66+12
 550              	.LVL50:
 551              	.L63:
 552              	.LBE35:
 553              	.LBE34:
 554              		.loc 2 181 0 discriminator 1
 555 0036 03B0     		add	sp, sp, #12
 556              		.cfi_remember_state
 557              		.cfi_def_cfa_offset 12
 558              		@ sp needed
 559 0038 BDE83040 		pop	{r4, r5, lr}
 560              		.cfi_restore 14
 561              		.cfi_restore 5
 562              		.cfi_restore 4
 563              		.cfi_def_cfa_offset 0
 564              	.LVL51:
ARM GAS  C:\Users\jo\AppData\Local\Temp\cctZeUuD.s 			page 11


 565              	.LBB37:
 566              	.LBB36:
 567              		.loc 3 416 0 discriminator 1
 568 003c FFF7FEBF 		b	chSysHalt
 569              	.LVL52:
 570              	.L64:
 571              		.cfi_restore_state
 572              	.LBE36:
 573              	.LBE37:
 574              		.loc 2 176 0 discriminator 1
 575 0040 044B     		ldr	r3, .L66
 576 0042 0093     		str	r3, [sp]
 577 0044 0448     		ldr	r0, .L66+4
 578              	.LVL53:
 579 0046 0549     		ldr	r1, .L66+8
 580              	.LVL54:
 581 0048 064A     		ldr	r2, .L66+16
 582 004a B023     		movs	r3, #176
 583 004c FFF7FEFF 		bl	chprintf.constprop.0
 584              	.LVL55:
 585              	.LBB38:
 586              	.LBB39:
 587              		.loc 3 416 0 discriminator 1
 588 0050 0448     		ldr	r0, .L66+16
 589 0052 F0E7     		b	.L63
 590              	.L67:
 591              		.align	2
 592              	.L66:
 593 0054 44000000 		.word	.LC2
 594 0058 00000000 		.word	itm_port
 595 005c 00000000 		.word	.LC0
 596 0060 DC000000 		.word	.LC7
 597 0064 C0000000 		.word	.LC6
 598              	.LBE39:
 599              	.LBE38:
 600              		.cfi_endproc
 601              	.LFE265:
 602              		.size	netbuf_chain, .-netbuf_chain
 603 0068 AFF30080 		.section	.text.netbuf_data,"ax",%progbits
 603      AFF30080 
 604              		.align	2
 605              		.p2align 4,,15
 606              		.global	netbuf_data
 607              		.thumb
 608              		.thumb_func
 609              		.type	netbuf_data, %function
 610              	netbuf_data:
 611              	.LFB266:
 612              		.loc 2 194 0
 613              		.cfi_startproc
 614              		@ args = 0, pretend = 0, frame = 0
 615              		@ frame_needed = 0, uses_anonymous_args = 0
 616              	.LVL56:
 617 0000 00B5     		push	{lr}
 618              		.cfi_def_cfa_offset 4
 619              		.cfi_offset 14, -4
 620 0002 83B0     		sub	sp, sp, #12
ARM GAS  C:\Users\jo\AppData\Local\Temp\cctZeUuD.s 			page 12


 621              		.cfi_def_cfa_offset 16
 622              		.loc 2 195 0
 623 0004 48B3     		cbz	r0, .L75
 624              		.loc 2 196 0
 625 0006 D9B1     		cbz	r1, .L76
 626              		.loc 2 197 0
 627 0008 6AB1     		cbz	r2, .L77
 628              		.loc 2 199 0
 629 000a 4368     		ldr	r3, [r0, #4]
 630 000c 4BB1     		cbz	r3, .L73
 631              		.loc 2 202 0
 632 000e 5B68     		ldr	r3, [r3, #4]
 633 0010 0B60     		str	r3, [r1]
 634              		.loc 2 203 0
 635 0012 4368     		ldr	r3, [r0, #4]
 636 0014 5B89     		ldrh	r3, [r3, #10]
 637 0016 1380     		strh	r3, [r2]	@ movhi
 638              		.loc 2 204 0
 639 0018 0020     		movs	r0, #0
 640              	.LVL57:
 641              	.L70:
 642              		.loc 2 205 0
 643 001a 40B2     		sxtb	r0, r0
 644 001c 03B0     		add	sp, sp, #12
 645              		.cfi_remember_state
 646              		.cfi_def_cfa_offset 4
 647              		@ sp needed
 648 001e 5DF804FB 		ldr	pc, [sp], #4
 649              	.LVL58:
 650              	.L73:
 651              		.cfi_restore_state
 652              		.loc 2 200 0
 653 0022 FE20     		movs	r0, #254
 654              	.LVL59:
 655 0024 F9E7     		b	.L70
 656              	.LVL60:
 657              	.L77:
 658              		.loc 2 197 0 discriminator 1
 659 0026 134B     		ldr	r3, .L78
 660 0028 0093     		str	r3, [sp]
 661 002a 1349     		ldr	r1, .L78+4
 662              	.LVL61:
 663 002c 134A     		ldr	r2, .L78+8
 664              	.LVL62:
 665 002e 1448     		ldr	r0, .L78+12
 666              	.LVL63:
 667 0030 C523     		movs	r3, #197
 668 0032 FFF7FEFF 		bl	chprintf.constprop.0
 669              	.LVL64:
 670              	.LBB40:
 671              	.LBB41:
 672              		.loc 3 416 0 discriminator 1
 673 0036 1148     		ldr	r0, .L78+8
 674 0038 FFF7FEFF 		bl	chSysHalt
 675              	.LVL65:
 676              	.LBE41:
 677              	.LBE40:
ARM GAS  C:\Users\jo\AppData\Local\Temp\cctZeUuD.s 			page 13


 678              		.loc 2 197 0 discriminator 1
 679 003c F220     		movs	r0, #242
 680 003e ECE7     		b	.L70
 681              	.LVL66:
 682              	.L76:
 683              		.loc 2 196 0 discriminator 1
 684 0040 0C4B     		ldr	r3, .L78
 685 0042 0093     		str	r3, [sp]
 686 0044 0C49     		ldr	r1, .L78+4
 687              	.LVL67:
 688 0046 0F4A     		ldr	r2, .L78+16
 689              	.LVL68:
 690 0048 0D48     		ldr	r0, .L78+12
 691              	.LVL69:
 692 004a C423     		movs	r3, #196
 693 004c FFF7FEFF 		bl	chprintf.constprop.0
 694              	.LVL70:
 695              	.LBB42:
 696              	.LBB43:
 697              		.loc 3 416 0 discriminator 1
 698 0050 0C48     		ldr	r0, .L78+16
 699 0052 FFF7FEFF 		bl	chSysHalt
 700              	.LVL71:
 701              	.LBE43:
 702              	.LBE42:
 703              		.loc 2 196 0 discriminator 1
 704 0056 F220     		movs	r0, #242
 705 0058 DFE7     		b	.L70
 706              	.LVL72:
 707              	.L75:
 708              		.loc 2 195 0 discriminator 1
 709 005a 064B     		ldr	r3, .L78
 710 005c 0093     		str	r3, [sp]
 711 005e 0649     		ldr	r1, .L78+4
 712              	.LVL73:
 713 0060 094A     		ldr	r2, .L78+20
 714              	.LVL74:
 715 0062 0748     		ldr	r0, .L78+12
 716              	.LVL75:
 717 0064 C323     		movs	r3, #195
 718 0066 FFF7FEFF 		bl	chprintf.constprop.0
 719              	.LVL76:
 720              	.LBB44:
 721              	.LBB45:
 722              		.loc 3 416 0 discriminator 1
 723 006a 0748     		ldr	r0, .L78+20
 724 006c FFF7FEFF 		bl	chSysHalt
 725              	.LVL77:
 726              	.LBE45:
 727              	.LBE44:
 728              		.loc 2 195 0 discriminator 1
 729 0070 F220     		movs	r0, #242
 730 0072 D2E7     		b	.L70
 731              	.L79:
 732              		.align	2
 733              	.L78:
 734 0074 44000000 		.word	.LC2
ARM GAS  C:\Users\jo\AppData\Local\Temp\cctZeUuD.s 			page 14


 735 0078 00000000 		.word	.LC0
 736 007c 34010000 		.word	.LC10
 737 0080 00000000 		.word	itm_port
 738 0084 14010000 		.word	.LC9
 739 0088 F8000000 		.word	.LC8
 740              		.cfi_endproc
 741              	.LFE266:
 742              		.size	netbuf_data, .-netbuf_data
 743 008c AFF30080 		.section	.text.netbuf_next,"ax",%progbits
 744              		.align	2
 745              		.p2align 4,,15
 746              		.global	netbuf_next
 747              		.thumb
 748              		.thumb_func
 749              		.type	netbuf_next, %function
 750              	netbuf_next:
 751              	.LFB267:
 752              		.loc 2 219 0
 753              		.cfi_startproc
 754              		@ args = 0, pretend = 0, frame = 0
 755              		@ frame_needed = 0, uses_anonymous_args = 0
 756              	.LVL78:
 757              		.loc 2 220 0
 758 0000 58B1     		cbz	r0, .L86
 759              		.loc 2 221 0
 760 0002 4368     		ldr	r3, [r0, #4]
 761 0004 1B68     		ldr	r3, [r3]
 762 0006 33B1     		cbz	r3, .L83
 763              		.loc 2 224 0
 764 0008 4360     		str	r3, [r0, #4]
 765              		.loc 2 225 0
 766 000a 1868     		ldr	r0, [r3]
 767              	.LVL79:
 768              		.loc 2 220 0
 769 000c B0FA80F0 		clz	r0, r0
 770 0010 4009     		lsrs	r0, r0, #5
 771              	.L85:
 772              		.loc 2 229 0
 773 0012 40B2     		sxtb	r0, r0
 774 0014 7047     		bx	lr
 775              	.LVL80:
 776              	.L83:
 777              		.loc 2 222 0
 778 0016 FF20     		movs	r0, #255
 779              	.LVL81:
 780 0018 FBE7     		b	.L85
 781              	.LVL82:
 782              	.L86:
 783              		.loc 2 219 0 discriminator 1
 784 001a 00B5     		push	{lr}
 785              		.cfi_def_cfa_offset 4
 786              		.cfi_offset 14, -4
 787 001c 83B0     		sub	sp, sp, #12
 788              		.cfi_def_cfa_offset 16
 789              		.loc 2 220 0 discriminator 1
 790 001e 084B     		ldr	r3, .L87
 791 0020 0093     		str	r3, [sp]
ARM GAS  C:\Users\jo\AppData\Local\Temp\cctZeUuD.s 			page 15


 792 0022 0849     		ldr	r1, .L87+4
 793 0024 084A     		ldr	r2, .L87+8
 794 0026 0948     		ldr	r0, .L87+12
 795              	.LVL83:
 796 0028 DC23     		movs	r3, #220
 797 002a FFF7FEFF 		bl	chprintf.constprop.0
 798              	.LVL84:
 799              	.LBB46:
 800              	.LBB47:
 801              		.loc 3 416 0 discriminator 1
 802 002e 0648     		ldr	r0, .L87+8
 803 0030 FFF7FEFF 		bl	chSysHalt
 804              	.LVL85:
 805              	.LBE47:
 806              	.LBE46:
 807              		.loc 2 220 0 discriminator 1
 808 0034 FF20     		movs	r0, #255
 809              		.loc 2 229 0 discriminator 1
 810 0036 40B2     		sxtb	r0, r0
 811 0038 03B0     		add	sp, sp, #12
 812              		.cfi_def_cfa_offset 4
 813              		@ sp needed
 814 003a 5DF804FB 		ldr	pc, [sp], #4
 815              	.L88:
 816 003e 00BF     		.align	2
 817              	.L87:
 818 0040 44000000 		.word	.LC2
 819 0044 00000000 		.word	.LC0
 820 0048 8C000000 		.word	.LC4
 821 004c 00000000 		.word	itm_port
 822              		.cfi_endproc
 823              	.LFE267:
 824              		.size	netbuf_next, .-netbuf_next
 825              		.section	.text.netbuf_first,"ax",%progbits
 826              		.align	2
 827              		.p2align 4,,15
 828              		.global	netbuf_first
 829              		.thumb
 830              		.thumb_func
 831              		.type	netbuf_first, %function
 832              	netbuf_first:
 833              	.LFB268:
 834              		.loc 2 240 0
 835              		.cfi_startproc
 836              		@ args = 0, pretend = 0, frame = 0
 837              		@ frame_needed = 0, uses_anonymous_args = 0
 838              	.LVL86:
 839              		.loc 2 241 0
 840 0000 10B1     		cbz	r0, .L92
 841              		.loc 2 242 0
 842 0002 0368     		ldr	r3, [r0]
 843 0004 4360     		str	r3, [r0, #4]
 844 0006 7047     		bx	lr
 845              	.L92:
 846              		.loc 2 240 0 discriminator 1
 847 0008 00B5     		push	{lr}
 848              		.cfi_def_cfa_offset 4
ARM GAS  C:\Users\jo\AppData\Local\Temp\cctZeUuD.s 			page 16


 849              		.cfi_offset 14, -4
 850 000a 83B0     		sub	sp, sp, #12
 851              		.cfi_def_cfa_offset 16
 852              		.loc 2 241 0 discriminator 1
 853 000c 064B     		ldr	r3, .L93
 854 000e 0093     		str	r3, [sp]
 855 0010 0649     		ldr	r1, .L93+4
 856 0012 074A     		ldr	r2, .L93+8
 857 0014 0748     		ldr	r0, .L93+12
 858              	.LVL87:
 859 0016 F123     		movs	r3, #241
 860 0018 FFF7FEFF 		bl	chprintf.constprop.0
 861              	.LVL88:
 862              	.LBB48:
 863              	.LBB49:
 864              		.loc 3 416 0 discriminator 1
 865 001c 0448     		ldr	r0, .L93+8
 866              	.LBE49:
 867              	.LBE48:
 868              		.loc 2 243 0 discriminator 1
 869 001e 03B0     		add	sp, sp, #12
 870              		.cfi_def_cfa_offset 4
 871              		@ sp needed
 872 0020 5DF804EB 		ldr	lr, [sp], #4
 873              		.cfi_restore 14
 874              		.cfi_def_cfa_offset 0
 875              	.LBB51:
 876              	.LBB50:
 877              		.loc 3 416 0 discriminator 1
 878 0024 FFF7FEBF 		b	chSysHalt
 879              	.LVL89:
 880              	.L94:
 881              		.align	2
 882              	.L93:
 883 0028 44000000 		.word	.LC2
 884 002c 00000000 		.word	.LC0
 885 0030 8C000000 		.word	.LC4
 886 0034 00000000 		.word	itm_port
 887              	.LBE50:
 888              	.LBE51:
 889              		.cfi_endproc
 890              	.LFE268:
 891              		.size	netbuf_first, .-netbuf_first
 892 0038 AFF30080 		.section	.rodata.str1.4,"aMS",%progbits,1
 892      AFF30080 
 893              		.align	2
 894              	.LC0:
 895 0000 41737365 		.ascii	"Assertion \"%s\" failed at line %d in %s\012\000"
 895      7274696F 
 895      6E202225 
 895      73222066 
 895      61696C65 
 896              	.LC1:
 897 0028 6E657462 		.ascii	"netbuf_alloc: invalid buf\000"
 897      75665F61 
 897      6C6C6F63 
 897      3A20696E 
ARM GAS  C:\Users\jo\AppData\Local\Temp\cctZeUuD.s 			page 17


 897      76616C69 
 898 0042 0000     		.space	2
 899              	.LC2:
 900 0044 2E2E2F2E 		.ascii	"../../../ext/lwip/src/api/netbuf.c\000"
 900      2E2F2E2E 
 900      2F657874 
 900      2F6C7769 
 900      702F7372 
 901 0067 00       		.space	1
 902              	.LC3:
 903 0068 63686563 		.ascii	"check that first pbuf can hold size\000"
 903      6B207468 
 903      61742066 
 903      69727374 
 903      20706275 
 904              	.LC4:
 905 008c 6E657462 		.ascii	"netbuf_free: invalid buf\000"
 905      75665F66 
 905      7265653A 
 905      20696E76 
 905      616C6964 
 906 00a5 000000   		.space	3
 907              	.LC5:
 908 00a8 6E657462 		.ascii	"netbuf_ref: invalid buf\000"
 908      75665F72 
 908      65663A20 
 908      696E7661 
 908      6C696420 
 909              	.LC6:
 910 00c0 6E657462 		.ascii	"netbuf_ref: invalid head\000"
 910      75665F72 
 910      65663A20 
 910      696E7661 
 910      6C696420 
 911 00d9 000000   		.space	3
 912              	.LC7:
 913 00dc 6E657462 		.ascii	"netbuf_chain: invalid tail\000"
 913      75665F63 
 913      6861696E 
 913      3A20696E 
 913      76616C69 
 914 00f7 00       		.space	1
 915              	.LC8:
 916 00f8 6E657462 		.ascii	"netbuf_data: invalid buf\000"
 916      75665F64 
 916      6174613A 
 916      20696E76 
 916      616C6964 
 917 0111 000000   		.space	3
 918              	.LC9:
 919 0114 6E657462 		.ascii	"netbuf_data: invalid dataptr\000"
 919      75665F64 
 919      6174613A 
 919      20696E76 
 919      616C6964 
 920 0131 000000   		.space	3
 921              	.LC10:
ARM GAS  C:\Users\jo\AppData\Local\Temp\cctZeUuD.s 			page 18


 922 0134 6E657462 		.ascii	"netbuf_data: invalid len\000"
 922      75665F64 
 922      6174613A 
 922      20696E76 
 922      616C6964 
 923 014d 000000   		.text
 924              	.Letext0:
 925              		.file 4 "c:\\program files\\gnu tools arm embedded\\4.9 2014q4\\lib\\gcc\\arm-none-eabi\\4.9.3\\in
 926              		.file 5 "c:\\program files\\gnu tools arm embedded\\4.9 2014q4\\arm-none-eabi\\include\\machine\\_
 927              		.file 6 "c:\\program files\\gnu tools arm embedded\\4.9 2014q4\\arm-none-eabi\\include\\stdint.h"
 928              		.file 7 "../../../os/rt/ports/ARMCMx/compilers/GCC/chtypes.h"
 929              		.file 8 "../../../os/rt/include/chsystypes.h"
 930              		.file 9 "../../../os/rt/include/chschd.h"
 931              		.file 10 "../../../os/rt/ports/ARMCMx/chcore.h"
 932              		.file 11 "../../../os/rt/ports/ARMCMx/chcore_v7m.h"
 933              		.file 12 "../../../os/rt/include/chdebug.h"
 934              		.file 13 "../../../os/rt/include/chtm.h"
 935              		.file 14 "../../../os/rt/include/chsem.h"
 936              		.file 15 "../../../os/rt/include/chmtx.h"
 937              		.file 16 "../../../os/rt/include/chstreams.h"
 938              		.file 17 "./ITM_trace.h"
 939              		.file 18 "c:\\program files\\gnu tools arm embedded\\4.9 2014q4\\lib\\gcc\\arm-none-eabi\\4.9.3\\i
 940              		.file 19 "<built-in>"
 941              		.file 20 "../../../os/various/lwip_bindings/arch/cc.h"
 942              		.file 21 "../../../ext/lwip/src/include/lwip/err.h"
 943              		.file 22 "../../../ext/lwip/src/include/lwip/pbuf.h"
 944              		.file 23 "../../../ext/lwip/src/include/ipv4/lwip/ip_addr.h"
 945              		.file 24 "../../../ext/lwip/src/include/lwip/netbuf.h"
 946              		.file 25 "../../../ext/lwip/src/include/lwip/memp.h"
 947              		.file 26 "../../../os/ext/CMSIS/include/core_cm4.h"
 948              		.file 27 "c:\\program files\\gnu tools arm embedded\\4.9 2014q4\\arm-none-eabi\\include\\stdlib.h"
 949              		.file 28 "../../../os/rt/include/chsys.h"
 950              		.section	.debug_info,"",%progbits
 951              	.Ldebug_info0:
 952 0000 53120000 		.4byte	0x1253
 953 0004 0400     		.2byte	0x4
 954 0006 00000000 		.4byte	.Ldebug_abbrev0
 955 000a 04       		.byte	0x4
 956 000b 01       		.uleb128 0x1
 957 000c 04040000 		.4byte	.LASF194
 958 0010 01       		.byte	0x1
 959 0011 4F020000 		.4byte	.LASF195
 960 0015 21010000 		.4byte	.LASF196
 961 0019 48000000 		.4byte	.Ldebug_ranges0+0x48
 962 001d 00000000 		.4byte	0
 963 0021 00000000 		.4byte	.Ldebug_line0
 964 0025 02       		.uleb128 0x2
 965 0026 04       		.byte	0x4
 966 0027 05       		.byte	0x5
 967 0028 696E7400 		.ascii	"int\000"
 968 002c 03       		.uleb128 0x3
 969 002d 15000000 		.4byte	.LASF1
 970 0031 04       		.byte	0x4
 971 0032 D4       		.byte	0xd4
 972 0033 37000000 		.4byte	0x37
 973 0037 04       		.uleb128 0x4
 974 0038 04       		.byte	0x4
ARM GAS  C:\Users\jo\AppData\Local\Temp\cctZeUuD.s 			page 19


 975 0039 07       		.byte	0x7
 976 003a FD020000 		.4byte	.LASF0
 977 003e 03       		.uleb128 0x3
 978 003f EE000000 		.4byte	.LASF2
 979 0043 05       		.byte	0x5
 980 0044 1B       		.byte	0x1b
 981 0045 49000000 		.4byte	0x49
 982 0049 04       		.uleb128 0x4
 983 004a 01       		.byte	0x1
 984 004b 06       		.byte	0x6
 985 004c 7D010000 		.4byte	.LASF3
 986 0050 03       		.uleb128 0x3
 987 0051 31000000 		.4byte	.LASF4
 988 0055 05       		.byte	0x5
 989 0056 1D       		.byte	0x1d
 990 0057 5B000000 		.4byte	0x5b
 991 005b 04       		.uleb128 0x4
 992 005c 01       		.byte	0x1
 993 005d 08       		.byte	0x8
 994 005e 69060000 		.4byte	.LASF5
 995 0062 04       		.uleb128 0x4
 996 0063 02       		.byte	0x2
 997 0064 05       		.byte	0x5
 998 0065 89060000 		.4byte	.LASF6
 999 0069 03       		.uleb128 0x3
 1000 006a AB070000 		.4byte	.LASF7
 1001 006e 05       		.byte	0x5
 1002 006f 2B       		.byte	0x2b
 1003 0070 74000000 		.4byte	0x74
 1004 0074 04       		.uleb128 0x4
 1005 0075 02       		.byte	0x2
 1006 0076 07       		.byte	0x7
 1007 0077 7F030000 		.4byte	.LASF8
 1008 007b 03       		.uleb128 0x3
 1009 007c F4030000 		.4byte	.LASF9
 1010 0080 05       		.byte	0x5
 1011 0081 3F       		.byte	0x3f
 1012 0082 86000000 		.4byte	0x86
 1013 0086 04       		.uleb128 0x4
 1014 0087 04       		.byte	0x4
 1015 0088 05       		.byte	0x5
 1016 0089 C2010000 		.4byte	.LASF10
 1017 008d 03       		.uleb128 0x3
 1018 008e FE070000 		.4byte	.LASF11
 1019 0092 05       		.byte	0x5
 1020 0093 41       		.byte	0x41
 1021 0094 98000000 		.4byte	0x98
 1022 0098 04       		.uleb128 0x4
 1023 0099 04       		.byte	0x4
 1024 009a 07       		.byte	0x7
 1025 009b 89010000 		.4byte	.LASF12
 1026 009f 04       		.uleb128 0x4
 1027 00a0 08       		.byte	0x8
 1028 00a1 05       		.byte	0x5
 1029 00a2 6F010000 		.4byte	.LASF13
 1030 00a6 03       		.uleb128 0x3
 1031 00a7 F7050000 		.4byte	.LASF14
ARM GAS  C:\Users\jo\AppData\Local\Temp\cctZeUuD.s 			page 20


 1032 00ab 05       		.byte	0x5
 1033 00ac 5B       		.byte	0x5b
 1034 00ad B1000000 		.4byte	0xb1
 1035 00b1 04       		.uleb128 0x4
 1036 00b2 08       		.byte	0x8
 1037 00b3 07       		.byte	0x7
 1038 00b4 6D000000 		.4byte	.LASF15
 1039 00b8 03       		.uleb128 0x3
 1040 00b9 4E080000 		.4byte	.LASF16
 1041 00bd 06       		.byte	0x6
 1042 00be 14       		.byte	0x14
 1043 00bf 3E000000 		.4byte	0x3e
 1044 00c3 03       		.uleb128 0x3
 1045 00c4 B7080000 		.4byte	.LASF17
 1046 00c8 06       		.byte	0x6
 1047 00c9 15       		.byte	0x15
 1048 00ca 50000000 		.4byte	0x50
 1049 00ce 03       		.uleb128 0x3
 1050 00cf 17030000 		.4byte	.LASF18
 1051 00d3 06       		.byte	0x6
 1052 00d4 21       		.byte	0x21
 1053 00d5 69000000 		.4byte	0x69
 1054 00d9 03       		.uleb128 0x3
 1055 00da 61060000 		.4byte	.LASF19
 1056 00de 06       		.byte	0x6
 1057 00df 2C       		.byte	0x2c
 1058 00e0 7B000000 		.4byte	0x7b
 1059 00e4 03       		.uleb128 0x3
 1060 00e5 57030000 		.4byte	.LASF20
 1061 00e9 06       		.byte	0x6
 1062 00ea 2D       		.byte	0x2d
 1063 00eb 8D000000 		.4byte	0x8d
 1064 00ef 03       		.uleb128 0x3
 1065 00f0 28000000 		.4byte	.LASF21
 1066 00f4 06       		.byte	0x6
 1067 00f5 39       		.byte	0x39
 1068 00f6 A6000000 		.4byte	0xa6
 1069 00fa 05       		.uleb128 0x5
 1070 00fb D9000000 		.4byte	0xd9
 1071 00ff 03       		.uleb128 0x3
 1072 0100 46080000 		.4byte	.LASF22
 1073 0104 07       		.byte	0x7
 1074 0105 45       		.byte	0x45
 1075 0106 E4000000 		.4byte	0xe4
 1076 010a 03       		.uleb128 0x3
 1077 010b D2030000 		.4byte	.LASF23
 1078 010f 07       		.byte	0x7
 1079 0110 48       		.byte	0x48
 1080 0111 C3000000 		.4byte	0xc3
 1081 0115 03       		.uleb128 0x3
 1082 0116 DD010000 		.4byte	.LASF24
 1083 011a 07       		.byte	0x7
 1084 011b 49       		.byte	0x49
 1085 011c C3000000 		.4byte	0xc3
 1086 0120 03       		.uleb128 0x3
 1087 0121 00000000 		.4byte	.LASF25
 1088 0125 07       		.byte	0x7
ARM GAS  C:\Users\jo\AppData\Local\Temp\cctZeUuD.s 			page 21


 1089 0126 4A       		.byte	0x4a
 1090 0127 C3000000 		.4byte	0xc3
 1091 012b 03       		.uleb128 0x3
 1092 012c 37060000 		.4byte	.LASF26
 1093 0130 07       		.byte	0x7
 1094 0131 4C       		.byte	0x4c
 1095 0132 E4000000 		.4byte	0xe4
 1096 0136 03       		.uleb128 0x3
 1097 0137 B1030000 		.4byte	.LASF27
 1098 013b 07       		.byte	0x7
 1099 013c 4D       		.byte	0x4d
 1100 013d D9000000 		.4byte	0xd9
 1101 0141 03       		.uleb128 0x3
 1102 0142 E8030000 		.4byte	.LASF28
 1103 0146 07       		.byte	0x7
 1104 0147 4F       		.byte	0x4f
 1105 0148 E4000000 		.4byte	0xe4
 1106 014c 03       		.uleb128 0x3
 1107 014d DD020000 		.4byte	.LASF29
 1108 0151 07       		.byte	0x7
 1109 0152 51       		.byte	0x51
 1110 0153 D9000000 		.4byte	0xd9
 1111 0157 03       		.uleb128 0x3
 1112 0158 E0070000 		.4byte	.LASF30
 1113 015c 08       		.byte	0x8
 1114 015d 33       		.byte	0x33
 1115 015e E4000000 		.4byte	0xe4
 1116 0162 03       		.uleb128 0x3
 1117 0163 D0070000 		.4byte	.LASF31
 1118 0167 08       		.byte	0x8
 1119 0168 3F       		.byte	0x3f
 1120 0169 6D010000 		.4byte	0x16d
 1121 016d 06       		.uleb128 0x6
 1122 016e 92030000 		.4byte	.LASF52
 1123 0172 48       		.byte	0x48
 1124 0173 09       		.byte	0x9
 1125 0174 C2       		.byte	0xc2
 1126 0175 66020000 		.4byte	0x266
 1127 0179 07       		.uleb128 0x7
 1128 017a B8060000 		.4byte	.LASF32
 1129 017e 09       		.byte	0x9
 1130 017f C3       		.byte	0xc3
 1131 0180 71020000 		.4byte	0x271
 1132 0184 00       		.byte	0
 1133 0185 07       		.uleb128 0x7
 1134 0186 30060000 		.4byte	.LASF33
 1135 018a 09       		.byte	0x9
 1136 018b C5       		.byte	0xc5
 1137 018c 71020000 		.4byte	0x271
 1138 0190 04       		.byte	0x4
 1139 0191 07       		.uleb128 0x7
 1140 0192 1A010000 		.4byte	.LASF34
 1141 0196 09       		.byte	0x9
 1142 0197 C7       		.byte	0xc7
 1143 0198 2B010000 		.4byte	0x12b
 1144 019c 08       		.byte	0x8
 1145 019d 07       		.uleb128 0x7
ARM GAS  C:\Users\jo\AppData\Local\Temp\cctZeUuD.s 			page 22


 1146 019e 0F090000 		.4byte	.LASF35
 1147 01a2 09       		.byte	0x9
 1148 01a3 C8       		.byte	0xc8
 1149 01a4 CC040000 		.4byte	0x4cc
 1150 01a8 0C       		.byte	0xc
 1151 01a9 07       		.uleb128 0x7
 1152 01aa 1E020000 		.4byte	.LASF36
 1153 01ae 09       		.byte	0x9
 1154 01af CA       		.byte	0xca
 1155 01b0 71020000 		.4byte	0x271
 1156 01b4 10       		.byte	0x10
 1157 01b5 07       		.uleb128 0x7
 1158 01b6 A2060000 		.4byte	.LASF37
 1159 01ba 09       		.byte	0x9
 1160 01bb CB       		.byte	0xcb
 1161 01bc 71020000 		.4byte	0x271
 1162 01c0 14       		.byte	0x14
 1163 01c1 07       		.uleb128 0x7
 1164 01c2 44060000 		.4byte	.LASF38
 1165 01c6 09       		.byte	0x9
 1166 01c7 D2       		.byte	0xd2
 1167 01c8 DE060000 		.4byte	0x6de
 1168 01cc 18       		.byte	0x18
 1169 01cd 07       		.uleb128 0x7
 1170 01ce F2020000 		.4byte	.LASF39
 1171 01d2 09       		.byte	0x9
 1172 01d3 D8       		.byte	0xd8
 1173 01d4 F0060000 		.4byte	0x6f0
 1174 01d8 1C       		.byte	0x1c
 1175 01d9 07       		.uleb128 0x7
 1176 01da 93060000 		.4byte	.LASF40
 1177 01de 09       		.byte	0x9
 1178 01df DD       		.byte	0xdd
 1179 01e0 15010000 		.4byte	0x115
 1180 01e4 20       		.byte	0x20
 1181 01e5 07       		.uleb128 0x7
 1182 01e6 C9060000 		.4byte	.LASF41
 1183 01ea 09       		.byte	0x9
 1184 01eb E1       		.byte	0xe1
 1185 01ec 0A010000 		.4byte	0x10a
 1186 01f0 21       		.byte	0x21
 1187 01f1 07       		.uleb128 0x7
 1188 01f2 A2080000 		.4byte	.LASF42
 1189 01f6 09       		.byte	0x9
 1190 01f7 E6       		.byte	0xe6
 1191 01f8 20010000 		.4byte	0x120
 1192 01fc 22       		.byte	0x22
 1193 01fd 08       		.uleb128 0x8
 1194 01fe 705F7500 		.ascii	"p_u\000"
 1195 0202 09       		.byte	0x9
 1196 0203 3101     		.2byte	0x131
 1197 0205 19060000 		.4byte	0x619
 1198 0209 24       		.byte	0x24
 1199 020a 09       		.uleb128 0x9
 1200 020b 19050000 		.4byte	.LASF43
 1201 020f 09       		.byte	0x9
 1202 0210 3601     		.2byte	0x136
ARM GAS  C:\Users\jo\AppData\Local\Temp\cctZeUuD.s 			page 23


 1203 0212 77020000 		.4byte	0x277
 1204 0216 28       		.byte	0x28
 1205 0217 09       		.uleb128 0x9
 1206 0218 46030000 		.4byte	.LASF44
 1207 021c 09       		.byte	0x9
 1208 021d 3C01     		.2byte	0x13c
 1209 021f 9B020000 		.4byte	0x29b
 1210 0223 2C       		.byte	0x2c
 1211 0224 09       		.uleb128 0x9
 1212 0225 F7080000 		.4byte	.LASF45
 1213 0229 09       		.byte	0x9
 1214 022a 4001     		.2byte	0x140
 1215 022c 36010000 		.4byte	0x136
 1216 0230 34       		.byte	0x34
 1217 0231 09       		.uleb128 0x9
 1218 0232 1E070000 		.4byte	.LASF46
 1219 0236 09       		.byte	0x9
 1220 0237 4601     		.2byte	0x146
 1221 0239 41010000 		.4byte	0x141
 1222 023d 38       		.byte	0x38
 1223 023e 09       		.uleb128 0x9
 1224 023f 7F060000 		.4byte	.LASF47
 1225 0243 09       		.byte	0x9
 1226 0244 4D01     		.2byte	0x14d
 1227 0246 D8060000 		.4byte	0x6d8
 1228 024a 3C       		.byte	0x3c
 1229 024b 09       		.uleb128 0x9
 1230 024c EA070000 		.4byte	.LASF48
 1231 0250 09       		.byte	0x9
 1232 0251 5101     		.2byte	0x151
 1233 0253 2B010000 		.4byte	0x12b
 1234 0257 40       		.byte	0x40
 1235 0258 09       		.uleb128 0x9
 1236 0259 9B010000 		.4byte	.LASF49
 1237 025d 09       		.byte	0x9
 1238 025e 5801     		.2byte	0x158
 1239 0260 4E030000 		.4byte	0x34e
 1240 0264 44       		.byte	0x44
 1241 0265 00       		.byte	0
 1242 0266 03       		.uleb128 0x3
 1243 0267 36050000 		.4byte	.LASF50
 1244 026b 08       		.byte	0x8
 1245 026c 44       		.byte	0x44
 1246 026d 71020000 		.4byte	0x271
 1247 0271 0A       		.uleb128 0xa
 1248 0272 04       		.byte	0x4
 1249 0273 62010000 		.4byte	0x162
 1250 0277 03       		.uleb128 0x3
 1251 0278 DB080000 		.4byte	.LASF51
 1252 027c 08       		.byte	0x8
 1253 027d 49       		.byte	0x49
 1254 027e 82020000 		.4byte	0x282
 1255 0282 06       		.uleb128 0x6
 1256 0283 6A070000 		.4byte	.LASF53
 1257 0287 04       		.byte	0x4
 1258 0288 09       		.byte	0x9
 1259 0289 B0       		.byte	0xb0
ARM GAS  C:\Users\jo\AppData\Local\Temp\cctZeUuD.s 			page 24


 1260 028a 9B020000 		.4byte	0x29b
 1261 028e 07       		.uleb128 0x7
 1262 028f B8060000 		.4byte	.LASF32
 1263 0293 09       		.byte	0x9
 1264 0294 B1       		.byte	0xb1
 1265 0295 71020000 		.4byte	0x271
 1266 0299 00       		.byte	0
 1267 029a 00       		.byte	0
 1268 029b 03       		.uleb128 0x3
 1269 029c 84080000 		.4byte	.LASF54
 1270 02a0 08       		.byte	0x8
 1271 02a1 50       		.byte	0x50
 1272 02a2 A6020000 		.4byte	0x2a6
 1273 02a6 06       		.uleb128 0x6
 1274 02a7 09010000 		.4byte	.LASF55
 1275 02ab 08       		.byte	0x8
 1276 02ac 09       		.byte	0x9
 1277 02ad B7       		.byte	0xb7
 1278 02ae CB020000 		.4byte	0x2cb
 1279 02b2 07       		.uleb128 0x7
 1280 02b3 B8060000 		.4byte	.LASF32
 1281 02b7 09       		.byte	0x9
 1282 02b8 B8       		.byte	0xb8
 1283 02b9 71020000 		.4byte	0x271
 1284 02bd 00       		.byte	0
 1285 02be 07       		.uleb128 0x7
 1286 02bf 30060000 		.4byte	.LASF33
 1287 02c3 09       		.byte	0x9
 1288 02c4 B9       		.byte	0xb9
 1289 02c5 71020000 		.4byte	0x271
 1290 02c9 04       		.byte	0x4
 1291 02ca 00       		.byte	0
 1292 02cb 03       		.uleb128 0x3
 1293 02cc 62080000 		.4byte	.LASF56
 1294 02d0 08       		.byte	0x8
 1295 02d1 57       		.byte	0x57
 1296 02d2 D6020000 		.4byte	0x2d6
 1297 02d6 0B       		.uleb128 0xb
 1298 02d7 DA030000 		.4byte	.LASF57
 1299 02db 1C       		.byte	0x1c
 1300 02dc 09       		.byte	0x9
 1301 02dd 9001     		.2byte	0x190
 1302 02df 32030000 		.4byte	0x332
 1303 02e3 09       		.uleb128 0x9
 1304 02e4 59070000 		.4byte	.LASF58
 1305 02e8 09       		.byte	0x9
 1306 02e9 9101     		.2byte	0x191
 1307 02eb 9B020000 		.4byte	0x29b
 1308 02ef 00       		.byte	0
 1309 02f0 09       		.uleb128 0x9
 1310 02f1 AA060000 		.4byte	.LASF59
 1311 02f5 09       		.byte	0x9
 1312 02f6 9201     		.2byte	0x192
 1313 02f8 2B010000 		.4byte	0x12b
 1314 02fc 08       		.byte	0x8
 1315 02fd 09       		.uleb128 0x9
 1316 02fe BC050000 		.4byte	.LASF60
ARM GAS  C:\Users\jo\AppData\Local\Temp\cctZeUuD.s 			page 25


 1317 0302 09       		.byte	0x9
 1318 0303 9401     		.2byte	0x194
 1319 0305 CC040000 		.4byte	0x4cc
 1320 0309 0C       		.byte	0xc
 1321 030a 09       		.uleb128 0x9
 1322 030b 72020000 		.4byte	.LASF61
 1323 030f 09       		.byte	0x9
 1324 0310 9701     		.2byte	0x197
 1325 0312 71020000 		.4byte	0x271
 1326 0316 10       		.byte	0x10
 1327 0317 09       		.uleb128 0x9
 1328 0318 EF050000 		.4byte	.LASF62
 1329 031c 09       		.byte	0x9
 1330 031d 9801     		.2byte	0x198
 1331 031f 71020000 		.4byte	0x271
 1332 0323 14       		.byte	0x14
 1333 0324 09       		.uleb128 0x9
 1334 0325 E5050000 		.4byte	.LASF63
 1335 0329 09       		.byte	0x9
 1336 032a 9B01     		.2byte	0x19b
 1337 032c 71020000 		.4byte	0x271
 1338 0330 18       		.byte	0x18
 1339 0331 00       		.byte	0
 1340 0332 03       		.uleb128 0x3
 1341 0333 F5070000 		.4byte	.LASF64
 1342 0337 08       		.byte	0x8
 1343 0338 5C       		.byte	0x5c
 1344 0339 3D030000 		.4byte	0x33d
 1345 033d 0A       		.uleb128 0xa
 1346 033e 04       		.byte	0x4
 1347 033f 43030000 		.4byte	0x343
 1348 0343 0C       		.uleb128 0xc
 1349 0344 4E030000 		.4byte	0x34e
 1350 0348 0D       		.uleb128 0xd
 1351 0349 4E030000 		.4byte	0x34e
 1352 034d 00       		.byte	0
 1353 034e 0E       		.uleb128 0xe
 1354 034f 04       		.byte	0x4
 1355 0350 03       		.uleb128 0x3
 1356 0351 20060000 		.4byte	.LASF65
 1357 0355 08       		.byte	0x8
 1358 0356 61       		.byte	0x61
 1359 0357 5B030000 		.4byte	0x35b
 1360 035b 0B       		.uleb128 0xb
 1361 035c E8060000 		.4byte	.LASF66
 1362 0360 14       		.byte	0x14
 1363 0361 09       		.byte	0x9
 1364 0362 6B01     		.2byte	0x16b
 1365 0364 AA030000 		.4byte	0x3aa
 1366 0368 09       		.uleb128 0x9
 1367 0369 0F030000 		.4byte	.LASF67
 1368 036d 09       		.byte	0x9
 1369 036e 6C01     		.2byte	0x16c
 1370 0370 F6060000 		.4byte	0x6f6
 1371 0374 00       		.byte	0
 1372 0375 09       		.uleb128 0x9
 1373 0376 97020000 		.4byte	.LASF68
ARM GAS  C:\Users\jo\AppData\Local\Temp\cctZeUuD.s 			page 26


 1374 037a 09       		.byte	0x9
 1375 037b 6D01     		.2byte	0x16d
 1376 037d F6060000 		.4byte	0x6f6
 1377 0381 04       		.byte	0x4
 1378 0382 09       		.uleb128 0x9
 1379 0383 61070000 		.4byte	.LASF69
 1380 0387 09       		.byte	0x9
 1381 0388 6E01     		.2byte	0x16e
 1382 038a 57010000 		.4byte	0x157
 1383 038e 08       		.byte	0x8
 1384 038f 09       		.uleb128 0x9
 1385 0390 15090000 		.4byte	.LASF70
 1386 0394 09       		.byte	0x9
 1387 0395 6F01     		.2byte	0x16f
 1388 0397 32030000 		.4byte	0x332
 1389 039b 0C       		.byte	0xc
 1390 039c 09       		.uleb128 0x9
 1391 039d 55080000 		.4byte	.LASF71
 1392 03a1 09       		.byte	0x9
 1393 03a2 7101     		.2byte	0x171
 1394 03a4 4E030000 		.4byte	0x34e
 1395 03a8 10       		.byte	0x10
 1396 03a9 00       		.byte	0
 1397 03aa 03       		.uleb128 0x3
 1398 03ab D8000000 		.4byte	.LASF72
 1399 03af 08       		.byte	0x8
 1400 03b0 66       		.byte	0x66
 1401 03b1 B5030000 		.4byte	0x3b5
 1402 03b5 0B       		.uleb128 0xb
 1403 03b6 49050000 		.4byte	.LASF73
 1404 03ba 10       		.byte	0x10
 1405 03bb 09       		.byte	0x9
 1406 03bc 7B01     		.2byte	0x17b
 1407 03be F7030000 		.4byte	0x3f7
 1408 03c2 09       		.uleb128 0x9
 1409 03c3 0F030000 		.4byte	.LASF67
 1410 03c7 09       		.byte	0x9
 1411 03c8 7C01     		.2byte	0x17c
 1412 03ca F6060000 		.4byte	0x6f6
 1413 03ce 00       		.byte	0
 1414 03cf 09       		.uleb128 0x9
 1415 03d0 97020000 		.4byte	.LASF68
 1416 03d4 09       		.byte	0x9
 1417 03d5 7E01     		.2byte	0x17e
 1418 03d7 F6060000 		.4byte	0x6f6
 1419 03db 04       		.byte	0x4
 1420 03dc 09       		.uleb128 0x9
 1421 03dd 61070000 		.4byte	.LASF69
 1422 03e1 09       		.byte	0x9
 1423 03e2 8001     		.2byte	0x180
 1424 03e4 57010000 		.4byte	0x157
 1425 03e8 08       		.byte	0x8
 1426 03e9 09       		.uleb128 0x9
 1427 03ea 8D050000 		.4byte	.LASF74
 1428 03ee 09       		.byte	0x9
 1429 03ef 8801     		.2byte	0x188
 1430 03f1 57010000 		.4byte	0x157
ARM GAS  C:\Users\jo\AppData\Local\Temp\cctZeUuD.s 			page 27


 1431 03f5 0C       		.byte	0xc
 1432 03f6 00       		.byte	0
 1433 03f7 03       		.uleb128 0x3
 1434 03f8 4F000000 		.4byte	.LASF75
 1435 03fc 08       		.byte	0x8
 1436 03fd 6B       		.byte	0x6b
 1437 03fe 02040000 		.4byte	0x402
 1438 0402 0F       		.uleb128 0xf
 1439 0403 4B060000 		.4byte	.LASF76
 1440 0407 1404     		.2byte	0x414
 1441 0409 09       		.byte	0x9
 1442 040a A201     		.2byte	0x1a2
 1443 040c 45040000 		.4byte	0x445
 1444 0410 09       		.uleb128 0x9
 1445 0411 14080000 		.4byte	.LASF77
 1446 0415 09       		.byte	0x9
 1447 0416 AA01     		.2byte	0x1aa
 1448 0418 FC060000 		.4byte	0x6fc
 1449 041c 00       		.byte	0
 1450 041d 09       		.uleb128 0x9
 1451 041e A9080000 		.4byte	.LASF78
 1452 0422 09       		.byte	0x9
 1453 0423 AF01     		.2byte	0x1af
 1454 0425 4C010000 		.4byte	0x14c
 1455 0429 04       		.byte	0x4
 1456 042a 09       		.uleb128 0x9
 1457 042b DC050000 		.4byte	.LASF79
 1458 042f 09       		.byte	0x9
 1459 0430 B301     		.2byte	0x1b3
 1460 0432 4C010000 		.4byte	0x14c
 1461 0436 08       		.byte	0x8
 1462 0437 09       		.uleb128 0x9
 1463 0438 EA080000 		.4byte	.LASF80
 1464 043c 09       		.byte	0x9
 1465 043d B901     		.2byte	0x1b9
 1466 043f EE050000 		.4byte	0x5ee
 1467 0443 0C       		.byte	0xc
 1468 0444 00       		.byte	0
 1469 0445 03       		.uleb128 0x3
 1470 0446 B7030000 		.4byte	.LASF81
 1471 044a 08       		.byte	0x8
 1472 044b 70       		.byte	0x70
 1473 044c 50040000 		.4byte	0x450
 1474 0450 0F       		.uleb128 0xf
 1475 0451 B8010000 		.4byte	.LASF82
 1476 0455 7005     		.2byte	0x570
 1477 0457 09       		.byte	0x9
 1478 0458 C201     		.2byte	0x1c2
 1479 045a AF040000 		.4byte	0x4af
 1480 045e 09       		.uleb128 0x9
 1481 045f B1080000 		.4byte	.LASF83
 1482 0463 09       		.byte	0x9
 1483 0464 C601     		.2byte	0x1c6
 1484 0466 CB020000 		.4byte	0x2cb
 1485 046a 00       		.byte	0
 1486 046b 09       		.uleb128 0x9
 1487 046c A3010000 		.4byte	.LASF84
ARM GAS  C:\Users\jo\AppData\Local\Temp\cctZeUuD.s 			page 28


 1488 0470 09       		.byte	0x9
 1489 0471 CA01     		.2byte	0x1ca
 1490 0473 AA030000 		.4byte	0x3aa
 1491 0477 1C       		.byte	0x1c
 1492 0478 08       		.uleb128 0x8
 1493 0479 64626700 		.ascii	"dbg\000"
 1494 047d 09       		.byte	0x9
 1495 047e CE01     		.2byte	0x1ce
 1496 0480 F7030000 		.4byte	0x3f7
 1497 0484 2C       		.byte	0x2c
 1498 0485 10       		.uleb128 0x10
 1499 0486 C0000000 		.4byte	.LASF85
 1500 048a 09       		.byte	0x9
 1501 048b D201     		.2byte	0x1d2
 1502 048d 62010000 		.4byte	0x162
 1503 0491 4004     		.2byte	0x440
 1504 0493 11       		.uleb128 0x11
 1505 0494 746D00   		.ascii	"tm\000"
 1506 0497 09       		.byte	0x9
 1507 0498 D701     		.2byte	0x1d7
 1508 049a 0E060000 		.4byte	0x60e
 1509 049e 8804     		.2byte	0x488
 1510 04a0 10       		.uleb128 0x10
 1511 04a1 CE020000 		.4byte	.LASF86
 1512 04a5 09       		.byte	0x9
 1513 04a6 E301     		.2byte	0x1e3
 1514 04a8 01070000 		.4byte	0x701
 1515 04ac 9004     		.2byte	0x490
 1516 04ae 00       		.byte	0
 1517 04af 04       		.uleb128 0x4
 1518 04b0 04       		.byte	0x4
 1519 04b1 07       		.byte	0x7
 1520 04b2 2D050000 		.4byte	.LASF87
 1521 04b6 03       		.uleb128 0x3
 1522 04b7 8E020000 		.4byte	.LASF88
 1523 04bb 0A       		.byte	0xa
 1524 04bc 65       		.byte	0x65
 1525 04bd 4E030000 		.4byte	0x34e
 1526 04c1 03       		.uleb128 0x3
 1527 04c2 DE040000 		.4byte	.LASF89
 1528 04c6 0A       		.byte	0xa
 1529 04c7 6D       		.byte	0x6d
 1530 04c8 EF000000 		.4byte	0xef
 1531 04cc 06       		.uleb128 0x6
 1532 04cd 3E080000 		.4byte	.LASF90
 1533 04d1 04       		.byte	0x4
 1534 04d2 0A       		.byte	0xa
 1535 04d3 89       		.byte	0x89
 1536 04d4 E5040000 		.4byte	0x4e5
 1537 04d8 12       		.uleb128 0x12
 1538 04d9 72313300 		.ascii	"r13\000"
 1539 04dd 0A       		.byte	0xa
 1540 04de 8A       		.byte	0x8a
 1541 04df 60050000 		.4byte	0x560
 1542 04e3 00       		.byte	0
 1543 04e4 00       		.byte	0
 1544 04e5 06       		.uleb128 0x6
ARM GAS  C:\Users\jo\AppData\Local\Temp\cctZeUuD.s 			page 29


 1545 04e6 3B000000 		.4byte	.LASF91
 1546 04ea 24       		.byte	0x24
 1547 04eb 0B       		.byte	0xb
 1548 04ec F4       		.byte	0xf4
 1549 04ed 60050000 		.4byte	0x560
 1550 04f1 08       		.uleb128 0x8
 1551 04f2 723400   		.ascii	"r4\000"
 1552 04f5 0B       		.byte	0xb
 1553 04f6 0701     		.2byte	0x107
 1554 04f8 B6040000 		.4byte	0x4b6
 1555 04fc 00       		.byte	0
 1556 04fd 08       		.uleb128 0x8
 1557 04fe 723500   		.ascii	"r5\000"
 1558 0501 0B       		.byte	0xb
 1559 0502 0801     		.2byte	0x108
 1560 0504 B6040000 		.4byte	0x4b6
 1561 0508 04       		.byte	0x4
 1562 0509 08       		.uleb128 0x8
 1563 050a 723600   		.ascii	"r6\000"
 1564 050d 0B       		.byte	0xb
 1565 050e 0901     		.2byte	0x109
 1566 0510 B6040000 		.4byte	0x4b6
 1567 0514 08       		.byte	0x8
 1568 0515 08       		.uleb128 0x8
 1569 0516 723700   		.ascii	"r7\000"
 1570 0519 0B       		.byte	0xb
 1571 051a 0A01     		.2byte	0x10a
 1572 051c B6040000 		.4byte	0x4b6
 1573 0520 0C       		.byte	0xc
 1574 0521 08       		.uleb128 0x8
 1575 0522 723800   		.ascii	"r8\000"
 1576 0525 0B       		.byte	0xb
 1577 0526 0B01     		.2byte	0x10b
 1578 0528 B6040000 		.4byte	0x4b6
 1579 052c 10       		.byte	0x10
 1580 052d 08       		.uleb128 0x8
 1581 052e 723900   		.ascii	"r9\000"
 1582 0531 0B       		.byte	0xb
 1583 0532 0C01     		.2byte	0x10c
 1584 0534 B6040000 		.4byte	0x4b6
 1585 0538 14       		.byte	0x14
 1586 0539 08       		.uleb128 0x8
 1587 053a 72313000 		.ascii	"r10\000"
 1588 053e 0B       		.byte	0xb
 1589 053f 0D01     		.2byte	0x10d
 1590 0541 B6040000 		.4byte	0x4b6
 1591 0545 18       		.byte	0x18
 1592 0546 08       		.uleb128 0x8
 1593 0547 72313100 		.ascii	"r11\000"
 1594 054b 0B       		.byte	0xb
 1595 054c 0E01     		.2byte	0x10e
 1596 054e B6040000 		.4byte	0x4b6
 1597 0552 1C       		.byte	0x1c
 1598 0553 08       		.uleb128 0x8
 1599 0554 6C7200   		.ascii	"lr\000"
 1600 0557 0B       		.byte	0xb
 1601 0558 0F01     		.2byte	0x10f
ARM GAS  C:\Users\jo\AppData\Local\Temp\cctZeUuD.s 			page 30


 1602 055a B6040000 		.4byte	0x4b6
 1603 055e 20       		.byte	0x20
 1604 055f 00       		.byte	0
 1605 0560 0A       		.uleb128 0xa
 1606 0561 04       		.byte	0x4
 1607 0562 E5040000 		.4byte	0x4e5
 1608 0566 13       		.uleb128 0x13
 1609 0567 10       		.byte	0x10
 1610 0568 0C       		.byte	0xc
 1611 0569 51       		.byte	0x51
 1612 056a 9F050000 		.4byte	0x59f
 1613 056e 07       		.uleb128 0x7
 1614 056f 0D000000 		.4byte	.LASF92
 1615 0573 0C       		.byte	0xc
 1616 0574 55       		.byte	0x55
 1617 0575 57010000 		.4byte	0x157
 1618 0579 00       		.byte	0
 1619 057a 07       		.uleb128 0x7
 1620 057b EF010000 		.4byte	.LASF93
 1621 057f 0C       		.byte	0xc
 1622 0580 59       		.byte	0x59
 1623 0581 71020000 		.4byte	0x271
 1624 0585 04       		.byte	0x4
 1625 0586 07       		.uleb128 0x7
 1626 0587 05090000 		.4byte	.LASF94
 1627 058b 0C       		.byte	0xc
 1628 058c 5D       		.byte	0x5d
 1629 058d 4E030000 		.4byte	0x34e
 1630 0591 08       		.byte	0x8
 1631 0592 07       		.uleb128 0x7
 1632 0593 9F000000 		.4byte	.LASF95
 1633 0597 0C       		.byte	0xc
 1634 0598 61       		.byte	0x61
 1635 0599 C3000000 		.4byte	0xc3
 1636 059d 0C       		.byte	0xc
 1637 059e 00       		.byte	0
 1638 059f 03       		.uleb128 0x3
 1639 05a0 7E050000 		.4byte	.LASF96
 1640 05a4 0C       		.byte	0xc
 1641 05a5 62       		.byte	0x62
 1642 05a6 66050000 		.4byte	0x566
 1643 05aa 14       		.uleb128 0x14
 1644 05ab 0804     		.2byte	0x408
 1645 05ad 0C       		.byte	0xc
 1646 05ae 67       		.byte	0x67
 1647 05af D8050000 		.4byte	0x5d8
 1648 05b3 07       		.uleb128 0x7
 1649 05b4 47020000 		.4byte	.LASF97
 1650 05b8 0C       		.byte	0xc
 1651 05b9 6B       		.byte	0x6b
 1652 05ba 37000000 		.4byte	0x37
 1653 05be 00       		.byte	0
 1654 05bf 07       		.uleb128 0x7
 1655 05c0 60050000 		.4byte	.LASF98
 1656 05c4 0C       		.byte	0xc
 1657 05c5 6F       		.byte	0x6f
 1658 05c6 D8050000 		.4byte	0x5d8
ARM GAS  C:\Users\jo\AppData\Local\Temp\cctZeUuD.s 			page 31


 1659 05ca 04       		.byte	0x4
 1660 05cb 07       		.uleb128 0x7
 1661 05cc 16060000 		.4byte	.LASF99
 1662 05d0 0C       		.byte	0xc
 1663 05d1 73       		.byte	0x73
 1664 05d2 DE050000 		.4byte	0x5de
 1665 05d6 08       		.byte	0x8
 1666 05d7 00       		.byte	0
 1667 05d8 0A       		.uleb128 0xa
 1668 05d9 04       		.byte	0x4
 1669 05da 9F050000 		.4byte	0x59f
 1670 05de 15       		.uleb128 0x15
 1671 05df 9F050000 		.4byte	0x59f
 1672 05e3 EE050000 		.4byte	0x5ee
 1673 05e7 16       		.uleb128 0x16
 1674 05e8 AF040000 		.4byte	0x4af
 1675 05ec 3F       		.byte	0x3f
 1676 05ed 00       		.byte	0
 1677 05ee 03       		.uleb128 0x3
 1678 05ef 99050000 		.4byte	.LASF100
 1679 05f3 0C       		.byte	0xc
 1680 05f4 74       		.byte	0x74
 1681 05f5 AA050000 		.4byte	0x5aa
 1682 05f9 13       		.uleb128 0x13
 1683 05fa 04       		.byte	0x4
 1684 05fb 0D       		.byte	0xd
 1685 05fc 38       		.byte	0x38
 1686 05fd 0E060000 		.4byte	0x60e
 1687 0601 07       		.uleb128 0x7
 1688 0602 1E080000 		.4byte	.LASF101
 1689 0606 0D       		.byte	0xd
 1690 0607 3C       		.byte	0x3c
 1691 0608 FF000000 		.4byte	0xff
 1692 060c 00       		.byte	0
 1693 060d 00       		.byte	0
 1694 060e 03       		.uleb128 0x3
 1695 060f C2050000 		.4byte	.LASF102
 1696 0613 0D       		.byte	0xd
 1697 0614 3D       		.byte	0x3d
 1698 0615 F9050000 		.4byte	0x5f9
 1699 0619 17       		.uleb128 0x17
 1700 061a 04       		.byte	0x4
 1701 061b 09       		.byte	0x9
 1702 061c FA       		.byte	0xfa
 1703 061d 76060000 		.4byte	0x676
 1704 0621 18       		.uleb128 0x18
 1705 0622 21000000 		.4byte	.LASF103
 1706 0626 09       		.byte	0x9
 1707 0627 0101     		.2byte	0x101
 1708 0629 36010000 		.4byte	0x136
 1709 062d 18       		.uleb128 0x18
 1710 062e A8000000 		.4byte	.LASF104
 1711 0632 09       		.byte	0x9
 1712 0633 0801     		.2byte	0x108
 1713 0635 36010000 		.4byte	0x136
 1714 0639 18       		.uleb128 0x18
 1715 063a CF080000 		.4byte	.LASF105
ARM GAS  C:\Users\jo\AppData\Local\Temp\cctZeUuD.s 			page 32


 1716 063e 09       		.byte	0x9
 1717 063f 0F01     		.2byte	0x10f
 1718 0641 4E030000 		.4byte	0x34e
 1719 0645 18       		.uleb128 0x18
 1720 0646 B2010000 		.4byte	.LASF106
 1721 064a 09       		.byte	0x9
 1722 064b 1601     		.2byte	0x116
 1723 064d 76060000 		.4byte	0x676
 1724 0651 18       		.uleb128 0x18
 1725 0652 35030000 		.4byte	.LASF107
 1726 0656 09       		.byte	0x9
 1727 0657 1E01     		.2byte	0x11e
 1728 0659 A1060000 		.4byte	0x6a1
 1729 065d 18       		.uleb128 0x18
 1730 065e 52070000 		.4byte	.LASF108
 1731 0662 09       		.byte	0x9
 1732 0663 2701     		.2byte	0x127
 1733 0665 D8060000 		.4byte	0x6d8
 1734 0669 18       		.uleb128 0x18
 1735 066a B1060000 		.4byte	.LASF109
 1736 066e 09       		.byte	0x9
 1737 066f 2F01     		.2byte	0x12f
 1738 0671 41010000 		.4byte	0x141
 1739 0675 00       		.byte	0
 1740 0676 0A       		.uleb128 0xa
 1741 0677 04       		.byte	0x4
 1742 0678 66020000 		.4byte	0x266
 1743 067c 06       		.uleb128 0x6
 1744 067d 08070000 		.4byte	.LASF110
 1745 0681 0C       		.byte	0xc
 1746 0682 0E       		.byte	0xe
 1747 0683 34       		.byte	0x34
 1748 0684 A1060000 		.4byte	0x6a1
 1749 0688 07       		.uleb128 0x7
 1750 0689 26020000 		.4byte	.LASF111
 1751 068d 0E       		.byte	0xe
 1752 068e 35       		.byte	0x35
 1753 068f 9B020000 		.4byte	0x29b
 1754 0693 00       		.byte	0
 1755 0694 07       		.uleb128 0x7
 1756 0695 79030000 		.4byte	.LASF112
 1757 0699 0E       		.byte	0xe
 1758 069a 37       		.byte	0x37
 1759 069b 4C010000 		.4byte	0x14c
 1760 069f 08       		.byte	0x8
 1761 06a0 00       		.byte	0
 1762 06a1 0A       		.uleb128 0xa
 1763 06a2 04       		.byte	0x4
 1764 06a3 7C060000 		.4byte	0x67c
 1765 06a7 06       		.uleb128 0x6
 1766 06a8 30080000 		.4byte	.LASF113
 1767 06ac 10       		.byte	0x10
 1768 06ad 0F       		.byte	0xf
 1769 06ae 39       		.byte	0x39
 1770 06af D8060000 		.4byte	0x6d8
 1771 06b3 07       		.uleb128 0x7
 1772 06b4 77060000 		.4byte	.LASF114
ARM GAS  C:\Users\jo\AppData\Local\Temp\cctZeUuD.s 			page 33


 1773 06b8 0F       		.byte	0xf
 1774 06b9 3A       		.byte	0x3a
 1775 06ba 9B020000 		.4byte	0x29b
 1776 06be 00       		.byte	0
 1777 06bf 07       		.uleb128 0x7
 1778 06c0 FD080000 		.4byte	.LASF115
 1779 06c4 0F       		.byte	0xf
 1780 06c5 3C       		.byte	0x3c
 1781 06c6 71020000 		.4byte	0x271
 1782 06ca 08       		.byte	0x8
 1783 06cb 07       		.uleb128 0x7
 1784 06cc D9070000 		.4byte	.LASF116
 1785 06d0 0F       		.byte	0xf
 1786 06d1 3E       		.byte	0x3e
 1787 06d2 1C070000 		.4byte	0x71c
 1788 06d6 0C       		.byte	0xc
 1789 06d7 00       		.byte	0
 1790 06d8 0A       		.uleb128 0xa
 1791 06d9 04       		.byte	0x4
 1792 06da A7060000 		.4byte	0x6a7
 1793 06de 0A       		.uleb128 0xa
 1794 06df 04       		.byte	0x4
 1795 06e0 E4060000 		.4byte	0x6e4
 1796 06e4 19       		.uleb128 0x19
 1797 06e5 E9060000 		.4byte	0x6e9
 1798 06e9 04       		.uleb128 0x4
 1799 06ea 01       		.byte	0x1
 1800 06eb 08       		.byte	0x8
 1801 06ec 92070000 		.4byte	.LASF117
 1802 06f0 0A       		.uleb128 0xa
 1803 06f1 04       		.byte	0x4
 1804 06f2 C1040000 		.4byte	0x4c1
 1805 06f6 0A       		.uleb128 0xa
 1806 06f7 04       		.byte	0x4
 1807 06f8 50030000 		.4byte	0x350
 1808 06fc 05       		.uleb128 0x5
 1809 06fd DE060000 		.4byte	0x6de
 1810 0701 15       		.uleb128 0x15
 1811 0702 C1040000 		.4byte	0x4c1
 1812 0706 11070000 		.4byte	0x711
 1813 070a 16       		.uleb128 0x16
 1814 070b AF040000 		.4byte	0x4af
 1815 070f 1B       		.byte	0x1b
 1816 0710 00       		.byte	0
 1817 0711 03       		.uleb128 0x3
 1818 0712 A4020000 		.4byte	.LASF118
 1819 0716 0F       		.byte	0xf
 1820 0717 34       		.byte	0x34
 1821 0718 A7060000 		.4byte	0x6a7
 1822 071c 0A       		.uleb128 0xa
 1823 071d 04       		.byte	0x4
 1824 071e 11070000 		.4byte	0x711
 1825 0722 0A       		.uleb128 0xa
 1826 0723 04       		.byte	0x4
 1827 0724 C3000000 		.4byte	0xc3
 1828 0728 06       		.uleb128 0x6
 1829 0729 3A070000 		.4byte	.LASF119
ARM GAS  C:\Users\jo\AppData\Local\Temp\cctZeUuD.s 			page 34


 1830 072d 10       		.byte	0x10
 1831 072e 10       		.byte	0x10
 1832 072f 40       		.byte	0x40
 1833 0730 65070000 		.4byte	0x765
 1834 0734 07       		.uleb128 0x7
 1835 0735 00050000 		.4byte	.LASF120
 1836 0739 10       		.byte	0x10
 1837 073a 41       		.byte	0x41
 1838 073b 89070000 		.4byte	0x789
 1839 073f 00       		.byte	0
 1840 0740 07       		.uleb128 0x7
 1841 0741 8D070000 		.4byte	.LASF121
 1842 0745 10       		.byte	0x10
 1843 0746 41       		.byte	0x41
 1844 0747 A8070000 		.4byte	0x7a8
 1845 074b 04       		.byte	0x4
 1846 074c 12       		.uleb128 0x12
 1847 074d 70757400 		.ascii	"put\000"
 1848 0751 10       		.byte	0x10
 1849 0752 41       		.byte	0x41
 1850 0753 C2070000 		.4byte	0x7c2
 1851 0757 08       		.byte	0x8
 1852 0758 12       		.uleb128 0x12
 1853 0759 67657400 		.ascii	"get\000"
 1854 075d 10       		.byte	0x10
 1855 075e 41       		.byte	0x41
 1856 075f D7070000 		.4byte	0x7d7
 1857 0763 0C       		.byte	0xc
 1858 0764 00       		.byte	0
 1859 0765 1A       		.uleb128 0x1a
 1860 0766 2C000000 		.4byte	0x2c
 1861 076a 7E070000 		.4byte	0x77e
 1862 076e 0D       		.uleb128 0xd
 1863 076f 4E030000 		.4byte	0x34e
 1864 0773 0D       		.uleb128 0xd
 1865 0774 7E070000 		.4byte	0x77e
 1866 0778 0D       		.uleb128 0xd
 1867 0779 2C000000 		.4byte	0x2c
 1868 077d 00       		.byte	0
 1869 077e 0A       		.uleb128 0xa
 1870 077f 04       		.byte	0x4
 1871 0780 84070000 		.4byte	0x784
 1872 0784 19       		.uleb128 0x19
 1873 0785 C3000000 		.4byte	0xc3
 1874 0789 0A       		.uleb128 0xa
 1875 078a 04       		.byte	0x4
 1876 078b 65070000 		.4byte	0x765
 1877 078f 1A       		.uleb128 0x1a
 1878 0790 2C000000 		.4byte	0x2c
 1879 0794 A8070000 		.4byte	0x7a8
 1880 0798 0D       		.uleb128 0xd
 1881 0799 4E030000 		.4byte	0x34e
 1882 079d 0D       		.uleb128 0xd
 1883 079e 22070000 		.4byte	0x722
 1884 07a2 0D       		.uleb128 0xd
 1885 07a3 2C000000 		.4byte	0x2c
 1886 07a7 00       		.byte	0
ARM GAS  C:\Users\jo\AppData\Local\Temp\cctZeUuD.s 			page 35


 1887 07a8 0A       		.uleb128 0xa
 1888 07a9 04       		.byte	0x4
 1889 07aa 8F070000 		.4byte	0x78f
 1890 07ae 1A       		.uleb128 0x1a
 1891 07af 36010000 		.4byte	0x136
 1892 07b3 C2070000 		.4byte	0x7c2
 1893 07b7 0D       		.uleb128 0xd
 1894 07b8 4E030000 		.4byte	0x34e
 1895 07bc 0D       		.uleb128 0xd
 1896 07bd C3000000 		.4byte	0xc3
 1897 07c1 00       		.byte	0
 1898 07c2 0A       		.uleb128 0xa
 1899 07c3 04       		.byte	0x4
 1900 07c4 AE070000 		.4byte	0x7ae
 1901 07c8 1A       		.uleb128 0x1a
 1902 07c9 36010000 		.4byte	0x136
 1903 07cd D7070000 		.4byte	0x7d7
 1904 07d1 0D       		.uleb128 0xd
 1905 07d2 4E030000 		.4byte	0x34e
 1906 07d6 00       		.byte	0
 1907 07d7 0A       		.uleb128 0xa
 1908 07d8 04       		.byte	0x4
 1909 07d9 C8070000 		.4byte	0x7c8
 1910 07dd 13       		.uleb128 0x13
 1911 07de 04       		.byte	0x4
 1912 07df 10       		.byte	0x10
 1913 07e0 49       		.byte	0x49
 1914 07e1 F2070000 		.4byte	0x7f2
 1915 07e5 12       		.uleb128 0x12
 1916 07e6 766D7400 		.ascii	"vmt\000"
 1917 07ea 10       		.byte	0x10
 1918 07eb 4B       		.byte	0x4b
 1919 07ec F2070000 		.4byte	0x7f2
 1920 07f0 00       		.byte	0
 1921 07f1 00       		.byte	0
 1922 07f2 0A       		.uleb128 0xa
 1923 07f3 04       		.byte	0x4
 1924 07f4 F8070000 		.4byte	0x7f8
 1925 07f8 19       		.uleb128 0x19
 1926 07f9 28070000 		.4byte	0x728
 1927 07fd 03       		.uleb128 0x3
 1928 07fe AC020000 		.4byte	.LASF122
 1929 0802 10       		.byte	0x10
 1930 0803 4D       		.byte	0x4d
 1931 0804 DD070000 		.4byte	0x7dd
 1932 0808 04       		.uleb128 0x4
 1933 0809 01       		.byte	0x1
 1934 080a 02       		.byte	0x2
 1935 080b 5B060000 		.4byte	.LASF123
 1936 080f 06       		.uleb128 0x6
 1937 0810 B6070000 		.4byte	.LASF124
 1938 0814 10       		.byte	0x10
 1939 0815 11       		.byte	0x11
 1940 0816 2E       		.byte	0x2e
 1941 0817 4C080000 		.4byte	0x84c
 1942 081b 07       		.uleb128 0x7
 1943 081c 00050000 		.4byte	.LASF120
ARM GAS  C:\Users\jo\AppData\Local\Temp\cctZeUuD.s 			page 36


 1944 0820 11       		.byte	0x11
 1945 0821 2F       		.byte	0x2f
 1946 0822 89070000 		.4byte	0x789
 1947 0826 00       		.byte	0
 1948 0827 07       		.uleb128 0x7
 1949 0828 8D070000 		.4byte	.LASF121
 1950 082c 11       		.byte	0x11
 1951 082d 2F       		.byte	0x2f
 1952 082e A8070000 		.4byte	0x7a8
 1953 0832 04       		.byte	0x4
 1954 0833 12       		.uleb128 0x12
 1955 0834 70757400 		.ascii	"put\000"
 1956 0838 11       		.byte	0x11
 1957 0839 2F       		.byte	0x2f
 1958 083a C2070000 		.4byte	0x7c2
 1959 083e 08       		.byte	0x8
 1960 083f 12       		.uleb128 0x12
 1961 0840 67657400 		.ascii	"get\000"
 1962 0844 11       		.byte	0x11
 1963 0845 2F       		.byte	0x2f
 1964 0846 D7070000 		.4byte	0x7d7
 1965 084a 0C       		.byte	0xc
 1966 084b 00       		.byte	0
 1967 084c 13       		.uleb128 0x13
 1968 084d 04       		.byte	0x4
 1969 084e 11       		.byte	0x11
 1970 084f 39       		.byte	0x39
 1971 0850 61080000 		.4byte	0x861
 1972 0854 12       		.uleb128 0x12
 1973 0855 766D7400 		.ascii	"vmt\000"
 1974 0859 11       		.byte	0x11
 1975 085a 3B       		.byte	0x3b
 1976 085b 61080000 		.4byte	0x861
 1977 085f 00       		.byte	0
 1978 0860 00       		.byte	0
 1979 0861 0A       		.uleb128 0xa
 1980 0862 04       		.byte	0x4
 1981 0863 67080000 		.4byte	0x867
 1982 0867 19       		.uleb128 0x19
 1983 0868 0F080000 		.4byte	0x80f
 1984 086c 03       		.uleb128 0x3
 1985 086d 0C060000 		.4byte	.LASF125
 1986 0871 11       		.byte	0x11
 1987 0872 3D       		.byte	0x3d
 1988 0873 4C080000 		.4byte	0x84c
 1989 0877 03       		.uleb128 0x3
 1990 0878 67050000 		.4byte	.LASF126
 1991 087c 12       		.byte	0x12
 1992 087d 28       		.byte	0x28
 1993 087e 82080000 		.4byte	0x882
 1994 0882 06       		.uleb128 0x6
 1995 0883 07020000 		.4byte	.LASF127
 1996 0887 04       		.byte	0x4
 1997 0888 13       		.byte	0x13
 1998 0889 00       		.byte	0
 1999 088a 99080000 		.4byte	0x899
 2000 088e 1B       		.uleb128 0x1b
ARM GAS  C:\Users\jo\AppData\Local\Temp\cctZeUuD.s 			page 37


 2001 088f 39080000 		.4byte	.LASF128
 2002 0893 4E030000 		.4byte	0x34e
 2003 0897 00       		.byte	0
 2004 0898 00       		.byte	0
 2005 0899 03       		.uleb128 0x3
 2006 089a 47000000 		.4byte	.LASF129
 2007 089e 12       		.byte	0x12
 2008 089f 62       		.byte	0x62
 2009 08a0 77080000 		.4byte	0x877
 2010 08a4 03       		.uleb128 0x3
 2011 08a5 0A030000 		.4byte	.LASF130
 2012 08a9 14       		.byte	0x14
 2013 08aa 3F       		.byte	0x3f
 2014 08ab C3000000 		.4byte	0xc3
 2015 08af 03       		.uleb128 0x3
 2016 08b0 23050000 		.4byte	.LASF131
 2017 08b4 14       		.byte	0x14
 2018 08b5 40       		.byte	0x40
 2019 08b6 B8000000 		.4byte	0xb8
 2020 08ba 03       		.uleb128 0x3
 2021 08bb 5C080000 		.4byte	.LASF132
 2022 08bf 14       		.byte	0x14
 2023 08c0 41       		.byte	0x41
 2024 08c1 CE000000 		.4byte	0xce
 2025 08c5 03       		.uleb128 0x3
 2026 08c6 51030000 		.4byte	.LASF133
 2027 08ca 14       		.byte	0x14
 2028 08cb 43       		.byte	0x43
 2029 08cc E4000000 		.4byte	0xe4
 2030 08d0 03       		.uleb128 0x3
 2031 08d1 FE030000 		.4byte	.LASF134
 2032 08d5 15       		.byte	0x15
 2033 08d6 2F       		.byte	0x2f
 2034 08d7 AF080000 		.4byte	0x8af
 2035 08db 1C       		.uleb128 0x1c
 2036 08dc 01       		.byte	0x1
 2037 08dd 16       		.byte	0x16
 2038 08de 32       		.byte	0x32
 2039 08df FC080000 		.4byte	0x8fc
 2040 08e3 1D       		.uleb128 0x1d
 2041 08e4 C3030000 		.4byte	.LASF135
 2042 08e8 00       		.sleb128 0
 2043 08e9 1D       		.uleb128 0x1d
 2044 08ea CB010000 		.4byte	.LASF136
 2045 08ee 01       		.sleb128 1
 2046 08ef 1D       		.uleb128 0x1d
 2047 08f0 02060000 		.4byte	.LASF137
 2048 08f4 02       		.sleb128 2
 2049 08f5 1D       		.uleb128 0x1d
 2050 08f6 15070000 		.4byte	.LASF138
 2051 08fa 03       		.sleb128 3
 2052 08fb 00       		.byte	0
 2053 08fc 03       		.uleb128 0x3
 2054 08fd E9040000 		.4byte	.LASF139
 2055 0901 16       		.byte	0x16
 2056 0902 37       		.byte	0x37
 2057 0903 DB080000 		.4byte	0x8db
ARM GAS  C:\Users\jo\AppData\Local\Temp\cctZeUuD.s 			page 38


 2058 0907 1C       		.uleb128 0x1c
 2059 0908 01       		.byte	0x1
 2060 0909 16       		.byte	0x16
 2061 090a 39       		.byte	0x39
 2062 090b 28090000 		.4byte	0x928
 2063 090f 1D       		.uleb128 0x1d
 2064 0910 D8060000 		.4byte	.LASF140
 2065 0914 00       		.sleb128 0
 2066 0915 1D       		.uleb128 0x1d
 2067 0916 B3050000 		.4byte	.LASF141
 2068 091a 01       		.sleb128 1
 2069 091b 1D       		.uleb128 0x1d
 2070 091c E6010000 		.4byte	.LASF142
 2071 0920 02       		.sleb128 2
 2072 0921 1D       		.uleb128 0x1d
 2073 0922 D3010000 		.4byte	.LASF143
 2074 0926 03       		.sleb128 3
 2075 0927 00       		.byte	0
 2076 0928 03       		.uleb128 0x3
 2077 0929 20030000 		.4byte	.LASF144
 2078 092d 16       		.byte	0x16
 2079 092e 3E       		.byte	0x3e
 2080 092f 07090000 		.4byte	0x907
 2081 0933 06       		.uleb128 0x6
 2082 0934 08000000 		.4byte	.LASF145
 2083 0938 10       		.byte	0x10
 2084 0939 16       		.byte	0x16
 2085 093a 4F       		.byte	0x4f
 2086 093b 94090000 		.4byte	0x994
 2087 093f 07       		.uleb128 0x7
 2088 0940 1C000000 		.4byte	.LASF146
 2089 0944 16       		.byte	0x16
 2090 0945 51       		.byte	0x51
 2091 0946 94090000 		.4byte	0x994
 2092 094a 00       		.byte	0
 2093 094b 07       		.uleb128 0x7
 2094 094c 76050000 		.4byte	.LASF147
 2095 0950 16       		.byte	0x16
 2096 0951 54       		.byte	0x54
 2097 0952 4E030000 		.4byte	0x34e
 2098 0956 04       		.byte	0x4
 2099 0957 07       		.uleb128 0x7
 2100 0958 AA010000 		.4byte	.LASF148
 2101 095c 16       		.byte	0x16
 2102 095d 5D       		.byte	0x5d
 2103 095e BA080000 		.4byte	0x8ba
 2104 0962 08       		.byte	0x8
 2105 0963 12       		.uleb128 0x12
 2106 0964 6C656E00 		.ascii	"len\000"
 2107 0968 16       		.byte	0x16
 2108 0969 60       		.byte	0x60
 2109 096a BA080000 		.4byte	0x8ba
 2110 096e 0A       		.byte	0xa
 2111 096f 07       		.uleb128 0x7
 2112 0970 5E000000 		.4byte	.LASF149
 2113 0974 16       		.byte	0x16
 2114 0975 63       		.byte	0x63
ARM GAS  C:\Users\jo\AppData\Local\Temp\cctZeUuD.s 			page 39


 2115 0976 A4080000 		.4byte	0x8a4
 2116 097a 0C       		.byte	0xc
 2117 097b 07       		.uleb128 0x7
 2118 097c C9080000 		.4byte	.LASF150
 2119 0980 16       		.byte	0x16
 2120 0981 66       		.byte	0x66
 2121 0982 A4080000 		.4byte	0x8a4
 2122 0986 0D       		.byte	0xd
 2123 0987 12       		.uleb128 0x12
 2124 0988 72656600 		.ascii	"ref\000"
 2125 098c 16       		.byte	0x16
 2126 098d 6D       		.byte	0x6d
 2127 098e BA080000 		.4byte	0x8ba
 2128 0992 0E       		.byte	0xe
 2129 0993 00       		.byte	0
 2130 0994 0A       		.uleb128 0xa
 2131 0995 04       		.byte	0x4
 2132 0996 33090000 		.4byte	0x933
 2133 099a 06       		.uleb128 0x6
 2134 099b AB050000 		.4byte	.LASF151
 2135 099f 04       		.byte	0x4
 2136 09a0 17       		.byte	0x17
 2137 09a1 2C       		.byte	0x2c
 2138 09a2 B3090000 		.4byte	0x9b3
 2139 09a6 07       		.uleb128 0x7
 2140 09a7 3F060000 		.4byte	.LASF152
 2141 09ab 17       		.byte	0x17
 2142 09ac 2D       		.byte	0x2d
 2143 09ad C5080000 		.4byte	0x8c5
 2144 09b1 00       		.byte	0
 2145 09b2 00       		.byte	0
 2146 09b3 03       		.uleb128 0x3
 2147 09b4 0F050000 		.4byte	.LASF153
 2148 09b8 17       		.byte	0x17
 2149 09b9 40       		.byte	0x40
 2150 09ba 9A090000 		.4byte	0x99a
 2151 09be 06       		.uleb128 0x6
 2152 09bf 9B060000 		.4byte	.LASF154
 2153 09c3 10       		.byte	0x10
 2154 09c4 18       		.byte	0x18
 2155 09c5 30       		.byte	0x30
 2156 09c6 F9090000 		.4byte	0x9f9
 2157 09ca 12       		.uleb128 0x12
 2158 09cb 7000     		.ascii	"p\000"
 2159 09cd 18       		.byte	0x18
 2160 09ce 31       		.byte	0x31
 2161 09cf 94090000 		.4byte	0x994
 2162 09d3 00       		.byte	0
 2163 09d4 12       		.uleb128 0x12
 2164 09d5 70747200 		.ascii	"ptr\000"
 2165 09d9 18       		.byte	0x18
 2166 09da 31       		.byte	0x31
 2167 09db 94090000 		.4byte	0x994
 2168 09df 04       		.byte	0x4
 2169 09e0 07       		.uleb128 0x7
 2170 09e1 3F060000 		.4byte	.LASF152
 2171 09e5 18       		.byte	0x18
ARM GAS  C:\Users\jo\AppData\Local\Temp\cctZeUuD.s 			page 40


 2172 09e6 32       		.byte	0x32
 2173 09e7 B3090000 		.4byte	0x9b3
 2174 09eb 08       		.byte	0x8
 2175 09ec 07       		.uleb128 0x7
 2176 09ed 9F020000 		.4byte	.LASF155
 2177 09f1 18       		.byte	0x18
 2178 09f2 33       		.byte	0x33
 2179 09f3 BA080000 		.4byte	0x8ba
 2180 09f7 0C       		.byte	0xc
 2181 09f8 00       		.byte	0
 2182 09f9 1C       		.uleb128 0x1c
 2183 09fa 01       		.byte	0x1
 2184 09fb 19       		.byte	0x19
 2185 09fc 2B       		.byte	0x2b
 2186 09fd 560A0000 		.4byte	0xa56
 2187 0a01 1D       		.uleb128 0x1d
 2188 0a02 11020000 		.4byte	.LASF156
 2189 0a06 00       		.sleb128 0
 2190 0a07 1D       		.uleb128 0x1d
 2191 0a08 6C030000 		.4byte	.LASF157
 2192 0a0c 01       		.sleb128 1
 2193 0a0d 1D       		.uleb128 0x1d
 2194 0a0e 7A020000 		.4byte	.LASF158
 2195 0a12 02       		.sleb128 2
 2196 0a13 1D       		.uleb128 0x1d
 2197 0a14 CB000000 		.4byte	.LASF159
 2198 0a18 03       		.sleb128 3
 2199 0a19 1D       		.uleb128 0x1d
 2200 0a1a E3020000 		.4byte	.LASF160
 2201 0a1e 04       		.sleb128 4
 2202 0a1f 1D       		.uleb128 0x1d
 2203 0a20 F9060000 		.4byte	.LASF161
 2204 0a24 05       		.sleb128 5
 2205 0a25 1D       		.uleb128 0x1d
 2206 0a26 9F070000 		.4byte	.LASF162
 2207 0a2a 06       		.sleb128 6
 2208 0a2b 1D       		.uleb128 0x1d
 2209 0a2c C3070000 		.4byte	.LASF163
 2210 0a30 07       		.sleb128 7
 2211 0a31 1D       		.uleb128 0x1d
 2212 0a32 7A070000 		.4byte	.LASF164
 2213 0a36 08       		.sleb128 8
 2214 0a37 1D       		.uleb128 0x1d
 2215 0a38 9C030000 		.4byte	.LASF165
 2216 0a3c 09       		.sleb128 9
 2217 0a3d 1D       		.uleb128 0x1d
 2218 0a3e 29070000 		.4byte	.LASF166
 2219 0a42 0A       		.sleb128 10
 2220 0a43 1D       		.uleb128 0x1d
 2221 0a44 3C030000 		.4byte	.LASF167
 2222 0a48 0B       		.sleb128 11
 2223 0a49 1D       		.uleb128 0x1d
 2224 0a4a B1000000 		.4byte	.LASF168
 2225 0a4e 0C       		.sleb128 12
 2226 0a4f 1D       		.uleb128 0x1d
 2227 0a50 06050000 		.4byte	.LASF169
 2228 0a54 0D       		.sleb128 13
ARM GAS  C:\Users\jo\AppData\Local\Temp\cctZeUuD.s 			page 41


 2229 0a55 00       		.byte	0
 2230 0a56 0A       		.uleb128 0xa
 2231 0a57 04       		.byte	0x4
 2232 0a58 5C0A0000 		.4byte	0xa5c
 2233 0a5c 1E       		.uleb128 0x1e
 2234 0a5d 1F       		.uleb128 0x1f
 2235 0a5e F4040000 		.4byte	.LASF197
 2236 0a62 03       		.byte	0x3
 2237 0a63 9E01     		.2byte	0x19e
 2238 0a65 03       		.byte	0x3
 2239 0a66 770A0000 		.4byte	0xa77
 2240 0a6a 20       		.uleb128 0x20
 2241 0a6b E1060000 		.4byte	.LASF170
 2242 0a6f 03       		.byte	0x3
 2243 0a70 9E01     		.2byte	0x19e
 2244 0a72 DE060000 		.4byte	0x6de
 2245 0a76 00       		.byte	0
 2246 0a77 21       		.uleb128 0x21
 2247 0a78 1D090000 		.4byte	.LASF198
 2248 0a7c 01       		.byte	0x1
 2249 0a7d 45       		.byte	0x45
 2250 0a7e 25000000 		.4byte	0x25
 2251 0a82 03       		.byte	0x3
 2252 0a83 B40A0000 		.4byte	0xab4
 2253 0a87 22       		.uleb128 0x22
 2254 0a88 63687000 		.ascii	"chp\000"
 2255 0a8c 01       		.byte	0x1
 2256 0a8d 45       		.byte	0x45
 2257 0a8e B40A0000 		.4byte	0xab4
 2258 0a92 22       		.uleb128 0x22
 2259 0a93 666D7400 		.ascii	"fmt\000"
 2260 0a97 01       		.byte	0x1
 2261 0a98 45       		.byte	0x45
 2262 0a99 DE060000 		.4byte	0x6de
 2263 0a9d 23       		.uleb128 0x23
 2264 0a9e 24       		.uleb128 0x24
 2265 0a9f 617000   		.ascii	"ap\000"
 2266 0aa2 01       		.byte	0x1
 2267 0aa3 46       		.byte	0x46
 2268 0aa4 99080000 		.4byte	0x899
 2269 0aa8 25       		.uleb128 0x25
 2270 0aa9 84000000 		.4byte	.LASF171
 2271 0aad 01       		.byte	0x1
 2272 0aae 47       		.byte	0x47
 2273 0aaf 25000000 		.4byte	0x25
 2274 0ab3 00       		.byte	0
 2275 0ab4 0A       		.uleb128 0xa
 2276 0ab5 04       		.byte	0x4
 2277 0ab6 FD070000 		.4byte	0x7fd
 2278 0aba 26       		.uleb128 0x26
 2279 0abb 770A0000 		.4byte	0xa77
 2280 0abf 00000000 		.4byte	.LFB269
 2281 0ac3 28000000 		.4byte	.LFE269-.LFB269
 2282 0ac7 01       		.uleb128 0x1
 2283 0ac8 9C       		.byte	0x9c
 2284 0ac9 190B0000 		.4byte	0xb19
 2285 0acd 27       		.uleb128 0x27
ARM GAS  C:\Users\jo\AppData\Local\Temp\cctZeUuD.s 			page 42


 2286 0ace 870A0000 		.4byte	0xa87
 2287 0ad2 00000000 		.4byte	.LLST0
 2288 0ad6 28       		.uleb128 0x28
 2289 0ad7 920A0000 		.4byte	0xa92
 2290 0adb 02       		.uleb128 0x2
 2291 0adc 91       		.byte	0x91
 2292 0add 74       		.sleb128 -12
 2293 0ade 23       		.uleb128 0x23
 2294 0adf 29       		.uleb128 0x29
 2295 0ae0 9E0A0000 		.4byte	0xa9e
 2296 0ae4 02       		.uleb128 0x2
 2297 0ae5 91       		.byte	0x91
 2298 0ae6 6C       		.sleb128 -20
 2299 0ae7 29       		.uleb128 0x29
 2300 0ae8 A80A0000 		.4byte	0xaa8
 2301 0aec 01       		.uleb128 0x1
 2302 0aed 50       		.byte	0x50
 2303 0aee 28       		.uleb128 0x28
 2304 0aef 920A0000 		.4byte	0xa92
 2305 0af3 06       		.uleb128 0x6
 2306 0af4 03       		.byte	0x3
 2307 0af5 00000000 		.4byte	.LC0
 2308 0af9 9F       		.byte	0x9f
 2309 0afa 2A       		.uleb128 0x2a
 2310 0afb 870A0000 		.4byte	0xa87
 2311 0aff 2B       		.uleb128 0x2b
 2312 0b00 14000000 		.4byte	.LVL2
 2313 0b04 B9110000 		.4byte	0x11b9
 2314 0b08 2C       		.uleb128 0x2c
 2315 0b09 01       		.uleb128 0x1
 2316 0b0a 52       		.byte	0x52
 2317 0b0b 02       		.uleb128 0x2
 2318 0b0c 91       		.byte	0x91
 2319 0b0d 60       		.sleb128 -32
 2320 0b0e 2C       		.uleb128 0x2c
 2321 0b0f 01       		.uleb128 0x1
 2322 0b10 51       		.byte	0x51
 2323 0b11 05       		.uleb128 0x5
 2324 0b12 03       		.byte	0x3
 2325 0b13 00000000 		.4byte	.LC0
 2326 0b17 00       		.byte	0
 2327 0b18 00       		.byte	0
 2328 0b19 2D       		.uleb128 0x2d
 2329 0b1a 94000000 		.4byte	.LASF172
 2330 0b1e 02       		.byte	0x2
 2331 0b1f 38       		.byte	0x38
 2332 0b20 490B0000 		.4byte	0xb49
 2333 0b24 00000000 		.4byte	.LFB260
 2334 0b28 1C000000 		.4byte	.LFE260-.LFB260
 2335 0b2c 01       		.uleb128 0x1
 2336 0b2d 9C       		.byte	0x9c
 2337 0b2e 490B0000 		.4byte	0xb49
 2338 0b32 2E       		.uleb128 0x2e
 2339 0b33 62756600 		.ascii	"buf\000"
 2340 0b37 02       		.byte	0x2
 2341 0b38 3A       		.byte	0x3a
 2342 0b39 490B0000 		.4byte	0xb49
ARM GAS  C:\Users\jo\AppData\Local\Temp\cctZeUuD.s 			page 43


 2343 0b3d 01       		.uleb128 0x1
 2344 0b3e 50       		.byte	0x50
 2345 0b3f 2F       		.uleb128 0x2f
 2346 0b40 0A000000 		.4byte	.LVL3
 2347 0b44 D8110000 		.4byte	0x11d8
 2348 0b48 00       		.byte	0
 2349 0b49 0A       		.uleb128 0xa
 2350 0b4a 04       		.byte	0x4
 2351 0b4b BE090000 		.4byte	0x9be
 2352 0b4f 30       		.uleb128 0x30
 2353 0b50 94080000 		.4byte	.LASF175
 2354 0b54 02       		.byte	0x2
 2355 0b55 57       		.byte	0x57
 2356 0b56 00000000 		.4byte	.LFB261
 2357 0b5a 1A000000 		.4byte	.LFE261-.LFB261
 2358 0b5e 01       		.uleb128 0x1
 2359 0b5f 9C       		.byte	0x9c
 2360 0b60 8E0B0000 		.4byte	0xb8e
 2361 0b64 31       		.uleb128 0x31
 2362 0b65 62756600 		.ascii	"buf\000"
 2363 0b69 02       		.byte	0x2
 2364 0b6a 57       		.byte	0x57
 2365 0b6b 490B0000 		.4byte	0xb49
 2366 0b6f 21000000 		.4byte	.LLST1
 2367 0b73 2F       		.uleb128 0x2f
 2368 0b74 0E000000 		.4byte	.LVL6
 2369 0b78 ED110000 		.4byte	0x11ed
 2370 0b7c 32       		.uleb128 0x32
 2371 0b7d 18000000 		.4byte	.LVL8
 2372 0b81 02120000 		.4byte	0x1202
 2373 0b85 2C       		.uleb128 0x2c
 2374 0b86 01       		.uleb128 0x1
 2375 0b87 50       		.byte	0x50
 2376 0b88 03       		.uleb128 0x3
 2377 0b89 F3       		.byte	0xf3
 2378 0b8a 01       		.uleb128 0x1
 2379 0b8b 50       		.byte	0x50
 2380 0b8c 00       		.byte	0
 2381 0b8d 00       		.byte	0
 2382 0b8e 2D       		.uleb128 0x2d
 2383 0b8f C1020000 		.4byte	.LASF173
 2384 0b93 02       		.byte	0x2
 2385 0b94 6B       		.byte	0x6b
 2386 0b95 4E030000 		.4byte	0x34e
 2387 0b99 00000000 		.4byte	.LFB262
 2388 0b9d 78000000 		.4byte	.LFE262-.LFB262
 2389 0ba1 01       		.uleb128 0x1
 2390 0ba2 9C       		.byte	0x9c
 2391 0ba3 AC0C0000 		.4byte	0xcac
 2392 0ba7 31       		.uleb128 0x31
 2393 0ba8 62756600 		.ascii	"buf\000"
 2394 0bac 02       		.byte	0x2
 2395 0bad 6B       		.byte	0x6b
 2396 0bae 490B0000 		.4byte	0xb49
 2397 0bb2 63000000 		.4byte	.LLST2
 2398 0bb6 33       		.uleb128 0x33
 2399 0bb7 D6080000 		.4byte	.LASF174
ARM GAS  C:\Users\jo\AppData\Local\Temp\cctZeUuD.s 			page 44


 2400 0bbb 02       		.byte	0x2
 2401 0bbc 6B       		.byte	0x6b
 2402 0bbd BA080000 		.4byte	0x8ba
 2403 0bc1 97000000 		.4byte	.LLST3
 2404 0bc5 34       		.uleb128 0x34
 2405 0bc6 5D0A0000 		.4byte	0xa5d
 2406 0bca 3E000000 		.4byte	.LBB24
 2407 0bce 0A000000 		.4byte	.LBE24-.LBB24
 2408 0bd2 02       		.byte	0x2
 2409 0bd3 77       		.byte	0x77
 2410 0bd4 F50B0000 		.4byte	0xbf5
 2411 0bd8 27       		.uleb128 0x27
 2412 0bd9 6A0A0000 		.4byte	0xa6a
 2413 0bdd D1000000 		.4byte	.LLST4
 2414 0be1 2B       		.uleb128 0x2b
 2415 0be2 44000000 		.4byte	.LVL15
 2416 0be6 13120000 		.4byte	0x1213
 2417 0bea 2C       		.uleb128 0x2c
 2418 0beb 01       		.uleb128 0x1
 2419 0bec 50       		.byte	0x50
 2420 0bed 05       		.uleb128 0x5
 2421 0bee 03       		.byte	0x3
 2422 0bef 68000000 		.4byte	.LC3
 2423 0bf3 00       		.byte	0
 2424 0bf4 00       		.byte	0
 2425 0bf5 34       		.uleb128 0x34
 2426 0bf6 5D0A0000 		.4byte	0xa5d
 2427 0bfa 58000000 		.4byte	.LBB26
 2428 0bfe 06000000 		.4byte	.LBE26-.LBB26
 2429 0c02 02       		.byte	0x2
 2430 0c03 6D       		.byte	0x6d
 2431 0c04 280C0000 		.4byte	0xc28
 2432 0c08 28       		.uleb128 0x28
 2433 0c09 6A0A0000 		.4byte	0xa6a
 2434 0c0d 06       		.uleb128 0x6
 2435 0c0e 03       		.byte	0x3
 2436 0c0f 28000000 		.4byte	.LC1
 2437 0c13 9F       		.byte	0x9f
 2438 0c14 2B       		.uleb128 0x2b
 2439 0c15 5E000000 		.4byte	.LVL20
 2440 0c19 13120000 		.4byte	0x1213
 2441 0c1d 2C       		.uleb128 0x2c
 2442 0c1e 01       		.uleb128 0x1
 2443 0c1f 50       		.byte	0x50
 2444 0c20 05       		.uleb128 0x5
 2445 0c21 03       		.byte	0x3
 2446 0c22 28000000 		.4byte	.LC1
 2447 0c26 00       		.byte	0
 2448 0c27 00       		.byte	0
 2449 0c28 2F       		.uleb128 0x2f
 2450 0c29 12000000 		.4byte	.LVL11
 2451 0c2d ED110000 		.4byte	0x11ed
 2452 0c31 35       		.uleb128 0x35
 2453 0c32 1C000000 		.4byte	.LVL12
 2454 0c36 25120000 		.4byte	0x1225
 2455 0c3a 4F0C0000 		.4byte	0xc4f
 2456 0c3e 2C       		.uleb128 0x2c
ARM GAS  C:\Users\jo\AppData\Local\Temp\cctZeUuD.s 			page 45


 2457 0c3f 01       		.uleb128 0x1
 2458 0c40 52       		.byte	0x52
 2459 0c41 01       		.uleb128 0x1
 2460 0c42 30       		.byte	0x30
 2461 0c43 2C       		.uleb128 0x2c
 2462 0c44 01       		.uleb128 0x1
 2463 0c45 51       		.byte	0x51
 2464 0c46 02       		.uleb128 0x2
 2465 0c47 75       		.byte	0x75
 2466 0c48 00       		.sleb128 0
 2467 0c49 2C       		.uleb128 0x2c
 2468 0c4a 01       		.uleb128 0x1
 2469 0c4b 50       		.byte	0x50
 2470 0c4c 01       		.uleb128 0x1
 2471 0c4d 30       		.byte	0x30
 2472 0c4e 00       		.byte	0
 2473 0c4f 35       		.uleb128 0x35
 2474 0c50 3E000000 		.4byte	.LVL14
 2475 0c54 BA0A0000 		.4byte	0xaba
 2476 0c58 7F0C0000 		.4byte	0xc7f
 2477 0c5c 2C       		.uleb128 0x2c
 2478 0c5d 01       		.uleb128 0x1
 2479 0c5e 53       		.byte	0x53
 2480 0c5f 02       		.uleb128 0x2
 2481 0c60 08       		.byte	0x8
 2482 0c61 78       		.byte	0x78
 2483 0c62 2C       		.uleb128 0x2c
 2484 0c63 01       		.uleb128 0x1
 2485 0c64 52       		.byte	0x52
 2486 0c65 05       		.uleb128 0x5
 2487 0c66 03       		.byte	0x3
 2488 0c67 68000000 		.4byte	.LC3
 2489 0c6b 2C       		.uleb128 0x2c
 2490 0c6c 01       		.uleb128 0x1
 2491 0c6d 51       		.byte	0x51
 2492 0c6e 05       		.uleb128 0x5
 2493 0c6f 03       		.byte	0x3
 2494 0c70 00000000 		.4byte	.LC0
 2495 0c74 2C       		.uleb128 0x2c
 2496 0c75 02       		.uleb128 0x2
 2497 0c76 7D       		.byte	0x7d
 2498 0c77 00       		.sleb128 0
 2499 0c78 05       		.uleb128 0x5
 2500 0c79 03       		.byte	0x3
 2501 0c7a 44000000 		.4byte	.LC2
 2502 0c7e 00       		.byte	0
 2503 0c7f 2B       		.uleb128 0x2b
 2504 0c80 58000000 		.4byte	.LVL19
 2505 0c84 BA0A0000 		.4byte	0xaba
 2506 0c88 2C       		.uleb128 0x2c
 2507 0c89 01       		.uleb128 0x1
 2508 0c8a 53       		.byte	0x53
 2509 0c8b 02       		.uleb128 0x2
 2510 0c8c 08       		.byte	0x8
 2511 0c8d 6D       		.byte	0x6d
 2512 0c8e 2C       		.uleb128 0x2c
 2513 0c8f 01       		.uleb128 0x1
ARM GAS  C:\Users\jo\AppData\Local\Temp\cctZeUuD.s 			page 46


 2514 0c90 52       		.byte	0x52
 2515 0c91 05       		.uleb128 0x5
 2516 0c92 03       		.byte	0x3
 2517 0c93 28000000 		.4byte	.LC1
 2518 0c97 2C       		.uleb128 0x2c
 2519 0c98 01       		.uleb128 0x1
 2520 0c99 51       		.byte	0x51
 2521 0c9a 05       		.uleb128 0x5
 2522 0c9b 03       		.byte	0x3
 2523 0c9c 00000000 		.4byte	.LC0
 2524 0ca0 2C       		.uleb128 0x2c
 2525 0ca1 02       		.uleb128 0x2
 2526 0ca2 7D       		.byte	0x7d
 2527 0ca3 00       		.sleb128 0
 2528 0ca4 05       		.uleb128 0x5
 2529 0ca5 03       		.byte	0x3
 2530 0ca6 44000000 		.4byte	.LC2
 2531 0caa 00       		.byte	0
 2532 0cab 00       		.byte	0
 2533 0cac 30       		.uleb128 0x30
 2534 0cad 3B020000 		.4byte	.LASF176
 2535 0cb1 02       		.byte	0x2
 2536 0cb2 83       		.byte	0x83
 2537 0cb3 00000000 		.4byte	.LFB263
 2538 0cb7 48000000 		.4byte	.LFE263-.LFB263
 2539 0cbb 01       		.uleb128 0x1
 2540 0cbc 9C       		.byte	0x9c
 2541 0cbd 390D0000 		.4byte	0xd39
 2542 0cc1 31       		.uleb128 0x31
 2543 0cc2 62756600 		.ascii	"buf\000"
 2544 0cc6 02       		.byte	0x2
 2545 0cc7 83       		.byte	0x83
 2546 0cc8 490B0000 		.4byte	0xb49
 2547 0ccc E9000000 		.4byte	.LLST5
 2548 0cd0 36       		.uleb128 0x36
 2549 0cd1 5D0A0000 		.4byte	0xa5d
 2550 0cd5 2A000000 		.4byte	.LBB28
 2551 0cd9 00000000 		.4byte	.Ldebug_ranges0+0
 2552 0cdd 02       		.byte	0x2
 2553 0cde 85       		.byte	0x85
 2554 0cdf 030D0000 		.4byte	0xd03
 2555 0ce3 28       		.uleb128 0x28
 2556 0ce4 6A0A0000 		.4byte	0xa6a
 2557 0ce8 06       		.uleb128 0x6
 2558 0ce9 03       		.byte	0x3
 2559 0cea 8C000000 		.4byte	.LC4
 2560 0cee 9F       		.byte	0x9f
 2561 0cef 32       		.uleb128 0x32
 2562 0cf0 36000000 		.4byte	.LVL28
 2563 0cf4 13120000 		.4byte	0x1213
 2564 0cf8 2C       		.uleb128 0x2c
 2565 0cf9 01       		.uleb128 0x1
 2566 0cfa 50       		.byte	0x50
 2567 0cfb 05       		.uleb128 0x5
 2568 0cfc 03       		.byte	0x3
 2569 0cfd 8C000000 		.4byte	.LC4
 2570 0d01 00       		.byte	0
ARM GAS  C:\Users\jo\AppData\Local\Temp\cctZeUuD.s 			page 47


 2571 0d02 00       		.byte	0
 2572 0d03 2F       		.uleb128 0x2f
 2573 0d04 10000000 		.4byte	.LVL23
 2574 0d08 ED110000 		.4byte	0x11ed
 2575 0d0c 2B       		.uleb128 0x2b
 2576 0d0d 2A000000 		.4byte	.LVL26
 2577 0d11 BA0A0000 		.4byte	0xaba
 2578 0d15 2C       		.uleb128 0x2c
 2579 0d16 01       		.uleb128 0x1
 2580 0d17 53       		.byte	0x53
 2581 0d18 02       		.uleb128 0x2
 2582 0d19 08       		.byte	0x8
 2583 0d1a 85       		.byte	0x85
 2584 0d1b 2C       		.uleb128 0x2c
 2585 0d1c 01       		.uleb128 0x1
 2586 0d1d 52       		.byte	0x52
 2587 0d1e 05       		.uleb128 0x5
 2588 0d1f 03       		.byte	0x3
 2589 0d20 8C000000 		.4byte	.LC4
 2590 0d24 2C       		.uleb128 0x2c
 2591 0d25 01       		.uleb128 0x1
 2592 0d26 51       		.byte	0x51
 2593 0d27 05       		.uleb128 0x5
 2594 0d28 03       		.byte	0x3
 2595 0d29 00000000 		.4byte	.LC0
 2596 0d2d 2C       		.uleb128 0x2c
 2597 0d2e 02       		.uleb128 0x2
 2598 0d2f 7D       		.byte	0x7d
 2599 0d30 00       		.sleb128 0
 2600 0d31 05       		.uleb128 0x5
 2601 0d32 03       		.byte	0x3
 2602 0d33 44000000 		.4byte	.LC2
 2603 0d37 00       		.byte	0
 2604 0d38 00       		.byte	0
 2605 0d39 2D       		.uleb128 0x2d
 2606 0d3a 2A030000 		.4byte	.LASF177
 2607 0d3e 02       		.byte	0x2
 2608 0d3f 96       		.byte	0x96
 2609 0d40 D0080000 		.4byte	0x8d0
 2610 0d44 00000000 		.4byte	.LFB264
 2611 0d48 64000000 		.4byte	.LFE264-.LFB264
 2612 0d4c 01       		.uleb128 0x1
 2613 0d4d 9C       		.byte	0x9c
 2614 0d4e 050E0000 		.4byte	0xe05
 2615 0d52 31       		.uleb128 0x31
 2616 0d53 62756600 		.ascii	"buf\000"
 2617 0d57 02       		.byte	0x2
 2618 0d58 96       		.byte	0x96
 2619 0d59 490B0000 		.4byte	0xb49
 2620 0d5d 2B010000 		.4byte	.LLST6
 2621 0d61 33       		.uleb128 0x33
 2622 0d62 97070000 		.4byte	.LASF178
 2623 0d66 02       		.byte	0x2
 2624 0d67 96       		.byte	0x96
 2625 0d68 560A0000 		.4byte	0xa56
 2626 0d6c 5F010000 		.4byte	.LLST7
 2627 0d70 33       		.uleb128 0x33
ARM GAS  C:\Users\jo\AppData\Local\Temp\cctZeUuD.s 			page 48


 2628 0d71 D6080000 		.4byte	.LASF174
 2629 0d75 02       		.byte	0x2
 2630 0d76 96       		.byte	0x96
 2631 0d77 BA080000 		.4byte	0x8ba
 2632 0d7b AF010000 		.4byte	.LLST8
 2633 0d7f 34       		.uleb128 0x34
 2634 0d80 5D0A0000 		.4byte	0xa5d
 2635 0d84 48000000 		.4byte	.LBB32
 2636 0d88 06000000 		.4byte	.LBE32-.LBB32
 2637 0d8c 02       		.byte	0x2
 2638 0d8d 98       		.byte	0x98
 2639 0d8e B20D0000 		.4byte	0xdb2
 2640 0d92 28       		.uleb128 0x28
 2641 0d93 6A0A0000 		.4byte	0xa6a
 2642 0d97 06       		.uleb128 0x6
 2643 0d98 03       		.byte	0x3
 2644 0d99 A8000000 		.4byte	.LC5
 2645 0d9d 9F       		.byte	0x9f
 2646 0d9e 2B       		.uleb128 0x2b
 2647 0d9f 4E000000 		.4byte	.LVL40
 2648 0da3 13120000 		.4byte	0x1213
 2649 0da7 2C       		.uleb128 0x2c
 2650 0da8 01       		.uleb128 0x1
 2651 0da9 50       		.byte	0x50
 2652 0daa 05       		.uleb128 0x5
 2653 0dab 03       		.byte	0x3
 2654 0dac A8000000 		.4byte	.LC5
 2655 0db0 00       		.byte	0
 2656 0db1 00       		.byte	0
 2657 0db2 2F       		.uleb128 0x2f
 2658 0db3 14000000 		.4byte	.LVL31
 2659 0db7 ED110000 		.4byte	0x11ed
 2660 0dbb 35       		.uleb128 0x35
 2661 0dbc 1E000000 		.4byte	.LVL32
 2662 0dc0 25120000 		.4byte	0x1225
 2663 0dc4 D80D0000 		.4byte	0xdd8
 2664 0dc8 2C       		.uleb128 0x2c
 2665 0dc9 01       		.uleb128 0x1
 2666 0dca 52       		.byte	0x52
 2667 0dcb 01       		.uleb128 0x1
 2668 0dcc 32       		.byte	0x32
 2669 0dcd 2C       		.uleb128 0x2c
 2670 0dce 01       		.uleb128 0x1
 2671 0dcf 51       		.byte	0x51
 2672 0dd0 01       		.uleb128 0x1
 2673 0dd1 30       		.byte	0x30
 2674 0dd2 2C       		.uleb128 0x2c
 2675 0dd3 01       		.uleb128 0x1
 2676 0dd4 50       		.byte	0x50
 2677 0dd5 01       		.uleb128 0x1
 2678 0dd6 30       		.byte	0x30
 2679 0dd7 00       		.byte	0
 2680 0dd8 2B       		.uleb128 0x2b
 2681 0dd9 48000000 		.4byte	.LVL39
 2682 0ddd BA0A0000 		.4byte	0xaba
 2683 0de1 2C       		.uleb128 0x2c
 2684 0de2 01       		.uleb128 0x1
ARM GAS  C:\Users\jo\AppData\Local\Temp\cctZeUuD.s 			page 49


 2685 0de3 53       		.byte	0x53
 2686 0de4 02       		.uleb128 0x2
 2687 0de5 08       		.byte	0x8
 2688 0de6 98       		.byte	0x98
 2689 0de7 2C       		.uleb128 0x2c
 2690 0de8 01       		.uleb128 0x1
 2691 0de9 52       		.byte	0x52
 2692 0dea 05       		.uleb128 0x5
 2693 0deb 03       		.byte	0x3
 2694 0dec A8000000 		.4byte	.LC5
 2695 0df0 2C       		.uleb128 0x2c
 2696 0df1 01       		.uleb128 0x1
 2697 0df2 51       		.byte	0x51
 2698 0df3 05       		.uleb128 0x5
 2699 0df4 03       		.byte	0x3
 2700 0df5 00000000 		.4byte	.LC0
 2701 0df9 2C       		.uleb128 0x2c
 2702 0dfa 02       		.uleb128 0x2
 2703 0dfb 7D       		.byte	0x7d
 2704 0dfc 00       		.sleb128 0
 2705 0dfd 05       		.uleb128 0x5
 2706 0dfe 03       		.byte	0x3
 2707 0dff 44000000 		.4byte	.LC2
 2708 0e03 00       		.byte	0
 2709 0e04 00       		.byte	0
 2710 0e05 30       		.uleb128 0x30
 2711 0e06 F5010000 		.4byte	.LASF179
 2712 0e0a 02       		.byte	0x2
 2713 0e0b AE       		.byte	0xae
 2714 0e0c 00000000 		.4byte	.LFB265
 2715 0e10 68000000 		.4byte	.LFE265-.LFB265
 2716 0e14 01       		.uleb128 0x1
 2717 0e15 9C       		.byte	0x9c
 2718 0e16 F90E0000 		.4byte	0xef9
 2719 0e1a 33       		.uleb128 0x33
 2720 0e1b 02020000 		.4byte	.LASF180
 2721 0e1f 02       		.byte	0x2
 2722 0e20 AE       		.byte	0xae
 2723 0e21 490B0000 		.4byte	0xb49
 2724 0e25 E9010000 		.4byte	.LLST9
 2725 0e29 33       		.uleb128 0x33
 2726 0e2a 28050000 		.4byte	.LASF181
 2727 0e2e 02       		.byte	0x2
 2728 0e2f AE       		.byte	0xae
 2729 0e30 490B0000 		.4byte	0xb49
 2730 0e34 4F020000 		.4byte	.LLST10
 2731 0e38 36       		.uleb128 0x36
 2732 0e39 5D0A0000 		.4byte	0xa5d
 2733 0e3d 34000000 		.4byte	.LBB34
 2734 0e41 18000000 		.4byte	.Ldebug_ranges0+0x18
 2735 0e45 02       		.byte	0x2
 2736 0e46 B1       		.byte	0xb1
 2737 0e47 5E0E0000 		.4byte	0xe5e
 2738 0e4b 27       		.uleb128 0x27
 2739 0e4c 6A0A0000 		.4byte	0xa6a
 2740 0e50 C3020000 		.4byte	.LLST11
 2741 0e54 37       		.uleb128 0x37
ARM GAS  C:\Users\jo\AppData\Local\Temp\cctZeUuD.s 			page 50


 2742 0e55 40000000 		.4byte	.LVL52
 2743 0e59 13120000 		.4byte	0x1213
 2744 0e5d 00       		.byte	0
 2745 0e5e 34       		.uleb128 0x34
 2746 0e5f 5D0A0000 		.4byte	0xa5d
 2747 0e63 50000000 		.4byte	.LBB38
 2748 0e67 18000000 		.4byte	.LBE38-.LBB38
 2749 0e6b 02       		.byte	0x2
 2750 0e6c B0       		.byte	0xb0
 2751 0e6d 7E0E0000 		.4byte	0xe7e
 2752 0e71 28       		.uleb128 0x28
 2753 0e72 6A0A0000 		.4byte	0xa6a
 2754 0e76 06       		.uleb128 0x6
 2755 0e77 03       		.byte	0x3
 2756 0e78 C0000000 		.4byte	.LC6
 2757 0e7c 9F       		.byte	0x9f
 2758 0e7d 00       		.byte	0
 2759 0e7e 2F       		.uleb128 0x2f
 2760 0e7f 14000000 		.4byte	.LVL44
 2761 0e83 44120000 		.4byte	0x1244
 2762 0e87 38       		.uleb128 0x38
 2763 0e88 24000000 		.4byte	.LVL46
 2764 0e8c 02120000 		.4byte	0x1202
 2765 0e90 9C0E0000 		.4byte	0xe9c
 2766 0e94 2C       		.uleb128 0x2c
 2767 0e95 01       		.uleb128 0x1
 2768 0e96 50       		.byte	0x50
 2769 0e97 03       		.uleb128 0x3
 2770 0e98 F3       		.byte	0xf3
 2771 0e99 01       		.uleb128 0x1
 2772 0e9a 51       		.byte	0x51
 2773 0e9b 00       		.byte	0
 2774 0e9c 35       		.uleb128 0x35
 2775 0e9d 34000000 		.4byte	.LVL49
 2776 0ea1 BA0A0000 		.4byte	0xaba
 2777 0ea5 CC0E0000 		.4byte	0xecc
 2778 0ea9 2C       		.uleb128 0x2c
 2779 0eaa 01       		.uleb128 0x1
 2780 0eab 53       		.byte	0x53
 2781 0eac 02       		.uleb128 0x2
 2782 0ead 08       		.byte	0x8
 2783 0eae B1       		.byte	0xb1
 2784 0eaf 2C       		.uleb128 0x2c
 2785 0eb0 01       		.uleb128 0x1
 2786 0eb1 52       		.byte	0x52
 2787 0eb2 05       		.uleb128 0x5
 2788 0eb3 03       		.byte	0x3
 2789 0eb4 DC000000 		.4byte	.LC7
 2790 0eb8 2C       		.uleb128 0x2c
 2791 0eb9 01       		.uleb128 0x1
 2792 0eba 51       		.byte	0x51
 2793 0ebb 05       		.uleb128 0x5
 2794 0ebc 03       		.byte	0x3
 2795 0ebd 00000000 		.4byte	.LC0
 2796 0ec1 2C       		.uleb128 0x2c
 2797 0ec2 02       		.uleb128 0x2
 2798 0ec3 7D       		.byte	0x7d
ARM GAS  C:\Users\jo\AppData\Local\Temp\cctZeUuD.s 			page 51


 2799 0ec4 00       		.sleb128 0
 2800 0ec5 05       		.uleb128 0x5
 2801 0ec6 03       		.byte	0x3
 2802 0ec7 44000000 		.4byte	.LC2
 2803 0ecb 00       		.byte	0
 2804 0ecc 2B       		.uleb128 0x2b
 2805 0ecd 50000000 		.4byte	.LVL55
 2806 0ed1 BA0A0000 		.4byte	0xaba
 2807 0ed5 2C       		.uleb128 0x2c
 2808 0ed6 01       		.uleb128 0x1
 2809 0ed7 53       		.byte	0x53
 2810 0ed8 02       		.uleb128 0x2
 2811 0ed9 08       		.byte	0x8
 2812 0eda B0       		.byte	0xb0
 2813 0edb 2C       		.uleb128 0x2c
 2814 0edc 01       		.uleb128 0x1
 2815 0edd 52       		.byte	0x52
 2816 0ede 05       		.uleb128 0x5
 2817 0edf 03       		.byte	0x3
 2818 0ee0 C0000000 		.4byte	.LC6
 2819 0ee4 2C       		.uleb128 0x2c
 2820 0ee5 01       		.uleb128 0x1
 2821 0ee6 51       		.byte	0x51
 2822 0ee7 05       		.uleb128 0x5
 2823 0ee8 03       		.byte	0x3
 2824 0ee9 00000000 		.4byte	.LC0
 2825 0eed 2C       		.uleb128 0x2c
 2826 0eee 02       		.uleb128 0x2
 2827 0eef 7D       		.byte	0x7d
 2828 0ef0 00       		.sleb128 0
 2829 0ef1 05       		.uleb128 0x5
 2830 0ef2 03       		.byte	0x3
 2831 0ef3 44000000 		.4byte	.LC2
 2832 0ef7 00       		.byte	0
 2833 0ef8 00       		.byte	0
 2834 0ef9 2D       		.uleb128 0x2d
 2835 0efa 78080000 		.4byte	.LASF182
 2836 0efe 02       		.byte	0x2
 2837 0eff C1       		.byte	0xc1
 2838 0f00 D0080000 		.4byte	0x8d0
 2839 0f04 00000000 		.4byte	.LFB266
 2840 0f08 8C000000 		.4byte	.LFE266-.LFB266
 2841 0f0c 01       		.uleb128 0x1
 2842 0f0d 9C       		.byte	0x9c
 2843 0f0e 5F100000 		.4byte	0x105f
 2844 0f12 31       		.uleb128 0x31
 2845 0f13 62756600 		.ascii	"buf\000"
 2846 0f17 02       		.byte	0x2
 2847 0f18 C1       		.byte	0xc1
 2848 0f19 490B0000 		.4byte	0xb49
 2849 0f1d DB020000 		.4byte	.LLST12
 2850 0f21 33       		.uleb128 0x33
 2851 0f22 97070000 		.4byte	.LASF178
 2852 0f26 02       		.byte	0x2
 2853 0f27 C1       		.byte	0xc1
 2854 0f28 5F100000 		.4byte	0x105f
 2855 0f2c 60030000 		.4byte	.LLST13
ARM GAS  C:\Users\jo\AppData\Local\Temp\cctZeUuD.s 			page 52


 2856 0f30 31       		.uleb128 0x31
 2857 0f31 6C656E00 		.ascii	"len\000"
 2858 0f35 02       		.byte	0x2
 2859 0f36 C1       		.byte	0xc1
 2860 0f37 65100000 		.4byte	0x1065
 2861 0f3b CC030000 		.4byte	.LLST14
 2862 0f3f 34       		.uleb128 0x34
 2863 0f40 5D0A0000 		.4byte	0xa5d
 2864 0f44 36000000 		.4byte	.LBB40
 2865 0f48 06000000 		.4byte	.LBE40-.LBB40
 2866 0f4c 02       		.byte	0x2
 2867 0f4d C5       		.byte	0xc5
 2868 0f4e 6F0F0000 		.4byte	0xf6f
 2869 0f52 27       		.uleb128 0x27
 2870 0f53 6A0A0000 		.4byte	0xa6a
 2871 0f57 38040000 		.4byte	.LLST15
 2872 0f5b 2B       		.uleb128 0x2b
 2873 0f5c 3C000000 		.4byte	.LVL65
 2874 0f60 13120000 		.4byte	0x1213
 2875 0f64 2C       		.uleb128 0x2c
 2876 0f65 01       		.uleb128 0x1
 2877 0f66 50       		.byte	0x50
 2878 0f67 05       		.uleb128 0x5
 2879 0f68 03       		.byte	0x3
 2880 0f69 34010000 		.4byte	.LC10
 2881 0f6d 00       		.byte	0
 2882 0f6e 00       		.byte	0
 2883 0f6f 34       		.uleb128 0x34
 2884 0f70 5D0A0000 		.4byte	0xa5d
 2885 0f74 50000000 		.4byte	.LBB42
 2886 0f78 06000000 		.4byte	.LBE42-.LBB42
 2887 0f7c 02       		.byte	0x2
 2888 0f7d C4       		.byte	0xc4
 2889 0f7e 9F0F0000 		.4byte	0xf9f
 2890 0f82 27       		.uleb128 0x27
 2891 0f83 6A0A0000 		.4byte	0xa6a
 2892 0f87 50040000 		.4byte	.LLST16
 2893 0f8b 2B       		.uleb128 0x2b
 2894 0f8c 56000000 		.4byte	.LVL71
 2895 0f90 13120000 		.4byte	0x1213
 2896 0f94 2C       		.uleb128 0x2c
 2897 0f95 01       		.uleb128 0x1
 2898 0f96 50       		.byte	0x50
 2899 0f97 05       		.uleb128 0x5
 2900 0f98 03       		.byte	0x3
 2901 0f99 14010000 		.4byte	.LC9
 2902 0f9d 00       		.byte	0
 2903 0f9e 00       		.byte	0
 2904 0f9f 34       		.uleb128 0x34
 2905 0fa0 5D0A0000 		.4byte	0xa5d
 2906 0fa4 6A000000 		.4byte	.LBB44
 2907 0fa8 06000000 		.4byte	.LBE44-.LBB44
 2908 0fac 02       		.byte	0x2
 2909 0fad C3       		.byte	0xc3
 2910 0fae D20F0000 		.4byte	0xfd2
 2911 0fb2 28       		.uleb128 0x28
 2912 0fb3 6A0A0000 		.4byte	0xa6a
ARM GAS  C:\Users\jo\AppData\Local\Temp\cctZeUuD.s 			page 53


 2913 0fb7 06       		.uleb128 0x6
 2914 0fb8 03       		.byte	0x3
 2915 0fb9 F8000000 		.4byte	.LC8
 2916 0fbd 9F       		.byte	0x9f
 2917 0fbe 2B       		.uleb128 0x2b
 2918 0fbf 70000000 		.4byte	.LVL77
 2919 0fc3 13120000 		.4byte	0x1213
 2920 0fc7 2C       		.uleb128 0x2c
 2921 0fc8 01       		.uleb128 0x1
 2922 0fc9 50       		.byte	0x50
 2923 0fca 05       		.uleb128 0x5
 2924 0fcb 03       		.byte	0x3
 2925 0fcc F8000000 		.4byte	.LC8
 2926 0fd0 00       		.byte	0
 2927 0fd1 00       		.byte	0
 2928 0fd2 35       		.uleb128 0x35
 2929 0fd3 36000000 		.4byte	.LVL64
 2930 0fd7 BA0A0000 		.4byte	0xaba
 2931 0fdb 02100000 		.4byte	0x1002
 2932 0fdf 2C       		.uleb128 0x2c
 2933 0fe0 01       		.uleb128 0x1
 2934 0fe1 53       		.byte	0x53
 2935 0fe2 02       		.uleb128 0x2
 2936 0fe3 08       		.byte	0x8
 2937 0fe4 C5       		.byte	0xc5
 2938 0fe5 2C       		.uleb128 0x2c
 2939 0fe6 01       		.uleb128 0x1
 2940 0fe7 52       		.byte	0x52
 2941 0fe8 05       		.uleb128 0x5
 2942 0fe9 03       		.byte	0x3
 2943 0fea 34010000 		.4byte	.LC10
 2944 0fee 2C       		.uleb128 0x2c
 2945 0fef 01       		.uleb128 0x1
 2946 0ff0 51       		.byte	0x51
 2947 0ff1 05       		.uleb128 0x5
 2948 0ff2 03       		.byte	0x3
 2949 0ff3 00000000 		.4byte	.LC0
 2950 0ff7 2C       		.uleb128 0x2c
 2951 0ff8 02       		.uleb128 0x2
 2952 0ff9 7D       		.byte	0x7d
 2953 0ffa 00       		.sleb128 0
 2954 0ffb 05       		.uleb128 0x5
 2955 0ffc 03       		.byte	0x3
 2956 0ffd 44000000 		.4byte	.LC2
 2957 1001 00       		.byte	0
 2958 1002 35       		.uleb128 0x35
 2959 1003 50000000 		.4byte	.LVL70
 2960 1007 BA0A0000 		.4byte	0xaba
 2961 100b 32100000 		.4byte	0x1032
 2962 100f 2C       		.uleb128 0x2c
 2963 1010 01       		.uleb128 0x1
 2964 1011 53       		.byte	0x53
 2965 1012 02       		.uleb128 0x2
 2966 1013 08       		.byte	0x8
 2967 1014 C4       		.byte	0xc4
 2968 1015 2C       		.uleb128 0x2c
 2969 1016 01       		.uleb128 0x1
ARM GAS  C:\Users\jo\AppData\Local\Temp\cctZeUuD.s 			page 54


 2970 1017 52       		.byte	0x52
 2971 1018 05       		.uleb128 0x5
 2972 1019 03       		.byte	0x3
 2973 101a 14010000 		.4byte	.LC9
 2974 101e 2C       		.uleb128 0x2c
 2975 101f 01       		.uleb128 0x1
 2976 1020 51       		.byte	0x51
 2977 1021 05       		.uleb128 0x5
 2978 1022 03       		.byte	0x3
 2979 1023 00000000 		.4byte	.LC0
 2980 1027 2C       		.uleb128 0x2c
 2981 1028 02       		.uleb128 0x2
 2982 1029 7D       		.byte	0x7d
 2983 102a 00       		.sleb128 0
 2984 102b 05       		.uleb128 0x5
 2985 102c 03       		.byte	0x3
 2986 102d 44000000 		.4byte	.LC2
 2987 1031 00       		.byte	0
 2988 1032 2B       		.uleb128 0x2b
 2989 1033 6A000000 		.4byte	.LVL76
 2990 1037 BA0A0000 		.4byte	0xaba
 2991 103b 2C       		.uleb128 0x2c
 2992 103c 01       		.uleb128 0x1
 2993 103d 53       		.byte	0x53
 2994 103e 02       		.uleb128 0x2
 2995 103f 08       		.byte	0x8
 2996 1040 C3       		.byte	0xc3
 2997 1041 2C       		.uleb128 0x2c
 2998 1042 01       		.uleb128 0x1
 2999 1043 52       		.byte	0x52
 3000 1044 05       		.uleb128 0x5
 3001 1045 03       		.byte	0x3
 3002 1046 F8000000 		.4byte	.LC8
 3003 104a 2C       		.uleb128 0x2c
 3004 104b 01       		.uleb128 0x1
 3005 104c 51       		.byte	0x51
 3006 104d 05       		.uleb128 0x5
 3007 104e 03       		.byte	0x3
 3008 104f 00000000 		.4byte	.LC0
 3009 1053 2C       		.uleb128 0x2c
 3010 1054 02       		.uleb128 0x2
 3011 1055 7D       		.byte	0x7d
 3012 1056 00       		.sleb128 0
 3013 1057 05       		.uleb128 0x5
 3014 1058 03       		.byte	0x3
 3015 1059 44000000 		.4byte	.LC2
 3016 105d 00       		.byte	0
 3017 105e 00       		.byte	0
 3018 105f 0A       		.uleb128 0xa
 3019 1060 04       		.byte	0x4
 3020 1061 4E030000 		.4byte	0x34e
 3021 1065 0A       		.uleb128 0xa
 3022 1066 04       		.byte	0x4
 3023 1067 BA080000 		.4byte	0x8ba
 3024 106b 2D       		.uleb128 0x2d
 3025 106c 60030000 		.4byte	.LASF183
 3026 1070 02       		.byte	0x2
ARM GAS  C:\Users\jo\AppData\Local\Temp\cctZeUuD.s 			page 55


 3027 1071 DA       		.byte	0xda
 3028 1072 AF080000 		.4byte	0x8af
 3029 1076 00000000 		.4byte	.LFB267
 3030 107a 50000000 		.4byte	.LFE267-.LFB267
 3031 107e 01       		.uleb128 0x1
 3032 107f 9C       		.byte	0x9c
 3033 1080 F3100000 		.4byte	0x10f3
 3034 1084 31       		.uleb128 0x31
 3035 1085 62756600 		.ascii	"buf\000"
 3036 1089 02       		.byte	0x2
 3037 108a DA       		.byte	0xda
 3038 108b 490B0000 		.4byte	0xb49
 3039 108f 68040000 		.4byte	.LLST17
 3040 1093 34       		.uleb128 0x34
 3041 1094 5D0A0000 		.4byte	0xa5d
 3042 1098 2E000000 		.4byte	.LBB46
 3043 109c 06000000 		.4byte	.LBE46-.LBB46
 3044 10a0 02       		.byte	0x2
 3045 10a1 DC       		.byte	0xdc
 3046 10a2 C6100000 		.4byte	0x10c6
 3047 10a6 28       		.uleb128 0x28
 3048 10a7 6A0A0000 		.4byte	0xa6a
 3049 10ab 06       		.uleb128 0x6
 3050 10ac 03       		.byte	0x3
 3051 10ad 8C000000 		.4byte	.LC4
 3052 10b1 9F       		.byte	0x9f
 3053 10b2 2B       		.uleb128 0x2b
 3054 10b3 34000000 		.4byte	.LVL85
 3055 10b7 13120000 		.4byte	0x1213
 3056 10bb 2C       		.uleb128 0x2c
 3057 10bc 01       		.uleb128 0x1
 3058 10bd 50       		.byte	0x50
 3059 10be 05       		.uleb128 0x5
 3060 10bf 03       		.byte	0x3
 3061 10c0 8C000000 		.4byte	.LC4
 3062 10c4 00       		.byte	0
 3063 10c5 00       		.byte	0
 3064 10c6 2B       		.uleb128 0x2b
 3065 10c7 2E000000 		.4byte	.LVL84
 3066 10cb BA0A0000 		.4byte	0xaba
 3067 10cf 2C       		.uleb128 0x2c
 3068 10d0 01       		.uleb128 0x1
 3069 10d1 53       		.byte	0x53
 3070 10d2 02       		.uleb128 0x2
 3071 10d3 08       		.byte	0x8
 3072 10d4 DC       		.byte	0xdc
 3073 10d5 2C       		.uleb128 0x2c
 3074 10d6 01       		.uleb128 0x1
 3075 10d7 52       		.byte	0x52
 3076 10d8 05       		.uleb128 0x5
 3077 10d9 03       		.byte	0x3
 3078 10da 8C000000 		.4byte	.LC4
 3079 10de 2C       		.uleb128 0x2c
 3080 10df 01       		.uleb128 0x1
 3081 10e0 51       		.byte	0x51
 3082 10e1 05       		.uleb128 0x5
 3083 10e2 03       		.byte	0x3
ARM GAS  C:\Users\jo\AppData\Local\Temp\cctZeUuD.s 			page 56


 3084 10e3 00000000 		.4byte	.LC0
 3085 10e7 2C       		.uleb128 0x2c
 3086 10e8 02       		.uleb128 0x2
 3087 10e9 7D       		.byte	0x7d
 3088 10ea 00       		.sleb128 0
 3089 10eb 05       		.uleb128 0x5
 3090 10ec 03       		.byte	0x3
 3091 10ed 44000000 		.4byte	.LC2
 3092 10f1 00       		.byte	0
 3093 10f2 00       		.byte	0
 3094 10f3 30       		.uleb128 0x30
 3095 10f4 2E020000 		.4byte	.LASF184
 3096 10f8 02       		.byte	0x2
 3097 10f9 EF       		.byte	0xef
 3098 10fa 00000000 		.4byte	.LFB268
 3099 10fe 38000000 		.4byte	.LFE268-.LFB268
 3100 1102 01       		.uleb128 0x1
 3101 1103 9C       		.byte	0x9c
 3102 1104 77110000 		.4byte	0x1177
 3103 1108 31       		.uleb128 0x31
 3104 1109 62756600 		.ascii	"buf\000"
 3105 110d 02       		.byte	0x2
 3106 110e EF       		.byte	0xef
 3107 110f 490B0000 		.4byte	0xb49
 3108 1113 BB040000 		.4byte	.LLST18
 3109 1117 36       		.uleb128 0x36
 3110 1118 5D0A0000 		.4byte	0xa5d
 3111 111c 1C000000 		.4byte	.LBB48
 3112 1120 30000000 		.4byte	.Ldebug_ranges0+0x30
 3113 1124 02       		.byte	0x2
 3114 1125 F1       		.byte	0xf1
 3115 1126 4A110000 		.4byte	0x114a
 3116 112a 28       		.uleb128 0x28
 3117 112b 6A0A0000 		.4byte	0xa6a
 3118 112f 06       		.uleb128 0x6
 3119 1130 03       		.byte	0x3
 3120 1131 8C000000 		.4byte	.LC4
 3121 1135 9F       		.byte	0x9f
 3122 1136 32       		.uleb128 0x32
 3123 1137 28000000 		.4byte	.LVL89
 3124 113b 13120000 		.4byte	0x1213
 3125 113f 2C       		.uleb128 0x2c
 3126 1140 01       		.uleb128 0x1
 3127 1141 50       		.byte	0x50
 3128 1142 05       		.uleb128 0x5
 3129 1143 03       		.byte	0x3
 3130 1144 8C000000 		.4byte	.LC4
 3131 1148 00       		.byte	0
 3132 1149 00       		.byte	0
 3133 114a 2B       		.uleb128 0x2b
 3134 114b 1C000000 		.4byte	.LVL88
 3135 114f BA0A0000 		.4byte	0xaba
 3136 1153 2C       		.uleb128 0x2c
 3137 1154 01       		.uleb128 0x1
 3138 1155 53       		.byte	0x53
 3139 1156 02       		.uleb128 0x2
 3140 1157 08       		.byte	0x8
ARM GAS  C:\Users\jo\AppData\Local\Temp\cctZeUuD.s 			page 57


 3141 1158 F1       		.byte	0xf1
 3142 1159 2C       		.uleb128 0x2c
 3143 115a 01       		.uleb128 0x1
 3144 115b 52       		.byte	0x52
 3145 115c 05       		.uleb128 0x5
 3146 115d 03       		.byte	0x3
 3147 115e 8C000000 		.4byte	.LC4
 3148 1162 2C       		.uleb128 0x2c
 3149 1163 01       		.uleb128 0x1
 3150 1164 51       		.byte	0x51
 3151 1165 05       		.uleb128 0x5
 3152 1166 03       		.byte	0x3
 3153 1167 00000000 		.4byte	.LC0
 3154 116b 2C       		.uleb128 0x2c
 3155 116c 02       		.uleb128 0x2
 3156 116d 7D       		.byte	0x7d
 3157 116e 00       		.sleb128 0
 3158 116f 05       		.uleb128 0x5
 3159 1170 03       		.byte	0x3
 3160 1171 44000000 		.4byte	.LC2
 3161 1175 00       		.byte	0
 3162 1176 00       		.byte	0
 3163 1177 39       		.uleb128 0x39
 3164 1178 F7000000 		.4byte	.LASF185
 3165 117c 1A       		.byte	0x1a
 3166 117d A706     		.2byte	0x6a7
 3167 117f FA000000 		.4byte	0xfa
 3168 1183 3A       		.uleb128 0x3a
 3169 1184 636800   		.ascii	"ch\000"
 3170 1187 09       		.byte	0x9
 3171 1188 0902     		.2byte	0x209
 3172 118a 45040000 		.4byte	0x445
 3173 118e 3B       		.uleb128 0x3b
 3174 118f 6F080000 		.4byte	.LASF186
 3175 1193 14       		.byte	0x14
 3176 1194 3D       		.byte	0x3d
 3177 1195 6C080000 		.4byte	0x86c
 3178 1199 15       		.uleb128 0x15
 3179 119a BA080000 		.4byte	0x8ba
 3180 119e A9110000 		.4byte	0x11a9
 3181 11a2 16       		.uleb128 0x16
 3182 11a3 AF040000 		.4byte	0x4af
 3183 11a7 0C       		.byte	0xc
 3184 11a8 00       		.byte	0
 3185 11a9 3B       		.uleb128 0x3b
 3186 11aa 25080000 		.4byte	.LASF187
 3187 11ae 19       		.byte	0x19
 3188 11af 4F       		.byte	0x4f
 3189 11b0 B4110000 		.4byte	0x11b4
 3190 11b4 19       		.uleb128 0x19
 3191 11b5 99110000 		.4byte	0x1199
 3192 11b9 3C       		.uleb128 0x3c
 3193 11ba BF080000 		.4byte	.LASF188
 3194 11be 01       		.byte	0x1
 3195 11bf 28       		.byte	0x28
 3196 11c0 25000000 		.4byte	0x25
 3197 11c4 D8110000 		.4byte	0x11d8
ARM GAS  C:\Users\jo\AppData\Local\Temp\cctZeUuD.s 			page 58


 3198 11c8 0D       		.uleb128 0xd
 3199 11c9 B40A0000 		.4byte	0xab4
 3200 11cd 0D       		.uleb128 0xd
 3201 11ce DE060000 		.4byte	0x6de
 3202 11d2 0D       		.uleb128 0xd
 3203 11d3 99080000 		.4byte	0x899
 3204 11d7 00       		.byte	0
 3205 11d8 3C       		.uleb128 0x3c
 3206 11d9 D1060000 		.4byte	.LASF189
 3207 11dd 1B       		.byte	0x1b
 3208 11de 60       		.byte	0x60
 3209 11df 4E030000 		.4byte	0x34e
 3210 11e3 ED110000 		.4byte	0x11ed
 3211 11e7 0D       		.uleb128 0xd
 3212 11e8 2C000000 		.4byte	0x2c
 3213 11ec 00       		.byte	0
 3214 11ed 3C       		.uleb128 0x3c
 3215 11ee BF060000 		.4byte	.LASF190
 3216 11f2 16       		.byte	0x16
 3217 11f3 9B       		.byte	0x9b
 3218 11f4 A4080000 		.4byte	0x8a4
 3219 11f8 02120000 		.4byte	0x1202
 3220 11fc 0D       		.uleb128 0xd
 3221 11fd 94090000 		.4byte	0x994
 3222 1201 00       		.byte	0
 3223 1202 3D       		.uleb128 0x3d
 3224 1203 04010000 		.4byte	.LASF191
 3225 1207 1B       		.byte	0x1b
 3226 1208 55       		.byte	0x55
 3227 1209 13120000 		.4byte	0x1213
 3228 120d 0D       		.uleb128 0xd
 3229 120e 4E030000 		.4byte	0x34e
 3230 1212 00       		.byte	0
 3231 1213 3E       		.uleb128 0x3e
 3232 1214 63000000 		.4byte	.LASF192
 3233 1218 1C       		.byte	0x1c
 3234 1219 1601     		.2byte	0x116
 3235 121b 25120000 		.4byte	0x1225
 3236 121f 0D       		.uleb128 0xd
 3237 1220 DE060000 		.4byte	0x6de
 3238 1224 00       		.byte	0
 3239 1225 3C       		.uleb128 0x3c
 3240 1226 09080000 		.4byte	.LASF193
 3241 122a 16       		.byte	0x16
 3242 122b 92       		.byte	0x92
 3243 122c 94090000 		.4byte	0x994
 3244 1230 44120000 		.4byte	0x1244
 3245 1234 0D       		.uleb128 0xd
 3246 1235 FC080000 		.4byte	0x8fc
 3247 1239 0D       		.uleb128 0xd
 3248 123a BA080000 		.4byte	0x8ba
 3249 123e 0D       		.uleb128 0xd
 3250 123f 28090000 		.4byte	0x928
 3251 1243 00       		.byte	0
 3252 1244 3F       		.uleb128 0x3f
 3253 1245 D3050000 		.4byte	.LASF199
 3254 1249 16       		.byte	0x16
ARM GAS  C:\Users\jo\AppData\Local\Temp\cctZeUuD.s 			page 59


 3255 124a 9D       		.byte	0x9d
 3256 124b 0D       		.uleb128 0xd
 3257 124c 94090000 		.4byte	0x994
 3258 1250 0D       		.uleb128 0xd
 3259 1251 94090000 		.4byte	0x994
 3260 1255 00       		.byte	0
 3261 1256 00       		.byte	0
 3262              		.section	.debug_abbrev,"",%progbits
 3263              	.Ldebug_abbrev0:
 3264 0000 01       		.uleb128 0x1
 3265 0001 11       		.uleb128 0x11
 3266 0002 01       		.byte	0x1
 3267 0003 25       		.uleb128 0x25
 3268 0004 0E       		.uleb128 0xe
 3269 0005 13       		.uleb128 0x13
 3270 0006 0B       		.uleb128 0xb
 3271 0007 03       		.uleb128 0x3
 3272 0008 0E       		.uleb128 0xe
 3273 0009 1B       		.uleb128 0x1b
 3274 000a 0E       		.uleb128 0xe
 3275 000b 55       		.uleb128 0x55
 3276 000c 17       		.uleb128 0x17
 3277 000d 11       		.uleb128 0x11
 3278 000e 01       		.uleb128 0x1
 3279 000f 10       		.uleb128 0x10
 3280 0010 17       		.uleb128 0x17
 3281 0011 00       		.byte	0
 3282 0012 00       		.byte	0
 3283 0013 02       		.uleb128 0x2
 3284 0014 24       		.uleb128 0x24
 3285 0015 00       		.byte	0
 3286 0016 0B       		.uleb128 0xb
 3287 0017 0B       		.uleb128 0xb
 3288 0018 3E       		.uleb128 0x3e
 3289 0019 0B       		.uleb128 0xb
 3290 001a 03       		.uleb128 0x3
 3291 001b 08       		.uleb128 0x8
 3292 001c 00       		.byte	0
 3293 001d 00       		.byte	0
 3294 001e 03       		.uleb128 0x3
 3295 001f 16       		.uleb128 0x16
 3296 0020 00       		.byte	0
 3297 0021 03       		.uleb128 0x3
 3298 0022 0E       		.uleb128 0xe
 3299 0023 3A       		.uleb128 0x3a
 3300 0024 0B       		.uleb128 0xb
 3301 0025 3B       		.uleb128 0x3b
 3302 0026 0B       		.uleb128 0xb
 3303 0027 49       		.uleb128 0x49
 3304 0028 13       		.uleb128 0x13
 3305 0029 00       		.byte	0
 3306 002a 00       		.byte	0
 3307 002b 04       		.uleb128 0x4
 3308 002c 24       		.uleb128 0x24
 3309 002d 00       		.byte	0
 3310 002e 0B       		.uleb128 0xb
 3311 002f 0B       		.uleb128 0xb
ARM GAS  C:\Users\jo\AppData\Local\Temp\cctZeUuD.s 			page 60


 3312 0030 3E       		.uleb128 0x3e
 3313 0031 0B       		.uleb128 0xb
 3314 0032 03       		.uleb128 0x3
 3315 0033 0E       		.uleb128 0xe
 3316 0034 00       		.byte	0
 3317 0035 00       		.byte	0
 3318 0036 05       		.uleb128 0x5
 3319 0037 35       		.uleb128 0x35
 3320 0038 00       		.byte	0
 3321 0039 49       		.uleb128 0x49
 3322 003a 13       		.uleb128 0x13
 3323 003b 00       		.byte	0
 3324 003c 00       		.byte	0
 3325 003d 06       		.uleb128 0x6
 3326 003e 13       		.uleb128 0x13
 3327 003f 01       		.byte	0x1
 3328 0040 03       		.uleb128 0x3
 3329 0041 0E       		.uleb128 0xe
 3330 0042 0B       		.uleb128 0xb
 3331 0043 0B       		.uleb128 0xb
 3332 0044 3A       		.uleb128 0x3a
 3333 0045 0B       		.uleb128 0xb
 3334 0046 3B       		.uleb128 0x3b
 3335 0047 0B       		.uleb128 0xb
 3336 0048 01       		.uleb128 0x1
 3337 0049 13       		.uleb128 0x13
 3338 004a 00       		.byte	0
 3339 004b 00       		.byte	0
 3340 004c 07       		.uleb128 0x7
 3341 004d 0D       		.uleb128 0xd
 3342 004e 00       		.byte	0
 3343 004f 03       		.uleb128 0x3
 3344 0050 0E       		.uleb128 0xe
 3345 0051 3A       		.uleb128 0x3a
 3346 0052 0B       		.uleb128 0xb
 3347 0053 3B       		.uleb128 0x3b
 3348 0054 0B       		.uleb128 0xb
 3349 0055 49       		.uleb128 0x49
 3350 0056 13       		.uleb128 0x13
 3351 0057 38       		.uleb128 0x38
 3352 0058 0B       		.uleb128 0xb
 3353 0059 00       		.byte	0
 3354 005a 00       		.byte	0
 3355 005b 08       		.uleb128 0x8
 3356 005c 0D       		.uleb128 0xd
 3357 005d 00       		.byte	0
 3358 005e 03       		.uleb128 0x3
 3359 005f 08       		.uleb128 0x8
 3360 0060 3A       		.uleb128 0x3a
 3361 0061 0B       		.uleb128 0xb
 3362 0062 3B       		.uleb128 0x3b
 3363 0063 05       		.uleb128 0x5
 3364 0064 49       		.uleb128 0x49
 3365 0065 13       		.uleb128 0x13
 3366 0066 38       		.uleb128 0x38
 3367 0067 0B       		.uleb128 0xb
 3368 0068 00       		.byte	0
ARM GAS  C:\Users\jo\AppData\Local\Temp\cctZeUuD.s 			page 61


 3369 0069 00       		.byte	0
 3370 006a 09       		.uleb128 0x9
 3371 006b 0D       		.uleb128 0xd
 3372 006c 00       		.byte	0
 3373 006d 03       		.uleb128 0x3
 3374 006e 0E       		.uleb128 0xe
 3375 006f 3A       		.uleb128 0x3a
 3376 0070 0B       		.uleb128 0xb
 3377 0071 3B       		.uleb128 0x3b
 3378 0072 05       		.uleb128 0x5
 3379 0073 49       		.uleb128 0x49
 3380 0074 13       		.uleb128 0x13
 3381 0075 38       		.uleb128 0x38
 3382 0076 0B       		.uleb128 0xb
 3383 0077 00       		.byte	0
 3384 0078 00       		.byte	0
 3385 0079 0A       		.uleb128 0xa
 3386 007a 0F       		.uleb128 0xf
 3387 007b 00       		.byte	0
 3388 007c 0B       		.uleb128 0xb
 3389 007d 0B       		.uleb128 0xb
 3390 007e 49       		.uleb128 0x49
 3391 007f 13       		.uleb128 0x13
 3392 0080 00       		.byte	0
 3393 0081 00       		.byte	0
 3394 0082 0B       		.uleb128 0xb
 3395 0083 13       		.uleb128 0x13
 3396 0084 01       		.byte	0x1
 3397 0085 03       		.uleb128 0x3
 3398 0086 0E       		.uleb128 0xe
 3399 0087 0B       		.uleb128 0xb
 3400 0088 0B       		.uleb128 0xb
 3401 0089 3A       		.uleb128 0x3a
 3402 008a 0B       		.uleb128 0xb
 3403 008b 3B       		.uleb128 0x3b
 3404 008c 05       		.uleb128 0x5
 3405 008d 01       		.uleb128 0x1
 3406 008e 13       		.uleb128 0x13
 3407 008f 00       		.byte	0
 3408 0090 00       		.byte	0
 3409 0091 0C       		.uleb128 0xc
 3410 0092 15       		.uleb128 0x15
 3411 0093 01       		.byte	0x1
 3412 0094 27       		.uleb128 0x27
 3413 0095 19       		.uleb128 0x19
 3414 0096 01       		.uleb128 0x1
 3415 0097 13       		.uleb128 0x13
 3416 0098 00       		.byte	0
 3417 0099 00       		.byte	0
 3418 009a 0D       		.uleb128 0xd
 3419 009b 05       		.uleb128 0x5
 3420 009c 00       		.byte	0
 3421 009d 49       		.uleb128 0x49
 3422 009e 13       		.uleb128 0x13
 3423 009f 00       		.byte	0
 3424 00a0 00       		.byte	0
 3425 00a1 0E       		.uleb128 0xe
ARM GAS  C:\Users\jo\AppData\Local\Temp\cctZeUuD.s 			page 62


 3426 00a2 0F       		.uleb128 0xf
 3427 00a3 00       		.byte	0
 3428 00a4 0B       		.uleb128 0xb
 3429 00a5 0B       		.uleb128 0xb
 3430 00a6 00       		.byte	0
 3431 00a7 00       		.byte	0
 3432 00a8 0F       		.uleb128 0xf
 3433 00a9 13       		.uleb128 0x13
 3434 00aa 01       		.byte	0x1
 3435 00ab 03       		.uleb128 0x3
 3436 00ac 0E       		.uleb128 0xe
 3437 00ad 0B       		.uleb128 0xb
 3438 00ae 05       		.uleb128 0x5
 3439 00af 3A       		.uleb128 0x3a
 3440 00b0 0B       		.uleb128 0xb
 3441 00b1 3B       		.uleb128 0x3b
 3442 00b2 05       		.uleb128 0x5
 3443 00b3 01       		.uleb128 0x1
 3444 00b4 13       		.uleb128 0x13
 3445 00b5 00       		.byte	0
 3446 00b6 00       		.byte	0
 3447 00b7 10       		.uleb128 0x10
 3448 00b8 0D       		.uleb128 0xd
 3449 00b9 00       		.byte	0
 3450 00ba 03       		.uleb128 0x3
 3451 00bb 0E       		.uleb128 0xe
 3452 00bc 3A       		.uleb128 0x3a
 3453 00bd 0B       		.uleb128 0xb
 3454 00be 3B       		.uleb128 0x3b
 3455 00bf 05       		.uleb128 0x5
 3456 00c0 49       		.uleb128 0x49
 3457 00c1 13       		.uleb128 0x13
 3458 00c2 38       		.uleb128 0x38
 3459 00c3 05       		.uleb128 0x5
 3460 00c4 00       		.byte	0
 3461 00c5 00       		.byte	0
 3462 00c6 11       		.uleb128 0x11
 3463 00c7 0D       		.uleb128 0xd
 3464 00c8 00       		.byte	0
 3465 00c9 03       		.uleb128 0x3
 3466 00ca 08       		.uleb128 0x8
 3467 00cb 3A       		.uleb128 0x3a
 3468 00cc 0B       		.uleb128 0xb
 3469 00cd 3B       		.uleb128 0x3b
 3470 00ce 05       		.uleb128 0x5
 3471 00cf 49       		.uleb128 0x49
 3472 00d0 13       		.uleb128 0x13
 3473 00d1 38       		.uleb128 0x38
 3474 00d2 05       		.uleb128 0x5
 3475 00d3 00       		.byte	0
 3476 00d4 00       		.byte	0
 3477 00d5 12       		.uleb128 0x12
 3478 00d6 0D       		.uleb128 0xd
 3479 00d7 00       		.byte	0
 3480 00d8 03       		.uleb128 0x3
 3481 00d9 08       		.uleb128 0x8
 3482 00da 3A       		.uleb128 0x3a
ARM GAS  C:\Users\jo\AppData\Local\Temp\cctZeUuD.s 			page 63


 3483 00db 0B       		.uleb128 0xb
 3484 00dc 3B       		.uleb128 0x3b
 3485 00dd 0B       		.uleb128 0xb
 3486 00de 49       		.uleb128 0x49
 3487 00df 13       		.uleb128 0x13
 3488 00e0 38       		.uleb128 0x38
 3489 00e1 0B       		.uleb128 0xb
 3490 00e2 00       		.byte	0
 3491 00e3 00       		.byte	0
 3492 00e4 13       		.uleb128 0x13
 3493 00e5 13       		.uleb128 0x13
 3494 00e6 01       		.byte	0x1
 3495 00e7 0B       		.uleb128 0xb
 3496 00e8 0B       		.uleb128 0xb
 3497 00e9 3A       		.uleb128 0x3a
 3498 00ea 0B       		.uleb128 0xb
 3499 00eb 3B       		.uleb128 0x3b
 3500 00ec 0B       		.uleb128 0xb
 3501 00ed 01       		.uleb128 0x1
 3502 00ee 13       		.uleb128 0x13
 3503 00ef 00       		.byte	0
 3504 00f0 00       		.byte	0
 3505 00f1 14       		.uleb128 0x14
 3506 00f2 13       		.uleb128 0x13
 3507 00f3 01       		.byte	0x1
 3508 00f4 0B       		.uleb128 0xb
 3509 00f5 05       		.uleb128 0x5
 3510 00f6 3A       		.uleb128 0x3a
 3511 00f7 0B       		.uleb128 0xb
 3512 00f8 3B       		.uleb128 0x3b
 3513 00f9 0B       		.uleb128 0xb
 3514 00fa 01       		.uleb128 0x1
 3515 00fb 13       		.uleb128 0x13
 3516 00fc 00       		.byte	0
 3517 00fd 00       		.byte	0
 3518 00fe 15       		.uleb128 0x15
 3519 00ff 01       		.uleb128 0x1
 3520 0100 01       		.byte	0x1
 3521 0101 49       		.uleb128 0x49
 3522 0102 13       		.uleb128 0x13
 3523 0103 01       		.uleb128 0x1
 3524 0104 13       		.uleb128 0x13
 3525 0105 00       		.byte	0
 3526 0106 00       		.byte	0
 3527 0107 16       		.uleb128 0x16
 3528 0108 21       		.uleb128 0x21
 3529 0109 00       		.byte	0
 3530 010a 49       		.uleb128 0x49
 3531 010b 13       		.uleb128 0x13
 3532 010c 2F       		.uleb128 0x2f
 3533 010d 0B       		.uleb128 0xb
 3534 010e 00       		.byte	0
 3535 010f 00       		.byte	0
 3536 0110 17       		.uleb128 0x17
 3537 0111 17       		.uleb128 0x17
 3538 0112 01       		.byte	0x1
 3539 0113 0B       		.uleb128 0xb
ARM GAS  C:\Users\jo\AppData\Local\Temp\cctZeUuD.s 			page 64


 3540 0114 0B       		.uleb128 0xb
 3541 0115 3A       		.uleb128 0x3a
 3542 0116 0B       		.uleb128 0xb
 3543 0117 3B       		.uleb128 0x3b
 3544 0118 0B       		.uleb128 0xb
 3545 0119 01       		.uleb128 0x1
 3546 011a 13       		.uleb128 0x13
 3547 011b 00       		.byte	0
 3548 011c 00       		.byte	0
 3549 011d 18       		.uleb128 0x18
 3550 011e 0D       		.uleb128 0xd
 3551 011f 00       		.byte	0
 3552 0120 03       		.uleb128 0x3
 3553 0121 0E       		.uleb128 0xe
 3554 0122 3A       		.uleb128 0x3a
 3555 0123 0B       		.uleb128 0xb
 3556 0124 3B       		.uleb128 0x3b
 3557 0125 05       		.uleb128 0x5
 3558 0126 49       		.uleb128 0x49
 3559 0127 13       		.uleb128 0x13
 3560 0128 00       		.byte	0
 3561 0129 00       		.byte	0
 3562 012a 19       		.uleb128 0x19
 3563 012b 26       		.uleb128 0x26
 3564 012c 00       		.byte	0
 3565 012d 49       		.uleb128 0x49
 3566 012e 13       		.uleb128 0x13
 3567 012f 00       		.byte	0
 3568 0130 00       		.byte	0
 3569 0131 1A       		.uleb128 0x1a
 3570 0132 15       		.uleb128 0x15
 3571 0133 01       		.byte	0x1
 3572 0134 27       		.uleb128 0x27
 3573 0135 19       		.uleb128 0x19
 3574 0136 49       		.uleb128 0x49
 3575 0137 13       		.uleb128 0x13
 3576 0138 01       		.uleb128 0x1
 3577 0139 13       		.uleb128 0x13
 3578 013a 00       		.byte	0
 3579 013b 00       		.byte	0
 3580 013c 1B       		.uleb128 0x1b
 3581 013d 0D       		.uleb128 0xd
 3582 013e 00       		.byte	0
 3583 013f 03       		.uleb128 0x3
 3584 0140 0E       		.uleb128 0xe
 3585 0141 49       		.uleb128 0x49
 3586 0142 13       		.uleb128 0x13
 3587 0143 38       		.uleb128 0x38
 3588 0144 0B       		.uleb128 0xb
 3589 0145 34       		.uleb128 0x34
 3590 0146 19       		.uleb128 0x19
 3591 0147 00       		.byte	0
 3592 0148 00       		.byte	0
 3593 0149 1C       		.uleb128 0x1c
 3594 014a 04       		.uleb128 0x4
 3595 014b 01       		.byte	0x1
 3596 014c 0B       		.uleb128 0xb
ARM GAS  C:\Users\jo\AppData\Local\Temp\cctZeUuD.s 			page 65


 3597 014d 0B       		.uleb128 0xb
 3598 014e 3A       		.uleb128 0x3a
 3599 014f 0B       		.uleb128 0xb
 3600 0150 3B       		.uleb128 0x3b
 3601 0151 0B       		.uleb128 0xb
 3602 0152 01       		.uleb128 0x1
 3603 0153 13       		.uleb128 0x13
 3604 0154 00       		.byte	0
 3605 0155 00       		.byte	0
 3606 0156 1D       		.uleb128 0x1d
 3607 0157 28       		.uleb128 0x28
 3608 0158 00       		.byte	0
 3609 0159 03       		.uleb128 0x3
 3610 015a 0E       		.uleb128 0xe
 3611 015b 1C       		.uleb128 0x1c
 3612 015c 0D       		.uleb128 0xd
 3613 015d 00       		.byte	0
 3614 015e 00       		.byte	0
 3615 015f 1E       		.uleb128 0x1e
 3616 0160 26       		.uleb128 0x26
 3617 0161 00       		.byte	0
 3618 0162 00       		.byte	0
 3619 0163 00       		.byte	0
 3620 0164 1F       		.uleb128 0x1f
 3621 0165 2E       		.uleb128 0x2e
 3622 0166 01       		.byte	0x1
 3623 0167 03       		.uleb128 0x3
 3624 0168 0E       		.uleb128 0xe
 3625 0169 3A       		.uleb128 0x3a
 3626 016a 0B       		.uleb128 0xb
 3627 016b 3B       		.uleb128 0x3b
 3628 016c 05       		.uleb128 0x5
 3629 016d 27       		.uleb128 0x27
 3630 016e 19       		.uleb128 0x19
 3631 016f 20       		.uleb128 0x20
 3632 0170 0B       		.uleb128 0xb
 3633 0171 01       		.uleb128 0x1
 3634 0172 13       		.uleb128 0x13
 3635 0173 00       		.byte	0
 3636 0174 00       		.byte	0
 3637 0175 20       		.uleb128 0x20
 3638 0176 05       		.uleb128 0x5
 3639 0177 00       		.byte	0
 3640 0178 03       		.uleb128 0x3
 3641 0179 0E       		.uleb128 0xe
 3642 017a 3A       		.uleb128 0x3a
 3643 017b 0B       		.uleb128 0xb
 3644 017c 3B       		.uleb128 0x3b
 3645 017d 05       		.uleb128 0x5
 3646 017e 49       		.uleb128 0x49
 3647 017f 13       		.uleb128 0x13
 3648 0180 00       		.byte	0
 3649 0181 00       		.byte	0
 3650 0182 21       		.uleb128 0x21
 3651 0183 2E       		.uleb128 0x2e
 3652 0184 01       		.byte	0x1
 3653 0185 03       		.uleb128 0x3
ARM GAS  C:\Users\jo\AppData\Local\Temp\cctZeUuD.s 			page 66


 3654 0186 0E       		.uleb128 0xe
 3655 0187 3A       		.uleb128 0x3a
 3656 0188 0B       		.uleb128 0xb
 3657 0189 3B       		.uleb128 0x3b
 3658 018a 0B       		.uleb128 0xb
 3659 018b 27       		.uleb128 0x27
 3660 018c 19       		.uleb128 0x19
 3661 018d 49       		.uleb128 0x49
 3662 018e 13       		.uleb128 0x13
 3663 018f 20       		.uleb128 0x20
 3664 0190 0B       		.uleb128 0xb
 3665 0191 01       		.uleb128 0x1
 3666 0192 13       		.uleb128 0x13
 3667 0193 00       		.byte	0
 3668 0194 00       		.byte	0
 3669 0195 22       		.uleb128 0x22
 3670 0196 05       		.uleb128 0x5
 3671 0197 00       		.byte	0
 3672 0198 03       		.uleb128 0x3
 3673 0199 08       		.uleb128 0x8
 3674 019a 3A       		.uleb128 0x3a
 3675 019b 0B       		.uleb128 0xb
 3676 019c 3B       		.uleb128 0x3b
 3677 019d 0B       		.uleb128 0xb
 3678 019e 49       		.uleb128 0x49
 3679 019f 13       		.uleb128 0x13
 3680 01a0 00       		.byte	0
 3681 01a1 00       		.byte	0
 3682 01a2 23       		.uleb128 0x23
 3683 01a3 18       		.uleb128 0x18
 3684 01a4 00       		.byte	0
 3685 01a5 00       		.byte	0
 3686 01a6 00       		.byte	0
 3687 01a7 24       		.uleb128 0x24
 3688 01a8 34       		.uleb128 0x34
 3689 01a9 00       		.byte	0
 3690 01aa 03       		.uleb128 0x3
 3691 01ab 08       		.uleb128 0x8
 3692 01ac 3A       		.uleb128 0x3a
 3693 01ad 0B       		.uleb128 0xb
 3694 01ae 3B       		.uleb128 0x3b
 3695 01af 0B       		.uleb128 0xb
 3696 01b0 49       		.uleb128 0x49
 3697 01b1 13       		.uleb128 0x13
 3698 01b2 00       		.byte	0
 3699 01b3 00       		.byte	0
 3700 01b4 25       		.uleb128 0x25
 3701 01b5 34       		.uleb128 0x34
 3702 01b6 00       		.byte	0
 3703 01b7 03       		.uleb128 0x3
 3704 01b8 0E       		.uleb128 0xe
 3705 01b9 3A       		.uleb128 0x3a
 3706 01ba 0B       		.uleb128 0xb
 3707 01bb 3B       		.uleb128 0x3b
 3708 01bc 0B       		.uleb128 0xb
 3709 01bd 49       		.uleb128 0x49
 3710 01be 13       		.uleb128 0x13
ARM GAS  C:\Users\jo\AppData\Local\Temp\cctZeUuD.s 			page 67


 3711 01bf 00       		.byte	0
 3712 01c0 00       		.byte	0
 3713 01c1 26       		.uleb128 0x26
 3714 01c2 2E       		.uleb128 0x2e
 3715 01c3 01       		.byte	0x1
 3716 01c4 31       		.uleb128 0x31
 3717 01c5 13       		.uleb128 0x13
 3718 01c6 11       		.uleb128 0x11
 3719 01c7 01       		.uleb128 0x1
 3720 01c8 12       		.uleb128 0x12
 3721 01c9 06       		.uleb128 0x6
 3722 01ca 40       		.uleb128 0x40
 3723 01cb 18       		.uleb128 0x18
 3724 01cc 9742     		.uleb128 0x2117
 3725 01ce 19       		.uleb128 0x19
 3726 01cf 01       		.uleb128 0x1
 3727 01d0 13       		.uleb128 0x13
 3728 01d1 00       		.byte	0
 3729 01d2 00       		.byte	0
 3730 01d3 27       		.uleb128 0x27
 3731 01d4 05       		.uleb128 0x5
 3732 01d5 00       		.byte	0
 3733 01d6 31       		.uleb128 0x31
 3734 01d7 13       		.uleb128 0x13
 3735 01d8 02       		.uleb128 0x2
 3736 01d9 17       		.uleb128 0x17
 3737 01da 00       		.byte	0
 3738 01db 00       		.byte	0
 3739 01dc 28       		.uleb128 0x28
 3740 01dd 05       		.uleb128 0x5
 3741 01de 00       		.byte	0
 3742 01df 31       		.uleb128 0x31
 3743 01e0 13       		.uleb128 0x13
 3744 01e1 02       		.uleb128 0x2
 3745 01e2 18       		.uleb128 0x18
 3746 01e3 00       		.byte	0
 3747 01e4 00       		.byte	0
 3748 01e5 29       		.uleb128 0x29
 3749 01e6 34       		.uleb128 0x34
 3750 01e7 00       		.byte	0
 3751 01e8 31       		.uleb128 0x31
 3752 01e9 13       		.uleb128 0x13
 3753 01ea 02       		.uleb128 0x2
 3754 01eb 18       		.uleb128 0x18
 3755 01ec 00       		.byte	0
 3756 01ed 00       		.byte	0
 3757 01ee 2A       		.uleb128 0x2a
 3758 01ef 05       		.uleb128 0x5
 3759 01f0 00       		.byte	0
 3760 01f1 31       		.uleb128 0x31
 3761 01f2 13       		.uleb128 0x13
 3762 01f3 00       		.byte	0
 3763 01f4 00       		.byte	0
 3764 01f5 2B       		.uleb128 0x2b
 3765 01f6 898201   		.uleb128 0x4109
 3766 01f9 01       		.byte	0x1
 3767 01fa 11       		.uleb128 0x11
ARM GAS  C:\Users\jo\AppData\Local\Temp\cctZeUuD.s 			page 68


 3768 01fb 01       		.uleb128 0x1
 3769 01fc 31       		.uleb128 0x31
 3770 01fd 13       		.uleb128 0x13
 3771 01fe 00       		.byte	0
 3772 01ff 00       		.byte	0
 3773 0200 2C       		.uleb128 0x2c
 3774 0201 8A8201   		.uleb128 0x410a
 3775 0204 00       		.byte	0
 3776 0205 02       		.uleb128 0x2
 3777 0206 18       		.uleb128 0x18
 3778 0207 9142     		.uleb128 0x2111
 3779 0209 18       		.uleb128 0x18
 3780 020a 00       		.byte	0
 3781 020b 00       		.byte	0
 3782 020c 2D       		.uleb128 0x2d
 3783 020d 2E       		.uleb128 0x2e
 3784 020e 01       		.byte	0x1
 3785 020f 3F       		.uleb128 0x3f
 3786 0210 19       		.uleb128 0x19
 3787 0211 03       		.uleb128 0x3
 3788 0212 0E       		.uleb128 0xe
 3789 0213 3A       		.uleb128 0x3a
 3790 0214 0B       		.uleb128 0xb
 3791 0215 3B       		.uleb128 0x3b
 3792 0216 0B       		.uleb128 0xb
 3793 0217 27       		.uleb128 0x27
 3794 0218 19       		.uleb128 0x19
 3795 0219 49       		.uleb128 0x49
 3796 021a 13       		.uleb128 0x13
 3797 021b 11       		.uleb128 0x11
 3798 021c 01       		.uleb128 0x1
 3799 021d 12       		.uleb128 0x12
 3800 021e 06       		.uleb128 0x6
 3801 021f 40       		.uleb128 0x40
 3802 0220 18       		.uleb128 0x18
 3803 0221 9742     		.uleb128 0x2117
 3804 0223 19       		.uleb128 0x19
 3805 0224 01       		.uleb128 0x1
 3806 0225 13       		.uleb128 0x13
 3807 0226 00       		.byte	0
 3808 0227 00       		.byte	0
 3809 0228 2E       		.uleb128 0x2e
 3810 0229 34       		.uleb128 0x34
 3811 022a 00       		.byte	0
 3812 022b 03       		.uleb128 0x3
 3813 022c 08       		.uleb128 0x8
 3814 022d 3A       		.uleb128 0x3a
 3815 022e 0B       		.uleb128 0xb
 3816 022f 3B       		.uleb128 0x3b
 3817 0230 0B       		.uleb128 0xb
 3818 0231 49       		.uleb128 0x49
 3819 0232 13       		.uleb128 0x13
 3820 0233 02       		.uleb128 0x2
 3821 0234 18       		.uleb128 0x18
 3822 0235 00       		.byte	0
 3823 0236 00       		.byte	0
 3824 0237 2F       		.uleb128 0x2f
ARM GAS  C:\Users\jo\AppData\Local\Temp\cctZeUuD.s 			page 69


 3825 0238 898201   		.uleb128 0x4109
 3826 023b 00       		.byte	0
 3827 023c 11       		.uleb128 0x11
 3828 023d 01       		.uleb128 0x1
 3829 023e 31       		.uleb128 0x31
 3830 023f 13       		.uleb128 0x13
 3831 0240 00       		.byte	0
 3832 0241 00       		.byte	0
 3833 0242 30       		.uleb128 0x30
 3834 0243 2E       		.uleb128 0x2e
 3835 0244 01       		.byte	0x1
 3836 0245 3F       		.uleb128 0x3f
 3837 0246 19       		.uleb128 0x19
 3838 0247 03       		.uleb128 0x3
 3839 0248 0E       		.uleb128 0xe
 3840 0249 3A       		.uleb128 0x3a
 3841 024a 0B       		.uleb128 0xb
 3842 024b 3B       		.uleb128 0x3b
 3843 024c 0B       		.uleb128 0xb
 3844 024d 27       		.uleb128 0x27
 3845 024e 19       		.uleb128 0x19
 3846 024f 11       		.uleb128 0x11
 3847 0250 01       		.uleb128 0x1
 3848 0251 12       		.uleb128 0x12
 3849 0252 06       		.uleb128 0x6
 3850 0253 40       		.uleb128 0x40
 3851 0254 18       		.uleb128 0x18
 3852 0255 9742     		.uleb128 0x2117
 3853 0257 19       		.uleb128 0x19
 3854 0258 01       		.uleb128 0x1
 3855 0259 13       		.uleb128 0x13
 3856 025a 00       		.byte	0
 3857 025b 00       		.byte	0
 3858 025c 31       		.uleb128 0x31
 3859 025d 05       		.uleb128 0x5
 3860 025e 00       		.byte	0
 3861 025f 03       		.uleb128 0x3
 3862 0260 08       		.uleb128 0x8
 3863 0261 3A       		.uleb128 0x3a
 3864 0262 0B       		.uleb128 0xb
 3865 0263 3B       		.uleb128 0x3b
 3866 0264 0B       		.uleb128 0xb
 3867 0265 49       		.uleb128 0x49
 3868 0266 13       		.uleb128 0x13
 3869 0267 02       		.uleb128 0x2
 3870 0268 17       		.uleb128 0x17
 3871 0269 00       		.byte	0
 3872 026a 00       		.byte	0
 3873 026b 32       		.uleb128 0x32
 3874 026c 898201   		.uleb128 0x4109
 3875 026f 01       		.byte	0x1
 3876 0270 11       		.uleb128 0x11
 3877 0271 01       		.uleb128 0x1
 3878 0272 9542     		.uleb128 0x2115
 3879 0274 19       		.uleb128 0x19
 3880 0275 31       		.uleb128 0x31
 3881 0276 13       		.uleb128 0x13
ARM GAS  C:\Users\jo\AppData\Local\Temp\cctZeUuD.s 			page 70


 3882 0277 00       		.byte	0
 3883 0278 00       		.byte	0
 3884 0279 33       		.uleb128 0x33
 3885 027a 05       		.uleb128 0x5
 3886 027b 00       		.byte	0
 3887 027c 03       		.uleb128 0x3
 3888 027d 0E       		.uleb128 0xe
 3889 027e 3A       		.uleb128 0x3a
 3890 027f 0B       		.uleb128 0xb
 3891 0280 3B       		.uleb128 0x3b
 3892 0281 0B       		.uleb128 0xb
 3893 0282 49       		.uleb128 0x49
 3894 0283 13       		.uleb128 0x13
 3895 0284 02       		.uleb128 0x2
 3896 0285 17       		.uleb128 0x17
 3897 0286 00       		.byte	0
 3898 0287 00       		.byte	0
 3899 0288 34       		.uleb128 0x34
 3900 0289 1D       		.uleb128 0x1d
 3901 028a 01       		.byte	0x1
 3902 028b 31       		.uleb128 0x31
 3903 028c 13       		.uleb128 0x13
 3904 028d 11       		.uleb128 0x11
 3905 028e 01       		.uleb128 0x1
 3906 028f 12       		.uleb128 0x12
 3907 0290 06       		.uleb128 0x6
 3908 0291 58       		.uleb128 0x58
 3909 0292 0B       		.uleb128 0xb
 3910 0293 59       		.uleb128 0x59
 3911 0294 0B       		.uleb128 0xb
 3912 0295 01       		.uleb128 0x1
 3913 0296 13       		.uleb128 0x13
 3914 0297 00       		.byte	0
 3915 0298 00       		.byte	0
 3916 0299 35       		.uleb128 0x35
 3917 029a 898201   		.uleb128 0x4109
 3918 029d 01       		.byte	0x1
 3919 029e 11       		.uleb128 0x11
 3920 029f 01       		.uleb128 0x1
 3921 02a0 31       		.uleb128 0x31
 3922 02a1 13       		.uleb128 0x13
 3923 02a2 01       		.uleb128 0x1
 3924 02a3 13       		.uleb128 0x13
 3925 02a4 00       		.byte	0
 3926 02a5 00       		.byte	0
 3927 02a6 36       		.uleb128 0x36
 3928 02a7 1D       		.uleb128 0x1d
 3929 02a8 01       		.byte	0x1
 3930 02a9 31       		.uleb128 0x31
 3931 02aa 13       		.uleb128 0x13
 3932 02ab 52       		.uleb128 0x52
 3933 02ac 01       		.uleb128 0x1
 3934 02ad 55       		.uleb128 0x55
 3935 02ae 17       		.uleb128 0x17
 3936 02af 58       		.uleb128 0x58
 3937 02b0 0B       		.uleb128 0xb
 3938 02b1 59       		.uleb128 0x59
ARM GAS  C:\Users\jo\AppData\Local\Temp\cctZeUuD.s 			page 71


 3939 02b2 0B       		.uleb128 0xb
 3940 02b3 01       		.uleb128 0x1
 3941 02b4 13       		.uleb128 0x13
 3942 02b5 00       		.byte	0
 3943 02b6 00       		.byte	0
 3944 02b7 37       		.uleb128 0x37
 3945 02b8 898201   		.uleb128 0x4109
 3946 02bb 00       		.byte	0
 3947 02bc 11       		.uleb128 0x11
 3948 02bd 01       		.uleb128 0x1
 3949 02be 9542     		.uleb128 0x2115
 3950 02c0 19       		.uleb128 0x19
 3951 02c1 31       		.uleb128 0x31
 3952 02c2 13       		.uleb128 0x13
 3953 02c3 00       		.byte	0
 3954 02c4 00       		.byte	0
 3955 02c5 38       		.uleb128 0x38
 3956 02c6 898201   		.uleb128 0x4109
 3957 02c9 01       		.byte	0x1
 3958 02ca 11       		.uleb128 0x11
 3959 02cb 01       		.uleb128 0x1
 3960 02cc 9542     		.uleb128 0x2115
 3961 02ce 19       		.uleb128 0x19
 3962 02cf 31       		.uleb128 0x31
 3963 02d0 13       		.uleb128 0x13
 3964 02d1 01       		.uleb128 0x1
 3965 02d2 13       		.uleb128 0x13
 3966 02d3 00       		.byte	0
 3967 02d4 00       		.byte	0
 3968 02d5 39       		.uleb128 0x39
 3969 02d6 34       		.uleb128 0x34
 3970 02d7 00       		.byte	0
 3971 02d8 03       		.uleb128 0x3
 3972 02d9 0E       		.uleb128 0xe
 3973 02da 3A       		.uleb128 0x3a
 3974 02db 0B       		.uleb128 0xb
 3975 02dc 3B       		.uleb128 0x3b
 3976 02dd 05       		.uleb128 0x5
 3977 02de 49       		.uleb128 0x49
 3978 02df 13       		.uleb128 0x13
 3979 02e0 3F       		.uleb128 0x3f
 3980 02e1 19       		.uleb128 0x19
 3981 02e2 3C       		.uleb128 0x3c
 3982 02e3 19       		.uleb128 0x19
 3983 02e4 00       		.byte	0
 3984 02e5 00       		.byte	0
 3985 02e6 3A       		.uleb128 0x3a
 3986 02e7 34       		.uleb128 0x34
 3987 02e8 00       		.byte	0
 3988 02e9 03       		.uleb128 0x3
 3989 02ea 08       		.uleb128 0x8
 3990 02eb 3A       		.uleb128 0x3a
 3991 02ec 0B       		.uleb128 0xb
 3992 02ed 3B       		.uleb128 0x3b
 3993 02ee 05       		.uleb128 0x5
 3994 02ef 49       		.uleb128 0x49
 3995 02f0 13       		.uleb128 0x13
ARM GAS  C:\Users\jo\AppData\Local\Temp\cctZeUuD.s 			page 72


 3996 02f1 3F       		.uleb128 0x3f
 3997 02f2 19       		.uleb128 0x19
 3998 02f3 3C       		.uleb128 0x3c
 3999 02f4 19       		.uleb128 0x19
 4000 02f5 00       		.byte	0
 4001 02f6 00       		.byte	0
 4002 02f7 3B       		.uleb128 0x3b
 4003 02f8 34       		.uleb128 0x34
 4004 02f9 00       		.byte	0
 4005 02fa 03       		.uleb128 0x3
 4006 02fb 0E       		.uleb128 0xe
 4007 02fc 3A       		.uleb128 0x3a
 4008 02fd 0B       		.uleb128 0xb
 4009 02fe 3B       		.uleb128 0x3b
 4010 02ff 0B       		.uleb128 0xb
 4011 0300 49       		.uleb128 0x49
 4012 0301 13       		.uleb128 0x13
 4013 0302 3F       		.uleb128 0x3f
 4014 0303 19       		.uleb128 0x19
 4015 0304 3C       		.uleb128 0x3c
 4016 0305 19       		.uleb128 0x19
 4017 0306 00       		.byte	0
 4018 0307 00       		.byte	0
 4019 0308 3C       		.uleb128 0x3c
 4020 0309 2E       		.uleb128 0x2e
 4021 030a 01       		.byte	0x1
 4022 030b 3F       		.uleb128 0x3f
 4023 030c 19       		.uleb128 0x19
 4024 030d 03       		.uleb128 0x3
 4025 030e 0E       		.uleb128 0xe
 4026 030f 3A       		.uleb128 0x3a
 4027 0310 0B       		.uleb128 0xb
 4028 0311 3B       		.uleb128 0x3b
 4029 0312 0B       		.uleb128 0xb
 4030 0313 27       		.uleb128 0x27
 4031 0314 19       		.uleb128 0x19
 4032 0315 49       		.uleb128 0x49
 4033 0316 13       		.uleb128 0x13
 4034 0317 3C       		.uleb128 0x3c
 4035 0318 19       		.uleb128 0x19
 4036 0319 01       		.uleb128 0x1
 4037 031a 13       		.uleb128 0x13
 4038 031b 00       		.byte	0
 4039 031c 00       		.byte	0
 4040 031d 3D       		.uleb128 0x3d
 4041 031e 2E       		.uleb128 0x2e
 4042 031f 01       		.byte	0x1
 4043 0320 3F       		.uleb128 0x3f
 4044 0321 19       		.uleb128 0x19
 4045 0322 03       		.uleb128 0x3
 4046 0323 0E       		.uleb128 0xe
 4047 0324 3A       		.uleb128 0x3a
 4048 0325 0B       		.uleb128 0xb
 4049 0326 3B       		.uleb128 0x3b
 4050 0327 0B       		.uleb128 0xb
 4051 0328 27       		.uleb128 0x27
 4052 0329 19       		.uleb128 0x19
ARM GAS  C:\Users\jo\AppData\Local\Temp\cctZeUuD.s 			page 73


 4053 032a 3C       		.uleb128 0x3c
 4054 032b 19       		.uleb128 0x19
 4055 032c 01       		.uleb128 0x1
 4056 032d 13       		.uleb128 0x13
 4057 032e 00       		.byte	0
 4058 032f 00       		.byte	0
 4059 0330 3E       		.uleb128 0x3e
 4060 0331 2E       		.uleb128 0x2e
 4061 0332 01       		.byte	0x1
 4062 0333 3F       		.uleb128 0x3f
 4063 0334 19       		.uleb128 0x19
 4064 0335 03       		.uleb128 0x3
 4065 0336 0E       		.uleb128 0xe
 4066 0337 3A       		.uleb128 0x3a
 4067 0338 0B       		.uleb128 0xb
 4068 0339 3B       		.uleb128 0x3b
 4069 033a 05       		.uleb128 0x5
 4070 033b 27       		.uleb128 0x27
 4071 033c 19       		.uleb128 0x19
 4072 033d 3C       		.uleb128 0x3c
 4073 033e 19       		.uleb128 0x19
 4074 033f 01       		.uleb128 0x1
 4075 0340 13       		.uleb128 0x13
 4076 0341 00       		.byte	0
 4077 0342 00       		.byte	0
 4078 0343 3F       		.uleb128 0x3f
 4079 0344 2E       		.uleb128 0x2e
 4080 0345 01       		.byte	0x1
 4081 0346 3F       		.uleb128 0x3f
 4082 0347 19       		.uleb128 0x19
 4083 0348 03       		.uleb128 0x3
 4084 0349 0E       		.uleb128 0xe
 4085 034a 3A       		.uleb128 0x3a
 4086 034b 0B       		.uleb128 0xb
 4087 034c 3B       		.uleb128 0x3b
 4088 034d 0B       		.uleb128 0xb
 4089 034e 27       		.uleb128 0x27
 4090 034f 19       		.uleb128 0x19
 4091 0350 3C       		.uleb128 0x3c
 4092 0351 19       		.uleb128 0x19
 4093 0352 00       		.byte	0
 4094 0353 00       		.byte	0
 4095 0354 00       		.byte	0
 4096              		.section	.debug_loc,"",%progbits
 4097              	.Ldebug_loc0:
 4098              	.LLST0:
 4099 0000 00000000 		.4byte	.LVL0
 4100 0004 0E000000 		.4byte	.LVL1
 4101 0008 0100     		.2byte	0x1
 4102 000a 50       		.byte	0x50
 4103 000b 0E000000 		.4byte	.LVL1
 4104 000f 28000000 		.4byte	.LFE269
 4105 0013 0400     		.2byte	0x4
 4106 0015 F3       		.byte	0xf3
 4107 0016 01       		.uleb128 0x1
 4108 0017 50       		.byte	0x50
 4109 0018 9F       		.byte	0x9f
ARM GAS  C:\Users\jo\AppData\Local\Temp\cctZeUuD.s 			page 74


 4110 0019 00000000 		.4byte	0
 4111 001d 00000000 		.4byte	0
 4112              	.LLST1:
 4113 0021 00000000 		.4byte	.LVL4
 4114 0025 08000000 		.4byte	.LVL5
 4115 0029 0100     		.2byte	0x1
 4116 002b 50       		.byte	0x50
 4117 002c 08000000 		.4byte	.LVL5
 4118 0030 14000000 		.4byte	.LVL7
 4119 0034 0100     		.2byte	0x1
 4120 0036 54       		.byte	0x54
 4121 0037 14000000 		.4byte	.LVL7
 4122 003b 17000000 		.4byte	.LVL8-1
 4123 003f 0100     		.2byte	0x1
 4124 0041 50       		.byte	0x50
 4125 0042 17000000 		.4byte	.LVL8-1
 4126 0046 18000000 		.4byte	.LVL8
 4127 004a 0400     		.2byte	0x4
 4128 004c F3       		.byte	0xf3
 4129 004d 01       		.uleb128 0x1
 4130 004e 50       		.byte	0x50
 4131 004f 9F       		.byte	0x9f
 4132 0050 18000000 		.4byte	.LVL8
 4133 0054 1A000000 		.4byte	.LFE261
 4134 0058 0100     		.2byte	0x1
 4135 005a 50       		.byte	0x50
 4136 005b 00000000 		.4byte	0
 4137 005f 00000000 		.4byte	0
 4138              	.LLST2:
 4139 0063 00000000 		.4byte	.LVL9
 4140 0067 0A000000 		.4byte	.LVL10
 4141 006b 0100     		.2byte	0x1
 4142 006d 50       		.byte	0x50
 4143 006e 0A000000 		.4byte	.LVL10
 4144 0072 48000000 		.4byte	.LVL16
 4145 0076 0100     		.2byte	0x1
 4146 0078 54       		.byte	0x54
 4147 0079 48000000 		.4byte	.LVL16
 4148 007d 52000000 		.4byte	.LVL18
 4149 0081 0100     		.2byte	0x1
 4150 0083 50       		.byte	0x50
 4151 0084 52000000 		.4byte	.LVL18
 4152 0088 78000000 		.4byte	.LFE262
 4153 008c 0100     		.2byte	0x1
 4154 008e 54       		.byte	0x54
 4155 008f 00000000 		.4byte	0
 4156 0093 00000000 		.4byte	0
 4157              	.LLST3:
 4158 0097 00000000 		.4byte	.LVL9
 4159 009b 11000000 		.4byte	.LVL11-1
 4160 009f 0100     		.2byte	0x1
 4161 00a1 51       		.byte	0x51
 4162 00a2 11000000 		.4byte	.LVL11-1
 4163 00a6 48000000 		.4byte	.LVL16
 4164 00aa 0400     		.2byte	0x4
 4165 00ac F3       		.byte	0xf3
 4166 00ad 01       		.uleb128 0x1
ARM GAS  C:\Users\jo\AppData\Local\Temp\cctZeUuD.s 			page 75


 4167 00ae 51       		.byte	0x51
 4168 00af 9F       		.byte	0x9f
 4169 00b0 48000000 		.4byte	.LVL16
 4170 00b4 4E000000 		.4byte	.LVL17
 4171 00b8 0100     		.2byte	0x1
 4172 00ba 51       		.byte	0x51
 4173 00bb 4E000000 		.4byte	.LVL17
 4174 00bf 78000000 		.4byte	.LFE262
 4175 00c3 0400     		.2byte	0x4
 4176 00c5 F3       		.byte	0xf3
 4177 00c6 01       		.uleb128 0x1
 4178 00c7 51       		.byte	0x51
 4179 00c8 9F       		.byte	0x9f
 4180 00c9 00000000 		.4byte	0
 4181 00cd 00000000 		.4byte	0
 4182              	.LLST4:
 4183 00d1 3E000000 		.4byte	.LVL14
 4184 00d5 48000000 		.4byte	.LVL16
 4185 00d9 0600     		.2byte	0x6
 4186 00db 03       		.byte	0x3
 4187 00dc 68000000 		.4byte	.LC3
 4188 00e0 9F       		.byte	0x9f
 4189 00e1 00000000 		.4byte	0
 4190 00e5 00000000 		.4byte	0
 4191              	.LLST5:
 4192 00e9 00000000 		.4byte	.LVL21
 4193 00ed 0A000000 		.4byte	.LVL22
 4194 00f1 0100     		.2byte	0x1
 4195 00f3 50       		.byte	0x50
 4196 00f4 0A000000 		.4byte	.LVL22
 4197 00f8 1A000000 		.4byte	.LVL24
 4198 00fc 0100     		.2byte	0x1
 4199 00fe 54       		.byte	0x54
 4200 00ff 1A000000 		.4byte	.LVL24
 4201 0103 24000000 		.4byte	.LVL25
 4202 0107 0100     		.2byte	0x1
 4203 0109 50       		.byte	0x50
 4204 010a 24000000 		.4byte	.LVL25
 4205 010e 32000000 		.4byte	.LVL27
 4206 0112 0100     		.2byte	0x1
 4207 0114 54       		.byte	0x54
 4208 0115 32000000 		.4byte	.LVL27
 4209 0119 48000000 		.4byte	.LFE263
 4210 011d 0400     		.2byte	0x4
 4211 011f F3       		.byte	0xf3
 4212 0120 01       		.uleb128 0x1
 4213 0121 50       		.byte	0x50
 4214 0122 9F       		.byte	0x9f
 4215 0123 00000000 		.4byte	0
 4216 0127 00000000 		.4byte	0
 4217              	.LLST6:
 4218 012b 00000000 		.4byte	.LVL29
 4219 012f 0A000000 		.4byte	.LVL30
 4220 0133 0100     		.2byte	0x1
 4221 0135 50       		.byte	0x50
 4222 0136 0A000000 		.4byte	.LVL30
 4223 013a 38000000 		.4byte	.LVL35
ARM GAS  C:\Users\jo\AppData\Local\Temp\cctZeUuD.s 			page 76


 4224 013e 0100     		.2byte	0x1
 4225 0140 54       		.byte	0x54
 4226 0141 38000000 		.4byte	.LVL35
 4227 0145 42000000 		.4byte	.LVL38
 4228 0149 0100     		.2byte	0x1
 4229 014b 50       		.byte	0x50
 4230 014c 42000000 		.4byte	.LVL38
 4231 0150 64000000 		.4byte	.LFE264
 4232 0154 0100     		.2byte	0x1
 4233 0156 54       		.byte	0x54
 4234 0157 00000000 		.4byte	0
 4235 015b 00000000 		.4byte	0
 4236              	.LLST7:
 4237 015f 00000000 		.4byte	.LVL29
 4238 0163 13000000 		.4byte	.LVL31-1
 4239 0167 0100     		.2byte	0x1
 4240 0169 51       		.byte	0x51
 4241 016a 13000000 		.4byte	.LVL31-1
 4242 016e 2C000000 		.4byte	.LVL33
 4243 0172 0100     		.2byte	0x1
 4244 0174 56       		.byte	0x56
 4245 0175 2C000000 		.4byte	.LVL33
 4246 0179 32000000 		.4byte	.LVL34
 4247 017d 0400     		.2byte	0x4
 4248 017f F3       		.byte	0xf3
 4249 0180 01       		.uleb128 0x1
 4250 0181 51       		.byte	0x51
 4251 0182 9F       		.byte	0x9f
 4252 0183 32000000 		.4byte	.LVL34
 4253 0187 38000000 		.4byte	.LVL35
 4254 018b 0100     		.2byte	0x1
 4255 018d 56       		.byte	0x56
 4256 018e 38000000 		.4byte	.LVL35
 4257 0192 3E000000 		.4byte	.LVL36
 4258 0196 0100     		.2byte	0x1
 4259 0198 51       		.byte	0x51
 4260 0199 3E000000 		.4byte	.LVL36
 4261 019d 64000000 		.4byte	.LFE264
 4262 01a1 0400     		.2byte	0x4
 4263 01a3 F3       		.byte	0xf3
 4264 01a4 01       		.uleb128 0x1
 4265 01a5 51       		.byte	0x51
 4266 01a6 9F       		.byte	0x9f
 4267 01a7 00000000 		.4byte	0
 4268 01ab 00000000 		.4byte	0
 4269              	.LLST8:
 4270 01af 00000000 		.4byte	.LVL29
 4271 01b3 13000000 		.4byte	.LVL31-1
 4272 01b7 0100     		.2byte	0x1
 4273 01b9 52       		.byte	0x52
 4274 01ba 13000000 		.4byte	.LVL31-1
 4275 01be 38000000 		.4byte	.LVL35
 4276 01c2 0400     		.2byte	0x4
 4277 01c4 F3       		.byte	0xf3
 4278 01c5 01       		.uleb128 0x1
 4279 01c6 52       		.byte	0x52
 4280 01c7 9F       		.byte	0x9f
ARM GAS  C:\Users\jo\AppData\Local\Temp\cctZeUuD.s 			page 77


 4281 01c8 38000000 		.4byte	.LVL35
 4282 01cc 40000000 		.4byte	.LVL37
 4283 01d0 0100     		.2byte	0x1
 4284 01d2 52       		.byte	0x52
 4285 01d3 40000000 		.4byte	.LVL37
 4286 01d7 64000000 		.4byte	.LFE264
 4287 01db 0400     		.2byte	0x4
 4288 01dd F3       		.byte	0xf3
 4289 01de 01       		.uleb128 0x1
 4290 01df 52       		.byte	0x52
 4291 01e0 9F       		.byte	0x9f
 4292 01e1 00000000 		.4byte	0
 4293 01e5 00000000 		.4byte	0
 4294              	.LLST9:
 4295 01e9 00000000 		.4byte	.LVL41
 4296 01ed 0E000000 		.4byte	.LVL42
 4297 01f1 0100     		.2byte	0x1
 4298 01f3 50       		.byte	0x50
 4299 01f4 0E000000 		.4byte	.LVL42
 4300 01f8 20000000 		.4byte	.LVL45
 4301 01fc 0100     		.2byte	0x1
 4302 01fe 54       		.byte	0x54
 4303 01ff 20000000 		.4byte	.LVL45
 4304 0203 24000000 		.4byte	.LVL46
 4305 0207 0400     		.2byte	0x4
 4306 0209 F3       		.byte	0xf3
 4307 020a 01       		.uleb128 0x1
 4308 020b 50       		.byte	0x50
 4309 020c 9F       		.byte	0x9f
 4310 020d 24000000 		.4byte	.LVL46
 4311 0211 2A000000 		.4byte	.LVL47
 4312 0215 0100     		.2byte	0x1
 4313 0217 50       		.byte	0x50
 4314 0218 2A000000 		.4byte	.LVL47
 4315 021c 3C000000 		.4byte	.LVL51
 4316 0220 0100     		.2byte	0x1
 4317 0222 54       		.byte	0x54
 4318 0223 3C000000 		.4byte	.LVL51
 4319 0227 40000000 		.4byte	.LVL52
 4320 022b 0400     		.2byte	0x4
 4321 022d F3       		.byte	0xf3
 4322 022e 01       		.uleb128 0x1
 4323 022f 50       		.byte	0x50
 4324 0230 9F       		.byte	0x9f
 4325 0231 40000000 		.4byte	.LVL52
 4326 0235 46000000 		.4byte	.LVL53
 4327 0239 0100     		.2byte	0x1
 4328 023b 50       		.byte	0x50
 4329 023c 46000000 		.4byte	.LVL53
 4330 0240 68000000 		.4byte	.LFE265
 4331 0244 0100     		.2byte	0x1
 4332 0246 54       		.byte	0x54
 4333 0247 00000000 		.4byte	0
 4334 024b 00000000 		.4byte	0
 4335              	.LLST10:
 4336 024f 00000000 		.4byte	.LVL41
 4337 0253 10000000 		.4byte	.LVL43
ARM GAS  C:\Users\jo\AppData\Local\Temp\cctZeUuD.s 			page 78


 4338 0257 0100     		.2byte	0x1
 4339 0259 51       		.byte	0x51
 4340 025a 10000000 		.4byte	.LVL43
 4341 025e 20000000 		.4byte	.LVL45
 4342 0262 0100     		.2byte	0x1
 4343 0264 55       		.byte	0x55
 4344 0265 20000000 		.4byte	.LVL45
 4345 0269 23000000 		.4byte	.LVL46-1
 4346 026d 0100     		.2byte	0x1
 4347 026f 50       		.byte	0x50
 4348 0270 23000000 		.4byte	.LVL46-1
 4349 0274 24000000 		.4byte	.LVL46
 4350 0278 0400     		.2byte	0x4
 4351 027a F3       		.byte	0xf3
 4352 027b 01       		.uleb128 0x1
 4353 027c 51       		.byte	0x51
 4354 027d 9F       		.byte	0x9f
 4355 027e 24000000 		.4byte	.LVL46
 4356 0282 2C000000 		.4byte	.LVL48
 4357 0286 0100     		.2byte	0x1
 4358 0288 51       		.byte	0x51
 4359 0289 2C000000 		.4byte	.LVL48
 4360 028d 36000000 		.4byte	.LVL50
 4361 0291 0100     		.2byte	0x1
 4362 0293 55       		.byte	0x55
 4363 0294 36000000 		.4byte	.LVL50
 4364 0298 40000000 		.4byte	.LVL52
 4365 029c 0400     		.2byte	0x4
 4366 029e F3       		.byte	0xf3
 4367 029f 01       		.uleb128 0x1
 4368 02a0 51       		.byte	0x51
 4369 02a1 9F       		.byte	0x9f
 4370 02a2 40000000 		.4byte	.LVL52
 4371 02a6 48000000 		.4byte	.LVL54
 4372 02aa 0100     		.2byte	0x1
 4373 02ac 51       		.byte	0x51
 4374 02ad 48000000 		.4byte	.LVL54
 4375 02b1 68000000 		.4byte	.LFE265
 4376 02b5 0400     		.2byte	0x4
 4377 02b7 F3       		.byte	0xf3
 4378 02b8 01       		.uleb128 0x1
 4379 02b9 51       		.byte	0x51
 4380 02ba 9F       		.byte	0x9f
 4381 02bb 00000000 		.4byte	0
 4382 02bf 00000000 		.4byte	0
 4383              	.LLST11:
 4384 02c3 34000000 		.4byte	.LVL49
 4385 02c7 36000000 		.4byte	.LVL50
 4386 02cb 0600     		.2byte	0x6
 4387 02cd 03       		.byte	0x3
 4388 02ce DC000000 		.4byte	.LC7
 4389 02d2 9F       		.byte	0x9f
 4390 02d3 00000000 		.4byte	0
 4391 02d7 00000000 		.4byte	0
 4392              	.LLST12:
 4393 02db 00000000 		.4byte	.LVL56
 4394 02df 1A000000 		.4byte	.LVL57
ARM GAS  C:\Users\jo\AppData\Local\Temp\cctZeUuD.s 			page 79


 4395 02e3 0100     		.2byte	0x1
 4396 02e5 50       		.byte	0x50
 4397 02e6 1A000000 		.4byte	.LVL57
 4398 02ea 22000000 		.4byte	.LVL58
 4399 02ee 0400     		.2byte	0x4
 4400 02f0 F3       		.byte	0xf3
 4401 02f1 01       		.uleb128 0x1
 4402 02f2 50       		.byte	0x50
 4403 02f3 9F       		.byte	0x9f
 4404 02f4 22000000 		.4byte	.LVL58
 4405 02f8 24000000 		.4byte	.LVL59
 4406 02fc 0100     		.2byte	0x1
 4407 02fe 50       		.byte	0x50
 4408 02ff 24000000 		.4byte	.LVL59
 4409 0303 26000000 		.4byte	.LVL60
 4410 0307 0400     		.2byte	0x4
 4411 0309 F3       		.byte	0xf3
 4412 030a 01       		.uleb128 0x1
 4413 030b 50       		.byte	0x50
 4414 030c 9F       		.byte	0x9f
 4415 030d 26000000 		.4byte	.LVL60
 4416 0311 30000000 		.4byte	.LVL63
 4417 0315 0100     		.2byte	0x1
 4418 0317 50       		.byte	0x50
 4419 0318 30000000 		.4byte	.LVL63
 4420 031c 40000000 		.4byte	.LVL66
 4421 0320 0400     		.2byte	0x4
 4422 0322 F3       		.byte	0xf3
 4423 0323 01       		.uleb128 0x1
 4424 0324 50       		.byte	0x50
 4425 0325 9F       		.byte	0x9f
 4426 0326 40000000 		.4byte	.LVL66
 4427 032a 4A000000 		.4byte	.LVL69
 4428 032e 0100     		.2byte	0x1
 4429 0330 50       		.byte	0x50
 4430 0331 4A000000 		.4byte	.LVL69
 4431 0335 5A000000 		.4byte	.LVL72
 4432 0339 0400     		.2byte	0x4
 4433 033b F3       		.byte	0xf3
 4434 033c 01       		.uleb128 0x1
 4435 033d 50       		.byte	0x50
 4436 033e 9F       		.byte	0x9f
 4437 033f 5A000000 		.4byte	.LVL72
 4438 0343 64000000 		.4byte	.LVL75
 4439 0347 0100     		.2byte	0x1
 4440 0349 50       		.byte	0x50
 4441 034a 64000000 		.4byte	.LVL75
 4442 034e 8C000000 		.4byte	.LFE266
 4443 0352 0400     		.2byte	0x4
 4444 0354 F3       		.byte	0xf3
 4445 0355 01       		.uleb128 0x1
 4446 0356 50       		.byte	0x50
 4447 0357 9F       		.byte	0x9f
 4448 0358 00000000 		.4byte	0
 4449 035c 00000000 		.4byte	0
 4450              	.LLST13:
 4451 0360 00000000 		.4byte	.LVL56
ARM GAS  C:\Users\jo\AppData\Local\Temp\cctZeUuD.s 			page 80


 4452 0364 1A000000 		.4byte	.LVL57
 4453 0368 0100     		.2byte	0x1
 4454 036a 51       		.byte	0x51
 4455 036b 1A000000 		.4byte	.LVL57
 4456 036f 22000000 		.4byte	.LVL58
 4457 0373 0400     		.2byte	0x4
 4458 0375 F3       		.byte	0xf3
 4459 0376 01       		.uleb128 0x1
 4460 0377 51       		.byte	0x51
 4461 0378 9F       		.byte	0x9f
 4462 0379 22000000 		.4byte	.LVL58
 4463 037d 2C000000 		.4byte	.LVL61
 4464 0381 0100     		.2byte	0x1
 4465 0383 51       		.byte	0x51
 4466 0384 2C000000 		.4byte	.LVL61
 4467 0388 40000000 		.4byte	.LVL66
 4468 038c 0400     		.2byte	0x4
 4469 038e F3       		.byte	0xf3
 4470 038f 01       		.uleb128 0x1
 4471 0390 51       		.byte	0x51
 4472 0391 9F       		.byte	0x9f
 4473 0392 40000000 		.4byte	.LVL66
 4474 0396 46000000 		.4byte	.LVL67
 4475 039a 0100     		.2byte	0x1
 4476 039c 51       		.byte	0x51
 4477 039d 46000000 		.4byte	.LVL67
 4478 03a1 5A000000 		.4byte	.LVL72
 4479 03a5 0400     		.2byte	0x4
 4480 03a7 F3       		.byte	0xf3
 4481 03a8 01       		.uleb128 0x1
 4482 03a9 51       		.byte	0x51
 4483 03aa 9F       		.byte	0x9f
 4484 03ab 5A000000 		.4byte	.LVL72
 4485 03af 60000000 		.4byte	.LVL73
 4486 03b3 0100     		.2byte	0x1
 4487 03b5 51       		.byte	0x51
 4488 03b6 60000000 		.4byte	.LVL73
 4489 03ba 8C000000 		.4byte	.LFE266
 4490 03be 0400     		.2byte	0x4
 4491 03c0 F3       		.byte	0xf3
 4492 03c1 01       		.uleb128 0x1
 4493 03c2 51       		.byte	0x51
 4494 03c3 9F       		.byte	0x9f
 4495 03c4 00000000 		.4byte	0
 4496 03c8 00000000 		.4byte	0
 4497              	.LLST14:
 4498 03cc 00000000 		.4byte	.LVL56
 4499 03d0 1A000000 		.4byte	.LVL57
 4500 03d4 0100     		.2byte	0x1
 4501 03d6 52       		.byte	0x52
 4502 03d7 1A000000 		.4byte	.LVL57
 4503 03db 22000000 		.4byte	.LVL58
 4504 03df 0400     		.2byte	0x4
 4505 03e1 F3       		.byte	0xf3
 4506 03e2 01       		.uleb128 0x1
 4507 03e3 52       		.byte	0x52
 4508 03e4 9F       		.byte	0x9f
ARM GAS  C:\Users\jo\AppData\Local\Temp\cctZeUuD.s 			page 81


 4509 03e5 22000000 		.4byte	.LVL58
 4510 03e9 2E000000 		.4byte	.LVL62
 4511 03ed 0100     		.2byte	0x1
 4512 03ef 52       		.byte	0x52
 4513 03f0 2E000000 		.4byte	.LVL62
 4514 03f4 40000000 		.4byte	.LVL66
 4515 03f8 0400     		.2byte	0x4
 4516 03fa F3       		.byte	0xf3
 4517 03fb 01       		.uleb128 0x1
 4518 03fc 52       		.byte	0x52
 4519 03fd 9F       		.byte	0x9f
 4520 03fe 40000000 		.4byte	.LVL66
 4521 0402 48000000 		.4byte	.LVL68
 4522 0406 0100     		.2byte	0x1
 4523 0408 52       		.byte	0x52
 4524 0409 48000000 		.4byte	.LVL68
 4525 040d 5A000000 		.4byte	.LVL72
 4526 0411 0400     		.2byte	0x4
 4527 0413 F3       		.byte	0xf3
 4528 0414 01       		.uleb128 0x1
 4529 0415 52       		.byte	0x52
 4530 0416 9F       		.byte	0x9f
 4531 0417 5A000000 		.4byte	.LVL72
 4532 041b 62000000 		.4byte	.LVL74
 4533 041f 0100     		.2byte	0x1
 4534 0421 52       		.byte	0x52
 4535 0422 62000000 		.4byte	.LVL74
 4536 0426 8C000000 		.4byte	.LFE266
 4537 042a 0400     		.2byte	0x4
 4538 042c F3       		.byte	0xf3
 4539 042d 01       		.uleb128 0x1
 4540 042e 52       		.byte	0x52
 4541 042f 9F       		.byte	0x9f
 4542 0430 00000000 		.4byte	0
 4543 0434 00000000 		.4byte	0
 4544              	.LLST15:
 4545 0438 36000000 		.4byte	.LVL64
 4546 043c 40000000 		.4byte	.LVL66
 4547 0440 0600     		.2byte	0x6
 4548 0442 03       		.byte	0x3
 4549 0443 34010000 		.4byte	.LC10
 4550 0447 9F       		.byte	0x9f
 4551 0448 00000000 		.4byte	0
 4552 044c 00000000 		.4byte	0
 4553              	.LLST16:
 4554 0450 50000000 		.4byte	.LVL70
 4555 0454 5A000000 		.4byte	.LVL72
 4556 0458 0600     		.2byte	0x6
 4557 045a 03       		.byte	0x3
 4558 045b 14010000 		.4byte	.LC9
 4559 045f 9F       		.byte	0x9f
 4560 0460 00000000 		.4byte	0
 4561 0464 00000000 		.4byte	0
 4562              	.LLST17:
 4563 0468 00000000 		.4byte	.LVL78
 4564 046c 0C000000 		.4byte	.LVL79
 4565 0470 0100     		.2byte	0x1
ARM GAS  C:\Users\jo\AppData\Local\Temp\cctZeUuD.s 			page 82


 4566 0472 50       		.byte	0x50
 4567 0473 0C000000 		.4byte	.LVL79
 4568 0477 16000000 		.4byte	.LVL80
 4569 047b 0400     		.2byte	0x4
 4570 047d F3       		.byte	0xf3
 4571 047e 01       		.uleb128 0x1
 4572 047f 50       		.byte	0x50
 4573 0480 9F       		.byte	0x9f
 4574 0481 16000000 		.4byte	.LVL80
 4575 0485 18000000 		.4byte	.LVL81
 4576 0489 0100     		.2byte	0x1
 4577 048b 50       		.byte	0x50
 4578 048c 18000000 		.4byte	.LVL81
 4579 0490 1A000000 		.4byte	.LVL82
 4580 0494 0400     		.2byte	0x4
 4581 0496 F3       		.byte	0xf3
 4582 0497 01       		.uleb128 0x1
 4583 0498 50       		.byte	0x50
 4584 0499 9F       		.byte	0x9f
 4585 049a 1A000000 		.4byte	.LVL82
 4586 049e 28000000 		.4byte	.LVL83
 4587 04a2 0100     		.2byte	0x1
 4588 04a4 50       		.byte	0x50
 4589 04a5 28000000 		.4byte	.LVL83
 4590 04a9 50000000 		.4byte	.LFE267
 4591 04ad 0400     		.2byte	0x4
 4592 04af F3       		.byte	0xf3
 4593 04b0 01       		.uleb128 0x1
 4594 04b1 50       		.byte	0x50
 4595 04b2 9F       		.byte	0x9f
 4596 04b3 00000000 		.4byte	0
 4597 04b7 00000000 		.4byte	0
 4598              	.LLST18:
 4599 04bb 00000000 		.4byte	.LVL86
 4600 04bf 16000000 		.4byte	.LVL87
 4601 04c3 0100     		.2byte	0x1
 4602 04c5 50       		.byte	0x50
 4603 04c6 16000000 		.4byte	.LVL87
 4604 04ca 38000000 		.4byte	.LFE268
 4605 04ce 0400     		.2byte	0x4
 4606 04d0 F3       		.byte	0xf3
 4607 04d1 01       		.uleb128 0x1
 4608 04d2 50       		.byte	0x50
 4609 04d3 9F       		.byte	0x9f
 4610 04d4 00000000 		.4byte	0
 4611 04d8 00000000 		.4byte	0
 4612              		.section	.debug_aranges,"",%progbits
 4613 0000 64000000 		.4byte	0x64
 4614 0004 0200     		.2byte	0x2
 4615 0006 00000000 		.4byte	.Ldebug_info0
 4616 000a 04       		.byte	0x4
 4617 000b 00       		.byte	0
 4618 000c 0000     		.2byte	0
 4619 000e 0000     		.2byte	0
 4620 0010 00000000 		.4byte	.LFB269
 4621 0014 28000000 		.4byte	.LFE269-.LFB269
 4622 0018 00000000 		.4byte	.LFB260
ARM GAS  C:\Users\jo\AppData\Local\Temp\cctZeUuD.s 			page 83


 4623 001c 1C000000 		.4byte	.LFE260-.LFB260
 4624 0020 00000000 		.4byte	.LFB261
 4625 0024 1A000000 		.4byte	.LFE261-.LFB261
 4626 0028 00000000 		.4byte	.LFB262
 4627 002c 78000000 		.4byte	.LFE262-.LFB262
 4628 0030 00000000 		.4byte	.LFB263
 4629 0034 48000000 		.4byte	.LFE263-.LFB263
 4630 0038 00000000 		.4byte	.LFB264
 4631 003c 64000000 		.4byte	.LFE264-.LFB264
 4632 0040 00000000 		.4byte	.LFB265
 4633 0044 68000000 		.4byte	.LFE265-.LFB265
 4634 0048 00000000 		.4byte	.LFB266
 4635 004c 8C000000 		.4byte	.LFE266-.LFB266
 4636 0050 00000000 		.4byte	.LFB267
 4637 0054 50000000 		.4byte	.LFE267-.LFB267
 4638 0058 00000000 		.4byte	.LFB268
 4639 005c 38000000 		.4byte	.LFE268-.LFB268
 4640 0060 00000000 		.4byte	0
 4641 0064 00000000 		.4byte	0
 4642              		.section	.debug_ranges,"",%progbits
 4643              	.Ldebug_ranges0:
 4644 0000 2A000000 		.4byte	.LBB28
 4645 0004 2C000000 		.4byte	.LBE28
 4646 0008 32000000 		.4byte	.LBB31
 4647 000c 48000000 		.4byte	.LBE31
 4648 0010 00000000 		.4byte	0
 4649 0014 00000000 		.4byte	0
 4650 0018 34000000 		.4byte	.LBB34
 4651 001c 36000000 		.4byte	.LBE34
 4652 0020 3C000000 		.4byte	.LBB37
 4653 0024 40000000 		.4byte	.LBE37
 4654 0028 00000000 		.4byte	0
 4655 002c 00000000 		.4byte	0
 4656 0030 1C000000 		.4byte	.LBB48
 4657 0034 1E000000 		.4byte	.LBE48
 4658 0038 24000000 		.4byte	.LBB51
 4659 003c 38000000 		.4byte	.LBE51
 4660 0040 00000000 		.4byte	0
 4661 0044 00000000 		.4byte	0
 4662 0048 00000000 		.4byte	.LFB269
 4663 004c 28000000 		.4byte	.LFE269
 4664 0050 00000000 		.4byte	.LFB260
 4665 0054 1C000000 		.4byte	.LFE260
 4666 0058 00000000 		.4byte	.LFB261
 4667 005c 1A000000 		.4byte	.LFE261
 4668 0060 00000000 		.4byte	.LFB262
 4669 0064 78000000 		.4byte	.LFE262
 4670 0068 00000000 		.4byte	.LFB263
 4671 006c 48000000 		.4byte	.LFE263
 4672 0070 00000000 		.4byte	.LFB264
 4673 0074 64000000 		.4byte	.LFE264
 4674 0078 00000000 		.4byte	.LFB265
 4675 007c 68000000 		.4byte	.LFE265
 4676 0080 00000000 		.4byte	.LFB266
 4677 0084 8C000000 		.4byte	.LFE266
 4678 0088 00000000 		.4byte	.LFB267
 4679 008c 50000000 		.4byte	.LFE267
ARM GAS  C:\Users\jo\AppData\Local\Temp\cctZeUuD.s 			page 84


 4680 0090 00000000 		.4byte	.LFB268
 4681 0094 38000000 		.4byte	.LFE268
 4682 0098 00000000 		.4byte	0
 4683 009c 00000000 		.4byte	0
 4684              		.section	.debug_line,"",%progbits
 4685              	.Ldebug_line0:
 4686 0000 E5050000 		.section	.debug_str,"MS",%progbits,1
 4686      02009E03 
 4686      00000201 
 4686      FB0E0D00 
 4686      01010101 
 4687              	.LASF25:
 4688 0000 74726566 		.ascii	"trefs_t\000"
 4688      735F7400 
 4689              	.LASF145:
 4690 0008 70627566 		.ascii	"pbuf\000"
 4690      00
 4691              	.LASF92:
 4692 000d 73655F74 		.ascii	"se_time\000"
 4692      696D6500 
 4693              	.LASF1:
 4694 0015 73697A65 		.ascii	"size_t\000"
 4694      5F7400
 4695              	.LASF146:
 4696 001c 6E657874 		.ascii	"next\000"
 4696      00
 4697              	.LASF103:
 4698 0021 7264796D 		.ascii	"rdymsg\000"
 4698      736700
 4699              	.LASF21:
 4700 0028 75696E74 		.ascii	"uint64_t\000"
 4700      36345F74 
 4700      00
 4701              	.LASF4:
 4702 0031 5F5F7569 		.ascii	"__uint8_t\000"
 4702      6E74385F 
 4702      7400
 4703              	.LASF91:
 4704 003b 706F7274 		.ascii	"port_intctx\000"
 4704      5F696E74 
 4704      63747800 
 4705              	.LASF129:
 4706 0047 76615F6C 		.ascii	"va_list\000"
 4706      69737400 
 4707              	.LASF75:
 4708 004f 73797374 		.ascii	"system_debug_t\000"
 4708      656D5F64 
 4708      65627567 
 4708      5F7400
 4709              	.LASF149:
 4710 005e 74797065 		.ascii	"type\000"
 4710      00
 4711              	.LASF192:
 4712 0063 63685379 		.ascii	"chSysHalt\000"
 4712      7348616C 
 4712      7400
 4713              	.LASF15:
ARM GAS  C:\Users\jo\AppData\Local\Temp\cctZeUuD.s 			page 85


 4714 006d 6C6F6E67 		.ascii	"long long unsigned int\000"
 4714      206C6F6E 
 4714      6720756E 
 4714      7369676E 
 4714      65642069 
 4715              	.LASF171:
 4716 0084 666F726D 		.ascii	"formatted_bytes\000"
 4716      61747465 
 4716      645F6279 
 4716      74657300 
 4717              	.LASF172:
 4718 0094 6E657462 		.ascii	"netbuf_new\000"
 4718      75665F6E 
 4718      657700
 4719              	.LASF95:
 4720 009f 73655F73 		.ascii	"se_state\000"
 4720      74617465 
 4720      00
 4721              	.LASF104:
 4722 00a8 65786974 		.ascii	"exitcode\000"
 4722      636F6465 
 4722      00
 4723              	.LASF168:
 4724 00b1 4D454D50 		.ascii	"MEMP_PBUF_POOL\000"
 4724      5F504255 
 4724      465F504F 
 4724      4F4C00
 4725              	.LASF85:
 4726 00c0 6D61696E 		.ascii	"mainthread\000"
 4726      74687265 
 4726      616400
 4727              	.LASF159:
 4728 00cb 4D454D50 		.ascii	"MEMP_TCP_SEG\000"
 4728      5F544350 
 4728      5F534547 
 4728      00
 4729              	.LASF72:
 4730 00d8 76697274 		.ascii	"virtual_timers_list_t\000"
 4730      75616C5F 
 4730      74696D65 
 4730      72735F6C 
 4730      6973745F 
 4731              	.LASF2:
 4732 00ee 5F5F696E 		.ascii	"__int8_t\000"
 4732      74385F74 
 4732      00
 4733              	.LASF185:
 4734 00f7 49544D5F 		.ascii	"ITM_RxBuffer\000"
 4734      52784275 
 4734      66666572 
 4734      00
 4735              	.LASF191:
 4736 0104 66726565 		.ascii	"free\000"
 4736      00
 4737              	.LASF55:
 4738 0109 63685F74 		.ascii	"ch_threads_queue\000"
 4738      68726561 
ARM GAS  C:\Users\jo\AppData\Local\Temp\cctZeUuD.s 			page 86


 4738      64735F71 
 4738      75657565 
 4738      00
 4739              	.LASF34:
 4740 011a 705F7072 		.ascii	"p_prio\000"
 4740      696F00
 4741              	.LASF196:
 4742 0121 433A5C55 		.ascii	"C:\\Users\\jo\\Documents\\GitHub\\ChibiOS\\demos\\S"
 4742      73657273 
 4742      5C6A6F5C 
 4742      446F6375 
 4742      6D656E74 
 4743 014d 544D3332 		.ascii	"TM32\\RT-STM32F407-DISCOVERY-uHttp\000"
 4743      5C52542D 
 4743      53544D33 
 4743      32463430 
 4743      372D4449 
 4744              	.LASF13:
 4745 016f 6C6F6E67 		.ascii	"long long int\000"
 4745      206C6F6E 
 4745      6720696E 
 4745      7400
 4746              	.LASF3:
 4747 017d 7369676E 		.ascii	"signed char\000"
 4747      65642063 
 4747      68617200 
 4748              	.LASF12:
 4749 0189 6C6F6E67 		.ascii	"long unsigned int\000"
 4749      20756E73 
 4749      69676E65 
 4749      6420696E 
 4749      7400
 4750              	.LASF49:
 4751 019b 705F6D70 		.ascii	"p_mpool\000"
 4751      6F6F6C00 
 4752              	.LASF84:
 4753 01a3 76746C69 		.ascii	"vtlist\000"
 4753      737400
 4754              	.LASF148:
 4755 01aa 746F745F 		.ascii	"tot_len\000"
 4755      6C656E00 
 4756              	.LASF106:
 4757 01b2 77747472 		.ascii	"wttrp\000"
 4757      7000
 4758              	.LASF82:
 4759 01b8 63685F73 		.ascii	"ch_system\000"
 4759      79737465 
 4759      6D00
 4760              	.LASF10:
 4761 01c2 6C6F6E67 		.ascii	"long int\000"
 4761      20696E74 
 4761      00
 4762              	.LASF136:
 4763 01cb 50425546 		.ascii	"PBUF_IP\000"
 4763      5F495000 
 4764              	.LASF143:
 4765 01d3 50425546 		.ascii	"PBUF_POOL\000"
ARM GAS  C:\Users\jo\AppData\Local\Temp\cctZeUuD.s 			page 87


 4765      5F504F4F 
 4765      4C00
 4766              	.LASF24:
 4767 01dd 74737461 		.ascii	"tstate_t\000"
 4767      74655F74 
 4767      00
 4768              	.LASF142:
 4769 01e6 50425546 		.ascii	"PBUF_REF\000"
 4769      5F524546 
 4769      00
 4770              	.LASF93:
 4771 01ef 73655F74 		.ascii	"se_tp\000"
 4771      7000
 4772              	.LASF179:
 4773 01f5 6E657462 		.ascii	"netbuf_chain\000"
 4773      75665F63 
 4773      6861696E 
 4773      00
 4774              	.LASF180:
 4775 0202 68656164 		.ascii	"head\000"
 4775      00
 4776              	.LASF127:
 4777 0207 5F5F7661 		.ascii	"__va_list\000"
 4777      5F6C6973 
 4777      7400
 4778              	.LASF156:
 4779 0211 4D454D50 		.ascii	"MEMP_UDP_PCB\000"
 4779      5F554450 
 4779      5F504342 
 4779      00
 4780              	.LASF36:
 4781 021e 705F6E65 		.ascii	"p_newer\000"
 4781      77657200 
 4782              	.LASF111:
 4783 0226 735F7175 		.ascii	"s_queue\000"
 4783      65756500 
 4784              	.LASF184:
 4785 022e 6E657462 		.ascii	"netbuf_first\000"
 4785      75665F66 
 4785      69727374 
 4785      00
 4786              	.LASF176:
 4787 023b 6E657462 		.ascii	"netbuf_free\000"
 4787      75665F66 
 4787      72656500 
 4788              	.LASF97:
 4789 0247 74625F73 		.ascii	"tb_size\000"
 4789      697A6500 
 4790              	.LASF195:
 4791 024f 2E2E2F2E 		.ascii	"../../../ext/lwip/src/api/netbuf.c\000"
 4791      2E2F2E2E 
 4791      2F657874 
 4791      2F6C7769 
 4791      702F7372 
 4792              	.LASF61:
 4793 0272 725F6E65 		.ascii	"r_newer\000"
 4793      77657200 
ARM GAS  C:\Users\jo\AppData\Local\Temp\cctZeUuD.s 			page 88


 4794              	.LASF158:
 4795 027a 4D454D50 		.ascii	"MEMP_TCP_PCB_LISTEN\000"
 4795      5F544350 
 4795      5F504342 
 4795      5F4C4953 
 4795      54454E00 
 4796              	.LASF88:
 4797 028e 72656761 		.ascii	"regarm_t\000"
 4797      726D5F74 
 4797      00
 4798              	.LASF68:
 4799 0297 76745F70 		.ascii	"vt_prev\000"
 4799      72657600 
 4800              	.LASF155:
 4801 029f 706F7274 		.ascii	"port\000"
 4801      00
 4802              	.LASF118:
 4803 02a4 6D757465 		.ascii	"mutex_t\000"
 4803      785F7400 
 4804              	.LASF122:
 4805 02ac 42617365 		.ascii	"BaseSequentialStream\000"
 4805      53657175 
 4805      656E7469 
 4805      616C5374 
 4805      7265616D 
 4806              	.LASF173:
 4807 02c1 6E657462 		.ascii	"netbuf_alloc\000"
 4807      75665F61 
 4807      6C6C6F63 
 4807      00
 4808              	.LASF86:
 4809 02ce 69646C65 		.ascii	"idle_thread_wa\000"
 4809      5F746872 
 4809      6561645F 
 4809      776100
 4810              	.LASF29:
 4811 02dd 636E745F 		.ascii	"cnt_t\000"
 4811      7400
 4812              	.LASF160:
 4813 02e3 4D454D50 		.ascii	"MEMP_REASSDATA\000"
 4813      5F524541 
 4813      53534441 
 4813      544100
 4814              	.LASF39:
 4815 02f2 705F7374 		.ascii	"p_stklimit\000"
 4815      6B6C696D 
 4815      697400
 4816              	.LASF0:
 4817 02fd 756E7369 		.ascii	"unsigned int\000"
 4817      676E6564 
 4817      20696E74 
 4817      00
 4818              	.LASF130:
 4819 030a 75385F74 		.ascii	"u8_t\000"
 4819      00
 4820              	.LASF67:
 4821 030f 76745F6E 		.ascii	"vt_next\000"
ARM GAS  C:\Users\jo\AppData\Local\Temp\cctZeUuD.s 			page 89


 4821      65787400 
 4822              	.LASF18:
 4823 0317 75696E74 		.ascii	"uint16_t\000"
 4823      31365F74 
 4823      00
 4824              	.LASF144:
 4825 0320 70627566 		.ascii	"pbuf_type\000"
 4825      5F747970 
 4825      6500
 4826              	.LASF177:
 4827 032a 6E657462 		.ascii	"netbuf_ref\000"
 4827      75665F72 
 4827      656600
 4828              	.LASF107:
 4829 0335 77747365 		.ascii	"wtsemp\000"
 4829      6D7000
 4830              	.LASF167:
 4831 033c 4D454D50 		.ascii	"MEMP_PBUF\000"
 4831      5F504255 
 4831      4600
 4832              	.LASF44:
 4833 0346 705F6D73 		.ascii	"p_msgqueue\000"
 4833      67717565 
 4833      756500
 4834              	.LASF133:
 4835 0351 7533325F 		.ascii	"u32_t\000"
 4835      7400
 4836              	.LASF20:
 4837 0357 75696E74 		.ascii	"uint32_t\000"
 4837      33325F74 
 4837      00
 4838              	.LASF183:
 4839 0360 6E657462 		.ascii	"netbuf_next\000"
 4839      75665F6E 
 4839      65787400 
 4840              	.LASF157:
 4841 036c 4D454D50 		.ascii	"MEMP_TCP_PCB\000"
 4841      5F544350 
 4841      5F504342 
 4841      00
 4842              	.LASF112:
 4843 0379 735F636E 		.ascii	"s_cnt\000"
 4843      7400
 4844              	.LASF8:
 4845 037f 73686F72 		.ascii	"short unsigned int\000"
 4845      7420756E 
 4845      7369676E 
 4845      65642069 
 4845      6E7400
 4846              	.LASF52:
 4847 0392 63685F74 		.ascii	"ch_thread\000"
 4847      68726561 
 4847      6400
 4848              	.LASF165:
 4849 039c 4D454D50 		.ascii	"MEMP_TCPIP_MSG_INPKT\000"
 4849      5F544350 
 4849      49505F4D 
ARM GAS  C:\Users\jo\AppData\Local\Temp\cctZeUuD.s 			page 90


 4849      53475F49 
 4849      4E504B54 
 4850              	.LASF27:
 4851 03b1 6D73675F 		.ascii	"msg_t\000"
 4851      7400
 4852              	.LASF81:
 4853 03b7 63685F73 		.ascii	"ch_system_t\000"
 4853      79737465 
 4853      6D5F7400 
 4854              	.LASF135:
 4855 03c3 50425546 		.ascii	"PBUF_TRANSPORT\000"
 4855      5F545241 
 4855      4E53504F 
 4855      525400
 4856              	.LASF23:
 4857 03d2 746D6F64 		.ascii	"tmode_t\000"
 4857      655F7400 
 4858              	.LASF57:
 4859 03da 63685F72 		.ascii	"ch_ready_list\000"
 4859      65616479 
 4859      5F6C6973 
 4859      7400
 4860              	.LASF28:
 4861 03e8 6576656E 		.ascii	"eventmask_t\000"
 4861      746D6173 
 4861      6B5F7400 
 4862              	.LASF9:
 4863 03f4 5F5F696E 		.ascii	"__int32_t\000"
 4863      7433325F 
 4863      7400
 4864              	.LASF134:
 4865 03fe 6572725F 		.ascii	"err_t\000"
 4865      7400
 4866              	.LASF194:
 4867 0404 474E5520 		.ascii	"GNU C 4.9.3 20141119 (release) [ARM/embedded-4_9-br"
 4867      4320342E 
 4867      392E3320 
 4867      32303134 
 4867      31313139 
 4868 0437 616E6368 		.ascii	"anch revision 218278] -mcpu=cortex-m4 -mno-thumb-in"
 4868      20726576 
 4868      6973696F 
 4868      6E203231 
 4868      38323738 
 4869 046a 74657277 		.ascii	"terwork -mthumb -ggdb -O2 -fomit-frame-pointer -fal"
 4869      6F726B20 
 4869      2D6D7468 
 4869      756D6220 
 4869      2D676764 
 4870 049d 69676E2D 		.ascii	"ign-functions=16 -ffunction-sections -fdata-section"
 4870      66756E63 
 4870      74696F6E 
 4870      733D3136 
 4870      202D6666 
 4871 04d0 73202D66 		.ascii	"s -fno-common\000"
 4871      6E6F2D63 
 4871      6F6D6D6F 
ARM GAS  C:\Users\jo\AppData\Local\Temp\cctZeUuD.s 			page 91


 4871      6E00
 4872              	.LASF89:
 4873 04de 73746B61 		.ascii	"stkalign_t\000"
 4873      6C69676E 
 4873      5F7400
 4874              	.LASF139:
 4875 04e9 70627566 		.ascii	"pbuf_layer\000"
 4875      5F6C6179 
 4875      657200
 4876              	.LASF197:
 4877 04f4 6F73616C 		.ascii	"osalSysHalt\000"
 4877      53797348 
 4877      616C7400 
 4878              	.LASF120:
 4879 0500 77726974 		.ascii	"write\000"
 4879      6500
 4880              	.LASF169:
 4881 0506 4D454D50 		.ascii	"MEMP_MAX\000"
 4881      5F4D4158 
 4881      00
 4882              	.LASF153:
 4883 050f 69705F61 		.ascii	"ip_addr_t\000"
 4883      6464725F 
 4883      7400
 4884              	.LASF43:
 4885 0519 705F7761 		.ascii	"p_waiting\000"
 4885      6974696E 
 4885      6700
 4886              	.LASF131:
 4887 0523 73385F74 		.ascii	"s8_t\000"
 4887      00
 4888              	.LASF181:
 4889 0528 7461696C 		.ascii	"tail\000"
 4889      00
 4890              	.LASF87:
 4891 052d 73697A65 		.ascii	"sizetype\000"
 4891      74797065 
 4891      00
 4892              	.LASF50:
 4893 0536 74687265 		.ascii	"thread_reference_t\000"
 4893      61645F72 
 4893      65666572 
 4893      656E6365 
 4893      5F7400
 4894              	.LASF73:
 4895 0549 63685F76 		.ascii	"ch_virtual_timers_list\000"
 4895      69727475 
 4895      616C5F74 
 4895      696D6572 
 4895      735F6C69 
 4896              	.LASF98:
 4897 0560 74625F70 		.ascii	"tb_ptr\000"
 4897      747200
 4898              	.LASF126:
 4899 0567 5F5F676E 		.ascii	"__gnuc_va_list\000"
 4899      75635F76 
 4899      615F6C69 
ARM GAS  C:\Users\jo\AppData\Local\Temp\cctZeUuD.s 			page 92


 4899      737400
 4900              	.LASF147:
 4901 0576 7061796C 		.ascii	"payload\000"
 4901      6F616400 
 4902              	.LASF96:
 4903 057e 63685F73 		.ascii	"ch_swc_event_t\000"
 4903      77635F65 
 4903      76656E74 
 4903      5F7400
 4904              	.LASF74:
 4905 058d 76745F6C 		.ascii	"vt_lasttime\000"
 4905      61737474 
 4905      696D6500 
 4906              	.LASF100:
 4907 0599 63685F74 		.ascii	"ch_trace_buffer_t\000"
 4907      72616365 
 4907      5F627566 
 4907      6665725F 
 4907      7400
 4908              	.LASF151:
 4909 05ab 69705F61 		.ascii	"ip_addr\000"
 4909      64647200 
 4910              	.LASF141:
 4911 05b3 50425546 		.ascii	"PBUF_ROM\000"
 4911      5F524F4D 
 4911      00
 4912              	.LASF60:
 4913 05bc 725F6374 		.ascii	"r_ctx\000"
 4913      7800
 4914              	.LASF102:
 4915 05c2 746D5F63 		.ascii	"tm_calibration_t\000"
 4915      616C6962 
 4915      72617469 
 4915      6F6E5F74 
 4915      00
 4916              	.LASF199:
 4917 05d3 70627566 		.ascii	"pbuf_cat\000"
 4917      5F636174 
 4917      00
 4918              	.LASF79:
 4919 05dc 6C6F636B 		.ascii	"lock_cnt\000"
 4919      5F636E74 
 4919      00
 4920              	.LASF63:
 4921 05e5 725F6375 		.ascii	"r_current\000"
 4921      7272656E 
 4921      7400
 4922              	.LASF62:
 4923 05ef 725F6F6C 		.ascii	"r_older\000"
 4923      64657200 
 4924              	.LASF14:
 4925 05f7 5F5F7569 		.ascii	"__uint64_t\000"
 4925      6E743634 
 4925      5F7400
 4926              	.LASF137:
 4927 0602 50425546 		.ascii	"PBUF_LINK\000"
 4927      5F4C494E 
ARM GAS  C:\Users\jo\AppData\Local\Temp\cctZeUuD.s 			page 93


 4927      4B00
 4928              	.LASF125:
 4929 060c 49544D53 		.ascii	"ITMStream\000"
 4929      74726561 
 4929      6D00
 4930              	.LASF99:
 4931 0616 74625F62 		.ascii	"tb_buffer\000"
 4931      75666665 
 4931      7200
 4932              	.LASF65:
 4933 0620 76697274 		.ascii	"virtual_timer_t\000"
 4933      75616C5F 
 4933      74696D65 
 4933      725F7400 
 4934              	.LASF33:
 4935 0630 705F7072 		.ascii	"p_prev\000"
 4935      657600
 4936              	.LASF26:
 4937 0637 74707269 		.ascii	"tprio_t\000"
 4937      6F5F7400 
 4938              	.LASF152:
 4939 063f 61646472 		.ascii	"addr\000"
 4939      00
 4940              	.LASF38:
 4941 0644 705F6E61 		.ascii	"p_name\000"
 4941      6D6500
 4942              	.LASF76:
 4943 064b 63685F73 		.ascii	"ch_system_debug\000"
 4943      79737465 
 4943      6D5F6465 
 4943      62756700 
 4944              	.LASF123:
 4945 065b 5F426F6F 		.ascii	"_Bool\000"
 4945      6C00
 4946              	.LASF19:
 4947 0661 696E7433 		.ascii	"int32_t\000"
 4947      325F7400 
 4948              	.LASF5:
 4949 0669 756E7369 		.ascii	"unsigned char\000"
 4949      676E6564 
 4949      20636861 
 4949      7200
 4950              	.LASF114:
 4951 0677 6D5F7175 		.ascii	"m_queue\000"
 4951      65756500 
 4952              	.LASF47:
 4953 067f 705F6D74 		.ascii	"p_mtxlist\000"
 4953      786C6973 
 4953      7400
 4954              	.LASF6:
 4955 0689 73686F72 		.ascii	"short int\000"
 4955      7420696E 
 4955      7400
 4956              	.LASF40:
 4957 0693 705F7374 		.ascii	"p_state\000"
 4957      61746500 
 4958              	.LASF154:
ARM GAS  C:\Users\jo\AppData\Local\Temp\cctZeUuD.s 			page 94


 4959 069b 6E657462 		.ascii	"netbuf\000"
 4959      756600
 4960              	.LASF37:
 4961 06a2 705F6F6C 		.ascii	"p_older\000"
 4961      64657200 
 4962              	.LASF59:
 4963 06aa 725F7072 		.ascii	"r_prio\000"
 4963      696F00
 4964              	.LASF109:
 4965 06b1 65776D61 		.ascii	"ewmask\000"
 4965      736B00
 4966              	.LASF32:
 4967 06b8 705F6E65 		.ascii	"p_next\000"
 4967      787400
 4968              	.LASF190:
 4969 06bf 70627566 		.ascii	"pbuf_free\000"
 4969      5F667265 
 4969      6500
 4970              	.LASF41:
 4971 06c9 705F666C 		.ascii	"p_flags\000"
 4971      61677300 
 4972              	.LASF189:
 4973 06d1 6D616C6C 		.ascii	"malloc\000"
 4973      6F6300
 4974              	.LASF140:
 4975 06d8 50425546 		.ascii	"PBUF_RAM\000"
 4975      5F52414D 
 4975      00
 4976              	.LASF170:
 4977 06e1 72656173 		.ascii	"reason\000"
 4977      6F6E00
 4978              	.LASF66:
 4979 06e8 63685F76 		.ascii	"ch_virtual_timer\000"
 4979      69727475 
 4979      616C5F74 
 4979      696D6572 
 4979      00
 4980              	.LASF161:
 4981 06f9 4D454D50 		.ascii	"MEMP_FRAG_PBUF\000"
 4981      5F465241 
 4981      475F5042 
 4981      554600
 4982              	.LASF110:
 4983 0708 63685F73 		.ascii	"ch_semaphore\000"
 4983      656D6170 
 4983      686F7265 
 4983      00
 4984              	.LASF138:
 4985 0715 50425546 		.ascii	"PBUF_RAW\000"
 4985      5F524157 
 4985      00
 4986              	.LASF46:
 4987 071e 705F6570 		.ascii	"p_epending\000"
 4987      656E6469 
 4987      6E6700
 4988              	.LASF166:
 4989 0729 4D454D50 		.ascii	"MEMP_SYS_TIMEOUT\000"
ARM GAS  C:\Users\jo\AppData\Local\Temp\cctZeUuD.s 			page 95


 4989      5F535953 
 4989      5F54494D 
 4989      454F5554 
 4989      00
 4990              	.LASF119:
 4991 073a 42617365 		.ascii	"BaseSequentialStreamVMT\000"
 4991      53657175 
 4991      656E7469 
 4991      616C5374 
 4991      7265616D 
 4992              	.LASF108:
 4993 0752 77746D74 		.ascii	"wtmtxp\000"
 4993      787000
 4994              	.LASF58:
 4995 0759 725F7175 		.ascii	"r_queue\000"
 4995      65756500 
 4996              	.LASF69:
 4997 0761 76745F64 		.ascii	"vt_delta\000"
 4997      656C7461 
 4997      00
 4998              	.LASF53:
 4999 076a 63685F74 		.ascii	"ch_threads_list\000"
 4999      68726561 
 4999      64735F6C 
 4999      69737400 
 5000              	.LASF164:
 5001 077a 4D454D50 		.ascii	"MEMP_TCPIP_MSG_API\000"
 5001      5F544350 
 5001      49505F4D 
 5001      53475F41 
 5001      504900
 5002              	.LASF121:
 5003 078d 72656164 		.ascii	"read\000"
 5003      00
 5004              	.LASF117:
 5005 0792 63686172 		.ascii	"char\000"
 5005      00
 5006              	.LASF178:
 5007 0797 64617461 		.ascii	"dataptr\000"
 5007      70747200 
 5008              	.LASF162:
 5009 079f 4D454D50 		.ascii	"MEMP_NETBUF\000"
 5009      5F4E4554 
 5009      42554600 
 5010              	.LASF7:
 5011 07ab 5F5F7569 		.ascii	"__uint16_t\000"
 5011      6E743136 
 5011      5F7400
 5012              	.LASF124:
 5013 07b6 49544D53 		.ascii	"ITMStreamVMT\000"
 5013      74726561 
 5013      6D564D54 
 5013      00
 5014              	.LASF163:
 5015 07c3 4D454D50 		.ascii	"MEMP_NETCONN\000"
 5015      5F4E4554 
 5015      434F4E4E 
ARM GAS  C:\Users\jo\AppData\Local\Temp\cctZeUuD.s 			page 96


 5015      00
 5016              	.LASF31:
 5017 07d0 74687265 		.ascii	"thread_t\000"
 5017      61645F74 
 5017      00
 5018              	.LASF116:
 5019 07d9 6D5F6E65 		.ascii	"m_next\000"
 5019      787400
 5020              	.LASF30:
 5021 07e0 73797374 		.ascii	"systime_t\000"
 5021      696D655F 
 5021      7400
 5022              	.LASF48:
 5023 07ea 705F7265 		.ascii	"p_realprio\000"
 5023      616C7072 
 5023      696F00
 5024              	.LASF64:
 5025 07f5 76746675 		.ascii	"vtfunc_t\000"
 5025      6E635F74 
 5025      00
 5026              	.LASF11:
 5027 07fe 5F5F7569 		.ascii	"__uint32_t\000"
 5027      6E743332 
 5027      5F7400
 5028              	.LASF193:
 5029 0809 70627566 		.ascii	"pbuf_alloc\000"
 5029      5F616C6C 
 5029      6F6300
 5030              	.LASF77:
 5031 0814 70616E69 		.ascii	"panic_msg\000"
 5031      635F6D73 
 5031      6700
 5032              	.LASF101:
 5033 081e 6F666673 		.ascii	"offset\000"
 5033      657400
 5034              	.LASF187:
 5035 0825 6D656D70 		.ascii	"memp_sizes\000"
 5035      5F73697A 
 5035      657300
 5036              	.LASF113:
 5037 0830 63685F6D 		.ascii	"ch_mutex\000"
 5037      75746578 
 5037      00
 5038              	.LASF128:
 5039 0839 5F5F6170 		.ascii	"__ap\000"
 5039      00
 5040              	.LASF90:
 5041 083e 636F6E74 		.ascii	"context\000"
 5041      65787400 
 5042              	.LASF22:
 5043 0846 7274636E 		.ascii	"rtcnt_t\000"
 5043      745F7400 
 5044              	.LASF16:
 5045 084e 696E7438 		.ascii	"int8_t\000"
 5045      5F7400
 5046              	.LASF71:
 5047 0855 76745F70 		.ascii	"vt_par\000"
ARM GAS  C:\Users\jo\AppData\Local\Temp\cctZeUuD.s 			page 97


 5047      617200
 5048              	.LASF132:
 5049 085c 7531365F 		.ascii	"u16_t\000"
 5049      7400
 5050              	.LASF56:
 5051 0862 72656164 		.ascii	"ready_list_t\000"
 5051      795F6C69 
 5051      73745F74 
 5051      00
 5052              	.LASF186:
 5053 086f 69746D5F 		.ascii	"itm_port\000"
 5053      706F7274 
 5053      00
 5054              	.LASF182:
 5055 0878 6E657462 		.ascii	"netbuf_data\000"
 5055      75665F64 
 5055      61746100 
 5056              	.LASF54:
 5057 0884 74687265 		.ascii	"threads_queue_t\000"
 5057      6164735F 
 5057      71756575 
 5057      655F7400 
 5058              	.LASF175:
 5059 0894 6E657462 		.ascii	"netbuf_delete\000"
 5059      75665F64 
 5059      656C6574 
 5059      6500
 5060              	.LASF42:
 5061 08a2 705F7265 		.ascii	"p_refs\000"
 5061      667300
 5062              	.LASF78:
 5063 08a9 6973725F 		.ascii	"isr_cnt\000"
 5063      636E7400 
 5064              	.LASF83:
 5065 08b1 726C6973 		.ascii	"rlist\000"
 5065      7400
 5066              	.LASF17:
 5067 08b7 75696E74 		.ascii	"uint8_t\000"
 5067      385F7400 
 5068              	.LASF188:
 5069 08bf 63687670 		.ascii	"chvprintf\000"
 5069      72696E74 
 5069      6600
 5070              	.LASF150:
 5071 08c9 666C6167 		.ascii	"flags\000"
 5071      7300
 5072              	.LASF105:
 5073 08cf 77746F62 		.ascii	"wtobjp\000"
 5073      6A7000
 5074              	.LASF174:
 5075 08d6 73697A65 		.ascii	"size\000"
 5075      00
 5076              	.LASF51:
 5077 08db 74687265 		.ascii	"threads_list_t\000"
 5077      6164735F 
 5077      6C697374 
 5077      5F7400
ARM GAS  C:\Users\jo\AppData\Local\Temp\cctZeUuD.s 			page 98


 5078              	.LASF80:
 5079 08ea 74726163 		.ascii	"trace_buffer\000"
 5079      655F6275 
 5079      66666572 
 5079      00
 5080              	.LASF45:
 5081 08f7 705F6D73 		.ascii	"p_msg\000"
 5081      6700
 5082              	.LASF115:
 5083 08fd 6D5F6F77 		.ascii	"m_owner\000"
 5083      6E657200 
 5084              	.LASF94:
 5085 0905 73655F77 		.ascii	"se_wtobjp\000"
 5085      746F626A 
 5085      7000
 5086              	.LASF35:
 5087 090f 705F6374 		.ascii	"p_ctx\000"
 5087      7800
 5088              	.LASF70:
 5089 0915 76745F66 		.ascii	"vt_func\000"
 5089      756E6300 
 5090              	.LASF198:
 5091 091d 63687072 		.ascii	"chprintf\000"
 5091      696E7466 
 5091      00
 5092              		.ident	"GCC: (GNU Tools for ARM Embedded Processors) 4.9.3 20141119 (release) [ARM/embedded-4_9-br
ARM GAS  C:\Users\jo\AppData\Local\Temp\cctZeUuD.s 			page 99


DEFINED SYMBOLS
                            *ABS*:00000000 netbuf.c
C:\Users\jo\AppData\Local\Temp\cctZeUuD.s:19     .text.chprintf.constprop.0:00000000 $t
C:\Users\jo\AppData\Local\Temp\cctZeUuD.s:24     .text.chprintf.constprop.0:00000000 chprintf.constprop.0
C:\Users\jo\AppData\Local\Temp\cctZeUuD.s:70     .text.chprintf.constprop.0:00000020 $d
C:\Users\jo\AppData\Local\Temp\cctZeUuD.s:76     .text.netbuf_new:00000000 $t
C:\Users\jo\AppData\Local\Temp\cctZeUuD.s:82     .text.netbuf_new:00000000 netbuf_new
C:\Users\jo\AppData\Local\Temp\cctZeUuD.s:115    .text.netbuf_new:00000018 $d
C:\Users\jo\AppData\Local\Temp\cctZeUuD.s:120    .text.netbuf_delete:00000000 $t
C:\Users\jo\AppData\Local\Temp\cctZeUuD.s:126    .text.netbuf_delete:00000000 netbuf_delete
C:\Users\jo\AppData\Local\Temp\cctZeUuD.s:166    .text.netbuf_alloc:00000000 $t
C:\Users\jo\AppData\Local\Temp\cctZeUuD.s:172    .text.netbuf_alloc:00000000 netbuf_alloc
C:\Users\jo\AppData\Local\Temp\cctZeUuD.s:275    .text.netbuf_alloc:00000064 $d
C:\Users\jo\AppData\Local\Temp\cctZeUuD.s:284    .text.netbuf_free:00000000 $t
C:\Users\jo\AppData\Local\Temp\cctZeUuD.s:290    .text.netbuf_free:00000000 netbuf_free
C:\Users\jo\AppData\Local\Temp\cctZeUuD.s:362    .text.netbuf_free:00000038 $d
C:\Users\jo\AppData\Local\Temp\cctZeUuD.s:372    .text.netbuf_ref:00000000 $t
C:\Users\jo\AppData\Local\Temp\cctZeUuD.s:378    .text.netbuf_ref:00000000 netbuf_ref
C:\Users\jo\AppData\Local\Temp\cctZeUuD.s:471    .text.netbuf_ref:00000054 $d
C:\Users\jo\AppData\Local\Temp\cctZeUuD.s:479    .text.netbuf_chain:00000000 $t
C:\Users\jo\AppData\Local\Temp\cctZeUuD.s:485    .text.netbuf_chain:00000000 netbuf_chain
C:\Users\jo\AppData\Local\Temp\cctZeUuD.s:593    .text.netbuf_chain:00000054 $d
C:\Users\jo\AppData\Local\Temp\cctZeUuD.s:604    .text.netbuf_data:00000000 $t
C:\Users\jo\AppData\Local\Temp\cctZeUuD.s:610    .text.netbuf_data:00000000 netbuf_data
C:\Users\jo\AppData\Local\Temp\cctZeUuD.s:734    .text.netbuf_data:00000074 $d
C:\Users\jo\AppData\Local\Temp\cctZeUuD.s:744    .text.netbuf_next:00000000 $t
C:\Users\jo\AppData\Local\Temp\cctZeUuD.s:750    .text.netbuf_next:00000000 netbuf_next
C:\Users\jo\AppData\Local\Temp\cctZeUuD.s:818    .text.netbuf_next:00000040 $d
C:\Users\jo\AppData\Local\Temp\cctZeUuD.s:826    .text.netbuf_first:00000000 $t
C:\Users\jo\AppData\Local\Temp\cctZeUuD.s:832    .text.netbuf_first:00000000 netbuf_first
C:\Users\jo\AppData\Local\Temp\cctZeUuD.s:883    .text.netbuf_first:00000028 $d
C:\Users\jo\AppData\Local\Temp\cctZeUuD.s:893    .rodata.str1.4:00000000 $d
                     .debug_frame:00000010 $d
C:\Users\jo\AppData\Local\Temp\cctZeUuD.s:75     .text.chprintf.constprop.0:00000028 $t
C:\Users\jo\AppData\Local\Temp\cctZeUuD.s:5092   .text.netbuf_new:0000001c $t
C:\Users\jo\AppData\Local\Temp\cctZeUuD.s:283    .text.netbuf_alloc:00000078 $t
C:\Users\jo\AppData\Local\Temp\cctZeUuD.s:371    .text.netbuf_free:00000048 $t
C:\Users\jo\AppData\Local\Temp\cctZeUuD.s:478    .text.netbuf_ref:00000064 $t
C:\Users\jo\AppData\Local\Temp\cctZeUuD.s:603    .text.netbuf_chain:00000068 $t
C:\Users\jo\AppData\Local\Temp\cctZeUuD.s:743    .text.netbuf_data:0000008c $t
C:\Users\jo\AppData\Local\Temp\cctZeUuD.s:892    .text.netbuf_first:00000038 $t

UNDEFINED SYMBOLS
chvprintf
itm_port
malloc
memp_sizes
pbuf_free
free
pbuf_alloc
chSysHalt
pbuf_cat
