ARM GAS  C:\Users\jo\AppData\Local\Temp\ccyHEgsy.s 			page 1


   1              		.syntax unified
   2              		.cpu cortex-m4
   3              		.fpu softvfp
   4              		.eabi_attribute 20, 1
   5              		.eabi_attribute 21, 1
   6              		.eabi_attribute 23, 3
   7              		.eabi_attribute 24, 1
   8              		.eabi_attribute 25, 1
   9              		.eabi_attribute 26, 1
  10              		.eabi_attribute 30, 2
  11              		.eabi_attribute 34, 1
  12              		.eabi_attribute 18, 4
  13              		.thumb
  14              		.file	"pal.c"
  15              		.text
  16              	.Ltext0:
  17              		.cfi_sections	.debug_frame
  18              		.section	.text.palReadBus,"ax",%progbits
  19              		.align	2
  20              		.p2align 4,,15
  21              		.global	palReadBus
  22              		.thumb
  23              		.thumb_func
  24              		.type	palReadBus, %function
  25              	palReadBus:
  26              	.LFB259:
  27              		.file 1 "../../../os/hal/src/pal.c"
  28              		.loc 1 65 0
  29              		.cfi_startproc
  30              		@ args = 0, pretend = 0, frame = 0
  31              		@ frame_needed = 0, uses_anonymous_args = 0
  32              	.LVL0:
  33 0000 10B5     		push	{r4, lr}
  34              		.cfi_def_cfa_offset 8
  35              		.cfi_offset 4, -8
  36              		.cfi_offset 14, -4
  37              		.loc 1 67 0
  38 0002 0446     		mov	r4, r0
  39 0004 10B1     		cbz	r0, .L2
  40              		.loc 1 67 0 is_stmt 0 discriminator 3
  41 0006 8368     		ldr	r3, [r0, #8]
  42 0008 0F2B     		cmp	r3, #15
  43 000a 03D9     		bls	.L3
  44              	.L2:
  45              		.loc 1 67 0 discriminator 4
  46 000c 0448     		ldr	r0, .L9
  47              	.LVL1:
  48 000e FFF7FEFF 		bl	chSysHalt
  49              	.LVL2:
  50 0012 A368     		ldr	r3, [r4, #8]
  51              	.L3:
  52              		.loc 1 69 0 is_stmt 1
  53 0014 94E80600 		ldmia	r4, {r1, r2}
  54 0018 0869     		ldr	r0, [r1, #16]
  55 001a D840     		lsrs	r0, r0, r3
  56              		.loc 1 70 0
  57 001c 1040     		ands	r0, r0, r2
ARM GAS  C:\Users\jo\AppData\Local\Temp\ccyHEgsy.s 			page 2


  58 001e 10BD     		pop	{r4, pc}
  59              	.LVL3:
  60              	.L10:
  61              		.align	2
  62              	.L9:
  63 0020 00000000 		.word	.LANCHOR0
  64              		.cfi_endproc
  65              	.LFE259:
  66              		.size	palReadBus, .-palReadBus
  67 0024 AFF30080 		.section	.text.palWriteBus,"ax",%progbits
  67      AFF30080 
  67      AFF30080 
  68              		.align	2
  69              		.p2align 4,,15
  70              		.global	palWriteBus
  71              		.thumb
  72              		.thumb_func
  73              		.type	palWriteBus, %function
  74              	palWriteBus:
  75              	.LFB260:
  76              		.loc 1 90 0
  77              		.cfi_startproc
  78              		@ args = 0, pretend = 0, frame = 0
  79              		@ frame_needed = 0, uses_anonymous_args = 0
  80              	.LVL4:
  81 0000 38B5     		push	{r3, r4, r5, lr}
  82              		.cfi_def_cfa_offset 16
  83              		.cfi_offset 3, -16
  84              		.cfi_offset 4, -12
  85              		.cfi_offset 5, -8
  86              		.cfi_offset 14, -4
  87              		.loc 1 90 0
  88 0002 0D46     		mov	r5, r1
  89              		.loc 1 92 0
  90 0004 0446     		mov	r4, r0
  91 0006 10B1     		cbz	r0, .L12
  92              		.loc 1 92 0 is_stmt 0 discriminator 3
  93 0008 8268     		ldr	r2, [r0, #8]
  94 000a 0F2A     		cmp	r2, #15
  95 000c 03D9     		bls	.L13
  96              	.L12:
  97              		.loc 1 92 0 discriminator 4
  98 000e 0948     		ldr	r0, .L18
  99              	.LVL5:
 100 0010 FFF7FEFF 		bl	chSysHalt
 101              	.LVL6:
 102 0014 A268     		ldr	r2, [r4, #8]
 103              	.L13:
 104              		.loc 1 94 0 is_stmt 1
 105 0016 6368     		ldr	r3, [r4, #4]
 106 0018 2468     		ldr	r4, [r4]
 107              	.LVL7:
 108 001a 23EA0500 		bic	r0, r3, r5
 109 001e 2B40     		ands	r3, r3, r5
 110 0020 02F11005 		add	r5, r2, #16
 111              	.LVL8:
 112 0024 03FA02F1 		lsl	r1, r3, r2
ARM GAS  C:\Users\jo\AppData\Local\Temp\ccyHEgsy.s 			page 3


 113 0028 00FA05F3 		lsl	r3, r0, r5
 114 002c 0B43     		orrs	r3, r3, r1
 115 002e A361     		str	r3, [r4, #24]
 116 0030 38BD     		pop	{r3, r4, r5, pc}
 117              	.L19:
 118 0032 00BF     		.align	2
 119              	.L18:
 120 0034 00000000 		.word	.LANCHOR1
 121              		.cfi_endproc
 122              	.LFE260:
 123              		.size	palWriteBus, .-palWriteBus
 124 0038 AFF30080 		.section	.text.palSetBusMode,"ax",%progbits
 124      AFF30080 
 125              		.align	2
 126              		.p2align 4,,15
 127              		.global	palSetBusMode
 128              		.thumb
 129              		.thumb_func
 130              		.type	palSetBusMode, %function
 131              	palSetBusMode:
 132              	.LFB261:
 133              		.loc 1 113 0
 134              		.cfi_startproc
 135              		@ args = 0, pretend = 0, frame = 0
 136              		@ frame_needed = 0, uses_anonymous_args = 0
 137              	.LVL9:
 138 0000 58B5     		push	{r3, r4, r6, lr}
 139              		.cfi_def_cfa_offset 16
 140              		.cfi_offset 3, -16
 141              		.cfi_offset 4, -12
 142              		.cfi_offset 6, -8
 143              		.cfi_offset 14, -4
 144              		.loc 1 113 0
 145 0002 0E46     		mov	r6, r1
 146              		.loc 1 115 0
 147 0004 0446     		mov	r4, r0
 148 0006 10B1     		cbz	r0, .L21
 149              		.loc 1 115 0 is_stmt 0 discriminator 3
 150 0008 8368     		ldr	r3, [r0, #8]
 151 000a 0F2B     		cmp	r3, #15
 152 000c 03D9     		bls	.L22
 153              	.L21:
 154              		.loc 1 115 0 discriminator 4
 155 000e 0648     		ldr	r0, .L27
 156              	.LVL10:
 157 0010 FFF7FEFF 		bl	chSysHalt
 158              	.LVL11:
 159 0014 A368     		ldr	r3, [r4, #8]
 160              	.L22:
 161              		.loc 1 117 0 is_stmt 1
 162 0016 94E80300 		ldmia	r4, {r0, r1}
 163 001a 3246     		mov	r2, r6
 164 001c 9940     		lsls	r1, r1, r3
 165              		.loc 1 118 0
 166 001e BDE85840 		pop	{r3, r4, r6, lr}
 167              		.cfi_restore 14
 168              		.cfi_restore 6
ARM GAS  C:\Users\jo\AppData\Local\Temp\ccyHEgsy.s 			page 4


 169              		.cfi_restore 4
 170              		.cfi_restore 3
 171              		.cfi_def_cfa_offset 0
 172              	.LVL12:
 173              		.loc 1 117 0
 174 0022 FFF7FEBF 		b	_pal_lld_setgroupmode
 175              	.LVL13:
 176              	.L28:
 177 0026 00BF     		.align	2
 178              	.L27:
 179 0028 00000000 		.word	.LANCHOR2
 180              		.cfi_endproc
 181              	.LFE261:
 182              		.size	palSetBusMode, .-palSetBusMode
 183 002c AFF30080 		.section	.rodata.__func__.7514,"a",%progbits
 184              		.align	2
 185              		.set	.LANCHOR2,. + 0
 186              		.type	__func__.7514, %object
 187              		.size	__func__.7514, 14
 188              	__func__.7514:
 189 0000 70616C53 		.ascii	"palSetBusMode\000"
 189      65744275 
 189      734D6F64 
 189      6500
 190 000e 0000     		.section	.rodata.__func__.7504,"a",%progbits
 191              		.align	2
 192              		.set	.LANCHOR0,. + 0
 193              		.type	__func__.7504, %object
 194              		.size	__func__.7504, 11
 195              	__func__.7504:
 196 0000 70616C52 		.ascii	"palReadBus\000"
 196      65616442 
 196      757300
 197 000b 00       		.section	.rodata.__func__.7509,"a",%progbits
 198              		.align	2
 199              		.set	.LANCHOR1,. + 0
 200              		.type	__func__.7509, %object
 201              		.size	__func__.7509, 12
 202              	__func__.7509:
 203 0000 70616C57 		.ascii	"palWriteBus\000"
 203      72697465 
 203      42757300 
 204              		.text
 205              	.Letext0:
 206              		.file 2 "c:\\program files\\gnu tools arm embedded\\4.9 2014q4\\arm-none-eabi\\include\\machine\\_
 207              		.file 3 "c:\\program files\\gnu tools arm embedded\\4.9 2014q4\\arm-none-eabi\\include\\stdint.h"
 208              		.file 4 "../../../os/rt/ports/ARMCMx/compilers/GCC/chtypes.h"
 209              		.file 5 "../../../os/rt/include/chsystypes.h"
 210              		.file 6 "../../../os/rt/include/chschd.h"
 211              		.file 7 "../../../os/rt/ports/ARMCMx/chcore.h"
 212              		.file 8 "../../../os/rt/ports/ARMCMx/chcore_v7m.h"
 213              		.file 9 "../../../os/rt/include/chdebug.h"
 214              		.file 10 "../../../os/rt/include/chtm.h"
 215              		.file 11 "../../../os/rt/include/chsem.h"
 216              		.file 12 "../../../os/rt/include/chmtx.h"
 217              		.file 13 "../../../os/hal/ports/STM32/LLD/GPIOv2/pal_lld.h"
 218              		.file 14 "../../../os/hal/include/pal.h"
ARM GAS  C:\Users\jo\AppData\Local\Temp\ccyHEgsy.s 			page 5


 219              		.file 15 "../../../os/ext/CMSIS/include/core_cm4.h"
 220              		.file 16 "../../../os/rt/include/chsys.h"