ARM GAS  C:\Users\jo\AppData\Local\Temp\cc5axC9B.s 			page 1


   1              		.syntax unified
   2              		.cpu cortex-m4
   3              		.fpu softvfp
   4              		.eabi_attribute 20, 1
   5              		.eabi_attribute 21, 1
   6              		.eabi_attribute 23, 3
   7              		.eabi_attribute 24, 1
   8              		.eabi_attribute 25, 1
   9              		.eabi_attribute 26, 1
  10              		.eabi_attribute 30, 2
  11              		.eabi_attribute 34, 1
  12              		.eabi_attribute 18, 4
  13              		.thumb
  14              		.file	"pal_lld.c"
  15              		.text
  16              	.Ltext0:
  17              		.cfi_sections	.debug_frame
  18              		.section	.text._pal_lld_init,"ax",%progbits
  19              		.align	2
  20              		.p2align 4,,15
  21              		.global	_pal_lld_init
  22              		.thumb
  23              		.thumb_func
  24              		.type	_pal_lld_init, %function
  25              	_pal_lld_init:
  26              	.LFB260:
  27              		.file 1 "../../../os/hal/ports/STM32/LLD/GPIOv2/pal_lld.c"
  28              		.loc 1 92 0
  29              		.cfi_startproc
  30              		@ args = 0, pretend = 0, frame = 0
  31              		@ frame_needed = 0, uses_anonymous_args = 0
  32              	.LVL0:
  33 0000 2DE9F04F 		push	{r4, r5, r6, r7, r8, r9, r10, fp, lr}
  34              		.cfi_def_cfa_offset 36
  35              		.cfi_offset 4, -36
  36              		.cfi_offset 5, -32
  37              		.cfi_offset 6, -28
  38              		.cfi_offset 7, -24
  39              		.cfi_offset 8, -20
  40              		.cfi_offset 9, -16
  41              		.cfi_offset 10, -12
  42              		.cfi_offset 11, -8
  43              		.cfi_offset 14, -4
  44              		.loc 1 105 0
  45 0004 DFF8B481 		ldr	r8, .L3+24
  46              	.LBB20:
  47              	.LBB21:
  48              		.loc 1 67 0
  49 0008 DFF8B4C1 		ldr	ip, .L3+28
  50              	.LBE21:
  51              	.LBE20:
  52              		.loc 1 105 0
  53 000c D8F830A0 		ldr	r10, [r8, #48]
  54              	.LBB23:
  55              	.LBB24:
  56              		.loc 1 67 0
  57 0010 DFF8B0E1 		ldr	lr, .L3+32
ARM GAS  C:\Users\jo\AppData\Local\Temp\cc5axC9B.s 			page 2


  58              	.LBE24:
  59              	.LBE23:
  60              	.LBB26:
  61              	.LBB27:
  62 0014 634F     		ldr	r7, .L3
  63              	.LBE27:
  64              	.LBE26:
  65              	.LBB29:
  66              	.LBB30:
  67 0016 644E     		ldr	r6, .L3+4
  68              	.LBE30:
  69              	.LBE29:
  70              	.LBB32:
  71              	.LBB33:
  72 0018 644D     		ldr	r5, .L3+8
  73              	.LBE33:
  74              	.LBE32:
  75              	.LBB35:
  76              	.LBB36:
  77 001a 654C     		ldr	r4, .L3+12
  78              	.LBE36:
  79              	.LBE35:
  80              	.LBB38:
  81              	.LBB39:
  82 001c 6549     		ldr	r1, .L3+16
  83              	.LBE39:
  84              	.LBE38:
  85              	.LBB41:
  86              	.LBB42:
  87 001e 664A     		ldr	r2, .L3+20
  88              	.LBE42:
  89              	.LBE41:
  90              	.LBB44:
  91              	.LBB45:
  92 0020 DFF8A4B1 		ldr	fp, .L3+36
  93              	.LBE45:
  94              	.LBE44:
  95              		.loc 1 105 0
  96 0024 40F2FF19 		movw	r9, #511
  97 0028 4AEA090A 		orr	r10, r10, r9
  98 002c C8F830A0 		str	r10, [r8, #48]
  99              		.loc 1 106 0
 100 0030 D8F850A0 		ldr	r10, [r8, #80]
 101 0034 4AEA0909 		orr	r9, r10, r9
 102 0038 C8F85090 		str	r9, [r8, #80]
 103              	.LVL1:
 104              	.LBB47:
 105              	.LBB22:
 106              		.loc 1 67 0
 107 003c 4368     		ldr	r3, [r0, #4]
 108 003e CCF80430 		str	r3, [ip, #4]
 109              		.loc 1 68 0
 110 0042 8368     		ldr	r3, [r0, #8]
 111 0044 CCF80830 		str	r3, [ip, #8]
 112              		.loc 1 69 0
 113 0048 C368     		ldr	r3, [r0, #12]
 114 004a CCF80C30 		str	r3, [ip, #12]
ARM GAS  C:\Users\jo\AppData\Local\Temp\cc5axC9B.s 			page 3


 115              		.loc 1 70 0
 116 004e 0369     		ldr	r3, [r0, #16]
 117 0050 CCF81430 		str	r3, [ip, #20]
 118              		.loc 1 71 0
 119 0054 4369     		ldr	r3, [r0, #20]
 120 0056 CCF82030 		str	r3, [ip, #32]
 121              		.loc 1 72 0
 122 005a 8369     		ldr	r3, [r0, #24]
 123 005c CCF82430 		str	r3, [ip, #36]
 124              		.loc 1 73 0
 125 0060 0368     		ldr	r3, [r0]
 126 0062 CCF80030 		str	r3, [ip]
 127              	.LVL2:
 128              	.LBE22:
 129              	.LBE47:
 130              	.LBB48:
 131              	.LBB25:
 132              		.loc 1 67 0
 133 0066 036A     		ldr	r3, [r0, #32]
 134 0068 CEF80430 		str	r3, [lr, #4]
 135              		.loc 1 68 0
 136 006c 436A     		ldr	r3, [r0, #36]
 137 006e CEF80830 		str	r3, [lr, #8]
 138              		.loc 1 69 0
 139 0072 836A     		ldr	r3, [r0, #40]
 140 0074 CEF80C30 		str	r3, [lr, #12]
 141              		.loc 1 70 0
 142 0078 C36A     		ldr	r3, [r0, #44]
 143 007a CEF81430 		str	r3, [lr, #20]
 144              		.loc 1 71 0
 145 007e 036B     		ldr	r3, [r0, #48]
 146 0080 CEF82030 		str	r3, [lr, #32]
 147              		.loc 1 72 0
 148 0084 436B     		ldr	r3, [r0, #52]
 149 0086 CEF82430 		str	r3, [lr, #36]
 150              		.loc 1 73 0
 151 008a C369     		ldr	r3, [r0, #28]
 152 008c CEF80030 		str	r3, [lr]
 153              	.LVL3:
 154              	.LBE25:
 155              	.LBE48:
 156              	.LBB49:
 157              	.LBB28:
 158              		.loc 1 67 0
 159 0090 C36B     		ldr	r3, [r0, #60]
 160 0092 7B60     		str	r3, [r7, #4]
 161              		.loc 1 68 0
 162 0094 036C     		ldr	r3, [r0, #64]
 163 0096 BB60     		str	r3, [r7, #8]
 164              		.loc 1 69 0
 165 0098 436C     		ldr	r3, [r0, #68]
 166 009a FB60     		str	r3, [r7, #12]
 167              		.loc 1 70 0
 168 009c 836C     		ldr	r3, [r0, #72]
 169 009e 7B61     		str	r3, [r7, #20]
 170              		.loc 1 71 0
 171 00a0 C36C     		ldr	r3, [r0, #76]
ARM GAS  C:\Users\jo\AppData\Local\Temp\cc5axC9B.s 			page 4


 172 00a2 3B62     		str	r3, [r7, #32]
 173              		.loc 1 72 0
 174 00a4 036D     		ldr	r3, [r0, #80]
 175 00a6 7B62     		str	r3, [r7, #36]
 176              		.loc 1 73 0
 177 00a8 836B     		ldr	r3, [r0, #56]
 178 00aa 3B60     		str	r3, [r7]
 179              	.LVL4:
 180              	.LBE28:
 181              	.LBE49:
 182              	.LBB50:
 183              	.LBB31:
 184              		.loc 1 67 0
 185 00ac 876D     		ldr	r7, [r0, #88]
 186 00ae 7760     		str	r7, [r6, #4]
 187              		.loc 1 68 0
 188 00b0 C76D     		ldr	r7, [r0, #92]
 189 00b2 B760     		str	r7, [r6, #8]
 190              		.loc 1 69 0
 191 00b4 076E     		ldr	r7, [r0, #96]
 192 00b6 F760     		str	r7, [r6, #12]
 193              		.loc 1 70 0
 194 00b8 476E     		ldr	r7, [r0, #100]
 195 00ba 7761     		str	r7, [r6, #20]
 196              		.loc 1 71 0
 197 00bc 876E     		ldr	r7, [r0, #104]
 198 00be 3762     		str	r7, [r6, #32]
 199              		.loc 1 72 0
 200 00c0 C76E     		ldr	r7, [r0, #108]
 201 00c2 7762     		str	r7, [r6, #36]
 202              		.loc 1 73 0
 203 00c4 476D     		ldr	r7, [r0, #84]
 204 00c6 3760     		str	r7, [r6]
 205              	.LVL5:
 206              	.LBE31:
 207              	.LBE50:
 208              	.LBB51:
 209              	.LBB34:
 210              		.loc 1 67 0
 211 00c8 466F     		ldr	r6, [r0, #116]
 212 00ca 6E60     		str	r6, [r5, #4]
 213              		.loc 1 68 0
 214 00cc 866F     		ldr	r6, [r0, #120]
 215 00ce AE60     		str	r6, [r5, #8]
 216              		.loc 1 69 0
 217 00d0 C66F     		ldr	r6, [r0, #124]
 218 00d2 EE60     		str	r6, [r5, #12]
 219              		.loc 1 70 0
 220 00d4 D0F88060 		ldr	r6, [r0, #128]
 221 00d8 6E61     		str	r6, [r5, #20]
 222              		.loc 1 71 0
 223 00da D0F88460 		ldr	r6, [r0, #132]
 224 00de 2E62     		str	r6, [r5, #32]
 225              		.loc 1 72 0
 226 00e0 D0F88860 		ldr	r6, [r0, #136]
 227 00e4 6E62     		str	r6, [r5, #36]
 228              		.loc 1 73 0
ARM GAS  C:\Users\jo\AppData\Local\Temp\cc5axC9B.s 			page 5


 229 00e6 066F     		ldr	r6, [r0, #112]
 230 00e8 2E60     		str	r6, [r5]
 231              	.LVL6:
 232              	.LBE34:
 233              	.LBE51:
 234              	.LBB52:
 235              	.LBB37:
 236              		.loc 1 67 0
 237 00ea D0F89050 		ldr	r5, [r0, #144]
 238 00ee 6560     		str	r5, [r4, #4]
 239              		.loc 1 68 0
 240 00f0 D0F89450 		ldr	r5, [r0, #148]
 241 00f4 A560     		str	r5, [r4, #8]
 242              		.loc 1 69 0
 243 00f6 D0F89850 		ldr	r5, [r0, #152]
 244 00fa E560     		str	r5, [r4, #12]
 245              		.loc 1 70 0
 246 00fc D0F89C50 		ldr	r5, [r0, #156]
 247 0100 6561     		str	r5, [r4, #20]
 248              		.loc 1 71 0
 249 0102 D0F8A050 		ldr	r5, [r0, #160]
 250 0106 2562     		str	r5, [r4, #32]
 251              		.loc 1 72 0
 252 0108 D0F8A450 		ldr	r5, [r0, #164]
 253 010c 6562     		str	r5, [r4, #36]
 254              		.loc 1 73 0
 255 010e D0F88C50 		ldr	r5, [r0, #140]
 256 0112 2560     		str	r5, [r4]
 257              	.LVL7:
 258              	.LBE37:
 259              	.LBE52:
 260              	.LBB53:
 261              	.LBB40:
 262              		.loc 1 67 0
 263 0114 D0F8AC40 		ldr	r4, [r0, #172]
 264 0118 4C60     		str	r4, [r1, #4]
 265              		.loc 1 68 0
 266 011a D0F8B040 		ldr	r4, [r0, #176]
 267 011e 8C60     		str	r4, [r1, #8]
 268              		.loc 1 69 0
 269 0120 D0F8B440 		ldr	r4, [r0, #180]
 270 0124 CC60     		str	r4, [r1, #12]
 271              		.loc 1 70 0
 272 0126 D0F8B840 		ldr	r4, [r0, #184]
 273 012a 4C61     		str	r4, [r1, #20]
 274              		.loc 1 71 0
 275 012c D0F8BC40 		ldr	r4, [r0, #188]
 276 0130 0C62     		str	r4, [r1, #32]
 277              		.loc 1 72 0
 278 0132 D0F8C040 		ldr	r4, [r0, #192]
 279 0136 4C62     		str	r4, [r1, #36]
 280              		.loc 1 73 0
 281 0138 D0F8A840 		ldr	r4, [r0, #168]
 282 013c 0C60     		str	r4, [r1]
 283              	.LVL8:
 284              	.LBE40:
 285              	.LBE53:
ARM GAS  C:\Users\jo\AppData\Local\Temp\cc5axC9B.s 			page 6


 286              	.LBB54:
 287              	.LBB43:
 288              		.loc 1 67 0
 289 013e D0F8C810 		ldr	r1, [r0, #200]
 290 0142 5160     		str	r1, [r2, #4]
 291              		.loc 1 68 0
 292 0144 D0F8CC10 		ldr	r1, [r0, #204]
 293 0148 9160     		str	r1, [r2, #8]
 294              		.loc 1 69 0
 295 014a D0F8D010 		ldr	r1, [r0, #208]
 296 014e D160     		str	r1, [r2, #12]
 297              		.loc 1 70 0
 298 0150 D0F8D410 		ldr	r1, [r0, #212]
 299 0154 5161     		str	r1, [r2, #20]
 300              		.loc 1 71 0
 301 0156 D0F8D810 		ldr	r1, [r0, #216]
 302 015a 1162     		str	r1, [r2, #32]
 303              		.loc 1 72 0
 304 015c D0F8DC10 		ldr	r1, [r0, #220]
 305 0160 5162     		str	r1, [r2, #36]
 306              		.loc 1 73 0
 307 0162 D0F8C410 		ldr	r1, [r0, #196]
 308 0166 1160     		str	r1, [r2]
 309              	.LVL9:
 310              	.LBE43:
 311              	.LBE54:
 312              	.LBB55:
 313              	.LBB46:
 314              		.loc 1 67 0
 315 0168 D0F8E420 		ldr	r2, [r0, #228]
 316 016c CBF80420 		str	r2, [fp, #4]
 317              		.loc 1 68 0
 318 0170 D0F8E820 		ldr	r2, [r0, #232]
 319 0174 CBF80820 		str	r2, [fp, #8]
 320              		.loc 1 69 0
 321 0178 D0F8EC20 		ldr	r2, [r0, #236]
 322 017c CBF80C20 		str	r2, [fp, #12]
 323              		.loc 1 70 0
 324 0180 D0F8F020 		ldr	r2, [r0, #240]
 325 0184 CBF81420 		str	r2, [fp, #20]
 326              		.loc 1 71 0
 327 0188 D0F8F420 		ldr	r2, [r0, #244]
 328 018c CBF82020 		str	r2, [fp, #32]
 329              		.loc 1 72 0
 330 0190 D0F8F820 		ldr	r2, [r0, #248]
 331 0194 CBF82420 		str	r2, [fp, #36]
 332              		.loc 1 73 0
 333 0198 D0F8E020 		ldr	r2, [r0, #224]
 334 019c CBF80020 		str	r2, [fp]
 335 01a0 BDE8F08F 		pop	{r4, r5, r6, r7, r8, r9, r10, fp, pc}
 336              	.L4:
 337              		.align	2
 338              	.L3:
 339 01a4 00080240 		.word	1073874944
 340 01a8 000C0240 		.word	1073875968
 341 01ac 00100240 		.word	1073876992
 342 01b0 00140240 		.word	1073878016
ARM GAS  C:\Users\jo\AppData\Local\Temp\cc5axC9B.s 			page 7


 343 01b4 00180240 		.word	1073879040
 344 01b8 001C0240 		.word	1073880064
 345 01bc 00380240 		.word	1073887232
 346 01c0 00000240 		.word	1073872896
 347 01c4 00040240 		.word	1073873920
 348 01c8 00200240 		.word	1073881088
 349              	.LBE46:
 350              	.LBE55:
 351              		.cfi_endproc
 352              	.LFE260:
 353              		.size	_pal_lld_init, .-_pal_lld_init
 354 01cc AFF30080 		.section	.text._pal_lld_setgroupmode,"ax",%progbits
 355              		.align	2
 356              		.p2align 4,,15
 357              		.global	_pal_lld_setgroupmode
 358              		.thumb
 359              		.thumb_func
 360              		.type	_pal_lld_setgroupmode, %function
 361              	_pal_lld_setgroupmode:
 362              	.LFB261:
 363              		.loc 1 157 0
 364              		.cfi_startproc
 365              		@ args = 0, pretend = 0, frame = 0
 366              		@ frame_needed = 0, uses_anonymous_args = 0
 367              	.LVL10:
 368 0000 2DE9F04F 		push	{r4, r5, r6, r7, r8, r9, r10, fp, lr}
 369              		.cfi_def_cfa_offset 36
 370              		.cfi_offset 4, -36
 371              		.cfi_offset 5, -32
 372              		.cfi_offset 6, -28
 373              		.cfi_offset 7, -24
 374              		.cfi_offset 8, -20
 375              		.cfi_offset 9, -16
 376              		.cfi_offset 10, -12
 377              		.cfi_offset 11, -8
 378              		.cfi_offset 14, -4
 379              	.LBB56:
 380              		.loc 1 170 0
 381 0004 4FF00F0C 		mov	ip, #15
 382              	.LBE56:
 383              		.loc 1 159 0
 384 0008 02F0030E 		and	lr, r2, #3
 385              	.LVL11:
 386              		.loc 1 160 0
 387 000c C2F38007 		ubfx	r7, r2, #2, #1
 388              	.LVL12:
 389              		.loc 1 161 0
 390 0010 C2F3C106 		ubfx	r6, r2, #3, #2
 391              	.LVL13:
 392              		.loc 1 162 0
 393 0014 C2F34115 		ubfx	r5, r2, #5, #2
 394              	.LVL14:
 395              		.loc 1 164 0
 396 0018 0024     		movs	r4, #0
 397              		.loc 1 163 0
 398 001a C2F3C312 		ubfx	r2, r2, #7, #4
 399              	.LVL15:
ARM GAS  C:\Users\jo\AppData\Local\Temp\cc5axC9B.s 			page 8


 400              	.LBB57:
 401              		.loc 1 175 0
 402 001e 4FF00109 		mov	r9, #1
 403              		.loc 1 177 0
 404 0022 4FF00308 		mov	r8, #3
 405 0026 2BE0     		b	.L10
 406              	.LVL16:
 407              	.L16:
 408              		.loc 1 172 0
 409 0028 D0F820B0 		ldr	fp, [r0, #32]
 410 002c 2BEA0303 		bic	r3, fp, r3
 411              	.LVL17:
 412 0030 43EA0A03 		orr	r3, r3, r10
 413 0034 0362     		str	r3, [r0, #32]
 414              	.L8:
 415              	.LVL18:
 416              		.loc 1 176 0
 417 0036 4368     		ldr	r3, [r0, #4]
 418              		.loc 1 175 0
 419 0038 09FA04FA 		lsl	r10, r9, r4
 420              	.LVL19:
 421              		.loc 1 176 0
 422 003c 23EA0A03 		bic	r3, r3, r10
 423 0040 3B43     		orrs	r3, r3, r7
 424 0042 4360     		str	r3, [r0, #4]
 425              	.LVL20:
 426 0044 4FEA440A 		lsl	r10, r4, #1
 427              		.loc 1 178 0
 428 0048 8368     		ldr	r3, [r0, #8]
 429              		.loc 1 177 0
 430 004a 08FA0AFA 		lsl	r10, r8, r10
 431              		.loc 1 178 0
 432 004e 6FEA0A0A 		mvn	r10, r10
 433 0052 0AEA0303 		and	r3, r10, r3
 434 0056 3343     		orrs	r3, r3, r6
 435 0058 8360     		str	r3, [r0, #8]
 436              		.loc 1 179 0
 437 005a C368     		ldr	r3, [r0, #12]
 438 005c 0AEA0303 		and	r3, r10, r3
 439 0060 2B43     		orrs	r3, r3, r5
 440 0062 C360     		str	r3, [r0, #12]
 441              		.loc 1 180 0
 442 0064 0368     		ldr	r3, [r0]
 443 0066 0AEA0303 		and	r3, r10, r3
 444 006a 43EA0E03 		orr	r3, r3, lr
 445 006e 0360     		str	r3, [r0]
 446              	.LVL21:
 447              	.L6:
 448              	.LBE57:
 449              		.loc 1 183 0
 450 0070 4908     		lsrs	r1, r1, #1
 451              	.LVL22:
 452 0072 19D0     		beq	.L5
 453              		.loc 1 185 0
 454 0074 7F00     		lsls	r7, r7, #1
 455              	.LVL23:
 456              		.loc 1 186 0
ARM GAS  C:\Users\jo\AppData\Local\Temp\cc5axC9B.s 			page 9


 457 0076 B600     		lsls	r6, r6, #2
 458              	.LVL24:
 459              		.loc 1 187 0
 460 0078 AD00     		lsls	r5, r5, #2
 461              	.LVL25:
 462              		.loc 1 188 0
 463 007a 4FEA8E0E 		lsl	lr, lr, #2
 464              	.LVL26:
 465              		.loc 1 189 0
 466 007e 0134     		adds	r4, r4, #1
 467              	.LVL27:
 468              	.L10:
 469              	.LBB58:
 470              		.loc 1 169 0
 471 0080 04F00703 		and	r3, r4, #7
 472 0084 9B00     		lsls	r3, r3, #2
 473              	.LBE58:
 474              		.loc 1 166 0
 475 0086 11F0010F 		tst	r1, #1
 476              	.LBB59:
 477              		.loc 1 169 0
 478 008a 02FA03FA 		lsl	r10, r2, r3
 479              	.LVL28:
 480              		.loc 1 170 0
 481 008e 0CFA03F3 		lsl	r3, ip, r3
 482              	.LVL29:
 483              	.LBE59:
 484              		.loc 1 166 0
 485 0092 EDD0     		beq	.L6
 486              	.LBB60:
 487              		.loc 1 171 0
 488 0094 072C     		cmp	r4, #7
 489 0096 C7D9     		bls	.L16
 490              		.loc 1 174 0
 491 0098 D0F824B0 		ldr	fp, [r0, #36]
 492 009c 2BEA0303 		bic	r3, fp, r3
 493              	.LVL30:
 494 00a0 43EA0A03 		orr	r3, r3, r10
 495 00a4 4362     		str	r3, [r0, #36]
 496 00a6 C6E7     		b	.L8
 497              	.LVL31:
 498              	.L5:
 499 00a8 BDE8F08F 		pop	{r4, r5, r6, r7, r8, r9, r10, fp, pc}
 500              	.LBE60:
 501              		.cfi_endproc
 502              	.LFE261:
 503              		.size	_pal_lld_setgroupmode, .-_pal_lld_setgroupmode
 504 00ac AFF30080 		.text
 505              	.Letext0:
 506              		.file 2 "c:\\program files\\gnu tools arm embedded\\4.9 2014q4\\arm-none-eabi\\include\\machine\\_
 507              		.file 3 "c:\\program files\\gnu tools arm embedded\\4.9 2014q4\\arm-none-eabi\\include\\stdint.h"
 508              		.file 4 "../../../os/rt/ports/ARMCMx/compilers/GCC/chtypes.h"
 509              		.file 5 "../../../os/rt/include/chsystypes.h"
 510              		.file 6 "../../../os/rt/include/chschd.h"
 511              		.file 7 "../../../os/ext/CMSIS/ST/stm32f407xx.h"
 512              		.file 8 "../../../os/rt/ports/ARMCMx/chcore.h"
 513              		.file 9 "../../../os/rt/ports/ARMCMx/chcore_v7m.h"
ARM GAS  C:\Users\jo\AppData\Local\Temp\cc5axC9B.s 			page 10


 514              		.file 10 "../../../os/rt/include/chdebug.h"
 515              		.file 11 "../../../os/rt/include/chtm.h"
 516              		.file 12 "../../../os/rt/include/chsem.h"
 517              		.file 13 "../../../os/rt/include/chmtx.h"
 518              		.file 14 "../../../os/hal/ports/STM32/LLD/GPIOv2/pal_lld.h"
 519              		.file 15 "../../../os/ext/CMSIS/include/core_cm4.h"
 520              		.section	.debug_info,"",%progbits
 521              	.Ldebug_info0:
 522 0000 390D0000 		.4byte	0xd39
 523 0004 0400     		.2byte	0x4
 524 0006 00000000 		.4byte	.Ldebug_abbrev0
 525 000a 04       		.byte	0x4
 526 000b 01       		.uleb128 0x1
 527 000c 55030000 		.4byte	.LASF185
 528 0010 01       		.byte	0x1
 529 0011 E2070000 		.4byte	.LASF186
 530 0015 1C010000 		.4byte	.LASF187
 531 0019 08010000 		.4byte	.Ldebug_ranges0+0x108
 532 001d 00000000 		.4byte	0
 533 0021 00000000 		.4byte	.Ldebug_line0
 534 0025 02       		.uleb128 0x2
 535 0026 04       		.byte	0x4
 536 0027 05       		.byte	0x5
 537 0028 696E7400 		.ascii	"int\000"
 538 002c 03       		.uleb128 0x3
 539 002d 04       		.byte	0x4
 540 002e 07       		.byte	0x7
 541 002f 88020000 		.4byte	.LASF0
 542 0033 03       		.uleb128 0x3
 543 0034 01       		.byte	0x1
 544 0035 06       		.byte	0x6
 545 0036 78010000 		.4byte	.LASF1
 546 003a 04       		.uleb128 0x4
 547 003b 45000000 		.4byte	.LASF4
 548 003f 02       		.byte	0x2
 549 0040 1D       		.byte	0x1d
 550 0041 45000000 		.4byte	0x45
 551 0045 03       		.uleb128 0x3
 552 0046 01       		.byte	0x1
 553 0047 08       		.byte	0x8
 554 0048 95050000 		.4byte	.LASF2
 555 004c 03       		.uleb128 0x3
 556 004d 02       		.byte	0x2
 557 004e 05       		.byte	0x5
 558 004f B8050000 		.4byte	.LASF3
 559 0053 04       		.uleb128 0x4
 560 0054 A1060000 		.4byte	.LASF5
 561 0058 02       		.byte	0x2
 562 0059 2B       		.byte	0x2b
 563 005a 5E000000 		.4byte	0x5e
 564 005e 03       		.uleb128 0x3
 565 005f 02       		.byte	0x2
 566 0060 07       		.byte	0x7
 567 0061 C3020000 		.4byte	.LASF6
 568 0065 04       		.uleb128 0x4
 569 0066 44030000 		.4byte	.LASF7
 570 006a 02       		.byte	0x2
ARM GAS  C:\Users\jo\AppData\Local\Temp\cc5axC9B.s 			page 11


 571 006b 3F       		.byte	0x3f
 572 006c 70000000 		.4byte	0x70
 573 0070 03       		.uleb128 0x3
 574 0071 04       		.byte	0x4
 575 0072 05       		.byte	0x5
 576 0073 BE010000 		.4byte	.LASF8
 577 0077 04       		.uleb128 0x4
 578 0078 E3060000 		.4byte	.LASF9
 579 007c 02       		.byte	0x2
 580 007d 41       		.byte	0x41
 581 007e 82000000 		.4byte	0x82
 582 0082 03       		.uleb128 0x3
 583 0083 04       		.byte	0x4
 584 0084 07       		.byte	0x7
 585 0085 79060000 		.4byte	.LASF10
 586 0089 03       		.uleb128 0x3
 587 008a 08       		.byte	0x8
 588 008b 05       		.byte	0x5
 589 008c 6A010000 		.4byte	.LASF11
 590 0090 04       		.uleb128 0x4
 591 0091 0F050000 		.4byte	.LASF12
 592 0095 02       		.byte	0x2
 593 0096 5B       		.byte	0x5b
 594 0097 9B000000 		.4byte	0x9b
 595 009b 03       		.uleb128 0x3
 596 009c 08       		.byte	0x8
 597 009d 07       		.byte	0x7
 598 009e 8B000000 		.4byte	.LASF13
 599 00a2 04       		.uleb128 0x4
 600 00a3 9F070000 		.4byte	.LASF14
 601 00a7 03       		.byte	0x3
 602 00a8 15       		.byte	0x15
 603 00a9 3A000000 		.4byte	0x3a
 604 00ad 04       		.uleb128 0x4
 605 00ae E7010000 		.4byte	.LASF15
 606 00b2 03       		.byte	0x3
 607 00b3 21       		.byte	0x21
 608 00b4 53000000 		.4byte	0x53
 609 00b8 04       		.uleb128 0x4
 610 00b9 8D050000 		.4byte	.LASF16
 611 00bd 03       		.byte	0x3
 612 00be 2C       		.byte	0x2c
 613 00bf 65000000 		.4byte	0x65
 614 00c3 04       		.uleb128 0x4
 615 00c4 48060000 		.4byte	.LASF17
 616 00c8 03       		.byte	0x3
 617 00c9 2D       		.byte	0x2d
 618 00ca 77000000 		.4byte	0x77
 619 00ce 04       		.uleb128 0x4
 620 00cf 3C000000 		.4byte	.LASF18
 621 00d3 03       		.byte	0x3
 622 00d4 39       		.byte	0x39
 623 00d5 90000000 		.4byte	0x90
 624 00d9 05       		.uleb128 0x5
 625 00da B8000000 		.4byte	0xb8
 626 00de 05       		.uleb128 0x5
 627 00df C3000000 		.4byte	0xc3
ARM GAS  C:\Users\jo\AppData\Local\Temp\cc5axC9B.s 			page 12


 628 00e3 04       		.uleb128 0x4
 629 00e4 49070000 		.4byte	.LASF19
 630 00e8 04       		.byte	0x4
 631 00e9 45       		.byte	0x45
 632 00ea C3000000 		.4byte	0xc3
 633 00ee 04       		.uleb128 0x4
 634 00ef F0050000 		.4byte	.LASF20
 635 00f3 04       		.byte	0x4
 636 00f4 48       		.byte	0x48
 637 00f5 A2000000 		.4byte	0xa2
 638 00f9 04       		.uleb128 0x4
 639 00fa D8010000 		.4byte	.LASF21
 640 00fe 04       		.byte	0x4
 641 00ff 49       		.byte	0x49
 642 0100 A2000000 		.4byte	0xa2
 643 0104 04       		.uleb128 0x4
 644 0105 24050000 		.4byte	.LASF22
 645 0109 04       		.byte	0x4
 646 010a 4A       		.byte	0x4a
 647 010b A2000000 		.4byte	0xa2
 648 010f 04       		.uleb128 0x4
 649 0110 6F050000 		.4byte	.LASF23
 650 0114 04       		.byte	0x4
 651 0115 4C       		.byte	0x4c
 652 0116 C3000000 		.4byte	0xc3
 653 011a 04       		.uleb128 0x4
 654 011b FB020000 		.4byte	.LASF24
 655 011f 04       		.byte	0x4
 656 0120 4D       		.byte	0x4d
 657 0121 B8000000 		.4byte	0xb8
 658 0125 04       		.uleb128 0x4
 659 0126 38030000 		.4byte	.LASF25
 660 012a 04       		.byte	0x4
 661 012b 4F       		.byte	0x4f
 662 012c C3000000 		.4byte	0xc3
 663 0130 04       		.uleb128 0x4
 664 0131 77020000 		.4byte	.LASF26
 665 0135 04       		.byte	0x4
 666 0136 51       		.byte	0x51
 667 0137 B8000000 		.4byte	0xb8
 668 013b 04       		.uleb128 0x4
 669 013c C5060000 		.4byte	.LASF27
 670 0140 05       		.byte	0x5
 671 0141 33       		.byte	0x33
 672 0142 C3000000 		.4byte	0xc3
 673 0146 04       		.uleb128 0x4
 674 0147 B5060000 		.4byte	.LASF28
 675 014b 05       		.byte	0x5
 676 014c 3F       		.byte	0x3f
 677 014d 51010000 		.4byte	0x151
 678 0151 06       		.uleb128 0x6
 679 0152 DD020000 		.4byte	.LASF49
 680 0156 48       		.byte	0x48
 681 0157 06       		.byte	0x6
 682 0158 C2       		.byte	0xc2
 683 0159 4A020000 		.4byte	0x24a
 684 015d 07       		.uleb128 0x7
ARM GAS  C:\Users\jo\AppData\Local\Temp\cc5axC9B.s 			page 13


 685 015e E9050000 		.4byte	.LASF29
 686 0162 06       		.byte	0x6
 687 0163 C3       		.byte	0xc3
 688 0164 55020000 		.4byte	0x255
 689 0168 00       		.byte	0
 690 0169 07       		.uleb128 0x7
 691 016a 5E050000 		.4byte	.LASF30
 692 016e 06       		.byte	0x6
 693 016f C5       		.byte	0xc5
 694 0170 55020000 		.4byte	0x255
 695 0174 04       		.byte	0x4
 696 0175 07       		.uleb128 0x7
 697 0176 15010000 		.4byte	.LASF31
 698 017a 06       		.byte	0x6
 699 017b C7       		.byte	0xc7
 700 017c 0F010000 		.4byte	0x10f
 701 0180 08       		.byte	0x8
 702 0181 07       		.uleb128 0x7
 703 0182 38080000 		.4byte	.LASF32
 704 0186 06       		.byte	0x6
 705 0187 C8       		.byte	0xc8
 706 0188 5B060000 		.4byte	0x65b
 707 018c 0C       		.byte	0xc
 708 018d 07       		.uleb128 0x7
 709 018e F9010000 		.4byte	.LASF33
 710 0192 06       		.byte	0x6
 711 0193 CA       		.byte	0xca
 712 0194 55020000 		.4byte	0x255
 713 0198 10       		.byte	0x10
 714 0199 07       		.uleb128 0x7
 715 019a C7040000 		.4byte	.LASF34
 716 019e 06       		.byte	0x6
 717 019f CB       		.byte	0xcb
 718 01a0 55020000 		.4byte	0x255
 719 01a4 14       		.byte	0x14
 720 01a5 07       		.uleb128 0x7
 721 01a6 B4070000 		.4byte	.LASF35
 722 01aa 06       		.byte	0x6
 723 01ab D2       		.byte	0xd2
 724 01ac 6D080000 		.4byte	0x86d
 725 01b0 18       		.byte	0x18
 726 01b1 07       		.uleb128 0x7
 727 01b2 7D020000 		.4byte	.LASF36
 728 01b6 06       		.byte	0x6
 729 01b7 D8       		.byte	0xd8
 730 01b8 7F080000 		.4byte	0x87f
 731 01bc 1C       		.byte	0x1c
 732 01bd 07       		.uleb128 0x7
 733 01be C2050000 		.4byte	.LASF37
 734 01c2 06       		.byte	0x6
 735 01c3 DD       		.byte	0xdd
 736 01c4 F9000000 		.4byte	0xf9
 737 01c8 20       		.byte	0x20
 738 01c9 07       		.uleb128 0x7
 739 01ca F8050000 		.4byte	.LASF38
 740 01ce 06       		.byte	0x6
 741 01cf E1       		.byte	0xe1
ARM GAS  C:\Users\jo\AppData\Local\Temp\cc5axC9B.s 			page 14


 742 01d0 EE000000 		.4byte	0xee
 743 01d4 21       		.byte	0x21
 744 01d5 07       		.uleb128 0x7
 745 01d6 77070000 		.4byte	.LASF39
 746 01da 06       		.byte	0x6
 747 01db E6       		.byte	0xe6
 748 01dc 04010000 		.4byte	0x104
 749 01e0 22       		.byte	0x22
 750 01e1 08       		.uleb128 0x8
 751 01e2 705F7500 		.ascii	"p_u\000"
 752 01e6 06       		.byte	0x6
 753 01e7 3101     		.2byte	0x131
 754 01e9 A8070000 		.4byte	0x7a8
 755 01ed 24       		.byte	0x24
 756 01ee 09       		.uleb128 0x9
 757 01ef 61040000 		.4byte	.LASF40
 758 01f3 06       		.byte	0x6
 759 01f4 3601     		.2byte	0x136
 760 01f6 5B020000 		.4byte	0x25b
 761 01fa 28       		.byte	0x28
 762 01fb 09       		.uleb128 0x9
 763 01fc A4020000 		.4byte	.LASF41
 764 0200 06       		.byte	0x6
 765 0201 3C01     		.2byte	0x13c
 766 0203 7F020000 		.4byte	0x27f
 767 0207 2C       		.byte	0x2c
 768 0208 09       		.uleb128 0x9
 769 0209 DC070000 		.4byte	.LASF42
 770 020d 06       		.byte	0x6
 771 020e 4001     		.2byte	0x140
 772 0210 1A010000 		.4byte	0x11a
 773 0214 34       		.byte	0x34
 774 0215 09       		.uleb128 0x9
 775 0216 33060000 		.4byte	.LASF43
 776 021a 06       		.byte	0x6
 777 021b 4601     		.2byte	0x146
 778 021d 25010000 		.4byte	0x125
 779 0221 38       		.byte	0x38
 780 0222 09       		.uleb128 0x9
 781 0223 AE050000 		.4byte	.LASF44
 782 0227 06       		.byte	0x6
 783 0228 4D01     		.2byte	0x14d
 784 022a 67080000 		.4byte	0x867
 785 022e 3C       		.byte	0x3c
 786 022f 09       		.uleb128 0x9
 787 0230 CF060000 		.4byte	.LASF45
 788 0234 06       		.byte	0x6
 789 0235 5101     		.2byte	0x151
 790 0237 0F010000 		.4byte	0x10f
 791 023b 40       		.byte	0x40
 792 023c 09       		.uleb128 0x9
 793 023d 92010000 		.4byte	.LASF46
 794 0241 06       		.byte	0x6
 795 0242 5801     		.2byte	0x158
 796 0244 32030000 		.4byte	0x332
 797 0248 44       		.byte	0x44
 798 0249 00       		.byte	0
ARM GAS  C:\Users\jo\AppData\Local\Temp\cc5axC9B.s 			page 15


 799 024a 04       		.uleb128 0x4
 800 024b 74040000 		.4byte	.LASF47
 801 024f 05       		.byte	0x5
 802 0250 44       		.byte	0x44
 803 0251 55020000 		.4byte	0x255
 804 0255 0A       		.uleb128 0xa
 805 0256 04       		.byte	0x4
 806 0257 46010000 		.4byte	0x146
 807 025b 04       		.uleb128 0x4
 808 025c 3A040000 		.4byte	.LASF48
 809 0260 05       		.byte	0x5
 810 0261 49       		.byte	0x49
 811 0262 66020000 		.4byte	0x266
 812 0266 06       		.uleb128 0x6
 813 0267 69060000 		.4byte	.LASF50
 814 026b 04       		.byte	0x4
 815 026c 06       		.byte	0x6
 816 026d B0       		.byte	0xb0
 817 026e 7F020000 		.4byte	0x27f
 818 0272 07       		.uleb128 0x7
 819 0273 E9050000 		.4byte	.LASF29
 820 0277 06       		.byte	0x6
 821 0278 B1       		.byte	0xb1
 822 0279 55020000 		.4byte	0x255
 823 027d 00       		.byte	0
 824 027e 00       		.byte	0
 825 027f 04       		.uleb128 0x4
 826 0280 5E070000 		.4byte	.LASF51
 827 0284 05       		.byte	0x5
 828 0285 50       		.byte	0x50
 829 0286 8A020000 		.4byte	0x28a
 830 028a 06       		.uleb128 0x6
 831 028b FA000000 		.4byte	.LASF52
 832 028f 08       		.byte	0x8
 833 0290 06       		.byte	0x6
 834 0291 B7       		.byte	0xb7
 835 0292 AF020000 		.4byte	0x2af
 836 0296 07       		.uleb128 0x7
 837 0297 E9050000 		.4byte	.LASF29
 838 029b 06       		.byte	0x6
 839 029c B8       		.byte	0xb8
 840 029d 55020000 		.4byte	0x255
 841 02a1 00       		.byte	0
 842 02a2 07       		.uleb128 0x7
 843 02a3 5E050000 		.4byte	.LASF30
 844 02a7 06       		.byte	0x6
 845 02a8 B9       		.byte	0xb9
 846 02a9 55020000 		.4byte	0x255
 847 02ad 04       		.byte	0x4
 848 02ae 00       		.byte	0
 849 02af 04       		.uleb128 0x4
 850 02b0 1A000000 		.4byte	.LASF53
 851 02b4 05       		.byte	0x5
 852 02b5 57       		.byte	0x57
 853 02b6 BA020000 		.4byte	0x2ba
 854 02ba 0B       		.uleb128 0xb
 855 02bb 2A030000 		.4byte	.LASF54
ARM GAS  C:\Users\jo\AppData\Local\Temp\cc5axC9B.s 			page 16


 856 02bf 1C       		.byte	0x1c
 857 02c0 06       		.byte	0x6
 858 02c1 9001     		.2byte	0x190
 859 02c3 16030000 		.4byte	0x316
 860 02c7 09       		.uleb128 0x9
 861 02c8 58060000 		.4byte	.LASF55
 862 02cc 06       		.byte	0x6
 863 02cd 9101     		.2byte	0x191
 864 02cf 7F020000 		.4byte	0x27f
 865 02d3 00       		.byte	0
 866 02d4 09       		.uleb128 0x9
 867 02d5 D4050000 		.4byte	.LASF56
 868 02d9 06       		.byte	0x6
 869 02da 9201     		.2byte	0x192
 870 02dc 0F010000 		.4byte	0x10f
 871 02e0 08       		.byte	0x8
 872 02e1 09       		.uleb128 0x9
 873 02e2 CF040000 		.4byte	.LASF57
 874 02e6 06       		.byte	0x6
 875 02e7 9401     		.2byte	0x194
 876 02e9 5B060000 		.4byte	0x65b
 877 02ed 0C       		.byte	0xc
 878 02ee 09       		.uleb128 0x9
 879 02ef 19020000 		.4byte	.LASF58
 880 02f3 06       		.byte	0x6
 881 02f4 9701     		.2byte	0x197
 882 02f6 55020000 		.4byte	0x255
 883 02fa 10       		.byte	0x10
 884 02fb 09       		.uleb128 0x9
 885 02fc 2B070000 		.4byte	.LASF59
 886 0300 06       		.byte	0x6
 887 0301 9801     		.2byte	0x198
 888 0303 55020000 		.4byte	0x255
 889 0307 14       		.byte	0x14
 890 0308 09       		.uleb128 0x9
 891 0309 FC040000 		.4byte	.LASF60
 892 030d 06       		.byte	0x6
 893 030e 9B01     		.2byte	0x19b
 894 0310 55020000 		.4byte	0x255
 895 0314 18       		.byte	0x18
 896 0315 00       		.byte	0
 897 0316 04       		.uleb128 0x4
 898 0317 DA060000 		.4byte	.LASF61
 899 031b 05       		.byte	0x5
 900 031c 5C       		.byte	0x5c
 901 031d 21030000 		.4byte	0x321
 902 0321 0A       		.uleb128 0xa
 903 0322 04       		.byte	0x4
 904 0323 27030000 		.4byte	0x327
 905 0327 0C       		.uleb128 0xc
 906 0328 32030000 		.4byte	0x332
 907 032c 0D       		.uleb128 0xd
 908 032d 32030000 		.4byte	0x332
 909 0331 00       		.byte	0
 910 0332 0E       		.uleb128 0xe
 911 0333 04       		.byte	0x4
 912 0334 04       		.uleb128 0x4
ARM GAS  C:\Users\jo\AppData\Local\Temp\cc5axC9B.s 			page 17


 913 0335 49040000 		.4byte	.LASF62
 914 0339 05       		.byte	0x5
 915 033a 61       		.byte	0x61
 916 033b 3F030000 		.4byte	0x33f
 917 033f 0B       		.uleb128 0xb
 918 0340 15060000 		.4byte	.LASF63
 919 0344 14       		.byte	0x14
 920 0345 06       		.byte	0x6
 921 0346 6B01     		.2byte	0x16b
 922 0348 8E030000 		.4byte	0x38e
 923 034c 09       		.uleb128 0x9
 924 034d 95020000 		.4byte	.LASF64
 925 0351 06       		.byte	0x6
 926 0352 6C01     		.2byte	0x16c
 927 0354 85080000 		.4byte	0x885
 928 0358 00       		.byte	0
 929 0359 09       		.uleb128 0x9
 930 035a 2F020000 		.4byte	.LASF65
 931 035e 06       		.byte	0x6
 932 035f 6D01     		.2byte	0x16d
 933 0361 85080000 		.4byte	0x885
 934 0365 04       		.byte	0x4
 935 0366 09       		.uleb128 0x9
 936 0367 60060000 		.4byte	.LASF66
 937 036b 06       		.byte	0x6
 938 036c 6E01     		.2byte	0x16e
 939 036e 3B010000 		.4byte	0x13b
 940 0372 08       		.byte	0x8
 941 0373 09       		.uleb128 0x9
 942 0374 3E080000 		.4byte	.LASF67
 943 0378 06       		.byte	0x6
 944 0379 6F01     		.2byte	0x16f
 945 037b 16030000 		.4byte	0x316
 946 037f 0C       		.byte	0xc
 947 0380 09       		.uleb128 0x9
 948 0381 51070000 		.4byte	.LASF68
 949 0385 06       		.byte	0x6
 950 0386 7101     		.2byte	0x171
 951 0388 32030000 		.4byte	0x332
 952 038c 10       		.byte	0x10
 953 038d 00       		.byte	0
 954 038e 04       		.uleb128 0x4
 955 038f D7000000 		.4byte	.LASF69
 956 0393 05       		.byte	0x5
 957 0394 66       		.byte	0x66
 958 0395 99030000 		.4byte	0x399
 959 0399 0B       		.uleb128 0xb
 960 039a 87040000 		.4byte	.LASF70
 961 039e 10       		.byte	0x10
 962 039f 06       		.byte	0x6
 963 03a0 7B01     		.2byte	0x17b
 964 03a2 DB030000 		.4byte	0x3db
 965 03a6 09       		.uleb128 0x9
 966 03a7 95020000 		.4byte	.LASF64
 967 03ab 06       		.byte	0x6
 968 03ac 7C01     		.2byte	0x17c
 969 03ae 85080000 		.4byte	0x885
ARM GAS  C:\Users\jo\AppData\Local\Temp\cc5axC9B.s 			page 18


 970 03b2 00       		.byte	0
 971 03b3 09       		.uleb128 0x9
 972 03b4 2F020000 		.4byte	.LASF65
 973 03b8 06       		.byte	0x6
 974 03b9 7E01     		.2byte	0x17e
 975 03bb 85080000 		.4byte	0x885
 976 03bf 04       		.byte	0x4
 977 03c0 09       		.uleb128 0x9
 978 03c1 60060000 		.4byte	.LASF66
 979 03c5 06       		.byte	0x6
 980 03c6 8001     		.2byte	0x180
 981 03c8 3B010000 		.4byte	0x13b
 982 03cc 08       		.byte	0x8
 983 03cd 09       		.uleb128 0x9
 984 03ce BB040000 		.4byte	.LASF71
 985 03d2 06       		.byte	0x6
 986 03d3 8801     		.2byte	0x188
 987 03d5 3B010000 		.4byte	0x13b
 988 03d9 0C       		.byte	0xc
 989 03da 00       		.byte	0
 990 03db 04       		.uleb128 0x4
 991 03dc 62000000 		.4byte	.LASF72
 992 03e0 05       		.byte	0x5
 993 03e1 6B       		.byte	0x6b
 994 03e2 E6030000 		.4byte	0x3e6
 995 03e6 0F       		.uleb128 0xf
 996 03e7 77050000 		.4byte	.LASF73
 997 03eb 1404     		.2byte	0x414
 998 03ed 06       		.byte	0x6
 999 03ee A201     		.2byte	0x1a2
 1000 03f0 29040000 		.4byte	0x429
 1001 03f4 09       		.uleb128 0x9
 1002 03f5 F7060000 		.4byte	.LASF74
 1003 03f9 06       		.byte	0x6
 1004 03fa AA01     		.2byte	0x1aa
 1005 03fc 8B080000 		.4byte	0x88b
 1006 0400 00       		.byte	0
 1007 0401 09       		.uleb128 0x9
 1008 0402 7E070000 		.4byte	.LASF75
 1009 0406 06       		.byte	0x6
 1010 0407 AF01     		.2byte	0x1af
 1011 0409 30010000 		.4byte	0x130
 1012 040d 04       		.byte	0x4
 1013 040e 09       		.uleb128 0x9
 1014 040f 5F020000 		.4byte	.LASF76
 1015 0413 06       		.byte	0x6
 1016 0414 B301     		.2byte	0x1b3
 1017 0416 30010000 		.4byte	0x130
 1018 041a 08       		.byte	0x8
 1019 041b 09       		.uleb128 0x9
 1020 041c CF070000 		.4byte	.LASF77
 1021 0420 06       		.byte	0x6
 1022 0421 B901     		.2byte	0x1b9
 1023 0423 7D070000 		.4byte	0x77d
 1024 0427 0C       		.byte	0xc
 1025 0428 00       		.byte	0
 1026 0429 04       		.uleb128 0x4
ARM GAS  C:\Users\jo\AppData\Local\Temp\cc5axC9B.s 			page 19


 1027 042a 0A030000 		.4byte	.LASF78
 1028 042e 05       		.byte	0x5
 1029 042f 70       		.byte	0x70
 1030 0430 34040000 		.4byte	0x434
 1031 0434 0F       		.uleb128 0xf
 1032 0435 B4010000 		.4byte	.LASF79
 1033 0439 7005     		.2byte	0x570
 1034 043b 06       		.byte	0x6
 1035 043c C201     		.2byte	0x1c2
 1036 043e 93040000 		.4byte	0x493
 1037 0442 09       		.uleb128 0x9
 1038 0443 99070000 		.4byte	.LASF80
 1039 0447 06       		.byte	0x6
 1040 0448 C601     		.2byte	0x1c6
 1041 044a AF020000 		.4byte	0x2af
 1042 044e 00       		.byte	0
 1043 044f 09       		.uleb128 0x9
 1044 0450 37020000 		.4byte	.LASF81
 1045 0454 06       		.byte	0x6
 1046 0455 CA01     		.2byte	0x1ca
 1047 0457 8E030000 		.4byte	0x38e
 1048 045b 1C       		.byte	0x1c
 1049 045c 08       		.uleb128 0x8
 1050 045d 64626700 		.ascii	"dbg\000"
 1051 0461 06       		.byte	0x6
 1052 0462 CE01     		.2byte	0x1ce
 1053 0464 DB030000 		.4byte	0x3db
 1054 0468 2C       		.byte	0x2c
 1055 0469 10       		.uleb128 0x10
 1056 046a CC000000 		.4byte	.LASF82
 1057 046e 06       		.byte	0x6
 1058 046f D201     		.2byte	0x1d2
 1059 0471 46010000 		.4byte	0x146
 1060 0475 4004     		.2byte	0x440
 1061 0477 11       		.uleb128 0x11
 1062 0478 746D00   		.ascii	"tm\000"
 1063 047b 06       		.byte	0x6
 1064 047c D701     		.2byte	0x1d7
 1065 047e 9D070000 		.4byte	0x79d
 1066 0482 8804     		.2byte	0x488
 1067 0484 10       		.uleb128 0x10
 1068 0485 68020000 		.4byte	.LASF83
 1069 0489 06       		.byte	0x6
 1070 048a E301     		.2byte	0x1e3
 1071 048c 90080000 		.4byte	0x890
 1072 0490 9004     		.2byte	0x490
 1073 0492 00       		.byte	0
 1074 0493 03       		.uleb128 0x3
 1075 0494 04       		.byte	0x4
 1076 0495 07       		.byte	0x7
 1077 0496 6B040000 		.4byte	.LASF84
 1078 049a 12       		.uleb128 0x12
 1079 049b C3000000 		.4byte	0xc3
 1080 049f AA040000 		.4byte	0x4aa
 1081 04a3 13       		.uleb128 0x13
 1082 04a4 93040000 		.4byte	0x493
 1083 04a8 01       		.byte	0x1
ARM GAS  C:\Users\jo\AppData\Local\Temp\cc5axC9B.s 			page 20


 1084 04a9 00       		.byte	0
 1085 04aa 14       		.uleb128 0x14
 1086 04ab 88       		.byte	0x88
 1087 04ac 07       		.byte	0x7
 1088 04ad 6702     		.2byte	0x267
 1089 04af 39060000 		.4byte	0x639
 1090 04b3 08       		.uleb128 0x8
 1091 04b4 435200   		.ascii	"CR\000"
 1092 04b7 07       		.byte	0x7
 1093 04b8 6902     		.2byte	0x269
 1094 04ba DE000000 		.4byte	0xde
 1095 04be 00       		.byte	0
 1096 04bf 09       		.uleb128 0x9
 1097 04c0 01020000 		.4byte	.LASF85
 1098 04c4 07       		.byte	0x7
 1099 04c5 6A02     		.2byte	0x26a
 1100 04c7 DE000000 		.4byte	0xde
 1101 04cb 04       		.byte	0x4
 1102 04cc 09       		.uleb128 0x9
 1103 04cd CA070000 		.4byte	.LASF86
 1104 04d1 07       		.byte	0x7
 1105 04d2 6B02     		.2byte	0x26b
 1106 04d4 DE000000 		.4byte	0xde
 1107 04d8 08       		.byte	0x8
 1108 04d9 08       		.uleb128 0x8
 1109 04da 43495200 		.ascii	"CIR\000"
 1110 04de 07       		.byte	0x7
 1111 04df 6C02     		.2byte	0x26c
 1112 04e1 DE000000 		.4byte	0xde
 1113 04e5 0C       		.byte	0xc
 1114 04e6 09       		.uleb128 0x9
 1115 04e7 89010000 		.4byte	.LASF87
 1116 04eb 07       		.byte	0x7
 1117 04ec 6D02     		.2byte	0x26d
 1118 04ee DE000000 		.4byte	0xde
 1119 04f2 10       		.byte	0x10
 1120 04f3 09       		.uleb128 0x9
 1121 04f4 AC060000 		.4byte	.LASF88
 1122 04f8 07       		.byte	0x7
 1123 04f9 6E02     		.2byte	0x26e
 1124 04fb DE000000 		.4byte	0xde
 1125 04ff 14       		.byte	0x14
 1126 0500 09       		.uleb128 0x9
 1127 0501 01030000 		.4byte	.LASF89
 1128 0505 07       		.byte	0x7
 1129 0506 6F02     		.2byte	0x26f
 1130 0508 DE000000 		.4byte	0xde
 1131 050c 18       		.byte	0x18
 1132 050d 09       		.uleb128 0x9
 1133 050e 2C050000 		.4byte	.LASF90
 1134 0512 07       		.byte	0x7
 1135 0513 7002     		.2byte	0x270
 1136 0515 C3000000 		.4byte	0xc3
 1137 0519 1C       		.byte	0x1c
 1138 051a 09       		.uleb128 0x9
 1139 051b 06050000 		.4byte	.LASF91
 1140 051f 07       		.byte	0x7
ARM GAS  C:\Users\jo\AppData\Local\Temp\cc5axC9B.s 			page 21


 1141 0520 7102     		.2byte	0x271
 1142 0522 DE000000 		.4byte	0xde
 1143 0526 20       		.byte	0x20
 1144 0527 09       		.uleb128 0x9
 1145 0528 F2020000 		.4byte	.LASF92
 1146 052c 07       		.byte	0x7
 1147 052d 7202     		.2byte	0x272
 1148 052f DE000000 		.4byte	0xde
 1149 0533 24       		.byte	0x24
 1150 0534 09       		.uleb128 0x9
 1151 0535 36050000 		.4byte	.LASF93
 1152 0539 07       		.byte	0x7
 1153 053a 7302     		.2byte	0x273
 1154 053c 9A040000 		.4byte	0x49a
 1155 0540 28       		.byte	0x28
 1156 0541 09       		.uleb128 0x9
 1157 0542 BB070000 		.4byte	.LASF94
 1158 0546 07       		.byte	0x7
 1159 0547 7402     		.2byte	0x274
 1160 0549 DE000000 		.4byte	0xde
 1161 054d 30       		.byte	0x30
 1162 054e 09       		.uleb128 0x9
 1163 054f 1B070000 		.4byte	.LASF95
 1164 0553 07       		.byte	0x7
 1165 0554 7502     		.2byte	0x275
 1166 0556 DE000000 		.4byte	0xde
 1167 055a 34       		.byte	0x34
 1168 055b 09       		.uleb128 0x9
 1169 055c B3040000 		.4byte	.LASF96
 1170 0560 07       		.byte	0x7
 1171 0561 7602     		.2byte	0x276
 1172 0563 DE000000 		.4byte	0xde
 1173 0567 38       		.byte	0x38
 1174 0568 09       		.uleb128 0x9
 1175 0569 40050000 		.4byte	.LASF97
 1176 056d 07       		.byte	0x7
 1177 056e 7702     		.2byte	0x277
 1178 0570 C3000000 		.4byte	0xc3
 1179 0574 3C       		.byte	0x3c
 1180 0575 09       		.uleb128 0x9
 1181 0576 08070000 		.4byte	.LASF98
 1182 057a 07       		.byte	0x7
 1183 057b 7802     		.2byte	0x278
 1184 057d DE000000 		.4byte	0xde
 1185 0581 40       		.byte	0x40
 1186 0582 09       		.uleb128 0x9
 1187 0583 06060000 		.4byte	.LASF99
 1188 0587 07       		.byte	0x7
 1189 0588 7902     		.2byte	0x279
 1190 058a DE000000 		.4byte	0xde
 1191 058e 44       		.byte	0x44
 1192 058f 09       		.uleb128 0x9
 1193 0590 4A050000 		.4byte	.LASF100
 1194 0594 07       		.byte	0x7
 1195 0595 7A02     		.2byte	0x27a
 1196 0597 9A040000 		.4byte	0x49a
 1197 059b 48       		.byte	0x48
ARM GAS  C:\Users\jo\AppData\Local\Temp\cc5axC9B.s 			page 22


 1198 059c 09       		.uleb128 0x9
 1199 059d 0B010000 		.4byte	.LASF101
 1200 05a1 07       		.byte	0x7
 1201 05a2 7B02     		.2byte	0x27b
 1202 05a4 DE000000 		.4byte	0xde
 1203 05a8 50       		.byte	0x50
 1204 05a9 09       		.uleb128 0x9
 1205 05aa D5040000 		.4byte	.LASF102
 1206 05ae 07       		.byte	0x7
 1207 05af 7C02     		.2byte	0x27c
 1208 05b1 DE000000 		.4byte	0xde
 1209 05b5 54       		.byte	0x54
 1210 05b6 09       		.uleb128 0x9
 1211 05b7 CA050000 		.4byte	.LASF103
 1212 05bb 07       		.byte	0x7
 1213 05bc 7D02     		.2byte	0x27d
 1214 05be DE000000 		.4byte	0xde
 1215 05c2 58       		.byte	0x58
 1216 05c3 09       		.uleb128 0x9
 1217 05c4 54050000 		.4byte	.LASF104
 1218 05c8 07       		.byte	0x7
 1219 05c9 7E02     		.2byte	0x27e
 1220 05cb C3000000 		.4byte	0xc3
 1221 05cf 5C       		.byte	0x5c
 1222 05d0 09       		.uleb128 0x9
 1223 05d1 CE010000 		.4byte	.LASF105
 1224 05d5 07       		.byte	0x7
 1225 05d6 7F02     		.2byte	0x27f
 1226 05d8 DE000000 		.4byte	0xde
 1227 05dc 60       		.byte	0x60
 1228 05dd 09       		.uleb128 0x9
 1229 05de 20030000 		.4byte	.LASF106
 1230 05e2 07       		.byte	0x7
 1231 05e3 8002     		.2byte	0x280
 1232 05e5 DE000000 		.4byte	0xde
 1233 05e9 64       		.byte	0x64
 1234 05ea 09       		.uleb128 0x9
 1235 05eb 3E060000 		.4byte	.LASF107
 1236 05ef 07       		.byte	0x7
 1237 05f0 8102     		.2byte	0x281
 1238 05f2 9A040000 		.4byte	0x49a
 1239 05f6 68       		.byte	0x68
 1240 05f7 09       		.uleb128 0x9
 1241 05f8 94070000 		.4byte	.LASF108
 1242 05fc 07       		.byte	0x7
 1243 05fd 8202     		.2byte	0x282
 1244 05ff DE000000 		.4byte	0xde
 1245 0603 70       		.byte	0x70
 1246 0604 08       		.uleb128 0x8
 1247 0605 43535200 		.ascii	"CSR\000"
 1248 0609 07       		.byte	0x7
 1249 060a 8302     		.2byte	0x283
 1250 060c DE000000 		.4byte	0xde
 1251 0610 74       		.byte	0x74
 1252 0611 09       		.uleb128 0x9
 1253 0612 65050000 		.4byte	.LASF109
 1254 0616 07       		.byte	0x7
ARM GAS  C:\Users\jo\AppData\Local\Temp\cc5axC9B.s 			page 23


 1255 0617 8402     		.2byte	0x284
 1256 0619 9A040000 		.4byte	0x49a
 1257 061d 78       		.byte	0x78
 1258 061e 09       		.uleb128 0x9
 1259 061f 58070000 		.4byte	.LASF110
 1260 0623 07       		.byte	0x7
 1261 0624 8502     		.2byte	0x285
 1262 0626 DE000000 		.4byte	0xde
 1263 062a 80       		.byte	0x80
 1264 062b 09       		.uleb128 0x9
 1265 062c E7020000 		.4byte	.LASF111
 1266 0630 07       		.byte	0x7
 1267 0631 8602     		.2byte	0x286
 1268 0633 DE000000 		.4byte	0xde
 1269 0637 84       		.byte	0x84
 1270 0638 00       		.byte	0
 1271 0639 15       		.uleb128 0x15
 1272 063a A8010000 		.4byte	.LASF112
 1273 063e 07       		.byte	0x7
 1274 063f 8802     		.2byte	0x288
 1275 0641 AA040000 		.4byte	0x4aa
 1276 0645 04       		.uleb128 0x4
 1277 0646 26020000 		.4byte	.LASF113
 1278 064a 08       		.byte	0x8
 1279 064b 65       		.byte	0x65
 1280 064c 32030000 		.4byte	0x332
 1281 0650 04       		.uleb128 0x4
 1282 0651 2F040000 		.4byte	.LASF114
 1283 0655 08       		.byte	0x8
 1284 0656 6D       		.byte	0x6d
 1285 0657 CE000000 		.4byte	0xce
 1286 065b 06       		.uleb128 0x6
 1287 065c 23070000 		.4byte	.LASF115
 1288 0660 04       		.byte	0x4
 1289 0661 08       		.byte	0x8
 1290 0662 89       		.byte	0x89
 1291 0663 74060000 		.4byte	0x674
 1292 0667 16       		.uleb128 0x16
 1293 0668 72313300 		.ascii	"r13\000"
 1294 066c 08       		.byte	0x8
 1295 066d 8A       		.byte	0x8a
 1296 066e EF060000 		.4byte	0x6ef
 1297 0672 00       		.byte	0
 1298 0673 00       		.byte	0
 1299 0674 06       		.uleb128 0x6
 1300 0675 56000000 		.4byte	.LASF116
 1301 0679 24       		.byte	0x24
 1302 067a 09       		.byte	0x9
 1303 067b F4       		.byte	0xf4
 1304 067c EF060000 		.4byte	0x6ef
 1305 0680 08       		.uleb128 0x8
 1306 0681 723400   		.ascii	"r4\000"
 1307 0684 09       		.byte	0x9
 1308 0685 0701     		.2byte	0x107
 1309 0687 45060000 		.4byte	0x645
 1310 068b 00       		.byte	0
 1311 068c 08       		.uleb128 0x8
ARM GAS  C:\Users\jo\AppData\Local\Temp\cc5axC9B.s 			page 24


 1312 068d 723500   		.ascii	"r5\000"
 1313 0690 09       		.byte	0x9
 1314 0691 0801     		.2byte	0x108
 1315 0693 45060000 		.4byte	0x645
 1316 0697 04       		.byte	0x4
 1317 0698 08       		.uleb128 0x8
 1318 0699 723600   		.ascii	"r6\000"
 1319 069c 09       		.byte	0x9
 1320 069d 0901     		.2byte	0x109
 1321 069f 45060000 		.4byte	0x645
 1322 06a3 08       		.byte	0x8
 1323 06a4 08       		.uleb128 0x8
 1324 06a5 723700   		.ascii	"r7\000"
 1325 06a8 09       		.byte	0x9
 1326 06a9 0A01     		.2byte	0x10a
 1327 06ab 45060000 		.4byte	0x645
 1328 06af 0C       		.byte	0xc
 1329 06b0 08       		.uleb128 0x8
 1330 06b1 723800   		.ascii	"r8\000"
 1331 06b4 09       		.byte	0x9
 1332 06b5 0B01     		.2byte	0x10b
 1333 06b7 45060000 		.4byte	0x645
 1334 06bb 10       		.byte	0x10
 1335 06bc 08       		.uleb128 0x8
 1336 06bd 723900   		.ascii	"r9\000"
 1337 06c0 09       		.byte	0x9
 1338 06c1 0C01     		.2byte	0x10c
 1339 06c3 45060000 		.4byte	0x645
 1340 06c7 14       		.byte	0x14
 1341 06c8 08       		.uleb128 0x8
 1342 06c9 72313000 		.ascii	"r10\000"
 1343 06cd 09       		.byte	0x9
 1344 06ce 0D01     		.2byte	0x10d
 1345 06d0 45060000 		.4byte	0x645
 1346 06d4 18       		.byte	0x18
 1347 06d5 08       		.uleb128 0x8
 1348 06d6 72313100 		.ascii	"r11\000"
 1349 06da 09       		.byte	0x9
 1350 06db 0E01     		.2byte	0x10e
 1351 06dd 45060000 		.4byte	0x645
 1352 06e1 1C       		.byte	0x1c
 1353 06e2 08       		.uleb128 0x8
 1354 06e3 6C7200   		.ascii	"lr\000"
 1355 06e6 09       		.byte	0x9
 1356 06e7 0F01     		.2byte	0x10f
 1357 06e9 45060000 		.4byte	0x645
 1358 06ed 20       		.byte	0x20
 1359 06ee 00       		.byte	0
 1360 06ef 0A       		.uleb128 0xa
 1361 06f0 04       		.byte	0x4
 1362 06f1 74060000 		.4byte	0x674
 1363 06f5 17       		.uleb128 0x17
 1364 06f6 10       		.byte	0x10
 1365 06f7 0A       		.byte	0xa
 1366 06f8 51       		.byte	0x51
 1367 06f9 2E070000 		.4byte	0x72e
 1368 06fd 07       		.uleb128 0x7
ARM GAS  C:\Users\jo\AppData\Local\Temp\cc5axC9B.s 			page 25


 1369 06fe 27000000 		.4byte	.LASF117
 1370 0702 0A       		.byte	0xa
 1371 0703 55       		.byte	0x55
 1372 0704 3B010000 		.4byte	0x13b
 1373 0708 00       		.byte	0
 1374 0709 07       		.uleb128 0x7
 1375 070a E1010000 		.4byte	.LASF118
 1376 070e 0A       		.byte	0xa
 1377 070f 59       		.byte	0x59
 1378 0710 55020000 		.4byte	0x255
 1379 0714 04       		.byte	0x4
 1380 0715 07       		.uleb128 0x7
 1381 0716 2E080000 		.4byte	.LASF119
 1382 071a 0A       		.byte	0xa
 1383 071b 5D       		.byte	0x5d
 1384 071c 32030000 		.4byte	0x332
 1385 0720 08       		.byte	0x8
 1386 0721 07       		.uleb128 0x7
 1387 0722 B4000000 		.4byte	.LASF120
 1388 0726 0A       		.byte	0xa
 1389 0727 61       		.byte	0x61
 1390 0728 A2000000 		.4byte	0xa2
 1391 072c 0C       		.byte	0xc
 1392 072d 00       		.byte	0
 1393 072e 04       		.uleb128 0x4
 1394 072f A4040000 		.4byte	.LASF121
 1395 0733 0A       		.byte	0xa
 1396 0734 62       		.byte	0x62
 1397 0735 F5060000 		.4byte	0x6f5
 1398 0739 18       		.uleb128 0x18
 1399 073a 0804     		.2byte	0x408
 1400 073c 0A       		.byte	0xa
 1401 073d 67       		.byte	0x67
 1402 073e 67070000 		.4byte	0x767
 1403 0742 07       		.uleb128 0x7
 1404 0743 09020000 		.4byte	.LASF122
 1405 0747 0A       		.byte	0xa
 1406 0748 6B       		.byte	0x6b
 1407 0749 2C000000 		.4byte	0x2c
 1408 074d 00       		.byte	0
 1409 074e 07       		.uleb128 0x7
 1410 074f 13000000 		.4byte	.LASF123
 1411 0753 0A       		.byte	0xa
 1412 0754 6F       		.byte	0x6f
 1413 0755 67070000 		.4byte	0x767
 1414 0759 04       		.byte	0x4
 1415 075a 07       		.uleb128 0x7
 1416 075b 16030000 		.4byte	.LASF124
 1417 075f 0A       		.byte	0xa
 1418 0760 73       		.byte	0x73
 1419 0761 6D070000 		.4byte	0x76d
 1420 0765 08       		.byte	0x8
 1421 0766 00       		.byte	0
 1422 0767 0A       		.uleb128 0xa
 1423 0768 04       		.byte	0x4
 1424 0769 2E070000 		.4byte	0x72e
 1425 076d 12       		.uleb128 0x12
ARM GAS  C:\Users\jo\AppData\Local\Temp\cc5axC9B.s 			page 26


 1426 076e 2E070000 		.4byte	0x72e
 1427 0772 7D070000 		.4byte	0x77d
 1428 0776 13       		.uleb128 0x13
 1429 0777 93040000 		.4byte	0x493
 1430 077b 3F       		.byte	0x3f
 1431 077c 00       		.byte	0
 1432 077d 04       		.uleb128 0x4
 1433 077e A2000000 		.4byte	.LASF125
 1434 0782 0A       		.byte	0xa
 1435 0783 74       		.byte	0x74
 1436 0784 39070000 		.4byte	0x739
 1437 0788 17       		.uleb128 0x17
 1438 0789 04       		.byte	0x4
 1439 078a 0B       		.byte	0xb
 1440 078b 38       		.byte	0x38
 1441 078c 9D070000 		.4byte	0x79d
 1442 0790 07       		.uleb128 0x7
 1443 0791 01070000 		.4byte	.LASF126
 1444 0795 0B       		.byte	0xb
 1445 0796 3C       		.byte	0x3c
 1446 0797 E3000000 		.4byte	0xe3
 1447 079b 00       		.byte	0
 1448 079c 00       		.byte	0
 1449 079d 04       		.uleb128 0x4
 1450 079e DF040000 		.4byte	.LASF127
 1451 07a2 0B       		.byte	0xb
 1452 07a3 3D       		.byte	0x3d
 1453 07a4 88070000 		.4byte	0x788
 1454 07a8 19       		.uleb128 0x19
 1455 07a9 04       		.byte	0x4
 1456 07aa 06       		.byte	0x6
 1457 07ab FA       		.byte	0xfa
 1458 07ac 05080000 		.4byte	0x805
 1459 07b0 1A       		.uleb128 0x1a
 1460 07b1 35000000 		.4byte	.LASF128
 1461 07b5 06       		.byte	0x6
 1462 07b6 0101     		.2byte	0x101
 1463 07b8 1A010000 		.4byte	0x11a
 1464 07bc 1A       		.uleb128 0x1a
 1465 07bd C3000000 		.4byte	.LASF129
 1466 07c1 06       		.byte	0x6
 1467 07c2 0801     		.2byte	0x108
 1468 07c4 1A010000 		.4byte	0x11a
 1469 07c8 1A       		.uleb128 0x1a
 1470 07c9 AD070000 		.4byte	.LASF130
 1471 07cd 06       		.byte	0x6
 1472 07ce 0F01     		.2byte	0x10f
 1473 07d0 32030000 		.4byte	0x332
 1474 07d4 1A       		.uleb128 0x1a
 1475 07d5 2F000000 		.4byte	.LASF131
 1476 07d9 06       		.byte	0x6
 1477 07da 1601     		.2byte	0x116
 1478 07dc 05080000 		.4byte	0x805
 1479 07e0 1A       		.uleb128 0x1a
 1480 07e1 9D020000 		.4byte	.LASF132
 1481 07e5 06       		.byte	0x6
 1482 07e6 1E01     		.2byte	0x11e
ARM GAS  C:\Users\jo\AppData\Local\Temp\cc5axC9B.s 			page 27


 1483 07e8 30080000 		.4byte	0x830
 1484 07ec 1A       		.uleb128 0x1a
 1485 07ed 51060000 		.4byte	.LASF133
 1486 07f1 06       		.byte	0x6
 1487 07f2 2701     		.2byte	0x127
 1488 07f4 67080000 		.4byte	0x867
 1489 07f8 1A       		.uleb128 0x1a
 1490 07f9 E2050000 		.4byte	.LASF134
 1491 07fd 06       		.byte	0x6
 1492 07fe 2F01     		.2byte	0x12f
 1493 0800 25010000 		.4byte	0x125
 1494 0804 00       		.byte	0
 1495 0805 0A       		.uleb128 0xa
 1496 0806 04       		.byte	0x4
 1497 0807 4A020000 		.4byte	0x24a
 1498 080b 06       		.uleb128 0x6
 1499 080c 26060000 		.4byte	.LASF135
 1500 0810 0C       		.byte	0xc
 1501 0811 0C       		.byte	0xc
 1502 0812 34       		.byte	0x34
 1503 0813 30080000 		.4byte	0x830
 1504 0817 07       		.uleb128 0x7
 1505 0818 59040000 		.4byte	.LASF136
 1506 081c 0C       		.byte	0xc
 1507 081d 35       		.byte	0x35
 1508 081e 7F020000 		.4byte	0x27f
 1509 0822 00       		.byte	0
 1510 0823 07       		.uleb128 0x7
 1511 0824 A8050000 		.4byte	.LASF137
 1512 0828 0C       		.byte	0xc
 1513 0829 37       		.byte	0x37
 1514 082a 30010000 		.4byte	0x130
 1515 082e 08       		.byte	0x8
 1516 082f 00       		.byte	0
 1517 0830 0A       		.uleb128 0xa
 1518 0831 04       		.byte	0x4
 1519 0832 0B080000 		.4byte	0x80b
 1520 0836 06       		.uleb128 0x6
 1521 0837 6E070000 		.4byte	.LASF138
 1522 083b 10       		.byte	0x10
 1523 083c 0D       		.byte	0xd
 1524 083d 39       		.byte	0x39
 1525 083e 67080000 		.4byte	0x867
 1526 0842 07       		.uleb128 0x7
 1527 0843 9A010000 		.4byte	.LASF139
 1528 0847 0D       		.byte	0xd
 1529 0848 3A       		.byte	0x3a
 1530 0849 7F020000 		.4byte	0x27f
 1531 084d 00       		.byte	0
 1532 084e 07       		.uleb128 0x7
 1533 084f 26080000 		.4byte	.LASF140
 1534 0853 0D       		.byte	0xd
 1535 0854 3C       		.byte	0x3c
 1536 0855 55020000 		.4byte	0x255
 1537 0859 08       		.byte	0x8
 1538 085a 07       		.uleb128 0x7
 1539 085b BE060000 		.4byte	.LASF141
ARM GAS  C:\Users\jo\AppData\Local\Temp\cc5axC9B.s 			page 28


 1540 085f 0D       		.byte	0xd
 1541 0860 3E       		.byte	0x3e
 1542 0861 AB080000 		.4byte	0x8ab
 1543 0865 0C       		.byte	0xc
 1544 0866 00       		.byte	0
 1545 0867 0A       		.uleb128 0xa
 1546 0868 04       		.byte	0x4
 1547 0869 36080000 		.4byte	0x836
 1548 086d 0A       		.uleb128 0xa
 1549 086e 04       		.byte	0x4
 1550 086f 73080000 		.4byte	0x873
 1551 0873 1B       		.uleb128 0x1b
 1552 0874 78080000 		.4byte	0x878
 1553 0878 03       		.uleb128 0x3
 1554 0879 01       		.byte	0x1
 1555 087a 08       		.byte	0x8
 1556 087b 90060000 		.4byte	.LASF142
 1557 087f 0A       		.uleb128 0xa
 1558 0880 04       		.byte	0x4
 1559 0881 50060000 		.4byte	0x650
 1560 0885 0A       		.uleb128 0xa
 1561 0886 04       		.byte	0x4
 1562 0887 34030000 		.4byte	0x334
 1563 088b 05       		.uleb128 0x5
 1564 088c 6D080000 		.4byte	0x86d
 1565 0890 12       		.uleb128 0x12
 1566 0891 50060000 		.4byte	0x650
 1567 0895 A0080000 		.4byte	0x8a0
 1568 0899 13       		.uleb128 0x13
 1569 089a 93040000 		.4byte	0x493
 1570 089e 1B       		.byte	0x1b
 1571 089f 00       		.byte	0
 1572 08a0 04       		.uleb128 0x4
 1573 08a1 50020000 		.4byte	.LASF143
 1574 08a5 0D       		.byte	0xd
 1575 08a6 34       		.byte	0x34
 1576 08a7 36080000 		.4byte	0x836
 1577 08ab 0A       		.uleb128 0xa
 1578 08ac 04       		.byte	0x4
 1579 08ad A0080000 		.4byte	0x8a0
 1580 08b1 03       		.uleb128 0x3
 1581 08b2 01       		.byte	0x1
 1582 08b3 02       		.byte	0x2
 1583 08b4 87050000 		.4byte	.LASF144
 1584 08b8 17       		.uleb128 0x17
 1585 08b9 04       		.byte	0x4
 1586 08ba 0E       		.byte	0xe
 1587 08bb B3       		.byte	0xb3
 1588 08bc D9080000 		.4byte	0x8d9
 1589 08c0 16       		.uleb128 0x16
 1590 08c1 73657400 		.ascii	"set\000"
 1591 08c5 0E       		.byte	0xe
 1592 08c6 B4       		.byte	0xb4
 1593 08c7 AD000000 		.4byte	0xad
 1594 08cb 00       		.byte	0
 1595 08cc 07       		.uleb128 0x7
 1596 08cd 9E040000 		.4byte	.LASF145
ARM GAS  C:\Users\jo\AppData\Local\Temp\cc5axC9B.s 			page 29


 1597 08d1 0E       		.byte	0xe
 1598 08d2 B5       		.byte	0xb5
 1599 08d3 AD000000 		.4byte	0xad
 1600 08d7 02       		.byte	0x2
 1601 08d8 00       		.byte	0
 1602 08d9 19       		.uleb128 0x19
 1603 08da 04       		.byte	0x4
 1604 08db 0E       		.byte	0xe
 1605 08dc B1       		.byte	0xb1
 1606 08dd F4080000 		.4byte	0x8f4
 1607 08e1 1C       		.uleb128 0x1c
 1608 08e2 5700     		.ascii	"W\000"
 1609 08e4 0E       		.byte	0xe
 1610 08e5 B2       		.byte	0xb2
 1611 08e6 C3000000 		.4byte	0xc3
 1612 08ea 1C       		.uleb128 0x1c
 1613 08eb 4800     		.ascii	"H\000"
 1614 08ed 0E       		.byte	0xe
 1615 08ee B6       		.byte	0xb6
 1616 08ef B8080000 		.4byte	0x8b8
 1617 08f3 00       		.byte	0
 1618 08f4 17       		.uleb128 0x17
 1619 08f5 2C       		.byte	0x2c
 1620 08f6 0E       		.byte	0xe
 1621 08f7 A9       		.byte	0xa9
 1622 08f8 81090000 		.4byte	0x981
 1623 08fc 07       		.uleb128 0x7
 1624 08fd 85000000 		.4byte	.LASF146
 1625 0901 0E       		.byte	0xe
 1626 0902 AB       		.byte	0xab
 1627 0903 DE000000 		.4byte	0xde
 1628 0907 00       		.byte	0
 1629 0908 07       		.uleb128 0x7
 1630 0909 4F000000 		.4byte	.LASF147
 1631 090d 0E       		.byte	0xe
 1632 090e AC       		.byte	0xac
 1633 090f DE000000 		.4byte	0xde
 1634 0913 04       		.byte	0x4
 1635 0914 07       		.uleb128 0x7
 1636 0915 11020000 		.4byte	.LASF148
 1637 0919 0E       		.byte	0xe
 1638 091a AD       		.byte	0xad
 1639 091b DE000000 		.4byte	0xde
 1640 091f 08       		.byte	0x8
 1641 0920 07       		.uleb128 0x7
 1642 0921 BD000000 		.4byte	.LASF149
 1643 0925 0E       		.byte	0xe
 1644 0926 AE       		.byte	0xae
 1645 0927 DE000000 		.4byte	0xde
 1646 092b 0C       		.byte	0xc
 1647 092c 16       		.uleb128 0x16
 1648 092d 49445200 		.ascii	"IDR\000"
 1649 0931 0E       		.byte	0xe
 1650 0932 AF       		.byte	0xaf
 1651 0933 DE000000 		.4byte	0xde
 1652 0937 10       		.byte	0x10
 1653 0938 16       		.uleb128 0x16
ARM GAS  C:\Users\jo\AppData\Local\Temp\cc5axC9B.s 			page 30


 1654 0939 4F445200 		.ascii	"ODR\000"
 1655 093d 0E       		.byte	0xe
 1656 093e B0       		.byte	0xb0
 1657 093f DE000000 		.4byte	0xde
 1658 0943 14       		.byte	0x14
 1659 0944 07       		.uleb128 0x7
 1660 0945 84010000 		.4byte	.LASF150
 1661 0949 0E       		.byte	0xe
 1662 094a B7       		.byte	0xb7
 1663 094b 81090000 		.4byte	0x981
 1664 094f 18       		.byte	0x18
 1665 0950 07       		.uleb128 0x7
 1666 0951 B7020000 		.4byte	.LASF151
 1667 0955 0E       		.byte	0xe
 1668 0956 B8       		.byte	0xb8
 1669 0957 DE000000 		.4byte	0xde
 1670 095b 1C       		.byte	0x1c
 1671 095c 07       		.uleb128 0x7
 1672 095d 1F050000 		.4byte	.LASF152
 1673 0961 0E       		.byte	0xe
 1674 0962 B9       		.byte	0xb9
 1675 0963 DE000000 		.4byte	0xde
 1676 0967 20       		.byte	0x20
 1677 0968 07       		.uleb128 0x7
 1678 0969 1A050000 		.4byte	.LASF153
 1679 096d 0E       		.byte	0xe
 1680 096e BA       		.byte	0xba
 1681 096f DE000000 		.4byte	0xde
 1682 0973 24       		.byte	0x24
 1683 0974 16       		.uleb128 0x16
 1684 0975 42525200 		.ascii	"BRR\000"
 1685 0979 0E       		.byte	0xe
 1686 097a BB       		.byte	0xbb
 1687 097b DE000000 		.4byte	0xde
 1688 097f 28       		.byte	0x28
 1689 0980 00       		.byte	0
 1690 0981 05       		.uleb128 0x5
 1691 0982 D9080000 		.4byte	0x8d9
 1692 0986 04       		.uleb128 0x4
 1693 0987 3E020000 		.4byte	.LASF154
 1694 098b 0E       		.byte	0xe
 1695 098c BC       		.byte	0xbc
 1696 098d F4080000 		.4byte	0x8f4
 1697 0991 17       		.uleb128 0x17
 1698 0992 1C       		.byte	0x1c
 1699 0993 0E       		.byte	0xe
 1700 0994 C1       		.byte	0xc1
 1701 0995 EE090000 		.4byte	0x9ee
 1702 0999 07       		.uleb128 0x7
 1703 099a A2010000 		.4byte	.LASF155
 1704 099e 0E       		.byte	0xe
 1705 099f C3       		.byte	0xc3
 1706 09a0 C3000000 		.4byte	0xc3
 1707 09a4 00       		.byte	0
 1708 09a5 07       		.uleb128 0x7
 1709 09a6 BC020000 		.4byte	.LASF156
 1710 09aa 0E       		.byte	0xe
ARM GAS  C:\Users\jo\AppData\Local\Temp\cc5axC9B.s 			page 31


 1711 09ab C5       		.byte	0xc5
 1712 09ac C3000000 		.4byte	0xc3
 1713 09b0 04       		.byte	0x4
 1714 09b1 07       		.uleb128 0x7
 1715 09b2 AF020000 		.4byte	.LASF157
 1716 09b6 0E       		.byte	0xe
 1717 09b7 C7       		.byte	0xc7
 1718 09b8 C3000000 		.4byte	0xc3
 1719 09bc 08       		.byte	0x8
 1720 09bd 07       		.uleb128 0x7
 1721 09be A7070000 		.4byte	.LASF158
 1722 09c2 0E       		.byte	0xe
 1723 09c3 C9       		.byte	0xc9
 1724 09c4 C3000000 		.4byte	0xc3
 1725 09c8 0C       		.byte	0xc
 1726 09c9 16       		.uleb128 0x16
 1727 09ca 6F647200 		.ascii	"odr\000"
 1728 09ce 0E       		.byte	0xe
 1729 09cf CB       		.byte	0xcb
 1730 09d0 C3000000 		.4byte	0xc3
 1731 09d4 10       		.byte	0x10
 1732 09d5 07       		.uleb128 0x7
 1733 09d6 A3050000 		.4byte	.LASF159
 1734 09da 0E       		.byte	0xe
 1735 09db CD       		.byte	0xcd
 1736 09dc C3000000 		.4byte	0xc3
 1737 09e0 14       		.byte	0x14
 1738 09e1 07       		.uleb128 0x7
 1739 09e2 F0040000 		.4byte	.LASF160
 1740 09e6 0E       		.byte	0xe
 1741 09e7 CF       		.byte	0xcf
 1742 09e8 C3000000 		.4byte	0xc3
 1743 09ec 18       		.byte	0x18
 1744 09ed 00       		.byte	0
 1745 09ee 04       		.uleb128 0x4
 1746 09ef 00000000 		.4byte	.LASF161
 1747 09f3 0E       		.byte	0xe
 1748 09f4 D0       		.byte	0xd0
 1749 09f5 91090000 		.4byte	0x991
 1750 09f9 17       		.uleb128 0x17
 1751 09fa FC       		.byte	0xfc
 1752 09fb 0E       		.byte	0xe
 1753 09fc D9       		.byte	0xd9
 1754 09fd 6E0A0000 		.4byte	0xa6e
 1755 0a01 07       		.uleb128 0x7
 1756 0a02 DB050000 		.4byte	.LASF162
 1757 0a06 0E       		.byte	0xe
 1758 0a07 DC       		.byte	0xdc
 1759 0a08 EE090000 		.4byte	0x9ee
 1760 0a0c 00       		.byte	0
 1761 0a0d 07       		.uleb128 0x7
 1762 0a0e 58020000 		.4byte	.LASF163
 1763 0a12 0E       		.byte	0xe
 1764 0a13 E0       		.byte	0xe0
 1765 0a14 EE090000 		.4byte	0x9ee
 1766 0a18 1C       		.byte	0x1c
 1767 0a19 07       		.uleb128 0x7
ARM GAS  C:\Users\jo\AppData\Local\Temp\cc5axC9B.s 			page 32


 1768 0a1a C3070000 		.4byte	.LASF164
 1769 0a1e 0E       		.byte	0xe
 1770 0a1f E4       		.byte	0xe4
 1771 0a20 EE090000 		.4byte	0x9ee
 1772 0a24 38       		.byte	0x38
 1773 0a25 07       		.uleb128 0x7
 1774 0a26 F5040000 		.4byte	.LASF165
 1775 0a2a 0E       		.byte	0xe
 1776 0a2b E8       		.byte	0xe8
 1777 0a2c EE090000 		.4byte	0x9ee
 1778 0a30 54       		.byte	0x54
 1779 0a31 07       		.uleb128 0x7
 1780 0a32 C7010000 		.4byte	.LASF166
 1781 0a36 0E       		.byte	0xe
 1782 0a37 EC       		.byte	0xec
 1783 0a38 EE090000 		.4byte	0x9ee
 1784 0a3c 70       		.byte	0x70
 1785 0a3d 07       		.uleb128 0x7
 1786 0a3e D6020000 		.4byte	.LASF167
 1787 0a42 0E       		.byte	0xe
 1788 0a43 F0       		.byte	0xf0
 1789 0a44 EE090000 		.4byte	0x9ee
 1790 0a48 8C       		.byte	0x8c
 1791 0a49 07       		.uleb128 0x7
 1792 0a4a 4E030000 		.4byte	.LASF168
 1793 0a4e 0E       		.byte	0xe
 1794 0a4f F4       		.byte	0xf4
 1795 0a50 EE090000 		.4byte	0x9ee
 1796 0a54 A8       		.byte	0xa8
 1797 0a55 07       		.uleb128 0x7
 1798 0a56 7E000000 		.4byte	.LASF169
 1799 0a5a 0E       		.byte	0xe
 1800 0a5b F8       		.byte	0xf8
 1801 0a5c EE090000 		.4byte	0x9ee
 1802 0a60 C4       		.byte	0xc4
 1803 0a61 07       		.uleb128 0x7
 1804 0a62 0E060000 		.4byte	.LASF170
 1805 0a66 0E       		.byte	0xe
 1806 0a67 FC       		.byte	0xfc
 1807 0a68 EE090000 		.4byte	0x9ee
 1808 0a6c E0       		.byte	0xe0
 1809 0a6d 00       		.byte	0
 1810 0a6e 04       		.uleb128 0x4
 1811 0a6f 1C080000 		.4byte	.LASF171
 1812 0a73 0E       		.byte	0xe
 1813 0a74 FE       		.byte	0xfe
 1814 0a75 F9090000 		.4byte	0x9f9
 1815 0a79 15       		.uleb128 0x15
 1816 0a7a 71000000 		.4byte	.LASF172
 1817 0a7e 0E       		.byte	0xe
 1818 0a7f 0E01     		.2byte	0x10e
 1819 0a81 C3000000 		.4byte	0xc3
 1820 0a85 15       		.uleb128 0x15
 1821 0a86 13080000 		.4byte	.LASF173
 1822 0a8a 0E       		.byte	0xe
 1823 0a8b 1301     		.2byte	0x113
 1824 0a8d C3000000 		.4byte	0xc3
ARM GAS  C:\Users\jo\AppData\Local\Temp\cc5axC9B.s 			page 33


 1825 0a91 15       		.uleb128 0x15
 1826 0a92 10070000 		.4byte	.LASF174
 1827 0a96 0E       		.byte	0xe
 1828 0a97 1B01     		.2byte	0x11b
 1829 0a99 9D0A0000 		.4byte	0xa9d
 1830 0a9d 0A       		.uleb128 0xa
 1831 0a9e 04       		.byte	0x4
 1832 0a9f 86090000 		.4byte	0x986
 1833 0aa3 1D       		.uleb128 0x1d
 1834 0aa4 EE060000 		.4byte	.LASF188
 1835 0aa8 01       		.byte	0x1
 1836 0aa9 41       		.byte	0x41
 1837 0aaa 01       		.byte	0x1
 1838 0aab C60A0000 		.4byte	0xac6
 1839 0aaf 1E       		.uleb128 0x1e
 1840 0ab0 00060000 		.4byte	.LASF175
 1841 0ab4 01       		.byte	0x1
 1842 0ab5 41       		.byte	0x41
 1843 0ab6 9D0A0000 		.4byte	0xa9d
 1844 0aba 1E       		.uleb128 0x1e
 1845 0abb 9A060000 		.4byte	.LASF176
 1846 0abf 01       		.byte	0x1
 1847 0ac0 41       		.byte	0x41
 1848 0ac1 C60A0000 		.4byte	0xac6
 1849 0ac5 00       		.byte	0
 1850 0ac6 0A       		.uleb128 0xa
 1851 0ac7 04       		.byte	0x4
 1852 0ac8 CC0A0000 		.4byte	0xacc
 1853 0acc 1B       		.uleb128 0x1b
 1854 0acd EE090000 		.4byte	0x9ee
 1855 0ad1 1F       		.uleb128 0x1f
 1856 0ad2 86070000 		.4byte	.LASF177
 1857 0ad6 01       		.byte	0x1
 1858 0ad7 5C       		.byte	0x5c
 1859 0ad8 00000000 		.4byte	.LFB260
 1860 0adc CC010000 		.4byte	.LFE260-.LFB260
 1861 0ae0 01       		.uleb128 0x1
 1862 0ae1 9C       		.byte	0x9c
 1863 0ae2 4A0C0000 		.4byte	0xc4a
 1864 0ae6 20       		.uleb128 0x20
 1865 0ae7 9A060000 		.4byte	.LASF176
 1866 0aeb 01       		.byte	0x1
 1867 0aec 5C       		.byte	0x5c
 1868 0aed 4A0C0000 		.4byte	0xc4a
 1869 0af1 01       		.uleb128 0x1
 1870 0af2 50       		.byte	0x50
 1871 0af3 21       		.uleb128 0x21
 1872 0af4 A30A0000 		.4byte	0xaa3
 1873 0af8 08000000 		.4byte	.LBB20
 1874 0afc 00000000 		.4byte	.Ldebug_ranges0+0
 1875 0b00 01       		.byte	0x1
 1876 0b01 71       		.byte	0x71
 1877 0b02 170B0000 		.4byte	0xb17
 1878 0b06 22       		.uleb128 0x22
 1879 0b07 BA0A0000 		.4byte	0xaba
 1880 0b0b 01       		.uleb128 0x1
 1881 0b0c 50       		.byte	0x50
ARM GAS  C:\Users\jo\AppData\Local\Temp\cc5axC9B.s 			page 34


 1882 0b0d 23       		.uleb128 0x23
 1883 0b0e AF0A0000 		.4byte	0xaaf
 1884 0b12 00000240 		.4byte	0x40020000
 1885 0b16 00       		.byte	0
 1886 0b17 21       		.uleb128 0x21
 1887 0b18 A30A0000 		.4byte	0xaa3
 1888 0b1c 10000000 		.4byte	.LBB23
 1889 0b20 18000000 		.4byte	.Ldebug_ranges0+0x18
 1890 0b24 01       		.byte	0x1
 1891 0b25 74       		.byte	0x74
 1892 0b26 3D0B0000 		.4byte	0xb3d
 1893 0b2a 22       		.uleb128 0x22
 1894 0b2b BA0A0000 		.4byte	0xaba
 1895 0b2f 03       		.uleb128 0x3
 1896 0b30 70       		.byte	0x70
 1897 0b31 1C       		.sleb128 28
 1898 0b32 9F       		.byte	0x9f
 1899 0b33 23       		.uleb128 0x23
 1900 0b34 AF0A0000 		.4byte	0xaaf
 1901 0b38 00040240 		.4byte	0x40020400
 1902 0b3c 00       		.byte	0
 1903 0b3d 21       		.uleb128 0x21
 1904 0b3e A30A0000 		.4byte	0xaa3
 1905 0b42 14000000 		.4byte	.LBB26
 1906 0b46 30000000 		.4byte	.Ldebug_ranges0+0x30
 1907 0b4a 01       		.byte	0x1
 1908 0b4b 77       		.byte	0x77
 1909 0b4c 630B0000 		.4byte	0xb63
 1910 0b50 22       		.uleb128 0x22
 1911 0b51 BA0A0000 		.4byte	0xaba
 1912 0b55 03       		.uleb128 0x3
 1913 0b56 70       		.byte	0x70
 1914 0b57 38       		.sleb128 56
 1915 0b58 9F       		.byte	0x9f
 1916 0b59 23       		.uleb128 0x23
 1917 0b5a AF0A0000 		.4byte	0xaaf
 1918 0b5e 00080240 		.4byte	0x40020800
 1919 0b62 00       		.byte	0
 1920 0b63 21       		.uleb128 0x21
 1921 0b64 A30A0000 		.4byte	0xaa3
 1922 0b68 16000000 		.4byte	.LBB29
 1923 0b6c 48000000 		.4byte	.Ldebug_ranges0+0x48
 1924 0b70 01       		.byte	0x1
 1925 0b71 7A       		.byte	0x7a
 1926 0b72 8A0B0000 		.4byte	0xb8a
 1927 0b76 22       		.uleb128 0x22
 1928 0b77 BA0A0000 		.4byte	0xaba
 1929 0b7b 04       		.uleb128 0x4
 1930 0b7c 70       		.byte	0x70
 1931 0b7d D400     		.sleb128 84
 1932 0b7f 9F       		.byte	0x9f
 1933 0b80 23       		.uleb128 0x23
 1934 0b81 AF0A0000 		.4byte	0xaaf
 1935 0b85 000C0240 		.4byte	0x40020c00
 1936 0b89 00       		.byte	0
 1937 0b8a 21       		.uleb128 0x21
 1938 0b8b A30A0000 		.4byte	0xaa3
ARM GAS  C:\Users\jo\AppData\Local\Temp\cc5axC9B.s 			page 35


 1939 0b8f 18000000 		.4byte	.LBB32
 1940 0b93 60000000 		.4byte	.Ldebug_ranges0+0x60
 1941 0b97 01       		.byte	0x1
 1942 0b98 7D       		.byte	0x7d
 1943 0b99 B10B0000 		.4byte	0xbb1
 1944 0b9d 22       		.uleb128 0x22
 1945 0b9e BA0A0000 		.4byte	0xaba
 1946 0ba2 04       		.uleb128 0x4
 1947 0ba3 70       		.byte	0x70
 1948 0ba4 F000     		.sleb128 112
 1949 0ba6 9F       		.byte	0x9f
 1950 0ba7 23       		.uleb128 0x23
 1951 0ba8 AF0A0000 		.4byte	0xaaf
 1952 0bac 00100240 		.4byte	0x40021000
 1953 0bb0 00       		.byte	0
 1954 0bb1 21       		.uleb128 0x21
 1955 0bb2 A30A0000 		.4byte	0xaa3
 1956 0bb6 1A000000 		.4byte	.LBB35
 1957 0bba 78000000 		.4byte	.Ldebug_ranges0+0x78
 1958 0bbe 01       		.byte	0x1
 1959 0bbf 80       		.byte	0x80
 1960 0bc0 D80B0000 		.4byte	0xbd8
 1961 0bc4 22       		.uleb128 0x22
 1962 0bc5 BA0A0000 		.4byte	0xaba
 1963 0bc9 04       		.uleb128 0x4
 1964 0bca 70       		.byte	0x70
 1965 0bcb 8C01     		.sleb128 140
 1966 0bcd 9F       		.byte	0x9f
 1967 0bce 23       		.uleb128 0x23
 1968 0bcf AF0A0000 		.4byte	0xaaf
 1969 0bd3 00140240 		.4byte	0x40021400
 1970 0bd7 00       		.byte	0
 1971 0bd8 21       		.uleb128 0x21
 1972 0bd9 A30A0000 		.4byte	0xaa3
 1973 0bdd 1C000000 		.4byte	.LBB38
 1974 0be1 90000000 		.4byte	.Ldebug_ranges0+0x90
 1975 0be5 01       		.byte	0x1
 1976 0be6 83       		.byte	0x83
 1977 0be7 FF0B0000 		.4byte	0xbff
 1978 0beb 22       		.uleb128 0x22
 1979 0bec BA0A0000 		.4byte	0xaba
 1980 0bf0 04       		.uleb128 0x4
 1981 0bf1 70       		.byte	0x70
 1982 0bf2 A801     		.sleb128 168
 1983 0bf4 9F       		.byte	0x9f
 1984 0bf5 23       		.uleb128 0x23
 1985 0bf6 AF0A0000 		.4byte	0xaaf
 1986 0bfa 00180240 		.4byte	0x40021800
 1987 0bfe 00       		.byte	0
 1988 0bff 21       		.uleb128 0x21
 1989 0c00 A30A0000 		.4byte	0xaa3
 1990 0c04 1E000000 		.4byte	.LBB41
 1991 0c08 A8000000 		.4byte	.Ldebug_ranges0+0xa8
 1992 0c0c 01       		.byte	0x1
 1993 0c0d 86       		.byte	0x86
 1994 0c0e 260C0000 		.4byte	0xc26
 1995 0c12 22       		.uleb128 0x22
ARM GAS  C:\Users\jo\AppData\Local\Temp\cc5axC9B.s 			page 36


 1996 0c13 BA0A0000 		.4byte	0xaba
 1997 0c17 04       		.uleb128 0x4
 1998 0c18 70       		.byte	0x70
 1999 0c19 C401     		.sleb128 196
 2000 0c1b 9F       		.byte	0x9f
 2001 0c1c 23       		.uleb128 0x23
 2002 0c1d AF0A0000 		.4byte	0xaaf
 2003 0c21 001C0240 		.4byte	0x40021c00
 2004 0c25 00       		.byte	0
 2005 0c26 24       		.uleb128 0x24
 2006 0c27 A30A0000 		.4byte	0xaa3
 2007 0c2b 20000000 		.4byte	.LBB44
 2008 0c2f C0000000 		.4byte	.Ldebug_ranges0+0xc0
 2009 0c33 01       		.byte	0x1
 2010 0c34 89       		.byte	0x89
 2011 0c35 22       		.uleb128 0x22
 2012 0c36 BA0A0000 		.4byte	0xaba
 2013 0c3a 04       		.uleb128 0x4
 2014 0c3b 70       		.byte	0x70
 2015 0c3c E001     		.sleb128 224
 2016 0c3e 9F       		.byte	0x9f
 2017 0c3f 23       		.uleb128 0x23
 2018 0c40 AF0A0000 		.4byte	0xaaf
 2019 0c44 00200240 		.4byte	0x40022000
 2020 0c48 00       		.byte	0
 2021 0c49 00       		.byte	0
 2022 0c4a 0A       		.uleb128 0xa
 2023 0c4b 04       		.byte	0x4
 2024 0c4c 500C0000 		.4byte	0xc50
 2025 0c50 1B       		.uleb128 0x1b
 2026 0c51 6E0A0000 		.4byte	0xa6e
 2027 0c55 1F       		.uleb128 0x1f
 2028 0c56 33070000 		.4byte	.LASF178
 2029 0c5a 01       		.byte	0x1
 2030 0c5b 9B       		.byte	0x9b
 2031 0c5c 00000000 		.4byte	.LFB261
 2032 0c60 AC000000 		.4byte	.LFE261-.LFB261
 2033 0c64 01       		.uleb128 0x1
 2034 0c65 9C       		.byte	0x9c
 2035 0c66 250D0000 		.4byte	0xd25
 2036 0c6a 20       		.uleb128 0x20
 2037 0c6b 4B020000 		.4byte	.LASF179
 2038 0c6f 01       		.byte	0x1
 2039 0c70 9B       		.byte	0x9b
 2040 0c71 910A0000 		.4byte	0xa91
 2041 0c75 01       		.uleb128 0x1
 2042 0c76 50       		.byte	0x50
 2043 0c77 25       		.uleb128 0x25
 2044 0c78 21020000 		.4byte	.LASF180
 2045 0c7c 01       		.byte	0x1
 2046 0c7d 9C       		.byte	0x9c
 2047 0c7e 790A0000 		.4byte	0xa79
 2048 0c82 00000000 		.4byte	.LLST0
 2049 0c86 25       		.uleb128 0x25
 2050 0c87 95060000 		.4byte	.LASF181
 2051 0c8b 01       		.byte	0x1
 2052 0c8c 9D       		.byte	0x9d
ARM GAS  C:\Users\jo\AppData\Local\Temp\cc5axC9B.s 			page 37


 2053 0c8d 850A0000 		.4byte	0xa85
 2054 0c91 2D000000 		.4byte	.LLST1
 2055 0c95 26       		.uleb128 0x26
 2056 0c96 A2010000 		.4byte	.LASF155
 2057 0c9a 01       		.byte	0x1
 2058 0c9b 9F       		.byte	0x9f
 2059 0c9c C3000000 		.4byte	0xc3
 2060 0ca0 01       		.uleb128 0x1
 2061 0ca1 5E       		.byte	0x5e
 2062 0ca2 26       		.uleb128 0x26
 2063 0ca3 BC020000 		.4byte	.LASF156
 2064 0ca7 01       		.byte	0x1
 2065 0ca8 A0       		.byte	0xa0
 2066 0ca9 C3000000 		.4byte	0xc3
 2067 0cad 01       		.uleb128 0x1
 2068 0cae 57       		.byte	0x57
 2069 0caf 26       		.uleb128 0x26
 2070 0cb0 AF020000 		.4byte	.LASF157
 2071 0cb4 01       		.byte	0x1
 2072 0cb5 A1       		.byte	0xa1
 2073 0cb6 C3000000 		.4byte	0xc3
 2074 0cba 01       		.uleb128 0x1
 2075 0cbb 56       		.byte	0x56
 2076 0cbc 26       		.uleb128 0x26
 2077 0cbd A7070000 		.4byte	.LASF158
 2078 0cc1 01       		.byte	0x1
 2079 0cc2 A2       		.byte	0xa2
 2080 0cc3 C3000000 		.4byte	0xc3
 2081 0cc7 01       		.uleb128 0x1
 2082 0cc8 55       		.byte	0x55
 2083 0cc9 26       		.uleb128 0x26
 2084 0cca 8B060000 		.4byte	.LASF182
 2085 0cce 01       		.byte	0x1
 2086 0ccf A3       		.byte	0xa3
 2087 0cd0 C3000000 		.4byte	0xc3
 2088 0cd4 01       		.uleb128 0x1
 2089 0cd5 52       		.byte	0x52
 2090 0cd6 27       		.uleb128 0x27
 2091 0cd7 62697400 		.ascii	"bit\000"
 2092 0cdb 01       		.byte	0x1
 2093 0cdc A4       		.byte	0xa4
 2094 0cdd C3000000 		.4byte	0xc3
 2095 0ce1 4E000000 		.4byte	.LLST2
 2096 0ce5 28       		.uleb128 0x28
 2097 0ce6 D8000000 		.4byte	.Ldebug_ranges0+0xd8
 2098 0cea 29       		.uleb128 0x29
 2099 0ceb F0010000 		.4byte	.LASF183
 2100 0cef 01       		.byte	0x1
 2101 0cf0 A7       		.byte	0xa7
 2102 0cf1 C3000000 		.4byte	0xc3
 2103 0cf5 6D000000 		.4byte	.LLST3
 2104 0cf9 27       		.uleb128 0x27
 2105 0cfa 6D3100   		.ascii	"m1\000"
 2106 0cfd 01       		.byte	0x1
 2107 0cfe A7       		.byte	0xa7
 2108 0cff C3000000 		.4byte	0xc3
 2109 0d03 B3000000 		.4byte	.LLST4
ARM GAS  C:\Users\jo\AppData\Local\Temp\cc5axC9B.s 			page 38


 2110 0d07 27       		.uleb128 0x27
 2111 0d08 6D3200   		.ascii	"m2\000"
 2112 0d0b 01       		.byte	0x1
 2113 0d0c A7       		.byte	0xa7
 2114 0d0d C3000000 		.4byte	0xc3
 2115 0d11 CA000000 		.4byte	.LLST5
 2116 0d15 27       		.uleb128 0x27
 2117 0d16 6D3400   		.ascii	"m4\000"
 2118 0d19 01       		.byte	0x1
 2119 0d1a A7       		.byte	0xa7
 2120 0d1b C3000000 		.4byte	0xc3
 2121 0d1f E3000000 		.4byte	.LLST6
 2122 0d23 00       		.byte	0
 2123 0d24 00       		.byte	0
 2124 0d25 2A       		.uleb128 0x2a
 2125 0d26 ED000000 		.4byte	.LASF184
 2126 0d2a 0F       		.byte	0xf
 2127 0d2b A706     		.2byte	0x6a7
 2128 0d2d D9000000 		.4byte	0xd9
 2129 0d31 2B       		.uleb128 0x2b
 2130 0d32 636800   		.ascii	"ch\000"
 2131 0d35 06       		.byte	0x6
 2132 0d36 0902     		.2byte	0x209
 2133 0d38 29040000 		.4byte	0x429
 2134 0d3c 00       		.byte	0
 2135              		.section	.debug_abbrev,"",%progbits
 2136              	.Ldebug_abbrev0:
 2137 0000 01       		.uleb128 0x1
 2138 0001 11       		.uleb128 0x11
 2139 0002 01       		.byte	0x1
 2140 0003 25       		.uleb128 0x25
 2141 0004 0E       		.uleb128 0xe
 2142 0005 13       		.uleb128 0x13
 2143 0006 0B       		.uleb128 0xb
 2144 0007 03       		.uleb128 0x3
 2145 0008 0E       		.uleb128 0xe
 2146 0009 1B       		.uleb128 0x1b
 2147 000a 0E       		.uleb128 0xe
 2148 000b 55       		.uleb128 0x55
 2149 000c 17       		.uleb128 0x17
 2150 000d 11       		.uleb128 0x11
 2151 000e 01       		.uleb128 0x1
 2152 000f 10       		.uleb128 0x10
 2153 0010 17       		.uleb128 0x17
 2154 0011 00       		.byte	0
 2155 0012 00       		.byte	0
 2156 0013 02       		.uleb128 0x2
 2157 0014 24       		.uleb128 0x24
 2158 0015 00       		.byte	0
 2159 0016 0B       		.uleb128 0xb
 2160 0017 0B       		.uleb128 0xb
 2161 0018 3E       		.uleb128 0x3e
 2162 0019 0B       		.uleb128 0xb
 2163 001a 03       		.uleb128 0x3
 2164 001b 08       		.uleb128 0x8
 2165 001c 00       		.byte	0
 2166 001d 00       		.byte	0
ARM GAS  C:\Users\jo\AppData\Local\Temp\cc5axC9B.s 			page 39


 2167 001e 03       		.uleb128 0x3
 2168 001f 24       		.uleb128 0x24
 2169 0020 00       		.byte	0
 2170 0021 0B       		.uleb128 0xb
 2171 0022 0B       		.uleb128 0xb
 2172 0023 3E       		.uleb128 0x3e
 2173 0024 0B       		.uleb128 0xb
 2174 0025 03       		.uleb128 0x3
 2175 0026 0E       		.uleb128 0xe
 2176 0027 00       		.byte	0
 2177 0028 00       		.byte	0
 2178 0029 04       		.uleb128 0x4
 2179 002a 16       		.uleb128 0x16
 2180 002b 00       		.byte	0
 2181 002c 03       		.uleb128 0x3
 2182 002d 0E       		.uleb128 0xe
 2183 002e 3A       		.uleb128 0x3a
 2184 002f 0B       		.uleb128 0xb
 2185 0030 3B       		.uleb128 0x3b
 2186 0031 0B       		.uleb128 0xb
 2187 0032 49       		.uleb128 0x49
 2188 0033 13       		.uleb128 0x13
 2189 0034 00       		.byte	0
 2190 0035 00       		.byte	0
 2191 0036 05       		.uleb128 0x5
 2192 0037 35       		.uleb128 0x35
 2193 0038 00       		.byte	0
 2194 0039 49       		.uleb128 0x49
 2195 003a 13       		.uleb128 0x13
 2196 003b 00       		.byte	0
 2197 003c 00       		.byte	0
 2198 003d 06       		.uleb128 0x6
 2199 003e 13       		.uleb128 0x13
 2200 003f 01       		.byte	0x1
 2201 0040 03       		.uleb128 0x3
 2202 0041 0E       		.uleb128 0xe
 2203 0042 0B       		.uleb128 0xb
 2204 0043 0B       		.uleb128 0xb
 2205 0044 3A       		.uleb128 0x3a
 2206 0045 0B       		.uleb128 0xb
 2207 0046 3B       		.uleb128 0x3b
 2208 0047 0B       		.uleb128 0xb
 2209 0048 01       		.uleb128 0x1
 2210 0049 13       		.uleb128 0x13
 2211 004a 00       		.byte	0
 2212 004b 00       		.byte	0
 2213 004c 07       		.uleb128 0x7
 2214 004d 0D       		.uleb128 0xd
 2215 004e 00       		.byte	0
 2216 004f 03       		.uleb128 0x3
 2217 0050 0E       		.uleb128 0xe
 2218 0051 3A       		.uleb128 0x3a
 2219 0052 0B       		.uleb128 0xb
 2220 0053 3B       		.uleb128 0x3b
 2221 0054 0B       		.uleb128 0xb
 2222 0055 49       		.uleb128 0x49
 2223 0056 13       		.uleb128 0x13
ARM GAS  C:\Users\jo\AppData\Local\Temp\cc5axC9B.s 			page 40


 2224 0057 38       		.uleb128 0x38
 2225 0058 0B       		.uleb128 0xb
 2226 0059 00       		.byte	0
 2227 005a 00       		.byte	0
 2228 005b 08       		.uleb128 0x8
 2229 005c 0D       		.uleb128 0xd
 2230 005d 00       		.byte	0
 2231 005e 03       		.uleb128 0x3
 2232 005f 08       		.uleb128 0x8
 2233 0060 3A       		.uleb128 0x3a
 2234 0061 0B       		.uleb128 0xb
 2235 0062 3B       		.uleb128 0x3b
 2236 0063 05       		.uleb128 0x5
 2237 0064 49       		.uleb128 0x49
 2238 0065 13       		.uleb128 0x13
 2239 0066 38       		.uleb128 0x38
 2240 0067 0B       		.uleb128 0xb
 2241 0068 00       		.byte	0
 2242 0069 00       		.byte	0
 2243 006a 09       		.uleb128 0x9
 2244 006b 0D       		.uleb128 0xd
 2245 006c 00       		.byte	0
 2246 006d 03       		.uleb128 0x3
 2247 006e 0E       		.uleb128 0xe
 2248 006f 3A       		.uleb128 0x3a
 2249 0070 0B       		.uleb128 0xb
 2250 0071 3B       		.uleb128 0x3b
 2251 0072 05       		.uleb128 0x5
 2252 0073 49       		.uleb128 0x49
 2253 0074 13       		.uleb128 0x13
 2254 0075 38       		.uleb128 0x38
 2255 0076 0B       		.uleb128 0xb
 2256 0077 00       		.byte	0
 2257 0078 00       		.byte	0
 2258 0079 0A       		.uleb128 0xa
 2259 007a 0F       		.uleb128 0xf
 2260 007b 00       		.byte	0
 2261 007c 0B       		.uleb128 0xb
 2262 007d 0B       		.uleb128 0xb
 2263 007e 49       		.uleb128 0x49
 2264 007f 13       		.uleb128 0x13
 2265 0080 00       		.byte	0
 2266 0081 00       		.byte	0
 2267 0082 0B       		.uleb128 0xb
 2268 0083 13       		.uleb128 0x13
 2269 0084 01       		.byte	0x1
 2270 0085 03       		.uleb128 0x3
 2271 0086 0E       		.uleb128 0xe
 2272 0087 0B       		.uleb128 0xb
 2273 0088 0B       		.uleb128 0xb
 2274 0089 3A       		.uleb128 0x3a
 2275 008a 0B       		.uleb128 0xb
 2276 008b 3B       		.uleb128 0x3b
 2277 008c 05       		.uleb128 0x5
 2278 008d 01       		.uleb128 0x1
 2279 008e 13       		.uleb128 0x13
 2280 008f 00       		.byte	0
ARM GAS  C:\Users\jo\AppData\Local\Temp\cc5axC9B.s 			page 41


 2281 0090 00       		.byte	0
 2282 0091 0C       		.uleb128 0xc
 2283 0092 15       		.uleb128 0x15
 2284 0093 01       		.byte	0x1
 2285 0094 27       		.uleb128 0x27
 2286 0095 19       		.uleb128 0x19
 2287 0096 01       		.uleb128 0x1
 2288 0097 13       		.uleb128 0x13
 2289 0098 00       		.byte	0
 2290 0099 00       		.byte	0
 2291 009a 0D       		.uleb128 0xd
 2292 009b 05       		.uleb128 0x5
 2293 009c 00       		.byte	0
 2294 009d 49       		.uleb128 0x49
 2295 009e 13       		.uleb128 0x13
 2296 009f 00       		.byte	0
 2297 00a0 00       		.byte	0
 2298 00a1 0E       		.uleb128 0xe
 2299 00a2 0F       		.uleb128 0xf
 2300 00a3 00       		.byte	0
 2301 00a4 0B       		.uleb128 0xb
 2302 00a5 0B       		.uleb128 0xb
 2303 00a6 00       		.byte	0
 2304 00a7 00       		.byte	0
 2305 00a8 0F       		.uleb128 0xf
 2306 00a9 13       		.uleb128 0x13
 2307 00aa 01       		.byte	0x1
 2308 00ab 03       		.uleb128 0x3
 2309 00ac 0E       		.uleb128 0xe
 2310 00ad 0B       		.uleb128 0xb
 2311 00ae 05       		.uleb128 0x5
 2312 00af 3A       		.uleb128 0x3a
 2313 00b0 0B       		.uleb128 0xb
 2314 00b1 3B       		.uleb128 0x3b
 2315 00b2 05       		.uleb128 0x5
 2316 00b3 01       		.uleb128 0x1
 2317 00b4 13       		.uleb128 0x13
 2318 00b5 00       		.byte	0
 2319 00b6 00       		.byte	0
 2320 00b7 10       		.uleb128 0x10
 2321 00b8 0D       		.uleb128 0xd
 2322 00b9 00       		.byte	0
 2323 00ba 03       		.uleb128 0x3
 2324 00bb 0E       		.uleb128 0xe
 2325 00bc 3A       		.uleb128 0x3a
 2326 00bd 0B       		.uleb128 0xb
 2327 00be 3B       		.uleb128 0x3b
 2328 00bf 05       		.uleb128 0x5
 2329 00c0 49       		.uleb128 0x49
 2330 00c1 13       		.uleb128 0x13
 2331 00c2 38       		.uleb128 0x38
 2332 00c3 05       		.uleb128 0x5
 2333 00c4 00       		.byte	0
 2334 00c5 00       		.byte	0
 2335 00c6 11       		.uleb128 0x11
 2336 00c7 0D       		.uleb128 0xd
 2337 00c8 00       		.byte	0
ARM GAS  C:\Users\jo\AppData\Local\Temp\cc5axC9B.s 			page 42


 2338 00c9 03       		.uleb128 0x3
 2339 00ca 08       		.uleb128 0x8
 2340 00cb 3A       		.uleb128 0x3a
 2341 00cc 0B       		.uleb128 0xb
 2342 00cd 3B       		.uleb128 0x3b
 2343 00ce 05       		.uleb128 0x5
 2344 00cf 49       		.uleb128 0x49
 2345 00d0 13       		.uleb128 0x13
 2346 00d1 38       		.uleb128 0x38
 2347 00d2 05       		.uleb128 0x5
 2348 00d3 00       		.byte	0
 2349 00d4 00       		.byte	0
 2350 00d5 12       		.uleb128 0x12
 2351 00d6 01       		.uleb128 0x1
 2352 00d7 01       		.byte	0x1
 2353 00d8 49       		.uleb128 0x49
 2354 00d9 13       		.uleb128 0x13
 2355 00da 01       		.uleb128 0x1
 2356 00db 13       		.uleb128 0x13
 2357 00dc 00       		.byte	0
 2358 00dd 00       		.byte	0
 2359 00de 13       		.uleb128 0x13
 2360 00df 21       		.uleb128 0x21
 2361 00e0 00       		.byte	0
 2362 00e1 49       		.uleb128 0x49
 2363 00e2 13       		.uleb128 0x13
 2364 00e3 2F       		.uleb128 0x2f
 2365 00e4 0B       		.uleb128 0xb
 2366 00e5 00       		.byte	0
 2367 00e6 00       		.byte	0
 2368 00e7 14       		.uleb128 0x14
 2369 00e8 13       		.uleb128 0x13
 2370 00e9 01       		.byte	0x1
 2371 00ea 0B       		.uleb128 0xb
 2372 00eb 0B       		.uleb128 0xb
 2373 00ec 3A       		.uleb128 0x3a
 2374 00ed 0B       		.uleb128 0xb
 2375 00ee 3B       		.uleb128 0x3b
 2376 00ef 05       		.uleb128 0x5
 2377 00f0 01       		.uleb128 0x1
 2378 00f1 13       		.uleb128 0x13
 2379 00f2 00       		.byte	0
 2380 00f3 00       		.byte	0
 2381 00f4 15       		.uleb128 0x15
 2382 00f5 16       		.uleb128 0x16
 2383 00f6 00       		.byte	0
 2384 00f7 03       		.uleb128 0x3
 2385 00f8 0E       		.uleb128 0xe
 2386 00f9 3A       		.uleb128 0x3a
 2387 00fa 0B       		.uleb128 0xb
 2388 00fb 3B       		.uleb128 0x3b
 2389 00fc 05       		.uleb128 0x5
 2390 00fd 49       		.uleb128 0x49
 2391 00fe 13       		.uleb128 0x13
 2392 00ff 00       		.byte	0
 2393 0100 00       		.byte	0
 2394 0101 16       		.uleb128 0x16
ARM GAS  C:\Users\jo\AppData\Local\Temp\cc5axC9B.s 			page 43


 2395 0102 0D       		.uleb128 0xd
 2396 0103 00       		.byte	0
 2397 0104 03       		.uleb128 0x3
 2398 0105 08       		.uleb128 0x8
 2399 0106 3A       		.uleb128 0x3a
 2400 0107 0B       		.uleb128 0xb
 2401 0108 3B       		.uleb128 0x3b
 2402 0109 0B       		.uleb128 0xb
 2403 010a 49       		.uleb128 0x49
 2404 010b 13       		.uleb128 0x13
 2405 010c 38       		.uleb128 0x38
 2406 010d 0B       		.uleb128 0xb
 2407 010e 00       		.byte	0
 2408 010f 00       		.byte	0
 2409 0110 17       		.uleb128 0x17
 2410 0111 13       		.uleb128 0x13
 2411 0112 01       		.byte	0x1
 2412 0113 0B       		.uleb128 0xb
 2413 0114 0B       		.uleb128 0xb
 2414 0115 3A       		.uleb128 0x3a
 2415 0116 0B       		.uleb128 0xb
 2416 0117 3B       		.uleb128 0x3b
 2417 0118 0B       		.uleb128 0xb
 2418 0119 01       		.uleb128 0x1
 2419 011a 13       		.uleb128 0x13
 2420 011b 00       		.byte	0
 2421 011c 00       		.byte	0
 2422 011d 18       		.uleb128 0x18
 2423 011e 13       		.uleb128 0x13
 2424 011f 01       		.byte	0x1
 2425 0120 0B       		.uleb128 0xb
 2426 0121 05       		.uleb128 0x5
 2427 0122 3A       		.uleb128 0x3a
 2428 0123 0B       		.uleb128 0xb
 2429 0124 3B       		.uleb128 0x3b
 2430 0125 0B       		.uleb128 0xb
 2431 0126 01       		.uleb128 0x1
 2432 0127 13       		.uleb128 0x13
 2433 0128 00       		.byte	0
 2434 0129 00       		.byte	0
 2435 012a 19       		.uleb128 0x19
 2436 012b 17       		.uleb128 0x17
 2437 012c 01       		.byte	0x1
 2438 012d 0B       		.uleb128 0xb
 2439 012e 0B       		.uleb128 0xb
 2440 012f 3A       		.uleb128 0x3a
 2441 0130 0B       		.uleb128 0xb
 2442 0131 3B       		.uleb128 0x3b
 2443 0132 0B       		.uleb128 0xb
 2444 0133 01       		.uleb128 0x1
 2445 0134 13       		.uleb128 0x13
 2446 0135 00       		.byte	0
 2447 0136 00       		.byte	0
 2448 0137 1A       		.uleb128 0x1a
 2449 0138 0D       		.uleb128 0xd
 2450 0139 00       		.byte	0
 2451 013a 03       		.uleb128 0x3
ARM GAS  C:\Users\jo\AppData\Local\Temp\cc5axC9B.s 			page 44


 2452 013b 0E       		.uleb128 0xe
 2453 013c 3A       		.uleb128 0x3a
 2454 013d 0B       		.uleb128 0xb
 2455 013e 3B       		.uleb128 0x3b
 2456 013f 05       		.uleb128 0x5
 2457 0140 49       		.uleb128 0x49
 2458 0141 13       		.uleb128 0x13
 2459 0142 00       		.byte	0
 2460 0143 00       		.byte	0
 2461 0144 1B       		.uleb128 0x1b
 2462 0145 26       		.uleb128 0x26
 2463 0146 00       		.byte	0
 2464 0147 49       		.uleb128 0x49
 2465 0148 13       		.uleb128 0x13
 2466 0149 00       		.byte	0
 2467 014a 00       		.byte	0
 2468 014b 1C       		.uleb128 0x1c
 2469 014c 0D       		.uleb128 0xd
 2470 014d 00       		.byte	0
 2471 014e 03       		.uleb128 0x3
 2472 014f 08       		.uleb128 0x8
 2473 0150 3A       		.uleb128 0x3a
 2474 0151 0B       		.uleb128 0xb
 2475 0152 3B       		.uleb128 0x3b
 2476 0153 0B       		.uleb128 0xb
 2477 0154 49       		.uleb128 0x49
 2478 0155 13       		.uleb128 0x13
 2479 0156 00       		.byte	0
 2480 0157 00       		.byte	0
 2481 0158 1D       		.uleb128 0x1d
 2482 0159 2E       		.uleb128 0x2e
 2483 015a 01       		.byte	0x1
 2484 015b 03       		.uleb128 0x3
 2485 015c 0E       		.uleb128 0xe
 2486 015d 3A       		.uleb128 0x3a
 2487 015e 0B       		.uleb128 0xb
 2488 015f 3B       		.uleb128 0x3b
 2489 0160 0B       		.uleb128 0xb
 2490 0161 27       		.uleb128 0x27
 2491 0162 19       		.uleb128 0x19
 2492 0163 20       		.uleb128 0x20
 2493 0164 0B       		.uleb128 0xb
 2494 0165 01       		.uleb128 0x1
 2495 0166 13       		.uleb128 0x13
 2496 0167 00       		.byte	0
 2497 0168 00       		.byte	0
 2498 0169 1E       		.uleb128 0x1e
 2499 016a 05       		.uleb128 0x5
 2500 016b 00       		.byte	0
 2501 016c 03       		.uleb128 0x3
 2502 016d 0E       		.uleb128 0xe
 2503 016e 3A       		.uleb128 0x3a
 2504 016f 0B       		.uleb128 0xb
 2505 0170 3B       		.uleb128 0x3b
 2506 0171 0B       		.uleb128 0xb
 2507 0172 49       		.uleb128 0x49
 2508 0173 13       		.uleb128 0x13
ARM GAS  C:\Users\jo\AppData\Local\Temp\cc5axC9B.s 			page 45


 2509 0174 00       		.byte	0
 2510 0175 00       		.byte	0
 2511 0176 1F       		.uleb128 0x1f
 2512 0177 2E       		.uleb128 0x2e
 2513 0178 01       		.byte	0x1
 2514 0179 3F       		.uleb128 0x3f
 2515 017a 19       		.uleb128 0x19
 2516 017b 03       		.uleb128 0x3
 2517 017c 0E       		.uleb128 0xe
 2518 017d 3A       		.uleb128 0x3a
 2519 017e 0B       		.uleb128 0xb
 2520 017f 3B       		.uleb128 0x3b
 2521 0180 0B       		.uleb128 0xb
 2522 0181 27       		.uleb128 0x27
 2523 0182 19       		.uleb128 0x19
 2524 0183 11       		.uleb128 0x11
 2525 0184 01       		.uleb128 0x1
 2526 0185 12       		.uleb128 0x12
 2527 0186 06       		.uleb128 0x6
 2528 0187 40       		.uleb128 0x40
 2529 0188 18       		.uleb128 0x18
 2530 0189 9742     		.uleb128 0x2117
 2531 018b 19       		.uleb128 0x19
 2532 018c 01       		.uleb128 0x1
 2533 018d 13       		.uleb128 0x13
 2534 018e 00       		.byte	0
 2535 018f 00       		.byte	0
 2536 0190 20       		.uleb128 0x20
 2537 0191 05       		.uleb128 0x5
 2538 0192 00       		.byte	0
 2539 0193 03       		.uleb128 0x3
 2540 0194 0E       		.uleb128 0xe
 2541 0195 3A       		.uleb128 0x3a
 2542 0196 0B       		.uleb128 0xb
 2543 0197 3B       		.uleb128 0x3b
 2544 0198 0B       		.uleb128 0xb
 2545 0199 49       		.uleb128 0x49
 2546 019a 13       		.uleb128 0x13
 2547 019b 02       		.uleb128 0x2
 2548 019c 18       		.uleb128 0x18
 2549 019d 00       		.byte	0
 2550 019e 00       		.byte	0
 2551 019f 21       		.uleb128 0x21
 2552 01a0 1D       		.uleb128 0x1d
 2553 01a1 01       		.byte	0x1
 2554 01a2 31       		.uleb128 0x31
 2555 01a3 13       		.uleb128 0x13
 2556 01a4 52       		.uleb128 0x52
 2557 01a5 01       		.uleb128 0x1
 2558 01a6 55       		.uleb128 0x55
 2559 01a7 17       		.uleb128 0x17
 2560 01a8 58       		.uleb128 0x58
 2561 01a9 0B       		.uleb128 0xb
 2562 01aa 59       		.uleb128 0x59
 2563 01ab 0B       		.uleb128 0xb
 2564 01ac 01       		.uleb128 0x1
 2565 01ad 13       		.uleb128 0x13
ARM GAS  C:\Users\jo\AppData\Local\Temp\cc5axC9B.s 			page 46


 2566 01ae 00       		.byte	0
 2567 01af 00       		.byte	0
 2568 01b0 22       		.uleb128 0x22
 2569 01b1 05       		.uleb128 0x5
 2570 01b2 00       		.byte	0
 2571 01b3 31       		.uleb128 0x31
 2572 01b4 13       		.uleb128 0x13
 2573 01b5 02       		.uleb128 0x2
 2574 01b6 18       		.uleb128 0x18
 2575 01b7 00       		.byte	0
 2576 01b8 00       		.byte	0
 2577 01b9 23       		.uleb128 0x23
 2578 01ba 05       		.uleb128 0x5
 2579 01bb 00       		.byte	0
 2580 01bc 31       		.uleb128 0x31
 2581 01bd 13       		.uleb128 0x13
 2582 01be 1C       		.uleb128 0x1c
 2583 01bf 06       		.uleb128 0x6
 2584 01c0 00       		.byte	0
 2585 01c1 00       		.byte	0
 2586 01c2 24       		.uleb128 0x24
 2587 01c3 1D       		.uleb128 0x1d
 2588 01c4 01       		.byte	0x1
 2589 01c5 31       		.uleb128 0x31
 2590 01c6 13       		.uleb128 0x13
 2591 01c7 52       		.uleb128 0x52
 2592 01c8 01       		.uleb128 0x1
 2593 01c9 55       		.uleb128 0x55
 2594 01ca 17       		.uleb128 0x17
 2595 01cb 58       		.uleb128 0x58
 2596 01cc 0B       		.uleb128 0xb
 2597 01cd 59       		.uleb128 0x59
 2598 01ce 0B       		.uleb128 0xb
 2599 01cf 00       		.byte	0
 2600 01d0 00       		.byte	0
 2601 01d1 25       		.uleb128 0x25
 2602 01d2 05       		.uleb128 0x5
 2603 01d3 00       		.byte	0
 2604 01d4 03       		.uleb128 0x3
 2605 01d5 0E       		.uleb128 0xe
 2606 01d6 3A       		.uleb128 0x3a
 2607 01d7 0B       		.uleb128 0xb
 2608 01d8 3B       		.uleb128 0x3b
 2609 01d9 0B       		.uleb128 0xb
 2610 01da 49       		.uleb128 0x49
 2611 01db 13       		.uleb128 0x13
 2612 01dc 02       		.uleb128 0x2
 2613 01dd 17       		.uleb128 0x17
 2614 01de 00       		.byte	0
 2615 01df 00       		.byte	0
 2616 01e0 26       		.uleb128 0x26
 2617 01e1 34       		.uleb128 0x34
 2618 01e2 00       		.byte	0
 2619 01e3 03       		.uleb128 0x3
 2620 01e4 0E       		.uleb128 0xe
 2621 01e5 3A       		.uleb128 0x3a
 2622 01e6 0B       		.uleb128 0xb
ARM GAS  C:\Users\jo\AppData\Local\Temp\cc5axC9B.s 			page 47


 2623 01e7 3B       		.uleb128 0x3b
 2624 01e8 0B       		.uleb128 0xb
 2625 01e9 49       		.uleb128 0x49
 2626 01ea 13       		.uleb128 0x13
 2627 01eb 02       		.uleb128 0x2
 2628 01ec 18       		.uleb128 0x18
 2629 01ed 00       		.byte	0
 2630 01ee 00       		.byte	0
 2631 01ef 27       		.uleb128 0x27
 2632 01f0 34       		.uleb128 0x34
 2633 01f1 00       		.byte	0
 2634 01f2 03       		.uleb128 0x3
 2635 01f3 08       		.uleb128 0x8
 2636 01f4 3A       		.uleb128 0x3a
 2637 01f5 0B       		.uleb128 0xb
 2638 01f6 3B       		.uleb128 0x3b
 2639 01f7 0B       		.uleb128 0xb
 2640 01f8 49       		.uleb128 0x49
 2641 01f9 13       		.uleb128 0x13
 2642 01fa 02       		.uleb128 0x2
 2643 01fb 17       		.uleb128 0x17
 2644 01fc 00       		.byte	0
 2645 01fd 00       		.byte	0
 2646 01fe 28       		.uleb128 0x28
 2647 01ff 0B       		.uleb128 0xb
 2648 0200 01       		.byte	0x1
 2649 0201 55       		.uleb128 0x55
 2650 0202 17       		.uleb128 0x17
 2651 0203 00       		.byte	0
 2652 0204 00       		.byte	0
 2653 0205 29       		.uleb128 0x29
 2654 0206 34       		.uleb128 0x34
 2655 0207 00       		.byte	0
 2656 0208 03       		.uleb128 0x3
 2657 0209 0E       		.uleb128 0xe
 2658 020a 3A       		.uleb128 0x3a
 2659 020b 0B       		.uleb128 0xb
 2660 020c 3B       		.uleb128 0x3b
 2661 020d 0B       		.uleb128 0xb
 2662 020e 49       		.uleb128 0x49
 2663 020f 13       		.uleb128 0x13
 2664 0210 02       		.uleb128 0x2
 2665 0211 17       		.uleb128 0x17
 2666 0212 00       		.byte	0
 2667 0213 00       		.byte	0
 2668 0214 2A       		.uleb128 0x2a
 2669 0215 34       		.uleb128 0x34
 2670 0216 00       		.byte	0
 2671 0217 03       		.uleb128 0x3
 2672 0218 0E       		.uleb128 0xe
 2673 0219 3A       		.uleb128 0x3a
 2674 021a 0B       		.uleb128 0xb
 2675 021b 3B       		.uleb128 0x3b
 2676 021c 05       		.uleb128 0x5
 2677 021d 49       		.uleb128 0x49
 2678 021e 13       		.uleb128 0x13
 2679 021f 3F       		.uleb128 0x3f
ARM GAS  C:\Users\jo\AppData\Local\Temp\cc5axC9B.s 			page 48


 2680 0220 19       		.uleb128 0x19
 2681 0221 3C       		.uleb128 0x3c
 2682 0222 19       		.uleb128 0x19
 2683 0223 00       		.byte	0
 2684 0224 00       		.byte	0
 2685 0225 2B       		.uleb128 0x2b
 2686 0226 34       		.uleb128 0x34
 2687 0227 00       		.byte	0
 2688 0228 03       		.uleb128 0x3
 2689 0229 08       		.uleb128 0x8
 2690 022a 3A       		.uleb128 0x3a
 2691 022b 0B       		.uleb128 0xb
 2692 022c 3B       		.uleb128 0x3b
 2693 022d 05       		.uleb128 0x5
 2694 022e 49       		.uleb128 0x49
 2695 022f 13       		.uleb128 0x13
 2696 0230 3F       		.uleb128 0x3f
 2697 0231 19       		.uleb128 0x19
 2698 0232 3C       		.uleb128 0x3c
 2699 0233 19       		.uleb128 0x19
 2700 0234 00       		.byte	0
 2701 0235 00       		.byte	0
 2702 0236 00       		.byte	0
 2703              		.section	.debug_loc,"",%progbits
 2704              	.Ldebug_loc0:
 2705              	.LLST0:
 2706 0000 00000000 		.4byte	.LVL10
 2707 0004 70000000 		.4byte	.LVL21
 2708 0008 0100     		.2byte	0x1
 2709 000a 51       		.byte	0x51
 2710 000b 70000000 		.4byte	.LVL21
 2711 000f 72000000 		.4byte	.LVL22
 2712 0013 0500     		.2byte	0x5
 2713 0015 71       		.byte	0x71
 2714 0016 00       		.sleb128 0
 2715 0017 31       		.byte	0x31
 2716 0018 25       		.byte	0x25
 2717 0019 9F       		.byte	0x9f
 2718 001a 72000000 		.4byte	.LVL22
 2719 001e AC000000 		.4byte	.LFE261
 2720 0022 0100     		.2byte	0x1
 2721 0024 51       		.byte	0x51
 2722 0025 00000000 		.4byte	0
 2723 0029 00000000 		.4byte	0
 2724              	.LLST1:
 2725 002d 00000000 		.4byte	.LVL10
 2726 0031 1E000000 		.4byte	.LVL15
 2727 0035 0100     		.2byte	0x1
 2728 0037 52       		.byte	0x52
 2729 0038 1E000000 		.4byte	.LVL15
 2730 003c AC000000 		.4byte	.LFE261
 2731 0040 0400     		.2byte	0x4
 2732 0042 F3       		.byte	0xf3
 2733 0043 01       		.uleb128 0x1
 2734 0044 52       		.byte	0x52
 2735 0045 9F       		.byte	0x9f
 2736 0046 00000000 		.4byte	0
ARM GAS  C:\Users\jo\AppData\Local\Temp\cc5axC9B.s 			page 49


 2737 004a 00000000 		.4byte	0
 2738              	.LLST2:
 2739 004e 1E000000 		.4byte	.LVL15
 2740 0052 28000000 		.4byte	.LVL16
 2741 0056 0200     		.2byte	0x2
 2742 0058 30       		.byte	0x30
 2743 0059 9F       		.byte	0x9f
 2744 005a 28000000 		.4byte	.LVL16
 2745 005e AC000000 		.4byte	.LFE261
 2746 0062 0100     		.2byte	0x1
 2747 0064 54       		.byte	0x54
 2748 0065 00000000 		.4byte	0
 2749 0069 00000000 		.4byte	0
 2750              	.LLST3:
 2751 006d 28000000 		.4byte	.LVL16
 2752 0071 3C000000 		.4byte	.LVL19
 2753 0075 0100     		.2byte	0x1
 2754 0077 5A       		.byte	0x5a
 2755 0078 3C000000 		.4byte	.LVL19
 2756 007c 80000000 		.4byte	.LVL27
 2757 0080 0A00     		.2byte	0xa
 2758 0082 72       		.byte	0x72
 2759 0083 00       		.sleb128 0
 2760 0084 74       		.byte	0x74
 2761 0085 00       		.sleb128 0
 2762 0086 37       		.byte	0x37
 2763 0087 1A       		.byte	0x1a
 2764 0088 32       		.byte	0x32
 2765 0089 24       		.byte	0x24
 2766 008a 24       		.byte	0x24
 2767 008b 9F       		.byte	0x9f
 2768 008c 8E000000 		.4byte	.LVL28
 2769 0090 A8000000 		.4byte	.LVL31
 2770 0094 0100     		.2byte	0x1
 2771 0096 5A       		.byte	0x5a
 2772 0097 A8000000 		.4byte	.LVL31
 2773 009b AC000000 		.4byte	.LFE261
 2774 009f 0A00     		.2byte	0xa
 2775 00a1 72       		.byte	0x72
 2776 00a2 00       		.sleb128 0
 2777 00a3 74       		.byte	0x74
 2778 00a4 00       		.sleb128 0
 2779 00a5 37       		.byte	0x37
 2780 00a6 1A       		.byte	0x1a
 2781 00a7 32       		.byte	0x32
 2782 00a8 24       		.byte	0x24
 2783 00a9 24       		.byte	0x24
 2784 00aa 9F       		.byte	0x9f
 2785 00ab 00000000 		.4byte	0
 2786 00af 00000000 		.4byte	0
 2787              	.LLST4:
 2788 00b3 36000000 		.4byte	.LVL18
 2789 00b7 70000000 		.4byte	.LVL21
 2790 00bb 0500     		.2byte	0x5
 2791 00bd 31       		.byte	0x31
 2792 00be 74       		.byte	0x74
 2793 00bf 00       		.sleb128 0
ARM GAS  C:\Users\jo\AppData\Local\Temp\cc5axC9B.s 			page 50


 2794 00c0 24       		.byte	0x24
 2795 00c1 9F       		.byte	0x9f
 2796 00c2 00000000 		.4byte	0
 2797 00c6 00000000 		.4byte	0
 2798              	.LLST5:
 2799 00ca 44000000 		.4byte	.LVL20
 2800 00ce 70000000 		.4byte	.LVL21
 2801 00d2 0700     		.2byte	0x7
 2802 00d4 33       		.byte	0x33
 2803 00d5 74       		.byte	0x74
 2804 00d6 00       		.sleb128 0
 2805 00d7 31       		.byte	0x31
 2806 00d8 24       		.byte	0x24
 2807 00d9 24       		.byte	0x24
 2808 00da 9F       		.byte	0x9f
 2809 00db 00000000 		.4byte	0
 2810 00df 00000000 		.4byte	0
 2811              	.LLST6:
 2812 00e3 28000000 		.4byte	.LVL16
 2813 00e7 30000000 		.4byte	.LVL17
 2814 00eb 0100     		.2byte	0x1
 2815 00ed 53       		.byte	0x53
 2816 00ee 30000000 		.4byte	.LVL17
 2817 00f2 80000000 		.4byte	.LVL27
 2818 00f6 0A00     		.2byte	0xa
 2819 00f8 7C       		.byte	0x7c
 2820 00f9 00       		.sleb128 0
 2821 00fa 74       		.byte	0x74
 2822 00fb 00       		.sleb128 0
 2823 00fc 37       		.byte	0x37
 2824 00fd 1A       		.byte	0x1a
 2825 00fe 32       		.byte	0x32
 2826 00ff 24       		.byte	0x24
 2827 0100 24       		.byte	0x24
 2828 0101 9F       		.byte	0x9f
 2829 0102 92000000 		.4byte	.LVL29
 2830 0106 A0000000 		.4byte	.LVL30
 2831 010a 0100     		.2byte	0x1
 2832 010c 53       		.byte	0x53
 2833 010d A0000000 		.4byte	.LVL30
 2834 0111 AC000000 		.4byte	.LFE261
 2835 0115 0A00     		.2byte	0xa
 2836 0117 7C       		.byte	0x7c
 2837 0118 00       		.sleb128 0
 2838 0119 74       		.byte	0x74
 2839 011a 00       		.sleb128 0
 2840 011b 37       		.byte	0x37
 2841 011c 1A       		.byte	0x1a
 2842 011d 32       		.byte	0x32
 2843 011e 24       		.byte	0x24
 2844 011f 24       		.byte	0x24
 2845 0120 9F       		.byte	0x9f
 2846 0121 00000000 		.4byte	0
 2847 0125 00000000 		.4byte	0
 2848              		.section	.debug_aranges,"",%progbits
 2849 0000 24000000 		.4byte	0x24
 2850 0004 0200     		.2byte	0x2
ARM GAS  C:\Users\jo\AppData\Local\Temp\cc5axC9B.s 			page 51


 2851 0006 00000000 		.4byte	.Ldebug_info0
 2852 000a 04       		.byte	0x4
 2853 000b 00       		.byte	0
 2854 000c 0000     		.2byte	0
 2855 000e 0000     		.2byte	0
 2856 0010 00000000 		.4byte	.LFB260
 2857 0014 CC010000 		.4byte	.LFE260-.LFB260
 2858 0018 00000000 		.4byte	.LFB261
 2859 001c AC000000 		.4byte	.LFE261-.LFB261
 2860 0020 00000000 		.4byte	0
 2861 0024 00000000 		.4byte	0
 2862              		.section	.debug_ranges,"",%progbits
 2863              	.Ldebug_ranges0:
 2864 0000 08000000 		.4byte	.LBB20
 2865 0004 0C000000 		.4byte	.LBE20
 2866 0008 3C000000 		.4byte	.LBB47
 2867 000c 66000000 		.4byte	.LBE47
 2868 0010 00000000 		.4byte	0
 2869 0014 00000000 		.4byte	0
 2870 0018 10000000 		.4byte	.LBB23
 2871 001c 14000000 		.4byte	.LBE23
 2872 0020 66000000 		.4byte	.LBB48
 2873 0024 90000000 		.4byte	.LBE48
 2874 0028 00000000 		.4byte	0
 2875 002c 00000000 		.4byte	0
 2876 0030 14000000 		.4byte	.LBB26
 2877 0034 16000000 		.4byte	.LBE26
 2878 0038 90000000 		.4byte	.LBB49
 2879 003c AC000000 		.4byte	.LBE49
 2880 0040 00000000 		.4byte	0
 2881 0044 00000000 		.4byte	0
 2882 0048 16000000 		.4byte	.LBB29
 2883 004c 18000000 		.4byte	.LBE29
 2884 0050 AC000000 		.4byte	.LBB50
 2885 0054 C8000000 		.4byte	.LBE50
 2886 0058 00000000 		.4byte	0
 2887 005c 00000000 		.4byte	0
 2888 0060 18000000 		.4byte	.LBB32
 2889 0064 1A000000 		.4byte	.LBE32
 2890 0068 C8000000 		.4byte	.LBB51
 2891 006c EA000000 		.4byte	.LBE51
 2892 0070 00000000 		.4byte	0
 2893 0074 00000000 		.4byte	0
 2894 0078 1A000000 		.4byte	.LBB35
 2895 007c 1C000000 		.4byte	.LBE35
 2896 0080 EA000000 		.4byte	.LBB52
 2897 0084 14010000 		.4byte	.LBE52
 2898 0088 00000000 		.4byte	0
 2899 008c 00000000 		.4byte	0
 2900 0090 1C000000 		.4byte	.LBB38
 2901 0094 1E000000 		.4byte	.LBE38
 2902 0098 14010000 		.4byte	.LBB53
 2903 009c 3E010000 		.4byte	.LBE53
 2904 00a0 00000000 		.4byte	0
 2905 00a4 00000000 		.4byte	0
 2906 00a8 1E000000 		.4byte	.LBB41
 2907 00ac 20000000 		.4byte	.LBE41
ARM GAS  C:\Users\jo\AppData\Local\Temp\cc5axC9B.s 			page 52


 2908 00b0 3E010000 		.4byte	.LBB54
 2909 00b4 68010000 		.4byte	.LBE54
 2910 00b8 00000000 		.4byte	0
 2911 00bc 00000000 		.4byte	0
 2912 00c0 20000000 		.4byte	.LBB44
 2913 00c4 24000000 		.4byte	.LBE44
 2914 00c8 68010000 		.4byte	.LBB55
 2915 00cc CC010000 		.4byte	.LBE55
 2916 00d0 00000000 		.4byte	0
 2917 00d4 00000000 		.4byte	0
 2918 00d8 04000000 		.4byte	.LBB56
 2919 00dc 08000000 		.4byte	.LBE56
 2920 00e0 1E000000 		.4byte	.LBB57
 2921 00e4 70000000 		.4byte	.LBE57
 2922 00e8 80000000 		.4byte	.LBB58
 2923 00ec 86000000 		.4byte	.LBE58
 2924 00f0 8A000000 		.4byte	.LBB59
 2925 00f4 92000000 		.4byte	.LBE59
 2926 00f8 94000000 		.4byte	.LBB60
 2927 00fc AC000000 		.4byte	.LBE60
 2928 0100 00000000 		.4byte	0
 2929 0104 00000000 		.4byte	0
 2930 0108 00000000 		.4byte	.LFB260
 2931 010c CC010000 		.4byte	.LFE260
 2932 0110 00000000 		.4byte	.LFB261
 2933 0114 AC000000 		.4byte	.LFE261
 2934 0118 00000000 		.4byte	0
 2935 011c 00000000 		.4byte	0
 2936              		.section	.debug_line,"",%progbits
 2937              	.Ldebug_line0:
 2938 0000 E1020000 		.section	.debug_str,"MS",%progbits,1
 2938      02003302 
 2938      00000201 
 2938      FB0E0D00 
 2938      01010101 
 2939              	.LASF161:
 2940 0000 73746D33 		.ascii	"stm32_gpio_setup_t\000"
 2940      325F6770 
 2940      696F5F73 
 2940      65747570 
 2940      5F7400
 2941              	.LASF123:
 2942 0013 74625F70 		.ascii	"tb_ptr\000"
 2942      747200
 2943              	.LASF53:
 2944 001a 72656164 		.ascii	"ready_list_t\000"
 2944      795F6C69 
 2944      73745F74 
 2944      00
 2945              	.LASF117:
 2946 0027 73655F74 		.ascii	"se_time\000"
 2946      696D6500 
 2947              	.LASF131:
 2948 002f 77747472 		.ascii	"wttrp\000"
 2948      7000
 2949              	.LASF128:
 2950 0035 7264796D 		.ascii	"rdymsg\000"
ARM GAS  C:\Users\jo\AppData\Local\Temp\cc5axC9B.s 			page 53


 2950      736700
 2951              	.LASF18:
 2952 003c 75696E74 		.ascii	"uint64_t\000"
 2952      36345F74 
 2952      00
 2953              	.LASF4:
 2954 0045 5F5F7569 		.ascii	"__uint8_t\000"
 2954      6E74385F 
 2954      7400
 2955              	.LASF147:
 2956 004f 4F545950 		.ascii	"OTYPER\000"
 2956      455200
 2957              	.LASF116:
 2958 0056 706F7274 		.ascii	"port_intctx\000"
 2958      5F696E74 
 2958      63747800 
 2959              	.LASF72:
 2960 0062 73797374 		.ascii	"system_debug_t\000"
 2960      656D5F64 
 2960      65627567 
 2960      5F7400
 2961              	.LASF172:
 2962 0071 696F706F 		.ascii	"ioportmask_t\000"
 2962      72746D61 
 2962      736B5F74 
 2962      00
 2963              	.LASF169:
 2964 007e 50484461 		.ascii	"PHData\000"
 2964      746100
 2965              	.LASF146:
 2966 0085 4D4F4445 		.ascii	"MODER\000"
 2966      5200
 2967              	.LASF13:
 2968 008b 6C6F6E67 		.ascii	"long long unsigned int\000"
 2968      206C6F6E 
 2968      6720756E 
 2968      7369676E 
 2968      65642069 
 2969              	.LASF125:
 2970 00a2 63685F74 		.ascii	"ch_trace_buffer_t\000"
 2970      72616365 
 2970      5F627566 
 2970      6665725F 
 2970      7400
 2971              	.LASF120:
 2972 00b4 73655F73 		.ascii	"se_state\000"
 2972      74617465 
 2972      00
 2973              	.LASF149:
 2974 00bd 50555044 		.ascii	"PUPDR\000"
 2974      5200
 2975              	.LASF129:
 2976 00c3 65786974 		.ascii	"exitcode\000"
 2976      636F6465 
 2976      00
 2977              	.LASF82:
 2978 00cc 6D61696E 		.ascii	"mainthread\000"
ARM GAS  C:\Users\jo\AppData\Local\Temp\cc5axC9B.s 			page 54


 2978      74687265 
 2978      616400
 2979              	.LASF69:
 2980 00d7 76697274 		.ascii	"virtual_timers_list_t\000"
 2980      75616C5F 
 2980      74696D65 
 2980      72735F6C 
 2980      6973745F 
 2981              	.LASF184:
 2982 00ed 49544D5F 		.ascii	"ITM_RxBuffer\000"
 2982      52784275 
 2982      66666572 
 2982      00
 2983              	.LASF52:
 2984 00fa 63685F74 		.ascii	"ch_threads_queue\000"
 2984      68726561 
 2984      64735F71 
 2984      75657565 
 2984      00
 2985              	.LASF101:
 2986 010b 41484231 		.ascii	"AHB1LPENR\000"
 2986      4C50454E 
 2986      5200
 2987              	.LASF31:
 2988 0115 705F7072 		.ascii	"p_prio\000"
 2988      696F00
 2989              	.LASF187:
 2990 011c 433A5C55 		.ascii	"C:\\Users\\jo\\Documents\\GitHub\\ChibiOS\\demos\\S"
 2990      73657273 
 2990      5C6A6F5C 
 2990      446F6375 
 2990      6D656E74 
 2991 0148 544D3332 		.ascii	"TM32\\RT-STM32F407-DISCOVERY-uHttp\000"
 2991      5C52542D 
 2991      53544D33 
 2991      32463430 
 2991      372D4449 
 2992              	.LASF11:
 2993 016a 6C6F6E67 		.ascii	"long long int\000"
 2993      206C6F6E 
 2993      6720696E 
 2993      7400
 2994              	.LASF1:
 2995 0178 7369676E 		.ascii	"signed char\000"
 2995      65642063 
 2995      68617200 
 2996              	.LASF150:
 2997 0184 42535252 		.ascii	"BSRR\000"
 2997      00
 2998              	.LASF87:
 2999 0189 41484231 		.ascii	"AHB1RSTR\000"
 2999      52535452 
 2999      00
 3000              	.LASF46:
 3001 0192 705F6D70 		.ascii	"p_mpool\000"
 3001      6F6F6C00 
 3002              	.LASF139:
ARM GAS  C:\Users\jo\AppData\Local\Temp\cc5axC9B.s 			page 55


 3003 019a 6D5F7175 		.ascii	"m_queue\000"
 3003      65756500 
 3004              	.LASF155:
 3005 01a2 6D6F6465 		.ascii	"moder\000"
 3005      7200
 3006              	.LASF112:
 3007 01a8 5243435F 		.ascii	"RCC_TypeDef\000"
 3007      54797065 
 3007      44656600 
 3008              	.LASF79:
 3009 01b4 63685F73 		.ascii	"ch_system\000"
 3009      79737465 
 3009      6D00
 3010              	.LASF8:
 3011 01be 6C6F6E67 		.ascii	"long int\000"
 3011      20696E74 
 3011      00
 3012              	.LASF166:
 3013 01c7 50454461 		.ascii	"PEData\000"
 3013      746100
 3014              	.LASF105:
 3015 01ce 41504231 		.ascii	"APB1LPENR\000"
 3015      4C50454E 
 3015      5200
 3016              	.LASF21:
 3017 01d8 74737461 		.ascii	"tstate_t\000"
 3017      74655F74 
 3017      00
 3018              	.LASF118:
 3019 01e1 73655F74 		.ascii	"se_tp\000"
 3019      7000
 3020              	.LASF15:
 3021 01e7 75696E74 		.ascii	"uint16_t\000"
 3021      31365F74 
 3021      00
 3022              	.LASF183:
 3023 01f0 616C7472 		.ascii	"altrmask\000"
 3023      6D61736B 
 3023      00
 3024              	.LASF33:
 3025 01f9 705F6E65 		.ascii	"p_newer\000"
 3025      77657200 
 3026              	.LASF85:
 3027 0201 504C4C43 		.ascii	"PLLCFGR\000"
 3027      46475200 
 3028              	.LASF122:
 3029 0209 74625F73 		.ascii	"tb_size\000"
 3029      697A6500 
 3030              	.LASF148:
 3031 0211 4F535045 		.ascii	"OSPEEDR\000"
 3031      45445200 
 3032              	.LASF58:
 3033 0219 725F6E65 		.ascii	"r_newer\000"
 3033      77657200 
 3034              	.LASF180:
 3035 0221 6D61736B 		.ascii	"mask\000"
 3035      00
ARM GAS  C:\Users\jo\AppData\Local\Temp\cc5axC9B.s 			page 56


 3036              	.LASF113:
 3037 0226 72656761 		.ascii	"regarm_t\000"
 3037      726D5F74 
 3037      00
 3038              	.LASF65:
 3039 022f 76745F70 		.ascii	"vt_prev\000"
 3039      72657600 
 3040              	.LASF81:
 3041 0237 76746C69 		.ascii	"vtlist\000"
 3041      737400
 3042              	.LASF154:
 3043 023e 73746D33 		.ascii	"stm32_gpio_t\000"
 3043      325F6770 
 3043      696F5F74 
 3043      00
 3044              	.LASF179:
 3045 024b 706F7274 		.ascii	"port\000"
 3045      00
 3046              	.LASF143:
 3047 0250 6D757465 		.ascii	"mutex_t\000"
 3047      785F7400 
 3048              	.LASF163:
 3049 0258 50424461 		.ascii	"PBData\000"
 3049      746100
 3050              	.LASF76:
 3051 025f 6C6F636B 		.ascii	"lock_cnt\000"
 3051      5F636E74 
 3051      00
 3052              	.LASF83:
 3053 0268 69646C65 		.ascii	"idle_thread_wa\000"
 3053      5F746872 
 3053      6561645F 
 3053      776100
 3054              	.LASF26:
 3055 0277 636E745F 		.ascii	"cnt_t\000"
 3055      7400
 3056              	.LASF36:
 3057 027d 705F7374 		.ascii	"p_stklimit\000"
 3057      6B6C696D 
 3057      697400
 3058              	.LASF0:
 3059 0288 756E7369 		.ascii	"unsigned int\000"
 3059      676E6564 
 3059      20696E74 
 3059      00
 3060              	.LASF64:
 3061 0295 76745F6E 		.ascii	"vt_next\000"
 3061      65787400 
 3062              	.LASF132:
 3063 029d 77747365 		.ascii	"wtsemp\000"
 3063      6D7000
 3064              	.LASF41:
 3065 02a4 705F6D73 		.ascii	"p_msgqueue\000"
 3065      67717565 
 3065      756500
 3066              	.LASF157:
 3067 02af 6F737065 		.ascii	"ospeedr\000"
ARM GAS  C:\Users\jo\AppData\Local\Temp\cc5axC9B.s 			page 57


 3067      65647200 
 3068              	.LASF151:
 3069 02b7 4C434B52 		.ascii	"LCKR\000"
 3069      00
 3070              	.LASF156:
 3071 02bc 6F747970 		.ascii	"otyper\000"
 3071      657200
 3072              	.LASF6:
 3073 02c3 73686F72 		.ascii	"short unsigned int\000"
 3073      7420756E 
 3073      7369676E 
 3073      65642069 
 3073      6E7400
 3074              	.LASF167:
 3075 02d6 50464461 		.ascii	"PFData\000"
 3075      746100
 3076              	.LASF49:
 3077 02dd 63685F74 		.ascii	"ch_thread\000"
 3077      68726561 
 3077      6400
 3078              	.LASF111:
 3079 02e7 504C4C49 		.ascii	"PLLI2SCFGR\000"
 3079      32534346 
 3079      475200
 3080              	.LASF92:
 3081 02f2 41504232 		.ascii	"APB2RSTR\000"
 3081      52535452 
 3081      00
 3082              	.LASF24:
 3083 02fb 6D73675F 		.ascii	"msg_t\000"
 3083      7400
 3084              	.LASF89:
 3085 0301 41484233 		.ascii	"AHB3RSTR\000"
 3085      52535452 
 3085      00
 3086              	.LASF78:
 3087 030a 63685F73 		.ascii	"ch_system_t\000"
 3087      79737465 
 3087      6D5F7400 
 3088              	.LASF124:
 3089 0316 74625F62 		.ascii	"tb_buffer\000"
 3089      75666665 
 3089      7200
 3090              	.LASF106:
 3091 0320 41504232 		.ascii	"APB2LPENR\000"
 3091      4C50454E 
 3091      5200
 3092              	.LASF54:
 3093 032a 63685F72 		.ascii	"ch_ready_list\000"
 3093      65616479 
 3093      5F6C6973 
 3093      7400
 3094              	.LASF25:
 3095 0338 6576656E 		.ascii	"eventmask_t\000"
 3095      746D6173 
 3095      6B5F7400 
 3096              	.LASF7:
ARM GAS  C:\Users\jo\AppData\Local\Temp\cc5axC9B.s 			page 58


 3097 0344 5F5F696E 		.ascii	"__int32_t\000"
 3097      7433325F 
 3097      7400
 3098              	.LASF168:
 3099 034e 50474461 		.ascii	"PGData\000"
 3099      746100
 3100              	.LASF185:
 3101 0355 474E5520 		.ascii	"GNU C 4.9.3 20141119 (release) [ARM/embedded-4_9-br"
 3101      4320342E 
 3101      392E3320 
 3101      32303134 
 3101      31313139 
 3102 0388 616E6368 		.ascii	"anch revision 218278] -mcpu=cortex-m4 -mno-thumb-in"
 3102      20726576 
 3102      6973696F 
 3102      6E203231 
 3102      38323738 
 3103 03bb 74657277 		.ascii	"terwork -mthumb -ggdb -O2 -fomit-frame-pointer -fal"
 3103      6F726B20 
 3103      2D6D7468 
 3103      756D6220 
 3103      2D676764 
 3104 03ee 69676E2D 		.ascii	"ign-functions=16 -ffunction-sections -fdata-section"
 3104      66756E63 
 3104      74696F6E 
 3104      733D3136 
 3104      202D6666 
 3105 0421 73202D66 		.ascii	"s -fno-common\000"
 3105      6E6F2D63 
 3105      6F6D6D6F 
 3105      6E00
 3106              	.LASF114:
 3107 042f 73746B61 		.ascii	"stkalign_t\000"
 3107      6C69676E 
 3107      5F7400
 3108              	.LASF48:
 3109 043a 74687265 		.ascii	"threads_list_t\000"
 3109      6164735F 
 3109      6C697374 
 3109      5F7400
 3110              	.LASF62:
 3111 0449 76697274 		.ascii	"virtual_timer_t\000"
 3111      75616C5F 
 3111      74696D65 
 3111      725F7400 
 3112              	.LASF136:
 3113 0459 735F7175 		.ascii	"s_queue\000"
 3113      65756500 
 3114              	.LASF40:
 3115 0461 705F7761 		.ascii	"p_waiting\000"
 3115      6974696E 
 3115      6700
 3116              	.LASF84:
 3117 046b 73697A65 		.ascii	"sizetype\000"
 3117      74797065 
 3117      00
 3118              	.LASF47:
ARM GAS  C:\Users\jo\AppData\Local\Temp\cc5axC9B.s 			page 59


 3119 0474 74687265 		.ascii	"thread_reference_t\000"
 3119      61645F72 
 3119      65666572 
 3119      656E6365 
 3119      5F7400
 3120              	.LASF70:
 3121 0487 63685F76 		.ascii	"ch_virtual_timers_list\000"
 3121      69727475 
 3121      616C5F74 
 3121      696D6572 
 3121      735F6C69 
 3122              	.LASF145:
 3123 049e 636C6561 		.ascii	"clear\000"
 3123      7200
 3124              	.LASF121:
 3125 04a4 63685F73 		.ascii	"ch_swc_event_t\000"
 3125      77635F65 
 3125      76656E74 
 3125      5F7400
 3126              	.LASF96:
 3127 04b3 41484233 		.ascii	"AHB3ENR\000"
 3127      454E5200 
 3128              	.LASF71:
 3129 04bb 76745F6C 		.ascii	"vt_lasttime\000"
 3129      61737474 
 3129      696D6500 
 3130              	.LASF34:
 3131 04c7 705F6F6C 		.ascii	"p_older\000"
 3131      64657200 
 3132              	.LASF57:
 3133 04cf 725F6374 		.ascii	"r_ctx\000"
 3133      7800
 3134              	.LASF102:
 3135 04d5 41484232 		.ascii	"AHB2LPENR\000"
 3135      4C50454E 
 3135      5200
 3136              	.LASF127:
 3137 04df 746D5F63 		.ascii	"tm_calibration_t\000"
 3137      616C6962 
 3137      72617469 
 3137      6F6E5F74 
 3137      00
 3138              	.LASF160:
 3139 04f0 61667268 		.ascii	"afrh\000"
 3139      00
 3140              	.LASF165:
 3141 04f5 50444461 		.ascii	"PDData\000"
 3141      746100
 3142              	.LASF60:
 3143 04fc 725F6375 		.ascii	"r_current\000"
 3143      7272656E 
 3143      7400
 3144              	.LASF91:
 3145 0506 41504231 		.ascii	"APB1RSTR\000"
 3145      52535452 
 3145      00
 3146              	.LASF12:
ARM GAS  C:\Users\jo\AppData\Local\Temp\cc5axC9B.s 			page 60


 3147 050f 5F5F7569 		.ascii	"__uint64_t\000"
 3147      6E743634 
 3147      5F7400
 3148              	.LASF153:
 3149 051a 41465248 		.ascii	"AFRH\000"
 3149      00
 3150              	.LASF152:
 3151 051f 4146524C 		.ascii	"AFRL\000"
 3151      00
 3152              	.LASF22:
 3153 0524 74726566 		.ascii	"trefs_t\000"
 3153      735F7400 
 3154              	.LASF90:
 3155 052c 52455345 		.ascii	"RESERVED0\000"
 3155      52564544 
 3155      3000
 3156              	.LASF93:
 3157 0536 52455345 		.ascii	"RESERVED1\000"
 3157      52564544 
 3157      3100
 3158              	.LASF97:
 3159 0540 52455345 		.ascii	"RESERVED2\000"
 3159      52564544 
 3159      3200
 3160              	.LASF100:
 3161 054a 52455345 		.ascii	"RESERVED3\000"
 3161      52564544 
 3161      3300
 3162              	.LASF104:
 3163 0554 52455345 		.ascii	"RESERVED4\000"
 3163      52564544 
 3163      3400
 3164              	.LASF30:
 3165 055e 705F7072 		.ascii	"p_prev\000"
 3165      657600
 3166              	.LASF109:
 3167 0565 52455345 		.ascii	"RESERVED6\000"
 3167      52564544 
 3167      3600
 3168              	.LASF23:
 3169 056f 74707269 		.ascii	"tprio_t\000"
 3169      6F5F7400 
 3170              	.LASF73:
 3171 0577 63685F73 		.ascii	"ch_system_debug\000"
 3171      79737465 
 3171      6D5F6465 
 3171      62756700 
 3172              	.LASF144:
 3173 0587 5F426F6F 		.ascii	"_Bool\000"
 3173      6C00
 3174              	.LASF16:
 3175 058d 696E7433 		.ascii	"int32_t\000"
 3175      325F7400 
 3176              	.LASF2:
 3177 0595 756E7369 		.ascii	"unsigned char\000"
 3177      676E6564 
 3177      20636861 
ARM GAS  C:\Users\jo\AppData\Local\Temp\cc5axC9B.s 			page 61


 3177      7200
 3178              	.LASF159:
 3179 05a3 6166726C 		.ascii	"afrl\000"
 3179      00
 3180              	.LASF137:
 3181 05a8 735F636E 		.ascii	"s_cnt\000"
 3181      7400
 3182              	.LASF44:
 3183 05ae 705F6D74 		.ascii	"p_mtxlist\000"
 3183      786C6973 
 3183      7400
 3184              	.LASF3:
 3185 05b8 73686F72 		.ascii	"short int\000"
 3185      7420696E 
 3185      7400
 3186              	.LASF37:
 3187 05c2 705F7374 		.ascii	"p_state\000"
 3187      61746500 
 3188              	.LASF103:
 3189 05ca 41484233 		.ascii	"AHB3LPENR\000"
 3189      4C50454E 
 3189      5200
 3190              	.LASF56:
 3191 05d4 725F7072 		.ascii	"r_prio\000"
 3191      696F00
 3192              	.LASF162:
 3193 05db 50414461 		.ascii	"PAData\000"
 3193      746100
 3194              	.LASF134:
 3195 05e2 65776D61 		.ascii	"ewmask\000"
 3195      736B00
 3196              	.LASF29:
 3197 05e9 705F6E65 		.ascii	"p_next\000"
 3197      787400
 3198              	.LASF20:
 3199 05f0 746D6F64 		.ascii	"tmode_t\000"
 3199      655F7400 
 3200              	.LASF38:
 3201 05f8 705F666C 		.ascii	"p_flags\000"
 3201      61677300 
 3202              	.LASF175:
 3203 0600 6770696F 		.ascii	"gpiop\000"
 3203      7000
 3204              	.LASF99:
 3205 0606 41504232 		.ascii	"APB2ENR\000"
 3205      454E5200 
 3206              	.LASF170:
 3207 060e 50494461 		.ascii	"PIData\000"
 3207      746100
 3208              	.LASF63:
 3209 0615 63685F76 		.ascii	"ch_virtual_timer\000"
 3209      69727475 
 3209      616C5F74 
 3209      696D6572 
 3209      00
 3210              	.LASF135:
 3211 0626 63685F73 		.ascii	"ch_semaphore\000"
ARM GAS  C:\Users\jo\AppData\Local\Temp\cc5axC9B.s 			page 62


 3211      656D6170 
 3211      686F7265 
 3211      00
 3212              	.LASF43:
 3213 0633 705F6570 		.ascii	"p_epending\000"
 3213      656E6469 
 3213      6E6700
 3214              	.LASF107:
 3215 063e 52455345 		.ascii	"RESERVED5\000"
 3215      52564544 
 3215      3500
 3216              	.LASF17:
 3217 0648 75696E74 		.ascii	"uint32_t\000"
 3217      33325F74 
 3217      00
 3218              	.LASF133:
 3219 0651 77746D74 		.ascii	"wtmtxp\000"
 3219      787000
 3220              	.LASF55:
 3221 0658 725F7175 		.ascii	"r_queue\000"
 3221      65756500 
 3222              	.LASF66:
 3223 0660 76745F64 		.ascii	"vt_delta\000"
 3223      656C7461 
 3223      00
 3224              	.LASF50:
 3225 0669 63685F74 		.ascii	"ch_threads_list\000"
 3225      68726561 
 3225      64735F6C 
 3225      69737400 
 3226              	.LASF10:
 3227 0679 6C6F6E67 		.ascii	"long unsigned int\000"
 3227      20756E73 
 3227      69676E65 
 3227      6420696E 
 3227      7400
 3228              	.LASF182:
 3229 068b 616C7472 		.ascii	"altr\000"
 3229      00
 3230              	.LASF142:
 3231 0690 63686172 		.ascii	"char\000"
 3231      00
 3232              	.LASF181:
 3233 0695 6D6F6465 		.ascii	"mode\000"
 3233      00
 3234              	.LASF176:
 3235 069a 636F6E66 		.ascii	"config\000"
 3235      696700
 3236              	.LASF5:
 3237 06a1 5F5F7569 		.ascii	"__uint16_t\000"
 3237      6E743136 
 3237      5F7400
 3238              	.LASF88:
 3239 06ac 41484232 		.ascii	"AHB2RSTR\000"
 3239      52535452 
 3239      00
 3240              	.LASF28:
ARM GAS  C:\Users\jo\AppData\Local\Temp\cc5axC9B.s 			page 63


 3241 06b5 74687265 		.ascii	"thread_t\000"
 3241      61645F74 
 3241      00
 3242              	.LASF141:
 3243 06be 6D5F6E65 		.ascii	"m_next\000"
 3243      787400
 3244              	.LASF27:
 3245 06c5 73797374 		.ascii	"systime_t\000"
 3245      696D655F 
 3245      7400
 3246              	.LASF45:
 3247 06cf 705F7265 		.ascii	"p_realprio\000"
 3247      616C7072 
 3247      696F00
 3248              	.LASF61:
 3249 06da 76746675 		.ascii	"vtfunc_t\000"
 3249      6E635F74 
 3249      00
 3250              	.LASF9:
 3251 06e3 5F5F7569 		.ascii	"__uint32_t\000"
 3251      6E743332 
 3251      5F7400
 3252              	.LASF188:
 3253 06ee 696E6974 		.ascii	"initgpio\000"
 3253      6770696F 
 3253      00
 3254              	.LASF74:
 3255 06f7 70616E69 		.ascii	"panic_msg\000"
 3255      635F6D73 
 3255      6700
 3256              	.LASF126:
 3257 0701 6F666673 		.ascii	"offset\000"
 3257      657400
 3258              	.LASF98:
 3259 0708 41504231 		.ascii	"APB1ENR\000"
 3259      454E5200 
 3260              	.LASF174:
 3261 0710 696F706F 		.ascii	"ioportid_t\000"
 3261      72746964 
 3261      5F7400
 3262              	.LASF95:
 3263 071b 41484232 		.ascii	"AHB2ENR\000"
 3263      454E5200 
 3264              	.LASF115:
 3265 0723 636F6E74 		.ascii	"context\000"
 3265      65787400 
 3266              	.LASF59:
 3267 072b 725F6F6C 		.ascii	"r_older\000"
 3267      64657200 
 3268              	.LASF178:
 3269 0733 5F70616C 		.ascii	"_pal_lld_setgroupmode\000"
 3269      5F6C6C64 
 3269      5F736574 
 3269      67726F75 
 3269      706D6F64 
 3270              	.LASF19:
 3271 0749 7274636E 		.ascii	"rtcnt_t\000"
ARM GAS  C:\Users\jo\AppData\Local\Temp\cc5axC9B.s 			page 64


 3271      745F7400 
 3272              	.LASF68:
 3273 0751 76745F70 		.ascii	"vt_par\000"
 3273      617200
 3274              	.LASF110:
 3275 0758 53534347 		.ascii	"SSCGR\000"
 3275      5200
 3276              	.LASF51:
 3277 075e 74687265 		.ascii	"threads_queue_t\000"
 3277      6164735F 
 3277      71756575 
 3277      655F7400 
 3278              	.LASF138:
 3279 076e 63685F6D 		.ascii	"ch_mutex\000"
 3279      75746578 
 3279      00
 3280              	.LASF39:
 3281 0777 705F7265 		.ascii	"p_refs\000"
 3281      667300
 3282              	.LASF75:
 3283 077e 6973725F 		.ascii	"isr_cnt\000"
 3283      636E7400 
 3284              	.LASF177:
 3285 0786 5F70616C 		.ascii	"_pal_lld_init\000"
 3285      5F6C6C64 
 3285      5F696E69 
 3285      7400
 3286              	.LASF108:
 3287 0794 42444352 		.ascii	"BDCR\000"
 3287      00
 3288              	.LASF80:
 3289 0799 726C6973 		.ascii	"rlist\000"
 3289      7400
 3290              	.LASF14:
 3291 079f 75696E74 		.ascii	"uint8_t\000"
 3291      385F7400 
 3292              	.LASF158:
 3293 07a7 70757064 		.ascii	"pupdr\000"
 3293      7200
 3294              	.LASF130:
 3295 07ad 77746F62 		.ascii	"wtobjp\000"
 3295      6A7000
 3296              	.LASF35:
 3297 07b4 705F6E61 		.ascii	"p_name\000"
 3297      6D6500
 3298              	.LASF94:
 3299 07bb 41484231 		.ascii	"AHB1ENR\000"
 3299      454E5200 
 3300              	.LASF164:
 3301 07c3 50434461 		.ascii	"PCData\000"
 3301      746100
 3302              	.LASF86:
 3303 07ca 43464752 		.ascii	"CFGR\000"
 3303      00
 3304              	.LASF77:
 3305 07cf 74726163 		.ascii	"trace_buffer\000"
 3305      655F6275 
ARM GAS  C:\Users\jo\AppData\Local\Temp\cc5axC9B.s 			page 65


 3305      66666572 
 3305      00
 3306              	.LASF42:
 3307 07dc 705F6D73 		.ascii	"p_msg\000"
 3307      6700
 3308              	.LASF186:
 3309 07e2 2E2E2F2E 		.ascii	"../../../os/hal/ports/STM32/LLD/GPIOv2/pal_lld.c\000"
 3309      2E2F2E2E 
 3309      2F6F732F 
 3309      68616C2F 
 3309      706F7274 
 3310              	.LASF173:
 3311 0813 696F6D6F 		.ascii	"iomode_t\000"
 3311      64655F74 
 3311      00
 3312              	.LASF171:
 3313 081c 50414C43 		.ascii	"PALConfig\000"
 3313      6F6E6669 
 3313      6700
 3314              	.LASF140:
 3315 0826 6D5F6F77 		.ascii	"m_owner\000"
 3315      6E657200 
 3316              	.LASF119:
 3317 082e 73655F77 		.ascii	"se_wtobjp\000"
 3317      746F626A 
 3317      7000
 3318              	.LASF32:
 3319 0838 705F6374 		.ascii	"p_ctx\000"
 3319      7800
 3320              	.LASF67:
 3321 083e 76745F66 		.ascii	"vt_func\000"
 3321      756E6300 
 3322              		.ident	"GCC: (GNU Tools for ARM Embedded Processors) 4.9.3 20141119 (release) [ARM/embedded-4_9-br
ARM GAS  C:\Users\jo\AppData\Local\Temp\cc5axC9B.s 			page 66


DEFINED SYMBOLS
                            *ABS*:00000000 pal_lld.c
C:\Users\jo\AppData\Local\Temp\cc5axC9B.s:19     .text._pal_lld_init:00000000 $t
C:\Users\jo\AppData\Local\Temp\cc5axC9B.s:25     .text._pal_lld_init:00000000 _pal_lld_init
C:\Users\jo\AppData\Local\Temp\cc5axC9B.s:339    .text._pal_lld_init:000001a4 $d
C:\Users\jo\AppData\Local\Temp\cc5axC9B.s:355    .text._pal_lld_setgroupmode:00000000 $t
C:\Users\jo\AppData\Local\Temp\cc5axC9B.s:361    .text._pal_lld_setgroupmode:00000000 _pal_lld_setgroupmode
                     .debug_frame:00000010 $d
C:\Users\jo\AppData\Local\Temp\cc5axC9B.s:354    .text._pal_lld_init:000001cc $t

NO UNDEFINED SYMBOLS
