ARM GAS  C:\Users\jo\AppData\Local\Temp\ccDLAO0k.s 			page 1


   1              		.syntax unified
   2              		.cpu cortex-m4
   3              		.fpu softvfp
   4              		.eabi_attribute 20, 1
   5              		.eabi_attribute 21, 1
   6              		.eabi_attribute 23, 3
   7              		.eabi_attribute 24, 1
   8              		.eabi_attribute 25, 1
   9              		.eabi_attribute 26, 1
  10              		.eabi_attribute 30, 2
  11              		.eabi_attribute 34, 1
  12              		.eabi_attribute 18, 4
  13              		.thumb
  14              		.file	"pbuf.c"
  15              		.text
  16              	.Ltext0:
  17              		.cfi_sections	.debug_frame
  18              		.section	.text.pbuf_free_ooseq_callback,"ax",%progbits
  19              		.align	2
  20              		.p2align 4,,15
  21              		.thumb
  22              		.thumb_func
  23              		.type	pbuf_free_ooseq_callback, %function
  24              	pbuf_free_ooseq_callback:
  25              	.LFB261:
  26              		.file 1 "../../../ext/lwip/src/core/pbuf.c"
  27              		.loc 1 144 0
  28              		.cfi_startproc
  29              		@ args = 0, pretend = 0, frame = 0
  30              		@ frame_needed = 0, uses_anonymous_args = 0
  31              	.LVL0:
  32              	.LBB96:
  33              	.LBB97:
  34              		.loc 1 127 0
  35 0000 094A     		ldr	r2, .L15
  36              		.loc 1 124 0
  37 0002 0A4B     		ldr	r3, .L15+4
  38              	.LBE97:
  39              	.LBE96:
  40              		.loc 1 144 0
  41 0004 10B5     		push	{r4, lr}
  42              		.cfi_def_cfa_offset 8
  43              		.cfi_offset 4, -8
  44              		.cfi_offset 14, -4
  45              	.LBB99:
  46              	.LBB98:
  47              		.loc 1 127 0
  48 0006 1468     		ldr	r4, [r2]
  49              	.LVL1:
  50              		.loc 1 124 0
  51 0008 0022     		movs	r2, #0
  52 000a 1A70     		strb	r2, [r3]
  53              		.loc 1 127 0
  54 000c 14B9     		cbnz	r4, .L6
  55 000e 09E0     		b	.L1
  56              	.LVL2:
  57              	.L5:
ARM GAS  C:\Users\jo\AppData\Local\Temp\ccDLAO0k.s 			page 2


  58 0010 E468     		ldr	r4, [r4, #12]
  59              	.LVL3:
  60 0012 3CB1     		cbz	r4, .L1
  61              	.L6:
  62              		.loc 1 128 0
  63 0014 606F     		ldr	r0, [r4, #116]
  64 0016 0028     		cmp	r0, #0
  65 0018 FAD0     		beq	.L5
  66              		.loc 1 131 0
  67 001a FFF7FEFF 		bl	tcp_segs_free
  68              	.LVL4:
  69              		.loc 1 132 0
  70 001e 0023     		movs	r3, #0
  71 0020 6367     		str	r3, [r4, #116]
  72 0022 10BD     		pop	{r4, pc}
  73              	.LVL5:
  74              	.L1:
  75 0024 10BD     		pop	{r4, pc}
  76              	.LVL6:
  77              	.L16:
  78 0026 00BF     		.align	2
  79              	.L15:
  80 0028 00000000 		.word	tcp_active_pcbs
  81 002c 00000000 		.word	.LANCHOR0
  82              	.LBE98:
  83              	.LBE99:
  84              		.cfi_endproc
  85              	.LFE261:
  86              		.size	pbuf_free_ooseq_callback, .-pbuf_free_ooseq_callback
  87              		.section	.text.pbuf_pool_is_empty.part.0,"ax",%progbits
  88              		.align	2
  89              		.p2align 4,,15
  90              		.thumb
  91              		.thumb_func
  92              		.type	pbuf_pool_is_empty.part.0, %function
  93              	pbuf_pool_is_empty.part.0:
  94              	.LFB281:
  95              		.loc 1 152 0
  96              		.cfi_startproc
  97              		@ args = 0, pretend = 0, frame = 0
  98              		@ frame_needed = 0, uses_anonymous_args = 0
  99              		.loc 1 169 0
 100 0000 0021     		movs	r1, #0
 101              		.loc 1 152 0
 102 0002 08B5     		push	{r3, lr}
 103              		.cfi_def_cfa_offset 8
 104              		.cfi_offset 3, -8
 105              		.cfi_offset 14, -4
 106              		.loc 1 169 0
 107 0004 0A46     		mov	r2, r1
 108 0006 0448     		ldr	r0, .L23
 109 0008 FFF7FEFF 		bl	tcpip_callback_with_block
 110              	.LVL7:
 111 000c 10B1     		cbz	r0, .L17
 112 000e 034B     		ldr	r3, .L23+4
 113 0010 0022     		movs	r2, #0
 114 0012 1A70     		strb	r2, [r3]
ARM GAS  C:\Users\jo\AppData\Local\Temp\ccDLAO0k.s 			page 3


 115              	.L17:
 116 0014 08BD     		pop	{r3, pc}
 117              	.L24:
 118 0016 00BF     		.align	2
 119              	.L23:
 120 0018 00000000 		.word	pbuf_free_ooseq_callback
 121 001c 00000000 		.word	.LANCHOR0
 122              		.cfi_endproc
 123              	.LFE281:
 124              		.size	pbuf_pool_is_empty.part.0, .-pbuf_pool_is_empty.part.0
 125              		.section	.text.chprintf.constprop.1,"ax",%progbits
 126              		.align	2
 127              		.p2align 4,,15
 128              		.thumb
 129              		.thumb_func
 130              		.type	chprintf.constprop.1, %function
 131              	chprintf.constprop.1:
 132              	.LFB282:
 133              		.file 2 "../../../os/hal/lib/streams/chprintf.h"
 134              		.loc 2 69 0
 135              		.cfi_startproc
 136              		@ args = 4, pretend = 12, frame = 8
 137              		@ frame_needed = 0, uses_anonymous_args = 1
 138              	.LVL8:
 139 0000 0EB4     		push	{r1, r2, r3}
 140              		.cfi_def_cfa_offset 12
 141              		.cfi_offset 1, -12
 142              		.cfi_offset 2, -8
 143              		.cfi_offset 3, -4
 144 0002 00B5     		push	{lr}
 145              		.cfi_def_cfa_offset 16
 146              		.cfi_offset 14, -16
 147 0004 82B0     		sub	sp, sp, #8
 148              		.cfi_def_cfa_offset 24
 149              		.loc 2 73 0
 150 0006 04AB     		add	r3, sp, #16
 151              		.loc 2 74 0
 152 0008 1A46     		mov	r2, r3
 153 000a 0549     		ldr	r1, .L27
 154 000c 0548     		ldr	r0, .L27+4
 155              	.LVL9:
 156              		.loc 2 73 0
 157 000e 0193     		str	r3, [sp, #4]
 158              		.loc 2 74 0
 159 0010 FFF7FEFF 		bl	chvprintf
 160              	.LVL10:
 161              		.loc 2 78 0
 162 0014 02B0     		add	sp, sp, #8
 163              		.cfi_def_cfa_offset 16
 164              		@ sp needed
 165 0016 5DF804EB 		ldr	lr, [sp], #4
 166              		.cfi_restore 14
 167              		.cfi_def_cfa_offset 12
 168 001a 03B0     		add	sp, sp, #12
 169              		.cfi_restore 3
 170              		.cfi_restore 2
 171              		.cfi_restore 1
ARM GAS  C:\Users\jo\AppData\Local\Temp\ccDLAO0k.s 			page 4


 172              		.cfi_def_cfa_offset 0
 173 001c 7047     		bx	lr
 174              	.L28:
 175 001e 00BF     		.align	2
 176              	.L27:
 177 0020 00000000 		.word	.LC0
 178 0024 00000000 		.word	itm_port
 179              		.cfi_endproc
 180              	.LFE282:
 181              		.size	chprintf.constprop.1, .-chprintf.constprop.1
 182 0028 AFF30080 		.section	.text.pbuf_alloced_custom,"ax",%progbits
 182      AFF30080 
 183              		.align	2
 184              		.p2align 4,,15
 185              		.global	pbuf_alloced_custom
 186              		.thumb
 187              		.thumb_func
 188              		.type	pbuf_alloced_custom, %function
 189              	pbuf_alloced_custom:
 190              	.LFB264:
 191              		.loc 1 369 0
 192              		.cfi_startproc
 193              		@ args = 8, pretend = 0, frame = 0
 194              		@ frame_needed = 0, uses_anonymous_args = 0
 195              	.LVL11:
 196 0000 70B5     		push	{r4, r5, r6, lr}
 197              		.cfi_def_cfa_offset 16
 198              		.cfi_offset 4, -16
 199              		.cfi_offset 5, -12
 200              		.cfi_offset 6, -8
 201              		.cfi_offset 14, -4
 202 0002 82B0     		sub	sp, sp, #8
 203              		.cfi_def_cfa_offset 24
 204              		.loc 1 369 0
 205 0004 069D     		ldr	r5, [sp, #24]
 206 0006 BDF81C60 		ldrh	r6, [sp, #28]
 207              		.loc 1 374 0
 208 000a 0328     		cmp	r0, #3
 209 000c 22D8     		bhi	.L30
 210 000e DFE800F0 		tbb	[pc, r0]
 211              	.L32:
 212 0012 1B       		.byte	(.L31-.L32)/2
 213 0013 18       		.byte	(.L33-.L32)/2
 214 0014 02       		.byte	(.L39-.L32)/2
 215 0015 1E       		.byte	(.L35-.L32)/2
 216              		.p2align 1
 217              	.L39:
 218 0016 1024     		movs	r4, #16
 219 0018 1320     		movs	r0, #19
 220              	.LVL12:
 221              	.L34:
 222              		.loc 1 395 0
 223 001a 0C44     		add	r4, r4, r1
 224 001c B442     		cmp	r4, r6
 225 001e 2ADC     		bgt	.L40
 226              		.loc 1 400 0
 227 0020 0024     		movs	r4, #0
ARM GAS  C:\Users\jo\AppData\Local\Temp\ccDLAO0k.s 			page 5


 228 0022 1C60     		str	r4, [r3]
 229              		.loc 1 401 0
 230 0024 2DB3     		cbz	r5, .L37
 231              		.loc 1 402 0
 232 0026 20F00300 		bic	r0, r0, #3
 233 002a 2844     		add	r0, r0, r5
 234 002c 5860     		str	r0, [r3, #4]
 235              	.L38:
 236              		.loc 1 409 0
 237 002e 0120     		movs	r0, #1
 238              		.loc 1 406 0
 239 0030 0224     		movs	r4, #2
 240              		.loc 1 409 0
 241 0032 D881     		strh	r0, [r3, #14]	@ movhi
 242              		.loc 1 407 0
 243 0034 1981     		strh	r1, [r3, #8]	@ movhi
 244 0036 5981     		strh	r1, [r3, #10]	@ movhi
 245              		.loc 1 408 0
 246 0038 1A73     		strb	r2, [r3, #12]
 247              		.loc 1 406 0
 248 003a 5C73     		strb	r4, [r3, #13]
 249              		.loc 1 410 0
 250 003c 1846     		mov	r0, r3
 251              	.L36:
 252              		.loc 1 411 0
 253 003e 02B0     		add	sp, sp, #8
 254              		.cfi_remember_state
 255              		.cfi_def_cfa_offset 16
 256              		@ sp needed
 257 0040 70BD     		pop	{r4, r5, r6, pc}
 258              	.LVL13:
 259              	.L33:
 260              		.cfi_restore_state
 261              		.loc 1 374 0
 262 0042 2424     		movs	r4, #36
 263 0044 2720     		movs	r0, #39
 264              	.LVL14:
 265 0046 E8E7     		b	.L34
 266              	.LVL15:
 267              	.L31:
 268 0048 3824     		movs	r4, #56
 269 004a 3B20     		movs	r0, #59
 270              	.LVL16:
 271 004c E5E7     		b	.L34
 272              	.LVL17:
 273              	.L35:
 274              		.loc 1 389 0
 275 004e 0024     		movs	r4, #0
 276 0050 0320     		movs	r0, #3
 277              	.LVL18:
 278 0052 E2E7     		b	.L34
 279              	.LVL19:
 280              	.L30:
 281              		.loc 1 391 0 discriminator 1
 282 0054 094B     		ldr	r3, .L42
 283              	.LVL20:
 284 0056 0093     		str	r3, [sp]
ARM GAS  C:\Users\jo\AppData\Local\Temp\ccDLAO0k.s 			page 6


 285 0058 0949     		ldr	r1, .L42+4
 286              	.LVL21:
 287 005a 0A4A     		ldr	r2, .L42+8
 288              	.LVL22:
 289 005c 0A48     		ldr	r0, .L42+12
 290              	.LVL23:
 291 005e 40F28713 		movw	r3, #391
 292 0062 FFF7FEFF 		bl	chprintf.constprop.1
 293              	.LVL24:
 294              	.LBB100:
 295              	.LBB101:
 296              		.file 3 "../../../os/hal/osal/rt/osal.h"
 297              		.loc 3 416 0 discriminator 1
 298 0066 0748     		ldr	r0, .L42+8
 299 0068 FFF7FEFF 		bl	chSysHalt
 300              	.LVL25:
 301              	.LBE101:
 302              	.LBE100:
 303              		.loc 1 392 0 discriminator 1
 304 006c 0020     		movs	r0, #0
 305              		.loc 1 411 0 discriminator 1
 306 006e 02B0     		add	sp, sp, #8
 307              		@ sp needed
 308 0070 70BD     		pop	{r4, r5, r6, pc}
 309              	.LVL26:
 310              	.L37:
 311              		.loc 1 404 0
 312 0072 5D60     		str	r5, [r3, #4]
 313 0074 DBE7     		b	.L38
 314              	.L40:
 315              		.loc 1 397 0
 316 0076 0020     		movs	r0, #0
 317 0078 E1E7     		b	.L36
 318              	.L43:
 319 007a 00BF     		.align	2
 320              	.L42:
 321 007c 4C000000 		.word	.LC2
 322 0080 00000000 		.word	.LC0
 323 0084 28000000 		.word	.LC1
 324 0088 00000000 		.word	itm_port
 325              		.cfi_endproc
 326              	.LFE264:
 327              		.size	pbuf_alloced_custom, .-pbuf_alloced_custom
 328 008c AFF30080 		.section	.text.pbuf_header,"ax",%progbits
 329              		.align	2
 330              		.p2align 4,,15
 331              		.global	pbuf_header
 332              		.thumb
 333              		.thumb_func
 334              		.type	pbuf_header, %function
 335              	pbuf_header:
 336              	.LFB266:
 337              		.loc 1 512 0
 338              		.cfi_startproc
 339              		@ args = 0, pretend = 0, frame = 0
 340              		@ frame_needed = 0, uses_anonymous_args = 0
 341              	.LVL27:
ARM GAS  C:\Users\jo\AppData\Local\Temp\ccDLAO0k.s 			page 7


 342 0000 10B5     		push	{r4, lr}
 343              		.cfi_def_cfa_offset 8
 344              		.cfi_offset 4, -8
 345              		.cfi_offset 14, -4
 346              		.loc 1 517 0
 347 0002 0446     		mov	r4, r0
 348              		.loc 1 512 0
 349 0004 82B0     		sub	sp, sp, #8
 350              		.cfi_def_cfa_offset 16
 351              		.loc 1 517 0
 352 0006 0028     		cmp	r0, #0
 353 0008 44D0     		beq	.L65
 354              		.loc 1 518 0
 355 000a 0029     		cmp	r1, #0
 356 000c 1AD0     		beq	.L64
 357              		.loc 1 522 0
 358 000e 1CDB     		blt	.L66
 359              		.loc 1 527 0
 360 0010 8AB2     		uxth	r2, r1
 361              	.LVL28:
 362              	.L48:
 363              		.loc 1 540 0
 364 0012 237B     		ldrb	r3, [r4, #12]	@ zero_extendqisi2
 365              	.LVL29:
 366              		.loc 1 542 0
 367 0014 6068     		ldr	r0, [r4, #4]
 368              	.LVL30:
 369              		.loc 1 545 0
 370 0016 43B1     		cbz	r3, .L49
 371              		.loc 1 545 0 is_stmt 0 discriminator 1
 372 0018 032B     		cmp	r3, #3
 373 001a 06D0     		beq	.L49
 374              		.loc 1 559 0 is_stmt 1
 375 001c 013B     		subs	r3, r3, #1
 376              	.LVL31:
 377 001e 012B     		cmp	r3, #1
 378 0020 2AD8     		bhi	.L52
 379              		.loc 1 561 0
 380 0022 0029     		cmp	r1, #0
 381 0024 44DB     		blt	.L67
 382              	.LVL32:
 383              	.L56:
 384              		.loc 1 567 0
 385 0026 0120     		movs	r0, #1
 386              	.LVL33:
 387 0028 0DE0     		b	.L61
 388              	.LVL34:
 389              	.L49:
 390              		.loc 1 547 0
 391 002a 431A     		subs	r3, r0, r1
 392              	.LVL35:
 393              		.loc 1 549 0
 394 002c 04F11002 		add	r2, r4, #16
 395              	.LVL36:
 396 0030 9342     		cmp	r3, r2
 397              		.loc 1 547 0
 398 0032 6360     		str	r3, [r4, #4]
ARM GAS  C:\Users\jo\AppData\Local\Temp\ccDLAO0k.s 			page 8


 399              		.loc 1 549 0
 400 0034 1CD3     		bcc	.L68
 401 0036 6389     		ldrh	r3, [r4, #10]
 402              	.LVL37:
 403              	.L53:
 404              		.loc 1 576 0
 405 0038 2289     		ldrh	r2, [r4, #8]
 406              		.loc 1 575 0
 407 003a 89B2     		uxth	r1, r1
 408 003c 0B44     		add	r3, r3, r1
 409              		.loc 1 576 0
 410 003e 1144     		add	r1, r1, r2
 411              	.LVL38:
 412              		.loc 1 575 0
 413 0040 6381     		strh	r3, [r4, #10]	@ movhi
 414              		.loc 1 576 0
 415 0042 2181     		strh	r1, [r4, #8]	@ movhi
 416              	.LVL39:
 417              	.L64:
 418              		.loc 1 581 0
 419 0044 0020     		movs	r0, #0
 420              	.L61:
 421              		.loc 1 582 0
 422 0046 02B0     		add	sp, sp, #8
 423              		.cfi_remember_state
 424              		.cfi_def_cfa_offset 8
 425              		@ sp needed
 426 0048 10BD     		pop	{r4, pc}
 427              	.LVL40:
 428              	.L66:
 429              		.cfi_restore_state
 430              		.loc 1 523 0
 431 004a 4A42     		negs	r2, r1
 432              		.loc 1 525 0
 433 004c 6389     		ldrh	r3, [r4, #10]
 434              		.loc 1 523 0
 435 004e 92B2     		uxth	r2, r2
 436              	.LVL41:
 437              		.loc 1 525 0
 438 0050 9342     		cmp	r3, r2
 439 0052 DED2     		bcs	.L48
 440              		.loc 1 525 0 is_stmt 0 discriminator 1
 441 0054 194B     		ldr	r3, .L69
 442 0056 0093     		str	r3, [sp]
 443 0058 1949     		ldr	r1, .L69+4
 444              	.LVL42:
 445 005a 1A4A     		ldr	r2, .L69+8
 446              	.LVL43:
 447 005c 1A48     		ldr	r0, .L69+12
 448              	.LVL44:
 449 005e 40F20D23 		movw	r3, #525
 450 0062 FFF7FEFF 		bl	chprintf.constprop.1
 451              	.LVL45:
 452              	.LBB102:
 453              	.LBB103:
 454              		.loc 3 416 0 is_stmt 1 discriminator 1
 455 0066 1748     		ldr	r0, .L69+8
ARM GAS  C:\Users\jo\AppData\Local\Temp\ccDLAO0k.s 			page 9


 456 0068 FFF7FEFF 		bl	chSysHalt
 457              	.LVL46:
 458              	.LBE103:
 459              	.LBE102:
 460              		.loc 1 525 0 discriminator 1
 461 006c 0120     		movs	r0, #1
 462 006e EAE7     		b	.L61
 463              	.LVL47:
 464              	.L68:
 465              		.loc 1 554 0
 466 0070 6060     		str	r0, [r4, #4]
 467              		.loc 1 556 0
 468 0072 0120     		movs	r0, #1
 469              	.LVL48:
 470              		.loc 1 582 0
 471 0074 02B0     		add	sp, sp, #8
 472              		.cfi_remember_state
 473              		.cfi_def_cfa_offset 8
 474              		@ sp needed
 475 0076 10BD     		pop	{r4, pc}
 476              	.LVL49:
 477              	.L52:
 478              		.cfi_restore_state
 479              		.loc 1 571 0 discriminator 1
 480 0078 104B     		ldr	r3, .L69
 481              	.LVL50:
 482 007a 0093     		str	r3, [sp]
 483              	.LVL51:
 484 007c 1049     		ldr	r1, .L69+4
 485              	.LVL52:
 486 007e 134A     		ldr	r2, .L69+16
 487              	.LVL53:
 488 0080 1148     		ldr	r0, .L69+12
 489              	.LVL54:
 490 0082 40F23B23 		movw	r3, #571
 491 0086 FFF7FEFF 		bl	chprintf.constprop.1
 492              	.LVL55:
 493              	.LBB104:
 494              	.LBB105:
 495              		.loc 3 416 0 discriminator 1
 496 008a 1048     		ldr	r0, .L69+16
 497 008c FFF7FEFF 		bl	chSysHalt
 498              	.LVL56:
 499              	.LBE105:
 500              	.LBE104:
 501              		.loc 1 572 0 discriminator 1
 502 0090 0120     		movs	r0, #1
 503 0092 D8E7     		b	.L61
 504              	.LVL57:
 505              	.L65:
 506              		.loc 1 517 0 discriminator 1
 507 0094 094B     		ldr	r3, .L69
 508 0096 0093     		str	r3, [sp]
 509 0098 0949     		ldr	r1, .L69+4
 510              	.LVL58:
 511 009a 0D4A     		ldr	r2, .L69+20
 512 009c 0A48     		ldr	r0, .L69+12
ARM GAS  C:\Users\jo\AppData\Local\Temp\ccDLAO0k.s 			page 10


 513              	.LVL59:
 514 009e 40F20523 		movw	r3, #517
 515 00a2 FFF7FEFF 		bl	chprintf.constprop.1
 516              	.LVL60:
 517              	.LBB106:
 518              	.LBB107:
 519              		.loc 3 416 0 discriminator 1
 520 00a6 0A48     		ldr	r0, .L69+20
 521 00a8 FFF7FEFF 		bl	chSysHalt
 522              	.LVL61:
 523              	.LBE107:
 524              	.LBE106:
 525              		.loc 1 519 0 discriminator 1
 526 00ac 2046     		mov	r0, r4
 527 00ae CAE7     		b	.L61
 528              	.LVL62:
 529              	.L67:
 530              		.loc 1 561 0 discriminator 1
 531 00b0 6389     		ldrh	r3, [r4, #10]
 532              	.LVL63:
 533 00b2 9A42     		cmp	r2, r3
 534 00b4 B7D8     		bhi	.L56
 535              		.loc 1 563 0
 536 00b6 401A     		subs	r0, r0, r1
 537              	.LVL64:
 538 00b8 6060     		str	r0, [r4, #4]
 539              	.LVL65:
 540 00ba BDE7     		b	.L53
 541              	.L70:
 542              		.align	2
 543              	.L69:
 544 00bc 4C000000 		.word	.LC2
 545 00c0 00000000 		.word	.LC0
 546 00c4 7C000000 		.word	.LC4
 547 00c8 00000000 		.word	itm_port
 548 00cc 9C000000 		.word	.LC5
 549 00d0 70000000 		.word	.LC3
 550              		.cfi_endproc
 551              	.LFE266:
 552              		.size	pbuf_header, .-pbuf_header
 553 00d4 AFF30080 		.section	.text.pbuf_free,"ax",%progbits
 553      AFF30080 
 553      AFF30080 
 554              		.align	2
 555              		.p2align 4,,15
 556              		.global	pbuf_free
 557              		.thumb
 558              		.thumb_func
 559              		.type	pbuf_free, %function
 560              	pbuf_free:
 561              	.LFB267:
 562              		.loc 1 619 0
 563              		.cfi_startproc
 564              		@ args = 0, pretend = 0, frame = 0
 565              		@ frame_needed = 0, uses_anonymous_args = 0
 566              	.LVL66:
 567 0000 F0B5     		push	{r4, r5, r6, r7, lr}
ARM GAS  C:\Users\jo\AppData\Local\Temp\ccDLAO0k.s 			page 11


 568              		.cfi_def_cfa_offset 20
 569              		.cfi_offset 4, -20
 570              		.cfi_offset 5, -16
 571              		.cfi_offset 6, -12
 572              		.cfi_offset 7, -8
 573              		.cfi_offset 14, -4
 574              		.loc 1 624 0
 575 0002 0446     		mov	r4, r0
 576              		.loc 1 619 0
 577 0004 83B0     		sub	sp, sp, #12
 578              		.cfi_def_cfa_offset 32
 579              		.loc 1 624 0
 580 0006 0028     		cmp	r0, #0
 581 0008 48D0     		beq	.L87
 582              		.loc 1 635 0
 583 000a 037B     		ldrb	r3, [r0, #12]	@ zero_extendqisi2
 584 000c 032B     		cmp	r3, #3
 585 000e 38D8     		bhi	.L88
 586              	.LVL67:
 587              	.L74:
 588              		.loc 1 642 0
 589 0010 0025     		movs	r5, #0
 590              	.LBB108:
 591              		.loc 1 650 0
 592 0012 294E     		ldr	r6, .L92
 593 0014 07E0     		b	.L81
 594              	.LVL68:
 595              	.L91:
 596              	.LBB109:
 597              		.loc 1 664 0
 598 0016 2369     		ldr	r3, [r4, #16]
 599 0018 33B3     		cbz	r3, .L89
 600              	.LVL69:
 601              	.L77:
 602              		.loc 1 665 0
 603 001a 2046     		mov	r0, r4
 604              	.LBE109:
 605              		.loc 1 680 0
 606 001c 0135     		adds	r5, r5, #1
 607              	.LVL70:
 608              	.LBB112:
 609              		.loc 1 665 0
 610 001e 9847     		blx	r3
 611              	.LVL71:
 612              	.LBE112:
 613              		.loc 1 680 0
 614 0020 EDB2     		uxtb	r5, r5
 615              	.LVL72:
 616              	.LBE108:
 617              		.loc 1 642 0
 618 0022 8FB1     		cbz	r7, .L83
 619              	.LVL73:
 620              	.L84:
 621 0024 3C46     		mov	r4, r7
 622              	.LVL74:
 623              	.L81:
 624              	.LBB116:
ARM GAS  C:\Users\jo\AppData\Local\Temp\ccDLAO0k.s 			page 12


 625              		.loc 1 650 0
 626 0026 E389     		ldrh	r3, [r4, #14]
 627 0028 8BB1     		cbz	r3, .L90
 628              	.L75:
 629              		.loc 1 652 0
 630 002a 013B     		subs	r3, r3, #1
 631 002c 9BB2     		uxth	r3, r3
 632 002e E381     		strh	r3, [r4, #14]	@ movhi
 633              	.LVL75:
 634              		.loc 1 655 0
 635 0030 53B9     		cbnz	r3, .L83
 636              		.loc 1 662 0
 637 0032 627B     		ldrb	r2, [r4, #13]	@ zero_extendqisi2
 638              		.loc 1 657 0
 639 0034 2768     		ldr	r7, [r4]
 640              	.LVL76:
 641              		.loc 1 662 0
 642 0036 9307     		lsls	r3, r2, #30
 643              	.LVL77:
 644 0038 EDD4     		bmi	.L91
 645              		.loc 1 674 0
 646 003a 2046     		mov	r0, r4
 647              		.loc 1 680 0
 648 003c 0135     		adds	r5, r5, #1
 649              	.LVL78:
 650              		.loc 1 677 0
 651 003e FFF7FEFF 		bl	free
 652              	.LVL79:
 653              		.loc 1 680 0
 654 0042 EDB2     		uxtb	r5, r5
 655              	.LVL80:
 656              	.LBE116:
 657              		.loc 1 642 0
 658 0044 002F     		cmp	r7, #0
 659 0046 EDD1     		bne	.L84
 660              	.LVL81:
 661              	.L83:
 662              		.loc 1 693 0
 663 0048 2846     		mov	r0, r5
 664              	.LVL82:
 665              	.L85:
 666              		.loc 1 694 0
 667 004a 03B0     		add	sp, sp, #12
 668              		.cfi_remember_state
 669              		.cfi_def_cfa_offset 20
 670              		@ sp needed
 671 004c F0BD     		pop	{r4, r5, r6, r7, pc}
 672              	.LVL83:
 673              	.L90:
 674              		.cfi_restore_state
 675              	.LBB117:
 676              		.loc 1 650 0 discriminator 1
 677 004e 40F28A23 		movw	r3, #650
 678 0052 1A49     		ldr	r1, .L92+4
 679 0054 1A4A     		ldr	r2, .L92+8
 680 0056 0096     		str	r6, [sp]
 681 0058 1A48     		ldr	r0, .L92+12
ARM GAS  C:\Users\jo\AppData\Local\Temp\ccDLAO0k.s 			page 13


 682 005a FFF7FEFF 		bl	chprintf.constprop.1
 683              	.LVL84:
 684              	.LBB113:
 685              	.LBB114:
 686              		.loc 3 416 0 discriminator 1
 687 005e 1848     		ldr	r0, .L92+8
 688 0060 FFF7FEFF 		bl	chSysHalt
 689              	.LVL85:
 690 0064 E389     		ldrh	r3, [r4, #14]
 691 0066 E0E7     		b	.L75
 692              	.LVL86:
 693              	.L89:
 694              	.LBE114:
 695              	.LBE113:
 696              	.LBB115:
 697              		.loc 1 664 0 discriminator 1
 698 0068 4FF42673 		mov	r3, #664
 699 006c 1349     		ldr	r1, .L92+4
 700 006e 164A     		ldr	r2, .L92+16
 701 0070 0096     		str	r6, [sp]
 702              	.LVL87:
 703 0072 1448     		ldr	r0, .L92+12
 704 0074 FFF7FEFF 		bl	chprintf.constprop.1
 705              	.LVL88:
 706              	.LBB110:
 707              	.LBB111:
 708              		.loc 3 416 0 discriminator 1
 709 0078 1348     		ldr	r0, .L92+16
 710 007a FFF7FEFF 		bl	chSysHalt
 711              	.LVL89:
 712 007e 2369     		ldr	r3, [r4, #16]
 713 0080 CBE7     		b	.L77
 714              	.LVL90:
 715              	.L88:
 716              	.LBE111:
 717              	.LBE110:
 718              	.LBE115:
 719              	.LBE117:
 720              		.loc 1 635 0 discriminator 1
 721 0082 0D4B     		ldr	r3, .L92
 722 0084 0093     		str	r3, [sp]
 723 0086 0D49     		ldr	r1, .L92+4
 724 0088 104A     		ldr	r2, .L92+20
 725 008a 0E48     		ldr	r0, .L92+12
 726              	.LVL91:
 727 008c 40F27D23 		movw	r3, #637
 728 0090 FFF7FEFF 		bl	chprintf.constprop.1
 729              	.LVL92:
 730              	.LBB118:
 731              	.LBB119:
 732              		.loc 3 416 0 discriminator 1
 733 0094 0D48     		ldr	r0, .L92+20
 734 0096 FFF7FEFF 		bl	chSysHalt
 735              	.LVL93:
 736 009a B9E7     		b	.L74
 737              	.LVL94:
 738              	.L87:
ARM GAS  C:\Users\jo\AppData\Local\Temp\ccDLAO0k.s 			page 14


 739              	.LBE119:
 740              	.LBE118:
 741              		.loc 1 625 0 discriminator 1
 742 009c 064B     		ldr	r3, .L92
 743 009e 0093     		str	r3, [sp]
 744 00a0 0649     		ldr	r1, .L92+4
 745 00a2 0B4A     		ldr	r2, .L92+24
 746 00a4 0748     		ldr	r0, .L92+12
 747              	.LVL95:
 748 00a6 40F27123 		movw	r3, #625
 749 00aa FFF7FEFF 		bl	chprintf.constprop.1
 750              	.LVL96:
 751              	.LBB120:
 752              	.LBB121:
 753              		.loc 3 416 0 discriminator 1
 754 00ae 0848     		ldr	r0, .L92+24
 755 00b0 FFF7FEFF 		bl	chSysHalt
 756              	.LVL97:
 757              	.LBE121:
 758              	.LBE120:
 759              		.loc 1 629 0 discriminator 1
 760 00b4 2046     		mov	r0, r4
 761 00b6 C8E7     		b	.L85
 762              	.L93:
 763              		.align	2
 764              	.L92:
 765 00b8 4C000000 		.word	.LC2
 766 00bc 00000000 		.word	.LC0
 767 00c0 C4000000 		.word	.LC7
 768 00c4 00000000 		.word	itm_port
 769 00c8 DC000000 		.word	.LC8
 770 00cc AC000000 		.word	.LC6
 771 00d0 70000000 		.word	.LC3
 772              		.cfi_endproc
 773              	.LFE267:
 774              		.size	pbuf_free, .-pbuf_free
 775 00d4 AFF30080 		.section	.text.pbuf_alloc,"ax",%progbits
 775      AFF30080 
 775      AFF30080 
 776              		.align	2
 777              		.p2align 4,,15
 778              		.global	pbuf_alloc
 779              		.thumb
 780              		.thumb_func
 781              		.type	pbuf_alloc, %function
 782              	pbuf_alloc:
 783              	.LFB263:
 784              		.loc 1 208 0
 785              		.cfi_startproc
 786              		@ args = 0, pretend = 0, frame = 8
 787              		@ frame_needed = 0, uses_anonymous_args = 0
 788              	.LVL98:
 789 0000 2DE9F047 		push	{r4, r5, r6, r7, r8, r9, r10, lr}
 790              		.cfi_def_cfa_offset 32
 791              		.cfi_offset 4, -32
 792              		.cfi_offset 5, -28
 793              		.cfi_offset 6, -24
ARM GAS  C:\Users\jo\AppData\Local\Temp\ccDLAO0k.s 			page 15


 794              		.cfi_offset 7, -20
 795              		.cfi_offset 8, -16
 796              		.cfi_offset 9, -12
 797              		.cfi_offset 10, -8
 798              		.cfi_offset 14, -4
 799 0004 0F46     		mov	r7, r1
 800 0006 84B0     		sub	sp, sp, #16
 801              		.cfi_def_cfa_offset 48
 802              		.loc 1 215 0
 803 0008 0328     		cmp	r0, #3
 804 000a 00F2B080 		bhi	.L95
 805 000e DFE800F0 		tbb	[pc, r0]
 806              	.L97:
 807 0012 9A       		.byte	(.L96-.L97)/2
 808 0013 98       		.byte	(.L98-.L97)/2
 809 0014 02       		.byte	(.L117-.L97)/2
 810 0015 9C       		.byte	(.L100-.L97)/2
 811              		.p2align 1
 812              	.L117:
 813              		.loc 1 226 0
 814 0016 1024     		movs	r4, #16
 815              	.L99:
 816              	.LVL99:
 817              		.loc 1 236 0
 818 0018 032A     		cmp	r2, #3
 819 001a 00F29880 		bhi	.L102
 820 001e DFE802F0 		tbb	[pc, r2]
 821              	.L104:
 822 0022 73       		.byte	(.L103-.L104)/2
 823 0023 63       		.byte	(.L105-.L104)/2
 824 0024 63       		.byte	(.L105-.L104)/2
 825 0025 02       		.byte	(.L106-.L104)/2
 826              		.p2align 1
 827              	.L106:
 828              		.loc 1 239 0
 829 0026 744B     		ldr	r3, .L131
 830 0028 B3F81880 		ldrh	r8, [r3, #24]
 831 002c 4046     		mov	r0, r8
 832              	.LVL100:
 833 002e FFF7FEFF 		bl	malloc
 834              	.LVL101:
 835              		.loc 1 241 0
 836 0032 0546     		mov	r5, r0
 837 0034 0028     		cmp	r0, #0
 838 0036 00F0C580 		beq	.L127
 839              		.loc 1 255 0
 840 003a C4F5BD66 		rsb	r6, r4, #1512
 841 003e 0436     		adds	r6, r6, #4
 842              		.loc 1 249 0
 843 0040 0444     		add	r4, r4, r0
 844              	.LVL102:
 845              		.loc 1 255 0
 846 0042 BE42     		cmp	r6, r7
 847              		.loc 1 249 0
 848 0044 04F11304 		add	r4, r4, #19
 849              		.loc 1 255 0
 850 0048 A8BF     		it	ge
ARM GAS  C:\Users\jo\AppData\Local\Temp\ccDLAO0k.s 			page 16


 851 004a 3E46     		movge	r6, r7
 852              		.loc 1 249 0
 853 004c 24F00304 		bic	r4, r4, #3
 854              		.loc 1 256 0
 855 0050 A319     		adds	r3, r4, r6
 856 0052 00F2FC59 		addw	r9, r0, #1532
 857              		.loc 1 255 0
 858 0056 B6B2     		uxth	r6, r6
 859              		.loc 1 245 0
 860 0058 0321     		movs	r1, #3
 861              		.loc 1 246 0
 862 005a 0022     		movs	r2, #0
 863              		.loc 1 256 0
 864 005c 9945     		cmp	r9, r3
 865              		.loc 1 253 0
 866 005e 0781     		strh	r7, [r0, #8]	@ movhi
 867              		.loc 1 249 0
 868 0060 4460     		str	r4, [r0, #4]
 869              		.loc 1 255 0
 870 0062 4681     		strh	r6, [r0, #10]	@ movhi
 871              		.loc 1 245 0
 872 0064 0173     		strb	r1, [r0, #12]
 873              		.loc 1 246 0
 874 0066 0260     		str	r2, [r0]
 875              		.loc 1 256 0
 876 0068 C0F0B880 		bcc	.L128
 877              	.LVL103:
 878              	.L109:
 879              		.loc 1 269 0
 880 006c BE1B     		subs	r6, r7, r6
 881              		.loc 1 262 0
 882 006e 0123     		movs	r3, #1
 883              		.loc 1 271 0
 884 0070 002E     		cmp	r6, #0
 885              		.loc 1 262 0
 886 0072 EB81     		strh	r3, [r5, #14]	@ movhi
 887              	.LVL104:
 888              		.loc 1 271 0
 889 0074 5DDD     		ble	.L110
 890              		.loc 1 286 0
 891 0076 DFF890A1 		ldr	r10, .L131+16
 892              		.loc 1 271 0
 893 007a 2F46     		mov	r7, r5
 894 007c 16E0     		b	.L115
 895              	.LVL105:
 896              	.L113:
 897              		.loc 1 293 0
 898 007e 6889     		ldrh	r0, [r5, #10]
 899 0080 6968     		ldr	r1, [r5, #4]
 900              		.loc 1 287 0
 901 0082 B2B2     		uxth	r2, r6
 902              		.loc 1 289 0
 903 0084 40F2EC53 		movw	r3, #1516
 904 0088 9342     		cmp	r3, r2
 905              		.loc 1 293 0
 906 008a 0144     		add	r1, r1, r0
 907              		.loc 1 289 0
ARM GAS  C:\Users\jo\AppData\Local\Temp\ccDLAO0k.s 			page 17


 908 008c 28BF     		it	cs
 909 008e 1346     		movcs	r3, r2
 910              		.loc 1 290 0
 911 0090 04F11000 		add	r0, r4, #16
 912              		.loc 1 293 0
 913 0094 8945     		cmp	r9, r1
 914              		.loc 1 287 0
 915 0096 2281     		strh	r2, [r4, #8]	@ movhi
 916              		.loc 1 289 0
 917 0098 6381     		strh	r3, [r4, #10]	@ movhi
 918              		.loc 1 290 0
 919 009a 6060     		str	r0, [r4, #4]
 920              		.loc 1 293 0
 921 009c C0F08480 		bcc	.L129
 922              	.L114:
 923              		.loc 1 298 0
 924 00a0 F61A     		subs	r6, r6, r3
 925              	.LVL106:
 926              		.loc 1 271 0
 927 00a2 002E     		cmp	r6, #0
 928              		.loc 1 296 0
 929 00a4 4FF00103 		mov	r3, #1
 930 00a8 E381     		strh	r3, [r4, #14]	@ movhi
 931              		.loc 1 271 0
 932 00aa 42DD     		ble	.L110
 933              	.LVL107:
 934              	.L115:
 935              		.loc 1 272 0
 936 00ac 4046     		mov	r0, r8
 937 00ae FFF7FEFF 		bl	malloc
 938              	.LVL108:
 939              		.loc 1 281 0
 940 00b2 0023     		movs	r3, #0
 941              		.loc 1 273 0
 942 00b4 0446     		mov	r4, r0
 943              		.loc 1 280 0
 944 00b6 0321     		movs	r1, #3
 945              		.loc 1 286 0
 946 00b8 4FF6FF72 		movw	r2, #65535
 947              		.loc 1 273 0
 948 00bc 0028     		cmp	r0, #0
 949 00be 65D0     		beq	.L130
 950              		.loc 1 286 0
 951 00c0 9642     		cmp	r6, r2
 952              		.loc 1 280 0
 953 00c2 0173     		strb	r1, [r0, #12]
 954              		.loc 1 281 0
 955 00c4 4373     		strb	r3, [r0, #13]
 956              		.loc 1 282 0
 957 00c6 0360     		str	r3, [r0]
 958              		.loc 1 284 0
 959 00c8 3860     		str	r0, [r7]
 960 00ca 0746     		mov	r7, r0
 961              	.LVL109:
 962              		.loc 1 286 0
 963 00cc D7D1     		bne	.L113
 964              		.loc 1 286 0 is_stmt 0 discriminator 1
ARM GAS  C:\Users\jo\AppData\Local\Temp\ccDLAO0k.s 			page 18


 965 00ce CDF800A0 		str	r10, [sp]
 966 00d2 4A49     		ldr	r1, .L131+4
 967 00d4 4A4A     		ldr	r2, .L131+8
 968 00d6 4B48     		ldr	r0, .L131+12
 969              	.LVL110:
 970 00d8 4FF48F73 		mov	r3, #286
 971 00dc FFF7FEFF 		bl	chprintf.constprop.1
 972              	.LVL111:
 973              	.LBB122:
 974              	.LBB123:
 975              		.loc 3 416 0 is_stmt 1 discriminator 1
 976 00e0 4748     		ldr	r0, .L131+8
 977 00e2 FFF7FEFF 		bl	chSysHalt
 978              	.LVL112:
 979 00e6 CAE7     		b	.L113
 980              	.LVL113:
 981              	.L105:
 982              	.LBE123:
 983              	.LBE122:
 984              		.loc 1 326 0
 985 00e8 434B     		ldr	r3, .L131
 986 00ea 0392     		str	r2, [sp, #12]
 987 00ec D88A     		ldrh	r0, [r3, #22]
 988              	.LVL114:
 989 00ee FFF7FEFF 		bl	malloc
 990              	.LVL115:
 991              		.loc 1 327 0
 992 00f2 0546     		mov	r5, r0
 993 00f4 0028     		cmp	r0, #0
 994 00f6 53D0     		beq	.L126
 995              		.loc 1 334 0
 996 00f8 0023     		movs	r3, #0
 997              		.loc 1 337 0
 998 00fa 039A     		ldr	r2, [sp, #12]
 999              		.loc 1 335 0
 1000 00fc 0781     		strh	r7, [r0, #8]	@ movhi
 1001 00fe 4781     		strh	r7, [r0, #10]	@ movhi
 1002              		.loc 1 337 0
 1003 0100 0273     		strb	r2, [r0, #12]
 1004              		.loc 1 334 0
 1005 0102 4360     		str	r3, [r0, #4]
 1006              		.loc 1 336 0
 1007 0104 0360     		str	r3, [r0]
 1008              		.loc 1 338 0
 1009 0106 14E0     		b	.L110
 1010              	.LVL116:
 1011              	.L103:
 1012              		.loc 1 308 0
 1013 0108 FB1C     		adds	r3, r7, #3
 1014 010a 23F00303 		bic	r3, r3, #3
 1015 010e 04F11000 		add	r0, r4, #16
 1016              	.LVL117:
 1017 0112 1844     		add	r0, r0, r3
 1018 0114 FFF7FEFF 		bl	malloc
 1019              	.LVL118:
 1020              		.loc 1 309 0
 1021 0118 0546     		mov	r5, r0
ARM GAS  C:\Users\jo\AppData\Local\Temp\ccDLAO0k.s 			page 19


 1022 011a 0028     		cmp	r0, #0
 1023 011c 40D0     		beq	.L126
 1024              		.loc 1 313 0
 1025 011e 0444     		add	r4, r4, r0
 1026              	.LVL119:
 1027 0120 1334     		adds	r4, r4, #19
 1028              		.loc 1 315 0
 1029 0122 0023     		movs	r3, #0
 1030              		.loc 1 313 0
 1031 0124 24F00304 		bic	r4, r4, #3
 1032 0128 4460     		str	r4, [r0, #4]
 1033              		.loc 1 314 0
 1034 012a 0781     		strh	r7, [r0, #8]	@ movhi
 1035 012c 4781     		strh	r7, [r0, #10]	@ movhi
 1036              		.loc 1 315 0
 1037 012e 0360     		str	r3, [r0]
 1038              		.loc 1 316 0
 1039 0130 0373     		strb	r3, [r0, #12]
 1040              	.LVL120:
 1041              	.L110:
 1042              		.loc 1 344 0
 1043 0132 0122     		movs	r2, #1
 1044              		.loc 1 346 0
 1045 0134 0023     		movs	r3, #0
 1046              		.loc 1 348 0
 1047 0136 2846     		mov	r0, r5
 1048              		.loc 1 344 0
 1049 0138 EA81     		strh	r2, [r5, #14]	@ movhi
 1050              		.loc 1 346 0
 1051 013a 6B73     		strb	r3, [r5, #13]
 1052              		.loc 1 349 0
 1053 013c 04B0     		add	sp, sp, #16
 1054              		.cfi_remember_state
 1055              		.cfi_def_cfa_offset 32
 1056              		@ sp needed
 1057 013e BDE8F087 		pop	{r4, r5, r6, r7, r8, r9, r10, pc}
 1058              	.LVL121:
 1059              	.L98:
 1060              		.cfi_restore_state
 1061              		.loc 1 222 0
 1062 0142 2424     		movs	r4, #36
 1063 0144 68E7     		b	.L99
 1064              	.L96:
 1065              		.loc 1 218 0
 1066 0146 3824     		movs	r4, #56
 1067 0148 66E7     		b	.L99
 1068              	.L100:
 1069              	.LVL122:
 1070              		.loc 1 229 0
 1071 014a 0024     		movs	r4, #0
 1072              		.loc 1 230 0
 1073 014c 64E7     		b	.L99
 1074              	.LVL123:
 1075              	.L102:
 1076              		.loc 1 340 0 discriminator 1
 1077 014e 2E4B     		ldr	r3, .L131+16
 1078 0150 0093     		str	r3, [sp]
ARM GAS  C:\Users\jo\AppData\Local\Temp\ccDLAO0k.s 			page 20


 1079 0152 2A49     		ldr	r1, .L131+4
 1080              	.LVL124:
 1081 0154 2D4A     		ldr	r2, .L131+20
 1082              	.LVL125:
 1083 0156 2B48     		ldr	r0, .L131+12
 1084              	.LVL126:
 1085 0158 4FF4AA73 		mov	r3, #340
 1086 015c FFF7FEFF 		bl	chprintf.constprop.1
 1087              	.LVL127:
 1088              	.LBB124:
 1089              	.LBB125:
 1090              		.loc 3 416 0 discriminator 1
 1091 0160 2A48     		ldr	r0, .L131+20
 1092 0162 FFF7FEFF 		bl	chSysHalt
 1093              	.LVL128:
 1094              	.LBE125:
 1095              	.LBE124:
 1096              		.loc 1 341 0 discriminator 1
 1097 0166 0020     		movs	r0, #0
 1098              	.LVL129:
 1099              	.L101:
 1100              		.loc 1 349 0
 1101 0168 04B0     		add	sp, sp, #16
 1102              		.cfi_remember_state
 1103              		.cfi_def_cfa_offset 32
 1104              		@ sp needed
 1105 016a BDE8F087 		pop	{r4, r5, r6, r7, r8, r9, r10, pc}
 1106              	.LVL130:
 1107              	.L95:
 1108              		.loc 1 232 0 discriminator 1
 1109 016e 264B     		ldr	r3, .L131+16
 1110 0170 0093     		str	r3, [sp]
 1111 0172 2249     		ldr	r1, .L131+4
 1112              	.LVL131:
 1113 0174 264A     		ldr	r2, .L131+24
 1114              	.LVL132:
 1115 0176 2348     		ldr	r0, .L131+12
 1116              	.LVL133:
 1117 0178 E823     		movs	r3, #232
 1118 017a FFF7FEFF 		bl	chprintf.constprop.1
 1119              	.LVL134:
 1120              	.LBB126:
 1121              	.LBB127:
 1122              		.loc 3 416 0 discriminator 1
 1123 017e 2448     		ldr	r0, .L131+24
 1124 0180 FFF7FEFF 		bl	chSysHalt
 1125              	.LVL135:
 1126              	.LBE127:
 1127              	.LBE126:
 1128              		.loc 1 233 0 discriminator 1
 1129 0184 0020     		movs	r0, #0
 1130              		.loc 1 349 0 discriminator 1
 1131 0186 04B0     		add	sp, sp, #16
 1132              		@ sp needed
 1133 0188 BDE8F087 		pop	{r4, r5, r6, r7, r8, r9, r10, pc}
 1134              	.LVL136:
 1135              	.L130:
ARM GAS  C:\Users\jo\AppData\Local\Temp\ccDLAO0k.s 			page 21


 1136              		.cfi_restore_state
 1137              	.LBB128:
 1138              	.LBB129:
 1139              		.loc 1 163 0
 1140 018c 214B     		ldr	r3, .L131+28
 1141 018e 1A78     		ldrb	r2, [r3]	@ zero_extendqisi2
 1142              	.LVL137:
 1143              		.loc 1 164 0
 1144 0190 0121     		movs	r1, #1
 1145 0192 1970     		strb	r1, [r3]
 1146              		.loc 1 167 0
 1147 0194 0AB9     		cbnz	r2, .L112
 1148 0196 FFF7FEFF 		bl	pbuf_pool_is_empty.part.0
 1149              	.LVL138:
 1150              	.L112:
 1151              	.LBE129:
 1152              	.LBE128:
 1153              		.loc 1 276 0
 1154 019a 2846     		mov	r0, r5
 1155 019c FFF7FEFF 		bl	pbuf_free
 1156              	.LVL139:
 1157              	.L126:
 1158              		.loc 1 278 0
 1159 01a0 0020     		movs	r0, #0
 1160              		.loc 1 349 0
 1161 01a2 04B0     		add	sp, sp, #16
 1162              		.cfi_remember_state
 1163              		.cfi_def_cfa_offset 32
 1164              		@ sp needed
 1165 01a4 BDE8F087 		pop	{r4, r5, r6, r7, r8, r9, r10, pc}
 1166              	.LVL140:
 1167              	.L129:
 1168              		.cfi_restore_state
 1169              		.loc 1 293 0 discriminator 1
 1170 01a8 40F22713 		movw	r3, #295
 1171 01ac 1349     		ldr	r1, .L131+4
 1172 01ae 1A4A     		ldr	r2, .L131+32
 1173 01b0 CDF800A0 		str	r10, [sp]
 1174 01b4 1348     		ldr	r0, .L131+12
 1175 01b6 FFF7FEFF 		bl	chprintf.constprop.1
 1176              	.LVL141:
 1177              	.LBB130:
 1178              	.LBB131:
 1179              		.loc 3 416 0 discriminator 1
 1180 01ba 1748     		ldr	r0, .L131+32
 1181 01bc FFF7FEFF 		bl	chSysHalt
 1182              	.LVL142:
 1183 01c0 6389     		ldrh	r3, [r4, #10]
 1184 01c2 6DE7     		b	.L114
 1185              	.LVL143:
 1186              	.L127:
 1187              	.LBE131:
 1188              	.LBE130:
 1189              	.LBB132:
 1190              	.LBB133:
 1191              		.loc 1 163 0
 1192 01c4 134A     		ldr	r2, .L131+28
ARM GAS  C:\Users\jo\AppData\Local\Temp\ccDLAO0k.s 			page 22


 1193 01c6 1378     		ldrb	r3, [r2]	@ zero_extendqisi2
 1194              	.LVL144:
 1195              		.loc 1 164 0
 1196 01c8 0121     		movs	r1, #1
 1197 01ca 1170     		strb	r1, [r2]
 1198              		.loc 1 167 0
 1199 01cc 03F0FF05 		and	r5, r3, #255
 1200 01d0 002B     		cmp	r3, #0
 1201 01d2 E5D1     		bne	.L126
 1202 01d4 FFF7FEFF 		bl	pbuf_pool_is_empty.part.0
 1203              	.LVL145:
 1204              	.LBE133:
 1205              	.LBE132:
 1206              		.loc 1 243 0
 1207 01d8 2846     		mov	r0, r5
 1208 01da C5E7     		b	.L101
 1209              	.LVL146:
 1210              	.L128:
 1211              		.loc 1 256 0 discriminator 1
 1212 01dc 0A4B     		ldr	r3, .L131+16
 1213 01de 0093     		str	r3, [sp]
 1214 01e0 0649     		ldr	r1, .L131+4
 1215 01e2 0D4A     		ldr	r2, .L131+32
 1216 01e4 0748     		ldr	r0, .L131+12
 1217              	.LVL147:
 1218 01e6 4FF48173 		mov	r3, #258
 1219 01ea FFF7FEFF 		bl	chprintf.constprop.1
 1220              	.LVL148:
 1221              	.LBB134:
 1222              	.LBB135:
 1223              		.loc 3 416 0 discriminator 1
 1224 01ee 0A48     		ldr	r0, .L131+32
 1225 01f0 FFF7FEFF 		bl	chSysHalt
 1226              	.LVL149:
 1227 01f4 6E89     		ldrh	r6, [r5, #10]
 1228 01f6 39E7     		b	.L109
 1229              	.L132:
 1230              		.align	2
 1231              	.L131:
 1232 01f8 00000000 		.word	memp_sizes
 1233 01fc 00000000 		.word	.LC0
 1234 0200 50010000 		.word	.LC11
 1235 0204 00000000 		.word	itm_port
 1236 0208 4C000000 		.word	.LC2
 1237 020c 64010000 		.word	.LC12
 1238 0210 00010000 		.word	.LC9
 1239 0214 00000000 		.word	.LANCHOR0
 1240 0218 1C010000 		.word	.LC10
 1241              	.LBE135:
 1242              	.LBE134:
 1243              		.cfi_endproc
 1244              	.LFE263:
 1245              		.size	pbuf_alloc, .-pbuf_alloc
 1246 021c AFF30080 		.section	.text.pbuf_realloc,"ax",%progbits
 1247              		.align	2
 1248              		.p2align 4,,15
 1249              		.global	pbuf_realloc
ARM GAS  C:\Users\jo\AppData\Local\Temp\ccDLAO0k.s 			page 23


 1250              		.thumb
 1251              		.thumb_func
 1252              		.type	pbuf_realloc, %function
 1253              	pbuf_realloc:
 1254              	.LFB265:
 1255              		.loc 1 431 0
 1256              		.cfi_startproc
 1257              		@ args = 0, pretend = 0, frame = 0
 1258              		@ frame_needed = 0, uses_anonymous_args = 0
 1259              	.LVL150:
 1260 0000 F0B5     		push	{r4, r5, r6, r7, lr}
 1261              		.cfi_def_cfa_offset 20
 1262              		.cfi_offset 4, -20
 1263              		.cfi_offset 5, -16
 1264              		.cfi_offset 6, -12
 1265              		.cfi_offset 7, -8
 1266              		.cfi_offset 14, -4
 1267 0002 0D46     		mov	r5, r1
 1268 0004 83B0     		sub	sp, sp, #12
 1269              		.cfi_def_cfa_offset 32
 1270              		.loc 1 436 0
 1271 0006 0446     		mov	r4, r0
 1272 0008 0028     		cmp	r0, #0
 1273 000a 50D0     		beq	.L146
 1274              	.LVL151:
 1275              	.L134:
 1276              		.loc 1 437 0
 1277 000c 237B     		ldrb	r3, [r4, #12]	@ zero_extendqisi2
 1278 000e 032B     		cmp	r3, #3
 1279 0010 0BD9     		bls	.L135
 1280              		.loc 1 437 0 is_stmt 0 discriminator 4
 1281 0012 2D4B     		ldr	r3, .L149
 1282 0014 0093     		str	r3, [sp]
 1283 0016 2D48     		ldr	r0, .L149+4
 1284 0018 2D49     		ldr	r1, .L149+8
 1285 001a 2E4A     		ldr	r2, .L149+12
 1286 001c 4FF4DC73 		mov	r3, #440
 1287 0020 FFF7FEFF 		bl	chprintf.constprop.1
 1288              	.LVL152:
 1289              	.LBB136:
 1290              	.LBB137:
 1291              		.loc 3 416 0 is_stmt 1 discriminator 4
 1292 0024 2B48     		ldr	r0, .L149+12
 1293 0026 FFF7FEFF 		bl	chSysHalt
 1294              	.LVL153:
 1295              	.L135:
 1296              	.LBE137:
 1297              	.LBE136:
 1298              		.loc 1 443 0
 1299 002a 2689     		ldrh	r6, [r4, #8]
 1300 002c AE42     		cmp	r6, r5
 1301 002e 3CD9     		bls	.L133
 1302              		.loc 1 450 0
 1303 0030 AE1B     		subs	r6, r5, r6
 1304              	.LVL154:
 1305              		.loc 1 460 0
 1306 0032 254F     		ldr	r7, .L149
ARM GAS  C:\Users\jo\AppData\Local\Temp\ccDLAO0k.s 			page 24


 1307              		.loc 1 456 0
 1308 0034 04E0     		b	.L137
 1309              	.LVL155:
 1310              	.L138:
 1311              		.loc 1 461 0
 1312 0036 2389     		ldrh	r3, [r4, #8]
 1313 0038 3344     		add	r3, r3, r6
 1314 003a 2381     		strh	r3, [r4, #8]	@ movhi
 1315              		.loc 1 463 0
 1316 003c 2468     		ldr	r4, [r4]
 1317              	.LVL156:
 1318              		.loc 1 464 0
 1319 003e D4B1     		cbz	r4, .L147
 1320              	.L137:
 1321              		.loc 1 456 0
 1322 0040 6389     		ldrh	r3, [r4, #10]
 1323 0042 9D42     		cmp	r5, r3
 1324              		.loc 1 460 0
 1325 0044 4FF6FE71 		movw	r1, #65534
 1326              		.loc 1 458 0
 1327 0048 A5EB0302 		sub	r2, r5, r3
 1328              		.loc 1 456 0
 1329 004c 25D9     		bls	.L148
 1330              	.L140:
 1331              		.loc 1 460 0
 1332 004e 8E42     		cmp	r6, r1
 1333              		.loc 1 458 0
 1334 0050 95B2     		uxth	r5, r2
 1335              	.LVL157:
 1336              		.loc 1 460 0
 1337 0052 F0DD     		ble	.L138
 1338              		.loc 1 460 0 is_stmt 0 discriminator 1
 1339 0054 4FF4E673 		mov	r3, #460
 1340 0058 1D49     		ldr	r1, .L149+8
 1341 005a 1F4A     		ldr	r2, .L149+16
 1342 005c 0097     		str	r7, [sp]
 1343 005e 1B48     		ldr	r0, .L149+4
 1344 0060 FFF7FEFF 		bl	chprintf.constprop.1
 1345              	.LVL158:
 1346              	.LBB138:
 1347              	.LBB139:
 1348              		.loc 3 416 0 is_stmt 1 discriminator 1
 1349 0064 1C48     		ldr	r0, .L149+16
 1350 0066 FFF7FEFF 		bl	chSysHalt
 1351              	.LVL159:
 1352              	.LBE139:
 1353              	.LBE138:
 1354              		.loc 1 461 0 discriminator 1
 1355 006a 2389     		ldrh	r3, [r4, #8]
 1356 006c 3344     		add	r3, r3, r6
 1357 006e 2381     		strh	r3, [r4, #8]	@ movhi
 1358              		.loc 1 463 0 discriminator 1
 1359 0070 2468     		ldr	r4, [r4]
 1360              	.LVL160:
 1361              		.loc 1 464 0 discriminator 1
 1362 0072 002C     		cmp	r4, #0
 1363 0074 E4D1     		bne	.L137
ARM GAS  C:\Users\jo\AppData\Local\Temp\ccDLAO0k.s 			page 25


 1364              	.LVL161:
 1365              	.L147:
 1366 0076 1649     		ldr	r1, .L149+8
 1367 0078 184A     		ldr	r2, .L149+20
 1368 007a 0097     		str	r7, [sp]
 1369 007c 4FF4E873 		mov	r3, #464
 1370 0080 1248     		ldr	r0, .L149+4
 1371 0082 FFF7FEFF 		bl	chprintf.constprop.1
 1372              	.LVL162:
 1373              	.LBB140:
 1374              	.LBB141:
 1375              		.loc 3 416 0 discriminator 1
 1376 0086 1548     		ldr	r0, .L149+20
 1377 0088 FFF7FEFF 		bl	chSysHalt
 1378              	.LVL163:
 1379              	.LBE141:
 1380              	.LBE140:
 1381              		.loc 1 456 0 discriminator 1
 1382 008c 6389     		ldrh	r3, [r4, #10]
 1383 008e 9D42     		cmp	r5, r3
 1384              		.loc 1 460 0 discriminator 1
 1385 0090 4FF6FE71 		movw	r1, #65534
 1386              		.loc 1 458 0 discriminator 1
 1387 0094 A5EB0302 		sub	r2, r5, r3
 1388              		.loc 1 456 0 discriminator 1
 1389 0098 D9D8     		bhi	.L140
 1390              	.LVL164:
 1391              	.L148:
 1392              		.loc 1 481 0
 1393 009a 2068     		ldr	r0, [r4]
 1394              		.loc 1 477 0
 1395 009c 6581     		strh	r5, [r4, #10]	@ movhi
 1396              		.loc 1 478 0
 1397 009e 2581     		strh	r5, [r4, #8]	@ movhi
 1398              		.loc 1 481 0
 1399 00a0 08B1     		cbz	r0, .L141
 1400              		.loc 1 483 0
 1401 00a2 FFF7FEFF 		bl	pbuf_free
 1402              	.LVL165:
 1403              	.L141:
 1404              		.loc 1 486 0
 1405 00a6 0023     		movs	r3, #0
 1406 00a8 2360     		str	r3, [r4]
 1407              	.LVL166:
 1408              	.L133:
 1409              		.loc 1 488 0
 1410 00aa 03B0     		add	sp, sp, #12
 1411              		.cfi_remember_state
 1412              		.cfi_def_cfa_offset 20
 1413              		@ sp needed
 1414 00ac F0BD     		pop	{r4, r5, r6, r7, pc}
 1415              	.LVL167:
 1416              	.L146:
 1417              		.cfi_restore_state
 1418              		.loc 1 436 0 discriminator 1
 1419 00ae 064B     		ldr	r3, .L149
 1420 00b0 0093     		str	r3, [sp]
ARM GAS  C:\Users\jo\AppData\Local\Temp\ccDLAO0k.s 			page 26


 1421 00b2 0749     		ldr	r1, .L149+8
 1422              	.LVL168:
 1423 00b4 0A4A     		ldr	r2, .L149+24
 1424 00b6 0548     		ldr	r0, .L149+4
 1425              	.LVL169:
 1426 00b8 4FF4DA73 		mov	r3, #436
 1427 00bc FFF7FEFF 		bl	chprintf.constprop.1
 1428              	.LVL170:
 1429              	.LBB142:
 1430              	.LBB143:
 1431              		.loc 3 416 0 discriminator 1
 1432 00c0 0748     		ldr	r0, .L149+24
 1433 00c2 FFF7FEFF 		bl	chSysHalt
 1434              	.LVL171:
 1435 00c6 A1E7     		b	.L134
 1436              	.L150:
 1437              		.align	2
 1438              	.L149:
 1439 00c8 4C000000 		.word	.LC2
 1440 00cc 00000000 		.word	itm_port
 1441 00d0 00000000 		.word	.LC0
 1442 00d4 98010000 		.word	.LC14
 1443 00d8 B4010000 		.word	.LC15
 1444 00dc C8010000 		.word	.LC16
 1445 00e0 80010000 		.word	.LC13
 1446              	.LBE143:
 1447              	.LBE142:
 1448              		.cfi_endproc
 1449              	.LFE265:
 1450              		.size	pbuf_realloc, .-pbuf_realloc
 1451 00e4 AFF30080 		.section	.text.pbuf_clen,"ax",%progbits
 1451      AFF30080 
 1451      AFF30080 
 1452              		.align	2
 1453              		.p2align 4,,15
 1454              		.global	pbuf_clen
 1455              		.thumb
 1456              		.thumb_func
 1457              		.type	pbuf_clen, %function
 1458              	pbuf_clen:
 1459              	.LFB268:
 1460              		.loc 1 705 0
 1461              		.cfi_startproc
 1462              		@ args = 0, pretend = 0, frame = 0
 1463              		@ frame_needed = 0, uses_anonymous_args = 0
 1464              		@ link register save eliminated.
 1465              	.LVL172:
 1466              		.loc 1 709 0
 1467 0000 0346     		mov	r3, r0
 1468 0002 30B1     		cbz	r0, .L154
 1469 0004 0020     		movs	r0, #0
 1470              	.LVL173:
 1471              	.L153:
 1472              		.loc 1 711 0
 1473 0006 1B68     		ldr	r3, [r3]
 1474              	.LVL174:
 1475              		.loc 1 710 0
ARM GAS  C:\Users\jo\AppData\Local\Temp\ccDLAO0k.s 			page 27


 1476 0008 0130     		adds	r0, r0, #1
 1477              	.LVL175:
 1478 000a C0B2     		uxtb	r0, r0
 1479              	.LVL176:
 1480              		.loc 1 709 0
 1481 000c 002B     		cmp	r3, #0
 1482 000e FAD1     		bne	.L153
 1483 0010 7047     		bx	lr
 1484              	.LVL177:
 1485              	.L154:
 1486              		.loc 1 714 0
 1487 0012 7047     		bx	lr
 1488              		.cfi_endproc
 1489              	.LFE268:
 1490              		.size	pbuf_clen, .-pbuf_clen
 1491 0014 AFF30080 		.section	.text.pbuf_ref,"ax",%progbits
 1491      AFF30080 
 1491      AFF30080 
 1492              		.align	2
 1493              		.p2align 4,,15
 1494              		.global	pbuf_ref
 1495              		.thumb
 1496              		.thumb_func
 1497              		.type	pbuf_ref, %function
 1498              	pbuf_ref:
 1499              	.LFB269:
 1500              		.loc 1 724 0
 1501              		.cfi_startproc
 1502              		@ args = 0, pretend = 0, frame = 0
 1503              		@ frame_needed = 0, uses_anonymous_args = 0
 1504              		@ link register save eliminated.
 1505              	.LVL178:
 1506              		.loc 1 727 0
 1507 0000 10B1     		cbz	r0, .L156
 1508              		.loc 1 729 0
 1509 0002 C389     		ldrh	r3, [r0, #14]
 1510 0004 0133     		adds	r3, r3, #1
 1511 0006 C381     		strh	r3, [r0, #14]	@ movhi
 1512              	.L156:
 1513 0008 7047     		bx	lr
 1514              		.cfi_endproc
 1515              	.LFE269:
 1516              		.size	pbuf_ref, .-pbuf_ref
 1517 000a 00BFAFF3 		.section	.text.pbuf_cat,"ax",%progbits
 1517      0080
 1518              		.align	2
 1519              		.p2align 4,,15
 1520              		.global	pbuf_cat
 1521              		.thumb
 1522              		.thumb_func
 1523              		.type	pbuf_cat, %function
 1524              	pbuf_cat:
 1525              	.LFB270:
 1526              		.loc 1 746 0
 1527              		.cfi_startproc
 1528              		@ args = 0, pretend = 0, frame = 0
 1529              		@ frame_needed = 0, uses_anonymous_args = 0
ARM GAS  C:\Users\jo\AppData\Local\Temp\ccDLAO0k.s 			page 28


 1530              	.LVL179:
 1531 0000 70B5     		push	{r4, r5, r6, lr}
 1532              		.cfi_def_cfa_offset 16
 1533              		.cfi_offset 4, -16
 1534              		.cfi_offset 5, -12
 1535              		.cfi_offset 6, -8
 1536              		.cfi_offset 14, -4
 1537 0002 82B0     		sub	sp, sp, #8
 1538              		.cfi_def_cfa_offset 24
 1539              		.loc 1 749 0
 1540 0004 0028     		cmp	r0, #0
 1541 0006 32D0     		beq	.L162
 1542 0008 0D46     		mov	r5, r1
 1543              		.loc 1 749 0 is_stmt 0 discriminator 2
 1544 000a 0029     		cmp	r1, #0
 1545 000c 2FD0     		beq	.L162
 1546              	.LVL180:
 1547              		.loc 1 753 0 is_stmt 1 discriminator 1
 1548 000e 0468     		ldr	r4, [r0]
 1549 0010 0CB9     		cbnz	r4, .L165
 1550 0012 3BE0     		b	.L179
 1551              	.LVL181:
 1552              	.L169:
 1553 0014 1446     		mov	r4, r2
 1554              	.L165:
 1555              		.loc 1 755 0 discriminator 3
 1556 0016 0389     		ldrh	r3, [r0, #8]
 1557 0018 2989     		ldrh	r1, [r5, #8]
 1558              		.loc 1 753 0 discriminator 3
 1559 001a 2268     		ldr	r2, [r4]
 1560              		.loc 1 755 0 discriminator 3
 1561 001c 0B44     		add	r3, r3, r1
 1562 001e 0381     		strh	r3, [r0, #8]	@ movhi
 1563              	.LVL182:
 1564 0020 2046     		mov	r0, r4
 1565              		.loc 1 753 0 discriminator 3
 1566 0022 002A     		cmp	r2, #0
 1567 0024 F6D1     		bne	.L169
 1568              	.LVL183:
 1569              	.L164:
 1570              		.loc 1 758 0
 1571 0026 6289     		ldrh	r2, [r4, #10]
 1572 0028 2389     		ldrh	r3, [r4, #8]
 1573 002a 9342     		cmp	r3, r2
 1574 002c 19D0     		beq	.L167
 1575              		.loc 1 758 0 is_stmt 0 discriminator 1
 1576 002e 184E     		ldr	r6, .L180
 1577 0030 1849     		ldr	r1, .L180+4
 1578 0032 194A     		ldr	r2, .L180+8
 1579 0034 0096     		str	r6, [sp]
 1580 0036 40F2F623 		movw	r3, #758
 1581 003a 1848     		ldr	r0, .L180+12
 1582              	.LVL184:
 1583 003c FFF7FEFF 		bl	chprintf.constprop.1
 1584              	.LVL185:
 1585              	.LBB144:
 1586              	.LBB145:
ARM GAS  C:\Users\jo\AppData\Local\Temp\ccDLAO0k.s 			page 29


 1587              		.loc 3 416 0 is_stmt 1 discriminator 1
 1588 0040 1548     		ldr	r0, .L180+8
 1589 0042 FFF7FEFF 		bl	chSysHalt
 1590              	.LVL186:
 1591              	.LBE145:
 1592              	.LBE144:
 1593              		.loc 1 759 0 discriminator 1
 1594 0046 2368     		ldr	r3, [r4]
 1595 0048 53B1     		cbz	r3, .L178
 1596 004a 0096     		str	r6, [sp]
 1597 004c 1348     		ldr	r0, .L180+12
 1598 004e 1149     		ldr	r1, .L180+4
 1599 0050 134A     		ldr	r2, .L180+16
 1600 0052 40F2F723 		movw	r3, #759
 1601 0056 FFF7FEFF 		bl	chprintf.constprop.1
 1602              	.LVL187:
 1603              	.LBB146:
 1604              	.LBB147:
 1605              		.loc 3 416 0 discriminator 1
 1606 005a 1148     		ldr	r0, .L180+16
 1607 005c FFF7FEFF 		bl	chSysHalt
 1608              	.LVL188:
 1609              	.L178:
 1610 0060 2289     		ldrh	r2, [r4, #8]
 1611              	.LVL189:
 1612              	.L167:
 1613              	.LBE147:
 1614              	.LBE146:
 1615              		.loc 1 761 0
 1616 0062 2B89     		ldrh	r3, [r5, #8]
 1617              		.loc 1 763 0
 1618 0064 2560     		str	r5, [r4]
 1619              		.loc 1 761 0
 1620 0066 1344     		add	r3, r3, r2
 1621 0068 2381     		strh	r3, [r4, #8]	@ movhi
 1622              		.loc 1 767 0
 1623 006a 02B0     		add	sp, sp, #8
 1624              		.cfi_remember_state
 1625              		.cfi_def_cfa_offset 16
 1626              		@ sp needed
 1627 006c 70BD     		pop	{r4, r5, r6, pc}
 1628              	.LVL190:
 1629              	.L162:
 1630              		.cfi_restore_state
 1631              		.loc 1 749 0 discriminator 3
 1632 006e 084B     		ldr	r3, .L180
 1633 0070 0093     		str	r3, [sp]
 1634 0072 0849     		ldr	r1, .L180+4
 1635              	.LVL191:
 1636 0074 0B4A     		ldr	r2, .L180+20
 1637 0076 0948     		ldr	r0, .L180+12
 1638              	.LVL192:
 1639 0078 40F2EE23 		movw	r3, #750
 1640 007c FFF7FEFF 		bl	chprintf.constprop.1
 1641              	.LVL193:
 1642              	.LBB148:
 1643              	.LBB149:
ARM GAS  C:\Users\jo\AppData\Local\Temp\ccDLAO0k.s 			page 30


 1644              		.loc 3 416 0 discriminator 3
 1645 0080 0848     		ldr	r0, .L180+20
 1646              	.LBE149:
 1647              	.LBE148:
 1648              		.loc 1 767 0 discriminator 3
 1649 0082 02B0     		add	sp, sp, #8
 1650              		.cfi_remember_state
 1651              		.cfi_def_cfa_offset 16
 1652              		@ sp needed
 1653 0084 BDE87040 		pop	{r4, r5, r6, lr}
 1654              		.cfi_restore 14
 1655              		.cfi_restore 6
 1656              		.cfi_restore 5
 1657              		.cfi_restore 4
 1658              		.cfi_def_cfa_offset 0
 1659              	.LBB151:
 1660              	.LBB150:
 1661              		.loc 3 416 0 discriminator 3
 1662 0088 FFF7FEBF 		b	chSysHalt
 1663              	.LVL194:
 1664              	.L179:
 1665              		.cfi_restore_state
 1666              	.LBE150:
 1667              	.LBE151:
 1668              		.loc 1 753 0
 1669 008c 0446     		mov	r4, r0
 1670 008e CAE7     		b	.L164
 1671              	.L181:
 1672              		.align	2
 1673              	.L180:
 1674 0090 4C000000 		.word	.LC2
 1675 0094 00000000 		.word	.LC0
 1676 0098 18020000 		.word	.LC18
 1677 009c 00000000 		.word	itm_port
 1678 00a0 48020000 		.word	.LC19
 1679 00a4 E0010000 		.word	.LC17
 1680              		.cfi_endproc
 1681              	.LFE270:
 1682              		.size	pbuf_cat, .-pbuf_cat
 1683 00a8 AFF30080 		.section	.text.pbuf_chain,"ax",%progbits
 1683      AFF30080 
 1684              		.align	2
 1685              		.p2align 4,,15
 1686              		.global	pbuf_chain
 1687              		.thumb
 1688              		.thumb_func
 1689              		.type	pbuf_chain, %function
 1690              	pbuf_chain:
 1691              	.LFB271:
 1692              		.loc 1 787 0
 1693              		.cfi_startproc
 1694              		@ args = 0, pretend = 0, frame = 0
 1695              		@ frame_needed = 0, uses_anonymous_args = 0
 1696              	.LVL195:
 1697 0000 10B5     		push	{r4, lr}
 1698              		.cfi_def_cfa_offset 8
 1699              		.cfi_offset 4, -8
ARM GAS  C:\Users\jo\AppData\Local\Temp\ccDLAO0k.s 			page 31


 1700              		.cfi_offset 14, -4
 1701              		.loc 1 787 0
 1702 0002 0C46     		mov	r4, r1
 1703              		.loc 1 788 0
 1704 0004 FFF7FEFF 		bl	pbuf_cat
 1705              	.LVL196:
 1706              	.LBB152:
 1707              	.LBB153:
 1708              		.loc 1 727 0
 1709 0008 14B1     		cbz	r4, .L182
 1710              		.loc 1 729 0
 1711 000a E389     		ldrh	r3, [r4, #14]
 1712 000c 0133     		adds	r3, r3, #1
 1713 000e E381     		strh	r3, [r4, #14]	@ movhi
 1714              	.L182:
 1715 0010 10BD     		pop	{r4, pc}
 1716              	.LBE153:
 1717              	.LBE152:
 1718              		.cfi_endproc
 1719              	.LFE271:
 1720              		.size	pbuf_chain, .-pbuf_chain
 1721 0012 00BFAFF3 		.section	.text.pbuf_dechain,"ax",%progbits
 1721      0080AFF3 
 1721      0080AFF3 
 1721      0080
 1722              		.align	2
 1723              		.p2align 4,,15
 1724              		.global	pbuf_dechain
 1725              		.thumb
 1726              		.thumb_func
 1727              		.type	pbuf_dechain, %function
 1728              	pbuf_dechain:
 1729              	.LFB272:
 1730              		.loc 1 804 0
 1731              		.cfi_startproc
 1732              		@ args = 0, pretend = 0, frame = 0
 1733              		@ frame_needed = 0, uses_anonymous_args = 0
 1734              	.LVL197:
 1735 0000 70B5     		push	{r4, r5, r6, lr}
 1736              		.cfi_def_cfa_offset 16
 1737              		.cfi_offset 4, -16
 1738              		.cfi_offset 5, -12
 1739              		.cfi_offset 6, -8
 1740              		.cfi_offset 14, -4
 1741              		.loc 1 808 0
 1742 0002 0568     		ldr	r5, [r0]
 1743              	.LVL198:
 1744              		.loc 1 804 0
 1745 0004 82B0     		sub	sp, sp, #8
 1746              		.cfi_def_cfa_offset 24
 1747              		.loc 1 804 0
 1748 0006 0446     		mov	r4, r0
 1749              		.loc 1 810 0
 1750 0008 002D     		cmp	r5, #0
 1751 000a 33D0     		beq	.L189
 1752              		.loc 1 812 0
 1753 000c 0389     		ldrh	r3, [r0, #8]
ARM GAS  C:\Users\jo\AppData\Local\Temp\ccDLAO0k.s 			page 32


 1754 000e 4289     		ldrh	r2, [r0, #10]
 1755 0010 2989     		ldrh	r1, [r5, #8]
 1756 0012 9B1A     		subs	r3, r3, r2
 1757 0014 9942     		cmp	r1, r3
 1758 0016 0ED0     		beq	.L190
 1759              		.loc 1 812 0 is_stmt 0 discriminator 1
 1760 0018 194B     		ldr	r3, .L199
 1761 001a 1A4A     		ldr	r2, .L199+4
 1762 001c 0093     		str	r3, [sp]
 1763 001e 1A49     		ldr	r1, .L199+8
 1764 0020 1A48     		ldr	r0, .L199+12
 1765              	.LVL199:
 1766 0022 4FF44B73 		mov	r3, #812
 1767 0026 FFF7FEFF 		bl	chprintf.constprop.1
 1768              	.LVL200:
 1769              	.LBB154:
 1770              	.LBB155:
 1771              		.loc 3 416 0 is_stmt 1 discriminator 1
 1772 002a 1648     		ldr	r0, .L199+4
 1773 002c FFF7FEFF 		bl	chSysHalt
 1774              	.LVL201:
 1775 0030 2389     		ldrh	r3, [r4, #8]
 1776 0032 6289     		ldrh	r2, [r4, #10]
 1777 0034 9B1A     		subs	r3, r3, r2
 1778              	.LVL202:
 1779              	.L190:
 1780              	.LBE155:
 1781              	.LBE154:
 1782              		.loc 1 816 0
 1783 0036 0021     		movs	r1, #0
 1784              		.loc 1 814 0
 1785 0038 2B81     		strh	r3, [r5, #8]	@ movhi
 1786              		.loc 1 821 0
 1787 003a 2846     		mov	r0, r5
 1788              		.loc 1 818 0
 1789 003c 2281     		strh	r2, [r4, #8]	@ movhi
 1790              		.loc 1 816 0
 1791 003e 2160     		str	r1, [r4]
 1792              		.loc 1 821 0
 1793 0040 FFF7FEFF 		bl	pbuf_free
 1794              	.LVL203:
 1795              		.loc 1 829 0
 1796 0044 2289     		ldrh	r2, [r4, #8]
 1797 0046 6389     		ldrh	r3, [r4, #10]
 1798 0048 9A42     		cmp	r2, r3
 1799              		.loc 1 821 0
 1800 004a 0646     		mov	r6, r0
 1801              	.LVL204:
 1802              		.loc 1 829 0
 1803 004c 0BD0     		beq	.L191
 1804              	.LVL205:
 1805              	.L193:
 1806              		.loc 1 829 0 is_stmt 0 discriminator 1
 1807 004e 0C4B     		ldr	r3, .L199
 1808 0050 0093     		str	r3, [sp]
 1809 0052 0E48     		ldr	r0, .L199+12
 1810 0054 0C49     		ldr	r1, .L199+8
ARM GAS  C:\Users\jo\AppData\Local\Temp\ccDLAO0k.s 			page 33


 1811 0056 0E4A     		ldr	r2, .L199+16
 1812 0058 40F23D33 		movw	r3, #829
 1813 005c FFF7FEFF 		bl	chprintf.constprop.1
 1814              	.LVL206:
 1815              	.LBB156:
 1816              	.LBB157:
 1817              		.loc 3 416 0 is_stmt 1 discriminator 1
 1818 0060 0B48     		ldr	r0, .L199+16
 1819 0062 FFF7FEFF 		bl	chSysHalt
 1820              	.LVL207:
 1821              	.L191:
 1822              	.LBE157:
 1823              	.LBE156:
 1824              		.loc 1 808 0
 1825 0066 2846     		mov	r0, r5
 1826              		.loc 1 830 0
 1827 0068 0EB9     		cbnz	r6, .L194
 1828              	.LVL208:
 1829              		.loc 1 831 0
 1830 006a 02B0     		add	sp, sp, #8
 1831              		.cfi_remember_state
 1832              		.cfi_def_cfa_offset 16
 1833              		@ sp needed
 1834 006c 70BD     		pop	{r4, r5, r6, pc}
 1835              	.LVL209:
 1836              	.L194:
 1837              		.cfi_restore_state
 1838              		.loc 1 830 0
 1839 006e 0020     		movs	r0, #0
 1840              		.loc 1 831 0
 1841 0070 02B0     		add	sp, sp, #8
 1842              		.cfi_remember_state
 1843              		.cfi_def_cfa_offset 16
 1844              		@ sp needed
 1845 0072 70BD     		pop	{r4, r5, r6, pc}
 1846              	.LVL210:
 1847              	.L189:
 1848              		.cfi_restore_state
 1849              		.loc 1 829 0
 1850 0074 0289     		ldrh	r2, [r0, #8]
 1851 0076 4389     		ldrh	r3, [r0, #10]
 1852 0078 9A42     		cmp	r2, r3
 1853 007a F8D0     		beq	.L194
 1854              		.loc 1 806 0
 1855 007c 0126     		movs	r6, #1
 1856 007e E6E7     		b	.L193
 1857              	.L200:
 1858              		.align	2
 1859              	.L199:
 1860 0080 4C000000 		.word	.LC2
 1861 0084 58020000 		.word	.LC20
 1862 0088 00000000 		.word	.LC0
 1863 008c 00000000 		.word	itm_port
 1864 0090 7C020000 		.word	.LC21
 1865              		.cfi_endproc
 1866              	.LFE272:
 1867              		.size	pbuf_dechain, .-pbuf_dechain
ARM GAS  C:\Users\jo\AppData\Local\Temp\ccDLAO0k.s 			page 34


 1868 0094 AFF30080 		.section	.text.pbuf_copy,"ax",%progbits
 1868      AFF30080 
 1868      AFF30080 
 1869              		.align	2
 1870              		.p2align 4,,15
 1871              		.global	pbuf_copy
 1872              		.thumb
 1873              		.thumb_func
 1874              		.type	pbuf_copy, %function
 1875              	pbuf_copy:
 1876              	.LFB273:
 1877              		.loc 1 853 0
 1878              		.cfi_startproc
 1879              		@ args = 0, pretend = 0, frame = 0
 1880              		@ frame_needed = 0, uses_anonymous_args = 0
 1881              	.LVL211:
 1882 0000 2DE9F043 		push	{r4, r5, r6, r7, r8, r9, lr}
 1883              		.cfi_def_cfa_offset 28
 1884              		.cfi_offset 4, -28
 1885              		.cfi_offset 5, -24
 1886              		.cfi_offset 6, -20
 1887              		.cfi_offset 7, -16
 1888              		.cfi_offset 8, -12
 1889              		.cfi_offset 9, -8
 1890              		.cfi_offset 14, -4
 1891              		.loc 1 860 0
 1892 0004 8046     		mov	r8, r0
 1893              		.loc 1 853 0
 1894 0006 83B0     		sub	sp, sp, #12
 1895              		.cfi_def_cfa_offset 40
 1896              		.loc 1 860 0
 1897 0008 0028     		cmp	r0, #0
 1898 000a 00F0A580 		beq	.L202
 1899 000e 0D46     		mov	r5, r1
 1900              		.loc 1 860 0 is_stmt 0 discriminator 2
 1901 0010 0029     		cmp	r1, #0
 1902 0012 00F0A180 		beq	.L202
 1903              		.loc 1 860 0 discriminator 4
 1904 0016 0289     		ldrh	r2, [r0, #8]
 1905 0018 0B89     		ldrh	r3, [r1, #8]
 1906 001a 9A42     		cmp	r2, r3
 1907 001c C0F09C80 		bcc	.L202
 1908              		.loc 1 860 0
 1909 0020 4FF00009 		mov	r9, #0
 1910 0024 4389     		ldrh	r3, [r0, #10]
 1911 0026 4A89     		ldrh	r2, [r1, #10]
 1912              		.loc 1 877 0 is_stmt 1
 1913 0028 524F     		ldr	r7, .L242
 1914              		.loc 1 860 0
 1915 002a 4E46     		mov	r6, r9
 1916              	.LVL212:
 1917              	.L205:
 1918              		.loc 1 867 0
 1919 002c C9EB0204 		rsb	r4, r9, r2
 1920 0030 9B1B     		subs	r3, r3, r6
 1921 0032 A342     		cmp	r3, r4
 1922              		.loc 1 874 0
ARM GAS  C:\Users\jo\AppData\Local\Temp\ccDLAO0k.s 			page 35


 1923 0034 D8F80400 		ldr	r0, [r8, #4]
 1924 0038 6968     		ldr	r1, [r5, #4]
 1925              		.loc 1 872 0
 1926 003a B4BF     		ite	lt
 1927 003c 9CB2     		uxthlt	r4, r3
 1928              		.loc 1 869 0
 1929 003e A4B2     		uxthge	r4, r4
 1930              	.LVL213:
 1931              		.loc 1 874 0
 1932 0040 3044     		add	r0, r0, r6
 1933 0042 4944     		add	r1, r1, r9
 1934 0044 2246     		mov	r2, r4
 1935 0046 FFF7FEFF 		bl	memcpy
 1936              	.LVL214:
 1937              		.loc 1 875 0
 1938 004a 2644     		add	r6, r6, r4
 1939              	.LVL215:
 1940              		.loc 1 877 0
 1941 004c B8F80A30 		ldrh	r3, [r8, #10]
 1942              		.loc 1 875 0
 1943 0050 B6B2     		uxth	r6, r6
 1944              	.LVL216:
 1945              		.loc 1 876 0
 1946 0052 4C44     		add	r4, r4, r9
 1947              	.LVL217:
 1948              		.loc 1 877 0
 1949 0054 B342     		cmp	r3, r6
 1950              		.loc 1 876 0
 1951 0056 1FFA84F9 		uxth	r9, r4
 1952              	.LVL218:
 1953              		.loc 1 877 0
 1954 005a 3CD3     		bcc	.L235
 1955              	.L208:
 1956              		.loc 1 878 0
 1957 005c 6B89     		ldrh	r3, [r5, #10]
 1958 005e 9945     		cmp	r9, r3
 1959 0060 2CD8     		bhi	.L236
 1960              	.L209:
 1961              		.loc 1 879 0
 1962 0062 9945     		cmp	r9, r3
 1963              	.LVL219:
 1964              		.loc 1 884 0
 1965 0064 B8F80A30 		ldrh	r3, [r8, #10]
 1966              		.loc 1 882 0
 1967 0068 24BF     		itt	cs
 1968 006a 2D68     		ldrcs	r5, [r5]
 1969              	.LVL220:
 1970              		.loc 1 881 0
 1971 006c 4FF00009 		movcs	r9, #0
 1972              	.LVL221:
 1973              		.loc 1 884 0
 1974 0070 B342     		cmp	r3, r6
 1975 0072 11D0     		beq	.L237
 1976              		.loc 1 891 0
 1977 0074 C5B1     		cbz	r5, .L238
 1978              	.L217:
 1979              		.loc 1 891 0 is_stmt 0 discriminator 1
ARM GAS  C:\Users\jo\AppData\Local\Temp\ccDLAO0k.s 			page 36


 1980 0076 6A89     		ldrh	r2, [r5, #10]
 1981 0078 2B89     		ldrh	r3, [r5, #8]
 1982 007a 9A42     		cmp	r2, r3
 1983 007c 37D0     		beq	.L239
 1984              	.L212:
 1985              		.loc 1 896 0 is_stmt 1
 1986 007e B8F80A30 		ldrh	r3, [r8, #10]
 1987 0082 B8F80810 		ldrh	r1, [r8, #8]
 1988 0086 9942     		cmp	r1, r3
 1989 0088 D0D1     		bne	.L205
 1990              	.L215:
 1991              		.loc 1 898 0
 1992 008a D8F80020 		ldr	r2, [r8]
 1993 008e 002A     		cmp	r2, #0
 1994 0090 51D1     		bne	.L240
 1995              		.loc 1 901 0
 1996 0092 7DB1     		cbz	r5, .L204
 1997 0094 6A89     		ldrh	r2, [r5, #10]
 1998 0096 C9E7     		b	.L205
 1999              	.L237:
 2000              	.LVL222:
 2001              		.loc 1 887 0
 2002 0098 D8F80080 		ldr	r8, [r8]
 2003              	.LVL223:
 2004              		.loc 1 888 0
 2005 009c B8F1000F 		cmp	r8, #0
 2006 00a0 39D0     		beq	.L241
 2007              		.loc 1 886 0
 2008 00a2 0026     		movs	r6, #0
 2009              	.LVL224:
 2010              		.loc 1 891 0
 2011 00a4 002D     		cmp	r5, #0
 2012 00a6 E6D1     		bne	.L217
 2013              	.L238:
 2014              		.loc 1 896 0
 2015 00a8 B8F80A30 		ldrh	r3, [r8, #10]
 2016 00ac B8F80820 		ldrh	r2, [r8, #8]
 2017 00b0 9A42     		cmp	r2, r3
 2018 00b2 EAD0     		beq	.L215
 2019              	.LVL225:
 2020              	.L204:
 2021 00b4 68B2     		sxtb	r0, r5
 2022              		.loc 1 904 0
 2023 00b6 03B0     		add	sp, sp, #12
 2024              		.cfi_remember_state
 2025              		.cfi_def_cfa_offset 28
 2026              		@ sp needed
 2027 00b8 BDE8F083 		pop	{r4, r5, r6, r7, r8, r9, pc}
 2028              	.LVL226:
 2029              	.L236:
 2030              		.cfi_restore_state
 2031              		.loc 1 878 0 discriminator 1
 2032 00bc 40F26E33 		movw	r3, #878
 2033 00c0 2D49     		ldr	r1, .L242+4
 2034 00c2 2E4A     		ldr	r2, .L242+8
 2035 00c4 0097     		str	r7, [sp]
 2036 00c6 2E48     		ldr	r0, .L242+12
ARM GAS  C:\Users\jo\AppData\Local\Temp\ccDLAO0k.s 			page 37


 2037 00c8 FFF7FEFF 		bl	chprintf.constprop.1
 2038              	.LVL227:
 2039              	.LBB158:
 2040              	.LBB159:
 2041              		.loc 3 416 0 discriminator 1
 2042 00cc 2B48     		ldr	r0, .L242+8
 2043 00ce FFF7FEFF 		bl	chSysHalt
 2044              	.LVL228:
 2045 00d2 6B89     		ldrh	r3, [r5, #10]
 2046 00d4 C5E7     		b	.L209
 2047              	.LVL229:
 2048              	.L235:
 2049              	.LBE159:
 2050              	.LBE158:
 2051              		.loc 1 877 0 discriminator 1
 2052 00d6 0097     		str	r7, [sp]
 2053 00d8 2749     		ldr	r1, .L242+4
 2054 00da 2A4A     		ldr	r2, .L242+16
 2055 00dc 2848     		ldr	r0, .L242+12
 2056 00de 40F26D33 		movw	r3, #877
 2057 00e2 FFF7FEFF 		bl	chprintf.constprop.1
 2058              	.LVL230:
 2059              	.LBB160:
 2060              	.LBB161:
 2061              		.loc 3 416 0 discriminator 1
 2062 00e6 2748     		ldr	r0, .L242+16
 2063 00e8 FFF7FEFF 		bl	chSysHalt
 2064              	.LVL231:
 2065 00ec B6E7     		b	.L208
 2066              	.LVL232:
 2067              	.L239:
 2068              	.LBE161:
 2069              	.LBE160:
 2070              		.loc 1 893 0
 2071 00ee 2B68     		ldr	r3, [r5]
 2072 00f0 002B     		cmp	r3, #0
 2073 00f2 C4D0     		beq	.L212
 2074              		.loc 1 893 0 is_stmt 0 discriminator 1
 2075 00f4 1F4B     		ldr	r3, .L242
 2076 00f6 0093     		str	r3, [sp]
 2077 00f8 1F49     		ldr	r1, .L242+4
 2078 00fa 234A     		ldr	r2, .L242+20
 2079 00fc 2048     		ldr	r0, .L242+12
 2080 00fe 40F27E33 		movw	r3, #894
 2081 0102 FFF7FEFF 		bl	chprintf.constprop.1
 2082              	.LVL233:
 2083              	.LBB162:
 2084              	.LBB163:
 2085              		.loc 3 416 0 is_stmt 1 discriminator 1
 2086 0106 2048     		ldr	r0, .L242+20
 2087 0108 FFF7FEFF 		bl	chSysHalt
 2088              	.LVL234:
 2089              	.LBE163:
 2090              	.LBE162:
 2091              		.loc 1 893 0 discriminator 1
 2092 010c FA25     		movs	r5, #250
 2093              	.LVL235:
ARM GAS  C:\Users\jo\AppData\Local\Temp\ccDLAO0k.s 			page 38


 2094 010e 68B2     		sxtb	r0, r5
 2095              		.loc 1 904 0 discriminator 1
 2096 0110 03B0     		add	sp, sp, #12
 2097              		.cfi_remember_state
 2098              		.cfi_def_cfa_offset 28
 2099              		@ sp needed
 2100 0112 BDE8F083 		pop	{r4, r5, r6, r7, r8, r9, pc}
 2101              	.LVL236:
 2102              	.L241:
 2103              		.cfi_restore_state
 2104              		.loc 1 888 0 discriminator 1
 2105 0116 002D     		cmp	r5, #0
 2106 0118 CCD0     		beq	.L204
 2107              		.loc 1 888 0 is_stmt 0 discriminator 2
 2108 011a 164B     		ldr	r3, .L242
 2109 011c 0093     		str	r3, [sp]
 2110 011e 1649     		ldr	r1, .L242+4
 2111 0120 1A4A     		ldr	r2, .L242+24
 2112 0122 1748     		ldr	r0, .L242+12
 2113 0124 4FF45E73 		mov	r3, #888
 2114 0128 FFF7FEFF 		bl	chprintf.constprop.1
 2115              	.LVL237:
 2116              	.LBB164:
 2117              	.LBB165:
 2118              		.loc 3 416 0 is_stmt 1 discriminator 2
 2119 012c 1748     		ldr	r0, .L242+24
 2120 012e FFF7FEFF 		bl	chSysHalt
 2121              	.LVL238:
 2122              	.LBE165:
 2123              	.LBE164:
 2124              		.loc 1 888 0 discriminator 2
 2125 0132 F225     		movs	r5, #242
 2126              	.LVL239:
 2127 0134 BEE7     		b	.L204
 2128              	.LVL240:
 2129              	.L240:
 2130              		.loc 1 898 0 discriminator 1
 2131 0136 0F4B     		ldr	r3, .L242
 2132 0138 0093     		str	r3, [sp]
 2133 013a 0F49     		ldr	r1, .L242+4
 2134 013c 124A     		ldr	r2, .L242+20
 2135 013e 1048     		ldr	r0, .L242+12
 2136 0140 40F28333 		movw	r3, #899
 2137 0144 FFF7FEFF 		bl	chprintf.constprop.1
 2138              	.LVL241:
 2139              	.LBB166:
 2140              	.LBB167:
 2141              		.loc 3 416 0 discriminator 1
 2142 0148 0F48     		ldr	r0, .L242+20
 2143 014a FFF7FEFF 		bl	chSysHalt
 2144              	.LVL242:
 2145              	.LBE167:
 2146              	.LBE166:
 2147              		.loc 1 898 0 discriminator 1
 2148 014e FA25     		movs	r5, #250
 2149              	.LVL243:
 2150 0150 68B2     		sxtb	r0, r5
ARM GAS  C:\Users\jo\AppData\Local\Temp\ccDLAO0k.s 			page 39


 2151              		.loc 1 904 0 discriminator 1
 2152 0152 03B0     		add	sp, sp, #12
 2153              		.cfi_remember_state
 2154              		.cfi_def_cfa_offset 28
 2155              		@ sp needed
 2156 0154 BDE8F083 		pop	{r4, r5, r6, r7, r8, r9, pc}
 2157              	.LVL244:
 2158              	.L202:
 2159              		.cfi_restore_state
 2160              		.loc 1 860 0 discriminator 5
 2161 0158 064B     		ldr	r3, .L242
 2162 015a 0093     		str	r3, [sp]
 2163 015c 0649     		ldr	r1, .L242+4
 2164              	.LVL245:
 2165 015e 0C4A     		ldr	r2, .L242+28
 2166 0160 0748     		ldr	r0, .L242+12
 2167              	.LVL246:
 2168 0162 40F25D33 		movw	r3, #861
 2169 0166 FFF7FEFF 		bl	chprintf.constprop.1
 2170              	.LVL247:
 2171              	.LBB168:
 2172              	.LBB169:
 2173              		.loc 3 416 0 discriminator 5
 2174 016a 0948     		ldr	r0, .L242+28
 2175 016c FFF7FEFF 		bl	chSysHalt
 2176              	.LVL248:
 2177              	.LBE169:
 2178              	.LBE168:
 2179              		.loc 1 860 0 discriminator 5
 2180 0170 F225     		movs	r5, #242
 2181 0172 9FE7     		b	.L204
 2182              	.L243:
 2183              		.align	2
 2184              	.L242:
 2185 0174 4C000000 		.word	.LC2
 2186 0178 00000000 		.word	.LC0
 2187 017c DC020000 		.word	.LC24
 2188 0180 00000000 		.word	itm_port
 2189 0184 C4020000 		.word	.LC23
 2190 0188 08030000 		.word	.LC26
 2191 018c F8020000 		.word	.LC25
 2192 0190 94020000 		.word	.LC22
 2193              		.cfi_endproc
 2194              	.LFE273:
 2195              		.size	pbuf_copy, .-pbuf_copy
 2196 0194 AFF30080 		.section	.text.pbuf_copy_partial,"ax",%progbits
 2196      AFF30080 
 2196      AFF30080 
 2197              		.align	2
 2198              		.p2align 4,,15
 2199              		.global	pbuf_copy_partial
 2200              		.thumb
 2201              		.thumb_func
 2202              		.type	pbuf_copy_partial, %function
 2203              	pbuf_copy_partial:
 2204              	.LFB274:
 2205              		.loc 1 919 0
ARM GAS  C:\Users\jo\AppData\Local\Temp\ccDLAO0k.s 			page 40


 2206              		.cfi_startproc
 2207              		@ args = 0, pretend = 0, frame = 0
 2208              		@ frame_needed = 0, uses_anonymous_args = 0
 2209              	.LVL249:
 2210 0000 2DE9F043 		push	{r4, r5, r6, r7, r8, r9, lr}
 2211              		.cfi_def_cfa_offset 28
 2212              		.cfi_offset 4, -28
 2213              		.cfi_offset 5, -24
 2214              		.cfi_offset 6, -20
 2215              		.cfi_offset 7, -16
 2216              		.cfi_offset 8, -12
 2217              		.cfi_offset 9, -8
 2218              		.cfi_offset 14, -4
 2219              		.loc 1 925 0
 2220 0004 0546     		mov	r5, r0
 2221              		.loc 1 919 0
 2222 0006 83B0     		sub	sp, sp, #12
 2223              		.cfi_def_cfa_offset 40
 2224              		.loc 1 925 0
 2225 0008 0028     		cmp	r0, #0
 2226 000a 31D0     		beq	.L259
 2227 000c 0E46     		mov	r6, r1
 2228              		.loc 1 926 0
 2229 000e 0029     		cmp	r1, #0
 2230 0010 3CD0     		beq	.L260
 2231              	.LVL250:
 2232 0012 1746     		mov	r7, r2
 2233              		.loc 1 935 0 discriminator 1
 2234 0014 002A     		cmp	r2, #0
 2235 0016 47D0     		beq	.L253
 2236              		.loc 1 935 0 is_stmt 0
 2237 0018 4FF00008 		mov	r8, #0
 2238 001c C146     		mov	r9, r8
 2239              	.LVL251:
 2240              	.L252:
 2241              		.loc 1 945 0 is_stmt 1
 2242 001e 06EB0900 		add	r0, r6, r9
 2243              		.loc 1 936 0
 2244 0022 6A89     		ldrh	r2, [r5, #10]
 2245 0024 5BB1     		cbz	r3, .L250
 2246              		.loc 1 936 0 is_stmt 0 discriminator 1
 2247 0026 9A42     		cmp	r2, r3
 2248              		.loc 1 938 0 is_stmt 1 discriminator 1
 2249 0028 A3EB0201 		sub	r1, r3, r2
 2250              		.loc 1 936 0 discriminator 1
 2251 002c 07D8     		bhi	.L250
 2252              		.loc 1 935 0
 2253 002e 2D68     		ldr	r5, [r5]
 2254              	.LVL252:
 2255              		.loc 1 938 0
 2256 0030 8BB2     		uxth	r3, r1
 2257              	.LVL253:
 2258              		.loc 1 935 0
 2259 0032 002D     		cmp	r5, #0
 2260 0034 F3D1     		bne	.L252
 2261              	.LVL254:
 2262              	.L248:
ARM GAS  C:\Users\jo\AppData\Local\Temp\ccDLAO0k.s 			page 41


 2263              		.loc 1 952 0
 2264 0036 4046     		mov	r0, r8
 2265              	.LVL255:
 2266              	.L246:
 2267              		.loc 1 953 0
 2268 0038 03B0     		add	sp, sp, #12
 2269              		.cfi_remember_state
 2270              		.cfi_def_cfa_offset 28
 2271              		@ sp needed
 2272 003a BDE8F083 		pop	{r4, r5, r6, r7, r8, r9, pc}
 2273              	.LVL256:
 2274              	.L250:
 2275              		.cfi_restore_state
 2276              		.loc 1 941 0
 2277 003e D41A     		subs	r4, r2, r3
 2278 0040 A4B2     		uxth	r4, r4
 2279              	.LVL257:
 2280 0042 BC42     		cmp	r4, r7
 2281 0044 28BF     		it	cs
 2282 0046 3C46     		movcs	r4, r7
 2283              	.LVL258:
 2284              		.loc 1 945 0
 2285 0048 6968     		ldr	r1, [r5, #4]
 2286              		.loc 1 948 0
 2287 004a 3F1B     		subs	r7, r7, r4
 2288              	.LVL259:
 2289              		.loc 1 945 0
 2290 004c 2246     		mov	r2, r4
 2291              		.loc 1 946 0
 2292 004e A044     		add	r8, r8, r4
 2293              	.LVL260:
 2294              		.loc 1 945 0
 2295 0050 1944     		add	r1, r1, r3
 2296              		.loc 1 947 0
 2297 0052 4C44     		add	r4, r4, r9
 2298              	.LVL261:
 2299              		.loc 1 948 0
 2300 0054 BFB2     		uxth	r7, r7
 2301              		.loc 1 945 0
 2302 0056 FFF7FEFF 		bl	memcpy
 2303              	.LVL262:
 2304              		.loc 1 946 0
 2305 005a 1FFA88F8 		uxth	r8, r8
 2306              	.LVL263:
 2307              		.loc 1 947 0
 2308 005e 1FFA84F9 		uxth	r9, r4
 2309              	.LVL264:
 2310              		.loc 1 935 0
 2311 0062 2D68     		ldr	r5, [r5]
 2312              	.LVL265:
 2313 0064 002F     		cmp	r7, #0
 2314 0066 E6D0     		beq	.L248
 2315              		.loc 1 949 0
 2316 0068 0023     		movs	r3, #0
 2317              	.LVL266:
 2318              		.loc 1 935 0
 2319 006a 002D     		cmp	r5, #0
ARM GAS  C:\Users\jo\AppData\Local\Temp\ccDLAO0k.s 			page 42


 2320 006c D7D1     		bne	.L252
 2321 006e E2E7     		b	.L248
 2322              	.LVL267:
 2323              	.L259:
 2324              		.loc 1 925 0 discriminator 1
 2325 0070 0E4B     		ldr	r3, .L261
 2326              	.LVL268:
 2327 0072 0093     		str	r3, [sp]
 2328 0074 0E49     		ldr	r1, .L261+4
 2329              	.LVL269:
 2330 0076 0F4A     		ldr	r2, .L261+8
 2331              	.LVL270:
 2332 0078 0F48     		ldr	r0, .L261+12
 2333              	.LVL271:
 2334 007a 40F29D33 		movw	r3, #925
 2335 007e FFF7FEFF 		bl	chprintf.constprop.1
 2336              	.LVL272:
 2337              	.LBB170:
 2338              	.LBB171:
 2339              		.loc 3 416 0 discriminator 1
 2340 0082 0C48     		ldr	r0, .L261+8
 2341 0084 FFF7FEFF 		bl	chSysHalt
 2342              	.LVL273:
 2343              	.LBE171:
 2344              	.LBE170:
 2345              		.loc 1 925 0 discriminator 1
 2346 0088 2846     		mov	r0, r5
 2347 008a D5E7     		b	.L246
 2348              	.LVL274:
 2349              	.L260:
 2350              		.loc 1 926 0 discriminator 1
 2351 008c 074B     		ldr	r3, .L261
 2352              	.LVL275:
 2353 008e 0093     		str	r3, [sp]
 2354 0090 0749     		ldr	r1, .L261+4
 2355              	.LVL276:
 2356 0092 0A4A     		ldr	r2, .L261+16
 2357              	.LVL277:
 2358 0094 0848     		ldr	r0, .L261+12
 2359              	.LVL278:
 2360 0096 40F29E33 		movw	r3, #926
 2361 009a FFF7FEFF 		bl	chprintf.constprop.1
 2362              	.LVL279:
 2363              	.LBB172:
 2364              	.LBB173:
 2365              		.loc 3 416 0 discriminator 1
 2366 009e 0748     		ldr	r0, .L261+16
 2367 00a0 FFF7FEFF 		bl	chSysHalt
 2368              	.LVL280:
 2369              	.LBE173:
 2370              	.LBE172:
 2371              		.loc 1 926 0 discriminator 1
 2372 00a4 3046     		mov	r0, r6
 2373 00a6 C7E7     		b	.L246
 2374              	.LVL281:
 2375              	.L253:
 2376              		.loc 1 935 0
ARM GAS  C:\Users\jo\AppData\Local\Temp\ccDLAO0k.s 			page 43


 2377 00a8 9046     		mov	r8, r2
 2378 00aa C4E7     		b	.L248
 2379              	.L262:
 2380              		.align	2
 2381              	.L261:
 2382 00ac 4C000000 		.word	.LC2
 2383 00b0 00000000 		.word	.LC0
 2384 00b4 34030000 		.word	.LC27
 2385 00b8 00000000 		.word	itm_port
 2386 00bc 54030000 		.word	.LC28
 2387              		.cfi_endproc
 2388              	.LFE274:
 2389              		.size	pbuf_copy_partial, .-pbuf_copy_partial
 2390              		.section	.text.pbuf_take,"ax",%progbits
 2391              		.align	2
 2392              		.p2align 4,,15
 2393              		.global	pbuf_take
 2394              		.thumb
 2395              		.thumb_func
 2396              		.type	pbuf_take, %function
 2397              	pbuf_take:
 2398              	.LFB275:
 2399              		.loc 1 967 0
 2400              		.cfi_startproc
 2401              		@ args = 0, pretend = 0, frame = 0
 2402              		@ frame_needed = 0, uses_anonymous_args = 0
 2403              	.LVL282:
 2404 0000 2DE9F047 		push	{r4, r5, r6, r7, r8, r9, r10, lr}
 2405              		.cfi_def_cfa_offset 32
 2406              		.cfi_offset 4, -32
 2407              		.cfi_offset 5, -28
 2408              		.cfi_offset 6, -24
 2409              		.cfi_offset 7, -20
 2410              		.cfi_offset 8, -16
 2411              		.cfi_offset 9, -12
 2412              		.cfi_offset 10, -8
 2413              		.cfi_offset 14, -4
 2414              		.loc 1 973 0
 2415 0004 8246     		mov	r10, r0
 2416              		.loc 1 967 0
 2417 0006 82B0     		sub	sp, sp, #8
 2418              		.cfi_def_cfa_offset 40
 2419              		.loc 1 973 0
 2420 0008 0028     		cmp	r0, #0
 2421 000a 48D0     		beq	.L276
 2422 000c 0F46     		mov	r7, r1
 2423              		.loc 1 974 0
 2424 000e 0029     		cmp	r1, #0
 2425 0010 53D0     		beq	.L277
 2426              		.loc 1 976 0 discriminator 2
 2427 0012 0389     		ldrh	r3, [r0, #8]
 2428 0014 9342     		cmp	r3, r2
 2429 0016 9046     		mov	r8, r2
 2430              	.LVL283:
 2431 0018 5DD3     		bcc	.L271
 2432              	.LVL284:
 2433              		.loc 1 981 0 discriminator 1
ARM GAS  C:\Users\jo\AppData\Local\Temp\ccDLAO0k.s 			page 44


 2434 001a 002A     		cmp	r2, #0
 2435 001c 3AD0     		beq	.L267
 2436              		.loc 1 981 0 is_stmt 0
 2437 001e 1446     		mov	r4, r2
 2438 0020 0026     		movs	r6, #0
 2439              		.loc 1 982 0 is_stmt 1
 2440 0022 DFF8B890 		ldr	r9, .L279
 2441 0026 02E0     		b	.L268
 2442              	.LVL285:
 2443              	.L270:
 2444 0028 BAF1000F 		cmp	r10, #0
 2445 002c 25D0     		beq	.L278
 2446              	.LVL286:
 2447              	.L268:
 2448              		.loc 1 984 0
 2449 002e BAF80A50 		ldrh	r5, [r10, #10]
 2450              		.loc 1 989 0
 2451 0032 DAF80400 		ldr	r0, [r10, #4]
 2452 0036 A542     		cmp	r5, r4
 2453 0038 28BF     		it	cs
 2454 003a 2546     		movcs	r5, r4
 2455              	.LVL287:
 2456              		.loc 1 990 0
 2457 003c 641B     		subs	r4, r4, r5
 2458              		.loc 1 989 0
 2459 003e B919     		adds	r1, r7, r6
 2460 0040 2A46     		mov	r2, r5
 2461              		.loc 1 991 0
 2462 0042 2E44     		add	r6, r6, r5
 2463              		.loc 1 990 0
 2464 0044 A4B2     		uxth	r4, r4
 2465              		.loc 1 989 0
 2466 0046 FFF7FEFF 		bl	memcpy
 2467              	.LVL288:
 2468              		.loc 1 991 0
 2469 004a B6B2     		uxth	r6, r6
 2470              	.LVL289:
 2471              		.loc 1 981 0
 2472 004c DAF800A0 		ldr	r10, [r10]
 2473              	.LVL290:
 2474 0050 002C     		cmp	r4, #0
 2475 0052 E9D1     		bne	.L270
 2476              		.loc 1 993 0
 2477 0054 B045     		cmp	r8, r6
 2478 0056 1DD0     		beq	.L267
 2479              		.loc 1 993 0 is_stmt 0 discriminator 3
 2480 0058 204B     		ldr	r3, .L279
 2481 005a 0093     		str	r3, [sp]
 2482 005c 2049     		ldr	r1, .L279+4
 2483 005e 214A     		ldr	r2, .L279+8
 2484 0060 2148     		ldr	r0, .L279+12
 2485 0062 40F2E133 		movw	r3, #993
 2486 0066 FFF7FEFF 		bl	chprintf.constprop.1
 2487              	.LVL291:
 2488              	.LBB174:
 2489              	.LBB175:
 2490              		.loc 3 416 0 is_stmt 1 discriminator 3
ARM GAS  C:\Users\jo\AppData\Local\Temp\ccDLAO0k.s 			page 45


 2491 006a 1E48     		ldr	r0, .L279+8
 2492 006c FFF7FEFF 		bl	chSysHalt
 2493              	.LVL292:
 2494              	.LBE175:
 2495              	.LBE174:
 2496              		.loc 1 994 0 discriminator 3
 2497 0070 2046     		mov	r0, r4
 2498              	.LVL293:
 2499              	.L265:
 2500              		.loc 1 995 0
 2501 0072 40B2     		sxtb	r0, r0
 2502 0074 02B0     		add	sp, sp, #8
 2503              		.cfi_remember_state
 2504              		.cfi_def_cfa_offset 32
 2505              		@ sp needed
 2506 0076 BDE8F087 		pop	{r4, r5, r6, r7, r8, r9, r10, pc}
 2507              	.LVL294:
 2508              	.L278:
 2509              		.cfi_restore_state
 2510              		.loc 1 982 0 discriminator 1
 2511 007a CDF80090 		str	r9, [sp]
 2512 007e 1849     		ldr	r1, .L279+4
 2513 0080 1A4A     		ldr	r2, .L279+16
 2514 0082 1948     		ldr	r0, .L279+12
 2515 0084 40F2D633 		movw	r3, #982
 2516 0088 FFF7FEFF 		bl	chprintf.constprop.1
 2517              	.LVL295:
 2518              	.LBB176:
 2519              	.LBB177:
 2520              		.loc 3 416 0 discriminator 1
 2521 008c 1748     		ldr	r0, .L279+16
 2522 008e FFF7FEFF 		bl	chSysHalt
 2523              	.LVL296:
 2524 0092 CCE7     		b	.L268
 2525              	.LVL297:
 2526              	.L267:
 2527              	.LBE177:
 2528              	.LBE176:
 2529              		.loc 1 994 0
 2530 0094 0020     		movs	r0, #0
 2531              		.loc 1 995 0
 2532 0096 40B2     		sxtb	r0, r0
 2533 0098 02B0     		add	sp, sp, #8
 2534              		.cfi_remember_state
 2535              		.cfi_def_cfa_offset 32
 2536              		@ sp needed
 2537 009a BDE8F087 		pop	{r4, r5, r6, r7, r8, r9, r10, pc}
 2538              	.LVL298:
 2539              	.L276:
 2540              		.cfi_restore_state
 2541              		.loc 1 973 0 discriminator 1
 2542 009e 0F4B     		ldr	r3, .L279
 2543 00a0 0093     		str	r3, [sp]
 2544 00a2 0F49     		ldr	r1, .L279+4
 2545              	.LVL299:
 2546 00a4 124A     		ldr	r2, .L279+20
 2547              	.LVL300:
ARM GAS  C:\Users\jo\AppData\Local\Temp\ccDLAO0k.s 			page 46


 2548 00a6 1048     		ldr	r0, .L279+12
 2549              	.LVL301:
 2550 00a8 40F2CD33 		movw	r3, #973
 2551 00ac FFF7FEFF 		bl	chprintf.constprop.1
 2552              	.LVL302:
 2553              	.LBB178:
 2554              	.LBB179:
 2555              		.loc 3 416 0 discriminator 1
 2556 00b0 0F48     		ldr	r0, .L279+20
 2557 00b2 FFF7FEFF 		bl	chSysHalt
 2558              	.LVL303:
 2559              	.LBE179:
 2560              	.LBE178:
 2561              		.loc 1 973 0 discriminator 1
 2562 00b6 5046     		mov	r0, r10
 2563 00b8 DBE7     		b	.L265
 2564              	.LVL304:
 2565              	.L277:
 2566              		.loc 1 974 0 discriminator 1
 2567 00ba 084B     		ldr	r3, .L279
 2568 00bc 0093     		str	r3, [sp]
 2569 00be 0849     		ldr	r1, .L279+4
 2570              	.LVL305:
 2571 00c0 0C4A     		ldr	r2, .L279+24
 2572              	.LVL306:
 2573 00c2 0948     		ldr	r0, .L279+12
 2574              	.LVL307:
 2575 00c4 40F2CE33 		movw	r3, #974
 2576 00c8 FFF7FEFF 		bl	chprintf.constprop.1
 2577              	.LVL308:
 2578              	.LBB180:
 2579              	.LBB181:
 2580              		.loc 3 416 0 discriminator 1
 2581 00cc 0948     		ldr	r0, .L279+24
 2582 00ce FFF7FEFF 		bl	chSysHalt
 2583              	.LVL309:
 2584              	.LBE181:
 2585              	.LBE180:
 2586              		.loc 1 974 0 discriminator 1
 2587 00d2 3846     		mov	r0, r7
 2588 00d4 CDE7     		b	.L265
 2589              	.LVL310:
 2590              	.L271:
 2591              		.loc 1 977 0
 2592 00d6 F220     		movs	r0, #242
 2593              	.LVL311:
 2594 00d8 CBE7     		b	.L265
 2595              	.L280:
 2596 00da 00BF     		.align	2
 2597              	.L279:
 2598 00dc 4C000000 		.word	.LC2
 2599 00e0 00000000 		.word	.LC0
 2600 00e4 C4030000 		.word	.LC32
 2601 00e8 00000000 		.word	itm_port
 2602 00ec AC030000 		.word	.LC31
 2603 00f0 78030000 		.word	.LC29
 2604 00f4 90030000 		.word	.LC30
ARM GAS  C:\Users\jo\AppData\Local\Temp\ccDLAO0k.s 			page 47


 2605              		.cfi_endproc
 2606              	.LFE275:
 2607              		.size	pbuf_take, .-pbuf_take
 2608 00f8 AFF30080 		.section	.text.pbuf_coalesce,"ax",%progbits
 2608      AFF30080 
 2609              		.align	2
 2610              		.p2align 4,,15
 2611              		.global	pbuf_coalesce
 2612              		.thumb
 2613              		.thumb_func
 2614              		.type	pbuf_coalesce, %function
 2615              	pbuf_coalesce:
 2616              	.LFB276:
 2617              		.loc 1 1011 0
 2618              		.cfi_startproc
 2619              		@ args = 0, pretend = 0, frame = 0
 2620              		@ frame_needed = 0, uses_anonymous_args = 0
 2621              	.LVL312:
 2622 0000 30B5     		push	{r4, r5, lr}
 2623              		.cfi_def_cfa_offset 12
 2624              		.cfi_offset 4, -12
 2625              		.cfi_offset 5, -8
 2626              		.cfi_offset 14, -4
 2627              		.loc 1 1014 0
 2628 0002 0368     		ldr	r3, [r0]
 2629              		.loc 1 1011 0
 2630 0004 83B0     		sub	sp, sp, #12
 2631              		.cfi_def_cfa_offset 24
 2632              		.loc 1 1011 0
 2633 0006 0446     		mov	r4, r0
 2634              		.loc 1 1014 0
 2635 0008 83B1     		cbz	r3, .L284
 2636              		.loc 1 1017 0
 2637 000a 0846     		mov	r0, r1
 2638              	.LVL313:
 2639 000c 0022     		movs	r2, #0
 2640 000e 2189     		ldrh	r1, [r4, #8]
 2641              	.LVL314:
 2642 0010 FFF7FEFF 		bl	pbuf_alloc
 2643              	.LVL315:
 2644              		.loc 1 1018 0
 2645 0014 0546     		mov	r5, r0
 2646 0016 48B1     		cbz	r0, .L284
 2647              		.loc 1 1022 0
 2648 0018 2146     		mov	r1, r4
 2649 001a FFF7FEFF 		bl	pbuf_copy
 2650              	.LVL316:
 2651              		.loc 1 1023 0
 2652 001e 40B9     		cbnz	r0, .L293
 2653              	.LVL317:
 2654              	.L285:
 2655              		.loc 1 1024 0
 2656 0020 2046     		mov	r0, r4
 2657 0022 FFF7FEFF 		bl	pbuf_free
 2658              	.LVL318:
 2659              		.loc 1 1025 0
 2660 0026 2846     		mov	r0, r5
ARM GAS  C:\Users\jo\AppData\Local\Temp\ccDLAO0k.s 			page 48


 2661              		.loc 1 1026 0
 2662 0028 03B0     		add	sp, sp, #12
 2663              		.cfi_remember_state
 2664              		.cfi_def_cfa_offset 12
 2665              		@ sp needed
 2666 002a 30BD     		pop	{r4, r5, pc}
 2667              	.LVL319:
 2668              	.L284:
 2669              		.cfi_restore_state
 2670              		.loc 1 1011 0
 2671 002c 2046     		mov	r0, r4
 2672              		.loc 1 1026 0
 2673 002e 03B0     		add	sp, sp, #12
 2674              		.cfi_remember_state
 2675              		.cfi_def_cfa_offset 12
 2676              		@ sp needed
 2677 0030 30BD     		pop	{r4, r5, pc}
 2678              	.LVL320:
 2679              	.L293:
 2680              		.cfi_restore_state
 2681              		.loc 1 1023 0 discriminator 1
 2682 0032 064B     		ldr	r3, .L294
 2683 0034 0093     		str	r3, [sp]
 2684 0036 0649     		ldr	r1, .L294+4
 2685 0038 064A     		ldr	r2, .L294+8
 2686 003a 0748     		ldr	r0, .L294+12
 2687              	.LVL321:
 2688 003c 40F2FF33 		movw	r3, #1023
 2689 0040 FFF7FEFF 		bl	chprintf.constprop.1
 2690              	.LVL322:
 2691              	.LBB182:
 2692              	.LBB183:
 2693              		.loc 3 416 0 discriminator 1
 2694 0044 0348     		ldr	r0, .L294+8
 2695 0046 FFF7FEFF 		bl	chSysHalt
 2696              	.LVL323:
 2697 004a E9E7     		b	.L285
 2698              	.L295:
 2699              		.align	2
 2700              	.L294:
 2701 004c 4C000000 		.word	.LC2
 2702 0050 00000000 		.word	.LC0
 2703 0054 DC030000 		.word	.LC33
 2704 0058 00000000 		.word	itm_port
 2705              	.LBE183:
 2706              	.LBE182:
 2707              		.cfi_endproc
 2708              	.LFE276:
 2709              		.size	pbuf_coalesce, .-pbuf_coalesce
 2710 005c AFF30080 		.section	.text.pbuf_get_at,"ax",%progbits
 2711              		.align	2
 2712              		.p2align 4,,15
 2713              		.global	pbuf_get_at
 2714              		.thumb
 2715              		.thumb_func
 2716              		.type	pbuf_get_at, %function
 2717              	pbuf_get_at:
ARM GAS  C:\Users\jo\AppData\Local\Temp\ccDLAO0k.s 			page 49


 2718              	.LFB277:
 2719              		.loc 1 1078 0
 2720              		.cfi_startproc
 2721              		@ args = 0, pretend = 0, frame = 0
 2722              		@ frame_needed = 0, uses_anonymous_args = 0
 2723              		@ link register save eliminated.
 2724              	.LVL324:
 2725              		.loc 1 1083 0
 2726 0000 58B1     		cbz	r0, .L303
 2727 0002 4389     		ldrh	r3, [r0, #10]
 2728 0004 9942     		cmp	r1, r3
 2729 0006 03D2     		bcs	.L299
 2730 0008 08E0     		b	.L298
 2731              	.LVL325:
 2732              	.L304:
 2733              		.loc 1 1083 0 is_stmt 0 discriminator 1
 2734 000a 4389     		ldrh	r3, [r0, #10]
 2735 000c 8B42     		cmp	r3, r1
 2736 000e 05D8     		bhi	.L298
 2737              	.L299:
 2738              		.loc 1 1085 0 is_stmt 1
 2739 0010 0068     		ldr	r0, [r0]
 2740              	.LVL326:
 2741              		.loc 1 1084 0
 2742 0012 C91A     		subs	r1, r1, r3
 2743              	.LVL327:
 2744 0014 89B2     		uxth	r1, r1
 2745              	.LVL328:
 2746              		.loc 1 1083 0
 2747 0016 0028     		cmp	r0, #0
 2748 0018 F7D1     		bne	.L304
 2749              	.L303:
 2750              		.loc 1 1092 0
 2751 001a 7047     		bx	lr
 2752              	.L298:
 2753              		.loc 1 1089 0
 2754 001c 4368     		ldr	r3, [r0, #4]
 2755 001e 585C     		ldrb	r0, [r3, r1]	@ zero_extendqisi2
 2756              	.LVL329:
 2757              		.loc 1 1092 0
 2758 0020 7047     		bx	lr
 2759              		.cfi_endproc
 2760              	.LFE277:
 2761              		.size	pbuf_get_at, .-pbuf_get_at
 2762 0022 00BFAFF3 		.section	.text.pbuf_memcmp,"ax",%progbits
 2762      0080AFF3 
 2762      0080AFF3 
 2762      0080
 2763              		.align	2
 2764              		.p2align 4,,15
 2765              		.global	pbuf_memcmp
 2766              		.thumb
 2767              		.thumb_func
 2768              		.type	pbuf_memcmp, %function
 2769              	pbuf_memcmp:
 2770              	.LFB278:
 2771              		.loc 1 1105 0
ARM GAS  C:\Users\jo\AppData\Local\Temp\ccDLAO0k.s 			page 50


 2772              		.cfi_startproc
 2773              		@ args = 0, pretend = 0, frame = 0
 2774              		@ frame_needed = 0, uses_anonymous_args = 0
 2775              	.LVL330:
 2776              		.loc 1 1110 0
 2777 0000 0028     		cmp	r0, #0
 2778 0002 3AD0     		beq	.L316
 2779              		.loc 1 1105 0
 2780 0004 F0B5     		push	{r4, r5, r6, r7, lr}
 2781              		.cfi_def_cfa_offset 20
 2782              		.cfi_offset 4, -20
 2783              		.cfi_offset 5, -16
 2784              		.cfi_offset 6, -12
 2785              		.cfi_offset 7, -8
 2786              		.cfi_offset 14, -4
 2787              		.loc 1 1110 0
 2788 0006 4489     		ldrh	r4, [r0, #10]
 2789 0008 A142     		cmp	r1, r4
 2790 000a 03D2     		bcs	.L308
 2791 000c 0AE0     		b	.L307
 2792              	.LVL331:
 2793              	.L326:
 2794              		.loc 1 1110 0 is_stmt 0 discriminator 1
 2795 000e 4489     		ldrh	r4, [r0, #10]
 2796 0010 8C42     		cmp	r4, r1
 2797 0012 07D8     		bhi	.L307
 2798              	.L308:
 2799              		.loc 1 1112 0 is_stmt 1
 2800 0014 0068     		ldr	r0, [r0]
 2801              	.LVL332:
 2802              		.loc 1 1111 0
 2803 0016 0C1B     		subs	r4, r1, r4
 2804 0018 A1B2     		uxth	r1, r4
 2805              	.LVL333:
 2806              		.loc 1 1110 0
 2807 001a 0028     		cmp	r0, #0
 2808 001c F7D1     		bne	.L326
 2809              		.loc 1 1126 0
 2810 001e 4FF6FF70 		movw	r0, #65535
 2811              	.LVL334:
 2812 0022 F0BD     		pop	{r4, r5, r6, r7, pc}
 2813              	.LVL335:
 2814              	.L307:
 2815              	.LBB184:
 2816              		.loc 1 1117 0
 2817 0024 63B3     		cbz	r3, .L319
 2818 0026 4FF0000E 		mov	lr, #0
 2819 002a 02F1FF3C 		add	ip, r2, #-1
 2820 002e 7746     		mov	r7, lr
 2821              	.LVL336:
 2822              	.L314:
 2823 0030 CC19     		adds	r4, r1, r7
 2824 0032 A4B2     		uxth	r4, r4
 2825              	.LVL337:
 2826 0034 0246     		mov	r2, r0
 2827              	.LVL338:
 2828              	.L309:
ARM GAS  C:\Users\jo\AppData\Local\Temp\ccDLAO0k.s 			page 51


 2829              	.LBB185:
 2830              	.LBB186:
 2831              	.LBB187:
 2832              		.loc 1 1083 0
 2833 0036 5589     		ldrh	r5, [r2, #10]
 2834 0038 A542     		cmp	r5, r4
 2835              		.loc 1 1084 0
 2836 003a A4EB0506 		sub	r6, r4, r5
 2837              		.loc 1 1083 0
 2838 003e 0FD8     		bhi	.L327
 2839              		.loc 1 1085 0
 2840 0040 1268     		ldr	r2, [r2]
 2841              	.LVL339:
 2842              		.loc 1 1084 0
 2843 0042 B4B2     		uxth	r4, r6
 2844              	.LVL340:
 2845              		.loc 1 1083 0
 2846 0044 002A     		cmp	r2, #0
 2847 0046 F6D1     		bne	.L309
 2848              	.LVL341:
 2849              	.L310:
 2850              	.LBE187:
 2851              	.LBE186:
 2852              		.loc 1 1120 0
 2853 0048 1CF8014F 		ldrb	r4, [ip, #1]!	@ zero_extendqisi2
 2854              	.LVL342:
 2855 004c 9442     		cmp	r4, r2
 2856 004e 0ED1     		bne	.L328
 2857              	.LVL343:
 2858              	.L313:
 2859 0050 0EF1010E 		add	lr, lr, #1
 2860              	.LVL344:
 2861              	.LBE185:
 2862              		.loc 1 1117 0 discriminator 2
 2863 0054 1FFA8EF7 		uxth	r7, lr
 2864              	.LVL345:
 2865 0058 BB42     		cmp	r3, r7
 2866 005a E9D8     		bhi	.L314
 2867              		.loc 1 1124 0
 2868 005c 0020     		movs	r0, #0
 2869              	.LVL346:
 2870 005e F0BD     		pop	{r4, r5, r6, r7, pc}
 2871              	.LVL347:
 2872              	.L327:
 2873              	.LBB194:
 2874              	.LBB191:
 2875              	.LBB188:
 2876              		.loc 1 1088 0
 2877 0060 AC42     		cmp	r4, r5
 2878 0062 07D3     		bcc	.L315
 2879              	.LBE188:
 2880              	.LBE191:
 2881              		.loc 1 1120 0
 2882 0064 1CF8014F 		ldrb	r4, [ip, #1]!	@ zero_extendqisi2
 2883              	.LVL348:
 2884              	.LBB192:
 2885              	.LBB189:
ARM GAS  C:\Users\jo\AppData\Local\Temp\ccDLAO0k.s 			page 52


 2886              		.loc 1 1091 0
 2887 0068 0022     		movs	r2, #0
 2888              	.LVL349:
 2889              	.LBE189:
 2890              	.LBE192:
 2891              		.loc 1 1120 0
 2892 006a 9442     		cmp	r4, r2
 2893 006c F0D0     		beq	.L313
 2894              	.L328:
 2895              		.loc 1 1121 0
 2896 006e 0137     		adds	r7, r7, #1
 2897              	.LVL350:
 2898 0070 B8B2     		uxth	r0, r7
 2899              	.LVL351:
 2900 0072 F0BD     		pop	{r4, r5, r6, r7, pc}
 2901              	.LVL352:
 2902              	.L315:
 2903              	.LBB193:
 2904              	.LBB190:
 2905              		.loc 1 1089 0
 2906 0074 5268     		ldr	r2, [r2, #4]
 2907              	.LVL353:
 2908 0076 125D     		ldrb	r2, [r2, r4]	@ zero_extendqisi2
 2909 0078 E6E7     		b	.L310
 2910              	.LVL354:
 2911              	.L316:
 2912              		.cfi_def_cfa_offset 0
 2913              		.cfi_restore 4
 2914              		.cfi_restore 5
 2915              		.cfi_restore 6
 2916              		.cfi_restore 7
 2917              		.cfi_restore 14
 2918              	.LBE190:
 2919              	.LBE193:
 2920              	.LBE194:
 2921              	.LBE184:
 2922              		.loc 1 1126 0
 2923 007a 4FF6FF70 		movw	r0, #65535
 2924              	.LVL355:
 2925              		.loc 1 1127 0
 2926 007e 7047     		bx	lr
 2927              	.LVL356:
 2928              	.L319:
 2929              		.cfi_def_cfa_offset 20
 2930              		.cfi_offset 4, -20
 2931              		.cfi_offset 5, -16
 2932              		.cfi_offset 6, -12
 2933              		.cfi_offset 7, -8
 2934              		.cfi_offset 14, -4
 2935              	.LBB195:
 2936              		.loc 1 1124 0
 2937 0080 1846     		mov	r0, r3
 2938              	.LVL357:
 2939 0082 F0BD     		pop	{r4, r5, r6, r7, pc}
 2940              	.LBE195:
 2941              		.cfi_endproc
 2942              	.LFE278:
ARM GAS  C:\Users\jo\AppData\Local\Temp\ccDLAO0k.s 			page 53


 2943              		.size	pbuf_memcmp, .-pbuf_memcmp
 2944 0084 AFF30080 		.section	.text.pbuf_memfind,"ax",%progbits
 2944      AFF30080 
 2944      AFF30080 
 2945              		.align	2
 2946              		.p2align 4,,15
 2947              		.global	pbuf_memfind
 2948              		.thumb
 2949              		.thumb_func
 2950              		.type	pbuf_memfind, %function
 2951              	pbuf_memfind:
 2952              	.LFB279:
 2953              		.loc 1 1141 0
 2954              		.cfi_startproc
 2955              		@ args = 0, pretend = 0, frame = 0
 2956              		@ frame_needed = 0, uses_anonymous_args = 0
 2957              	.LVL358:
 2958 0000 2DE9F041 		push	{r4, r5, r6, r7, r8, lr}
 2959              		.cfi_def_cfa_offset 24
 2960              		.cfi_offset 4, -24
 2961              		.cfi_offset 5, -20
 2962              		.cfi_offset 6, -16
 2963              		.cfi_offset 7, -12
 2964              		.cfi_offset 8, -8
 2965              		.cfi_offset 14, -4
 2966              		.loc 1 1143 0
 2967 0004 0589     		ldrh	r5, [r0, #8]
 2968              	.LVL359:
 2969              		.loc 1 1141 0
 2970 0006 1C46     		mov	r4, r3
 2971              		.loc 1 1144 0
 2972 0008 D318     		adds	r3, r2, r3
 2973              	.LVL360:
 2974 000a 9D42     		cmp	r5, r3
 2975              		.loc 1 1141 0
 2976 000c 0746     		mov	r7, r0
 2977 000e 1646     		mov	r6, r2
 2978              		.loc 1 1144 0
 2979 0010 03DA     		bge	.L337
 2980              	.LVL361:
 2981              	.L333:
 2982              		.loc 1 1154 0
 2983 0012 4FF6FF70 		movw	r0, #65535
 2984 0016 BDE8F081 		pop	{r4, r5, r6, r7, r8, pc}
 2985              	.LVL362:
 2986              	.L337:
 2987              		.loc 1 1143 0 discriminator 1
 2988 001a AD1A     		subs	r5, r5, r2
 2989              	.LVL363:
 2990 001c ADB2     		uxth	r5, r5
 2991              	.LVL364:
 2992              		.loc 1 1145 0 discriminator 1
 2993 001e A542     		cmp	r5, r4
 2994 0020 8846     		mov	r8, r1
 2995 0022 03D2     		bcs	.L331
 2996 0024 F5E7     		b	.L333
 2997              	.LVL365:
ARM GAS  C:\Users\jo\AppData\Local\Temp\ccDLAO0k.s 			page 54


 2998              	.L338:
 2999              	.LBB196:
 3000              		.loc 1 1150 0
 3001 0026 9CB2     		uxth	r4, r3
 3002              	.LVL366:
 3003              	.LBE196:
 3004              		.loc 1 1145 0
 3005 0028 A542     		cmp	r5, r4
 3006 002a F2D3     		bcc	.L333
 3007              	.LVL367:
 3008              	.L331:
 3009              	.LBB197:
 3010              		.loc 1 1146 0
 3011 002c 3346     		mov	r3, r6
 3012 002e 3846     		mov	r0, r7
 3013 0030 2146     		mov	r1, r4
 3014 0032 4246     		mov	r2, r8
 3015 0034 FFF7FEFF 		bl	pbuf_memcmp
 3016              	.LVL368:
 3017              		.loc 1 1150 0
 3018 0038 0319     		adds	r3, r0, r4
 3019              		.loc 1 1147 0
 3020 003a 0028     		cmp	r0, #0
 3021 003c F3D1     		bne	.L338
 3022              		.loc 1 1148 0
 3023 003e 2046     		mov	r0, r4
 3024              	.LVL369:
 3025              	.LBE197:
 3026              		.loc 1 1155 0
 3027 0040 BDE8F081 		pop	{r4, r5, r6, r7, r8, pc}
 3028              		.cfi_endproc
 3029              	.LFE279:
 3030              		.size	pbuf_memfind, .-pbuf_memfind
 3031 0044 AFF30080 		.section	.text.pbuf_strstr,"ax",%progbits
 3031      AFF30080 
 3031      AFF30080 
 3032              		.align	2
 3033              		.p2align 4,,15
 3034              		.global	pbuf_strstr
 3035              		.thumb
 3036              		.thumb_func
 3037              		.type	pbuf_strstr, %function
 3038              	pbuf_strstr:
 3039              	.LFB280:
 3040              		.loc 1 1169 0
 3041              		.cfi_startproc
 3042              		@ args = 0, pretend = 0, frame = 0
 3043              		@ frame_needed = 0, uses_anonymous_args = 0
 3044              	.LVL370:
 3045              		.loc 1 1171 0
 3046 0000 09B1     		cbz	r1, .L341
 3047              		.loc 1 1171 0 is_stmt 0 discriminator 1
 3048 0002 0B78     		ldrb	r3, [r1]	@ zero_extendqisi2
 3049 0004 1BB9     		cbnz	r3, .L346
 3050              	.L341:
 3051              		.loc 1 1172 0 is_stmt 1
 3052 0006 4FF6FF73 		movw	r3, #65535
ARM GAS  C:\Users\jo\AppData\Local\Temp\ccDLAO0k.s 			page 55


 3053              		.loc 1 1179 0
 3054 000a 1846     		mov	r0, r3
 3055              	.LVL371:
 3056 000c 7047     		bx	lr
 3057              	.LVL372:
 3058              	.L346:
 3059              		.loc 1 1171 0 discriminator 2
 3060 000e 0389     		ldrh	r3, [r0, #8]
 3061              		.loc 1 1169 0 discriminator 2
 3062 0010 70B5     		push	{r4, r5, r6, lr}
 3063              		.cfi_def_cfa_offset 16
 3064              		.cfi_offset 4, -16
 3065              		.cfi_offset 5, -12
 3066              		.cfi_offset 6, -8
 3067              		.cfi_offset 14, -4
 3068              		.loc 1 1171 0 discriminator 2
 3069 0012 4FF6FF76 		movw	r6, #65535
 3070 0016 B342     		cmp	r3, r6
 3071 0018 0AD0     		beq	.L340
 3072 001a 0546     		mov	r5, r0
 3073              		.loc 1 1174 0
 3074 001c 0846     		mov	r0, r1
 3075              	.LVL373:
 3076 001e 0C46     		mov	r4, r1
 3077 0020 FFF7FEFF 		bl	strlen
 3078              	.LVL374:
 3079              		.loc 1 1175 0
 3080 0024 4FF6FE73 		movw	r3, #65534
 3081 0028 9842     		cmp	r0, r3
 3082              		.loc 1 1174 0
 3083 002a 0246     		mov	r2, r0
 3084              	.LVL375:
 3085              		.loc 1 1175 0
 3086 002c 02D9     		bls	.L347
 3087              		.loc 1 1172 0
 3088 002e 3346     		mov	r3, r6
 3089              	.LVL376:
 3090              	.L340:
 3091              		.loc 1 1179 0
 3092 0030 1846     		mov	r0, r3
 3093 0032 70BD     		pop	{r4, r5, r6, pc}
 3094              	.LVL377:
 3095              	.L347:
 3096              		.loc 1 1178 0
 3097 0034 2846     		mov	r0, r5
 3098              	.LVL378:
 3099 0036 2146     		mov	r1, r4
 3100 0038 92B2     		uxth	r2, r2
 3101              	.LVL379:
 3102 003a 0023     		movs	r3, #0
 3103              		.loc 1 1179 0
 3104 003c BDE87040 		pop	{r4, r5, r6, lr}
 3105              		.cfi_restore 14
 3106              		.cfi_restore 6
 3107              		.cfi_restore 5
 3108              		.cfi_restore 4
 3109              		.cfi_def_cfa_offset 0
ARM GAS  C:\Users\jo\AppData\Local\Temp\ccDLAO0k.s 			page 56


 3110              	.LVL380:
 3111              		.loc 1 1178 0
 3112 0040 FFF7FEBF 		b	pbuf_memfind
 3113              	.LVL381:
 3114              		.cfi_endproc
 3115              	.LFE280:
 3116              		.size	pbuf_strstr, .-pbuf_strstr
 3117              		.global	pbuf_free_ooseq_pending
 3118 0044 AFF30080 		.section	.rodata.str1.4,"aMS",%progbits,1
 3118      AFF30080 
 3118      AFF30080 
 3119              		.align	2
 3120              	.LC0:
 3121 0000 41737365 		.ascii	"Assertion \"%s\" failed at line %d in %s\012\000"
 3121      7274696F 
 3121      6E202225 
 3121      73222066 
 3121      61696C65 
 3122              	.LC1:
 3123 0028 70627566 		.ascii	"pbuf_alloced_custom: bad pbuf layer\000"
 3123      5F616C6C 
 3123      6F636564 
 3123      5F637573 
 3123      746F6D3A 
 3124              	.LC2:
 3125 004c 2E2E2F2E 		.ascii	"../../../ext/lwip/src/core/pbuf.c\000"
 3125      2E2F2E2E 
 3125      2F657874 
 3125      2F6C7769 
 3125      702F7372 
 3126 006e 0000     		.space	2
 3127              	.LC3:
 3128 0070 7020213D 		.ascii	"p != NULL\000"
 3128      204E554C 
 3128      4C00
 3129 007a 0000     		.space	2
 3130              	.LC4:
 3131 007c 696E6372 		.ascii	"increment_magnitude <= p->len\000"
 3131      656D656E 
 3131      745F6D61 
 3131      676E6974 
 3131      75646520 
 3132 009a 0000     		.space	2
 3133              	.LC5:
 3134 009c 62616420 		.ascii	"bad pbuf type\000"
 3134      70627566 
 3134      20747970 
 3134      6500
 3135 00aa 0000     		.space	2
 3136              	.LC6:
 3137 00ac 70627566 		.ascii	"pbuf_free: sane type\000"
 3137      5F667265 
 3137      653A2073 
 3137      616E6520 
 3137      74797065 
 3138 00c1 000000   		.space	3
 3139              	.LC7:
ARM GAS  C:\Users\jo\AppData\Local\Temp\ccDLAO0k.s 			page 57


 3140 00c4 70627566 		.ascii	"pbuf_free: p->ref > 0\000"
 3140      5F667265 
 3140      653A2070 
 3140      2D3E7265 
 3140      66203E20 
 3141 00da 0000     		.space	2
 3142              	.LC8:
 3143 00dc 70632D3E 		.ascii	"pc->custom_free_function != NULL\000"
 3143      63757374 
 3143      6F6D5F66 
 3143      7265655F 
 3143      66756E63 
 3144 00fd 000000   		.space	3
 3145              	.LC9:
 3146 0100 70627566 		.ascii	"pbuf_alloc: bad pbuf layer\000"
 3146      5F616C6C 
 3146      6F633A20 
 3146      62616420 
 3146      70627566 
 3147 011b 00       		.space	1
 3148              	.LC10:
 3149 011c 63686563 		.ascii	"check p->payload + p->len does not overflow pbuf\000"
 3149      6B20702D 
 3149      3E706179 
 3149      6C6F6164 
 3149      202B2070 
 3150 014d 000000   		.space	3
 3151              	.LC11:
 3152 0150 72656D5F 		.ascii	"rem_len < max_u16_t\000"
 3152      6C656E20 
 3152      3C206D61 
 3152      785F7531 
 3152      365F7400 
 3153              	.LC12:
 3154 0164 70627566 		.ascii	"pbuf_alloc: erroneous type\000"
 3154      5F616C6C 
 3154      6F633A20 
 3154      6572726F 
 3154      6E656F75 
 3155 017f 00       		.space	1
 3156              	.LC13:
 3157 0180 70627566 		.ascii	"pbuf_realloc: p != NULL\000"
 3157      5F726561 
 3157      6C6C6F63 
 3157      3A207020 
 3157      213D204E 
 3158              	.LC14:
 3159 0198 70627566 		.ascii	"pbuf_realloc: sane p->type\000"
 3159      5F726561 
 3159      6C6C6F63 
 3159      3A207361 
 3159      6E652070 
 3160 01b3 00       		.space	1
 3161              	.LC15:
 3162 01b4 67726F77 		.ascii	"grow < max_u16_t\000"
 3162      203C206D 
 3162      61785F75 
ARM GAS  C:\Users\jo\AppData\Local\Temp\ccDLAO0k.s 			page 58


 3162      31365F74 
 3162      00
 3163 01c5 000000   		.space	3
 3164              	.LC16:
 3165 01c8 70627566 		.ascii	"pbuf_realloc: q != NULL\000"
 3165      5F726561 
 3165      6C6C6F63 
 3165      3A207120 
 3165      213D204E 
 3166              	.LC17:
 3167 01e0 28682021 		.ascii	"(h != NULL) && (t != NULL) (programmer violates API"
 3167      3D204E55 
 3167      4C4C2920 
 3167      26262028 
 3167      7420213D 
 3168 0213 2900     		.ascii	")\000"
 3169 0215 000000   		.space	3
 3170              	.LC18:
 3171 0218 702D3E74 		.ascii	"p->tot_len == p->len (of last pbuf in chain)\000"
 3171      6F745F6C 
 3171      656E203D 
 3171      3D20702D 
 3171      3E6C656E 
 3172 0245 000000   		.space	3
 3173              	.LC19:
 3174 0248 702D3E6E 		.ascii	"p->next == NULL\000"
 3174      65787420 
 3174      3D3D204E 
 3174      554C4C00 
 3175              	.LC20:
 3176 0258 702D3E74 		.ascii	"p->tot_len == p->len + q->tot_len\000"
 3176      6F745F6C 
 3176      656E203D 
 3176      3D20702D 
 3176      3E6C656E 
 3177 027a 0000     		.space	2
 3178              	.LC21:
 3179 027c 702D3E74 		.ascii	"p->tot_len == p->len\000"
 3179      6F745F6C 
 3179      656E203D 
 3179      3D20702D 
 3179      3E6C656E 
 3180 0291 000000   		.space	3
 3181              	.LC22:
 3182 0294 70627566 		.ascii	"pbuf_copy: target not big enough to hold source\000"
 3182      5F636F70 
 3182      793A2074 
 3182      61726765 
 3182      74206E6F 
 3183              	.LC23:
 3184 02c4 6F666673 		.ascii	"offset_to <= p_to->len\000"
 3184      65745F74 
 3184      6F203C3D 
 3184      20705F74 
 3184      6F2D3E6C 
 3185 02db 00       		.space	1
 3186              	.LC24:
ARM GAS  C:\Users\jo\AppData\Local\Temp\ccDLAO0k.s 			page 59


 3187 02dc 6F666673 		.ascii	"offset_from <= p_from->len\000"
 3187      65745F66 
 3187      726F6D20 
 3187      3C3D2070 
 3187      5F66726F 
 3188 02f7 00       		.space	1
 3189              	.LC25:
 3190 02f8 705F746F 		.ascii	"p_to != NULL\000"
 3190      20213D20 
 3190      4E554C4C 
 3190      00
 3191 0305 000000   		.space	3
 3192              	.LC26:
 3193 0308 70627566 		.ascii	"pbuf_copy() does not allow packet queues!\012\000"
 3193      5F636F70 
 3193      79282920 
 3193      646F6573 
 3193      206E6F74 
 3194 0333 00       		.space	1
 3195              	.LC27:
 3196 0334 70627566 		.ascii	"pbuf_copy_partial: invalid buf\000"
 3196      5F636F70 
 3196      795F7061 
 3196      72746961 
 3196      6C3A2069 
 3197 0353 00       		.space	1
 3198              	.LC28:
 3199 0354 70627566 		.ascii	"pbuf_copy_partial: invalid dataptr\000"
 3199      5F636F70 
 3199      795F7061 
 3199      72746961 
 3199      6C3A2069 
 3200 0377 00       		.space	1
 3201              	.LC29:
 3202 0378 70627566 		.ascii	"pbuf_take: invalid buf\000"
 3202      5F74616B 
 3202      653A2069 
 3202      6E76616C 
 3202      69642062 
 3203 038f 00       		.space	1
 3204              	.LC30:
 3205 0390 70627566 		.ascii	"pbuf_take: invalid dataptr\000"
 3205      5F74616B 
 3205      653A2069 
 3205      6E76616C 
 3205      69642064 
 3206 03ab 00       		.space	1
 3207              	.LC31:
 3208 03ac 70627566 		.ascii	"pbuf_take: invalid pbuf\000"
 3208      5F74616B 
 3208      653A2069 
 3208      6E76616C 
 3208      69642070 
 3209              	.LC32:
 3210 03c4 64696420 		.ascii	"did not copy all data\000"
 3210      6E6F7420 
 3210      636F7079 
ARM GAS  C:\Users\jo\AppData\Local\Temp\ccDLAO0k.s 			page 60


 3210      20616C6C 
 3210      20646174 
 3211 03da 0000     		.space	2
 3212              	.LC33:
 3213 03dc 70627566 		.ascii	"pbuf_copy failed\000"
 3213      5F636F70 
 3213      79206661 
 3213      696C6564 
 3213      00
 3214 03ed 000000   		.section	.bss.pbuf_free_ooseq_pending,"aw",%nobits
 3215              		.set	.LANCHOR0,. + 0
 3216              		.type	pbuf_free_ooseq_pending, %object
 3217              		.size	pbuf_free_ooseq_pending, 1
 3218              	pbuf_free_ooseq_pending:
 3219 0000 00       		.space	1
 3220              		.text
 3221              	.Letext0:
 3222              		.file 4 "c:\\program files\\gnu tools arm embedded\\4.9 2014q4\\lib\\gcc\\arm-none-eabi\\4.9.3\\in
 3223              		.file 5 "c:\\program files\\gnu tools arm embedded\\4.9 2014q4\\arm-none-eabi\\include\\machine\\_
 3224              		.file 6 "c:\\program files\\gnu tools arm embedded\\4.9 2014q4\\arm-none-eabi\\include\\stdint.h"
 3225              		.file 7 "../../../os/rt/ports/ARMCMx/compilers/GCC/chtypes.h"
 3226              		.file 8 "../../../os/rt/include/chsystypes.h"
 3227              		.file 9 "../../../os/rt/include/chschd.h"
 3228              		.file 10 "../../../os/rt/ports/ARMCMx/chcore.h"
 3229              		.file 11 "../../../os/rt/ports/ARMCMx/chcore_v7m.h"
 3230              		.file 12 "../../../os/rt/include/chdebug.h"
 3231              		.file 13 "../../../os/rt/include/chtm.h"
 3232              		.file 14 "../../../os/rt/include/chsem.h"
 3233              		.file 15 "../../../os/rt/include/chmtx.h"
 3234              		.file 16 "../../../os/rt/include/chstreams.h"
 3235              		.file 17 "./ITM_trace.h"
 3236              		.file 18 "c:\\program files\\gnu tools arm embedded\\4.9 2014q4\\lib\\gcc\\arm-none-eabi\\4.9.3\\i
 3237              		.file 19 "<built-in>"
 3238              		.file 20 "../../../os/various/lwip_bindings/arch/cc.h"
 3239              		.file 21 "../../../ext/lwip/src/include/lwip/err.h"
 3240              		.file 22 "../../../ext/lwip/src/include/lwip/memp.h"
 3241              		.file 23 "../../../ext/lwip/src/include/lwip/pbuf.h"
 3242              		.file 24 "../../../ext/lwip/src/include/ipv4/lwip/ip_addr.h"
 3243              		.file 25 "../../../ext/lwip/src/include/lwip/tcp.h"
 3244              		.file 26 "../../../ext/lwip/src/include/lwip/tcp_impl.h"
 3245              		.file 27 "../../../ext/lwip/src/include/lwip/tcpip.h"
 3246              		.file 28 "../../../os/ext/CMSIS/include/core_cm4.h"
 3247              		.file 29 "../../../os/rt/include/chsys.h"
 3248              		.file 30 "c:\\program files\\gnu tools arm embedded\\4.9 2014q4\\arm-none-eabi\\include\\stdlib.h"
 3249              		.file 31 "c:\\program files\\gnu tools arm embedded\\4.9 2014q4\\arm-none-eabi\\include\\string.h"
 3250              		.section	.debug_info,"",%progbits
 3251              	.Ldebug_info0:
 3252 0000 83280000 		.4byte	0x2883
 3253 0004 0400     		.2byte	0x4
 3254 0006 00000000 		.4byte	.Ldebug_abbrev0
 3255 000a 04       		.byte	0x4
 3256 000b 01       		.uleb128 0x1
 3257 000c 87000000 		.4byte	.LASF316
 3258 0010 01       		.byte	0x1
 3259 0011 F3020000 		.4byte	.LASF317
 3260 0015 3E020000 		.4byte	.LASF318
 3261 0019 E0000000 		.4byte	.Ldebug_ranges0+0xe0
ARM GAS  C:\Users\jo\AppData\Local\Temp\ccDLAO0k.s 			page 61


 3262 001d 00000000 		.4byte	0
 3263 0021 00000000 		.4byte	.Ldebug_line0
 3264 0025 02       		.uleb128 0x2
 3265 0026 04       		.byte	0x4
 3266 0027 05       		.byte	0x5
 3267 0028 696E7400 		.ascii	"int\000"
 3268 002c 03       		.uleb128 0x3
 3269 002d 0D050000 		.4byte	.LASF1
 3270 0031 04       		.byte	0x4
 3271 0032 D4       		.byte	0xd4
 3272 0033 37000000 		.4byte	0x37
 3273 0037 04       		.uleb128 0x4
 3274 0038 04       		.byte	0x4
 3275 0039 07       		.byte	0x7
 3276 003a A5010000 		.4byte	.LASF0
 3277 003e 03       		.uleb128 0x3
 3278 003f 760D0000 		.4byte	.LASF2
 3279 0043 05       		.byte	0x5
 3280 0044 1B       		.byte	0x1b
 3281 0045 49000000 		.4byte	0x49
 3282 0049 04       		.uleb128 0x4
 3283 004a 01       		.byte	0x1
 3284 004b 06       		.byte	0x6
 3285 004c 320D0000 		.4byte	.LASF3
 3286 0050 03       		.uleb128 0x3
 3287 0051 D60A0000 		.4byte	.LASF4
 3288 0055 05       		.byte	0x5
 3289 0056 1D       		.byte	0x1d
 3290 0057 5B000000 		.4byte	0x5b
 3291 005b 04       		.uleb128 0x4
 3292 005c 01       		.byte	0x1
 3293 005d 08       		.byte	0x8
 3294 005e 080C0000 		.4byte	.LASF5
 3295 0062 03       		.uleb128 0x3
 3296 0063 E0070000 		.4byte	.LASF6
 3297 0067 05       		.byte	0x5
 3298 0068 29       		.byte	0x29
 3299 0069 6D000000 		.4byte	0x6d
 3300 006d 04       		.uleb128 0x4
 3301 006e 02       		.byte	0x2
 3302 006f 05       		.byte	0x5
 3303 0070 A3090000 		.4byte	.LASF7
 3304 0074 03       		.uleb128 0x3
 3305 0075 5A040000 		.4byte	.LASF8
 3306 0079 05       		.byte	0x5
 3307 007a 2B       		.byte	0x2b
 3308 007b 7F000000 		.4byte	0x7f
 3309 007f 04       		.uleb128 0x4
 3310 0080 02       		.byte	0x2
 3311 0081 07       		.byte	0x7
 3312 0082 460D0000 		.4byte	.LASF9
 3313 0086 03       		.uleb128 0x3
 3314 0087 19020000 		.4byte	.LASF10
 3315 008b 05       		.byte	0x5
 3316 008c 3F       		.byte	0x3f
 3317 008d 91000000 		.4byte	0x91
 3318 0091 04       		.uleb128 0x4
ARM GAS  C:\Users\jo\AppData\Local\Temp\ccDLAO0k.s 			page 62


 3319 0092 04       		.byte	0x4
 3320 0093 05       		.byte	0x5
 3321 0094 CA090000 		.4byte	.LASF11
 3322 0098 03       		.uleb128 0x3
 3323 0099 CD060000 		.4byte	.LASF12
 3324 009d 05       		.byte	0x5
 3325 009e 41       		.byte	0x41
 3326 009f A3000000 		.4byte	0xa3
 3327 00a3 04       		.uleb128 0x4
 3328 00a4 04       		.byte	0x4
 3329 00a5 07       		.byte	0x7
 3330 00a6 660B0000 		.4byte	.LASF13
 3331 00aa 04       		.uleb128 0x4
 3332 00ab 08       		.byte	0x8
 3333 00ac 05       		.byte	0x5
 3334 00ad 92060000 		.4byte	.LASF14
 3335 00b1 03       		.uleb128 0x3
 3336 00b2 75050000 		.4byte	.LASF15
 3337 00b6 05       		.byte	0x5
 3338 00b7 5B       		.byte	0x5b
 3339 00b8 BC000000 		.4byte	0xbc
 3340 00bc 04       		.uleb128 0x4
 3341 00bd 08       		.byte	0x8
 3342 00be 07       		.byte	0x7
 3343 00bf 25040000 		.4byte	.LASF16
 3344 00c3 03       		.uleb128 0x3
 3345 00c4 B7050000 		.4byte	.LASF17
 3346 00c8 06       		.byte	0x6
 3347 00c9 14       		.byte	0x14
 3348 00ca 3E000000 		.4byte	0x3e
 3349 00ce 03       		.uleb128 0x3
 3350 00cf DD060000 		.4byte	.LASF18
 3351 00d3 06       		.byte	0x6
 3352 00d4 15       		.byte	0x15
 3353 00d5 50000000 		.4byte	0x50
 3354 00d9 03       		.uleb128 0x3
 3355 00da 15040000 		.4byte	.LASF19
 3356 00de 06       		.byte	0x6
 3357 00df 20       		.byte	0x20
 3358 00e0 62000000 		.4byte	0x62
 3359 00e4 03       		.uleb128 0x3
 3360 00e5 16090000 		.4byte	.LASF20
 3361 00e9 06       		.byte	0x6
 3362 00ea 21       		.byte	0x21
 3363 00eb 74000000 		.4byte	0x74
 3364 00ef 03       		.uleb128 0x3
 3365 00f0 920B0000 		.4byte	.LASF21
 3366 00f4 06       		.byte	0x6
 3367 00f5 2C       		.byte	0x2c
 3368 00f6 86000000 		.4byte	0x86
 3369 00fa 03       		.uleb128 0x3
 3370 00fb 7A030000 		.4byte	.LASF22
 3371 00ff 06       		.byte	0x6
 3372 0100 2D       		.byte	0x2d
 3373 0101 98000000 		.4byte	0x98
 3374 0105 03       		.uleb128 0x3
 3375 0106 810A0000 		.4byte	.LASF23
ARM GAS  C:\Users\jo\AppData\Local\Temp\ccDLAO0k.s 			page 63


 3376 010a 06       		.byte	0x6
 3377 010b 39       		.byte	0x39
 3378 010c B1000000 		.4byte	0xb1
 3379 0110 05       		.uleb128 0x5
 3380 0111 EF000000 		.4byte	0xef
 3381 0115 03       		.uleb128 0x3
 3382 0116 52090000 		.4byte	.LASF24
 3383 011a 07       		.byte	0x7
 3384 011b 45       		.byte	0x45
 3385 011c FA000000 		.4byte	0xfa
 3386 0120 03       		.uleb128 0x3
 3387 0121 E7080000 		.4byte	.LASF25
 3388 0125 07       		.byte	0x7
 3389 0126 48       		.byte	0x48
 3390 0127 CE000000 		.4byte	0xce
 3391 012b 03       		.uleb128 0x3
 3392 012c 6D060000 		.4byte	.LASF26
 3393 0130 07       		.byte	0x7
 3394 0131 49       		.byte	0x49
 3395 0132 CE000000 		.4byte	0xce
 3396 0136 03       		.uleb128 0x3
 3397 0137 5E0B0000 		.4byte	.LASF27
 3398 013b 07       		.byte	0x7
 3399 013c 4A       		.byte	0x4a
 3400 013d CE000000 		.4byte	0xce
 3401 0141 03       		.uleb128 0x3
 3402 0142 EB030000 		.4byte	.LASF28
 3403 0146 07       		.byte	0x7
 3404 0147 4C       		.byte	0x4c
 3405 0148 FA000000 		.4byte	0xfa
 3406 014c 03       		.uleb128 0x3
 3407 014d BA070000 		.4byte	.LASF29
 3408 0151 07       		.byte	0x7
 3409 0152 4D       		.byte	0x4d
 3410 0153 EF000000 		.4byte	0xef
 3411 0157 03       		.uleb128 0x3
 3412 0158 95030000 		.4byte	.LASF30
 3413 015c 07       		.byte	0x7
 3414 015d 4F       		.byte	0x4f
 3415 015e FA000000 		.4byte	0xfa
 3416 0162 03       		.uleb128 0x3
 3417 0163 65040000 		.4byte	.LASF31
 3418 0167 07       		.byte	0x7
 3419 0168 51       		.byte	0x51
 3420 0169 EF000000 		.4byte	0xef
 3421 016d 03       		.uleb128 0x3
 3422 016e 81010000 		.4byte	.LASF32
 3423 0172 08       		.byte	0x8
 3424 0173 33       		.byte	0x33
 3425 0174 FA000000 		.4byte	0xfa
 3426 0178 03       		.uleb128 0x3
 3427 0179 DE040000 		.4byte	.LASF33
 3428 017d 08       		.byte	0x8
 3429 017e 3F       		.byte	0x3f
 3430 017f 83010000 		.4byte	0x183
 3431 0183 06       		.uleb128 0x6
 3432 0184 3A070000 		.4byte	.LASF54
ARM GAS  C:\Users\jo\AppData\Local\Temp\ccDLAO0k.s 			page 64


 3433 0188 48       		.byte	0x48
 3434 0189 09       		.byte	0x9
 3435 018a C2       		.byte	0xc2
 3436 018b 7C020000 		.4byte	0x27c
 3437 018f 07       		.uleb128 0x7
 3438 0190 E7040000 		.4byte	.LASF34
 3439 0194 09       		.byte	0x9
 3440 0195 C3       		.byte	0xc3
 3441 0196 87020000 		.4byte	0x287
 3442 019a 00       		.byte	0
 3443 019b 07       		.uleb128 0x7
 3444 019c 4E0B0000 		.4byte	.LASF35
 3445 01a0 09       		.byte	0x9
 3446 01a1 C5       		.byte	0xc5
 3447 01a2 87020000 		.4byte	0x287
 3448 01a6 04       		.byte	0x4
 3449 01a7 07       		.uleb128 0x7
 3450 01a8 72000000 		.4byte	.LASF36
 3451 01ac 09       		.byte	0x9
 3452 01ad C7       		.byte	0xc7
 3453 01ae 41010000 		.4byte	0x141
 3454 01b2 08       		.byte	0x8
 3455 01b3 07       		.uleb128 0x7
 3456 01b4 8A0A0000 		.4byte	.LASF37
 3457 01b8 09       		.byte	0x9
 3458 01b9 C8       		.byte	0xc8
 3459 01ba E2040000 		.4byte	0x4e2
 3460 01be 0C       		.byte	0xc
 3461 01bf 07       		.uleb128 0x7
 3462 01c0 87040000 		.4byte	.LASF38
 3463 01c4 09       		.byte	0x9
 3464 01c5 CA       		.byte	0xca
 3465 01c6 87020000 		.4byte	0x287
 3466 01ca 10       		.byte	0x10
 3467 01cb 07       		.uleb128 0x7
 3468 01cc B2060000 		.4byte	.LASF39
 3469 01d0 09       		.byte	0x9
 3470 01d1 CB       		.byte	0xcb
 3471 01d2 87020000 		.4byte	0x287
 3472 01d6 14       		.byte	0x14
 3473 01d7 07       		.uleb128 0x7
 3474 01d8 0F090000 		.4byte	.LASF40
 3475 01dc 09       		.byte	0x9
 3476 01dd D2       		.byte	0xd2
 3477 01de F4060000 		.4byte	0x6f4
 3478 01e2 18       		.byte	0x18
 3479 01e3 07       		.uleb128 0x7
 3480 01e4 C2060000 		.4byte	.LASF41
 3481 01e8 09       		.byte	0x9
 3482 01e9 D8       		.byte	0xd8
 3483 01ea 06070000 		.4byte	0x706
 3484 01ee 1C       		.byte	0x1c
 3485 01ef 07       		.uleb128 0x7
 3486 01f0 3B080000 		.4byte	.LASF42
 3487 01f4 09       		.byte	0x9
 3488 01f5 DD       		.byte	0xdd
 3489 01f6 2B010000 		.4byte	0x12b
ARM GAS  C:\Users\jo\AppData\Local\Temp\ccDLAO0k.s 			page 65


 3490 01fa 20       		.byte	0x20
 3491 01fb 07       		.uleb128 0x7
 3492 01fc D2070000 		.4byte	.LASF43
 3493 0200 09       		.byte	0x9
 3494 0201 E1       		.byte	0xe1
 3495 0202 20010000 		.4byte	0x120
 3496 0206 21       		.byte	0x21
 3497 0207 07       		.uleb128 0x7
 3498 0208 420C0000 		.4byte	.LASF44
 3499 020c 09       		.byte	0x9
 3500 020d E6       		.byte	0xe6
 3501 020e 36010000 		.4byte	0x136
 3502 0212 22       		.byte	0x22
 3503 0213 08       		.uleb128 0x8
 3504 0214 705F7500 		.ascii	"p_u\000"
 3505 0218 09       		.byte	0x9
 3506 0219 3101     		.2byte	0x131
 3507 021b 2F060000 		.4byte	0x62f
 3508 021f 24       		.byte	0x24
 3509 0220 09       		.uleb128 0x9
 3510 0221 0F020000 		.4byte	.LASF45
 3511 0225 09       		.byte	0x9
 3512 0226 3601     		.2byte	0x136
 3513 0228 8D020000 		.4byte	0x28d
 3514 022c 28       		.byte	0x28
 3515 022d 09       		.uleb128 0x9
 3516 022e 7F0D0000 		.4byte	.LASF46
 3517 0232 09       		.byte	0x9
 3518 0233 3C01     		.2byte	0x13c
 3519 0235 B1020000 		.4byte	0x2b1
 3520 0239 2C       		.byte	0x2c
 3521 023a 09       		.uleb128 0x9
 3522 023b C8080000 		.4byte	.LASF47
 3523 023f 09       		.byte	0x9
 3524 0240 4001     		.2byte	0x140
 3525 0242 4C010000 		.4byte	0x14c
 3526 0246 34       		.byte	0x34
 3527 0247 09       		.uleb128 0x9
 3528 0248 B7090000 		.4byte	.LASF48
 3529 024c 09       		.byte	0x9
 3530 024d 4601     		.2byte	0x146
 3531 024f 57010000 		.4byte	0x157
 3532 0253 38       		.byte	0x38
 3533 0254 09       		.uleb128 0x9
 3534 0255 0D070000 		.4byte	.LASF49
 3535 0259 09       		.byte	0x9
 3536 025a 4D01     		.2byte	0x14d
 3537 025c EE060000 		.4byte	0x6ee
 3538 0260 3C       		.byte	0x3c
 3539 0261 09       		.uleb128 0x9
 3540 0262 8B090000 		.4byte	.LASF50
 3541 0266 09       		.byte	0x9
 3542 0267 5101     		.2byte	0x151
 3543 0269 41010000 		.4byte	0x141
 3544 026d 40       		.byte	0x40
 3545 026e 09       		.uleb128 0x9
 3546 026f 05070000 		.4byte	.LASF51
ARM GAS  C:\Users\jo\AppData\Local\Temp\ccDLAO0k.s 			page 66


 3547 0273 09       		.byte	0x9
 3548 0274 5801     		.2byte	0x158
 3549 0276 64030000 		.4byte	0x364
 3550 027a 44       		.byte	0x44
 3551 027b 00       		.byte	0
 3552 027c 03       		.uleb128 0x3
 3553 027d 1F090000 		.4byte	.LASF52
 3554 0281 08       		.byte	0x8
 3555 0282 44       		.byte	0x44
 3556 0283 87020000 		.4byte	0x287
 3557 0287 0A       		.uleb128 0xa
 3558 0288 04       		.byte	0x4
 3559 0289 78010000 		.4byte	0x178
 3560 028d 03       		.uleb128 0x3
 3561 028e ED010000 		.4byte	.LASF53
 3562 0292 08       		.byte	0x8
 3563 0293 49       		.byte	0x49
 3564 0294 98020000 		.4byte	0x298
 3565 0298 06       		.uleb128 0x6
 3566 0299 00000000 		.4byte	.LASF55
 3567 029d 04       		.byte	0x4
 3568 029e 09       		.byte	0x9
 3569 029f B0       		.byte	0xb0
 3570 02a0 B1020000 		.4byte	0x2b1
 3571 02a4 07       		.uleb128 0x7
 3572 02a5 E7040000 		.4byte	.LASF34
 3573 02a9 09       		.byte	0x9
 3574 02aa B1       		.byte	0xb1
 3575 02ab 87020000 		.4byte	0x287
 3576 02af 00       		.byte	0
 3577 02b0 00       		.byte	0
 3578 02b1 03       		.uleb128 0x3
 3579 02b2 10000000 		.4byte	.LASF56
 3580 02b6 08       		.byte	0x8
 3581 02b7 50       		.byte	0x50
 3582 02b8 BC020000 		.4byte	0x2bc
 3583 02bc 06       		.uleb128 0x6
 3584 02bd 79070000 		.4byte	.LASF57
 3585 02c1 08       		.byte	0x8
 3586 02c2 09       		.byte	0x9
 3587 02c3 B7       		.byte	0xb7
 3588 02c4 E1020000 		.4byte	0x2e1
 3589 02c8 07       		.uleb128 0x7
 3590 02c9 E7040000 		.4byte	.LASF34
 3591 02cd 09       		.byte	0x9
 3592 02ce B8       		.byte	0xb8
 3593 02cf 87020000 		.4byte	0x287
 3594 02d3 00       		.byte	0
 3595 02d4 07       		.uleb128 0x7
 3596 02d5 4E0B0000 		.4byte	.LASF35
 3597 02d9 09       		.byte	0x9
 3598 02da B9       		.byte	0xb9
 3599 02db 87020000 		.4byte	0x287
 3600 02df 04       		.byte	0x4
 3601 02e0 00       		.byte	0
 3602 02e1 03       		.uleb128 0x3
 3603 02e2 780B0000 		.4byte	.LASF58
ARM GAS  C:\Users\jo\AppData\Local\Temp\ccDLAO0k.s 			page 67


 3604 02e6 08       		.byte	0x8
 3605 02e7 57       		.byte	0x57
 3606 02e8 EC020000 		.4byte	0x2ec
 3607 02ec 0B       		.uleb128 0xb
 3608 02ed B2020000 		.4byte	.LASF59
 3609 02f1 1C       		.byte	0x1c
 3610 02f2 09       		.byte	0x9
 3611 02f3 9001     		.2byte	0x190
 3612 02f5 48030000 		.4byte	0x348
 3613 02f9 09       		.uleb128 0x9
 3614 02fa 96070000 		.4byte	.LASF60
 3615 02fe 09       		.byte	0x9
 3616 02ff 9101     		.2byte	0x191
 3617 0301 B1020000 		.4byte	0x2b1
 3618 0305 00       		.byte	0
 3619 0306 09       		.uleb128 0x9
 3620 0307 FA0D0000 		.4byte	.LASF61
 3621 030b 09       		.byte	0x9
 3622 030c 9201     		.2byte	0x192
 3623 030e 41010000 		.4byte	0x141
 3624 0312 08       		.byte	0x8
 3625 0313 09       		.uleb128 0x9
 3626 0314 590D0000 		.4byte	.LASF62
 3627 0318 09       		.byte	0x9
 3628 0319 9401     		.2byte	0x194
 3629 031b E2040000 		.4byte	0x4e2
 3630 031f 0C       		.byte	0xc
 3631 0320 09       		.uleb128 0x9
 3632 0321 3C060000 		.4byte	.LASF63
 3633 0325 09       		.byte	0x9
 3634 0326 9701     		.2byte	0x197
 3635 0328 87020000 		.4byte	0x287
 3636 032c 10       		.byte	0x10
 3637 032d 09       		.uleb128 0x9
 3638 032e 66080000 		.4byte	.LASF64
 3639 0332 09       		.byte	0x9
 3640 0333 9801     		.2byte	0x198
 3641 0335 87020000 		.4byte	0x287
 3642 0339 14       		.byte	0x14
 3643 033a 09       		.uleb128 0x9
 3644 033b AD090000 		.4byte	.LASF65
 3645 033f 09       		.byte	0x9
 3646 0340 9B01     		.2byte	0x19b
 3647 0342 87020000 		.4byte	0x287
 3648 0346 18       		.byte	0x18
 3649 0347 00       		.byte	0
 3650 0348 03       		.uleb128 0x3
 3651 0349 15030000 		.4byte	.LASF66
 3652 034d 08       		.byte	0x8
 3653 034e 5C       		.byte	0x5c
 3654 034f 53030000 		.4byte	0x353
 3655 0353 0A       		.uleb128 0xa
 3656 0354 04       		.byte	0x4
 3657 0355 59030000 		.4byte	0x359
 3658 0359 0C       		.uleb128 0xc
 3659 035a 64030000 		.4byte	0x364
 3660 035e 0D       		.uleb128 0xd
ARM GAS  C:\Users\jo\AppData\Local\Temp\ccDLAO0k.s 			page 68


 3661 035f 64030000 		.4byte	0x364
 3662 0363 00       		.byte	0
 3663 0364 0E       		.uleb128 0xe
 3664 0365 04       		.byte	0x4
 3665 0366 03       		.uleb128 0x3
 3666 0367 EF070000 		.4byte	.LASF67
 3667 036b 08       		.byte	0x8
 3668 036c 61       		.byte	0x61
 3669 036d 71030000 		.4byte	0x371
 3670 0371 0B       		.uleb128 0xb
 3671 0372 04040000 		.4byte	.LASF68
 3672 0376 14       		.byte	0x14
 3673 0377 09       		.byte	0x9
 3674 0378 6B01     		.2byte	0x16b
 3675 037a C0030000 		.4byte	0x3c0
 3676 037e 09       		.uleb128 0x9
 3677 037f D70C0000 		.4byte	.LASF69
 3678 0383 09       		.byte	0x9
 3679 0384 6C01     		.2byte	0x16c
 3680 0386 0C070000 		.4byte	0x70c
 3681 038a 00       		.byte	0
 3682 038b 09       		.uleb128 0x9
 3683 038c A80D0000 		.4byte	.LASF70
 3684 0390 09       		.byte	0x9
 3685 0391 6D01     		.2byte	0x16d
 3686 0393 0C070000 		.4byte	0x70c
 3687 0397 04       		.byte	0x4
 3688 0398 09       		.uleb128 0x9
 3689 0399 12060000 		.4byte	.LASF71
 3690 039d 09       		.byte	0x9
 3691 039e 6E01     		.2byte	0x16e
 3692 03a0 6D010000 		.4byte	0x16d
 3693 03a4 08       		.byte	0x8
 3694 03a5 09       		.uleb128 0x9
 3695 03a6 A00D0000 		.4byte	.LASF72
 3696 03aa 09       		.byte	0x9
 3697 03ab 6F01     		.2byte	0x16f
 3698 03ad 48030000 		.4byte	0x348
 3699 03b1 0C       		.byte	0xc
 3700 03b2 09       		.uleb128 0x9
 3701 03b3 F70B0000 		.4byte	.LASF73
 3702 03b7 09       		.byte	0x9
 3703 03b8 7101     		.2byte	0x171
 3704 03ba 64030000 		.4byte	0x364
 3705 03be 10       		.byte	0x10
 3706 03bf 00       		.byte	0
 3707 03c0 03       		.uleb128 0x3
 3708 03c1 2C0C0000 		.4byte	.LASF74
 3709 03c5 08       		.byte	0x8
 3710 03c6 66       		.byte	0x66
 3711 03c7 CB030000 		.4byte	0x3cb
 3712 03cb 0B       		.uleb128 0xb
 3713 03cc 8F040000 		.4byte	.LASF75
 3714 03d0 10       		.byte	0x10
 3715 03d1 09       		.byte	0x9
 3716 03d2 7B01     		.2byte	0x17b
 3717 03d4 0D040000 		.4byte	0x40d
ARM GAS  C:\Users\jo\AppData\Local\Temp\ccDLAO0k.s 			page 69


 3718 03d8 09       		.uleb128 0x9
 3719 03d9 D70C0000 		.4byte	.LASF69
 3720 03dd 09       		.byte	0x9
 3721 03de 7C01     		.2byte	0x17c
 3722 03e0 0C070000 		.4byte	0x70c
 3723 03e4 00       		.byte	0
 3724 03e5 09       		.uleb128 0x9
 3725 03e6 A80D0000 		.4byte	.LASF70
 3726 03ea 09       		.byte	0x9
 3727 03eb 7E01     		.2byte	0x17e
 3728 03ed 0C070000 		.4byte	0x70c
 3729 03f1 04       		.byte	0x4
 3730 03f2 09       		.uleb128 0x9
 3731 03f3 12060000 		.4byte	.LASF71
 3732 03f7 09       		.byte	0x9
 3733 03f8 8001     		.2byte	0x180
 3734 03fa 6D010000 		.4byte	0x16d
 3735 03fe 08       		.byte	0x8
 3736 03ff 09       		.uleb128 0x9
 3737 0400 50060000 		.4byte	.LASF76
 3738 0404 09       		.byte	0x9
 3739 0405 8801     		.2byte	0x188
 3740 0407 6D010000 		.4byte	0x16d
 3741 040b 0C       		.byte	0xc
 3742 040c 00       		.byte	0
 3743 040d 03       		.uleb128 0x3
 3744 040e 5E070000 		.4byte	.LASF77
 3745 0412 08       		.byte	0x8
 3746 0413 6B       		.byte	0x6b
 3747 0414 18040000 		.4byte	0x418
 3748 0418 0F       		.uleb128 0xf
 3749 0419 25030000 		.4byte	.LASF78
 3750 041d 1404     		.2byte	0x414
 3751 041f 09       		.byte	0x9
 3752 0420 A201     		.2byte	0x1a2
 3753 0422 5B040000 		.4byte	0x45b
 3754 0426 09       		.uleb128 0x9
 3755 0427 560C0000 		.4byte	.LASF79
 3756 042b 09       		.byte	0x9
 3757 042c AA01     		.2byte	0x1aa
 3758 042e 12070000 		.4byte	0x712
 3759 0432 00       		.byte	0
 3760 0433 09       		.uleb128 0x9
 3761 0434 79040000 		.4byte	.LASF80
 3762 0438 09       		.byte	0x9
 3763 0439 AF01     		.2byte	0x1af
 3764 043b 62010000 		.4byte	0x162
 3765 043f 04       		.byte	0x4
 3766 0440 09       		.uleb128 0x9
 3767 0441 6F090000 		.4byte	.LASF81
 3768 0445 09       		.byte	0x9
 3769 0446 B301     		.2byte	0x1b3
 3770 0448 62010000 		.4byte	0x162
 3771 044c 08       		.byte	0x8
 3772 044d 09       		.uleb128 0x9
 3773 044e B20B0000 		.4byte	.LASF82
 3774 0452 09       		.byte	0x9
ARM GAS  C:\Users\jo\AppData\Local\Temp\ccDLAO0k.s 			page 70


 3775 0453 B901     		.2byte	0x1b9
 3776 0455 04060000 		.4byte	0x604
 3777 0459 0C       		.byte	0xc
 3778 045a 00       		.byte	0
 3779 045b 03       		.uleb128 0x3
 3780 045c F80C0000 		.4byte	.LASF83
 3781 0460 08       		.byte	0x8
 3782 0461 70       		.byte	0x70
 3783 0462 66040000 		.4byte	0x466
 3784 0466 0F       		.uleb128 0xf
 3785 0467 3B0A0000 		.4byte	.LASF84
 3786 046b 7005     		.2byte	0x570
 3787 046d 09       		.byte	0x9
 3788 046e C201     		.2byte	0x1c2
 3789 0470 C5040000 		.4byte	0x4c5
 3790 0474 09       		.uleb128 0x9
 3791 0475 900A0000 		.4byte	.LASF85
 3792 0479 09       		.byte	0x9
 3793 047a C601     		.2byte	0x1c6
 3794 047c E1020000 		.4byte	0x2e1
 3795 0480 00       		.byte	0
 3796 0481 09       		.uleb128 0x9
 3797 0482 98020000 		.4byte	.LASF86
 3798 0486 09       		.byte	0x9
 3799 0487 CA01     		.2byte	0x1ca
 3800 0489 C0030000 		.4byte	0x3c0
 3801 048d 1C       		.byte	0x1c
 3802 048e 08       		.uleb128 0x8
 3803 048f 64626700 		.ascii	"dbg\000"
 3804 0493 09       		.byte	0x9
 3805 0494 CE01     		.2byte	0x1ce
 3806 0496 0D040000 		.4byte	0x40d
 3807 049a 2C       		.byte	0x2c
 3808 049b 10       		.uleb128 0x10
 3809 049c 9B0C0000 		.4byte	.LASF87
 3810 04a0 09       		.byte	0x9
 3811 04a1 D201     		.2byte	0x1d2
 3812 04a3 78010000 		.4byte	0x178
 3813 04a7 4004     		.2byte	0x440
 3814 04a9 11       		.uleb128 0x11
 3815 04aa 746D00   		.ascii	"tm\000"
 3816 04ad 09       		.byte	0x9
 3817 04ae D701     		.2byte	0x1d7
 3818 04b0 24060000 		.4byte	0x624
 3819 04b4 8804     		.2byte	0x488
 3820 04b6 10       		.uleb128 0x10
 3821 04b7 C0020000 		.4byte	.LASF88
 3822 04bb 09       		.byte	0x9
 3823 04bc E301     		.2byte	0x1e3
 3824 04be 17070000 		.4byte	0x717
 3825 04c2 9004     		.2byte	0x490
 3826 04c4 00       		.byte	0
 3827 04c5 04       		.uleb128 0x4
 3828 04c6 04       		.byte	0x4
 3829 04c7 07       		.byte	0x7
 3830 04c8 550B0000 		.4byte	.LASF89
 3831 04cc 03       		.uleb128 0x3
ARM GAS  C:\Users\jo\AppData\Local\Temp\ccDLAO0k.s 			page 71


 3832 04cd 62000000 		.4byte	.LASF90
 3833 04d1 0A       		.byte	0xa
 3834 04d2 65       		.byte	0x65
 3835 04d3 64030000 		.4byte	0x364
 3836 04d7 03       		.uleb128 0x3
 3837 04d8 8B0C0000 		.4byte	.LASF91
 3838 04dc 0A       		.byte	0xa
 3839 04dd 6D       		.byte	0x6d
 3840 04de 05010000 		.4byte	0x105
 3841 04e2 06       		.uleb128 0x6
 3842 04e3 B2080000 		.4byte	.LASF92
 3843 04e7 04       		.byte	0x4
 3844 04e8 0A       		.byte	0xa
 3845 04e9 89       		.byte	0x89
 3846 04ea FB040000 		.4byte	0x4fb
 3847 04ee 12       		.uleb128 0x12
 3848 04ef 72313300 		.ascii	"r13\000"
 3849 04f3 0A       		.byte	0xa
 3850 04f4 8A       		.byte	0x8a
 3851 04f5 76050000 		.4byte	0x576
 3852 04f9 00       		.byte	0
 3853 04fa 00       		.byte	0
 3854 04fb 06       		.uleb128 0x6
 3855 04fc D3090000 		.4byte	.LASF93
 3856 0500 24       		.byte	0x24
 3857 0501 0B       		.byte	0xb
 3858 0502 F4       		.byte	0xf4
 3859 0503 76050000 		.4byte	0x576
 3860 0507 08       		.uleb128 0x8
 3861 0508 723400   		.ascii	"r4\000"
 3862 050b 0B       		.byte	0xb
 3863 050c 0701     		.2byte	0x107
 3864 050e CC040000 		.4byte	0x4cc
 3865 0512 00       		.byte	0
 3866 0513 08       		.uleb128 0x8
 3867 0514 723500   		.ascii	"r5\000"
 3868 0517 0B       		.byte	0xb
 3869 0518 0801     		.2byte	0x108
 3870 051a CC040000 		.4byte	0x4cc
 3871 051e 04       		.byte	0x4
 3872 051f 08       		.uleb128 0x8
 3873 0520 723600   		.ascii	"r6\000"
 3874 0523 0B       		.byte	0xb
 3875 0524 0901     		.2byte	0x109
 3876 0526 CC040000 		.4byte	0x4cc
 3877 052a 08       		.byte	0x8
 3878 052b 08       		.uleb128 0x8
 3879 052c 723700   		.ascii	"r7\000"
 3880 052f 0B       		.byte	0xb
 3881 0530 0A01     		.2byte	0x10a
 3882 0532 CC040000 		.4byte	0x4cc
 3883 0536 0C       		.byte	0xc
 3884 0537 08       		.uleb128 0x8
 3885 0538 723800   		.ascii	"r8\000"
 3886 053b 0B       		.byte	0xb
 3887 053c 0B01     		.2byte	0x10b
 3888 053e CC040000 		.4byte	0x4cc
ARM GAS  C:\Users\jo\AppData\Local\Temp\ccDLAO0k.s 			page 72


 3889 0542 10       		.byte	0x10
 3890 0543 08       		.uleb128 0x8
 3891 0544 723900   		.ascii	"r9\000"
 3892 0547 0B       		.byte	0xb
 3893 0548 0C01     		.2byte	0x10c
 3894 054a CC040000 		.4byte	0x4cc
 3895 054e 14       		.byte	0x14
 3896 054f 08       		.uleb128 0x8
 3897 0550 72313000 		.ascii	"r10\000"
 3898 0554 0B       		.byte	0xb
 3899 0555 0D01     		.2byte	0x10d
 3900 0557 CC040000 		.4byte	0x4cc
 3901 055b 18       		.byte	0x18
 3902 055c 08       		.uleb128 0x8
 3903 055d 72313100 		.ascii	"r11\000"
 3904 0561 0B       		.byte	0xb
 3905 0562 0E01     		.2byte	0x10e
 3906 0564 CC040000 		.4byte	0x4cc
 3907 0568 1C       		.byte	0x1c
 3908 0569 08       		.uleb128 0x8
 3909 056a 6C7200   		.ascii	"lr\000"
 3910 056d 0B       		.byte	0xb
 3911 056e 0F01     		.2byte	0x10f
 3912 0570 CC040000 		.4byte	0x4cc
 3913 0574 20       		.byte	0x20
 3914 0575 00       		.byte	0
 3915 0576 0A       		.uleb128 0xa
 3916 0577 04       		.byte	0x4
 3917 0578 FB040000 		.4byte	0x4fb
 3918 057c 13       		.uleb128 0x13
 3919 057d 10       		.byte	0x10
 3920 057e 0C       		.byte	0xc
 3921 057f 51       		.byte	0x51
 3922 0580 B5050000 		.4byte	0x5b5
 3923 0584 07       		.uleb128 0x7
 3924 0585 BA060000 		.4byte	.LASF94
 3925 0589 0C       		.byte	0xc
 3926 058a 55       		.byte	0x55
 3927 058b 6D010000 		.4byte	0x16d
 3928 058f 00       		.byte	0
 3929 0590 07       		.uleb128 0x7
 3930 0591 76060000 		.4byte	.LASF95
 3931 0595 0C       		.byte	0xc
 3932 0596 59       		.byte	0x59
 3933 0597 87020000 		.4byte	0x287
 3934 059b 04       		.byte	0x4
 3935 059c 07       		.uleb128 0x7
 3936 059d 3C040000 		.4byte	.LASF96
 3937 05a1 0C       		.byte	0xc
 3938 05a2 5D       		.byte	0x5d
 3939 05a3 64030000 		.4byte	0x364
 3940 05a7 08       		.byte	0x8
 3941 05a8 07       		.uleb128 0x7
 3942 05a9 23020000 		.4byte	.LASF97
 3943 05ad 0C       		.byte	0xc
 3944 05ae 61       		.byte	0x61
 3945 05af CE000000 		.4byte	0xce
ARM GAS  C:\Users\jo\AppData\Local\Temp\ccDLAO0k.s 			page 73


 3946 05b3 0C       		.byte	0xc
 3947 05b4 00       		.byte	0
 3948 05b5 03       		.uleb128 0x3
 3949 05b6 C60B0000 		.4byte	.LASF98
 3950 05ba 0C       		.byte	0xc
 3951 05bb 62       		.byte	0x62
 3952 05bc 7C050000 		.4byte	0x57c
 3953 05c0 14       		.uleb128 0x14
 3954 05c1 0804     		.2byte	0x408
 3955 05c3 0C       		.byte	0xc
 3956 05c4 67       		.byte	0x67
 3957 05c5 EE050000 		.4byte	0x5ee
 3958 05c9 07       		.uleb128 0x7
 3959 05ca 44070000 		.4byte	.LASF99
 3960 05ce 0C       		.byte	0xc
 3961 05cf 6B       		.byte	0x6b
 3962 05d0 37000000 		.4byte	0x37
 3963 05d4 00       		.byte	0
 3964 05d5 07       		.uleb128 0x7
 3965 05d6 4B080000 		.4byte	.LASF100
 3966 05da 0C       		.byte	0xc
 3967 05db 6F       		.byte	0x6f
 3968 05dc EE050000 		.4byte	0x5ee
 3969 05e0 04       		.byte	0x4
 3970 05e1 07       		.uleb128 0x7
 3971 05e2 E5060000 		.4byte	.LASF101
 3972 05e6 0C       		.byte	0xc
 3973 05e7 73       		.byte	0x73
 3974 05e8 F4050000 		.4byte	0x5f4
 3975 05ec 08       		.byte	0x8
 3976 05ed 00       		.byte	0
 3977 05ee 0A       		.uleb128 0xa
 3978 05ef 04       		.byte	0x4
 3979 05f0 B5050000 		.4byte	0x5b5
 3980 05f4 15       		.uleb128 0x15
 3981 05f5 B5050000 		.4byte	0x5b5
 3982 05f9 04060000 		.4byte	0x604
 3983 05fd 16       		.uleb128 0x16
 3984 05fe C5040000 		.4byte	0x4c5
 3985 0602 3F       		.byte	0x3f
 3986 0603 00       		.byte	0
 3987 0604 03       		.uleb128 0x3
 3988 0605 190D0000 		.4byte	.LASF102
 3989 0609 0C       		.byte	0xc
 3990 060a 74       		.byte	0x74
 3991 060b C0050000 		.4byte	0x5c0
 3992 060f 13       		.uleb128 0x13
 3993 0610 04       		.byte	0x4
 3994 0611 0D       		.byte	0xd
 3995 0612 38       		.byte	0x38
 3996 0613 24060000 		.4byte	0x624
 3997 0617 07       		.uleb128 0x7
 3998 0618 46040000 		.4byte	.LASF103
 3999 061c 0D       		.byte	0xd
 4000 061d 3C       		.byte	0x3c
 4001 061e 15010000 		.4byte	0x115
 4002 0622 00       		.byte	0
ARM GAS  C:\Users\jo\AppData\Local\Temp\ccDLAO0k.s 			page 74


 4003 0623 00       		.byte	0
 4004 0624 03       		.uleb128 0x3
 4005 0625 CE080000 		.4byte	.LASF104
 4006 0629 0D       		.byte	0xd
 4007 062a 3D       		.byte	0x3d
 4008 062b 0F060000 		.4byte	0x60f
 4009 062f 17       		.uleb128 0x17
 4010 0630 04       		.byte	0x4
 4011 0631 09       		.byte	0x9
 4012 0632 FA       		.byte	0xfa
 4013 0633 8C060000 		.4byte	0x68c
 4014 0637 18       		.uleb128 0x18
 4015 0638 14050000 		.4byte	.LASF105
 4016 063c 09       		.byte	0x9
 4017 063d 0101     		.2byte	0x101
 4018 063f 4C010000 		.4byte	0x14c
 4019 0643 18       		.uleb128 0x18
 4020 0644 0B0E0000 		.4byte	.LASF106
 4021 0648 09       		.byte	0x9
 4022 0649 0801     		.2byte	0x108
 4023 064b 4C010000 		.4byte	0x14c
 4024 064f 18       		.uleb128 0x18
 4025 0650 1E030000 		.4byte	.LASF107
 4026 0654 09       		.byte	0x9
 4027 0655 0F01     		.2byte	0x10f
 4028 0657 64030000 		.4byte	0x364
 4029 065b 18       		.uleb128 0x18
 4030 065c 040D0000 		.4byte	.LASF108
 4031 0660 09       		.byte	0x9
 4032 0661 1601     		.2byte	0x116
 4033 0663 8C060000 		.4byte	0x68c
 4034 0667 18       		.uleb128 0x18
 4035 0668 BF0B0000 		.4byte	.LASF109
 4036 066c 09       		.byte	0x9
 4037 066d 1E01     		.2byte	0x11e
 4038 066f B7060000 		.4byte	0x6b7
 4039 0673 18       		.uleb128 0x18
 4040 0674 2D000000 		.4byte	.LASF110
 4041 0678 09       		.byte	0x9
 4042 0679 2701     		.2byte	0x127
 4043 067b EE060000 		.4byte	0x6ee
 4044 067f 18       		.uleb128 0x18
 4045 0680 CF020000 		.4byte	.LASF111
 4046 0684 09       		.byte	0x9
 4047 0685 2F01     		.2byte	0x12f
 4048 0687 57010000 		.4byte	0x157
 4049 068b 00       		.byte	0
 4050 068c 0A       		.uleb128 0xa
 4051 068d 04       		.byte	0x4
 4052 068e 7C020000 		.4byte	0x27c
 4053 0692 06       		.uleb128 0x6
 4054 0693 D7030000 		.4byte	.LASF112
 4055 0697 0C       		.byte	0xc
 4056 0698 0E       		.byte	0xe
 4057 0699 34       		.byte	0x34
 4058 069a B7060000 		.4byte	0x6b7
 4059 069e 07       		.uleb128 0x7
ARM GAS  C:\Users\jo\AppData\Local\Temp\ccDLAO0k.s 			page 75


 4060 069f 93010000 		.4byte	.LASF113
 4061 06a3 0E       		.byte	0xe
 4062 06a4 35       		.byte	0x35
 4063 06a5 B1020000 		.4byte	0x2b1
 4064 06a9 00       		.byte	0
 4065 06aa 07       		.uleb128 0x7
 4066 06ab 81040000 		.4byte	.LASF114
 4067 06af 0E       		.byte	0xe
 4068 06b0 37       		.byte	0x37
 4069 06b1 62010000 		.4byte	0x162
 4070 06b5 08       		.byte	0x8
 4071 06b6 00       		.byte	0
 4072 06b7 0A       		.uleb128 0xa
 4073 06b8 04       		.byte	0x4
 4074 06b9 92060000 		.4byte	0x692
 4075 06bd 06       		.uleb128 0x6
 4076 06be 67050000 		.4byte	.LASF115
 4077 06c2 10       		.byte	0x10
 4078 06c3 0F       		.byte	0xf
 4079 06c4 39       		.byte	0x39
 4080 06c5 EE060000 		.4byte	0x6ee
 4081 06c9 07       		.uleb128 0x7
 4082 06ca C2090000 		.4byte	.LASF116
 4083 06ce 0F       		.byte	0xf
 4084 06cf 3A       		.byte	0x3a
 4085 06d0 B1020000 		.4byte	0x2b1
 4086 06d4 00       		.byte	0
 4087 06d5 07       		.uleb128 0x7
 4088 06d6 8B010000 		.4byte	.LASF117
 4089 06da 0F       		.byte	0xf
 4090 06db 3C       		.byte	0x3c
 4091 06dc 87020000 		.4byte	0x287
 4092 06e0 08       		.byte	0x8
 4093 06e1 07       		.uleb128 0x7
 4094 06e2 2B0D0000 		.4byte	.LASF118
 4095 06e6 0F       		.byte	0xf
 4096 06e7 3E       		.byte	0x3e
 4097 06e8 32070000 		.4byte	0x732
 4098 06ec 0C       		.byte	0xc
 4099 06ed 00       		.byte	0
 4100 06ee 0A       		.uleb128 0xa
 4101 06ef 04       		.byte	0x4
 4102 06f0 BD060000 		.4byte	0x6bd
 4103 06f4 0A       		.uleb128 0xa
 4104 06f5 04       		.byte	0x4
 4105 06f6 FA060000 		.4byte	0x6fa
 4106 06fa 19       		.uleb128 0x19
 4107 06fb FF060000 		.4byte	0x6ff
 4108 06ff 04       		.uleb128 0x4
 4109 0700 01       		.byte	0x1
 4110 0701 08       		.byte	0x8
 4111 0702 53000000 		.4byte	.LASF119
 4112 0706 0A       		.uleb128 0xa
 4113 0707 04       		.byte	0x4
 4114 0708 D7040000 		.4byte	0x4d7
 4115 070c 0A       		.uleb128 0xa
 4116 070d 04       		.byte	0x4
ARM GAS  C:\Users\jo\AppData\Local\Temp\ccDLAO0k.s 			page 76


 4117 070e 66030000 		.4byte	0x366
 4118 0712 05       		.uleb128 0x5
 4119 0713 F4060000 		.4byte	0x6f4
 4120 0717 15       		.uleb128 0x15
 4121 0718 D7040000 		.4byte	0x4d7
 4122 071c 27070000 		.4byte	0x727
 4123 0720 16       		.uleb128 0x16
 4124 0721 C5040000 		.4byte	0x4c5
 4125 0725 1B       		.byte	0x1b
 4126 0726 00       		.byte	0
 4127 0727 03       		.uleb128 0x3
 4128 0728 DD0B0000 		.4byte	.LASF120
 4129 072c 0F       		.byte	0xf
 4130 072d 34       		.byte	0x34
 4131 072e BD060000 		.4byte	0x6bd
 4132 0732 0A       		.uleb128 0xa
 4133 0733 04       		.byte	0x4
 4134 0734 27070000 		.4byte	0x727
 4135 0738 0A       		.uleb128 0xa
 4136 0739 04       		.byte	0x4
 4137 073a CE000000 		.4byte	0xce
 4138 073e 06       		.uleb128 0x6
 4139 073f D5010000 		.4byte	.LASF121
 4140 0743 10       		.byte	0x10
 4141 0744 10       		.byte	0x10
 4142 0745 40       		.byte	0x40
 4143 0746 7B070000 		.4byte	0x77b
 4144 074a 07       		.uleb128 0x7
 4145 074b 8A070000 		.4byte	.LASF122
 4146 074f 10       		.byte	0x10
 4147 0750 41       		.byte	0x41
 4148 0751 9F070000 		.4byte	0x79f
 4149 0755 00       		.byte	0
 4150 0756 07       		.uleb128 0x7
 4151 0757 F80A0000 		.4byte	.LASF123
 4152 075b 10       		.byte	0x10
 4153 075c 41       		.byte	0x41
 4154 075d BE070000 		.4byte	0x7be
 4155 0761 04       		.byte	0x4
 4156 0762 12       		.uleb128 0x12
 4157 0763 70757400 		.ascii	"put\000"
 4158 0767 10       		.byte	0x10
 4159 0768 41       		.byte	0x41
 4160 0769 D8070000 		.4byte	0x7d8
 4161 076d 08       		.byte	0x8
 4162 076e 12       		.uleb128 0x12
 4163 076f 67657400 		.ascii	"get\000"
 4164 0773 10       		.byte	0x10
 4165 0774 41       		.byte	0x41
 4166 0775 ED070000 		.4byte	0x7ed
 4167 0779 0C       		.byte	0xc
 4168 077a 00       		.byte	0
 4169 077b 1A       		.uleb128 0x1a
 4170 077c 2C000000 		.4byte	0x2c
 4171 0780 94070000 		.4byte	0x794
 4172 0784 0D       		.uleb128 0xd
 4173 0785 64030000 		.4byte	0x364
ARM GAS  C:\Users\jo\AppData\Local\Temp\ccDLAO0k.s 			page 77


 4174 0789 0D       		.uleb128 0xd
 4175 078a 94070000 		.4byte	0x794
 4176 078e 0D       		.uleb128 0xd
 4177 078f 2C000000 		.4byte	0x2c
 4178 0793 00       		.byte	0
 4179 0794 0A       		.uleb128 0xa
 4180 0795 04       		.byte	0x4
 4181 0796 9A070000 		.4byte	0x79a
 4182 079a 19       		.uleb128 0x19
 4183 079b CE000000 		.4byte	0xce
 4184 079f 0A       		.uleb128 0xa
 4185 07a0 04       		.byte	0x4
 4186 07a1 7B070000 		.4byte	0x77b
 4187 07a5 1A       		.uleb128 0x1a
 4188 07a6 2C000000 		.4byte	0x2c
 4189 07aa BE070000 		.4byte	0x7be
 4190 07ae 0D       		.uleb128 0xd
 4191 07af 64030000 		.4byte	0x364
 4192 07b3 0D       		.uleb128 0xd
 4193 07b4 38070000 		.4byte	0x738
 4194 07b8 0D       		.uleb128 0xd
 4195 07b9 2C000000 		.4byte	0x2c
 4196 07bd 00       		.byte	0
 4197 07be 0A       		.uleb128 0xa
 4198 07bf 04       		.byte	0x4
 4199 07c0 A5070000 		.4byte	0x7a5
 4200 07c4 1A       		.uleb128 0x1a
 4201 07c5 4C010000 		.4byte	0x14c
 4202 07c9 D8070000 		.4byte	0x7d8
 4203 07cd 0D       		.uleb128 0xd
 4204 07ce 64030000 		.4byte	0x364
 4205 07d2 0D       		.uleb128 0xd
 4206 07d3 CE000000 		.4byte	0xce
 4207 07d7 00       		.byte	0
 4208 07d8 0A       		.uleb128 0xa
 4209 07d9 04       		.byte	0x4
 4210 07da C4070000 		.4byte	0x7c4
 4211 07de 1A       		.uleb128 0x1a
 4212 07df 4C010000 		.4byte	0x14c
 4213 07e3 ED070000 		.4byte	0x7ed
 4214 07e7 0D       		.uleb128 0xd
 4215 07e8 64030000 		.4byte	0x364
 4216 07ec 00       		.byte	0
 4217 07ed 0A       		.uleb128 0xa
 4218 07ee 04       		.byte	0x4
 4219 07ef DE070000 		.4byte	0x7de
 4220 07f3 13       		.uleb128 0x13
 4221 07f4 04       		.byte	0x4
 4222 07f5 10       		.byte	0x10
 4223 07f6 49       		.byte	0x49
 4224 07f7 08080000 		.4byte	0x808
 4225 07fb 12       		.uleb128 0x12
 4226 07fc 766D7400 		.ascii	"vmt\000"
 4227 0800 10       		.byte	0x10
 4228 0801 4B       		.byte	0x4b
 4229 0802 08080000 		.4byte	0x808
 4230 0806 00       		.byte	0
ARM GAS  C:\Users\jo\AppData\Local\Temp\ccDLAO0k.s 			page 78


 4231 0807 00       		.byte	0
 4232 0808 0A       		.uleb128 0xa
 4233 0809 04       		.byte	0x4
 4234 080a 0E080000 		.4byte	0x80e
 4235 080e 19       		.uleb128 0x19
 4236 080f 3E070000 		.4byte	0x73e
 4237 0813 03       		.uleb128 0x3
 4238 0814 CB050000 		.4byte	.LASF124
 4239 0818 10       		.byte	0x10
 4240 0819 4D       		.byte	0x4d
 4241 081a F3070000 		.4byte	0x7f3
 4242 081e 04       		.uleb128 0x4
 4243 081f 01       		.byte	0x1
 4244 0820 02       		.byte	0x2
 4245 0821 4F050000 		.4byte	.LASF125
 4246 0825 06       		.uleb128 0x6
 4247 0826 0B080000 		.4byte	.LASF126
 4248 082a 10       		.byte	0x10
 4249 082b 11       		.byte	0x11
 4250 082c 2E       		.byte	0x2e
 4251 082d 62080000 		.4byte	0x862
 4252 0831 07       		.uleb128 0x7
 4253 0832 8A070000 		.4byte	.LASF122
 4254 0836 11       		.byte	0x11
 4255 0837 2F       		.byte	0x2f
 4256 0838 9F070000 		.4byte	0x79f
 4257 083c 00       		.byte	0
 4258 083d 07       		.uleb128 0x7
 4259 083e F80A0000 		.4byte	.LASF123
 4260 0842 11       		.byte	0x11
 4261 0843 2F       		.byte	0x2f
 4262 0844 BE070000 		.4byte	0x7be
 4263 0848 04       		.byte	0x4
 4264 0849 12       		.uleb128 0x12
 4265 084a 70757400 		.ascii	"put\000"
 4266 084e 11       		.byte	0x11
 4267 084f 2F       		.byte	0x2f
 4268 0850 D8070000 		.4byte	0x7d8
 4269 0854 08       		.byte	0x8
 4270 0855 12       		.uleb128 0x12
 4271 0856 67657400 		.ascii	"get\000"
 4272 085a 11       		.byte	0x11
 4273 085b 2F       		.byte	0x2f
 4274 085c ED070000 		.4byte	0x7ed
 4275 0860 0C       		.byte	0xc
 4276 0861 00       		.byte	0
 4277 0862 13       		.uleb128 0x13
 4278 0863 04       		.byte	0x4
 4279 0864 11       		.byte	0x11
 4280 0865 39       		.byte	0x39
 4281 0866 77080000 		.4byte	0x877
 4282 086a 12       		.uleb128 0x12
 4283 086b 766D7400 		.ascii	"vmt\000"
 4284 086f 11       		.byte	0x11
 4285 0870 3B       		.byte	0x3b
 4286 0871 77080000 		.4byte	0x877
 4287 0875 00       		.byte	0
ARM GAS  C:\Users\jo\AppData\Local\Temp\ccDLAO0k.s 			page 79


 4288 0876 00       		.byte	0
 4289 0877 0A       		.uleb128 0xa
 4290 0878 04       		.byte	0x4
 4291 0879 7D080000 		.4byte	0x87d
 4292 087d 19       		.uleb128 0x19
 4293 087e 25080000 		.4byte	0x825
 4294 0882 03       		.uleb128 0x3
 4295 0883 9E080000 		.4byte	.LASF127
 4296 0887 11       		.byte	0x11
 4297 0888 3D       		.byte	0x3d
 4298 0889 62080000 		.4byte	0x862
 4299 088d 03       		.uleb128 0x3
 4300 088e EE040000 		.4byte	.LASF128
 4301 0892 12       		.byte	0x12
 4302 0893 28       		.byte	0x28
 4303 0894 98080000 		.4byte	0x898
 4304 0898 06       		.uleb128 0x6
 4305 0899 0A0D0000 		.4byte	.LASF129
 4306 089d 04       		.byte	0x4
 4307 089e 13       		.byte	0x13
 4308 089f 00       		.byte	0
 4309 08a0 AF080000 		.4byte	0x8af
 4310 08a4 1B       		.uleb128 0x1b
 4311 08a5 EA070000 		.4byte	.LASF130
 4312 08a9 64030000 		.4byte	0x364
 4313 08ad 00       		.byte	0
 4314 08ae 00       		.byte	0
 4315 08af 03       		.uleb128 0x3
 4316 08b0 56070000 		.4byte	.LASF131
 4317 08b4 12       		.byte	0x12
 4318 08b5 62       		.byte	0x62
 4319 08b6 8D080000 		.4byte	0x88d
 4320 08ba 03       		.uleb128 0x3
 4321 08bb CD070000 		.4byte	.LASF132
 4322 08bf 14       		.byte	0x14
 4323 08c0 3F       		.byte	0x3f
 4324 08c1 CE000000 		.4byte	0xce
 4325 08c5 03       		.uleb128 0x3
 4326 08c6 89050000 		.4byte	.LASF133
 4327 08ca 14       		.byte	0x14
 4328 08cb 40       		.byte	0x40
 4329 08cc C3000000 		.4byte	0xc3
 4330 08d0 03       		.uleb128 0x3
 4331 08d1 2C020000 		.4byte	.LASF134
 4332 08d5 14       		.byte	0x14
 4333 08d6 41       		.byte	0x41
 4334 08d7 E4000000 		.4byte	0xe4
 4335 08db 03       		.uleb128 0x3
 4336 08dc 8C0B0000 		.4byte	.LASF135
 4337 08e0 14       		.byte	0x14
 4338 08e1 42       		.byte	0x42
 4339 08e2 D9000000 		.4byte	0xd9
 4340 08e6 03       		.uleb128 0x3
 4341 08e7 9D090000 		.4byte	.LASF136
 4342 08eb 14       		.byte	0x14
 4343 08ec 43       		.byte	0x43
 4344 08ed FA000000 		.4byte	0xfa
ARM GAS  C:\Users\jo\AppData\Local\Temp\ccDLAO0k.s 			page 80


 4345 08f1 03       		.uleb128 0x3
 4346 08f2 8E050000 		.4byte	.LASF137
 4347 08f6 14       		.byte	0x14
 4348 08f7 44       		.byte	0x44
 4349 08f8 EF000000 		.4byte	0xef
 4350 08fc 03       		.uleb128 0x3
 4351 08fd CC0A0000 		.4byte	.LASF138
 4352 0901 14       		.byte	0x14
 4353 0902 46       		.byte	0x46
 4354 0903 FA000000 		.4byte	0xfa
 4355 0907 0A       		.uleb128 0xa
 4356 0908 04       		.byte	0x4
 4357 0909 0D090000 		.4byte	0x90d
 4358 090d 1C       		.uleb128 0x1c
 4359 090e 1D       		.uleb128 0x1d
 4360 090f 01       		.byte	0x1
 4361 0910 16       		.byte	0x16
 4362 0911 2B       		.byte	0x2b
 4363 0912 6B090000 		.4byte	0x96b
 4364 0916 1E       		.uleb128 0x1e
 4365 0917 02020000 		.4byte	.LASF139
 4366 091b 00       		.sleb128 0
 4367 091c 1E       		.uleb128 0x1e
 4368 091d C0070000 		.4byte	.LASF140
 4369 0921 01       		.sleb128 1
 4370 0922 1E       		.uleb128 0x1e
 4371 0923 34000000 		.4byte	.LASF141
 4372 0927 02       		.sleb128 2
 4373 0928 1E       		.uleb128 0x1e
 4374 0929 490C0000 		.4byte	.LASF142
 4375 092d 03       		.sleb128 3
 4376 092e 1E       		.uleb128 0x1e
 4377 092f 6E080000 		.4byte	.LASF143
 4378 0933 04       		.sleb128 4
 4379 0934 1E       		.uleb128 0x1e
 4380 0935 120B0000 		.4byte	.LASF144
 4381 0939 05       		.sleb128 5
 4382 093a 1E       		.uleb128 0x1e
 4383 093b 6D070000 		.4byte	.LASF145
 4384 093f 06       		.sleb128 6
 4385 0940 1E       		.uleb128 0x1e
 4386 0941 83030000 		.4byte	.LASF146
 4387 0945 07       		.sleb128 7
 4388 0946 1E       		.uleb128 0x1e
 4389 0947 B2030000 		.4byte	.LASF147
 4390 094b 08       		.sleb128 8
 4391 094c 1E       		.uleb128 0x1e
 4392 094d AE040000 		.4byte	.LASF148
 4393 0951 09       		.sleb128 9
 4394 0952 1E       		.uleb128 0x1e
 4395 0953 450A0000 		.4byte	.LASF149
 4396 0957 0A       		.sleb128 10
 4397 0958 1E       		.uleb128 0x1e
 4398 0959 FA050000 		.4byte	.LASF150
 4399 095d 0B       		.sleb128 11
 4400 095e 1E       		.uleb128 0x1e
 4401 095f E4020000 		.4byte	.LASF151
ARM GAS  C:\Users\jo\AppData\Local\Temp\ccDLAO0k.s 			page 81


 4402 0963 0C       		.sleb128 12
 4403 0964 1E       		.uleb128 0x1e
 4404 0965 80050000 		.4byte	.LASF152
 4405 0969 0D       		.sleb128 13
 4406 096a 00       		.byte	0
 4407 096b 03       		.uleb128 0x3
 4408 096c FC010000 		.4byte	.LASF153
 4409 0970 15       		.byte	0x15
 4410 0971 2F       		.byte	0x2f
 4411 0972 C5080000 		.4byte	0x8c5
 4412 0976 1D       		.uleb128 0x1d
 4413 0977 01       		.byte	0x1
 4414 0978 17       		.byte	0x17
 4415 0979 32       		.byte	0x32
 4416 097a 97090000 		.4byte	0x997
 4417 097e 1E       		.uleb128 0x1e
 4418 097f 48030000 		.4byte	.LASF154
 4419 0983 00       		.sleb128 0
 4420 0984 1E       		.uleb128 0x1e
 4421 0985 23050000 		.4byte	.LASF155
 4422 0989 01       		.sleb128 1
 4423 098a 1E       		.uleb128 0x1e
 4424 098b A8080000 		.4byte	.LASF156
 4425 098f 02       		.sleb128 2
 4426 0990 1E       		.uleb128 0x1e
 4427 0991 37090000 		.4byte	.LASF157
 4428 0995 03       		.sleb128 3
 4429 0996 00       		.byte	0
 4430 0997 03       		.uleb128 0x3
 4431 0998 9A0B0000 		.4byte	.LASF158
 4432 099c 17       		.byte	0x17
 4433 099d 37       		.byte	0x37
 4434 099e 76090000 		.4byte	0x976
 4435 09a2 1D       		.uleb128 0x1d
 4436 09a3 01       		.byte	0x1
 4437 09a4 17       		.byte	0x17
 4438 09a5 39       		.byte	0x39
 4439 09a6 C3090000 		.4byte	0x9c3
 4440 09aa 1E       		.uleb128 0x1e
 4441 09ab 79000000 		.4byte	.LASF159
 4442 09af 00       		.sleb128 0
 4443 09b0 1E       		.uleb128 0x1e
 4444 09b1 E10D0000 		.4byte	.LASF160
 4445 09b5 01       		.sleb128 1
 4446 09b6 1E       		.uleb128 0x1e
 4447 09b7 C3040000 		.4byte	.LASF161
 4448 09bb 02       		.sleb128 2
 4449 09bc 1E       		.uleb128 0x1e
 4450 09bd 55050000 		.4byte	.LASF162
 4451 09c1 03       		.sleb128 3
 4452 09c2 00       		.byte	0
 4453 09c3 03       		.uleb128 0x3
 4454 09c4 77010000 		.4byte	.LASF163
 4455 09c8 17       		.byte	0x17
 4456 09c9 3E       		.byte	0x3e
 4457 09ca A2090000 		.4byte	0x9a2
 4458 09ce 06       		.uleb128 0x6
ARM GAS  C:\Users\jo\AppData\Local\Temp\ccDLAO0k.s 			page 82


 4459 09cf 680C0000 		.4byte	.LASF164
 4460 09d3 10       		.byte	0x10
 4461 09d4 17       		.byte	0x17
 4462 09d5 4F       		.byte	0x4f
 4463 09d6 2F0A0000 		.4byte	0xa2f
 4464 09da 07       		.uleb128 0x7
 4465 09db C3010000 		.4byte	.LASF165
 4466 09df 17       		.byte	0x17
 4467 09e0 51       		.byte	0x51
 4468 09e1 2F0A0000 		.4byte	0xa2f
 4469 09e5 00       		.byte	0
 4470 09e6 07       		.uleb128 0x7
 4471 09e7 1B050000 		.4byte	.LASF166
 4472 09eb 17       		.byte	0x17
 4473 09ec 54       		.byte	0x54
 4474 09ed 64030000 		.4byte	0x364
 4475 09f1 04       		.byte	0x4
 4476 09f2 07       		.uleb128 0x7
 4477 09f3 AC0C0000 		.4byte	.LASF167
 4478 09f7 17       		.byte	0x17
 4479 09f8 5D       		.byte	0x5d
 4480 09f9 D0080000 		.4byte	0x8d0
 4481 09fd 08       		.byte	0x8
 4482 09fe 12       		.uleb128 0x12
 4483 09ff 6C656E00 		.ascii	"len\000"
 4484 0a03 17       		.byte	0x17
 4485 0a04 60       		.byte	0x60
 4486 0a05 D0080000 		.4byte	0x8d0
 4487 0a09 0A       		.byte	0xa
 4488 0a0a 07       		.uleb128 0x7
 4489 0a0b FE0B0000 		.4byte	.LASF168
 4490 0a0f 17       		.byte	0x17
 4491 0a10 63       		.byte	0x63
 4492 0a11 BA080000 		.4byte	0x8ba
 4493 0a15 0C       		.byte	0xc
 4494 0a16 07       		.uleb128 0x7
 4495 0a17 7E090000 		.4byte	.LASF169
 4496 0a1b 17       		.byte	0x17
 4497 0a1c 66       		.byte	0x66
 4498 0a1d BA080000 		.4byte	0x8ba
 4499 0a21 0D       		.byte	0xd
 4500 0a22 12       		.uleb128 0x12
 4501 0a23 72656600 		.ascii	"ref\000"
 4502 0a27 17       		.byte	0x17
 4503 0a28 6D       		.byte	0x6d
 4504 0a29 D0080000 		.4byte	0x8d0
 4505 0a2d 0E       		.byte	0xe
 4506 0a2e 00       		.byte	0
 4507 0a2f 0A       		.uleb128 0xa
 4508 0a30 04       		.byte	0x4
 4509 0a31 CE090000 		.4byte	0x9ce
 4510 0a35 03       		.uleb128 0x3
 4511 0a36 DF090000 		.4byte	.LASF170
 4512 0a3a 17       		.byte	0x17
 4513 0a3b 72       		.byte	0x72
 4514 0a3c 400A0000 		.4byte	0xa40
 4515 0a40 0A       		.uleb128 0xa
ARM GAS  C:\Users\jo\AppData\Local\Temp\ccDLAO0k.s 			page 83


 4516 0a41 04       		.byte	0x4
 4517 0a42 460A0000 		.4byte	0xa46
 4518 0a46 0C       		.uleb128 0xc
 4519 0a47 510A0000 		.4byte	0xa51
 4520 0a4b 0D       		.uleb128 0xd
 4521 0a4c 2F0A0000 		.4byte	0xa2f
 4522 0a50 00       		.byte	0
 4523 0a51 06       		.uleb128 0x6
 4524 0a52 32020000 		.4byte	.LASF171
 4525 0a56 14       		.byte	0x14
 4526 0a57 17       		.byte	0x17
 4527 0a58 75       		.byte	0x75
 4528 0a59 760A0000 		.4byte	0xa76
 4529 0a5d 07       		.uleb128 0x7
 4530 0a5e 680C0000 		.4byte	.LASF164
 4531 0a62 17       		.byte	0x17
 4532 0a63 77       		.byte	0x77
 4533 0a64 CE090000 		.4byte	0x9ce
 4534 0a68 00       		.byte	0
 4535 0a69 07       		.uleb128 0x7
 4536 0a6a 5A090000 		.4byte	.LASF172
 4537 0a6e 17       		.byte	0x17
 4538 0a6f 79       		.byte	0x79
 4539 0a70 350A0000 		.4byte	0xa35
 4540 0a74 10       		.byte	0x10
 4541 0a75 00       		.byte	0
 4542 0a76 06       		.uleb128 0x6
 4543 0a77 240E0000 		.4byte	.LASF173
 4544 0a7b 04       		.byte	0x4
 4545 0a7c 18       		.byte	0x18
 4546 0a7d 2C       		.byte	0x2c
 4547 0a7e 8F0A0000 		.4byte	0xa8f
 4548 0a82 07       		.uleb128 0x7
 4549 0a83 960C0000 		.4byte	.LASF174
 4550 0a87 18       		.byte	0x18
 4551 0a88 2D       		.byte	0x2d
 4552 0a89 E6080000 		.4byte	0x8e6
 4553 0a8d 00       		.byte	0
 4554 0a8e 00       		.byte	0
 4555 0a8f 03       		.uleb128 0x3
 4556 0a90 C00D0000 		.4byte	.LASF175
 4557 0a94 18       		.byte	0x18
 4558 0a95 40       		.byte	0x40
 4559 0a96 760A0000 		.4byte	0xa76
 4560 0a9a 03       		.uleb128 0x3
 4561 0a9b 69010000 		.4byte	.LASF176
 4562 0a9f 19       		.byte	0x19
 4563 0aa0 3C       		.byte	0x3c
 4564 0aa1 A50A0000 		.4byte	0xaa5
 4565 0aa5 0A       		.uleb128 0xa
 4566 0aa6 04       		.byte	0x4
 4567 0aa7 AB0A0000 		.4byte	0xaab
 4568 0aab 1A       		.uleb128 0x1a
 4569 0aac 6B090000 		.4byte	0x96b
 4570 0ab0 C40A0000 		.4byte	0xac4
 4571 0ab4 0D       		.uleb128 0xd
 4572 0ab5 64030000 		.4byte	0x364
ARM GAS  C:\Users\jo\AppData\Local\Temp\ccDLAO0k.s 			page 84


 4573 0ab9 0D       		.uleb128 0xd
 4574 0aba C40A0000 		.4byte	0xac4
 4575 0abe 0D       		.uleb128 0xd
 4576 0abf 6B090000 		.4byte	0x96b
 4577 0ac3 00       		.byte	0
 4578 0ac4 0A       		.uleb128 0xa
 4579 0ac5 04       		.byte	0x4
 4580 0ac6 CA0A0000 		.4byte	0xaca
 4581 0aca 06       		.uleb128 0x6
 4582 0acb 3E0D0000 		.4byte	.LASF177
 4583 0acf 98       		.byte	0x98
 4584 0ad0 19       		.byte	0x19
 4585 0ad1 A8       		.byte	0xa8
 4586 0ad2 7C0D0000 		.4byte	0xd7c
 4587 0ad6 07       		.uleb128 0x7
 4588 0ad7 780A0000 		.4byte	.LASF178
 4589 0adb 19       		.byte	0x19
 4590 0adc AA       		.byte	0xaa
 4591 0add 8F0A0000 		.4byte	0xa8f
 4592 0ae1 00       		.byte	0
 4593 0ae2 07       		.uleb128 0x7
 4594 0ae3 960D0000 		.4byte	.LASF179
 4595 0ae7 19       		.byte	0x19
 4596 0ae8 AA       		.byte	0xaa
 4597 0ae9 8F0A0000 		.4byte	0xa8f
 4598 0aed 04       		.byte	0x4
 4599 0aee 07       		.uleb128 0x7
 4600 0aef 48000000 		.4byte	.LASF180
 4601 0af3 19       		.byte	0x19
 4602 0af4 AA       		.byte	0xaa
 4603 0af5 BA080000 		.4byte	0x8ba
 4604 0af9 08       		.byte	0x8
 4605 0afa 12       		.uleb128 0x12
 4606 0afb 746F7300 		.ascii	"tos\000"
 4607 0aff 19       		.byte	0x19
 4608 0b00 AA       		.byte	0xaa
 4609 0b01 BA080000 		.4byte	0x8ba
 4610 0b05 09       		.byte	0x9
 4611 0b06 12       		.uleb128 0x12
 4612 0b07 74746C00 		.ascii	"ttl\000"
 4613 0b0b 19       		.byte	0x19
 4614 0b0c AA       		.byte	0xaa
 4615 0b0d BA080000 		.4byte	0x8ba
 4616 0b11 0A       		.byte	0xa
 4617 0b12 07       		.uleb128 0x7
 4618 0b13 C3010000 		.4byte	.LASF165
 4619 0b17 19       		.byte	0x19
 4620 0b18 AC       		.byte	0xac
 4621 0b19 C40A0000 		.4byte	0xac4
 4622 0b1d 0C       		.byte	0xc
 4623 0b1e 07       		.uleb128 0x7
 4624 0b1f 770C0000 		.4byte	.LASF181
 4625 0b23 19       		.byte	0x19
 4626 0b24 AC       		.byte	0xac
 4627 0b25 64030000 		.4byte	0x364
 4628 0b29 10       		.byte	0x10
 4629 0b2a 07       		.uleb128 0x7
ARM GAS  C:\Users\jo\AppData\Local\Temp\ccDLAO0k.s 			page 85


 4630 0b2b AB030000 		.4byte	.LASF182
 4631 0b2f 19       		.byte	0x19
 4632 0b30 AC       		.byte	0xac
 4633 0b31 9A0A0000 		.4byte	0xa9a
 4634 0b35 14       		.byte	0x14
 4635 0b36 07       		.uleb128 0x7
 4636 0b37 A60C0000 		.4byte	.LASF183
 4637 0b3b 19       		.byte	0x19
 4638 0b3c AC       		.byte	0xac
 4639 0b3d 260E0000 		.4byte	0xe26
 4640 0b41 18       		.byte	0x18
 4641 0b42 07       		.uleb128 0x7
 4642 0b43 E8050000 		.4byte	.LASF184
 4643 0b47 19       		.byte	0x19
 4644 0b48 AC       		.byte	0xac
 4645 0b49 BA080000 		.4byte	0x8ba
 4646 0b4d 19       		.byte	0x19
 4647 0b4e 07       		.uleb128 0x7
 4648 0b4f C5030000 		.4byte	.LASF185
 4649 0b53 19       		.byte	0x19
 4650 0b54 AC       		.byte	0xac
 4651 0b55 D0080000 		.4byte	0x8d0
 4652 0b59 1A       		.byte	0x1a
 4653 0b5a 07       		.uleb128 0x7
 4654 0b5b 2F080000 		.4byte	.LASF186
 4655 0b5f 19       		.byte	0x19
 4656 0b60 AF       		.byte	0xaf
 4657 0b61 D0080000 		.4byte	0x8d0
 4658 0b65 1C       		.byte	0x1c
 4659 0b66 07       		.uleb128 0x7
 4660 0b67 7E090000 		.4byte	.LASF169
 4661 0b6b 19       		.byte	0x19
 4662 0b6c B1       		.byte	0xb1
 4663 0b6d BA080000 		.4byte	0x8ba
 4664 0b71 1E       		.byte	0x1e
 4665 0b72 07       		.uleb128 0x7
 4666 0b73 61010000 		.4byte	.LASF187
 4667 0b77 19       		.byte	0x19
 4668 0b78 BF       		.byte	0xbf
 4669 0b79 BA080000 		.4byte	0x8ba
 4670 0b7d 1F       		.byte	0x1f
 4671 0b7e 07       		.uleb128 0x7
 4672 0b7f ED050000 		.4byte	.LASF188
 4673 0b83 19       		.byte	0x19
 4674 0b84 BF       		.byte	0xbf
 4675 0b85 BA080000 		.4byte	0x8ba
 4676 0b89 20       		.byte	0x20
 4677 0b8a 07       		.uleb128 0x7
 4678 0b8b 620A0000 		.4byte	.LASF189
 4679 0b8f 19       		.byte	0x19
 4680 0b90 C0       		.byte	0xc0
 4681 0b91 BA080000 		.4byte	0x8ba
 4682 0b95 21       		.byte	0x21
 4683 0b96 12       		.uleb128 0x12
 4684 0b97 746D7200 		.ascii	"tmr\000"
 4685 0b9b 19       		.byte	0x19
 4686 0b9c C1       		.byte	0xc1
ARM GAS  C:\Users\jo\AppData\Local\Temp\ccDLAO0k.s 			page 86


 4687 0b9d E6080000 		.4byte	0x8e6
 4688 0ba1 24       		.byte	0x24
 4689 0ba2 07       		.uleb128 0x7
 4690 0ba3 A6040000 		.4byte	.LASF190
 4691 0ba7 19       		.byte	0x19
 4692 0ba8 C4       		.byte	0xc4
 4693 0ba9 E6080000 		.4byte	0x8e6
 4694 0bad 28       		.byte	0x28
 4695 0bae 07       		.uleb128 0x7
 4696 0baf 67030000 		.4byte	.LASF191
 4697 0bb3 19       		.byte	0x19
 4698 0bb4 C5       		.byte	0xc5
 4699 0bb5 D0080000 		.4byte	0x8d0
 4700 0bb9 2C       		.byte	0x2c
 4701 0bba 07       		.uleb128 0x7
 4702 0bbb 5A080000 		.4byte	.LASF192
 4703 0bbf 19       		.byte	0x19
 4704 0bc0 C6       		.byte	0xc6
 4705 0bc1 D0080000 		.4byte	0x8d0
 4706 0bc5 2E       		.byte	0x2e
 4707 0bc6 07       		.uleb128 0x7
 4708 0bc7 9F020000 		.4byte	.LASF193
 4709 0bcb 19       		.byte	0x19
 4710 0bcc C7       		.byte	0xc7
 4711 0bcd E6080000 		.4byte	0x8e6
 4712 0bd1 30       		.byte	0x30
 4713 0bd2 07       		.uleb128 0x7
 4714 0bd3 6B040000 		.4byte	.LASF194
 4715 0bd7 19       		.byte	0x19
 4716 0bd8 CA       		.byte	0xca
 4717 0bd9 DB080000 		.4byte	0x8db
 4718 0bdd 34       		.byte	0x34
 4719 0bde 12       		.uleb128 0x12
 4720 0bdf 6D737300 		.ascii	"mss\000"
 4721 0be3 19       		.byte	0x19
 4722 0be4 CC       		.byte	0xcc
 4723 0be5 D0080000 		.4byte	0x8d0
 4724 0be9 36       		.byte	0x36
 4725 0bea 07       		.uleb128 0x7
 4726 0beb 340A0000 		.4byte	.LASF195
 4727 0bef 19       		.byte	0x19
 4728 0bf0 CF       		.byte	0xcf
 4729 0bf1 E6080000 		.4byte	0x8e6
 4730 0bf5 38       		.byte	0x38
 4731 0bf6 07       		.uleb128 0x7
 4732 0bf7 54040000 		.4byte	.LASF196
 4733 0bfb 19       		.byte	0x19
 4734 0bfc D0       		.byte	0xd0
 4735 0bfd E6080000 		.4byte	0x8e6
 4736 0c01 3C       		.byte	0x3c
 4737 0c02 12       		.uleb128 0x12
 4738 0c03 736100   		.ascii	"sa\000"
 4739 0c06 19       		.byte	0x19
 4740 0c07 D1       		.byte	0xd1
 4741 0c08 DB080000 		.4byte	0x8db
 4742 0c0c 40       		.byte	0x40
 4743 0c0d 12       		.uleb128 0x12
ARM GAS  C:\Users\jo\AppData\Local\Temp\ccDLAO0k.s 			page 87


 4744 0c0e 737600   		.ascii	"sv\000"
 4745 0c11 19       		.byte	0x19
 4746 0c12 D1       		.byte	0xd1
 4747 0c13 DB080000 		.4byte	0x8db
 4748 0c17 42       		.byte	0x42
 4749 0c18 12       		.uleb128 0x12
 4750 0c19 72746F00 		.ascii	"rto\000"
 4751 0c1d 19       		.byte	0x19
 4752 0c1e D3       		.byte	0xd3
 4753 0c1f DB080000 		.4byte	0x8db
 4754 0c23 44       		.byte	0x44
 4755 0c24 07       		.uleb128 0x7
 4756 0c25 010E0000 		.4byte	.LASF197
 4757 0c29 19       		.byte	0x19
 4758 0c2a D4       		.byte	0xd4
 4759 0c2b BA080000 		.4byte	0x8ba
 4760 0c2f 46       		.byte	0x46
 4761 0c30 07       		.uleb128 0x7
 4762 0c31 E0050000 		.4byte	.LASF198
 4763 0c35 19       		.byte	0x19
 4764 0c36 D7       		.byte	0xd7
 4765 0c37 BA080000 		.4byte	0x8ba
 4766 0c3b 47       		.byte	0x47
 4767 0c3c 07       		.uleb128 0x7
 4768 0c3d 52080000 		.4byte	.LASF199
 4769 0c41 19       		.byte	0x19
 4770 0c42 D8       		.byte	0xd8
 4771 0c43 E6080000 		.4byte	0x8e6
 4772 0c47 48       		.byte	0x48
 4773 0c48 07       		.uleb128 0x7
 4774 0c49 90030000 		.4byte	.LASF200
 4775 0c4d 19       		.byte	0x19
 4776 0c4e DB       		.byte	0xdb
 4777 0c4f D0080000 		.4byte	0x8d0
 4778 0c53 4C       		.byte	0x4c
 4779 0c54 07       		.uleb128 0x7
 4780 0c55 210B0000 		.4byte	.LASF201
 4781 0c59 19       		.byte	0x19
 4782 0c5a DC       		.byte	0xdc
 4783 0c5b D0080000 		.4byte	0x8d0
 4784 0c5f 4E       		.byte	0x4e
 4785 0c60 07       		.uleb128 0x7
 4786 0c61 BF0A0000 		.4byte	.LASF202
 4787 0c65 19       		.byte	0x19
 4788 0c66 DF       		.byte	0xdf
 4789 0c67 E6080000 		.4byte	0x8e6
 4790 0c6b 50       		.byte	0x50
 4791 0c6c 07       		.uleb128 0x7
 4792 0c6d 34060000 		.4byte	.LASF203
 4793 0c71 19       		.byte	0x19
 4794 0c72 E0       		.byte	0xe0
 4795 0c73 E6080000 		.4byte	0x8e6
 4796 0c77 54       		.byte	0x54
 4797 0c78 07       		.uleb128 0x7
 4798 0c79 EF060000 		.4byte	.LASF204
 4799 0c7d 19       		.byte	0x19
 4800 0c7e E0       		.byte	0xe0
ARM GAS  C:\Users\jo\AppData\Local\Temp\ccDLAO0k.s 			page 88


 4801 0c7f E6080000 		.4byte	0x8e6
 4802 0c83 58       		.byte	0x58
 4803 0c84 07       		.uleb128 0x7
 4804 0c85 71040000 		.4byte	.LASF205
 4805 0c89 19       		.byte	0x19
 4806 0c8a E2       		.byte	0xe2
 4807 0c8b E6080000 		.4byte	0x8e6
 4808 0c8f 5C       		.byte	0x5c
 4809 0c90 07       		.uleb128 0x7
 4810 0c91 40090000 		.4byte	.LASF206
 4811 0c95 19       		.byte	0x19
 4812 0c96 E3       		.byte	0xe3
 4813 0c97 D0080000 		.4byte	0x8d0
 4814 0c9b 60       		.byte	0x60
 4815 0c9c 07       		.uleb128 0x7
 4816 0c9d EC0A0000 		.4byte	.LASF207
 4817 0ca1 19       		.byte	0x19
 4818 0ca2 E4       		.byte	0xe4
 4819 0ca3 D0080000 		.4byte	0x8d0
 4820 0ca7 62       		.byte	0x62
 4821 0ca8 07       		.uleb128 0x7
 4822 0ca9 5C060000 		.4byte	.LASF208
 4823 0cad 19       		.byte	0x19
 4824 0cae E6       		.byte	0xe6
 4825 0caf D0080000 		.4byte	0x8d0
 4826 0cb3 64       		.byte	0x64
 4827 0cb4 07       		.uleb128 0x7
 4828 0cb5 330B0000 		.4byte	.LASF209
 4829 0cb9 19       		.byte	0x19
 4830 0cba E8       		.byte	0xe8
 4831 0cbb D0080000 		.4byte	0x8d0
 4832 0cbf 66       		.byte	0x66
 4833 0cc0 07       		.uleb128 0x7
 4834 0cc1 EB0C0000 		.4byte	.LASF210
 4835 0cc5 19       		.byte	0x19
 4836 0cc6 EA       		.byte	0xea
 4837 0cc7 D0080000 		.4byte	0x8d0
 4838 0ccb 68       		.byte	0x68
 4839 0ccc 07       		.uleb128 0x7
 4840 0ccd 960A0000 		.4byte	.LASF211
 4841 0cd1 19       		.byte	0x19
 4842 0cd2 EE       		.byte	0xee
 4843 0cd3 D0080000 		.4byte	0x8d0
 4844 0cd7 6A       		.byte	0x6a
 4845 0cd8 07       		.uleb128 0x7
 4846 0cd9 0E0A0000 		.4byte	.LASF212
 4847 0cdd 19       		.byte	0x19
 4848 0cde F2       		.byte	0xf2
 4849 0cdf CF0E0000 		.4byte	0xecf
 4850 0ce3 6C       		.byte	0x6c
 4851 0ce4 07       		.uleb128 0x7
 4852 0ce5 D6040000 		.4byte	.LASF213
 4853 0ce9 19       		.byte	0x19
 4854 0cea F3       		.byte	0xf3
 4855 0ceb CF0E0000 		.4byte	0xecf
 4856 0cef 70       		.byte	0x70
 4857 0cf0 07       		.uleb128 0x7
ARM GAS  C:\Users\jo\AppData\Local\Temp\ccDLAO0k.s 			page 89


 4858 0cf1 78090000 		.4byte	.LASF214
 4859 0cf5 19       		.byte	0x19
 4860 0cf6 F5       		.byte	0xf5
 4861 0cf7 CF0E0000 		.4byte	0xecf
 4862 0cfb 74       		.byte	0x74
 4863 0cfc 07       		.uleb128 0x7
 4864 0cfd A50B0000 		.4byte	.LASF215
 4865 0d01 19       		.byte	0x19
 4866 0d02 F8       		.byte	0xf8
 4867 0d03 2F0A0000 		.4byte	0xa2f
 4868 0d07 78       		.byte	0x78
 4869 0d08 07       		.uleb128 0x7
 4870 0d09 D8060000 		.4byte	.LASF216
 4871 0d0d 19       		.byte	0x19
 4872 0d0e FC       		.byte	0xfc
 4873 0d0f AB0D0000 		.4byte	0xdab
 4874 0d13 7C       		.byte	0x7c
 4875 0d14 07       		.uleb128 0x7
 4876 0d15 140D0000 		.4byte	.LASF217
 4877 0d19 19       		.byte	0x19
 4878 0d1a FE       		.byte	0xfe
 4879 0d1b 7C0D0000 		.4byte	0xd7c
 4880 0d1f 80       		.byte	0x80
 4881 0d20 09       		.uleb128 0x9
 4882 0d21 45050000 		.4byte	.LASF218
 4883 0d25 19       		.byte	0x19
 4884 0d26 0001     		.2byte	0x100
 4885 0d28 1B0E0000 		.4byte	0xe1b
 4886 0d2c 84       		.byte	0x84
 4887 0d2d 09       		.uleb128 0x9
 4888 0d2e 04060000 		.4byte	.LASF219
 4889 0d32 19       		.byte	0x19
 4890 0d33 0201     		.2byte	0x102
 4891 0d35 D50D0000 		.4byte	0xdd5
 4892 0d39 88       		.byte	0x88
 4893 0d3a 09       		.uleb128 0x9
 4894 0d3b 32090000 		.4byte	.LASF220
 4895 0d3f 19       		.byte	0x19
 4896 0d40 0401     		.2byte	0x104
 4897 0d42 FA0D0000 		.4byte	0xdfa
 4898 0d46 8C       		.byte	0x8c
 4899 0d47 09       		.uleb128 0x9
 4900 0d48 6D0C0000 		.4byte	.LASF221
 4901 0d4c 19       		.byte	0x19
 4902 0d4d 0D01     		.2byte	0x10d
 4903 0d4f E6080000 		.4byte	0x8e6
 4904 0d53 90       		.byte	0x90
 4905 0d54 09       		.uleb128 0x9
 4906 0d55 8A0D0000 		.4byte	.LASF222
 4907 0d59 19       		.byte	0x19
 4908 0d5a 1401     		.2byte	0x114
 4909 0d5c BA080000 		.4byte	0x8ba
 4910 0d60 94       		.byte	0x94
 4911 0d61 09       		.uleb128 0x9
 4912 0d62 AA070000 		.4byte	.LASF223
 4913 0d66 19       		.byte	0x19
 4914 0d67 1601     		.2byte	0x116
ARM GAS  C:\Users\jo\AppData\Local\Temp\ccDLAO0k.s 			page 90


 4915 0d69 BA080000 		.4byte	0x8ba
 4916 0d6d 95       		.byte	0x95
 4917 0d6e 09       		.uleb128 0x9
 4918 0d6f D6020000 		.4byte	.LASF224
 4919 0d73 19       		.byte	0x19
 4920 0d74 1901     		.2byte	0x119
 4921 0d76 BA080000 		.4byte	0x8ba
 4922 0d7a 96       		.byte	0x96
 4923 0d7b 00       		.byte	0
 4924 0d7c 03       		.uleb128 0x3
 4925 0d7d 8D080000 		.4byte	.LASF225
 4926 0d81 19       		.byte	0x19
 4927 0d82 48       		.byte	0x48
 4928 0d83 870D0000 		.4byte	0xd87
 4929 0d87 0A       		.uleb128 0xa
 4930 0d88 04       		.byte	0x4
 4931 0d89 8D0D0000 		.4byte	0xd8d
 4932 0d8d 1A       		.uleb128 0x1a
 4933 0d8e 6B090000 		.4byte	0x96b
 4934 0d92 AB0D0000 		.4byte	0xdab
 4935 0d96 0D       		.uleb128 0xd
 4936 0d97 64030000 		.4byte	0x364
 4937 0d9b 0D       		.uleb128 0xd
 4938 0d9c C40A0000 		.4byte	0xac4
 4939 0da0 0D       		.uleb128 0xd
 4940 0da1 2F0A0000 		.4byte	0xa2f
 4941 0da5 0D       		.uleb128 0xd
 4942 0da6 6B090000 		.4byte	0x96b
 4943 0daa 00       		.byte	0
 4944 0dab 03       		.uleb128 0x3
 4945 0dac CB0C0000 		.4byte	.LASF226
 4946 0db0 19       		.byte	0x19
 4947 0db1 56       		.byte	0x56
 4948 0db2 B60D0000 		.4byte	0xdb6
 4949 0db6 0A       		.uleb128 0xa
 4950 0db7 04       		.byte	0x4
 4951 0db8 BC0D0000 		.4byte	0xdbc
 4952 0dbc 1A       		.uleb128 0x1a
 4953 0dbd 6B090000 		.4byte	0x96b
 4954 0dc1 D50D0000 		.4byte	0xdd5
 4955 0dc5 0D       		.uleb128 0xd
 4956 0dc6 64030000 		.4byte	0x364
 4957 0dca 0D       		.uleb128 0xd
 4958 0dcb C40A0000 		.4byte	0xac4
 4959 0dcf 0D       		.uleb128 0xd
 4960 0dd0 D0080000 		.4byte	0x8d0
 4961 0dd4 00       		.byte	0
 4962 0dd5 03       		.uleb128 0x3
 4963 0dd6 F8080000 		.4byte	.LASF227
 4964 0dda 19       		.byte	0x19
 4965 0ddb 62       		.byte	0x62
 4966 0ddc E00D0000 		.4byte	0xde0
 4967 0de0 0A       		.uleb128 0xa
 4968 0de1 04       		.byte	0x4
 4969 0de2 E60D0000 		.4byte	0xde6
 4970 0de6 1A       		.uleb128 0x1a
 4971 0de7 6B090000 		.4byte	0x96b
ARM GAS  C:\Users\jo\AppData\Local\Temp\ccDLAO0k.s 			page 91


 4972 0deb FA0D0000 		.4byte	0xdfa
 4973 0def 0D       		.uleb128 0xd
 4974 0df0 64030000 		.4byte	0x364
 4975 0df4 0D       		.uleb128 0xd
 4976 0df5 C40A0000 		.4byte	0xac4
 4977 0df9 00       		.byte	0
 4978 0dfa 03       		.uleb128 0x3
 4979 0dfb 17070000 		.4byte	.LASF228
 4980 0dff 19       		.byte	0x19
 4981 0e00 6E       		.byte	0x6e
 4982 0e01 050E0000 		.4byte	0xe05
 4983 0e05 0A       		.uleb128 0xa
 4984 0e06 04       		.byte	0x4
 4985 0e07 0B0E0000 		.4byte	0xe0b
 4986 0e0b 0C       		.uleb128 0xc
 4987 0e0c 1B0E0000 		.4byte	0xe1b
 4988 0e10 0D       		.uleb128 0xd
 4989 0e11 64030000 		.4byte	0x364
 4990 0e15 0D       		.uleb128 0xd
 4991 0e16 6B090000 		.4byte	0x96b
 4992 0e1a 00       		.byte	0
 4993 0e1b 03       		.uleb128 0x3
 4994 0e1c B2010000 		.4byte	.LASF229
 4995 0e20 19       		.byte	0x19
 4996 0e21 7C       		.byte	0x7c
 4997 0e22 A50A0000 		.4byte	0xaa5
 4998 0e26 1F       		.uleb128 0x1f
 4999 0e27 48090000 		.4byte	.LASF319
 5000 0e2b 01       		.byte	0x1
 5001 0e2c 19       		.byte	0x19
 5002 0e2d 7E       		.byte	0x7e
 5003 0e2e 750E0000 		.4byte	0xe75
 5004 0e32 1E       		.uleb128 0x1e
 5005 0e33 96090000 		.4byte	.LASF230
 5006 0e37 00       		.sleb128 0
 5007 0e38 1E       		.uleb128 0x1e
 5008 0e39 840C0000 		.4byte	.LASF231
 5009 0e3d 01       		.sleb128 1
 5010 0e3e 1E       		.uleb128 0x1e
 5011 0e3f EF080000 		.4byte	.LASF232
 5012 0e43 02       		.sleb128 2
 5013 0e44 1E       		.uleb128 0x1e
 5014 0e45 1B0E0000 		.4byte	.LASF233
 5015 0e49 03       		.sleb128 3
 5016 0e4a 1E       		.uleb128 0x1e
 5017 0e4b E00A0000 		.4byte	.LASF234
 5018 0e4f 04       		.sleb128 4
 5019 0e50 1E       		.uleb128 0x1e
 5020 0e51 160C0000 		.4byte	.LASF235
 5021 0e55 05       		.sleb128 5
 5022 0e56 1E       		.uleb128 0x1e
 5023 0e57 210C0000 		.4byte	.LASF236
 5024 0e5b 06       		.sleb128 6
 5025 0e5c 1E       		.uleb128 0x1e
 5026 0e5d 62060000 		.4byte	.LASF237
 5027 0e61 07       		.sleb128 7
 5028 0e62 1E       		.uleb128 0x1e
ARM GAS  C:\Users\jo\AppData\Local\Temp\ccDLAO0k.s 			page 92


 5029 0e63 5F050000 		.4byte	.LASF238
 5030 0e67 08       		.sleb128 8
 5031 0e68 1E       		.uleb128 0x1e
 5032 0e69 FD040000 		.4byte	.LASF239
 5033 0e6d 09       		.sleb128 9
 5034 0e6e 1E       		.uleb128 0x1e
 5035 0e6f 9B010000 		.4byte	.LASF240
 5036 0e73 0A       		.sleb128 10
 5037 0e74 00       		.byte	0
 5038 0e75 0B       		.uleb128 0xb
 5039 0e76 1D040000 		.4byte	.LASF241
 5040 0e7a 14       		.byte	0x14
 5041 0e7b 1A       		.byte	0x1a
 5042 0e7c 1501     		.2byte	0x115
 5043 0e7e CF0E0000 		.4byte	0xecf
 5044 0e82 09       		.uleb128 0x9
 5045 0e83 C3010000 		.4byte	.LASF165
 5046 0e87 1A       		.byte	0x1a
 5047 0e88 1601     		.2byte	0x116
 5048 0e8a CF0E0000 		.4byte	0xecf
 5049 0e8e 00       		.byte	0
 5050 0e8f 08       		.uleb128 0x8
 5051 0e90 7000     		.ascii	"p\000"
 5052 0e92 1A       		.byte	0x1a
 5053 0e93 1701     		.2byte	0x117
 5054 0e95 2F0A0000 		.4byte	0xa2f
 5055 0e99 04       		.byte	0x4
 5056 0e9a 08       		.uleb128 0x8
 5057 0e9b 6C656E00 		.ascii	"len\000"
 5058 0e9f 1A       		.byte	0x1a
 5059 0ea0 1801     		.2byte	0x118
 5060 0ea2 D0080000 		.4byte	0x8d0
 5061 0ea6 08       		.byte	0x8
 5062 0ea7 09       		.uleb128 0x9
 5063 0ea8 F7060000 		.4byte	.LASF242
 5064 0eac 1A       		.byte	0x1a
 5065 0ead 1A01     		.2byte	0x11a
 5066 0eaf D0080000 		.4byte	0x8d0
 5067 0eb3 0A       		.byte	0xa
 5068 0eb4 09       		.uleb128 0x9
 5069 0eb5 7E090000 		.4byte	.LASF169
 5070 0eb9 1A       		.byte	0x1a
 5071 0eba 2201     		.2byte	0x122
 5072 0ebc BA080000 		.4byte	0x8ba
 5073 0ec0 0C       		.byte	0xc
 5074 0ec1 09       		.uleb128 0x9
 5075 0ec2 850B0000 		.4byte	.LASF243
 5076 0ec6 1A       		.byte	0x1a
 5077 0ec7 2701     		.2byte	0x127
 5078 0ec9 420F0000 		.4byte	0xf42
 5079 0ecd 10       		.byte	0x10
 5080 0ece 00       		.byte	0
 5081 0ecf 0A       		.uleb128 0xa
 5082 0ed0 04       		.byte	0x4
 5083 0ed1 750E0000 		.4byte	0xe75
 5084 0ed5 06       		.uleb128 0x6
 5085 0ed6 E50B0000 		.4byte	.LASF244
ARM GAS  C:\Users\jo\AppData\Local\Temp\ccDLAO0k.s 			page 93


 5086 0eda 14       		.byte	0x14
 5087 0edb 1A       		.byte	0x1a
 5088 0edc 9F       		.byte	0x9f
 5089 0edd 420F0000 		.4byte	0xf42
 5090 0ee1 12       		.uleb128 0x12
 5091 0ee2 73726300 		.ascii	"src\000"
 5092 0ee6 1A       		.byte	0x1a
 5093 0ee7 A0       		.byte	0xa0
 5094 0ee8 D0080000 		.4byte	0x8d0
 5095 0eec 00       		.byte	0
 5096 0eed 07       		.uleb128 0x7
 5097 0eee 060E0000 		.4byte	.LASF245
 5098 0ef2 1A       		.byte	0x1a
 5099 0ef3 A1       		.byte	0xa1
 5100 0ef4 D0080000 		.4byte	0x8d0
 5101 0ef8 02       		.byte	0x2
 5102 0ef9 07       		.uleb128 0x7
 5103 0efa 57030000 		.4byte	.LASF246
 5104 0efe 1A       		.byte	0x1a
 5105 0eff A2       		.byte	0xa2
 5106 0f00 E6080000 		.4byte	0x8e6
 5107 0f04 04       		.byte	0x4
 5108 0f05 07       		.uleb128 0x7
 5109 0f06 90070000 		.4byte	.LASF247
 5110 0f0a 1A       		.byte	0x1a
 5111 0f0b A3       		.byte	0xa3
 5112 0f0c E6080000 		.4byte	0x8e6
 5113 0f10 08       		.byte	0x8
 5114 0f11 07       		.uleb128 0x7
 5115 0f12 3B0B0000 		.4byte	.LASF248
 5116 0f16 1A       		.byte	0x1a
 5117 0f17 A4       		.byte	0xa4
 5118 0f18 D0080000 		.4byte	0x8d0
 5119 0f1c 0C       		.byte	0xc
 5120 0f1d 12       		.uleb128 0x12
 5121 0f1e 776E6400 		.ascii	"wnd\000"
 5122 0f22 1A       		.byte	0x1a
 5123 0f23 A5       		.byte	0xa5
 5124 0f24 D0080000 		.4byte	0x8d0
 5125 0f28 0E       		.byte	0xe
 5126 0f29 07       		.uleb128 0x7
 5127 0f2a 06050000 		.4byte	.LASF249
 5128 0f2e 1A       		.byte	0x1a
 5129 0f2f A6       		.byte	0xa6
 5130 0f30 D0080000 		.4byte	0x8d0
 5131 0f34 10       		.byte	0x10
 5132 0f35 07       		.uleb128 0x7
 5133 0f36 82000000 		.4byte	.LASF250
 5134 0f3a 1A       		.byte	0x1a
 5135 0f3b A7       		.byte	0xa7
 5136 0f3c D0080000 		.4byte	0x8d0
 5137 0f40 12       		.byte	0x12
 5138 0f41 00       		.byte	0
 5139 0f42 0A       		.uleb128 0xa
 5140 0f43 04       		.byte	0x4
 5141 0f44 D50E0000 		.4byte	0xed5
 5142 0f48 03       		.uleb128 0x3
ARM GAS  C:\Users\jo\AppData\Local\Temp\ccDLAO0k.s 			page 94


 5143 0f49 150A0000 		.4byte	.LASF251
 5144 0f4d 1B       		.byte	0x1b
 5145 0f4e 4E       		.byte	0x4e
 5146 0f4f 53030000 		.4byte	0x353
 5147 0f53 20       		.uleb128 0x20
 5148 0f54 35030000 		.4byte	.LASF252
 5149 0f58 01       		.byte	0x1
 5150 0f59 98       		.byte	0x98
 5151 0f5a 01       		.byte	0x1
 5152 0f5b 6B0F0000 		.4byte	0xf6b
 5153 0f5f 21       		.uleb128 0x21
 5154 0f60 140E0000 		.4byte	.LASF255
 5155 0f64 01       		.byte	0x1
 5156 0f65 A0       		.byte	0xa0
 5157 0f66 BA080000 		.4byte	0x8ba
 5158 0f6a 00       		.byte	0
 5159 0f6b 22       		.uleb128 0x22
 5160 0f6c FF070000 		.4byte	.LASF253
 5161 0f70 03       		.byte	0x3
 5162 0f71 9E01     		.2byte	0x19e
 5163 0f73 03       		.byte	0x3
 5164 0f74 850F0000 		.4byte	0xf85
 5165 0f78 23       		.uleb128 0x23
 5166 0f79 4D040000 		.4byte	.LASF254
 5167 0f7d 03       		.byte	0x3
 5168 0f7e 9E01     		.2byte	0x19e
 5169 0f80 F4060000 		.4byte	0x6f4
 5170 0f84 00       		.byte	0
 5171 0f85 24       		.uleb128 0x24
 5172 0f86 2A0B0000 		.4byte	.LASF306
 5173 0f8a 01       		.byte	0x1
 5174 0f8b D302     		.2byte	0x2d3
 5175 0f8d 01       		.byte	0x1
 5176 0f8e 9D0F0000 		.4byte	0xf9d
 5177 0f92 25       		.uleb128 0x25
 5178 0f93 7000     		.ascii	"p\000"
 5179 0f95 01       		.byte	0x1
 5180 0f96 D302     		.2byte	0x2d3
 5181 0f98 2F0A0000 		.4byte	0xa2f
 5182 0f9c 00       		.byte	0
 5183 0f9d 26       		.uleb128 0x26
 5184 0f9e 8C020000 		.4byte	.LASF308
 5185 0fa2 01       		.byte	0x1
 5186 0fa3 3504     		.2byte	0x435
 5187 0fa5 BA080000 		.4byte	0x8ba
 5188 0fa9 01       		.byte	0x1
 5189 0faa DB0F0000 		.4byte	0xfdb
 5190 0fae 25       		.uleb128 0x25
 5191 0faf 7000     		.ascii	"p\000"
 5192 0fb1 01       		.byte	0x1
 5193 0fb2 3504     		.2byte	0x435
 5194 0fb4 2F0A0000 		.4byte	0xa2f
 5195 0fb8 23       		.uleb128 0x23
 5196 0fb9 46040000 		.4byte	.LASF103
 5197 0fbd 01       		.byte	0x1
 5198 0fbe 3504     		.2byte	0x435
 5199 0fc0 D0080000 		.4byte	0x8d0
ARM GAS  C:\Users\jo\AppData\Local\Temp\ccDLAO0k.s 			page 95


 5200 0fc4 27       		.uleb128 0x27
 5201 0fc5 ED0B0000 		.4byte	.LASF256
 5202 0fc9 01       		.byte	0x1
 5203 0fca 3704     		.2byte	0x437
 5204 0fcc D0080000 		.4byte	0x8d0
 5205 0fd0 28       		.uleb128 0x28
 5206 0fd1 7100     		.ascii	"q\000"
 5207 0fd3 01       		.byte	0x1
 5208 0fd4 3804     		.2byte	0x438
 5209 0fd6 2F0A0000 		.4byte	0xa2f
 5210 0fda 00       		.byte	0
 5211 0fdb 29       		.uleb128 0x29
 5212 0fdc 09060000 		.4byte	.LASF320
 5213 0fe0 02       		.byte	0x2
 5214 0fe1 45       		.byte	0x45
 5215 0fe2 25000000 		.4byte	0x25
 5216 0fe6 03       		.byte	0x3
 5217 0fe7 18100000 		.4byte	0x1018
 5218 0feb 2A       		.uleb128 0x2a
 5219 0fec 63687000 		.ascii	"chp\000"
 5220 0ff0 02       		.byte	0x2
 5221 0ff1 45       		.byte	0x45
 5222 0ff2 18100000 		.4byte	0x1018
 5223 0ff6 2A       		.uleb128 0x2a
 5224 0ff7 666D7400 		.ascii	"fmt\000"
 5225 0ffb 02       		.byte	0x2
 5226 0ffc 45       		.byte	0x45
 5227 0ffd F4060000 		.4byte	0x6f4
 5228 1001 2B       		.uleb128 0x2b
 5229 1002 2C       		.uleb128 0x2c
 5230 1003 617000   		.ascii	"ap\000"
 5231 1006 02       		.byte	0x2
 5232 1007 46       		.byte	0x46
 5233 1008 AF080000 		.4byte	0x8af
 5234 100c 21       		.uleb128 0x21
 5235 100d B00D0000 		.4byte	.LASF257
 5236 1011 02       		.byte	0x2
 5237 1012 47       		.byte	0x47
 5238 1013 25000000 		.4byte	0x25
 5239 1017 00       		.byte	0
 5240 1018 0A       		.uleb128 0xa
 5241 1019 04       		.byte	0x4
 5242 101a 13080000 		.4byte	0x813
 5243 101e 20       		.uleb128 0x20
 5244 101f 5F0D0000 		.4byte	.LASF258
 5245 1023 01       		.byte	0x1
 5246 1024 76       		.byte	0x76
 5247 1025 01       		.byte	0x1
 5248 1026 36100000 		.4byte	0x1036
 5249 102a 2C       		.uleb128 0x2c
 5250 102b 70636200 		.ascii	"pcb\000"
 5251 102f 01       		.byte	0x1
 5252 1030 78       		.byte	0x78
 5253 1031 C40A0000 		.4byte	0xac4
 5254 1035 00       		.byte	0
 5255 1036 2D       		.uleb128 0x2d
 5256 1037 A60A0000 		.4byte	.LASF321
ARM GAS  C:\Users\jo\AppData\Local\Temp\ccDLAO0k.s 			page 96


 5257 103b 01       		.byte	0x1
 5258 103c 8F       		.byte	0x8f
 5259 103d 00000000 		.4byte	.LFB261
 5260 1041 30000000 		.4byte	.LFE261-.LFB261
 5261 1045 01       		.uleb128 0x1
 5262 1046 9C       		.byte	0x9c
 5263 1047 83100000 		.4byte	0x1083
 5264 104b 2E       		.uleb128 0x2e
 5265 104c 61726700 		.ascii	"arg\000"
 5266 1050 01       		.byte	0x1
 5267 1051 8F       		.byte	0x8f
 5268 1052 64030000 		.4byte	0x364
 5269 1056 00000000 		.4byte	.LLST0
 5270 105a 2F       		.uleb128 0x2f
 5271 105b 1E100000 		.4byte	0x101e
 5272 105f 00000000 		.4byte	.LBB96
 5273 1063 00000000 		.4byte	.Ldebug_ranges0+0
 5274 1067 01       		.byte	0x1
 5275 1068 92       		.byte	0x92
 5276 1069 30       		.uleb128 0x30
 5277 106a 00000000 		.4byte	.Ldebug_ranges0+0
 5278 106e 31       		.uleb128 0x31
 5279 106f 2A100000 		.4byte	0x102a
 5280 1073 21000000 		.4byte	.LLST1
 5281 1077 32       		.uleb128 0x32
 5282 1078 1E000000 		.4byte	.LVL4
 5283 107c D0270000 		.4byte	0x27d0
 5284 1080 00       		.byte	0
 5285 1081 00       		.byte	0
 5286 1082 00       		.byte	0
 5287 1083 33       		.uleb128 0x33
 5288 1084 530F0000 		.4byte	0xf53
 5289 1088 00000000 		.4byte	.LFB281
 5290 108c 20000000 		.4byte	.LFE281-.LFB281
 5291 1090 01       		.uleb128 0x1
 5292 1091 9C       		.byte	0x9c
 5293 1092 B9100000 		.4byte	0x10b9
 5294 1096 34       		.uleb128 0x34
 5295 1097 5F0F0000 		.4byte	0xf5f
 5296 109b 35       		.uleb128 0x35
 5297 109c 0C000000 		.4byte	.LVL7
 5298 10a0 E2270000 		.4byte	0x27e2
 5299 10a4 36       		.uleb128 0x36
 5300 10a5 01       		.uleb128 0x1
 5301 10a6 52       		.byte	0x52
 5302 10a7 01       		.uleb128 0x1
 5303 10a8 30       		.byte	0x30
 5304 10a9 36       		.uleb128 0x36
 5305 10aa 01       		.uleb128 0x1
 5306 10ab 51       		.byte	0x51
 5307 10ac 01       		.uleb128 0x1
 5308 10ad 30       		.byte	0x30
 5309 10ae 36       		.uleb128 0x36
 5310 10af 01       		.uleb128 0x1
 5311 10b0 50       		.byte	0x50
 5312 10b1 05       		.uleb128 0x5
 5313 10b2 03       		.byte	0x3
ARM GAS  C:\Users\jo\AppData\Local\Temp\ccDLAO0k.s 			page 97


 5314 10b3 00000000 		.4byte	pbuf_free_ooseq_callback
 5315 10b7 00       		.byte	0
 5316 10b8 00       		.byte	0
 5317 10b9 33       		.uleb128 0x33
 5318 10ba DB0F0000 		.4byte	0xfdb
 5319 10be 00000000 		.4byte	.LFB282
 5320 10c2 28000000 		.4byte	.LFE282-.LFB282
 5321 10c6 01       		.uleb128 0x1
 5322 10c7 9C       		.byte	0x9c
 5323 10c8 18110000 		.4byte	0x1118
 5324 10cc 37       		.uleb128 0x37
 5325 10cd EB0F0000 		.4byte	0xfeb
 5326 10d1 34000000 		.4byte	.LLST2
 5327 10d5 38       		.uleb128 0x38
 5328 10d6 F60F0000 		.4byte	0xff6
 5329 10da 02       		.uleb128 0x2
 5330 10db 91       		.byte	0x91
 5331 10dc 74       		.sleb128 -12
 5332 10dd 2B       		.uleb128 0x2b
 5333 10de 39       		.uleb128 0x39
 5334 10df 02100000 		.4byte	0x1002
 5335 10e3 02       		.uleb128 0x2
 5336 10e4 91       		.byte	0x91
 5337 10e5 6C       		.sleb128 -20
 5338 10e6 39       		.uleb128 0x39
 5339 10e7 0C100000 		.4byte	0x100c
 5340 10eb 01       		.uleb128 0x1
 5341 10ec 50       		.byte	0x50
 5342 10ed 38       		.uleb128 0x38
 5343 10ee F60F0000 		.4byte	0xff6
 5344 10f2 06       		.uleb128 0x6
 5345 10f3 03       		.byte	0x3
 5346 10f4 00000000 		.4byte	.LC0
 5347 10f8 9F       		.byte	0x9f
 5348 10f9 3A       		.uleb128 0x3a
 5349 10fa EB0F0000 		.4byte	0xfeb
 5350 10fe 35       		.uleb128 0x35
 5351 10ff 14000000 		.4byte	.LVL10
 5352 1103 01280000 		.4byte	0x2801
 5353 1107 36       		.uleb128 0x36
 5354 1108 01       		.uleb128 0x1
 5355 1109 52       		.byte	0x52
 5356 110a 02       		.uleb128 0x2
 5357 110b 91       		.byte	0x91
 5358 110c 60       		.sleb128 -32
 5359 110d 36       		.uleb128 0x36
 5360 110e 01       		.uleb128 0x1
 5361 110f 51       		.byte	0x51
 5362 1110 05       		.uleb128 0x5
 5363 1111 03       		.byte	0x3
 5364 1112 00000000 		.4byte	.LC0
 5365 1116 00       		.byte	0
 5366 1117 00       		.byte	0
 5367 1118 3B       		.uleb128 0x3b
 5368 1119 F3090000 		.4byte	.LASF262
 5369 111d 01       		.byte	0x1
 5370 111e 6F01     		.2byte	0x16f
ARM GAS  C:\Users\jo\AppData\Local\Temp\ccDLAO0k.s 			page 98


 5371 1120 2F0A0000 		.4byte	0xa2f
 5372 1124 00000000 		.4byte	.LFB264
 5373 1128 8C000000 		.4byte	.LFE264-.LFB264
 5374 112c 01       		.uleb128 0x1
 5375 112d 9C       		.byte	0x9c
 5376 112e FD110000 		.4byte	0x11fd
 5377 1132 3C       		.uleb128 0x3c
 5378 1133 6C00     		.ascii	"l\000"
 5379 1135 01       		.byte	0x1
 5380 1136 6F01     		.2byte	0x16f
 5381 1138 97090000 		.4byte	0x997
 5382 113c 55000000 		.4byte	.LLST3
 5383 1140 3D       		.uleb128 0x3d
 5384 1141 070A0000 		.4byte	.LASF259
 5385 1145 01       		.byte	0x1
 5386 1146 6F01     		.2byte	0x16f
 5387 1148 D0080000 		.4byte	0x8d0
 5388 114c DA000000 		.4byte	.LLST4
 5389 1150 3D       		.uleb128 0x3d
 5390 1151 FE0B0000 		.4byte	.LASF168
 5391 1155 01       		.byte	0x1
 5392 1156 6F01     		.2byte	0x16f
 5393 1158 C3090000 		.4byte	0x9c3
 5394 115c 06010000 		.4byte	.LLST5
 5395 1160 3C       		.uleb128 0x3c
 5396 1161 7000     		.ascii	"p\000"
 5397 1163 01       		.byte	0x1
 5398 1164 6F01     		.2byte	0x16f
 5399 1166 FD110000 		.4byte	0x11fd
 5400 116a 32010000 		.4byte	.LLST6
 5401 116e 3D       		.uleb128 0x3d
 5402 116f DF0C0000 		.4byte	.LASF260
 5403 1173 01       		.byte	0x1
 5404 1174 7001     		.2byte	0x170
 5405 1176 64030000 		.4byte	0x364
 5406 117a 5E010000 		.4byte	.LLST7
 5407 117e 3D       		.uleb128 0x3d
 5408 117f 7D080000 		.4byte	.LASF261
 5409 1183 01       		.byte	0x1
 5410 1184 7001     		.2byte	0x170
 5411 1186 D0080000 		.4byte	0x8d0
 5412 118a 7E010000 		.4byte	.LLST8
 5413 118e 3E       		.uleb128 0x3e
 5414 118f 46040000 		.4byte	.LASF103
 5415 1193 01       		.byte	0x1
 5416 1194 7201     		.2byte	0x172
 5417 1196 D0080000 		.4byte	0x8d0
 5418 119a 9E010000 		.4byte	.LLST9
 5419 119e 3F       		.uleb128 0x3f
 5420 119f 6B0F0000 		.4byte	0xf6b
 5421 11a3 66000000 		.4byte	.LBB100
 5422 11a7 06000000 		.4byte	.LBE100-.LBB100
 5423 11ab 01       		.byte	0x1
 5424 11ac 8701     		.2byte	0x187
 5425 11ae CF110000 		.4byte	0x11cf
 5426 11b2 37       		.uleb128 0x37
 5427 11b3 780F0000 		.4byte	0xf78
ARM GAS  C:\Users\jo\AppData\Local\Temp\ccDLAO0k.s 			page 99


 5428 11b7 B2010000 		.4byte	.LLST10
 5429 11bb 35       		.uleb128 0x35
 5430 11bc 6C000000 		.4byte	.LVL25
 5431 11c0 20280000 		.4byte	0x2820
 5432 11c4 36       		.uleb128 0x36
 5433 11c5 01       		.uleb128 0x1
 5434 11c6 50       		.byte	0x50
 5435 11c7 05       		.uleb128 0x5
 5436 11c8 03       		.byte	0x3
 5437 11c9 28000000 		.4byte	.LC1
 5438 11cd 00       		.byte	0
 5439 11ce 00       		.byte	0
 5440 11cf 35       		.uleb128 0x35
 5441 11d0 66000000 		.4byte	.LVL24
 5442 11d4 B9100000 		.4byte	0x10b9
 5443 11d8 36       		.uleb128 0x36
 5444 11d9 01       		.uleb128 0x1
 5445 11da 53       		.byte	0x53
 5446 11db 03       		.uleb128 0x3
 5447 11dc 0A       		.byte	0xa
 5448 11dd 8701     		.2byte	0x187
 5449 11df 36       		.uleb128 0x36
 5450 11e0 01       		.uleb128 0x1
 5451 11e1 52       		.byte	0x52
 5452 11e2 05       		.uleb128 0x5
 5453 11e3 03       		.byte	0x3
 5454 11e4 28000000 		.4byte	.LC1
 5455 11e8 36       		.uleb128 0x36
 5456 11e9 01       		.uleb128 0x1
 5457 11ea 51       		.byte	0x51
 5458 11eb 05       		.uleb128 0x5
 5459 11ec 03       		.byte	0x3
 5460 11ed 00000000 		.4byte	.LC0
 5461 11f1 36       		.uleb128 0x36
 5462 11f2 02       		.uleb128 0x2
 5463 11f3 7D       		.byte	0x7d
 5464 11f4 00       		.sleb128 0
 5465 11f5 05       		.uleb128 0x5
 5466 11f6 03       		.byte	0x3
 5467 11f7 4C000000 		.4byte	.LC2
 5468 11fb 00       		.byte	0
 5469 11fc 00       		.byte	0
 5470 11fd 0A       		.uleb128 0xa
 5471 11fe 04       		.byte	0x4
 5472 11ff 510A0000 		.4byte	0xa51
 5473 1203 3B       		.uleb128 0x3b
 5474 1204 1B060000 		.4byte	.LASF263
 5475 1208 01       		.byte	0x1
 5476 1209 FF01     		.2byte	0x1ff
 5477 120b BA080000 		.4byte	0x8ba
 5478 120f 00000000 		.4byte	.LFB266
 5479 1213 D4000000 		.4byte	.LFE266-.LFB266
 5480 1217 01       		.uleb128 0x1
 5481 1218 9C       		.byte	0x9c
 5482 1219 8E130000 		.4byte	0x138e
 5483 121d 3C       		.uleb128 0x3c
 5484 121e 7000     		.ascii	"p\000"
ARM GAS  C:\Users\jo\AppData\Local\Temp\ccDLAO0k.s 			page 100


 5485 1220 01       		.byte	0x1
 5486 1221 FF01     		.2byte	0x1ff
 5487 1223 2F0A0000 		.4byte	0xa2f
 5488 1227 CA010000 		.4byte	.LLST11
 5489 122b 3D       		.uleb128 0x3d
 5490 122c 7C060000 		.4byte	.LASF264
 5491 1230 01       		.byte	0x1
 5492 1231 FF01     		.2byte	0x1ff
 5493 1233 DB080000 		.4byte	0x8db
 5494 1237 14020000 		.4byte	.LLST12
 5495 123b 3E       		.uleb128 0x3e
 5496 123c FE0B0000 		.4byte	.LASF168
 5497 1240 01       		.byte	0x1
 5498 1241 0102     		.2byte	0x201
 5499 1243 D0080000 		.4byte	0x8d0
 5500 1247 8B020000 		.4byte	.LLST13
 5501 124b 3E       		.uleb128 0x3e
 5502 124c 1B050000 		.4byte	.LASF166
 5503 1250 01       		.byte	0x1
 5504 1251 0202     		.2byte	0x202
 5505 1253 64030000 		.4byte	0x364
 5506 1257 2A030000 		.4byte	.LLST14
 5507 125b 3E       		.uleb128 0x3e
 5508 125c 9E050000 		.4byte	.LASF265
 5509 1260 01       		.byte	0x1
 5510 1261 0302     		.2byte	0x203
 5511 1263 D0080000 		.4byte	0x8d0
 5512 1267 8D030000 		.4byte	.LLST15
 5513 126b 3F       		.uleb128 0x3f
 5514 126c 6B0F0000 		.4byte	0xf6b
 5515 1270 66000000 		.4byte	.LBB102
 5516 1274 06000000 		.4byte	.LBE102-.LBB102
 5517 1278 01       		.byte	0x1
 5518 1279 0D02     		.2byte	0x20d
 5519 127b 9C120000 		.4byte	0x129c
 5520 127f 37       		.uleb128 0x37
 5521 1280 780F0000 		.4byte	0xf78
 5522 1284 C1030000 		.4byte	.LLST16
 5523 1288 35       		.uleb128 0x35
 5524 1289 6C000000 		.4byte	.LVL46
 5525 128d 20280000 		.4byte	0x2820
 5526 1291 36       		.uleb128 0x36
 5527 1292 01       		.uleb128 0x1
 5528 1293 50       		.byte	0x50
 5529 1294 05       		.uleb128 0x5
 5530 1295 03       		.byte	0x3
 5531 1296 7C000000 		.4byte	.LC4
 5532 129a 00       		.byte	0
 5533 129b 00       		.byte	0
 5534 129c 3F       		.uleb128 0x3f
 5535 129d 6B0F0000 		.4byte	0xf6b
 5536 12a1 8A000000 		.4byte	.LBB104
 5537 12a5 06000000 		.4byte	.LBE104-.LBB104
 5538 12a9 01       		.byte	0x1
 5539 12aa 3B02     		.2byte	0x23b
 5540 12ac CD120000 		.4byte	0x12cd
 5541 12b0 37       		.uleb128 0x37
ARM GAS  C:\Users\jo\AppData\Local\Temp\ccDLAO0k.s 			page 101


 5542 12b1 780F0000 		.4byte	0xf78
 5543 12b5 D9030000 		.4byte	.LLST17
 5544 12b9 35       		.uleb128 0x35
 5545 12ba 90000000 		.4byte	.LVL56
 5546 12be 20280000 		.4byte	0x2820
 5547 12c2 36       		.uleb128 0x36
 5548 12c3 01       		.uleb128 0x1
 5549 12c4 50       		.byte	0x50
 5550 12c5 05       		.uleb128 0x5
 5551 12c6 03       		.byte	0x3
 5552 12c7 9C000000 		.4byte	.LC5
 5553 12cb 00       		.byte	0
 5554 12cc 00       		.byte	0
 5555 12cd 3F       		.uleb128 0x3f
 5556 12ce 6B0F0000 		.4byte	0xf6b
 5557 12d2 A6000000 		.4byte	.LBB106
 5558 12d6 06000000 		.4byte	.LBE106-.LBB106
 5559 12da 01       		.byte	0x1
 5560 12db 0502     		.2byte	0x205
 5561 12dd FE120000 		.4byte	0x12fe
 5562 12e1 37       		.uleb128 0x37
 5563 12e2 780F0000 		.4byte	0xf78
 5564 12e6 F1030000 		.4byte	.LLST18
 5565 12ea 35       		.uleb128 0x35
 5566 12eb AC000000 		.4byte	.LVL61
 5567 12ef 20280000 		.4byte	0x2820
 5568 12f3 36       		.uleb128 0x36
 5569 12f4 01       		.uleb128 0x1
 5570 12f5 50       		.byte	0x50
 5571 12f6 05       		.uleb128 0x5
 5572 12f7 03       		.byte	0x3
 5573 12f8 70000000 		.4byte	.LC3
 5574 12fc 00       		.byte	0
 5575 12fd 00       		.byte	0
 5576 12fe 40       		.uleb128 0x40
 5577 12ff 66000000 		.4byte	.LVL45
 5578 1303 B9100000 		.4byte	0x10b9
 5579 1307 2F130000 		.4byte	0x132f
 5580 130b 36       		.uleb128 0x36
 5581 130c 01       		.uleb128 0x1
 5582 130d 53       		.byte	0x53
 5583 130e 03       		.uleb128 0x3
 5584 130f 0A       		.byte	0xa
 5585 1310 0D02     		.2byte	0x20d
 5586 1312 36       		.uleb128 0x36
 5587 1313 01       		.uleb128 0x1
 5588 1314 52       		.byte	0x52
 5589 1315 05       		.uleb128 0x5
 5590 1316 03       		.byte	0x3
 5591 1317 7C000000 		.4byte	.LC4
 5592 131b 36       		.uleb128 0x36
 5593 131c 01       		.uleb128 0x1
 5594 131d 51       		.byte	0x51
 5595 131e 05       		.uleb128 0x5
 5596 131f 03       		.byte	0x3
 5597 1320 00000000 		.4byte	.LC0
 5598 1324 36       		.uleb128 0x36
ARM GAS  C:\Users\jo\AppData\Local\Temp\ccDLAO0k.s 			page 102


 5599 1325 02       		.uleb128 0x2
 5600 1326 7D       		.byte	0x7d
 5601 1327 00       		.sleb128 0
 5602 1328 05       		.uleb128 0x5
 5603 1329 03       		.byte	0x3
 5604 132a 4C000000 		.4byte	.LC2
 5605 132e 00       		.byte	0
 5606 132f 40       		.uleb128 0x40
 5607 1330 8A000000 		.4byte	.LVL55
 5608 1334 B9100000 		.4byte	0x10b9
 5609 1338 60130000 		.4byte	0x1360
 5610 133c 36       		.uleb128 0x36
 5611 133d 01       		.uleb128 0x1
 5612 133e 53       		.byte	0x53
 5613 133f 03       		.uleb128 0x3
 5614 1340 0A       		.byte	0xa
 5615 1341 3B02     		.2byte	0x23b
 5616 1343 36       		.uleb128 0x36
 5617 1344 01       		.uleb128 0x1
 5618 1345 52       		.byte	0x52
 5619 1346 05       		.uleb128 0x5
 5620 1347 03       		.byte	0x3
 5621 1348 9C000000 		.4byte	.LC5
 5622 134c 36       		.uleb128 0x36
 5623 134d 01       		.uleb128 0x1
 5624 134e 51       		.byte	0x51
 5625 134f 05       		.uleb128 0x5
 5626 1350 03       		.byte	0x3
 5627 1351 00000000 		.4byte	.LC0
 5628 1355 36       		.uleb128 0x36
 5629 1356 02       		.uleb128 0x2
 5630 1357 7D       		.byte	0x7d
 5631 1358 00       		.sleb128 0
 5632 1359 05       		.uleb128 0x5
 5633 135a 03       		.byte	0x3
 5634 135b 4C000000 		.4byte	.LC2
 5635 135f 00       		.byte	0
 5636 1360 35       		.uleb128 0x35
 5637 1361 A6000000 		.4byte	.LVL60
 5638 1365 B9100000 		.4byte	0x10b9
 5639 1369 36       		.uleb128 0x36
 5640 136a 01       		.uleb128 0x1
 5641 136b 53       		.byte	0x53
 5642 136c 03       		.uleb128 0x3
 5643 136d 0A       		.byte	0xa
 5644 136e 0502     		.2byte	0x205
 5645 1370 36       		.uleb128 0x36
 5646 1371 01       		.uleb128 0x1
 5647 1372 52       		.byte	0x52
 5648 1373 05       		.uleb128 0x5
 5649 1374 03       		.byte	0x3
 5650 1375 70000000 		.4byte	.LC3
 5651 1379 36       		.uleb128 0x36
 5652 137a 01       		.uleb128 0x1
 5653 137b 51       		.byte	0x51
 5654 137c 05       		.uleb128 0x5
 5655 137d 03       		.byte	0x3
ARM GAS  C:\Users\jo\AppData\Local\Temp\ccDLAO0k.s 			page 103


 5656 137e 00000000 		.4byte	.LC0
 5657 1382 36       		.uleb128 0x36
 5658 1383 02       		.uleb128 0x2
 5659 1384 7D       		.byte	0x7d
 5660 1385 00       		.sleb128 0
 5661 1386 05       		.uleb128 0x5
 5662 1387 03       		.byte	0x3
 5663 1388 4C000000 		.4byte	.LC2
 5664 138c 00       		.byte	0
 5665 138d 00       		.byte	0
 5666 138e 3B       		.uleb128 0x3b
 5667 138f 4C070000 		.4byte	.LASF266
 5668 1393 01       		.byte	0x1
 5669 1394 6A02     		.2byte	0x26a
 5670 1396 BA080000 		.4byte	0x8ba
 5671 139a 00000000 		.4byte	.LFB267
 5672 139e D4000000 		.4byte	.LFE267-.LFB267
 5673 13a2 01       		.uleb128 0x1
 5674 13a3 9C       		.byte	0x9c
 5675 13a4 B5150000 		.4byte	0x15b5
 5676 13a8 3C       		.uleb128 0x3c
 5677 13a9 7000     		.ascii	"p\000"
 5678 13ab 01       		.byte	0x1
 5679 13ac 6A02     		.2byte	0x26a
 5680 13ae 2F0A0000 		.4byte	0xa2f
 5681 13b2 09040000 		.4byte	.LLST19
 5682 13b6 3E       		.uleb128 0x3e
 5683 13b7 FE0B0000 		.4byte	.LASF168
 5684 13bb 01       		.byte	0x1
 5685 13bc 6C02     		.2byte	0x26c
 5686 13be D0080000 		.4byte	0x8d0
 5687 13c2 7F040000 		.4byte	.LLST20
 5688 13c6 41       		.uleb128 0x41
 5689 13c7 7100     		.ascii	"q\000"
 5690 13c9 01       		.byte	0x1
 5691 13ca 6D02     		.2byte	0x26d
 5692 13cc 2F0A0000 		.4byte	0xa2f
 5693 13d0 BD040000 		.4byte	.LLST21
 5694 13d4 3E       		.uleb128 0x3e
 5695 13d5 F3030000 		.4byte	.LASF267
 5696 13d9 01       		.byte	0x1
 5697 13da 6E02     		.2byte	0x26e
 5698 13dc BA080000 		.4byte	0x8ba
 5699 13e0 E6040000 		.4byte	.LLST22
 5700 13e4 42       		.uleb128 0x42
 5701 13e5 18000000 		.4byte	.Ldebug_ranges0+0x18
 5702 13e9 F1140000 		.4byte	0x14f1
 5703 13ed 41       		.uleb128 0x41
 5704 13ee 72656600 		.ascii	"ref\000"
 5705 13f2 01       		.byte	0x1
 5706 13f3 8302     		.2byte	0x283
 5707 13f5 D0080000 		.4byte	0x8d0
 5708 13f9 26050000 		.4byte	.LLST23
 5709 13fd 42       		.uleb128 0x42
 5710 13fe 38000000 		.4byte	.Ldebug_ranges0+0x38
 5711 1402 81140000 		.4byte	0x1481
 5712 1406 41       		.uleb128 0x41
ARM GAS  C:\Users\jo\AppData\Local\Temp\ccDLAO0k.s 			page 104


 5713 1407 706300   		.ascii	"pc\000"
 5714 140a 01       		.byte	0x1
 5715 140b 9702     		.2byte	0x297
 5716 140d FD110000 		.4byte	0x11fd
 5717 1411 5D050000 		.4byte	.LLST24
 5718 1415 3F       		.uleb128 0x3f
 5719 1416 6B0F0000 		.4byte	0xf6b
 5720 141a 78000000 		.4byte	.LBB110
 5721 141e 0A000000 		.4byte	.LBE110-.LBB110
 5722 1422 01       		.byte	0x1
 5723 1423 9802     		.2byte	0x298
 5724 1425 46140000 		.4byte	0x1446
 5725 1429 37       		.uleb128 0x37
 5726 142a 780F0000 		.4byte	0xf78
 5727 142e 7B050000 		.4byte	.LLST25
 5728 1432 35       		.uleb128 0x35
 5729 1433 7E000000 		.4byte	.LVL89
 5730 1437 20280000 		.4byte	0x2820
 5731 143b 36       		.uleb128 0x36
 5732 143c 01       		.uleb128 0x1
 5733 143d 50       		.byte	0x50
 5734 143e 05       		.uleb128 0x5
 5735 143f 03       		.byte	0x3
 5736 1440 DC000000 		.4byte	.LC8
 5737 1444 00       		.byte	0
 5738 1445 00       		.byte	0
 5739 1446 43       		.uleb128 0x43
 5740 1447 20000000 		.4byte	.LVL71
 5741 144b 56140000 		.4byte	0x1456
 5742 144f 36       		.uleb128 0x36
 5743 1450 01       		.uleb128 0x1
 5744 1451 50       		.byte	0x50
 5745 1452 02       		.uleb128 0x2
 5746 1453 74       		.byte	0x74
 5747 1454 00       		.sleb128 0
 5748 1455 00       		.byte	0
 5749 1456 35       		.uleb128 0x35
 5750 1457 78000000 		.4byte	.LVL88
 5751 145b B9100000 		.4byte	0x10b9
 5752 145f 36       		.uleb128 0x36
 5753 1460 01       		.uleb128 0x1
 5754 1461 53       		.byte	0x53
 5755 1462 03       		.uleb128 0x3
 5756 1463 0A       		.byte	0xa
 5757 1464 9802     		.2byte	0x298
 5758 1466 36       		.uleb128 0x36
 5759 1467 01       		.uleb128 0x1
 5760 1468 52       		.byte	0x52
 5761 1469 05       		.uleb128 0x5
 5762 146a 03       		.byte	0x3
 5763 146b DC000000 		.4byte	.LC8
 5764 146f 36       		.uleb128 0x36
 5765 1470 01       		.uleb128 0x1
 5766 1471 51       		.byte	0x51
 5767 1472 05       		.uleb128 0x5
 5768 1473 03       		.byte	0x3
 5769 1474 00000000 		.4byte	.LC0
ARM GAS  C:\Users\jo\AppData\Local\Temp\ccDLAO0k.s 			page 105


 5770 1478 36       		.uleb128 0x36
 5771 1479 02       		.uleb128 0x2
 5772 147a 7D       		.byte	0x7d
 5773 147b 00       		.sleb128 0
 5774 147c 02       		.uleb128 0x2
 5775 147d 76       		.byte	0x76
 5776 147e 00       		.sleb128 0
 5777 147f 00       		.byte	0
 5778 1480 00       		.byte	0
 5779 1481 3F       		.uleb128 0x3f
 5780 1482 6B0F0000 		.4byte	0xf6b
 5781 1486 5E000000 		.4byte	.LBB113
 5782 148a 0A000000 		.4byte	.LBE113-.LBB113
 5783 148e 01       		.byte	0x1
 5784 148f 8A02     		.2byte	0x28a
 5785 1491 B2140000 		.4byte	0x14b2
 5786 1495 37       		.uleb128 0x37
 5787 1496 780F0000 		.4byte	0xf78
 5788 149a 93050000 		.4byte	.LLST26
 5789 149e 35       		.uleb128 0x35
 5790 149f 64000000 		.4byte	.LVL85
 5791 14a3 20280000 		.4byte	0x2820
 5792 14a7 36       		.uleb128 0x36
 5793 14a8 01       		.uleb128 0x1
 5794 14a9 50       		.byte	0x50
 5795 14aa 05       		.uleb128 0x5
 5796 14ab 03       		.byte	0x3
 5797 14ac C4000000 		.4byte	.LC7
 5798 14b0 00       		.byte	0
 5799 14b1 00       		.byte	0
 5800 14b2 40       		.uleb128 0x40
 5801 14b3 42000000 		.4byte	.LVL79
 5802 14b7 32280000 		.4byte	0x2832
 5803 14bb C6140000 		.4byte	0x14c6
 5804 14bf 36       		.uleb128 0x36
 5805 14c0 01       		.uleb128 0x1
 5806 14c1 50       		.byte	0x50
 5807 14c2 02       		.uleb128 0x2
 5808 14c3 74       		.byte	0x74
 5809 14c4 00       		.sleb128 0
 5810 14c5 00       		.byte	0
 5811 14c6 35       		.uleb128 0x35
 5812 14c7 5E000000 		.4byte	.LVL84
 5813 14cb B9100000 		.4byte	0x10b9
 5814 14cf 36       		.uleb128 0x36
 5815 14d0 01       		.uleb128 0x1
 5816 14d1 53       		.byte	0x53
 5817 14d2 03       		.uleb128 0x3
 5818 14d3 0A       		.byte	0xa
 5819 14d4 8A02     		.2byte	0x28a
 5820 14d6 36       		.uleb128 0x36
 5821 14d7 01       		.uleb128 0x1
 5822 14d8 52       		.byte	0x52
 5823 14d9 05       		.uleb128 0x5
 5824 14da 03       		.byte	0x3
 5825 14db C4000000 		.4byte	.LC7
 5826 14df 36       		.uleb128 0x36
ARM GAS  C:\Users\jo\AppData\Local\Temp\ccDLAO0k.s 			page 106


 5827 14e0 01       		.uleb128 0x1
 5828 14e1 51       		.byte	0x51
 5829 14e2 05       		.uleb128 0x5
 5830 14e3 03       		.byte	0x3
 5831 14e4 00000000 		.4byte	.LC0
 5832 14e8 36       		.uleb128 0x36
 5833 14e9 02       		.uleb128 0x2
 5834 14ea 7D       		.byte	0x7d
 5835 14eb 00       		.sleb128 0
 5836 14ec 02       		.uleb128 0x2
 5837 14ed 76       		.byte	0x76
 5838 14ee 00       		.sleb128 0
 5839 14ef 00       		.byte	0
 5840 14f0 00       		.byte	0
 5841 14f1 3F       		.uleb128 0x3f
 5842 14f2 6B0F0000 		.4byte	0xf6b
 5843 14f6 94000000 		.4byte	.LBB118
 5844 14fa 08000000 		.4byte	.LBE118-.LBB118
 5845 14fe 01       		.byte	0x1
 5846 14ff 7B02     		.2byte	0x27b
 5847 1501 22150000 		.4byte	0x1522
 5848 1505 37       		.uleb128 0x37
 5849 1506 780F0000 		.4byte	0xf78
 5850 150a AB050000 		.4byte	.LLST27
 5851 150e 35       		.uleb128 0x35
 5852 150f 9A000000 		.4byte	.LVL93
 5853 1513 20280000 		.4byte	0x2820
 5854 1517 36       		.uleb128 0x36
 5855 1518 01       		.uleb128 0x1
 5856 1519 50       		.byte	0x50
 5857 151a 05       		.uleb128 0x5
 5858 151b 03       		.byte	0x3
 5859 151c AC000000 		.4byte	.LC6
 5860 1520 00       		.byte	0
 5861 1521 00       		.byte	0
 5862 1522 3F       		.uleb128 0x3f
 5863 1523 6B0F0000 		.4byte	0xf6b
 5864 1527 AE000000 		.4byte	.LBB120
 5865 152b 06000000 		.4byte	.LBE120-.LBB120
 5866 152f 01       		.byte	0x1
 5867 1530 7102     		.2byte	0x271
 5868 1532 56150000 		.4byte	0x1556
 5869 1536 38       		.uleb128 0x38
 5870 1537 780F0000 		.4byte	0xf78
 5871 153b 06       		.uleb128 0x6
 5872 153c 03       		.byte	0x3
 5873 153d 70000000 		.4byte	.LC3
 5874 1541 9F       		.byte	0x9f
 5875 1542 35       		.uleb128 0x35
 5876 1543 B4000000 		.4byte	.LVL97
 5877 1547 20280000 		.4byte	0x2820
 5878 154b 36       		.uleb128 0x36
 5879 154c 01       		.uleb128 0x1
 5880 154d 50       		.byte	0x50
 5881 154e 05       		.uleb128 0x5
 5882 154f 03       		.byte	0x3
 5883 1550 70000000 		.4byte	.LC3
ARM GAS  C:\Users\jo\AppData\Local\Temp\ccDLAO0k.s 			page 107


 5884 1554 00       		.byte	0
 5885 1555 00       		.byte	0
 5886 1556 40       		.uleb128 0x40
 5887 1557 94000000 		.4byte	.LVL92
 5888 155b B9100000 		.4byte	0x10b9
 5889 155f 87150000 		.4byte	0x1587
 5890 1563 36       		.uleb128 0x36
 5891 1564 01       		.uleb128 0x1
 5892 1565 53       		.byte	0x53
 5893 1566 03       		.uleb128 0x3
 5894 1567 0A       		.byte	0xa
 5895 1568 7D02     		.2byte	0x27d
 5896 156a 36       		.uleb128 0x36
 5897 156b 01       		.uleb128 0x1
 5898 156c 52       		.byte	0x52
 5899 156d 05       		.uleb128 0x5
 5900 156e 03       		.byte	0x3
 5901 156f AC000000 		.4byte	.LC6
 5902 1573 36       		.uleb128 0x36
 5903 1574 01       		.uleb128 0x1
 5904 1575 51       		.byte	0x51
 5905 1576 05       		.uleb128 0x5
 5906 1577 03       		.byte	0x3
 5907 1578 00000000 		.4byte	.LC0
 5908 157c 36       		.uleb128 0x36
 5909 157d 02       		.uleb128 0x2
 5910 157e 7D       		.byte	0x7d
 5911 157f 00       		.sleb128 0
 5912 1580 05       		.uleb128 0x5
 5913 1581 03       		.byte	0x3
 5914 1582 4C000000 		.4byte	.LC2
 5915 1586 00       		.byte	0
 5916 1587 35       		.uleb128 0x35
 5917 1588 AE000000 		.4byte	.LVL96
 5918 158c B9100000 		.4byte	0x10b9
 5919 1590 36       		.uleb128 0x36
 5920 1591 01       		.uleb128 0x1
 5921 1592 53       		.byte	0x53
 5922 1593 03       		.uleb128 0x3
 5923 1594 0A       		.byte	0xa
 5924 1595 7102     		.2byte	0x271
 5925 1597 36       		.uleb128 0x36
 5926 1598 01       		.uleb128 0x1
 5927 1599 52       		.byte	0x52
 5928 159a 05       		.uleb128 0x5
 5929 159b 03       		.byte	0x3
 5930 159c 70000000 		.4byte	.LC3
 5931 15a0 36       		.uleb128 0x36
 5932 15a1 01       		.uleb128 0x1
 5933 15a2 51       		.byte	0x51
 5934 15a3 05       		.uleb128 0x5
 5935 15a4 03       		.byte	0x3
 5936 15a5 00000000 		.4byte	.LC0
 5937 15a9 36       		.uleb128 0x36
 5938 15aa 02       		.uleb128 0x2
 5939 15ab 7D       		.byte	0x7d
 5940 15ac 00       		.sleb128 0
ARM GAS  C:\Users\jo\AppData\Local\Temp\ccDLAO0k.s 			page 108


 5941 15ad 05       		.uleb128 0x5
 5942 15ae 03       		.byte	0x3
 5943 15af 4C000000 		.4byte	.LC2
 5944 15b3 00       		.byte	0
 5945 15b4 00       		.byte	0
 5946 15b5 44       		.uleb128 0x44
 5947 15b6 F9030000 		.4byte	.LASF268
 5948 15ba 01       		.byte	0x1
 5949 15bb CF       		.byte	0xcf
 5950 15bc 2F0A0000 		.4byte	0xa2f
 5951 15c0 00000000 		.4byte	.LFB263
 5952 15c4 1C020000 		.4byte	.LFE263-.LFB263
 5953 15c8 01       		.uleb128 0x1
 5954 15c9 9C       		.byte	0x9c
 5955 15ca E4180000 		.4byte	0x18e4
 5956 15ce 45       		.uleb128 0x45
 5957 15cf DA070000 		.4byte	.LASF269
 5958 15d3 01       		.byte	0x1
 5959 15d4 CF       		.byte	0xcf
 5960 15d5 97090000 		.4byte	0x997
 5961 15d9 C3050000 		.4byte	.LLST28
 5962 15dd 45       		.uleb128 0x45
 5963 15de 070A0000 		.4byte	.LASF259
 5964 15e2 01       		.byte	0x1
 5965 15e3 CF       		.byte	0xcf
 5966 15e4 D0080000 		.4byte	0x8d0
 5967 15e8 48060000 		.4byte	.LLST29
 5968 15ec 45       		.uleb128 0x45
 5969 15ed FE0B0000 		.4byte	.LASF168
 5970 15f1 01       		.byte	0x1
 5971 15f2 CF       		.byte	0xcf
 5972 15f3 C3090000 		.4byte	0x9c3
 5973 15f7 CD060000 		.4byte	.LLST30
 5974 15fb 46       		.uleb128 0x46
 5975 15fc 7000     		.ascii	"p\000"
 5976 15fe 01       		.byte	0x1
 5977 15ff D1       		.byte	0xd1
 5978 1600 2F0A0000 		.4byte	0xa2f
 5979 1604 52070000 		.4byte	.LLST31
 5980 1608 46       		.uleb128 0x46
 5981 1609 7100     		.ascii	"q\000"
 5982 160b 01       		.byte	0x1
 5983 160c D1       		.byte	0xd1
 5984 160d 2F0A0000 		.4byte	0xa2f
 5985 1611 C8070000 		.4byte	.LLST32
 5986 1615 46       		.uleb128 0x46
 5987 1616 7200     		.ascii	"r\000"
 5988 1618 01       		.byte	0x1
 5989 1619 D1       		.byte	0xd1
 5990 161a 2F0A0000 		.4byte	0xa2f
 5991 161e 12080000 		.4byte	.LLST33
 5992 1622 47       		.uleb128 0x47
 5993 1623 46040000 		.4byte	.LASF103
 5994 1627 01       		.byte	0x1
 5995 1628 D2       		.byte	0xd2
 5996 1629 D0080000 		.4byte	0x8d0
 5997 162d 46080000 		.4byte	.LLST34
ARM GAS  C:\Users\jo\AppData\Local\Temp\ccDLAO0k.s 			page 109


 5998 1631 47       		.uleb128 0x47
 5999 1632 43080000 		.4byte	.LASF270
 6000 1636 01       		.byte	0x1
 6001 1637 D3       		.byte	0xd3
 6002 1638 F1080000 		.4byte	0x8f1
 6003 163c 86080000 		.4byte	.LLST35
 6004 1640 3F       		.uleb128 0x3f
 6005 1641 6B0F0000 		.4byte	0xf6b
 6006 1645 E0000000 		.4byte	.LBB122
 6007 1649 08000000 		.4byte	.LBE122-.LBB122
 6008 164d 01       		.byte	0x1
 6009 164e 1E01     		.2byte	0x11e
 6010 1650 71160000 		.4byte	0x1671
 6011 1654 37       		.uleb128 0x37
 6012 1655 780F0000 		.4byte	0xf78
 6013 1659 AF080000 		.4byte	.LLST36
 6014 165d 35       		.uleb128 0x35
 6015 165e E6000000 		.4byte	.LVL112
 6016 1662 20280000 		.4byte	0x2820
 6017 1666 36       		.uleb128 0x36
 6018 1667 01       		.uleb128 0x1
 6019 1668 50       		.byte	0x50
 6020 1669 05       		.uleb128 0x5
 6021 166a 03       		.byte	0x3
 6022 166b 50010000 		.4byte	.LC11
 6023 166f 00       		.byte	0
 6024 1670 00       		.byte	0
 6025 1671 3F       		.uleb128 0x3f
 6026 1672 6B0F0000 		.4byte	0xf6b
 6027 1676 60010000 		.4byte	.LBB124
 6028 167a 06000000 		.4byte	.LBE124-.LBB124
 6029 167e 01       		.byte	0x1
 6030 167f 5401     		.2byte	0x154
 6031 1681 A2160000 		.4byte	0x16a2
 6032 1685 37       		.uleb128 0x37
 6033 1686 780F0000 		.4byte	0xf78
 6034 168a C7080000 		.4byte	.LLST37
 6035 168e 35       		.uleb128 0x35
 6036 168f 66010000 		.4byte	.LVL128
 6037 1693 20280000 		.4byte	0x2820
 6038 1697 36       		.uleb128 0x36
 6039 1698 01       		.uleb128 0x1
 6040 1699 50       		.byte	0x50
 6041 169a 05       		.uleb128 0x5
 6042 169b 03       		.byte	0x3
 6043 169c 64010000 		.4byte	.LC12
 6044 16a0 00       		.byte	0
 6045 16a1 00       		.byte	0
 6046 16a2 48       		.uleb128 0x48
 6047 16a3 6B0F0000 		.4byte	0xf6b
 6048 16a7 7E010000 		.4byte	.LBB126
 6049 16ab 06000000 		.4byte	.LBE126-.LBB126
 6050 16af 01       		.byte	0x1
 6051 16b0 E8       		.byte	0xe8
 6052 16b1 D2160000 		.4byte	0x16d2
 6053 16b5 37       		.uleb128 0x37
 6054 16b6 780F0000 		.4byte	0xf78
ARM GAS  C:\Users\jo\AppData\Local\Temp\ccDLAO0k.s 			page 110


 6055 16ba DF080000 		.4byte	.LLST38
 6056 16be 35       		.uleb128 0x35
 6057 16bf 84010000 		.4byte	.LVL135
 6058 16c3 20280000 		.4byte	0x2820
 6059 16c7 36       		.uleb128 0x36
 6060 16c8 01       		.uleb128 0x1
 6061 16c9 50       		.byte	0x50
 6062 16ca 05       		.uleb128 0x5
 6063 16cb 03       		.byte	0x3
 6064 16cc 00010000 		.4byte	.LC9
 6065 16d0 00       		.byte	0
 6066 16d1 00       		.byte	0
 6067 16d2 3F       		.uleb128 0x3f
 6068 16d3 530F0000 		.4byte	0xf53
 6069 16d7 8C010000 		.4byte	.LBB128
 6070 16db 0E000000 		.4byte	.LBE128-.LBB128
 6071 16df 01       		.byte	0x1
 6072 16e0 1201     		.2byte	0x112
 6073 16e2 03170000 		.4byte	0x1703
 6074 16e6 49       		.uleb128 0x49
 6075 16e7 8C010000 		.4byte	.LBB129
 6076 16eb 0E000000 		.4byte	.LBE129-.LBB129
 6077 16ef 31       		.uleb128 0x31
 6078 16f0 5F0F0000 		.4byte	0xf5f
 6079 16f4 F7080000 		.4byte	.LLST39
 6080 16f8 32       		.uleb128 0x32
 6081 16f9 9A010000 		.4byte	.LVL138
 6082 16fd 83100000 		.4byte	0x1083
 6083 1701 00       		.byte	0
 6084 1702 00       		.byte	0
 6085 1703 3F       		.uleb128 0x3f
 6086 1704 6B0F0000 		.4byte	0xf6b
 6087 1708 BA010000 		.4byte	.LBB130
 6088 170c 0A000000 		.4byte	.LBE130-.LBB130
 6089 1710 01       		.byte	0x1
 6090 1711 2501     		.2byte	0x125
 6091 1713 34170000 		.4byte	0x1734
 6092 1717 37       		.uleb128 0x37
 6093 1718 780F0000 		.4byte	0xf78
 6094 171c 0A090000 		.4byte	.LLST40
 6095 1720 35       		.uleb128 0x35
 6096 1721 C0010000 		.4byte	.LVL142
 6097 1725 20280000 		.4byte	0x2820
 6098 1729 36       		.uleb128 0x36
 6099 172a 01       		.uleb128 0x1
 6100 172b 50       		.byte	0x50
 6101 172c 05       		.uleb128 0x5
 6102 172d 03       		.byte	0x3
 6103 172e 1C010000 		.4byte	.LC10
 6104 1732 00       		.byte	0
 6105 1733 00       		.byte	0
 6106 1734 48       		.uleb128 0x48
 6107 1735 530F0000 		.4byte	0xf53
 6108 1739 C4010000 		.4byte	.LBB132
 6109 173d 14000000 		.4byte	.LBE132-.LBB132
 6110 1741 01       		.byte	0x1
 6111 1742 F2       		.byte	0xf2
ARM GAS  C:\Users\jo\AppData\Local\Temp\ccDLAO0k.s 			page 111


 6112 1743 64170000 		.4byte	0x1764
 6113 1747 49       		.uleb128 0x49
 6114 1748 C4010000 		.4byte	.LBB133
 6115 174c 14000000 		.4byte	.LBE133-.LBB133
 6116 1750 31       		.uleb128 0x31
 6117 1751 5F0F0000 		.4byte	0xf5f
 6118 1755 22090000 		.4byte	.LLST41
 6119 1759 32       		.uleb128 0x32
 6120 175a D8010000 		.4byte	.LVL145
 6121 175e 83100000 		.4byte	0x1083
 6122 1762 00       		.byte	0
 6123 1763 00       		.byte	0
 6124 1764 3F       		.uleb128 0x3f
 6125 1765 6B0F0000 		.4byte	0xf6b
 6126 1769 EE010000 		.4byte	.LBB134
 6127 176d 2E000000 		.4byte	.LBE134-.LBB134
 6128 1771 01       		.byte	0x1
 6129 1772 0001     		.2byte	0x100
 6130 1774 98170000 		.4byte	0x1798
 6131 1778 38       		.uleb128 0x38
 6132 1779 780F0000 		.4byte	0xf78
 6133 177d 06       		.uleb128 0x6
 6134 177e 03       		.byte	0x3
 6135 177f 1C010000 		.4byte	.LC10
 6136 1783 9F       		.byte	0x9f
 6137 1784 35       		.uleb128 0x35
 6138 1785 F4010000 		.4byte	.LVL149
 6139 1789 20280000 		.4byte	0x2820
 6140 178d 36       		.uleb128 0x36
 6141 178e 01       		.uleb128 0x1
 6142 178f 50       		.byte	0x50
 6143 1790 05       		.uleb128 0x5
 6144 1791 03       		.byte	0x3
 6145 1792 1C010000 		.4byte	.LC10
 6146 1796 00       		.byte	0
 6147 1797 00       		.byte	0
 6148 1798 40       		.uleb128 0x40
 6149 1799 32000000 		.4byte	.LVL101
 6150 179d 43280000 		.4byte	0x2843
 6151 17a1 AC170000 		.4byte	0x17ac
 6152 17a5 36       		.uleb128 0x36
 6153 17a6 01       		.uleb128 0x1
 6154 17a7 50       		.byte	0x50
 6155 17a8 02       		.uleb128 0x2
 6156 17a9 78       		.byte	0x78
 6157 17aa 00       		.sleb128 0
 6158 17ab 00       		.byte	0
 6159 17ac 40       		.uleb128 0x40
 6160 17ad B2000000 		.4byte	.LVL108
 6161 17b1 43280000 		.4byte	0x2843
 6162 17b5 C0170000 		.4byte	0x17c0
 6163 17b9 36       		.uleb128 0x36
 6164 17ba 01       		.uleb128 0x1
 6165 17bb 50       		.byte	0x50
 6166 17bc 02       		.uleb128 0x2
 6167 17bd 78       		.byte	0x78
 6168 17be 00       		.sleb128 0
ARM GAS  C:\Users\jo\AppData\Local\Temp\ccDLAO0k.s 			page 112


 6169 17bf 00       		.byte	0
 6170 17c0 40       		.uleb128 0x40
 6171 17c1 E0000000 		.4byte	.LVL111
 6172 17c5 B9100000 		.4byte	0x10b9
 6173 17c9 EE170000 		.4byte	0x17ee
 6174 17cd 36       		.uleb128 0x36
 6175 17ce 01       		.uleb128 0x1
 6176 17cf 53       		.byte	0x53
 6177 17d0 03       		.uleb128 0x3
 6178 17d1 0A       		.byte	0xa
 6179 17d2 1E01     		.2byte	0x11e
 6180 17d4 36       		.uleb128 0x36
 6181 17d5 01       		.uleb128 0x1
 6182 17d6 52       		.byte	0x52
 6183 17d7 05       		.uleb128 0x5
 6184 17d8 03       		.byte	0x3
 6185 17d9 50010000 		.4byte	.LC11
 6186 17dd 36       		.uleb128 0x36
 6187 17de 01       		.uleb128 0x1
 6188 17df 51       		.byte	0x51
 6189 17e0 05       		.uleb128 0x5
 6190 17e1 03       		.byte	0x3
 6191 17e2 00000000 		.4byte	.LC0
 6192 17e6 36       		.uleb128 0x36
 6193 17e7 02       		.uleb128 0x2
 6194 17e8 7D       		.byte	0x7d
 6195 17e9 00       		.sleb128 0
 6196 17ea 02       		.uleb128 0x2
 6197 17eb 7A       		.byte	0x7a
 6198 17ec 00       		.sleb128 0
 6199 17ed 00       		.byte	0
 6200 17ee 32       		.uleb128 0x32
 6201 17ef F2000000 		.4byte	.LVL115
 6202 17f3 43280000 		.4byte	0x2843
 6203 17f7 40       		.uleb128 0x40
 6204 17f8 18010000 		.4byte	.LVL118
 6205 17fc 43280000 		.4byte	0x2843
 6206 1800 13180000 		.4byte	0x1813
 6207 1804 36       		.uleb128 0x36
 6208 1805 01       		.uleb128 0x1
 6209 1806 50       		.byte	0x50
 6210 1807 0A       		.uleb128 0xa
 6211 1808 77       		.byte	0x77
 6212 1809 03       		.sleb128 3
 6213 180a 09       		.byte	0x9
 6214 180b FC       		.byte	0xfc
 6215 180c 1A       		.byte	0x1a
 6216 180d 74       		.byte	0x74
 6217 180e 00       		.sleb128 0
 6218 180f 22       		.byte	0x22
 6219 1810 23       		.byte	0x23
 6220 1811 10       		.uleb128 0x10
 6221 1812 00       		.byte	0
 6222 1813 40       		.uleb128 0x40
 6223 1814 60010000 		.4byte	.LVL127
 6224 1818 B9100000 		.4byte	0x10b9
 6225 181c 44180000 		.4byte	0x1844
ARM GAS  C:\Users\jo\AppData\Local\Temp\ccDLAO0k.s 			page 113


 6226 1820 36       		.uleb128 0x36
 6227 1821 01       		.uleb128 0x1
 6228 1822 53       		.byte	0x53
 6229 1823 03       		.uleb128 0x3
 6230 1824 0A       		.byte	0xa
 6231 1825 5401     		.2byte	0x154
 6232 1827 36       		.uleb128 0x36
 6233 1828 01       		.uleb128 0x1
 6234 1829 52       		.byte	0x52
 6235 182a 05       		.uleb128 0x5
 6236 182b 03       		.byte	0x3
 6237 182c 64010000 		.4byte	.LC12
 6238 1830 36       		.uleb128 0x36
 6239 1831 01       		.uleb128 0x1
 6240 1832 51       		.byte	0x51
 6241 1833 05       		.uleb128 0x5
 6242 1834 03       		.byte	0x3
 6243 1835 00000000 		.4byte	.LC0
 6244 1839 36       		.uleb128 0x36
 6245 183a 02       		.uleb128 0x2
 6246 183b 7D       		.byte	0x7d
 6247 183c 00       		.sleb128 0
 6248 183d 05       		.uleb128 0x5
 6249 183e 03       		.byte	0x3
 6250 183f 4C000000 		.4byte	.LC2
 6251 1843 00       		.byte	0
 6252 1844 40       		.uleb128 0x40
 6253 1845 7E010000 		.4byte	.LVL134
 6254 1849 B9100000 		.4byte	0x10b9
 6255 184d 74180000 		.4byte	0x1874
 6256 1851 36       		.uleb128 0x36
 6257 1852 01       		.uleb128 0x1
 6258 1853 53       		.byte	0x53
 6259 1854 02       		.uleb128 0x2
 6260 1855 08       		.byte	0x8
 6261 1856 E8       		.byte	0xe8
 6262 1857 36       		.uleb128 0x36
 6263 1858 01       		.uleb128 0x1
 6264 1859 52       		.byte	0x52
 6265 185a 05       		.uleb128 0x5
 6266 185b 03       		.byte	0x3
 6267 185c 00010000 		.4byte	.LC9
 6268 1860 36       		.uleb128 0x36
 6269 1861 01       		.uleb128 0x1
 6270 1862 51       		.byte	0x51
 6271 1863 05       		.uleb128 0x5
 6272 1864 03       		.byte	0x3
 6273 1865 00000000 		.4byte	.LC0
 6274 1869 36       		.uleb128 0x36
 6275 186a 02       		.uleb128 0x2
 6276 186b 7D       		.byte	0x7d
 6277 186c 00       		.sleb128 0
 6278 186d 05       		.uleb128 0x5
 6279 186e 03       		.byte	0x3
 6280 186f 4C000000 		.4byte	.LC2
 6281 1873 00       		.byte	0
 6282 1874 40       		.uleb128 0x40
ARM GAS  C:\Users\jo\AppData\Local\Temp\ccDLAO0k.s 			page 114


 6283 1875 A0010000 		.4byte	.LVL139
 6284 1879 8E130000 		.4byte	0x138e
 6285 187d 88180000 		.4byte	0x1888
 6286 1881 36       		.uleb128 0x36
 6287 1882 01       		.uleb128 0x1
 6288 1883 50       		.byte	0x50
 6289 1884 02       		.uleb128 0x2
 6290 1885 75       		.byte	0x75
 6291 1886 00       		.sleb128 0
 6292 1887 00       		.byte	0
 6293 1888 40       		.uleb128 0x40
 6294 1889 BA010000 		.4byte	.LVL141
 6295 188d B9100000 		.4byte	0x10b9
 6296 1891 B6180000 		.4byte	0x18b6
 6297 1895 36       		.uleb128 0x36
 6298 1896 01       		.uleb128 0x1
 6299 1897 53       		.byte	0x53
 6300 1898 03       		.uleb128 0x3
 6301 1899 0A       		.byte	0xa
 6302 189a 2701     		.2byte	0x127
 6303 189c 36       		.uleb128 0x36
 6304 189d 01       		.uleb128 0x1
 6305 189e 52       		.byte	0x52
 6306 189f 05       		.uleb128 0x5
 6307 18a0 03       		.byte	0x3
 6308 18a1 1C010000 		.4byte	.LC10
 6309 18a5 36       		.uleb128 0x36
 6310 18a6 01       		.uleb128 0x1
 6311 18a7 51       		.byte	0x51
 6312 18a8 05       		.uleb128 0x5
 6313 18a9 03       		.byte	0x3
 6314 18aa 00000000 		.4byte	.LC0
 6315 18ae 36       		.uleb128 0x36
 6316 18af 02       		.uleb128 0x2
 6317 18b0 7D       		.byte	0x7d
 6318 18b1 00       		.sleb128 0
 6319 18b2 02       		.uleb128 0x2
 6320 18b3 7A       		.byte	0x7a
 6321 18b4 00       		.sleb128 0
 6322 18b5 00       		.byte	0
 6323 18b6 35       		.uleb128 0x35
 6324 18b7 EE010000 		.4byte	.LVL148
 6325 18bb B9100000 		.4byte	0x10b9
 6326 18bf 36       		.uleb128 0x36
 6327 18c0 01       		.uleb128 0x1
 6328 18c1 53       		.byte	0x53
 6329 18c2 03       		.uleb128 0x3
 6330 18c3 0A       		.byte	0xa
 6331 18c4 0201     		.2byte	0x102
 6332 18c6 36       		.uleb128 0x36
 6333 18c7 01       		.uleb128 0x1
 6334 18c8 52       		.byte	0x52
 6335 18c9 05       		.uleb128 0x5
 6336 18ca 03       		.byte	0x3
 6337 18cb 1C010000 		.4byte	.LC10
 6338 18cf 36       		.uleb128 0x36
 6339 18d0 01       		.uleb128 0x1
ARM GAS  C:\Users\jo\AppData\Local\Temp\ccDLAO0k.s 			page 115


 6340 18d1 51       		.byte	0x51
 6341 18d2 05       		.uleb128 0x5
 6342 18d3 03       		.byte	0x3
 6343 18d4 00000000 		.4byte	.LC0
 6344 18d8 36       		.uleb128 0x36
 6345 18d9 02       		.uleb128 0x2
 6346 18da 7D       		.byte	0x7d
 6347 18db 00       		.sleb128 0
 6348 18dc 05       		.uleb128 0x5
 6349 18dd 03       		.byte	0x3
 6350 18de 4C000000 		.4byte	.LC2
 6351 18e2 00       		.byte	0
 6352 18e3 00       		.byte	0
 6353 18e4 4A       		.uleb128 0x4a
 6354 18e5 27060000 		.4byte	.LASF274
 6355 18e9 01       		.byte	0x1
 6356 18ea AE01     		.2byte	0x1ae
 6357 18ec 00000000 		.4byte	.LFB265
 6358 18f0 E4000000 		.4byte	.LFE265-.LFB265
 6359 18f4 01       		.uleb128 0x1
 6360 18f5 9C       		.byte	0x9c
 6361 18f6 D11A0000 		.4byte	0x1ad1
 6362 18fa 3C       		.uleb128 0x3c
 6363 18fb 7000     		.ascii	"p\000"
 6364 18fd 01       		.byte	0x1
 6365 18fe AE01     		.2byte	0x1ae
 6366 1900 2F0A0000 		.4byte	0xa2f
 6367 1904 35090000 		.4byte	.LLST42
 6368 1908 3D       		.uleb128 0x3d
 6369 1909 D50B0000 		.4byte	.LASF271
 6370 190d 01       		.byte	0x1
 6371 190e AE01     		.2byte	0x1ae
 6372 1910 D0080000 		.4byte	0x8d0
 6373 1914 77090000 		.4byte	.LLST43
 6374 1918 41       		.uleb128 0x41
 6375 1919 7100     		.ascii	"q\000"
 6376 191b 01       		.byte	0x1
 6377 191c B001     		.2byte	0x1b0
 6378 191e 2F0A0000 		.4byte	0xa2f
 6379 1922 B1090000 		.4byte	.LLST44
 6380 1926 3E       		.uleb128 0x3e
 6381 1927 43080000 		.4byte	.LASF270
 6382 192b 01       		.byte	0x1
 6383 192c B101     		.2byte	0x1b1
 6384 192e D0080000 		.4byte	0x8d0
 6385 1932 C4090000 		.4byte	.LLST45
 6386 1936 3E       		.uleb128 0x3e
 6387 1937 030C0000 		.4byte	.LASF272
 6388 193b 01       		.byte	0x1
 6389 193c B201     		.2byte	0x1b2
 6390 193e F1080000 		.4byte	0x8f1
 6391 1942 D7090000 		.4byte	.LLST46
 6392 1946 3F       		.uleb128 0x3f
 6393 1947 6B0F0000 		.4byte	0xf6b
 6394 194b 24000000 		.4byte	.LBB136
 6395 194f 06000000 		.4byte	.LBE136-.LBB136
 6396 1953 01       		.byte	0x1
ARM GAS  C:\Users\jo\AppData\Local\Temp\ccDLAO0k.s 			page 116


 6397 1954 B501     		.2byte	0x1b5
 6398 1956 77190000 		.4byte	0x1977
 6399 195a 37       		.uleb128 0x37
 6400 195b 780F0000 		.4byte	0xf78
 6401 195f EA090000 		.4byte	.LLST47
 6402 1963 35       		.uleb128 0x35
 6403 1964 2A000000 		.4byte	.LVL153
 6404 1968 20280000 		.4byte	0x2820
 6405 196c 36       		.uleb128 0x36
 6406 196d 01       		.uleb128 0x1
 6407 196e 50       		.byte	0x50
 6408 196f 05       		.uleb128 0x5
 6409 1970 03       		.byte	0x3
 6410 1971 98010000 		.4byte	.LC14
 6411 1975 00       		.byte	0
 6412 1976 00       		.byte	0
 6413 1977 3F       		.uleb128 0x3f
 6414 1978 6B0F0000 		.4byte	0xf6b
 6415 197c 64000000 		.4byte	.LBB138
 6416 1980 06000000 		.4byte	.LBE138-.LBB138
 6417 1984 01       		.byte	0x1
 6418 1985 CC01     		.2byte	0x1cc
 6419 1987 A8190000 		.4byte	0x19a8
 6420 198b 37       		.uleb128 0x37
 6421 198c 780F0000 		.4byte	0xf78
 6422 1990 020A0000 		.4byte	.LLST48
 6423 1994 35       		.uleb128 0x35
 6424 1995 6A000000 		.4byte	.LVL159
 6425 1999 20280000 		.4byte	0x2820
 6426 199d 36       		.uleb128 0x36
 6427 199e 01       		.uleb128 0x1
 6428 199f 50       		.byte	0x50
 6429 19a0 05       		.uleb128 0x5
 6430 19a1 03       		.byte	0x3
 6431 19a2 B4010000 		.4byte	.LC15
 6432 19a6 00       		.byte	0
 6433 19a7 00       		.byte	0
 6434 19a8 3F       		.uleb128 0x3f
 6435 19a9 6B0F0000 		.4byte	0xf6b
 6436 19ad 86000000 		.4byte	.LBB140
 6437 19b1 06000000 		.4byte	.LBE140-.LBB140
 6438 19b5 01       		.byte	0x1
 6439 19b6 D001     		.2byte	0x1d0
 6440 19b8 D9190000 		.4byte	0x19d9
 6441 19bc 37       		.uleb128 0x37
 6442 19bd 780F0000 		.4byte	0xf78
 6443 19c1 1A0A0000 		.4byte	.LLST49
 6444 19c5 35       		.uleb128 0x35
 6445 19c6 8C000000 		.4byte	.LVL163
 6446 19ca 20280000 		.4byte	0x2820
 6447 19ce 36       		.uleb128 0x36
 6448 19cf 01       		.uleb128 0x1
 6449 19d0 50       		.byte	0x50
 6450 19d1 05       		.uleb128 0x5
 6451 19d2 03       		.byte	0x3
 6452 19d3 C8010000 		.4byte	.LC16
 6453 19d7 00       		.byte	0
ARM GAS  C:\Users\jo\AppData\Local\Temp\ccDLAO0k.s 			page 117


 6454 19d8 00       		.byte	0
 6455 19d9 3F       		.uleb128 0x3f
 6456 19da 6B0F0000 		.4byte	0xf6b
 6457 19de C0000000 		.4byte	.LBB142
 6458 19e2 24000000 		.4byte	.LBE142-.LBB142
 6459 19e6 01       		.byte	0x1
 6460 19e7 B401     		.2byte	0x1b4
 6461 19e9 0D1A0000 		.4byte	0x1a0d
 6462 19ed 38       		.uleb128 0x38
 6463 19ee 780F0000 		.4byte	0xf78
 6464 19f2 06       		.uleb128 0x6
 6465 19f3 03       		.byte	0x3
 6466 19f4 80010000 		.4byte	.LC13
 6467 19f8 9F       		.byte	0x9f
 6468 19f9 35       		.uleb128 0x35
 6469 19fa C6000000 		.4byte	.LVL171
 6470 19fe 20280000 		.4byte	0x2820
 6471 1a02 36       		.uleb128 0x36
 6472 1a03 01       		.uleb128 0x1
 6473 1a04 50       		.byte	0x50
 6474 1a05 05       		.uleb128 0x5
 6475 1a06 03       		.byte	0x3
 6476 1a07 80010000 		.4byte	.LC13
 6477 1a0b 00       		.byte	0
 6478 1a0c 00       		.byte	0
 6479 1a0d 40       		.uleb128 0x40
 6480 1a0e 24000000 		.4byte	.LVL152
 6481 1a12 B9100000 		.4byte	0x10b9
 6482 1a16 3E1A0000 		.4byte	0x1a3e
 6483 1a1a 36       		.uleb128 0x36
 6484 1a1b 01       		.uleb128 0x1
 6485 1a1c 53       		.byte	0x53
 6486 1a1d 03       		.uleb128 0x3
 6487 1a1e 0A       		.byte	0xa
 6488 1a1f B801     		.2byte	0x1b8
 6489 1a21 36       		.uleb128 0x36
 6490 1a22 01       		.uleb128 0x1
 6491 1a23 52       		.byte	0x52
 6492 1a24 05       		.uleb128 0x5
 6493 1a25 03       		.byte	0x3
 6494 1a26 98010000 		.4byte	.LC14
 6495 1a2a 36       		.uleb128 0x36
 6496 1a2b 01       		.uleb128 0x1
 6497 1a2c 51       		.byte	0x51
 6498 1a2d 05       		.uleb128 0x5
 6499 1a2e 03       		.byte	0x3
 6500 1a2f 00000000 		.4byte	.LC0
 6501 1a33 36       		.uleb128 0x36
 6502 1a34 02       		.uleb128 0x2
 6503 1a35 7D       		.byte	0x7d
 6504 1a36 00       		.sleb128 0
 6505 1a37 05       		.uleb128 0x5
 6506 1a38 03       		.byte	0x3
 6507 1a39 4C000000 		.4byte	.LC2
 6508 1a3d 00       		.byte	0
 6509 1a3e 40       		.uleb128 0x40
 6510 1a3f 64000000 		.4byte	.LVL158
ARM GAS  C:\Users\jo\AppData\Local\Temp\ccDLAO0k.s 			page 118


 6511 1a43 B9100000 		.4byte	0x10b9
 6512 1a47 6C1A0000 		.4byte	0x1a6c
 6513 1a4b 36       		.uleb128 0x36
 6514 1a4c 01       		.uleb128 0x1
 6515 1a4d 53       		.byte	0x53
 6516 1a4e 03       		.uleb128 0x3
 6517 1a4f 0A       		.byte	0xa
 6518 1a50 CC01     		.2byte	0x1cc
 6519 1a52 36       		.uleb128 0x36
 6520 1a53 01       		.uleb128 0x1
 6521 1a54 52       		.byte	0x52
 6522 1a55 05       		.uleb128 0x5
 6523 1a56 03       		.byte	0x3
 6524 1a57 B4010000 		.4byte	.LC15
 6525 1a5b 36       		.uleb128 0x36
 6526 1a5c 01       		.uleb128 0x1
 6527 1a5d 51       		.byte	0x51
 6528 1a5e 05       		.uleb128 0x5
 6529 1a5f 03       		.byte	0x3
 6530 1a60 00000000 		.4byte	.LC0
 6531 1a64 36       		.uleb128 0x36
 6532 1a65 02       		.uleb128 0x2
 6533 1a66 7D       		.byte	0x7d
 6534 1a67 00       		.sleb128 0
 6535 1a68 02       		.uleb128 0x2
 6536 1a69 77       		.byte	0x77
 6537 1a6a 00       		.sleb128 0
 6538 1a6b 00       		.byte	0
 6539 1a6c 40       		.uleb128 0x40
 6540 1a6d 86000000 		.4byte	.LVL162
 6541 1a71 B9100000 		.4byte	0x10b9
 6542 1a75 9A1A0000 		.4byte	0x1a9a
 6543 1a79 36       		.uleb128 0x36
 6544 1a7a 01       		.uleb128 0x1
 6545 1a7b 53       		.byte	0x53
 6546 1a7c 03       		.uleb128 0x3
 6547 1a7d 0A       		.byte	0xa
 6548 1a7e D001     		.2byte	0x1d0
 6549 1a80 36       		.uleb128 0x36
 6550 1a81 01       		.uleb128 0x1
 6551 1a82 52       		.byte	0x52
 6552 1a83 05       		.uleb128 0x5
 6553 1a84 03       		.byte	0x3
 6554 1a85 C8010000 		.4byte	.LC16
 6555 1a89 36       		.uleb128 0x36
 6556 1a8a 01       		.uleb128 0x1
 6557 1a8b 51       		.byte	0x51
 6558 1a8c 05       		.uleb128 0x5
 6559 1a8d 03       		.byte	0x3
 6560 1a8e 00000000 		.4byte	.LC0
 6561 1a92 36       		.uleb128 0x36
 6562 1a93 02       		.uleb128 0x2
 6563 1a94 7D       		.byte	0x7d
 6564 1a95 00       		.sleb128 0
 6565 1a96 02       		.uleb128 0x2
 6566 1a97 77       		.byte	0x77
 6567 1a98 00       		.sleb128 0
ARM GAS  C:\Users\jo\AppData\Local\Temp\ccDLAO0k.s 			page 119


 6568 1a99 00       		.byte	0
 6569 1a9a 32       		.uleb128 0x32
 6570 1a9b A6000000 		.4byte	.LVL165
 6571 1a9f 8E130000 		.4byte	0x138e
 6572 1aa3 35       		.uleb128 0x35
 6573 1aa4 C0000000 		.4byte	.LVL170
 6574 1aa8 B9100000 		.4byte	0x10b9
 6575 1aac 36       		.uleb128 0x36
 6576 1aad 01       		.uleb128 0x1
 6577 1aae 53       		.byte	0x53
 6578 1aaf 03       		.uleb128 0x3
 6579 1ab0 0A       		.byte	0xa
 6580 1ab1 B401     		.2byte	0x1b4
 6581 1ab3 36       		.uleb128 0x36
 6582 1ab4 01       		.uleb128 0x1
 6583 1ab5 52       		.byte	0x52
 6584 1ab6 05       		.uleb128 0x5
 6585 1ab7 03       		.byte	0x3
 6586 1ab8 80010000 		.4byte	.LC13
 6587 1abc 36       		.uleb128 0x36
 6588 1abd 01       		.uleb128 0x1
 6589 1abe 51       		.byte	0x51
 6590 1abf 05       		.uleb128 0x5
 6591 1ac0 03       		.byte	0x3
 6592 1ac1 00000000 		.4byte	.LC0
 6593 1ac5 36       		.uleb128 0x36
 6594 1ac6 02       		.uleb128 0x2
 6595 1ac7 7D       		.byte	0x7d
 6596 1ac8 00       		.sleb128 0
 6597 1ac9 05       		.uleb128 0x5
 6598 1aca 03       		.byte	0x3
 6599 1acb 4C000000 		.4byte	.LC2
 6600 1acf 00       		.byte	0
 6601 1ad0 00       		.byte	0
 6602 1ad1 3B       		.uleb128 0x3b
 6603 1ad2 94050000 		.4byte	.LASF273
 6604 1ad6 01       		.byte	0x1
 6605 1ad7 C002     		.2byte	0x2c0
 6606 1ad9 BA080000 		.4byte	0x8ba
 6607 1add 00000000 		.4byte	.LFB268
 6608 1ae1 14000000 		.4byte	.LFE268-.LFB268
 6609 1ae5 01       		.uleb128 0x1
 6610 1ae6 9C       		.byte	0x9c
 6611 1ae7 0A1B0000 		.4byte	0x1b0a
 6612 1aeb 3C       		.uleb128 0x3c
 6613 1aec 7000     		.ascii	"p\000"
 6614 1aee 01       		.byte	0x1
 6615 1aef C002     		.2byte	0x2c0
 6616 1af1 2F0A0000 		.4byte	0xa2f
 6617 1af5 320A0000 		.4byte	.LLST50
 6618 1af9 41       		.uleb128 0x41
 6619 1afa 6C656E00 		.ascii	"len\000"
 6620 1afe 01       		.byte	0x1
 6621 1aff C202     		.2byte	0x2c2
 6622 1b01 BA080000 		.4byte	0x8ba
 6623 1b05 660A0000 		.4byte	.LLST51
 6624 1b09 00       		.byte	0
ARM GAS  C:\Users\jo\AppData\Local\Temp\ccDLAO0k.s 			page 120


 6625 1b0a 33       		.uleb128 0x33
 6626 1b0b 850F0000 		.4byte	0xf85
 6627 1b0f 00000000 		.4byte	.LFB269
 6628 1b13 0A000000 		.4byte	.LFE269-.LFB269
 6629 1b17 01       		.uleb128 0x1
 6630 1b18 9C       		.byte	0x9c
 6631 1b19 251B0000 		.4byte	0x1b25
 6632 1b1d 38       		.uleb128 0x38
 6633 1b1e 920F0000 		.4byte	0xf92
 6634 1b22 01       		.uleb128 0x1
 6635 1b23 50       		.byte	0x50
 6636 1b24 00       		.byte	0
 6637 1b25 4A       		.uleb128 0x4a
 6638 1b26 D80D0000 		.4byte	.LASF275
 6639 1b2a 01       		.byte	0x1
 6640 1b2b E902     		.2byte	0x2e9
 6641 1b2d 00000000 		.4byte	.LFB270
 6642 1b31 A8000000 		.4byte	.LFE270-.LFB270
 6643 1b35 01       		.uleb128 0x1
 6644 1b36 9C       		.byte	0x9c
 6645 1b37 821C0000 		.4byte	0x1c82
 6646 1b3b 3C       		.uleb128 0x3c
 6647 1b3c 6800     		.ascii	"h\000"
 6648 1b3e 01       		.byte	0x1
 6649 1b3f E902     		.2byte	0x2e9
 6650 1b41 2F0A0000 		.4byte	0xa2f
 6651 1b45 9C0A0000 		.4byte	.LLST52
 6652 1b49 3C       		.uleb128 0x3c
 6653 1b4a 7400     		.ascii	"t\000"
 6654 1b4c 01       		.byte	0x1
 6655 1b4d E902     		.2byte	0x2e9
 6656 1b4f 2F0A0000 		.4byte	0xa2f
 6657 1b53 E10A0000 		.4byte	.LLST53
 6658 1b57 41       		.uleb128 0x41
 6659 1b58 7000     		.ascii	"p\000"
 6660 1b5a 01       		.byte	0x1
 6661 1b5b EB02     		.2byte	0x2eb
 6662 1b5d 2F0A0000 		.4byte	0xa2f
 6663 1b61 230B0000 		.4byte	.LLST54
 6664 1b65 3F       		.uleb128 0x3f
 6665 1b66 6B0F0000 		.4byte	0xf6b
 6666 1b6a 40000000 		.4byte	.LBB144
 6667 1b6e 06000000 		.4byte	.LBE144-.LBB144
 6668 1b72 01       		.byte	0x1
 6669 1b73 F602     		.2byte	0x2f6
 6670 1b75 961B0000 		.4byte	0x1b96
 6671 1b79 37       		.uleb128 0x37
 6672 1b7a 780F0000 		.4byte	0xf78
 6673 1b7e 620B0000 		.4byte	.LLST55
 6674 1b82 35       		.uleb128 0x35
 6675 1b83 46000000 		.4byte	.LVL186
 6676 1b87 20280000 		.4byte	0x2820
 6677 1b8b 36       		.uleb128 0x36
 6678 1b8c 01       		.uleb128 0x1
 6679 1b8d 50       		.byte	0x50
 6680 1b8e 05       		.uleb128 0x5
 6681 1b8f 03       		.byte	0x3
ARM GAS  C:\Users\jo\AppData\Local\Temp\ccDLAO0k.s 			page 121


 6682 1b90 18020000 		.4byte	.LC18
 6683 1b94 00       		.byte	0
 6684 1b95 00       		.byte	0
 6685 1b96 3F       		.uleb128 0x3f
 6686 1b97 6B0F0000 		.4byte	0xf6b
 6687 1b9b 5A000000 		.4byte	.LBB146
 6688 1b9f 08000000 		.4byte	.LBE146-.LBB146
 6689 1ba3 01       		.byte	0x1
 6690 1ba4 F702     		.2byte	0x2f7
 6691 1ba6 C71B0000 		.4byte	0x1bc7
 6692 1baa 37       		.uleb128 0x37
 6693 1bab 780F0000 		.4byte	0xf78
 6694 1baf 7A0B0000 		.4byte	.LLST56
 6695 1bb3 35       		.uleb128 0x35
 6696 1bb4 60000000 		.4byte	.LVL188
 6697 1bb8 20280000 		.4byte	0x2820
 6698 1bbc 36       		.uleb128 0x36
 6699 1bbd 01       		.uleb128 0x1
 6700 1bbe 50       		.byte	0x50
 6701 1bbf 05       		.uleb128 0x5
 6702 1bc0 03       		.byte	0x3
 6703 1bc1 48020000 		.4byte	.LC19
 6704 1bc5 00       		.byte	0
 6705 1bc6 00       		.byte	0
 6706 1bc7 4B       		.uleb128 0x4b
 6707 1bc8 6B0F0000 		.4byte	0xf6b
 6708 1bcc 80000000 		.4byte	.LBB148
 6709 1bd0 58000000 		.4byte	.Ldebug_ranges0+0x58
 6710 1bd4 01       		.byte	0x1
 6711 1bd5 ED02     		.2byte	0x2ed
 6712 1bd7 F81B0000 		.4byte	0x1bf8
 6713 1bdb 37       		.uleb128 0x37
 6714 1bdc 780F0000 		.4byte	0xf78
 6715 1be0 920B0000 		.4byte	.LLST57
 6716 1be4 4C       		.uleb128 0x4c
 6717 1be5 8C000000 		.4byte	.LVL194
 6718 1be9 20280000 		.4byte	0x2820
 6719 1bed 36       		.uleb128 0x36
 6720 1bee 01       		.uleb128 0x1
 6721 1bef 50       		.byte	0x50
 6722 1bf0 05       		.uleb128 0x5
 6723 1bf1 03       		.byte	0x3
 6724 1bf2 E0010000 		.4byte	.LC17
 6725 1bf6 00       		.byte	0
 6726 1bf7 00       		.byte	0
 6727 1bf8 40       		.uleb128 0x40
 6728 1bf9 40000000 		.4byte	.LVL185
 6729 1bfd B9100000 		.4byte	0x10b9
 6730 1c01 261C0000 		.4byte	0x1c26
 6731 1c05 36       		.uleb128 0x36
 6732 1c06 01       		.uleb128 0x1
 6733 1c07 53       		.byte	0x53
 6734 1c08 03       		.uleb128 0x3
 6735 1c09 0A       		.byte	0xa
 6736 1c0a F602     		.2byte	0x2f6
 6737 1c0c 36       		.uleb128 0x36
 6738 1c0d 01       		.uleb128 0x1
ARM GAS  C:\Users\jo\AppData\Local\Temp\ccDLAO0k.s 			page 122


 6739 1c0e 52       		.byte	0x52
 6740 1c0f 05       		.uleb128 0x5
 6741 1c10 03       		.byte	0x3
 6742 1c11 18020000 		.4byte	.LC18
 6743 1c15 36       		.uleb128 0x36
 6744 1c16 01       		.uleb128 0x1
 6745 1c17 51       		.byte	0x51
 6746 1c18 05       		.uleb128 0x5
 6747 1c19 03       		.byte	0x3
 6748 1c1a 00000000 		.4byte	.LC0
 6749 1c1e 36       		.uleb128 0x36
 6750 1c1f 02       		.uleb128 0x2
 6751 1c20 7D       		.byte	0x7d
 6752 1c21 00       		.sleb128 0
 6753 1c22 02       		.uleb128 0x2
 6754 1c23 76       		.byte	0x76
 6755 1c24 00       		.sleb128 0
 6756 1c25 00       		.byte	0
 6757 1c26 40       		.uleb128 0x40
 6758 1c27 5A000000 		.4byte	.LVL187
 6759 1c2b B9100000 		.4byte	0x10b9
 6760 1c2f 541C0000 		.4byte	0x1c54
 6761 1c33 36       		.uleb128 0x36
 6762 1c34 01       		.uleb128 0x1
 6763 1c35 53       		.byte	0x53
 6764 1c36 03       		.uleb128 0x3
 6765 1c37 0A       		.byte	0xa
 6766 1c38 F702     		.2byte	0x2f7
 6767 1c3a 36       		.uleb128 0x36
 6768 1c3b 01       		.uleb128 0x1
 6769 1c3c 52       		.byte	0x52
 6770 1c3d 05       		.uleb128 0x5
 6771 1c3e 03       		.byte	0x3
 6772 1c3f 48020000 		.4byte	.LC19
 6773 1c43 36       		.uleb128 0x36
 6774 1c44 01       		.uleb128 0x1
 6775 1c45 51       		.byte	0x51
 6776 1c46 05       		.uleb128 0x5
 6777 1c47 03       		.byte	0x3
 6778 1c48 00000000 		.4byte	.LC0
 6779 1c4c 36       		.uleb128 0x36
 6780 1c4d 02       		.uleb128 0x2
 6781 1c4e 7D       		.byte	0x7d
 6782 1c4f 00       		.sleb128 0
 6783 1c50 02       		.uleb128 0x2
 6784 1c51 76       		.byte	0x76
 6785 1c52 00       		.sleb128 0
 6786 1c53 00       		.byte	0
 6787 1c54 35       		.uleb128 0x35
 6788 1c55 80000000 		.4byte	.LVL193
 6789 1c59 B9100000 		.4byte	0x10b9
 6790 1c5d 36       		.uleb128 0x36
 6791 1c5e 01       		.uleb128 0x1
 6792 1c5f 53       		.byte	0x53
 6793 1c60 03       		.uleb128 0x3
 6794 1c61 0A       		.byte	0xa
 6795 1c62 EE02     		.2byte	0x2ee
ARM GAS  C:\Users\jo\AppData\Local\Temp\ccDLAO0k.s 			page 123


 6796 1c64 36       		.uleb128 0x36
 6797 1c65 01       		.uleb128 0x1
 6798 1c66 52       		.byte	0x52
 6799 1c67 05       		.uleb128 0x5
 6800 1c68 03       		.byte	0x3
 6801 1c69 E0010000 		.4byte	.LC17
 6802 1c6d 36       		.uleb128 0x36
 6803 1c6e 01       		.uleb128 0x1
 6804 1c6f 51       		.byte	0x51
 6805 1c70 05       		.uleb128 0x5
 6806 1c71 03       		.byte	0x3
 6807 1c72 00000000 		.4byte	.LC0
 6808 1c76 36       		.uleb128 0x36
 6809 1c77 02       		.uleb128 0x2
 6810 1c78 7D       		.byte	0x7d
 6811 1c79 00       		.sleb128 0
 6812 1c7a 05       		.uleb128 0x5
 6813 1c7b 03       		.byte	0x3
 6814 1c7c 4C000000 		.4byte	.LC2
 6815 1c80 00       		.byte	0
 6816 1c81 00       		.byte	0
 6817 1c82 4A       		.uleb128 0x4a
 6818 1c83 6D0A0000 		.4byte	.LASF276
 6819 1c87 01       		.byte	0x1
 6820 1c88 1203     		.2byte	0x312
 6821 1c8a 00000000 		.4byte	.LFB271
 6822 1c8e 12000000 		.4byte	.LFE271-.LFB271
 6823 1c92 01       		.uleb128 0x1
 6824 1c93 9C       		.byte	0x9c
 6825 1c94 E81C0000 		.4byte	0x1ce8
 6826 1c98 3C       		.uleb128 0x3c
 6827 1c99 6800     		.ascii	"h\000"
 6828 1c9b 01       		.byte	0x1
 6829 1c9c 1203     		.2byte	0x312
 6830 1c9e 2F0A0000 		.4byte	0xa2f
 6831 1ca2 AA0B0000 		.4byte	.LLST58
 6832 1ca6 3C       		.uleb128 0x3c
 6833 1ca7 7400     		.ascii	"t\000"
 6834 1ca9 01       		.byte	0x1
 6835 1caa 1203     		.2byte	0x312
 6836 1cac 2F0A0000 		.4byte	0xa2f
 6837 1cb0 CB0B0000 		.4byte	.LLST59
 6838 1cb4 3F       		.uleb128 0x3f
 6839 1cb5 850F0000 		.4byte	0xf85
 6840 1cb9 08000000 		.4byte	.LBB152
 6841 1cbd 0A000000 		.4byte	.LBE152-.LBB152
 6842 1cc1 01       		.byte	0x1
 6843 1cc2 1603     		.2byte	0x316
 6844 1cc4 D01C0000 		.4byte	0x1cd0
 6845 1cc8 38       		.uleb128 0x38
 6846 1cc9 920F0000 		.4byte	0xf92
 6847 1ccd 01       		.uleb128 0x1
 6848 1cce 54       		.byte	0x54
 6849 1ccf 00       		.byte	0
 6850 1cd0 35       		.uleb128 0x35
 6851 1cd1 08000000 		.4byte	.LVL196
 6852 1cd5 251B0000 		.4byte	0x1b25
ARM GAS  C:\Users\jo\AppData\Local\Temp\ccDLAO0k.s 			page 124


 6853 1cd9 36       		.uleb128 0x36
 6854 1cda 01       		.uleb128 0x1
 6855 1cdb 51       		.byte	0x51
 6856 1cdc 02       		.uleb128 0x2
 6857 1cdd 74       		.byte	0x74
 6858 1cde 00       		.sleb128 0
 6859 1cdf 36       		.uleb128 0x36
 6860 1ce0 01       		.uleb128 0x1
 6861 1ce1 50       		.byte	0x50
 6862 1ce2 03       		.uleb128 0x3
 6863 1ce3 F3       		.byte	0xf3
 6864 1ce4 01       		.uleb128 0x1
 6865 1ce5 50       		.byte	0x50
 6866 1ce6 00       		.byte	0
 6867 1ce7 00       		.byte	0
 6868 1ce8 3B       		.uleb128 0x3b
 6869 1ce9 B40C0000 		.4byte	.LASF277
 6870 1ced 01       		.byte	0x1
 6871 1cee 2303     		.2byte	0x323
 6872 1cf0 2F0A0000 		.4byte	0xa2f
 6873 1cf4 00000000 		.4byte	.LFB272
 6874 1cf8 94000000 		.4byte	.LFE272-.LFB272
 6875 1cfc 01       		.uleb128 0x1
 6876 1cfd 9C       		.byte	0x9c
 6877 1cfe 031E0000 		.4byte	0x1e03
 6878 1d02 3C       		.uleb128 0x3c
 6879 1d03 7000     		.ascii	"p\000"
 6880 1d05 01       		.byte	0x1
 6881 1d06 2303     		.2byte	0x323
 6882 1d08 2F0A0000 		.4byte	0xa2f
 6883 1d0c E90B0000 		.4byte	.LLST60
 6884 1d10 41       		.uleb128 0x41
 6885 1d11 7100     		.ascii	"q\000"
 6886 1d13 01       		.byte	0x1
 6887 1d14 2503     		.2byte	0x325
 6888 1d16 2F0A0000 		.4byte	0xa2f
 6889 1d1a 120C0000 		.4byte	.LLST61
 6890 1d1e 3E       		.uleb128 0x3e
 6891 1d1f 5D030000 		.4byte	.LASF278
 6892 1d23 01       		.byte	0x1
 6893 1d24 2603     		.2byte	0x326
 6894 1d26 BA080000 		.4byte	0x8ba
 6895 1d2a 3B0C0000 		.4byte	.LLST62
 6896 1d2e 3F       		.uleb128 0x3f
 6897 1d2f 6B0F0000 		.4byte	0xf6b
 6898 1d33 2A000000 		.4byte	.LBB154
 6899 1d37 0C000000 		.4byte	.LBE154-.LBB154
 6900 1d3b 01       		.byte	0x1
 6901 1d3c 2C03     		.2byte	0x32c
 6902 1d3e 5F1D0000 		.4byte	0x1d5f
 6903 1d42 37       		.uleb128 0x37
 6904 1d43 780F0000 		.4byte	0xf78
 6905 1d47 660C0000 		.4byte	.LLST63
 6906 1d4b 35       		.uleb128 0x35
 6907 1d4c 30000000 		.4byte	.LVL201
 6908 1d50 20280000 		.4byte	0x2820
 6909 1d54 36       		.uleb128 0x36
ARM GAS  C:\Users\jo\AppData\Local\Temp\ccDLAO0k.s 			page 125


 6910 1d55 01       		.uleb128 0x1
 6911 1d56 50       		.byte	0x50
 6912 1d57 05       		.uleb128 0x5
 6913 1d58 03       		.byte	0x3
 6914 1d59 58020000 		.4byte	.LC20
 6915 1d5d 00       		.byte	0
 6916 1d5e 00       		.byte	0
 6917 1d5f 3F       		.uleb128 0x3f
 6918 1d60 6B0F0000 		.4byte	0xf6b
 6919 1d64 60000000 		.4byte	.LBB156
 6920 1d68 06000000 		.4byte	.LBE156-.LBB156
 6921 1d6c 01       		.byte	0x1
 6922 1d6d 3D03     		.2byte	0x33d
 6923 1d6f 901D0000 		.4byte	0x1d90
 6924 1d73 37       		.uleb128 0x37
 6925 1d74 780F0000 		.4byte	0xf78
 6926 1d78 7E0C0000 		.4byte	.LLST64
 6927 1d7c 35       		.uleb128 0x35
 6928 1d7d 66000000 		.4byte	.LVL207
 6929 1d81 20280000 		.4byte	0x2820
 6930 1d85 36       		.uleb128 0x36
 6931 1d86 01       		.uleb128 0x1
 6932 1d87 50       		.byte	0x50
 6933 1d88 05       		.uleb128 0x5
 6934 1d89 03       		.byte	0x3
 6935 1d8a 7C020000 		.4byte	.LC21
 6936 1d8e 00       		.byte	0
 6937 1d8f 00       		.byte	0
 6938 1d90 40       		.uleb128 0x40
 6939 1d91 2A000000 		.4byte	.LVL200
 6940 1d95 B9100000 		.4byte	0x10b9
 6941 1d99 C11D0000 		.4byte	0x1dc1
 6942 1d9d 36       		.uleb128 0x36
 6943 1d9e 01       		.uleb128 0x1
 6944 1d9f 53       		.byte	0x53
 6945 1da0 03       		.uleb128 0x3
 6946 1da1 0A       		.byte	0xa
 6947 1da2 2C03     		.2byte	0x32c
 6948 1da4 36       		.uleb128 0x36
 6949 1da5 01       		.uleb128 0x1
 6950 1da6 52       		.byte	0x52
 6951 1da7 05       		.uleb128 0x5
 6952 1da8 03       		.byte	0x3
 6953 1da9 58020000 		.4byte	.LC20
 6954 1dad 36       		.uleb128 0x36
 6955 1dae 01       		.uleb128 0x1
 6956 1daf 51       		.byte	0x51
 6957 1db0 05       		.uleb128 0x5
 6958 1db1 03       		.byte	0x3
 6959 1db2 00000000 		.4byte	.LC0
 6960 1db6 36       		.uleb128 0x36
 6961 1db7 02       		.uleb128 0x2
 6962 1db8 7D       		.byte	0x7d
 6963 1db9 00       		.sleb128 0
 6964 1dba 05       		.uleb128 0x5
 6965 1dbb 03       		.byte	0x3
 6966 1dbc 4C000000 		.4byte	.LC2
ARM GAS  C:\Users\jo\AppData\Local\Temp\ccDLAO0k.s 			page 126


 6967 1dc0 00       		.byte	0
 6968 1dc1 40       		.uleb128 0x40
 6969 1dc2 44000000 		.4byte	.LVL203
 6970 1dc6 8E130000 		.4byte	0x138e
 6971 1dca D51D0000 		.4byte	0x1dd5
 6972 1dce 36       		.uleb128 0x36
 6973 1dcf 01       		.uleb128 0x1
 6974 1dd0 50       		.byte	0x50
 6975 1dd1 02       		.uleb128 0x2
 6976 1dd2 75       		.byte	0x75
 6977 1dd3 00       		.sleb128 0
 6978 1dd4 00       		.byte	0
 6979 1dd5 35       		.uleb128 0x35
 6980 1dd6 60000000 		.4byte	.LVL206
 6981 1dda B9100000 		.4byte	0x10b9
 6982 1dde 36       		.uleb128 0x36
 6983 1ddf 01       		.uleb128 0x1
 6984 1de0 53       		.byte	0x53
 6985 1de1 03       		.uleb128 0x3
 6986 1de2 0A       		.byte	0xa
 6987 1de3 3D03     		.2byte	0x33d
 6988 1de5 36       		.uleb128 0x36
 6989 1de6 01       		.uleb128 0x1
 6990 1de7 52       		.byte	0x52
 6991 1de8 05       		.uleb128 0x5
 6992 1de9 03       		.byte	0x3
 6993 1dea 7C020000 		.4byte	.LC21
 6994 1dee 36       		.uleb128 0x36
 6995 1def 01       		.uleb128 0x1
 6996 1df0 51       		.byte	0x51
 6997 1df1 05       		.uleb128 0x5
 6998 1df2 03       		.byte	0x3
 6999 1df3 00000000 		.4byte	.LC0
 7000 1df7 36       		.uleb128 0x36
 7001 1df8 02       		.uleb128 0x2
 7002 1df9 7D       		.byte	0x7d
 7003 1dfa 00       		.sleb128 0
 7004 1dfb 05       		.uleb128 0x5
 7005 1dfc 03       		.byte	0x3
 7006 1dfd 4C000000 		.4byte	.LC2
 7007 1e01 00       		.byte	0
 7008 1e02 00       		.byte	0
 7009 1e03 3B       		.uleb128 0x3b
 7010 1e04 CC040000 		.4byte	.LASF279
 7011 1e08 01       		.byte	0x1
 7012 1e09 5403     		.2byte	0x354
 7013 1e0b 6B090000 		.4byte	0x96b
 7014 1e0f 00000000 		.4byte	.LFB273
 7015 1e13 94010000 		.4byte	.LFE273-.LFB273
 7016 1e17 01       		.uleb128 0x1
 7017 1e18 9C       		.byte	0x9c
 7018 1e19 BE200000 		.4byte	0x20be
 7019 1e1d 3D       		.uleb128 0x3d
 7020 1e1e 99080000 		.4byte	.LASF280
 7021 1e22 01       		.byte	0x1
 7022 1e23 5403     		.2byte	0x354
 7023 1e25 2F0A0000 		.4byte	0xa2f
ARM GAS  C:\Users\jo\AppData\Local\Temp\ccDLAO0k.s 			page 127


 7024 1e29 960C0000 		.4byte	.LLST65
 7025 1e2d 3D       		.uleb128 0x3d
 7026 1e2e 84090000 		.4byte	.LASF281
 7027 1e32 01       		.byte	0x1
 7028 1e33 5403     		.2byte	0x354
 7029 1e35 2F0A0000 		.4byte	0xa2f
 7030 1e39 CA0C0000 		.4byte	.LLST66
 7031 1e3d 3E       		.uleb128 0x3e
 7032 1e3e 25080000 		.4byte	.LASF282
 7033 1e42 01       		.byte	0x1
 7034 1e43 5603     		.2byte	0x356
 7035 1e45 D0080000 		.4byte	0x8d0
 7036 1e49 220D0000 		.4byte	.LLST67
 7037 1e4d 3E       		.uleb128 0x3e
 7038 1e4e 560A0000 		.4byte	.LASF283
 7039 1e52 01       		.byte	0x1
 7040 1e53 5603     		.2byte	0x356
 7041 1e55 D0080000 		.4byte	0x8d0
 7042 1e59 910D0000 		.4byte	.LLST68
 7043 1e5d 41       		.uleb128 0x41
 7044 1e5e 6C656E00 		.ascii	"len\000"
 7045 1e62 01       		.byte	0x1
 7046 1e63 5603     		.2byte	0x356
 7047 1e65 D0080000 		.4byte	0x8d0
 7048 1e69 DE0D0000 		.4byte	.LLST69
 7049 1e6d 3F       		.uleb128 0x3f
 7050 1e6e 6B0F0000 		.4byte	0xf6b
 7051 1e72 CC000000 		.4byte	.LBB158
 7052 1e76 0A000000 		.4byte	.LBE158-.LBB158
 7053 1e7a 01       		.byte	0x1
 7054 1e7b 6E03     		.2byte	0x36e
 7055 1e7d 9E1E0000 		.4byte	0x1e9e
 7056 1e81 37       		.uleb128 0x37
 7057 1e82 780F0000 		.4byte	0xf78
 7058 1e86 F10D0000 		.4byte	.LLST70
 7059 1e8a 35       		.uleb128 0x35
 7060 1e8b D2000000 		.4byte	.LVL228
 7061 1e8f 20280000 		.4byte	0x2820
 7062 1e93 36       		.uleb128 0x36
 7063 1e94 01       		.uleb128 0x1
 7064 1e95 50       		.byte	0x50
 7065 1e96 05       		.uleb128 0x5
 7066 1e97 03       		.byte	0x3
 7067 1e98 DC020000 		.4byte	.LC24
 7068 1e9c 00       		.byte	0
 7069 1e9d 00       		.byte	0
 7070 1e9e 3F       		.uleb128 0x3f
 7071 1e9f 6B0F0000 		.4byte	0xf6b
 7072 1ea3 E6000000 		.4byte	.LBB160
 7073 1ea7 08000000 		.4byte	.LBE160-.LBB160
 7074 1eab 01       		.byte	0x1
 7075 1eac 6D03     		.2byte	0x36d
 7076 1eae CF1E0000 		.4byte	0x1ecf
 7077 1eb2 37       		.uleb128 0x37
 7078 1eb3 780F0000 		.4byte	0xf78
 7079 1eb7 090E0000 		.4byte	.LLST71
 7080 1ebb 35       		.uleb128 0x35
ARM GAS  C:\Users\jo\AppData\Local\Temp\ccDLAO0k.s 			page 128


 7081 1ebc EC000000 		.4byte	.LVL231
 7082 1ec0 20280000 		.4byte	0x2820
 7083 1ec4 36       		.uleb128 0x36
 7084 1ec5 01       		.uleb128 0x1
 7085 1ec6 50       		.byte	0x50
 7086 1ec7 05       		.uleb128 0x5
 7087 1ec8 03       		.byte	0x3
 7088 1ec9 C4020000 		.4byte	.LC23
 7089 1ecd 00       		.byte	0
 7090 1ece 00       		.byte	0
 7091 1ecf 3F       		.uleb128 0x3f
 7092 1ed0 6B0F0000 		.4byte	0xf6b
 7093 1ed4 06010000 		.4byte	.LBB162
 7094 1ed8 06000000 		.4byte	.LBE162-.LBB162
 7095 1edc 01       		.byte	0x1
 7096 1edd 7D03     		.2byte	0x37d
 7097 1edf 001F0000 		.4byte	0x1f00
 7098 1ee3 37       		.uleb128 0x37
 7099 1ee4 780F0000 		.4byte	0xf78
 7100 1ee8 210E0000 		.4byte	.LLST72
 7101 1eec 35       		.uleb128 0x35
 7102 1eed 0C010000 		.4byte	.LVL234
 7103 1ef1 20280000 		.4byte	0x2820
 7104 1ef5 36       		.uleb128 0x36
 7105 1ef6 01       		.uleb128 0x1
 7106 1ef7 50       		.byte	0x50
 7107 1ef8 05       		.uleb128 0x5
 7108 1ef9 03       		.byte	0x3
 7109 1efa 08030000 		.4byte	.LC26
 7110 1efe 00       		.byte	0
 7111 1eff 00       		.byte	0
 7112 1f00 3F       		.uleb128 0x3f
 7113 1f01 6B0F0000 		.4byte	0xf6b
 7114 1f05 2C010000 		.4byte	.LBB164
 7115 1f09 06000000 		.4byte	.LBE164-.LBB164
 7116 1f0d 01       		.byte	0x1
 7117 1f0e 7803     		.2byte	0x378
 7118 1f10 311F0000 		.4byte	0x1f31
 7119 1f14 37       		.uleb128 0x37
 7120 1f15 780F0000 		.4byte	0xf78
 7121 1f19 390E0000 		.4byte	.LLST73
 7122 1f1d 35       		.uleb128 0x35
 7123 1f1e 32010000 		.4byte	.LVL238
 7124 1f22 20280000 		.4byte	0x2820
 7125 1f26 36       		.uleb128 0x36
 7126 1f27 01       		.uleb128 0x1
 7127 1f28 50       		.byte	0x50
 7128 1f29 05       		.uleb128 0x5
 7129 1f2a 03       		.byte	0x3
 7130 1f2b F8020000 		.4byte	.LC25
 7131 1f2f 00       		.byte	0
 7132 1f30 00       		.byte	0
 7133 1f31 3F       		.uleb128 0x3f
 7134 1f32 6B0F0000 		.4byte	0xf6b
 7135 1f36 48010000 		.4byte	.LBB166
 7136 1f3a 06000000 		.4byte	.LBE166-.LBB166
 7137 1f3e 01       		.byte	0x1
ARM GAS  C:\Users\jo\AppData\Local\Temp\ccDLAO0k.s 			page 129


 7138 1f3f 8203     		.2byte	0x382
 7139 1f41 621F0000 		.4byte	0x1f62
 7140 1f45 37       		.uleb128 0x37
 7141 1f46 780F0000 		.4byte	0xf78
 7142 1f4a 510E0000 		.4byte	.LLST74
 7143 1f4e 35       		.uleb128 0x35
 7144 1f4f 4E010000 		.4byte	.LVL242
 7145 1f53 20280000 		.4byte	0x2820
 7146 1f57 36       		.uleb128 0x36
 7147 1f58 01       		.uleb128 0x1
 7148 1f59 50       		.byte	0x50
 7149 1f5a 05       		.uleb128 0x5
 7150 1f5b 03       		.byte	0x3
 7151 1f5c 08030000 		.4byte	.LC26
 7152 1f60 00       		.byte	0
 7153 1f61 00       		.byte	0
 7154 1f62 3F       		.uleb128 0x3f
 7155 1f63 6B0F0000 		.4byte	0xf6b
 7156 1f67 6A010000 		.4byte	.LBB168
 7157 1f6b 06000000 		.4byte	.LBE168-.LBB168
 7158 1f6f 01       		.byte	0x1
 7159 1f70 5C03     		.2byte	0x35c
 7160 1f72 961F0000 		.4byte	0x1f96
 7161 1f76 38       		.uleb128 0x38
 7162 1f77 780F0000 		.4byte	0xf78
 7163 1f7b 06       		.uleb128 0x6
 7164 1f7c 03       		.byte	0x3
 7165 1f7d 94020000 		.4byte	.LC22
 7166 1f81 9F       		.byte	0x9f
 7167 1f82 35       		.uleb128 0x35
 7168 1f83 70010000 		.4byte	.LVL248
 7169 1f87 20280000 		.4byte	0x2820
 7170 1f8b 36       		.uleb128 0x36
 7171 1f8c 01       		.uleb128 0x1
 7172 1f8d 50       		.byte	0x50
 7173 1f8e 05       		.uleb128 0x5
 7174 1f8f 03       		.byte	0x3
 7175 1f90 94020000 		.4byte	.LC22
 7176 1f94 00       		.byte	0
 7177 1f95 00       		.byte	0
 7178 1f96 40       		.uleb128 0x40
 7179 1f97 4A000000 		.4byte	.LVL214
 7180 1f9b 58280000 		.4byte	0x2858
 7181 1f9f AA1F0000 		.4byte	0x1faa
 7182 1fa3 36       		.uleb128 0x36
 7183 1fa4 01       		.uleb128 0x1
 7184 1fa5 52       		.byte	0x52
 7185 1fa6 02       		.uleb128 0x2
 7186 1fa7 74       		.byte	0x74
 7187 1fa8 00       		.sleb128 0
 7188 1fa9 00       		.byte	0
 7189 1faa 40       		.uleb128 0x40
 7190 1fab CC000000 		.4byte	.LVL227
 7191 1faf B9100000 		.4byte	0x10b9
 7192 1fb3 D81F0000 		.4byte	0x1fd8
 7193 1fb7 36       		.uleb128 0x36
 7194 1fb8 01       		.uleb128 0x1
ARM GAS  C:\Users\jo\AppData\Local\Temp\ccDLAO0k.s 			page 130


 7195 1fb9 53       		.byte	0x53
 7196 1fba 03       		.uleb128 0x3
 7197 1fbb 0A       		.byte	0xa
 7198 1fbc 6E03     		.2byte	0x36e
 7199 1fbe 36       		.uleb128 0x36
 7200 1fbf 01       		.uleb128 0x1
 7201 1fc0 52       		.byte	0x52
 7202 1fc1 05       		.uleb128 0x5
 7203 1fc2 03       		.byte	0x3
 7204 1fc3 DC020000 		.4byte	.LC24
 7205 1fc7 36       		.uleb128 0x36
 7206 1fc8 01       		.uleb128 0x1
 7207 1fc9 51       		.byte	0x51
 7208 1fca 05       		.uleb128 0x5
 7209 1fcb 03       		.byte	0x3
 7210 1fcc 00000000 		.4byte	.LC0
 7211 1fd0 36       		.uleb128 0x36
 7212 1fd1 02       		.uleb128 0x2
 7213 1fd2 7D       		.byte	0x7d
 7214 1fd3 00       		.sleb128 0
 7215 1fd4 02       		.uleb128 0x2
 7216 1fd5 77       		.byte	0x77
 7217 1fd6 00       		.sleb128 0
 7218 1fd7 00       		.byte	0
 7219 1fd8 40       		.uleb128 0x40
 7220 1fd9 E6000000 		.4byte	.LVL230
 7221 1fdd B9100000 		.4byte	0x10b9
 7222 1fe1 06200000 		.4byte	0x2006
 7223 1fe5 36       		.uleb128 0x36
 7224 1fe6 01       		.uleb128 0x1
 7225 1fe7 53       		.byte	0x53
 7226 1fe8 03       		.uleb128 0x3
 7227 1fe9 0A       		.byte	0xa
 7228 1fea 6D03     		.2byte	0x36d
 7229 1fec 36       		.uleb128 0x36
 7230 1fed 01       		.uleb128 0x1
 7231 1fee 52       		.byte	0x52
 7232 1fef 05       		.uleb128 0x5
 7233 1ff0 03       		.byte	0x3
 7234 1ff1 C4020000 		.4byte	.LC23
 7235 1ff5 36       		.uleb128 0x36
 7236 1ff6 01       		.uleb128 0x1
 7237 1ff7 51       		.byte	0x51
 7238 1ff8 05       		.uleb128 0x5
 7239 1ff9 03       		.byte	0x3
 7240 1ffa 00000000 		.4byte	.LC0
 7241 1ffe 36       		.uleb128 0x36
 7242 1fff 02       		.uleb128 0x2
 7243 2000 7D       		.byte	0x7d
 7244 2001 00       		.sleb128 0
 7245 2002 02       		.uleb128 0x2
 7246 2003 77       		.byte	0x77
 7247 2004 00       		.sleb128 0
 7248 2005 00       		.byte	0
 7249 2006 40       		.uleb128 0x40
 7250 2007 06010000 		.4byte	.LVL233
 7251 200b B9100000 		.4byte	0x10b9
ARM GAS  C:\Users\jo\AppData\Local\Temp\ccDLAO0k.s 			page 131


 7252 200f 34200000 		.4byte	0x2034
 7253 2013 36       		.uleb128 0x36
 7254 2014 01       		.uleb128 0x1
 7255 2015 53       		.byte	0x53
 7256 2016 03       		.uleb128 0x3
 7257 2017 0A       		.byte	0xa
 7258 2018 7E03     		.2byte	0x37e
 7259 201a 36       		.uleb128 0x36
 7260 201b 01       		.uleb128 0x1
 7261 201c 52       		.byte	0x52
 7262 201d 05       		.uleb128 0x5
 7263 201e 03       		.byte	0x3
 7264 201f 08030000 		.4byte	.LC26
 7265 2023 36       		.uleb128 0x36
 7266 2024 01       		.uleb128 0x1
 7267 2025 51       		.byte	0x51
 7268 2026 05       		.uleb128 0x5
 7269 2027 03       		.byte	0x3
 7270 2028 00000000 		.4byte	.LC0
 7271 202c 36       		.uleb128 0x36
 7272 202d 02       		.uleb128 0x2
 7273 202e 7D       		.byte	0x7d
 7274 202f 00       		.sleb128 0
 7275 2030 02       		.uleb128 0x2
 7276 2031 77       		.byte	0x77
 7277 2032 00       		.sleb128 0
 7278 2033 00       		.byte	0
 7279 2034 40       		.uleb128 0x40
 7280 2035 2C010000 		.4byte	.LVL237
 7281 2039 B9100000 		.4byte	0x10b9
 7282 203d 62200000 		.4byte	0x2062
 7283 2041 36       		.uleb128 0x36
 7284 2042 01       		.uleb128 0x1
 7285 2043 53       		.byte	0x53
 7286 2044 03       		.uleb128 0x3
 7287 2045 0A       		.byte	0xa
 7288 2046 7803     		.2byte	0x378
 7289 2048 36       		.uleb128 0x36
 7290 2049 01       		.uleb128 0x1
 7291 204a 52       		.byte	0x52
 7292 204b 05       		.uleb128 0x5
 7293 204c 03       		.byte	0x3
 7294 204d F8020000 		.4byte	.LC25
 7295 2051 36       		.uleb128 0x36
 7296 2052 01       		.uleb128 0x1
 7297 2053 51       		.byte	0x51
 7298 2054 05       		.uleb128 0x5
 7299 2055 03       		.byte	0x3
 7300 2056 00000000 		.4byte	.LC0
 7301 205a 36       		.uleb128 0x36
 7302 205b 02       		.uleb128 0x2
 7303 205c 7D       		.byte	0x7d
 7304 205d 00       		.sleb128 0
 7305 205e 02       		.uleb128 0x2
 7306 205f 77       		.byte	0x77
 7307 2060 00       		.sleb128 0
 7308 2061 00       		.byte	0
ARM GAS  C:\Users\jo\AppData\Local\Temp\ccDLAO0k.s 			page 132


 7309 2062 40       		.uleb128 0x40
 7310 2063 48010000 		.4byte	.LVL241
 7311 2067 B9100000 		.4byte	0x10b9
 7312 206b 90200000 		.4byte	0x2090
 7313 206f 36       		.uleb128 0x36
 7314 2070 01       		.uleb128 0x1
 7315 2071 53       		.byte	0x53
 7316 2072 03       		.uleb128 0x3
 7317 2073 0A       		.byte	0xa
 7318 2074 8303     		.2byte	0x383
 7319 2076 36       		.uleb128 0x36
 7320 2077 01       		.uleb128 0x1
 7321 2078 52       		.byte	0x52
 7322 2079 05       		.uleb128 0x5
 7323 207a 03       		.byte	0x3
 7324 207b 08030000 		.4byte	.LC26
 7325 207f 36       		.uleb128 0x36
 7326 2080 01       		.uleb128 0x1
 7327 2081 51       		.byte	0x51
 7328 2082 05       		.uleb128 0x5
 7329 2083 03       		.byte	0x3
 7330 2084 00000000 		.4byte	.LC0
 7331 2088 36       		.uleb128 0x36
 7332 2089 02       		.uleb128 0x2
 7333 208a 7D       		.byte	0x7d
 7334 208b 00       		.sleb128 0
 7335 208c 02       		.uleb128 0x2
 7336 208d 77       		.byte	0x77
 7337 208e 00       		.sleb128 0
 7338 208f 00       		.byte	0
 7339 2090 35       		.uleb128 0x35
 7340 2091 6A010000 		.4byte	.LVL247
 7341 2095 B9100000 		.4byte	0x10b9
 7342 2099 36       		.uleb128 0x36
 7343 209a 01       		.uleb128 0x1
 7344 209b 53       		.byte	0x53
 7345 209c 03       		.uleb128 0x3
 7346 209d 0A       		.byte	0xa
 7347 209e 5D03     		.2byte	0x35d
 7348 20a0 36       		.uleb128 0x36
 7349 20a1 01       		.uleb128 0x1
 7350 20a2 52       		.byte	0x52
 7351 20a3 05       		.uleb128 0x5
 7352 20a4 03       		.byte	0x3
 7353 20a5 94020000 		.4byte	.LC22
 7354 20a9 36       		.uleb128 0x36
 7355 20aa 01       		.uleb128 0x1
 7356 20ab 51       		.byte	0x51
 7357 20ac 05       		.uleb128 0x5
 7358 20ad 03       		.byte	0x3
 7359 20ae 00000000 		.4byte	.LC0
 7360 20b2 36       		.uleb128 0x36
 7361 20b3 02       		.uleb128 0x2
 7362 20b4 7D       		.byte	0x7d
 7363 20b5 00       		.sleb128 0
 7364 20b6 05       		.uleb128 0x5
 7365 20b7 03       		.byte	0x3
ARM GAS  C:\Users\jo\AppData\Local\Temp\ccDLAO0k.s 			page 133


 7366 20b8 4C000000 		.4byte	.LC2
 7367 20bc 00       		.byte	0
 7368 20bd 00       		.byte	0
 7369 20be 3B       		.uleb128 0x3b
 7370 20bf A0060000 		.4byte	.LASF284
 7371 20c3 01       		.byte	0x1
 7372 20c4 9603     		.2byte	0x396
 7373 20c6 D0080000 		.4byte	0x8d0
 7374 20ca 00000000 		.4byte	.LFB274
 7375 20ce C0000000 		.4byte	.LFE274-.LFB274
 7376 20d2 01       		.uleb128 0x1
 7377 20d3 9C       		.byte	0x9c
 7378 20d4 20220000 		.4byte	0x2220
 7379 20d8 3C       		.uleb128 0x3c
 7380 20d9 62756600 		.ascii	"buf\000"
 7381 20dd 01       		.byte	0x1
 7382 20de 9603     		.2byte	0x396
 7383 20e0 2F0A0000 		.4byte	0xa2f
 7384 20e4 690E0000 		.4byte	.LLST75
 7385 20e8 3D       		.uleb128 0x3d
 7386 20e9 DF080000 		.4byte	.LASF285
 7387 20ed 01       		.byte	0x1
 7388 20ee 9603     		.2byte	0x396
 7389 20f0 64030000 		.4byte	0x364
 7390 20f4 C10E0000 		.4byte	.LLST76
 7391 20f8 3C       		.uleb128 0x3c
 7392 20f9 6C656E00 		.ascii	"len\000"
 7393 20fd 01       		.byte	0x1
 7394 20fe 9603     		.2byte	0x396
 7395 2100 D0080000 		.4byte	0x8d0
 7396 2104 320F0000 		.4byte	.LLST77
 7397 2108 3D       		.uleb128 0x3d
 7398 2109 46040000 		.4byte	.LASF103
 7399 210d 01       		.byte	0x1
 7400 210e 9603     		.2byte	0x396
 7401 2110 D0080000 		.4byte	0x8d0
 7402 2114 A30F0000 		.4byte	.LLST78
 7403 2118 41       		.uleb128 0x41
 7404 2119 7000     		.ascii	"p\000"
 7405 211b 01       		.byte	0x1
 7406 211c 9803     		.2byte	0x398
 7407 211e 2F0A0000 		.4byte	0xa2f
 7408 2122 15100000 		.4byte	.LLST79
 7409 2126 3E       		.uleb128 0x3e
 7410 2127 C70A0000 		.4byte	.LASF286
 7411 212b 01       		.byte	0x1
 7412 212c 9903     		.2byte	0x399
 7413 212e D0080000 		.4byte	0x8d0
 7414 2132 54100000 		.4byte	.LLST80
 7415 2136 3E       		.uleb128 0x3e
 7416 2137 18080000 		.4byte	.LASF287
 7417 213b 01       		.byte	0x1
 7418 213c 9A03     		.2byte	0x39a
 7419 213e D0080000 		.4byte	0x8d0
 7420 2142 8A100000 		.4byte	.LLST81
 7421 2146 3E       		.uleb128 0x3e
 7422 2147 BE050000 		.4byte	.LASF288
ARM GAS  C:\Users\jo\AppData\Local\Temp\ccDLAO0k.s 			page 134


 7423 214b 01       		.byte	0x1
 7424 214c 9B03     		.2byte	0x39b
 7425 214e D0080000 		.4byte	0x8d0
 7426 2152 A8100000 		.4byte	.LLST82
 7427 2156 3F       		.uleb128 0x3f
 7428 2157 6B0F0000 		.4byte	0xf6b
 7429 215b 82000000 		.4byte	.LBB170
 7430 215f 06000000 		.4byte	.LBE170-.LBB170
 7431 2163 01       		.byte	0x1
 7432 2164 9D03     		.2byte	0x39d
 7433 2166 87210000 		.4byte	0x2187
 7434 216a 37       		.uleb128 0x37
 7435 216b 780F0000 		.4byte	0xf78
 7436 216f E9100000 		.4byte	.LLST83
 7437 2173 35       		.uleb128 0x35
 7438 2174 88000000 		.4byte	.LVL273
 7439 2178 20280000 		.4byte	0x2820
 7440 217c 36       		.uleb128 0x36
 7441 217d 01       		.uleb128 0x1
 7442 217e 50       		.byte	0x50
 7443 217f 05       		.uleb128 0x5
 7444 2180 03       		.byte	0x3
 7445 2181 34030000 		.4byte	.LC27
 7446 2185 00       		.byte	0
 7447 2186 00       		.byte	0
 7448 2187 3F       		.uleb128 0x3f
 7449 2188 6B0F0000 		.4byte	0xf6b
 7450 218c 9E000000 		.4byte	.LBB172
 7451 2190 06000000 		.4byte	.LBE172-.LBB172
 7452 2194 01       		.byte	0x1
 7453 2195 9E03     		.2byte	0x39e
 7454 2197 B8210000 		.4byte	0x21b8
 7455 219b 37       		.uleb128 0x37
 7456 219c 780F0000 		.4byte	0xf78
 7457 21a0 01110000 		.4byte	.LLST84
 7458 21a4 35       		.uleb128 0x35
 7459 21a5 A4000000 		.4byte	.LVL280
 7460 21a9 20280000 		.4byte	0x2820
 7461 21ad 36       		.uleb128 0x36
 7462 21ae 01       		.uleb128 0x1
 7463 21af 50       		.byte	0x50
 7464 21b0 05       		.uleb128 0x5
 7465 21b1 03       		.byte	0x3
 7466 21b2 54030000 		.4byte	.LC28
 7467 21b6 00       		.byte	0
 7468 21b7 00       		.byte	0
 7469 21b8 32       		.uleb128 0x32
 7470 21b9 5A000000 		.4byte	.LVL262
 7471 21bd 58280000 		.4byte	0x2858
 7472 21c1 40       		.uleb128 0x40
 7473 21c2 82000000 		.4byte	.LVL272
 7474 21c6 B9100000 		.4byte	0x10b9
 7475 21ca F2210000 		.4byte	0x21f2
 7476 21ce 36       		.uleb128 0x36
 7477 21cf 01       		.uleb128 0x1
 7478 21d0 53       		.byte	0x53
 7479 21d1 03       		.uleb128 0x3
ARM GAS  C:\Users\jo\AppData\Local\Temp\ccDLAO0k.s 			page 135


 7480 21d2 0A       		.byte	0xa
 7481 21d3 9D03     		.2byte	0x39d
 7482 21d5 36       		.uleb128 0x36
 7483 21d6 01       		.uleb128 0x1
 7484 21d7 52       		.byte	0x52
 7485 21d8 05       		.uleb128 0x5
 7486 21d9 03       		.byte	0x3
 7487 21da 34030000 		.4byte	.LC27
 7488 21de 36       		.uleb128 0x36
 7489 21df 01       		.uleb128 0x1
 7490 21e0 51       		.byte	0x51
 7491 21e1 05       		.uleb128 0x5
 7492 21e2 03       		.byte	0x3
 7493 21e3 00000000 		.4byte	.LC0
 7494 21e7 36       		.uleb128 0x36
 7495 21e8 02       		.uleb128 0x2
 7496 21e9 7D       		.byte	0x7d
 7497 21ea 00       		.sleb128 0
 7498 21eb 05       		.uleb128 0x5
 7499 21ec 03       		.byte	0x3
 7500 21ed 4C000000 		.4byte	.LC2
 7501 21f1 00       		.byte	0
 7502 21f2 35       		.uleb128 0x35
 7503 21f3 9E000000 		.4byte	.LVL279
 7504 21f7 B9100000 		.4byte	0x10b9
 7505 21fb 36       		.uleb128 0x36
 7506 21fc 01       		.uleb128 0x1
 7507 21fd 53       		.byte	0x53
 7508 21fe 03       		.uleb128 0x3
 7509 21ff 0A       		.byte	0xa
 7510 2200 9E03     		.2byte	0x39e
 7511 2202 36       		.uleb128 0x36
 7512 2203 01       		.uleb128 0x1
 7513 2204 52       		.byte	0x52
 7514 2205 05       		.uleb128 0x5
 7515 2206 03       		.byte	0x3
 7516 2207 54030000 		.4byte	.LC28
 7517 220b 36       		.uleb128 0x36
 7518 220c 01       		.uleb128 0x1
 7519 220d 51       		.byte	0x51
 7520 220e 05       		.uleb128 0x5
 7521 220f 03       		.byte	0x3
 7522 2210 00000000 		.4byte	.LC0
 7523 2214 36       		.uleb128 0x36
 7524 2215 02       		.uleb128 0x2
 7525 2216 7D       		.byte	0x7d
 7526 2217 00       		.sleb128 0
 7527 2218 05       		.uleb128 0x5
 7528 2219 03       		.byte	0x3
 7529 221a 4C000000 		.4byte	.LC2
 7530 221e 00       		.byte	0
 7531 221f 00       		.byte	0
 7532 2220 3B       		.uleb128 0x3b
 7533 2221 A1030000 		.4byte	.LASF289
 7534 2225 01       		.byte	0x1
 7535 2226 C603     		.2byte	0x3c6
 7536 2228 6B090000 		.4byte	0x96b
ARM GAS  C:\Users\jo\AppData\Local\Temp\ccDLAO0k.s 			page 136


 7537 222c 00000000 		.4byte	.LFB275
 7538 2230 F8000000 		.4byte	.LFE275-.LFB275
 7539 2234 01       		.uleb128 0x1
 7540 2235 9C       		.byte	0x9c
 7541 2236 3B240000 		.4byte	0x243b
 7542 223a 3C       		.uleb128 0x3c
 7543 223b 62756600 		.ascii	"buf\000"
 7544 223f 01       		.byte	0x1
 7545 2240 C603     		.2byte	0x3c6
 7546 2242 2F0A0000 		.4byte	0xa2f
 7547 2246 19110000 		.4byte	.LLST85
 7548 224a 3D       		.uleb128 0x3d
 7549 224b DF080000 		.4byte	.LASF285
 7550 224f 01       		.byte	0x1
 7551 2250 C603     		.2byte	0x3c6
 7552 2252 07090000 		.4byte	0x907
 7553 2256 7C110000 		.4byte	.LLST86
 7554 225a 3C       		.uleb128 0x3c
 7555 225b 6C656E00 		.ascii	"len\000"
 7556 225f 01       		.byte	0x1
 7557 2260 C603     		.2byte	0x3c6
 7558 2262 D0080000 		.4byte	0x8d0
 7559 2266 ED110000 		.4byte	.LLST87
 7560 226a 41       		.uleb128 0x41
 7561 226b 7000     		.ascii	"p\000"
 7562 226d 01       		.byte	0x1
 7563 226e C803     		.2byte	0x3c8
 7564 2270 2F0A0000 		.4byte	0xa2f
 7565 2274 4B120000 		.4byte	.LLST88
 7566 2278 3E       		.uleb128 0x3e
 7567 2279 18080000 		.4byte	.LASF287
 7568 227d 01       		.byte	0x1
 7569 227e C903     		.2byte	0x3c9
 7570 2280 D0080000 		.4byte	0x8d0
 7571 2284 74120000 		.4byte	.LLST89
 7572 2288 3E       		.uleb128 0x3e
 7573 2289 030B0000 		.4byte	.LASF290
 7574 228d 01       		.byte	0x1
 7575 228e CA03     		.2byte	0x3ca
 7576 2290 D0080000 		.4byte	0x8d0
 7577 2294 A8120000 		.4byte	.LLST90
 7578 2298 3E       		.uleb128 0x3e
 7579 2299 BE050000 		.4byte	.LASF288
 7580 229d 01       		.byte	0x1
 7581 229e CB03     		.2byte	0x3cb
 7582 22a0 D0080000 		.4byte	0x8d0
 7583 22a4 F2120000 		.4byte	.LLST91
 7584 22a8 3F       		.uleb128 0x3f
 7585 22a9 6B0F0000 		.4byte	0xf6b
 7586 22ad 6A000000 		.4byte	.LBB174
 7587 22b1 06000000 		.4byte	.LBE174-.LBB174
 7588 22b5 01       		.byte	0x1
 7589 22b6 E103     		.2byte	0x3e1
 7590 22b8 D9220000 		.4byte	0x22d9
 7591 22bc 37       		.uleb128 0x37
 7592 22bd 780F0000 		.4byte	0xf78
 7593 22c1 33130000 		.4byte	.LLST92
ARM GAS  C:\Users\jo\AppData\Local\Temp\ccDLAO0k.s 			page 137


 7594 22c5 35       		.uleb128 0x35
 7595 22c6 70000000 		.4byte	.LVL292
 7596 22ca 20280000 		.4byte	0x2820
 7597 22ce 36       		.uleb128 0x36
 7598 22cf 01       		.uleb128 0x1
 7599 22d0 50       		.byte	0x50
 7600 22d1 05       		.uleb128 0x5
 7601 22d2 03       		.byte	0x3
 7602 22d3 C4030000 		.4byte	.LC32
 7603 22d7 00       		.byte	0
 7604 22d8 00       		.byte	0
 7605 22d9 3F       		.uleb128 0x3f
 7606 22da 6B0F0000 		.4byte	0xf6b
 7607 22de 8C000000 		.4byte	.LBB176
 7608 22e2 08000000 		.4byte	.LBE176-.LBB176
 7609 22e6 01       		.byte	0x1
 7610 22e7 D603     		.2byte	0x3d6
 7611 22e9 0A230000 		.4byte	0x230a
 7612 22ed 37       		.uleb128 0x37
 7613 22ee 780F0000 		.4byte	0xf78
 7614 22f2 4B130000 		.4byte	.LLST93
 7615 22f6 35       		.uleb128 0x35
 7616 22f7 92000000 		.4byte	.LVL296
 7617 22fb 20280000 		.4byte	0x2820
 7618 22ff 36       		.uleb128 0x36
 7619 2300 01       		.uleb128 0x1
 7620 2301 50       		.byte	0x50
 7621 2302 05       		.uleb128 0x5
 7622 2303 03       		.byte	0x3
 7623 2304 AC030000 		.4byte	.LC31
 7624 2308 00       		.byte	0
 7625 2309 00       		.byte	0
 7626 230a 3F       		.uleb128 0x3f
 7627 230b 6B0F0000 		.4byte	0xf6b
 7628 230f B0000000 		.4byte	.LBB178
 7629 2313 06000000 		.4byte	.LBE178-.LBB178
 7630 2317 01       		.byte	0x1
 7631 2318 CD03     		.2byte	0x3cd
 7632 231a 3B230000 		.4byte	0x233b
 7633 231e 37       		.uleb128 0x37
 7634 231f 780F0000 		.4byte	0xf78
 7635 2323 63130000 		.4byte	.LLST94
 7636 2327 35       		.uleb128 0x35
 7637 2328 B6000000 		.4byte	.LVL303
 7638 232c 20280000 		.4byte	0x2820
 7639 2330 36       		.uleb128 0x36
 7640 2331 01       		.uleb128 0x1
 7641 2332 50       		.byte	0x50
 7642 2333 05       		.uleb128 0x5
 7643 2334 03       		.byte	0x3
 7644 2335 78030000 		.4byte	.LC29
 7645 2339 00       		.byte	0
 7646 233a 00       		.byte	0
 7647 233b 3F       		.uleb128 0x3f
 7648 233c 6B0F0000 		.4byte	0xf6b
 7649 2340 CC000000 		.4byte	.LBB180
 7650 2344 06000000 		.4byte	.LBE180-.LBB180
ARM GAS  C:\Users\jo\AppData\Local\Temp\ccDLAO0k.s 			page 138


 7651 2348 01       		.byte	0x1
 7652 2349 CE03     		.2byte	0x3ce
 7653 234b 6C230000 		.4byte	0x236c
 7654 234f 37       		.uleb128 0x37
 7655 2350 780F0000 		.4byte	0xf78
 7656 2354 7B130000 		.4byte	.LLST95
 7657 2358 35       		.uleb128 0x35
 7658 2359 D2000000 		.4byte	.LVL309
 7659 235d 20280000 		.4byte	0x2820
 7660 2361 36       		.uleb128 0x36
 7661 2362 01       		.uleb128 0x1
 7662 2363 50       		.byte	0x50
 7663 2364 05       		.uleb128 0x5
 7664 2365 03       		.byte	0x3
 7665 2366 90030000 		.4byte	.LC30
 7666 236a 00       		.byte	0
 7667 236b 00       		.byte	0
 7668 236c 40       		.uleb128 0x40
 7669 236d 4A000000 		.4byte	.LVL288
 7670 2371 58280000 		.4byte	0x2858
 7671 2375 80230000 		.4byte	0x2380
 7672 2379 36       		.uleb128 0x36
 7673 237a 01       		.uleb128 0x1
 7674 237b 52       		.byte	0x52
 7675 237c 02       		.uleb128 0x2
 7676 237d 75       		.byte	0x75
 7677 237e 00       		.sleb128 0
 7678 237f 00       		.byte	0
 7679 2380 40       		.uleb128 0x40
 7680 2381 6A000000 		.4byte	.LVL291
 7681 2385 B9100000 		.4byte	0x10b9
 7682 2389 AE230000 		.4byte	0x23ae
 7683 238d 36       		.uleb128 0x36
 7684 238e 01       		.uleb128 0x1
 7685 238f 53       		.byte	0x53
 7686 2390 03       		.uleb128 0x3
 7687 2391 0A       		.byte	0xa
 7688 2392 E103     		.2byte	0x3e1
 7689 2394 36       		.uleb128 0x36
 7690 2395 01       		.uleb128 0x1
 7691 2396 52       		.byte	0x52
 7692 2397 05       		.uleb128 0x5
 7693 2398 03       		.byte	0x3
 7694 2399 C4030000 		.4byte	.LC32
 7695 239d 36       		.uleb128 0x36
 7696 239e 01       		.uleb128 0x1
 7697 239f 51       		.byte	0x51
 7698 23a0 05       		.uleb128 0x5
 7699 23a1 03       		.byte	0x3
 7700 23a2 00000000 		.4byte	.LC0
 7701 23a6 36       		.uleb128 0x36
 7702 23a7 02       		.uleb128 0x2
 7703 23a8 7D       		.byte	0x7d
 7704 23a9 00       		.sleb128 0
 7705 23aa 02       		.uleb128 0x2
 7706 23ab 79       		.byte	0x79
 7707 23ac 00       		.sleb128 0
ARM GAS  C:\Users\jo\AppData\Local\Temp\ccDLAO0k.s 			page 139


 7708 23ad 00       		.byte	0
 7709 23ae 40       		.uleb128 0x40
 7710 23af 8C000000 		.4byte	.LVL295
 7711 23b3 B9100000 		.4byte	0x10b9
 7712 23b7 DC230000 		.4byte	0x23dc
 7713 23bb 36       		.uleb128 0x36
 7714 23bc 01       		.uleb128 0x1
 7715 23bd 53       		.byte	0x53
 7716 23be 03       		.uleb128 0x3
 7717 23bf 0A       		.byte	0xa
 7718 23c0 D603     		.2byte	0x3d6
 7719 23c2 36       		.uleb128 0x36
 7720 23c3 01       		.uleb128 0x1
 7721 23c4 52       		.byte	0x52
 7722 23c5 05       		.uleb128 0x5
 7723 23c6 03       		.byte	0x3
 7724 23c7 AC030000 		.4byte	.LC31
 7725 23cb 36       		.uleb128 0x36
 7726 23cc 01       		.uleb128 0x1
 7727 23cd 51       		.byte	0x51
 7728 23ce 05       		.uleb128 0x5
 7729 23cf 03       		.byte	0x3
 7730 23d0 00000000 		.4byte	.LC0
 7731 23d4 36       		.uleb128 0x36
 7732 23d5 02       		.uleb128 0x2
 7733 23d6 7D       		.byte	0x7d
 7734 23d7 00       		.sleb128 0
 7735 23d8 02       		.uleb128 0x2
 7736 23d9 79       		.byte	0x79
 7737 23da 00       		.sleb128 0
 7738 23db 00       		.byte	0
 7739 23dc 40       		.uleb128 0x40
 7740 23dd B0000000 		.4byte	.LVL302
 7741 23e1 B9100000 		.4byte	0x10b9
 7742 23e5 0D240000 		.4byte	0x240d
 7743 23e9 36       		.uleb128 0x36
 7744 23ea 01       		.uleb128 0x1
 7745 23eb 53       		.byte	0x53
 7746 23ec 03       		.uleb128 0x3
 7747 23ed 0A       		.byte	0xa
 7748 23ee CD03     		.2byte	0x3cd
 7749 23f0 36       		.uleb128 0x36
 7750 23f1 01       		.uleb128 0x1
 7751 23f2 52       		.byte	0x52
 7752 23f3 05       		.uleb128 0x5
 7753 23f4 03       		.byte	0x3
 7754 23f5 78030000 		.4byte	.LC29
 7755 23f9 36       		.uleb128 0x36
 7756 23fa 01       		.uleb128 0x1
 7757 23fb 51       		.byte	0x51
 7758 23fc 05       		.uleb128 0x5
 7759 23fd 03       		.byte	0x3
 7760 23fe 00000000 		.4byte	.LC0
 7761 2402 36       		.uleb128 0x36
 7762 2403 02       		.uleb128 0x2
 7763 2404 7D       		.byte	0x7d
 7764 2405 00       		.sleb128 0
ARM GAS  C:\Users\jo\AppData\Local\Temp\ccDLAO0k.s 			page 140


 7765 2406 05       		.uleb128 0x5
 7766 2407 03       		.byte	0x3
 7767 2408 4C000000 		.4byte	.LC2
 7768 240c 00       		.byte	0
 7769 240d 35       		.uleb128 0x35
 7770 240e CC000000 		.4byte	.LVL308
 7771 2412 B9100000 		.4byte	0x10b9
 7772 2416 36       		.uleb128 0x36
 7773 2417 01       		.uleb128 0x1
 7774 2418 53       		.byte	0x53
 7775 2419 03       		.uleb128 0x3
 7776 241a 0A       		.byte	0xa
 7777 241b CE03     		.2byte	0x3ce
 7778 241d 36       		.uleb128 0x36
 7779 241e 01       		.uleb128 0x1
 7780 241f 52       		.byte	0x52
 7781 2420 05       		.uleb128 0x5
 7782 2421 03       		.byte	0x3
 7783 2422 90030000 		.4byte	.LC30
 7784 2426 36       		.uleb128 0x36
 7785 2427 01       		.uleb128 0x1
 7786 2428 51       		.byte	0x51
 7787 2429 05       		.uleb128 0x5
 7788 242a 03       		.byte	0x3
 7789 242b 00000000 		.4byte	.LC0
 7790 242f 36       		.uleb128 0x36
 7791 2430 02       		.uleb128 0x2
 7792 2431 7D       		.byte	0x7d
 7793 2432 00       		.sleb128 0
 7794 2433 05       		.uleb128 0x5
 7795 2434 03       		.byte	0x3
 7796 2435 4C000000 		.4byte	.LC2
 7797 2439 00       		.byte	0
 7798 243a 00       		.byte	0
 7799 243b 3B       		.uleb128 0x3b
 7800 243c BA080000 		.4byte	.LASF291
 7801 2440 01       		.byte	0x1
 7802 2441 F203     		.2byte	0x3f2
 7803 2443 2F0A0000 		.4byte	0xa2f
 7804 2447 00000000 		.4byte	.LFB276
 7805 244b 5C000000 		.4byte	.LFE276-.LFB276
 7806 244f 01       		.uleb128 0x1
 7807 2450 9C       		.byte	0x9c
 7808 2451 34250000 		.4byte	0x2534
 7809 2455 3C       		.uleb128 0x3c
 7810 2456 7000     		.ascii	"p\000"
 7811 2458 01       		.byte	0x1
 7812 2459 F203     		.2byte	0x3f2
 7813 245b 2F0A0000 		.4byte	0xa2f
 7814 245f 93130000 		.4byte	.LLST96
 7815 2463 3D       		.uleb128 0x3d
 7816 2464 DA070000 		.4byte	.LASF269
 7817 2468 01       		.byte	0x1
 7818 2469 F203     		.2byte	0x3f2
 7819 246b 97090000 		.4byte	0x997
 7820 246f B1130000 		.4byte	.LLST97
 7821 2473 41       		.uleb128 0x41
ARM GAS  C:\Users\jo\AppData\Local\Temp\ccDLAO0k.s 			page 141


 7822 2474 7100     		.ascii	"q\000"
 7823 2476 01       		.byte	0x1
 7824 2477 F403     		.2byte	0x3f4
 7825 2479 2F0A0000 		.4byte	0xa2f
 7826 247d D2130000 		.4byte	.LLST98
 7827 2481 41       		.uleb128 0x41
 7828 2482 65727200 		.ascii	"err\000"
 7829 2486 01       		.byte	0x1
 7830 2487 F503     		.2byte	0x3f5
 7831 2489 6B090000 		.4byte	0x96b
 7832 248d FB130000 		.4byte	.LLST99
 7833 2491 3F       		.uleb128 0x3f
 7834 2492 6B0F0000 		.4byte	0xf6b
 7835 2496 44000000 		.4byte	.LBB182
 7836 249a 18000000 		.4byte	.LBE182-.LBB182
 7837 249e 01       		.byte	0x1
 7838 249f FF03     		.2byte	0x3ff
 7839 24a1 C5240000 		.4byte	0x24c5
 7840 24a5 38       		.uleb128 0x38
 7841 24a6 780F0000 		.4byte	0xf78
 7842 24aa 06       		.uleb128 0x6
 7843 24ab 03       		.byte	0x3
 7844 24ac DC030000 		.4byte	.LC33
 7845 24b0 9F       		.byte	0x9f
 7846 24b1 35       		.uleb128 0x35
 7847 24b2 4A000000 		.4byte	.LVL323
 7848 24b6 20280000 		.4byte	0x2820
 7849 24ba 36       		.uleb128 0x36
 7850 24bb 01       		.uleb128 0x1
 7851 24bc 50       		.byte	0x50
 7852 24bd 05       		.uleb128 0x5
 7853 24be 03       		.byte	0x3
 7854 24bf DC030000 		.4byte	.LC33
 7855 24c3 00       		.byte	0
 7856 24c4 00       		.byte	0
 7857 24c5 40       		.uleb128 0x40
 7858 24c6 14000000 		.4byte	.LVL315
 7859 24ca B5150000 		.4byte	0x15b5
 7860 24ce D8240000 		.4byte	0x24d8
 7861 24d2 36       		.uleb128 0x36
 7862 24d3 01       		.uleb128 0x1
 7863 24d4 52       		.byte	0x52
 7864 24d5 01       		.uleb128 0x1
 7865 24d6 30       		.byte	0x30
 7866 24d7 00       		.byte	0
 7867 24d8 40       		.uleb128 0x40
 7868 24d9 1E000000 		.4byte	.LVL316
 7869 24dd 031E0000 		.4byte	0x1e03
 7870 24e1 F2240000 		.4byte	0x24f2
 7871 24e5 36       		.uleb128 0x36
 7872 24e6 01       		.uleb128 0x1
 7873 24e7 51       		.byte	0x51
 7874 24e8 02       		.uleb128 0x2
 7875 24e9 74       		.byte	0x74
 7876 24ea 00       		.sleb128 0
 7877 24eb 36       		.uleb128 0x36
 7878 24ec 01       		.uleb128 0x1
ARM GAS  C:\Users\jo\AppData\Local\Temp\ccDLAO0k.s 			page 142


 7879 24ed 50       		.byte	0x50
 7880 24ee 02       		.uleb128 0x2
 7881 24ef 75       		.byte	0x75
 7882 24f0 00       		.sleb128 0
 7883 24f1 00       		.byte	0
 7884 24f2 40       		.uleb128 0x40
 7885 24f3 26000000 		.4byte	.LVL318
 7886 24f7 8E130000 		.4byte	0x138e
 7887 24fb 06250000 		.4byte	0x2506
 7888 24ff 36       		.uleb128 0x36
 7889 2500 01       		.uleb128 0x1
 7890 2501 50       		.byte	0x50
 7891 2502 02       		.uleb128 0x2
 7892 2503 74       		.byte	0x74
 7893 2504 00       		.sleb128 0
 7894 2505 00       		.byte	0
 7895 2506 35       		.uleb128 0x35
 7896 2507 44000000 		.4byte	.LVL322
 7897 250b B9100000 		.4byte	0x10b9
 7898 250f 36       		.uleb128 0x36
 7899 2510 01       		.uleb128 0x1
 7900 2511 53       		.byte	0x53
 7901 2512 03       		.uleb128 0x3
 7902 2513 0A       		.byte	0xa
 7903 2514 FF03     		.2byte	0x3ff
 7904 2516 36       		.uleb128 0x36
 7905 2517 01       		.uleb128 0x1
 7906 2518 52       		.byte	0x52
 7907 2519 05       		.uleb128 0x5
 7908 251a 03       		.byte	0x3
 7909 251b DC030000 		.4byte	.LC33
 7910 251f 36       		.uleb128 0x36
 7911 2520 01       		.uleb128 0x1
 7912 2521 51       		.byte	0x51
 7913 2522 05       		.uleb128 0x5
 7914 2523 03       		.byte	0x3
 7915 2524 00000000 		.4byte	.LC0
 7916 2528 36       		.uleb128 0x36
 7917 2529 02       		.uleb128 0x2
 7918 252a 7D       		.byte	0x7d
 7919 252b 00       		.sleb128 0
 7920 252c 05       		.uleb128 0x5
 7921 252d 03       		.byte	0x3
 7922 252e 4C000000 		.4byte	.LC2
 7923 2532 00       		.byte	0
 7924 2533 00       		.byte	0
 7925 2534 33       		.uleb128 0x33
 7926 2535 9D0F0000 		.4byte	0xf9d
 7927 2539 00000000 		.4byte	.LFB277
 7928 253d 22000000 		.4byte	.LFE277-.LFB277
 7929 2541 01       		.uleb128 0x1
 7930 2542 9C       		.byte	0x9c
 7931 2543 6C250000 		.4byte	0x256c
 7932 2547 37       		.uleb128 0x37
 7933 2548 AE0F0000 		.4byte	0xfae
 7934 254c 19140000 		.4byte	.LLST100
 7935 2550 37       		.uleb128 0x37
ARM GAS  C:\Users\jo\AppData\Local\Temp\ccDLAO0k.s 			page 143


 7936 2551 B80F0000 		.4byte	0xfb8
 7937 2555 3A140000 		.4byte	.LLST101
 7938 2559 31       		.uleb128 0x31
 7939 255a C40F0000 		.4byte	0xfc4
 7940 255e 5B140000 		.4byte	.LLST102
 7941 2562 31       		.uleb128 0x31
 7942 2563 D00F0000 		.4byte	0xfd0
 7943 2567 79140000 		.4byte	.LLST103
 7944 256b 00       		.byte	0
 7945 256c 3B       		.uleb128 0x3b
 7946 256d 44060000 		.4byte	.LASF292
 7947 2571 01       		.byte	0x1
 7948 2572 5004     		.2byte	0x450
 7949 2574 D0080000 		.4byte	0x8d0
 7950 2578 00000000 		.4byte	.LFB278
 7951 257c 84000000 		.4byte	.LFE278-.LFB278
 7952 2580 01       		.uleb128 0x1
 7953 2581 9C       		.byte	0x9c
 7954 2582 45260000 		.4byte	0x2645
 7955 2586 3C       		.uleb128 0x3c
 7956 2587 7000     		.ascii	"p\000"
 7957 2589 01       		.byte	0x1
 7958 258a 5004     		.2byte	0x450
 7959 258c 2F0A0000 		.4byte	0xa2f
 7960 2590 97140000 		.4byte	.LLST104
 7961 2594 3D       		.uleb128 0x3d
 7962 2595 46040000 		.4byte	.LASF103
 7963 2599 01       		.byte	0x1
 7964 259a 5004     		.2byte	0x450
 7965 259c D0080000 		.4byte	0x8d0
 7966 25a0 D1140000 		.4byte	.LLST105
 7967 25a4 3C       		.uleb128 0x3c
 7968 25a5 733200   		.ascii	"s2\000"
 7969 25a8 01       		.byte	0x1
 7970 25a9 5004     		.2byte	0x450
 7971 25ab 07090000 		.4byte	0x907
 7972 25af 0B150000 		.4byte	.LLST106
 7973 25b3 4D       		.uleb128 0x4d
 7974 25b4 6E00     		.ascii	"n\000"
 7975 25b6 01       		.byte	0x1
 7976 25b7 5004     		.2byte	0x450
 7977 25b9 D0080000 		.4byte	0x8d0
 7978 25bd 01       		.uleb128 0x1
 7979 25be 53       		.byte	0x53
 7980 25bf 4E       		.uleb128 0x4e
 7981 25c0 FD0A0000 		.4byte	.LASF293
 7982 25c4 01       		.byte	0x1
 7983 25c5 5204     		.2byte	0x452
 7984 25c7 D0080000 		.4byte	0x8d0
 7985 25cb 01       		.uleb128 0x1
 7986 25cc 51       		.byte	0x51
 7987 25cd 41       		.uleb128 0x41
 7988 25ce 7100     		.ascii	"q\000"
 7989 25d0 01       		.byte	0x1
 7990 25d1 5304     		.2byte	0x453
 7991 25d3 2F0A0000 		.4byte	0xa2f
 7992 25d7 37150000 		.4byte	.LLST107
ARM GAS  C:\Users\jo\AppData\Local\Temp\ccDLAO0k.s 			page 144


 7993 25db 30       		.uleb128 0x30
 7994 25dc 70000000 		.4byte	.Ldebug_ranges0+0x70
 7995 25e0 41       		.uleb128 0x41
 7996 25e1 6900     		.ascii	"i\000"
 7997 25e3 01       		.byte	0x1
 7998 25e4 5C04     		.2byte	0x45c
 7999 25e6 D0080000 		.4byte	0x8d0
 8000 25ea 8F150000 		.4byte	.LLST108
 8001 25ee 30       		.uleb128 0x30
 8002 25ef 88000000 		.4byte	.Ldebug_ranges0+0x88
 8003 25f3 28       		.uleb128 0x28
 8004 25f4 6100     		.ascii	"a\000"
 8005 25f6 01       		.byte	0x1
 8006 25f7 5E04     		.2byte	0x45e
 8007 25f9 BA080000 		.4byte	0x8ba
 8008 25fd 41       		.uleb128 0x41
 8009 25fe 6200     		.ascii	"b\000"
 8010 2600 01       		.byte	0x1
 8011 2601 5F04     		.2byte	0x45f
 8012 2603 BA080000 		.4byte	0x8ba
 8013 2607 DD150000 		.4byte	.LLST109
 8014 260b 4F       		.uleb128 0x4f
 8015 260c 9D0F0000 		.4byte	0xf9d
 8016 2610 36000000 		.4byte	.LBB186
 8017 2614 A0000000 		.4byte	.Ldebug_ranges0+0xa0
 8018 2618 01       		.byte	0x1
 8019 2619 5E04     		.2byte	0x45e
 8020 261b 37       		.uleb128 0x37
 8021 261c B80F0000 		.4byte	0xfb8
 8022 2620 FD150000 		.4byte	.LLST110
 8023 2624 3A       		.uleb128 0x3a
 8024 2625 AE0F0000 		.4byte	0xfae
 8025 2629 30       		.uleb128 0x30
 8026 262a A0000000 		.4byte	.Ldebug_ranges0+0xa0
 8027 262e 31       		.uleb128 0x31
 8028 262f C40F0000 		.4byte	0xfc4
 8029 2633 52160000 		.4byte	.LLST111
 8030 2637 31       		.uleb128 0x31
 8031 2638 D00F0000 		.4byte	0xfd0
 8032 263c 7B160000 		.4byte	.LLST112
 8033 2640 00       		.byte	0
 8034 2641 00       		.byte	0
 8035 2642 00       		.byte	0
 8036 2643 00       		.byte	0
 8037 2644 00       		.byte	0
 8038 2645 3B       		.uleb128 0x3b
 8039 2646 270A0000 		.4byte	.LASF294
 8040 264a 01       		.byte	0x1
 8041 264b 7404     		.2byte	0x474
 8042 264d D0080000 		.4byte	0x8d0
 8043 2651 00000000 		.4byte	.LFB279
 8044 2655 44000000 		.4byte	.LFE279-.LFB279
 8045 2659 01       		.uleb128 0x1
 8046 265a 9C       		.byte	0x9c
 8047 265b F2260000 		.4byte	0x26f2
 8048 265f 3C       		.uleb128 0x3c
 8049 2660 7000     		.ascii	"p\000"
ARM GAS  C:\Users\jo\AppData\Local\Temp\ccDLAO0k.s 			page 145


 8050 2662 01       		.byte	0x1
 8051 2663 7404     		.2byte	0x474
 8052 2665 2F0A0000 		.4byte	0xa2f
 8053 2669 AF160000 		.4byte	.LLST113
 8054 266d 3C       		.uleb128 0x3c
 8055 266e 6D656D00 		.ascii	"mem\000"
 8056 2672 01       		.byte	0x1
 8057 2673 7404     		.2byte	0x474
 8058 2675 07090000 		.4byte	0x907
 8059 2679 E3160000 		.4byte	.LLST114
 8060 267d 3D       		.uleb128 0x3d
 8061 267e 600C0000 		.4byte	.LASF295
 8062 2682 01       		.byte	0x1
 8063 2683 7404     		.2byte	0x474
 8064 2685 D0080000 		.4byte	0x8d0
 8065 2689 1A170000 		.4byte	.LLST115
 8066 268d 3D       		.uleb128 0x3d
 8067 268e C8010000 		.4byte	.LASF296
 8068 2692 01       		.byte	0x1
 8069 2693 7404     		.2byte	0x474
 8070 2695 D0080000 		.4byte	0x8d0
 8071 2699 54170000 		.4byte	.LLST116
 8072 269d 50       		.uleb128 0x50
 8073 269e 6900     		.ascii	"i\000"
 8074 26a0 01       		.byte	0x1
 8075 26a1 7604     		.2byte	0x476
 8076 26a3 D0080000 		.4byte	0x8d0
 8077 26a7 01       		.uleb128 0x1
 8078 26a8 54       		.byte	0x54
 8079 26a9 41       		.uleb128 0x41
 8080 26aa 6D617800 		.ascii	"max\000"
 8081 26ae 01       		.byte	0x1
 8082 26af 7704     		.2byte	0x477
 8083 26b1 D0080000 		.4byte	0x8d0
 8084 26b5 75170000 		.4byte	.LLST117
 8085 26b9 30       		.uleb128 0x30
 8086 26ba C8000000 		.4byte	.Ldebug_ranges0+0xc8
 8087 26be 3E       		.uleb128 0x3e
 8088 26bf B2050000 		.4byte	.LASF297
 8089 26c3 01       		.byte	0x1
 8090 26c4 7A04     		.2byte	0x47a
 8091 26c6 D0080000 		.4byte	0x8d0
 8092 26ca AF170000 		.4byte	.LLST118
 8093 26ce 35       		.uleb128 0x35
 8094 26cf 38000000 		.4byte	.LVL368
 8095 26d3 6C250000 		.4byte	0x256c
 8096 26d7 36       		.uleb128 0x36
 8097 26d8 01       		.uleb128 0x1
 8098 26d9 53       		.byte	0x53
 8099 26da 02       		.uleb128 0x2
 8100 26db 76       		.byte	0x76
 8101 26dc 00       		.sleb128 0
 8102 26dd 36       		.uleb128 0x36
 8103 26de 01       		.uleb128 0x1
 8104 26df 52       		.byte	0x52
 8105 26e0 02       		.uleb128 0x2
 8106 26e1 78       		.byte	0x78
ARM GAS  C:\Users\jo\AppData\Local\Temp\ccDLAO0k.s 			page 146


 8107 26e2 00       		.sleb128 0
 8108 26e3 36       		.uleb128 0x36
 8109 26e4 01       		.uleb128 0x1
 8110 26e5 51       		.byte	0x51
 8111 26e6 02       		.uleb128 0x2
 8112 26e7 74       		.byte	0x74
 8113 26e8 00       		.sleb128 0
 8114 26e9 36       		.uleb128 0x36
 8115 26ea 01       		.uleb128 0x1
 8116 26eb 50       		.byte	0x50
 8117 26ec 02       		.uleb128 0x2
 8118 26ed 77       		.byte	0x77
 8119 26ee 00       		.sleb128 0
 8120 26ef 00       		.byte	0
 8121 26f0 00       		.byte	0
 8122 26f1 00       		.byte	0
 8123 26f2 3B       		.uleb128 0x3b
 8124 26f3 9E070000 		.4byte	.LASF298
 8125 26f7 01       		.byte	0x1
 8126 26f8 9004     		.2byte	0x490
 8127 26fa D0080000 		.4byte	0x8d0
 8128 26fe 00000000 		.4byte	.LFB280
 8129 2702 44000000 		.4byte	.LFE280-.LFB280
 8130 2706 01       		.uleb128 0x1
 8131 2707 9C       		.byte	0x9c
 8132 2708 6C270000 		.4byte	0x276c
 8133 270c 3C       		.uleb128 0x3c
 8134 270d 7000     		.ascii	"p\000"
 8135 270f 01       		.byte	0x1
 8136 2710 9004     		.2byte	0x490
 8137 2712 2F0A0000 		.4byte	0xa2f
 8138 2716 CD170000 		.4byte	.LLST119
 8139 271a 3D       		.uleb128 0x3d
 8140 271b D0030000 		.4byte	.LASF299
 8141 271f 01       		.byte	0x1
 8142 2720 9004     		.2byte	0x490
 8143 2722 F4060000 		.4byte	0x6f4
 8144 2726 36180000 		.4byte	.LLST120
 8145 272a 3E       		.uleb128 0x3e
 8146 272b 04090000 		.4byte	.LASF300
 8147 272f 01       		.byte	0x1
 8148 2730 9204     		.2byte	0x492
 8149 2732 2C000000 		.4byte	0x2c
 8150 2736 86180000 		.4byte	.LLST121
 8151 273a 40       		.uleb128 0x40
 8152 273b 24000000 		.4byte	.LVL374
 8153 273f 75280000 		.4byte	0x2875
 8154 2743 4E270000 		.4byte	0x274e
 8155 2747 36       		.uleb128 0x36
 8156 2748 01       		.uleb128 0x1
 8157 2749 50       		.byte	0x50
 8158 274a 02       		.uleb128 0x2
 8159 274b 74       		.byte	0x74
 8160 274c 00       		.sleb128 0
 8161 274d 00       		.byte	0
 8162 274e 4C       		.uleb128 0x4c
 8163 274f 44000000 		.4byte	.LVL381
ARM GAS  C:\Users\jo\AppData\Local\Temp\ccDLAO0k.s 			page 147


 8164 2753 45260000 		.4byte	0x2645
 8165 2757 36       		.uleb128 0x36
 8166 2758 01       		.uleb128 0x1
 8167 2759 53       		.byte	0x53
 8168 275a 01       		.uleb128 0x1
 8169 275b 30       		.byte	0x30
 8170 275c 36       		.uleb128 0x36
 8171 275d 01       		.uleb128 0x1
 8172 275e 51       		.byte	0x51
 8173 275f 03       		.uleb128 0x3
 8174 2760 F3       		.byte	0xf3
 8175 2761 01       		.uleb128 0x1
 8176 2762 51       		.byte	0x51
 8177 2763 36       		.uleb128 0x36
 8178 2764 01       		.uleb128 0x1
 8179 2765 50       		.byte	0x50
 8180 2766 03       		.uleb128 0x3
 8181 2767 F3       		.byte	0xf3
 8182 2768 01       		.uleb128 0x1
 8183 2769 50       		.byte	0x50
 8184 276a 00       		.byte	0
 8185 276b 00       		.byte	0
 8186 276c 51       		.uleb128 0x51
 8187 276d 20000000 		.4byte	.LASF301
 8188 2771 1C       		.byte	0x1c
 8189 2772 A706     		.2byte	0x6a7
 8190 2774 10010000 		.4byte	0x110
 8191 2778 52       		.uleb128 0x52
 8192 2779 636800   		.ascii	"ch\000"
 8193 277c 09       		.byte	0x9
 8194 277d 0902     		.2byte	0x209
 8195 277f 5B040000 		.4byte	0x45b
 8196 2783 53       		.uleb128 0x53
 8197 2784 2C0E0000 		.4byte	.LASF302
 8198 2788 14       		.byte	0x14
 8199 2789 3D       		.byte	0x3d
 8200 278a 82080000 		.4byte	0x882
 8201 278e 15       		.uleb128 0x15
 8202 278f D0080000 		.4byte	0x8d0
 8203 2793 9E270000 		.4byte	0x279e
 8204 2797 16       		.uleb128 0x16
 8205 2798 C5040000 		.4byte	0x4c5
 8206 279c 0C       		.byte	0xc
 8207 279d 00       		.byte	0
 8208 279e 53       		.uleb128 0x53
 8209 279f 6F030000 		.4byte	.LASF303
 8210 27a3 16       		.byte	0x16
 8211 27a4 4F       		.byte	0x4f
 8212 27a5 A9270000 		.4byte	0x27a9
 8213 27a9 19       		.uleb128 0x19
 8214 27aa 8E270000 		.4byte	0x278e
 8215 27ae 51       		.uleb128 0x51
 8216 27af EA0D0000 		.4byte	.LASF304
 8217 27b3 1A       		.byte	0x1a
 8218 27b4 3D01     		.2byte	0x13d
 8219 27b6 C40A0000 		.4byte	0xac4
 8220 27ba 54       		.uleb128 0x54
ARM GAS  C:\Users\jo\AppData\Local\Temp\ccDLAO0k.s 			page 148


 8221 27bb 22070000 		.4byte	.LASF305
 8222 27bf 01       		.byte	0x1
 8223 27c0 67       		.byte	0x67
 8224 27c1 CB270000 		.4byte	0x27cb
 8225 27c5 05       		.uleb128 0x5
 8226 27c6 03       		.byte	0x3
 8227 27c7 00000000 		.4byte	pbuf_free_ooseq_pending
 8228 27cb 05       		.uleb128 0x5
 8229 27cc BA080000 		.4byte	0x8ba
 8230 27d0 55       		.uleb128 0x55
 8231 27d1 CA0D0000 		.4byte	.LASF307
 8232 27d5 1A       		.byte	0x1a
 8233 27d6 A301     		.2byte	0x1a3
 8234 27d8 E2270000 		.4byte	0x27e2
 8235 27dc 0D       		.uleb128 0xd
 8236 27dd CF0E0000 		.4byte	0xecf
 8237 27e1 00       		.byte	0
 8238 27e2 56       		.uleb128 0x56
 8239 27e3 2B050000 		.4byte	.LASF309
 8240 27e7 1B       		.byte	0x1b
 8241 27e8 65       		.byte	0x65
 8242 27e9 6B090000 		.4byte	0x96b
 8243 27ed 01280000 		.4byte	0x2801
 8244 27f1 0D       		.uleb128 0xd
 8245 27f2 480F0000 		.4byte	0xf48
 8246 27f6 0D       		.uleb128 0xd
 8247 27f7 64030000 		.4byte	0x364
 8248 27fb 0D       		.uleb128 0xd
 8249 27fc BA080000 		.4byte	0x8ba
 8250 2800 00       		.byte	0
 8251 2801 56       		.uleb128 0x56
 8252 2802 58000000 		.4byte	.LASF310
 8253 2806 02       		.byte	0x2
 8254 2807 28       		.byte	0x28
 8255 2808 25000000 		.4byte	0x25
 8256 280c 20280000 		.4byte	0x2820
 8257 2810 0D       		.uleb128 0xd
 8258 2811 18100000 		.4byte	0x1018
 8259 2815 0D       		.uleb128 0xd
 8260 2816 F4060000 		.4byte	0x6f4
 8261 281a 0D       		.uleb128 0xd
 8262 281b AF080000 		.4byte	0x8af
 8263 281f 00       		.byte	0
 8264 2820 55       		.uleb128 0x55
 8265 2821 C10C0000 		.4byte	.LASF311
 8266 2825 1D       		.byte	0x1d
 8267 2826 1601     		.2byte	0x116
 8268 2828 32280000 		.4byte	0x2832
 8269 282c 0D       		.uleb128 0xd
 8270 282d F4060000 		.4byte	0x6f4
 8271 2831 00       		.byte	0
 8272 2832 57       		.uleb128 0x57
 8273 2833 70050000 		.4byte	.LASF312
 8274 2837 1E       		.byte	0x1e
 8275 2838 55       		.byte	0x55
 8276 2839 43280000 		.4byte	0x2843
 8277 283d 0D       		.uleb128 0xd
ARM GAS  C:\Users\jo\AppData\Local\Temp\ccDLAO0k.s 			page 149


 8278 283e 64030000 		.4byte	0x364
 8279 2842 00       		.byte	0
 8280 2843 56       		.uleb128 0x56
 8281 2844 E4030000 		.4byte	.LASF313
 8282 2848 1E       		.byte	0x1e
 8283 2849 60       		.byte	0x60
 8284 284a 64030000 		.4byte	0x364
 8285 284e 58280000 		.4byte	0x2858
 8286 2852 0D       		.uleb128 0xd
 8287 2853 2C000000 		.4byte	0x2c
 8288 2857 00       		.byte	0
 8289 2858 58       		.uleb128 0x58
 8290 2859 6F0D0000 		.4byte	.LASF314
 8291 285d 64030000 		.4byte	0x364
 8292 2861 75280000 		.4byte	0x2875
 8293 2865 0D       		.uleb128 0xd
 8294 2866 64030000 		.4byte	0x364
 8295 286a 0D       		.uleb128 0xd
 8296 286b 07090000 		.4byte	0x907
 8297 286f 0D       		.uleb128 0xd
 8298 2870 C5040000 		.4byte	0x4c5
 8299 2874 00       		.byte	0
 8300 2875 59       		.uleb128 0x59
 8301 2876 6B000000 		.4byte	.LASF315
 8302 287a 1F       		.byte	0x1f
 8303 287b 21       		.byte	0x21
 8304 287c 2C000000 		.4byte	0x2c
 8305 2880 0D       		.uleb128 0xd
 8306 2881 F4060000 		.4byte	0x6f4
 8307 2885 00       		.byte	0
 8308 2886 00       		.byte	0
 8309              		.section	.debug_abbrev,"",%progbits
 8310              	.Ldebug_abbrev0:
 8311 0000 01       		.uleb128 0x1
 8312 0001 11       		.uleb128 0x11
 8313 0002 01       		.byte	0x1
 8314 0003 25       		.uleb128 0x25
 8315 0004 0E       		.uleb128 0xe
 8316 0005 13       		.uleb128 0x13
 8317 0006 0B       		.uleb128 0xb
 8318 0007 03       		.uleb128 0x3
 8319 0008 0E       		.uleb128 0xe
 8320 0009 1B       		.uleb128 0x1b
 8321 000a 0E       		.uleb128 0xe
 8322 000b 55       		.uleb128 0x55
 8323 000c 17       		.uleb128 0x17
 8324 000d 11       		.uleb128 0x11
 8325 000e 01       		.uleb128 0x1
 8326 000f 10       		.uleb128 0x10
 8327 0010 17       		.uleb128 0x17
 8328 0011 00       		.byte	0
 8329 0012 00       		.byte	0
 8330 0013 02       		.uleb128 0x2
 8331 0014 24       		.uleb128 0x24
 8332 0015 00       		.byte	0
 8333 0016 0B       		.uleb128 0xb
 8334 0017 0B       		.uleb128 0xb
ARM GAS  C:\Users\jo\AppData\Local\Temp\ccDLAO0k.s 			page 150


 8335 0018 3E       		.uleb128 0x3e
 8336 0019 0B       		.uleb128 0xb
 8337 001a 03       		.uleb128 0x3
 8338 001b 08       		.uleb128 0x8
 8339 001c 00       		.byte	0
 8340 001d 00       		.byte	0
 8341 001e 03       		.uleb128 0x3
 8342 001f 16       		.uleb128 0x16
 8343 0020 00       		.byte	0
 8344 0021 03       		.uleb128 0x3
 8345 0022 0E       		.uleb128 0xe
 8346 0023 3A       		.uleb128 0x3a
 8347 0024 0B       		.uleb128 0xb
 8348 0025 3B       		.uleb128 0x3b
 8349 0026 0B       		.uleb128 0xb
 8350 0027 49       		.uleb128 0x49
 8351 0028 13       		.uleb128 0x13
 8352 0029 00       		.byte	0
 8353 002a 00       		.byte	0
 8354 002b 04       		.uleb128 0x4
 8355 002c 24       		.uleb128 0x24
 8356 002d 00       		.byte	0
 8357 002e 0B       		.uleb128 0xb
 8358 002f 0B       		.uleb128 0xb
 8359 0030 3E       		.uleb128 0x3e
 8360 0031 0B       		.uleb128 0xb
 8361 0032 03       		.uleb128 0x3
 8362 0033 0E       		.uleb128 0xe
 8363 0034 00       		.byte	0
 8364 0035 00       		.byte	0
 8365 0036 05       		.uleb128 0x5
 8366 0037 35       		.uleb128 0x35
 8367 0038 00       		.byte	0
 8368 0039 49       		.uleb128 0x49
 8369 003a 13       		.uleb128 0x13
 8370 003b 00       		.byte	0
 8371 003c 00       		.byte	0
 8372 003d 06       		.uleb128 0x6
 8373 003e 13       		.uleb128 0x13
 8374 003f 01       		.byte	0x1
 8375 0040 03       		.uleb128 0x3
 8376 0041 0E       		.uleb128 0xe
 8377 0042 0B       		.uleb128 0xb
 8378 0043 0B       		.uleb128 0xb
 8379 0044 3A       		.uleb128 0x3a
 8380 0045 0B       		.uleb128 0xb
 8381 0046 3B       		.uleb128 0x3b
 8382 0047 0B       		.uleb128 0xb
 8383 0048 01       		.uleb128 0x1
 8384 0049 13       		.uleb128 0x13
 8385 004a 00       		.byte	0
 8386 004b 00       		.byte	0
 8387 004c 07       		.uleb128 0x7
 8388 004d 0D       		.uleb128 0xd
 8389 004e 00       		.byte	0
 8390 004f 03       		.uleb128 0x3
 8391 0050 0E       		.uleb128 0xe
ARM GAS  C:\Users\jo\AppData\Local\Temp\ccDLAO0k.s 			page 151


 8392 0051 3A       		.uleb128 0x3a
 8393 0052 0B       		.uleb128 0xb
 8394 0053 3B       		.uleb128 0x3b
 8395 0054 0B       		.uleb128 0xb
 8396 0055 49       		.uleb128 0x49
 8397 0056 13       		.uleb128 0x13
 8398 0057 38       		.uleb128 0x38
 8399 0058 0B       		.uleb128 0xb
 8400 0059 00       		.byte	0
 8401 005a 00       		.byte	0
 8402 005b 08       		.uleb128 0x8
 8403 005c 0D       		.uleb128 0xd
 8404 005d 00       		.byte	0
 8405 005e 03       		.uleb128 0x3
 8406 005f 08       		.uleb128 0x8
 8407 0060 3A       		.uleb128 0x3a
 8408 0061 0B       		.uleb128 0xb
 8409 0062 3B       		.uleb128 0x3b
 8410 0063 05       		.uleb128 0x5
 8411 0064 49       		.uleb128 0x49
 8412 0065 13       		.uleb128 0x13
 8413 0066 38       		.uleb128 0x38
 8414 0067 0B       		.uleb128 0xb
 8415 0068 00       		.byte	0
 8416 0069 00       		.byte	0
 8417 006a 09       		.uleb128 0x9
 8418 006b 0D       		.uleb128 0xd
 8419 006c 00       		.byte	0
 8420 006d 03       		.uleb128 0x3
 8421 006e 0E       		.uleb128 0xe
 8422 006f 3A       		.uleb128 0x3a
 8423 0070 0B       		.uleb128 0xb
 8424 0071 3B       		.uleb128 0x3b
 8425 0072 05       		.uleb128 0x5
 8426 0073 49       		.uleb128 0x49
 8427 0074 13       		.uleb128 0x13
 8428 0075 38       		.uleb128 0x38
 8429 0076 0B       		.uleb128 0xb
 8430 0077 00       		.byte	0
 8431 0078 00       		.byte	0
 8432 0079 0A       		.uleb128 0xa
 8433 007a 0F       		.uleb128 0xf
 8434 007b 00       		.byte	0
 8435 007c 0B       		.uleb128 0xb
 8436 007d 0B       		.uleb128 0xb
 8437 007e 49       		.uleb128 0x49
 8438 007f 13       		.uleb128 0x13
 8439 0080 00       		.byte	0
 8440 0081 00       		.byte	0
 8441 0082 0B       		.uleb128 0xb
 8442 0083 13       		.uleb128 0x13
 8443 0084 01       		.byte	0x1
 8444 0085 03       		.uleb128 0x3
 8445 0086 0E       		.uleb128 0xe
 8446 0087 0B       		.uleb128 0xb
 8447 0088 0B       		.uleb128 0xb
 8448 0089 3A       		.uleb128 0x3a
ARM GAS  C:\Users\jo\AppData\Local\Temp\ccDLAO0k.s 			page 152


 8449 008a 0B       		.uleb128 0xb
 8450 008b 3B       		.uleb128 0x3b
 8451 008c 05       		.uleb128 0x5
 8452 008d 01       		.uleb128 0x1
 8453 008e 13       		.uleb128 0x13
 8454 008f 00       		.byte	0
 8455 0090 00       		.byte	0
 8456 0091 0C       		.uleb128 0xc
 8457 0092 15       		.uleb128 0x15
 8458 0093 01       		.byte	0x1
 8459 0094 27       		.uleb128 0x27
 8460 0095 19       		.uleb128 0x19
 8461 0096 01       		.uleb128 0x1
 8462 0097 13       		.uleb128 0x13
 8463 0098 00       		.byte	0
 8464 0099 00       		.byte	0
 8465 009a 0D       		.uleb128 0xd
 8466 009b 05       		.uleb128 0x5
 8467 009c 00       		.byte	0
 8468 009d 49       		.uleb128 0x49
 8469 009e 13       		.uleb128 0x13
 8470 009f 00       		.byte	0
 8471 00a0 00       		.byte	0
 8472 00a1 0E       		.uleb128 0xe
 8473 00a2 0F       		.uleb128 0xf
 8474 00a3 00       		.byte	0
 8475 00a4 0B       		.uleb128 0xb
 8476 00a5 0B       		.uleb128 0xb
 8477 00a6 00       		.byte	0
 8478 00a7 00       		.byte	0
 8479 00a8 0F       		.uleb128 0xf
 8480 00a9 13       		.uleb128 0x13
 8481 00aa 01       		.byte	0x1
 8482 00ab 03       		.uleb128 0x3
 8483 00ac 0E       		.uleb128 0xe
 8484 00ad 0B       		.uleb128 0xb
 8485 00ae 05       		.uleb128 0x5
 8486 00af 3A       		.uleb128 0x3a
 8487 00b0 0B       		.uleb128 0xb
 8488 00b1 3B       		.uleb128 0x3b
 8489 00b2 05       		.uleb128 0x5
 8490 00b3 01       		.uleb128 0x1
 8491 00b4 13       		.uleb128 0x13
 8492 00b5 00       		.byte	0
 8493 00b6 00       		.byte	0
 8494 00b7 10       		.uleb128 0x10
 8495 00b8 0D       		.uleb128 0xd
 8496 00b9 00       		.byte	0
 8497 00ba 03       		.uleb128 0x3
 8498 00bb 0E       		.uleb128 0xe
 8499 00bc 3A       		.uleb128 0x3a
 8500 00bd 0B       		.uleb128 0xb
 8501 00be 3B       		.uleb128 0x3b
 8502 00bf 05       		.uleb128 0x5
 8503 00c0 49       		.uleb128 0x49
 8504 00c1 13       		.uleb128 0x13
 8505 00c2 38       		.uleb128 0x38
ARM GAS  C:\Users\jo\AppData\Local\Temp\ccDLAO0k.s 			page 153


 8506 00c3 05       		.uleb128 0x5
 8507 00c4 00       		.byte	0
 8508 00c5 00       		.byte	0
 8509 00c6 11       		.uleb128 0x11
 8510 00c7 0D       		.uleb128 0xd
 8511 00c8 00       		.byte	0
 8512 00c9 03       		.uleb128 0x3
 8513 00ca 08       		.uleb128 0x8
 8514 00cb 3A       		.uleb128 0x3a
 8515 00cc 0B       		.uleb128 0xb
 8516 00cd 3B       		.uleb128 0x3b
 8517 00ce 05       		.uleb128 0x5
 8518 00cf 49       		.uleb128 0x49
 8519 00d0 13       		.uleb128 0x13
 8520 00d1 38       		.uleb128 0x38
 8521 00d2 05       		.uleb128 0x5
 8522 00d3 00       		.byte	0
 8523 00d4 00       		.byte	0
 8524 00d5 12       		.uleb128 0x12
 8525 00d6 0D       		.uleb128 0xd
 8526 00d7 00       		.byte	0
 8527 00d8 03       		.uleb128 0x3
 8528 00d9 08       		.uleb128 0x8
 8529 00da 3A       		.uleb128 0x3a
 8530 00db 0B       		.uleb128 0xb
 8531 00dc 3B       		.uleb128 0x3b
 8532 00dd 0B       		.uleb128 0xb
 8533 00de 49       		.uleb128 0x49
 8534 00df 13       		.uleb128 0x13
 8535 00e0 38       		.uleb128 0x38
 8536 00e1 0B       		.uleb128 0xb
 8537 00e2 00       		.byte	0
 8538 00e3 00       		.byte	0
 8539 00e4 13       		.uleb128 0x13
 8540 00e5 13       		.uleb128 0x13
 8541 00e6 01       		.byte	0x1
 8542 00e7 0B       		.uleb128 0xb
 8543 00e8 0B       		.uleb128 0xb
 8544 00e9 3A       		.uleb128 0x3a
 8545 00ea 0B       		.uleb128 0xb
 8546 00eb 3B       		.uleb128 0x3b
 8547 00ec 0B       		.uleb128 0xb
 8548 00ed 01       		.uleb128 0x1
 8549 00ee 13       		.uleb128 0x13
 8550 00ef 00       		.byte	0
 8551 00f0 00       		.byte	0
 8552 00f1 14       		.uleb128 0x14
 8553 00f2 13       		.uleb128 0x13
 8554 00f3 01       		.byte	0x1
 8555 00f4 0B       		.uleb128 0xb
 8556 00f5 05       		.uleb128 0x5
 8557 00f6 3A       		.uleb128 0x3a
 8558 00f7 0B       		.uleb128 0xb
 8559 00f8 3B       		.uleb128 0x3b
 8560 00f9 0B       		.uleb128 0xb
 8561 00fa 01       		.uleb128 0x1
 8562 00fb 13       		.uleb128 0x13
ARM GAS  C:\Users\jo\AppData\Local\Temp\ccDLAO0k.s 			page 154


 8563 00fc 00       		.byte	0
 8564 00fd 00       		.byte	0
 8565 00fe 15       		.uleb128 0x15
 8566 00ff 01       		.uleb128 0x1
 8567 0100 01       		.byte	0x1
 8568 0101 49       		.uleb128 0x49
 8569 0102 13       		.uleb128 0x13
 8570 0103 01       		.uleb128 0x1
 8571 0104 13       		.uleb128 0x13
 8572 0105 00       		.byte	0
 8573 0106 00       		.byte	0
 8574 0107 16       		.uleb128 0x16
 8575 0108 21       		.uleb128 0x21
 8576 0109 00       		.byte	0
 8577 010a 49       		.uleb128 0x49
 8578 010b 13       		.uleb128 0x13
 8579 010c 2F       		.uleb128 0x2f
 8580 010d 0B       		.uleb128 0xb
 8581 010e 00       		.byte	0
 8582 010f 00       		.byte	0
 8583 0110 17       		.uleb128 0x17
 8584 0111 17       		.uleb128 0x17
 8585 0112 01       		.byte	0x1
 8586 0113 0B       		.uleb128 0xb
 8587 0114 0B       		.uleb128 0xb
 8588 0115 3A       		.uleb128 0x3a
 8589 0116 0B       		.uleb128 0xb
 8590 0117 3B       		.uleb128 0x3b
 8591 0118 0B       		.uleb128 0xb
 8592 0119 01       		.uleb128 0x1
 8593 011a 13       		.uleb128 0x13
 8594 011b 00       		.byte	0
 8595 011c 00       		.byte	0
 8596 011d 18       		.uleb128 0x18
 8597 011e 0D       		.uleb128 0xd
 8598 011f 00       		.byte	0
 8599 0120 03       		.uleb128 0x3
 8600 0121 0E       		.uleb128 0xe
 8601 0122 3A       		.uleb128 0x3a
 8602 0123 0B       		.uleb128 0xb
 8603 0124 3B       		.uleb128 0x3b
 8604 0125 05       		.uleb128 0x5
 8605 0126 49       		.uleb128 0x49
 8606 0127 13       		.uleb128 0x13
 8607 0128 00       		.byte	0
 8608 0129 00       		.byte	0
 8609 012a 19       		.uleb128 0x19
 8610 012b 26       		.uleb128 0x26
 8611 012c 00       		.byte	0
 8612 012d 49       		.uleb128 0x49
 8613 012e 13       		.uleb128 0x13
 8614 012f 00       		.byte	0
 8615 0130 00       		.byte	0
 8616 0131 1A       		.uleb128 0x1a
 8617 0132 15       		.uleb128 0x15
 8618 0133 01       		.byte	0x1
 8619 0134 27       		.uleb128 0x27
ARM GAS  C:\Users\jo\AppData\Local\Temp\ccDLAO0k.s 			page 155


 8620 0135 19       		.uleb128 0x19
 8621 0136 49       		.uleb128 0x49
 8622 0137 13       		.uleb128 0x13
 8623 0138 01       		.uleb128 0x1
 8624 0139 13       		.uleb128 0x13
 8625 013a 00       		.byte	0
 8626 013b 00       		.byte	0
 8627 013c 1B       		.uleb128 0x1b
 8628 013d 0D       		.uleb128 0xd
 8629 013e 00       		.byte	0
 8630 013f 03       		.uleb128 0x3
 8631 0140 0E       		.uleb128 0xe
 8632 0141 49       		.uleb128 0x49
 8633 0142 13       		.uleb128 0x13
 8634 0143 38       		.uleb128 0x38
 8635 0144 0B       		.uleb128 0xb
 8636 0145 34       		.uleb128 0x34
 8637 0146 19       		.uleb128 0x19
 8638 0147 00       		.byte	0
 8639 0148 00       		.byte	0
 8640 0149 1C       		.uleb128 0x1c
 8641 014a 26       		.uleb128 0x26
 8642 014b 00       		.byte	0
 8643 014c 00       		.byte	0
 8644 014d 00       		.byte	0
 8645 014e 1D       		.uleb128 0x1d
 8646 014f 04       		.uleb128 0x4
 8647 0150 01       		.byte	0x1
 8648 0151 0B       		.uleb128 0xb
 8649 0152 0B       		.uleb128 0xb
 8650 0153 3A       		.uleb128 0x3a
 8651 0154 0B       		.uleb128 0xb
 8652 0155 3B       		.uleb128 0x3b
 8653 0156 0B       		.uleb128 0xb
 8654 0157 01       		.uleb128 0x1
 8655 0158 13       		.uleb128 0x13
 8656 0159 00       		.byte	0
 8657 015a 00       		.byte	0
 8658 015b 1E       		.uleb128 0x1e
 8659 015c 28       		.uleb128 0x28
 8660 015d 00       		.byte	0
 8661 015e 03       		.uleb128 0x3
 8662 015f 0E       		.uleb128 0xe
 8663 0160 1C       		.uleb128 0x1c
 8664 0161 0D       		.uleb128 0xd
 8665 0162 00       		.byte	0
 8666 0163 00       		.byte	0
 8667 0164 1F       		.uleb128 0x1f
 8668 0165 04       		.uleb128 0x4
 8669 0166 01       		.byte	0x1
 8670 0167 03       		.uleb128 0x3
 8671 0168 0E       		.uleb128 0xe
 8672 0169 0B       		.uleb128 0xb
 8673 016a 0B       		.uleb128 0xb
 8674 016b 3A       		.uleb128 0x3a
 8675 016c 0B       		.uleb128 0xb
 8676 016d 3B       		.uleb128 0x3b
ARM GAS  C:\Users\jo\AppData\Local\Temp\ccDLAO0k.s 			page 156


 8677 016e 0B       		.uleb128 0xb
 8678 016f 01       		.uleb128 0x1
 8679 0170 13       		.uleb128 0x13
 8680 0171 00       		.byte	0
 8681 0172 00       		.byte	0
 8682 0173 20       		.uleb128 0x20
 8683 0174 2E       		.uleb128 0x2e
 8684 0175 01       		.byte	0x1
 8685 0176 03       		.uleb128 0x3
 8686 0177 0E       		.uleb128 0xe
 8687 0178 3A       		.uleb128 0x3a
 8688 0179 0B       		.uleb128 0xb
 8689 017a 3B       		.uleb128 0x3b
 8690 017b 0B       		.uleb128 0xb
 8691 017c 27       		.uleb128 0x27
 8692 017d 19       		.uleb128 0x19
 8693 017e 20       		.uleb128 0x20
 8694 017f 0B       		.uleb128 0xb
 8695 0180 01       		.uleb128 0x1
 8696 0181 13       		.uleb128 0x13
 8697 0182 00       		.byte	0
 8698 0183 00       		.byte	0
 8699 0184 21       		.uleb128 0x21
 8700 0185 34       		.uleb128 0x34
 8701 0186 00       		.byte	0
 8702 0187 03       		.uleb128 0x3
 8703 0188 0E       		.uleb128 0xe
 8704 0189 3A       		.uleb128 0x3a
 8705 018a 0B       		.uleb128 0xb
 8706 018b 3B       		.uleb128 0x3b
 8707 018c 0B       		.uleb128 0xb
 8708 018d 49       		.uleb128 0x49
 8709 018e 13       		.uleb128 0x13
 8710 018f 00       		.byte	0
 8711 0190 00       		.byte	0
 8712 0191 22       		.uleb128 0x22
 8713 0192 2E       		.uleb128 0x2e
 8714 0193 01       		.byte	0x1
 8715 0194 03       		.uleb128 0x3
 8716 0195 0E       		.uleb128 0xe
 8717 0196 3A       		.uleb128 0x3a
 8718 0197 0B       		.uleb128 0xb
 8719 0198 3B       		.uleb128 0x3b
 8720 0199 05       		.uleb128 0x5
 8721 019a 27       		.uleb128 0x27
 8722 019b 19       		.uleb128 0x19
 8723 019c 20       		.uleb128 0x20
 8724 019d 0B       		.uleb128 0xb
 8725 019e 01       		.uleb128 0x1
 8726 019f 13       		.uleb128 0x13
 8727 01a0 00       		.byte	0
 8728 01a1 00       		.byte	0
 8729 01a2 23       		.uleb128 0x23
 8730 01a3 05       		.uleb128 0x5
 8731 01a4 00       		.byte	0
 8732 01a5 03       		.uleb128 0x3
 8733 01a6 0E       		.uleb128 0xe
ARM GAS  C:\Users\jo\AppData\Local\Temp\ccDLAO0k.s 			page 157


 8734 01a7 3A       		.uleb128 0x3a
 8735 01a8 0B       		.uleb128 0xb
 8736 01a9 3B       		.uleb128 0x3b
 8737 01aa 05       		.uleb128 0x5
 8738 01ab 49       		.uleb128 0x49
 8739 01ac 13       		.uleb128 0x13
 8740 01ad 00       		.byte	0
 8741 01ae 00       		.byte	0
 8742 01af 24       		.uleb128 0x24
 8743 01b0 2E       		.uleb128 0x2e
 8744 01b1 01       		.byte	0x1
 8745 01b2 3F       		.uleb128 0x3f
 8746 01b3 19       		.uleb128 0x19
 8747 01b4 03       		.uleb128 0x3
 8748 01b5 0E       		.uleb128 0xe
 8749 01b6 3A       		.uleb128 0x3a
 8750 01b7 0B       		.uleb128 0xb
 8751 01b8 3B       		.uleb128 0x3b
 8752 01b9 05       		.uleb128 0x5
 8753 01ba 27       		.uleb128 0x27
 8754 01bb 19       		.uleb128 0x19
 8755 01bc 20       		.uleb128 0x20
 8756 01bd 0B       		.uleb128 0xb
 8757 01be 01       		.uleb128 0x1
 8758 01bf 13       		.uleb128 0x13
 8759 01c0 00       		.byte	0
 8760 01c1 00       		.byte	0
 8761 01c2 25       		.uleb128 0x25
 8762 01c3 05       		.uleb128 0x5
 8763 01c4 00       		.byte	0
 8764 01c5 03       		.uleb128 0x3
 8765 01c6 08       		.uleb128 0x8
 8766 01c7 3A       		.uleb128 0x3a
 8767 01c8 0B       		.uleb128 0xb
 8768 01c9 3B       		.uleb128 0x3b
 8769 01ca 05       		.uleb128 0x5
 8770 01cb 49       		.uleb128 0x49
 8771 01cc 13       		.uleb128 0x13
 8772 01cd 00       		.byte	0
 8773 01ce 00       		.byte	0
 8774 01cf 26       		.uleb128 0x26
 8775 01d0 2E       		.uleb128 0x2e
 8776 01d1 01       		.byte	0x1
 8777 01d2 3F       		.uleb128 0x3f
 8778 01d3 19       		.uleb128 0x19
 8779 01d4 03       		.uleb128 0x3
 8780 01d5 0E       		.uleb128 0xe
 8781 01d6 3A       		.uleb128 0x3a
 8782 01d7 0B       		.uleb128 0xb
 8783 01d8 3B       		.uleb128 0x3b
 8784 01d9 05       		.uleb128 0x5
 8785 01da 27       		.uleb128 0x27
 8786 01db 19       		.uleb128 0x19
 8787 01dc 49       		.uleb128 0x49
 8788 01dd 13       		.uleb128 0x13
 8789 01de 20       		.uleb128 0x20
 8790 01df 0B       		.uleb128 0xb
ARM GAS  C:\Users\jo\AppData\Local\Temp\ccDLAO0k.s 			page 158


 8791 01e0 01       		.uleb128 0x1
 8792 01e1 13       		.uleb128 0x13
 8793 01e2 00       		.byte	0
 8794 01e3 00       		.byte	0
 8795 01e4 27       		.uleb128 0x27
 8796 01e5 34       		.uleb128 0x34
 8797 01e6 00       		.byte	0
 8798 01e7 03       		.uleb128 0x3
 8799 01e8 0E       		.uleb128 0xe
 8800 01e9 3A       		.uleb128 0x3a
 8801 01ea 0B       		.uleb128 0xb
 8802 01eb 3B       		.uleb128 0x3b
 8803 01ec 05       		.uleb128 0x5
 8804 01ed 49       		.uleb128 0x49
 8805 01ee 13       		.uleb128 0x13
 8806 01ef 00       		.byte	0
 8807 01f0 00       		.byte	0
 8808 01f1 28       		.uleb128 0x28
 8809 01f2 34       		.uleb128 0x34
 8810 01f3 00       		.byte	0
 8811 01f4 03       		.uleb128 0x3
 8812 01f5 08       		.uleb128 0x8
 8813 01f6 3A       		.uleb128 0x3a
 8814 01f7 0B       		.uleb128 0xb
 8815 01f8 3B       		.uleb128 0x3b
 8816 01f9 05       		.uleb128 0x5
 8817 01fa 49       		.uleb128 0x49
 8818 01fb 13       		.uleb128 0x13
 8819 01fc 00       		.byte	0
 8820 01fd 00       		.byte	0
 8821 01fe 29       		.uleb128 0x29
 8822 01ff 2E       		.uleb128 0x2e
 8823 0200 01       		.byte	0x1
 8824 0201 03       		.uleb128 0x3
 8825 0202 0E       		.uleb128 0xe
 8826 0203 3A       		.uleb128 0x3a
 8827 0204 0B       		.uleb128 0xb
 8828 0205 3B       		.uleb128 0x3b
 8829 0206 0B       		.uleb128 0xb
 8830 0207 27       		.uleb128 0x27
 8831 0208 19       		.uleb128 0x19
 8832 0209 49       		.uleb128 0x49
 8833 020a 13       		.uleb128 0x13
 8834 020b 20       		.uleb128 0x20
 8835 020c 0B       		.uleb128 0xb
 8836 020d 01       		.uleb128 0x1
 8837 020e 13       		.uleb128 0x13
 8838 020f 00       		.byte	0
 8839 0210 00       		.byte	0
 8840 0211 2A       		.uleb128 0x2a
 8841 0212 05       		.uleb128 0x5
 8842 0213 00       		.byte	0
 8843 0214 03       		.uleb128 0x3
 8844 0215 08       		.uleb128 0x8
 8845 0216 3A       		.uleb128 0x3a
 8846 0217 0B       		.uleb128 0xb
 8847 0218 3B       		.uleb128 0x3b
ARM GAS  C:\Users\jo\AppData\Local\Temp\ccDLAO0k.s 			page 159


 8848 0219 0B       		.uleb128 0xb
 8849 021a 49       		.uleb128 0x49
 8850 021b 13       		.uleb128 0x13
 8851 021c 00       		.byte	0
 8852 021d 00       		.byte	0
 8853 021e 2B       		.uleb128 0x2b
 8854 021f 18       		.uleb128 0x18
 8855 0220 00       		.byte	0
 8856 0221 00       		.byte	0
 8857 0222 00       		.byte	0
 8858 0223 2C       		.uleb128 0x2c
 8859 0224 34       		.uleb128 0x34
 8860 0225 00       		.byte	0
 8861 0226 03       		.uleb128 0x3
 8862 0227 08       		.uleb128 0x8
 8863 0228 3A       		.uleb128 0x3a
 8864 0229 0B       		.uleb128 0xb
 8865 022a 3B       		.uleb128 0x3b
 8866 022b 0B       		.uleb128 0xb
 8867 022c 49       		.uleb128 0x49
 8868 022d 13       		.uleb128 0x13
 8869 022e 00       		.byte	0
 8870 022f 00       		.byte	0
 8871 0230 2D       		.uleb128 0x2d
 8872 0231 2E       		.uleb128 0x2e
 8873 0232 01       		.byte	0x1
 8874 0233 03       		.uleb128 0x3
 8875 0234 0E       		.uleb128 0xe
 8876 0235 3A       		.uleb128 0x3a
 8877 0236 0B       		.uleb128 0xb
 8878 0237 3B       		.uleb128 0x3b
 8879 0238 0B       		.uleb128 0xb
 8880 0239 27       		.uleb128 0x27
 8881 023a 19       		.uleb128 0x19
 8882 023b 11       		.uleb128 0x11
 8883 023c 01       		.uleb128 0x1
 8884 023d 12       		.uleb128 0x12
 8885 023e 06       		.uleb128 0x6
 8886 023f 40       		.uleb128 0x40
 8887 0240 18       		.uleb128 0x18
 8888 0241 9742     		.uleb128 0x2117
 8889 0243 19       		.uleb128 0x19
 8890 0244 01       		.uleb128 0x1
 8891 0245 13       		.uleb128 0x13
 8892 0246 00       		.byte	0
 8893 0247 00       		.byte	0
 8894 0248 2E       		.uleb128 0x2e
 8895 0249 05       		.uleb128 0x5
 8896 024a 00       		.byte	0
 8897 024b 03       		.uleb128 0x3
 8898 024c 08       		.uleb128 0x8
 8899 024d 3A       		.uleb128 0x3a
 8900 024e 0B       		.uleb128 0xb
 8901 024f 3B       		.uleb128 0x3b
 8902 0250 0B       		.uleb128 0xb
 8903 0251 49       		.uleb128 0x49
 8904 0252 13       		.uleb128 0x13
ARM GAS  C:\Users\jo\AppData\Local\Temp\ccDLAO0k.s 			page 160


 8905 0253 02       		.uleb128 0x2
 8906 0254 17       		.uleb128 0x17
 8907 0255 00       		.byte	0
 8908 0256 00       		.byte	0
 8909 0257 2F       		.uleb128 0x2f
 8910 0258 1D       		.uleb128 0x1d
 8911 0259 01       		.byte	0x1
 8912 025a 31       		.uleb128 0x31
 8913 025b 13       		.uleb128 0x13
 8914 025c 52       		.uleb128 0x52
 8915 025d 01       		.uleb128 0x1
 8916 025e 55       		.uleb128 0x55
 8917 025f 17       		.uleb128 0x17
 8918 0260 58       		.uleb128 0x58
 8919 0261 0B       		.uleb128 0xb
 8920 0262 59       		.uleb128 0x59
 8921 0263 0B       		.uleb128 0xb
 8922 0264 00       		.byte	0
 8923 0265 00       		.byte	0
 8924 0266 30       		.uleb128 0x30
 8925 0267 0B       		.uleb128 0xb
 8926 0268 01       		.byte	0x1
 8927 0269 55       		.uleb128 0x55
 8928 026a 17       		.uleb128 0x17
 8929 026b 00       		.byte	0
 8930 026c 00       		.byte	0
 8931 026d 31       		.uleb128 0x31
 8932 026e 34       		.uleb128 0x34
 8933 026f 00       		.byte	0
 8934 0270 31       		.uleb128 0x31
 8935 0271 13       		.uleb128 0x13
 8936 0272 02       		.uleb128 0x2
 8937 0273 17       		.uleb128 0x17
 8938 0274 00       		.byte	0
 8939 0275 00       		.byte	0
 8940 0276 32       		.uleb128 0x32
 8941 0277 898201   		.uleb128 0x4109
 8942 027a 00       		.byte	0
 8943 027b 11       		.uleb128 0x11
 8944 027c 01       		.uleb128 0x1
 8945 027d 31       		.uleb128 0x31
 8946 027e 13       		.uleb128 0x13
 8947 027f 00       		.byte	0
 8948 0280 00       		.byte	0
 8949 0281 33       		.uleb128 0x33
 8950 0282 2E       		.uleb128 0x2e
 8951 0283 01       		.byte	0x1
 8952 0284 31       		.uleb128 0x31
 8953 0285 13       		.uleb128 0x13
 8954 0286 11       		.uleb128 0x11
 8955 0287 01       		.uleb128 0x1
 8956 0288 12       		.uleb128 0x12
 8957 0289 06       		.uleb128 0x6
 8958 028a 40       		.uleb128 0x40
 8959 028b 18       		.uleb128 0x18
 8960 028c 9742     		.uleb128 0x2117
 8961 028e 19       		.uleb128 0x19
ARM GAS  C:\Users\jo\AppData\Local\Temp\ccDLAO0k.s 			page 161


 8962 028f 01       		.uleb128 0x1
 8963 0290 13       		.uleb128 0x13
 8964 0291 00       		.byte	0
 8965 0292 00       		.byte	0
 8966 0293 34       		.uleb128 0x34
 8967 0294 34       		.uleb128 0x34
 8968 0295 00       		.byte	0
 8969 0296 31       		.uleb128 0x31
 8970 0297 13       		.uleb128 0x13
 8971 0298 00       		.byte	0
 8972 0299 00       		.byte	0
 8973 029a 35       		.uleb128 0x35
 8974 029b 898201   		.uleb128 0x4109
 8975 029e 01       		.byte	0x1
 8976 029f 11       		.uleb128 0x11
 8977 02a0 01       		.uleb128 0x1
 8978 02a1 31       		.uleb128 0x31
 8979 02a2 13       		.uleb128 0x13
 8980 02a3 00       		.byte	0
 8981 02a4 00       		.byte	0
 8982 02a5 36       		.uleb128 0x36
 8983 02a6 8A8201   		.uleb128 0x410a
 8984 02a9 00       		.byte	0
 8985 02aa 02       		.uleb128 0x2
 8986 02ab 18       		.uleb128 0x18
 8987 02ac 9142     		.uleb128 0x2111
 8988 02ae 18       		.uleb128 0x18
 8989 02af 00       		.byte	0
 8990 02b0 00       		.byte	0
 8991 02b1 37       		.uleb128 0x37
 8992 02b2 05       		.uleb128 0x5
 8993 02b3 00       		.byte	0
 8994 02b4 31       		.uleb128 0x31
 8995 02b5 13       		.uleb128 0x13
 8996 02b6 02       		.uleb128 0x2
 8997 02b7 17       		.uleb128 0x17
 8998 02b8 00       		.byte	0
 8999 02b9 00       		.byte	0
 9000 02ba 38       		.uleb128 0x38
 9001 02bb 05       		.uleb128 0x5
 9002 02bc 00       		.byte	0
 9003 02bd 31       		.uleb128 0x31
 9004 02be 13       		.uleb128 0x13
 9005 02bf 02       		.uleb128 0x2
 9006 02c0 18       		.uleb128 0x18
 9007 02c1 00       		.byte	0
 9008 02c2 00       		.byte	0
 9009 02c3 39       		.uleb128 0x39
 9010 02c4 34       		.uleb128 0x34
 9011 02c5 00       		.byte	0
 9012 02c6 31       		.uleb128 0x31
 9013 02c7 13       		.uleb128 0x13
 9014 02c8 02       		.uleb128 0x2
 9015 02c9 18       		.uleb128 0x18
 9016 02ca 00       		.byte	0
 9017 02cb 00       		.byte	0
 9018 02cc 3A       		.uleb128 0x3a
ARM GAS  C:\Users\jo\AppData\Local\Temp\ccDLAO0k.s 			page 162


 9019 02cd 05       		.uleb128 0x5
 9020 02ce 00       		.byte	0
 9021 02cf 31       		.uleb128 0x31
 9022 02d0 13       		.uleb128 0x13
 9023 02d1 00       		.byte	0
 9024 02d2 00       		.byte	0
 9025 02d3 3B       		.uleb128 0x3b
 9026 02d4 2E       		.uleb128 0x2e
 9027 02d5 01       		.byte	0x1
 9028 02d6 3F       		.uleb128 0x3f
 9029 02d7 19       		.uleb128 0x19
 9030 02d8 03       		.uleb128 0x3
 9031 02d9 0E       		.uleb128 0xe
 9032 02da 3A       		.uleb128 0x3a
 9033 02db 0B       		.uleb128 0xb
 9034 02dc 3B       		.uleb128 0x3b
 9035 02dd 05       		.uleb128 0x5
 9036 02de 27       		.uleb128 0x27
 9037 02df 19       		.uleb128 0x19
 9038 02e0 49       		.uleb128 0x49
 9039 02e1 13       		.uleb128 0x13
 9040 02e2 11       		.uleb128 0x11
 9041 02e3 01       		.uleb128 0x1
 9042 02e4 12       		.uleb128 0x12
 9043 02e5 06       		.uleb128 0x6
 9044 02e6 40       		.uleb128 0x40
 9045 02e7 18       		.uleb128 0x18
 9046 02e8 9742     		.uleb128 0x2117
 9047 02ea 19       		.uleb128 0x19
 9048 02eb 01       		.uleb128 0x1
 9049 02ec 13       		.uleb128 0x13
 9050 02ed 00       		.byte	0
 9051 02ee 00       		.byte	0
 9052 02ef 3C       		.uleb128 0x3c
 9053 02f0 05       		.uleb128 0x5
 9054 02f1 00       		.byte	0
 9055 02f2 03       		.uleb128 0x3
 9056 02f3 08       		.uleb128 0x8
 9057 02f4 3A       		.uleb128 0x3a
 9058 02f5 0B       		.uleb128 0xb
 9059 02f6 3B       		.uleb128 0x3b
 9060 02f7 05       		.uleb128 0x5
 9061 02f8 49       		.uleb128 0x49
 9062 02f9 13       		.uleb128 0x13
 9063 02fa 02       		.uleb128 0x2
 9064 02fb 17       		.uleb128 0x17
 9065 02fc 00       		.byte	0
 9066 02fd 00       		.byte	0
 9067 02fe 3D       		.uleb128 0x3d
 9068 02ff 05       		.uleb128 0x5
 9069 0300 00       		.byte	0
 9070 0301 03       		.uleb128 0x3
 9071 0302 0E       		.uleb128 0xe
 9072 0303 3A       		.uleb128 0x3a
 9073 0304 0B       		.uleb128 0xb
 9074 0305 3B       		.uleb128 0x3b
 9075 0306 05       		.uleb128 0x5
ARM GAS  C:\Users\jo\AppData\Local\Temp\ccDLAO0k.s 			page 163


 9076 0307 49       		.uleb128 0x49
 9077 0308 13       		.uleb128 0x13
 9078 0309 02       		.uleb128 0x2
 9079 030a 17       		.uleb128 0x17
 9080 030b 00       		.byte	0
 9081 030c 00       		.byte	0
 9082 030d 3E       		.uleb128 0x3e
 9083 030e 34       		.uleb128 0x34
 9084 030f 00       		.byte	0
 9085 0310 03       		.uleb128 0x3
 9086 0311 0E       		.uleb128 0xe
 9087 0312 3A       		.uleb128 0x3a
 9088 0313 0B       		.uleb128 0xb
 9089 0314 3B       		.uleb128 0x3b
 9090 0315 05       		.uleb128 0x5
 9091 0316 49       		.uleb128 0x49
 9092 0317 13       		.uleb128 0x13
 9093 0318 02       		.uleb128 0x2
 9094 0319 17       		.uleb128 0x17
 9095 031a 00       		.byte	0
 9096 031b 00       		.byte	0
 9097 031c 3F       		.uleb128 0x3f
 9098 031d 1D       		.uleb128 0x1d
 9099 031e 01       		.byte	0x1
 9100 031f 31       		.uleb128 0x31
 9101 0320 13       		.uleb128 0x13
 9102 0321 11       		.uleb128 0x11
 9103 0322 01       		.uleb128 0x1
 9104 0323 12       		.uleb128 0x12
 9105 0324 06       		.uleb128 0x6
 9106 0325 58       		.uleb128 0x58
 9107 0326 0B       		.uleb128 0xb
 9108 0327 59       		.uleb128 0x59
 9109 0328 05       		.uleb128 0x5
 9110 0329 01       		.uleb128 0x1
 9111 032a 13       		.uleb128 0x13
 9112 032b 00       		.byte	0
 9113 032c 00       		.byte	0
 9114 032d 40       		.uleb128 0x40
 9115 032e 898201   		.uleb128 0x4109
 9116 0331 01       		.byte	0x1
 9117 0332 11       		.uleb128 0x11
 9118 0333 01       		.uleb128 0x1
 9119 0334 31       		.uleb128 0x31
 9120 0335 13       		.uleb128 0x13
 9121 0336 01       		.uleb128 0x1
 9122 0337 13       		.uleb128 0x13
 9123 0338 00       		.byte	0
 9124 0339 00       		.byte	0
 9125 033a 41       		.uleb128 0x41
 9126 033b 34       		.uleb128 0x34
 9127 033c 00       		.byte	0
 9128 033d 03       		.uleb128 0x3
 9129 033e 08       		.uleb128 0x8
 9130 033f 3A       		.uleb128 0x3a
 9131 0340 0B       		.uleb128 0xb
 9132 0341 3B       		.uleb128 0x3b
ARM GAS  C:\Users\jo\AppData\Local\Temp\ccDLAO0k.s 			page 164


 9133 0342 05       		.uleb128 0x5
 9134 0343 49       		.uleb128 0x49
 9135 0344 13       		.uleb128 0x13
 9136 0345 02       		.uleb128 0x2
 9137 0346 17       		.uleb128 0x17
 9138 0347 00       		.byte	0
 9139 0348 00       		.byte	0
 9140 0349 42       		.uleb128 0x42
 9141 034a 0B       		.uleb128 0xb
 9142 034b 01       		.byte	0x1
 9143 034c 55       		.uleb128 0x55
 9144 034d 17       		.uleb128 0x17
 9145 034e 01       		.uleb128 0x1
 9146 034f 13       		.uleb128 0x13
 9147 0350 00       		.byte	0
 9148 0351 00       		.byte	0
 9149 0352 43       		.uleb128 0x43
 9150 0353 898201   		.uleb128 0x4109
 9151 0356 01       		.byte	0x1
 9152 0357 11       		.uleb128 0x11
 9153 0358 01       		.uleb128 0x1
 9154 0359 01       		.uleb128 0x1
 9155 035a 13       		.uleb128 0x13
 9156 035b 00       		.byte	0
 9157 035c 00       		.byte	0
 9158 035d 44       		.uleb128 0x44
 9159 035e 2E       		.uleb128 0x2e
 9160 035f 01       		.byte	0x1
 9161 0360 3F       		.uleb128 0x3f
 9162 0361 19       		.uleb128 0x19
 9163 0362 03       		.uleb128 0x3
 9164 0363 0E       		.uleb128 0xe
 9165 0364 3A       		.uleb128 0x3a
 9166 0365 0B       		.uleb128 0xb
 9167 0366 3B       		.uleb128 0x3b
 9168 0367 0B       		.uleb128 0xb
 9169 0368 27       		.uleb128 0x27
 9170 0369 19       		.uleb128 0x19
 9171 036a 49       		.uleb128 0x49
 9172 036b 13       		.uleb128 0x13
 9173 036c 11       		.uleb128 0x11
 9174 036d 01       		.uleb128 0x1
 9175 036e 12       		.uleb128 0x12
 9176 036f 06       		.uleb128 0x6
 9177 0370 40       		.uleb128 0x40
 9178 0371 18       		.uleb128 0x18
 9179 0372 9742     		.uleb128 0x2117
 9180 0374 19       		.uleb128 0x19
 9181 0375 01       		.uleb128 0x1
 9182 0376 13       		.uleb128 0x13
 9183 0377 00       		.byte	0
 9184 0378 00       		.byte	0
 9185 0379 45       		.uleb128 0x45
 9186 037a 05       		.uleb128 0x5
 9187 037b 00       		.byte	0
 9188 037c 03       		.uleb128 0x3
 9189 037d 0E       		.uleb128 0xe
ARM GAS  C:\Users\jo\AppData\Local\Temp\ccDLAO0k.s 			page 165


 9190 037e 3A       		.uleb128 0x3a
 9191 037f 0B       		.uleb128 0xb
 9192 0380 3B       		.uleb128 0x3b
 9193 0381 0B       		.uleb128 0xb
 9194 0382 49       		.uleb128 0x49
 9195 0383 13       		.uleb128 0x13
 9196 0384 02       		.uleb128 0x2
 9197 0385 17       		.uleb128 0x17
 9198 0386 00       		.byte	0
 9199 0387 00       		.byte	0
 9200 0388 46       		.uleb128 0x46
 9201 0389 34       		.uleb128 0x34
 9202 038a 00       		.byte	0
 9203 038b 03       		.uleb128 0x3
 9204 038c 08       		.uleb128 0x8
 9205 038d 3A       		.uleb128 0x3a
 9206 038e 0B       		.uleb128 0xb
 9207 038f 3B       		.uleb128 0x3b
 9208 0390 0B       		.uleb128 0xb
 9209 0391 49       		.uleb128 0x49
 9210 0392 13       		.uleb128 0x13
 9211 0393 02       		.uleb128 0x2
 9212 0394 17       		.uleb128 0x17
 9213 0395 00       		.byte	0
 9214 0396 00       		.byte	0
 9215 0397 47       		.uleb128 0x47
 9216 0398 34       		.uleb128 0x34
 9217 0399 00       		.byte	0
 9218 039a 03       		.uleb128 0x3
 9219 039b 0E       		.uleb128 0xe
 9220 039c 3A       		.uleb128 0x3a
 9221 039d 0B       		.uleb128 0xb
 9222 039e 3B       		.uleb128 0x3b
 9223 039f 0B       		.uleb128 0xb
 9224 03a0 49       		.uleb128 0x49
 9225 03a1 13       		.uleb128 0x13
 9226 03a2 02       		.uleb128 0x2
 9227 03a3 17       		.uleb128 0x17
 9228 03a4 00       		.byte	0
 9229 03a5 00       		.byte	0
 9230 03a6 48       		.uleb128 0x48
 9231 03a7 1D       		.uleb128 0x1d
 9232 03a8 01       		.byte	0x1
 9233 03a9 31       		.uleb128 0x31
 9234 03aa 13       		.uleb128 0x13
 9235 03ab 11       		.uleb128 0x11
 9236 03ac 01       		.uleb128 0x1
 9237 03ad 12       		.uleb128 0x12
 9238 03ae 06       		.uleb128 0x6
 9239 03af 58       		.uleb128 0x58
 9240 03b0 0B       		.uleb128 0xb
 9241 03b1 59       		.uleb128 0x59
 9242 03b2 0B       		.uleb128 0xb
 9243 03b3 01       		.uleb128 0x1
 9244 03b4 13       		.uleb128 0x13
 9245 03b5 00       		.byte	0
 9246 03b6 00       		.byte	0
ARM GAS  C:\Users\jo\AppData\Local\Temp\ccDLAO0k.s 			page 166


 9247 03b7 49       		.uleb128 0x49
 9248 03b8 0B       		.uleb128 0xb
 9249 03b9 01       		.byte	0x1
 9250 03ba 11       		.uleb128 0x11
 9251 03bb 01       		.uleb128 0x1
 9252 03bc 12       		.uleb128 0x12
 9253 03bd 06       		.uleb128 0x6
 9254 03be 00       		.byte	0
 9255 03bf 00       		.byte	0
 9256 03c0 4A       		.uleb128 0x4a
 9257 03c1 2E       		.uleb128 0x2e
 9258 03c2 01       		.byte	0x1
 9259 03c3 3F       		.uleb128 0x3f
 9260 03c4 19       		.uleb128 0x19
 9261 03c5 03       		.uleb128 0x3
 9262 03c6 0E       		.uleb128 0xe
 9263 03c7 3A       		.uleb128 0x3a
 9264 03c8 0B       		.uleb128 0xb
 9265 03c9 3B       		.uleb128 0x3b
 9266 03ca 05       		.uleb128 0x5
 9267 03cb 27       		.uleb128 0x27
 9268 03cc 19       		.uleb128 0x19
 9269 03cd 11       		.uleb128 0x11
 9270 03ce 01       		.uleb128 0x1
 9271 03cf 12       		.uleb128 0x12
 9272 03d0 06       		.uleb128 0x6
 9273 03d1 40       		.uleb128 0x40
 9274 03d2 18       		.uleb128 0x18
 9275 03d3 9742     		.uleb128 0x2117
 9276 03d5 19       		.uleb128 0x19
 9277 03d6 01       		.uleb128 0x1
 9278 03d7 13       		.uleb128 0x13
 9279 03d8 00       		.byte	0
 9280 03d9 00       		.byte	0
 9281 03da 4B       		.uleb128 0x4b
 9282 03db 1D       		.uleb128 0x1d
 9283 03dc 01       		.byte	0x1
 9284 03dd 31       		.uleb128 0x31
 9285 03de 13       		.uleb128 0x13
 9286 03df 52       		.uleb128 0x52
 9287 03e0 01       		.uleb128 0x1
 9288 03e1 55       		.uleb128 0x55
 9289 03e2 17       		.uleb128 0x17
 9290 03e3 58       		.uleb128 0x58
 9291 03e4 0B       		.uleb128 0xb
 9292 03e5 59       		.uleb128 0x59
 9293 03e6 05       		.uleb128 0x5
 9294 03e7 01       		.uleb128 0x1
 9295 03e8 13       		.uleb128 0x13
 9296 03e9 00       		.byte	0
 9297 03ea 00       		.byte	0
 9298 03eb 4C       		.uleb128 0x4c
 9299 03ec 898201   		.uleb128 0x4109
 9300 03ef 01       		.byte	0x1
 9301 03f0 11       		.uleb128 0x11
 9302 03f1 01       		.uleb128 0x1
 9303 03f2 9542     		.uleb128 0x2115
ARM GAS  C:\Users\jo\AppData\Local\Temp\ccDLAO0k.s 			page 167


 9304 03f4 19       		.uleb128 0x19
 9305 03f5 31       		.uleb128 0x31
 9306 03f6 13       		.uleb128 0x13
 9307 03f7 00       		.byte	0
 9308 03f8 00       		.byte	0
 9309 03f9 4D       		.uleb128 0x4d
 9310 03fa 05       		.uleb128 0x5
 9311 03fb 00       		.byte	0
 9312 03fc 03       		.uleb128 0x3
 9313 03fd 08       		.uleb128 0x8
 9314 03fe 3A       		.uleb128 0x3a
 9315 03ff 0B       		.uleb128 0xb
 9316 0400 3B       		.uleb128 0x3b
 9317 0401 05       		.uleb128 0x5
 9318 0402 49       		.uleb128 0x49
 9319 0403 13       		.uleb128 0x13
 9320 0404 02       		.uleb128 0x2
 9321 0405 18       		.uleb128 0x18
 9322 0406 00       		.byte	0
 9323 0407 00       		.byte	0
 9324 0408 4E       		.uleb128 0x4e
 9325 0409 34       		.uleb128 0x34
 9326 040a 00       		.byte	0
 9327 040b 03       		.uleb128 0x3
 9328 040c 0E       		.uleb128 0xe
 9329 040d 3A       		.uleb128 0x3a
 9330 040e 0B       		.uleb128 0xb
 9331 040f 3B       		.uleb128 0x3b
 9332 0410 05       		.uleb128 0x5
 9333 0411 49       		.uleb128 0x49
 9334 0412 13       		.uleb128 0x13
 9335 0413 02       		.uleb128 0x2
 9336 0414 18       		.uleb128 0x18
 9337 0415 00       		.byte	0
 9338 0416 00       		.byte	0
 9339 0417 4F       		.uleb128 0x4f
 9340 0418 1D       		.uleb128 0x1d
 9341 0419 01       		.byte	0x1
 9342 041a 31       		.uleb128 0x31
 9343 041b 13       		.uleb128 0x13
 9344 041c 52       		.uleb128 0x52
 9345 041d 01       		.uleb128 0x1
 9346 041e 55       		.uleb128 0x55
 9347 041f 17       		.uleb128 0x17
 9348 0420 58       		.uleb128 0x58
 9349 0421 0B       		.uleb128 0xb
 9350 0422 59       		.uleb128 0x59
 9351 0423 05       		.uleb128 0x5
 9352 0424 00       		.byte	0
 9353 0425 00       		.byte	0
 9354 0426 50       		.uleb128 0x50
 9355 0427 34       		.uleb128 0x34
 9356 0428 00       		.byte	0
 9357 0429 03       		.uleb128 0x3
 9358 042a 08       		.uleb128 0x8
 9359 042b 3A       		.uleb128 0x3a
 9360 042c 0B       		.uleb128 0xb
ARM GAS  C:\Users\jo\AppData\Local\Temp\ccDLAO0k.s 			page 168


 9361 042d 3B       		.uleb128 0x3b
 9362 042e 05       		.uleb128 0x5
 9363 042f 49       		.uleb128 0x49
 9364 0430 13       		.uleb128 0x13
 9365 0431 02       		.uleb128 0x2
 9366 0432 18       		.uleb128 0x18
 9367 0433 00       		.byte	0
 9368 0434 00       		.byte	0
 9369 0435 51       		.uleb128 0x51
 9370 0436 34       		.uleb128 0x34
 9371 0437 00       		.byte	0
 9372 0438 03       		.uleb128 0x3
 9373 0439 0E       		.uleb128 0xe
 9374 043a 3A       		.uleb128 0x3a
 9375 043b 0B       		.uleb128 0xb
 9376 043c 3B       		.uleb128 0x3b
 9377 043d 05       		.uleb128 0x5
 9378 043e 49       		.uleb128 0x49
 9379 043f 13       		.uleb128 0x13
 9380 0440 3F       		.uleb128 0x3f
 9381 0441 19       		.uleb128 0x19
 9382 0442 3C       		.uleb128 0x3c
 9383 0443 19       		.uleb128 0x19
 9384 0444 00       		.byte	0
 9385 0445 00       		.byte	0
 9386 0446 52       		.uleb128 0x52
 9387 0447 34       		.uleb128 0x34
 9388 0448 00       		.byte	0
 9389 0449 03       		.uleb128 0x3
 9390 044a 08       		.uleb128 0x8
 9391 044b 3A       		.uleb128 0x3a
 9392 044c 0B       		.uleb128 0xb
 9393 044d 3B       		.uleb128 0x3b
 9394 044e 05       		.uleb128 0x5
 9395 044f 49       		.uleb128 0x49
 9396 0450 13       		.uleb128 0x13
 9397 0451 3F       		.uleb128 0x3f
 9398 0452 19       		.uleb128 0x19
 9399 0453 3C       		.uleb128 0x3c
 9400 0454 19       		.uleb128 0x19
 9401 0455 00       		.byte	0
 9402 0456 00       		.byte	0
 9403 0457 53       		.uleb128 0x53
 9404 0458 34       		.uleb128 0x34
 9405 0459 00       		.byte	0
 9406 045a 03       		.uleb128 0x3
 9407 045b 0E       		.uleb128 0xe
 9408 045c 3A       		.uleb128 0x3a
 9409 045d 0B       		.uleb128 0xb
 9410 045e 3B       		.uleb128 0x3b
 9411 045f 0B       		.uleb128 0xb
 9412 0460 49       		.uleb128 0x49
 9413 0461 13       		.uleb128 0x13
 9414 0462 3F       		.uleb128 0x3f
 9415 0463 19       		.uleb128 0x19
 9416 0464 3C       		.uleb128 0x3c
 9417 0465 19       		.uleb128 0x19
ARM GAS  C:\Users\jo\AppData\Local\Temp\ccDLAO0k.s 			page 169


 9418 0466 00       		.byte	0
 9419 0467 00       		.byte	0
 9420 0468 54       		.uleb128 0x54
 9421 0469 34       		.uleb128 0x34
 9422 046a 00       		.byte	0
 9423 046b 03       		.uleb128 0x3
 9424 046c 0E       		.uleb128 0xe
 9425 046d 3A       		.uleb128 0x3a
 9426 046e 0B       		.uleb128 0xb
 9427 046f 3B       		.uleb128 0x3b
 9428 0470 0B       		.uleb128 0xb
 9429 0471 49       		.uleb128 0x49
 9430 0472 13       		.uleb128 0x13
 9431 0473 3F       		.uleb128 0x3f
 9432 0474 19       		.uleb128 0x19
 9433 0475 02       		.uleb128 0x2
 9434 0476 18       		.uleb128 0x18
 9435 0477 00       		.byte	0
 9436 0478 00       		.byte	0
 9437 0479 55       		.uleb128 0x55
 9438 047a 2E       		.uleb128 0x2e
 9439 047b 01       		.byte	0x1
 9440 047c 3F       		.uleb128 0x3f
 9441 047d 19       		.uleb128 0x19
 9442 047e 03       		.uleb128 0x3
 9443 047f 0E       		.uleb128 0xe
 9444 0480 3A       		.uleb128 0x3a
 9445 0481 0B       		.uleb128 0xb
 9446 0482 3B       		.uleb128 0x3b
 9447 0483 05       		.uleb128 0x5
 9448 0484 27       		.uleb128 0x27
 9449 0485 19       		.uleb128 0x19
 9450 0486 3C       		.uleb128 0x3c
 9451 0487 19       		.uleb128 0x19
 9452 0488 01       		.uleb128 0x1
 9453 0489 13       		.uleb128 0x13
 9454 048a 00       		.byte	0
 9455 048b 00       		.byte	0
 9456 048c 56       		.uleb128 0x56
 9457 048d 2E       		.uleb128 0x2e
 9458 048e 01       		.byte	0x1
 9459 048f 3F       		.uleb128 0x3f
 9460 0490 19       		.uleb128 0x19
 9461 0491 03       		.uleb128 0x3
 9462 0492 0E       		.uleb128 0xe
 9463 0493 3A       		.uleb128 0x3a
 9464 0494 0B       		.uleb128 0xb
 9465 0495 3B       		.uleb128 0x3b
 9466 0496 0B       		.uleb128 0xb
 9467 0497 27       		.uleb128 0x27
 9468 0498 19       		.uleb128 0x19
 9469 0499 49       		.uleb128 0x49
 9470 049a 13       		.uleb128 0x13
 9471 049b 3C       		.uleb128 0x3c
 9472 049c 19       		.uleb128 0x19
 9473 049d 01       		.uleb128 0x1
 9474 049e 13       		.uleb128 0x13
ARM GAS  C:\Users\jo\AppData\Local\Temp\ccDLAO0k.s 			page 170


 9475 049f 00       		.byte	0
 9476 04a0 00       		.byte	0
 9477 04a1 57       		.uleb128 0x57
 9478 04a2 2E       		.uleb128 0x2e
 9479 04a3 01       		.byte	0x1
 9480 04a4 3F       		.uleb128 0x3f
 9481 04a5 19       		.uleb128 0x19
 9482 04a6 03       		.uleb128 0x3
 9483 04a7 0E       		.uleb128 0xe
 9484 04a8 3A       		.uleb128 0x3a
 9485 04a9 0B       		.uleb128 0xb
 9486 04aa 3B       		.uleb128 0x3b
 9487 04ab 0B       		.uleb128 0xb
 9488 04ac 27       		.uleb128 0x27
 9489 04ad 19       		.uleb128 0x19
 9490 04ae 3C       		.uleb128 0x3c
 9491 04af 19       		.uleb128 0x19
 9492 04b0 01       		.uleb128 0x1
 9493 04b1 13       		.uleb128 0x13
 9494 04b2 00       		.byte	0
 9495 04b3 00       		.byte	0
 9496 04b4 58       		.uleb128 0x58
 9497 04b5 2E       		.uleb128 0x2e
 9498 04b6 01       		.byte	0x1
 9499 04b7 3F       		.uleb128 0x3f
 9500 04b8 19       		.uleb128 0x19
 9501 04b9 03       		.uleb128 0x3
 9502 04ba 0E       		.uleb128 0xe
 9503 04bb 27       		.uleb128 0x27
 9504 04bc 19       		.uleb128 0x19
 9505 04bd 49       		.uleb128 0x49
 9506 04be 13       		.uleb128 0x13
 9507 04bf 34       		.uleb128 0x34
 9508 04c0 19       		.uleb128 0x19
 9509 04c1 3C       		.uleb128 0x3c
 9510 04c2 19       		.uleb128 0x19
 9511 04c3 01       		.uleb128 0x1
 9512 04c4 13       		.uleb128 0x13
 9513 04c5 00       		.byte	0
 9514 04c6 00       		.byte	0
 9515 04c7 59       		.uleb128 0x59
 9516 04c8 2E       		.uleb128 0x2e
 9517 04c9 01       		.byte	0x1
 9518 04ca 3F       		.uleb128 0x3f
 9519 04cb 19       		.uleb128 0x19
 9520 04cc 03       		.uleb128 0x3
 9521 04cd 0E       		.uleb128 0xe
 9522 04ce 3A       		.uleb128 0x3a
 9523 04cf 0B       		.uleb128 0xb
 9524 04d0 3B       		.uleb128 0x3b
 9525 04d1 0B       		.uleb128 0xb
 9526 04d2 27       		.uleb128 0x27
 9527 04d3 19       		.uleb128 0x19
 9528 04d4 49       		.uleb128 0x49
 9529 04d5 13       		.uleb128 0x13
 9530 04d6 3C       		.uleb128 0x3c
 9531 04d7 19       		.uleb128 0x19
ARM GAS  C:\Users\jo\AppData\Local\Temp\ccDLAO0k.s 			page 171


 9532 04d8 00       		.byte	0
 9533 04d9 00       		.byte	0
 9534 04da 00       		.byte	0
 9535              		.section	.debug_loc,"",%progbits
 9536              	.Ldebug_loc0:
 9537              	.LLST0:
 9538 0000 00000000 		.4byte	.LVL0
 9539 0004 10000000 		.4byte	.LVL2
 9540 0008 0100     		.2byte	0x1
 9541 000a 50       		.byte	0x50
 9542 000b 10000000 		.4byte	.LVL2
 9543 000f 30000000 		.4byte	.LFE261
 9544 0013 0400     		.2byte	0x4
 9545 0015 F3       		.byte	0xf3
 9546 0016 01       		.uleb128 0x1
 9547 0017 50       		.byte	0x50
 9548 0018 9F       		.byte	0x9f
 9549 0019 00000000 		.4byte	0
 9550 001d 00000000 		.4byte	0
 9551              	.LLST1:
 9552 0021 08000000 		.4byte	.LVL1
 9553 0025 26000000 		.4byte	.LVL6
 9554 0029 0100     		.2byte	0x1
 9555 002b 54       		.byte	0x54
 9556 002c 00000000 		.4byte	0
 9557 0030 00000000 		.4byte	0
 9558              	.LLST2:
 9559 0034 00000000 		.4byte	.LVL8
 9560 0038 0E000000 		.4byte	.LVL9
 9561 003c 0100     		.2byte	0x1
 9562 003e 50       		.byte	0x50
 9563 003f 0E000000 		.4byte	.LVL9
 9564 0043 28000000 		.4byte	.LFE282
 9565 0047 0400     		.2byte	0x4
 9566 0049 F3       		.byte	0xf3
 9567 004a 01       		.uleb128 0x1
 9568 004b 50       		.byte	0x50
 9569 004c 9F       		.byte	0x9f
 9570 004d 00000000 		.4byte	0
 9571 0051 00000000 		.4byte	0
 9572              	.LLST3:
 9573 0055 00000000 		.4byte	.LVL11
 9574 0059 1A000000 		.4byte	.LVL12
 9575 005d 0100     		.2byte	0x1
 9576 005f 50       		.byte	0x50
 9577 0060 1A000000 		.4byte	.LVL12
 9578 0064 42000000 		.4byte	.LVL13
 9579 0068 0400     		.2byte	0x4
 9580 006a F3       		.byte	0xf3
 9581 006b 01       		.uleb128 0x1
 9582 006c 50       		.byte	0x50
 9583 006d 9F       		.byte	0x9f
 9584 006e 42000000 		.4byte	.LVL13
 9585 0072 46000000 		.4byte	.LVL14
 9586 0076 0100     		.2byte	0x1
 9587 0078 50       		.byte	0x50
 9588 0079 46000000 		.4byte	.LVL14
ARM GAS  C:\Users\jo\AppData\Local\Temp\ccDLAO0k.s 			page 172


 9589 007d 48000000 		.4byte	.LVL15
 9590 0081 0400     		.2byte	0x4
 9591 0083 F3       		.byte	0xf3
 9592 0084 01       		.uleb128 0x1
 9593 0085 50       		.byte	0x50
 9594 0086 9F       		.byte	0x9f
 9595 0087 48000000 		.4byte	.LVL15
 9596 008b 4C000000 		.4byte	.LVL16
 9597 008f 0100     		.2byte	0x1
 9598 0091 50       		.byte	0x50
 9599 0092 4C000000 		.4byte	.LVL16
 9600 0096 4E000000 		.4byte	.LVL17
 9601 009a 0400     		.2byte	0x4
 9602 009c F3       		.byte	0xf3
 9603 009d 01       		.uleb128 0x1
 9604 009e 50       		.byte	0x50
 9605 009f 9F       		.byte	0x9f
 9606 00a0 4E000000 		.4byte	.LVL17
 9607 00a4 52000000 		.4byte	.LVL18
 9608 00a8 0100     		.2byte	0x1
 9609 00aa 50       		.byte	0x50
 9610 00ab 52000000 		.4byte	.LVL18
 9611 00af 54000000 		.4byte	.LVL19
 9612 00b3 0400     		.2byte	0x4
 9613 00b5 F3       		.byte	0xf3
 9614 00b6 01       		.uleb128 0x1
 9615 00b7 50       		.byte	0x50
 9616 00b8 9F       		.byte	0x9f
 9617 00b9 54000000 		.4byte	.LVL19
 9618 00bd 5E000000 		.4byte	.LVL23
 9619 00c1 0100     		.2byte	0x1
 9620 00c3 50       		.byte	0x50
 9621 00c4 5E000000 		.4byte	.LVL23
 9622 00c8 8C000000 		.4byte	.LFE264
 9623 00cc 0400     		.2byte	0x4
 9624 00ce F3       		.byte	0xf3
 9625 00cf 01       		.uleb128 0x1
 9626 00d0 50       		.byte	0x50
 9627 00d1 9F       		.byte	0x9f
 9628 00d2 00000000 		.4byte	0
 9629 00d6 00000000 		.4byte	0
 9630              	.LLST4:
 9631 00da 00000000 		.4byte	.LVL11
 9632 00de 5A000000 		.4byte	.LVL21
 9633 00e2 0100     		.2byte	0x1
 9634 00e4 51       		.byte	0x51
 9635 00e5 5A000000 		.4byte	.LVL21
 9636 00e9 72000000 		.4byte	.LVL26
 9637 00ed 0400     		.2byte	0x4
 9638 00ef F3       		.byte	0xf3
 9639 00f0 01       		.uleb128 0x1
 9640 00f1 51       		.byte	0x51
 9641 00f2 9F       		.byte	0x9f
 9642 00f3 72000000 		.4byte	.LVL26
 9643 00f7 8C000000 		.4byte	.LFE264
 9644 00fb 0100     		.2byte	0x1
 9645 00fd 51       		.byte	0x51
ARM GAS  C:\Users\jo\AppData\Local\Temp\ccDLAO0k.s 			page 173


 9646 00fe 00000000 		.4byte	0
 9647 0102 00000000 		.4byte	0
 9648              	.LLST5:
 9649 0106 00000000 		.4byte	.LVL11
 9650 010a 5C000000 		.4byte	.LVL22
 9651 010e 0100     		.2byte	0x1
 9652 0110 52       		.byte	0x52
 9653 0111 5C000000 		.4byte	.LVL22
 9654 0115 72000000 		.4byte	.LVL26
 9655 0119 0400     		.2byte	0x4
 9656 011b F3       		.byte	0xf3
 9657 011c 01       		.uleb128 0x1
 9658 011d 52       		.byte	0x52
 9659 011e 9F       		.byte	0x9f
 9660 011f 72000000 		.4byte	.LVL26
 9661 0123 8C000000 		.4byte	.LFE264
 9662 0127 0100     		.2byte	0x1
 9663 0129 52       		.byte	0x52
 9664 012a 00000000 		.4byte	0
 9665 012e 00000000 		.4byte	0
 9666              	.LLST6:
 9667 0132 00000000 		.4byte	.LVL11
 9668 0136 56000000 		.4byte	.LVL20
 9669 013a 0100     		.2byte	0x1
 9670 013c 53       		.byte	0x53
 9671 013d 56000000 		.4byte	.LVL20
 9672 0141 72000000 		.4byte	.LVL26
 9673 0145 0400     		.2byte	0x4
 9674 0147 F3       		.byte	0xf3
 9675 0148 01       		.uleb128 0x1
 9676 0149 53       		.byte	0x53
 9677 014a 9F       		.byte	0x9f
 9678 014b 72000000 		.4byte	.LVL26
 9679 014f 8C000000 		.4byte	.LFE264
 9680 0153 0100     		.2byte	0x1
 9681 0155 53       		.byte	0x53
 9682 0156 00000000 		.4byte	0
 9683 015a 00000000 		.4byte	0
 9684              	.LLST7:
 9685 015e 00000000 		.4byte	.LVL11
 9686 0162 42000000 		.4byte	.LVL13
 9687 0166 0200     		.2byte	0x2
 9688 0168 91       		.byte	0x91
 9689 0169 00       		.sleb128 0
 9690 016a 42000000 		.4byte	.LVL13
 9691 016e 8C000000 		.4byte	.LFE264
 9692 0172 0200     		.2byte	0x2
 9693 0174 91       		.byte	0x91
 9694 0175 00       		.sleb128 0
 9695 0176 00000000 		.4byte	0
 9696 017a 00000000 		.4byte	0
 9697              	.LLST8:
 9698 017e 00000000 		.4byte	.LVL11
 9699 0182 42000000 		.4byte	.LVL13
 9700 0186 0200     		.2byte	0x2
 9701 0188 91       		.byte	0x91
 9702 0189 04       		.sleb128 4
ARM GAS  C:\Users\jo\AppData\Local\Temp\ccDLAO0k.s 			page 174


 9703 018a 42000000 		.4byte	.LVL13
 9704 018e 8C000000 		.4byte	.LFE264
 9705 0192 0200     		.2byte	0x2
 9706 0194 91       		.byte	0x91
 9707 0195 04       		.sleb128 4
 9708 0196 00000000 		.4byte	0
 9709 019a 00000000 		.4byte	0
 9710              	.LLST9:
 9711 019e 4E000000 		.4byte	.LVL17
 9712 01a2 54000000 		.4byte	.LVL19
 9713 01a6 0200     		.2byte	0x2
 9714 01a8 30       		.byte	0x30
 9715 01a9 9F       		.byte	0x9f
 9716 01aa 00000000 		.4byte	0
 9717 01ae 00000000 		.4byte	0
 9718              	.LLST10:
 9719 01b2 66000000 		.4byte	.LVL24
 9720 01b6 72000000 		.4byte	.LVL26
 9721 01ba 0600     		.2byte	0x6
 9722 01bc 03       		.byte	0x3
 9723 01bd 28000000 		.4byte	.LC1
 9724 01c1 9F       		.byte	0x9f
 9725 01c2 00000000 		.4byte	0
 9726 01c6 00000000 		.4byte	0
 9727              	.LLST11:
 9728 01ca 00000000 		.4byte	.LVL27
 9729 01ce 16000000 		.4byte	.LVL30
 9730 01d2 0100     		.2byte	0x1
 9731 01d4 50       		.byte	0x50
 9732 01d5 16000000 		.4byte	.LVL30
 9733 01d9 4A000000 		.4byte	.LVL40
 9734 01dd 0100     		.2byte	0x1
 9735 01df 54       		.byte	0x54
 9736 01e0 4A000000 		.4byte	.LVL40
 9737 01e4 5E000000 		.4byte	.LVL44
 9738 01e8 0100     		.2byte	0x1
 9739 01ea 50       		.byte	0x50
 9740 01eb 5E000000 		.4byte	.LVL44
 9741 01ef 94000000 		.4byte	.LVL57
 9742 01f3 0100     		.2byte	0x1
 9743 01f5 54       		.byte	0x54
 9744 01f6 94000000 		.4byte	.LVL57
 9745 01fa 9E000000 		.4byte	.LVL59
 9746 01fe 0100     		.2byte	0x1
 9747 0200 50       		.byte	0x50
 9748 0201 9E000000 		.4byte	.LVL59
 9749 0205 D4000000 		.4byte	.LFE266
 9750 0209 0100     		.2byte	0x1
 9751 020b 54       		.byte	0x54
 9752 020c 00000000 		.4byte	0
 9753 0210 00000000 		.4byte	0
 9754              	.LLST12:
 9755 0214 00000000 		.4byte	.LVL27
 9756 0218 40000000 		.4byte	.LVL38
 9757 021c 0100     		.2byte	0x1
 9758 021e 51       		.byte	0x51
 9759 021f 40000000 		.4byte	.LVL38
ARM GAS  C:\Users\jo\AppData\Local\Temp\ccDLAO0k.s 			page 175


 9760 0223 4A000000 		.4byte	.LVL40
 9761 0227 0400     		.2byte	0x4
 9762 0229 F3       		.byte	0xf3
 9763 022a 01       		.uleb128 0x1
 9764 022b 51       		.byte	0x51
 9765 022c 9F       		.byte	0x9f
 9766 022d 4A000000 		.4byte	.LVL40
 9767 0231 5A000000 		.4byte	.LVL42
 9768 0235 0100     		.2byte	0x1
 9769 0237 51       		.byte	0x51
 9770 0238 5A000000 		.4byte	.LVL42
 9771 023c 70000000 		.4byte	.LVL47
 9772 0240 0400     		.2byte	0x4
 9773 0242 F3       		.byte	0xf3
 9774 0243 01       		.uleb128 0x1
 9775 0244 51       		.byte	0x51
 9776 0245 9F       		.byte	0x9f
 9777 0246 70000000 		.4byte	.LVL47
 9778 024a 7E000000 		.4byte	.LVL52
 9779 024e 0100     		.2byte	0x1
 9780 0250 51       		.byte	0x51
 9781 0251 7E000000 		.4byte	.LVL52
 9782 0255 94000000 		.4byte	.LVL57
 9783 0259 0400     		.2byte	0x4
 9784 025b F3       		.byte	0xf3
 9785 025c 01       		.uleb128 0x1
 9786 025d 51       		.byte	0x51
 9787 025e 9F       		.byte	0x9f
 9788 025f 94000000 		.4byte	.LVL57
 9789 0263 9A000000 		.4byte	.LVL58
 9790 0267 0100     		.2byte	0x1
 9791 0269 51       		.byte	0x51
 9792 026a 9A000000 		.4byte	.LVL58
 9793 026e B0000000 		.4byte	.LVL62
 9794 0272 0400     		.2byte	0x4
 9795 0274 F3       		.byte	0xf3
 9796 0275 01       		.uleb128 0x1
 9797 0276 51       		.byte	0x51
 9798 0277 9F       		.byte	0x9f
 9799 0278 B0000000 		.4byte	.LVL62
 9800 027c D4000000 		.4byte	.LFE266
 9801 0280 0100     		.2byte	0x1
 9802 0282 51       		.byte	0x51
 9803 0283 00000000 		.4byte	0
 9804 0287 00000000 		.4byte	0
 9805              	.LLST13:
 9806 028b 14000000 		.4byte	.LVL29
 9807 028f 1E000000 		.4byte	.LVL31
 9808 0293 0100     		.2byte	0x1
 9809 0295 53       		.byte	0x53
 9810 0296 1E000000 		.4byte	.LVL31
 9811 029a 26000000 		.4byte	.LVL32
 9812 029e 0300     		.2byte	0x3
 9813 02a0 73       		.byte	0x73
 9814 02a1 01       		.sleb128 1
 9815 02a2 9F       		.byte	0x9f
 9816 02a3 26000000 		.4byte	.LVL32
ARM GAS  C:\Users\jo\AppData\Local\Temp\ccDLAO0k.s 			page 176


 9817 02a7 2A000000 		.4byte	.LVL34
 9818 02ab 0800     		.2byte	0x8
 9819 02ad 74       		.byte	0x74
 9820 02ae 0C       		.sleb128 12
 9821 02af 94       		.byte	0x94
 9822 02b0 01       		.byte	0x1
 9823 02b1 08       		.byte	0x8
 9824 02b2 FF       		.byte	0xff
 9825 02b3 1A       		.byte	0x1a
 9826 02b4 9F       		.byte	0x9f
 9827 02b5 2A000000 		.4byte	.LVL34
 9828 02b9 2C000000 		.4byte	.LVL35
 9829 02bd 0100     		.2byte	0x1
 9830 02bf 53       		.byte	0x53
 9831 02c0 2C000000 		.4byte	.LVL35
 9832 02c4 44000000 		.4byte	.LVL39
 9833 02c8 0800     		.2byte	0x8
 9834 02ca 74       		.byte	0x74
 9835 02cb 0C       		.sleb128 12
 9836 02cc 94       		.byte	0x94
 9837 02cd 01       		.byte	0x1
 9838 02ce 08       		.byte	0x8
 9839 02cf FF       		.byte	0xff
 9840 02d0 1A       		.byte	0x1a
 9841 02d1 9F       		.byte	0x9f
 9842 02d2 70000000 		.4byte	.LVL47
 9843 02d6 78000000 		.4byte	.LVL49
 9844 02da 0800     		.2byte	0x8
 9845 02dc 74       		.byte	0x74
 9846 02dd 0C       		.sleb128 12
 9847 02de 94       		.byte	0x94
 9848 02df 01       		.byte	0x1
 9849 02e0 08       		.byte	0x8
 9850 02e1 FF       		.byte	0xff
 9851 02e2 1A       		.byte	0x1a
 9852 02e3 9F       		.byte	0x9f
 9853 02e4 78000000 		.4byte	.LVL49
 9854 02e8 7A000000 		.4byte	.LVL50
 9855 02ec 0300     		.2byte	0x3
 9856 02ee 73       		.byte	0x73
 9857 02ef 01       		.sleb128 1
 9858 02f0 9F       		.byte	0x9f
 9859 02f1 7A000000 		.4byte	.LVL50
 9860 02f5 7C000000 		.4byte	.LVL51
 9861 02f9 0800     		.2byte	0x8
 9862 02fb 74       		.byte	0x74
 9863 02fc 0C       		.sleb128 12
 9864 02fd 94       		.byte	0x94
 9865 02fe 01       		.byte	0x1
 9866 02ff 08       		.byte	0x8
 9867 0300 FF       		.byte	0xff
 9868 0301 1A       		.byte	0x1a
 9869 0302 9F       		.byte	0x9f
 9870 0303 B0000000 		.4byte	.LVL62
 9871 0307 B2000000 		.4byte	.LVL63
 9872 030b 0300     		.2byte	0x3
 9873 030d 73       		.byte	0x73
ARM GAS  C:\Users\jo\AppData\Local\Temp\ccDLAO0k.s 			page 177


 9874 030e 01       		.sleb128 1
 9875 030f 9F       		.byte	0x9f
 9876 0310 B2000000 		.4byte	.LVL63
 9877 0314 D4000000 		.4byte	.LFE266
 9878 0318 0800     		.2byte	0x8
 9879 031a 74       		.byte	0x74
 9880 031b 0C       		.sleb128 12
 9881 031c 94       		.byte	0x94
 9882 031d 01       		.byte	0x1
 9883 031e 08       		.byte	0x8
 9884 031f FF       		.byte	0xff
 9885 0320 1A       		.byte	0x1a
 9886 0321 9F       		.byte	0x9f
 9887 0322 00000000 		.4byte	0
 9888 0326 00000000 		.4byte	0
 9889              	.LLST14:
 9890 032a 16000000 		.4byte	.LVL30
 9891 032e 28000000 		.4byte	.LVL33
 9892 0332 0100     		.2byte	0x1
 9893 0334 50       		.byte	0x50
 9894 0335 28000000 		.4byte	.LVL33
 9895 0339 2A000000 		.4byte	.LVL34
 9896 033d 0200     		.2byte	0x2
 9897 033f 74       		.byte	0x74
 9898 0340 04       		.sleb128 4
 9899 0341 2A000000 		.4byte	.LVL34
 9900 0345 38000000 		.4byte	.LVL37
 9901 0349 0100     		.2byte	0x1
 9902 034b 50       		.byte	0x50
 9903 034c 70000000 		.4byte	.LVL47
 9904 0350 74000000 		.4byte	.LVL48
 9905 0354 0100     		.2byte	0x1
 9906 0356 50       		.byte	0x50
 9907 0357 74000000 		.4byte	.LVL48
 9908 035b 78000000 		.4byte	.LVL49
 9909 035f 0200     		.2byte	0x2
 9910 0361 74       		.byte	0x74
 9911 0362 04       		.sleb128 4
 9912 0363 78000000 		.4byte	.LVL49
 9913 0367 82000000 		.4byte	.LVL54
 9914 036b 0100     		.2byte	0x1
 9915 036d 50       		.byte	0x50
 9916 036e B0000000 		.4byte	.LVL62
 9917 0372 B8000000 		.4byte	.LVL64
 9918 0376 0100     		.2byte	0x1
 9919 0378 50       		.byte	0x50
 9920 0379 B8000000 		.4byte	.LVL64
 9921 037d BA000000 		.4byte	.LVL65
 9922 0381 0200     		.2byte	0x2
 9923 0383 74       		.byte	0x74
 9924 0384 04       		.sleb128 4
 9925 0385 00000000 		.4byte	0
 9926 0389 00000000 		.4byte	0
 9927              	.LLST15:
 9928 038d 12000000 		.4byte	.LVL28
 9929 0391 30000000 		.4byte	.LVL36
 9930 0395 0100     		.2byte	0x1
ARM GAS  C:\Users\jo\AppData\Local\Temp\ccDLAO0k.s 			page 178


 9931 0397 52       		.byte	0x52
 9932 0398 50000000 		.4byte	.LVL41
 9933 039c 5C000000 		.4byte	.LVL43
 9934 03a0 0100     		.2byte	0x1
 9935 03a2 52       		.byte	0x52
 9936 03a3 78000000 		.4byte	.LVL49
 9937 03a7 80000000 		.4byte	.LVL53
 9938 03ab 0100     		.2byte	0x1
 9939 03ad 52       		.byte	0x52
 9940 03ae B0000000 		.4byte	.LVL62
 9941 03b2 D4000000 		.4byte	.LFE266
 9942 03b6 0100     		.2byte	0x1
 9943 03b8 52       		.byte	0x52
 9944 03b9 00000000 		.4byte	0
 9945 03bd 00000000 		.4byte	0
 9946              	.LLST16:
 9947 03c1 66000000 		.4byte	.LVL45
 9948 03c5 70000000 		.4byte	.LVL47
 9949 03c9 0600     		.2byte	0x6
 9950 03cb 03       		.byte	0x3
 9951 03cc 7C000000 		.4byte	.LC4
 9952 03d0 9F       		.byte	0x9f
 9953 03d1 00000000 		.4byte	0
 9954 03d5 00000000 		.4byte	0
 9955              	.LLST17:
 9956 03d9 8A000000 		.4byte	.LVL55
 9957 03dd 94000000 		.4byte	.LVL57
 9958 03e1 0600     		.2byte	0x6
 9959 03e3 03       		.byte	0x3
 9960 03e4 9C000000 		.4byte	.LC5
 9961 03e8 9F       		.byte	0x9f
 9962 03e9 00000000 		.4byte	0
 9963 03ed 00000000 		.4byte	0
 9964              	.LLST18:
 9965 03f1 A6000000 		.4byte	.LVL60
 9966 03f5 B0000000 		.4byte	.LVL62
 9967 03f9 0600     		.2byte	0x6
 9968 03fb 03       		.byte	0x3
 9969 03fc 70000000 		.4byte	.LC3
 9970 0400 9F       		.byte	0x9f
 9971 0401 00000000 		.4byte	0
 9972 0405 00000000 		.4byte	0
 9973              	.LLST19:
 9974 0409 00000000 		.4byte	.LVL66
 9975 040d 10000000 		.4byte	.LVL67
 9976 0411 0100     		.2byte	0x1
 9977 0413 50       		.byte	0x50
 9978 0414 10000000 		.4byte	.LVL67
 9979 0418 22000000 		.4byte	.LVL72
 9980 041c 0100     		.2byte	0x1
 9981 041e 54       		.byte	0x54
 9982 041f 22000000 		.4byte	.LVL72
 9983 0423 26000000 		.4byte	.LVL74
 9984 0427 0100     		.2byte	0x1
 9985 0429 57       		.byte	0x57
 9986 042a 26000000 		.4byte	.LVL74
 9987 042e 44000000 		.4byte	.LVL80
ARM GAS  C:\Users\jo\AppData\Local\Temp\ccDLAO0k.s 			page 179


 9988 0432 0100     		.2byte	0x1
 9989 0434 54       		.byte	0x54
 9990 0435 44000000 		.4byte	.LVL80
 9991 0439 48000000 		.4byte	.LVL81
 9992 043d 0100     		.2byte	0x1
 9993 043f 57       		.byte	0x57
 9994 0440 4E000000 		.4byte	.LVL83
 9995 0444 82000000 		.4byte	.LVL90
 9996 0448 0100     		.2byte	0x1
 9997 044a 54       		.byte	0x54
 9998 044b 82000000 		.4byte	.LVL90
 9999 044f 8C000000 		.4byte	.LVL91
 10000 0453 0100     		.2byte	0x1
 10001 0455 50       		.byte	0x50
 10002 0456 8C000000 		.4byte	.LVL91
 10003 045a 9C000000 		.4byte	.LVL94
 10004 045e 0100     		.2byte	0x1
 10005 0460 54       		.byte	0x54
 10006 0461 9C000000 		.4byte	.LVL94
 10007 0465 A6000000 		.4byte	.LVL95
 10008 0469 0100     		.2byte	0x1
 10009 046b 50       		.byte	0x50
 10010 046c A6000000 		.4byte	.LVL95
 10011 0470 D4000000 		.4byte	.LFE267
 10012 0474 0100     		.2byte	0x1
 10013 0476 54       		.byte	0x54
 10014 0477 00000000 		.4byte	0
 10015 047b 00000000 		.4byte	0
 10016              	.LLST20:
 10017 047f 16000000 		.4byte	.LVL68
 10018 0483 1A000000 		.4byte	.LVL69
 10019 0487 0800     		.2byte	0x8
 10020 0489 74       		.byte	0x74
 10021 048a 0C       		.sleb128 12
 10022 048b 94       		.byte	0x94
 10023 048c 01       		.byte	0x1
 10024 048d 08       		.byte	0x8
 10025 048e FF       		.byte	0xff
 10026 048f 1A       		.byte	0x1a
 10027 0490 9F       		.byte	0x9f
 10028 0491 36000000 		.4byte	.LVL76
 10029 0495 41000000 		.4byte	.LVL79-1
 10030 0499 0800     		.2byte	0x8
 10031 049b 74       		.byte	0x74
 10032 049c 0C       		.sleb128 12
 10033 049d 94       		.byte	0x94
 10034 049e 01       		.byte	0x1
 10035 049f 08       		.byte	0x8
 10036 04a0 FF       		.byte	0xff
 10037 04a1 1A       		.byte	0x1a
 10038 04a2 9F       		.byte	0x9f
 10039 04a3 68000000 		.4byte	.LVL86
 10040 04a7 72000000 		.4byte	.LVL87
 10041 04ab 0800     		.2byte	0x8
 10042 04ad 74       		.byte	0x74
 10043 04ae 0C       		.sleb128 12
 10044 04af 94       		.byte	0x94
ARM GAS  C:\Users\jo\AppData\Local\Temp\ccDLAO0k.s 			page 180


 10045 04b0 01       		.byte	0x1
 10046 04b1 08       		.byte	0x8
 10047 04b2 FF       		.byte	0xff
 10048 04b3 1A       		.byte	0x1a
 10049 04b4 9F       		.byte	0x9f
 10050 04b5 00000000 		.4byte	0
 10051 04b9 00000000 		.4byte	0
 10052              	.LLST21:
 10053 04bd 16000000 		.4byte	.LVL68
 10054 04c1 26000000 		.4byte	.LVL74
 10055 04c5 0100     		.2byte	0x1
 10056 04c7 57       		.byte	0x57
 10057 04c8 36000000 		.4byte	.LVL76
 10058 04cc 48000000 		.4byte	.LVL81
 10059 04d0 0100     		.2byte	0x1
 10060 04d2 57       		.byte	0x57
 10061 04d3 68000000 		.4byte	.LVL86
 10062 04d7 82000000 		.4byte	.LVL90
 10063 04db 0100     		.2byte	0x1
 10064 04dd 57       		.byte	0x57
 10065 04de 00000000 		.4byte	0
 10066 04e2 00000000 		.4byte	0
 10067              	.LLST22:
 10068 04e6 10000000 		.4byte	.LVL67
 10069 04ea 16000000 		.4byte	.LVL68
 10070 04ee 0200     		.2byte	0x2
 10071 04f0 30       		.byte	0x30
 10072 04f1 9F       		.byte	0x9f
 10073 04f2 16000000 		.4byte	.LVL68
 10074 04f6 1E000000 		.4byte	.LVL70
 10075 04fa 0100     		.2byte	0x1
 10076 04fc 55       		.byte	0x55
 10077 04fd 22000000 		.4byte	.LVL72
 10078 0501 3E000000 		.4byte	.LVL78
 10079 0505 0100     		.2byte	0x1
 10080 0507 55       		.byte	0x55
 10081 0508 44000000 		.4byte	.LVL80
 10082 050c 4A000000 		.4byte	.LVL82
 10083 0510 0100     		.2byte	0x1
 10084 0512 55       		.byte	0x55
 10085 0513 4E000000 		.4byte	.LVL83
 10086 0517 82000000 		.4byte	.LVL90
 10087 051b 0100     		.2byte	0x1
 10088 051d 55       		.byte	0x55
 10089 051e 00000000 		.4byte	0
 10090 0522 00000000 		.4byte	0
 10091              	.LLST23:
 10092 0526 16000000 		.4byte	.LVL68
 10093 052a 1A000000 		.4byte	.LVL69
 10094 052e 0200     		.2byte	0x2
 10095 0530 74       		.byte	0x74
 10096 0531 0E       		.sleb128 14
 10097 0532 30000000 		.4byte	.LVL75
 10098 0536 38000000 		.4byte	.LVL77
 10099 053a 0100     		.2byte	0x1
 10100 053c 53       		.byte	0x53
 10101 053d 38000000 		.4byte	.LVL77
ARM GAS  C:\Users\jo\AppData\Local\Temp\ccDLAO0k.s 			page 181


 10102 0541 41000000 		.4byte	.LVL79-1
 10103 0545 0200     		.2byte	0x2
 10104 0547 74       		.byte	0x74
 10105 0548 0E       		.sleb128 14
 10106 0549 68000000 		.4byte	.LVL86
 10107 054d 72000000 		.4byte	.LVL87
 10108 0551 0200     		.2byte	0x2
 10109 0553 74       		.byte	0x74
 10110 0554 0E       		.sleb128 14
 10111 0555 00000000 		.4byte	0
 10112 0559 00000000 		.4byte	0
 10113              	.LLST24:
 10114 055d 16000000 		.4byte	.LVL68
 10115 0561 24000000 		.4byte	.LVL73
 10116 0565 0100     		.2byte	0x1
 10117 0567 54       		.byte	0x54
 10118 0568 68000000 		.4byte	.LVL86
 10119 056c 82000000 		.4byte	.LVL90
 10120 0570 0100     		.2byte	0x1
 10121 0572 54       		.byte	0x54
 10122 0573 00000000 		.4byte	0
 10123 0577 00000000 		.4byte	0
 10124              	.LLST25:
 10125 057b 78000000 		.4byte	.LVL88
 10126 057f 82000000 		.4byte	.LVL90
 10127 0583 0600     		.2byte	0x6
 10128 0585 03       		.byte	0x3
 10129 0586 DC000000 		.4byte	.LC8
 10130 058a 9F       		.byte	0x9f
 10131 058b 00000000 		.4byte	0
 10132 058f 00000000 		.4byte	0
 10133              	.LLST26:
 10134 0593 5E000000 		.4byte	.LVL84
 10135 0597 68000000 		.4byte	.LVL86
 10136 059b 0600     		.2byte	0x6
 10137 059d 03       		.byte	0x3
 10138 059e C4000000 		.4byte	.LC7
 10139 05a2 9F       		.byte	0x9f
 10140 05a3 00000000 		.4byte	0
 10141 05a7 00000000 		.4byte	0
 10142              	.LLST27:
 10143 05ab 94000000 		.4byte	.LVL92
 10144 05af 9C000000 		.4byte	.LVL94
 10145 05b3 0600     		.2byte	0x6
 10146 05b5 03       		.byte	0x3
 10147 05b6 AC000000 		.4byte	.LC6
 10148 05ba 9F       		.byte	0x9f
 10149 05bb 00000000 		.4byte	0
 10150 05bf 00000000 		.4byte	0
 10151              	.LLST28:
 10152 05c3 00000000 		.4byte	.LVL98
 10153 05c7 2E000000 		.4byte	.LVL100
 10154 05cb 0100     		.2byte	0x1
 10155 05cd 50       		.byte	0x50
 10156 05ce 2E000000 		.4byte	.LVL100
 10157 05d2 E8000000 		.4byte	.LVL113
 10158 05d6 0400     		.2byte	0x4
ARM GAS  C:\Users\jo\AppData\Local\Temp\ccDLAO0k.s 			page 182


 10159 05d8 F3       		.byte	0xf3
 10160 05d9 01       		.uleb128 0x1
 10161 05da 50       		.byte	0x50
 10162 05db 9F       		.byte	0x9f
 10163 05dc E8000000 		.4byte	.LVL113
 10164 05e0 EE000000 		.4byte	.LVL114
 10165 05e4 0100     		.2byte	0x1
 10166 05e6 50       		.byte	0x50
 10167 05e7 EE000000 		.4byte	.LVL114
 10168 05eb 08010000 		.4byte	.LVL116
 10169 05ef 0400     		.2byte	0x4
 10170 05f1 F3       		.byte	0xf3
 10171 05f2 01       		.uleb128 0x1
 10172 05f3 50       		.byte	0x50
 10173 05f4 9F       		.byte	0x9f
 10174 05f5 08010000 		.4byte	.LVL116
 10175 05f9 12010000 		.4byte	.LVL117
 10176 05fd 0100     		.2byte	0x1
 10177 05ff 50       		.byte	0x50
 10178 0600 12010000 		.4byte	.LVL117
 10179 0604 42010000 		.4byte	.LVL121
 10180 0608 0400     		.2byte	0x4
 10181 060a F3       		.byte	0xf3
 10182 060b 01       		.uleb128 0x1
 10183 060c 50       		.byte	0x50
 10184 060d 9F       		.byte	0x9f
 10185 060e 42010000 		.4byte	.LVL121
 10186 0612 58010000 		.4byte	.LVL126
 10187 0616 0100     		.2byte	0x1
 10188 0618 50       		.byte	0x50
 10189 0619 58010000 		.4byte	.LVL126
 10190 061d 6E010000 		.4byte	.LVL130
 10191 0621 0400     		.2byte	0x4
 10192 0623 F3       		.byte	0xf3
 10193 0624 01       		.uleb128 0x1
 10194 0625 50       		.byte	0x50
 10195 0626 9F       		.byte	0x9f
 10196 0627 6E010000 		.4byte	.LVL130
 10197 062b 78010000 		.4byte	.LVL133
 10198 062f 0100     		.2byte	0x1
 10199 0631 50       		.byte	0x50
 10200 0632 78010000 		.4byte	.LVL133
 10201 0636 1C020000 		.4byte	.LFE263
 10202 063a 0400     		.2byte	0x4
 10203 063c F3       		.byte	0xf3
 10204 063d 01       		.uleb128 0x1
 10205 063e 50       		.byte	0x50
 10206 063f 9F       		.byte	0x9f
 10207 0640 00000000 		.4byte	0
 10208 0644 00000000 		.4byte	0
 10209              	.LLST29:
 10210 0648 00000000 		.4byte	.LVL98
 10211 064c 31000000 		.4byte	.LVL101-1
 10212 0650 0100     		.2byte	0x1
 10213 0652 51       		.byte	0x51
 10214 0653 31000000 		.4byte	.LVL101-1
 10215 0657 E8000000 		.4byte	.LVL113
ARM GAS  C:\Users\jo\AppData\Local\Temp\ccDLAO0k.s 			page 183


 10216 065b 0400     		.2byte	0x4
 10217 065d F3       		.byte	0xf3
 10218 065e 01       		.uleb128 0x1
 10219 065f 51       		.byte	0x51
 10220 0660 9F       		.byte	0x9f
 10221 0661 E8000000 		.4byte	.LVL113
 10222 0665 F1000000 		.4byte	.LVL115-1
 10223 0669 0100     		.2byte	0x1
 10224 066b 51       		.byte	0x51
 10225 066c F1000000 		.4byte	.LVL115-1
 10226 0670 08010000 		.4byte	.LVL116
 10227 0674 0400     		.2byte	0x4
 10228 0676 F3       		.byte	0xf3
 10229 0677 01       		.uleb128 0x1
 10230 0678 51       		.byte	0x51
 10231 0679 9F       		.byte	0x9f
 10232 067a 08010000 		.4byte	.LVL116
 10233 067e 17010000 		.4byte	.LVL118-1
 10234 0682 0100     		.2byte	0x1
 10235 0684 51       		.byte	0x51
 10236 0685 17010000 		.4byte	.LVL118-1
 10237 0689 42010000 		.4byte	.LVL121
 10238 068d 0400     		.2byte	0x4
 10239 068f F3       		.byte	0xf3
 10240 0690 01       		.uleb128 0x1
 10241 0691 51       		.byte	0x51
 10242 0692 9F       		.byte	0x9f
 10243 0693 42010000 		.4byte	.LVL121
 10244 0697 54010000 		.4byte	.LVL124
 10245 069b 0100     		.2byte	0x1
 10246 069d 51       		.byte	0x51
 10247 069e 54010000 		.4byte	.LVL124
 10248 06a2 6E010000 		.4byte	.LVL130
 10249 06a6 0400     		.2byte	0x4
 10250 06a8 F3       		.byte	0xf3
 10251 06a9 01       		.uleb128 0x1
 10252 06aa 51       		.byte	0x51
 10253 06ab 9F       		.byte	0x9f
 10254 06ac 6E010000 		.4byte	.LVL130
 10255 06b0 74010000 		.4byte	.LVL131
 10256 06b4 0100     		.2byte	0x1
 10257 06b6 51       		.byte	0x51
 10258 06b7 74010000 		.4byte	.LVL131
 10259 06bb 1C020000 		.4byte	.LFE263
 10260 06bf 0400     		.2byte	0x4
 10261 06c1 F3       		.byte	0xf3
 10262 06c2 01       		.uleb128 0x1
 10263 06c3 51       		.byte	0x51
 10264 06c4 9F       		.byte	0x9f
 10265 06c5 00000000 		.4byte	0
 10266 06c9 00000000 		.4byte	0
 10267              	.LLST30:
 10268 06cd 00000000 		.4byte	.LVL98
 10269 06d1 31000000 		.4byte	.LVL101-1
 10270 06d5 0100     		.2byte	0x1
 10271 06d7 52       		.byte	0x52
 10272 06d8 31000000 		.4byte	.LVL101-1
ARM GAS  C:\Users\jo\AppData\Local\Temp\ccDLAO0k.s 			page 184


 10273 06dc E8000000 		.4byte	.LVL113
 10274 06e0 0400     		.2byte	0x4
 10275 06e2 F3       		.byte	0xf3
 10276 06e3 01       		.uleb128 0x1
 10277 06e4 52       		.byte	0x52
 10278 06e5 9F       		.byte	0x9f
 10279 06e6 E8000000 		.4byte	.LVL113
 10280 06ea F1000000 		.4byte	.LVL115-1
 10281 06ee 0100     		.2byte	0x1
 10282 06f0 52       		.byte	0x52
 10283 06f1 F1000000 		.4byte	.LVL115-1
 10284 06f5 08010000 		.4byte	.LVL116
 10285 06f9 0400     		.2byte	0x4
 10286 06fb F3       		.byte	0xf3
 10287 06fc 01       		.uleb128 0x1
 10288 06fd 52       		.byte	0x52
 10289 06fe 9F       		.byte	0x9f
 10290 06ff 08010000 		.4byte	.LVL116
 10291 0703 17010000 		.4byte	.LVL118-1
 10292 0707 0100     		.2byte	0x1
 10293 0709 52       		.byte	0x52
 10294 070a 17010000 		.4byte	.LVL118-1
 10295 070e 42010000 		.4byte	.LVL121
 10296 0712 0400     		.2byte	0x4
 10297 0714 F3       		.byte	0xf3
 10298 0715 01       		.uleb128 0x1
 10299 0716 52       		.byte	0x52
 10300 0717 9F       		.byte	0x9f
 10301 0718 42010000 		.4byte	.LVL121
 10302 071c 56010000 		.4byte	.LVL125
 10303 0720 0100     		.2byte	0x1
 10304 0722 52       		.byte	0x52
 10305 0723 56010000 		.4byte	.LVL125
 10306 0727 6E010000 		.4byte	.LVL130
 10307 072b 0400     		.2byte	0x4
 10308 072d F3       		.byte	0xf3
 10309 072e 01       		.uleb128 0x1
 10310 072f 52       		.byte	0x52
 10311 0730 9F       		.byte	0x9f
 10312 0731 6E010000 		.4byte	.LVL130
 10313 0735 76010000 		.4byte	.LVL132
 10314 0739 0100     		.2byte	0x1
 10315 073b 52       		.byte	0x52
 10316 073c 76010000 		.4byte	.LVL132
 10317 0740 1C020000 		.4byte	.LFE263
 10318 0744 0400     		.2byte	0x4
 10319 0746 F3       		.byte	0xf3
 10320 0747 01       		.uleb128 0x1
 10321 0748 52       		.byte	0x52
 10322 0749 9F       		.byte	0x9f
 10323 074a 00000000 		.4byte	0
 10324 074e 00000000 		.4byte	0
 10325              	.LLST31:
 10326 0752 32000000 		.4byte	.LVL101
 10327 0756 6C000000 		.4byte	.LVL103
 10328 075a 0100     		.2byte	0x1
 10329 075c 50       		.byte	0x50
ARM GAS  C:\Users\jo\AppData\Local\Temp\ccDLAO0k.s 			page 185


 10330 075d 6C000000 		.4byte	.LVL103
 10331 0761 E8000000 		.4byte	.LVL113
 10332 0765 0100     		.2byte	0x1
 10333 0767 55       		.byte	0x55
 10334 0768 F2000000 		.4byte	.LVL115
 10335 076c 08010000 		.4byte	.LVL116
 10336 0770 0100     		.2byte	0x1
 10337 0772 50       		.byte	0x50
 10338 0773 18010000 		.4byte	.LVL118
 10339 0777 32010000 		.4byte	.LVL120
 10340 077b 0100     		.2byte	0x1
 10341 077d 50       		.byte	0x50
 10342 077e 32010000 		.4byte	.LVL120
 10343 0782 42010000 		.4byte	.LVL121
 10344 0786 0100     		.2byte	0x1
 10345 0788 55       		.byte	0x55
 10346 0789 8C010000 		.4byte	.LVL136
 10347 078d A0010000 		.4byte	.LVL139
 10348 0791 0100     		.2byte	0x1
 10349 0793 55       		.byte	0x55
 10350 0794 A8010000 		.4byte	.LVL140
 10351 0798 C4010000 		.4byte	.LVL143
 10352 079c 0100     		.2byte	0x1
 10353 079e 55       		.byte	0x55
 10354 079f C4010000 		.4byte	.LVL143
 10355 07a3 D7010000 		.4byte	.LVL145-1
 10356 07a7 0100     		.2byte	0x1
 10357 07a9 50       		.byte	0x50
 10358 07aa DC010000 		.4byte	.LVL146
 10359 07ae E6010000 		.4byte	.LVL147
 10360 07b2 0100     		.2byte	0x1
 10361 07b4 50       		.byte	0x50
 10362 07b5 E6010000 		.4byte	.LVL147
 10363 07b9 1C020000 		.4byte	.LFE263
 10364 07bd 0100     		.2byte	0x1
 10365 07bf 55       		.byte	0x55
 10366 07c0 00000000 		.4byte	0
 10367 07c4 00000000 		.4byte	0
 10368              	.LLST32:
 10369 07c8 7E000000 		.4byte	.LVL105
 10370 07cc AC000000 		.4byte	.LVL107
 10371 07d0 0100     		.2byte	0x1
 10372 07d2 54       		.byte	0x54
 10373 07d3 B2000000 		.4byte	.LVL108
 10374 07d7 D8000000 		.4byte	.LVL110
 10375 07db 0100     		.2byte	0x1
 10376 07dd 50       		.byte	0x50
 10377 07de D8000000 		.4byte	.LVL110
 10378 07e2 E8000000 		.4byte	.LVL113
 10379 07e6 0100     		.2byte	0x1
 10380 07e8 54       		.byte	0x54
 10381 07e9 8C010000 		.4byte	.LVL136
 10382 07ed 99010000 		.4byte	.LVL138-1
 10383 07f1 0100     		.2byte	0x1
 10384 07f3 50       		.byte	0x50
 10385 07f4 99010000 		.4byte	.LVL138-1
 10386 07f8 A0010000 		.4byte	.LVL139
ARM GAS  C:\Users\jo\AppData\Local\Temp\ccDLAO0k.s 			page 186


 10387 07fc 0100     		.2byte	0x1
 10388 07fe 54       		.byte	0x54
 10389 07ff A8010000 		.4byte	.LVL140
 10390 0803 C4010000 		.4byte	.LVL143
 10391 0807 0100     		.2byte	0x1
 10392 0809 54       		.byte	0x54
 10393 080a 00000000 		.4byte	0
 10394 080e 00000000 		.4byte	0
 10395              	.LLST33:
 10396 0812 74000000 		.4byte	.LVL104
 10397 0816 7E000000 		.4byte	.LVL105
 10398 081a 0100     		.2byte	0x1
 10399 081c 55       		.byte	0x55
 10400 081d A2000000 		.4byte	.LVL106
 10401 0821 AC000000 		.4byte	.LVL107
 10402 0825 0100     		.2byte	0x1
 10403 0827 54       		.byte	0x54
 10404 0828 AC000000 		.4byte	.LVL107
 10405 082c CC000000 		.4byte	.LVL109
 10406 0830 0100     		.2byte	0x1
 10407 0832 57       		.byte	0x57
 10408 0833 8C010000 		.4byte	.LVL136
 10409 0837 A0010000 		.4byte	.LVL139
 10410 083b 0100     		.2byte	0x1
 10411 083d 57       		.byte	0x57
 10412 083e 00000000 		.4byte	0
 10413 0842 00000000 		.4byte	0
 10414              	.LLST34:
 10415 0846 18000000 		.4byte	.LVL99
 10416 084a 42000000 		.4byte	.LVL102
 10417 084e 0100     		.2byte	0x1
 10418 0850 54       		.byte	0x54
 10419 0851 E8000000 		.4byte	.LVL113
 10420 0855 20010000 		.4byte	.LVL119
 10421 0859 0100     		.2byte	0x1
 10422 085b 54       		.byte	0x54
 10423 085c 4A010000 		.4byte	.LVL122
 10424 0860 4E010000 		.4byte	.LVL123
 10425 0864 0200     		.2byte	0x2
 10426 0866 30       		.byte	0x30
 10427 0867 9F       		.byte	0x9f
 10428 0868 4E010000 		.4byte	.LVL123
 10429 086c 6E010000 		.4byte	.LVL130
 10430 0870 0100     		.2byte	0x1
 10431 0872 54       		.byte	0x54
 10432 0873 C4010000 		.4byte	.LVL143
 10433 0877 DC010000 		.4byte	.LVL146
 10434 087b 0100     		.2byte	0x1
 10435 087d 54       		.byte	0x54
 10436 087e 00000000 		.4byte	0
 10437 0882 00000000 		.4byte	0
 10438              	.LLST35:
 10439 0886 74000000 		.4byte	.LVL104
 10440 088a E8000000 		.4byte	.LVL113
 10441 088e 0100     		.2byte	0x1
 10442 0890 56       		.byte	0x56
 10443 0891 8C010000 		.4byte	.LVL136
ARM GAS  C:\Users\jo\AppData\Local\Temp\ccDLAO0k.s 			page 187


 10444 0895 A0010000 		.4byte	.LVL139
 10445 0899 0100     		.2byte	0x1
 10446 089b 56       		.byte	0x56
 10447 089c A8010000 		.4byte	.LVL140
 10448 08a0 C4010000 		.4byte	.LVL143
 10449 08a4 0100     		.2byte	0x1
 10450 08a6 56       		.byte	0x56
 10451 08a7 00000000 		.4byte	0
 10452 08ab 00000000 		.4byte	0
 10453              	.LLST36:
 10454 08af E0000000 		.4byte	.LVL111
 10455 08b3 E8000000 		.4byte	.LVL113
 10456 08b7 0600     		.2byte	0x6
 10457 08b9 03       		.byte	0x3
 10458 08ba 50010000 		.4byte	.LC11
 10459 08be 9F       		.byte	0x9f
 10460 08bf 00000000 		.4byte	0
 10461 08c3 00000000 		.4byte	0
 10462              	.LLST37:
 10463 08c7 60010000 		.4byte	.LVL127
 10464 08cb 68010000 		.4byte	.LVL129
 10465 08cf 0600     		.2byte	0x6
 10466 08d1 03       		.byte	0x3
 10467 08d2 64010000 		.4byte	.LC12
 10468 08d6 9F       		.byte	0x9f
 10469 08d7 00000000 		.4byte	0
 10470 08db 00000000 		.4byte	0
 10471              	.LLST38:
 10472 08df 7E010000 		.4byte	.LVL134
 10473 08e3 8C010000 		.4byte	.LVL136
 10474 08e7 0600     		.2byte	0x6
 10475 08e9 03       		.byte	0x3
 10476 08ea 00010000 		.4byte	.LC9
 10477 08ee 9F       		.byte	0x9f
 10478 08ef 00000000 		.4byte	0
 10479 08f3 00000000 		.4byte	0
 10480              	.LLST39:
 10481 08f7 90010000 		.4byte	.LVL137
 10482 08fb 99010000 		.4byte	.LVL138-1
 10483 08ff 0100     		.2byte	0x1
 10484 0901 52       		.byte	0x52
 10485 0902 00000000 		.4byte	0
 10486 0906 00000000 		.4byte	0
 10487              	.LLST40:
 10488 090a BA010000 		.4byte	.LVL141
 10489 090e C4010000 		.4byte	.LVL143
 10490 0912 0600     		.2byte	0x6
 10491 0914 03       		.byte	0x3
 10492 0915 1C010000 		.4byte	.LC10
 10493 0919 9F       		.byte	0x9f
 10494 091a 00000000 		.4byte	0
 10495 091e 00000000 		.4byte	0
 10496              	.LLST41:
 10497 0922 C8010000 		.4byte	.LVL144
 10498 0926 D7010000 		.4byte	.LVL145-1
 10499 092a 0100     		.2byte	0x1
 10500 092c 53       		.byte	0x53
ARM GAS  C:\Users\jo\AppData\Local\Temp\ccDLAO0k.s 			page 188


 10501 092d 00000000 		.4byte	0
 10502 0931 00000000 		.4byte	0
 10503              	.LLST42:
 10504 0935 00000000 		.4byte	.LVL150
 10505 0939 0C000000 		.4byte	.LVL151
 10506 093d 0100     		.2byte	0x1
 10507 093f 50       		.byte	0x50
 10508 0940 0C000000 		.4byte	.LVL151
 10509 0944 36000000 		.4byte	.LVL155
 10510 0948 0100     		.2byte	0x1
 10511 094a 54       		.byte	0x54
 10512 094b 36000000 		.4byte	.LVL155
 10513 094f AE000000 		.4byte	.LVL167
 10514 0953 0400     		.2byte	0x4
 10515 0955 F3       		.byte	0xf3
 10516 0956 01       		.uleb128 0x1
 10517 0957 50       		.byte	0x50
 10518 0958 9F       		.byte	0x9f
 10519 0959 AE000000 		.4byte	.LVL167
 10520 095d B8000000 		.4byte	.LVL169
 10521 0961 0100     		.2byte	0x1
 10522 0963 50       		.byte	0x50
 10523 0964 B8000000 		.4byte	.LVL169
 10524 0968 E4000000 		.4byte	.LFE265
 10525 096c 0100     		.2byte	0x1
 10526 096e 54       		.byte	0x54
 10527 096f 00000000 		.4byte	0
 10528 0973 00000000 		.4byte	0
 10529              	.LLST43:
 10530 0977 00000000 		.4byte	.LVL150
 10531 097b 0C000000 		.4byte	.LVL151
 10532 097f 0100     		.2byte	0x1
 10533 0981 51       		.byte	0x51
 10534 0982 0C000000 		.4byte	.LVL151
 10535 0986 AE000000 		.4byte	.LVL167
 10536 098a 0400     		.2byte	0x4
 10537 098c F3       		.byte	0xf3
 10538 098d 01       		.uleb128 0x1
 10539 098e 51       		.byte	0x51
 10540 098f 9F       		.byte	0x9f
 10541 0990 AE000000 		.4byte	.LVL167
 10542 0994 B4000000 		.4byte	.LVL168
 10543 0998 0100     		.2byte	0x1
 10544 099a 51       		.byte	0x51
 10545 099b B4000000 		.4byte	.LVL168
 10546 099f E4000000 		.4byte	.LFE265
 10547 09a3 0400     		.2byte	0x4
 10548 09a5 F3       		.byte	0xf3
 10549 09a6 01       		.uleb128 0x1
 10550 09a7 51       		.byte	0x51
 10551 09a8 9F       		.byte	0x9f
 10552 09a9 00000000 		.4byte	0
 10553 09ad 00000000 		.4byte	0
 10554              	.LLST44:
 10555 09b1 32000000 		.4byte	.LVL154
 10556 09b5 AA000000 		.4byte	.LVL166
 10557 09b9 0100     		.2byte	0x1
ARM GAS  C:\Users\jo\AppData\Local\Temp\ccDLAO0k.s 			page 189


 10558 09bb 54       		.byte	0x54
 10559 09bc 00000000 		.4byte	0
 10560 09c0 00000000 		.4byte	0
 10561              	.LLST45:
 10562 09c4 32000000 		.4byte	.LVL154
 10563 09c8 AA000000 		.4byte	.LVL166
 10564 09cc 0100     		.2byte	0x1
 10565 09ce 55       		.byte	0x55
 10566 09cf 00000000 		.4byte	0
 10567 09d3 00000000 		.4byte	0
 10568              	.LLST46:
 10569 09d7 32000000 		.4byte	.LVL154
 10570 09db AA000000 		.4byte	.LVL166
 10571 09df 0100     		.2byte	0x1
 10572 09e1 56       		.byte	0x56
 10573 09e2 00000000 		.4byte	0
 10574 09e6 00000000 		.4byte	0
 10575              	.LLST47:
 10576 09ea 24000000 		.4byte	.LVL152
 10577 09ee 2A000000 		.4byte	.LVL153
 10578 09f2 0600     		.2byte	0x6
 10579 09f4 03       		.byte	0x3
 10580 09f5 98010000 		.4byte	.LC14
 10581 09f9 9F       		.byte	0x9f
 10582 09fa 00000000 		.4byte	0
 10583 09fe 00000000 		.4byte	0
 10584              	.LLST48:
 10585 0a02 64000000 		.4byte	.LVL158
 10586 0a06 76000000 		.4byte	.LVL161
 10587 0a0a 0600     		.2byte	0x6
 10588 0a0c 03       		.byte	0x3
 10589 0a0d B4010000 		.4byte	.LC15
 10590 0a11 9F       		.byte	0x9f
 10591 0a12 00000000 		.4byte	0
 10592 0a16 00000000 		.4byte	0
 10593              	.LLST49:
 10594 0a1a 86000000 		.4byte	.LVL162
 10595 0a1e 9A000000 		.4byte	.LVL164
 10596 0a22 0600     		.2byte	0x6
 10597 0a24 03       		.byte	0x3
 10598 0a25 C8010000 		.4byte	.LC16
 10599 0a29 9F       		.byte	0x9f
 10600 0a2a 00000000 		.4byte	0
 10601 0a2e 00000000 		.4byte	0
 10602              	.LLST50:
 10603 0a32 00000000 		.4byte	.LVL172
 10604 0a36 06000000 		.4byte	.LVL173
 10605 0a3a 0100     		.2byte	0x1
 10606 0a3c 50       		.byte	0x50
 10607 0a3d 06000000 		.4byte	.LVL173
 10608 0a41 08000000 		.4byte	.LVL174
 10609 0a45 0100     		.2byte	0x1
 10610 0a47 53       		.byte	0x53
 10611 0a48 0C000000 		.4byte	.LVL176
 10612 0a4c 12000000 		.4byte	.LVL177
 10613 0a50 0100     		.2byte	0x1
 10614 0a52 53       		.byte	0x53
ARM GAS  C:\Users\jo\AppData\Local\Temp\ccDLAO0k.s 			page 190


 10615 0a53 12000000 		.4byte	.LVL177
 10616 0a57 14000000 		.4byte	.LFE268
 10617 0a5b 0100     		.2byte	0x1
 10618 0a5d 50       		.byte	0x50
 10619 0a5e 00000000 		.4byte	0
 10620 0a62 00000000 		.4byte	0
 10621              	.LLST51:
 10622 0a66 00000000 		.4byte	.LVL172
 10623 0a6a 06000000 		.4byte	.LVL173
 10624 0a6e 0200     		.2byte	0x2
 10625 0a70 30       		.byte	0x30
 10626 0a71 9F       		.byte	0x9f
 10627 0a72 06000000 		.4byte	.LVL173
 10628 0a76 0A000000 		.4byte	.LVL175
 10629 0a7a 0100     		.2byte	0x1
 10630 0a7c 50       		.byte	0x50
 10631 0a7d 0C000000 		.4byte	.LVL176
 10632 0a81 12000000 		.4byte	.LVL177
 10633 0a85 0100     		.2byte	0x1
 10634 0a87 50       		.byte	0x50
 10635 0a88 12000000 		.4byte	.LVL177
 10636 0a8c 14000000 		.4byte	.LFE268
 10637 0a90 0200     		.2byte	0x2
 10638 0a92 30       		.byte	0x30
 10639 0a93 9F       		.byte	0x9f
 10640 0a94 00000000 		.4byte	0
 10641 0a98 00000000 		.4byte	0
 10642              	.LLST52:
 10643 0a9c 00000000 		.4byte	.LVL179
 10644 0aa0 14000000 		.4byte	.LVL181
 10645 0aa4 0100     		.2byte	0x1
 10646 0aa6 50       		.byte	0x50
 10647 0aa7 14000000 		.4byte	.LVL181
 10648 0aab 6E000000 		.4byte	.LVL190
 10649 0aaf 0400     		.2byte	0x4
 10650 0ab1 F3       		.byte	0xf3
 10651 0ab2 01       		.uleb128 0x1
 10652 0ab3 50       		.byte	0x50
 10653 0ab4 9F       		.byte	0x9f
 10654 0ab5 6E000000 		.4byte	.LVL190
 10655 0ab9 78000000 		.4byte	.LVL192
 10656 0abd 0100     		.2byte	0x1
 10657 0abf 50       		.byte	0x50
 10658 0ac0 78000000 		.4byte	.LVL192
 10659 0ac4 8C000000 		.4byte	.LVL194
 10660 0ac8 0400     		.2byte	0x4
 10661 0aca F3       		.byte	0xf3
 10662 0acb 01       		.uleb128 0x1
 10663 0acc 50       		.byte	0x50
 10664 0acd 9F       		.byte	0x9f
 10665 0ace 8C000000 		.4byte	.LVL194
 10666 0ad2 A8000000 		.4byte	.LFE270
 10667 0ad6 0100     		.2byte	0x1
 10668 0ad8 50       		.byte	0x50
 10669 0ad9 00000000 		.4byte	0
 10670 0add 00000000 		.4byte	0
 10671              	.LLST53:
ARM GAS  C:\Users\jo\AppData\Local\Temp\ccDLAO0k.s 			page 191


 10672 0ae1 00000000 		.4byte	.LVL179
 10673 0ae5 14000000 		.4byte	.LVL181
 10674 0ae9 0100     		.2byte	0x1
 10675 0aeb 51       		.byte	0x51
 10676 0aec 14000000 		.4byte	.LVL181
 10677 0af0 6E000000 		.4byte	.LVL190
 10678 0af4 0100     		.2byte	0x1
 10679 0af6 55       		.byte	0x55
 10680 0af7 6E000000 		.4byte	.LVL190
 10681 0afb 74000000 		.4byte	.LVL191
 10682 0aff 0100     		.2byte	0x1
 10683 0b01 51       		.byte	0x51
 10684 0b02 74000000 		.4byte	.LVL191
 10685 0b06 8C000000 		.4byte	.LVL194
 10686 0b0a 0400     		.2byte	0x4
 10687 0b0c F3       		.byte	0xf3
 10688 0b0d 01       		.uleb128 0x1
 10689 0b0e 51       		.byte	0x51
 10690 0b0f 9F       		.byte	0x9f
 10691 0b10 8C000000 		.4byte	.LVL194
 10692 0b14 A8000000 		.4byte	.LFE270
 10693 0b18 0100     		.2byte	0x1
 10694 0b1a 51       		.byte	0x51
 10695 0b1b 00000000 		.4byte	0
 10696 0b1f 00000000 		.4byte	0
 10697              	.LLST54:
 10698 0b23 0E000000 		.4byte	.LVL180
 10699 0b27 20000000 		.4byte	.LVL182
 10700 0b2b 0100     		.2byte	0x1
 10701 0b2d 50       		.byte	0x50
 10702 0b2e 20000000 		.4byte	.LVL182
 10703 0b32 26000000 		.4byte	.LVL183
 10704 0b36 0100     		.2byte	0x1
 10705 0b38 54       		.byte	0x54
 10706 0b39 26000000 		.4byte	.LVL183
 10707 0b3d 3C000000 		.4byte	.LVL184
 10708 0b41 0100     		.2byte	0x1
 10709 0b43 50       		.byte	0x50
 10710 0b44 3C000000 		.4byte	.LVL184
 10711 0b48 6E000000 		.4byte	.LVL190
 10712 0b4c 0100     		.2byte	0x1
 10713 0b4e 54       		.byte	0x54
 10714 0b4f 8C000000 		.4byte	.LVL194
 10715 0b53 A8000000 		.4byte	.LFE270
 10716 0b57 0100     		.2byte	0x1
 10717 0b59 50       		.byte	0x50
 10718 0b5a 00000000 		.4byte	0
 10719 0b5e 00000000 		.4byte	0
 10720              	.LLST55:
 10721 0b62 40000000 		.4byte	.LVL185
 10722 0b66 62000000 		.4byte	.LVL189
 10723 0b6a 0600     		.2byte	0x6
 10724 0b6c 03       		.byte	0x3
 10725 0b6d 18020000 		.4byte	.LC18
 10726 0b71 9F       		.byte	0x9f
 10727 0b72 00000000 		.4byte	0
 10728 0b76 00000000 		.4byte	0
ARM GAS  C:\Users\jo\AppData\Local\Temp\ccDLAO0k.s 			page 192


 10729              	.LLST56:
 10730 0b7a 5A000000 		.4byte	.LVL187
 10731 0b7e 60000000 		.4byte	.LVL188
 10732 0b82 0600     		.2byte	0x6
 10733 0b84 03       		.byte	0x3
 10734 0b85 48020000 		.4byte	.LC19
 10735 0b89 9F       		.byte	0x9f
 10736 0b8a 00000000 		.4byte	0
 10737 0b8e 00000000 		.4byte	0
 10738              	.LLST57:
 10739 0b92 80000000 		.4byte	.LVL193
 10740 0b96 8C000000 		.4byte	.LVL194
 10741 0b9a 0600     		.2byte	0x6
 10742 0b9c 03       		.byte	0x3
 10743 0b9d E0010000 		.4byte	.LC17
 10744 0ba1 9F       		.byte	0x9f
 10745 0ba2 00000000 		.4byte	0
 10746 0ba6 00000000 		.4byte	0
 10747              	.LLST58:
 10748 0baa 00000000 		.4byte	.LVL195
 10749 0bae 07000000 		.4byte	.LVL196-1
 10750 0bb2 0100     		.2byte	0x1
 10751 0bb4 50       		.byte	0x50
 10752 0bb5 07000000 		.4byte	.LVL196-1
 10753 0bb9 12000000 		.4byte	.LFE271
 10754 0bbd 0400     		.2byte	0x4
 10755 0bbf F3       		.byte	0xf3
 10756 0bc0 01       		.uleb128 0x1
 10757 0bc1 50       		.byte	0x50
 10758 0bc2 9F       		.byte	0x9f
 10759 0bc3 00000000 		.4byte	0
 10760 0bc7 00000000 		.4byte	0
 10761              	.LLST59:
 10762 0bcb 00000000 		.4byte	.LVL195
 10763 0bcf 07000000 		.4byte	.LVL196-1
 10764 0bd3 0100     		.2byte	0x1
 10765 0bd5 51       		.byte	0x51
 10766 0bd6 07000000 		.4byte	.LVL196-1
 10767 0bda 12000000 		.4byte	.LFE271
 10768 0bde 0100     		.2byte	0x1
 10769 0be0 54       		.byte	0x54
 10770 0be1 00000000 		.4byte	0
 10771 0be5 00000000 		.4byte	0
 10772              	.LLST60:
 10773 0be9 00000000 		.4byte	.LVL197
 10774 0bed 22000000 		.4byte	.LVL199
 10775 0bf1 0100     		.2byte	0x1
 10776 0bf3 50       		.byte	0x50
 10777 0bf4 22000000 		.4byte	.LVL199
 10778 0bf8 74000000 		.4byte	.LVL210
 10779 0bfc 0100     		.2byte	0x1
 10780 0bfe 54       		.byte	0x54
 10781 0bff 74000000 		.4byte	.LVL210
 10782 0c03 94000000 		.4byte	.LFE272
 10783 0c07 0100     		.2byte	0x1
 10784 0c09 50       		.byte	0x50
 10785 0c0a 00000000 		.4byte	0
ARM GAS  C:\Users\jo\AppData\Local\Temp\ccDLAO0k.s 			page 193


 10786 0c0e 00000000 		.4byte	0
 10787              	.LLST61:
 10788 0c12 04000000 		.4byte	.LVL198
 10789 0c16 6A000000 		.4byte	.LVL208
 10790 0c1a 0100     		.2byte	0x1
 10791 0c1c 55       		.byte	0x55
 10792 0c1d 6A000000 		.4byte	.LVL208
 10793 0c21 6E000000 		.4byte	.LVL209
 10794 0c25 0100     		.2byte	0x1
 10795 0c27 50       		.byte	0x50
 10796 0c28 6E000000 		.4byte	.LVL209
 10797 0c2c 94000000 		.4byte	.LFE272
 10798 0c30 0100     		.2byte	0x1
 10799 0c32 55       		.byte	0x55
 10800 0c33 00000000 		.4byte	0
 10801 0c37 00000000 		.4byte	0
 10802              	.LLST62:
 10803 0c3b 00000000 		.4byte	.LVL197
 10804 0c3f 4C000000 		.4byte	.LVL204
 10805 0c43 0200     		.2byte	0x2
 10806 0c45 31       		.byte	0x31
 10807 0c46 9F       		.byte	0x9f
 10808 0c47 4C000000 		.4byte	.LVL204
 10809 0c4b 4E000000 		.4byte	.LVL205
 10810 0c4f 0100     		.2byte	0x1
 10811 0c51 56       		.byte	0x56
 10812 0c52 74000000 		.4byte	.LVL210
 10813 0c56 94000000 		.4byte	.LFE272
 10814 0c5a 0200     		.2byte	0x2
 10815 0c5c 31       		.byte	0x31
 10816 0c5d 9F       		.byte	0x9f
 10817 0c5e 00000000 		.4byte	0
 10818 0c62 00000000 		.4byte	0
 10819              	.LLST63:
 10820 0c66 2A000000 		.4byte	.LVL200
 10821 0c6a 36000000 		.4byte	.LVL202
 10822 0c6e 0600     		.2byte	0x6
 10823 0c70 03       		.byte	0x3
 10824 0c71 58020000 		.4byte	.LC20
 10825 0c75 9F       		.byte	0x9f
 10826 0c76 00000000 		.4byte	0
 10827 0c7a 00000000 		.4byte	0
 10828              	.LLST64:
 10829 0c7e 60000000 		.4byte	.LVL206
 10830 0c82 66000000 		.4byte	.LVL207
 10831 0c86 0600     		.2byte	0x6
 10832 0c88 03       		.byte	0x3
 10833 0c89 7C020000 		.4byte	.LC21
 10834 0c8d 9F       		.byte	0x9f
 10835 0c8e 00000000 		.4byte	0
 10836 0c92 00000000 		.4byte	0
 10837              	.LLST65:
 10838 0c96 00000000 		.4byte	.LVL211
 10839 0c9a 2C000000 		.4byte	.LVL212
 10840 0c9e 0100     		.2byte	0x1
 10841 0ca0 50       		.byte	0x50
 10842 0ca1 2C000000 		.4byte	.LVL212
ARM GAS  C:\Users\jo\AppData\Local\Temp\ccDLAO0k.s 			page 194


 10843 0ca5 58010000 		.4byte	.LVL244
 10844 0ca9 0100     		.2byte	0x1
 10845 0cab 58       		.byte	0x58
 10846 0cac 58010000 		.4byte	.LVL244
 10847 0cb0 62010000 		.4byte	.LVL246
 10848 0cb4 0100     		.2byte	0x1
 10849 0cb6 50       		.byte	0x50
 10850 0cb7 62010000 		.4byte	.LVL246
 10851 0cbb 94010000 		.4byte	.LFE273
 10852 0cbf 0100     		.2byte	0x1
 10853 0cc1 58       		.byte	0x58
 10854 0cc2 00000000 		.4byte	0
 10855 0cc6 00000000 		.4byte	0
 10856              	.LLST66:
 10857 0cca 00000000 		.4byte	.LVL211
 10858 0cce 2C000000 		.4byte	.LVL212
 10859 0cd2 0100     		.2byte	0x1
 10860 0cd4 51       		.byte	0x51
 10861 0cd5 2C000000 		.4byte	.LVL212
 10862 0cd9 B4000000 		.4byte	.LVL225
 10863 0cdd 0100     		.2byte	0x1
 10864 0cdf 55       		.byte	0x55
 10865 0ce0 BC000000 		.4byte	.LVL226
 10866 0ce4 0E010000 		.4byte	.LVL235
 10867 0ce8 0100     		.2byte	0x1
 10868 0cea 55       		.byte	0x55
 10869 0ceb 16010000 		.4byte	.LVL236
 10870 0cef 34010000 		.4byte	.LVL239
 10871 0cf3 0100     		.2byte	0x1
 10872 0cf5 55       		.byte	0x55
 10873 0cf6 36010000 		.4byte	.LVL240
 10874 0cfa 50010000 		.4byte	.LVL243
 10875 0cfe 0100     		.2byte	0x1
 10876 0d00 55       		.byte	0x55
 10877 0d01 58010000 		.4byte	.LVL244
 10878 0d05 5E010000 		.4byte	.LVL245
 10879 0d09 0100     		.2byte	0x1
 10880 0d0b 51       		.byte	0x51
 10881 0d0c 5E010000 		.4byte	.LVL245
 10882 0d10 94010000 		.4byte	.LFE273
 10883 0d14 0400     		.2byte	0x4
 10884 0d16 F3       		.byte	0xf3
 10885 0d17 01       		.uleb128 0x1
 10886 0d18 51       		.byte	0x51
 10887 0d19 9F       		.byte	0x9f
 10888 0d1a 00000000 		.4byte	0
 10889 0d1e 00000000 		.4byte	0
 10890              	.LLST67:
 10891 0d22 00000000 		.4byte	.LVL211
 10892 0d26 2C000000 		.4byte	.LVL212
 10893 0d2a 0200     		.2byte	0x2
 10894 0d2c 30       		.byte	0x30
 10895 0d2d 9F       		.byte	0x9f
 10896 0d2e 2C000000 		.4byte	.LVL212
 10897 0d32 4C000000 		.4byte	.LVL215
 10898 0d36 0100     		.2byte	0x1
 10899 0d38 56       		.byte	0x56
ARM GAS  C:\Users\jo\AppData\Local\Temp\ccDLAO0k.s 			page 195


 10900 0d39 52000000 		.4byte	.LVL216
 10901 0d3d 98000000 		.4byte	.LVL222
 10902 0d41 0100     		.2byte	0x1
 10903 0d43 56       		.byte	0x56
 10904 0d44 98000000 		.4byte	.LVL222
 10905 0d48 A4000000 		.4byte	.LVL224
 10906 0d4c 0200     		.2byte	0x2
 10907 0d4e 30       		.byte	0x30
 10908 0d4f 9F       		.byte	0x9f
 10909 0d50 A4000000 		.4byte	.LVL224
 10910 0d54 B4000000 		.4byte	.LVL225
 10911 0d58 0100     		.2byte	0x1
 10912 0d5a 56       		.byte	0x56
 10913 0d5b BC000000 		.4byte	.LVL226
 10914 0d5f 16010000 		.4byte	.LVL236
 10915 0d63 0100     		.2byte	0x1
 10916 0d65 56       		.byte	0x56
 10917 0d66 16010000 		.4byte	.LVL236
 10918 0d6a 36010000 		.4byte	.LVL240
 10919 0d6e 0200     		.2byte	0x2
 10920 0d70 30       		.byte	0x30
 10921 0d71 9F       		.byte	0x9f
 10922 0d72 36010000 		.4byte	.LVL240
 10923 0d76 58010000 		.4byte	.LVL244
 10924 0d7a 0100     		.2byte	0x1
 10925 0d7c 56       		.byte	0x56
 10926 0d7d 58010000 		.4byte	.LVL244
 10927 0d81 94010000 		.4byte	.LFE273
 10928 0d85 0200     		.2byte	0x2
 10929 0d87 30       		.byte	0x30
 10930 0d88 9F       		.byte	0x9f
 10931 0d89 00000000 		.4byte	0
 10932 0d8d 00000000 		.4byte	0
 10933              	.LLST68:
 10934 0d91 00000000 		.4byte	.LVL211
 10935 0d95 2C000000 		.4byte	.LVL212
 10936 0d99 0200     		.2byte	0x2
 10937 0d9b 30       		.byte	0x30
 10938 0d9c 9F       		.byte	0x9f
 10939 0d9d 2C000000 		.4byte	.LVL212
 10940 0da1 64000000 		.4byte	.LVL219
 10941 0da5 0100     		.2byte	0x1
 10942 0da7 59       		.byte	0x59
 10943 0da8 64000000 		.4byte	.LVL219
 10944 0dac 70000000 		.4byte	.LVL221
 10945 0db0 0200     		.2byte	0x2
 10946 0db2 30       		.byte	0x30
 10947 0db3 9F       		.byte	0x9f
 10948 0db4 70000000 		.4byte	.LVL221
 10949 0db8 B4000000 		.4byte	.LVL225
 10950 0dbc 0100     		.2byte	0x1
 10951 0dbe 59       		.byte	0x59
 10952 0dbf BC000000 		.4byte	.LVL226
 10953 0dc3 58010000 		.4byte	.LVL244
 10954 0dc7 0100     		.2byte	0x1
 10955 0dc9 59       		.byte	0x59
 10956 0dca 58010000 		.4byte	.LVL244
ARM GAS  C:\Users\jo\AppData\Local\Temp\ccDLAO0k.s 			page 196


 10957 0dce 94010000 		.4byte	.LFE273
 10958 0dd2 0200     		.2byte	0x2
 10959 0dd4 30       		.byte	0x30
 10960 0dd5 9F       		.byte	0x9f
 10961 0dd6 00000000 		.4byte	0
 10962 0dda 00000000 		.4byte	0
 10963              	.LLST69:
 10964 0dde 40000000 		.4byte	.LVL213
 10965 0de2 54000000 		.4byte	.LVL217
 10966 0de6 0100     		.2byte	0x1
 10967 0de8 54       		.byte	0x54
 10968 0de9 00000000 		.4byte	0
 10969 0ded 00000000 		.4byte	0
 10970              	.LLST70:
 10971 0df1 CC000000 		.4byte	.LVL227
 10972 0df5 D6000000 		.4byte	.LVL229
 10973 0df9 0600     		.2byte	0x6
 10974 0dfb 03       		.byte	0x3
 10975 0dfc DC020000 		.4byte	.LC24
 10976 0e00 9F       		.byte	0x9f
 10977 0e01 00000000 		.4byte	0
 10978 0e05 00000000 		.4byte	0
 10979              	.LLST71:
 10980 0e09 E6000000 		.4byte	.LVL230
 10981 0e0d EE000000 		.4byte	.LVL232
 10982 0e11 0600     		.2byte	0x6
 10983 0e13 03       		.byte	0x3
 10984 0e14 C4020000 		.4byte	.LC23
 10985 0e18 9F       		.byte	0x9f
 10986 0e19 00000000 		.4byte	0
 10987 0e1d 00000000 		.4byte	0
 10988              	.LLST72:
 10989 0e21 06010000 		.4byte	.LVL233
 10990 0e25 16010000 		.4byte	.LVL236
 10991 0e29 0600     		.2byte	0x6
 10992 0e2b 03       		.byte	0x3
 10993 0e2c 08030000 		.4byte	.LC26
 10994 0e30 9F       		.byte	0x9f
 10995 0e31 00000000 		.4byte	0
 10996 0e35 00000000 		.4byte	0
 10997              	.LLST73:
 10998 0e39 2C010000 		.4byte	.LVL237
 10999 0e3d 36010000 		.4byte	.LVL240
 11000 0e41 0600     		.2byte	0x6
 11001 0e43 03       		.byte	0x3
 11002 0e44 F8020000 		.4byte	.LC25
 11003 0e48 9F       		.byte	0x9f
 11004 0e49 00000000 		.4byte	0
 11005 0e4d 00000000 		.4byte	0
 11006              	.LLST74:
 11007 0e51 48010000 		.4byte	.LVL241
 11008 0e55 58010000 		.4byte	.LVL244
 11009 0e59 0600     		.2byte	0x6
 11010 0e5b 03       		.byte	0x3
 11011 0e5c 08030000 		.4byte	.LC26
 11012 0e60 9F       		.byte	0x9f
 11013 0e61 00000000 		.4byte	0
ARM GAS  C:\Users\jo\AppData\Local\Temp\ccDLAO0k.s 			page 197


 11014 0e65 00000000 		.4byte	0
 11015              	.LLST75:
 11016 0e69 00000000 		.4byte	.LVL249
 11017 0e6d 1E000000 		.4byte	.LVL251
 11018 0e71 0100     		.2byte	0x1
 11019 0e73 50       		.byte	0x50
 11020 0e74 1E000000 		.4byte	.LVL251
 11021 0e78 70000000 		.4byte	.LVL267
 11022 0e7c 0400     		.2byte	0x4
 11023 0e7e F3       		.byte	0xf3
 11024 0e7f 01       		.uleb128 0x1
 11025 0e80 50       		.byte	0x50
 11026 0e81 9F       		.byte	0x9f
 11027 0e82 70000000 		.4byte	.LVL267
 11028 0e86 7A000000 		.4byte	.LVL271
 11029 0e8a 0100     		.2byte	0x1
 11030 0e8c 50       		.byte	0x50
 11031 0e8d 7A000000 		.4byte	.LVL271
 11032 0e91 8C000000 		.4byte	.LVL274
 11033 0e95 0100     		.2byte	0x1
 11034 0e97 55       		.byte	0x55
 11035 0e98 8C000000 		.4byte	.LVL274
 11036 0e9c 96000000 		.4byte	.LVL278
 11037 0ea0 0100     		.2byte	0x1
 11038 0ea2 50       		.byte	0x50
 11039 0ea3 96000000 		.4byte	.LVL278
 11040 0ea7 A8000000 		.4byte	.LVL281
 11041 0eab 0100     		.2byte	0x1
 11042 0ead 55       		.byte	0x55
 11043 0eae A8000000 		.4byte	.LVL281
 11044 0eb2 C0000000 		.4byte	.LFE274
 11045 0eb6 0100     		.2byte	0x1
 11046 0eb8 50       		.byte	0x50
 11047 0eb9 00000000 		.4byte	0
 11048 0ebd 00000000 		.4byte	0
 11049              	.LLST76:
 11050 0ec1 00000000 		.4byte	.LVL249
 11051 0ec5 1E000000 		.4byte	.LVL251
 11052 0ec9 0100     		.2byte	0x1
 11053 0ecb 51       		.byte	0x51
 11054 0ecc 1E000000 		.4byte	.LVL251
 11055 0ed0 38000000 		.4byte	.LVL255
 11056 0ed4 0100     		.2byte	0x1
 11057 0ed6 56       		.byte	0x56
 11058 0ed7 38000000 		.4byte	.LVL255
 11059 0edb 3E000000 		.4byte	.LVL256
 11060 0edf 0400     		.2byte	0x4
 11061 0ee1 F3       		.byte	0xf3
 11062 0ee2 01       		.uleb128 0x1
 11063 0ee3 51       		.byte	0x51
 11064 0ee4 9F       		.byte	0x9f
 11065 0ee5 3E000000 		.4byte	.LVL256
 11066 0ee9 70000000 		.4byte	.LVL267
 11067 0eed 0100     		.2byte	0x1
 11068 0eef 56       		.byte	0x56
 11069 0ef0 70000000 		.4byte	.LVL267
 11070 0ef4 76000000 		.4byte	.LVL269
ARM GAS  C:\Users\jo\AppData\Local\Temp\ccDLAO0k.s 			page 198


 11071 0ef8 0100     		.2byte	0x1
 11072 0efa 51       		.byte	0x51
 11073 0efb 76000000 		.4byte	.LVL269
 11074 0eff 8C000000 		.4byte	.LVL274
 11075 0f03 0400     		.2byte	0x4
 11076 0f05 F3       		.byte	0xf3
 11077 0f06 01       		.uleb128 0x1
 11078 0f07 51       		.byte	0x51
 11079 0f08 9F       		.byte	0x9f
 11080 0f09 8C000000 		.4byte	.LVL274
 11081 0f0d 92000000 		.4byte	.LVL276
 11082 0f11 0100     		.2byte	0x1
 11083 0f13 51       		.byte	0x51
 11084 0f14 92000000 		.4byte	.LVL276
 11085 0f18 A8000000 		.4byte	.LVL281
 11086 0f1c 0100     		.2byte	0x1
 11087 0f1e 56       		.byte	0x56
 11088 0f1f A8000000 		.4byte	.LVL281
 11089 0f23 C0000000 		.4byte	.LFE274
 11090 0f27 0100     		.2byte	0x1
 11091 0f29 51       		.byte	0x51
 11092 0f2a 00000000 		.4byte	0
 11093 0f2e 00000000 		.4byte	0
 11094              	.LLST77:
 11095 0f32 00000000 		.4byte	.LVL249
 11096 0f36 1E000000 		.4byte	.LVL251
 11097 0f3a 0100     		.2byte	0x1
 11098 0f3c 52       		.byte	0x52
 11099 0f3d 1E000000 		.4byte	.LVL251
 11100 0f41 36000000 		.4byte	.LVL254
 11101 0f45 0100     		.2byte	0x1
 11102 0f47 57       		.byte	0x57
 11103 0f48 3E000000 		.4byte	.LVL256
 11104 0f4c 4C000000 		.4byte	.LVL259
 11105 0f50 0100     		.2byte	0x1
 11106 0f52 57       		.byte	0x57
 11107 0f53 62000000 		.4byte	.LVL264
 11108 0f57 70000000 		.4byte	.LVL267
 11109 0f5b 0100     		.2byte	0x1
 11110 0f5d 57       		.byte	0x57
 11111 0f5e 70000000 		.4byte	.LVL267
 11112 0f62 78000000 		.4byte	.LVL270
 11113 0f66 0100     		.2byte	0x1
 11114 0f68 52       		.byte	0x52
 11115 0f69 78000000 		.4byte	.LVL270
 11116 0f6d 8C000000 		.4byte	.LVL274
 11117 0f71 0400     		.2byte	0x4
 11118 0f73 F3       		.byte	0xf3
 11119 0f74 01       		.uleb128 0x1
 11120 0f75 52       		.byte	0x52
 11121 0f76 9F       		.byte	0x9f
 11122 0f77 8C000000 		.4byte	.LVL274
 11123 0f7b 94000000 		.4byte	.LVL277
 11124 0f7f 0100     		.2byte	0x1
 11125 0f81 52       		.byte	0x52
 11126 0f82 94000000 		.4byte	.LVL277
 11127 0f86 A8000000 		.4byte	.LVL281
ARM GAS  C:\Users\jo\AppData\Local\Temp\ccDLAO0k.s 			page 199


 11128 0f8a 0400     		.2byte	0x4
 11129 0f8c F3       		.byte	0xf3
 11130 0f8d 01       		.uleb128 0x1
 11131 0f8e 52       		.byte	0x52
 11132 0f8f 9F       		.byte	0x9f
 11133 0f90 A8000000 		.4byte	.LVL281
 11134 0f94 C0000000 		.4byte	.LFE274
 11135 0f98 0100     		.2byte	0x1
 11136 0f9a 52       		.byte	0x52
 11137 0f9b 00000000 		.4byte	0
 11138 0f9f 00000000 		.4byte	0
 11139              	.LLST78:
 11140 0fa3 00000000 		.4byte	.LVL249
 11141 0fa7 32000000 		.4byte	.LVL253
 11142 0fab 0100     		.2byte	0x1
 11143 0fad 53       		.byte	0x53
 11144 0fae 32000000 		.4byte	.LVL253
 11145 0fb2 36000000 		.4byte	.LVL254
 11146 0fb6 0100     		.2byte	0x1
 11147 0fb8 53       		.byte	0x53
 11148 0fb9 3E000000 		.4byte	.LVL256
 11149 0fbd 59000000 		.4byte	.LVL262-1
 11150 0fc1 0100     		.2byte	0x1
 11151 0fc3 53       		.byte	0x53
 11152 0fc4 62000000 		.4byte	.LVL264
 11153 0fc8 6A000000 		.4byte	.LVL266
 11154 0fcc 0200     		.2byte	0x2
 11155 0fce 30       		.byte	0x30
 11156 0fcf 9F       		.byte	0x9f
 11157 0fd0 6A000000 		.4byte	.LVL266
 11158 0fd4 72000000 		.4byte	.LVL268
 11159 0fd8 0100     		.2byte	0x1
 11160 0fda 53       		.byte	0x53
 11161 0fdb 72000000 		.4byte	.LVL268
 11162 0fdf 8C000000 		.4byte	.LVL274
 11163 0fe3 0400     		.2byte	0x4
 11164 0fe5 F3       		.byte	0xf3
 11165 0fe6 01       		.uleb128 0x1
 11166 0fe7 53       		.byte	0x53
 11167 0fe8 9F       		.byte	0x9f
 11168 0fe9 8C000000 		.4byte	.LVL274
 11169 0fed 8E000000 		.4byte	.LVL275
 11170 0ff1 0100     		.2byte	0x1
 11171 0ff3 53       		.byte	0x53
 11172 0ff4 8E000000 		.4byte	.LVL275
 11173 0ff8 A8000000 		.4byte	.LVL281
 11174 0ffc 0400     		.2byte	0x4
 11175 0ffe F3       		.byte	0xf3
 11176 0fff 01       		.uleb128 0x1
 11177 1000 53       		.byte	0x53
 11178 1001 9F       		.byte	0x9f
 11179 1002 A8000000 		.4byte	.LVL281
 11180 1006 C0000000 		.4byte	.LFE274
 11181 100a 0100     		.2byte	0x1
 11182 100c 53       		.byte	0x53
 11183 100d 00000000 		.4byte	0
 11184 1011 00000000 		.4byte	0
ARM GAS  C:\Users\jo\AppData\Local\Temp\ccDLAO0k.s 			page 200


 11185              	.LLST79:
 11186 1015 12000000 		.4byte	.LVL250
 11187 1019 1E000000 		.4byte	.LVL251
 11188 101d 0100     		.2byte	0x1
 11189 101f 50       		.byte	0x50
 11190 1020 1E000000 		.4byte	.LVL251
 11191 1024 30000000 		.4byte	.LVL252
 11192 1028 0100     		.2byte	0x1
 11193 102a 55       		.byte	0x55
 11194 102b 32000000 		.4byte	.LVL253
 11195 102f 38000000 		.4byte	.LVL255
 11196 1033 0100     		.2byte	0x1
 11197 1035 55       		.byte	0x55
 11198 1036 3E000000 		.4byte	.LVL256
 11199 103a 70000000 		.4byte	.LVL267
 11200 103e 0100     		.2byte	0x1
 11201 1040 55       		.byte	0x55
 11202 1041 A8000000 		.4byte	.LVL281
 11203 1045 C0000000 		.4byte	.LFE274
 11204 1049 0100     		.2byte	0x1
 11205 104b 50       		.byte	0x50
 11206 104c 00000000 		.4byte	0
 11207 1050 00000000 		.4byte	0
 11208              	.LLST80:
 11209 1054 12000000 		.4byte	.LVL250
 11210 1058 1E000000 		.4byte	.LVL251
 11211 105c 0200     		.2byte	0x2
 11212 105e 30       		.byte	0x30
 11213 105f 9F       		.byte	0x9f
 11214 1060 1E000000 		.4byte	.LVL251
 11215 1064 36000000 		.4byte	.LVL254
 11216 1068 0100     		.2byte	0x1
 11217 106a 59       		.byte	0x59
 11218 106b 3E000000 		.4byte	.LVL256
 11219 106f 70000000 		.4byte	.LVL267
 11220 1073 0100     		.2byte	0x1
 11221 1075 59       		.byte	0x59
 11222 1076 A8000000 		.4byte	.LVL281
 11223 107a C0000000 		.4byte	.LFE274
 11224 107e 0200     		.2byte	0x2
 11225 1080 30       		.byte	0x30
 11226 1081 9F       		.byte	0x9f
 11227 1082 00000000 		.4byte	0
 11228 1086 00000000 		.4byte	0
 11229              	.LLST81:
 11230 108a 42000000 		.4byte	.LVL257
 11231 108e 54000000 		.4byte	.LVL261
 11232 1092 0100     		.2byte	0x1
 11233 1094 54       		.byte	0x54
 11234 1095 54000000 		.4byte	.LVL261
 11235 1099 59000000 		.4byte	.LVL262-1
 11236 109d 0100     		.2byte	0x1
 11237 109f 52       		.byte	0x52
 11238 10a0 00000000 		.4byte	0
 11239 10a4 00000000 		.4byte	0
 11240              	.LLST82:
 11241 10a8 00000000 		.4byte	.LVL249
ARM GAS  C:\Users\jo\AppData\Local\Temp\ccDLAO0k.s 			page 201


 11242 10ac 1E000000 		.4byte	.LVL251
 11243 10b0 0200     		.2byte	0x2
 11244 10b2 30       		.byte	0x30
 11245 10b3 9F       		.byte	0x9f
 11246 10b4 1E000000 		.4byte	.LVL251
 11247 10b8 36000000 		.4byte	.LVL254
 11248 10bc 0100     		.2byte	0x1
 11249 10be 58       		.byte	0x58
 11250 10bf 3E000000 		.4byte	.LVL256
 11251 10c3 50000000 		.4byte	.LVL260
 11252 10c7 0100     		.2byte	0x1
 11253 10c9 58       		.byte	0x58
 11254 10ca 5E000000 		.4byte	.LVL263
 11255 10ce 70000000 		.4byte	.LVL267
 11256 10d2 0100     		.2byte	0x1
 11257 10d4 58       		.byte	0x58
 11258 10d5 70000000 		.4byte	.LVL267
 11259 10d9 C0000000 		.4byte	.LFE274
 11260 10dd 0200     		.2byte	0x2
 11261 10df 30       		.byte	0x30
 11262 10e0 9F       		.byte	0x9f
 11263 10e1 00000000 		.4byte	0
 11264 10e5 00000000 		.4byte	0
 11265              	.LLST83:
 11266 10e9 82000000 		.4byte	.LVL272
 11267 10ed 8C000000 		.4byte	.LVL274
 11268 10f1 0600     		.2byte	0x6
 11269 10f3 03       		.byte	0x3
 11270 10f4 34030000 		.4byte	.LC27
 11271 10f8 9F       		.byte	0x9f
 11272 10f9 00000000 		.4byte	0
 11273 10fd 00000000 		.4byte	0
 11274              	.LLST84:
 11275 1101 9E000000 		.4byte	.LVL279
 11276 1105 A8000000 		.4byte	.LVL281
 11277 1109 0600     		.2byte	0x6
 11278 110b 03       		.byte	0x3
 11279 110c 54030000 		.4byte	.LC28
 11280 1110 9F       		.byte	0x9f
 11281 1111 00000000 		.4byte	0
 11282 1115 00000000 		.4byte	0
 11283              	.LLST85:
 11284 1119 00000000 		.4byte	.LVL282
 11285 111d 28000000 		.4byte	.LVL285
 11286 1121 0100     		.2byte	0x1
 11287 1123 50       		.byte	0x50
 11288 1124 28000000 		.4byte	.LVL285
 11289 1128 9E000000 		.4byte	.LVL298
 11290 112c 0400     		.2byte	0x4
 11291 112e F3       		.byte	0xf3
 11292 112f 01       		.uleb128 0x1
 11293 1130 50       		.byte	0x50
 11294 1131 9F       		.byte	0x9f
 11295 1132 9E000000 		.4byte	.LVL298
 11296 1136 A8000000 		.4byte	.LVL301
 11297 113a 0100     		.2byte	0x1
 11298 113c 50       		.byte	0x50
ARM GAS  C:\Users\jo\AppData\Local\Temp\ccDLAO0k.s 			page 202


 11299 113d A8000000 		.4byte	.LVL301
 11300 1141 BA000000 		.4byte	.LVL304
 11301 1145 0100     		.2byte	0x1
 11302 1147 5A       		.byte	0x5a
 11303 1148 BA000000 		.4byte	.LVL304
 11304 114c C4000000 		.4byte	.LVL307
 11305 1150 0100     		.2byte	0x1
 11306 1152 50       		.byte	0x50
 11307 1153 C4000000 		.4byte	.LVL307
 11308 1157 D6000000 		.4byte	.LVL310
 11309 115b 0100     		.2byte	0x1
 11310 115d 5A       		.byte	0x5a
 11311 115e D6000000 		.4byte	.LVL310
 11312 1162 D8000000 		.4byte	.LVL311
 11313 1166 0100     		.2byte	0x1
 11314 1168 50       		.byte	0x50
 11315 1169 D8000000 		.4byte	.LVL311
 11316 116d F8000000 		.4byte	.LFE275
 11317 1171 0100     		.2byte	0x1
 11318 1173 5A       		.byte	0x5a
 11319 1174 00000000 		.4byte	0
 11320 1178 00000000 		.4byte	0
 11321              	.LLST86:
 11322 117c 00000000 		.4byte	.LVL282
 11323 1180 28000000 		.4byte	.LVL285
 11324 1184 0100     		.2byte	0x1
 11325 1186 51       		.byte	0x51
 11326 1187 28000000 		.4byte	.LVL285
 11327 118b 72000000 		.4byte	.LVL293
 11328 118f 0100     		.2byte	0x1
 11329 1191 57       		.byte	0x57
 11330 1192 72000000 		.4byte	.LVL293
 11331 1196 7A000000 		.4byte	.LVL294
 11332 119a 0400     		.2byte	0x4
 11333 119c F3       		.byte	0xf3
 11334 119d 01       		.uleb128 0x1
 11335 119e 51       		.byte	0x51
 11336 119f 9F       		.byte	0x9f
 11337 11a0 7A000000 		.4byte	.LVL294
 11338 11a4 9E000000 		.4byte	.LVL298
 11339 11a8 0100     		.2byte	0x1
 11340 11aa 57       		.byte	0x57
 11341 11ab 9E000000 		.4byte	.LVL298
 11342 11af A4000000 		.4byte	.LVL299
 11343 11b3 0100     		.2byte	0x1
 11344 11b5 51       		.byte	0x51
 11345 11b6 A4000000 		.4byte	.LVL299
 11346 11ba BA000000 		.4byte	.LVL304
 11347 11be 0400     		.2byte	0x4
 11348 11c0 F3       		.byte	0xf3
 11349 11c1 01       		.uleb128 0x1
 11350 11c2 51       		.byte	0x51
 11351 11c3 9F       		.byte	0x9f
 11352 11c4 BA000000 		.4byte	.LVL304
 11353 11c8 C0000000 		.4byte	.LVL305
 11354 11cc 0100     		.2byte	0x1
 11355 11ce 51       		.byte	0x51
ARM GAS  C:\Users\jo\AppData\Local\Temp\ccDLAO0k.s 			page 203


 11356 11cf C0000000 		.4byte	.LVL305
 11357 11d3 D6000000 		.4byte	.LVL310
 11358 11d7 0100     		.2byte	0x1
 11359 11d9 57       		.byte	0x57
 11360 11da D6000000 		.4byte	.LVL310
 11361 11de F8000000 		.4byte	.LFE275
 11362 11e2 0100     		.2byte	0x1
 11363 11e4 51       		.byte	0x51
 11364 11e5 00000000 		.4byte	0
 11365 11e9 00000000 		.4byte	0
 11366              	.LLST87:
 11367 11ed 00000000 		.4byte	.LVL282
 11368 11f1 28000000 		.4byte	.LVL285
 11369 11f5 0100     		.2byte	0x1
 11370 11f7 52       		.byte	0x52
 11371 11f8 28000000 		.4byte	.LVL285
 11372 11fc 9E000000 		.4byte	.LVL298
 11373 1200 0400     		.2byte	0x4
 11374 1202 F3       		.byte	0xf3
 11375 1203 01       		.uleb128 0x1
 11376 1204 52       		.byte	0x52
 11377 1205 9F       		.byte	0x9f
 11378 1206 9E000000 		.4byte	.LVL298
 11379 120a A6000000 		.4byte	.LVL300
 11380 120e 0100     		.2byte	0x1
 11381 1210 52       		.byte	0x52
 11382 1211 A6000000 		.4byte	.LVL300
 11383 1215 BA000000 		.4byte	.LVL304
 11384 1219 0400     		.2byte	0x4
 11385 121b F3       		.byte	0xf3
 11386 121c 01       		.uleb128 0x1
 11387 121d 52       		.byte	0x52
 11388 121e 9F       		.byte	0x9f
 11389 121f BA000000 		.4byte	.LVL304
 11390 1223 C2000000 		.4byte	.LVL306
 11391 1227 0100     		.2byte	0x1
 11392 1229 52       		.byte	0x52
 11393 122a C2000000 		.4byte	.LVL306
 11394 122e D6000000 		.4byte	.LVL310
 11395 1232 0400     		.2byte	0x4
 11396 1234 F3       		.byte	0xf3
 11397 1235 01       		.uleb128 0x1
 11398 1236 52       		.byte	0x52
 11399 1237 9F       		.byte	0x9f
 11400 1238 D6000000 		.4byte	.LVL310
 11401 123c F8000000 		.4byte	.LFE275
 11402 1240 0100     		.2byte	0x1
 11403 1242 52       		.byte	0x52
 11404 1243 00000000 		.4byte	0
 11405 1247 00000000 		.4byte	0
 11406              	.LLST88:
 11407 124b 1A000000 		.4byte	.LVL284
 11408 124f 28000000 		.4byte	.LVL285
 11409 1253 0100     		.2byte	0x1
 11410 1255 50       		.byte	0x50
 11411 1256 28000000 		.4byte	.LVL285
 11412 125a 72000000 		.4byte	.LVL293
ARM GAS  C:\Users\jo\AppData\Local\Temp\ccDLAO0k.s 			page 204


 11413 125e 0100     		.2byte	0x1
 11414 1260 5A       		.byte	0x5a
 11415 1261 7A000000 		.4byte	.LVL294
 11416 1265 9E000000 		.4byte	.LVL298
 11417 1269 0100     		.2byte	0x1
 11418 126b 5A       		.byte	0x5a
 11419 126c 00000000 		.4byte	0
 11420 1270 00000000 		.4byte	0
 11421              	.LLST89:
 11422 1274 28000000 		.4byte	.LVL285
 11423 1278 2E000000 		.4byte	.LVL286
 11424 127c 0100     		.2byte	0x1
 11425 127e 55       		.byte	0x55
 11426 127f 2E000000 		.4byte	.LVL286
 11427 1283 3C000000 		.4byte	.LVL287
 11428 1287 0100     		.2byte	0x1
 11429 1289 54       		.byte	0x54
 11430 128a 3C000000 		.4byte	.LVL287
 11431 128e 72000000 		.4byte	.LVL293
 11432 1292 0100     		.2byte	0x1
 11433 1294 55       		.byte	0x55
 11434 1295 7A000000 		.4byte	.LVL294
 11435 1299 94000000 		.4byte	.LVL297
 11436 129d 0100     		.2byte	0x1
 11437 129f 55       		.byte	0x55
 11438 12a0 00000000 		.4byte	0
 11439 12a4 00000000 		.4byte	0
 11440              	.LLST90:
 11441 12a8 00000000 		.4byte	.LVL282
 11442 12ac 18000000 		.4byte	.LVL283
 11443 12b0 0100     		.2byte	0x1
 11444 12b2 58       		.byte	0x58
 11445 12b3 1A000000 		.4byte	.LVL284
 11446 12b7 28000000 		.4byte	.LVL285
 11447 12bb 0100     		.2byte	0x1
 11448 12bd 52       		.byte	0x52
 11449 12be 28000000 		.4byte	.LVL285
 11450 12c2 2E000000 		.4byte	.LVL286
 11451 12c6 0100     		.2byte	0x1
 11452 12c8 54       		.byte	0x54
 11453 12c9 4A000000 		.4byte	.LVL288
 11454 12cd 72000000 		.4byte	.LVL293
 11455 12d1 0100     		.2byte	0x1
 11456 12d3 54       		.byte	0x54
 11457 12d4 7A000000 		.4byte	.LVL294
 11458 12d8 94000000 		.4byte	.LVL297
 11459 12dc 0100     		.2byte	0x1
 11460 12de 54       		.byte	0x54
 11461 12df 9E000000 		.4byte	.LVL298
 11462 12e3 D6000000 		.4byte	.LVL310
 11463 12e7 0100     		.2byte	0x1
 11464 12e9 58       		.byte	0x58
 11465 12ea 00000000 		.4byte	0
 11466 12ee 00000000 		.4byte	0
 11467              	.LLST91:
 11468 12f2 00000000 		.4byte	.LVL282
 11469 12f6 28000000 		.4byte	.LVL285
ARM GAS  C:\Users\jo\AppData\Local\Temp\ccDLAO0k.s 			page 205


 11470 12fa 0200     		.2byte	0x2
 11471 12fc 30       		.byte	0x30
 11472 12fd 9F       		.byte	0x9f
 11473 12fe 28000000 		.4byte	.LVL285
 11474 1302 2E000000 		.4byte	.LVL286
 11475 1306 0100     		.2byte	0x1
 11476 1308 56       		.byte	0x56
 11477 1309 4C000000 		.4byte	.LVL289
 11478 130d 72000000 		.4byte	.LVL293
 11479 1311 0100     		.2byte	0x1
 11480 1313 56       		.byte	0x56
 11481 1314 7A000000 		.4byte	.LVL294
 11482 1318 94000000 		.4byte	.LVL297
 11483 131c 0100     		.2byte	0x1
 11484 131e 56       		.byte	0x56
 11485 131f 9E000000 		.4byte	.LVL298
 11486 1323 F8000000 		.4byte	.LFE275
 11487 1327 0200     		.2byte	0x2
 11488 1329 30       		.byte	0x30
 11489 132a 9F       		.byte	0x9f
 11490 132b 00000000 		.4byte	0
 11491 132f 00000000 		.4byte	0
 11492              	.LLST92:
 11493 1333 6A000000 		.4byte	.LVL291
 11494 1337 72000000 		.4byte	.LVL293
 11495 133b 0600     		.2byte	0x6
 11496 133d 03       		.byte	0x3
 11497 133e C4030000 		.4byte	.LC32
 11498 1342 9F       		.byte	0x9f
 11499 1343 00000000 		.4byte	0
 11500 1347 00000000 		.4byte	0
 11501              	.LLST93:
 11502 134b 8C000000 		.4byte	.LVL295
 11503 134f 94000000 		.4byte	.LVL297
 11504 1353 0600     		.2byte	0x6
 11505 1355 03       		.byte	0x3
 11506 1356 AC030000 		.4byte	.LC31
 11507 135a 9F       		.byte	0x9f
 11508 135b 00000000 		.4byte	0
 11509 135f 00000000 		.4byte	0
 11510              	.LLST94:
 11511 1363 B0000000 		.4byte	.LVL302
 11512 1367 BA000000 		.4byte	.LVL304
 11513 136b 0600     		.2byte	0x6
 11514 136d 03       		.byte	0x3
 11515 136e 78030000 		.4byte	.LC29
 11516 1372 9F       		.byte	0x9f
 11517 1373 00000000 		.4byte	0
 11518 1377 00000000 		.4byte	0
 11519              	.LLST95:
 11520 137b CC000000 		.4byte	.LVL308
 11521 137f D6000000 		.4byte	.LVL310
 11522 1383 0600     		.2byte	0x6
 11523 1385 03       		.byte	0x3
 11524 1386 90030000 		.4byte	.LC30
 11525 138a 9F       		.byte	0x9f
 11526 138b 00000000 		.4byte	0
ARM GAS  C:\Users\jo\AppData\Local\Temp\ccDLAO0k.s 			page 206


 11527 138f 00000000 		.4byte	0
 11528              	.LLST96:
 11529 1393 00000000 		.4byte	.LVL312
 11530 1397 0C000000 		.4byte	.LVL313
 11531 139b 0100     		.2byte	0x1
 11532 139d 50       		.byte	0x50
 11533 139e 0C000000 		.4byte	.LVL313
 11534 13a2 5C000000 		.4byte	.LFE276
 11535 13a6 0100     		.2byte	0x1
 11536 13a8 54       		.byte	0x54
 11537 13a9 00000000 		.4byte	0
 11538 13ad 00000000 		.4byte	0
 11539              	.LLST97:
 11540 13b1 00000000 		.4byte	.LVL312
 11541 13b5 10000000 		.4byte	.LVL314
 11542 13b9 0100     		.2byte	0x1
 11543 13bb 51       		.byte	0x51
 11544 13bc 10000000 		.4byte	.LVL314
 11545 13c0 5C000000 		.4byte	.LFE276
 11546 13c4 0400     		.2byte	0x4
 11547 13c6 F3       		.byte	0xf3
 11548 13c7 01       		.uleb128 0x1
 11549 13c8 51       		.byte	0x51
 11550 13c9 9F       		.byte	0x9f
 11551 13ca 00000000 		.4byte	0
 11552 13ce 00000000 		.4byte	0
 11553              	.LLST98:
 11554 13d2 14000000 		.4byte	.LVL315
 11555 13d6 1D000000 		.4byte	.LVL316-1
 11556 13da 0100     		.2byte	0x1
 11557 13dc 50       		.byte	0x50
 11558 13dd 1D000000 		.4byte	.LVL316-1
 11559 13e1 2C000000 		.4byte	.LVL319
 11560 13e5 0100     		.2byte	0x1
 11561 13e7 55       		.byte	0x55
 11562 13e8 32000000 		.4byte	.LVL320
 11563 13ec 5C000000 		.4byte	.LFE276
 11564 13f0 0100     		.2byte	0x1
 11565 13f2 55       		.byte	0x55
 11566 13f3 00000000 		.4byte	0
 11567 13f7 00000000 		.4byte	0
 11568              	.LLST99:
 11569 13fb 1E000000 		.4byte	.LVL316
 11570 13ff 20000000 		.4byte	.LVL317
 11571 1403 0100     		.2byte	0x1
 11572 1405 50       		.byte	0x50
 11573 1406 32000000 		.4byte	.LVL320
 11574 140a 3C000000 		.4byte	.LVL321
 11575 140e 0100     		.2byte	0x1
 11576 1410 50       		.byte	0x50
 11577 1411 00000000 		.4byte	0
 11578 1415 00000000 		.4byte	0
 11579              	.LLST100:
 11580 1419 00000000 		.4byte	.LVL324
 11581 141d 0A000000 		.4byte	.LVL325
 11582 1421 0100     		.2byte	0x1
 11583 1423 50       		.byte	0x50
ARM GAS  C:\Users\jo\AppData\Local\Temp\ccDLAO0k.s 			page 207


 11584 1424 0A000000 		.4byte	.LVL325
 11585 1428 22000000 		.4byte	.LFE277
 11586 142c 0400     		.2byte	0x4
 11587 142e F3       		.byte	0xf3
 11588 142f 01       		.uleb128 0x1
 11589 1430 50       		.byte	0x50
 11590 1431 9F       		.byte	0x9f
 11591 1432 00000000 		.4byte	0
 11592 1436 00000000 		.4byte	0
 11593              	.LLST101:
 11594 143a 00000000 		.4byte	.LVL324
 11595 143e 0A000000 		.4byte	.LVL325
 11596 1442 0100     		.2byte	0x1
 11597 1444 51       		.byte	0x51
 11598 1445 0A000000 		.4byte	.LVL325
 11599 1449 22000000 		.4byte	.LFE277
 11600 144d 0400     		.2byte	0x4
 11601 144f F3       		.byte	0xf3
 11602 1450 01       		.uleb128 0x1
 11603 1451 51       		.byte	0x51
 11604 1452 9F       		.byte	0x9f
 11605 1453 00000000 		.4byte	0
 11606 1457 00000000 		.4byte	0
 11607              	.LLST102:
 11608 145b 00000000 		.4byte	.LVL324
 11609 145f 14000000 		.4byte	.LVL327
 11610 1463 0100     		.2byte	0x1
 11611 1465 51       		.byte	0x51
 11612 1466 16000000 		.4byte	.LVL328
 11613 146a 22000000 		.4byte	.LFE277
 11614 146e 0100     		.2byte	0x1
 11615 1470 51       		.byte	0x51
 11616 1471 00000000 		.4byte	0
 11617 1475 00000000 		.4byte	0
 11618              	.LLST103:
 11619 1479 00000000 		.4byte	.LVL324
 11620 147d 12000000 		.4byte	.LVL326
 11621 1481 0100     		.2byte	0x1
 11622 1483 50       		.byte	0x50
 11623 1484 16000000 		.4byte	.LVL328
 11624 1488 20000000 		.4byte	.LVL329
 11625 148c 0100     		.2byte	0x1
 11626 148e 50       		.byte	0x50
 11627 148f 00000000 		.4byte	0
 11628 1493 00000000 		.4byte	0
 11629              	.LLST104:
 11630 1497 00000000 		.4byte	.LVL330
 11631 149b 0E000000 		.4byte	.LVL331
 11632 149f 0100     		.2byte	0x1
 11633 14a1 50       		.byte	0x50
 11634 14a2 0E000000 		.4byte	.LVL331
 11635 14a6 7A000000 		.4byte	.LVL354
 11636 14aa 0400     		.2byte	0x4
 11637 14ac F3       		.byte	0xf3
 11638 14ad 01       		.uleb128 0x1
 11639 14ae 50       		.byte	0x50
 11640 14af 9F       		.byte	0x9f
ARM GAS  C:\Users\jo\AppData\Local\Temp\ccDLAO0k.s 			page 208


 11641 14b0 7A000000 		.4byte	.LVL354
 11642 14b4 7E000000 		.4byte	.LVL355
 11643 14b8 0100     		.2byte	0x1
 11644 14ba 50       		.byte	0x50
 11645 14bb 7E000000 		.4byte	.LVL355
 11646 14bf 84000000 		.4byte	.LFE278
 11647 14c3 0400     		.2byte	0x4
 11648 14c5 F3       		.byte	0xf3
 11649 14c6 01       		.uleb128 0x1
 11650 14c7 50       		.byte	0x50
 11651 14c8 9F       		.byte	0x9f
 11652 14c9 00000000 		.4byte	0
 11653 14cd 00000000 		.4byte	0
 11654              	.LLST105:
 11655 14d1 00000000 		.4byte	.LVL330
 11656 14d5 0E000000 		.4byte	.LVL331
 11657 14d9 0100     		.2byte	0x1
 11658 14db 51       		.byte	0x51
 11659 14dc 0E000000 		.4byte	.LVL331
 11660 14e0 7A000000 		.4byte	.LVL354
 11661 14e4 0400     		.2byte	0x4
 11662 14e6 F3       		.byte	0xf3
 11663 14e7 01       		.uleb128 0x1
 11664 14e8 51       		.byte	0x51
 11665 14e9 9F       		.byte	0x9f
 11666 14ea 7A000000 		.4byte	.LVL354
 11667 14ee 80000000 		.4byte	.LVL356
 11668 14f2 0100     		.2byte	0x1
 11669 14f4 51       		.byte	0x51
 11670 14f5 80000000 		.4byte	.LVL356
 11671 14f9 84000000 		.4byte	.LFE278
 11672 14fd 0400     		.2byte	0x4
 11673 14ff F3       		.byte	0xf3
 11674 1500 01       		.uleb128 0x1
 11675 1501 51       		.byte	0x51
 11676 1502 9F       		.byte	0x9f
 11677 1503 00000000 		.4byte	0
 11678 1507 00000000 		.4byte	0
 11679              	.LLST106:
 11680 150b 00000000 		.4byte	.LVL330
 11681 150f 30000000 		.4byte	.LVL336
 11682 1513 0100     		.2byte	0x1
 11683 1515 52       		.byte	0x52
 11684 1516 30000000 		.4byte	.LVL336
 11685 151a 7A000000 		.4byte	.LVL354
 11686 151e 0400     		.2byte	0x4
 11687 1520 F3       		.byte	0xf3
 11688 1521 01       		.uleb128 0x1
 11689 1522 52       		.byte	0x52
 11690 1523 9F       		.byte	0x9f
 11691 1524 7A000000 		.4byte	.LVL354
 11692 1528 84000000 		.4byte	.LFE278
 11693 152c 0100     		.2byte	0x1
 11694 152e 52       		.byte	0x52
 11695 152f 00000000 		.4byte	0
 11696 1533 00000000 		.4byte	0
 11697              	.LLST107:
ARM GAS  C:\Users\jo\AppData\Local\Temp\ccDLAO0k.s 			page 209


 11698 1537 00000000 		.4byte	.LVL330
 11699 153b 16000000 		.4byte	.LVL332
 11700 153f 0100     		.2byte	0x1
 11701 1541 50       		.byte	0x50
 11702 1542 1A000000 		.4byte	.LVL333
 11703 1546 22000000 		.4byte	.LVL334
 11704 154a 0100     		.2byte	0x1
 11705 154c 50       		.byte	0x50
 11706 154d 24000000 		.4byte	.LVL335
 11707 1551 5E000000 		.4byte	.LVL346
 11708 1555 0100     		.2byte	0x1
 11709 1557 50       		.byte	0x50
 11710 1558 60000000 		.4byte	.LVL347
 11711 155c 72000000 		.4byte	.LVL351
 11712 1560 0100     		.2byte	0x1
 11713 1562 50       		.byte	0x50
 11714 1563 74000000 		.4byte	.LVL352
 11715 1567 7E000000 		.4byte	.LVL355
 11716 156b 0100     		.2byte	0x1
 11717 156d 50       		.byte	0x50
 11718 156e 7E000000 		.4byte	.LVL355
 11719 1572 80000000 		.4byte	.LVL356
 11720 1576 0400     		.2byte	0x4
 11721 1578 F3       		.byte	0xf3
 11722 1579 01       		.uleb128 0x1
 11723 157a 50       		.byte	0x50
 11724 157b 9F       		.byte	0x9f
 11725 157c 80000000 		.4byte	.LVL356
 11726 1580 82000000 		.4byte	.LVL357
 11727 1584 0100     		.2byte	0x1
 11728 1586 50       		.byte	0x50
 11729 1587 00000000 		.4byte	0
 11730 158b 00000000 		.4byte	0
 11731              	.LLST108:
 11732 158f 24000000 		.4byte	.LVL335
 11733 1593 30000000 		.4byte	.LVL336
 11734 1597 0200     		.2byte	0x2
 11735 1599 30       		.byte	0x30
 11736 159a 9F       		.byte	0x9f
 11737 159b 30000000 		.4byte	.LVL336
 11738 159f 50000000 		.4byte	.LVL343
 11739 15a3 0100     		.2byte	0x1
 11740 15a5 57       		.byte	0x57
 11741 15a6 50000000 		.4byte	.LVL343
 11742 15aa 54000000 		.4byte	.LVL344
 11743 15ae 0300     		.2byte	0x3
 11744 15b0 7E       		.byte	0x7e
 11745 15b1 01       		.sleb128 1
 11746 15b2 9F       		.byte	0x9f
 11747 15b3 60000000 		.4byte	.LVL347
 11748 15b7 70000000 		.4byte	.LVL350
 11749 15bb 0100     		.2byte	0x1
 11750 15bd 57       		.byte	0x57
 11751 15be 74000000 		.4byte	.LVL352
 11752 15c2 7A000000 		.4byte	.LVL354
 11753 15c6 0100     		.2byte	0x1
 11754 15c8 57       		.byte	0x57
ARM GAS  C:\Users\jo\AppData\Local\Temp\ccDLAO0k.s 			page 210


 11755 15c9 80000000 		.4byte	.LVL356
 11756 15cd 84000000 		.4byte	.LFE278
 11757 15d1 0200     		.2byte	0x2
 11758 15d3 30       		.byte	0x30
 11759 15d4 9F       		.byte	0x9f
 11760 15d5 00000000 		.4byte	0
 11761 15d9 00000000 		.4byte	0
 11762              	.LLST109:
 11763 15dd 48000000 		.4byte	.LVL341
 11764 15e1 4C000000 		.4byte	.LVL342
 11765 15e5 0200     		.2byte	0x2
 11766 15e7 7C       		.byte	0x7c
 11767 15e8 00       		.sleb128 0
 11768 15e9 4C000000 		.4byte	.LVL342
 11769 15ed 50000000 		.4byte	.LVL343
 11770 15f1 0200     		.2byte	0x2
 11771 15f3 7C       		.byte	0x7c
 11772 15f4 7F       		.sleb128 -1
 11773 15f5 00000000 		.4byte	0
 11774 15f9 00000000 		.4byte	0
 11775              	.LLST110:
 11776 15fd 34000000 		.4byte	.LVL337
 11777 1601 36000000 		.4byte	.LVL338
 11778 1605 0100     		.2byte	0x1
 11779 1607 54       		.byte	0x54
 11780 1608 36000000 		.4byte	.LVL338
 11781 160c 58000000 		.4byte	.LVL345
 11782 1610 0600     		.2byte	0x6
 11783 1612 71       		.byte	0x71
 11784 1613 00       		.sleb128 0
 11785 1614 77       		.byte	0x77
 11786 1615 00       		.sleb128 0
 11787 1616 22       		.byte	0x22
 11788 1617 9F       		.byte	0x9f
 11789 1618 60000000 		.4byte	.LVL347
 11790 161c 70000000 		.4byte	.LVL350
 11791 1620 0600     		.2byte	0x6
 11792 1622 71       		.byte	0x71
 11793 1623 00       		.sleb128 0
 11794 1624 77       		.byte	0x77
 11795 1625 00       		.sleb128 0
 11796 1626 22       		.byte	0x22
 11797 1627 9F       		.byte	0x9f
 11798 1628 70000000 		.4byte	.LVL350
 11799 162c 74000000 		.4byte	.LVL352
 11800 1630 0800     		.2byte	0x8
 11801 1632 71       		.byte	0x71
 11802 1633 00       		.sleb128 0
 11803 1634 77       		.byte	0x77
 11804 1635 00       		.sleb128 0
 11805 1636 22       		.byte	0x22
 11806 1637 31       		.byte	0x31
 11807 1638 1C       		.byte	0x1c
 11808 1639 9F       		.byte	0x9f
 11809 163a 74000000 		.4byte	.LVL352
 11810 163e 7A000000 		.4byte	.LVL354
 11811 1642 0600     		.2byte	0x6
ARM GAS  C:\Users\jo\AppData\Local\Temp\ccDLAO0k.s 			page 211


 11812 1644 71       		.byte	0x71
 11813 1645 00       		.sleb128 0
 11814 1646 77       		.byte	0x77
 11815 1647 00       		.sleb128 0
 11816 1648 22       		.byte	0x22
 11817 1649 9F       		.byte	0x9f
 11818 164a 00000000 		.4byte	0
 11819 164e 00000000 		.4byte	0
 11820              	.LLST111:
 11821 1652 34000000 		.4byte	.LVL337
 11822 1656 4C000000 		.4byte	.LVL342
 11823 165a 0100     		.2byte	0x1
 11824 165c 54       		.byte	0x54
 11825 165d 60000000 		.4byte	.LVL347
 11826 1661 68000000 		.4byte	.LVL348
 11827 1665 0100     		.2byte	0x1
 11828 1667 54       		.byte	0x54
 11829 1668 74000000 		.4byte	.LVL352
 11830 166c 7A000000 		.4byte	.LVL354
 11831 1670 0100     		.2byte	0x1
 11832 1672 54       		.byte	0x54
 11833 1673 00000000 		.4byte	0
 11834 1677 00000000 		.4byte	0
 11835              	.LLST112:
 11836 167b 36000000 		.4byte	.LVL338
 11837 167f 42000000 		.4byte	.LVL339
 11838 1683 0100     		.2byte	0x1
 11839 1685 52       		.byte	0x52
 11840 1686 44000000 		.4byte	.LVL340
 11841 168a 48000000 		.4byte	.LVL341
 11842 168e 0100     		.2byte	0x1
 11843 1690 52       		.byte	0x52
 11844 1691 60000000 		.4byte	.LVL347
 11845 1695 6A000000 		.4byte	.LVL349
 11846 1699 0100     		.2byte	0x1
 11847 169b 52       		.byte	0x52
 11848 169c 74000000 		.4byte	.LVL352
 11849 16a0 76000000 		.4byte	.LVL353
 11850 16a4 0100     		.2byte	0x1
 11851 16a6 52       		.byte	0x52
 11852 16a7 00000000 		.4byte	0
 11853 16ab 00000000 		.4byte	0
 11854              	.LLST113:
 11855 16af 00000000 		.4byte	.LVL358
 11856 16b3 12000000 		.4byte	.LVL361
 11857 16b7 0100     		.2byte	0x1
 11858 16b9 50       		.byte	0x50
 11859 16ba 12000000 		.4byte	.LVL361
 11860 16be 1A000000 		.4byte	.LVL362
 11861 16c2 0100     		.2byte	0x1
 11862 16c4 57       		.byte	0x57
 11863 16c5 1A000000 		.4byte	.LVL362
 11864 16c9 26000000 		.4byte	.LVL365
 11865 16cd 0100     		.2byte	0x1
 11866 16cf 50       		.byte	0x50
 11867 16d0 26000000 		.4byte	.LVL365
 11868 16d4 44000000 		.4byte	.LFE279
ARM GAS  C:\Users\jo\AppData\Local\Temp\ccDLAO0k.s 			page 212


 11869 16d8 0100     		.2byte	0x1
 11870 16da 57       		.byte	0x57
 11871 16db 00000000 		.4byte	0
 11872 16df 00000000 		.4byte	0
 11873              	.LLST114:
 11874 16e3 00000000 		.4byte	.LVL358
 11875 16e7 12000000 		.4byte	.LVL361
 11876 16eb 0100     		.2byte	0x1
 11877 16ed 51       		.byte	0x51
 11878 16ee 12000000 		.4byte	.LVL361
 11879 16f2 1A000000 		.4byte	.LVL362
 11880 16f6 0400     		.2byte	0x4
 11881 16f8 F3       		.byte	0xf3
 11882 16f9 01       		.uleb128 0x1
 11883 16fa 51       		.byte	0x51
 11884 16fb 9F       		.byte	0x9f
 11885 16fc 1A000000 		.4byte	.LVL362
 11886 1700 26000000 		.4byte	.LVL365
 11887 1704 0100     		.2byte	0x1
 11888 1706 51       		.byte	0x51
 11889 1707 26000000 		.4byte	.LVL365
 11890 170b 44000000 		.4byte	.LFE279
 11891 170f 0100     		.2byte	0x1
 11892 1711 58       		.byte	0x58
 11893 1712 00000000 		.4byte	0
 11894 1716 00000000 		.4byte	0
 11895              	.LLST115:
 11896 171a 00000000 		.4byte	.LVL358
 11897 171e 12000000 		.4byte	.LVL361
 11898 1722 0100     		.2byte	0x1
 11899 1724 52       		.byte	0x52
 11900 1725 12000000 		.4byte	.LVL361
 11901 1729 1A000000 		.4byte	.LVL362
 11902 172d 0400     		.2byte	0x4
 11903 172f F3       		.byte	0xf3
 11904 1730 01       		.uleb128 0x1
 11905 1731 52       		.byte	0x52
 11906 1732 9F       		.byte	0x9f
 11907 1733 1A000000 		.4byte	.LVL362
 11908 1737 26000000 		.4byte	.LVL365
 11909 173b 0100     		.2byte	0x1
 11910 173d 52       		.byte	0x52
 11911 173e 26000000 		.4byte	.LVL365
 11912 1742 44000000 		.4byte	.LFE279
 11913 1746 0400     		.2byte	0x4
 11914 1748 F3       		.byte	0xf3
 11915 1749 01       		.uleb128 0x1
 11916 174a 52       		.byte	0x52
 11917 174b 9F       		.byte	0x9f
 11918 174c 00000000 		.4byte	0
 11919 1750 00000000 		.4byte	0
 11920              	.LLST116:
 11921 1754 00000000 		.4byte	.LVL358
 11922 1758 0A000000 		.4byte	.LVL360
 11923 175c 0100     		.2byte	0x1
 11924 175e 53       		.byte	0x53
 11925 175f 0A000000 		.4byte	.LVL360
ARM GAS  C:\Users\jo\AppData\Local\Temp\ccDLAO0k.s 			page 213


 11926 1763 44000000 		.4byte	.LFE279
 11927 1767 0400     		.2byte	0x4
 11928 1769 F3       		.byte	0xf3
 11929 176a 01       		.uleb128 0x1
 11930 176b 53       		.byte	0x53
 11931 176c 9F       		.byte	0x9f
 11932 176d 00000000 		.4byte	0
 11933 1771 00000000 		.4byte	0
 11934              	.LLST117:
 11935 1775 06000000 		.4byte	.LVL359
 11936 1779 12000000 		.4byte	.LVL361
 11937 177d 0600     		.2byte	0x6
 11938 177f 75       		.byte	0x75
 11939 1780 00       		.sleb128 0
 11940 1781 72       		.byte	0x72
 11941 1782 00       		.sleb128 0
 11942 1783 1C       		.byte	0x1c
 11943 1784 9F       		.byte	0x9f
 11944 1785 1A000000 		.4byte	.LVL362
 11945 1789 1C000000 		.4byte	.LVL363
 11946 178d 0600     		.2byte	0x6
 11947 178f 75       		.byte	0x75
 11948 1790 00       		.sleb128 0
 11949 1791 72       		.byte	0x72
 11950 1792 00       		.sleb128 0
 11951 1793 1C       		.byte	0x1c
 11952 1794 9F       		.byte	0x9f
 11953 1795 1C000000 		.4byte	.LVL363
 11954 1799 26000000 		.4byte	.LVL365
 11955 179d 0800     		.2byte	0x8
 11956 179f 70       		.byte	0x70
 11957 17a0 08       		.sleb128 8
 11958 17a1 94       		.byte	0x94
 11959 17a2 02       		.byte	0x2
 11960 17a3 72       		.byte	0x72
 11961 17a4 00       		.sleb128 0
 11962 17a5 1C       		.byte	0x1c
 11963 17a6 9F       		.byte	0x9f
 11964 17a7 00000000 		.4byte	0
 11965 17ab 00000000 		.4byte	0
 11966              	.LLST118:
 11967 17af 26000000 		.4byte	.LVL365
 11968 17b3 2C000000 		.4byte	.LVL367
 11969 17b7 0100     		.2byte	0x1
 11970 17b9 50       		.byte	0x50
 11971 17ba 38000000 		.4byte	.LVL368
 11972 17be 40000000 		.4byte	.LVL369
 11973 17c2 0100     		.2byte	0x1
 11974 17c4 50       		.byte	0x50
 11975 17c5 00000000 		.4byte	0
 11976 17c9 00000000 		.4byte	0
 11977              	.LLST119:
 11978 17cd 00000000 		.4byte	.LVL370
 11979 17d1 0C000000 		.4byte	.LVL371
 11980 17d5 0100     		.2byte	0x1
 11981 17d7 50       		.byte	0x50
 11982 17d8 0C000000 		.4byte	.LVL371
ARM GAS  C:\Users\jo\AppData\Local\Temp\ccDLAO0k.s 			page 214


 11983 17dc 0E000000 		.4byte	.LVL372
 11984 17e0 0400     		.2byte	0x4
 11985 17e2 F3       		.byte	0xf3
 11986 17e3 01       		.uleb128 0x1
 11987 17e4 50       		.byte	0x50
 11988 17e5 9F       		.byte	0x9f
 11989 17e6 0E000000 		.4byte	.LVL372
 11990 17ea 1E000000 		.4byte	.LVL373
 11991 17ee 0100     		.2byte	0x1
 11992 17f0 50       		.byte	0x50
 11993 17f1 1E000000 		.4byte	.LVL373
 11994 17f5 30000000 		.4byte	.LVL376
 11995 17f9 0100     		.2byte	0x1
 11996 17fb 55       		.byte	0x55
 11997 17fc 30000000 		.4byte	.LVL376
 11998 1800 34000000 		.4byte	.LVL377
 11999 1804 0400     		.2byte	0x4
 12000 1806 F3       		.byte	0xf3
 12001 1807 01       		.uleb128 0x1
 12002 1808 50       		.byte	0x50
 12003 1809 9F       		.byte	0x9f
 12004 180a 34000000 		.4byte	.LVL377
 12005 180e 40000000 		.4byte	.LVL380
 12006 1812 0100     		.2byte	0x1
 12007 1814 55       		.byte	0x55
 12008 1815 40000000 		.4byte	.LVL380
 12009 1819 43000000 		.4byte	.LVL381-1
 12010 181d 0100     		.2byte	0x1
 12011 181f 50       		.byte	0x50
 12012 1820 43000000 		.4byte	.LVL381-1
 12013 1824 44000000 		.4byte	.LFE280
 12014 1828 0400     		.2byte	0x4
 12015 182a F3       		.byte	0xf3
 12016 182b 01       		.uleb128 0x1
 12017 182c 50       		.byte	0x50
 12018 182d 9F       		.byte	0x9f
 12019 182e 00000000 		.4byte	0
 12020 1832 00000000 		.4byte	0
 12021              	.LLST120:
 12022 1836 00000000 		.4byte	.LVL370
 12023 183a 23000000 		.4byte	.LVL374-1
 12024 183e 0100     		.2byte	0x1
 12025 1840 51       		.byte	0x51
 12026 1841 23000000 		.4byte	.LVL374-1
 12027 1845 30000000 		.4byte	.LVL376
 12028 1849 0100     		.2byte	0x1
 12029 184b 54       		.byte	0x54
 12030 184c 30000000 		.4byte	.LVL376
 12031 1850 34000000 		.4byte	.LVL377
 12032 1854 0400     		.2byte	0x4
 12033 1856 F3       		.byte	0xf3
 12034 1857 01       		.uleb128 0x1
 12035 1858 51       		.byte	0x51
 12036 1859 9F       		.byte	0x9f
 12037 185a 34000000 		.4byte	.LVL377
 12038 185e 40000000 		.4byte	.LVL380
 12039 1862 0100     		.2byte	0x1
ARM GAS  C:\Users\jo\AppData\Local\Temp\ccDLAO0k.s 			page 215


 12040 1864 54       		.byte	0x54
 12041 1865 40000000 		.4byte	.LVL380
 12042 1869 43000000 		.4byte	.LVL381-1
 12043 186d 0100     		.2byte	0x1
 12044 186f 51       		.byte	0x51
 12045 1870 43000000 		.4byte	.LVL381-1
 12046 1874 44000000 		.4byte	.LFE280
 12047 1878 0400     		.2byte	0x4
 12048 187a F3       		.byte	0xf3
 12049 187b 01       		.uleb128 0x1
 12050 187c 51       		.byte	0x51
 12051 187d 9F       		.byte	0x9f
 12052 187e 00000000 		.4byte	0
 12053 1882 00000000 		.4byte	0
 12054              	.LLST121:
 12055 1886 2C000000 		.4byte	.LVL375
 12056 188a 30000000 		.4byte	.LVL376
 12057 188e 0100     		.2byte	0x1
 12058 1890 50       		.byte	0x50
 12059 1891 34000000 		.4byte	.LVL377
 12060 1895 36000000 		.4byte	.LVL378
 12061 1899 0100     		.2byte	0x1
 12062 189b 50       		.byte	0x50
 12063 189c 36000000 		.4byte	.LVL378
 12064 18a0 3A000000 		.4byte	.LVL379
 12065 18a4 0100     		.2byte	0x1
 12066 18a6 52       		.byte	0x52
 12067 18a7 00000000 		.4byte	0
 12068 18ab 00000000 		.4byte	0
 12069              		.section	.debug_aranges,"",%progbits
 12070 0000 BC000000 		.4byte	0xbc
 12071 0004 0200     		.2byte	0x2
 12072 0006 00000000 		.4byte	.Ldebug_info0
 12073 000a 04       		.byte	0x4
 12074 000b 00       		.byte	0
 12075 000c 0000     		.2byte	0
 12076 000e 0000     		.2byte	0
 12077 0010 00000000 		.4byte	.LFB261
 12078 0014 30000000 		.4byte	.LFE261-.LFB261
 12079 0018 00000000 		.4byte	.LFB281
 12080 001c 20000000 		.4byte	.LFE281-.LFB281
 12081 0020 00000000 		.4byte	.LFB282
 12082 0024 28000000 		.4byte	.LFE282-.LFB282
 12083 0028 00000000 		.4byte	.LFB264
 12084 002c 8C000000 		.4byte	.LFE264-.LFB264
 12085 0030 00000000 		.4byte	.LFB266
 12086 0034 D4000000 		.4byte	.LFE266-.LFB266
 12087 0038 00000000 		.4byte	.LFB267
 12088 003c D4000000 		.4byte	.LFE267-.LFB267
 12089 0040 00000000 		.4byte	.LFB263
 12090 0044 1C020000 		.4byte	.LFE263-.LFB263
 12091 0048 00000000 		.4byte	.LFB265
 12092 004c E4000000 		.4byte	.LFE265-.LFB265
 12093 0050 00000000 		.4byte	.LFB268
 12094 0054 14000000 		.4byte	.LFE268-.LFB268
 12095 0058 00000000 		.4byte	.LFB269
 12096 005c 0A000000 		.4byte	.LFE269-.LFB269
ARM GAS  C:\Users\jo\AppData\Local\Temp\ccDLAO0k.s 			page 216


 12097 0060 00000000 		.4byte	.LFB270
 12098 0064 A8000000 		.4byte	.LFE270-.LFB270
 12099 0068 00000000 		.4byte	.LFB271
 12100 006c 12000000 		.4byte	.LFE271-.LFB271
 12101 0070 00000000 		.4byte	.LFB272
 12102 0074 94000000 		.4byte	.LFE272-.LFB272
 12103 0078 00000000 		.4byte	.LFB273
 12104 007c 94010000 		.4byte	.LFE273-.LFB273
 12105 0080 00000000 		.4byte	.LFB274
 12106 0084 C0000000 		.4byte	.LFE274-.LFB274
 12107 0088 00000000 		.4byte	.LFB275
 12108 008c F8000000 		.4byte	.LFE275-.LFB275
 12109 0090 00000000 		.4byte	.LFB276
 12110 0094 5C000000 		.4byte	.LFE276-.LFB276
 12111 0098 00000000 		.4byte	.LFB277
 12112 009c 22000000 		.4byte	.LFE277-.LFB277
 12113 00a0 00000000 		.4byte	.LFB278
 12114 00a4 84000000 		.4byte	.LFE278-.LFB278
 12115 00a8 00000000 		.4byte	.LFB279
 12116 00ac 44000000 		.4byte	.LFE279-.LFB279
 12117 00b0 00000000 		.4byte	.LFB280
 12118 00b4 44000000 		.4byte	.LFE280-.LFB280
 12119 00b8 00000000 		.4byte	0
 12120 00bc 00000000 		.4byte	0
 12121              		.section	.debug_ranges,"",%progbits
 12122              	.Ldebug_ranges0:
 12123 0000 00000000 		.4byte	.LBB96
 12124 0004 04000000 		.4byte	.LBE96
 12125 0008 06000000 		.4byte	.LBB99
 12126 000c 30000000 		.4byte	.LBE99
 12127 0010 00000000 		.4byte	0
 12128 0014 00000000 		.4byte	0
 12129 0018 12000000 		.4byte	.LBB108
 12130 001c 22000000 		.4byte	.LBE108
 12131 0020 26000000 		.4byte	.LBB116
 12132 0024 44000000 		.4byte	.LBE116
 12133 0028 4E000000 		.4byte	.LBB117
 12134 002c 82000000 		.4byte	.LBE117
 12135 0030 00000000 		.4byte	0
 12136 0034 00000000 		.4byte	0
 12137 0038 16000000 		.4byte	.LBB109
 12138 003c 1C000000 		.4byte	.LBE109
 12139 0040 1E000000 		.4byte	.LBB112
 12140 0044 20000000 		.4byte	.LBE112
 12141 0048 68000000 		.4byte	.LBB115
 12142 004c 82000000 		.4byte	.LBE115
 12143 0050 00000000 		.4byte	0
 12144 0054 00000000 		.4byte	0
 12145 0058 80000000 		.4byte	.LBB148
 12146 005c 82000000 		.4byte	.LBE148
 12147 0060 88000000 		.4byte	.LBB151
 12148 0064 8C000000 		.4byte	.LBE151
 12149 0068 00000000 		.4byte	0
 12150 006c 00000000 		.4byte	0
 12151 0070 24000000 		.4byte	.LBB184
 12152 0074 7A000000 		.4byte	.LBE184
 12153 0078 80000000 		.4byte	.LBB195
ARM GAS  C:\Users\jo\AppData\Local\Temp\ccDLAO0k.s 			page 217


 12154 007c 84000000 		.4byte	.LBE195
 12155 0080 00000000 		.4byte	0
 12156 0084 00000000 		.4byte	0
 12157 0088 36000000 		.4byte	.LBB185
 12158 008c 54000000 		.4byte	.LBE185
 12159 0090 60000000 		.4byte	.LBB194
 12160 0094 7A000000 		.4byte	.LBE194
 12161 0098 00000000 		.4byte	0
 12162 009c 00000000 		.4byte	0
 12163 00a0 36000000 		.4byte	.LBB186
 12164 00a4 48000000 		.4byte	.LBE186
 12165 00a8 60000000 		.4byte	.LBB191
 12166 00ac 64000000 		.4byte	.LBE191
 12167 00b0 68000000 		.4byte	.LBB192
 12168 00b4 6A000000 		.4byte	.LBE192
 12169 00b8 74000000 		.4byte	.LBB193
 12170 00bc 7A000000 		.4byte	.LBE193
 12171 00c0 00000000 		.4byte	0
 12172 00c4 00000000 		.4byte	0
 12173 00c8 26000000 		.4byte	.LBB196
 12174 00cc 28000000 		.4byte	.LBE196
 12175 00d0 2C000000 		.4byte	.LBB197
 12176 00d4 40000000 		.4byte	.LBE197
 12177 00d8 00000000 		.4byte	0
 12178 00dc 00000000 		.4byte	0
 12179 00e0 00000000 		.4byte	.LFB261
 12180 00e4 30000000 		.4byte	.LFE261
 12181 00e8 00000000 		.4byte	.LFB281
 12182 00ec 20000000 		.4byte	.LFE281
 12183 00f0 00000000 		.4byte	.LFB282
 12184 00f4 28000000 		.4byte	.LFE282
 12185 00f8 00000000 		.4byte	.LFB264
 12186 00fc 8C000000 		.4byte	.LFE264
 12187 0100 00000000 		.4byte	.LFB266
 12188 0104 D4000000 		.4byte	.LFE266
 12189 0108 00000000 		.4byte	.LFB267
 12190 010c D4000000 		.4byte	.LFE267
 12191 0110 00000000 		.4byte	.LFB263
 12192 0114 1C020000 		.4byte	.LFE263
 12193 0118 00000000 		.4byte	.LFB265
 12194 011c E4000000 		.4byte	.LFE265
 12195 0120 00000000 		.4byte	.LFB268
 12196 0124 14000000 		.4byte	.LFE268
 12197 0128 00000000 		.4byte	.LFB269
 12198 012c 0A000000 		.4byte	.LFE269
 12199 0130 00000000 		.4byte	.LFB270
 12200 0134 A8000000 		.4byte	.LFE270
 12201 0138 00000000 		.4byte	.LFB271
 12202 013c 12000000 		.4byte	.LFE271
 12203 0140 00000000 		.4byte	.LFB272
 12204 0144 94000000 		.4byte	.LFE272
 12205 0148 00000000 		.4byte	.LFB273
 12206 014c 94010000 		.4byte	.LFE273
 12207 0150 00000000 		.4byte	.LFB274
 12208 0154 C0000000 		.4byte	.LFE274
 12209 0158 00000000 		.4byte	.LFB275
 12210 015c F8000000 		.4byte	.LFE275
ARM GAS  C:\Users\jo\AppData\Local\Temp\ccDLAO0k.s 			page 218


 12211 0160 00000000 		.4byte	.LFB276
 12212 0164 5C000000 		.4byte	.LFE276
 12213 0168 00000000 		.4byte	.LFB277
 12214 016c 22000000 		.4byte	.LFE277
 12215 0170 00000000 		.4byte	.LFB278
 12216 0174 84000000 		.4byte	.LFE278
 12217 0178 00000000 		.4byte	.LFB279
 12218 017c 44000000 		.4byte	.LFE279
 12219 0180 00000000 		.4byte	.LFB280
 12220 0184 44000000 		.4byte	.LFE280
 12221 0188 00000000 		.4byte	0
 12222 018c 00000000 		.4byte	0
 12223              		.section	.debug_line,"",%progbits
 12224              	.Ldebug_line0:
 12225 0000 8C0B0000 		.section	.debug_str,"MS",%progbits,1
 12225      0200BF03 
 12225      00000201 
 12225      FB0E0D00 
 12225      01010101 
 12226              	.LASF55:
 12227 0000 63685F74 		.ascii	"ch_threads_list\000"
 12227      68726561 
 12227      64735F6C 
 12227      69737400 
 12228              	.LASF56:
 12229 0010 74687265 		.ascii	"threads_queue_t\000"
 12229      6164735F 
 12229      71756575 
 12229      655F7400 
 12230              	.LASF301:
 12231 0020 49544D5F 		.ascii	"ITM_RxBuffer\000"
 12231      52784275 
 12231      66666572 
 12231      00
 12232              	.LASF110:
 12233 002d 77746D74 		.ascii	"wtmtxp\000"
 12233      787000
 12234              	.LASF141:
 12235 0034 4D454D50 		.ascii	"MEMP_TCP_PCB_LISTEN\000"
 12235      5F544350 
 12235      5F504342 
 12235      5F4C4953 
 12235      54454E00 
 12236              	.LASF180:
 12237 0048 736F5F6F 		.ascii	"so_options\000"
 12237      7074696F 
 12237      6E7300
 12238              	.LASF119:
 12239 0053 63686172 		.ascii	"char\000"
 12239      00
 12240              	.LASF310:
 12241 0058 63687670 		.ascii	"chvprintf\000"
 12241      72696E74 
 12241      6600
 12242              	.LASF90:
 12243 0062 72656761 		.ascii	"regarm_t\000"
 12243      726D5F74 
ARM GAS  C:\Users\jo\AppData\Local\Temp\ccDLAO0k.s 			page 219


 12243      00
 12244              	.LASF315:
 12245 006b 7374726C 		.ascii	"strlen\000"
 12245      656E00
 12246              	.LASF36:
 12247 0072 705F7072 		.ascii	"p_prio\000"
 12247      696F00
 12248              	.LASF159:
 12249 0079 50425546 		.ascii	"PBUF_RAM\000"
 12249      5F52414D 
 12249      00
 12250              	.LASF250:
 12251 0082 75726770 		.ascii	"urgp\000"
 12251      00
 12252              	.LASF316:
 12253 0087 474E5520 		.ascii	"GNU C 4.9.3 20141119 (release) [ARM/embedded-4_9-br"
 12253      4320342E 
 12253      392E3320 
 12253      32303134 
 12253      31313139 
 12254 00ba 616E6368 		.ascii	"anch revision 218278] -mcpu=cortex-m4 -mno-thumb-in"
 12254      20726576 
 12254      6973696F 
 12254      6E203231 
 12254      38323738 
 12255 00ed 74657277 		.ascii	"terwork -mthumb -ggdb -O2 -fomit-frame-pointer -fal"
 12255      6F726B20 
 12255      2D6D7468 
 12255      756D6220 
 12255      2D676764 
 12256 0120 69676E2D 		.ascii	"ign-functions=16 -ffunction-sections -fdata-section"
 12256      66756E63 
 12256      74696F6E 
 12256      733D3136 
 12256      202D6666 
 12257 0153 73202D66 		.ascii	"s -fno-common\000"
 12257      6E6F2D63 
 12257      6F6D6D6F 
 12257      6E00
 12258              	.LASF187:
 12259 0161 706F6C6C 		.ascii	"polltmr\000"
 12259      746D7200 
 12260              	.LASF176:
 12261 0169 7463705F 		.ascii	"tcp_accept_fn\000"
 12261      61636365 
 12261      70745F66 
 12261      6E00
 12262              	.LASF163:
 12263 0177 70627566 		.ascii	"pbuf_type\000"
 12263      5F747970 
 12263      6500
 12264              	.LASF32:
 12265 0181 73797374 		.ascii	"systime_t\000"
 12265      696D655F 
 12265      7400
 12266              	.LASF117:
 12267 018b 6D5F6F77 		.ascii	"m_owner\000"
ARM GAS  C:\Users\jo\AppData\Local\Temp\ccDLAO0k.s 			page 220


 12267      6E657200 
 12268              	.LASF113:
 12269 0193 735F7175 		.ascii	"s_queue\000"
 12269      65756500 
 12270              	.LASF240:
 12271 019b 54494D45 		.ascii	"TIME_WAIT\000"
 12271      5F574149 
 12271      5400
 12272              	.LASF0:
 12273 01a5 756E7369 		.ascii	"unsigned int\000"
 12273      676E6564 
 12273      20696E74 
 12273      00
 12274              	.LASF229:
 12275 01b2 7463705F 		.ascii	"tcp_connected_fn\000"
 12275      636F6E6E 
 12275      65637465 
 12275      645F666E 
 12275      00
 12276              	.LASF165:
 12277 01c3 6E657874 		.ascii	"next\000"
 12277      00
 12278              	.LASF296:
 12279 01c8 73746172 		.ascii	"start_offset\000"
 12279      745F6F66 
 12279      66736574 
 12279      00
 12280              	.LASF121:
 12281 01d5 42617365 		.ascii	"BaseSequentialStreamVMT\000"
 12281      53657175 
 12281      656E7469 
 12281      616C5374 
 12281      7265616D 
 12282              	.LASF53:
 12283 01ed 74687265 		.ascii	"threads_list_t\000"
 12283      6164735F 
 12283      6C697374 
 12283      5F7400
 12284              	.LASF153:
 12285 01fc 6572725F 		.ascii	"err_t\000"
 12285      7400
 12286              	.LASF139:
 12287 0202 4D454D50 		.ascii	"MEMP_UDP_PCB\000"
 12287      5F554450 
 12287      5F504342 
 12287      00
 12288              	.LASF45:
 12289 020f 705F7761 		.ascii	"p_waiting\000"
 12289      6974696E 
 12289      6700
 12290              	.LASF10:
 12291 0219 5F5F696E 		.ascii	"__int32_t\000"
 12291      7433325F 
 12291      7400
 12292              	.LASF97:
 12293 0223 73655F73 		.ascii	"se_state\000"
 12293      74617465 
ARM GAS  C:\Users\jo\AppData\Local\Temp\ccDLAO0k.s 			page 221


 12293      00
 12294              	.LASF134:
 12295 022c 7531365F 		.ascii	"u16_t\000"
 12295      7400
 12296              	.LASF171:
 12297 0232 70627566 		.ascii	"pbuf_custom\000"
 12297      5F637573 
 12297      746F6D00 
 12298              	.LASF318:
 12299 023e 433A5C55 		.ascii	"C:\\Users\\jo\\Documents\\GitHub\\ChibiOS\\demos\\S"
 12299      73657273 
 12299      5C6A6F5C 
 12299      446F6375 
 12299      6D656E74 
 12300 026a 544D3332 		.ascii	"TM32\\RT-STM32F407-DISCOVERY-uHttp\000"
 12300      5C52542D 
 12300      53544D33 
 12300      32463430 
 12300      372D4449 
 12301              	.LASF308:
 12302 028c 70627566 		.ascii	"pbuf_get_at\000"
 12302      5F676574 
 12302      5F617400 
 12303              	.LASF86:
 12304 0298 76746C69 		.ascii	"vtlist\000"
 12304      737400
 12305              	.LASF193:
 12306 029f 7263765F 		.ascii	"rcv_ann_right_edge\000"
 12306      616E6E5F 
 12306      72696768 
 12306      745F6564 
 12306      676500
 12307              	.LASF59:
 12308 02b2 63685F72 		.ascii	"ch_ready_list\000"
 12308      65616479 
 12308      5F6C6973 
 12308      7400
 12309              	.LASF88:
 12310 02c0 69646C65 		.ascii	"idle_thread_wa\000"
 12310      5F746872 
 12310      6561645F 
 12310      776100
 12311              	.LASF111:
 12312 02cf 65776D61 		.ascii	"ewmask\000"
 12312      736B00
 12313              	.LASF224:
 12314 02d6 6B656570 		.ascii	"keep_cnt_sent\000"
 12314      5F636E74 
 12314      5F73656E 
 12314      7400
 12315              	.LASF151:
 12316 02e4 4D454D50 		.ascii	"MEMP_PBUF_POOL\000"
 12316      5F504255 
 12316      465F504F 
 12316      4F4C00
 12317              	.LASF317:
 12318 02f3 2E2E2F2E 		.ascii	"../../../ext/lwip/src/core/pbuf.c\000"
ARM GAS  C:\Users\jo\AppData\Local\Temp\ccDLAO0k.s 			page 222


 12318      2E2F2E2E 
 12318      2F657874 
 12318      2F6C7769 
 12318      702F7372 
 12319              	.LASF66:
 12320 0315 76746675 		.ascii	"vtfunc_t\000"
 12320      6E635F74 
 12320      00
 12321              	.LASF107:
 12322 031e 77746F62 		.ascii	"wtobjp\000"
 12322      6A7000
 12323              	.LASF78:
 12324 0325 63685F73 		.ascii	"ch_system_debug\000"
 12324      79737465 
 12324      6D5F6465 
 12324      62756700 
 12325              	.LASF252:
 12326 0335 70627566 		.ascii	"pbuf_pool_is_empty\000"
 12326      5F706F6F 
 12326      6C5F6973 
 12326      5F656D70 
 12326      747900
 12327              	.LASF154:
 12328 0348 50425546 		.ascii	"PBUF_TRANSPORT\000"
 12328      5F545241 
 12328      4E53504F 
 12328      525400
 12329              	.LASF246:
 12330 0357 7365716E 		.ascii	"seqno\000"
 12330      6F00
 12331              	.LASF278:
 12332 035d 7461696C 		.ascii	"tail_gone\000"
 12332      5F676F6E 
 12332      6500
 12333              	.LASF191:
 12334 0367 7263765F 		.ascii	"rcv_wnd\000"
 12334      776E6400 
 12335              	.LASF303:
 12336 036f 6D656D70 		.ascii	"memp_sizes\000"
 12336      5F73697A 
 12336      657300
 12337              	.LASF22:
 12338 037a 75696E74 		.ascii	"uint32_t\000"
 12338      33325F74 
 12338      00
 12339              	.LASF146:
 12340 0383 4D454D50 		.ascii	"MEMP_NETCONN\000"
 12340      5F4E4554 
 12340      434F4E4E 
 12340      00
 12341              	.LASF200:
 12342 0390 63776E64 		.ascii	"cwnd\000"
 12342      00
 12343              	.LASF30:
 12344 0395 6576656E 		.ascii	"eventmask_t\000"
 12344      746D6173 
 12344      6B5F7400 
ARM GAS  C:\Users\jo\AppData\Local\Temp\ccDLAO0k.s 			page 223


 12345              	.LASF289:
 12346 03a1 70627566 		.ascii	"pbuf_take\000"
 12346      5F74616B 
 12346      6500
 12347              	.LASF182:
 12348 03ab 61636365 		.ascii	"accept\000"
 12348      707400
 12349              	.LASF147:
 12350 03b2 4D454D50 		.ascii	"MEMP_TCPIP_MSG_API\000"
 12350      5F544350 
 12350      49505F4D 
 12350      53475F41 
 12350      504900
 12351              	.LASF185:
 12352 03c5 6C6F6361 		.ascii	"local_port\000"
 12352      6C5F706F 
 12352      727400
 12353              	.LASF299:
 12354 03d0 73756273 		.ascii	"substr\000"
 12354      747200
 12355              	.LASF112:
 12356 03d7 63685F73 		.ascii	"ch_semaphore\000"
 12356      656D6170 
 12356      686F7265 
 12356      00
 12357              	.LASF313:
 12358 03e4 6D616C6C 		.ascii	"malloc\000"
 12358      6F6300
 12359              	.LASF28:
 12360 03eb 74707269 		.ascii	"tprio_t\000"
 12360      6F5F7400 
 12361              	.LASF267:
 12362 03f3 636F756E 		.ascii	"count\000"
 12362      7400
 12363              	.LASF268:
 12364 03f9 70627566 		.ascii	"pbuf_alloc\000"
 12364      5F616C6C 
 12364      6F6300
 12365              	.LASF68:
 12366 0404 63685F76 		.ascii	"ch_virtual_timer\000"
 12366      69727475 
 12366      616C5F74 
 12366      696D6572 
 12366      00
 12367              	.LASF19:
 12368 0415 696E7431 		.ascii	"int16_t\000"
 12368      365F7400 
 12369              	.LASF241:
 12370 041d 7463705F 		.ascii	"tcp_seg\000"
 12370      73656700 
 12371              	.LASF16:
 12372 0425 6C6F6E67 		.ascii	"long long unsigned int\000"
 12372      206C6F6E 
 12372      6720756E 
 12372      7369676E 
 12372      65642069 
 12373              	.LASF96:
ARM GAS  C:\Users\jo\AppData\Local\Temp\ccDLAO0k.s 			page 224


 12374 043c 73655F77 		.ascii	"se_wtobjp\000"
 12374      746F626A 
 12374      7000
 12375              	.LASF103:
 12376 0446 6F666673 		.ascii	"offset\000"
 12376      657400
 12377              	.LASF254:
 12378 044d 72656173 		.ascii	"reason\000"
 12378      6F6E00
 12379              	.LASF196:
 12380 0454 72747365 		.ascii	"rtseq\000"
 12380      7100
 12381              	.LASF8:
 12382 045a 5F5F7569 		.ascii	"__uint16_t\000"
 12382      6E743136 
 12382      5F7400
 12383              	.LASF31:
 12384 0465 636E745F 		.ascii	"cnt_t\000"
 12384      7400
 12385              	.LASF194:
 12386 046b 7274696D 		.ascii	"rtime\000"
 12386      6500
 12387              	.LASF205:
 12388 0471 736E645F 		.ascii	"snd_lbb\000"
 12388      6C626200 
 12389              	.LASF80:
 12390 0479 6973725F 		.ascii	"isr_cnt\000"
 12390      636E7400 
 12391              	.LASF114:
 12392 0481 735F636E 		.ascii	"s_cnt\000"
 12392      7400
 12393              	.LASF38:
 12394 0487 705F6E65 		.ascii	"p_newer\000"
 12394      77657200 
 12395              	.LASF75:
 12396 048f 63685F76 		.ascii	"ch_virtual_timers_list\000"
 12396      69727475 
 12396      616C5F74 
 12396      696D6572 
 12396      735F6C69 
 12397              	.LASF190:
 12398 04a6 7263765F 		.ascii	"rcv_nxt\000"
 12398      6E787400 
 12399              	.LASF148:
 12400 04ae 4D454D50 		.ascii	"MEMP_TCPIP_MSG_INPKT\000"
 12400      5F544350 
 12400      49505F4D 
 12400      53475F49 
 12400      4E504B54 
 12401              	.LASF161:
 12402 04c3 50425546 		.ascii	"PBUF_REF\000"
 12402      5F524546 
 12402      00
 12403              	.LASF279:
 12404 04cc 70627566 		.ascii	"pbuf_copy\000"
 12404      5F636F70 
 12404      7900
ARM GAS  C:\Users\jo\AppData\Local\Temp\ccDLAO0k.s 			page 225


 12405              	.LASF213:
 12406 04d6 756E6163 		.ascii	"unacked\000"
 12406      6B656400 
 12407              	.LASF33:
 12408 04de 74687265 		.ascii	"thread_t\000"
 12408      61645F74 
 12408      00
 12409              	.LASF34:
 12410 04e7 705F6E65 		.ascii	"p_next\000"
 12410      787400
 12411              	.LASF128:
 12412 04ee 5F5F676E 		.ascii	"__gnuc_va_list\000"
 12412      75635F76 
 12412      615F6C69 
 12412      737400
 12413              	.LASF239:
 12414 04fd 4C415354 		.ascii	"LAST_ACK\000"
 12414      5F41434B 
 12414      00
 12415              	.LASF249:
 12416 0506 63686B73 		.ascii	"chksum\000"
 12416      756D00
 12417              	.LASF1:
 12418 050d 73697A65 		.ascii	"size_t\000"
 12418      5F7400
 12419              	.LASF105:
 12420 0514 7264796D 		.ascii	"rdymsg\000"
 12420      736700
 12421              	.LASF166:
 12422 051b 7061796C 		.ascii	"payload\000"
 12422      6F616400 
 12423              	.LASF155:
 12424 0523 50425546 		.ascii	"PBUF_IP\000"
 12424      5F495000 
 12425              	.LASF309:
 12426 052b 74637069 		.ascii	"tcpip_callback_with_block\000"
 12426      705F6361 
 12426      6C6C6261 
 12426      636B5F77 
 12426      6974685F 
 12427              	.LASF218:
 12428 0545 636F6E6E 		.ascii	"connected\000"
 12428      65637465 
 12428      6400
 12429              	.LASF125:
 12430 054f 5F426F6F 		.ascii	"_Bool\000"
 12430      6C00
 12431              	.LASF162:
 12432 0555 50425546 		.ascii	"PBUF_POOL\000"
 12432      5F504F4F 
 12432      4C00
 12433              	.LASF238:
 12434 055f 434C4F53 		.ascii	"CLOSING\000"
 12434      494E4700 
 12435              	.LASF115:
 12436 0567 63685F6D 		.ascii	"ch_mutex\000"
 12436      75746578 
ARM GAS  C:\Users\jo\AppData\Local\Temp\ccDLAO0k.s 			page 226


 12436      00
 12437              	.LASF312:
 12438 0570 66726565 		.ascii	"free\000"
 12438      00
 12439              	.LASF15:
 12440 0575 5F5F7569 		.ascii	"__uint64_t\000"
 12440      6E743634 
 12440      5F7400
 12441              	.LASF152:
 12442 0580 4D454D50 		.ascii	"MEMP_MAX\000"
 12442      5F4D4158 
 12442      00
 12443              	.LASF133:
 12444 0589 73385F74 		.ascii	"s8_t\000"
 12444      00
 12445              	.LASF137:
 12446 058e 7333325F 		.ascii	"s32_t\000"
 12446      7400
 12447              	.LASF273:
 12448 0594 70627566 		.ascii	"pbuf_clen\000"
 12448      5F636C65 
 12448      6E00
 12449              	.LASF265:
 12450 059e 696E6372 		.ascii	"increment_magnitude\000"
 12450      656D656E 
 12450      745F6D61 
 12450      676E6974 
 12450      75646500 
 12451              	.LASF297:
 12452 05b2 706C7573 		.ascii	"plus\000"
 12452      00
 12453              	.LASF17:
 12454 05b7 696E7438 		.ascii	"int8_t\000"
 12454      5F7400
 12455              	.LASF288:
 12456 05be 636F7069 		.ascii	"copied_total\000"
 12456      65645F74 
 12456      6F74616C 
 12456      00
 12457              	.LASF124:
 12458 05cb 42617365 		.ascii	"BaseSequentialStream\000"
 12458      53657175 
 12458      656E7469 
 12458      616C5374 
 12458      7265616D 
 12459              	.LASF198:
 12460 05e0 64757061 		.ascii	"dupacks\000"
 12460      636B7300 
 12461              	.LASF184:
 12462 05e8 7072696F 		.ascii	"prio\000"
 12462      00
 12463              	.LASF188:
 12464 05ed 706F6C6C 		.ascii	"pollinterval\000"
 12464      696E7465 
 12464      7276616C 
 12464      00
 12465              	.LASF150:
ARM GAS  C:\Users\jo\AppData\Local\Temp\ccDLAO0k.s 			page 227


 12466 05fa 4D454D50 		.ascii	"MEMP_PBUF\000"
 12466      5F504255 
 12466      4600
 12467              	.LASF219:
 12468 0604 706F6C6C 		.ascii	"poll\000"
 12468      00
 12469              	.LASF320:
 12470 0609 63687072 		.ascii	"chprintf\000"
 12470      696E7466 
 12470      00
 12471              	.LASF71:
 12472 0612 76745F64 		.ascii	"vt_delta\000"
 12472      656C7461 
 12472      00
 12473              	.LASF263:
 12474 061b 70627566 		.ascii	"pbuf_header\000"
 12474      5F686561 
 12474      64657200 
 12475              	.LASF274:
 12476 0627 70627566 		.ascii	"pbuf_realloc\000"
 12476      5F726561 
 12476      6C6C6F63 
 12476      00
 12477              	.LASF203:
 12478 0634 736E645F 		.ascii	"snd_wl1\000"
 12478      776C3100 
 12479              	.LASF63:
 12480 063c 725F6E65 		.ascii	"r_newer\000"
 12480      77657200 
 12481              	.LASF292:
 12482 0644 70627566 		.ascii	"pbuf_memcmp\000"
 12482      5F6D656D 
 12482      636D7000 
 12483              	.LASF76:
 12484 0650 76745F6C 		.ascii	"vt_lasttime\000"
 12484      61737474 
 12484      696D6500 
 12485              	.LASF208:
 12486 065c 61636B65 		.ascii	"acked\000"
 12486      6400
 12487              	.LASF237:
 12488 0662 434C4F53 		.ascii	"CLOSE_WAIT\000"
 12488      455F5741 
 12488      495400
 12489              	.LASF26:
 12490 066d 74737461 		.ascii	"tstate_t\000"
 12490      74655F74 
 12490      00
 12491              	.LASF95:
 12492 0676 73655F74 		.ascii	"se_tp\000"
 12492      7000
 12493              	.LASF264:
 12494 067c 68656164 		.ascii	"header_size_increment\000"
 12494      65725F73 
 12494      697A655F 
 12494      696E6372 
 12494      656D656E 
ARM GAS  C:\Users\jo\AppData\Local\Temp\ccDLAO0k.s 			page 228


 12495              	.LASF14:
 12496 0692 6C6F6E67 		.ascii	"long long int\000"
 12496      206C6F6E 
 12496      6720696E 
 12496      7400
 12497              	.LASF284:
 12498 06a0 70627566 		.ascii	"pbuf_copy_partial\000"
 12498      5F636F70 
 12498      795F7061 
 12498      72746961 
 12498      6C00
 12499              	.LASF39:
 12500 06b2 705F6F6C 		.ascii	"p_older\000"
 12500      64657200 
 12501              	.LASF94:
 12502 06ba 73655F74 		.ascii	"se_time\000"
 12502      696D6500 
 12503              	.LASF41:
 12504 06c2 705F7374 		.ascii	"p_stklimit\000"
 12504      6B6C696D 
 12504      697400
 12505              	.LASF12:
 12506 06cd 5F5F7569 		.ascii	"__uint32_t\000"
 12506      6E743332 
 12506      5F7400
 12507              	.LASF216:
 12508 06d8 73656E74 		.ascii	"sent\000"
 12508      00
 12509              	.LASF18:
 12510 06dd 75696E74 		.ascii	"uint8_t\000"
 12510      385F7400 
 12511              	.LASF101:
 12512 06e5 74625F62 		.ascii	"tb_buffer\000"
 12512      75666665 
 12512      7200
 12513              	.LASF204:
 12514 06ef 736E645F 		.ascii	"snd_wl2\000"
 12514      776C3200 
 12515              	.LASF242:
 12516 06f7 6F766572 		.ascii	"oversize_left\000"
 12516      73697A65 
 12516      5F6C6566 
 12516      7400
 12517              	.LASF51:
 12518 0705 705F6D70 		.ascii	"p_mpool\000"
 12518      6F6F6C00 
 12519              	.LASF49:
 12520 070d 705F6D74 		.ascii	"p_mtxlist\000"
 12520      786C6973 
 12520      7400
 12521              	.LASF228:
 12522 0717 7463705F 		.ascii	"tcp_err_fn\000"
 12522      6572725F 
 12522      666E00
 12523              	.LASF305:
 12524 0722 70627566 		.ascii	"pbuf_free_ooseq_pending\000"
 12524      5F667265 
ARM GAS  C:\Users\jo\AppData\Local\Temp\ccDLAO0k.s 			page 229


 12524      655F6F6F 
 12524      7365715F 
 12524      70656E64 
 12525              	.LASF54:
 12526 073a 63685F74 		.ascii	"ch_thread\000"
 12526      68726561 
 12526      6400
 12527              	.LASF99:
 12528 0744 74625F73 		.ascii	"tb_size\000"
 12528      697A6500 
 12529              	.LASF266:
 12530 074c 70627566 		.ascii	"pbuf_free\000"
 12530      5F667265 
 12530      6500
 12531              	.LASF131:
 12532 0756 76615F6C 		.ascii	"va_list\000"
 12532      69737400 
 12533              	.LASF77:
 12534 075e 73797374 		.ascii	"system_debug_t\000"
 12534      656D5F64 
 12534      65627567 
 12534      5F7400
 12535              	.LASF145:
 12536 076d 4D454D50 		.ascii	"MEMP_NETBUF\000"
 12536      5F4E4554 
 12536      42554600 
 12537              	.LASF57:
 12538 0779 63685F74 		.ascii	"ch_threads_queue\000"
 12538      68726561 
 12538      64735F71 
 12538      75657565 
 12538      00
 12539              	.LASF122:
 12540 078a 77726974 		.ascii	"write\000"
 12540      6500
 12541              	.LASF247:
 12542 0790 61636B6E 		.ascii	"ackno\000"
 12542      6F00
 12543              	.LASF60:
 12544 0796 725F7175 		.ascii	"r_queue\000"
 12544      65756500 
 12545              	.LASF298:
 12546 079e 70627566 		.ascii	"pbuf_strstr\000"
 12546      5F737472 
 12546      73747200 
 12547              	.LASF223:
 12548 07aa 70657273 		.ascii	"persist_backoff\000"
 12548      6973745F 
 12548      6261636B 
 12548      6F666600 
 12549              	.LASF29:
 12550 07ba 6D73675F 		.ascii	"msg_t\000"
 12550      7400
 12551              	.LASF140:
 12552 07c0 4D454D50 		.ascii	"MEMP_TCP_PCB\000"
 12552      5F544350 
 12552      5F504342 
ARM GAS  C:\Users\jo\AppData\Local\Temp\ccDLAO0k.s 			page 230


 12552      00
 12553              	.LASF132:
 12554 07cd 75385F74 		.ascii	"u8_t\000"
 12554      00
 12555              	.LASF43:
 12556 07d2 705F666C 		.ascii	"p_flags\000"
 12556      61677300 
 12557              	.LASF269:
 12558 07da 6C617965 		.ascii	"layer\000"
 12558      7200
 12559              	.LASF6:
 12560 07e0 5F5F696E 		.ascii	"__int16_t\000"
 12560      7431365F 
 12560      7400
 12561              	.LASF130:
 12562 07ea 5F5F6170 		.ascii	"__ap\000"
 12562      00
 12563              	.LASF67:
 12564 07ef 76697274 		.ascii	"virtual_timer_t\000"
 12564      75616C5F 
 12564      74696D65 
 12564      725F7400 
 12565              	.LASF253:
 12566 07ff 6F73616C 		.ascii	"osalSysHalt\000"
 12566      53797348 
 12566      616C7400 
 12567              	.LASF126:
 12568 080b 49544D53 		.ascii	"ITMStreamVMT\000"
 12568      74726561 
 12568      6D564D54 
 12568      00
 12569              	.LASF287:
 12570 0818 6275665F 		.ascii	"buf_copy_len\000"
 12570      636F7079 
 12570      5F6C656E 
 12570      00
 12571              	.LASF282:
 12572 0825 6F666673 		.ascii	"offset_to\000"
 12572      65745F74 
 12572      6F00
 12573              	.LASF186:
 12574 082f 72656D6F 		.ascii	"remote_port\000"
 12574      74655F70 
 12574      6F727400 
 12575              	.LASF42:
 12576 083b 705F7374 		.ascii	"p_state\000"
 12576      61746500 
 12577              	.LASF270:
 12578 0843 72656D5F 		.ascii	"rem_len\000"
 12578      6C656E00 
 12579              	.LASF100:
 12580 084b 74625F70 		.ascii	"tb_ptr\000"
 12580      747200
 12581              	.LASF199:
 12582 0852 6C617374 		.ascii	"lastack\000"
 12582      61636B00 
 12583              	.LASF192:
ARM GAS  C:\Users\jo\AppData\Local\Temp\ccDLAO0k.s 			page 231


 12584 085a 7263765F 		.ascii	"rcv_ann_wnd\000"
 12584      616E6E5F 
 12584      776E6400 
 12585              	.LASF64:
 12586 0866 725F6F6C 		.ascii	"r_older\000"
 12586      64657200 
 12587              	.LASF143:
 12588 086e 4D454D50 		.ascii	"MEMP_REASSDATA\000"
 12588      5F524541 
 12588      53534441 
 12588      544100
 12589              	.LASF261:
 12590 087d 7061796C 		.ascii	"payload_mem_len\000"
 12590      6F61645F 
 12590      6D656D5F 
 12590      6C656E00 
 12591              	.LASF225:
 12592 088d 7463705F 		.ascii	"tcp_recv_fn\000"
 12592      72656376 
 12592      5F666E00 
 12593              	.LASF280:
 12594 0899 705F746F 		.ascii	"p_to\000"
 12594      00
 12595              	.LASF127:
 12596 089e 49544D53 		.ascii	"ITMStream\000"
 12596      74726561 
 12596      6D00
 12597              	.LASF156:
 12598 08a8 50425546 		.ascii	"PBUF_LINK\000"
 12598      5F4C494E 
 12598      4B00
 12599              	.LASF92:
 12600 08b2 636F6E74 		.ascii	"context\000"
 12600      65787400 
 12601              	.LASF291:
 12602 08ba 70627566 		.ascii	"pbuf_coalesce\000"
 12602      5F636F61 
 12602      6C657363 
 12602      6500
 12603              	.LASF47:
 12604 08c8 705F6D73 		.ascii	"p_msg\000"
 12604      6700
 12605              	.LASF104:
 12606 08ce 746D5F63 		.ascii	"tm_calibration_t\000"
 12606      616C6962 
 12606      72617469 
 12606      6F6E5F74 
 12606      00
 12607              	.LASF285:
 12608 08df 64617461 		.ascii	"dataptr\000"
 12608      70747200 
 12609              	.LASF25:
 12610 08e7 746D6F64 		.ascii	"tmode_t\000"
 12610      655F7400 
 12611              	.LASF232:
 12612 08ef 53594E5F 		.ascii	"SYN_SENT\000"
 12612      53454E54 
ARM GAS  C:\Users\jo\AppData\Local\Temp\ccDLAO0k.s 			page 232


 12612      00
 12613              	.LASF227:
 12614 08f8 7463705F 		.ascii	"tcp_poll_fn\000"
 12614      706F6C6C 
 12614      5F666E00 
 12615              	.LASF300:
 12616 0904 73756273 		.ascii	"substr_len\000"
 12616      74725F6C 
 12616      656E00
 12617              	.LASF40:
 12618 090f 705F6E61 		.ascii	"p_name\000"
 12618      6D6500
 12619              	.LASF20:
 12620 0916 75696E74 		.ascii	"uint16_t\000"
 12620      31365F74 
 12620      00
 12621              	.LASF52:
 12622 091f 74687265 		.ascii	"thread_reference_t\000"
 12622      61645F72 
 12622      65666572 
 12622      656E6365 
 12622      5F7400
 12623              	.LASF220:
 12624 0932 65727266 		.ascii	"errf\000"
 12624      00
 12625              	.LASF157:
 12626 0937 50425546 		.ascii	"PBUF_RAW\000"
 12626      5F524157 
 12626      00
 12627              	.LASF206:
 12628 0940 736E645F 		.ascii	"snd_wnd\000"
 12628      776E6400 
 12629              	.LASF319:
 12630 0948 7463705F 		.ascii	"tcp_state\000"
 12630      73746174 
 12630      6500
 12631              	.LASF24:
 12632 0952 7274636E 		.ascii	"rtcnt_t\000"
 12632      745F7400 
 12633              	.LASF172:
 12634 095a 63757374 		.ascii	"custom_free_function\000"
 12634      6F6D5F66 
 12634      7265655F 
 12634      66756E63 
 12634      74696F6E 
 12635              	.LASF81:
 12636 096f 6C6F636B 		.ascii	"lock_cnt\000"
 12636      5F636E74 
 12636      00
 12637              	.LASF214:
 12638 0978 6F6F7365 		.ascii	"ooseq\000"
 12638      7100
 12639              	.LASF169:
 12640 097e 666C6167 		.ascii	"flags\000"
 12640      7300
 12641              	.LASF281:
 12642 0984 705F6672 		.ascii	"p_from\000"
ARM GAS  C:\Users\jo\AppData\Local\Temp\ccDLAO0k.s 			page 233


 12642      6F6D00
 12643              	.LASF50:
 12644 098b 705F7265 		.ascii	"p_realprio\000"
 12644      616C7072 
 12644      696F00
 12645              	.LASF230:
 12646 0996 434C4F53 		.ascii	"CLOSED\000"
 12646      454400
 12647              	.LASF136:
 12648 099d 7533325F 		.ascii	"u32_t\000"
 12648      7400
 12649              	.LASF7:
 12650 09a3 73686F72 		.ascii	"short int\000"
 12650      7420696E 
 12650      7400
 12651              	.LASF65:
 12652 09ad 725F6375 		.ascii	"r_current\000"
 12652      7272656E 
 12652      7400
 12653              	.LASF48:
 12654 09b7 705F6570 		.ascii	"p_epending\000"
 12654      656E6469 
 12654      6E6700
 12655              	.LASF116:
 12656 09c2 6D5F7175 		.ascii	"m_queue\000"
 12656      65756500 
 12657              	.LASF11:
 12658 09ca 6C6F6E67 		.ascii	"long int\000"
 12658      20696E74 
 12658      00
 12659              	.LASF93:
 12660 09d3 706F7274 		.ascii	"port_intctx\000"
 12660      5F696E74 
 12660      63747800 
 12661              	.LASF170:
 12662 09df 70627566 		.ascii	"pbuf_free_custom_fn\000"
 12662      5F667265 
 12662      655F6375 
 12662      73746F6D 
 12662      5F666E00 
 12663              	.LASF262:
 12664 09f3 70627566 		.ascii	"pbuf_alloced_custom\000"
 12664      5F616C6C 
 12664      6F636564 
 12664      5F637573 
 12664      746F6D00 
 12665              	.LASF259:
 12666 0a07 6C656E67 		.ascii	"length\000"
 12666      746800
 12667              	.LASF212:
 12668 0a0e 756E7365 		.ascii	"unsent\000"
 12668      6E7400
 12669              	.LASF251:
 12670 0a15 74637069 		.ascii	"tcpip_callback_fn\000"
 12670      705F6361 
 12670      6C6C6261 
 12670      636B5F66 
ARM GAS  C:\Users\jo\AppData\Local\Temp\ccDLAO0k.s 			page 234


 12670      6E00
 12671              	.LASF294:
 12672 0a27 70627566 		.ascii	"pbuf_memfind\000"
 12672      5F6D656D 
 12672      66696E64 
 12672      00
 12673              	.LASF195:
 12674 0a34 72747465 		.ascii	"rttest\000"
 12674      737400
 12675              	.LASF84:
 12676 0a3b 63685F73 		.ascii	"ch_system\000"
 12676      79737465 
 12676      6D00
 12677              	.LASF149:
 12678 0a45 4D454D50 		.ascii	"MEMP_SYS_TIMEOUT\000"
 12678      5F535953 
 12678      5F54494D 
 12678      454F5554 
 12678      00
 12679              	.LASF283:
 12680 0a56 6F666673 		.ascii	"offset_from\000"
 12680      65745F66 
 12680      726F6D00 
 12681              	.LASF189:
 12682 0a62 6C617374 		.ascii	"last_timer\000"
 12682      5F74696D 
 12682      657200
 12683              	.LASF276:
 12684 0a6d 70627566 		.ascii	"pbuf_chain\000"
 12684      5F636861 
 12684      696E00
 12685              	.LASF178:
 12686 0a78 6C6F6361 		.ascii	"local_ip\000"
 12686      6C5F6970 
 12686      00
 12687              	.LASF23:
 12688 0a81 75696E74 		.ascii	"uint64_t\000"
 12688      36345F74 
 12688      00
 12689              	.LASF37:
 12690 0a8a 705F6374 		.ascii	"p_ctx\000"
 12690      7800
 12691              	.LASF85:
 12692 0a90 726C6973 		.ascii	"rlist\000"
 12692      7400
 12693              	.LASF211:
 12694 0a96 756E7365 		.ascii	"unsent_oversize\000"
 12694      6E745F6F 
 12694      76657273 
 12694      697A6500 
 12695              	.LASF321:
 12696 0aa6 70627566 		.ascii	"pbuf_free_ooseq_callback\000"
 12696      5F667265 
 12696      655F6F6F 
 12696      7365715F 
 12696      63616C6C 
 12697              	.LASF202:
ARM GAS  C:\Users\jo\AppData\Local\Temp\ccDLAO0k.s 			page 235


 12698 0abf 736E645F 		.ascii	"snd_nxt\000"
 12698      6E787400 
 12699              	.LASF286:
 12700 0ac7 6C656674 		.ascii	"left\000"
 12700      00
 12701              	.LASF138:
 12702 0acc 6D656D5F 		.ascii	"mem_ptr_t\000"
 12702      7074725F 
 12702      7400
 12703              	.LASF4:
 12704 0ad6 5F5F7569 		.ascii	"__uint8_t\000"
 12704      6E74385F 
 12704      7400
 12705              	.LASF234:
 12706 0ae0 45535441 		.ascii	"ESTABLISHED\000"
 12706      424C4953 
 12706      48454400 
 12707              	.LASF207:
 12708 0aec 736E645F 		.ascii	"snd_wnd_max\000"
 12708      776E645F 
 12708      6D617800 
 12709              	.LASF123:
 12710 0af8 72656164 		.ascii	"read\000"
 12710      00
 12711              	.LASF293:
 12712 0afd 73746172 		.ascii	"start\000"
 12712      7400
 12713              	.LASF290:
 12714 0b03 746F7461 		.ascii	"total_copy_len\000"
 12714      6C5F636F 
 12714      70795F6C 
 12714      656E00
 12715              	.LASF144:
 12716 0b12 4D454D50 		.ascii	"MEMP_FRAG_PBUF\000"
 12716      5F465241 
 12716      475F5042 
 12716      554600
 12717              	.LASF201:
 12718 0b21 73737468 		.ascii	"ssthresh\000"
 12718      72657368 
 12718      00
 12719              	.LASF306:
 12720 0b2a 70627566 		.ascii	"pbuf_ref\000"
 12720      5F726566 
 12720      00
 12721              	.LASF209:
 12722 0b33 736E645F 		.ascii	"snd_buf\000"
 12722      62756600 
 12723              	.LASF248:
 12724 0b3b 5F686472 		.ascii	"_hdrlen_rsvd_flags\000"
 12724      6C656E5F 
 12724      72737664 
 12724      5F666C61 
 12724      677300
 12725              	.LASF35:
 12726 0b4e 705F7072 		.ascii	"p_prev\000"
 12726      657600
ARM GAS  C:\Users\jo\AppData\Local\Temp\ccDLAO0k.s 			page 236


 12727              	.LASF89:
 12728 0b55 73697A65 		.ascii	"sizetype\000"
 12728      74797065 
 12728      00
 12729              	.LASF27:
 12730 0b5e 74726566 		.ascii	"trefs_t\000"
 12730      735F7400 
 12731              	.LASF13:
 12732 0b66 6C6F6E67 		.ascii	"long unsigned int\000"
 12732      20756E73 
 12732      69676E65 
 12732      6420696E 
 12732      7400
 12733              	.LASF58:
 12734 0b78 72656164 		.ascii	"ready_list_t\000"
 12734      795F6C69 
 12734      73745F74 
 12734      00
 12735              	.LASF243:
 12736 0b85 74637068 		.ascii	"tcphdr\000"
 12736      647200
 12737              	.LASF135:
 12738 0b8c 7331365F 		.ascii	"s16_t\000"
 12738      7400
 12739              	.LASF21:
 12740 0b92 696E7433 		.ascii	"int32_t\000"
 12740      325F7400 
 12741              	.LASF158:
 12742 0b9a 70627566 		.ascii	"pbuf_layer\000"
 12742      5F6C6179 
 12742      657200
 12743              	.LASF215:
 12744 0ba5 72656675 		.ascii	"refused_data\000"
 12744      7365645F 
 12744      64617461 
 12744      00
 12745              	.LASF82:
 12746 0bb2 74726163 		.ascii	"trace_buffer\000"
 12746      655F6275 
 12746      66666572 
 12746      00
 12747              	.LASF109:
 12748 0bbf 77747365 		.ascii	"wtsemp\000"
 12748      6D7000
 12749              	.LASF98:
 12750 0bc6 63685F73 		.ascii	"ch_swc_event_t\000"
 12750      77635F65 
 12750      76656E74 
 12750      5F7400
 12751              	.LASF271:
 12752 0bd5 6E65775F 		.ascii	"new_len\000"
 12752      6C656E00 
 12753              	.LASF120:
 12754 0bdd 6D757465 		.ascii	"mutex_t\000"
 12754      785F7400 
 12755              	.LASF244:
 12756 0be5 7463705F 		.ascii	"tcp_hdr\000"
ARM GAS  C:\Users\jo\AppData\Local\Temp\ccDLAO0k.s 			page 237


 12756      68647200 
 12757              	.LASF256:
 12758 0bed 636F7079 		.ascii	"copy_from\000"
 12758      5F66726F 
 12758      6D00
 12759              	.LASF73:
 12760 0bf7 76745F70 		.ascii	"vt_par\000"
 12760      617200
 12761              	.LASF168:
 12762 0bfe 74797065 		.ascii	"type\000"
 12762      00
 12763              	.LASF272:
 12764 0c03 67726F77 		.ascii	"grow\000"
 12764      00
 12765              	.LASF5:
 12766 0c08 756E7369 		.ascii	"unsigned char\000"
 12766      676E6564 
 12766      20636861 
 12766      7200
 12767              	.LASF235:
 12768 0c16 46494E5F 		.ascii	"FIN_WAIT_1\000"
 12768      57414954 
 12768      5F3100
 12769              	.LASF236:
 12770 0c21 46494E5F 		.ascii	"FIN_WAIT_2\000"
 12770      57414954 
 12770      5F3200
 12771              	.LASF74:
 12772 0c2c 76697274 		.ascii	"virtual_timers_list_t\000"
 12772      75616C5F 
 12772      74696D65 
 12772      72735F6C 
 12772      6973745F 
 12773              	.LASF44:
 12774 0c42 705F7265 		.ascii	"p_refs\000"
 12774      667300
 12775              	.LASF142:
 12776 0c49 4D454D50 		.ascii	"MEMP_TCP_SEG\000"
 12776      5F544350 
 12776      5F534547 
 12776      00
 12777              	.LASF79:
 12778 0c56 70616E69 		.ascii	"panic_msg\000"
 12778      635F6D73 
 12778      6700
 12779              	.LASF295:
 12780 0c60 6D656D5F 		.ascii	"mem_len\000"
 12780      6C656E00 
 12781              	.LASF164:
 12782 0c68 70627566 		.ascii	"pbuf\000"
 12782      00
 12783              	.LASF221:
 12784 0c6d 6B656570 		.ascii	"keep_idle\000"
 12784      5F69646C 
 12784      6500
 12785              	.LASF181:
 12786 0c77 63616C6C 		.ascii	"callback_arg\000"
ARM GAS  C:\Users\jo\AppData\Local\Temp\ccDLAO0k.s 			page 238


 12786      6261636B 
 12786      5F617267 
 12786      00
 12787              	.LASF231:
 12788 0c84 4C495354 		.ascii	"LISTEN\000"
 12788      454E00
 12789              	.LASF91:
 12790 0c8b 73746B61 		.ascii	"stkalign_t\000"
 12790      6C69676E 
 12790      5F7400
 12791              	.LASF174:
 12792 0c96 61646472 		.ascii	"addr\000"
 12792      00
 12793              	.LASF87:
 12794 0c9b 6D61696E 		.ascii	"mainthread\000"
 12794      74687265 
 12794      616400
 12795              	.LASF183:
 12796 0ca6 73746174 		.ascii	"state\000"
 12796      6500
 12797              	.LASF167:
 12798 0cac 746F745F 		.ascii	"tot_len\000"
 12798      6C656E00 
 12799              	.LASF277:
 12800 0cb4 70627566 		.ascii	"pbuf_dechain\000"
 12800      5F646563 
 12800      6861696E 
 12800      00
 12801              	.LASF311:
 12802 0cc1 63685379 		.ascii	"chSysHalt\000"
 12802      7348616C 
 12802      7400
 12803              	.LASF226:
 12804 0ccb 7463705F 		.ascii	"tcp_sent_fn\000"
 12804      73656E74 
 12804      5F666E00 
 12805              	.LASF69:
 12806 0cd7 76745F6E 		.ascii	"vt_next\000"
 12806      65787400 
 12807              	.LASF260:
 12808 0cdf 7061796C 		.ascii	"payload_mem\000"
 12808      6F61645F 
 12808      6D656D00 
 12809              	.LASF210:
 12810 0ceb 736E645F 		.ascii	"snd_queuelen\000"
 12810      71756575 
 12810      656C656E 
 12810      00
 12811              	.LASF83:
 12812 0cf8 63685F73 		.ascii	"ch_system_t\000"
 12812      79737465 
 12812      6D5F7400 
 12813              	.LASF108:
 12814 0d04 77747472 		.ascii	"wttrp\000"
 12814      7000
 12815              	.LASF129:
 12816 0d0a 5F5F7661 		.ascii	"__va_list\000"
ARM GAS  C:\Users\jo\AppData\Local\Temp\ccDLAO0k.s 			page 239


 12816      5F6C6973 
 12816      7400
 12817              	.LASF217:
 12818 0d14 72656376 		.ascii	"recv\000"
 12818      00
 12819              	.LASF102:
 12820 0d19 63685F74 		.ascii	"ch_trace_buffer_t\000"
 12820      72616365 
 12820      5F627566 
 12820      6665725F 
 12820      7400
 12821              	.LASF118:
 12822 0d2b 6D5F6E65 		.ascii	"m_next\000"
 12822      787400
 12823              	.LASF3:
 12824 0d32 7369676E 		.ascii	"signed char\000"
 12824      65642063 
 12824      68617200 
 12825              	.LASF177:
 12826 0d3e 7463705F 		.ascii	"tcp_pcb\000"
 12826      70636200 
 12827              	.LASF9:
 12828 0d46 73686F72 		.ascii	"short unsigned int\000"
 12828      7420756E 
 12828      7369676E 
 12828      65642069 
 12828      6E7400
 12829              	.LASF62:
 12830 0d59 725F6374 		.ascii	"r_ctx\000"
 12830      7800
 12831              	.LASF258:
 12832 0d5f 70627566 		.ascii	"pbuf_free_ooseq\000"
 12832      5F667265 
 12832      655F6F6F 
 12832      73657100 
 12833              	.LASF314:
 12834 0d6f 6D656D63 		.ascii	"memcpy\000"
 12834      707900
 12835              	.LASF2:
 12836 0d76 5F5F696E 		.ascii	"__int8_t\000"
 12836      74385F74 
 12836      00
 12837              	.LASF46:
 12838 0d7f 705F6D73 		.ascii	"p_msgqueue\000"
 12838      67717565 
 12838      756500
 12839              	.LASF222:
 12840 0d8a 70657273 		.ascii	"persist_cnt\000"
 12840      6973745F 
 12840      636E7400 
 12841              	.LASF179:
 12842 0d96 72656D6F 		.ascii	"remote_ip\000"
 12842      74655F69 
 12842      7000
 12843              	.LASF72:
 12844 0da0 76745F66 		.ascii	"vt_func\000"
 12844      756E6300 
ARM GAS  C:\Users\jo\AppData\Local\Temp\ccDLAO0k.s 			page 240


 12845              	.LASF70:
 12846 0da8 76745F70 		.ascii	"vt_prev\000"
 12846      72657600 
 12847              	.LASF257:
 12848 0db0 666F726D 		.ascii	"formatted_bytes\000"
 12848      61747465 
 12848      645F6279 
 12848      74657300 
 12849              	.LASF175:
 12850 0dc0 69705F61 		.ascii	"ip_addr_t\000"
 12850      6464725F 
 12850      7400
 12851              	.LASF307:
 12852 0dca 7463705F 		.ascii	"tcp_segs_free\000"
 12852      73656773 
 12852      5F667265 
 12852      6500
 12853              	.LASF275:
 12854 0dd8 70627566 		.ascii	"pbuf_cat\000"
 12854      5F636174 
 12854      00
 12855              	.LASF160:
 12856 0de1 50425546 		.ascii	"PBUF_ROM\000"
 12856      5F524F4D 
 12856      00
 12857              	.LASF304:
 12858 0dea 7463705F 		.ascii	"tcp_active_pcbs\000"
 12858      61637469 
 12858      76655F70 
 12858      63627300 
 12859              	.LASF61:
 12860 0dfa 725F7072 		.ascii	"r_prio\000"
 12860      696F00
 12861              	.LASF197:
 12862 0e01 6E727478 		.ascii	"nrtx\000"
 12862      00
 12863              	.LASF245:
 12864 0e06 64657374 		.ascii	"dest\000"
 12864      00
 12865              	.LASF106:
 12866 0e0b 65786974 		.ascii	"exitcode\000"
 12866      636F6465 
 12866      00
 12867              	.LASF255:
 12868 0e14 71756575 		.ascii	"queued\000"
 12868      656400
 12869              	.LASF233:
 12870 0e1b 53594E5F 		.ascii	"SYN_RCVD\000"
 12870      52435644 
 12870      00
 12871              	.LASF173:
 12872 0e24 69705F61 		.ascii	"ip_addr\000"
 12872      64647200 
 12873              	.LASF302:
 12874 0e2c 69746D5F 		.ascii	"itm_port\000"
 12874      706F7274 
 12874      00
ARM GAS  C:\Users\jo\AppData\Local\Temp\ccDLAO0k.s 			page 241


 12875              		.ident	"GCC: (GNU Tools for ARM Embedded Processors) 4.9.3 20141119 (release) [ARM/embedded-4_9-br
ARM GAS  C:\Users\jo\AppData\Local\Temp\ccDLAO0k.s 			page 242


DEFINED SYMBOLS
                            *ABS*:00000000 pbuf.c
C:\Users\jo\AppData\Local\Temp\ccDLAO0k.s:19     .text.pbuf_free_ooseq_callback:00000000 $t
C:\Users\jo\AppData\Local\Temp\ccDLAO0k.s:24     .text.pbuf_free_ooseq_callback:00000000 pbuf_free_ooseq_callback
C:\Users\jo\AppData\Local\Temp\ccDLAO0k.s:80     .text.pbuf_free_ooseq_callback:00000028 $d
C:\Users\jo\AppData\Local\Temp\ccDLAO0k.s:88     .text.pbuf_pool_is_empty.part.0:00000000 $t
C:\Users\jo\AppData\Local\Temp\ccDLAO0k.s:93     .text.pbuf_pool_is_empty.part.0:00000000 pbuf_pool_is_empty.part.0
C:\Users\jo\AppData\Local\Temp\ccDLAO0k.s:120    .text.pbuf_pool_is_empty.part.0:00000018 $d
C:\Users\jo\AppData\Local\Temp\ccDLAO0k.s:126    .text.chprintf.constprop.1:00000000 $t
C:\Users\jo\AppData\Local\Temp\ccDLAO0k.s:131    .text.chprintf.constprop.1:00000000 chprintf.constprop.1
C:\Users\jo\AppData\Local\Temp\ccDLAO0k.s:177    .text.chprintf.constprop.1:00000020 $d
C:\Users\jo\AppData\Local\Temp\ccDLAO0k.s:183    .text.pbuf_alloced_custom:00000000 $t
C:\Users\jo\AppData\Local\Temp\ccDLAO0k.s:189    .text.pbuf_alloced_custom:00000000 pbuf_alloced_custom
C:\Users\jo\AppData\Local\Temp\ccDLAO0k.s:212    .text.pbuf_alloced_custom:00000012 $d
C:\Users\jo\AppData\Local\Temp\ccDLAO0k.s:216    .text.pbuf_alloced_custom:00000016 $t
C:\Users\jo\AppData\Local\Temp\ccDLAO0k.s:321    .text.pbuf_alloced_custom:0000007c $d
C:\Users\jo\AppData\Local\Temp\ccDLAO0k.s:329    .text.pbuf_header:00000000 $t
C:\Users\jo\AppData\Local\Temp\ccDLAO0k.s:335    .text.pbuf_header:00000000 pbuf_header
C:\Users\jo\AppData\Local\Temp\ccDLAO0k.s:544    .text.pbuf_header:000000bc $d
C:\Users\jo\AppData\Local\Temp\ccDLAO0k.s:554    .text.pbuf_free:00000000 $t
C:\Users\jo\AppData\Local\Temp\ccDLAO0k.s:560    .text.pbuf_free:00000000 pbuf_free
C:\Users\jo\AppData\Local\Temp\ccDLAO0k.s:765    .text.pbuf_free:000000b8 $d
C:\Users\jo\AppData\Local\Temp\ccDLAO0k.s:776    .text.pbuf_alloc:00000000 $t
C:\Users\jo\AppData\Local\Temp\ccDLAO0k.s:782    .text.pbuf_alloc:00000000 pbuf_alloc
C:\Users\jo\AppData\Local\Temp\ccDLAO0k.s:807    .text.pbuf_alloc:00000012 $d
C:\Users\jo\AppData\Local\Temp\ccDLAO0k.s:811    .text.pbuf_alloc:00000016 $t
C:\Users\jo\AppData\Local\Temp\ccDLAO0k.s:822    .text.pbuf_alloc:00000022 $d
C:\Users\jo\AppData\Local\Temp\ccDLAO0k.s:826    .text.pbuf_alloc:00000026 $t
C:\Users\jo\AppData\Local\Temp\ccDLAO0k.s:1232   .text.pbuf_alloc:000001f8 $d
C:\Users\jo\AppData\Local\Temp\ccDLAO0k.s:1247   .text.pbuf_realloc:00000000 $t
C:\Users\jo\AppData\Local\Temp\ccDLAO0k.s:1253   .text.pbuf_realloc:00000000 pbuf_realloc
C:\Users\jo\AppData\Local\Temp\ccDLAO0k.s:1439   .text.pbuf_realloc:000000c8 $d
C:\Users\jo\AppData\Local\Temp\ccDLAO0k.s:1452   .text.pbuf_clen:00000000 $t
C:\Users\jo\AppData\Local\Temp\ccDLAO0k.s:1458   .text.pbuf_clen:00000000 pbuf_clen
C:\Users\jo\AppData\Local\Temp\ccDLAO0k.s:1492   .text.pbuf_ref:00000000 $t
C:\Users\jo\AppData\Local\Temp\ccDLAO0k.s:1498   .text.pbuf_ref:00000000 pbuf_ref
C:\Users\jo\AppData\Local\Temp\ccDLAO0k.s:1518   .text.pbuf_cat:00000000 $t
C:\Users\jo\AppData\Local\Temp\ccDLAO0k.s:1524   .text.pbuf_cat:00000000 pbuf_cat
C:\Users\jo\AppData\Local\Temp\ccDLAO0k.s:1674   .text.pbuf_cat:00000090 $d
C:\Users\jo\AppData\Local\Temp\ccDLAO0k.s:1684   .text.pbuf_chain:00000000 $t
C:\Users\jo\AppData\Local\Temp\ccDLAO0k.s:1690   .text.pbuf_chain:00000000 pbuf_chain
C:\Users\jo\AppData\Local\Temp\ccDLAO0k.s:1722   .text.pbuf_dechain:00000000 $t
C:\Users\jo\AppData\Local\Temp\ccDLAO0k.s:1728   .text.pbuf_dechain:00000000 pbuf_dechain
C:\Users\jo\AppData\Local\Temp\ccDLAO0k.s:1860   .text.pbuf_dechain:00000080 $d
C:\Users\jo\AppData\Local\Temp\ccDLAO0k.s:1869   .text.pbuf_copy:00000000 $t
C:\Users\jo\AppData\Local\Temp\ccDLAO0k.s:1875   .text.pbuf_copy:00000000 pbuf_copy
C:\Users\jo\AppData\Local\Temp\ccDLAO0k.s:2185   .text.pbuf_copy:00000174 $d
C:\Users\jo\AppData\Local\Temp\ccDLAO0k.s:2197   .text.pbuf_copy_partial:00000000 $t
C:\Users\jo\AppData\Local\Temp\ccDLAO0k.s:2203   .text.pbuf_copy_partial:00000000 pbuf_copy_partial
C:\Users\jo\AppData\Local\Temp\ccDLAO0k.s:2382   .text.pbuf_copy_partial:000000ac $d
C:\Users\jo\AppData\Local\Temp\ccDLAO0k.s:2391   .text.pbuf_take:00000000 $t
C:\Users\jo\AppData\Local\Temp\ccDLAO0k.s:2397   .text.pbuf_take:00000000 pbuf_take
C:\Users\jo\AppData\Local\Temp\ccDLAO0k.s:2598   .text.pbuf_take:000000dc $d
C:\Users\jo\AppData\Local\Temp\ccDLAO0k.s:2609   .text.pbuf_coalesce:00000000 $t
C:\Users\jo\AppData\Local\Temp\ccDLAO0k.s:2615   .text.pbuf_coalesce:00000000 pbuf_coalesce
C:\Users\jo\AppData\Local\Temp\ccDLAO0k.s:2701   .text.pbuf_coalesce:0000004c $d
C:\Users\jo\AppData\Local\Temp\ccDLAO0k.s:2711   .text.pbuf_get_at:00000000 $t
ARM GAS  C:\Users\jo\AppData\Local\Temp\ccDLAO0k.s 			page 243


C:\Users\jo\AppData\Local\Temp\ccDLAO0k.s:2717   .text.pbuf_get_at:00000000 pbuf_get_at
C:\Users\jo\AppData\Local\Temp\ccDLAO0k.s:2763   .text.pbuf_memcmp:00000000 $t
C:\Users\jo\AppData\Local\Temp\ccDLAO0k.s:2769   .text.pbuf_memcmp:00000000 pbuf_memcmp
C:\Users\jo\AppData\Local\Temp\ccDLAO0k.s:2945   .text.pbuf_memfind:00000000 $t
C:\Users\jo\AppData\Local\Temp\ccDLAO0k.s:2951   .text.pbuf_memfind:00000000 pbuf_memfind
C:\Users\jo\AppData\Local\Temp\ccDLAO0k.s:3032   .text.pbuf_strstr:00000000 $t
C:\Users\jo\AppData\Local\Temp\ccDLAO0k.s:3038   .text.pbuf_strstr:00000000 pbuf_strstr
C:\Users\jo\AppData\Local\Temp\ccDLAO0k.s:3218   .bss.pbuf_free_ooseq_pending:00000000 pbuf_free_ooseq_pending
C:\Users\jo\AppData\Local\Temp\ccDLAO0k.s:3119   .rodata.str1.4:00000000 $d
C:\Users\jo\AppData\Local\Temp\ccDLAO0k.s:3219   .bss.pbuf_free_ooseq_pending:00000000 $d
                     .debug_frame:00000010 $d
C:\Users\jo\AppData\Local\Temp\ccDLAO0k.s:182    .text.chprintf.constprop.1:00000028 $t
C:\Users\jo\AppData\Local\Temp\ccDLAO0k.s:328    .text.pbuf_alloced_custom:0000008c $t
C:\Users\jo\AppData\Local\Temp\ccDLAO0k.s:553    .text.pbuf_header:000000d4 $t
C:\Users\jo\AppData\Local\Temp\ccDLAO0k.s:775    .text.pbuf_free:000000d4 $t
C:\Users\jo\AppData\Local\Temp\ccDLAO0k.s:1246   .text.pbuf_alloc:0000021c $t
C:\Users\jo\AppData\Local\Temp\ccDLAO0k.s:1451   .text.pbuf_realloc:000000e4 $t
C:\Users\jo\AppData\Local\Temp\ccDLAO0k.s:1683   .text.pbuf_cat:000000a8 $t
C:\Users\jo\AppData\Local\Temp\ccDLAO0k.s:1868   .text.pbuf_dechain:00000094 $t
C:\Users\jo\AppData\Local\Temp\ccDLAO0k.s:2196   .text.pbuf_copy:00000194 $t
C:\Users\jo\AppData\Local\Temp\ccDLAO0k.s:2608   .text.pbuf_take:000000f8 $t
C:\Users\jo\AppData\Local\Temp\ccDLAO0k.s:2710   .text.pbuf_coalesce:0000005c $t

UNDEFINED SYMBOLS
tcp_segs_free
tcp_active_pcbs
tcpip_callback_with_block
chvprintf
itm_port
chSysHalt
free
malloc
memp_sizes
memcpy
strlen
