ARM GAS  C:\Users\jo\AppData\Local\Temp\ccDLAO0k.s 			page 1


   1              		.syntax unified
   2              		.cpu cortex-m4
   3              		.fpu softvfp
   4              		.eabi_attribute 20, 1
   5              		.eabi_attribute 21, 1
   6              		.eabi_attribute 23, 3
   7              		.eabi_attribute 24, 1
   8              		.eabi_attribute 25, 1
   9              		.eabi_attribute 26, 1
  10              		.eabi_attribute 30, 2
  11              		.eabi_attribute 34, 1
  12              		.eabi_attribute 18, 4
  13              		.thumb
  14              		.file	"pbuf.c"
  15              		.text
  16              	.Ltext0:
  17              		.cfi_sections	.debug_frame
  18              		.section	.text.pbuf_free_ooseq_callback,"ax",%progbits
  19              		.align	2
  20              		.p2align 4,,15
  21              		.thumb
  22              		.thumb_func
  23              		.type	pbuf_free_ooseq_callback, %function
  24              	pbuf_free_ooseq_callback:
  25              	.LFB261:
  26              		.file 1 "../../../ext/lwip/src/core/pbuf.c"
  27              		.loc 1 144 0
  28              		.cfi_startproc
  29              		@ args = 0, pretend = 0, frame = 0
  30              		@ frame_needed = 0, uses_anonymous_args = 0
  31              	.LVL0:
  32              	.LBB96:
  33              	.LBB97:
  34              		.loc 1 127 0
  35 0000 094A     		ldr	r2, .L15
  36              		.loc 1 124 0
  37 0002 0A4B     		ldr	r3, .L15+4
  38              	.LBE97:
  39              	.LBE96:
  40              		.loc 1 144 0
  41 0004 10B5     		push	{r4, lr}
  42              		.cfi_def_cfa_offset 8
  43              		.cfi_offset 4, -8
  44              		.cfi_offset 14, -4
  45              	.LBB99:
  46              	.LBB98:
  47              		.loc 1 127 0
  48 0006 1468     		ldr	r4, [r2]
  49              	.LVL1:
  50              		.loc 1 124 0
  51 0008 0022     		movs	r2, #0
  52 000a 1A70     		strb	r2, [r3]
  53              		.loc 1 127 0
  54 000c 14B9     		cbnz	r4, .L6
  55 000e 09E0     		b	.L1
  56              	.LVL2:
  57              	.L5:
ARM GAS  C:\Users\jo\AppData\Local\Temp\ccDLAO0k.s 			page 2


  58 0010 E468     		ldr	r4, [r4, #12]
  59              	.LVL3:
  60 0012 3CB1     		cbz	r4, .L1
  61              	.L6:
  62              		.loc 1 128 0
  63 0014 606F     		ldr	r0, [r4, #116]
  64 0016 0028     		cmp	r0, #0
  65 0018 FAD0     		beq	.L5
  66              		.loc 1 131 0
  67 001a FFF7FEFF 		bl	tcp_segs_free
  68              	.LVL4:
  69              		.loc 1 132 0
  70 001e 0023     		movs	r3, #0
  71 0020 6367     		str	r3, [r4, #116]
  72 0022 10BD     		pop	{r4, pc}
  73              	.LVL5:
  74              	.L1:
  75 0024 10BD     		pop	{r4, pc}
  76              	.LVL6:
  77              	.L16:
  78 0026 00BF     		.align	2
  79              	.L15:
  80 0028 00000000 		.word	tcp_active_pcbs
  81 002c 00000000 		.word	.LANCHOR0
  82              	.LBE98:
  83              	.LBE99:
  84              		.cfi_endproc
  85              	.LFE261:
  86              		.size	pbuf_free_ooseq_callback, .-pbuf_free_ooseq_callback
  87              		.section	.text.pbuf_pool_is_empty.part.0,"ax",%progbits
  88              		.align	2
  89              		.p2align 4,,15
  90              		.thumb
  91              		.thumb_func
  92              		.type	pbuf_pool_is_empty.part.0, %function
  93              	pbuf_pool_is_empty.part.0:
  94              	.LFB281:
  95              		.loc 1 152 0
  96              		.cfi_startproc
  97              		@ args = 0, pretend = 0, frame = 0
  98              		@ frame_needed = 0, uses_anonymous_args = 0
  99              		.loc 1 169 0
 100 0000 0021     		movs	r1, #0
 101              		.loc 1 152 0
 102 0002 08B5     		push	{r3, lr}
 103              		.cfi_def_cfa_offset 8
 104              		.cfi_offset 3, -8
 105              		.cfi_offset 14, -4
 106              		.loc 1 169 0
 107 0004 0A46     		mov	r2, r1
 108 0006 0448     		ldr	r0, .L23
 109 0008 FFF7FEFF 		bl	tcpip_callback_with_block
 110              	.LVL7:
 111 000c 10B1     		cbz	r0, .L17
 112 000e 034B     		ldr	r3, .L23+4
 113 0010 0022     		movs	r2, #0
 114 0012 1A70     		strb	r2, [r3]
ARM GAS  C:\Users\jo\AppData\Local\Temp\ccDLAO0k.s 			page 3


 115              	.L17:
 116 0014 08BD     		pop	{r3, pc}
 117              	.L24:
 118 0016 00BF     		.align	2
 119              	.L23:
 120 0018 00000000 		.word	pbuf_free_ooseq_callback
 121 001c 00000000 		.word	.LANCHOR0
 122              		.cfi_endproc
 123              	.LFE281:
 124              		.size	pbuf_pool_is_empty.part.0, .-pbuf_pool_is_empty.part.0
 125              		.section	.text.chprintf.constprop.1,"ax",%progbits
 126              		.align	2
 127              		.p2align 4,,15
 128              		.thumb
 129              		.thumb_func
 130              		.type	chprintf.constprop.1, %function
 131              	chprintf.constprop.1:
 132              	.LFB282:
 133              		.file 2 "../../../os/hal/lib/streams/chprintf.h"
 134              		.loc 2 69 0
 135              		.cfi_startproc
 136              		@ args = 4, pretend = 12, frame = 8
 137              		@ frame_needed = 0, uses_anonymous_args = 1
 138              	.LVL8:
 139 0000 0EB4     		push	{r1, r2, r3}
 140              		.cfi_def_cfa_offset 12
 141              		.cfi_offset 1, -12
 142              		.cfi_offset 2, -8
 143              		.cfi_offset 3, -4
 144 0002 00B5     		push	{lr}
 145              		.cfi_def_cfa_offset 16
 146              		.cfi_offset 14, -16
 147 0004 82B0     		sub	sp, sp, #8
 148              		.cfi_def_cfa_offset 24
 149              		.loc 2 73 0
 150 0006 04AB     		add	r3, sp, #16
 151              		.loc 2 74 0
 152 0008 1A46     		mov	r2, r3
 153 000a 0549     		ldr	r1, .L27
 154 000c 0548     		ldr	r0, .L27+4
 155              	.LVL9:
 156              		.loc 2 73 0
 157 000e 0193     		str	r3, [sp, #4]
 158              		.loc 2 74 0
 159 0010 FFF7FEFF 		bl	chvprintf
 160              	.LVL10:
 161              		.loc 2 78 0
 162 0014 02B0     		add	sp, sp, #8
 163              		.cfi_def_cfa_offset 16
 164              		@ sp needed
 165 0016 5DF804EB 		ldr	lr, [sp], #4
 166              		.cfi_restore 14
 167              		.cfi_def_cfa_offset 12
 168 001a 03B0     		add	sp, sp, #12
 169              		.cfi_restore 3
 170              		.cfi_restore 2
 171              		.cfi_restore 1
ARM GAS  C:\Users\jo\AppData\Local\Temp\ccDLAO0k.s 			page 4


 172              		.cfi_def_cfa_offset 0
 173 001c 7047     		bx	lr
 174              	.L28:
 175 001e 00BF     		.align	2
 176              	.L27:
 177 0020 00000000 		.word	.LC0
 178 0024 00000000 		.word	itm_port
 179              		.cfi_endproc
 180              	.LFE282:
 181              		.size	chprintf.constprop.1, .-chprintf.constprop.1
 182 0028 AFF30080 		.section	.text.pbuf_alloced_custom,"ax",%progbits
 182      AFF30080 
 183              		.align	2
 184              		.p2align 4,,15
 185              		.global	pbuf_alloced_custom
 186              		.thumb
 187              		.thumb_func
 188              		.type	pbuf_alloced_custom, %function
 189              	pbuf_alloced_custom:
 190              	.LFB264:
 191              		.loc 1 369 0
 192              		.cfi_startproc
 193              		@ args = 8, pretend = 0, frame = 0
 194              		@ frame_needed = 0, uses_anonymous_args = 0
 195              	.LVL11:
 196 0000 70B5     		push	{r4, r5, r6, lr}
 197              		.cfi_def_cfa_offset 16
 198              		.cfi_offset 4, -16
 199              		.cfi_offset 5, -12
 200              		.cfi_offset 6, -8
 201              		.cfi_offset 14, -4
 202 0002 82B0     		sub	sp, sp, #8
 203              		.cfi_def_cfa_offset 24
 204              		.loc 1 369 0
 205 0004 069D     		ldr	r5, [sp, #24]
 206 0006 BDF81C60 		ldrh	r6, [sp, #28]
 207              		.loc 1 374 0
 208 000a 0328     		cmp	r0, #3
 209 000c 22D8     		bhi	.L30
 210 000e DFE800F0 		tbb	[pc, r0]
 211              	.L32:
 212 0012 1B       		.byte	(.L31-.L32)/2
 213 0013 18       		.byte	(.L33-.L32)/2
 214 0014 02       		.byte	(.L39-.L32)/2
 215 0015 1E       		.byte	(.L35-.L32)/2
 216              		.p2align 1
 217              	.L39:
 218 0016 1024     		movs	r4, #16
 219 0018 1320     		movs	r0, #19
 220              	.LVL12:
 221              	.L34:
 222              		.loc 1 395 0
 223 001a 0C44     		add	r4, r4, r1
 224 001c B442     		cmp	r4, r6
 225 001e 2ADC     		bgt	.L40
 226              		.loc 1 400 0
 227 0020 0024     		movs	r4, #0
ARM GAS  C:\Users\jo\AppData\Local\Temp\ccDLAO0k.s 			page 5


 228 0022 1C60     		str	r4, [r3]
 229              		.loc 1 401 0
 230 0024 2DB3     		cbz	r5, .L37
 231              		.loc 1 402 0
 232 0026 20F00300 		bic	r0, r0, #3
 233 002a 2844     		add	r0, r0, r5
 234 002c 5860     		str	r0, [r3, #4]
 235              	.L38:
 236              		.loc 1 409 0
 237 002e 0120     		movs	r0, #1
 238              		.loc 1 406 0
 239 0030 0224     		movs	r4, #2
 240              		.loc 1 409 0
 241 0032 D881     		strh	r0, [r3, #14]	@ movhi
 242              		.loc 1 407 0
 243 0034 1981     		strh	r1, [r3, #8]	@ movhi
 244 0036 5981     		strh	r1, [r3, #10]	@ movhi
 245              		.loc 1 408 0
 246 0038 1A73     		strb	r2, [r3, #12]
 247              		.loc 1 406 0
 248 003a 5C73     		strb	r4, [r3, #13]
 249              		.loc 1 410 0
 250 003c 1846     		mov	r0, r3
 251              	.L36:
 252              		.loc 1 411 0
 253 003e 02B0     		add	sp, sp, #8
 254              		.cfi_remember_state
 255              		.cfi_def_cfa_offset 16
 256              		@ sp needed
 257 0040 70BD     		pop	{r4, r5, r6, pc}
 258              	.LVL13:
 259              	.L33:
 260              		.cfi_restore_state
 261              		.loc 1 374 0
 262 0042 2424     		movs	r4, #36
 263 0044 2720     		movs	r0, #39
 264              	.LVL14:
 265 0046 E8E7     		b	.L34
 266              	.LVL15:
 267              	.L31:
 268 0048 3824     		movs	r4, #56
 269 004a 3B20     		movs	r0, #59
 270              	.LVL16:
 271 004c E5E7     		b	.L34
 272              	.LVL17:
 273              	.L35:
 274              		.loc 1 389 0
 275 004e 0024     		movs	r4, #0
 276 0050 0320     		movs	r0, #3
 277              	.LVL18:
 278 0052 E2E7     		b	.L34
 279              	.LVL19:
 280              	.L30:
 281              		.loc 1 391 0 discriminator 1
 282 0054 094B     		ldr	r3, .L42
 283              	.LVL20:
 284 0056 0093     		str	r3, [sp]
ARM GAS  C:\Users\jo\AppData\Local\Temp\ccDLAO0k.s 			page 6


 285 0058 0949     		ldr	r1, .L42+4
 286              	.LVL21:
 287 005a 0A4A     		ldr	r2, .L42+8
 288              	.LVL22:
 289 005c 0A48     		ldr	r0, .L42+12
 290              	.LVL23:
 291 005e 40F28713 		movw	r3, #391
 292 0062 FFF7FEFF 		bl	chprintf.constprop.1
 293              	.LVL24:
 294              	.LBB100:
 295              	.LBB101:
 296              		.file 3 "../../../os/hal/osal/rt/osal.h"
 297              		.loc 3 416 0 discriminator 1
 298 0066 0748     		ldr	r0, .L42+8
 299 0068 FFF7FEFF 		bl	chSysHalt
 300              	.LVL25:
 301              	.LBE101:
 302              	.LBE100:
 303              		.loc 1 392 0 discriminator 1
 304 006c 0020     		movs	r0, #0
 305              		.loc 1 411 0 discriminator 1
 306 006e 02B0     		add	sp, sp, #8
 307              		@ sp needed
 308 0070 70BD     		pop	{r4, r5, r6, pc}
 309              	.LVL26:
 310              	.L37:
 311              		.loc 1 404 0
 312 0072 5D60     		str	r5, [r3, #4]
 313 0074 DBE7     		b	.L38
 314              	.L40:
 315              		.loc 1 397 0
 316 0076 0020     		movs	r0, #0
 317 0078 E1E7     		b	.L36
 318              	.L43:
 319 007a 00BF     		.align	2
 320              	.L42:
 321 007c 4C000000 		.word	.LC2
 322 0080 00000000 		.word	.LC0
 323 0084 28000000 		.word	.LC1
 324 0088 00000000 		.word	itm_port
 325              		.cfi_endproc
 326              	.LFE264:
 327              		.size	pbuf_alloced_custom, .-pbuf_alloced_custom
 328 008c AFF30080 		.section	.text.pbuf_header,"ax",%progbits
 329              		.align	2
 330              		.p2align 4,,15
 331              		.global	pbuf_header
 332              		.thumb
 333              		.thumb_func
 334              		.type	pbuf_header, %function
 335              	pbuf_header:
 336              	.LFB266:
 337              		.loc 1 512 0
 338              		.cfi_startproc
 339              		@ args = 0, pretend = 0, frame = 0
 340              		@ frame_needed = 0, uses_anonymous_args = 0
 341              	.LVL27:
ARM GAS  C:\Users\jo\AppData\Local\Temp\ccDLAO0k.s 			page 7


 342 0000 10B5     		push	{r4, lr}
 343              		.cfi_def_cfa_offset 8
 344              		.cfi_offset 4, -8
 345              		.cfi_offset 14, -4
 346              		.loc 1 517 0
 347 0002 0446     		mov	r4, r0
 348              		.loc 1 512 0
 349 0004 82B0     		sub	sp, sp, #8
 350              		.cfi_def_cfa_offset 16
 351              		.loc 1 517 0
 352 0006 0028     		cmp	r0, #0
 353 0008 44D0     		beq	.L65
 354              		.loc 1 518 0
 355 000a 0029     		cmp	r1, #0
 356 000c 1AD0     		beq	.L64
 357              		.loc 1 522 0
 358 000e 1CDB     		blt	.L66
 359              		.loc 1 527 0
 360 0010 8AB2     		uxth	r2, r1
 361              	.LVL28:
 362              	.L48:
 363              		.loc 1 540 0
 364 0012 237B     		ldrb	r3, [r4, #12]	@ zero_extendqisi2
 365              	.LVL29:
 366              		.loc 1 542 0
 367 0014 6068     		ldr	r0, [r4, #4]
 368              	.LVL30:
 369              		.loc 1 545 0
 370 0016 43B1     		cbz	r3, .L49
 371              		.loc 1 545 0 is_stmt 0 discriminator 1
 372 0018 032B     		cmp	r3, #3
 373 001a 06D0     		beq	.L49
 374              		.loc 1 559 0 is_stmt 1
 375 001c 013B     		subs	r3, r3, #1
 376              	.LVL31:
 377 001e 012B     		cmp	r3, #1
 378 0020 2AD8     		bhi	.L52
 379              		.loc 1 561 0
 380 0022 0029     		cmp	r1, #0
 381 0024 44DB     		blt	.L67
 382              	.LVL32:
 383              	.L56:
 384              		.loc 1 567 0
 385 0026 0120     		movs	r0, #1
 386              	.LVL33:
 387 0028 0DE0     		b	.L61
 388              	.LVL34:
 389              	.L49:
 390              		.loc 1 547 0
 391 002a 431A     		subs	r3, r0, r1
 392              	.LVL35:
 393              		.loc 1 549 0
 394 002c 04F11002 		add	r2, r4, #16
 395              	.LVL36:
 396 0030 9342     		cmp	r3, r2
 397              		.loc 1 547 0
 398 0032 6360     		str	r3, [r4, #4]
ARM GAS  C:\Users\jo\AppData\Local\Temp\ccDLAO0k.s 			page 8


 399              		.loc 1 549 0
 400 0034 1CD3     		bcc	.L68
 401 0036 6389     		ldrh	r3, [r4, #10]
 402              	.LVL37:
 403              	.L53:
 404              		.loc 1 576 0
 405 0038 2289     		ldrh	r2, [r4, #8]
 406              		.loc 1 575 0
 407 003a 89B2     		uxth	r1, r1
 408 003c 0B44     		add	r3, r3, r1
 409              		.loc 1 576 0
 410 003e 1144     		add	r1, r1, r2
 411              	.LVL38:
 412              		.loc 1 575 0
 413 0040 6381     		strh	r3, [r4, #10]	@ movhi
 414              		.loc 1 576 0
 415 0042 2181     		strh	r1, [r4, #8]	@ movhi
 416              	.LVL39:
 417              	.L64:
 418              		.loc 1 581 0
 419 0044 0020     		movs	r0, #0
 420              	.L61:
 421              		.loc 1 582 0
 422 0046 02B0     		add	sp, sp, #8
 423              		.cfi_remember_state
 424              		.cfi_def_cfa_offset 8
 425              		@ sp needed
 426 0048 10BD     		pop	{r4, pc}
 427              	.LVL40:
 428              	.L66:
 429              		.cfi_restore_state
 430              		.loc 1 523 0
 431 004a 4A42     		negs	r2, r1
 432              		.loc 1 525 0
 433 004c 6389     		ldrh	r3, [r4, #10]
 434              		.loc 1 523 0
 435 004e 92B2     		uxth	r2, r2
 436              	.LVL41:
 437              		.loc 1 525 0
 438 0050 9342     		cmp	r3, r2
 439 0052 DED2     		bcs	.L48
 440              		.loc 1 525 0 is_stmt 0 discriminator 1
 441 0054 194B     		ldr	r3, .L69
 442 0056 0093     		str	r3, [sp]
 443 0058 1949     		ldr	r1, .L69+4
 444              	.LVL42:
 445 005a 1A4A     		ldr	r2, .L69+8
 446              	.LVL43:
 447 005c 1A48     		ldr	r0, .L69+12
 448              	.LVL44:
 449 005e 40F20D23 		movw	r3, #525
 450 0062 FFF7FEFF 		bl	chprintf.constprop.1
 451              	.LVL45:
 452              	.LBB102:
 453              	.LBB103:
 454              		.loc 3 416 0 is_stmt 1 discriminator 1
 455 0066 1748     		ldr	r0, .L69+8
ARM GAS  C:\Users\jo\AppData\Local\Temp\ccDLAO0k.s 			page 9


 456 0068 FFF7FEFF 		bl	chSysHalt
 457              	.LVL46:
 458              	.LBE103:
 459              	.LBE102:
 460              		.loc 1 525 0 discriminator 1
 461 006c 0120     		movs	r0, #1
 462 006e EAE7     		b	.L61
 463              	.LVL47:
 464              	.L68:
 465              		.loc 1 554 0
 466 0070 6060     		str	r0, [r4, #4]
 467              		.loc 1 556 0
 468 0072 0120     		movs	r0, #1
 469              	.LVL48:
 470              		.loc 1 582 0
 471 0074 02B0     		add	sp, sp, #8
 472              		.cfi_remember_state
 473              		.cfi_def_cfa_offset 8
 474              		@ sp needed
 475 0076 10BD     		pop	{r4, pc}
 476              	.LVL49:
 477              	.L52:
 478              		.cfi_restore_state
 479              		.loc 1 571 0 discriminator 1
 480 0078 104B     		ldr	r3, .L69
 481              	.LVL50:
 482 007a 0093     		str	r3, [sp]
 483              	.LVL51:
 484 007c 1049     		ldr	r1, .L69+4
 485              	.LVL52:
 486 007e 134A     		ldr	r2, .L69+16
 487              	.LVL53:
 488 0080 1148     		ldr	r0, .L69+12
 489              	.LVL54:
 490 0082 40F23B23 		movw	r3, #571
 491 0086 FFF7FEFF 		bl	chprintf.constprop.1
 492              	.LVL55:
 493              	.LBB104:
 494              	.LBB105:
 495              		.loc 3 416 0 discriminator 1
 496 008a 1048     		ldr	r0, .L69+16
 497 008c FFF7FEFF 		bl	chSysHalt
 498              	.LVL56:
 499              	.LBE105:
 500              	.LBE104:
 501              		.loc 1 572 0 discriminator 1
 502 0090 0120     		movs	r0, #1
 503 0092 D8E7     		b	.L61
 504              	.LVL57:
 505              	.L65:
 506              		.loc 1 517 0 discriminator 1
 507 0094 094B     		ldr	r3, .L69
 508 0096 0093     		str	r3, [sp]
 509 0098 0949     		ldr	r1, .L69+4
 510              	.LVL58:
 511 009a 0D4A     		ldr	r2, .L69+20
 512 009c 0A48     		ldr	r0, .L69+12
ARM GAS  C:\Users\jo\AppData\Local\Temp\ccDLAO0k.s 			page 10


 513              	.LVL59:
 514 009e 40F20523 		movw	r3, #517
 515 00a2 FFF7FEFF 		bl	chprintf.constprop.1
 516              	.LVL60:
 517              	.LBB106:
 518              	.LBB107:
 519              		.loc 3 416 0 discriminator 1
 520 00a6 0A48     		ldr	r0, .L69+20
 521 00a8 FFF7FEFF 		bl	chSysHalt
 522              	.LVL61:
 523              	.LBE107:
 524              	.LBE106:
 525              		.loc 1 519 0 discriminator 1
 526 00ac 2046     		mov	r0, r4
 527 00ae CAE7     		b	.L61
 528              	.LVL62:
 529              	.L67:
 530              		.loc 1 561 0 discriminator 1
 531 00b0 6389     		ldrh	r3, [r4, #10]
 532              	.LVL63:
 533 00b2 9A42     		cmp	r2, r3
 534 00b4 B7D8     		bhi	.L56
 535              		.loc 1 563 0
 536 00b6 401A     		subs	r0, r0, r1
 537              	.LVL64:
 538 00b8 6060     		str	r0, [r4, #4]
 539              	.LVL65:
 540 00ba BDE7     		b	.L53
 541              	.L70:
 542              		.align	2
 543              	.L69:
 544 00bc 4C000000 		.word	.LC2
 545 00c0 00000000 		.word	.LC0
 546 00c4 7C000000 		.word	.LC4
 547 00c8 00000000 		.word	itm_port
 548 00cc 9C000000 		.word	.LC5
 549 00d0 70000000 		.word	.LC3
 550              		.cfi_endproc
 551              	.LFE266:
 552              		.size	pbuf_header, .-pbuf_header
 553 00d4 AFF30080 		.section	.text.pbuf_free,"ax",%progbits
 553      AFF30080 
 553      AFF30080 
 554              		.align	2
 555              		.p2align 4,,15
 556              		.global	pbuf_free
 557              		.thumb
 558              		.thumb_func
 559              		.type	pbuf_free, %function
 560              	pbuf_free:
 561              	.LFB267:
 562              		.loc 1 619 0
 563              		.cfi_startproc
 564              		@ args = 0, pretend = 0, frame = 0
 565              		@ frame_needed = 0, uses_anonymous_args = 0
 566              	.LVL66:
 567 0000 F0B5     		push	{r4, r5, r6, r7, lr}
ARM GAS  C:\Users\jo\AppData\Local\Temp\ccDLAO0k.s 			page 11


 568              		.cfi_def_cfa_offset 20
 569              		.cfi_offset 4, -20
 570              		.cfi_offset 5, -16
 571              		.cfi_offset 6, -12
 572              		.cfi_offset 7, -8
 573              		.cfi_offset 14, -4
 574              		.loc 1 624 0
 575 0002 0446     		mov	r4, r0
 576              		.loc 1 619 0
 577 0004 83B0     		sub	sp, sp, #12
 578              		.cfi_def_cfa_offset 32
 579              		.loc 1 624 0
 580 0006 0028     		cmp	r0, #0
 581 0008 48D0     		beq	.L87
 582              		.loc 1 635 0
 583 000a 037B     		ldrb	r3, [r0, #12]	@ zero_extendqisi2
 584 000c 032B     		cmp	r3, #3
 585 000e 38D8     		bhi	.L88
 586              	.LVL67:
 587              	.L74:
 588              		.loc 1 642 0
 589 0010 0025     		movs	r5, #0
 590              	.LBB108:
 591              		.loc 1 650 0
 592 0012 294E     		ldr	r6, .L92
 593 0014 07E0     		b	.L81
 594              	.LVL68:
 595              	.L91:
 596              	.LBB109:
 597              		.loc 1 664 0
 598 0016 2369     		ldr	r3, [r4, #16]
 599 0018 33B3     		cbz	r3, .L89
 600              	.LVL69:
 601              	.L77:
 602              		.loc 1 665 0
 603 001a 2046     		mov	r0, r4
 604              	.LBE109:
 605              		.loc 1 680 0
 606 001c 0135     		adds	r5, r5, #1
 607              	.LVL70:
 608              	.LBB112:
 609              		.loc 1 665 0
 610 001e 9847     		blx	r3
 611              	.LVL71:
 612              	.LBE112:
 613              		.loc 1 680 0
 614 0020 EDB2     		uxtb	r5, r5
 615              	.LVL72:
 616              	.LBE108:
 617              		.loc 1 642 0
 618 0022 8FB1     		cbz	r7, .L83
 619              	.LVL73:
 620              	.L84:
 621 0024 3C46     		mov	r4, r7
 622              	.LVL74:
 623              	.L81:
 624              	.LBB116:
ARM GAS  C:\Users\jo\AppData\Local\Temp\ccDLAO0k.s 			page 12


 625              		.loc 1 650 0
 626 0026 E389     		ldrh	r3, [r4, #14]
 627 0028 8BB1     		cbz	r3, .L90
 628              	.L75:
 629              		.loc 1 652 0
 630 002a 013B     		subs	r3, r3, #1
 631 002c 9BB2     		uxth	r3, r3
 632 002e E381     		strh	r3, [r4, #14]	@ movhi
 633              	.LVL75:
 634              		.loc 1 655 0
 635 0030 53B9     		cbnz	r3, .L83
 636              		.loc 1 662 0
 637 0032 627B     		ldrb	r2, [r4, #13]	@ zero_extendqisi2
 638              		.loc 1 657 0
 639 0034 2768     		ldr	r7, [r4]
 640              	.LVL76:
 641              		.loc 1 662 0
 642 0036 9307     		lsls	r3, r2, #30
 643              	.LVL77:
 644 0038 EDD4     		bmi	.L91
 645              		.loc 1 674 0
 646 003a 2046     		mov	r0, r4
 647              		.loc 1 680 0
 648 003c 0135     		adds	r5, r5, #1
 649              	.LVL78:
 650              		.loc 1 677 0
 651 003e FFF7FEFF 		bl	free
 652              	.LVL79:
 653              		.loc 1 680 0
 654 0042 EDB2     		uxtb	r5, r5
 655              	.LVL80:
 656              	.LBE116:
 657              		.loc 1 642 0
 658 0044 002F     		cmp	r7, #0
 659 0046 EDD1     		bne	.L84
 660              	.LVL81:
 661              	.L83:
 662              		.loc 1 693 0
 663 0048 2846     		mov	r0, r5
 664              	.LVL82:
 665              	.L85:
 666              		.loc 1 694 0
 667 004a 03B0     		add	sp, sp, #12
 668              		.cfi_remember_state
 669              		.cfi_def_cfa_offset 20
 670              		@ sp needed
 671 004c F0BD     		pop	{r4, r5, r6, r7, pc}
 672              	.LVL83:
 673              	.L90:
 674              		.cfi_restore_state
 675              	.LBB117:
 676              		.loc 1 650 0 discriminator 1
 677 004e 40F28A23 		movw	r3, #650
 678 0052 1A49     		ldr	r1, .L92+4
 679 0054 1A4A     		ldr	r2, .L92+8
 680 0056 0096     		str	r6, [sp]
 681 0058 1A48     		ldr	r0, .L92+12
ARM GAS  C:\Users\jo\AppData\Local\Temp\ccDLAO0k.s 			page 13


 682 005a FFF7FEFF 		bl	chprintf.constprop.1
 683              	.LVL84:
 684              	.LBB113:
 685              	.LBB114:
 686              		.loc 3 416 0 discriminator 1
 687 005e 1848     		ldr	r0, .L92+8
 688 0060 FFF7FEFF 		bl	chSysHalt
 689              	.LVL85:
 690 0064 E389     		ldrh	r3, [r4, #14]
 691 0066 E0E7     		b	.L75
 692              	.LVL86:
 693              	.L89:
 694              	.LBE114:
 695              	.LBE113:
 696              	.LBB115:
 697              		.loc 1 664 0 discriminator 1
 698 0068 4FF42673 		mov	r3, #664
 699 006c 1349     		ldr	r1, .L92+4
 700 006e 164A     		ldr	r2, .L92+16
 701 0070 0096     		str	r6, [sp]
 702              	.LVL87:
 703 0072 1448     		ldr	r0, .L92+12
 704 0074 FFF7FEFF 		bl	chprintf.constprop.1
 705              	.LVL88:
 706              	.LBB110:
 707              	.LBB111:
 708              		.loc 3 416 0 discriminator 1
 709 0078 1348     		ldr	r0, .L92+16
 710 007a FFF7FEFF 		bl	chSysHalt
 711              	.LVL89:
 712 007e 2369     		ldr	r3, [r4, #16]
 713 0080 CBE7     		b	.L77
 714              	.LVL90:
 715              	.L88:
 716              	.LBE111:
 717              	.LBE110:
 718              	.LBE115:
 719              	.LBE117:
 720              		.loc 1 635 0 discriminator 1
 721 0082 0D4B     		ldr	r3, .L92
 722 0084 0093     		str	r3, [sp]
 723 0086 0D49     		ldr	r1, .L92+4
 724 0088 104A     		ldr	r2, .L92+20
 725 008a 0E48     		ldr	r0, .L92+12
 726              	.LVL91:
 727 008c 40F27D23 		movw	r3, #637
 728 0090 FFF7FEFF 		bl	chprintf.constprop.1
 729              	.LVL92:
 730              	.LBB118:
 731              	.LBB119:
 732              		.loc 3 416 0 discriminator 1
 733 0094 0D48     		ldr	r0, .L92+20
 734 0096 FFF7FEFF 		bl	chSysHalt
 735              	.LVL93:
 736 009a B9E7     		b	.L74
 737              	.LVL94:
 738              	.L87:
ARM GAS  C:\Users\jo\AppData\Local\Temp\ccDLAO0k.s 			page 14


 739              	.LBE119:
 740              	.LBE118:
 741              		.loc 1 625 0 discriminator 1
 742 009c 064B     		ldr	r3, .L92
 743 009e 0093     		str	r3, [sp]
 744 00a0 0649     		ldr	r1, .L92+4
 745 00a2 0B4A     		ldr	r2, .L92+24
 746 00a4 0748     		ldr	r0, .L92+12
 747              	.LVL95:
 748 00a6 40F27123 		movw	r3, #625
 749 00aa FFF7FEFF 		bl	chprintf.constprop.1
 750              	.LVL96:
 751              	.LBB120:
 752              	.LBB121:
 753              		.loc 3 416 0 discriminator 1
 754 00ae 0848     		ldr	r0, .L92+24
 755 00b0 FFF7FEFF 		bl	chSysHalt
 756              	.LVL97:
 757              	.LBE121:
 758              	.LBE120:
 759              		.loc 1 629 0 discriminator 1
 760 00b4 2046     		mov	r0, r4
 761 00b6 C8E7     		b	.L85
 762              	.L93:
 763              		.align	2
 764              	.L92:
 765 00b8 4C000000 		.word	.LC2
 766 00bc 00000000 		.word	.LC0
 767 00c0 C4000000 		.word	.LC7
 768 00c4 00000000 		.word	itm_port
 769 00c8 DC000000 		.word	.LC8
 770 00cc AC000000 		.word	.LC6
 771 00d0 70000000 		.word	.LC3
 772              		.cfi_endproc
 773              	.LFE267:
 774              		.size	pbuf_free, .-pbuf_free
 775 00d4 AFF30080 		.section	.text.pbuf_alloc,"ax",%progbits
 775      AFF30080 
 775      AFF30080 
 776              		.align	2
 777              		.p2align 4,,15
 778              		.global	pbuf_alloc
 779              		.thumb
 780              		.thumb_func
 781              		.type	pbuf_alloc, %function
 782              	pbuf_alloc:
 783              	.LFB263:
 784              		.loc 1 208 0
 785              		.cfi_startproc
 786              		@ args = 0, pretend = 0, frame = 8
 787              		@ frame_needed = 0, uses_anonymous_args = 0
 788              	.LVL98:
 789 0000 2DE9F047 		push	{r4, r5, r6, r7, r8, r9, r10, lr}
 790              		.cfi_def_cfa_offset 32
 791              		.cfi_offset 4, -32
 792              		.cfi_offset 5, -28
 793              		.cfi_offset 6, -24
ARM GAS  C:\Users\jo\AppData\Local\Temp\ccDLAO0k.s 			page 15


 794              		.cfi_offset 7, -20
 795              		.cfi_offset 8, -16
 796              		.cfi_offset 9, -12
 797              		.cfi_offset 10, -8
 798              		.cfi_offset 14, -4
 799 0004 0F46     		mov	r7, r1
 800 0006 84B0     		sub	sp, sp, #16
 801              		.cfi_def_cfa_offset 48
 802              		.loc 1 215 0
 803 0008 0328     		cmp	r0, #3
 804 000a 00F2B080 		bhi	.L95
 805 000e DFE800F0 		tbb	[pc, r0]
 806              	.L97:
 807 0012 9A       		.byte	(.L96-.L97)/2
 808 0013 98       		.byte	(.L98-.L97)/2
 809 0014 02       		.byte	(.L117-.L97)/2
 810 0015 9C       		.byte	(.L100-.L97)/2
 811              		.p2align 1
 812              	.L117:
 813              		.loc 1 226 0
 814 0016 1024     		movs	r4, #16
 815              	.L99:
 816              	.LVL99:
 817              		.loc 1 236 0
 818 0018 032A     		cmp	r2, #3
 819 001a 00F29880 		bhi	.L102
 820 001e DFE802F0 		tbb	[pc, r2]
 821              	.L104:
 822 0022 73       		.byte	(.L103-.L104)/2
 823 0023 63       		.byte	(.L105-.L104)/2
 824 0024 63       		.byte	(.L105-.L104)/2
 825 0025 02       		.byte	(.L106-.L104)/2
 826              		.p2align 1
 827              	.L106:
 828              		.loc 1 239 0
 829 0026 744B     		ldr	r3, .L131
 830 0028 B3F81880 		ldrh	r8, [r3, #24]
 831 002c 4046     		mov	r0, r8
 832              	.LVL100:
 833 002e FFF7FEFF 		bl	malloc
 834              	.LVL101:
 835              		.loc 1 241 0
 836 0032 0546     		mov	r5, r0
 837 0034 0028     		cmp	r0, #0
 838 0036 00F0C580 		beq	.L127
 839              		.loc 1 255 0
 840 003a C4F5BD66 		rsb	r6, r4, #1512
 841 003e 0436     		adds	r6, r6, #4
 842              		.loc 1 249 0
 843 0040 0444     		add	r4, r4, r0
 844              	.LVL102:
 845              		.loc 1 255 0
 846 0042 BE42     		cmp	r6, r7
 847              		.loc 1 249 0
 848 0044 04F11304 		add	r4, r4, #19
 849              		.loc 1 255 0
 850 0048 A8BF     		it	ge
ARM GAS  C:\Users\jo\AppData\Local\Temp\ccDLAO0k.s 			page 16


 851 004a 3E46     		movge	r6, r7
 852              		.loc 1 249 0
 853 004c 24F00304 		bic	r4, r4, #3
 854              		.loc 1 256 0
 855 0050 A319     		adds	r3, r4, r6
 856 0052 00F2FC59 		addw	r9, r0, #1532
 857              		.loc 1 255 0
 858 0056 B6B2     		uxth	r6, r6
 859              		.loc 1 245 0
 860 0058 0321     		movs	r1, #3
 861              		.loc 1 246 0
 862 005a 0022     		movs	r2, #0
 863              		.loc 1 256 0
 864 005c 9945     		cmp	r9, r3
 865              		.loc 1 253 0
 866 005e 0781     		strh	r7, [r0, #8]	@ movhi
 867              		.loc 1 249 0
 868 0060 4460     		str	r4, [r0, #4]
 869              		.loc 1 255 0
 870 0062 4681     		strh	r6, [r0, #10]	@ movhi
 871              		.loc 1 245 0
 872 0064 0173     		strb	r1, [r0, #12]
 873              		.loc 1 246 0
 874 0066 0260     		str	r2, [r0]
 875              		.loc 1 256 0
 876 0068 C0F0B880 		bcc	.L128
 877              	.LVL103:
 878              	.L109:
 879              		.loc 1 269 0
 880 006c BE1B     		subs	r6, r7, r6
 881              		.loc 1 262 0
 882 006e 0123     		movs	r3, #1
 883              		.loc 1 271 0
 884 0070 002E     		cmp	r6, #0
 885              		.loc 1 262 0
 886 0072 EB81     		strh	r3, [r5, #14]	@ movhi
 887              	.LVL104:
 888              		.loc 1 271 0
 889 0074 5DDD     		ble	.L110
 890              		.loc 1 286 0
 891 0076 DFF890A1 		ldr	r10, .L131+16
 892              		.loc 1 271 0
 893 007a 2F46     		mov	r7, r5
 894 007c 16E0     		b	.L115
 895              	.LVL105:
 896              	.L113:
 897              		.loc 1 293 0
 898 007e 6889     		ldrh	r0, [r5, #10]
 899 0080 6968     		ldr	r1, [r5, #4]
 900              		.loc 1 287 0
 901 0082 B2B2     		uxth	r2, r6
 902              		.loc 1 289 0
 903 0084 40F2EC53 		movw	r3, #1516
 904 0088 9342     		cmp	r3, r2
 905              		.loc 1 293 0
 906 008a 0144     		add	r1, r1, r0
 907              		.loc 1 289 0
ARM GAS  C:\Users\jo\AppData\Local\Temp\ccDLAO0k.s 			page 17


 908 008c 28BF     		it	cs
 909 008e 1346     		movcs	r3, r2
 910              		.loc 1 290 0
 911 0090 04F11000 		add	r0, r4, #16
 912              		.loc 1 293 0
 913 0094 8945     		cmp	r9, r1
 914              		.loc 1 287 0
 915 0096 2281     		strh	r2, [r4, #8]	@ movhi
 916              		.loc 1 289 0
 917 0098 6381     		strh	r3, [r4, #10]	@ movhi
 918              		.loc 1 290 0
 919 009a 6060     		str	r0, [r4, #4]
 920              		.loc 1 293 0
 921 009c C0F08480 		bcc	.L129
 922              	.L114:
 923              		.loc 1 298 0
 924 00a0 F61A     		subs	r6, r6, r3
 925              	.LVL106:
 926              		.loc 1 271 0
 927 00a2 002E     		cmp	r6, #0
 928              		.loc 1 296 0
 929 00a4 4FF00103 		mov	r3, #1
 930 00a8 E381     		strh	r3, [r4, #14]	@ movhi
 931              		.loc 1 271 0
 932 00aa 42DD     		ble	.L110
 933              	.LVL107:
 934              	.L115:
 935              		.loc 1 272 0
 936 00ac 4046     		mov	r0, r8
 937 00ae FFF7FEFF 		bl	malloc
 938              	.LVL108:
 939              		.loc 1 281 0
 940 00b2 0023     		movs	r3, #0
 941              		.loc 1 273 0
 942 00b4 0446     		mov	r4, r0
 943              		.loc 1 280 0
 944 00b6 0321     		movs	r1, #3
 945              		.loc 1 286 0
 946 00b8 4FF6FF72 		movw	r2, #65535
 947              		.loc 1 273 0
 948 00bc 0028     		cmp	r0, #0
 949 00be 65D0     		beq	.L130
 950              		.loc 1 286 0
 951 00c0 9642     		cmp	r6, r2
 952              		.loc 1 280 0
 953 00c2 0173     		strb	r1, [r0, #12]
 954              		.loc 1 281 0
 955 00c4 4373     		strb	r3, [r0, #13]
 956              		.loc 1 282 0
 957 00c6 0360     		str	r3, [r0]
 958              		.loc 1 284 0
 959 00c8 3860     		str	r0, [r7]
 960 00ca 0746     		mov	r7, r0
 961              	.LVL109:
 962              		.loc 1 286 0
 963 00cc D7D1     		bne	.L113
 964              		.loc 1 286 0 is_stmt 0 discriminator 1
ARM GAS  C:\Users\jo\AppData\Local\Temp\ccDLAO0k.s 			page 18


 965 00ce CDF800A0 		str	r10, [sp]
 966 00d2 4A49     		ldr	r1, .L131+4
 967 00d4 4A4A     		ldr	r2, .L131+8
 968 00d6 4B48     		ldr	r0, .L131+12
 969              	.LVL110:
 970 00d8 4FF48F73 		mov	r3, #286
 971 00dc FFF7FEFF 		bl	chprintf.constprop.1
 972              	.LVL111:
 973              	.LBB122:
 974              	.LBB123:
 975              		.loc 3 416 0 is_stmt 1 discriminator 1
 976 00e0 4748     		ldr	r0, .L131+8
 977 00e2 FFF7FEFF 		bl	chSysHalt
 978              	.LVL112:
 979 00e6 CAE7     		b	.L113
 980              	.LVL113:
 981              	.L105:
 982              	.LBE123:
 983              	.LBE122:
 984              		.loc 1 326 0
 985 00e8 434B     		ldr	r3, .L131
 986 00ea 0392     		str	r2, [sp, #12]
 987 00ec D88A     		ldrh	r0, [r3, #22]
 988              	.LVL114:
 989 00ee FFF7FEFF 		bl	malloc
 990              	.LVL115:
 991              		.loc 1 327 0
 992 00f2 0546     		mov	r5, r0
 993 00f4 0028     		cmp	r0, #0
 994 00f6 53D0     		beq	.L126
 995              		.loc 1 334 0
 996 00f8 0023     		movs	r3, #0
 997              		.loc 1 337 0
 998 00fa 039A     		ldr	r2, [sp, #12]
 999              		.loc 1 335 0
 1000 00fc 0781     		strh	r7, [r0, #8]	@ movhi
 1001 00fe 4781     		strh	r7, [r0, #10]	@ movhi
 1002              		.loc 1 337 0
 1003 0100 0273     		strb	r2, [r0, #12]
 1004              		.loc 1 334 0
 1005 0102 4360     		str	r3, [r0, #4]
 1006              		.loc 1 336 0
 1007 0104 0360     		str	r3, [r0]
 1008              		.loc 1 338 0
 1009 0106 14E0     		b	.L110
 1010              	.LVL116:
 1011              	.L103:
 1012              		.loc 1 308 0
 1013 0108 FB1C     		adds	r3, r7, #3
 1014 010a 23F00303 		bic	r3, r3, #3
 1015 010e 04F11000 		add	r0, r4, #16
 1016              	.LVL117:
 1017 0112 1844     		add	r0, r0, r3
 1018 0114 FFF7FEFF 		bl	malloc
 1019              	.LVL118:
 1020              		.loc 1 309 0
 1021 0118 0546     		mov	r5, r0
ARM GAS  C:\Users\jo\AppData\Local\Temp\ccDLAO0k.s 			page 19


 1022 011a 0028     		cmp	r0, #0
 1023 011c 40D0     		beq	.L126
 1024              		.loc 1 313 0
 1025 011e 0444     		add	r4, r4, r0
 1026              	.LVL119:
 1027 0120 1334     		adds	r4, r4, #19
 1028              		.loc 1 315 0
 1029 0122 0023     		movs	r3, #0
 1030              		.loc 1 313 0
 1031 0124 24F00304 		bic	r4, r4, #3
 1032 0128 4460     		str	r4, [r0, #4]
 1033              		.loc 1 314 0
 1034 012a 0781     		strh	r7, [r0, #8]	@ movhi
 1035 012c 4781     		strh	r7, [r0, #10]	@ movhi
 1036              		.loc 1 315 0
 1037 012e 0360     		str	r3, [r0]
 1038              		.loc 1 316 0
 1039 0130 0373     		strb	r3, [r0, #12]
 1040              	.LVL120:
 1041              	.L110:
 1042              		.loc 1 344 0
 1043 0132 0122     		movs	r2, #1
 1044              		.loc 1 346 0
 1045 0134 0023     		movs	r3, #0
 1046              		.loc 1 348 0
 1047 0136 2846     		mov	r0, r5
 1048              		.loc 1 344 0
 1049 0138 EA81     		strh	r2, [r5, #14]	@ movhi
 1050              		.loc 1 346 0
 1051 013a 6B73     		strb	r3, [r5, #13]
 1052              		.loc 1 349 0
 1053 013c 04B0     		add	sp, sp, #16
 1054              		.cfi_remember_state
 1055              		.cfi_def_cfa_offset 32
 1056              		@ sp needed
 1057 013e BDE8F087 		pop	{r4, r5, r6, r7, r8, r9, r10, pc}
 1058              	.LVL121:
 1059              	.L98:
 1060              		.cfi_restore_state
 1061              		.loc 1 222 0
 1062 0142 2424     		movs	r4, #36
 1063 0144 68E7     		b	.L99
 1064              	.L96:
 1065              		.loc 1 218 0
 1066 0146 3824     		movs	r4, #56
 1067 0148 66E7     		b	.L99
 1068              	.L100:
 1069              	.LVL122:
 1070              		.loc 1 229 0
 1071 014a 0024     		movs	r4, #0
 1072              		.loc 1 230 0
 1073 014c 64E7     		b	.L99
 1074              	.LVL123:
 1075              	.L102:
 1076              		.loc 1 340 0 discriminator 1
 1077 014e 2E4B     		ldr	r3, .L131+16
 1078 0150 0093     		str	r3, [sp]
ARM GAS  C:\Users\jo\AppData\Local\Temp\ccDLAO0k.s 			page 20


 1079 0152 2A49     		ldr	r1, .L131+4
 1080              	.LVL124:
 1081 0154 2D4A     		ldr	r2, .L131+20
 1082              	.LVL125:
 1083 0156 2B48     		ldr	r0, .L131+12
 1084              	.LVL126:
 1085 0158 4FF4AA73 		mov	r3, #340
 1086 015c FFF7FEFF 		bl	chprintf.constprop.1
 1087              	.LVL127:
 1088              	.LBB124:
 1089              	.LBB125:
 1090              		.loc 3 416 0 discriminator 1
 1091 0160 2A48     		ldr	r0, .L131+20
 1092 0162 FFF7FEFF 		bl	chSysHalt
 1093              	.LVL128:
 1094              	.LBE125:
 1095              	.LBE124:
 1096              		.loc 1 341 0 discriminator 1
 1097 0166 0020     		movs	r0, #0
 1098              	.LVL129:
 1099              	.L101:
 1100              		.loc 1 349 0
 1101 0168 04B0     		add	sp, sp, #16
 1102              		.cfi_remember_state
 1103              		.cfi_def_cfa_offset 32
 1104              		@ sp needed
 1105 016a BDE8F087 		pop	{r4, r5, r6, r7, r8, r9, r10, pc}
 1106              	.LVL130:
 1107              	.L95:
 1108              		.loc 1 232 0 discriminator 1
 1109 016e 264B     		ldr	r3, .L131+16
 1110 0170 0093     		str	r3, [sp]
 1111 0172 2249     		ldr	r1, .L131+4
 1112              	.LVL131:
 1113 0174 264A     		ldr	r2, .L131+24
 1114              	.LVL132:
 1115 0176 2348     		ldr	r0, .L131+12
 1116              	.LVL133:
 1117 0178 E823     		movs	r3, #232
 1118 017a FFF7FEFF 		bl	chprintf.constprop.1
 1119              	.LVL134:
 1120              	.LBB126:
 1121              	.LBB127:
 1122              		.loc 3 416 0 discriminator 1
 1123 017e 2448     		ldr	r0, .L131+24
 1124 0180 FFF7FEFF 		bl	chSysHalt
 1125              	.LVL135:
 1126              	.LBE127:
 1127              	.LBE126:
 1128              		.loc 1 233 0 discriminator 1
 1129 0184 0020     		movs	r0, #0
 1130              		.loc 1 349 0 discriminator 1
 1131 0186 04B0     		add	sp, sp, #16
 1132              		@ sp needed
 1133 0188 BDE8F087 		pop	{r4, r5, r6, r7, r8, r9, r10, pc}
 1134              	.LVL136:
 1135              	.L130:
ARM GAS  C:\Users\jo\AppData\Local\Temp\ccDLAO0k.s 			page 21


 1136              		.cfi_restore_state
 1137              	.LBB128:
 1138              	.LBB129:
 1139              		.loc 1 163 0
 1140 018c 214B     		ldr	r3, .L131+28
 1141 018e 1A78     		ldrb	r2, [r3]	@ zero_extendqisi2
 1142              	.LVL137:
 1143              		.loc 1 164 0
 1144 0190 0121     		movs	r1, #1
 1145 0192 1970     		strb	r1, [r3]
 1146              		.loc 1 167 0
 1147 0194 0AB9     		cbnz	r2, .L112
 1148 0196 FFF7FEFF 		bl	pbuf_pool_is_empty.part.0
 1149              	.LVL138:
 1150              	.L112:
 1151              	.LBE129:
 1152              	.LBE128:
 1153              		.loc 1 276 0
 1154 019a 2846     		mov	r0, r5
 1155 019c FFF7FEFF 		bl	pbuf_free
 1156              	.LVL139:
 1157              	.L126:
 1158              		.loc 1 278 0
 1159 01a0 0020     		movs	r0, #0
 1160              		.loc 1 349 0
 1161 01a2 04B0     		add	sp, sp, #16
 1162              		.cfi_remember_state
 1163              		.cfi_def_cfa_offset 32
 1164              		@ sp needed
 1165 01a4 BDE8F087 		pop	{r4, r5, r6, r7, r8, r9, r10, pc}
 1166              	.LVL140:
 1167              	.L129:
 1168              		.cfi_restore_state
 1169              		.loc 1 293 0 discriminator 1
 1170 01a8 40F22713 		movw	r3, #295
 1171 01ac 1349     		ldr	r1, .L131+4
 1172 01ae 1A4A     		ldr	r2, .L131+32
 1173 01b0 CDF800A0 		str	r10, [sp]
 1174 01b4 1348     		ldr	r0, .L131+12
 1175 01b6 FFF7FEFF 		bl	chprintf.constprop.1
 1176              	.LVL141:
 1177              	.LBB130:
 1178              	.LBB131:
 1179              		.loc 3 416 0 discriminator 1
 1180 01ba 1748     		ldr	r0, .L131+32
 1181 01bc FFF7FEFF 		bl	chSysHalt
 1182              	.LVL142:
 1183 01c0 6389     		ldrh	r3, [r4, #10]
 1184 01c2 6DE7     		b	.L114
 1185              	.LVL143:
 1186              	.L127:
 1187              	.LBE131:
 1188              	.LBE130:
 1189              	.LBB132:
 1190              	.LBB133:
 1191              		.loc 1 163 0
 1192 01c4 134A     		ldr	r2, .L131+28
ARM GAS  C:\Users\jo\AppData\Local\Temp\ccDLAO0k.s 			page 22


 1193 01c6 1378     		ldrb	r3, [r2]	@ zero_extendqisi2
 1194              	.LVL144:
 1195              		.loc 1 164 0
 1196 01c8 0121     		movs	r1, #1
 1197 01ca 1170     		strb	r1, [r2]
 1198              		.loc 1 167 0
 1199 01cc 03F0FF05 		and	r5, r3, #255
 1200 01d0 002B     		cmp	r3, #0
 1201 01d2 E5D1     		bne	.L126
 1202 01d4 FFF7FEFF 		bl	pbuf_pool_is_empty.part.0
 1203              	.LVL145:
 1204              	.LBE133:
 1205              	.LBE132:
 1206              		.loc 1 243 0
 1207 01d8 2846     		mov	r0, r5
 1208 01da C5E7     		b	.L101
 1209              	.LVL146:
 1210              	.L128:
 1211              		.loc 1 256 0 discriminator 1
 1212 01dc 0A4B     		ldr	r3, .L131+16
 1213 01de 0093     		str	r3, [sp]
 1214 01e0 0649     		ldr	r1, .L131+4
 1215 01e2 0D4A     		ldr	r2, .L131+32
 1216 01e4 0748     		ldr	r0, .L131+12
 1217              	.LVL147:
 1218 01e6 4FF48173 		mov	r3, #258
 1219 01ea FFF7FEFF 		bl	chprintf.constprop.1
 1220              	.LVL148:
 1221              	.LBB134:
 1222              	.LBB135:
 1223              		.loc 3 416 0 discriminator 1
 1224 01ee 0A48     		ldr	r0, .L131+32
 1225 01f0 FFF7FEFF 		bl	chSysHalt
 1226              	.LVL149:
 1227 01f4 6E89     		ldrh	r6, [r5, #10]
 1228 01f6 39E7     		b	.L109
 1229              	.L132:
 1230              		.align	2
 1231              	.L131:
 1232 01f8 00000000 		.word	memp_sizes
 1233 01fc 00000000 		.word	.LC0
 1234 0200 50010000 		.word	.LC11
 1235 0204 00000000 		.word	itm_port
 1236 0208 4C000000 		.word	.LC2
 1237 020c 64010000 		.word	.LC12
 1238 0210 00010000 		.word	.LC9
 1239 0214 00000000 		.word	.LANCHOR0
 1240 0218 1C010000 		.word	.LC10
 1241              	.LBE135:
 1242              	.LBE134:
 1243              		.cfi_endproc
 1244              	.LFE263:
 1245              		.size	pbuf_alloc, .-pbuf_alloc
 1246 021c AFF30080 		.section	.text.pbuf_realloc,"ax",%progbits
 1247              		.align	2
 1248              		.p2align 4,,15
 1249              		.global	pbuf_realloc
ARM GAS  C:\Users\jo\AppData\Local\Temp\ccDLAO0k.s 			page 23


 1250              		.thumb
 1251              		.thumb_func
 1252              		.type	pbuf_realloc, %function
 1253              	pbuf_realloc:
 1254              	.LFB265:
 1255              		.loc 1 431 0
 1256              		.cfi_startproc
 1257              		@ args = 0, pretend = 0, frame = 0
 1258              		@ frame_needed = 0, uses_anonymous_args = 0
 1259              	.LVL150:
 1260 0000 F0B5     		push	{r4, r5, r6, r7, lr}
 1261              		.cfi_def_cfa_offset 20
 1262              		.cfi_offset 4, -20
 1263              		.cfi_offset 5, -16
 1264              		.cfi_offset 6, -12
 1265              		.cfi_offset 7, -8
 1266              		.cfi_offset 14, -4
 1267 0002 0D46     		mov	r5, r1
 1268 0004 83B0     		sub	sp, sp, #12
 1269              		.cfi_def_cfa_offset 32
 1270              		.loc 1 436 0
 1271 0006 0446     		mov	r4, r0
 1272 0008 0028     		cmp	r0, #0
 1273 000a 50D0     		beq	.L146
 1274              	.LVL151:
 1275              	.L134:
 1276              		.loc 1 437 0
 1277 000c 237B     		ldrb	r3, [r4, #12]	@ zero_extendqisi2
 1278 000e 032B     		cmp	r3, #3
 1279 0010 0BD9     		bls	.L135
 1280              		.loc 1 437 0 is_stmt 0 discriminator 4
 1281 0012 2D4B     		ldr	r3, .L149
 1282 0014 0093     		str	r3, [sp]
 1283 0016 2D48     		ldr	r0, .L149+4
 1284 0018 2D49     		ldr	r1, .L149+8
 1285 001a 2E4A     		ldr	r2, .L149+12
 1286 001c 4FF4DC73 		mov	r3, #440
 1287 0020 FFF7FEFF 		bl	chprintf.constprop.1
 1288              	.LVL152:
 1289              	.LBB136:
 1290              	.LBB137:
 1291              		.loc 3 416 0 is_stmt 1 discriminator 4
 1292 0024 2B48     		ldr	r0, .L149+12
 1293 0026 FFF7FEFF 		bl	chSysHalt
 1294              	.LVL153:
 1295              	.L135:
 1296              	.LBE137:
 1297              	.LBE136:
 1298              		.loc 1 443 0
 1299 002a 2689     		ldrh	r6, [r4, #8]
 1300 002c AE42     		cmp	r6, r5
 1301 002e 3CD9     		bls	.L133
 1302              		.loc 1 450 0
 1303 0030 AE1B     		subs	r6, r5, r6
 1304              	.LVL154:
 1305              		.loc 1 460 0
 1306 0032 254F     		ldr	r7, .L149
ARM GAS  C:\Users\jo\AppData\Local\Temp\ccDLAO0k.s 			page 24


 1307              		.loc 1 456 0
 1308 0034 04E0     		b	.L137
 1309              	.LVL155:
 1310              	.L138:
 1311              		.loc 1 461 0
 1312 0036 2389     		ldrh	r3, [r4, #8]
 1313 0038 3344     		add	r3, r3, r6
 1314 003a 2381     		strh	r3, [r4, #8]	@ movhi
 1315              		.loc 1 463 0
 1316 003c 2468     		ldr	r4, [r4]
 1317              	.LVL156:
 1318              		.loc 1 464 0
 1319 003e D4B1     		cbz	r4, .L147
 1320              	.L137:
 1321              		.loc 1 456 0
 1322 0040 6389     		ldrh	r3, [r4, #10]
 1323 0042 9D42     		cmp	r5, r3
 1324              		.loc 1 460 0
 1325 0044 4FF6FE71 		movw	r1, #65534
 1326              		.loc 1 458 0
 1327 0048 A5EB0302 		sub	r2, r5, r3
 1328              		.loc 1 456 0
 1329 004c 25D9     		bls	.L148
 1330              	.L140:
 1331              		.loc 1 460 0
 1332 004e 8E42     		cmp	r6, r1
 1333              		.loc 1 458 0
 1334 0050 95B2     		uxth	r5, r2
 1335              	.LVL157:
 1336              		.loc 1 460 0
 1337 0052 F0DD     		ble	.L138
 1338              		.loc 1 460 0 is_stmt 0 discriminator 1
 1339 0054 4FF4E673 		mov	r3, #460
 1340 0058 1D49     		ldr	r1, .L149+8
 1341 005a 1F4A     		ldr	r2, .L149+16
 1342 005c 0097     		str	r7, [sp]
 1343 005e 1B48     		ldr	r0, .L149+4
 1344 0060 FFF7FEFF 		bl	chprintf.constprop.1
 1345              	.LVL158:
 1346              	.LBB138:
 1347              	.LBB139:
 1348              		.loc 3 416 0 is_stmt 1 discriminator 1
 1349 0064 1C48     		ldr	r0, .L149+16
 1350 0066 FFF7FEFF 		bl	chSysHalt
 1351              	.LVL159:
 1352              	.LBE139:
 1353              	.LBE138:
 1354              		.loc 1 461 0 discriminator 1
 1355 006a 2389     		ldrh	r3, [r4, #8]
 1356 006c 3344     		add	r3, r3, r6
 1357 006e 2381     		strh	r3, [r4, #8]	@ movhi
 1358              		.loc 1 463 0 discriminator 1
 1359 0070 2468     		ldr	r4, [r4]
 1360              	.LVL160:
 1361              		.loc 1 464 0 discriminator 1
 1362 0072 002C     		cmp	r4, #0
 1363 0074 E4D1     		bne	.L137
ARM GAS  C:\Users\jo\AppData\Local\Temp\ccDLAO0k.s 			page 25


 1364              	.LVL161:
 1365              	.L147:
 1366 0076 1649     		ldr	r1, .L149+8
 1367 0078 184A     		ldr	r2, .L149+20
 1368 007a 0097     		str	r7, [sp]
 1369 007c 4FF4E873 		mov	r3, #464
 1370 0080 1248     		ldr	r0, .L149+4
 1371 0082 FFF7FEFF 		bl	chprintf.constprop.1
 1372              	.LVL162:
 1373              	.LBB140:
 1374              	.LBB141:
 1375              		.loc 3 416 0 discriminator 1
 1376 0086 1548     		ldr	r0, .L149+20
 1377 0088 FFF7FEFF 		bl	chSysHalt
 1378              	.LVL163:
 1379              	.LBE141:
 1380              	.LBE140:
 1381              		.loc 1 456 0 discriminator 1
 1382 008c 6389     		ldrh	r3, [r4, #10]
 1383 008e 9D42     		cmp	r5, r3
 1384              		.loc 1 460 0 discriminator 1
 1385 0090 4FF6FE71 		movw	r1, #65534
 1386              		.loc 1 458 0 discriminator 1
 1387 0094 A5EB0302 		sub	r2, r5, r3
 1388              		.loc 1 456 0 discriminator 1
 1389 0098 D9D8     		bhi	.L140
 1390              	.LVL164:
 1391              	.L148:
 1392              		.loc 1 481 0
 1393 009a 2068     		ldr	r0, [r4]
 1394              		.loc 1 477 0
 1395 009c 6581     		strh	r5, [r4, #10]	@ movhi
 1396              		.loc 1 478 0
 1397 009e 2581     		strh	r5, [r4, #8]	@ movhi
 1398              		.loc 1 481 0
 1399 00a0 08B1     		cbz	r0, .L141
 1400              		.loc 1 483 0
 1401 00a2 FFF7FEFF 		bl	pbuf_free
 1402              	.LVL165:
 1403              	.L141:
 1404              		.loc 1 486 0
 1405 00a6 0023     		movs	r3, #0
 1406 00a8 2360     		str	r3, [r4]
 1407              	.LVL166:
 1408              	.L133:
 1409              		.loc 1 488 0
 1410 00aa 03B0     		add	sp, sp, #12
 1411              		.cfi_remember_state
 1412              		.cfi_def_cfa_offset 20
 1413              		@ sp needed
 1414 00ac F0BD     		pop	{r4, r5, r6, r7, pc}
 1415              	.LVL167:
 1416              	.L146:
 1417              		.cfi_restore_state
 1418              		.loc 1 436 0 discriminator 1
 1419 00ae 064B     		ldr	r3, .L149
 1420 00b0 0093     		str	r3, [sp]
ARM GAS  C:\Users\jo\AppData\Local\Temp\ccDLAO0k.s 			page 26


 1421 00b2 0749     		ldr	r1, .L149+8
 1422              	.LVL168:
 1423 00b4 0A4A     		ldr	r2, .L149+24
 1424 00b6 0548     		ldr	r0, .L149+4
 1425              	.LVL169:
 1426 00b8 4FF4DA73 		mov	r3, #436
 1427 00bc FFF7FEFF 		bl	chprintf.constprop.1
 1428              	.LVL170:
 1429              	.LBB142:
 1430              	.LBB143:
 1431              		.loc 3 416 0 discriminator 1
 1432 00c0 0748     		ldr	r0, .L149+24
 1433 00c2 FFF7FEFF 		bl	chSysHalt
 1434              	.LVL171:
 1435 00c6 A1E7     		b	.L134
 1436              	.L150:
 1437              		.align	2
 1438              	.L149:
 1439 00c8 4C000000 		.word	.LC2
 1440 00cc 00000000 		.word	itm_port
 1441 00d0 00000000 		.word	.LC0
 1442 00d4 98010000 		.word	.LC14
 1443 00d8 B4010000 		.word	.LC15
 1444 00dc C8010000 		.word	.LC16
 1445 00e0 80010000 		.word	.LC13
 1446              	.LBE143:
 1447              	.LBE142:
 1448              		.cfi_endproc
 1449              	.LFE265:
 1450              		.size	pbuf_realloc, .-pbuf_realloc
 1451 00e4 AFF30080 		.section	.text.pbuf_clen,"ax",%progbits
 1451      AFF30080 
 1451      AFF30080 
 1452              		.align	2
 1453              		.p2align 4,,15
 1454              		.global	pbuf_clen
 1455              		.thumb
 1456              		.thumb_func
 1457              		.type	pbuf_clen, %function
 1458              	pbuf_clen:
 1459              	.LFB268:
 1460              		.loc 1 705 0
 1461              		.cfi_startproc
 1462              		@ args = 0, pretend = 0, frame = 0
 1463              		@ frame_needed = 0, uses_anonymous_args = 0
 1464              		@ link register save eliminated.
 1465              	.LVL172:
 1466              		.loc 1 709 0
 1467 0000 0346     		mov	r3, r0
 1468 0002 30B1     		cbz	r0, .L154
 1469 0004 0020     		movs	r0, #0
 1470              	.LVL173:
 1471              	.L153:
 1472              		.loc 1 711 0
 1473 0006 1B68     		ldr	r3, [r3]
 1474              	.LVL174:
 1475              		.loc 1 710 0
ARM GAS  C:\Users\jo\AppData\Local\Temp\ccDLAO0k.s 			page 27


 1476 0008 0130     		adds	r0, r0, #1
 1477              	.LVL175:
 1478 000a C0B2     		uxtb	r0, r0
 1479              	.LVL176:
 1480              		.loc 1 709 0
 1481 000c 002B     		cmp	r3, #0
 1482 000e FAD1     		bne	.L153
 1483 0010 7047     		bx	lr
 1484              	.LVL177:
 1485              	.L154:
 1486              		.loc 1 714 0
 1487 0012 7047     		bx	lr
 1488              		.cfi_endproc
 1489              	.LFE268:
 1490              		.size	pbuf_clen, .-pbuf_clen
 1491 0014 AFF30080 		.section	.text.pbuf_ref,"ax",%progbits
 1491      AFF30080 
 1491      AFF30080 
 1492              		.align	2
 1493              		.p2align 4,,15
 1494              		.global	pbuf_ref
 1495              		.thumb
 1496              		.thumb_func
 1497              		.type	pbuf_ref, %function
 1498              	pbuf_ref:
 1499              	.LFB269:
 1500              		.loc 1 724 0
 1501              		.cfi_startproc
 1502              		@ args = 0, pretend = 0, frame = 0
 1503              		@ frame_needed = 0, uses_anonymous_args = 0
 1504              		@ link register save eliminated.
 1505              	.LVL178:
 1506              		.loc 1 727 0
 1507 0000 10B1     		cbz	r0, .L156
 1508              		.loc 1 729 0
 1509 0002 C389     		ldrh	r3, [r0, #14]
 1510 0004 0133     		adds	r3, r3, #1
 1511 0006 C381     		strh	r3, [r0, #14]	@ movhi
 1512              	.L156:
 1513 0008 7047     		bx	lr
 1514              		.cfi_endproc
 1515              	.LFE269:
 1516              		.size	pbuf_ref, .-pbuf_ref
 1517 000a 00BFAFF3 		.section	.text.pbuf_cat,"ax",%progbits
 1517      0080
 1518              		.align	2
 1519              		.p2align 4,,15
 1520              		.global	pbuf_cat
 1521              		.thumb
 1522              		.thumb_func
 1523              		.type	pbuf_cat, %function
 1524              	pbuf_cat:
 1525              	.LFB270:
 1526              		.loc 1 746 0
 1527              		.cfi_startproc
 1528              		@ args = 0, pretend = 0, frame = 0
 1529              		@ frame_needed = 0, uses_anonymous_args = 0
ARM GAS  C:\Users\jo\AppData\Local\Temp\ccDLAO0k.s 			page 28


 1530              	.LVL179:
 1531 0000 70B5     		push	{r4, r5, r6, lr}
 1532              		.cfi_def_cfa_offset 16
 1533              		.cfi_offset 4, -16
 1534              		.cfi_offset 5, -12
 1535              		.cfi_offset 6, -8
 1536              		.cfi_offset 14, -4
 1537 0002 82B0     		sub	sp, sp, #8
 1538              		.cfi_def_cfa_offset 24
 1539              		.loc 1 749 0
 1540 0004 0028     		cmp	r0, #0
 1541 0006 32D0     		beq	.L162
 1542 0008 0D46     		mov	r5, r1
 1543              		.loc 1 749 0 is_stmt 0 discriminator 2
 1544 000a 0029     		cmp	r1, #0
 1545 000c 2FD0     		beq	.L162
 1546              	.LVL180:
 1547              		.loc 1 753 0 is_stmt 1 discriminator 1
 1548 000e 0468     		ldr	r4, [r0]
 1549 0010 0CB9     		cbnz	r4, .L165
 1550 0012 3BE0     		b	.L179
 1551              	.LVL181:
 1552              	.L169:
 1553 0014 1446     		mov	r4, r2
 1554              	.L165:
 1555              		.loc 1 755 0 discriminator 3
 1556 0016 0389     		ldrh	r3, [r0, #8]
 1557 0018 2989     		ldrh	r1, [r5, #8]
 1558              		.loc 1 753 0 discriminator 3
 1559 001a 2268     		ldr	r2, [r4]
 1560              		.loc 1 755 0 discriminator 3
 1561 001c 0B44     		add	r3, r3, r1
 1562 001e 0381     		strh	r3, [r0, #8]	@ movhi
 1563              	.LVL182:
 1564 0020 2046     		mov	r0, r4
 1565              		.loc 1 753 0 discriminator 3
 1566 0022 002A     		cmp	r2, #0
 1567 0024 F6D1     		bne	.L169
 1568              	.LVL183:
 1569              	.L164:
 1570              		.loc 1 758 0
 1571 0026 6289     		ldrh	r2, [r4, #10]
 1572 0028 2389     		ldrh	r3, [r4, #8]
 1573 002a 9342     		cmp	r3, r2
 1574 002c 19D0     		beq	.L167
 1575              		.loc 1 758 0 is_stmt 0 discriminator 1
 1576 002e 184E     		ldr	r6, .L180
 1577 0030 1849     		ldr	r1, .L180+4
 1578 0032 194A     		ldr	r2, .L180+8
 1579 0034 0096     		str	r6, [sp]
 1580 0036 40F2F623 		movw	r3, #758
 1581 003a 1848     		ldr	r0, .L180+12
 1582              	.LVL184:
 1583 003c FFF7FEFF 		bl	chprintf.constprop.1
 1584              	.LVL185:
 1585              	.LBB144:
 1586              	.LBB145:
ARM GAS  C:\Users\jo\AppData\Local\Temp\ccDLAO0k.s 			page 29


 1587              		.loc 3 416 0 is_stmt 1 discriminator 1
 1588 0040 1548     		ldr	r0, .L180+8
 1589 0042 FFF7FEFF 		bl	chSysHalt
 1590              	.LVL186:
 1591              	.LBE145:
 1592              	.LBE144:
 1593              		.loc 1 759 0 discriminator 1
 1594 0046 2368     		ldr	r3, [r4]
 1595 0048 53B1     		cbz	r3, .L178
 1596 004a 0096     		str	r6, [sp]
 1597 004c 1348     		ldr	r0, .L180+12
 1598 004e 1149     		ldr	r1, .L180+4
 1599 0050 134A     		ldr	r2, .L180+16
 1600 0052 40F2F723 		movw	r3, #759
 1601 0056 FFF7FEFF 		bl	chprintf.constprop.1
 1602              	.LVL187:
 1603              	.LBB146:
 1604              	.LBB147:
 1605              		.loc 3 416 0 discriminator 1
 1606 005a 1148     		ldr	r0, .L180+16
 1607 005c FFF7FEFF 		bl	chSysHalt
 1608              	.LVL188:
 1609              	.L178:
 1610 0060 2289     		ldrh	r2, [r4, #8]
 1611              	.LVL189:
 1612              	.L167:
 1613              	.LBE147:
 1614              	.LBE146:
 1615              		.loc 1 761 0
 1616 0062 2B89     		ldrh	r3, [r5, #8]
 1617              		.loc 1 763 0
 1618 0064 2560     		str	r5, [r4]
 1619              		.loc 1 761 0
 1620 0066 1344     		add	r3, r3, r2
 1621 0068 2381     		strh	r3, [r4, #8]	@ movhi
 1622              		.loc 1 767 0
 1623 006a 02B0     		add	sp, sp, #8
 1624              		.cfi_remember_state
 1625              		.cfi_def_cfa_offset 16
 1626              		@ sp needed
 1627 006c 70BD     		pop	{r4, r5, r6, pc}
 1628              	.LVL190:
 1629              	.L162:
 1630              		.cfi_restore_state
 1631              		.loc 1 749 0 discriminator 3
 1632 006e 084B     		ldr	r3, .L180
 1633 0070 0093     		str	r3, [sp]
 1634 0072 0849     		ldr	r1, .L180+4
 1635              	.LVL191:
 1636 0074 0B4A     		ldr	r2, .L180+20
 1637 0076 0948     		ldr	r0, .L180+12
 1638              	.LVL192:
 1639 0078 40F2EE23 		movw	r3, #750
 1640 007c FFF7FEFF 		bl	chprintf.constprop.1
 1641              	.LVL193:
 1642              	.LBB148:
 1643              	.LBB149:
ARM GAS  C:\Users\jo\AppData\Local\Temp\ccDLAO0k.s 			page 30


 1644              		.loc 3 416 0 discriminator 3
 1645 0080 0848     		ldr	r0, .L180+20
 1646              	.LBE149:
 1647              	.LBE148:
 1648              		.loc 1 767 0 discriminator 3
 1649 0082 02B0     		add	sp, sp, #8
 1650              		.cfi_remember_state
 1651              		.cfi_def_cfa_offset 16
 1652              		@ sp needed
 1653 0084 BDE87040 		pop	{r4, r5, r6, lr}
 1654              		.cfi_restore 14
 1655              		.cfi_restore 6
 1656              		.cfi_restore 5
 1657              		.cfi_restore 4
 1658              		.cfi_def_cfa_offset 0
 1659              	.LBB151:
 1660              	.LBB150:
 1661              		.loc 3 416 0 discriminator 3
 1662 0088 FFF7FEBF 		b	chSysHalt
 1663              	.LVL194:
 1664              	.L179:
 1665              		.cfi_restore_state
 1666              	.LBE150:
 1667              	.LBE151:
 1668              		.loc 1 753 0
 1669 008c 0446     		mov	r4, r0
 1670 008e CAE7     		b	.L164
 1671              	.L181:
 1672              		.align	2
 1673              	.L180:
 1674 0090 4C000000 		.word	.LC2
 1675 0094 00000000 		.word	.LC0
 1676 0098 18020000 		.word	.LC18
 1677 009c 00000000 		.word	itm_port
 1678 00a0 48020000 		.word	.LC19
 1679 00a4 E0010000 		.word	.LC17
 1680              		.cfi_endproc
 1681              	.LFE270:
 1682              		.size	pbuf_cat, .-pbuf_cat
 1683 00a8 AFF30080 		.section	.text.pbuf_chain,"ax",%progbits
 1683      AFF30080 
 1684              		.align	2
 1685              		.p2align 4,,15
 1686              		.global	pbuf_chain
 1687              		.thumb
 1688              		.thumb_func
 1689              		.type	pbuf_chain, %function
 1690              	pbuf_chain:
 1691              	.LFB271:
 1692              		.loc 1 787 0
 1693              		.cfi_startproc
 1694              		@ args = 0, pretend = 0, frame = 0
 1695              		@ frame_needed = 0, uses_anonymous_args = 0
 1696              	.LVL195:
 1697 0000 10B5     		push	{r4, lr}
 1698              		.cfi_def_cfa_offset 8
 1699              		.cfi_offset 4, -8
ARM GAS  C:\Users\jo\AppData\Local\Temp\ccDLAO0k.s 			page 31


 1700              		.cfi_offset 14, -4
 1701              		.loc 1 787 0
 1702 0002 0C46     		mov	r4, r1
 1703              		.loc 1 788 0
 1704 0004 FFF7FEFF 		bl	pbuf_cat
 1705              	.LVL196:
 1706              	.LBB152:
 1707              	.LBB153:
 1708              		.loc 1 727 0
 1709 0008 14B1     		cbz	r4, .L182
 1710              		.loc 1 729 0
 1711 000a E389     		ldrh	r3, [r4, #14]
 1712 000c 0133     		adds	r3, r3, #1
 1713 000e E381     		strh	r3, [r4, #14]	@ movhi
 1714              	.L182:
 1715 0010 10BD     		pop	{r4, pc}
 1716              	.LBE153:
 1717              	.LBE152:
 1718              		.cfi_endproc
 1719              	.LFE271:
 1720              		.size	pbuf_chain, .-pbuf_chain
 1721 0012 00BFAFF3 		.section	.text.pbuf_dechain,"ax",%progbits
 1721      0080AFF3 
 1721      0080AFF3 
 1721      0080
 1722              		.align	2
 1723              		.p2align 4,,15
 1724              		.global	pbuf_dechain
 1725              		.thumb
 1726              		.thumb_func
 1727              		.type	pbuf_dechain, %function
 1728              	pbuf_dechain:
 1729              	.LFB272:
 1730              		.loc 1 804 0
 1731              		.cfi_startproc
 1732              		@ args = 0, pretend = 0, frame = 0
 1733              		@ frame_needed = 0, uses_anonymous_args = 0
 1734              	.LVL197:
 1735 0000 70B5     		push	{r4, r5, r6, lr}
 1736              		.cfi_def_cfa_offset 16
 1737              		.cfi_offset 4, -16
 1738              		.cfi_offset 5, -12
 1739              		.cfi_offset 6, -8
 1740              		.cfi_offset 14, -4
 1741              		.loc 1 808 0
 1742 0002 0568     		ldr	r5, [r0]
 1743              	.LVL198:
 1744              		.loc 1 804 0
 1745 0004 82B0     		sub	sp, sp, #8
 1746              		.cfi_def_cfa_offset 24
 1747              		.loc 1 804 0
 1748 0006 0446     		mov	r4, r0
 1749              		.loc 1 810 0
 1750 0008 002D     		cmp	r5, #0
 1751 000a 33D0     		beq	.L189
 1752              		.loc 1 812 0
 1753 000c 0389     		ldrh	r3, [r0, #8]
ARM GAS  C:\Users\jo\AppData\Local\Temp\ccDLAO0k.s 			page 32


 1754 000e 4289     		ldrh	r2, [r0, #10]
 1755 0010 2989     		ldrh	r1, [r5, #8]
 1756 0012 9B1A     		subs	r3, r3, r2
 1757 0014 9942     		cmp	r1, r3
 1758 0016 0ED0     		beq	.L190
 1759              		.loc 1 812 0 is_stmt 0 discriminator 1
 1760 0018 194B     		ldr	r3, .L199
 1761 001a 1A4A     		ldr	r2, .L199+4
 1762 001c 0093     		str	r3, [sp]
 1763 001e 1A49     		ldr	r1, .L199+8
 1764 0020 1A48     		ldr	r0, .L199+12
 1765              	.LVL199:
 1766 0022 4FF44B73 		mov	r3, #812
 1767 0026 FFF7FEFF 		bl	chprintf.constprop.1
 1768              	.LVL200:
 1769              	.LBB154:
 1770              	.LBB155:
 1771              		.loc 3 416 0 is_stmt 1 discriminator 1
 1772 002a 1648     		ldr	r0, .L199+4
 1773 002c FFF7FEFF 		bl	chSysHalt
 1774              	.LVL201:
 1775 0030 2389     		ldrh	r3, [r4, #8]
 1776 0032 6289     		ldrh	r2, [r4, #10]
 1777 0034 9B1A     		subs	r3, r3, r2
 1778              	.LVL202:
 1779              	.L190:
 1780              	.LBE155:
 1781              	.LBE154:
 1782              		.loc 1 816 0
 1783 0036 0021     		movs	r1, #0
 1784              		.loc 1 814 0
 1785 0038 2B81     		strh	r3, [r5, #8]	@ movhi
 1786              		.loc 1 821 0
 1787 003a 2846     		mov	r0, r5
 1788              		.loc 1 818 0
 1789 003c 2281     		strh	r2, [r4, #8]	@ movhi
 1790              		.loc 1 816 0
 1791 003e 2160     		str	r1, [r4]
 1792              		.loc 1 821 0
 1793 0040 FFF7FEFF 		bl	pbuf_free
 1794              	.LVL203:
 1795              		.loc 1 829 0
 1796 0044 2289     		ldrh	r2, [r4, #8]
 1797 0046 6389     		ldrh	r3, [r4, #10]
 1798 0048 9A42     		cmp	r2, r3
 1799              		.loc 1 821 0
 1800 004a 0646     		mov	r6, r0
 1801              	.LVL204:
 1802              		.loc 1 829 0
 1803 004c 0BD0     		beq	.L191
 1804              	.LVL205:
 1805              	.L193:
 1806              		.loc 1 829 0 is_stmt 0 discriminator 1
 1807 004e 0C4B     		ldr	r3, .L199
 1808 0050 0093     		str	r3, [sp]
 1809 0052 0E48     		ldr	r0, .L199+12
 1810 0054 0C49     		ldr	r1, .L199+8
ARM GAS  C:\Users\jo\AppData\Local\Temp\ccDLAO0k.s 			page 33


 1811 0056 0E4A     		ldr	r2, .L199+16
 1812 0058 40F23D33 		movw	r3, #829
 1813 005c FFF7FEFF 		bl	chprintf.constprop.1
 1814              	.LVL206:
 1815              	.LBB156:
 1816              	.LBB157:
 1817              		.loc 3 416 0 is_stmt 1 discriminator 1
 1818 0060 0B48     		ldr	r0, .L199+16
 1819 0062 FFF7FEFF 		bl	chSysHalt
 1820              	.LVL207:
 1821              	.L191:
 1822              	.LBE157:
 1823              	.LBE156:
 1824              		.loc 1 808 0
 1825 0066 2846     		mov	r0, r5
 1826              		.loc 1 830 0
 1827 0068 0EB9     		cbnz	r6, .L194
 1828              	.LVL208:
 1829              		.loc 1 831 0
 1830 006a 02B0     		add	sp, sp, #8
 1831              		.cfi_remember_state
 1832              		.cfi_def_cfa_offset 16
 1833              		@ sp needed
 1834 006c 70BD     		pop	{r4, r5, r6, pc}
 1835              	.LVL209:
 1836              	.L194:
 1837              		.cfi_restore_state
 1838              		.loc 1 830 0
 1839 006e 0020     		movs	r0, #0
 1840              		.loc 1 831 0
 1841 0070 02B0     		add	sp, sp, #8
 1842              		.cfi_remember_state
 1843              		.cfi_def_cfa_offset 16
 1844              		@ sp needed
 1845 0072 70BD     		pop	{r4, r5, r6, pc}
 1846              	.LVL210:
 1847              	.L189:
 1848              		.cfi_restore_state
 1849              		.loc 1 829 0
 1850 0074 0289     		ldrh	r2, [r0, #8]
 1851 0076 4389     		ldrh	r3, [r0, #10]
 1852 0078 9A42     		cmp	r2, r3
 1853 007a F8D0     		beq	.L194
 1854              		.loc 1 806 0
 1855 007c 0126     		movs	r6, #1
 1856 007e E6E7     		b	.L193
 1857              	.L200:
 1858              		.align	2
 1859              	.L199:
 1860 0080 4C000000 		.word	.LC2
 1861 0084 58020000 		.word	.LC20
 1862 0088 00000000 		.word	.LC0
 1863 008c 00000000 		.word	itm_port
 1864 0090 7C020000 		.word	.LC21
 1865              		.cfi_endproc
 1866              	.LFE272:
 1867              		.size	pbuf_dechain, .-pbuf_dechain
ARM GAS  C:\Users\jo\AppData\Local\Temp\ccDLAO0k.s 			page 34


 1868 0094 AFF30080 		.section	.text.pbuf_copy,"ax",%progbits
 1868      AFF30080 
 1868      AFF30080 
 1869              		.align	2
 1870              		.p2align 4,,15
 1871              		.global	pbuf_copy
 1872              		.thumb
 1873              		.thumb_func
 1874              		.type	pbuf_copy, %function
 1875              	pbuf_copy:
 1876              	.LFB273:
 1877              		.loc 1 853 0
 1878              		.cfi_startproc
 1879              		@ args = 0, pretend = 0, frame = 0
 1880              		@ frame_needed = 0, uses_anonymous_args = 0
 1881              	.LVL211:
 1882 0000 2DE9F043 		push	{r4, r5, r6, r7, r8, r9, lr}
 1883              		.cfi_def_cfa_offset 28
 1884              		.cfi_offset 4, -28
 1885              		.cfi_offset 5, -24
 1886              		.cfi_offset 6, -20
 1887              		.cfi_offset 7, -16
 1888              		.cfi_offset 8, -12
 1889              		.cfi_offset 9, -8
 1890              		.cfi_offset 14, -4
 1891              		.loc 1 860 0
 1892 0004 8046     		mov	r8, r0
 1893              		.loc 1 853 0
 1894 0006 83B0     		sub	sp, sp, #12
 1895              		.cfi_def_cfa_offset 40
 1896              		.loc 1 860 0
 1897 0008 0028     		cmp	r0, #0
 1898 000a 00F0A580 		beq	.L202
 1899 000e 0D46     		mov	r5, r1
 1900              		.loc 1 860 0 is_stmt 0 discriminator 2
 1901 0010 0029     		cmp	r1, #0
 1902 0012 00F0A180 		beq	.L202
 1903              		.loc 1 860 0 discriminator 4
 1904 0016 0289     		ldrh	r2, [r0, #8]
 1905 0018 0B89     		ldrh	r3, [r1, #8]
 1906 001a 9A42     		cmp	r2, r3
 1907 001c C0F09C80 		bcc	.L202
 1908              		.loc 1 860 0
 1909 0020 4FF00009 		mov	r9, #0
 1910 0024 4389     		ldrh	r3, [r0, #10]
 1911 0026 4A89     		ldrh	r2, [r1, #10]
 1912              		.loc 1 877 0 is_stmt 1
 1913 0028 524F     		ldr	r7, .L242
 1914              		.loc 1 860 0
 1915 002a 4E46     		mov	r6, r9
 1916              	.LVL212:
 1917              	.L205:
 1918              		.loc 1 867 0
 1919 002c C9EB0204 		rsb	r4, r9, r2
 1920 0030 9B1B     		subs	r3, r3, r6
 1921 0032 A342     		cmp	r3, r4
 1922              		.loc 1 874 0
ARM GAS  C:\Users\jo\AppData\Local\Temp\ccDLAO0k.s 			page 35


 1923 0034 D8F80400 		ldr	r0, [r8, #4]
 1924 0038 6968     		ldr	r1, [r5, #4]
 1925              		.loc 1 872 0
 1926 003a B4BF     		ite	lt
 1927 003c 9CB2     		uxthlt	r4, r3
 1928              		.loc 1 869 0
 1929 003e A4B2     		uxthge	r4, r4
 1930              	.LVL213:
 1931              		.loc 1 874 0
 1932 0040 3044     		add	r0, r0, r6
 1933 0042 4944     		add	r1, r1, r9
 1934 0044 2246     		mov	r2, r4
 1935 0046 FFF7FEFF 		bl	memcpy
 1936              	.LVL214:
 1937              		.loc 1 875 0
 1938 004a 2644     		add	r6, r6, r4
 1939              	.LVL215:
 1940              		.loc 1 877 0
 1941 004c B8F80A30 		ldrh	r3, [r8, #10]
 1942              		.loc 1 875 0
 1943 0050 B6B2     		uxth	r6, r6
 1944              	.LVL216:
 1945              		.loc 1 876 0
 1946 0052 4C44     		add	r4, r4, r9
 1947              	.LVL217:
 1948              		.loc 1 877 0
 1949 0054 B342     		cmp	r3, r6
 1950              		.loc 1 876 0
 1951 0056 1FFA84F9 		uxth	r9, r4
 1952              	.LVL218:
 1953              		.loc 1 877 0
 1954 005a 3CD3     		bcc	.L235
 1955              	.L208:
 1956              		.loc 1 878 0
 1957 005c 6B89     		ldrh	r3, [r5, #10]
 1958 005e 9945     		cmp	r9, r3
 1959 0060 2CD8     		bhi	.L236
 1960              	.L209:
 1961              		.loc 1 879 0
 1962 0062 9945     		cmp	r9, r3
 1963              	.LVL219:
 1964              		.loc 1 884 0
 1965 0064 B8F80A30 		ldrh	r3, [r8, #10]
 1966              		.loc 1 882 0
 1967 0068 24BF     		itt	cs
 1968 006a 2D68     		ldrcs	r5, [r5]
 1969              	.LVL220:
 1970              		.loc 1 881 0
 1971 006c 4FF00009 		movcs	r9, #0
 1972              	.LVL221:
 1973              		.loc 1 884 0
 1974 0070 B342     		cmp	r3, r6
 1975 0072 11D0     		beq	.L237
 1976              		.loc 1 891 0
 1977 0074 C5B1     		cbz	r5, .L238
 1978              	.L217:
 1979              		.loc 1 891 0 is_stmt 0 discriminator 1
ARM GAS  C:\Users\jo\AppData\Local\Temp\ccDLAO0k.s 			page 36


 1980 0076 6A89     		ldrh	r2, [r5, #10]
 1981 0078 2B89     		ldrh	r3, [r5, #8]
 1982 007a 9A42     		cmp	r2, r3
 1983 007c 37D0     		beq	.L239
 1984              	.L212:
 1985              		.loc 1 896 0 is_stmt 1
 1986 007e B8F80A30 		ldrh	r3, [r8, #10]
 1987 0082 B8F80810 		ldrh	r1, [r8, #8]
 1988 0086 9942     		cmp	r1, r3
 1989 0088 D0D1     		bne	.L205
 1990              	.L215:
 1991              		.loc 1 898 0
 1992 008a D8F80020 		ldr	r2, [r8]
 1993 008e 002A     		cmp	r2, #0
 1994 0090 51D1     		bne	.L240
 1995              		.loc 1 901 0
 1996 0092 7DB1     		cbz	r5, .L204
 1997 0094 6A89     		ldrh	r2, [r5, #10]
 1998 0096 C9E7     		b	.L205
 1999              	.L237:
 2000              	.LVL222:
 2001              		.loc 1 887 0
 2002 0098 D8F80080 		ldr	r8, [r8]
 2003              	.LVL223:
 2004              		.loc 1 888 0
 2005 009c B8F1000F 		cmp	r8, #0
 2006 00a0 39D0     		beq	.L241
 2007              		.loc 1 886 0
 2008 00a2 0026     		movs	r6, #0
 2009              	.LVL224:
 2010              		.loc 1 891 0
 2011 00a4 002D     		cmp	r5, #0
 2012 00a6 E6D1     		bne	.L217
 2013              	.L238:
 2014              		.loc 1 896 0
 2015 00a8 B8F80A30 		ldrh	r3, [r8, #10]
 2016 00ac B8F80820 		ldrh	r2, [r8, #8]
 2017 00b0 9A42     		cmp	r2, r3
 2018 00b2 EAD0     		beq	.L215
 2019              	.LVL225:
 2020              	.L204:
 2021 00b4 68B2     		sxtb	r0, r5
 2022              		.loc 1 904 0
 2023 00b6 03B0     		add	sp, sp, #12
 2024              		.cfi_remember_state
 2025              		.cfi_def_cfa_offset 28
 2026              		@ sp needed
 2027 00b8 BDE8F083 		pop	{r4, r5, r6, r7, r8, r9, pc}
 2028              	.LVL226:
 2029              	.L236:
 2030              		.cfi_restore_state
 2031              		.loc 1 878 0 discriminator 1
 2032 00bc 40F26E33 		movw	r3, #878
 2033 00c0 2D49     		ldr	r1, .L242+4
 2034 00c2 2E4A     		ldr	r2, .L242+8
 2035 00c4 0097     		str	r7, [sp]
 2036 00c6 2E48     		ldr	r0, .L242+12
ARM GAS  C:\Users\jo\AppData\Local\Temp\ccDLAO0k.s 			page 37


 2037 00c8 FFF7FEFF 		bl	chprintf.constprop.1
 2038              	.LVL227:
 2039              	.LBB158:
 2040              	.LBB159:
 2041              		.loc 3 416 0 discriminator 1
 2042 00cc 2B48     		ldr	r0, .L242+8
 2043 00ce FFF7FEFF 		bl	chSysHalt
 2044              	.LVL228:
 2045 00d2 6B89     		ldrh	r3, [r5, #10]
 2046 00d4 C5E7     		b	.L209
 2047              	.LVL229:
 2048              	.L235:
 2049              	.LBE159:
 2050              	.LBE158:
 2051              		.loc 1 877 0 discriminator 1
 2052 00d6 0097     		str	r7, [sp]
 2053 00d8 2749     		ldr	r1, .L242+4
 2054 00da 2A4A     		ldr	r2, .L242+16
 2055 00dc 2848     		ldr	r0, .L242+12
 2056 00de 40F26D33 		movw	r3, #877
 2057 00e2 FFF7FEFF 		bl	chprintf.constprop.1
 2058              	.LVL230:
 2059              	.LBB160:
 2060              	.LBB161:
 2061              		.loc 3 416 0 discriminator 1
 2062 00e6 2748     		ldr	r0, .L242+16
 2063 00e8 FFF7FEFF 		bl	chSysHalt
 2064              	.LVL231:
 2065 00ec B6E7     		b	.L208
 2066              	.LVL232:
 2067              	.L239:
 2068              	.LBE161:
 2069              	.LBE160:
 2070              		.loc 1 893 0
 2071 00ee 2B68     		ldr	r3, [r5]
 2072 00f0 002B     		cmp	r3, #0
 2073 00f2 C4D0     		beq	.L212
 2074              		.loc 1 893 0 is_stmt 0 discriminator 1
 2075 00f4 1F4B     		ldr	r3, .L242
 2076 00f6 0093     		str	r3, [sp]
 2077 00f8 1F49     		ldr	r1, .L242+4
 2078 00fa 234A     		ldr	r2, .L242+20
 2079 00fc 2048     		ldr	r0, .L242+12
 2080 00fe 40F27E33 		movw	r3, #894
 2081 0102 FFF7FEFF 		bl	chprintf.constprop.1
 2082              	.LVL233:
 2083              	.LBB162:
 2084              	.LBB163:
 2085              		.loc 3 416 0 is_stmt 1 discriminator 1
 2086 0106 2048     		ldr	r0, .L242+20
 2087 0108 FFF7FEFF 		bl	chSysHalt
 2088              	.LVL234:
 2089              	.LBE163:
 2090              	.LBE162:
 2091              		.loc 1 893 0 discriminator 1
 2092 010c FA25     		movs	r5, #250
 2093              	.LVL235:
ARM GAS  C:\Users\jo\AppData\Local\Temp\ccDLAO0k.s 			page 38


 2094 010e 68B2     		sxtb	r0, r5
 2095              		.loc 1 904 0 discriminator 1
 2096 0110 03B0     		add	sp, sp, #12
 2097              		.cfi_remember_state
 2098              		.cfi_def_cfa_offset 28
 2099              		@ sp needed
 2100 0112 BDE8F083 		pop	{r4, r5, r6, r7, r8, r9, pc}
 2101              	.LVL236:
 2102              	.L241:
 2103              		.cfi_restore_state
 2104              		.loc 1 888 0 discriminator 1
 2105 0116 002D     		cmp	r5, #0
 2106 0118 CCD0     		beq	.L204
 2107              		.loc 1 888 0 is_stmt 0 discriminator 2
 2108 011a 164B     		ldr	r3, .L242
 2109 011c 0093     		str	r3, [sp]
 2110 011e 1649     		ldr	r1, .L242+4
 2111 0120 1A4A     		ldr	r2, .L242+24
 2112 0122 1748     		ldr	r0, .L242+12
 2113 0124 4FF45E73 		mov	r3, #888
 2114 0128 FFF7FEFF 		bl	chprintf.constprop.1
 2115              	.LVL237:
 2116              	.LBB164:
 2117              	.LBB165:
 2118              		.loc 3 416 0 is_stmt 1 discriminator 2
 2119 012c 1748     		ldr	r0, .L242+24
 2120 012e FFF7FEFF 		bl	chSysHalt
 2121              	.LVL238:
 2122              	.LBE165:
 2123              	.LBE164:
 2124              		.loc 1 888 0 discriminator 2
 2125 0132 F225     		movs	r5, #242
 2126              	.LVL239:
 2127 0134 BEE7     		b	.L204
 2128              	.LVL240:
 2129              	.L240:
 2130              		.loc 1 898 0 discriminator 1
 2131 0136 0F4B     		ldr	r3, .L242
 2132 0138 0093     		str	r3, [sp]
 2133 013a 0F49     		ldr	r1, .L242+4
 2134 013c 124A     		ldr	r2, .L242+20
 2135 013e 1048     		ldr	r0, .L242+12
 2136 0140 40F28333 		movw	r3, #899
 2137 0144 FFF7FEFF 		bl	chprintf.constprop.1
 2138              	.LVL241:
 2139              	.LBB166:
 2140              	.LBB167:
 2141              		.loc 3 416 0 discriminator 1
 2142 0148 0F48     		ldr	r0, .L242+20
 2143 014a FFF7FEFF 		bl	chSysHalt
 2144              	.LVL242:
 2145              	.LBE167:
 2146              	.LBE166:
 2147              		.loc 1 898 0 discriminator 1
 2148 014e FA25     		movs	r5, #250
 2149              	.LVL243:
 2150 0150 68B2     		sxtb	r0, r5
ARM GAS  C:\Users\jo\AppData\Local\Temp\ccDLAO0k.s 			page 39


 2151              		.loc 1 904 0 discriminator 1
 2152 0152 03B0     		add	sp, sp, #12
 2153              		.cfi_remember_state
 2154              		.cfi_def_cfa_offset 28
 2155              		@ sp needed
 2156 0154 BDE8F083 		pop	{r4, r5, r6, r7, r8, r9, pc}
 2157              	.LVL244:
 2158              	.L202:
 2159              		.cfi_restore_state
 2160              		.loc 1 860 0 discriminator 5
 2161 0158 064B     		ldr	r3, .L242
 2162 015a 0093     		str	r3, [sp]
 2163 015c 0649     		ldr	r1, .L242+4
 2164              	.LVL245:
 2165 015e 0C4A     		ldr	r2, .L242+28
 2166 0160 0748     		ldr	r0, .L242+12
 2167              	.LVL246:
 2168 0162 40F25D33 		movw	r3, #861
 2169 0166 FFF7FEFF 		bl	chprintf.constprop.1
 2170              	.LVL247:
 2171              	.LBB168:
 2172              	.LBB169:
 2173              		.loc 3 416 0 discriminator 5
 2174 016a 0948     		ldr	r0, .L242+28
 2175 016c FFF7FEFF 		bl	chSysHalt
 2176              	.LVL248:
 2177              	.LBE169:
 2178              	.LBE168:
 2179              		.loc 1 860 0 discriminator 5
 2180 0170 F225     		movs	r5, #242
 2181 0172 9FE7     		b	.L204
 2182              	.L243:
 2183              		.align	2
 2184              	.L242:
 2185 0174 4C000000 		.word	.LC2
 2186 0178 00000000 		.word	.LC0
 2187 017c DC020000 		.word	.LC24
 2188 0180 00000000 		.word	itm_port
 2189 0184 C4020000 		.word	.LC23
 2190 0188 08030000 		.word	.LC26
 2191 018c F8020000 		.word	.LC25
 2192 0190 94020000 		.word	.LC22
 2193              		.cfi_endproc
 2194              	.LFE273:
 2195              		.size	pbuf_copy, .-pbuf_copy
 2196 0194 AFF30080 		.section	.text.pbuf_copy_partial,"ax",%progbits
 2196      AFF30080 
 2196      AFF30080 
 2197              		.align	2
 2198              		.p2align 4,,15
 2199              		.global	pbuf_copy_partial
 2200              		.thumb
 2201              		.thumb_func
 2202              		.type	pbuf_copy_partial, %function
 2203              	pbuf_copy_partial:
 2204              	.LFB274:
 2205              		.loc 1 919 0
ARM GAS  C:\Users\jo\AppData\Local\Temp\ccDLAO0k.s 			page 40


 2206              		.cfi_startproc
 2207              		@ args = 0, pretend = 0, frame = 0
 2208              		@ frame_needed = 0, uses_anonymous_args = 0
 2209              	.LVL249:
 2210 0000 2DE9F043 		push	{r4, r5, r6, r7, r8, r9, lr}
 2211              		.cfi_def_cfa_offset 28
 2212              		.cfi_offset 4, -28
 2213              		.cfi_offset 5, -24
 2214              		.cfi_offset 6, -20
 2215              		.cfi_offset 7, -16
 2216              		.cfi_offset 8, -12
 2217              		.cfi_offset 9, -8
 2218              		.cfi_offset 14, -4
 2219              		.loc 1 925 0
 2220 0004 0546     		mov	r5, r0
 2221              		.loc 1 919 0
 2222 0006 83B0     		sub	sp, sp, #12
 2223              		.cfi_def_cfa_offset 40
 2224              		.loc 1 925 0
 2225 0008 0028     		cmp	r0, #0
 2226 000a 31D0     		beq	.L259
 2227 000c 0E46     		mov	r6, r1
 2228              		.loc 1 926 0
 2229 000e 0029     		cmp	r1, #0
 2230 0010 3CD0     		beq	.L260
 2231              	.LVL250:
 2232 0012 1746     		mov	r7, r2
 2233              		.loc 1 935 0 discriminator 1
 2234 0014 002A     		cmp	r2, #0
 2235 0016 47D0     		beq	.L253
 2236              		.loc 1 935 0 is_stmt 0
 2237 0018 4FF00008 		mov	r8, #0
 2238 001c C146     		mov	r9, r8
 2239              	.LVL251:
 2240              	.L252:
 2241              		.loc 1 945 0 is_stmt 1
 2242 001e 06EB0900 		add	r0, r6, r9
 2243              		.loc 1 936 0
 2244 0022 6A89     		ldrh	r2, [r5, #10]
 2245 0024 5BB1     		cbz	r3, .L250
 2246              		.loc 1 936 0 is_stmt 0 discriminator 1
 2247 0026 9A42     		cmp	r2, r3
 2248              		.loc 1 938 0 is_stmt 1 discriminator 1
 2249 0028 A3EB0201 		sub	r1, r3, r2
 2250              		.loc 1 936 0 discriminator 1
 2251 002c 07D8     		bhi	.L250
 2252              		.loc 1 935 0
 2253 002e 2D68     		ldr	r5, [r5]
 2254              	.LVL252:
 2255              		.loc 1 938 0
 2256 0030 8BB2     		uxth	r3, r1
 2257              	.LVL253:
 2258              		.loc 1 935 0
 2259 0032 002D     		cmp	r5, #0
 2260 0034 F3D1     		bne	.L252
 2261              	.LVL254:
 2262              	.L248:
ARM GAS  C:\Users\jo\AppData\Local\Temp\ccDLAO0k.s 			page 41


 2263              		.loc 1 952 0
 2264 0036 4046     		mov	r0, r8
 2265              	.LVL255:
 2266              	.L246:
 2267              		.loc 1 953 0
 2268 0038 03B0     		add	sp, sp, #12
 2269              		.cfi_remember_state
 2270              		.cfi_def_cfa_offset 28
 2271              		@ sp needed
 2272 003a BDE8F083 		pop	{r4, r5, r6, r7, r8, r9, pc}
 2273              	.LVL256:
 2274              	.L250:
 2275              		.cfi_restore_state
 2276              		.loc 1 941 0
 2277 003e D41A     		subs	r4, r2, r3
 2278 0040 A4B2     		uxth	r4, r4
 2279              	.LVL257:
 2280 0042 BC42     		cmp	r4, r7
 2281 0044 28BF     		it	cs
 2282 0046 3C46     		movcs	r4, r7
 2283              	.LVL258:
 2284              		.loc 1 945 0
 2285 0048 6968     		ldr	r1, [r5, #4]
 2286              		.loc 1 948 0
 2287 004a 3F1B     		subs	r7, r7, r4
 2288              	.LVL259:
 2289              		.loc 1 945 0
 2290 004c 2246     		mov	r2, r4
 2291              		.loc 1 946 0
 2292 004e A044     		add	r8, r8, r4
 2293              	.LVL260:
 2294              		.loc 1 945 0
 2295 0050 1944     		add	r1, r1, r3
 2296              		.loc 1 947 0
 2297 0052 4C44     		add	r4, r4, r9
 2298              	.LVL261:
 2299              		.loc 1 948 0
 2300 0054 BFB2     		uxth	r7, r7
 2301              		.loc 1 945 0
 2302 0056 FFF7FEFF 		bl	memcpy
 2303              	.LVL262:
 2304              		.loc 1 946 0
 2305 005a 1FFA88F8 		uxth	r8, r8
 2306              	.LVL263:
 2307              		.loc 1 947 0
 2308 005e 1FFA84F9 		uxth	r9, r4
 2309              	.LVL264:
 2310              		.loc 1 935 0
 2311 0062 2D68     		ldr	r5, [r5]
 2312              	.LVL265:
 2313 0064 002F     		cmp	r7, #0
 2314 0066 E6D0     		beq	.L248
 2315              		.loc 1 949 0
 2316 0068 0023     		movs	r3, #0
 2317              	.LVL266:
 2318              		.loc 1 935 0
 2319 006a 002D     		cmp	r5, #0
ARM GAS  C:\Users\jo\AppData\Local\Temp\ccDLAO0k.s 			page 42


 2320 006c D7D1     		bne	.L252
 2321 006e E2E7     		b	.L248
 2322              	.LVL267:
 2323              	.L259:
 2324              		.loc 1 925 0 discriminator 1
 2325 0070 0E4B     		ldr	r3, .L261
 2326              	.LVL268:
 2327 0072 0093     		str	r3, [sp]
 2328 0074 0E49     		ldr	r1, .L261+4
 2329              	.LVL269:
 2330 0076 0F4A     		ldr	r2, .L261+8
 2331              	.LVL270:
 2332 0078 0F48     		ldr	r0, .L261+12
 2333              	.LVL271:
 2334 007a 40F29D33 		movw	r3, #925
 2335 007e FFF7FEFF 		bl	chprintf.constprop.1
 2336              	.LVL272:
 2337              	.LBB170:
 2338              	.LBB171:
 2339              		.loc 3 416 0 discriminator 1
 2340 0082 0C48     		ldr	r0, .L261+8
 2341 0084 FFF7FEFF 		bl	chSysHalt
 2342              	.LVL273:
 2343              	.LBE171:
 2344              	.LBE170:
 2345              		.loc 1 925 0 discriminator 1
 2346 0088 2846     		mov	r0, r5
 2347 008a D5E7     		b	.L246
 2348              	.LVL274:
 2349              	.L260:
 2350              		.loc 1 926 0 discriminator 1
 2351 008c 074B     		ldr	r3, .L261
 2352              	.LVL275:
 2353 008e 0093     		str	r3, [sp]
 2354 0090 0749     		ldr	r1, .L261+4
 2355              	.LVL276:
 2356 0092 0A4A     		ldr	r2, .L261+16
 2357              	.LVL277:
 2358 0094 0848     		ldr	r0, .L261+12
 2359              	.LVL278:
 2360 0096 40F29E33 		movw	r3, #926
 2361 009a FFF7FEFF 		bl	chprintf.constprop.1
 2362              	.LVL279:
 2363              	.LBB172:
 2364              	.LBB173:
 2365              		.loc 3 416 0 discriminator 1
 2366 009e 0748     		ldr	r0, .L261+16
 2367 00a0 FFF7FEFF 		bl	chSysHalt
 2368              	.LVL280:
 2369              	.LBE173:
 2370              	.LBE172:
 2371              		.loc 1 926 0 discriminator 1
 2372 00a4 3046     		mov	r0, r6
 2373 00a6 C7E7     		b	.L246
 2374              	.LVL281:
 2375              	.L253:
 2376              		.loc 1 935 0
ARM GAS  C:\Users\jo\AppData\Local\Temp\ccDLAO0k.s 			page 43


 2377 00a8 9046     		mov	r8, r2
 2378 00aa C4E7     		b	.L248
 2379              	.L262:
 2380              		.align	2
 2381              	.L261:
 2382 00ac 4C000000 		.word	.LC2
 2383 00b0 00000000 		.word	.LC0
 2384 00b4 34030000 		.word	.LC27
 2385 00b8 00000000 		.word	itm_port
 2386 00bc 54030000 		.word	.LC28
 2387              		.cfi_endproc
 2388              	.LFE274:
 2389              		.size	pbuf_copy_partial, .-pbuf_copy_partial
 2390              		.section	.text.pbuf_take,"ax",%progbits
 2391              		.align	2
 2392              		.p2align 4,,15
 2393              		.global	pbuf_take
 2394              		.thumb
 2395              		.thumb_func
 2396              		.type	pbuf_take, %function
 2397              	pbuf_take:
 2398              	.LFB275:
 2399              		.loc 1 967 0
 2400              		.cfi_startproc
 2401              		@ args = 0, pretend = 0, frame = 0
 2402              		@ frame_needed = 0, uses_anonymous_args = 0
 2403              	.LVL282:
 2404 0000 2DE9F047 		push	{r4, r5, r6, r7, r8, r9, r10, lr}
 2405              		.cfi_def_cfa_offset 32
 2406              		.cfi_offset 4, -32
 2407              		.cfi_offset 5, -28
 2408              		.cfi_offset 6, -24
 2409              		.cfi_offset 7, -20
 2410              		.cfi_offset 8, -16
 2411              		.cfi_offset 9, -12
 2412              		.cfi_offset 10, -8
 2413              		.cfi_offset 14, -4
 2414              		.loc 1 973 0
 2415 0004 8246     		mov	r10, r0
 2416              		.loc 1 967 0
 2417 0006 82B0     		sub	sp, sp, #8
 2418              		.cfi_def_cfa_offset 40
 2419              		.loc 1 973 0
 2420 0008 0028     		cmp	r0, #0
 2421 000a 48D0     		beq	.L276
 2422 000c 0F46     		mov	r7, r1
 2423              		.loc 1 974 0
 2424 000e 0029     		cmp	r1, #0
 2425 0010 53D0     		beq	.L277
 2426              		.loc 1 976 0 discriminator 2
 2427 0012 0389     		ldrh	r3, [r0, #8]
 2428 0014 9342     		cmp	r3, r2
 2429 0016 9046     		mov	r8, r2
 2430              	.LVL283:
 2431 0018 5DD3     		bcc	.L271
 2432              	.LVL284:
 2433              		.loc 1 981 0 discriminator 1
ARM GAS  C:\Users\jo\AppData\Local\Temp\ccDLAO0k.s 			page 44


 2434 001a 002A     		cmp	r2, #0
 2435 001c 3AD0     		beq	.L267
 2436              		.loc 1 981 0 is_stmt 0
 2437 001e 1446     		mov	r4, r2
 2438 0020 0026     		movs	r6, #0
 2439              		.loc 1 982 0 is_stmt 1
 2440 0022 DFF8B890 		ldr	r9, .L279
 2441 0026 02E0     		b	.L268
 2442              	.LVL285:
 2443              	.L270:
 2444 0028 BAF1000F 		cmp	r10, #0
 2445 002c 25D0     		beq	.L278
 2446              	.LVL286:
 2447              	.L268:
 2448              		.loc 1 984 0
 2449 002e BAF80A50 		ldrh	r5, [r10, #10]
 2450              		.loc 1 989 0
 2451 0032 DAF80400 		ldr	r0, [r10, #4]
 2452 0036 A542     		cmp	r5, r4
 2453 0038 28BF     		it	cs
 2454 003a 2546     		movcs	r5, r4
 2455              	.LVL287:
 2456              		.loc 1 990 0
 2457 003c 641B     		subs	r4, r4, r5
 2458              		.loc 1 989 0
 2459 003e B919     		adds	r1, r7, r6
 2460 0040 2A46     		mov	r2, r5
 2461              		.loc 1 991 0
 2462 0042 2E44     		add	r6, r6, r5
 2463              		.loc 1 990 0
 2464 0044 A4B2     		uxth	r4, r4
 2465              		.loc 1 989 0
 2466 0046 FFF7FEFF 		bl	memcpy
 2467              	.LVL288:
 2468              		.loc 1 991 0
 2469 004a B6B2     		uxth	r6, r6
 2470              	.LVL289:
 2471              		.loc 1 981 0
 2472 004c DAF800A0 		ldr	r10, [r10]
 2473              	.LVL290:
 2474 0050 002C     		cmp	r4, #0
 2475 0052 E9D1     		bne	.L270
 2476              		.loc 1 993 0
 2477 0054 B045     		cmp	r8, r6
 2478 0056 1DD0     		beq	.L267
 2479              		.loc 1 993 0 is_stmt 0 discriminator 3
 2480 0058 204B     		ldr	r3, .L279
 2481 005a 0093     		str	r3, [sp]
 2482 005c 2049     		ldr	r1, .L279+4
 2483 005e 214A     		ldr	r2, .L279+8
 2484 0060 2148     		ldr	r0, .L279+12
 2485 0062 40F2E133 		movw	r3, #993
 2486 0066 FFF7FEFF 		bl	chprintf.constprop.1
 2487              	.LVL291:
 2488              	.LBB174:
 2489              	.LBB175:
 2490              		.loc 3 416 0 is_stmt 1 discriminator 3
ARM GAS  C:\Users\jo\AppData\Local\Temp\ccDLAO0k.s 			page 45


 2491 006a 1E48     		ldr	r0, .L279+8
 2492 006c FFF7FEFF 		bl	chSysHalt
 2493              	.LVL292:
 2494              	.LBE175:
 2495              	.LBE174:
 2496              		.loc 1 994 0 discriminator 3
 2497 0070 2046     		mov	r0, r4
 2498              	.LVL293:
 2499              	.L265:
 2500              		.loc 1 995 0
 2501 0072 40B2     		sxtb	r0, r0
 2502 0074 02B0     		add	sp, sp, #8
 2503              		.cfi_remember_state
 2504              		.cfi_def_cfa_offset 32
 2505              		@ sp needed
 2506 0076 BDE8F087 		pop	{r4, r5, r6, r7, r8, r9, r10, pc}
 2507              	.LVL294:
 2508              	.L278:
 2509              		.cfi_restore_state
 2510              		.loc 1 982 0 discriminator 1
 2511 007a CDF80090 		str	r9, [sp]
 2512 007e 1849     		ldr	r1, .L279+4
 2513 0080 1A4A     		ldr	r2, .L279+16
 2514 0082 1948     		ldr	r0, .L279+12
 2515 0084 40F2D633 		movw	r3, #982
 2516 0088 FFF7FEFF 		bl	chprintf.constprop.1
 2517              	.LVL295:
 2518              	.LBB176:
 2519              	.LBB177:
 2520              		.loc 3 416 0 discriminator 1
 2521 008c 1748     		ldr	r0, .L279+16
 2522 008e FFF7FEFF 		bl	chSysHalt
 2523              	.LVL296:
 2524 0092 CCE7     		b	.L268
 2525              	.LVL297:
 2526              	.L267:
 2527              	.LBE177:
 2528              	.LBE176:
 2529              		.loc 1 994 0
 2530 0094 0020     		movs	r0, #0
 2531              		.loc 1 995 0
 2532 0096 40B2     		sxtb	r0, r0
 2533 0098 02B0     		add	sp, sp, #8
 2534              		.cfi_remember_state
 2535              		.cfi_def_cfa_offset 32
 2536              		@ sp needed
 2537 009a BDE8F087 		pop	{r4, r5, r6, r7, r8, r9, r10, pc}
 2538              	.LVL298:
 2539              	.L276:
 2540              		.cfi_restore_state
 2541              		.loc 1 973 0 discriminator 1
 2542 009e 0F4B     		ldr	r3, .L279
 2543 00a0 0093     		str	r3, [sp]
 2544 00a2 0F49     		ldr	r1, .L279+4
 2545              	.LVL299:
 2546 00a4 124A     		ldr	r2, .L279+20
 2547              	.LVL300:
ARM GAS  C:\Users\jo\AppData\Local\Temp\ccDLAO0k.s 			page 46


 2548 00a6 1048     		ldr	r0, .L279+12
 2549              	.LVL301:
 2550 00a8 40F2CD33 		movw	r3, #973
 2551 00ac FFF7FEFF 		bl	chprintf.constprop.1
 2552              	.LVL302:
 2553              	.LBB178:
 2554              	.LBB179:
 2555              		.loc 3 416 0 discriminator 1
 2556 00b0 0F48     		ldr	r0, .L279+20
 2557 00b2 FFF7FEFF 		bl	chSysHalt
 2558              	.LVL303:
 2559              	.LBE179:
 2560              	.LBE178:
 2561              		.loc 1 973 0 discriminator 1
 2562 00b6 5046     		mov	r0, r10
 2563 00b8 DBE7     		b	.L265
 2564              	.LVL304:
 2565              	.L277:
 2566              		.loc 1 974 0 discriminator 1
 2567 00ba 084B     		ldr	r3, .L279
 2568 00bc 0093     		str	r3, [sp]
 2569 00be 0849     		ldr	r1, .L279+4
 2570              	.LVL305:
 2571 00c0 0C4A     		ldr	r2, .L279+24
 2572              	.LVL306:
 2573 00c2 0948     		ldr	r0, .L279+12
 2574              	.LVL307:
 2575 00c4 40F2CE33 		movw	r3, #974
 2576 00c8 FFF7FEFF 		bl	chprintf.constprop.1
 2577              	.LVL308:
 2578              	.LBB180:
 2579              	.LBB181:
 2580              		.loc 3 416 0 discriminator 1
 2581 00cc 0948     		ldr	r0, .L279+24
 2582 00ce FFF7FEFF 		bl	chSysHalt
 2583              	.LVL309:
 2584              	.LBE181:
 2585              	.LBE180:
 2586              		.loc 1 974 0 discriminator 1
 2587 00d2 3846     		mov	r0, r7
 2588 00d4 CDE7     		b	.L265
 2589              	.LVL310:
 2590              	.L271:
 2591              		.loc 1 977 0
 2592 00d6 F220     		movs	r0, #242
 2593              	.LVL311:
 2594 00d8 CBE7     		b	.L265
 2595              	.L280:
 2596 00da 00BF     		.align	2
 2597              	.L279:
 2598 00dc 4C000000 		.word	.LC2
 2599 00e0 00000000 		.word	.LC0
 2600 00e4 C4030000 		.word	.LC32
 2601 00e8 00000000 		.word	itm_port
 2602 00ec AC030000 		.word	.LC31
 2603 00f0 78030000 		.word	.LC29
 2604 00f4 90030000 		.word	.LC30
ARM GAS  C:\Users\jo\AppData\Local\Temp\ccDLAO0k.s 			page 47


 2605              		.cfi_endproc
 2606              	.LFE275:
 2607              		.size	pbuf_take, .-pbuf_take
 2608 00f8 AFF30080 		.section	.text.pbuf_coalesce,"ax",%progbits
 2608      AFF30080 
 2609              		.align	2
 2610              		.p2align 4,,15
 2611              		.global	pbuf_coalesce
 2612              		.thumb
 2613              		.thumb_func
 2614              		.type	pbuf_coalesce, %function
 2615              	pbuf_coalesce:
 2616              	.LFB276:
 2617              		.loc 1 1011 0
 2618              		.cfi_startproc
 2619              		@ args = 0, pretend = 0, frame = 0
 2620              		@ frame_needed = 0, uses_anonymous_args = 0
 2621              	.LVL312:
 2622 0000 30B5     		push	{r4, r5, lr}
 2623              		.cfi_def_cfa_offset 12
 2624              		.cfi_offset 4, -12
 2625              		.cfi_offset 5, -8
 2626              		.cfi_offset 14, -4
 2627              		.loc 1 1014 0
 2628 0002 0368     		ldr	r3, [r0]
 2629              		.loc 1 1011 0
 2630 0004 83B0     		sub	sp, sp, #12
 2631              		.cfi_def_cfa_offset 24
 2632              		.loc 1 1011 0
 2633 0006 0446     		mov	r4, r0
 2634              		.loc 1 1014 0
 2635 0008 83B1     		cbz	r3, .L284
 2636              		.loc 1 1017 0
 2637 000a 0846     		mov	r0, r1
 2638              	.LVL313:
 2639 000c 0022     		movs	r2, #0
 2640 000e 2189     		ldrh	r1, [r4, #8]
 2641              	.LVL314:
 2642 0010 FFF7FEFF 		bl	pbuf_alloc
 2643              	.LVL315:
 2644              		.loc 1 1018 0
 2645 0014 0546     		mov	r5, r0
 2646 0016 48B1     		cbz	r0, .L284
 2647              		.loc 1 1022 0
 2648 0018 2146     		mov	r1, r4
 2649 001a FFF7FEFF 		bl	pbuf_copy
 2650              	.LVL316:
 2651              		.loc 1 1023 0
 2652 001e 40B9     		cbnz	r0, .L293
 2653              	.LVL317:
 2654              	.L285:
 2655              		.loc 1 1024 0
 2656 0020 2046     		mov	r0, r4
 2657 0022 FFF7FEFF 		bl	pbuf_free
 2658              	.LVL318:
 2659              		.loc 1 1025 0
 2660 0026 2846     		mov	r0, r5
ARM GAS  C:\Users\jo\AppData\Local\Temp\ccDLAO0k.s 			page 48


 2661              		.loc 1 1026 0
 2662 0028 03B0     		add	sp, sp, #12
 2663              		.cfi_remember_state
 2664              		.cfi_def_cfa_offset 12
 2665              		@ sp needed
 2666 002a 30BD     		pop	{r4, r5, pc}
 2667              	.LVL319:
 2668              	.L284:
 2669              		.cfi_restore_state
 2670              		.loc 1 1011 0
 2671 002c 2046     		mov	r0, r4
 2672              		.loc 1 1026 0
 2673 002e 03B0     		add	sp, sp, #12
 2674              		.cfi_remember_state
 2675              		.cfi_def_cfa_offset 12
 2676              		@ sp needed
 2677 0030 30BD     		pop	{r4, r5, pc}
 2678              	.LVL320:
 2679              	.L293:
 2680              		.cfi_restore_state
 2681              		.loc 1 1023 0 discriminator 1
 2682 0032 064B     		ldr	r3, .L294
 2683 0034 0093     		str	r3, [sp]
 2684 0036 0649     		ldr	r1, .L294+4
 2685 0038 064A     		ldr	r2, .L294+8
 2686 003a 0748     		ldr	r0, .L294+12
 2687              	.LVL321:
 2688 003c 40F2FF33 		movw	r3, #1023
 2689 0040 FFF7FEFF 		bl	chprintf.constprop.1
 2690              	.LVL322:
 2691              	.LBB182:
 2692              	.LBB183:
 2693              		.loc 3 416 0 discriminator 1
 2694 0044 0348     		ldr	r0, .L294+8
 2695 0046 FFF7FEFF 		bl	chSysHalt
 2696              	.LVL323:
 2697 004a E9E7     		b	.L285
 2698              	.L295:
 2699              		.align	2
 2700              	.L294:
 2701 004c 4C000000 		.word	.LC2
 2702 0050 00000000 		.word	.LC0
 2703 0054 DC030000 		.word	.LC33
 2704 0058 00000000 		.word	itm_port
 2705              	.LBE183:
 2706              	.LBE182:
 2707              		.cfi_endproc
 2708              	.LFE276:
 2709              		.size	pbuf_coalesce, .-pbuf_coalesce
 2710 005c AFF30080 		.section	.text.pbuf_get_at,"ax",%progbits
 2711              		.align	2
 2712              		.p2align 4,,15
 2713              		.global	pbuf_get_at
 2714              		.thumb
 2715              		.thumb_func
 2716              		.type	pbuf_get_at, %function
 2717              	pbuf_get_at:
ARM GAS  C:\Users\jo\AppData\Local\Temp\ccDLAO0k.s 			page 49


 2718              	.LFB277:
 2719              		.loc 1 1078 0
 2720              		.cfi_startproc
 2721              		@ args = 0, pretend = 0, frame = 0
 2722              		@ frame_needed = 0, uses_anonymous_args = 0
 2723              		@ link register save eliminated.
 2724              	.LVL324:
 2725              		.loc 1 1083 0
 2726 0000 58B1     		cbz	r0, .L303
 2727 0002 4389     		ldrh	r3, [r0, #10]
 2728 0004 9942     		cmp	r1, r3
 2729 0006 03D2     		bcs	.L299
 2730 0008 08E0     		b	.L298
 2731              	.LVL325:
 2732              	.L304:
 2733              		.loc 1 1083 0 is_stmt 0 discriminator 1
 2734 000a 4389     		ldrh	r3, [r0, #10]
 2735 000c 8B42     		cmp	r3, r1
 2736 000e 05D8     		bhi	.L298
 2737              	.L299:
 2738              		.loc 1 1085 0 is_stmt 1
 2739 0010 0068     		ldr	r0, [r0]
 2740              	.LVL326:
 2741              		.loc 1 1084 0
 2742 0012 C91A     		subs	r1, r1, r3
 2743              	.LVL327:
 2744 0014 89B2     		uxth	r1, r1
 2745              	.LVL328:
 2746              		.loc 1 1083 0
 2747 0016 0028     		cmp	r0, #0
 2748 0018 F7D1     		bne	.L304
 2749              	.L303:
 2750              		.loc 1 1092 0
 2751 001a 7047     		bx	lr
 2752              	.L298:
 2753              		.loc 1 1089 0
 2754 001c 4368     		ldr	r3, [r0, #4]
 2755 001e 585C     		ldrb	r0, [r3, r1]	@ zero_extendqisi2
 2756              	.LVL329:
 2757              		.loc 1 1092 0
 2758 0020 7047     		bx	lr
 2759              		.cfi_endproc
 2760              	.LFE277:
 2761              		.size	pbuf_get_at, .-pbuf_get_at
 2762 0022 00BFAFF3 		.section	.text.pbuf_memcmp,"ax",%progbits
 2762      0080AFF3 
 2762      0080AFF3 
 2762      0080
 2763              		.align	2
 2764              		.p2align 4,,15
 2765              		.global	pbuf_memcmp
 2766              		.thumb
 2767              		.thumb_func
 2768              		.type	pbuf_memcmp, %function
 2769              	pbuf_memcmp:
 2770              	.LFB278:
 2771              		.loc 1 1105 0
ARM GAS  C:\Users\jo\AppData\Local\Temp\ccDLAO0k.s 			page 50


 2772              		.cfi_startproc
 2773              		@ args = 0, pretend = 0, frame = 0
 2774              		@ frame_needed = 0, uses_anonymous_args = 0
 2775              	.LVL330:
 2776              		.loc 1 1110 0
 2777 0000 0028     		cmp	r0, #0
 2778 0002 3AD0     		beq	.L316
 2779              		.loc 1 1105 0
 2780 0004 F0B5     		push	{r4, r5, r6, r7, lr}
 2781              		.cfi_def_cfa_offset 20
 2782              		.cfi_offset 4, -20
 2783              		.cfi_offset 5, -16
 2784              		.cfi_offset 6, -12
 2785              		.cfi_offset 7, -8
 2786              		.cfi_offset 14, -4
 2787              		.loc 1 1110 0
 2788 0006 4489     		ldrh	r4, [r0, #10]
 2789 0008 A142     		cmp	r1, r4
 2790 000a 03D2     		bcs	.L308
 2791 000c 0AE0     		b	.L307
 2792              	.LVL331:
 2793              	.L326:
 2794              		.loc 1 1110 0 is_stmt 0 discriminator 1
 2795 000e 4489     		ldrh	r4, [r0, #10]
 2796 0010 8C42     		cmp	r4, r1
 2797 0012 07D8     		bhi	.L307
 2798              	.L308:
 2799              		.loc 1 1112 0 is_stmt 1
 2800 0014 0068     		ldr	r0, [r0]
 2801              	.LVL332:
 2802              		.loc 1 1111 0
 2803 0016 0C1B     		subs	r4, r1, r4
 2804 0018 A1B2     		uxth	r1, r4
 2805              	.LVL333:
 2806              		.loc 1 1110 0
 2807 001a 0028     		cmp	r0, #0
 2808 001c F7D1     		bne	.L326
 2809              		.loc 1 1126 0
 2810 001e 4FF6FF70 		movw	r0, #65535
 2811              	.LVL334:
 2812 0022 F0BD     		pop	{r4, r5, r6, r7, pc}
 2813              	.LVL335:
 2814              	.L307:
 2815              	.LBB184:
 2816              		.loc 1 1117 0
 2817 0024 63B3     		cbz	r3, .L319
 2818 0026 4FF0000E 		mov	lr, #0
 2819 002a 02F1FF3C 		add	ip, r2, #-1
 2820 002e 7746     		mov	r7, lr
 2821              	.LVL336:
 2822              	.L314:
 2823 0030 CC19     		adds	r4, r1, r7
 2824 0032 A4B2     		uxth	r4, r4
 2825              	.LVL337:
 2826 0034 0246     		mov	r2, r0
 2827              	.LVL338:
 2828              	.L309:
ARM GAS  C:\Users\jo\AppData\Local\Temp\ccDLAO0k.s 			page 51


 2829              	.LBB185:
 2830              	.LBB186:
 2831              	.LBB187:
 2832              		.loc 1 1083 0
 2833 0036 5589     		ldrh	r5, [r2, #10]
 2834 0038 A542     		cmp	r5, r4
 2835              		.loc 1 1084 0
 2836 003a A4EB0506 		sub	r6, r4, r5
 2837              		.loc 1 1083 0
 2838 003e 0FD8     		bhi	.L327
 2839              		.loc 1 1085 0
 2840 0040 1268     		ldr	r2, [r2]
 2841              	.LVL339:
 2842              		.loc 1 1084 0
 2843 0042 B4B2     		uxth	r4, r6
 2844              	.LVL340:
 2845              		.loc 1 1083 0
 2846 0044 002A     		cmp	r2, #0
 2847 0046 F6D1     		bne	.L309
 2848              	.LVL341:
 2849              	.L310:
 2850              	.LBE187:
 2851              	.LBE186:
 2852              		.loc 1 1120 0
 2853 0048 1CF8014F 		ldrb	r4, [ip, #1]!	@ zero_extendqisi2
 2854              	.LVL342:
 2855 004c 9442     		cmp	r4, r2
 2856 004e 0ED1     		bne	.L328
 2857              	.LVL343:
 2858              	.L313:
 2859 0050 0EF1010E 		add	lr, lr, #1
 2860              	.LVL344:
 2861              	.LBE185:
 2862              		.loc 1 1117 0 discriminator 2
 2863 0054 1FFA8EF7 		uxth	r7, lr
 2864              	.LVL345:
 2865 0058 BB42     		cmp	r3, r7
 2866 005a E9D8     		bhi	.L314
 2867              		.loc 1 1124 0
 2868 005c 0020     		movs	r0, #0
 2869              	.LVL346:
 2870 005e F0BD     		pop	{r4, r5, r6, r7, pc}
 2871              	.LVL347:
 2872              	.L327:
 2873              	.LBB194:
 2874              	.LBB191:
 2875              	.LBB188:
 2876              		.loc 1 1088 0
 2877 0060 AC42     		cmp	r4, r5
 2878 0062 07D3     		bcc	.L315
 2879              	.LBE188:
 2880              	.LBE191:
 2881              		.loc 1 1120 0
 2882 0064 1CF8014F 		ldrb	r4, [ip, #1]!	@ zero_extendqisi2
 2883              	.LVL348:
 2884              	.LBB192:
 2885              	.LBB189:
ARM GAS  C:\Users\jo\AppData\Local\Temp\ccDLAO0k.s 			page 52


 2886              		.loc 1 1091 0
 2887 0068 0022     		movs	r2, #0
 2888              	.LVL349:
 2889              	.LBE189:
 2890              	.LBE192:
 2891              		.loc 1 1120 0
 2892 006a 9442     		cmp	r4, r2
 2893 006c F0D0     		beq	.L313
 2894              	.L328:
 2895              		.loc 1 1121 0
 2896 006e 0137     		adds	r7, r7, #1
 2897              	.LVL350:
 2898 0070 B8B2     		uxth	r0, r7
 2899              	.LVL351:
 2900 0072 F0BD     		pop	{r4, r5, r6, r7, pc}
 2901              	.LVL352:
 2902              	.L315:
 2903              	.LBB193:
 2904              	.LBB190:
 2905              		.loc 1 1089 0
 2906 0074 5268     		ldr	r2, [r2, #4]
 2907              	.LVL353:
 2908 0076 125D     		ldrb	r2, [r2, r4]	@ zero_extendqisi2
 2909 0078 E6E7     		b	.L310
 2910              	.LVL354:
 2911              	.L316:
 2912              		.cfi_def_cfa_offset 0
 2913              		.cfi_restore 4
 2914              		.cfi_restore 5
 2915              		.cfi_restore 6
 2916              		.cfi_restore 7
 2917              		.cfi_restore 14
 2918              	.LBE190:
 2919              	.LBE193:
 2920              	.LBE194:
 2921              	.LBE184:
 2922              		.loc 1 1126 0
 2923 007a 4FF6FF70 		movw	r0, #65535
 2924              	.LVL355:
 2925              		.loc 1 1127 0
 2926 007e 7047     		bx	lr
 2927              	.LVL356:
 2928              	.L319:
 2929              		.cfi_def_cfa_offset 20
 2930              		.cfi_offset 4, -20
 2931              		.cfi_offset 5, -16
 2932              		.cfi_offset 6, -12
 2933              		.cfi_offset 7, -8
 2934              		.cfi_offset 14, -4
 2935              	.LBB195:
 2936              		.loc 1 1124 0
 2937 0080 1846     		mov	r0, r3
 2938              	.LVL357:
 2939 0082 F0BD     		pop	{r4, r5, r6, r7, pc}
 2940              	.LBE195:
 2941              		.cfi_endproc
 2942              	.LFE278:
ARM GAS  C:\Users\jo\AppData\Local\Temp\ccDLAO0k.s 			page 53


 2943              		.size	pbuf_memcmp, .-pbuf_memcmp
 2944 0084 AFF30080 		.section	.text.pbuf_memfind,"ax",%progbits
 2944      AFF30080 
 2944      AFF30080 
 2945              		.align	2
 2946              		.p2align 4,,15
 2947              		.global	pbuf_memfind
 2948              		.thumb
 2949              		.thumb_func
 2950              		.type	pbuf_memfind, %function
 2951              	pbuf_memfind:
 2952              	.LFB279:
 2953              		.loc 1 1141 0
 2954              		.cfi_startproc
 2955              		@ args = 0, pretend = 0, frame = 0
 2956              		@ frame_needed = 0, uses_anonymous_args = 0
 2957              	.LVL358:
 2958 0000 2DE9F041 		push	{r4, r5, r6, r7, r8, lr}
 2959              		.cfi_def_cfa_offset 24
 2960              		.cfi_offset 4, -24
 2961              		.cfi_offset 5, -20
 2962              		.cfi_offset 6, -16
 2963              		.cfi_offset 7, -12
 2964              		.cfi_offset 8, -8
 2965              		.cfi_offset 14, -4
 2966              		.loc 1 1143 0
 2967 0004 0589     		ldrh	r5, [r0, #8]
 2968              	.LVL359:
 2969              		.loc 1 1141 0
 2970 0006 1C46     		mov	r4, r3
 2971              		.loc 1 1144 0
 2972 0008 D318     		adds	r3, r2, r3
 2973              	.LVL360:
 2974 000a 9D42     		cmp	r5, r3
 2975              		.loc 1 1141 0
 2976 000c 0746     		mov	r7, r0
 2977 000e 1646     		mov	r6, r2
 2978              		.loc 1 1144 0
 2979 0010 03DA     		bge	.L337
 2980              	.LVL361:
 2981              	.L333:
 2982              		.loc 1 1154 0
 2983 0012 4FF6FF70 		movw	r0, #65535
 2984 0016 BDE8F081 		pop	{r4, r5, r6, r7, r8, pc}
 2985              	.LVL362:
 2986              	.L337:
 2987              		.loc 1 1143 0 discriminator 1
 2988 001a AD1A     		subs	r5, r5, r2
 2989              	.LVL363:
 2990 001c ADB2     		uxth	r5, r5
 2991              	.LVL364:
 2992              		.loc 1 1145 0 discriminator 1
 2993 001e A542     		cmp	r5, r4
 2994 0020 8846     		mov	r8, r1
 2995 0022 03D2     		bcs	.L331
 2996 0024 F5E7     		b	.L333
 2997              	.LVL365:
ARM GAS  C:\Users\jo\AppData\Local\Temp\ccDLAO0k.s 			page 54


 2998              	.L338:
 2999              	.LBB196:
 3000              		.loc 1 1150 0
 3001 0026 9CB2     		uxth	r4, r3
 3002              	.LVL366:
 3003              	.LBE196:
 3004              		.loc 1 1145 0
 3005 0028 A542     		cmp	r5, r4
 3006 002a F2D3     		bcc	.L333
 3007              	.LVL367:
 3008              	.L331:
 3009              	.LBB197:
 3010              		.loc 1 1146 0
 3011 002c 3346     		mov	r3, r6
 3012 002e 3846     		mov	r0, r7
 3013 0030 2146     		mov	r1, r4
 3014 0032 4246     		mov	r2, r8
 3015 0034 FFF7FEFF 		bl	pbuf_memcmp
 3016              	.LVL368:
 3017              		.loc 1 1150 0
 3018 0038 0319     		adds	r3, r0, r4
 3019              		.loc 1 1147 0
 3020 003a 0028     		cmp	r0, #0
 3021 003c F3D1     		bne	.L338
 3022              		.loc 1 1148 0
 3023 003e 2046     		mov	r0, r4
 3024              	.LVL369:
 3025              	.LBE197:
 3026              		.loc 1 1155 0
 3027 0040 BDE8F081 		pop	{r4, r5, r6, r7, r8, pc}
 3028              		.cfi_endproc
 3029              	.LFE279:
 3030              		.size	pbuf_memfind, .-pbuf_memfind
 3031 0044 AFF30080 		.section	.text.pbuf_strstr,"ax",%progbits
 3031      AFF30080 
 3031      AFF30080 
 3032              		.align	2
 3033              		.p2align 4,,15
 3034              		.global	pbuf_strstr
 3035              		.thumb
 3036              		.thumb_func
 3037              		.type	pbuf_strstr, %function
 3038              	pbuf_strstr:
 3039              	.LFB280:
 3040              		.loc 1 1169 0
 3041              		.cfi_startproc
 3042              		@ args = 0, pretend = 0, frame = 0
 3043              		@ frame_needed = 0, uses_anonymous_args = 0
 3044              	.LVL370:
 3045              		.loc 1 1171 0
 3046 0000 09B1     		cbz	r1, .L341
 3047              		.loc 1 1171 0 is_stmt 0 discriminator 1
 3048 0002 0B78     		ldrb	r3, [r1]	@ zero_extendqisi2
 3049 0004 1BB9     		cbnz	r3, .L346
 3050              	.L341:
 3051              		.loc 1 1172 0 is_stmt 1
 3052 0006 4FF6FF73 		movw	r3, #65535
ARM GAS  C:\Users\jo\AppData\Local\Temp\ccDLAO0k.s 			page 55


 3053              		.loc 1 1179 0
 3054 000a 1846     		mov	r0, r3
 3055              	.LVL371:
 3056 000c 7047     		bx	lr
 3057              	.LVL372:
 3058              	.L346:
 3059              		.loc 1 1171 0 discriminator 2
 3060 000e 0389     		ldrh	r3, [r0, #8]
 3061              		.loc 1 1169 0 discriminator 2
 3062 0010 70B5     		push	{r4, r5, r6, lr}
 3063              		.cfi_def_cfa_offset 16
 3064              		.cfi_offset 4, -16
 3065              		.cfi_offset 5, -12
 3066              		.cfi_offset 6, -8
 3067              		.cfi_offset 14, -4
 3068              		.loc 1 1171 0 discriminator 2
 3069 0012 4FF6FF76 		movw	r6, #65535
 3070 0016 B342     		cmp	r3, r6
 3071 0018 0AD0     		beq	.L340
 3072 001a 0546     		mov	r5, r0
 3073              		.loc 1 1174 0
 3074 001c 0846     		mov	r0, r1
 3075              	.LVL373:
 3076 001e 0C46     		mov	r4, r1
 3077 0020 FFF7FEFF 		bl	strlen
 3078              	.LVL374:
 3079              		.loc 1 1175 0
 3080 0024 4FF6FE73 		movw	r3, #65534
 3081 0028 9842     		cmp	r0, r3
 3082              		.loc 1 1174 0
 3083 002a 0246     		mov	r2, r0
 3084              	.LVL375:
 3085              		.loc 1 1175 0
 3086 002c 02D9     		bls	.L347
 3087              		.loc 1 1172 0
 3088 002e 3346     		mov	r3, r6
 3089              	.LVL376:
 3090              	.L340:
 3091              		.loc 1 1179 0
 3092 0030 1846     		mov	r0, r3
 3093 0032 70BD     		pop	{r4, r5, r6, pc}
 3094              	.LVL377:
 3095              	.L347:
 3096              		.loc 1 1178 0
 3097 0034 2846     		mov	r0, r5
 3098              	.LVL378:
 3099 0036 2146     		mov	r1, r4
 3100 0038 92B2     		uxth	r2, r2
 3101              	.LVL379:
 3102 003a 0023     		movs	r3, #0
 3103              		.loc 1 1179 0
 3104 003c BDE87040 		pop	{r4, r5, r6, lr}
 3105              		.cfi_restore 14
 3106              		.cfi_restore 6
 3107              		.cfi_restore 5
 3108              		.cfi_restore 4
 3109              		.cfi_def_cfa_offset 0
ARM GAS  C:\Users\jo\AppData\Local\Temp\ccDLAO0k.s 			page 56


 3110              	.LVL380:
 3111              		.loc 1 1178 0
 3112 0040 FFF7FEBF 		b	pbuf_memfind
 3113              	.LVL381:
 3114              		.cfi_endproc
 3115              	.LFE280:
 3116              		.size	pbuf_strstr, .-pbuf_strstr
 3117              		.global	pbuf_free_ooseq_pending
 3118 0044 AFF30080 		.section	.rodata.str1.4,"aMS",%progbits,1
 3118      AFF30080 
 3118      AFF30080 
 3119              		.align	2
 3120              	.LC0:
 3121 0000 41737365 		.ascii	"Assertion \"%s\" failed at line %d in %s\012\000"
 3121      7274696F 
 3121      6E202225 
 3121      73222066 
 3121      61696C65 
 3122              	.LC1:
 3123 0028 70627566 		.ascii	"pbuf_alloced_custom: bad pbuf layer\000"
 3123      5F616C6C 
 3123      6F636564 
 3123      5F637573 
 3123      746F6D3A 
 3124              	.LC2:
 3125 004c 2E2E2F2E 		.ascii	"../../../ext/lwip/src/core/pbuf.c\000"
 3125      2E2F2E2E 
 3125      2F657874 
 3125      2F6C7769 
 3125      702F7372 
 3126 006e 0000     		.space	2
 3127              	.LC3:
 3128 0070 7020213D 		.ascii	"p != NULL\000"
 3128      204E554C 
 3128      4C00
 3129 007a 0000     		.space	2
 3130              	.LC4:
 3131 007c 696E6372 		.ascii	"increment_magnitude <= p->len\000"
 3131      656D656E 
 3131      745F6D61 
 3131      676E6974 
 3131      75646520 
 3132 009a 0000     		.space	2
 3133              	.LC5:
 3134 009c 62616420 		.ascii	"bad pbuf type\000"
 3134      70627566 
 3134      20747970 
 3134      6500
 3135 00aa 0000     		.space	2
 3136              	.LC6:
 3137 00ac 70627566 		.ascii	"pbuf_free: sane type\000"
 3137      5F667265 
 3137      653A2073 
 3137      616E6520 
 3137      74797065 
 3138 00c1 000000   		.space	3
 3139              	.LC7:
ARM GAS  C:\Users\jo\AppData\Local\Temp\ccDLAO0k.s 			page 57


 3140 00c4 70627566 		.ascii	"pbuf_free: p->ref > 0\000"
 3140      5F667265 
 3140      653A2070 
 3140      2D3E7265 
 3140      66203E20 
 3141 00da 0000     		.space	2
 3142              	.LC8:
 3143 00dc 70632D3E 		.ascii	"pc->custom_free_function != NULL\000"
 3143      63757374 
 3143      6F6D5F66 
 3143      7265655F 
 3143      66756E63 
 3144 00fd 000000   		.space	3
 3145              	.LC9:
 3146 0100 70627566 		.ascii	"pbuf_alloc: bad pbuf layer\000"
 3146      5F616C6C 
 3146      6F633A20 
 3146      62616420 
 3146      70627566 
 3147 011b 00       		.space	1
 3148              	.LC10:
 3149 011c 63686563 		.ascii	"check p->payload + p->len does not overflow pbuf\000"
 3149      6B20702D 
 3149      3E706179 
 3149      6C6F6164 
 3149      202B2070 
 3150 014d 000000   		.space	3
 3151              	.LC11:
 3152 0150 72656D5F 		.ascii	"rem_len < max_u16_t\000"
 3152      6C656E20 
 3152      3C206D61 
 3152      785F7531 
 3152      365F7400 
 3153              	.LC12:
 3154 0164 70627566 		.ascii	"pbuf_alloc: erroneous type\000"
 3154      5F616C6C 
 3154      6F633A20 
 3154      6572726F 
 3154      6E656F75 
 3155 017f 00       		.space	1
 3156              	.LC13:
 3157 0180 70627566 		.ascii	"pbuf_realloc: p != NULL\000"
 3157      5F726561 
 3157      6C6C6F63 
 3157      3A207020 
 3157      213D204E 
 3158              	.LC14:
 3159 0198 70627566 		.ascii	"pbuf_realloc: sane p->type\000"
 3159      5F726561 
 3159      6C6C6F63 
 3159      3A207361 
 3159      6E652070 
 3160 01b3 00       		.space	1
 3161              	.LC15:
 3162 01b4 67726F77 		.ascii	"grow < max_u16_t\000"
 3162      203C206D 
 3162      61785F75 
ARM GAS  C:\Users\jo\AppData\Local\Temp\ccDLAO0k.s 			page 58


 3162      31365F74 
 3162      00
 3163 01c5 000000   		.space	3
 3164              	.LC16:
 3165 01c8 70627566 		.ascii	"pbuf_realloc: q != NULL\000"
 3165      5F726561 
 3165      6C6C6F63 
 3165      3A207120 
 3165      213D204E 
 3166              	.LC17:
 3167 01e0 28682021 		.ascii	"(h != NULL) && (t != NULL) (programmer violates API"
 3167      3D204E55 
 3167      4C4C2920 
 3167      26262028 
 3167      7420213D 
 3168 0213 2900     		.ascii	")\000"
 3169 0215 000000   		.space	3
 3170              	.LC18:
 3171 0218 702D3E74 		.ascii	"p->tot_len == p->len (of last pbuf in chain)\000"
 3171      6F745F6C 
 3171      656E203D 
 3171      3D20702D 
 3171      3E6C656E 
 3172 0245 000000   		.space	3
 3173              	.LC19:
 3174 0248 702D3E6E 		.ascii	"p->next == NULL\000"
 3174      65787420 
 3174      3D3D204E 
 3174      554C4C00 
 3175              	.LC20:
 3176 0258 702D3E74 		.ascii	"p->tot_len == p->len + q->tot_len\000"
 3176      6F745F6C 
 3176      656E203D 
 3176      3D20702D 
 3176      3E6C656E 
 3177 027a 0000     		.space	2
 3178              	.LC21:
 3179 027c 702D3E74 		.ascii	"p->tot_len == p->len\000"
 3179      6F745F6C 
 3179      656E203D 
 3179      3D20702D 
 3179      3E6C656E 
 3180 0291 000000   		.space	3
 3181              	.LC22:
 3182 0294 70627566 		.ascii	"pbuf_copy: target not big enough to hold source\000"
 3182      5F636F70 
 3182      793A2074 
 3182      61726765 
 3182      74206E6F 
 3183              	.LC23:
 3184 02c4 6F666673 		.ascii	"offset_to <= p_to->len\000"
 3184      65745F74 
 3184      6F203C3D 
 3184      20705F74 
 3184      6F2D3E6C 
 3185 02db 00       		.space	1
 3186              	.LC24:
ARM GAS  C:\Users\jo\AppData\Local\Temp\ccDLAO0k.s 			page 59


 3187 02dc 6F666673 		.ascii	"offset_from <= p_from->len\000"
 3187      65745F66 
 3187      726F6D20 
 3187      3C3D2070 
 3187      5F66726F 
 3188 02f7 00       		.space	1
 3189              	.LC25:
 3190 02f8 705F746F 		.ascii	"p_to != NULL\000"
 3190      20213D20 
 3190      4E554C4C 
 3190      00
 3191 0305 000000   		.space	3
 3192              	.LC26:
 3193 0308 70627566 		.ascii	"pbuf_copy() does not allow packet queues!\012\000"
 3193      5F636F70 
 3193      79282920 
 3193      646F6573 
 3193      206E6F74 
 3194 0333 00       		.space	1
 3195              	.LC27:
 3196 0334 70627566 		.ascii	"pbuf_copy_partial: invalid buf\000"
 3196      5F636F70 
 3196      795F7061 
 3196      72746961 
 3196      6C3A2069 
 3197 0353 00       		.space	1
 3198              	.LC28:
 3199 0354 70627566 		.ascii	"pbuf_copy_partial: invalid dataptr\000"
 3199      5F636F70 
 3199      795F7061 
 3199      72746961 
 3199      6C3A2069 
 3200 0377 00       		.space	1
 3201              	.LC29:
 3202 0378 70627566 		.ascii	"pbuf_take: invalid buf\000"
 3202      5F74616B 
 3202      653A2069 
 3202      6E76616C 
 3202      69642062 
 3203 038f 00       		.space	1
 3204              	.LC30:
 3205 0390 70627566 		.ascii	"pbuf_take: invalid dataptr\000"
 3205      5F74616B 
 3205      653A2069 
 3205      6E76616C 
 3205      69642064 
 3206 03ab 00       		.space	1
 3207              	.LC31:
 3208 03ac 70627566 		.ascii	"pbuf_take: invalid pbuf\000"
 3208      5F74616B 
 3208      653A2069 
 3208      6E76616C 
 3208      69642070 
 3209              	.LC32:
 3210 03c4 64696420 		.ascii	"did not copy all data\000"
 3210      6E6F7420 
 3210      636F7079 
ARM GAS  C:\Users\jo\AppData\Local\Temp\ccDLAO0k.s 			page 60


 3210      20616C6C 
 3210      20646174 
 3211 03da 0000     		.space	2
 3212              	.LC33:
 3213 03dc 70627566 		.ascii	"pbuf_copy failed\000"
 3213      5F636F70 
 3213      79206661 
 3213      696C6564 
 3213      00
 3214 03ed 000000   		.section	.bss.pbuf_free_ooseq_pending,"aw",%nobits
 3215              		.set	.LANCHOR0,. + 0
 3216              		.type	pbuf_free_ooseq_pending, %object
 3217              		.size	pbuf_free_ooseq_pending, 1
 3218              	pbuf_free_ooseq_pending:
 3219 0000 00       		.space	1
 3220              		.text
 3221              	.Letext0:
 3222              		.file 4 "c:\\program files\\gnu tools arm embedded\\4.9 2014q4\\lib\\gcc\\arm-none-eabi\\4.9.3\\in
 3223              		.file 5 "c:\\program files\\gnu tools arm embedded\\4.9 2014q4\\arm-none-eabi\\include\\machine\\_
 3224              		.file 6 "c:\\program files\\gnu tools arm embedded\\4.9 2014q4\\arm-none-eabi\\include\\stdint.h"
 3225              		.file 7 "../../../os/rt/ports/ARMCMx/compilers/GCC/chtypes.h"
 3226              		.file 8 "../../../os/rt/include/chsystypes.h"
 3227              		.file 9 "../../../os/rt/include/chschd.h"
 3228              		.file 10 "../../../os/rt/ports/ARMCMx/chcore.h"
 3229              		.file 11 "../../../os/rt/ports/ARMCMx/chcore_v7m.h"
 3230              		.file 12 "../../../os/rt/include/chdebug.h"
 3231              		.file 13 "../../../os/rt/include/chtm.h"
 3232              		.file 14 "../../../os/rt/include/chsem.h"
 3233              		.file 15 "../../../os/rt/include/chmtx.h"
 3234              		.file 16 "../../../os/rt/include/chstreams.h"
 3235              		.file 17 "./ITM_trace.h"
 3236              		.file 18 "c:\\program files\\gnu tools arm embedded\\4.9 2014q4\\lib\\gcc\\arm-none-eabi\\4.9.3\\i
 3237              		.file 19 "<built-in>"
 3238              		.file 20 "../../../os/various/lwip_bindings/arch/cc.h"
 3239              		.file 21 "../../../ext/lwip/src/include/lwip/err.h"
 3240              		.file 22 "../../../ext/lwip/src/include/lwip/memp.h"
 3241              		.file 23 "../../../ext/lwip/src/include/lwip/pbuf.h"
 3242              		.file 24 "../../../ext/lwip/src/include/ipv4/lwip/ip_addr.h"
 3243              		.file 25 "../../../ext/lwip/src/include/lwip/tcp.h"
 3244              		.file 26 "../../../ext/lwip/src/include/lwip/tcp_impl.h"
 3245              		.file 27 "../../../ext/lwip/src/include/lwip/tcpip.h"
 3246              		.file 28 "../../../os/ext/CMSIS/include/core_cm4.h"
 3247              		.file 29 "../../../os/rt/include/chsys.h"
 3248              		.file 30 "c:\\program files\\gnu tools arm embedded\\4.9 2014q4\\arm-none-eabi\\include\\stdlib.h"
 3249              		.file 31 "c:\\program files\\gnu tools arm embedded\\4.9 2014q4\\arm-none-eabi\\include\\string.h"