ARM GAS  C:\Users\jo\AppData\Local\Temp\ccBDNMK8.s 			page 1


   1              		.syntax unified
   2              		.cpu cortex-m4
   3              		.fpu softvfp
   4              		.eabi_attribute 20, 1
   5              		.eabi_attribute 21, 1
   6              		.eabi_attribute 23, 3
   7              		.eabi_attribute 24, 1
   8              		.eabi_attribute 25, 1
   9              		.eabi_attribute 26, 1
  10              		.eabi_attribute 30, 2
  11              		.eabi_attribute 34, 1
  12              		.eabi_attribute 18, 4
  13              		.thumb
  14              		.file	"pem.c"
  15              		.text
  16              	.Ltext0:
  17              		.cfi_sections	.debug_frame
  18              		.section	.text.pem_get_iv,"ax",%progbits
  19              		.align	2
  20              		.p2align 4,,15
  21              		.thumb
  22              		.thumb_func
  23              		.type	pem_get_iv, %function
  24              	pem_get_iv:
  25              	.LFB9:
  26              		.file 1 "../../../ext/mbedtls-1.3.11/library/pem.c"
  27              		.loc 1 66 0
  28              		.cfi_startproc
  29              		@ args = 0, pretend = 0, frame = 0
  30              		@ frame_needed = 0, uses_anonymous_args = 0
  31              	.LVL0:
  32 0000 F8B5     		push	{r3, r4, r5, r6, r7, lr}
  33              		.cfi_def_cfa_offset 24
  34              		.cfi_offset 3, -24
  35              		.cfi_offset 4, -20
  36              		.cfi_offset 5, -16
  37              		.cfi_offset 6, -12
  38              		.cfi_offset 7, -8
  39              		.cfi_offset 14, -4
  40              		.loc 1 66 0
  41 0002 1446     		mov	r4, r2
  42 0004 0D46     		mov	r5, r1
  43 0006 0646     		mov	r6, r0
  44              		.loc 1 69 0
  45 0008 0846     		mov	r0, r1
  46              	.LVL1:
  47 000a 0021     		movs	r1, #0
  48              	.LVL2:
  49 000c FFF7FEFF 		bl	memset
  50              	.LVL3:
  51              		.loc 1 71 0
  52 0010 5FEA440E 		lsls	lr, r4, #1
  53 0014 20D0     		beq	.L9
  54 0016 B644     		add	lr, lr, r6
  55 0018 3246     		mov	r2, r6
  56 001a 0AE0     		b	.L8
  57              	.LVL4:
ARM GAS  C:\Users\jo\AppData\Local\Temp\ccBDNMK8.s 			page 2


  58              	.L14:
  59              		.loc 1 74 0 discriminator 1
  60 001c A1F13703 		sub	r3, r1, #55
  61              	.LVL5:
  62              	.L5:
  63              		.loc 1 80 0
  64 0020 4408     		lsrs	r4, r0, #1
  65              		.loc 1 78 0
  66 0022 C107     		lsls	r1, r0, #31
  67              		.loc 1 80 0
  68 0024 295D     		ldrb	r1, [r5, r4]	@ zero_extendqisi2
  69              		.loc 1 78 0
  70 0026 58BF     		it	pl
  71 0028 1B01     		lslpl	r3, r3, #4
  72              	.LVL6:
  73              		.loc 1 80 0
  74 002a 0B43     		orrs	r3, r3, r1
  75              	.LVL7:
  76              		.loc 1 71 0
  77 002c 7245     		cmp	r2, lr
  78              		.loc 1 80 0
  79 002e 2B55     		strb	r3, [r5, r4]
  80              	.LVL8:
  81              		.loc 1 71 0
  82 0030 12D0     		beq	.L9
  83              	.LVL9:
  84              	.L8:
  85 0032 901B     		subs	r0, r2, r6
  86              	.LVL10:
  87              		.loc 1 73 0
  88 0034 12F8011B 		ldrb	r1, [r2], #1	@ zero_extendqisi2
  89              	.LVL11:
  90 0038 A1F13003 		sub	r3, r1, #48
  91 003c DCB2     		uxtb	r4, r3
  92 003e 092C     		cmp	r4, #9
  93              		.loc 1 74 0
  94 0040 A1F14107 		sub	r7, r1, #65
  95              		.loc 1 73 0
  96 0044 ECD9     		bls	.L5
  97              		.loc 1 74 0
  98 0046 052F     		cmp	r7, #5
  99              		.loc 1 75 0
 100 0048 A1F16103 		sub	r3, r1, #97
 101              		.loc 1 74 0
 102 004c E6D9     		bls	.L14
 103              		.loc 1 75 0
 104 004e 052B     		cmp	r3, #5
 105 0050 04D8     		bhi	.L10
 106              		.loc 1 75 0 is_stmt 0 discriminator 1
 107 0052 A1F15703 		sub	r3, r1, #87
 108              	.LVL12:
 109 0056 E3E7     		b	.L5
 110              	.LVL13:
 111              	.L9:
 112              		.loc 1 83 0 is_stmt 1
 113 0058 0020     		movs	r0, #0
 114 005a F8BD     		pop	{r3, r4, r5, r6, r7, pc}
ARM GAS  C:\Users\jo\AppData\Local\Temp\ccBDNMK8.s 			page 3


 115              	.LVL14:
 116              	.L10:
 117              		.loc 1 76 0
 118 005c 0048     		ldr	r0, .L15
 119              	.LVL15:
 120              		.loc 1 84 0
 121 005e F8BD     		pop	{r3, r4, r5, r6, r7, pc}
 122              	.LVL16:
 123              	.L16:
 124              		.align	2
 125              	.L15:
 126 0060 00EEFFFF 		.word	-4608
 127              		.cfi_endproc
 128              	.LFE9:
 129              		.size	pem_get_iv, .-pem_get_iv
 130 0064 AFF30080 		.section	.text.pem_pbkdf1,"ax",%progbits
 130      AFF30080 
 130      AFF30080 
 131              		.align	2
 132              		.p2align 4,,15
 133              		.thumb
 134              		.thumb_func
 135              		.type	pem_pbkdf1, %function
 136              	pem_pbkdf1:
 137              	.LFB10:
 138              		.loc 1 89 0
 139              		.cfi_startproc
 140              		@ args = 4, pretend = 0, frame = 232
 141              		@ frame_needed = 0, uses_anonymous_args = 0
 142              	.LVL17:
 143 0000 2DE9F043 		push	{r4, r5, r6, r7, r8, r9, lr}
 144              		.cfi_def_cfa_offset 28
 145              		.cfi_offset 4, -28
 146              		.cfi_offset 5, -24
 147              		.cfi_offset 6, -20
 148              		.cfi_offset 7, -16
 149              		.cfi_offset 8, -12
 150              		.cfi_offset 9, -8
 151              		.cfi_offset 14, -4
 152 0004 BBB0     		sub	sp, sp, #236
 153              		.cfi_def_cfa_offset 264
 154              		.loc 1 94 0
 155 0006 04AC     		add	r4, sp, #16
 156              		.loc 1 89 0
 157 0008 0646     		mov	r6, r0
 158              		.loc 1 94 0
 159 000a 2046     		mov	r0, r4
 160              	.LVL18:
 161              		.loc 1 89 0
 162 000c 9946     		mov	r9, r3
 163 000e 0D46     		mov	r5, r1
 164 0010 9046     		mov	r8, r2
 165              		.loc 1 94 0
 166 0012 FFF7FEFF 		bl	md5_init
 167              	.LVL19:
 168              		.loc 1 99 0
 169 0016 2046     		mov	r0, r4
ARM GAS  C:\Users\jo\AppData\Local\Temp\ccBDNMK8.s 			page 4


 170 0018 FFF7FEFF 		bl	md5_starts
 171              	.LVL20:
 172              		.loc 1 100 0
 173 001c 2046     		mov	r0, r4
 174 001e 4946     		mov	r1, r9
 175 0020 429A     		ldr	r2, [sp, #264]
 176 0022 FFF7FEFF 		bl	md5_update
 177              	.LVL21:
 178              		.loc 1 101 0
 179 0026 2046     		mov	r0, r4
 180 0028 4146     		mov	r1, r8
 181 002a 0822     		movs	r2, #8
 182 002c FFF7FEFF 		bl	md5_update
 183              	.LVL22:
 184              		.loc 1 102 0
 185 0030 2046     		mov	r0, r4
 186 0032 6946     		mov	r1, sp
 187 0034 FFF7FEFF 		bl	md5_finish
 188              	.LVL23:
 189              		.loc 1 104 0
 190 0038 102D     		cmp	r5, #16
 191 003a 10D8     		bhi	.L18
 192              		.loc 1 106 0
 193 003c 2A46     		mov	r2, r5
 194 003e 6946     		mov	r1, sp
 195 0040 3046     		mov	r0, r6
 196 0042 FFF7FEFF 		bl	memcpy
 197              	.LVL24:
 198              		.loc 1 108 0
 199 0046 2046     		mov	r0, r4
 200 0048 FFF7FEFF 		bl	md5_free
 201              	.LVL25:
 202              	.LBB14:
 203              	.LBB15:
 204              		.loc 1 50 0
 205 004c 6B46     		mov	r3, sp
 206 004e 0022     		movs	r2, #0
 207              	.LVL26:
 208              	.L19:
 209 0050 1A70     		strb	r2, [r3]
 210              	.LVL27:
 211 0052 0133     		adds	r3, r3, #1
 212              	.LVL28:
 213 0054 A342     		cmp	r3, r4
 214 0056 FBD1     		bne	.L19
 215              	.LBE15:
 216              	.LBE14:
 217              		.loc 1 132 0
 218 0058 3BB0     		add	sp, sp, #236
 219              		.cfi_remember_state
 220              		.cfi_def_cfa_offset 28
 221              	.LVL29:
 222              		@ sp needed
 223 005a BDE8F083 		pop	{r4, r5, r6, r7, r8, r9, pc}
 224              	.LVL30:
 225              	.L18:
 226              		.cfi_restore_state
ARM GAS  C:\Users\jo\AppData\Local\Temp\ccBDNMK8.s 			page 5


 227              		.loc 1 113 0
 228 005e 6F46     		mov	r7, sp
 229 0060 0FCF     		ldmia	r7!, {r0, r1, r2, r3}
 230 0062 F360     		str	r3, [r6, #12]	@ unaligned
 231 0064 3060     		str	r0, [r6]	@ unaligned
 232 0066 7160     		str	r1, [r6, #4]	@ unaligned
 233 0068 B260     		str	r2, [r6, #8]	@ unaligned
 234              		.loc 1 118 0
 235 006a 2046     		mov	r0, r4
 236 006c FFF7FEFF 		bl	md5_starts
 237              	.LVL31:
 238              		.loc 1 119 0
 239 0070 2046     		mov	r0, r4
 240 0072 6946     		mov	r1, sp
 241 0074 1022     		movs	r2, #16
 242 0076 FFF7FEFF 		bl	md5_update
 243              	.LVL32:
 244              		.loc 1 120 0
 245 007a 2046     		mov	r0, r4
 246 007c 4946     		mov	r1, r9
 247 007e 429A     		ldr	r2, [sp, #264]
 248 0080 FFF7FEFF 		bl	md5_update
 249              	.LVL33:
 250              		.loc 1 121 0
 251 0084 0822     		movs	r2, #8
 252 0086 2046     		mov	r0, r4
 253 0088 4146     		mov	r1, r8
 254 008a FFF7FEFF 		bl	md5_update
 255              	.LVL34:
 256              		.loc 1 122 0
 257 008e 2046     		mov	r0, r4
 258 0090 6946     		mov	r1, sp
 259 0092 FFF7FEFF 		bl	md5_finish
 260              	.LVL35:
 261              		.loc 1 125 0
 262 0096 1F2D     		cmp	r5, #31
 263              		.loc 1 126 0
 264 0098 94BF     		ite	ls
 265 009a A5F11002 		subls	r2, r5, #16
 266              	.LVL36:
 267              		.loc 1 124 0
 268 009e 1022     		movhi	r2, #16
 269              	.LVL37:
 270              		.loc 1 128 0
 271 00a0 6946     		mov	r1, sp
 272 00a2 06F11000 		add	r0, r6, #16
 273 00a6 FFF7FEFF 		bl	memcpy
 274              	.LVL38:
 275              		.loc 1 130 0
 276 00aa 2046     		mov	r0, r4
 277 00ac FFF7FEFF 		bl	md5_free
 278              	.LVL39:
 279              	.LBB16:
 280              	.LBB17:
 281              		.loc 1 50 0
 282 00b0 6B46     		mov	r3, sp
 283 00b2 0022     		movs	r2, #0
ARM GAS  C:\Users\jo\AppData\Local\Temp\ccBDNMK8.s 			page 6


 284              	.LVL40:
 285              	.L22:
 286 00b4 1A70     		strb	r2, [r3]
 287              	.LVL41:
 288 00b6 0133     		adds	r3, r3, #1
 289              	.LVL42:
 290 00b8 A342     		cmp	r3, r4
 291 00ba FBD1     		bne	.L22
 292              	.LBE17:
 293              	.LBE16:
 294              		.loc 1 132 0
 295 00bc 3BB0     		add	sp, sp, #236
 296              		.cfi_def_cfa_offset 28
 297              	.LVL43:
 298              		@ sp needed
 299 00be BDE8F083 		pop	{r4, r5, r6, r7, r8, r9, pc}
 300              		.cfi_endproc
 301              	.LFE10:
 302              		.size	pem_pbkdf1, .-pem_pbkdf1
 303 00c2 00BFAFF3 		.section	.text.pem_des3_decrypt,"ax",%progbits
 303      0080AFF3 
 303      0080AFF3 
 303      0080
 304              		.align	2
 305              		.p2align 4,,15
 306              		.thumb
 307              		.thumb_func
 308              		.type	pem_des3_decrypt, %function
 309              	pem_des3_decrypt:
 310              	.LFB12:
 311              		.loc 1 163 0
 312              		.cfi_startproc
 313              		@ args = 4, pretend = 0, frame = 416
 314              		@ frame_needed = 0, uses_anonymous_args = 0
 315              	.LVL44:
 316 0000 2DE9F043 		push	{r4, r5, r6, r7, r8, r9, lr}
 317              		.cfi_def_cfa_offset 28
 318              		.cfi_offset 4, -28
 319              		.cfi_offset 5, -24
 320              		.cfi_offset 6, -20
 321              		.cfi_offset 7, -16
 322              		.cfi_offset 8, -12
 323              		.cfi_offset 9, -8
 324              		.cfi_offset 14, -4
 325 0004 EBB0     		sub	sp, sp, #428
 326              		.cfi_def_cfa_offset 456
 327              		.loc 1 167 0
 328 0006 09AC     		add	r4, sp, #36
 329              		.loc 1 163 0
 330 0008 0546     		mov	r5, r0
 331 000a 9946     		mov	r9, r3
 332              		.loc 1 167 0
 333 000c 2046     		mov	r0, r4
 334              	.LVL45:
 335              		.loc 1 163 0
 336 000e 729F     		ldr	r7, [sp, #456]
 337 0010 0E46     		mov	r6, r1
ARM GAS  C:\Users\jo\AppData\Local\Temp\ccBDNMK8.s 			page 7


 338 0012 9046     		mov	r8, r2
 339              		.loc 1 167 0
 340 0014 FFF7FEFF 		bl	des3_init
 341              	.LVL46:
 342              		.loc 1 169 0
 343 0018 4B46     		mov	r3, r9
 344 001a 2A46     		mov	r2, r5
 345 001c 03A8     		add	r0, sp, #12
 346 001e 1821     		movs	r1, #24
 347 0020 0097     		str	r7, [sp]
 348 0022 FFF7FEFF 		bl	pem_pbkdf1
 349              	.LVL47:
 350              		.loc 1 171 0
 351 0026 03A9     		add	r1, sp, #12
 352 0028 2046     		mov	r0, r4
 353 002a FFF7FEFF 		bl	des3_set3key_dec
 354              	.LVL48:
 355              		.loc 1 172 0
 356 002e 4246     		mov	r2, r8
 357 0030 2B46     		mov	r3, r5
 358 0032 0021     		movs	r1, #0
 359 0034 0096     		str	r6, [sp]
 360 0036 0196     		str	r6, [sp, #4]
 361 0038 2046     		mov	r0, r4
 362 003a FFF7FEFF 		bl	des3_crypt_cbc
 363              	.LVL49:
 364              		.loc 1 175 0
 365 003e 2046     		mov	r0, r4
 366 0040 FFF7FEFF 		bl	des3_free
 367              	.LVL50:
 368              	.LBB18:
 369              	.LBB19:
 370              		.loc 1 50 0
 371 0044 03AB     		add	r3, sp, #12
 372              	.LVL51:
 373 0046 0022     		movs	r2, #0
 374              	.LVL52:
 375              	.L28:
 376 0048 1A70     		strb	r2, [r3]
 377              	.LVL53:
 378 004a 0133     		adds	r3, r3, #1
 379              	.LVL54:
 380 004c A342     		cmp	r3, r4
 381 004e FBD1     		bne	.L28
 382              	.LBE19:
 383              	.LBE18:
 384              		.loc 1 177 0
 385 0050 6BB0     		add	sp, sp, #428
 386              		.cfi_def_cfa_offset 28
 387              		@ sp needed
 388 0052 BDE8F083 		pop	{r4, r5, r6, r7, r8, r9, pc}
 389              		.cfi_endproc
 390              	.LFE12:
 391              		.size	pem_des3_decrypt, .-pem_des3_decrypt
 392 0056 00BFAFF3 		.section	.text.pem_aes_decrypt,"ax",%progbits
 392      0080AFF3 
 392      0080
ARM GAS  C:\Users\jo\AppData\Local\Temp\ccBDNMK8.s 			page 8


 393              		.align	2
 394              		.p2align 4,,15
 395              		.thumb
 396              		.thumb_func
 397              		.type	pem_aes_decrypt, %function
 398              	pem_aes_decrypt:
 399              	.LFB13:
 400              		.loc 1 187 0
 401              		.cfi_startproc
 402              		@ args = 8, pretend = 0, frame = 312
 403              		@ frame_needed = 0, uses_anonymous_args = 0
 404              	.LVL55:
 405 0000 2DE9F041 		push	{r4, r5, r6, r7, r8, lr}
 406              		.cfi_def_cfa_offset 24
 407              		.cfi_offset 4, -24
 408              		.cfi_offset 5, -20
 409              		.cfi_offset 6, -16
 410              		.cfi_offset 7, -12
 411              		.cfi_offset 8, -8
 412              		.cfi_offset 14, -4
 413 0004 D0B0     		sub	sp, sp, #320
 414              		.cfi_def_cfa_offset 344
 415              		.loc 1 187 0
 416 0006 0C46     		mov	r4, r1
 417 0008 0546     		mov	r5, r0
 418 000a 579F     		ldr	r7, [sp, #348]
 419              		.loc 1 191 0
 420 000c 0AA8     		add	r0, sp, #40
 421              	.LVL56:
 422              		.loc 1 187 0
 423 000e 1646     		mov	r6, r2
 424 0010 9846     		mov	r8, r3
 425              		.loc 1 191 0
 426 0012 FFF7FEFF 		bl	aes_init
 427              	.LVL57:
 428              		.loc 1 193 0
 429 0016 569B     		ldr	r3, [sp, #344]
 430 0018 0097     		str	r7, [sp]
 431 001a 2146     		mov	r1, r4
 432 001c 2A46     		mov	r2, r5
 433 001e 02A8     		add	r0, sp, #8
 434 0020 FFF7FEFF 		bl	pem_pbkdf1
 435              	.LVL58:
 436              		.loc 1 195 0
 437 0024 02A9     		add	r1, sp, #8
 438 0026 E200     		lsls	r2, r4, #3
 439 0028 0AA8     		add	r0, sp, #40
 440 002a FFF7FEFF 		bl	aes_setkey_dec
 441              	.LVL59:
 442              		.loc 1 196 0
 443 002e 0096     		str	r6, [sp]
 444 0030 0196     		str	r6, [sp, #4]
 445 0032 4246     		mov	r2, r8
 446 0034 2B46     		mov	r3, r5
 447 0036 0AA8     		add	r0, sp, #40
 448 0038 0021     		movs	r1, #0
 449 003a FFF7FEFF 		bl	aes_crypt_cbc
ARM GAS  C:\Users\jo\AppData\Local\Temp\ccBDNMK8.s 			page 9


 450              	.LVL60:
 451              		.loc 1 199 0
 452 003e 0AA8     		add	r0, sp, #40
 453 0040 FFF7FEFF 		bl	aes_free
 454              	.LVL61:
 455              	.LBB20:
 456              	.LBB21:
 457              		.loc 1 50 0
 458 0044 34B1     		cbz	r4, .L31
 459 0046 02AB     		add	r3, sp, #8
 460              	.LVL62:
 461 0048 1919     		adds	r1, r3, r4
 462 004a 0022     		movs	r2, #0
 463              	.LVL63:
 464              	.L33:
 465 004c 1A70     		strb	r2, [r3]
 466              	.LVL64:
 467 004e 0133     		adds	r3, r3, #1
 468              	.LVL65:
 469 0050 8B42     		cmp	r3, r1
 470 0052 FBD1     		bne	.L33
 471              	.LVL66:
 472              	.L31:
 473              	.LBE21:
 474              	.LBE20:
 475              		.loc 1 201 0
 476 0054 50B0     		add	sp, sp, #320
 477              		.cfi_def_cfa_offset 24
 478              		@ sp needed
 479 0056 BDE8F081 		pop	{r4, r5, r6, r7, r8, pc}
 480              		.cfi_endproc
 481              	.LFE13:
 482              		.size	pem_aes_decrypt, .-pem_aes_decrypt
 483 005a 00BFAFF3 		.section	.text.pem_init,"ax",%progbits
 483      0080
 484              		.align	2
 485              		.p2align 4,,15
 486              		.global	pem_init
 487              		.thumb
 488              		.thumb_func
 489              		.type	pem_init, %function
 490              	pem_init:
 491              	.LFB8:
 492              		.loc 1 55 0
 493              		.cfi_startproc
 494              		@ args = 0, pretend = 0, frame = 0
 495              		@ frame_needed = 0, uses_anonymous_args = 0
 496              		@ link register save eliminated.
 497              	.LVL67:
 498              		.loc 1 56 0
 499 0000 0346     		mov	r3, r0
 500 0002 0022     		movs	r2, #0
 501 0004 03F8012B 		strb	r2, [r3], #1
 502 0008 0133     		adds	r3, r3, #1
 503 000a 4270     		strb	r2, [r0, #1]
 504 000c 03F8012B 		strb	r2, [r3], #1
 505 0010 03F8012B 		strb	r2, [r3], #1
ARM GAS  C:\Users\jo\AppData\Local\Temp\ccBDNMK8.s 			page 10


 506 0014 03F8012B 		strb	r2, [r3], #1
 507 0018 03F8012B 		strb	r2, [r3], #1
 508 001c 03F8012B 		strb	r2, [r3], #1
 509 0020 03F8012B 		strb	r2, [r3], #1
 510 0024 03F8012B 		strb	r2, [r3], #1
 511 0028 03F8012B 		strb	r2, [r3], #1
 512 002c 03F8012B 		strb	r2, [r3], #1
 513 0030 1A70     		strb	r2, [r3]
 514 0032 7047     		bx	lr
 515              		.cfi_endproc
 516              	.LFE8:
 517              		.size	pem_init, .-pem_init
 518 0034 AFF30080 		.section	.text.pem_read_buffer,"ax",%progbits
 518      AFF30080 
 518      AFF30080 
 519              		.align	2
 520              		.p2align 4,,15
 521              		.global	pem_read_buffer
 522              		.thumb
 523              		.thumb_func
 524              		.type	pem_read_buffer, %function
 525              	pem_read_buffer:
 526              	.LFB14:
 527              		.loc 1 210 0
 528              		.cfi_startproc
 529              		@ args = 12, pretend = 0, frame = 160
 530              		@ frame_needed = 0, uses_anonymous_args = 0
 531              	.LVL68:
 532              		.loc 1 225 0
 533 0000 0028     		cmp	r0, #0
 534 0002 00F06881 		beq	.L69
 535              		.loc 1 210 0
 536 0006 2DE9F047 		push	{r4, r5, r6, r7, r8, r9, r10, lr}
 537              		.cfi_def_cfa_offset 32
 538              		.cfi_offset 4, -32
 539              		.cfi_offset 5, -28
 540              		.cfi_offset 6, -24
 541              		.cfi_offset 7, -20
 542              		.cfi_offset 8, -16
 543              		.cfi_offset 9, -12
 544              		.cfi_offset 10, -8
 545              		.cfi_offset 14, -4
 546 000a 8046     		mov	r8, r0
 547 000c AAB0     		sub	sp, sp, #168
 548              		.cfi_def_cfa_offset 200
 549              		.loc 1 228 0
 550 000e 1846     		mov	r0, r3
 551              	.LVL69:
 552 0010 0F46     		mov	r7, r1
 553 0012 1E46     		mov	r6, r3
 554 0014 9146     		mov	r9, r2
 555 0016 FFF7FEFF 		bl	strstr
 556              	.LVL70:
 557              		.loc 1 230 0
 558 001a 0446     		mov	r4, r0
 559 001c 0028     		cmp	r0, #0
 560 001e 00F0EC80 		beq	.L74
ARM GAS  C:\Users\jo\AppData\Local\Temp\ccBDNMK8.s 			page 11


 561              		.loc 1 233 0
 562 0022 3046     		mov	r0, r6
 563              	.LVL71:
 564 0024 4946     		mov	r1, r9
 565 0026 FFF7FEFF 		bl	strstr
 566              	.LVL72:
 567              		.loc 1 235 0
 568 002a 0546     		mov	r5, r0
 569 002c 0028     		cmp	r0, #0
 570 002e 00F0E480 		beq	.L74
 571              		.loc 1 235 0 is_stmt 0 discriminator 1
 572 0032 8442     		cmp	r4, r0
 573 0034 80F0E180 		bcs	.L74
 574              		.loc 1 238 0 is_stmt 1
 575 0038 3846     		mov	r0, r7
 576              	.LVL73:
 577 003a FFF7FEFF 		bl	strlen
 578              	.LVL74:
 579              		.loc 1 239 0
 580 003e 235C     		ldrb	r3, [r4, r0]	@ zero_extendqisi2
 581              		.loc 1 238 0
 582 0040 2718     		adds	r7, r4, r0
 583              	.LVL75:
 584              		.loc 1 239 0
 585 0042 0D2B     		cmp	r3, #13
 586 0044 04BF     		itt	eq
 587 0046 7B78     		ldrbeq	r3, [r7, #1]	@ zero_extendqisi2
 588 0048 0137     		addeq	r7, r7, #1
 589              	.LVL76:
 590              		.loc 1 240 0
 591 004a 0A2B     		cmp	r3, #10
 592 004c 40F0D580 		bne	.L74
 593              		.loc 1 244 0 discriminator 1
 594 0050 4846     		mov	r0, r9
 595 0052 FFF7FEFF 		bl	strlen
 596              	.LVL77:
 597              		.loc 1 245 0 discriminator 1
 598 0056 2A5C     		ldrb	r2, [r5, r0]	@ zero_extendqisi2
 599              		.loc 1 251 0 discriminator 1
 600 0058 A249     		ldr	r1, .L103
 601              		.loc 1 244 0 discriminator 1
 602 005a 2B18     		adds	r3, r5, r0
 603              		.loc 1 245 0 discriminator 1
 604 005c 0D2A     		cmp	r2, #13
 605 005e 04BF     		itt	eq
 606 0060 5A78     		ldrbeq	r2, [r3, #1]	@ zero_extendqisi2
 607 0062 0133     		addeq	r3, r3, #1
 608              		.loc 1 246 0 discriminator 1
 609 0064 0A2A     		cmp	r2, #10
 610 0066 08BF     		it	eq
 611 0068 0133     		addeq	r3, r3, #1
 612              		.loc 1 247 0 discriminator 1
 613 006a 349A     		ldr	r2, [sp, #208]
 614              		.loc 1 240 0 discriminator 1
 615 006c 7C1C     		adds	r4, r7, #1
 616              	.LVL78:
 617              		.loc 1 247 0 discriminator 1
ARM GAS  C:\Users\jo\AppData\Local\Temp\ccBDNMK8.s 			page 12


 618 006e 9B1B     		subs	r3, r3, r6
 619              	.LVL79:
 620 0070 1360     		str	r3, [r2]
 621              	.LVL80:
 622              		.loc 1 251 0 discriminator 1
 623 0072 2046     		mov	r0, r4
 624 0074 1622     		movs	r2, #22
 625 0076 FFF7FEFF 		bl	memcmp
 626              	.LVL81:
 627 007a 0028     		cmp	r0, #0
 628 007c 4FD1     		bne	.L76
 629              	.LVL82:
 630              		.loc 1 258 0
 631 007e FB7D     		ldrb	r3, [r7, #23]	@ zero_extendqisi2
 632 0080 0D2B     		cmp	r3, #13
 633 0082 0ABF     		itet	eq
 634 0084 3B7E     		ldrbeq	r3, [r7, #24]	@ zero_extendqisi2
 635              		.loc 1 257 0
 636 0086 1737     		addne	r7, r7, #23
 637              	.LVL83:
 638              		.loc 1 258 0
 639 0088 1837     		addeq	r7, r7, #24
 640              	.LVL84:
 641              		.loc 1 259 0
 642 008a 0A2B     		cmp	r3, #10
 643 008c 40F0C480 		bne	.L54
 644              		.loc 1 259 0 is_stmt 0 discriminator 1
 645 0090 7C1C     		adds	r4, r7, #1
 646              	.LVL85:
 647              		.loc 1 264 0 is_stmt 1 discriminator 1
 648 0092 2046     		mov	r0, r4
 649 0094 9449     		ldr	r1, .L103+4
 650 0096 1722     		movs	r2, #23
 651 0098 FFF7FEFF 		bl	memcmp
 652              	.LVL86:
 653 009c 0028     		cmp	r0, #0
 654 009e 00F08B80 		beq	.L93
 655              		.loc 1 274 0
 656 00a2 2046     		mov	r0, r4
 657 00a4 9149     		ldr	r1, .L103+8
 658 00a6 1222     		movs	r2, #18
 659 00a8 FFF7FEFF 		bl	memcmp
 660              	.LVL87:
 661 00ac 0028     		cmp	r0, #0
 662 00ae 00F0A880 		beq	.L94
 663              		.loc 1 287 0
 664 00b2 2046     		mov	r0, r4
 665 00b4 8E49     		ldr	r1, .L103+12
 666 00b6 0E22     		movs	r2, #14
 667 00b8 FFF7FEFF 		bl	memcmp
 668              	.LVL88:
 669 00bc 0028     		cmp	r0, #0
 670 00be 40F09680 		bne	.L68
 671              		.loc 1 289 0
 672 00c2 2046     		mov	r0, r4
 673 00c4 8B49     		ldr	r1, .L103+16
 674 00c6 1622     		movs	r2, #22
ARM GAS  C:\Users\jo\AppData\Local\Temp\ccBDNMK8.s 			page 13


 675 00c8 FFF7FEFF 		bl	memcmp
 676              	.LVL89:
 677 00cc 0028     		cmp	r0, #0
 678 00ce 00F09280 		beq	.L77
 679              	.LVL90:
 680              	.L102:
 681              		.loc 1 291 0
 682 00d2 2046     		mov	r0, r4
 683 00d4 8849     		ldr	r1, .L103+20
 684 00d6 1622     		movs	r2, #22
 685 00d8 FFF7FEFF 		bl	memcmp
 686              	.LVL91:
 687 00dc 0028     		cmp	r0, #0
 688 00de 00F09F80 		beq	.L78
 689              		.loc 1 293 0
 690 00e2 2046     		mov	r0, r4
 691 00e4 8549     		ldr	r1, .L103+24
 692 00e6 1622     		movs	r2, #22
 693 00e8 FFF7FEFF 		bl	memcmp
 694              	.LVL92:
 695              		.loc 1 294 0
 696 00ec 0727     		movs	r7, #7
 697              		.loc 1 293 0
 698 00ee 0028     		cmp	r0, #0
 699 00f0 7DD1     		bne	.L68
 700              	.L52:
 701              	.LVL93:
 702              		.loc 1 299 0
 703 00f2 04F11600 		add	r0, r4, #22
 704              	.LVL94:
 705 00f6 05A9     		add	r1, sp, #20
 706 00f8 1022     		movs	r2, #16
 707 00fa FFF7FEFF 		bl	pem_get_iv
 708              	.LVL95:
 709 00fe 0028     		cmp	r0, #0
 710 0100 40F0AA80 		bne	.L51
 711              		.loc 1 302 0
 712 0104 3634     		adds	r4, r4, #54
 713              	.LVL96:
 714              	.L67:
 715              		.loc 1 309 0
 716 0106 2378     		ldrb	r3, [r4]	@ zero_extendqisi2
 717 0108 0D2B     		cmp	r3, #13
 718 010a 04BF     		itt	eq
 719 010c 6378     		ldrbeq	r3, [r4, #1]	@ zero_extendqisi2
 720 010e 0134     		addeq	r4, r4, #1
 721              	.LVL97:
 722              		.loc 1 310 0
 723 0110 0A2B     		cmp	r3, #10
 724 0112 40F08180 		bne	.L54
 725              		.loc 1 310 0 is_stmt 0 discriminator 1
 726 0116 0134     		adds	r4, r4, #1
 727              	.LVL98:
 728              		.loc 1 255 0 is_stmt 1 discriminator 1
 729 0118 4FF00109 		mov	r9, #1
 730              	.LVL99:
 731 011c 01E0     		b	.L43
ARM GAS  C:\Users\jo\AppData\Local\Temp\ccBDNMK8.s 			page 14


 732              	.LVL100:
 733              	.L76:
 734              		.loc 1 218 0
 735 011e 0027     		movs	r7, #0
 736              		.loc 1 249 0
 737 0120 B946     		mov	r9, r7
 738              	.LVL101:
 739              	.L43:
 740              		.loc 1 318 0
 741 0122 2AAE     		add	r6, sp, #168
 742              	.LVL102:
 743 0124 0020     		movs	r0, #0
 744 0126 46F8A00D 		str	r0, [r6, #-160]!
 745              		.loc 1 319 0
 746 012a 2D1B     		subs	r5, r5, r4
 747              	.LVL103:
 748 012c 3146     		mov	r1, r6
 749 012e 2B46     		mov	r3, r5
 750 0130 2246     		mov	r2, r4
 751 0132 FFF7FEFF 		bl	base64_decode
 752              	.LVL104:
 753              		.loc 1 321 0
 754 0136 2C30     		adds	r0, r0, #44
 755              	.LVL105:
 756 0138 31D0     		beq	.L81
 757              		.loc 1 324 0
 758 013a 0298     		ldr	r0, [sp, #8]
 759              	.LVL106:
 760 013c FFF7FEFF 		bl	malloc
 761              	.LVL107:
 762 0140 8246     		mov	r10, r0
 763 0142 0028     		cmp	r0, #0
 764 0144 00F0C580 		beq	.L82
 765              		.loc 1 327 0
 766 0148 2246     		mov	r2, r4
 767 014a 3146     		mov	r1, r6
 768 014c 2B46     		mov	r3, r5
 769 014e FFF7FEFF 		bl	base64_decode
 770              	.LVL108:
 771 0152 0446     		mov	r4, r0
 772              	.LVL109:
 773 0154 0028     		cmp	r0, #0
 774 0156 65D1     		bne	.L95
 775              		.loc 1 333 0
 776 0158 B9F1000F 		cmp	r9, #0
 777 015c 23D0     		beq	.L56
 778              		.loc 1 337 0
 779 015e 329B     		ldr	r3, [sp, #200]
 780 0160 002B     		cmp	r3, #0
 781 0162 00F0BA80 		beq	.L96
 782              		.loc 1 344 0
 783 0166 252F     		cmp	r7, #37
 784 0168 6DD0     		beq	.L97
 785              		.loc 1 346 0
 786 016a 212F     		cmp	r7, #33
 787 016c 00F08180 		beq	.L98
 788              		.loc 1 351 0
ARM GAS  C:\Users\jo\AppData\Local\Temp\ccBDNMK8.s 			page 15


 789 0170 052F     		cmp	r7, #5
 790 0172 5DD0     		beq	.L99
 791              		.loc 1 353 0
 792 0174 062F     		cmp	r7, #6
 793 0176 71D0     		beq	.L100
 794              		.loc 1 355 0
 795 0178 072F     		cmp	r7, #7
 796 017a 00F09F80 		beq	.L101
 797              	.LVL110:
 798              	.L59:
 799              		.loc 1 365 0
 800 017e 029B     		ldr	r3, [sp, #8]
 801 0180 022B     		cmp	r3, #2
 802 0182 07D9     		bls	.L64
 803              		.loc 1 365 0 is_stmt 0 discriminator 1
 804 0184 9AF80020 		ldrb	r2, [r10]	@ zero_extendqisi2
 805 0188 302A     		cmp	r2, #48
 806 018a 03D1     		bne	.L64
 807              		.loc 1 365 0 discriminator 2
 808 018c 9AF80120 		ldrb	r2, [r10, #1]	@ zero_extendqisi2
 809 0190 832A     		cmp	r2, #131
 810 0192 09D9     		bls	.L65
 811              	.L64:
 812              		.loc 1 367 0 is_stmt 1
 813 0194 5046     		mov	r0, r10
 814 0196 FFF7FEFF 		bl	free
 815              	.LVL111:
 816              		.loc 1 368 0
 817 019a 5948     		ldr	r0, .L103+28
 818 019c 00E0     		b	.L90
 819              	.LVL112:
 820              	.L81:
 821              		.loc 1 322 0
 822 019e 5948     		ldr	r0, .L103+32
 823              	.LVL113:
 824              	.L90:
 825              		.loc 1 381 0
 826 01a0 2AB0     		add	sp, sp, #168
 827              		.cfi_remember_state
 828              		.cfi_def_cfa_offset 32
 829              		@ sp needed
 830 01a2 BDE8F087 		pop	{r4, r5, r6, r7, r8, r9, r10, pc}
 831              	.LVL114:
 832              	.L56:
 833              		.cfi_restore_state
 834 01a6 029B     		ldr	r3, [sp, #8]
 835              	.LVL115:
 836              	.L65:
 837              		.loc 1 377 0
 838 01a8 C8F800A0 		str	r10, [r8]
 839              		.loc 1 380 0
 840 01ac 0020     		movs	r0, #0
 841              		.loc 1 378 0
 842 01ae C8F80430 		str	r3, [r8, #4]
 843              		.loc 1 381 0
 844 01b2 2AB0     		add	sp, sp, #168
 845              		.cfi_remember_state
ARM GAS  C:\Users\jo\AppData\Local\Temp\ccBDNMK8.s 			page 16


 846              		.cfi_def_cfa_offset 32
 847              		@ sp needed
 848 01b4 BDE8F087 		pop	{r4, r5, r6, r7, r8, r9, r10, pc}
 849              	.LVL116:
 850              	.L93:
 851              		.cfi_restore_state
 852              		.loc 1 269 0
 853 01b8 07F11800 		add	r0, r7, #24
 854              	.LVL117:
 855 01bc 05A9     		add	r1, sp, #20
 856 01be 0822     		movs	r2, #8
 857 01c0 FFF7FEFF 		bl	pem_get_iv
 858              	.LVL118:
 859 01c4 0028     		cmp	r0, #0
 860 01c6 47D1     		bne	.L51
 861              		.loc 1 272 0
 862 01c8 07F12804 		add	r4, r7, #40
 863              	.LVL119:
 864              		.loc 1 266 0
 865 01cc 2527     		movs	r7, #37
 866              	.LVL120:
 867              	.L49:
 868              		.loc 1 287 0
 869 01ce 2046     		mov	r0, r4
 870 01d0 4749     		ldr	r1, .L103+12
 871 01d2 0E22     		movs	r2, #14
 872 01d4 FFF7FEFF 		bl	memcmp
 873              	.LVL121:
 874 01d8 0028     		cmp	r0, #0
 875 01da 94D1     		bne	.L67
 876              		.loc 1 289 0
 877 01dc 2046     		mov	r0, r4
 878 01de 4549     		ldr	r1, .L103+16
 879 01e0 1622     		movs	r2, #22
 880 01e2 FFF7FEFF 		bl	memcmp
 881              	.LVL122:
 882 01e6 0028     		cmp	r0, #0
 883 01e8 7FF473AF 		bne	.L102
 884 01ec 03E0     		b	.L77
 885              	.LVL123:
 886              	.L68:
 887              		.loc 1 296 0
 888 01ee 4648     		ldr	r0, .L103+36
 889              		.loc 1 381 0
 890 01f0 2AB0     		add	sp, sp, #168
 891              		.cfi_remember_state
 892              		.cfi_def_cfa_offset 32
 893              		@ sp needed
 894 01f2 BDE8F087 		pop	{r4, r5, r6, r7, r8, r9, r10, pc}
 895              	.LVL124:
 896              	.L77:
 897              		.cfi_restore_state
 898              		.loc 1 290 0
 899 01f6 0527     		movs	r7, #5
 900 01f8 7BE7     		b	.L52
 901              	.LVL125:
 902              	.L74:
ARM GAS  C:\Users\jo\AppData\Local\Temp\ccBDNMK8.s 			page 17


 903              		.loc 1 231 0
 904 01fa 4448     		ldr	r0, .L103+40
 905              		.loc 1 381 0
 906 01fc 2AB0     		add	sp, sp, #168
 907              		.cfi_remember_state
 908              		.cfi_def_cfa_offset 32
 909              		@ sp needed
 910 01fe BDE8F087 		pop	{r4, r5, r6, r7, r8, r9, r10, pc}
 911              	.LVL126:
 912              	.L94:
 913              		.cfi_restore_state
 914              		.loc 1 279 0
 915 0202 07F11300 		add	r0, r7, #19
 916              	.LVL127:
 917 0206 05A9     		add	r1, sp, #20
 918 0208 0822     		movs	r2, #8
 919 020a FFF7FEFF 		bl	pem_get_iv
 920              	.LVL128:
 921 020e 18BB     		cbnz	r0, .L51
 922              		.loc 1 282 0
 923 0210 07F12304 		add	r4, r7, #35
 924              	.LVL129:
 925              		.loc 1 276 0
 926 0214 2127     		movs	r7, #33
 927 0216 DAE7     		b	.L49
 928              	.LVL130:
 929              	.L54:
 930              		.loc 1 260 0
 931 0218 3D48     		ldr	r0, .L103+44
 932              		.loc 1 381 0
 933 021a 2AB0     		add	sp, sp, #168
 934              		.cfi_remember_state
 935              		.cfi_def_cfa_offset 32
 936              		@ sp needed
 937 021c BDE8F087 		pop	{r4, r5, r6, r7, r8, r9, r10, pc}
 938              	.LVL131:
 939              	.L78:
 940              		.cfi_restore_state
 941              		.loc 1 292 0
 942 0220 0627     		movs	r7, #6
 943 0222 66E7     		b	.L52
 944              	.LVL132:
 945              	.L95:
 946              		.loc 1 329 0
 947 0224 5046     		mov	r0, r10
 948              	.LVL133:
 949 0226 FFF7FEFF 		bl	free
 950              	.LVL134:
 951              		.loc 1 330 0
 952 022a A4F58850 		sub	r0, r4, #4352
 953 022e B7E7     		b	.L90
 954              	.LVL135:
 955              	.L99:
 956              		.loc 1 352 0
 957 0230 329A     		ldr	r2, [sp, #200]
 958 0232 0092     		str	r2, [sp]
 959 0234 339A     		ldr	r2, [sp, #204]
ARM GAS  C:\Users\jo\AppData\Local\Temp\ccBDNMK8.s 			page 18


 960 0236 0192     		str	r2, [sp, #4]
 961 0238 029B     		ldr	r3, [sp, #8]
 962 023a 05A8     		add	r0, sp, #20
 963              	.LVL136:
 964 023c 1021     		movs	r1, #16
 965 023e 5246     		mov	r2, r10
 966 0240 FFF7FEFF 		bl	pem_aes_decrypt
 967              	.LVL137:
 968 0244 9BE7     		b	.L59
 969              	.LVL138:
 970              	.L97:
 971              		.loc 1 345 0
 972 0246 339B     		ldr	r3, [sp, #204]
 973 0248 0093     		str	r3, [sp]
 974 024a 029A     		ldr	r2, [sp, #8]
 975 024c 329B     		ldr	r3, [sp, #200]
 976 024e 05A8     		add	r0, sp, #20
 977              	.LVL139:
 978 0250 5146     		mov	r1, r10
 979 0252 FFF7FEFF 		bl	pem_des3_decrypt
 980              	.LVL140:
 981 0256 92E7     		b	.L59
 982              	.LVL141:
 983              	.L51:
 984              		.loc 1 270 0
 985 0258 2E48     		ldr	r0, .L103+48
 986 025a A1E7     		b	.L90
 987              	.LVL142:
 988              	.L100:
 989              		.loc 1 354 0
 990 025c 329A     		ldr	r2, [sp, #200]
 991 025e 0092     		str	r2, [sp]
 992 0260 339A     		ldr	r2, [sp, #204]
 993 0262 0192     		str	r2, [sp, #4]
 994 0264 029B     		ldr	r3, [sp, #8]
 995 0266 05A8     		add	r0, sp, #20
 996              	.LVL143:
 997 0268 1821     		movs	r1, #24
 998 026a 5246     		mov	r2, r10
 999 026c FFF7FEFF 		bl	pem_aes_decrypt
 1000              	.LVL144:
 1001 0270 85E7     		b	.L59
 1002              	.LVL145:
 1003              	.L98:
 1004              	.LBB26:
 1005              	.LBB27:
 1006              		.loc 1 145 0
 1007 0272 09A8     		add	r0, sp, #36
 1008              	.LVL146:
 1009              		.loc 1 147 0
 1010 0274 05AD     		add	r5, sp, #20
 1011              	.LBE27:
 1012              	.LBE26:
 1013              		.loc 1 347 0
 1014 0276 029E     		ldr	r6, [sp, #8]
 1015              	.LVL147:
 1016              	.LBB31:
ARM GAS  C:\Users\jo\AppData\Local\Temp\ccBDNMK8.s 			page 19


 1017              	.LBB30:
 1018              		.loc 1 145 0
 1019 0278 FFF7FEFF 		bl	des_init
 1020              	.LVL148:
 1021              		.loc 1 147 0
 1022 027c 339B     		ldr	r3, [sp, #204]
 1023 027e 0093     		str	r3, [sp]
 1024 0280 2A46     		mov	r2, r5
 1025 0282 329B     		ldr	r3, [sp, #200]
 1026 0284 03A8     		add	r0, sp, #12
 1027 0286 0821     		movs	r1, #8
 1028 0288 FFF7FEFF 		bl	pem_pbkdf1
 1029              	.LVL149:
 1030              		.loc 1 149 0
 1031 028c 03A9     		add	r1, sp, #12
 1032 028e 09A8     		add	r0, sp, #36
 1033 0290 FFF7FEFF 		bl	des_setkey_dec
 1034              	.LVL150:
 1035              		.loc 1 150 0
 1036 0294 2B46     		mov	r3, r5
 1037 0296 3246     		mov	r2, r6
 1038 0298 2146     		mov	r1, r4
 1039 029a CDF800A0 		str	r10, [sp]
 1040 029e CDF804A0 		str	r10, [sp, #4]
 1041 02a2 09A8     		add	r0, sp, #36
 1042 02a4 FFF7FEFF 		bl	des_crypt_cbc
 1043              	.LVL151:
 1044              		.loc 1 153 0
 1045 02a8 09A8     		add	r0, sp, #36
 1046 02aa FFF7FEFF 		bl	des_free
 1047              	.LVL152:
 1048              	.LBB28:
 1049              	.LBB29:
 1050              		.loc 1 50 0
 1051 02ae 03AB     		add	r3, sp, #12
 1052              	.LVL153:
 1053 02b0 2046     		mov	r0, r4
 1054              	.LVL154:
 1055              	.L61:
 1056 02b2 1870     		strb	r0, [r3]
 1057              	.LVL155:
 1058 02b4 0133     		adds	r3, r3, #1
 1059              	.LVL156:
 1060 02b6 AB42     		cmp	r3, r5
 1061 02b8 FBD1     		bne	.L61
 1062 02ba 60E7     		b	.L59
 1063              	.LVL157:
 1064              	.L101:
 1065              	.LBE29:
 1066              	.LBE28:
 1067              	.LBE30:
 1068              	.LBE31:
 1069              		.loc 1 356 0
 1070 02bc 329A     		ldr	r2, [sp, #200]
 1071 02be 0092     		str	r2, [sp]
 1072 02c0 339A     		ldr	r2, [sp, #204]
 1073 02c2 0192     		str	r2, [sp, #4]
ARM GAS  C:\Users\jo\AppData\Local\Temp\ccBDNMK8.s 			page 20


 1074 02c4 029B     		ldr	r3, [sp, #8]
 1075 02c6 05A8     		add	r0, sp, #20
 1076              	.LVL158:
 1077 02c8 2021     		movs	r1, #32
 1078 02ca 5246     		mov	r2, r10
 1079 02cc FFF7FEFF 		bl	pem_aes_decrypt
 1080              	.LVL159:
 1081 02d0 55E7     		b	.L59
 1082              	.LVL160:
 1083              	.L82:
 1084              		.loc 1 325 0
 1085 02d2 1148     		ldr	r0, .L103+52
 1086              	.LVL161:
 1087 02d4 64E7     		b	.L90
 1088              	.LVL162:
 1089              	.L69:
 1090              		.cfi_def_cfa_offset 0
 1091              		.cfi_restore 4
 1092              		.cfi_restore 5
 1093              		.cfi_restore 6
 1094              		.cfi_restore 7
 1095              		.cfi_restore 8
 1096              		.cfi_restore 9
 1097              		.cfi_restore 10
 1098              		.cfi_restore 14
 1099              		.loc 1 226 0
 1100 02d6 1148     		ldr	r0, .L103+56
 1101              	.LVL163:
 1102              		.loc 1 381 0
 1103 02d8 7047     		bx	lr
 1104              	.LVL164:
 1105              	.L96:
 1106              		.cfi_def_cfa_offset 200
 1107              		.cfi_offset 4, -32
 1108              		.cfi_offset 5, -28
 1109              		.cfi_offset 6, -24
 1110              		.cfi_offset 7, -20
 1111              		.cfi_offset 8, -16
 1112              		.cfi_offset 9, -12
 1113              		.cfi_offset 10, -8
 1114              		.cfi_offset 14, -4
 1115              		.loc 1 339 0
 1116 02da 5046     		mov	r0, r10
 1117              	.LVL165:
 1118 02dc FFF7FEFF 		bl	free
 1119              	.LVL166:
 1120              		.loc 1 340 0
 1121 02e0 0F48     		ldr	r0, .L103+60
 1122 02e2 5DE7     		b	.L90
 1123              	.L104:
 1124              		.align	2
 1125              	.L103:
 1126 02e4 00000000 		.word	.LC0
 1127 02e8 18000000 		.word	.LC1
 1128 02ec 30000000 		.word	.LC2
 1129 02f0 8C000000 		.word	.LC6
 1130 02f4 44000000 		.word	.LC3
ARM GAS  C:\Users\jo\AppData\Local\Temp\ccBDNMK8.s 			page 21


 1131 02f8 5C000000 		.word	.LC4
 1132 02fc 74000000 		.word	.LC5
 1133 0300 80ECFFFF 		.word	-4992
 1134 0304 D4EEFFFF 		.word	-4396
 1135 0308 80EDFFFF 		.word	-4736
 1136 030c 80EFFFFF 		.word	-4224
 1137 0310 00EFFFFF 		.word	-4352
 1138 0314 00EEFFFF 		.word	-4608
 1139 0318 80EEFFFF 		.word	-4480
 1140 031c 80EBFFFF 		.word	-5248
 1141 0320 00EDFFFF 		.word	-4864
 1142              		.cfi_endproc
 1143              	.LFE14:
 1144              		.size	pem_read_buffer, .-pem_read_buffer
 1145 0324 AFF30080 		.section	.text.pem_free,"ax",%progbits
 1145      AFF30080 
 1145      AFF30080 
 1146              		.align	2
 1147              		.p2align 4,,15
 1148              		.global	pem_free
 1149              		.thumb
 1150              		.thumb_func
 1151              		.type	pem_free, %function
 1152              	pem_free:
 1153              	.LFB15:
 1154              		.loc 1 384 0
 1155              		.cfi_startproc
 1156              		@ args = 0, pretend = 0, frame = 0
 1157              		@ frame_needed = 0, uses_anonymous_args = 0
 1158              	.LVL167:
 1159 0000 10B5     		push	{r4, lr}
 1160              		.cfi_def_cfa_offset 8
 1161              		.cfi_offset 4, -8
 1162              		.cfi_offset 14, -4
 1163              		.loc 1 384 0
 1164 0002 0446     		mov	r4, r0
 1165              		.loc 1 385 0
 1166 0004 0068     		ldr	r0, [r0]
 1167              	.LVL168:
 1168 0006 FFF7FEFF 		bl	free
 1169              	.LVL169:
 1170              		.loc 1 386 0
 1171 000a A068     		ldr	r0, [r4, #8]
 1172 000c FFF7FEFF 		bl	free
 1173              	.LVL170:
 1174 0010 04F10C02 		add	r2, r4, #12
 1175              	.LBB32:
 1176              	.LBB33:
 1177              		.loc 1 50 0
 1178 0014 0023     		movs	r3, #0
 1179              	.LVL171:
 1180              	.L106:
 1181 0016 2370     		strb	r3, [r4]
 1182              	.LVL172:
 1183 0018 0134     		adds	r4, r4, #1
 1184              	.LVL173:
 1185 001a 9442     		cmp	r4, r2
ARM GAS  C:\Users\jo\AppData\Local\Temp\ccBDNMK8.s 			page 22


 1186 001c FBD1     		bne	.L106
 1187              	.LBE33:
 1188              	.LBE32:
 1189              		.loc 1 389 0
 1190 001e 10BD     		pop	{r4, pc}
 1191              		.cfi_endproc
 1192              	.LFE15:
 1193              		.size	pem_free, .-pem_free
 1194              		.section	.text.pem_write_buffer,"ax",%progbits
 1195              		.align	2
 1196              		.p2align 4,,15
 1197              		.global	pem_write_buffer
 1198              		.thumb
 1199              		.thumb_func
 1200              		.type	pem_write_buffer, %function
 1201              	pem_write_buffer:
 1202              	.LFB16:
 1203              		.loc 1 396 0
 1204              		.cfi_startproc
 1205              		@ args = 12, pretend = 0, frame = 8
 1206              		@ frame_needed = 0, uses_anonymous_args = 0
 1207              	.LVL174:
 1208 0000 2DE9F04F 		push	{r4, r5, r6, r7, r8, r9, r10, fp, lr}
 1209              		.cfi_def_cfa_offset 36
 1210              		.cfi_offset 4, -36
 1211              		.cfi_offset 5, -32
 1212              		.cfi_offset 6, -28
 1213              		.cfi_offset 7, -24
 1214              		.cfi_offset 8, -20
 1215              		.cfi_offset 9, -16
 1216              		.cfi_offset 10, -12
 1217              		.cfi_offset 11, -8
 1218              		.cfi_offset 14, -4
 1219 0004 83B0     		sub	sp, sp, #12
 1220              		.cfi_def_cfa_offset 48
 1221              		.loc 1 399 0
 1222 0006 0DF1080B 		add	fp, sp, #8
 1223 000a 0024     		movs	r4, #0
 1224 000c 4BF8044D 		str	r4, [fp, #-4]!
 1225              		.loc 1 396 0
 1226 0010 0546     		mov	r5, r0
 1227 0012 8846     		mov	r8, r1
 1228              		.loc 1 401 0
 1229 0014 2046     		mov	r0, r4
 1230              	.LVL175:
 1231 0016 5946     		mov	r1, fp
 1232              	.LVL176:
 1233              		.loc 1 396 0
 1234 0018 1746     		mov	r7, r2
 1235 001a 1E46     		mov	r6, r3
 1236 001c 0D9C     		ldr	r4, [sp, #52]
 1237 001e DDF83090 		ldr	r9, [sp, #48]
 1238              	.LVL177:
 1239              		.loc 1 401 0
 1240 0022 FFF7FEFF 		bl	base64_encode
 1241              	.LVL178:
 1242              		.loc 1 402 0
ARM GAS  C:\Users\jo\AppData\Local\Temp\ccBDNMK8.s 			page 23


 1243 0026 2846     		mov	r0, r5
 1244 0028 FFF7FEFF 		bl	strlen
 1245              	.LVL179:
 1246 002c 8246     		mov	r10, r0
 1247 002e 4046     		mov	r0, r8
 1248 0030 FFF7FEFF 		bl	strlen
 1249              	.LVL180:
 1250 0034 019A     		ldr	r2, [sp, #4]
 1251              	.LVL181:
 1252 0036 531C     		adds	r3, r2, #1
 1253 0038 03EB9213 		add	r3, r3, r2, lsr #6
 1254 003c 9A44     		add	r10, r10, r3
 1255              	.LVL182:
 1256              		.loc 1 404 0
 1257 003e 5044     		add	r0, r0, r10
 1258 0040 A042     		cmp	r0, r4
 1259 0042 54D8     		bhi	.L121
 1260              		.loc 1 410 0
 1261 0044 1046     		mov	r0, r2
 1262 0046 FFF7FEFF 		bl	malloc
 1263              	.LVL183:
 1264 004a 8246     		mov	r10, r0
 1265 004c 0028     		cmp	r0, #0
 1266 004e 53D0     		beq	.L115
 1267              		.loc 1 413 0
 1268 0050 5946     		mov	r1, fp
 1269 0052 3A46     		mov	r2, r7
 1270 0054 3346     		mov	r3, r6
 1271 0056 FFF7FEFF 		bl	base64_encode
 1272              	.LVL184:
 1273 005a 0446     		mov	r4, r0
 1274 005c 0028     		cmp	r0, #0
 1275 005e 3FD1     		bne	.L122
 1276              		.loc 1 420 0
 1277 0060 2846     		mov	r0, r5
 1278              	.LVL185:
 1279 0062 FFF7FEFF 		bl	strlen
 1280              	.LVL186:
 1281 0066 2946     		mov	r1, r5
 1282 0068 0246     		mov	r2, r0
 1283 006a 4846     		mov	r0, r9
 1284 006c FFF7FEFF 		bl	memcpy
 1285              	.LVL187:
 1286              		.loc 1 421 0
 1287 0070 2846     		mov	r0, r5
 1288 0072 FFF7FEFF 		bl	strlen
 1289              	.LVL188:
 1290              		.loc 1 424 0
 1291 0076 019C     		ldr	r4, [sp, #4]
 1292              	.LVL189:
 1293              		.loc 1 421 0
 1294 0078 09EB0005 		add	r5, r9, r0
 1295              	.LVL190:
 1296              		.loc 1 424 0
 1297 007c ACB1     		cbz	r4, .L113
 1298 007e 2646     		mov	r6, r4
 1299              	.LVL191:
ARM GAS  C:\Users\jo\AppData\Local\Temp\ccBDNMK8.s 			page 24


 1300 0080 D346     		mov	fp, r10
 1301              		.loc 1 431 0
 1302 0082 0A27     		movs	r7, #10
 1303              	.LVL192:
 1304 0084 00E0     		b	.L114
 1305              	.LVL193:
 1306              	.L116:
 1307 0086 3446     		mov	r4, r6
 1308              	.LVL194:
 1309              	.L114:
 1310              		.loc 1 426 0
 1311 0088 402C     		cmp	r4, #64
 1312 008a 28BF     		it	cs
 1313 008c 4024     		movcs	r4, #64
 1314              	.LVL195:
 1315              		.loc 1 427 0
 1316 008e 2846     		mov	r0, r5
 1317              		.loc 1 429 0
 1318 0090 2544     		add	r5, r5, r4
 1319              	.LVL196:
 1320              		.loc 1 427 0
 1321 0092 5946     		mov	r1, fp
 1322 0094 2246     		mov	r2, r4
 1323              		.loc 1 428 0
 1324 0096 361B     		subs	r6, r6, r4
 1325              		.loc 1 427 0
 1326 0098 FFF7FEFF 		bl	memcpy
 1327              	.LVL197:
 1328              		.loc 1 431 0
 1329 009c 0135     		adds	r5, r5, #1
 1330              	.LVL198:
 1331 009e 05F8017C 		strb	r7, [r5, #-1]
 1332              		.loc 1 428 0
 1333 00a2 0196     		str	r6, [sp, #4]
 1334              		.loc 1 430 0
 1335 00a4 A344     		add	fp, fp, r4
 1336              	.LVL199:
 1337              		.loc 1 424 0
 1338 00a6 002E     		cmp	r6, #0
 1339 00a8 EDD1     		bne	.L116
 1340              	.LVL200:
 1341              	.L113:
 1342              		.loc 1 434 0
 1343 00aa 4046     		mov	r0, r8
 1344 00ac FFF7FEFF 		bl	strlen
 1345              	.LVL201:
 1346 00b0 4146     		mov	r1, r8
 1347 00b2 0246     		mov	r2, r0
 1348 00b4 2846     		mov	r0, r5
 1349 00b6 FFF7FEFF 		bl	memcpy
 1350              	.LVL202:
 1351              		.loc 1 435 0
 1352 00ba 4046     		mov	r0, r8
 1353 00bc FFF7FEFF 		bl	strlen
 1354              	.LVL203:
 1355 00c0 0246     		mov	r2, r0
 1356 00c2 2B18     		adds	r3, r5, r0
ARM GAS  C:\Users\jo\AppData\Local\Temp\ccBDNMK8.s 			page 25


 1357              	.LVL204:
 1358              		.loc 1 437 0
 1359 00c4 0024     		movs	r4, #0
 1360 00c6 AC54     		strb	r4, [r5, r2]
 1361 00c8 0133     		adds	r3, r3, #1
 1362              	.LVL205:
 1363              		.loc 1 438 0
 1364 00ca 0E9A     		ldr	r2, [sp, #56]
 1365 00cc C9EB0303 		rsb	r3, r9, r3
 1366              	.LVL206:
 1367              		.loc 1 440 0
 1368 00d0 5046     		mov	r0, r10
 1369              	.LVL207:
 1370              		.loc 1 438 0
 1371 00d2 1360     		str	r3, [r2]
 1372              		.loc 1 440 0
 1373 00d4 FFF7FEFF 		bl	free
 1374              	.LVL208:
 1375              		.loc 1 441 0
 1376 00d8 2046     		mov	r0, r4
 1377              	.LVL209:
 1378              	.L111:
 1379              		.loc 1 442 0
 1380 00da 03B0     		add	sp, sp, #12
 1381              		.cfi_remember_state
 1382              		.cfi_def_cfa_offset 36
 1383              		@ sp needed
 1384 00dc BDE8F08F 		pop	{r4, r5, r6, r7, r8, r9, r10, fp, pc}
 1385              	.LVL210:
 1386              	.L122:
 1387              		.cfi_restore_state
 1388              		.loc 1 416 0
 1389 00e0 5046     		mov	r0, r10
 1390              	.LVL211:
 1391 00e2 FFF7FEFF 		bl	free
 1392              	.LVL212:
 1393              		.loc 1 417 0
 1394 00e6 2046     		mov	r0, r4
 1395              		.loc 1 442 0
 1396 00e8 03B0     		add	sp, sp, #12
 1397              		.cfi_remember_state
 1398              		.cfi_def_cfa_offset 36
 1399              		@ sp needed
 1400 00ea BDE8F08F 		pop	{r4, r5, r6, r7, r8, r9, r10, fp, pc}
 1401              	.LVL213:
 1402              	.L121:
 1403              		.cfi_restore_state
 1404              		.loc 1 406 0
 1405 00ee 0E9B     		ldr	r3, [sp, #56]
 1406 00f0 1860     		str	r0, [r3]
 1407              		.loc 1 407 0
 1408 00f2 6FF02900 		mvn	r0, #41
 1409 00f6 F0E7     		b	.L111
 1410              	.LVL214:
 1411              	.L115:
 1412              		.loc 1 411 0
 1413 00f8 0048     		ldr	r0, .L123
ARM GAS  C:\Users\jo\AppData\Local\Temp\ccBDNMK8.s 			page 26


 1414              	.LVL215:
 1415 00fa EEE7     		b	.L111
 1416              	.L124:
 1417              		.align	2
 1418              	.L123:
 1419 00fc 80EEFFFF 		.word	-4480
 1420              		.cfi_endproc
 1421              	.LFE16:
 1422              		.size	pem_write_buffer, .-pem_write_buffer
 1423              		.section	.rodata.str1.4,"aMS",%progbits,1
 1424              		.align	2
 1425              	.LC0:
 1426 0000 50726F63 		.ascii	"Proc-Type: 4,ENCRYPTED\000"
 1426      2D547970 
 1426      653A2034 
 1426      2C454E43 
 1426      52595054 
 1427 0017 00       		.space	1
 1428              	.LC1:
 1429 0018 44454B2D 		.ascii	"DEK-Info: DES-EDE3-CBC,\000"
 1429      496E666F 
 1429      3A204445 
 1429      532D4544 
 1429      45332D43 
 1430              	.LC2:
 1431 0030 44454B2D 		.ascii	"DEK-Info: DES-CBC,\000"
 1431      496E666F 
 1431      3A204445 
 1431      532D4342 
 1431      432C00
 1432 0043 00       		.space	1
 1433              	.LC3:
 1434 0044 44454B2D 		.ascii	"DEK-Info: AES-128-CBC,\000"
 1434      496E666F 
 1434      3A204145 
 1434      532D3132 
 1434      382D4342 
 1435 005b 00       		.space	1
 1436              	.LC4:
 1437 005c 44454B2D 		.ascii	"DEK-Info: AES-192-CBC,\000"
 1437      496E666F 
 1437      3A204145 
 1437      532D3139 
 1437      322D4342 
 1438 0073 00       		.space	1
 1439              	.LC5:
 1440 0074 44454B2D 		.ascii	"DEK-Info: AES-256-CBC,\000"
 1440      496E666F 
 1440      3A204145 
 1440      532D3235 
 1440      362D4342 
 1441 008b 00       		.space	1
 1442              	.LC6:
 1443 008c 44454B2D 		.ascii	"DEK-Info: AES-\000"
 1443      496E666F 
 1443      3A204145 
 1443      532D00
ARM GAS  C:\Users\jo\AppData\Local\Temp\ccBDNMK8.s 			page 27


 1444 009b 00       		.text
 1445              	.Letext0:
 1446              		.file 2 "../../../ext/mbedtls-1.3.11/library/../include/polarssl/pem.h"
 1447              		.file 3 "c:\\program files\\gnu tools arm embedded\\4.9 2014q4\\lib\\gcc\\arm-none-eabi\\4.9.3\\in
 1448              		.file 4 "c:\\program files\\gnu tools arm embedded\\4.9 2014q4\\arm-none-eabi\\include\\machine\\_
 1449              		.file 5 "c:\\program files\\gnu tools arm embedded\\4.9 2014q4\\arm-none-eabi\\include\\stdint.h"
 1450              		.file 6 "../../../ext/mbedtls-1.3.11/library/../include/polarssl/des.h"
 1451              		.file 7 "../../../ext/mbedtls-1.3.11/library/../include/polarssl/aes.h"
 1452              		.file 8 "../../../ext/mbedtls-1.3.11/library/../include/polarssl/md5.h"
 1453              		.file 9 "../../../ext/mbedtls-1.3.11/library/../include/polarssl/cipher.h"
 1454              		.file 10 "c:\\program files\\gnu tools arm embedded\\4.9 2014q4\\arm-none-eabi\\include\\string.h"
 1455              		.file 11 "../../../ext/mbedtls-1.3.11/library/../include/polarssl/base64.h"
 1456              		.file 12 "c:\\program files\\gnu tools arm embedded\\4.9 2014q4\\arm-none-eabi\\include\\stdlib.h"