ARM GAS  C:\Users\jo\AppData\Local\Temp\ccQCh6Cu.s 			page 1


   1              		.syntax unified
   2              		.cpu cortex-m4
   3              		.fpu softvfp
   4              		.eabi_attribute 20, 1
   5              		.eabi_attribute 21, 1
   6              		.eabi_attribute 23, 3
   7              		.eabi_attribute 24, 1
   8              		.eabi_attribute 25, 1
   9              		.eabi_attribute 26, 1
  10              		.eabi_attribute 30, 2
  11              		.eabi_attribute 34, 1
  12              		.eabi_attribute 18, 4
  13              		.thumb
  14              		.file	"pk.c"
  15              		.text
  16              	.Ltext0:
  17              		.cfi_sections	.debug_frame
  18              		.section	.text.pk_init,"ax",%progbits
  19              		.align	2
  20              		.p2align 4,,15
  21              		.global	pk_init
  22              		.thumb
  23              		.thumb_func
  24              		.type	pk_init, %function
  25              	pk_init:
  26              	.LFB5:
  27              		.file 1 "../../../ext/mbedtls-1.3.11/library/pk.c"
  28              		.loc 1 52 0
  29              		.cfi_startproc
  30              		@ args = 0, pretend = 0, frame = 0
  31              		@ frame_needed = 0, uses_anonymous_args = 0
  32              		@ link register save eliminated.
  33              	.LVL0:
  34              		.loc 1 53 0
  35 0000 10B1     		cbz	r0, .L1
  36              		.loc 1 56 0
  37 0002 0023     		movs	r3, #0
  38 0004 0360     		str	r3, [r0]
  39              		.loc 1 57 0
  40 0006 4360     		str	r3, [r0, #4]
  41              	.L1:
  42 0008 7047     		bx	lr
  43              		.cfi_endproc
  44              	.LFE5:
  45              		.size	pk_init, .-pk_init
  46 000a 00BFAFF3 		.section	.text.pk_free,"ax",%progbits
  46      0080
  47              		.align	2
  48              		.p2align 4,,15
  49              		.global	pk_free
  50              		.thumb
  51              		.thumb_func
  52              		.type	pk_free, %function
  53              	pk_free:
  54              	.LFB6:
  55              		.loc 1 64 0
  56              		.cfi_startproc
ARM GAS  C:\Users\jo\AppData\Local\Temp\ccQCh6Cu.s 			page 2


  57              		@ args = 0, pretend = 0, frame = 0
  58              		@ frame_needed = 0, uses_anonymous_args = 0
  59              	.LVL1:
  60 0000 10B5     		push	{r4, lr}
  61              		.cfi_def_cfa_offset 8
  62              		.cfi_offset 4, -8
  63              		.cfi_offset 14, -4
  64              		.loc 1 65 0
  65 0002 0446     		mov	r4, r0
  66 0004 58B1     		cbz	r0, .L7
  67              		.loc 1 65 0 is_stmt 0 discriminator 1
  68 0006 0368     		ldr	r3, [r0]
  69 0008 4BB1     		cbz	r3, .L7
  70              		.loc 1 68 0 is_stmt 1
  71 000a 9B6A     		ldr	r3, [r3, #40]
  72 000c 4068     		ldr	r0, [r0, #4]
  73              	.LVL2:
  74 000e 9847     		blx	r3
  75              	.LVL3:
  76 0010 04F10802 		add	r2, r4, #8
  77              	.LBB21:
  78              	.LBB22:
  79              		.loc 1 45 0
  80 0014 0023     		movs	r3, #0
  81              	.LVL4:
  82              	.L10:
  83 0016 2370     		strb	r3, [r4]
  84              	.LVL5:
  85 0018 0134     		adds	r4, r4, #1
  86              	.LVL6:
  87 001a 9442     		cmp	r4, r2
  88 001c FBD1     		bne	.L10
  89              	.LVL7:
  90              	.L7:
  91 001e 10BD     		pop	{r4, pc}
  92              	.LBE22:
  93              	.LBE21:
  94              		.cfi_endproc
  95              	.LFE6:
  96              		.size	pk_free, .-pk_free
  97              		.section	.text.pk_info_from_type,"ax",%progbits
  98              		.align	2
  99              		.p2align 4,,15
 100              		.global	pk_info_from_type
 101              		.thumb
 102              		.thumb_func
 103              		.type	pk_info_from_type, %function
 104              	pk_info_from_type:
 105              	.LFB7:
 106              		.loc 1 77 0
 107              		.cfi_startproc
 108              		@ args = 0, pretend = 0, frame = 0
 109              		@ frame_needed = 0, uses_anonymous_args = 0
 110              		@ link register save eliminated.
 111              	.LVL8:
 112 0000 0138     		subs	r0, r0, #1
 113              	.LVL9:
ARM GAS  C:\Users\jo\AppData\Local\Temp\ccQCh6Cu.s 			page 3


 114 0002 C0B2     		uxtb	r0, r0
 115 0004 0328     		cmp	r0, #3
 116 0006 9ABF     		itte	ls
 117 0008 024B     		ldrls	r3, .L19
 118 000a 53F82000 		ldrls	r0, [r3, r0, lsl #2]
 119              		.loc 1 77 0
 120 000e 0020     		movhi	r0, #0
 121              		.loc 1 97 0
 122 0010 7047     		bx	lr
 123              	.L20:
 124 0012 00BF     		.align	2
 125              	.L19:
 126 0014 00000000 		.word	.LANCHOR0
 127              		.cfi_endproc
 128              	.LFE7:
 129              		.size	pk_info_from_type, .-pk_info_from_type
 130 0018 AFF30080 		.section	.text.pk_init_ctx,"ax",%progbits
 130      AFF30080 
 131              		.align	2
 132              		.p2align 4,,15
 133              		.global	pk_init_ctx
 134              		.thumb
 135              		.thumb_func
 136              		.type	pk_init_ctx, %function
 137              	pk_init_ctx:
 138              	.LFB8:
 139              		.loc 1 103 0
 140              		.cfi_startproc
 141              		@ args = 0, pretend = 0, frame = 0
 142              		@ frame_needed = 0, uses_anonymous_args = 0
 143              	.LVL10:
 144              		.loc 1 104 0
 145 0000 70B1     		cbz	r0, .L24
 146              		.loc 1 104 0 is_stmt 0 discriminator 1
 147 0002 69B1     		cbz	r1, .L24
 148              		.loc 1 103 0 is_stmt 1 discriminator 2
 149 0004 70B5     		push	{r4, r5, r6, lr}
 150              		.cfi_def_cfa_offset 16
 151              		.cfi_offset 4, -16
 152              		.cfi_offset 5, -12
 153              		.cfi_offset 6, -8
 154              		.cfi_offset 14, -4
 155              		.loc 1 104 0 discriminator 2
 156 0006 0568     		ldr	r5, [r0]
 157 0008 45B9     		cbnz	r5, .L25
 158              		.loc 1 107 0
 159 000a 4B6A     		ldr	r3, [r1, #36]
 160 000c 0446     		mov	r4, r0
 161 000e 0E46     		mov	r6, r1
 162 0010 9847     		blx	r3
 163              	.LVL11:
 164 0012 6060     		str	r0, [r4, #4]
 165 0014 30B1     		cbz	r0, .L26
 166              		.loc 1 110 0
 167 0016 2660     		str	r6, [r4]
 168              		.loc 1 112 0
 169 0018 2846     		mov	r0, r5
ARM GAS  C:\Users\jo\AppData\Local\Temp\ccQCh6Cu.s 			page 4


 170 001a 70BD     		pop	{r4, r5, r6, pc}
 171              	.LVL12:
 172              	.L25:
 173              		.loc 1 105 0
 174 001c 0248     		ldr	r0, .L29
 175              	.LVL13:
 176 001e 70BD     		pop	{r4, r5, r6, pc}
 177              	.LVL14:
 178              	.L24:
 179              		.cfi_def_cfa_offset 0
 180              		.cfi_restore 4
 181              		.cfi_restore 5
 182              		.cfi_restore 6
 183              		.cfi_restore 14
 184 0020 0148     		ldr	r0, .L29
 185              	.LVL15:
 186 0022 7047     		bx	lr
 187              	.LVL16:
 188              	.L26:
 189              		.cfi_def_cfa_offset 16
 190              		.cfi_offset 4, -16
 191              		.cfi_offset 5, -12
 192              		.cfi_offset 6, -8
 193              		.cfi_offset 14, -4
 194              		.loc 1 108 0
 195 0024 0148     		ldr	r0, .L29+4
 196              		.loc 1 113 0
 197 0026 70BD     		pop	{r4, r5, r6, pc}
 198              	.LVL17:
 199              	.L30:
 200              		.align	2
 201              	.L29:
 202 0028 80D1FFFF 		.word	-11904
 203 002c 80D0FFFF 		.word	-12160
 204              		.cfi_endproc
 205              	.LFE8:
 206              		.size	pk_init_ctx, .-pk_init_ctx
 207              		.section	.text.pk_init_ctx_rsa_alt,"ax",%progbits
 208              		.align	2
 209              		.p2align 4,,15
 210              		.global	pk_init_ctx_rsa_alt
 211              		.thumb
 212              		.thumb_func
 213              		.type	pk_init_ctx_rsa_alt, %function
 214              	pk_init_ctx_rsa_alt:
 215              	.LFB9:
 216              		.loc 1 122 0
 217              		.cfi_startproc
 218              		@ args = 4, pretend = 0, frame = 0
 219              		@ frame_needed = 0, uses_anonymous_args = 0
 220              	.LVL18:
 221              		.loc 1 126 0
 222 0000 F0B1     		cbz	r0, .L33
 223              		.loc 1 122 0 discriminator 1
 224 0002 2DE9F047 		push	{r4, r5, r6, r7, r8, r9, r10, lr}
 225              		.cfi_def_cfa_offset 32
 226              		.cfi_offset 4, -32
ARM GAS  C:\Users\jo\AppData\Local\Temp\ccQCh6Cu.s 			page 5


 227              		.cfi_offset 5, -28
 228              		.cfi_offset 6, -24
 229              		.cfi_offset 7, -20
 230              		.cfi_offset 8, -16
 231              		.cfi_offset 9, -12
 232              		.cfi_offset 10, -8
 233              		.cfi_offset 14, -4
 234              		.loc 1 126 0 discriminator 1
 235 0006 0568     		ldr	r5, [r0]
 236 0008 BDB9     		cbnz	r5, .L34
 237              		.loc 1 129 0
 238 000a DFF84890 		ldr	r9, .L37+8
 239 000e 1F46     		mov	r7, r3
 240 0010 D9F82430 		ldr	r3, [r9, #36]
 241              	.LVL19:
 242 0014 0446     		mov	r4, r0
 243 0016 9046     		mov	r8, r2
 244 0018 8A46     		mov	r10, r1
 245 001a 9847     		blx	r3
 246              	.LVL20:
 247 001c 0646     		mov	r6, r0
 248 001e 6060     		str	r0, [r4, #4]
 249 0020 80B1     		cbz	r0, .L35
 250              		.loc 1 139 0
 251 0022 089B     		ldr	r3, [sp, #32]
 252              		.loc 1 132 0
 253 0024 C4F80090 		str	r9, [r4]
 254              	.LVL21:
 255              		.loc 1 141 0
 256 0028 2846     		mov	r0, r5
 257              	.LVL22:
 258              		.loc 1 136 0
 259 002a C6F800A0 		str	r10, [r6]
 260              		.loc 1 137 0
 261 002e C6F80480 		str	r8, [r6, #4]
 262              		.loc 1 138 0
 263 0032 B760     		str	r7, [r6, #8]
 264              		.loc 1 139 0
 265 0034 F360     		str	r3, [r6, #12]
 266              		.loc 1 141 0
 267 0036 BDE8F087 		pop	{r4, r5, r6, r7, r8, r9, r10, pc}
 268              	.LVL23:
 269              	.L34:
 270              		.loc 1 127 0
 271 003a 0448     		ldr	r0, .L37
 272              	.LVL24:
 273 003c BDE8F087 		pop	{r4, r5, r6, r7, r8, r9, r10, pc}
 274              	.LVL25:
 275              	.L33:
 276              		.cfi_def_cfa_offset 0
 277              		.cfi_restore 4
 278              		.cfi_restore 5
 279              		.cfi_restore 6
 280              		.cfi_restore 7
 281              		.cfi_restore 8
 282              		.cfi_restore 9
 283              		.cfi_restore 10
ARM GAS  C:\Users\jo\AppData\Local\Temp\ccQCh6Cu.s 			page 6


 284              		.cfi_restore 14
 285 0040 0248     		ldr	r0, .L37
 286              	.LVL26:
 287              		.loc 1 142 0
 288 0042 7047     		bx	lr
 289              	.LVL27:
 290              	.L35:
 291              		.cfi_def_cfa_offset 32
 292              		.cfi_offset 4, -32
 293              		.cfi_offset 5, -28
 294              		.cfi_offset 6, -24
 295              		.cfi_offset 7, -20
 296              		.cfi_offset 8, -16
 297              		.cfi_offset 9, -12
 298              		.cfi_offset 10, -8
 299              		.cfi_offset 14, -4
 300              		.loc 1 130 0
 301 0044 0248     		ldr	r0, .L37+4
 302              		.loc 1 142 0
 303 0046 BDE8F087 		pop	{r4, r5, r6, r7, r8, r9, r10, pc}
 304              	.LVL28:
 305              	.L38:
 306 004a 00BF     		.align	2
 307              	.L37:
 308 004c 80D1FFFF 		.word	-11904
 309 0050 80D0FFFF 		.word	-12160
 310 0054 00000000 		.word	rsa_alt_info
 311              		.cfi_endproc
 312              	.LFE9:
 313              		.size	pk_init_ctx_rsa_alt, .-pk_init_ctx_rsa_alt
 314 0058 AFF30080 		.section	.text.pk_can_do,"ax",%progbits
 314      AFF30080 
 315              		.align	2
 316              		.p2align 4,,15
 317              		.global	pk_can_do
 318              		.thumb
 319              		.thumb_func
 320              		.type	pk_can_do, %function
 321              	pk_can_do:
 322              	.LFB10:
 323              		.loc 1 148 0
 324              		.cfi_startproc
 325              		@ args = 0, pretend = 0, frame = 0
 326              		@ frame_needed = 0, uses_anonymous_args = 0
 327              		@ link register save eliminated.
 328              	.LVL29:
 329              		.loc 1 150 0
 330 0000 20B1     		cbz	r0, .L40
 331              		.loc 1 150 0 is_stmt 0 discriminator 1
 332 0002 0368     		ldr	r3, [r0]
 333 0004 13B1     		cbz	r3, .L40
 334              		.loc 1 153 0 is_stmt 1
 335 0006 DB68     		ldr	r3, [r3, #12]
 336 0008 0846     		mov	r0, r1
 337              	.LVL30:
 338 000a 1847     		bx	r3
 339              	.LVL31:
ARM GAS  C:\Users\jo\AppData\Local\Temp\ccQCh6Cu.s 			page 7


 340              	.L40:
 341              		.loc 1 154 0
 342 000c 0020     		movs	r0, #0
 343              	.LVL32:
 344 000e 7047     		bx	lr
 345              		.cfi_endproc
 346              	.LFE10:
 347              		.size	pk_can_do, .-pk_can_do
 348              		.section	.text.pk_verify,"ax",%progbits
 349              		.align	2
 350              		.p2align 4,,15
 351              		.global	pk_verify
 352              		.thumb
 353              		.thumb_func
 354              		.type	pk_verify, %function
 355              	pk_verify:
 356              	.LFB12:
 357              		.loc 1 179 0
 358              		.cfi_startproc
 359              		@ args = 8, pretend = 0, frame = 8
 360              		@ frame_needed = 0, uses_anonymous_args = 0
 361              	.LVL33:
 362 0000 F0B5     		push	{r4, r5, r6, r7, lr}
 363              		.cfi_def_cfa_offset 20
 364              		.cfi_offset 4, -20
 365              		.cfi_offset 5, -16
 366              		.cfi_offset 6, -12
 367              		.cfi_offset 7, -8
 368              		.cfi_offset 14, -4
 369 0002 83B0     		sub	sp, sp, #12
 370              		.cfi_def_cfa_offset 32
 371              		.loc 1 180 0
 372 0004 0446     		mov	r4, r0
 373              		.loc 1 179 0
 374 0006 089E     		ldr	r6, [sp, #32]
 375 0008 099F     		ldr	r7, [sp, #36]
 376              		.loc 1 180 0
 377 000a D0B1     		cbz	r0, .L48
 378              		.loc 1 180 0 is_stmt 0 discriminator 1
 379 000c 0068     		ldr	r0, [r0]
 380              	.LVL34:
 381 000e C0B1     		cbz	r0, .L48
 382              	.LVL35:
 383              	.LBB27:
 384              	.LBB28:
 385              		.loc 1 163 0 is_stmt 1
 386 0010 4BB1     		cbz	r3, .L62
 387              	.LVL36:
 388              	.L49:
 389              	.LBE28:
 390              	.LBE27:
 391              		.loc 1 184 0
 392 0012 0569     		ldr	r5, [r0, #16]
 393 0014 95B1     		cbz	r5, .L63
 394              		.loc 1 187 0
 395 0016 6068     		ldr	r0, [r4, #4]
 396 0018 0896     		str	r6, [sp, #32]
ARM GAS  C:\Users\jo\AppData\Local\Temp\ccQCh6Cu.s 			page 8


 397 001a AC46     		mov	ip, r5
 398 001c 0997     		str	r7, [sp, #36]
 399              		.loc 1 189 0
 400 001e 03B0     		add	sp, sp, #12
 401              		.cfi_remember_state
 402              		.cfi_def_cfa_offset 20
 403              		@ sp needed
 404 0020 BDE8F040 		pop	{r4, r5, r6, r7, lr}
 405              		.cfi_restore 14
 406              		.cfi_restore 7
 407              		.cfi_restore 6
 408              		.cfi_restore 5
 409              		.cfi_restore 4
 410              		.cfi_def_cfa_offset 0
 411              	.LVL37:
 412              		.loc 1 187 0
 413 0024 6047     		bx	ip
 414              	.LVL38:
 415              	.L62:
 416              		.cfi_restore_state
 417              	.LBB32:
 418              	.LBB31:
 419              	.LBB29:
 420              	.LBB30:
 421              		.loc 1 166 0
 422 0026 0846     		mov	r0, r1
 423 0028 0192     		str	r2, [sp, #4]
 424 002a 0091     		str	r1, [sp]
 425 002c FFF7FEFF 		bl	md_info_from_type
 426              	.LVL39:
 427 0030 38B1     		cbz	r0, .L48
 428              		.loc 1 169 0
 429 0032 8368     		ldr	r3, [r0, #8]
 430              	.LVL40:
 431 0034 2068     		ldr	r0, [r4]
 432              	.LVL41:
 433 0036 9DE80600 		ldmia	sp, {r1, r2}
 434 003a EAE7     		b	.L49
 435              	.LVL42:
 436              	.L63:
 437              	.LBE30:
 438              	.LBE29:
 439              	.LBE31:
 440              	.LBE32:
 441              		.loc 1 185 0
 442 003c 0248     		ldr	r0, .L64
 443              	.LVL43:
 444              	.L58:
 445              		.loc 1 189 0
 446 003e 03B0     		add	sp, sp, #12
 447              		.cfi_remember_state
 448              		.cfi_def_cfa_offset 20
 449              		@ sp needed
 450 0040 F0BD     		pop	{r4, r5, r6, r7, pc}
 451              	.LVL44:
 452              	.L48:
 453              		.cfi_restore_state
ARM GAS  C:\Users\jo\AppData\Local\Temp\ccQCh6Cu.s 			page 9


 454              		.loc 1 182 0
 455 0042 0248     		ldr	r0, .L64+4
 456 0044 FBE7     		b	.L58
 457              	.L65:
 458 0046 00BF     		.align	2
 459              	.L64:
 460 0048 00D1FFFF 		.word	-12032
 461 004c 80D1FFFF 		.word	-11904
 462              		.cfi_endproc
 463              	.LFE12:
 464              		.size	pk_verify, .-pk_verify
 465              		.section	.text.pk_verify_ext,"ax",%progbits
 466              		.align	2
 467              		.p2align 4,,15
 468              		.global	pk_verify_ext
 469              		.thumb
 470              		.thumb_func
 471              		.type	pk_verify_ext, %function
 472              	pk_verify_ext:
 473              	.LFB13:
 474              		.loc 1 198 0
 475              		.cfi_startproc
 476              		@ args = 16, pretend = 0, frame = 0
 477              		@ frame_needed = 0, uses_anonymous_args = 0
 478              	.LVL45:
 479 0000 2DE9F04F 		push	{r4, r5, r6, r7, r8, r9, r10, fp, lr}
 480              		.cfi_def_cfa_offset 36
 481              		.cfi_offset 4, -36
 482              		.cfi_offset 5, -32
 483              		.cfi_offset 6, -28
 484              		.cfi_offset 7, -24
 485              		.cfi_offset 8, -20
 486              		.cfi_offset 9, -16
 487              		.cfi_offset 10, -12
 488              		.cfi_offset 11, -8
 489              		.cfi_offset 14, -4
 490 0004 87B0     		sub	sp, sp, #28
 491              		.cfi_def_cfa_offset 64
 492              		.loc 1 198 0
 493 0006 DDF84090 		ldr	r9, [sp, #64]
 494 000a DDF84480 		ldr	r8, [sp, #68]
 495 000e DDF848A0 		ldr	r10, [sp, #72]
 496 0012 139F     		ldr	r7, [sp, #76]
 497              		.loc 1 199 0
 498 0014 F2B1     		cbz	r2, .L69
 499              		.loc 1 199 0 is_stmt 0 discriminator 1
 500 0016 D2F800E0 		ldr	lr, [r2]
 501 001a BEF1000F 		cmp	lr, #0
 502 001e 19D0     		beq	.L69
 503 0020 1E46     		mov	r6, r3
 504              	.LBB33:
 505              	.LBB34:
 506              		.loc 1 153 0 is_stmt 1
 507 0022 DEF80C30 		ldr	r3, [lr, #12]
 508              	.LVL46:
 509 0026 0546     		mov	r5, r0
 510 0028 1446     		mov	r4, r2
ARM GAS  C:\Users\jo\AppData\Local\Temp\ccQCh6Cu.s 			page 10


 511              	.LVL47:
 512 002a 8B46     		mov	fp, r1
 513 002c 9847     		blx	r3
 514              	.LVL48:
 515              	.LBE34:
 516              	.LBE33:
 517              		.loc 1 202 0
 518 002e 0028     		cmp	r0, #0
 519 0030 46D0     		beq	.L75
 520              		.loc 1 205 0
 521 0032 062D     		cmp	r5, #6
 522 0034 12D0     		beq	.L89
 523              		.loc 1 238 0
 524 0036 BBF1000F 		cmp	fp, #0
 525 003a 0BD1     		bne	.L69
 526              		.loc 1 241 0
 527 003c 2046     		mov	r0, r4
 528 003e 3146     		mov	r1, r6
 529 0040 4A46     		mov	r2, r9
 530 0042 4346     		mov	r3, r8
 531 0044 CDF840A0 		str	r10, [sp, #64]
 532 0048 1197     		str	r7, [sp, #68]
 533              		.loc 1 242 0
 534 004a 07B0     		add	sp, sp, #28
 535              		.cfi_remember_state
 536              		.cfi_def_cfa_offset 36
 537              		@ sp needed
 538 004c BDE8F04F 		pop	{r4, r5, r6, r7, r8, r9, r10, fp, lr}
 539              		.cfi_restore 14
 540              		.cfi_restore 11
 541              		.cfi_restore 10
 542              		.cfi_restore 9
 543              		.cfi_restore 8
 544              		.cfi_restore 7
 545              		.cfi_restore 6
 546              		.cfi_restore 5
 547              		.cfi_restore 4
 548              		.cfi_def_cfa_offset 0
 549              	.LVL49:
 550              		.loc 1 241 0
 551 0050 FFF7FEBF 		b	pk_verify
 552              	.LVL50:
 553              	.L69:
 554              		.cfi_restore_state
 555              		.loc 1 200 0
 556 0054 1B48     		ldr	r0, .L91
 557              	.L68:
 558              		.loc 1 242 0
 559 0056 07B0     		add	sp, sp, #28
 560              		.cfi_remember_state
 561              		.cfi_def_cfa_offset 36
 562              		@ sp needed
 563 0058 BDE8F08F 		pop	{r4, r5, r6, r7, r8, r9, r10, fp, pc}
 564              	.LVL51:
 565              	.L89:
 566              		.cfi_restore_state
 567              	.LBB35:
ARM GAS  C:\Users\jo\AppData\Local\Temp\ccQCh6Cu.s 			page 11


 568              		.loc 1 211 0
 569 005c BBF1000F 		cmp	fp, #0
 570 0060 F8D0     		beq	.L69
 571              	.LVL52:
 572              	.LBB36:
 573              	.LBB37:
 574              	.LBB38:
 575              	.LBB39:
 576              		.loc 1 330 0
 577 0062 2368     		ldr	r3, [r4]
 578 0064 33B1     		cbz	r3, .L73
 579              		.loc 1 333 0
 580 0066 9B68     		ldr	r3, [r3, #8]
 581 0068 6068     		ldr	r0, [r4, #4]
 582 006a 9847     		blx	r3
 583              	.LVL53:
 584              	.LBE39:
 585              	.LBE38:
 586              		.file 2 "../../../ext/mbedtls-1.3.11/library/../include/polarssl/pk.h"
 587              		.loc 2 283 0
 588 006c 0730     		adds	r0, r0, #7
 589              	.LBE37:
 590              	.LBE36:
 591              		.loc 1 216 0
 592 006e B7EBD00F 		cmp	r7, r0, lsr #3
 593 0072 23D3     		bcc	.L90
 594              	.L73:
 595              		.loc 1 219 0
 596 0074 9BF80020 		ldrb	r2, [fp]	@ zero_extendqisi2
 597 0078 DBF80430 		ldr	r3, [fp, #4]
 598 007c 6068     		ldr	r0, [r4, #4]
 599 007e 0392     		str	r2, [sp, #12]
 600 0080 0021     		movs	r1, #0
 601 0082 0493     		str	r3, [sp, #16]
 602 0084 0096     		str	r6, [sp]
 603 0086 CDF80480 		str	r8, [sp, #4]
 604 008a CDF80890 		str	r9, [sp, #8]
 605 008e CDF814A0 		str	r10, [sp, #20]
 606 0092 0A46     		mov	r2, r1
 607 0094 0B46     		mov	r3, r1
 608 0096 FFF7FEFF 		bl	rsa_rsassa_pss_verify_ext
 609              	.LVL54:
 610              		.loc 1 225 0
 611 009a 0028     		cmp	r0, #0
 612 009c DBD1     		bne	.L68
 613              	.LVL55:
 614              	.LBB40:
 615              	.LBB41:
 616              	.LBB42:
 617              		.loc 1 330 0
 618 009e 2068     		ldr	r0, [r4]
 619              	.LVL56:
 620 00a0 20B1     		cbz	r0, .L74
 621              		.loc 1 333 0
 622 00a2 8368     		ldr	r3, [r0, #8]
 623 00a4 6068     		ldr	r0, [r4, #4]
 624 00a6 9847     		blx	r3
ARM GAS  C:\Users\jo\AppData\Local\Temp\ccQCh6Cu.s 			page 12


 625              	.LVL57:
 626 00a8 0730     		adds	r0, r0, #7
 627 00aa C008     		lsrs	r0, r0, #3
 628              	.L74:
 629              	.LBE42:
 630              	.LBE41:
 631              	.LBE40:
 632              		.loc 1 231 0
 633 00ac 064B     		ldr	r3, .L91+4
 634 00ae 8742     		cmp	r7, r0
 635 00b0 8CBF     		ite	hi
 636 00b2 1846     		movhi	r0, r3
 637 00b4 0020     		movls	r0, #0
 638              	.LBE35:
 639              		.loc 1 242 0
 640 00b6 07B0     		add	sp, sp, #28
 641              		.cfi_remember_state
 642              		.cfi_def_cfa_offset 36
 643              		@ sp needed
 644 00b8 BDE8F08F 		pop	{r4, r5, r6, r7, r8, r9, r10, fp, pc}
 645              	.LVL58:
 646              	.L90:
 647              		.cfi_restore_state
 648              	.LBB43:
 649              		.loc 1 217 0
 650 00bc 0348     		ldr	r0, .L91+8
 651 00be CAE7     		b	.L68
 652              	.LVL59:
 653              	.L75:
 654              	.LBE43:
 655              		.loc 1 203 0
 656 00c0 0348     		ldr	r0, .L91+12
 657 00c2 C8E7     		b	.L68
 658              	.L92:
 659              		.align	2
 660              	.L91:
 661 00c4 80D1FFFF 		.word	-11904
 662 00c8 00E0FFFF 		.word	-8192
 663 00cc 80BCFFFF 		.word	-17280
 664 00d0 00D1FFFF 		.word	-12032
 665              		.cfi_endproc
 666              	.LFE13:
 667              		.size	pk_verify_ext, .-pk_verify_ext
 668 00d4 AFF30080 		.section	.text.pk_sign,"ax",%progbits
 668      AFF30080 
 668      AFF30080 
 669              		.align	2
 670              		.p2align 4,,15
 671              		.global	pk_sign
 672              		.thumb
 673              		.thumb_func
 674              		.type	pk_sign, %function
 675              	pk_sign:
 676              	.LFB14:
 677              		.loc 1 251 0
 678              		.cfi_startproc
 679              		@ args = 16, pretend = 0, frame = 8
ARM GAS  C:\Users\jo\AppData\Local\Temp\ccQCh6Cu.s 			page 13


 680              		@ frame_needed = 0, uses_anonymous_args = 0
 681              	.LVL60:
 682 0000 2DE9F043 		push	{r4, r5, r6, r7, r8, r9, lr}
 683              		.cfi_def_cfa_offset 28
 684              		.cfi_offset 4, -28
 685              		.cfi_offset 5, -24
 686              		.cfi_offset 6, -20
 687              		.cfi_offset 7, -16
 688              		.cfi_offset 8, -12
 689              		.cfi_offset 9, -8
 690              		.cfi_offset 14, -4
 691 0004 83B0     		sub	sp, sp, #12
 692              		.cfi_def_cfa_offset 40
 693              		.loc 1 251 0
 694 0006 0AAE     		add	r6, sp, #40
 695              	.LVL61:
 696 0008 96E8C003 		ldmia	r6, {r6, r7, r8, r9}
 697              	.LVL62:
 698              		.loc 1 252 0
 699 000c 0446     		mov	r4, r0
 700 000e F8B1     		cbz	r0, .L96
 701              		.loc 1 252 0 is_stmt 0 discriminator 1
 702 0010 0068     		ldr	r0, [r0]
 703              	.LVL63:
 704 0012 E8B1     		cbz	r0, .L96
 705              	.LVL64:
 706              	.LBB48:
 707              	.LBB49:
 708              		.loc 1 163 0 is_stmt 1
 709 0014 6BB1     		cbz	r3, .L110
 710              	.LVL65:
 711              	.L97:
 712              	.LBE49:
 713              	.LBE48:
 714              		.loc 1 256 0
 715 0016 4569     		ldr	r5, [r0, #20]
 716 0018 B5B1     		cbz	r5, .L111
 717              		.loc 1 259 0
 718 001a 6068     		ldr	r0, [r4, #4]
 719 001c 0A96     		str	r6, [sp, #40]
 720 001e AC46     		mov	ip, r5
 721 0020 0B97     		str	r7, [sp, #44]
 722 0022 CDF83080 		str	r8, [sp, #48]
 723 0026 CDF83490 		str	r9, [sp, #52]
 724              		.loc 1 261 0
 725 002a 03B0     		add	sp, sp, #12
 726              		.cfi_remember_state
 727              		.cfi_def_cfa_offset 28
 728              		@ sp needed
 729 002c BDE8F043 		pop	{r4, r5, r6, r7, r8, r9, lr}
 730              		.cfi_restore 14
 731              		.cfi_restore 9
 732              		.cfi_restore 8
 733              		.cfi_restore 7
 734              		.cfi_restore 6
 735              		.cfi_restore 5
 736              		.cfi_restore 4
ARM GAS  C:\Users\jo\AppData\Local\Temp\ccQCh6Cu.s 			page 14


 737              		.cfi_def_cfa_offset 0
 738              	.LVL66:
 739              		.loc 1 259 0
 740 0030 6047     		bx	ip
 741              	.LVL67:
 742              	.L110:
 743              		.cfi_restore_state
 744              	.LBB53:
 745              	.LBB52:
 746              	.LBB50:
 747              	.LBB51:
 748              		.loc 1 166 0
 749 0032 0846     		mov	r0, r1
 750 0034 0192     		str	r2, [sp, #4]
 751 0036 0091     		str	r1, [sp]
 752 0038 FFF7FEFF 		bl	md_info_from_type
 753              	.LVL68:
 754 003c 40B1     		cbz	r0, .L96
 755              		.loc 1 169 0
 756 003e 8368     		ldr	r3, [r0, #8]
 757              	.LVL69:
 758 0040 2068     		ldr	r0, [r4]
 759              	.LVL70:
 760 0042 9DE80600 		ldmia	sp, {r1, r2}
 761 0046 E6E7     		b	.L97
 762              	.LVL71:
 763              	.L111:
 764              	.LBE51:
 765              	.LBE50:
 766              	.LBE52:
 767              	.LBE53:
 768              		.loc 1 257 0
 769 0048 0248     		ldr	r0, .L112
 770              	.LVL72:
 771              	.L106:
 772              		.loc 1 261 0
 773 004a 03B0     		add	sp, sp, #12
 774              		.cfi_remember_state
 775              		.cfi_def_cfa_offset 28
 776              		@ sp needed
 777 004c BDE8F083 		pop	{r4, r5, r6, r7, r8, r9, pc}
 778              	.LVL73:
 779              	.L96:
 780              		.cfi_restore_state
 781              		.loc 1 254 0
 782 0050 0148     		ldr	r0, .L112+4
 783 0052 FAE7     		b	.L106
 784              	.L113:
 785              		.align	2
 786              	.L112:
 787 0054 00D1FFFF 		.word	-12032
 788 0058 80D1FFFF 		.word	-11904
 789              		.cfi_endproc
 790              	.LFE14:
 791              		.size	pk_sign, .-pk_sign
 792 005c AFF30080 		.section	.text.pk_decrypt,"ax",%progbits
 793              		.align	2
ARM GAS  C:\Users\jo\AppData\Local\Temp\ccQCh6Cu.s 			page 15


 794              		.p2align 4,,15
 795              		.global	pk_decrypt
 796              		.thumb
 797              		.thumb_func
 798              		.type	pk_decrypt, %function
 799              	pk_decrypt:
 800              	.LFB15:
 801              		.loc 1 270 0
 802              		.cfi_startproc
 803              		@ args = 16, pretend = 0, frame = 0
 804              		@ frame_needed = 0, uses_anonymous_args = 0
 805              	.LVL74:
 806 0000 F0B5     		push	{r4, r5, r6, r7, lr}
 807              		.cfi_def_cfa_offset 20
 808              		.cfi_offset 4, -20
 809              		.cfi_offset 5, -16
 810              		.cfi_offset 6, -12
 811              		.cfi_offset 7, -8
 812              		.cfi_offset 14, -4
 813              		.loc 1 270 0
 814 0002 DDF814E0 		ldr	lr, [sp, #20]
 815              		.loc 1 271 0
 816 0006 50B1     		cbz	r0, .L117
 817              		.loc 1 271 0 is_stmt 0 discriminator 1
 818 0008 0468     		ldr	r4, [r0]
 819 000a 44B1     		cbz	r4, .L117
 820              		.loc 1 274 0 is_stmt 1
 821 000c A469     		ldr	r4, [r4, #24]
 822 000e 24B1     		cbz	r4, .L118
 823              		.loc 1 277 0
 824 0010 A446     		mov	ip, r4
 825 0012 4068     		ldr	r0, [r0, #4]
 826              	.LVL75:
 827              		.loc 1 279 0
 828 0014 BDE8F040 		pop	{r4, r5, r6, r7, lr}
 829              		.cfi_remember_state
 830              		.cfi_restore 14
 831              		.cfi_restore 7
 832              		.cfi_restore 6
 833              		.cfi_restore 5
 834              		.cfi_restore 4
 835              		.cfi_def_cfa_offset 0
 836              	.LVL76:
 837              		.loc 1 277 0
 838 0018 6047     		bx	ip
 839              	.LVL77:
 840              	.L118:
 841              		.cfi_restore_state
 842              		.loc 1 275 0
 843 001a 0248     		ldr	r0, .L120
 844              	.LVL78:
 845              		.loc 1 279 0
 846 001c F0BD     		pop	{r4, r5, r6, r7, pc}
 847              	.LVL79:
 848              	.L117:
 849              		.loc 1 272 0
 850 001e 0248     		ldr	r0, .L120+4
ARM GAS  C:\Users\jo\AppData\Local\Temp\ccQCh6Cu.s 			page 16


 851              	.LVL80:
 852 0020 F0BD     		pop	{r4, r5, r6, r7, pc}
 853              	.LVL81:
 854              	.L121:
 855 0022 00BF     		.align	2
 856              	.L120:
 857 0024 00D1FFFF 		.word	-12032
 858 0028 80D1FFFF 		.word	-11904
 859              		.cfi_endproc
 860              	.LFE15:
 861              		.size	pk_decrypt, .-pk_decrypt
 862 002c AFF30080 		.section	.text.pk_encrypt,"ax",%progbits
 863              		.align	2
 864              		.p2align 4,,15
 865              		.global	pk_encrypt
 866              		.thumb
 867              		.thumb_func
 868              		.type	pk_encrypt, %function
 869              	pk_encrypt:
 870              	.LFB16:
 871              		.loc 1 288 0
 872              		.cfi_startproc
 873              		@ args = 16, pretend = 0, frame = 0
 874              		@ frame_needed = 0, uses_anonymous_args = 0
 875              	.LVL82:
 876 0000 F0B5     		push	{r4, r5, r6, r7, lr}
 877              		.cfi_def_cfa_offset 20
 878              		.cfi_offset 4, -20
 879              		.cfi_offset 5, -16
 880              		.cfi_offset 6, -12
 881              		.cfi_offset 7, -8
 882              		.cfi_offset 14, -4
 883              		.loc 1 288 0
 884 0002 DDF814E0 		ldr	lr, [sp, #20]
 885              		.loc 1 289 0
 886 0006 50B1     		cbz	r0, .L125
 887              		.loc 1 289 0 is_stmt 0 discriminator 1
 888 0008 0468     		ldr	r4, [r0]
 889 000a 44B1     		cbz	r4, .L125
 890              		.loc 1 292 0 is_stmt 1
 891 000c E469     		ldr	r4, [r4, #28]
 892 000e 24B1     		cbz	r4, .L126
 893              		.loc 1 295 0
 894 0010 A446     		mov	ip, r4
 895 0012 4068     		ldr	r0, [r0, #4]
 896              	.LVL83:
 897              		.loc 1 297 0
 898 0014 BDE8F040 		pop	{r4, r5, r6, r7, lr}
 899              		.cfi_remember_state
 900              		.cfi_restore 14
 901              		.cfi_restore 7
 902              		.cfi_restore 6
 903              		.cfi_restore 5
 904              		.cfi_restore 4
 905              		.cfi_def_cfa_offset 0
 906              	.LVL84:
 907              		.loc 1 295 0
ARM GAS  C:\Users\jo\AppData\Local\Temp\ccQCh6Cu.s 			page 17


 908 0018 6047     		bx	ip
 909              	.LVL85:
 910              	.L126:
 911              		.cfi_restore_state
 912              		.loc 1 293 0
 913 001a 0248     		ldr	r0, .L128
 914              	.LVL86:
 915              		.loc 1 297 0
 916 001c F0BD     		pop	{r4, r5, r6, r7, pc}
 917              	.LVL87:
 918              	.L125:
 919              		.loc 1 290 0
 920 001e 0248     		ldr	r0, .L128+4
 921              	.LVL88:
 922 0020 F0BD     		pop	{r4, r5, r6, r7, pc}
 923              	.LVL89:
 924              	.L129:
 925 0022 00BF     		.align	2
 926              	.L128:
 927 0024 00D1FFFF 		.word	-12032
 928 0028 80D1FFFF 		.word	-11904
 929              		.cfi_endproc
 930              	.LFE16:
 931              		.size	pk_encrypt, .-pk_encrypt
 932 002c AFF30080 		.section	.text.pk_check_pair,"ax",%progbits
 933              		.align	2
 934              		.p2align 4,,15
 935              		.global	pk_check_pair
 936              		.thumb
 937              		.thumb_func
 938              		.type	pk_check_pair, %function
 939              	pk_check_pair:
 940              	.LFB17:
 941              		.loc 1 303 0
 942              		.cfi_startproc
 943              		@ args = 0, pretend = 0, frame = 0
 944              		@ frame_needed = 0, uses_anonymous_args = 0
 945              		@ link register save eliminated.
 946              	.LVL90:
 947              		.loc 1 304 0
 948 0000 B8B1     		cbz	r0, .L137
 949              		.loc 1 304 0 is_stmt 0 discriminator 1
 950 0002 0268     		ldr	r2, [r0]
 951 0004 AAB1     		cbz	r2, .L137
 952              		.loc 1 304 0 discriminator 2
 953 0006 A1B1     		cbz	r1, .L137
 954              		.loc 1 305 0 is_stmt 1
 955 0008 0B68     		ldr	r3, [r1]
 956 000a 93B1     		cbz	r3, .L137
 957              		.loc 1 303 0 discriminator 1
 958 000c 30B4     		push	{r4, r5}
 959              		.cfi_def_cfa_offset 8
 960              		.cfi_offset 4, -8
 961              		.cfi_offset 5, -4
 962              		.loc 1 306 0 discriminator 1
 963 000e 1C6A     		ldr	r4, [r3, #32]
 964              		.loc 1 305 0 discriminator 1
ARM GAS  C:\Users\jo\AppData\Local\Temp\ccQCh6Cu.s 			page 18


 965 0010 8CB1     		cbz	r4, .L138
 966              		.loc 1 311 0
 967 0012 1D78     		ldrb	r5, [r3]	@ zero_extendqisi2
 968 0014 052D     		cmp	r5, #5
 969 0016 06D0     		beq	.L143
 970              		.loc 1 318 0
 971 0018 9A42     		cmp	r2, r3
 972 001a 07D1     		bne	.L140
 973              	.L133:
 974              		.loc 1 322 0
 975 001c 2346     		mov	r3, r4
 976 001e 4068     		ldr	r0, [r0, #4]
 977              	.LVL91:
 978 0020 4968     		ldr	r1, [r1, #4]
 979              	.LVL92:
 980              		.loc 1 323 0
 981 0022 30BC     		pop	{r4, r5}
 982              		.cfi_remember_state
 983              		.cfi_restore 5
 984              		.cfi_restore 4
 985              		.cfi_def_cfa_offset 0
 986              		.loc 1 322 0
 987 0024 1847     		bx	r3
 988              	.LVL93:
 989              	.L143:
 990              		.cfi_restore_state
 991              		.loc 1 313 0
 992 0026 1378     		ldrb	r3, [r2]	@ zero_extendqisi2
 993 0028 012B     		cmp	r3, #1
 994 002a F7D0     		beq	.L133
 995              	.L140:
 996              		.loc 1 314 0
 997 002c 0348     		ldr	r0, .L144
 998              	.LVL94:
 999              	.L131:
 1000              		.loc 1 323 0
 1001 002e 30BC     		pop	{r4, r5}
 1002              		.cfi_restore 5
 1003              		.cfi_restore 4
 1004              		.cfi_def_cfa_offset 0
 1005 0030 7047     		bx	lr
 1006              	.LVL95:
 1007              	.L137:
 1008              		.loc 1 308 0
 1009 0032 0348     		ldr	r0, .L144+4
 1010              	.LVL96:
 1011              		.loc 1 323 0
 1012 0034 7047     		bx	lr
 1013              	.LVL97:
 1014              	.L138:
 1015              		.cfi_def_cfa_offset 8
 1016              		.cfi_offset 4, -8
 1017              		.cfi_offset 5, -4
 1018              		.loc 1 308 0
 1019 0036 0248     		ldr	r0, .L144+4
 1020              	.LVL98:
 1021 0038 F9E7     		b	.L131
ARM GAS  C:\Users\jo\AppData\Local\Temp\ccQCh6Cu.s 			page 19


 1022              	.L145:
 1023 003a 00BF     		.align	2
 1024              	.L144:
 1025 003c 00D1FFFF 		.word	-12032
 1026 0040 80D1FFFF 		.word	-11904
 1027              		.cfi_endproc
 1028              	.LFE17:
 1029              		.size	pk_check_pair, .-pk_check_pair
 1030 0044 AFF30080 		.section	.text.pk_get_size,"ax",%progbits
 1030      AFF30080 
 1030      AFF30080 
 1031              		.align	2
 1032              		.p2align 4,,15
 1033              		.global	pk_get_size
 1034              		.thumb
 1035              		.thumb_func
 1036              		.type	pk_get_size, %function
 1037              	pk_get_size:
 1038              	.LFB18:
 1039              		.loc 1 329 0
 1040              		.cfi_startproc
 1041              		@ args = 0, pretend = 0, frame = 0
 1042              		@ frame_needed = 0, uses_anonymous_args = 0
 1043              		@ link register save eliminated.
 1044              	.LVL99:
 1045              		.loc 1 330 0
 1046 0000 20B1     		cbz	r0, .L147
 1047              		.loc 1 330 0 is_stmt 0 discriminator 1
 1048 0002 0368     		ldr	r3, [r0]
 1049 0004 13B1     		cbz	r3, .L147
 1050              		.loc 1 333 0 is_stmt 1
 1051 0006 9B68     		ldr	r3, [r3, #8]
 1052 0008 4068     		ldr	r0, [r0, #4]
 1053              	.LVL100:
 1054 000a 1847     		bx	r3
 1055              	.LVL101:
 1056              	.L147:
 1057              		.loc 1 334 0
 1058 000c 0020     		movs	r0, #0
 1059              	.LVL102:
 1060 000e 7047     		bx	lr
 1061              		.cfi_endproc
 1062              	.LFE18:
 1063              		.size	pk_get_size, .-pk_get_size
 1064              		.section	.text.pk_debug,"ax",%progbits
 1065              		.align	2
 1066              		.p2align 4,,15
 1067              		.global	pk_debug
 1068              		.thumb
 1069              		.thumb_func
 1070              		.type	pk_debug, %function
 1071              	pk_debug:
 1072              	.LFB19:
 1073              		.loc 1 340 0
 1074              		.cfi_startproc
 1075              		@ args = 0, pretend = 0, frame = 0
 1076              		@ frame_needed = 0, uses_anonymous_args = 0
ARM GAS  C:\Users\jo\AppData\Local\Temp\ccQCh6Cu.s 			page 20


 1077              	.LVL103:
 1078              		.loc 1 341 0
 1079 0000 50B1     		cbz	r0, .L154
 1080              		.loc 1 340 0 discriminator 1
 1081 0002 08B5     		push	{r3, lr}
 1082              		.cfi_def_cfa_offset 8
 1083              		.cfi_offset 3, -8
 1084              		.cfi_offset 14, -4
 1085              		.loc 1 341 0 discriminator 1
 1086 0004 0368     		ldr	r3, [r0]
 1087 0006 4BB1     		cbz	r3, .L155
 1088              		.loc 1 344 0
 1089 0008 DB6A     		ldr	r3, [r3, #44]
 1090 000a 1BB1     		cbz	r3, .L156
 1091              		.loc 1 347 0
 1092 000c 4068     		ldr	r0, [r0, #4]
 1093              	.LVL104:
 1094 000e 9847     		blx	r3
 1095              	.LVL105:
 1096              		.loc 1 348 0
 1097 0010 0020     		movs	r0, #0
 1098 0012 08BD     		pop	{r3, pc}
 1099              	.LVL106:
 1100              	.L156:
 1101              		.loc 1 345 0
 1102 0014 0248     		ldr	r0, .L158
 1103              	.LVL107:
 1104              		.loc 1 349 0
 1105 0016 08BD     		pop	{r3, pc}
 1106              	.LVL108:
 1107              	.L154:
 1108              		.cfi_def_cfa_offset 0
 1109              		.cfi_restore 3
 1110              		.cfi_restore 14
 1111              		.loc 1 342 0
 1112 0018 0248     		ldr	r0, .L158+4
 1113              	.LVL109:
 1114              		.loc 1 349 0
 1115 001a 7047     		bx	lr
 1116              	.LVL110:
 1117              	.L155:
 1118              		.cfi_def_cfa_offset 8
 1119              		.cfi_offset 3, -8
 1120              		.cfi_offset 14, -4
 1121              		.loc 1 342 0
 1122 001c 0148     		ldr	r0, .L158+4
 1123              	.LVL111:
 1124 001e 08BD     		pop	{r3, pc}
 1125              	.L159:
 1126              		.align	2
 1127              	.L158:
 1128 0020 00D1FFFF 		.word	-12032
 1129 0024 80D1FFFF 		.word	-11904
 1130              		.cfi_endproc
 1131              	.LFE19:
 1132              		.size	pk_debug, .-pk_debug
 1133 0028 AFF30080 		.section	.text.pk_get_name,"ax",%progbits
ARM GAS  C:\Users\jo\AppData\Local\Temp\ccQCh6Cu.s 			page 21


 1133      AFF30080 
 1134              		.align	2
 1135              		.p2align 4,,15
 1136              		.global	pk_get_name
 1137              		.thumb
 1138              		.thumb_func
 1139              		.type	pk_get_name, %function
 1140              	pk_get_name:
 1141              	.LFB20:
 1142              		.loc 1 355 0
 1143              		.cfi_startproc
 1144              		@ args = 0, pretend = 0, frame = 0
 1145              		@ frame_needed = 0, uses_anonymous_args = 0
 1146              		@ link register save eliminated.
 1147              	.LVL112:
 1148              		.loc 1 356 0
 1149 0000 18B1     		cbz	r0, .L163
 1150              		.loc 1 356 0 is_stmt 0 discriminator 1
 1151 0002 0368     		ldr	r3, [r0]
 1152 0004 0BB1     		cbz	r3, .L163
 1153              		.loc 1 359 0 is_stmt 1
 1154 0006 5868     		ldr	r0, [r3, #4]
 1155              	.LVL113:
 1156 0008 7047     		bx	lr
 1157              	.LVL114:
 1158              	.L163:
 1159              		.loc 1 357 0
 1160 000a 0148     		ldr	r0, .L164
 1161              	.LVL115:
 1162              		.loc 1 360 0
 1163 000c 7047     		bx	lr
 1164              	.L165:
 1165 000e 00BF     		.align	2
 1166              	.L164:
 1167 0010 00000000 		.word	.LC0
 1168              		.cfi_endproc
 1169              	.LFE20:
 1170              		.size	pk_get_name, .-pk_get_name
 1171 0014 AFF30080 		.section	.text.pk_get_type,"ax",%progbits
 1171      AFF30080 
 1171      AFF30080 
 1172              		.align	2
 1173              		.p2align 4,,15
 1174              		.global	pk_get_type
 1175              		.thumb
 1176              		.thumb_func
 1177              		.type	pk_get_type, %function
 1178              	pk_get_type:
 1179              	.LFB21:
 1180              		.loc 1 366 0
 1181              		.cfi_startproc
 1182              		@ args = 0, pretend = 0, frame = 0
 1183              		@ frame_needed = 0, uses_anonymous_args = 0
 1184              		@ link register save eliminated.
 1185              	.LVL116:
 1186              		.loc 1 367 0
 1187 0000 10B1     		cbz	r0, .L167
ARM GAS  C:\Users\jo\AppData\Local\Temp\ccQCh6Cu.s 			page 22


 1188              		.loc 1 367 0 is_stmt 0 discriminator 1
 1189 0002 0068     		ldr	r0, [r0]
 1190              	.LVL117:
 1191 0004 00B1     		cbz	r0, .L167
 1192              		.loc 1 370 0 is_stmt 1
 1193 0006 0078     		ldrb	r0, [r0]	@ zero_extendqisi2
 1194              	.L167:
 1195              		.loc 1 371 0
 1196 0008 7047     		bx	lr
 1197              		.cfi_endproc
 1198              	.LFE21:
 1199              		.size	pk_get_type, .-pk_get_type
 1200 000a 00BFAFF3 		.section	.rodata.CSWTCH.9,"a",%progbits
 1200      0080
 1201              		.align	2
 1202              		.set	.LANCHOR0,. + 0
 1203              		.type	CSWTCH.9, %object
 1204              		.size	CSWTCH.9, 16
 1205              	CSWTCH.9:
 1206 0000 00000000 		.word	rsa_info
 1207 0004 00000000 		.word	eckey_info
 1208 0008 00000000 		.word	eckeydh_info
 1209 000c 00000000 		.word	ecdsa_info
 1210              		.section	.rodata.str1.4,"aMS",%progbits,1
 1211              		.align	2
 1212              	.LC0:
 1213 0000 696E7661 		.ascii	"invalid PK\000"
 1213      6C696420 
 1213      504B00
 1214 000b 00       		.text
 1215              	.Letext0:
 1216              		.file 3 "c:\\program files\\gnu tools arm embedded\\4.9 2014q4\\lib\\gcc\\arm-none-eabi\\4.9.3\\in
 1217              		.file 4 "../../../ext/mbedtls-1.3.11/library/../include/polarssl/md.h"
 1218              		.file 5 "c:\\program files\\gnu tools arm embedded\\4.9 2014q4\\arm-none-eabi\\include\\machine\\_
 1219              		.file 6 "c:\\program files\\gnu tools arm embedded\\4.9 2014q4\\arm-none-eabi\\include\\stdint.h"
 1220              		.file 7 "../../../ext/mbedtls-1.3.11/library/../include/polarssl/bignum.h"
 1221              		.file 8 "../../../ext/mbedtls-1.3.11/library/../include/polarssl/rsa.h"
 1222              		.file 9 "../../../ext/mbedtls-1.3.11/library/../include/polarssl/pk_wrap.h"