ARM GAS  C:\Users\jo\AppData\Local\Temp\ccoAYTeU.s 			page 1


   1              		.syntax unified
   2              		.cpu cortex-m4
   3              		.fpu softvfp
   4              		.eabi_attribute 20, 1
   5              		.eabi_attribute 21, 1
   6              		.eabi_attribute 23, 3
   7              		.eabi_attribute 24, 1
   8              		.eabi_attribute 25, 1
   9              		.eabi_attribute 26, 1
  10              		.eabi_attribute 30, 2
  11              		.eabi_attribute 34, 1
  12              		.eabi_attribute 18, 4
  13              		.thumb
  14              		.file	"pk_wrap.c"
  15              		.text
  16              	.Ltext0:
  17              		.cfi_sections	.debug_frame
  18              		.section	.text.rsa_can_do,"ax",%progbits
  19              		.align	2
  20              		.p2align 4,,15
  21              		.thumb
  22              		.thumb_func
  23              		.type	rsa_can_do, %function
  24              	rsa_can_do:
  25              	.LFB5:
  26              		.file 1 "../../../ext/mbedtls-1.3.11/library/pk_wrap.c"
  27              		.loc 1 60 0
  28              		.cfi_startproc
  29              		@ args = 0, pretend = 0, frame = 0
  30              		@ frame_needed = 0, uses_anonymous_args = 0
  31              		@ link register save eliminated.
  32              	.LVL0:
  33              		.loc 1 61 0
  34 0000 0128     		cmp	r0, #1
  35 0002 04D0     		beq	.L2
  36              		.loc 1 61 0 is_stmt 0 discriminator 2
  37 0004 A0F10600 		sub	r0, #6
  38              	.LVL1:
  39 0008 B0FA80F0 		clz	r0, r0
  40 000c 4009     		lsrs	r0, r0, #5
  41              	.L2:
  42              		.loc 1 63 0 is_stmt 1 discriminator 6
  43 000e 7047     		bx	lr
  44              		.cfi_endproc
  45              	.LFE5:
  46              		.size	rsa_can_do, .-rsa_can_do
  47              		.section	.text.rsa_get_size,"ax",%progbits
  48              		.align	2
  49              		.p2align 4,,15
  50              		.thumb
  51              		.thumb_func
  52              		.type	rsa_get_size, %function
  53              	rsa_get_size:
  54              	.LFB6:
  55              		.loc 1 66 0
  56              		.cfi_startproc
  57              		@ args = 0, pretend = 0, frame = 0
ARM GAS  C:\Users\jo\AppData\Local\Temp\ccoAYTeU.s 			page 2


  58              		@ frame_needed = 0, uses_anonymous_args = 0
  59              		@ link register save eliminated.
  60              	.LVL2:
  61              		.loc 1 67 0
  62 0000 4068     		ldr	r0, [r0, #4]
  63              	.LVL3:
  64              		.loc 1 68 0
  65 0002 C000     		lsls	r0, r0, #3
  66 0004 7047     		bx	lr
  67              		.cfi_endproc
  68              	.LFE6:
  69              		.size	rsa_get_size, .-rsa_get_size
  70 0006 00BFAFF3 		.section	.text.rsa_debug,"ax",%progbits
  70      0080AFF3 
  70      0080
  71              		.align	2
  72              		.p2align 4,,15
  73              		.thumb
  74              		.thumb_func
  75              		.type	rsa_debug, %function
  76              	rsa_debug:
  77              	.LFB14:
  78              		.loc 1 150 0
  79              		.cfi_startproc
  80              		@ args = 0, pretend = 0, frame = 0
  81              		@ frame_needed = 0, uses_anonymous_args = 0
  82              		@ link register save eliminated.
  83              	.LVL4:
  84              		.loc 1 152 0
  85 0000 074B     		ldr	r3, .L8
  86              		.loc 1 158 0
  87 0002 084A     		ldr	r2, .L8+4
  88              		.loc 1 152 0
  89 0004 4B60     		str	r3, [r1, #4]
  90              		.loc 1 150 0
  91 0006 10B4     		push	{r4}
  92              		.cfi_def_cfa_offset 4
  93              		.cfi_offset 4, -4
  94              		.loc 1 151 0
  95 0008 0123     		movs	r3, #1
  96              		.loc 1 153 0
  97 000a 00F10804 		add	r4, r0, #8
  98              		.loc 1 159 0
  99 000e 1430     		adds	r0, r0, #20
 100              	.LVL5:
 101              		.loc 1 153 0
 102 0010 8C60     		str	r4, [r1, #8]
 103              	.LVL6:
 104              		.loc 1 159 0
 105 0012 4861     		str	r0, [r1, #20]
 106              		.loc 1 158 0
 107 0014 0A61     		str	r2, [r1, #16]
 108              		.loc 1 151 0
 109 0016 0B70     		strb	r3, [r1]
 110              		.loc 1 157 0
 111 0018 0B73     		strb	r3, [r1, #12]
 112              		.loc 1 160 0
ARM GAS  C:\Users\jo\AppData\Local\Temp\ccoAYTeU.s 			page 3


 113 001a 5DF8044B 		ldr	r4, [sp], #4
 114              		.cfi_restore 4
 115              		.cfi_def_cfa_offset 0
 116 001e 7047     		bx	lr
 117              	.L9:
 118              		.align	2
 119              	.L8:
 120 0020 00000000 		.word	.LC0
 121 0024 08000000 		.word	.LC1
 122              		.cfi_endproc
 123              	.LFE14:
 124              		.size	rsa_debug, .-rsa_debug
 125 0028 AFF30080 		.section	.text.eckey_can_do,"ax",%progbits
 125      AFF30080 
 126              		.align	2
 127              		.p2align 4,,15
 128              		.thumb
 129              		.thumb_func
 130              		.type	eckey_can_do, %function
 131              	eckey_can_do:
 132              	.LFB15:
 133              		.loc 1 183 0
 134              		.cfi_startproc
 135              		@ args = 0, pretend = 0, frame = 0
 136              		@ frame_needed = 0, uses_anonymous_args = 0
 137              		@ link register save eliminated.
 138              	.LVL7:
 139              		.loc 1 185 0
 140 0000 0238     		subs	r0, r0, #2
 141              	.LVL8:
 142              		.loc 1 187 0
 143 0002 0228     		cmp	r0, #2
 144 0004 8CBF     		ite	hi
 145 0006 0020     		movhi	r0, #0
 146 0008 0120     		movls	r0, #1
 147 000a 7047     		bx	lr
 148              		.cfi_endproc
 149              	.LFE15:
 150              		.size	eckey_can_do, .-eckey_can_do
 151 000c AFF30080 		.section	.text.eckey_get_size,"ax",%progbits
 152              		.align	2
 153              		.p2align 4,,15
 154              		.thumb
 155              		.thumb_func
 156              		.type	eckey_get_size, %function
 157              	eckey_get_size:
 158              	.LFB16:
 159              		.loc 1 190 0
 160              		.cfi_startproc
 161              		@ args = 0, pretend = 0, frame = 0
 162              		@ frame_needed = 0, uses_anonymous_args = 0
 163              		@ link register save eliminated.
 164              	.LVL9:
 165              		.loc 1 192 0
 166 0000 806D     		ldr	r0, [r0, #88]
 167              	.LVL10:
 168 0002 7047     		bx	lr
ARM GAS  C:\Users\jo\AppData\Local\Temp\ccoAYTeU.s 			page 4


 169              		.cfi_endproc
 170              	.LFE16:
 171              		.size	eckey_get_size, .-eckey_get_size
 172 0004 AFF30080 		.section	.text.eckey_debug,"ax",%progbits
 172      AFF30080 
 172      AFF30080 
 173              		.align	2
 174              		.p2align 4,,15
 175              		.thumb
 176              		.thumb_func
 177              		.type	eckey_debug, %function
 178              	eckey_debug:
 179              	.LFB22:
 180              		.loc 1 266 0
 181              		.cfi_startproc
 182              		@ args = 0, pretend = 0, frame = 0
 183              		@ frame_needed = 0, uses_anonymous_args = 0
 184              		@ link register save eliminated.
 185              	.LVL11:
 186              		.loc 1 269 0
 187 0000 8830     		adds	r0, r0, #136
 188              	.LVL12:
 189              		.loc 1 267 0
 190 0002 0222     		movs	r2, #2
 191              		.loc 1 268 0
 192 0004 024B     		ldr	r3, .L13
 193              		.loc 1 269 0
 194 0006 8860     		str	r0, [r1, #8]
 195              		.loc 1 267 0
 196 0008 0A70     		strb	r2, [r1]
 197              		.loc 1 268 0
 198 000a 4B60     		str	r3, [r1, #4]
 199 000c 7047     		bx	lr
 200              	.L14:
 201 000e 00BF     		.align	2
 202              	.L13:
 203 0010 10000000 		.word	.LC2
 204              		.cfi_endproc
 205              	.LFE22:
 206              		.size	eckey_debug, .-eckey_debug
 207 0014 AFF30080 		.section	.text.eckeydh_can_do,"ax",%progbits
 207      AFF30080 
 207      AFF30080 
 208              		.align	2
 209              		.p2align 4,,15
 210              		.thumb
 211              		.thumb_func
 212              		.type	eckeydh_can_do, %function
 213              	eckeydh_can_do:
 214              	.LFB23:
 215              		.loc 1 296 0
 216              		.cfi_startproc
 217              		@ args = 0, pretend = 0, frame = 0
 218              		@ frame_needed = 0, uses_anonymous_args = 0
 219              		@ link register save eliminated.
 220              	.LVL13:
 221              		.loc 1 297 0
ARM GAS  C:\Users\jo\AppData\Local\Temp\ccoAYTeU.s 			page 5


 222 0000 0238     		subs	r0, r0, #2
 223              	.LVL14:
 224              		.loc 1 299 0
 225 0002 0128     		cmp	r0, #1
 226 0004 8CBF     		ite	hi
 227 0006 0020     		movhi	r0, #0
 228 0008 0120     		movls	r0, #1
 229 000a 7047     		bx	lr
 230              		.cfi_endproc
 231              	.LFE23:
 232              		.size	eckeydh_can_do, .-eckeydh_can_do
 233 000c AFF30080 		.section	.text.ecdsa_can_do,"ax",%progbits
 234              		.align	2
 235              		.p2align 4,,15
 236              		.thumb
 237              		.thumb_func
 238              		.type	ecdsa_can_do, %function
 239              	ecdsa_can_do:
 240              	.LFB24:
 241              		.loc 1 319 0
 242              		.cfi_startproc
 243              		@ args = 0, pretend = 0, frame = 0
 244              		@ frame_needed = 0, uses_anonymous_args = 0
 245              		@ link register save eliminated.
 246              	.LVL15:
 247              		.loc 1 321 0
 248 0000 A0F10400 		sub	r0, #4
 249              	.LVL16:
 250 0004 B0FA80F0 		clz	r0, r0
 251 0008 4009     		lsrs	r0, r0, #5
 252 000a 7047     		bx	lr
 253              		.cfi_endproc
 254              	.LFE24:
 255              		.size	ecdsa_can_do, .-ecdsa_can_do
 256 000c AFF30080 		.section	.text.rsa_alt_can_do,"ax",%progbits
 257              		.align	2
 258              		.p2align 4,,15
 259              		.thumb
 260              		.thumb_func
 261              		.type	rsa_alt_can_do, %function
 262              	rsa_alt_can_do:
 263              	.LFB29:
 264              		.loc 1 396 0
 265              		.cfi_startproc
 266              		@ args = 0, pretend = 0, frame = 0
 267              		@ frame_needed = 0, uses_anonymous_args = 0
 268              		@ link register save eliminated.
 269              	.LVL17:
 270              		.loc 1 398 0
 271 0000 A0F10100 		sub	r0, #1
 272              	.LVL18:
 273 0004 B0FA80F0 		clz	r0, r0
 274 0008 4009     		lsrs	r0, r0, #5
 275 000a 7047     		bx	lr
 276              		.cfi_endproc
 277              	.LFE29:
 278              		.size	rsa_alt_can_do, .-rsa_alt_can_do
ARM GAS  C:\Users\jo\AppData\Local\Temp\ccoAYTeU.s 			page 6


 279 000c AFF30080 		.section	.text.rsa_alt_get_size,"ax",%progbits
 280              		.align	2
 281              		.p2align 4,,15
 282              		.thumb
 283              		.thumb_func
 284              		.type	rsa_alt_get_size, %function
 285              	rsa_alt_get_size:
 286              	.LFB30:
 287              		.loc 1 401 0
 288              		.cfi_startproc
 289              		@ args = 0, pretend = 0, frame = 0
 290              		@ frame_needed = 0, uses_anonymous_args = 0
 291              	.LVL19:
 292 0000 08B5     		push	{r3, lr}
 293              		.cfi_def_cfa_offset 8
 294              		.cfi_offset 3, -8
 295              		.cfi_offset 14, -4
 296              		.loc 1 404 0
 297 0002 C368     		ldr	r3, [r0, #12]
 298 0004 0068     		ldr	r0, [r0]
 299              	.LVL20:
 300 0006 9847     		blx	r3
 301              	.LVL21:
 302              		.loc 1 405 0
 303 0008 C000     		lsls	r0, r0, #3
 304 000a 08BD     		pop	{r3, pc}
 305              		.cfi_endproc
 306              	.LFE30:
 307              		.size	rsa_alt_get_size, .-rsa_alt_get_size
 308 000c AFF30080 		.section	.text.rsa_alt_sign_wrap,"ax",%progbits
 309              		.align	2
 310              		.p2align 4,,15
 311              		.thumb
 312              		.thumb_func
 313              		.type	rsa_alt_sign_wrap, %function
 314              	rsa_alt_sign_wrap:
 315              	.LFB31:
 316              		.loc 1 411 0
 317              		.cfi_startproc
 318              		@ args = 16, pretend = 0, frame = 8
 319              		@ frame_needed = 0, uses_anonymous_args = 0
 320              	.LVL22:
 321 0000 2DE9F04F 		push	{r4, r5, r6, r7, r8, r9, r10, fp, lr}
 322              		.cfi_def_cfa_offset 36
 323              		.cfi_offset 4, -36
 324              		.cfi_offset 5, -32
 325              		.cfi_offset 6, -28
 326              		.cfi_offset 7, -24
 327              		.cfi_offset 8, -20
 328              		.cfi_offset 9, -16
 329              		.cfi_offset 10, -12
 330              		.cfi_offset 11, -8
 331              		.cfi_offset 14, -4
 332 0004 83B0     		sub	sp, sp, #12
 333              		.cfi_def_cfa_offset 48
 334              		.loc 1 411 0
 335 0006 0446     		mov	r4, r0
ARM GAS  C:\Users\jo\AppData\Local\Temp\ccoAYTeU.s 			page 7


 336              	.LVL23:
 337              		.loc 1 414 0
 338 0008 C568     		ldr	r5, [r0, #12]
 339 000a 0068     		ldr	r0, [r0]
 340              	.LVL24:
 341              		.loc 1 411 0
 342 000c DDF83080 		ldr	r8, [sp, #48]
 343 0010 DDF834A0 		ldr	r10, [sp, #52]
 344 0014 0E9F     		ldr	r7, [sp, #56]
 345 0016 0F9E     		ldr	r6, [sp, #60]
 346 0018 0193     		str	r3, [sp, #4]
 347 001a 8B46     		mov	fp, r1
 348 001c 9146     		mov	r9, r2
 349              		.loc 1 414 0
 350 001e A847     		blx	r5
 351              	.LVL25:
 352              		.loc 1 416 0
 353 0020 019B     		ldr	r3, [sp, #4]
 354 0022 2568     		ldr	r5, [r4]
 355 0024 CDF830B0 		str	fp, [sp, #48]
 356              		.loc 1 414 0
 357 0028 CAF80000 		str	r0, [r10]
 358              		.loc 1 416 0
 359 002c 0D93     		str	r3, [sp, #52]
 360 002e CDF83890 		str	r9, [sp, #56]
 361 0032 CDF83C80 		str	r8, [sp, #60]
 362 0036 A468     		ldr	r4, [r4, #8]
 363              	.LVL26:
 364 0038 3946     		mov	r1, r7
 365 003a 3246     		mov	r2, r6
 366 003c 2846     		mov	r0, r5
 367 003e 0123     		movs	r3, #1
 368 0040 A446     		mov	ip, r4
 369              		.loc 1 418 0
 370 0042 03B0     		add	sp, sp, #12
 371              		.cfi_def_cfa_offset 36
 372              		@ sp needed
 373 0044 BDE8F04F 		pop	{r4, r5, r6, r7, r8, r9, r10, fp, lr}
 374              		.cfi_restore 14
 375              		.cfi_restore 11
 376              		.cfi_restore 10
 377              		.cfi_restore 9
 378              		.cfi_restore 8
 379              		.cfi_restore 7
 380              		.cfi_restore 6
 381              		.cfi_restore 5
 382              		.cfi_restore 4
 383              		.cfi_def_cfa_offset 0
 384              	.LVL27:
 385              		.loc 1 416 0
 386 0048 6047     		bx	ip
 387              	.LVL28:
 388              		.cfi_endproc
 389              	.LFE31:
 390              		.size	rsa_alt_sign_wrap, .-rsa_alt_sign_wrap
 391 004a 00BFAFF3 		.section	.text.rsa_alt_decrypt_wrap,"ax",%progbits
 391      0080
ARM GAS  C:\Users\jo\AppData\Local\Temp\ccoAYTeU.s 			page 8


 392              		.align	2
 393              		.p2align 4,,15
 394              		.thumb
 395              		.thumb_func
 396              		.type	rsa_alt_decrypt_wrap, %function
 397              	rsa_alt_decrypt_wrap:
 398              	.LFB32:
 399              		.loc 1 424 0
 400              		.cfi_startproc
 401              		@ args = 16, pretend = 0, frame = 0
 402              		@ frame_needed = 0, uses_anonymous_args = 0
 403              	.LVL29:
 404 0000 2DE9F047 		push	{r4, r5, r6, r7, r8, r9, r10, lr}
 405              		.cfi_def_cfa_offset 32
 406              		.cfi_offset 4, -32
 407              		.cfi_offset 5, -28
 408              		.cfi_offset 6, -24
 409              		.cfi_offset 7, -20
 410              		.cfi_offset 8, -16
 411              		.cfi_offset 9, -12
 412              		.cfi_offset 10, -8
 413              		.cfi_offset 14, -4
 414              		.loc 1 424 0
 415 0004 0446     		mov	r4, r0
 416              	.LVL30:
 417 0006 0F46     		mov	r7, r1
 418              		.loc 1 430 0
 419 0008 C168     		ldr	r1, [r0, #12]
 420              	.LVL31:
 421 000a 0068     		ldr	r0, [r0]
 422              	.LVL32:
 423              		.loc 1 424 0
 424 000c 089E     		ldr	r6, [sp, #32]
 425 000e DDF82490 		ldr	r9, [sp, #36]
 426 0012 1546     		mov	r5, r2
 427 0014 9A46     		mov	r10, r3
 428              		.loc 1 430 0
 429 0016 8847     		blx	r1
 430              	.LVL33:
 431 0018 A842     		cmp	r0, r5
 432 001a 0CD1     		bne	.L23
 433              		.loc 1 433 0
 434 001c 2068     		ldr	r0, [r4]
 435 001e CDF820A0 		str	r10, [sp, #32]
 436 0022 CDF82490 		str	r9, [sp, #36]
 437 0026 6468     		ldr	r4, [r4, #4]
 438              	.LVL34:
 439 0028 3246     		mov	r2, r6
 440 002a 3B46     		mov	r3, r7
 441 002c A446     		mov	ip, r4
 442 002e 0121     		movs	r1, #1
 443              		.loc 1 435 0
 444 0030 BDE8F047 		pop	{r4, r5, r6, r7, r8, r9, r10, lr}
 445              		.cfi_remember_state
 446              		.cfi_restore 14
 447              		.cfi_restore 10
 448              		.cfi_restore 9
ARM GAS  C:\Users\jo\AppData\Local\Temp\ccoAYTeU.s 			page 9


 449              		.cfi_restore 8
 450              		.cfi_restore 7
 451              		.cfi_restore 6
 452              		.cfi_restore 5
 453              		.cfi_restore 4
 454              		.cfi_def_cfa_offset 0
 455              	.LVL35:
 456              		.loc 1 433 0
 457 0034 6047     		bx	ip
 458              	.LVL36:
 459              	.L23:
 460              		.cfi_restore_state
 461              		.loc 1 435 0
 462 0036 0148     		ldr	r0, .L25
 463 0038 BDE8F087 		pop	{r4, r5, r6, r7, r8, r9, r10, pc}
 464              	.LVL37:
 465              	.L26:
 466              		.align	2
 467              	.L25:
 468 003c 80BFFFFF 		.word	-16512
 469              		.cfi_endproc
 470              	.LFE32:
 471              		.size	rsa_alt_decrypt_wrap, .-rsa_alt_decrypt_wrap
 472              		.section	.text.rsa_free_wrap,"ax",%progbits
 473              		.align	2
 474              		.p2align 4,,15
 475              		.thumb
 476              		.thumb_func
 477              		.type	rsa_free_wrap, %function
 478              	rsa_free_wrap:
 479              	.LFB13:
 480              		.loc 1 144 0
 481              		.cfi_startproc
 482              		@ args = 0, pretend = 0, frame = 0
 483              		@ frame_needed = 0, uses_anonymous_args = 0
 484              	.LVL38:
 485 0000 10B5     		push	{r4, lr}
 486              		.cfi_def_cfa_offset 8
 487              		.cfi_offset 4, -8
 488              		.cfi_offset 14, -4
 489              		.loc 1 144 0
 490 0002 0446     		mov	r4, r0
 491              		.loc 1 145 0
 492 0004 FFF7FEFF 		bl	rsa_free
 493              	.LVL39:
 494              		.loc 1 146 0
 495 0008 2046     		mov	r0, r4
 496              		.loc 1 147 0
 497 000a BDE81040 		pop	{r4, lr}
 498              		.cfi_restore 14
 499              		.cfi_restore 4
 500              		.cfi_def_cfa_offset 0
 501              	.LVL40:
 502              		.loc 1 146 0
 503 000e FFF7FEBF 		b	free
 504              	.LVL41:
 505              		.cfi_endproc
ARM GAS  C:\Users\jo\AppData\Local\Temp\ccoAYTeU.s 			page 10


 506              	.LFE13:
 507              		.size	rsa_free_wrap, .-rsa_free_wrap
 508 0012 00BFAFF3 		.section	.text.rsa_alt_free_wrap,"ax",%progbits
 508      0080AFF3 
 508      0080AFF3 
 508      0080
 509              		.align	2
 510              		.p2align 4,,15
 511              		.thumb
 512              		.thumb_func
 513              		.type	rsa_alt_free_wrap, %function
 514              	rsa_alt_free_wrap:
 515              	.LFB35:
 516              		.loc 1 478 0
 517              		.cfi_startproc
 518              		@ args = 0, pretend = 0, frame = 0
 519              		@ frame_needed = 0, uses_anonymous_args = 0
 520              		@ link register save eliminated.
 521              	.LVL42:
 522 0000 00F11001 		add	r1, r0, #16
 523              	.LBB14:
 524              	.LBB15:
 525              		.loc 1 55 0
 526 0004 0346     		mov	r3, r0
 527 0006 0022     		movs	r2, #0
 528              	.LVL43:
 529              	.L30:
 530 0008 1A70     		strb	r2, [r3]
 531 000a 0133     		adds	r3, r3, #1
 532              	.LVL44:
 533 000c 8B42     		cmp	r3, r1
 534 000e FBD1     		bne	.L30
 535              	.LBE15:
 536              	.LBE14:
 537              		.loc 1 480 0
 538 0010 FFF7FEBF 		b	free
 539              	.LVL45:
 540              		.cfi_endproc
 541              	.LFE35:
 542              		.size	rsa_alt_free_wrap, .-rsa_alt_free_wrap
 543 0014 AFF30080 		.section	.text.rsa_alloc_wrap,"ax",%progbits
 543      AFF30080 
 543      AFF30080 
 544              		.align	2
 545              		.p2align 4,,15
 546              		.thumb
 547              		.thumb_func
 548              		.type	rsa_alloc_wrap, %function
 549              	rsa_alloc_wrap:
 550              	.LFB12:
 551              		.loc 1 134 0
 552              		.cfi_startproc
 553              		@ args = 0, pretend = 0, frame = 0
 554              		@ frame_needed = 0, uses_anonymous_args = 0
 555 0000 10B5     		push	{r4, lr}
 556              		.cfi_def_cfa_offset 8
 557              		.cfi_offset 4, -8
ARM GAS  C:\Users\jo\AppData\Local\Temp\ccoAYTeU.s 			page 11


 558              		.cfi_offset 14, -4
 559              		.loc 1 135 0
 560 0002 AC20     		movs	r0, #172
 561 0004 FFF7FEFF 		bl	malloc
 562              	.LVL46:
 563              		.loc 1 137 0
 564 0008 0446     		mov	r4, r0
 565 000a 18B1     		cbz	r0, .L33
 566              		.loc 1 138 0
 567 000c 0021     		movs	r1, #0
 568 000e 0A46     		mov	r2, r1
 569 0010 FFF7FEFF 		bl	rsa_init
 570              	.LVL47:
 571              	.L33:
 572              		.loc 1 141 0
 573 0014 2046     		mov	r0, r4
 574 0016 10BD     		pop	{r4, pc}
 575              		.cfi_endproc
 576              	.LFE12:
 577              		.size	rsa_alloc_wrap, .-rsa_alloc_wrap
 578 0018 AFF30080 		.section	.text.rsa_check_pair_wrap,"ax",%progbits
 578      AFF30080 
 579              		.align	2
 580              		.p2align 4,,15
 581              		.thumb
 582              		.thumb_func
 583              		.type	rsa_check_pair_wrap, %function
 584              	rsa_check_pair_wrap:
 585              	.LFB11:
 586              		.loc 1 128 0
 587              		.cfi_startproc
 588              		@ args = 0, pretend = 0, frame = 0
 589              		@ frame_needed = 0, uses_anonymous_args = 0
 590              		@ link register save eliminated.
 591              	.LVL48:
 592              		.loc 1 129 0
 593 0000 FFF7FEBF 		b	rsa_check_pub_priv
 594              	.LVL49:
 595              		.cfi_endproc
 596              	.LFE11:
 597              		.size	rsa_check_pair_wrap, .-rsa_check_pair_wrap
 598 0004 AFF30080 		.section	.text.rsa_encrypt_wrap,"ax",%progbits
 598      AFF30080 
 598      AFF30080 
 599              		.align	2
 600              		.p2align 4,,15
 601              		.thumb
 602              		.thumb_func
 603              		.type	rsa_encrypt_wrap, %function
 604              	rsa_encrypt_wrap:
 605              	.LFB10:
 606              		.loc 1 117 0
 607              		.cfi_startproc
 608              		@ args = 16, pretend = 0, frame = 0
 609              		@ frame_needed = 0, uses_anonymous_args = 0
 610              		@ link register save eliminated.
 611              	.LVL50:
ARM GAS  C:\Users\jo\AppData\Local\Temp\ccoAYTeU.s 			page 12


 612 0000 F0B4     		push	{r4, r5, r6, r7}
 613              		.cfi_def_cfa_offset 16
 614              		.cfi_offset 4, -16
 615              		.cfi_offset 5, -12
 616              		.cfi_offset 6, -8
 617              		.cfi_offset 7, -4
 618              		.loc 1 117 0
 619 0002 059D     		ldr	r5, [sp, #20]
 620              		.loc 1 118 0
 621 0004 4468     		ldr	r4, [r0, #4]
 622              		.loc 1 117 0
 623 0006 049E     		ldr	r6, [sp, #16]
 624 0008 069F     		ldr	r7, [sp, #24]
 625              		.loc 1 118 0
 626 000a 3460     		str	r4, [r6]
 627              		.loc 1 120 0
 628 000c AC42     		cmp	r4, r5
 629              		.loc 1 117 0
 630 000e 079E     		ldr	r6, [sp, #28]
 631              		.loc 1 120 0
 632 0010 08D8     		bhi	.L40
 633              		.loc 1 123 0
 634 0012 0492     		str	r2, [sp, #16]
 635              	.LVL51:
 636 0014 0591     		str	r1, [sp, #20]
 637              	.LVL52:
 638 0016 0693     		str	r3, [sp, #24]
 639              	.LVL53:
 640 0018 3946     		mov	r1, r7
 641              	.LVL54:
 642 001a 3246     		mov	r2, r6
 643              	.LVL55:
 644 001c 0023     		movs	r3, #0
 645              	.LVL56:
 646              		.loc 1 125 0
 647 001e F0BC     		pop	{r4, r5, r6, r7}
 648              		.cfi_remember_state
 649              		.cfi_restore 7
 650              		.cfi_restore 6
 651              		.cfi_restore 5
 652              		.cfi_restore 4
 653              		.cfi_def_cfa_offset 0
 654              	.LVL57:
 655              		.loc 1 123 0
 656 0020 FFF7FEBF 		b	rsa_pkcs1_encrypt
 657              	.LVL58:
 658              	.L40:
 659              		.cfi_restore_state
 660              		.loc 1 125 0
 661 0024 0148     		ldr	r0, .L42
 662              	.LVL59:
 663 0026 F0BC     		pop	{r4, r5, r6, r7}
 664              		.cfi_restore 7
 665              		.cfi_restore 6
 666              		.cfi_restore 5
 667              		.cfi_restore 4
 668              		.cfi_def_cfa_offset 0
ARM GAS  C:\Users\jo\AppData\Local\Temp\ccoAYTeU.s 			page 13


 669              	.LVL60:
 670 0028 7047     		bx	lr
 671              	.L43:
 672 002a 00BF     		.align	2
 673              	.L42:
 674 002c 00BCFFFF 		.word	-17408
 675              		.cfi_endproc
 676              	.LFE10:
 677              		.size	rsa_encrypt_wrap, .-rsa_encrypt_wrap
 678              		.section	.text.rsa_decrypt_wrap,"ax",%progbits
 679              		.align	2
 680              		.p2align 4,,15
 681              		.thumb
 682              		.thumb_func
 683              		.type	rsa_decrypt_wrap, %function
 684              	rsa_decrypt_wrap:
 685              	.LFB9:
 686              		.loc 1 105 0
 687              		.cfi_startproc
 688              		@ args = 16, pretend = 0, frame = 0
 689              		@ frame_needed = 0, uses_anonymous_args = 0
 690              	.LVL61:
 691 0000 F0B5     		push	{r4, r5, r6, r7, lr}
 692              		.cfi_def_cfa_offset 20
 693              		.cfi_offset 4, -20
 694              		.cfi_offset 5, -16
 695              		.cfi_offset 6, -12
 696              		.cfi_offset 7, -8
 697              		.cfi_offset 14, -4
 698              		.loc 1 105 0
 699 0002 9E46     		mov	lr, r3
 700              		.loc 1 106 0
 701 0004 4368     		ldr	r3, [r0, #4]
 702              	.LVL62:
 703              		.loc 1 105 0
 704 0006 069F     		ldr	r7, [sp, #24]
 705 0008 079E     		ldr	r6, [sp, #28]
 706 000a 089D     		ldr	r5, [sp, #32]
 707              		.loc 1 106 0
 708 000c 9342     		cmp	r3, r2
 709 000e 0AD1     		bne	.L45
 710              		.loc 1 109 0
 711 0010 0691     		str	r1, [sp, #24]
 712              	.LVL63:
 713 0012 CDF81CE0 		str	lr, [sp, #28]
 714              	.LVL64:
 715 0016 0897     		str	r7, [sp, #32]
 716              	.LVL65:
 717 0018 3146     		mov	r1, r6
 718              	.LVL66:
 719 001a 2A46     		mov	r2, r5
 720              	.LVL67:
 721 001c 0123     		movs	r3, #1
 722              		.loc 1 111 0
 723 001e BDE8F040 		pop	{r4, r5, r6, r7, lr}
 724              		.cfi_remember_state
 725              		.cfi_restore 14
ARM GAS  C:\Users\jo\AppData\Local\Temp\ccoAYTeU.s 			page 14


 726              		.cfi_restore 7
 727              		.cfi_restore 6
 728              		.cfi_restore 5
 729              		.cfi_restore 4
 730              		.cfi_def_cfa_offset 0
 731              	.LVL68:
 732              		.loc 1 109 0
 733 0022 FFF7FEBF 		b	rsa_pkcs1_decrypt
 734              	.LVL69:
 735              	.L45:
 736              		.cfi_restore_state
 737              		.loc 1 111 0
 738 0026 0148     		ldr	r0, .L47
 739              	.LVL70:
 740 0028 F0BD     		pop	{r4, r5, r6, r7, pc}
 741              	.LVL71:
 742              	.L48:
 743 002a 00BF     		.align	2
 744              	.L47:
 745 002c 80BFFFFF 		.word	-16512
 746              		.cfi_endproc
 747              	.LFE9:
 748              		.size	rsa_decrypt_wrap, .-rsa_decrypt_wrap
 749              		.section	.text.rsa_sign_wrap,"ax",%progbits
 750              		.align	2
 751              		.p2align 4,,15
 752              		.thumb
 753              		.thumb_func
 754              		.type	rsa_sign_wrap, %function
 755              	rsa_sign_wrap:
 756              	.LFB8:
 757              		.loc 1 94 0
 758              		.cfi_startproc
 759              		@ args = 16, pretend = 0, frame = 0
 760              		@ frame_needed = 0, uses_anonymous_args = 0
 761              	.LVL72:
 762 0000 F0B5     		push	{r4, r5, r6, r7, lr}
 763              		.cfi_def_cfa_offset 20
 764              		.cfi_offset 4, -20
 765              		.cfi_offset 5, -16
 766              		.cfi_offset 6, -12
 767              		.cfi_offset 7, -8
 768              		.cfi_offset 14, -4
 769              		.loc 1 94 0
 770 0002 079D     		ldr	r5, [sp, #28]
 771 0004 DDF820E0 		ldr	lr, [sp, #32]
 772              		.loc 1 95 0
 773 0008 069F     		ldr	r7, [sp, #24]
 774 000a 4468     		ldr	r4, [r0, #4]
 775              		.loc 1 94 0
 776 000c 059E     		ldr	r6, [sp, #20]
 777              		.loc 1 95 0
 778 000e 3C60     		str	r4, [r7]
 779              		.loc 1 97 0
 780 0010 0693     		str	r3, [sp, #24]
 781              	.LVL73:
 782 0012 0792     		str	r2, [sp, #28]
ARM GAS  C:\Users\jo\AppData\Local\Temp\ccoAYTeU.s 			page 15


 783              	.LVL74:
 784 0014 0591     		str	r1, [sp, #20]
 785              	.LVL75:
 786 0016 0896     		str	r6, [sp, #32]
 787              	.LVL76:
 788 0018 2946     		mov	r1, r5
 789              	.LVL77:
 790 001a 7246     		mov	r2, lr
 791              	.LVL78:
 792 001c 0123     		movs	r3, #1
 793              	.LVL79:
 794              		.loc 1 99 0
 795 001e BDE8F040 		pop	{r4, r5, r6, r7, lr}
 796              		.cfi_restore 14
 797              		.cfi_restore 7
 798              		.cfi_restore 6
 799              		.cfi_restore 5
 800              		.cfi_restore 4
 801              		.cfi_def_cfa_offset 0
 802              	.LVL80:
 803              		.loc 1 97 0
 804 0022 FFF7FEBF 		b	rsa_pkcs1_sign
 805              	.LVL81:
 806              		.cfi_endproc
 807              	.LFE8:
 808              		.size	rsa_sign_wrap, .-rsa_sign_wrap
 809 0026 00BFAFF3 		.section	.text.rsa_verify_wrap,"ax",%progbits
 809      0080AFF3 
 809      0080
 810              		.align	2
 811              		.p2align 4,,15
 812              		.thumb
 813              		.thumb_func
 814              		.type	rsa_verify_wrap, %function
 815              	rsa_verify_wrap:
 816              	.LFB7:
 817              		.loc 1 73 0
 818              		.cfi_startproc
 819              		@ args = 8, pretend = 0, frame = 0
 820              		@ frame_needed = 0, uses_anonymous_args = 0
 821              	.LVL82:
 822 0000 70B5     		push	{r4, r5, r6, lr}
 823              		.cfi_def_cfa_offset 16
 824              		.cfi_offset 4, -16
 825              		.cfi_offset 5, -12
 826              		.cfi_offset 6, -8
 827              		.cfi_offset 14, -4
 828 0002 84B0     		sub	sp, sp, #16
 829              		.cfi_def_cfa_offset 32
 830              		.loc 1 76 0
 831 0004 4668     		ldr	r6, [r0, #4]
 832              		.loc 1 73 0
 833 0006 099D     		ldr	r5, [sp, #36]
 834              		.loc 1 76 0
 835 0008 AE42     		cmp	r6, r5
 836              		.loc 1 73 0
 837 000a 0446     		mov	r4, r0
ARM GAS  C:\Users\jo\AppData\Local\Temp\ccoAYTeU.s 			page 16


 838              		.loc 1 76 0
 839 000c 13D8     		bhi	.L53
 840 000e 0E46     		mov	r6, r1
 841              		.loc 1 79 0
 842 0010 0193     		str	r3, [sp, #4]
 843 0012 0021     		movs	r1, #0
 844              	.LVL83:
 845 0014 089B     		ldr	r3, [sp, #32]
 846              	.LVL84:
 847 0016 0292     		str	r2, [sp, #8]
 848 0018 0393     		str	r3, [sp, #12]
 849 001a 0096     		str	r6, [sp]
 850 001c 0A46     		mov	r2, r1
 851              	.LVL85:
 852 001e 0B46     		mov	r3, r1
 853 0020 FFF7FEFF 		bl	rsa_pkcs1_verify
 854              	.LVL86:
 855 0024 28B9     		cbnz	r0, .L52
 856              		.loc 1 84 0
 857 0026 6068     		ldr	r0, [r4, #4]
 858              	.LVL87:
 859              		.loc 1 87 0
 860 0028 044B     		ldr	r3, .L57
 861 002a 8542     		cmp	r5, r0
 862 002c 8CBF     		ite	hi
 863 002e 1846     		movhi	r0, r3
 864 0030 0020     		movls	r0, #0
 865              	.L52:
 866              		.loc 1 88 0
 867 0032 04B0     		add	sp, sp, #16
 868              		.cfi_remember_state
 869              		.cfi_def_cfa_offset 16
 870              		@ sp needed
 871 0034 70BD     		pop	{r4, r5, r6, pc}
 872              	.LVL88:
 873              	.L53:
 874              		.cfi_restore_state
 875              		.loc 1 77 0
 876 0036 0248     		ldr	r0, .L57+4
 877              	.LVL89:
 878 0038 FBE7     		b	.L52
 879              	.L58:
 880 003a 00BF     		.align	2
 881              	.L57:
 882 003c 00E0FFFF 		.word	-8192
 883 0040 80BCFFFF 		.word	-17280
 884              		.cfi_endproc
 885              	.LFE7:
 886              		.size	rsa_verify_wrap, .-rsa_verify_wrap
 887 0044 AFF30080 		.section	.text.eckey_free_wrap,"ax",%progbits
 887      AFF30080 
 887      AFF30080 
 888              		.align	2
 889              		.p2align 4,,15
 890              		.thumb
 891              		.thumb_func
 892              		.type	eckey_free_wrap, %function
ARM GAS  C:\Users\jo\AppData\Local\Temp\ccoAYTeU.s 			page 17


 893              	eckey_free_wrap:
 894              	.LFB21:
 895              		.loc 1 260 0
 896              		.cfi_startproc
 897              		@ args = 0, pretend = 0, frame = 0
 898              		@ frame_needed = 0, uses_anonymous_args = 0
 899              	.LVL90:
 900 0000 10B5     		push	{r4, lr}
 901              		.cfi_def_cfa_offset 8
 902              		.cfi_offset 4, -8
 903              		.cfi_offset 14, -4
 904              		.loc 1 260 0
 905 0002 0446     		mov	r4, r0
 906              		.loc 1 261 0
 907 0004 FFF7FEFF 		bl	ecp_keypair_free
 908              	.LVL91:
 909              		.loc 1 262 0
 910 0008 2046     		mov	r0, r4
 911              		.loc 1 263 0
 912 000a BDE81040 		pop	{r4, lr}
 913              		.cfi_restore 14
 914              		.cfi_restore 4
 915              		.cfi_def_cfa_offset 0
 916              	.LVL92:
 917              		.loc 1 262 0
 918 000e FFF7FEBF 		b	free
 919              	.LVL93:
 920              		.cfi_endproc
 921              	.LFE21:
 922              		.size	eckey_free_wrap, .-eckey_free_wrap
 923 0012 00BFAFF3 		.section	.text.eckey_alloc_wrap,"ax",%progbits
 923      0080AFF3 
 923      0080AFF3 
 923      0080
 924              		.align	2
 925              		.p2align 4,,15
 926              		.thumb
 927              		.thumb_func
 928              		.type	eckey_alloc_wrap, %function
 929              	eckey_alloc_wrap:
 930              	.LFB20:
 931              		.loc 1 250 0
 932              		.cfi_startproc
 933              		@ args = 0, pretend = 0, frame = 0
 934              		@ frame_needed = 0, uses_anonymous_args = 0
 935 0000 10B5     		push	{r4, lr}
 936              		.cfi_def_cfa_offset 8
 937              		.cfi_offset 4, -8
 938              		.cfi_offset 14, -4
 939              		.loc 1 251 0
 940 0002 AC20     		movs	r0, #172
 941 0004 FFF7FEFF 		bl	malloc
 942              	.LVL94:
 943              		.loc 1 253 0
 944 0008 0446     		mov	r4, r0
 945 000a 08B1     		cbz	r0, .L62
 946              		.loc 1 254 0
ARM GAS  C:\Users\jo\AppData\Local\Temp\ccoAYTeU.s 			page 18


 947 000c FFF7FEFF 		bl	ecp_keypair_init
 948              	.LVL95:
 949              	.L62:
 950              		.loc 1 257 0
 951 0010 2046     		mov	r0, r4
 952 0012 10BD     		pop	{r4, pc}
 953              		.cfi_endproc
 954              	.LFE20:
 955              		.size	eckey_alloc_wrap, .-eckey_alloc_wrap
 956 0014 AFF30080 		.section	.text.eckey_check_pair,"ax",%progbits
 956      AFF30080 
 956      AFF30080 
 957              		.align	2
 958              		.p2align 4,,15
 959              		.thumb
 960              		.thumb_func
 961              		.type	eckey_check_pair, %function
 962              	eckey_check_pair:
 963              	.LFB19:
 964              		.loc 1 244 0
 965              		.cfi_startproc
 966              		@ args = 0, pretend = 0, frame = 0
 967              		@ frame_needed = 0, uses_anonymous_args = 0
 968              		@ link register save eliminated.
 969              	.LVL96:
 970              		.loc 1 245 0
 971 0000 FFF7FEBF 		b	ecp_check_pub_priv
 972              	.LVL97:
 973              		.cfi_endproc
 974              	.LFE19:
 975              		.size	eckey_check_pair, .-eckey_check_pair
 976 0004 AFF30080 		.section	.text.ecdsa_alloc_wrap,"ax",%progbits
 976      AFF30080 
 976      AFF30080 
 977              		.align	2
 978              		.p2align 4,,15
 979              		.thumb
 980              		.thumb_func
 981              		.type	ecdsa_alloc_wrap, %function
 982              	ecdsa_alloc_wrap:
 983              	.LFB27:
 984              		.loc 1 360 0
 985              		.cfi_startproc
 986              		@ args = 0, pretend = 0, frame = 0
 987              		@ frame_needed = 0, uses_anonymous_args = 0
 988 0000 10B5     		push	{r4, lr}
 989              		.cfi_def_cfa_offset 8
 990              		.cfi_offset 4, -8
 991              		.cfi_offset 14, -4
 992              		.loc 1 361 0
 993 0002 C420     		movs	r0, #196
 994 0004 FFF7FEFF 		bl	malloc
 995              	.LVL98:
 996              		.loc 1 363 0
 997 0008 0446     		mov	r4, r0
 998 000a 08B1     		cbz	r0, .L69
 999              		.loc 1 364 0
ARM GAS  C:\Users\jo\AppData\Local\Temp\ccoAYTeU.s 			page 19


 1000 000c FFF7FEFF 		bl	ecdsa_init
 1001              	.LVL99:
 1002              	.L69:
 1003              		.loc 1 367 0
 1004 0010 2046     		mov	r0, r4
 1005 0012 10BD     		pop	{r4, pc}
 1006              		.cfi_endproc
 1007              	.LFE27:
 1008              		.size	ecdsa_alloc_wrap, .-ecdsa_alloc_wrap
 1009 0014 AFF30080 		.section	.text.ecdsa_free_wrap,"ax",%progbits
 1009      AFF30080 
 1009      AFF30080 
 1010              		.align	2
 1011              		.p2align 4,,15
 1012              		.thumb
 1013              		.thumb_func
 1014              		.type	ecdsa_free_wrap, %function
 1015              	ecdsa_free_wrap:
 1016              	.LFB28:
 1017              		.loc 1 370 0
 1018              		.cfi_startproc
 1019              		@ args = 0, pretend = 0, frame = 0
 1020              		@ frame_needed = 0, uses_anonymous_args = 0
 1021              	.LVL100:
 1022 0000 10B5     		push	{r4, lr}
 1023              		.cfi_def_cfa_offset 8
 1024              		.cfi_offset 4, -8
 1025              		.cfi_offset 14, -4
 1026              		.loc 1 370 0
 1027 0002 0446     		mov	r4, r0
 1028              		.loc 1 371 0
 1029 0004 FFF7FEFF 		bl	ecdsa_free
 1030              	.LVL101:
 1031              		.loc 1 372 0
 1032 0008 2046     		mov	r0, r4
 1033              		.loc 1 373 0
 1034 000a BDE81040 		pop	{r4, lr}
 1035              		.cfi_restore 14
 1036              		.cfi_restore 4
 1037              		.cfi_def_cfa_offset 0
 1038              	.LVL102:
 1039              		.loc 1 372 0
 1040 000e FFF7FEBF 		b	free
 1041              	.LVL103:
 1042              		.cfi_endproc
 1043              	.LFE28:
 1044              		.size	ecdsa_free_wrap, .-ecdsa_free_wrap
 1045 0012 00BFAFF3 		.section	.text.ecdsa_sign_wrap,"ax",%progbits
 1045      0080AFF3 
 1045      0080AFF3 
 1045      0080
 1046              		.align	2
 1047              		.p2align 4,,15
 1048              		.thumb
 1049              		.thumb_func
 1050              		.type	ecdsa_sign_wrap, %function
 1051              	ecdsa_sign_wrap:
ARM GAS  C:\Users\jo\AppData\Local\Temp\ccoAYTeU.s 			page 20


 1052              	.LFB26:
 1053              		.loc 1 343 0
 1054              		.cfi_startproc
 1055              		@ args = 16, pretend = 0, frame = 0
 1056              		@ frame_needed = 0, uses_anonymous_args = 0
 1057              		@ link register save eliminated.
 1058              	.LVL104:
 1059 0000 30B4     		push	{r4, r5}
 1060              		.cfi_def_cfa_offset 8
 1061              		.cfi_offset 4, -8
 1062              		.cfi_offset 5, -4
 1063              		.loc 1 343 0
 1064 0002 029C     		ldr	r4, [sp, #8]
 1065 0004 039D     		ldr	r5, [sp, #12]
 1066              		.loc 1 349 0
 1067 0006 0295     		str	r5, [sp, #8]
 1068              	.LVL105:
 1069 0008 0391     		str	r1, [sp, #12]
 1070              	.LVL106:
 1071 000a 1146     		mov	r1, r2
 1072              	.LVL107:
 1073 000c 1A46     		mov	r2, r3
 1074              	.LVL108:
 1075 000e 2346     		mov	r3, r4
 1076              	.LVL109:
 1077              		.loc 1 357 0
 1078 0010 30BC     		pop	{r4, r5}
 1079              		.cfi_restore 5
 1080              		.cfi_restore 4
 1081              		.cfi_def_cfa_offset 0
 1082              	.LVL110:
 1083              		.loc 1 349 0
 1084 0012 FFF7FEBF 		b	ecdsa_write_signature_det
 1085              	.LVL111:
 1086              		.cfi_endproc
 1087              	.LFE26:
 1088              		.size	ecdsa_sign_wrap, .-ecdsa_sign_wrap
 1089 0016 00BFAFF3 		.section	.text.eckey_sign_wrap,"ax",%progbits
 1089      0080AFF3 
 1089      0080
 1090              		.align	2
 1091              		.p2align 4,,15
 1092              		.thumb
 1093              		.thumb_func
 1094              		.type	eckey_sign_wrap, %function
 1095              	eckey_sign_wrap:
 1096              	.LFB18:
 1097              		.loc 1 226 0
 1098              		.cfi_startproc
 1099              		@ args = 16, pretend = 0, frame = 200
 1100              		@ frame_needed = 0, uses_anonymous_args = 0
 1101              	.LVL112:
 1102 0000 F0B5     		push	{r4, r5, r6, r7, lr}
 1103              		.cfi_def_cfa_offset 20
 1104              		.cfi_offset 4, -20
 1105              		.cfi_offset 5, -16
 1106              		.cfi_offset 6, -12
ARM GAS  C:\Users\jo\AppData\Local\Temp\ccoAYTeU.s 			page 21


 1107              		.cfi_offset 7, -8
 1108              		.cfi_offset 14, -4
 1109 0002 B5B0     		sub	sp, sp, #212
 1110              		.cfi_def_cfa_offset 232
 1111              		.loc 1 226 0
 1112 0004 0446     		mov	r4, r0
 1113              		.loc 1 230 0
 1114 0006 03A8     		add	r0, sp, #12
 1115              	.LVL113:
 1116              		.loc 1 226 0
 1117 0008 0F46     		mov	r7, r1
 1118 000a 1646     		mov	r6, r2
 1119 000c 1D46     		mov	r5, r3
 1120              		.loc 1 230 0
 1121 000e FFF7FEFF 		bl	ecdsa_init
 1122              	.LVL114:
 1123              		.loc 1 232 0
 1124 0012 2146     		mov	r1, r4
 1125 0014 03A8     		add	r0, sp, #12
 1126 0016 FFF7FEFF 		bl	ecdsa_from_keypair
 1127              	.LVL115:
 1128 001a 0446     		mov	r4, r0
 1129              	.LVL116:
 1130 001c 48B9     		cbnz	r0, .L79
 1131              	.LVL117:
 1132              	.LBB16:
 1133              	.LBB17:
 1134              		.loc 1 349 0
 1135 001e 3B9B     		ldr	r3, [sp, #236]
 1136 0020 3146     		mov	r1, r6
 1137 0022 8DE88800 		stmia	sp, {r3, r7}
 1138 0026 2A46     		mov	r2, r5
 1139 0028 03A8     		add	r0, sp, #12
 1140              	.LVL118:
 1141 002a 3A9B     		ldr	r3, [sp, #232]
 1142 002c FFF7FEFF 		bl	ecdsa_write_signature_det
 1143              	.LVL119:
 1144 0030 0446     		mov	r4, r0
 1145              	.LVL120:
 1146              	.L79:
 1147              	.LBE17:
 1148              	.LBE16:
 1149              		.loc 1 236 0
 1150 0032 03A8     		add	r0, sp, #12
 1151 0034 FFF7FEFF 		bl	ecdsa_free
 1152              	.LVL121:
 1153              		.loc 1 239 0
 1154 0038 2046     		mov	r0, r4
 1155 003a 35B0     		add	sp, sp, #212
 1156              		.cfi_def_cfa_offset 20
 1157              		@ sp needed
 1158 003c F0BD     		pop	{r4, r5, r6, r7, pc}
 1159              		.cfi_endproc
 1160              	.LFE18:
 1161              		.size	eckey_sign_wrap, .-eckey_sign_wrap
 1162              		.section	.text.ecdsa_verify_wrap,"ax",%progbits
 1163              		.align	2
ARM GAS  C:\Users\jo\AppData\Local\Temp\ccoAYTeU.s 			page 22


 1164              		.p2align 4,,15
 1165              		.thumb
 1166              		.thumb_func
 1167              		.type	ecdsa_verify_wrap, %function
 1168              	ecdsa_verify_wrap:
 1169              	.LFB25:
 1170              		.loc 1 326 0
 1171              		.cfi_startproc
 1172              		@ args = 8, pretend = 0, frame = 0
 1173              		@ frame_needed = 0, uses_anonymous_args = 0
 1174              	.LVL122:
 1175 0000 00B5     		push	{lr}
 1176              		.cfi_def_cfa_offset 4
 1177              		.cfi_offset 14, -4
 1178 0002 83B0     		sub	sp, sp, #12
 1179              		.cfi_def_cfa_offset 16
 1180              		.loc 1 326 0
 1181 0004 0599     		ldr	r1, [sp, #20]
 1182              	.LVL123:
 1183              		.loc 1 330 0
 1184 0006 0091     		str	r1, [sp]
 1185 0008 1146     		mov	r1, r2
 1186 000a 1A46     		mov	r2, r3
 1187              	.LVL124:
 1188 000c 049B     		ldr	r3, [sp, #16]
 1189              	.LVL125:
 1190 000e FFF7FEFF 		bl	ecdsa_read_signature
 1191              	.LVL126:
 1192              		.loc 1 333 0
 1193 0012 044B     		ldr	r3, .L85
 1194              		.loc 1 337 0
 1195 0014 10F5984F 		cmn	r0, #19456
 1196 0018 08BF     		it	eq
 1197 001a 1846     		moveq	r0, r3
 1198              	.LVL127:
 1199 001c 03B0     		add	sp, sp, #12
 1200              		.cfi_def_cfa_offset 4
 1201              		@ sp needed
 1202 001e 5DF804FB 		ldr	pc, [sp], #4
 1203              	.LVL128:
 1204              	.L86:
 1205 0022 00BF     		.align	2
 1206              	.L85:
 1207 0024 00E0FFFF 		.word	-8192
 1208              		.cfi_endproc
 1209              	.LFE25:
 1210              		.size	ecdsa_verify_wrap, .-ecdsa_verify_wrap
 1211 0028 AFF30080 		.section	.text.eckey_verify_wrap,"ax",%progbits
 1211      AFF30080 
 1212              		.align	2
 1213              		.p2align 4,,15
 1214              		.thumb
 1215              		.thumb_func
 1216              		.type	eckey_verify_wrap, %function
 1217              	eckey_verify_wrap:
 1218              	.LFB17:
 1219              		.loc 1 208 0
ARM GAS  C:\Users\jo\AppData\Local\Temp\ccoAYTeU.s 			page 23


 1220              		.cfi_startproc
 1221              		@ args = 8, pretend = 0, frame = 200
 1222              		@ frame_needed = 0, uses_anonymous_args = 0
 1223              	.LVL129:
 1224 0000 70B5     		push	{r4, r5, r6, lr}
 1225              		.cfi_def_cfa_offset 16
 1226              		.cfi_offset 4, -16
 1227              		.cfi_offset 5, -12
 1228              		.cfi_offset 6, -8
 1229              		.cfi_offset 14, -4
 1230 0002 B4B0     		sub	sp, sp, #208
 1231              		.cfi_def_cfa_offset 224
 1232              		.loc 1 208 0
 1233 0004 0446     		mov	r4, r0
 1234              		.loc 1 212 0
 1235 0006 03A8     		add	r0, sp, #12
 1236              	.LVL130:
 1237              		.loc 1 208 0
 1238 0008 1646     		mov	r6, r2
 1239 000a 1D46     		mov	r5, r3
 1240              		.loc 1 212 0
 1241 000c FFF7FEFF 		bl	ecdsa_init
 1242              	.LVL131:
 1243              		.loc 1 214 0
 1244 0010 2146     		mov	r1, r4
 1245 0012 03A8     		add	r0, sp, #12
 1246 0014 FFF7FEFF 		bl	ecdsa_from_keypair
 1247              	.LVL132:
 1248 0018 0446     		mov	r4, r0
 1249              	.LVL133:
 1250 001a 68B9     		cbnz	r0, .L88
 1251              	.LVL134:
 1252              	.LBB18:
 1253              	.LBB19:
 1254              		.loc 1 330 0
 1255 001c 399B     		ldr	r3, [sp, #228]
 1256 001e 0093     		str	r3, [sp]
 1257 0020 3146     		mov	r1, r6
 1258 0022 2A46     		mov	r2, r5
 1259 0024 03A8     		add	r0, sp, #12
 1260              	.LVL135:
 1261 0026 389B     		ldr	r3, [sp, #224]
 1262 0028 FFF7FEFF 		bl	ecdsa_read_signature
 1263              	.LVL136:
 1264              		.loc 1 334 0
 1265 002c A4F50054 		sub	r4, r4, #8192
 1266              	.LVL137:
 1267 0030 10F5984F 		cmn	r0, #19456
 1268 0034 18BF     		it	ne
 1269 0036 0446     		movne	r4, r0
 1270              	.LVL138:
 1271              	.L88:
 1272              	.LBE19:
 1273              	.LBE18:
 1274              		.loc 1 217 0
 1275 0038 03A8     		add	r0, sp, #12
 1276 003a FFF7FEFF 		bl	ecdsa_free
ARM GAS  C:\Users\jo\AppData\Local\Temp\ccoAYTeU.s 			page 24


 1277              	.LVL139:
 1278              		.loc 1 220 0
 1279 003e 2046     		mov	r0, r4
 1280 0040 34B0     		add	sp, sp, #208
 1281              		.cfi_def_cfa_offset 16
 1282              		@ sp needed
 1283 0042 70BD     		pop	{r4, r5, r6, pc}
 1284              		.cfi_endproc
 1285              	.LFE17:
 1286              		.size	eckey_verify_wrap, .-eckey_verify_wrap
 1287 0044 AFF30080 		.section	.text.rsa_alt_alloc_wrap,"ax",%progbits
 1287      AFF30080 
 1287      AFF30080 
 1288              		.align	2
 1289              		.p2align 4,,15
 1290              		.thumb
 1291              		.thumb_func
 1292              		.type	rsa_alt_alloc_wrap, %function
 1293              	rsa_alt_alloc_wrap:
 1294              	.LFB34:
 1295              		.loc 1 468 0
 1296              		.cfi_startproc
 1297              		@ args = 0, pretend = 0, frame = 0
 1298              		@ frame_needed = 0, uses_anonymous_args = 0
 1299 0000 08B5     		push	{r3, lr}
 1300              		.cfi_def_cfa_offset 8
 1301              		.cfi_offset 3, -8
 1302              		.cfi_offset 14, -4
 1303              		.loc 1 469 0
 1304 0002 1020     		movs	r0, #16
 1305 0004 FFF7FEFF 		bl	malloc
 1306              	.LVL140:
 1307              		.loc 1 471 0
 1308 0008 40B1     		cbz	r0, .L92
 1309              		.loc 1 472 0
 1310 000a 0346     		mov	r3, r0
 1311 000c 0022     		movs	r2, #0
 1312 000e 43F8042B 		str	r2, [r3], #4
 1313 0012 0433     		adds	r3, r3, #4
 1314 0014 4260     		str	r2, [r0, #4]
 1315 0016 43F8042B 		str	r2, [r3], #4
 1316 001a 1A60     		str	r2, [r3]
 1317              	.L92:
 1318              		.loc 1 475 0
 1319 001c 08BD     		pop	{r3, pc}
 1320              		.cfi_endproc
 1321              	.LFE34:
 1322              		.size	rsa_alt_alloc_wrap, .-rsa_alt_alloc_wrap
 1323 001e 00BF     		.section	.text.rsa_alt_check_pair,"ax",%progbits
 1324              		.align	2
 1325              		.p2align 4,,15
 1326              		.thumb
 1327              		.thumb_func
 1328              		.type	rsa_alt_check_pair, %function
 1329              	rsa_alt_check_pair:
 1330              	.LFB33:
 1331              		.loc 1 439 0
ARM GAS  C:\Users\jo\AppData\Local\Temp\ccoAYTeU.s 			page 25


 1332              		.cfi_startproc
 1333              		@ args = 0, pretend = 0, frame = 1056
 1334              		@ frame_needed = 0, uses_anonymous_args = 0
 1335              	.LVL141:
 1336 0000 2DE9F041 		push	{r4, r5, r6, r7, r8, lr}
 1337              		.cfi_def_cfa_offset 24
 1338              		.cfi_offset 4, -24
 1339              		.cfi_offset 5, -20
 1340              		.cfi_offset 6, -16
 1341              		.cfi_offset 7, -12
 1342              		.cfi_offset 8, -8
 1343              		.cfi_offset 14, -4
 1344 0004 0646     		mov	r6, r0
 1345              	.LBB20:
 1346              	.LBB21:
 1347              		.loc 1 404 0
 1348 0006 CB68     		ldr	r3, [r1, #12]
 1349 0008 0868     		ldr	r0, [r1]
 1350              	.LVL142:
 1351              	.LBE21:
 1352              	.LBE20:
 1353              		.loc 1 439 0
 1354 000a ADF5866D 		sub	sp, sp, #1072
 1355              		.cfi_def_cfa_offset 1096
 1356              		.loc 1 439 0
 1357 000e 0C46     		mov	r4, r1
 1358              	.LVL143:
 1359              	.LBB23:
 1360              	.LBB22:
 1361              		.loc 1 404 0
 1362 0010 9847     		blx	r3
 1363              	.LVL144:
 1364              	.LBE22:
 1365              	.LBE23:
 1366              	.LBB24:
 1367              	.LBB25:
 1368              		.loc 1 67 0
 1369 0012 7368     		ldr	r3, [r6, #4]
 1370 0014 DB00     		lsls	r3, r3, #3
 1371              	.LBE25:
 1372              	.LBE24:
 1373              		.loc 1 445 0
 1374 0016 B3EBC00F 		cmp	r3, r0, lsl #3
 1375 001a 27D1     		bne	.L100
 1376              		.loc 1 448 0
 1377 001c 04AD     		add	r5, sp, #16
 1378 001e 2A21     		movs	r1, #42
 1379 0020 2022     		movs	r2, #32
 1380 0022 2846     		mov	r0, r5
 1381 0024 FFF7FEFF 		bl	memset
 1382              	.LVL145:
 1383              	.LBB26:
 1384              	.LBB27:
 1385              		.loc 1 414 0
 1386 0028 E368     		ldr	r3, [r4, #12]
 1387 002a 2068     		ldr	r0, [r4]
 1388 002c 9847     		blx	r3
ARM GAS  C:\Users\jo\AppData\Local\Temp\ccoAYTeU.s 			page 26


 1389              	.LVL146:
 1390              		.loc 1 416 0
 1391 002e 2027     		movs	r7, #32
 1392 0030 0021     		movs	r1, #0
 1393 0032 0CAB     		add	r3, sp, #48
 1394              	.LVL147:
 1395              		.loc 1 414 0
 1396 0034 8046     		mov	r8, r0
 1397              	.LVL148:
 1398              		.loc 1 416 0
 1399 0036 2068     		ldr	r0, [r4]
 1400              	.LVL149:
 1401 0038 0295     		str	r5, [sp, #8]
 1402 003a A468     		ldr	r4, [r4, #8]
 1403              	.LVL150:
 1404 003c 0091     		str	r1, [sp]
 1405 003e 0A46     		mov	r2, r1
 1406 0040 0393     		str	r3, [sp, #12]
 1407 0042 0197     		str	r7, [sp, #4]
 1408 0044 0123     		movs	r3, #1
 1409              	.LVL151:
 1410 0046 A047     		blx	r4
 1411              	.LVL152:
 1412              	.LBE27:
 1413              	.LBE26:
 1414              		.loc 1 450 0
 1415 0048 0146     		mov	r1, r0
 1416 004a 20B1     		cbz	r0, .L102
 1417              	.L99:
 1418              		.loc 1 464 0
 1419 004c 0846     		mov	r0, r1
 1420 004e 0DF5866D 		add	sp, sp, #1072
 1421              		.cfi_remember_state
 1422              		.cfi_def_cfa_offset 24
 1423              		@ sp needed
 1424 0052 BDE8F081 		pop	{r4, r5, r6, r7, r8, pc}
 1425              	.LVL153:
 1426              	.L102:
 1427              		.cfi_restore_state
 1428              		.loc 1 457 0
 1429 0056 0CAB     		add	r3, sp, #48
 1430              	.LVL154:
 1431 0058 8DE80801 		stmia	sp, {r3, r8}
 1432 005c 3046     		mov	r0, r6
 1433 005e 2A46     		mov	r2, r5
 1434 0060 3B46     		mov	r3, r7
 1435              	.LVL155:
 1436 0062 FFF7FEFF 		bl	rsa_verify_wrap
 1437              	.LVL156:
 1438 0066 0146     		mov	r1, r0
 1439 0068 0028     		cmp	r0, #0
 1440 006a EFD0     		beq	.L99
 1441              	.LVL157:
 1442              	.L100:
 1443              		.loc 1 446 0
 1444 006c 0249     		ldr	r1, .L103
 1445              		.loc 1 464 0
ARM GAS  C:\Users\jo\AppData\Local\Temp\ccoAYTeU.s 			page 27


 1446 006e 0846     		mov	r0, r1
 1447 0070 0DF5866D 		add	sp, sp, #1072
 1448              		.cfi_def_cfa_offset 24
 1449              		@ sp needed
 1450 0074 BDE8F081 		pop	{r4, r5, r6, r7, r8, pc}
 1451              	.LVL158:
 1452              	.L104:
 1453              		.align	2
 1454              	.L103:
 1455 0078 00BEFFFF 		.word	-16896
 1456              		.cfi_endproc
 1457              	.LFE33:
 1458              		.size	rsa_alt_check_pair, .-rsa_alt_check_pair
 1459              		.global	rsa_alt_info
 1460              		.global	ecdsa_info
 1461              		.global	eckeydh_info
 1462              		.global	eckey_info
 1463              		.global	rsa_info
 1464 007c AFF30080 		.section	.rodata.rsa_info,"a",%progbits
 1465              		.align	2
 1466              		.type	rsa_info, %object
 1467              		.size	rsa_info, 48
 1468              	rsa_info:
 1469 0000 01       		.byte	1
 1470 0001 000000   		.space	3
 1471 0004 34000000 		.word	.LC7
 1472 0008 00000000 		.word	rsa_get_size
 1473 000c 00000000 		.word	rsa_can_do
 1474 0010 00000000 		.word	rsa_verify_wrap
 1475 0014 00000000 		.word	rsa_sign_wrap
 1476 0018 00000000 		.word	rsa_decrypt_wrap
 1477 001c 00000000 		.word	rsa_encrypt_wrap
 1478 0020 00000000 		.word	rsa_check_pair_wrap
 1479 0024 00000000 		.word	rsa_alloc_wrap
 1480 0028 00000000 		.word	rsa_free_wrap
 1481 002c 00000000 		.word	rsa_debug
 1482              		.section	.rodata.eckeydh_info,"a",%progbits
 1483              		.align	2
 1484              		.type	eckeydh_info, %object
 1485              		.size	eckeydh_info, 48
 1486              	eckeydh_info:
 1487 0000 03       		.byte	3
 1488 0001 000000   		.space	3
 1489 0004 28000000 		.word	.LC5
 1490 0008 00000000 		.word	eckey_get_size
 1491 000c 00000000 		.word	eckeydh_can_do
 1492 0010 00000000 		.word	0
 1493 0014 00000000 		.word	0
 1494 0018 00000000 		.word	0
 1495 001c 00000000 		.word	0
 1496 0020 00000000 		.word	eckey_check_pair
 1497 0024 00000000 		.word	eckey_alloc_wrap
 1498 0028 00000000 		.word	eckey_free_wrap
 1499 002c 00000000 		.word	eckey_debug
 1500              		.section	.rodata.eckey_info,"a",%progbits
 1501              		.align	2
 1502              		.type	eckey_info, %object
ARM GAS  C:\Users\jo\AppData\Local\Temp\ccoAYTeU.s 			page 28


 1503              		.size	eckey_info, 48
 1504              	eckey_info:
 1505 0000 02       		.byte	2
 1506 0001 000000   		.space	3
 1507 0004 30000000 		.word	.LC6
 1508 0008 00000000 		.word	eckey_get_size
 1509 000c 00000000 		.word	eckey_can_do
 1510 0010 00000000 		.word	eckey_verify_wrap
 1511 0014 00000000 		.word	eckey_sign_wrap
 1512 0018 00000000 		.word	0
 1513 001c 00000000 		.word	0
 1514 0020 00000000 		.word	eckey_check_pair
 1515 0024 00000000 		.word	eckey_alloc_wrap
 1516 0028 00000000 		.word	eckey_free_wrap
 1517 002c 00000000 		.word	eckey_debug
 1518              		.section	.rodata.rsa_alt_info,"a",%progbits
 1519              		.align	2
 1520              		.type	rsa_alt_info, %object
 1521              		.size	rsa_alt_info, 48
 1522              	rsa_alt_info:
 1523 0000 05       		.byte	5
 1524 0001 000000   		.space	3
 1525 0004 18000000 		.word	.LC3
 1526 0008 00000000 		.word	rsa_alt_get_size
 1527 000c 00000000 		.word	rsa_alt_can_do
 1528 0010 00000000 		.word	0
 1529 0014 00000000 		.word	rsa_alt_sign_wrap
 1530 0018 00000000 		.word	rsa_alt_decrypt_wrap
 1531 001c 00000000 		.word	0
 1532 0020 00000000 		.word	rsa_alt_check_pair
 1533 0024 00000000 		.word	rsa_alt_alloc_wrap
 1534 0028 00000000 		.word	rsa_alt_free_wrap
 1535 002c 00000000 		.word	0
 1536              		.section	.rodata.str1.4,"aMS",%progbits,1
 1537              		.align	2
 1538              	.LC0:
 1539 0000 7273612E 		.ascii	"rsa.N\000"
 1539      4E00
 1540 0006 0000     		.space	2
 1541              	.LC1:
 1542 0008 7273612E 		.ascii	"rsa.E\000"
 1542      4500
 1543 000e 0000     		.space	2
 1544              	.LC2:
 1545 0010 65636B65 		.ascii	"eckey.Q\000"
 1545      792E5100 
 1546              	.LC3:
 1547 0018 5253412D 		.ascii	"RSA-alt\000"
 1547      616C7400 
 1548              	.LC4:
 1549 0020 45434453 		.ascii	"ECDSA\000"
 1549      4100
 1550 0026 0000     		.space	2
 1551              	.LC5:
 1552 0028 45435F44 		.ascii	"EC_DH\000"
 1552      4800
 1553 002e 0000     		.space	2
ARM GAS  C:\Users\jo\AppData\Local\Temp\ccoAYTeU.s 			page 29


 1554              	.LC6:
 1555 0030 454300   		.ascii	"EC\000"
 1556 0033 00       		.space	1
 1557              	.LC7:
 1558 0034 52534100 		.ascii	"RSA\000"
 1559              		.section	.rodata.ecdsa_info,"a",%progbits
 1560              		.align	2
 1561              		.type	ecdsa_info, %object
 1562              		.size	ecdsa_info, 48
 1563              	ecdsa_info:
 1564 0000 04       		.byte	4
 1565 0001 000000   		.space	3
 1566 0004 20000000 		.word	.LC4
 1567 0008 00000000 		.word	eckey_get_size
 1568 000c 00000000 		.word	ecdsa_can_do
 1569 0010 00000000 		.word	ecdsa_verify_wrap
 1570 0014 00000000 		.word	ecdsa_sign_wrap
 1571 0018 00000000 		.word	0
 1572 001c 00000000 		.word	0
 1573 0020 00000000 		.word	eckey_check_pair
 1574 0024 00000000 		.word	ecdsa_alloc_wrap
 1575 0028 00000000 		.word	ecdsa_free_wrap
 1576 002c 00000000 		.word	eckey_debug
 1577              		.text
 1578              	.Letext0:
 1579              		.file 2 "c:\\program files\\gnu tools arm embedded\\4.9 2014q4\\lib\\gcc\\arm-none-eabi\\4.9.3\\in
 1580              		.file 3 "../../../ext/mbedtls-1.3.11/library/../include/polarssl/md.h"
 1581              		.file 4 "c:\\program files\\gnu tools arm embedded\\4.9 2014q4\\arm-none-eabi\\include\\machine\\_
 1582              		.file 5 "c:\\program files\\gnu tools arm embedded\\4.9 2014q4\\arm-none-eabi\\include\\stdint.h"
 1583              		.file 6 "../../../ext/mbedtls-1.3.11/library/../include/polarssl/bignum.h"
 1584              		.file 7 "../../../ext/mbedtls-1.3.11/library/../include/polarssl/rsa.h"
 1585              		.file 8 "../../../ext/mbedtls-1.3.11/library/../include/polarssl/ecp.h"
 1586              		.file 9 "../../../ext/mbedtls-1.3.11/library/../include/polarssl/ecdsa.h"
 1587              		.file 10 "../../../ext/mbedtls-1.3.11/library/../include/polarssl/pk.h"
 1588              		.file 11 "../../../ext/mbedtls-1.3.11/library/../include/polarssl/pk_wrap.h"
 1589              		.file 12 "c:\\program files\\gnu tools arm embedded\\4.9 2014q4\\arm-none-eabi\\include\\stdlib.h"
 1590              		.file 13 "c:\\program files\\gnu tools arm embedded\\4.9 2014q4\\arm-none-eabi\\include\\string.h"