ARM GAS  C:\Users\jo\AppData\Local\Temp\ccBb0eZH.s 			page 1


   1              		.syntax unified
   2              		.cpu cortex-m4
   3              		.fpu softvfp
   4              		.eabi_attribute 20, 1
   5              		.eabi_attribute 21, 1
   6              		.eabi_attribute 23, 3
   7              		.eabi_attribute 24, 1
   8              		.eabi_attribute 25, 1
   9              		.eabi_attribute 26, 1
  10              		.eabi_attribute 30, 2
  11              		.eabi_attribute 34, 1
  12              		.eabi_attribute 18, 4
  13              		.thumb
  14              		.file	"pkcs5.c"
  15              		.text
  16              	.Ltext0:
  17              		.cfi_sections	.debug_frame
  18              		.section	.text.pkcs5_pbkdf2_hmac,"ax",%progbits
  19              		.align	2
  20              		.p2align 4,,15
  21              		.global	pkcs5_pbkdf2_hmac
  22              		.thumb
  23              		.thumb_func
  24              		.type	pkcs5_pbkdf2_hmac, %function
  25              	pkcs5_pbkdf2_hmac:
  26              	.LFB13:
  27              		.file 1 "../../../ext/mbedtls-1.3.11/library/pkcs5.c"
  28              		.loc 1 222 0
  29              		.cfi_startproc
  30              		@ args = 16, pretend = 0, frame = 144
  31              		@ frame_needed = 0, uses_anonymous_args = 0
  32              	.LVL0:
  33 0000 2DE9F04F 		push	{r4, r5, r6, r7, r8, r9, r10, fp, lr}
  34              		.cfi_def_cfa_offset 36
  35              		.cfi_offset 4, -36
  36              		.cfi_offset 5, -32
  37              		.cfi_offset 6, -28
  38              		.cfi_offset 7, -24
  39              		.cfi_offset 8, -20
  40              		.cfi_offset 9, -16
  41              		.cfi_offset 10, -12
  42              		.cfi_offset 11, -8
  43              		.cfi_offset 14, -4
  44              		.loc 1 227 0
  45 0004 0668     		ldr	r6, [r0]
  46              	.LVL1:
  47              		.loc 1 222 0
  48 0006 A5B0     		sub	sp, sp, #148
  49              		.cfi_def_cfa_offset 184
  50              		.loc 1 222 0
  51 0008 DDF8BC90 		ldr	r9, [sp, #188]
  52 000c DDF8C0A0 		ldr	r10, [sp, #192]
  53              	.LBB4:
  54              	.LBB5:
  55              		.file 2 "../../../ext/mbedtls-1.3.11/library/../include/polarssl/md.h"
  56              		.loc 2 232 0
  57 0010 06B1     		cbz	r6, .L2
ARM GAS  C:\Users\jo\AppData\Local\Temp\ccBb0eZH.s 			page 2


  58              		.loc 2 235 0
  59 0012 367A     		ldrb	r6, [r6, #8]	@ zero_extendqisi2
  60              	.LVL2:
  61              	.L2:
  62              	.LBE5:
  63              	.LBE4:
  64              		.loc 1 232 0
  65 0014 0025     		movs	r5, #0
  66              		.loc 1 233 0
  67 0016 0124     		movs	r4, #1
  68              		.loc 1 232 0
  69 0018 0395     		str	r5, [sp, #12]
  70              		.loc 1 233 0
  71 001a 8DF80F40 		strb	r4, [sp, #15]
  72              	.LVL3:
  73              		.loc 1 238 0
  74 001e BAF1000F 		cmp	r10, #0
  75 0022 69D0     		beq	.L13
  76 0024 0193     		str	r3, [sp, #4]
  77 0026 06F1FF3C 		add	ip, r6, #-1
  78 002a 14AB     		add	r3, sp, #80
  79              	.LVL4:
  80 002c 9046     		mov	r8, r2
  81 002e 0F46     		mov	r7, r1
  82 0030 0446     		mov	r4, r0
  83 0032 03EB0C0B 		add	fp, r3, ip
  84              	.LVL5:
  85              	.L12:
  86              		.loc 1 242 0
  87 0036 2046     		mov	r0, r4
  88 0038 3946     		mov	r1, r7
  89 003a 4246     		mov	r2, r8
  90 003c FFF7FEFF 		bl	md_hmac_starts
  91              	.LVL6:
  92 0040 0028     		cmp	r0, #0
  93 0042 5AD1     		bne	.L4
  94              		.loc 1 245 0
  95 0044 2046     		mov	r0, r4
  96              	.LVL7:
  97 0046 0199     		ldr	r1, [sp, #4]
  98 0048 2E9A     		ldr	r2, [sp, #184]
  99 004a FFF7FEFF 		bl	md_hmac_update
 100              	.LVL8:
 101 004e 0028     		cmp	r0, #0
 102 0050 53D1     		bne	.L4
 103              		.loc 1 248 0
 104 0052 03A9     		add	r1, sp, #12
 105 0054 2046     		mov	r0, r4
 106              	.LVL9:
 107 0056 0422     		movs	r2, #4
 108 0058 FFF7FEFF 		bl	md_hmac_update
 109              	.LVL10:
 110 005c 0028     		cmp	r0, #0
 111 005e 4CD1     		bne	.L4
 112              		.loc 1 251 0
 113 0060 2046     		mov	r0, r4
 114              	.LVL11:
ARM GAS  C:\Users\jo\AppData\Local\Temp\ccBb0eZH.s 			page 3


 115 0062 14A9     		add	r1, sp, #80
 116 0064 FFF7FEFF 		bl	md_hmac_finish
 117              	.LVL12:
 118 0068 0028     		cmp	r0, #0
 119 006a 46D1     		bne	.L4
 120              		.loc 1 254 0
 121 006c 04A8     		add	r0, sp, #16
 122              	.LVL13:
 123 006e 14A9     		add	r1, sp, #80
 124 0070 3246     		mov	r2, r6
 125 0072 FFF7FEFF 		bl	memcpy
 126              	.LVL14:
 127              		.loc 1 256 0
 128 0076 B9F1010F 		cmp	r9, #1
 129 007a 88BF     		it	hi
 130 007c 0125     		movhi	r5, #1
 131 007e 21D9     		bls	.L8
 132              	.LVL15:
 133              	.L5:
 134              		.loc 1 260 0
 135 0080 2046     		mov	r0, r4
 136 0082 3946     		mov	r1, r7
 137 0084 4246     		mov	r2, r8
 138 0086 FFF7FEFF 		bl	md_hmac_starts
 139              	.LVL16:
 140 008a B0BB     		cbnz	r0, .L4
 141              		.loc 1 263 0
 142 008c 2046     		mov	r0, r4
 143              	.LVL17:
 144 008e 04A9     		add	r1, sp, #16
 145 0090 3246     		mov	r2, r6
 146 0092 FFF7FEFF 		bl	md_hmac_update
 147              	.LVL18:
 148 0096 80BB     		cbnz	r0, .L4
 149              		.loc 1 266 0
 150 0098 2046     		mov	r0, r4
 151              	.LVL19:
 152 009a 04A9     		add	r1, sp, #16
 153 009c FFF7FEFF 		bl	md_hmac_finish
 154              	.LVL20:
 155 00a0 58BB     		cbnz	r0, .L4
 156              	.LVL21:
 157              		.loc 1 271 0 discriminator 1
 158 00a2 66B1     		cbz	r6, .L10
 159 00a4 0DF14F01 		add	r1, sp, #79
 160 00a8 0DF10F00 		add	r0, sp, #15
 161              	.LVL22:
 162              	.L9:
 163              		.loc 1 272 0 discriminator 3
 164 00ac 11F8013F 		ldrb	r3, [r1, #1]!	@ zero_extendqisi2
 165              	.LVL23:
 166 00b0 10F8012F 		ldrb	r2, [r0, #1]!	@ zero_extendqisi2
 167              		.loc 1 271 0 discriminator 3
 168 00b4 5945     		cmp	r1, fp
 169              		.loc 1 272 0 discriminator 3
 170 00b6 83EA0203 		eor	r3, r3, r2
 171 00ba 0B70     		strb	r3, [r1]
ARM GAS  C:\Users\jo\AppData\Local\Temp\ccBb0eZH.s 			page 4


 172              	.LVL24:
 173              		.loc 1 271 0 discriminator 3
 174 00bc F6D1     		bne	.L9
 175              	.LVL25:
 176              	.L10:
 177              		.loc 1 256 0
 178 00be 0135     		adds	r5, r5, #1
 179              	.LVL26:
 180 00c0 4D45     		cmp	r5, r9
 181 00c2 DDD1     		bne	.L5
 182              	.LVL27:
 183              	.L8:
 184              		.loc 1 276 0
 185 00c4 3198     		ldr	r0, [sp, #196]
 186              		.loc 1 275 0
 187 00c6 B245     		cmp	r10, r6
 188 00c8 5246     		mov	r2, r10
 189              		.loc 1 279 0
 190 00ca 0346     		mov	r3, r0
 191              		.loc 1 275 0
 192 00cc 28BF     		it	cs
 193 00ce 3246     		movcs	r2, r6
 194              	.LVL28:
 195              		.loc 1 279 0
 196 00d0 1344     		add	r3, r3, r2
 197              		.loc 1 276 0
 198 00d2 14A9     		add	r1, sp, #80
 199              		.loc 1 278 0
 200 00d4 C2EB0A0A 		rsb	r10, r2, r10
 201              		.loc 1 279 0
 202 00d8 3193     		str	r3, [sp, #196]
 203              	.LVL29:
 204              		.loc 1 276 0
 205 00da FFF7FEFF 		bl	memcpy
 206              	.LVL30:
 207 00de 04AA     		add	r2, sp, #16
 208              	.LVL31:
 209              	.L6:
 210              		.loc 1 282 0
 211 00e0 12F8013D 		ldrb	r3, [r2, #-1]!	@ zero_extendqisi2
 212              	.LVL32:
 213 00e4 0133     		adds	r3, r3, #1
 214 00e6 DBB2     		uxtb	r3, r3
 215 00e8 1370     		strb	r3, [r2]
 216 00ea 13B9     		cbnz	r3, .L11
 217              		.loc 1 281 0 discriminator 1
 218 00ec 03AB     		add	r3, sp, #12
 219 00ee 9A42     		cmp	r2, r3
 220 00f0 F6D1     		bne	.L6
 221              	.L11:
 222              		.loc 1 238 0
 223 00f2 BAF1000F 		cmp	r10, #0
 224 00f6 9ED1     		bne	.L12
 225              	.LVL33:
 226              	.L13:
 227              		.loc 1 286 0
 228 00f8 0020     		movs	r0, #0
ARM GAS  C:\Users\jo\AppData\Local\Temp\ccBb0eZH.s 			page 5


 229              	.LVL34:
 230              	.L4:
 231              		.loc 1 287 0
 232 00fa 25B0     		add	sp, sp, #148
 233              		.cfi_def_cfa_offset 36
 234              		@ sp needed
 235 00fc BDE8F08F 		pop	{r4, r5, r6, r7, r8, r9, r10, fp, pc}
 236              		.cfi_endproc
 237              	.LFE13:
 238              		.size	pkcs5_pbkdf2_hmac, .-pkcs5_pbkdf2_hmac
 239              		.section	.text.pkcs5_pbes2,"ax",%progbits
 240              		.align	2
 241              		.p2align 4,,15
 242              		.global	pkcs5_pbes2
 243              		.thumb
 244              		.thumb_func
 245              		.type	pkcs5_pbes2, %function
 246              	pkcs5_pbes2:
 247              	.LFB12:
 248              		.loc 1 116 0
 249              		.cfi_startproc
 250              		@ args = 12, pretend = 0, frame = 216
 251              		@ frame_needed = 0, uses_anonymous_args = 0
 252              	.LVL35:
 253 0000 2DE9F043 		push	{r4, r5, r6, r7, r8, r9, lr}
 254              		.cfi_def_cfa_offset 28
 255              		.cfi_offset 4, -28
 256              		.cfi_offset 5, -24
 257              		.cfi_offset 6, -20
 258              		.cfi_offset 7, -16
 259              		.cfi_offset 8, -12
 260              		.cfi_offset 9, -8
 261              		.cfi_offset 14, -4
 262 0004 0446     		mov	r4, r0
 263 0006 BBB0     		sub	sp, sp, #236
 264              		.cfi_def_cfa_offset 264
 265              		.loc 1 139 0
 266 0008 D4F800E0 		ldr	lr, [r4]
 267              		.loc 1 130 0
 268 000c A768     		ldr	r7, [r4, #8]
 269              		.loc 1 131 0
 270 000e D4F804C0 		ldr	ip, [r4, #4]
 271              		.loc 1 130 0
 272 0012 0797     		str	r7, [sp, #28]
 273              		.loc 1 117 0
 274 0014 0020     		movs	r0, #0
 275              	.LVL36:
 276              		.loc 1 139 0
 277 0016 BEF1300F 		cmp	lr, #48
 278              		.loc 1 131 0
 279 001a 6744     		add	r7, r7, ip
 280              		.loc 1 117 0
 281 001c 0590     		str	r0, [sp, #20]
 282 001e 0690     		str	r0, [sp, #24]
 283              	.LVL37:
 284              		.loc 1 123 0
 285 0020 0890     		str	r0, [sp, #32]
ARM GAS  C:\Users\jo\AppData\Local\Temp\ccBb0eZH.s 			page 6


 286              		.loc 1 139 0
 287 0022 6ED1     		bne	.L45
 288 0024 0E46     		mov	r6, r1
 289 0026 1546     		mov	r5, r2
 290 0028 1C46     		mov	r4, r3
 291              	.LVL38:
 292              		.loc 1 143 0
 293 002a 07A8     		add	r0, sp, #28
 294 002c 3946     		mov	r1, r7
 295              	.LVL39:
 296 002e 0BAA     		add	r2, sp, #44
 297              	.LVL40:
 298 0030 11AB     		add	r3, sp, #68
 299              	.LVL41:
 300 0032 FFF7FEFF 		bl	asn1_get_alg
 301              	.LVL42:
 302 0036 0028     		cmp	r0, #0
 303 0038 5ED1     		bne	.L68
 304              		.loc 1 148 0
 305 003a 0C9A     		ldr	r2, [sp, #48]
 306 003c 092A     		cmp	r2, #9
 307 003e 40F09080 		bne	.L47
 308              		.loc 1 148 0 is_stmt 0 discriminator 1
 309 0042 6748     		ldr	r0, .L73
 310              	.LVL43:
 311 0044 0D99     		ldr	r1, [sp, #52]
 312 0046 FFF7FEFF 		bl	memcmp
 313              	.LVL44:
 314 004a 0028     		cmp	r0, #0
 315 004c 40F08980 		bne	.L47
 316              	.LVL45:
 317              	.LBB8:
 318              	.LBB9:
 319              		.loc 1 64 0 is_stmt 1
 320 0050 119A     		ldr	r2, [sp, #68]
 321              		.loc 1 61 0
 322 0052 139B     		ldr	r3, [sp, #76]
 323              		.loc 1 62 0
 324 0054 1299     		ldr	r1, [sp, #72]
 325              		.loc 1 61 0
 326 0056 2293     		str	r3, [sp, #136]
 327              		.loc 1 64 0
 328 0058 302A     		cmp	r2, #48
 329              		.loc 1 62 0
 330 005a 03EB0108 		add	r8, r3, r1
 331              	.LVL46:
 332              		.loc 1 64 0
 333 005e 50D1     		bne	.L45
 334              		.loc 1 76 0
 335 0060 22A8     		add	r0, sp, #136
 336 0062 4146     		mov	r1, r8
 337 0064 18AA     		add	r2, sp, #96
 338 0066 0423     		movs	r3, #4
 339 0068 FFF7FEFF 		bl	asn1_get_tag
 340              	.LVL47:
 341 006c 0028     		cmp	r0, #0
 342 006e 4CD0     		beq	.L70
ARM GAS  C:\Users\jo\AppData\Local\Temp\ccBb0eZH.s 			page 7


 343              	.L67:
 344              		.loc 1 98 0
 345 0070 A0F57C50 		sub	r0, r0, #16128
 346              	.LVL48:
 347              	.LBE9:
 348              	.LBE8:
 349              		.loc 1 151 0
 350 0074 0028     		cmp	r0, #0
 351 0076 41D1     		bne	.L56
 352              	.LVL49:
 353              	.L43:
 354              		.loc 1 158 0
 355 0078 0420     		movs	r0, #4
 356 007a FFF7FEFF 		bl	md_info_from_type
 357              	.LVL50:
 358              		.loc 1 159 0
 359 007e 8046     		mov	r8, r0
 360              	.LVL51:
 361 0080 0028     		cmp	r0, #0
 362 0082 6ED0     		beq	.L47
 363              		.loc 1 162 0
 364 0084 07A8     		add	r0, sp, #28
 365              	.LVL52:
 366 0086 3946     		mov	r1, r7
 367 0088 0EAA     		add	r2, sp, #56
 368 008a 14AB     		add	r3, sp, #80
 369 008c FFF7FEFF 		bl	asn1_get_alg
 370              	.LVL53:
 371 0090 0028     		cmp	r0, #0
 372 0092 31D1     		bne	.L68
 373              		.loc 1 168 0
 374 0094 0EA8     		add	r0, sp, #56
 375              	.LVL54:
 376 0096 0DF11301 		add	r1, sp, #19
 377 009a FFF7FEFF 		bl	oid_get_cipher_alg
 378              	.LVL55:
 379 009e 0028     		cmp	r0, #0
 380 00a0 5FD1     		bne	.L47
 381              		.loc 1 171 0
 382 00a2 9DF81300 		ldrb	r0, [sp, #19]	@ zero_extendqisi2
 383 00a6 FFF7FEFF 		bl	cipher_info_from_type
 384              	.LVL56:
 385              		.loc 1 172 0
 386 00aa 8146     		mov	r9, r0
 387 00ac 0028     		cmp	r0, #0
 388 00ae 58D0     		beq	.L47
 389              		.loc 1 179 0
 390 00b0 4368     		ldr	r3, [r0, #4]
 391              		.loc 1 181 0
 392 00b2 149A     		ldr	r2, [sp, #80]
 393              		.loc 1 179 0
 394 00b4 DB08     		lsrs	r3, r3, #3
 395              		.loc 1 181 0
 396 00b6 042A     		cmp	r2, #4
 397              		.loc 1 179 0
 398 00b8 0693     		str	r3, [sp, #24]
 399              		.loc 1 181 0
ARM GAS  C:\Users\jo\AppData\Local\Temp\ccBb0eZH.s 			page 8


 400 00ba 58D1     		bne	.L50
 401              		.loc 1 181 0 is_stmt 0 discriminator 1
 402 00bc 159A     		ldr	r2, [sp, #84]
 403 00be C368     		ldr	r3, [r0, #12]
 404 00c0 9A42     		cmp	r2, r3
 405 00c2 54D1     		bne	.L50
 406              		.loc 1 187 0 is_stmt 1
 407 00c4 09A8     		add	r0, sp, #36
 408              	.LVL57:
 409 00c6 FFF7FEFF 		bl	md_init
 410              	.LVL58:
 411              		.loc 1 188 0
 412 00ca 2AA8     		add	r0, sp, #168
 413 00cc FFF7FEFF 		bl	cipher_init
 414              	.LVL59:
 415              		.loc 1 190 0
 416 00d0 1699     		ldr	r1, [sp, #88]
 417 00d2 159A     		ldr	r2, [sp, #84]
 418 00d4 22A8     		add	r0, sp, #136
 419 00d6 FFF7FEFF 		bl	memcpy
 420              	.LVL60:
 421              		.loc 1 192 0
 422 00da 09A8     		add	r0, sp, #36
 423 00dc 4146     		mov	r1, r8
 424 00de FFF7FEFF 		bl	md_init_ctx
 425              	.LVL61:
 426 00e2 0746     		mov	r7, r0
 427              	.LVL62:
 428 00e4 0028     		cmp	r0, #0
 429 00e6 44D0     		beq	.L71
 430              	.LVL63:
 431              	.L42:
 432              		.loc 1 212 0
 433 00e8 09A8     		add	r0, sp, #36
 434 00ea FFF7FEFF 		bl	md_free
 435              	.LVL64:
 436              		.loc 1 213 0
 437 00ee 2AA8     		add	r0, sp, #168
 438 00f0 FFF7FEFF 		bl	cipher_free
 439              	.LVL65:
 440              		.loc 1 215 0
 441 00f4 3846     		mov	r0, r7
 442 00f6 01E0     		b	.L56
 443              	.LVL66:
 444              	.L68:
 445              		.loc 1 165 0
 446 00f8 A0F57C50 		sub	r0, r0, #16128
 447              	.LVL67:
 448              	.L56:
 449              		.loc 1 216 0
 450 00fc 3BB0     		add	sp, sp, #236
 451              		.cfi_remember_state
 452              		.cfi_def_cfa_offset 28
 453              		@ sp needed
 454 00fe BDE8F083 		pop	{r4, r5, r6, r7, r8, r9, pc}
 455              	.LVL68:
 456              	.L45:
ARM GAS  C:\Users\jo\AppData\Local\Temp\ccBb0eZH.s 			page 9


 457              		.cfi_restore_state
 458              	.LBB12:
 459              	.LBB10:
 460              		.loc 1 65 0
 461 0102 3848     		ldr	r0, .L73+4
 462              	.LBE10:
 463              	.LBE12:
 464              		.loc 1 216 0
 465 0104 3BB0     		add	sp, sp, #236
 466              		.cfi_remember_state
 467              		.cfi_def_cfa_offset 28
 468              		@ sp needed
 469 0106 BDE8F083 		pop	{r4, r5, r6, r7, r8, r9, pc}
 470              	.LVL69:
 471              	.L70:
 472              		.cfi_restore_state
 473              	.LBB13:
 474              	.LBB11:
 475              		.loc 1 79 0
 476 010a 229A     		ldr	r2, [sp, #136]
 477              		.loc 1 80 0
 478 010c 189B     		ldr	r3, [sp, #96]
 479              		.loc 1 79 0
 480 010e 1992     		str	r2, [sp, #100]
 481              		.loc 1 80 0
 482 0110 1344     		add	r3, r3, r2
 483              		.loc 1 82 0
 484 0112 22A8     		add	r0, sp, #136
 485              	.LVL70:
 486 0114 4146     		mov	r1, r8
 487 0116 05AA     		add	r2, sp, #20
 488              	.LVL71:
 489              		.loc 1 80 0
 490 0118 2293     		str	r3, [sp, #136]
 491              		.loc 1 82 0
 492 011a FFF7FEFF 		bl	asn1_get_int
 493              	.LVL72:
 494 011e 0028     		cmp	r0, #0
 495 0120 A6D1     		bne	.L67
 496              		.loc 1 85 0
 497 0122 229B     		ldr	r3, [sp, #136]
 498 0124 9845     		cmp	r8, r3
 499 0126 A7D0     		beq	.L43
 500              		.loc 1 88 0
 501 0128 22A8     		add	r0, sp, #136
 502              	.LVL73:
 503 012a 4146     		mov	r1, r8
 504 012c 06AA     		add	r2, sp, #24
 505              	.LVL74:
 506 012e FFF7FEFF 		bl	asn1_get_int
 507              	.LVL75:
 508 0132 C0B9     		cbnz	r0, .L72
 509              	.L39:
 510              		.loc 1 94 0
 511 0134 229B     		ldr	r3, [sp, #136]
 512 0136 9845     		cmp	r8, r3
 513 0138 9ED0     		beq	.L43
ARM GAS  C:\Users\jo\AppData\Local\Temp\ccBb0eZH.s 			page 10


 514              		.loc 1 97 0
 515 013a 22A8     		add	r0, sp, #136
 516              	.LVL76:
 517 013c 4146     		mov	r1, r8
 518 013e 2AAA     		add	r2, sp, #168
 519 0140 FFF7FEFF 		bl	asn1_get_alg_null
 520              	.LVL77:
 521 0144 0028     		cmp	r0, #0
 522 0146 93D1     		bne	.L67
 523              		.loc 1 100 0
 524 0148 2B9A     		ldr	r2, [sp, #172]
 525 014a 082A     		cmp	r2, #8
 526 014c 09D1     		bne	.L47
 527 014e 2648     		ldr	r0, .L73+8
 528              	.LVL78:
 529 0150 2C99     		ldr	r1, [sp, #176]
 530 0152 FFF7FEFF 		bl	memcmp
 531              	.LVL79:
 532 0156 20B9     		cbnz	r0, .L47
 533              		.loc 1 105 0
 534 0158 229B     		ldr	r3, [sp, #136]
 535 015a 9845     		cmp	r8, r3
 536 015c 8CD0     		beq	.L43
 537              		.loc 1 106 0
 538 015e 2348     		ldr	r0, .L73+12
 539 0160 CCE7     		b	.L56
 540              	.LVL80:
 541              	.L47:
 542              		.loc 1 101 0
 543 0162 2348     		ldr	r0, .L73+16
 544 0164 CAE7     		b	.L56
 545              	.LVL81:
 546              	.L72:
 547              		.loc 1 90 0
 548 0166 10F1620F 		cmn	r0, #98
 549 016a 81D1     		bne	.L67
 550 016c E2E7     		b	.L39
 551              	.LVL82:
 552              	.L50:
 553              	.LBE11:
 554              	.LBE13:
 555              		.loc 1 184 0
 556 016e 2148     		ldr	r0, .L73+20
 557              	.LVL83:
 558 0170 C4E7     		b	.L56
 559              	.LVL84:
 560              	.L71:
 561              		.loc 1 195 0
 562 0172 189A     		ldr	r2, [sp, #96]
 563 0174 059F     		ldr	r7, [sp, #20]
 564 0176 0698     		ldr	r0, [sp, #24]
 565              	.LVL85:
 566 0178 0092     		str	r2, [sp]
 567 017a 0DF16808 		add	r8, sp, #104
 568              	.LVL86:
 569 017e 0197     		str	r7, [sp, #4]
 570 0180 0290     		str	r0, [sp, #8]
ARM GAS  C:\Users\jo\AppData\Local\Temp\ccBb0eZH.s 			page 11


 571 0182 199B     		ldr	r3, [sp, #100]
 572 0184 CDF80C80 		str	r8, [sp, #12]
 573 0188 2946     		mov	r1, r5
 574 018a 2246     		mov	r2, r4
 575 018c 09A8     		add	r0, sp, #36
 576 018e FFF7FEFF 		bl	pkcs5_pbkdf2_hmac
 577              	.LVL87:
 578 0192 0746     		mov	r7, r0
 579 0194 0028     		cmp	r0, #0
 580 0196 A7D1     		bne	.L42
 581              		.loc 1 201 0
 582 0198 4946     		mov	r1, r9
 583 019a 2AA8     		add	r0, sp, #168
 584              	.LVL88:
 585 019c FFF7FEFF 		bl	cipher_init_ctx
 586              	.LVL89:
 587 01a0 0746     		mov	r7, r0
 588 01a2 0028     		cmp	r0, #0
 589 01a4 A0D1     		bne	.L42
 590              		.loc 1 204 0
 591 01a6 069A     		ldr	r2, [sp, #24]
 592 01a8 4146     		mov	r1, r8
 593 01aa 73B2     		sxtb	r3, r6
 594 01ac D200     		lsls	r2, r2, #3
 595 01ae 2AA8     		add	r0, sp, #168
 596              	.LVL90:
 597 01b0 FFF7FEFF 		bl	cipher_setkey
 598              	.LVL91:
 599 01b4 0746     		mov	r7, r0
 600 01b6 0028     		cmp	r0, #0
 601 01b8 96D1     		bne	.L42
 602              		.loc 1 207 0
 603 01ba 439A     		ldr	r2, [sp, #268]
 604 01bc 0092     		str	r2, [sp]
 605 01be 08AB     		add	r3, sp, #32
 606 01c0 449A     		ldr	r2, [sp, #272]
 607 01c2 0192     		str	r2, [sp, #4]
 608 01c4 0293     		str	r3, [sp, #8]
 609 01c6 22A9     		add	r1, sp, #136
 610 01c8 2AA8     		add	r0, sp, #168
 611              	.LVL92:
 612 01ca 159A     		ldr	r2, [sp, #84]
 613 01cc 429B     		ldr	r3, [sp, #264]
 614 01ce FFF7FEFF 		bl	cipher_crypt
 615              	.LVL93:
 616              		.loc 1 209 0
 617 01d2 A7F57857 		sub	r7, r7, #15872
 618 01d6 0028     		cmp	r0, #0
 619 01d8 08BF     		it	eq
 620 01da 0027     		moveq	r7, #0
 621 01dc 84E7     		b	.L42
 622              	.L74:
 623 01de 00BF     		.align	2
 624              	.L73:
 625 01e0 00000000 		.word	.LC0
 626 01e4 9EC0FFFF 		.word	-16226
 627 01e8 0C000000 		.word	.LC1
ARM GAS  C:\Users\jo\AppData\Local\Temp\ccBb0eZH.s 			page 12


 628 01ec 9AC0FFFF 		.word	-16230
 629 01f0 80C1FFFF 		.word	-16000
 630 01f4 00C1FFFF 		.word	-16128
 631              		.cfi_endproc
 632              	.LFE12:
 633              		.size	pkcs5_pbes2, .-pkcs5_pbes2
 634 01f8 AFF30080 		.section	.text.pkcs5_self_test,"ax",%progbits
 634      AFF30080 
 635              		.align	2
 636              		.p2align 4,,15
 637              		.global	pkcs5_self_test
 638              		.thumb
 639              		.thumb_func
 640              		.type	pkcs5_self_test, %function
 641              	pkcs5_self_test:
 642              	.LFB14:
 643              		.loc 1 353 0
 644              		.cfi_startproc
 645              		@ args = 0, pretend = 0, frame = 80
 646              		@ frame_needed = 0, uses_anonymous_args = 0
 647              	.LVL94:
 648 0000 2DE9F04F 		push	{r4, r5, r6, r7, r8, r9, r10, fp, lr}
 649              		.cfi_def_cfa_offset 36
 650              		.cfi_offset 4, -36
 651              		.cfi_offset 5, -32
 652              		.cfi_offset 6, -28
 653              		.cfi_offset 7, -24
 654              		.cfi_offset 8, -20
 655              		.cfi_offset 9, -16
 656              		.cfi_offset 10, -12
 657              		.cfi_offset 11, -8
 658              		.cfi_offset 14, -4
 659 0004 99B0     		sub	sp, sp, #100
 660              		.cfi_def_cfa_offset 136
 661              		.loc 1 353 0
 662 0006 0490     		str	r0, [sp, #16]
 663              		.loc 1 359 0
 664 0008 06A8     		add	r0, sp, #24
 665              	.LVL95:
 666 000a FFF7FEFF 		bl	md_init
 667              	.LVL96:
 668              		.loc 1 361 0
 669 000e 0420     		movs	r0, #4
 670 0010 FFF7FEFF 		bl	md_info_from_type
 671              	.LVL97:
 672              		.loc 1 362 0
 673 0014 0028     		cmp	r0, #0
 674 0016 3FD0     		beq	.L95
 675              		.loc 1 368 0
 676 0018 0146     		mov	r1, r0
 677 001a 06A8     		add	r0, sp, #24
 678              	.LVL98:
 679 001c FFF7FEFF 		bl	md_init_ctx
 680              	.LVL99:
 681 0020 0028     		cmp	r0, #0
 682 0022 39D1     		bne	.L95
 683 0024 264F     		ldr	r7, .L98
ARM GAS  C:\Users\jo\AppData\Local\Temp\ccBb0eZH.s 			page 13


 684 0026 274E     		ldr	r6, .L98+4
 685 0028 274D     		ldr	r5, .L98+8
 686 002a DFF8B0B0 		ldr	fp, .L98+28
 687 002e DFF8B0A0 		ldr	r10, .L98+32
 688 0032 DFF8B090 		ldr	r9, .L98+36
 689 0036 0446     		mov	r4, r0
 690 0038 21E0     		b	.L83
 691              	.LVL100:
 692              	.L79:
 693              		.loc 1 379 0
 694 003a 244B     		ldr	r3, .L98+12
 695 003c 5AF82410 		ldr	r1, [r10, r4, lsl #2]
 696 0040 53F82480 		ldr	r8, [r3, r4, lsl #2]
 697 0044 59F82430 		ldr	r3, [r9, r4, lsl #2]
 698 0048 5BF82420 		ldr	r2, [fp, r4, lsl #2]
 699 004c 08A8     		add	r0, sp, #32
 700 004e 8DE80A01 		stmia	sp, {r1, r3, r8}
 701 0052 0390     		str	r0, [sp, #12]
 702 0054 3146     		mov	r1, r6
 703 0056 2B46     		mov	r3, r5
 704 0058 06A8     		add	r0, sp, #24
 705 005a FFF7FEFF 		bl	pkcs5_pbkdf2_hmac
 706              	.LVL101:
 707              		.loc 1 374 0
 708 005e 0134     		adds	r4, r4, #1
 709              	.LVL102:
 710              		.loc 1 381 0
 711 0060 0590     		str	r0, [sp, #20]
 712              		.loc 1 382 0
 713 0062 08A9     		add	r1, sp, #32
 714 0064 4246     		mov	r2, r8
 715 0066 2036     		adds	r6, r6, #32
 716 0068 2835     		adds	r5, r5, #40
 717              		.loc 1 381 0
 718 006a 80B9     		cbnz	r0, .L80
 719              		.loc 1 382 0 discriminator 1
 720 006c 3846     		mov	r0, r7
 721              	.LVL103:
 722 006e FFF7FEFF 		bl	memcmp
 723              	.LVL104:
 724 0072 2037     		adds	r7, r7, #32
 725              		.loc 1 381 0 discriminator 1
 726 0074 58B9     		cbnz	r0, .L80
 727              		.loc 1 391 0
 728 0076 049B     		ldr	r3, [sp, #16]
 729 0078 BBB9     		cbnz	r3, .L96
 730              	.LVL105:
 731              		.loc 1 374 0 discriminator 2
 732 007a 062C     		cmp	r4, #6
 733 007c 1AD0     		beq	.L97
 734              	.LVL106:
 735              	.L83:
 736              		.loc 1 376 0
 737 007e 049B     		ldr	r3, [sp, #16]
 738 0080 002B     		cmp	r3, #0
 739 0082 DAD0     		beq	.L79
 740              		.loc 1 377 0
ARM GAS  C:\Users\jo\AppData\Local\Temp\ccBb0eZH.s 			page 14


 741 0084 2146     		mov	r1, r4
 742 0086 1248     		ldr	r0, .L98+16
 743 0088 FFF7FEFF 		bl	printf
 744              	.LVL107:
 745 008c D5E7     		b	.L79
 746              	.LVL108:
 747              	.L80:
 748              		.loc 1 384 0
 749 008e 049B     		ldr	r3, [sp, #16]
 750 0090 13B1     		cbz	r3, .L95
 751              		.loc 1 385 0
 752 0092 1048     		ldr	r0, .L98+20
 753 0094 FFF7FEFF 		bl	puts
 754              	.LVL109:
 755              	.L95:
 756              		.loc 1 387 0
 757 0098 4FF00108 		mov	r8, #1
 758              	.L77:
 759              	.LVL110:
 760              		.loc 1 398 0
 761 009c 06A8     		add	r0, sp, #24
 762 009e FFF7FEFF 		bl	md_free
 763              	.LVL111:
 764              		.loc 1 401 0
 765 00a2 4046     		mov	r0, r8
 766 00a4 19B0     		add	sp, sp, #100
 767              		.cfi_remember_state
 768              		.cfi_def_cfa_offset 36
 769              		@ sp needed
 770 00a6 BDE8F08F 		pop	{r4, r5, r6, r7, r8, r9, r10, fp, pc}
 771              	.LVL112:
 772              	.L96:
 773              		.cfi_restore_state
 774              		.loc 1 392 0
 775 00aa 0B48     		ldr	r0, .L98+24
 776 00ac FFF7FEFF 		bl	puts
 777              	.LVL113:
 778              		.loc 1 374 0
 779 00b0 062C     		cmp	r4, #6
 780 00b2 E4D1     		bne	.L83
 781              	.L97:
 782              		.loc 1 395 0
 783 00b4 0A20     		movs	r0, #10
 784 00b6 DDF81480 		ldr	r8, [sp, #20]
 785 00ba FFF7FEFF 		bl	putchar
 786              	.LVL114:
 787 00be EDE7     		b	.L77
 788              	.L99:
 789              		.align	2
 790              	.L98:
 791 00c0 00000000 		.word	.LANCHOR0
 792 00c4 00000000 		.word	.LANCHOR1
 793 00c8 00000000 		.word	.LANCHOR2
 794 00cc 00000000 		.word	.LANCHOR3
 795 00d0 18000000 		.word	.LC2
 796 00d4 30000000 		.word	.LC3
 797 00d8 38000000 		.word	.LC4
ARM GAS  C:\Users\jo\AppData\Local\Temp\ccBb0eZH.s 			page 15


 798 00dc 00000000 		.word	.LANCHOR4
 799 00e0 00000000 		.word	.LANCHOR5
 800 00e4 00000000 		.word	.LANCHOR6
 801              		.cfi_endproc
 802              	.LFE14:
 803              		.size	pkcs5_self_test, .-pkcs5_self_test
 804 00e8 AFF30080 		.section	.rodata.password,"a",%progbits
 804      AFF30080 
 805              		.align	2
 806              		.set	.LANCHOR1,. + 0
 807              		.type	password, %object
 808              		.size	password, 192
 809              	password:
 810 0000 70617373 		.ascii	"password\000"
 810      776F7264 
 810      00
 811 0009 00000000 		.space	23
 811      00000000 
 811      00000000 
 811      00000000 
 811      00000000 
 812 0020 70617373 		.ascii	"password\000"
 812      776F7264 
 812      00
 813 0029 00000000 		.space	23
 813      00000000 
 813      00000000 
 813      00000000 
 813      00000000 
 814 0040 70617373 		.ascii	"password\000"
 814      776F7264 
 814      00
 815 0049 00000000 		.space	23
 815      00000000 
 815      00000000 
 815      00000000 
 815      00000000 
 816 0060 70617373 		.ascii	"passwordPASSWORDpassword\000"
 816      776F7264 
 816      50415353 
 816      574F5244 
 816      70617373 
 817 0079 00000000 		.space	7
 817      000000
 818 0080 70617373 		.ascii	"pass\000word\000"
 818      00776F72 
 818      6400
 819 008a 00000000 		.space	22
 819      00000000 
 819      00000000 
 819      00000000 
 819      00000000 
 820 00a0 00000000 		.space	32
 820      00000000 
 820      00000000 
 820      00000000 
 820      00000000 
ARM GAS  C:\Users\jo\AppData\Local\Temp\ccBb0eZH.s 			page 16


 821              		.section	.rodata.result_key,"a",%progbits
 822              		.align	2
 823              		.set	.LANCHOR0,. + 0
 824              		.type	result_key, %object
 825              		.size	result_key, 192
 826              	result_key:
 827 0000 0C       		.byte	12
 828 0001 60       		.byte	96
 829 0002 C8       		.byte	-56
 830 0003 0F       		.byte	15
 831 0004 96       		.byte	-106
 832 0005 1F       		.byte	31
 833 0006 0E       		.byte	14
 834 0007 71       		.byte	113
 835 0008 F3       		.byte	-13
 836 0009 A9       		.byte	-87
 837 000a B5       		.byte	-75
 838 000b 24       		.byte	36
 839 000c AF       		.byte	-81
 840 000d 60       		.byte	96
 841 000e 12       		.byte	18
 842 000f 06       		.byte	6
 843 0010 2F       		.byte	47
 844 0011 E0       		.byte	-32
 845 0012 37       		.byte	55
 846 0013 A6       		.byte	-90
 847 0014 00000000 		.space	12
 847      00000000 
 847      00000000 
 848 0020 EA       		.byte	-22
 849 0021 6C       		.byte	108
 850 0022 01       		.byte	1
 851 0023 4D       		.byte	77
 852 0024 C7       		.byte	-57
 853 0025 2D       		.byte	45
 854 0026 6F       		.byte	111
 855 0027 8C       		.byte	-116
 856 0028 CD       		.byte	-51
 857 0029 1E       		.byte	30
 858 002a D9       		.byte	-39
 859 002b 2A       		.byte	42
 860 002c CE       		.byte	-50
 861 002d 1D       		.byte	29
 862 002e 41       		.byte	65
 863 002f F0       		.byte	-16
 864 0030 D8       		.byte	-40
 865 0031 DE       		.byte	-34
 866 0032 89       		.byte	-119
 867 0033 57       		.byte	87
 868 0034 00000000 		.space	12
 868      00000000 
 868      00000000 
 869 0040 4B       		.byte	75
 870 0041 00       		.byte	0
 871 0042 79       		.byte	121
 872 0043 01       		.byte	1
 873 0044 B7       		.byte	-73
ARM GAS  C:\Users\jo\AppData\Local\Temp\ccBb0eZH.s 			page 17


 874 0045 65       		.byte	101
 875 0046 48       		.byte	72
 876 0047 9A       		.byte	-102
 877 0048 BE       		.byte	-66
 878 0049 AD       		.byte	-83
 879 004a 49       		.byte	73
 880 004b D9       		.byte	-39
 881 004c 26       		.byte	38
 882 004d F7       		.byte	-9
 883 004e 21       		.byte	33
 884 004f D0       		.byte	-48
 885 0050 65       		.byte	101
 886 0051 A4       		.byte	-92
 887 0052 29       		.byte	41
 888 0053 C1       		.byte	-63
 889 0054 00000000 		.space	12
 889      00000000 
 889      00000000 
 890 0060 3D       		.byte	61
 891 0061 2E       		.byte	46
 892 0062 EC       		.byte	-20
 893 0063 4F       		.byte	79
 894 0064 E4       		.byte	-28
 895 0065 1C       		.byte	28
 896 0066 84       		.byte	-124
 897 0067 9B       		.byte	-101
 898 0068 80       		.byte	-128
 899 0069 C8       		.byte	-56
 900 006a D8       		.byte	-40
 901 006b 36       		.byte	54
 902 006c 62       		.byte	98
 903 006d C0       		.byte	-64
 904 006e E4       		.byte	-28
 905 006f 4A       		.byte	74
 906 0070 8B       		.byte	-117
 907 0071 29       		.byte	41
 908 0072 1A       		.byte	26
 909 0073 96       		.byte	-106
 910 0074 4C       		.byte	76
 911 0075 F2       		.byte	-14
 912 0076 F0       		.byte	-16
 913 0077 70       		.byte	112
 914 0078 38       		.byte	56
 915 0079 00000000 		.space	7
 915      000000
 916 0080 56       		.byte	86
 917 0081 FA       		.byte	-6
 918 0082 6A       		.byte	106
 919 0083 A7       		.byte	-89
 920 0084 55       		.byte	85
 921 0085 48       		.byte	72
 922 0086 09       		.byte	9
 923 0087 9D       		.byte	-99
 924 0088 CC       		.byte	-52
 925 0089 37       		.byte	55
 926 008a D7       		.byte	-41
 927 008b F0       		.byte	-16
ARM GAS  C:\Users\jo\AppData\Local\Temp\ccBb0eZH.s 			page 18


 928 008c 34       		.byte	52
 929 008d 25       		.byte	37
 930 008e E0       		.byte	-32
 931 008f C3       		.byte	-61
 932 0090 00000000 		.space	16
 932      00000000 
 932      00000000 
 932      00000000 
 933 00a0 00000000 		.space	32
 933      00000000 
 933      00000000 
 933      00000000 
 933      00000000 
 934              		.section	.rodata.plen,"a",%progbits
 935              		.align	2
 936              		.set	.LANCHOR4,. + 0
 937              		.type	plen, %object
 938              		.size	plen, 24
 939              	plen:
 940 0000 08000000 		.word	8
 941 0004 08000000 		.word	8
 942 0008 08000000 		.word	8
 943 000c 18000000 		.word	24
 944 0010 09000000 		.word	9
 945 0014 00000000 		.space	4
 946              		.section	.rodata.slen,"a",%progbits
 947              		.align	2
 948              		.set	.LANCHOR5,. + 0
 949              		.type	slen, %object
 950              		.size	slen, 24
 951              	slen:
 952 0000 04000000 		.word	4
 953 0004 04000000 		.word	4
 954 0008 04000000 		.word	4
 955 000c 24000000 		.word	36
 956 0010 05000000 		.word	5
 957 0014 00000000 		.space	4
 958              		.section	.rodata.str1.4,"aMS",%progbits,1
 959              		.align	2
 960              	.LC0:
 961 0000 2A864886 		.ascii	"*\206H\206\367\015\001\005\014\000"
 961      F70D0105 
 961      0C00
 962 000a 0000     		.space	2
 963              	.LC1:
 964 000c 2A864886 		.ascii	"*\206H\206\367\015\002\007\000"
 964      F70D0207 
 964      00
 965 0015 000000   		.space	3
 966              	.LC2:
 967 0018 20205042 		.ascii	"  PBKDF2 (SHA1) #%d: \000"
 967      4B444632 
 967      20285348 
 967      41312920 
 967      2325643A 
 968 002e 0000     		.space	2
 969              	.LC3:
ARM GAS  C:\Users\jo\AppData\Local\Temp\ccBb0eZH.s 			page 19


 970 0030 6661696C 		.ascii	"failed\000"
 970      656400
 971 0037 00       		.space	1
 972              	.LC4:
 973 0038 70617373 		.ascii	"passed\000"
 973      656400
 974 003f 00       		.section	.rodata.key_len,"a",%progbits
 975              		.align	2
 976              		.set	.LANCHOR3,. + 0
 977              		.type	key_len, %object
 978              		.size	key_len, 24
 979              	key_len:
 980 0000 14000000 		.word	20
 981 0004 14000000 		.word	20
 982 0008 14000000 		.word	20
 983 000c 19000000 		.word	25
 984 0010 10000000 		.word	16
 985 0014 00000000 		.space	4
 986              		.section	.rodata.salt,"a",%progbits
 987              		.align	2
 988              		.set	.LANCHOR2,. + 0
 989              		.type	salt, %object
 990              		.size	salt, 240
 991              	salt:
 992 0000 73616C74 		.ascii	"salt\000"
 992      00
 993 0005 00000000 		.space	35
 993      00000000 
 993      00000000 
 993      00000000 
 993      00000000 
 994 0028 73616C74 		.ascii	"salt\000"
 994      00
 995 002d 00000000 		.space	35
 995      00000000 
 995      00000000 
 995      00000000 
 995      00000000 
 996 0050 73616C74 		.ascii	"salt\000"
 996      00
 997 0055 00000000 		.space	35
 997      00000000 
 997      00000000 
 997      00000000 
 997      00000000 
 998 0078 73616C74 		.ascii	"saltSALTsaltSALTsaltSALTsaltSALTsalt\000"
 998      53414C54 
 998      73616C74 
 998      53414C54 
 998      73616C74 
 999 009d 000000   		.space	3
 1000 00a0 7361006C 		.ascii	"sa\000lt\000"
 1000      7400
 1001 00a6 00000000 		.space	34
 1001      00000000 
 1001      00000000 
 1001      00000000 
ARM GAS  C:\Users\jo\AppData\Local\Temp\ccBb0eZH.s 			page 20


 1001      00000000 
 1002 00c8 00000000 		.space	40
 1002      00000000 
 1002      00000000 
 1002      00000000 
 1002      00000000 
 1003              		.section	.rodata.it_cnt,"a",%progbits
 1004              		.align	2
 1005              		.set	.LANCHOR6,. + 0
 1006              		.type	it_cnt, %object
 1007              		.size	it_cnt, 24
 1008              	it_cnt:
 1009 0000 01000000 		.word	1
 1010 0004 02000000 		.word	2
 1011 0008 00100000 		.word	4096
 1012 000c 00100000 		.word	4096
 1013 0010 00100000 		.word	4096
 1014 0014 00000000 		.space	4
 1015              		.text
 1016              	.Letext0:
 1017              		.file 3 "c:\\program files\\gnu tools arm embedded\\4.9 2014q4\\lib\\gcc\\arm-none-eabi\\4.9.3\\in
 1018              		.file 4 "c:\\program files\\gnu tools arm embedded\\4.9 2014q4\\arm-none-eabi\\include\\machine\\_
 1019              		.file 5 "c:\\program files\\gnu tools arm embedded\\4.9 2014q4\\arm-none-eabi\\include\\stdint.h"
 1020              		.file 6 "../../../ext/mbedtls-1.3.11/library/../include/polarssl/asn1.h"
 1021              		.file 7 "../../../ext/mbedtls-1.3.11/library/../include/polarssl/cipher.h"
 1022              		.file 8 "c:\\program files\\gnu tools arm embedded\\4.9 2014q4\\arm-none-eabi\\include\\string.h"
 1023              		.file 9 "../../../ext/mbedtls-1.3.11/library/../include/polarssl/oid.h"
 1024              		.file 10 "c:\\program files\\gnu tools arm embedded\\4.9 2014q4\\arm-none-eabi\\include\\stdio.h"
 1025              		.file 11 "<built-in>"