ARM GAS  C:\Users\jo\AppData\Local\Temp\ccRMLSMa.s 			page 1


   1              		.syntax unified
   2              		.cpu cortex-m4
   3              		.fpu softvfp
   4              		.eabi_attribute 20, 1
   5              		.eabi_attribute 21, 1
   6              		.eabi_attribute 23, 3
   7              		.eabi_attribute 24, 1
   8              		.eabi_attribute 25, 1
   9              		.eabi_attribute 26, 1
  10              		.eabi_attribute 30, 2
  11              		.eabi_attribute 34, 1
  12              		.eabi_attribute 18, 4
  13              		.thumb
  14              		.file	"pkparse.c"
  15              		.text
  16              	.Ltext0:
  17              		.cfi_sections	.debug_frame
  18              		.section	.text.pk_parse_key_pkcs1_der,"ax",%progbits
  19              		.align	2
  20              		.p2align 4,,15
  21              		.thumb
  22              		.thumb_func
  23              		.type	pk_parse_key_pkcs1_der, %function
  24              	pk_parse_key_pkcs1_der:
  25              	.LFB24:
  26              		.file 1 "../../../ext/mbedtls-1.3.11/library/pkparse.c"
  27              		.loc 1 639 0
  28              		.cfi_startproc
  29              		@ args = 0, pretend = 0, frame = 8
  30              		@ frame_needed = 0, uses_anonymous_args = 0
  31              	.LVL0:
  32 0000 2DE9F041 		push	{r4, r5, r6, r7, r8, lr}
  33              		.cfi_def_cfa_offset 24
  34              		.cfi_offset 4, -24
  35              		.cfi_offset 5, -20
  36              		.cfi_offset 6, -16
  37              		.cfi_offset 7, -12
  38              		.cfi_offset 8, -8
  39              		.cfi_offset 14, -4
  40 0004 82B0     		sub	sp, sp, #8
  41              		.cfi_def_cfa_offset 32
  42              		.loc 1 644 0
  43 0006 02AD     		add	r5, sp, #8
  44              		.loc 1 639 0
  45 0008 0646     		mov	r6, r0
  46              		.loc 1 644 0
  47 000a 45F8041D 		str	r1, [r5, #-4]!
  48              	.LVL1:
  49              		.loc 1 663 0
  50 000e 3023     		movs	r3, #48
  51 0010 1144     		add	r1, r1, r2
  52              	.LVL2:
  53 0012 2846     		mov	r0, r5
  54              	.LVL3:
  55 0014 6A46     		mov	r2, sp
  56              	.LVL4:
  57 0016 FFF7FEFF 		bl	asn1_get_tag
ARM GAS  C:\Users\jo\AppData\Local\Temp\ccRMLSMa.s 			page 2


  58              	.LVL5:
  59 001a 20B1     		cbz	r0, .L13
  60              	.LVL6:
  61              	.L11:
  62              		.loc 1 673 0
  63 001c A0F53450 		sub	r0, r0, #11520
  64              	.LVL7:
  65              	.L3:
  66              		.loc 1 710 0
  67 0020 02B0     		add	sp, sp, #8
  68              		.cfi_remember_state
  69              		.cfi_def_cfa_offset 24
  70              		@ sp needed
  71 0022 BDE8F081 		pop	{r4, r5, r6, r7, r8, pc}
  72              	.LVL8:
  73              	.L13:
  74              		.cfi_restore_state
  75              		.loc 1 669 0
  76 0026 9DE88800 		ldmia	sp, {r3, r7}
  77 002a 1F44     		add	r7, r7, r3
  78              	.LVL9:
  79              		.loc 1 671 0
  80 002c 3946     		mov	r1, r7
  81 002e 2846     		mov	r0, r5
  82              	.LVL10:
  83 0030 3246     		mov	r2, r6
  84 0032 FFF7FEFF 		bl	asn1_get_int
  85              	.LVL11:
  86 0036 0028     		cmp	r0, #0
  87 0038 F0D1     		bne	.L11
  88              		.loc 1 676 0
  89 003a 3368     		ldr	r3, [r6]
  90 003c 002B     		cmp	r3, #0
  91 003e 5FD1     		bne	.L8
  92              		.loc 1 681 0
  93 0040 06F10808 		add	r8, r6, #8
  94 0044 4246     		mov	r2, r8
  95 0046 2846     		mov	r0, r5
  96              	.LVL12:
  97 0048 3946     		mov	r1, r7
  98 004a FFF7FEFF 		bl	asn1_get_mpi
  99              	.LVL13:
 100 004e 0446     		mov	r4, r0
 101 0050 78B9     		cbnz	r0, .L5
 102              		.loc 1 681 0 is_stmt 0 discriminator 1
 103 0052 2846     		mov	r0, r5
 104              	.LVL14:
 105 0054 3946     		mov	r1, r7
 106 0056 06F11402 		add	r2, r6, #20
 107 005a FFF7FEFF 		bl	asn1_get_mpi
 108              	.LVL15:
 109 005e 0446     		mov	r4, r0
 110 0060 38B9     		cbnz	r0, .L5
 111              		.loc 1 682 0 is_stmt 1
 112 0062 2846     		mov	r0, r5
 113              	.LVL16:
 114 0064 3946     		mov	r1, r7
ARM GAS  C:\Users\jo\AppData\Local\Temp\ccRMLSMa.s 			page 3


 115 0066 06F12002 		add	r2, r6, #32
 116 006a FFF7FEFF 		bl	asn1_get_mpi
 117              	.LVL17:
 118 006e 0446     		mov	r4, r0
 119 0070 38B1     		cbz	r0, .L14
 120              	.L5:
 121              		.loc 1 690 0
 122 0072 3046     		mov	r0, r6
 123              	.LVL18:
 124 0074 FFF7FEFF 		bl	rsa_free
 125              	.LVL19:
 126              		.loc 1 691 0
 127 0078 A4F53450 		sub	r0, r4, #11520
 128              		.loc 1 710 0
 129 007c 02B0     		add	sp, sp, #8
 130              		.cfi_remember_state
 131              		.cfi_def_cfa_offset 24
 132              		@ sp needed
 133 007e BDE8F081 		pop	{r4, r5, r6, r7, r8, pc}
 134              	.LVL20:
 135              	.L14:
 136              		.cfi_restore_state
 137              		.loc 1 683 0
 138 0082 2846     		mov	r0, r5
 139              	.LVL21:
 140 0084 3946     		mov	r1, r7
 141 0086 06F12C02 		add	r2, r6, #44
 142 008a FFF7FEFF 		bl	asn1_get_mpi
 143              	.LVL22:
 144 008e 0446     		mov	r4, r0
 145 0090 0028     		cmp	r0, #0
 146 0092 EED1     		bne	.L5
 147              		.loc 1 684 0
 148 0094 2846     		mov	r0, r5
 149              	.LVL23:
 150 0096 3946     		mov	r1, r7
 151 0098 06F13802 		add	r2, r6, #56
 152 009c FFF7FEFF 		bl	asn1_get_mpi
 153              	.LVL24:
 154 00a0 0446     		mov	r4, r0
 155 00a2 0028     		cmp	r0, #0
 156 00a4 E5D1     		bne	.L5
 157              		.loc 1 685 0
 158 00a6 2846     		mov	r0, r5
 159              	.LVL25:
 160 00a8 3946     		mov	r1, r7
 161 00aa 06F14402 		add	r2, r6, #68
 162 00ae FFF7FEFF 		bl	asn1_get_mpi
 163              	.LVL26:
 164 00b2 0446     		mov	r4, r0
 165 00b4 0028     		cmp	r0, #0
 166 00b6 DCD1     		bne	.L5
 167              		.loc 1 686 0
 168 00b8 2846     		mov	r0, r5
 169              	.LVL27:
 170 00ba 3946     		mov	r1, r7
 171 00bc 06F15002 		add	r2, r6, #80
ARM GAS  C:\Users\jo\AppData\Local\Temp\ccRMLSMa.s 			page 4


 172 00c0 FFF7FEFF 		bl	asn1_get_mpi
 173              	.LVL28:
 174 00c4 0446     		mov	r4, r0
 175 00c6 0028     		cmp	r0, #0
 176 00c8 D3D1     		bne	.L5
 177              		.loc 1 687 0
 178 00ca 2846     		mov	r0, r5
 179              	.LVL29:
 180 00cc 3946     		mov	r1, r7
 181 00ce 06F15C02 		add	r2, r6, #92
 182 00d2 FFF7FEFF 		bl	asn1_get_mpi
 183              	.LVL30:
 184 00d6 0446     		mov	r4, r0
 185 00d8 0028     		cmp	r0, #0
 186 00da CAD1     		bne	.L5
 187              		.loc 1 694 0
 188 00dc 4046     		mov	r0, r8
 189              	.LVL31:
 190 00de FFF7FEFF 		bl	mpi_size
 191              	.LVL32:
 192              		.loc 1 696 0
 193 00e2 019B     		ldr	r3, [sp, #4]
 194              		.loc 1 694 0
 195 00e4 7060     		str	r0, [r6, #4]
 196              		.loc 1 696 0
 197 00e6 BB42     		cmp	r3, r7
 198              		.loc 1 698 0
 199 00e8 3046     		mov	r0, r6
 200              		.loc 1 696 0
 201 00ea 0BD1     		bne	.L15
 202              	.LVL33:
 203              		.loc 1 703 0
 204 00ec FFF7FEFF 		bl	rsa_check_privkey
 205              	.LVL34:
 206 00f0 0446     		mov	r4, r0
 207 00f2 0028     		cmp	r0, #0
 208 00f4 94D0     		beq	.L3
 209              		.loc 1 705 0
 210 00f6 3046     		mov	r0, r6
 211              	.LVL35:
 212 00f8 FFF7FEFF 		bl	rsa_free
 213              	.LVL36:
 214              		.loc 1 706 0
 215 00fc 2046     		mov	r0, r4
 216 00fe 8FE7     		b	.L3
 217              	.LVL37:
 218              	.L8:
 219              		.loc 1 678 0
 220 0100 0248     		ldr	r0, .L16
 221              	.LVL38:
 222 0102 8DE7     		b	.L3
 223              	.LVL39:
 224              	.L15:
 225              		.loc 1 698 0
 226 0104 FFF7FEFF 		bl	rsa_free
 227              	.LVL40:
 228              		.loc 1 699 0
ARM GAS  C:\Users\jo\AppData\Local\Temp\ccRMLSMa.s 			page 5


 229 0108 0148     		ldr	r0, .L16+4
 230 010a 89E7     		b	.L3
 231              	.L17:
 232              		.align	2
 233              	.L16:
 234 010c 80D2FFFF 		.word	-11648
 235 0110 9AD2FFFF 		.word	-11622
 236              		.cfi_endproc
 237              	.LFE24:
 238              		.size	pk_parse_key_pkcs1_der, .-pk_parse_key_pkcs1_der
 239 0114 AFF30080 		.section	.text.pk_get_pk_alg,"ax",%progbits
 239      AFF30080 
 239      AFF30080 
 240              		.align	2
 241              		.p2align 4,,15
 242              		.thumb
 243              		.thumb_func
 244              		.type	pk_get_pk_alg, %function
 245              	pk_get_pk_alg:
 246              	.LFB22:
 247              		.loc 1 543 0
 248              		.cfi_startproc
 249              		@ args = 0, pretend = 0, frame = 16
 250              		@ frame_needed = 0, uses_anonymous_args = 0
 251              	.LVL41:
 252 0000 F0B5     		push	{r4, r5, r6, r7, lr}
 253              		.cfi_def_cfa_offset 20
 254              		.cfi_offset 4, -20
 255              		.cfi_offset 5, -16
 256              		.cfi_offset 6, -12
 257              		.cfi_offset 7, -8
 258              		.cfi_offset 14, -4
 259              		.loc 1 547 0
 260 0002 1C46     		mov	r4, r3
 261 0004 0025     		movs	r5, #0
 262 0006 04F8015B 		strb	r5, [r4], #1
 263 000a 0134     		adds	r4, r4, #1
 264 000c 5D70     		strb	r5, [r3, #1]
 265 000e 04F8015B 		strb	r5, [r4], #1
 266 0012 04F8015B 		strb	r5, [r4], #1
 267 0016 04F8015B 		strb	r5, [r4], #1
 268 001a 04F8015B 		strb	r5, [r4], #1
 269 001e 04F8015B 		strb	r5, [r4], #1
 270 0022 04F8015B 		strb	r5, [r4], #1
 271 0026 04F8015B 		strb	r5, [r4], #1
 272 002a 04F8015B 		strb	r5, [r4], #1
 273 002e 04F8015B 		strb	r5, [r4], #1
 274              		.loc 1 543 0
 275 0032 85B0     		sub	sp, sp, #20
 276              		.cfi_def_cfa_offset 40
 277              		.loc 1 543 0
 278 0034 1746     		mov	r7, r2
 279              		.loc 1 547 0
 280 0036 2570     		strb	r5, [r4]
 281              		.loc 1 549 0
 282 0038 01AA     		add	r2, sp, #4
 283              	.LVL42:
ARM GAS  C:\Users\jo\AppData\Local\Temp\ccRMLSMa.s 			page 6


 284              		.loc 1 543 0
 285 003a 1E46     		mov	r6, r3
 286              		.loc 1 549 0
 287 003c FFF7FEFF 		bl	asn1_get_alg
 288              	.LVL43:
 289 0040 18B1     		cbz	r0, .L19
 290              		.loc 1 550 0
 291 0042 A0F52A50 		sub	r0, r0, #10880
 292              	.LVL44:
 293              	.L20:
 294              		.loc 1 566 0
 295 0046 05B0     		add	sp, sp, #20
 296              		.cfi_remember_state
 297              		.cfi_def_cfa_offset 20
 298              		@ sp needed
 299 0048 F0BD     		pop	{r4, r5, r6, r7, pc}
 300              	.LVL45:
 301              	.L19:
 302              		.cfi_restore_state
 303              		.loc 1 552 0
 304 004a 01A8     		add	r0, sp, #4
 305              	.LVL46:
 306 004c 3946     		mov	r1, r7
 307 004e FFF7FEFF 		bl	oid_get_pk_alg
 308              	.LVL47:
 309 0052 68B9     		cbnz	r0, .L22
 310              	.LVL48:
 311              	.LBB8:
 312              	.LBB9:
 313              		.loc 1 558 0
 314 0054 3B78     		ldrb	r3, [r7]	@ zero_extendqisi2
 315 0056 012B     		cmp	r3, #1
 316 0058 F5D1     		bne	.L20
 317              		.loc 1 559 0
 318 005a 3368     		ldr	r3, [r6]
 319              		.loc 1 558 0
 320 005c 052B     		cmp	r3, #5
 321 005e 00D0     		beq	.L21
 322              		.loc 1 559 0
 323 0060 43B9     		cbnz	r3, .L23
 324              	.L21:
 325 0062 7368     		ldr	r3, [r6, #4]
 326              		.loc 1 562 0
 327 0064 0448     		ldr	r0, .L30
 328 0066 002B     		cmp	r3, #0
 329 0068 08BF     		it	eq
 330 006a 0020     		moveq	r0, #0
 331              	.LBE9:
 332              	.LBE8:
 333              		.loc 1 566 0
 334 006c 05B0     		add	sp, sp, #20
 335              		.cfi_remember_state
 336              		.cfi_def_cfa_offset 20
 337              		@ sp needed
 338 006e F0BD     		pop	{r4, r5, r6, r7, pc}
 339              	.LVL49:
 340              	.L22:
ARM GAS  C:\Users\jo\AppData\Local\Temp\ccRMLSMa.s 			page 7


 341              		.cfi_restore_state
 342              		.loc 1 553 0
 343 0070 0248     		ldr	r0, .L30+4
 344 0072 E8E7     		b	.L20
 345              	.LVL50:
 346              	.L23:
 347              	.LBB11:
 348              	.LBB10:
 349              		.loc 1 562 0
 350 0074 0048     		ldr	r0, .L30
 351 0076 E6E7     		b	.L20
 352              	.L31:
 353              		.align	2
 354              	.L30:
 355 0078 80D5FFFF 		.word	-10880
 356 007c 80D3FFFF 		.word	-11392
 357              	.LBE10:
 358              	.LBE11:
 359              		.cfi_endproc
 360              	.LFE22:
 361              		.size	pk_get_pk_alg, .-pk_get_pk_alg
 362              		.section	.text.pk_use_ecparams,"ax",%progbits
 363              		.align	2
 364              		.p2align 4,,15
 365              		.thumb
 366              		.thumb_func
 367              		.type	pk_use_ecparams, %function
 368              	pk_use_ecparams:
 369              	.LFB19:
 370              		.loc 1 437 0
 371              		.cfi_startproc
 372              		@ args = 0, pretend = 0, frame = 256
 373              		@ frame_needed = 0, uses_anonymous_args = 0
 374              	.LVL51:
 375 0000 F0B5     		push	{r4, r5, r6, r7, lr}
 376              		.cfi_def_cfa_offset 20
 377              		.cfi_offset 4, -20
 378              		.cfi_offset 5, -16
 379              		.cfi_offset 6, -12
 380              		.cfi_offset 7, -8
 381              		.cfi_offset 14, -4
 382              		.loc 1 441 0
 383 0002 0368     		ldr	r3, [r0]
 384 0004 062B     		cmp	r3, #6
 385              		.loc 1 437 0
 386 0006 C1B0     		sub	sp, sp, #260
 387              		.cfi_def_cfa_offset 280
 388              		.loc 1 437 0
 389 0008 0446     		mov	r4, r0
 390 000a 0D46     		mov	r5, r1
 391              		.loc 1 441 0
 392 000c 00F0A380 		beq	.L81
 393              	.LVL52:
 394              	.LBB18:
 395              	.LBB19:
 396              		.loc 1 414 0
 397 0010 02A8     		add	r0, sp, #8
ARM GAS  C:\Users\jo\AppData\Local\Temp\ccRMLSMa.s 			page 8


 398              	.LVL53:
 399 0012 FFF7FEFF 		bl	ecp_group_init
 400              	.LVL54:
 401 0016 A368     		ldr	r3, [r4, #8]
 402 0018 6668     		ldr	r6, [r4, #4]
 403              	.LVL55:
 404              	.LBB20:
 405              	.LBB21:
 406              		.loc 1 222 0
 407 001a 0093     		str	r3, [sp]
 408              		.loc 1 223 0
 409 001c 1E44     		add	r6, r6, r3
 410              	.LVL56:
 411              		.loc 1 229 0
 412 001e 3146     		mov	r1, r6
 413 0020 6846     		mov	r0, sp
 414 0022 21AA     		add	r2, sp, #132
 415 0024 FFF7FEFF 		bl	asn1_get_int
 416              	.LVL57:
 417 0028 0028     		cmp	r0, #0
 418 002a 33D1     		bne	.L50
 419              		.loc 1 232 0
 420 002c 219B     		ldr	r3, [sp, #132]
 421 002e 013B     		subs	r3, r3, #1
 422 0030 022B     		cmp	r3, #2
 423 0032 00F23B81 		bhi	.L38
 424              		.loc 1 241 0
 425 0036 01AA     		add	r2, sp, #4
 426              	.LVL58:
 427 0038 6846     		mov	r0, sp
 428              	.LVL59:
 429 003a 3146     		mov	r1, r6
 430 003c 3023     		movs	r3, #48
 431 003e FFF7FEFF 		bl	asn1_get_tag
 432              	.LVL60:
 433 0042 0446     		mov	r4, r0
 434              	.LVL61:
 435 0044 28B1     		cbz	r0, .L82
 436              	.LVL62:
 437              	.L62:
 438              	.LBE21:
 439              	.LBE20:
 440              		.loc 1 422 0
 441 0046 02A8     		add	r0, sp, #8
 442              	.LVL63:
 443 0048 FFF7FEFF 		bl	ecp_group_free
 444              	.LVL64:
 445 004c 2046     		mov	r0, r4
 446              	.LVL65:
 447              	.L74:
 448              	.LBE19:
 449              	.LBE18:
 450              		.loc 1 466 0
 451 004e 41B0     		add	sp, sp, #260
 452              		.cfi_remember_state
 453              		.cfi_def_cfa_offset 20
 454              		@ sp needed
ARM GAS  C:\Users\jo\AppData\Local\Temp\ccRMLSMa.s 			page 9


 455 0050 F0BD     		pop	{r4, r5, r6, r7, pc}
 456              	.LVL66:
 457              	.L82:
 458              		.cfi_restore_state
 459              	.LBB40:
 460              	.LBB36:
 461              	.LBB26:
 462              	.LBB22:
 463              		.loc 1 245 0
 464 0052 9DE88800 		ldmia	sp, {r3, r7}
 465 0056 1F44     		add	r7, r7, r3
 466              	.LVL67:
 467              		.loc 1 255 0
 468 0058 3946     		mov	r1, r7
 469 005a 6846     		mov	r0, sp
 470              	.LVL68:
 471 005c 01AA     		add	r2, sp, #4
 472              	.LVL69:
 473 005e 0623     		movs	r3, #6
 474 0060 FFF7FEFF 		bl	asn1_get_tag
 475              	.LVL70:
 476 0064 0446     		mov	r4, r0
 477 0066 0028     		cmp	r0, #0
 478 0068 EDD1     		bne	.L62
 479              		.loc 1 258 0
 480 006a 019A     		ldr	r2, [sp, #4]
 481 006c 072A     		cmp	r2, #7
 482 006e 40F01F81 		bne	.L66
 483              		.loc 1 259 0
 484 0072 009C     		ldr	r4, [sp]
 485 0074 9249     		ldr	r1, .L86
 486 0076 2046     		mov	r0, r4
 487              	.LVL71:
 488 0078 FFF7FEFF 		bl	memcmp
 489              	.LVL72:
 490              		.loc 1 258 0
 491 007c 0028     		cmp	r0, #0
 492 007e 40F01781 		bne	.L66
 493              		.loc 1 264 0
 494 0082 0734     		adds	r4, r4, #7
 495              		.loc 1 267 0
 496 0084 03AA     		add	r2, sp, #12
 497 0086 6846     		mov	r0, sp
 498 0088 3946     		mov	r1, r7
 499              		.loc 1 264 0
 500 008a 0094     		str	r4, [sp]
 501              		.loc 1 267 0
 502 008c FFF7FEFF 		bl	asn1_get_mpi
 503              	.LVL73:
 504 0090 0028     		cmp	r0, #0
 505 0092 79D0     		beq	.L83
 506              	.LVL74:
 507              	.L50:
 508              		.loc 1 349 0
 509 0094 A0F53454 		sub	r4, r0, #11520
 510              	.LBE22:
 511              	.LBE26:
ARM GAS  C:\Users\jo\AppData\Local\Temp\ccRMLSMa.s 			page 10


 512              		.loc 1 416 0
 513 0098 002C     		cmp	r4, #0
 514 009a D4D1     		bne	.L62
 515              	.LVL75:
 516              	.L53:
 517              	.LBB27:
 518              	.LBB28:
 519              		.loc 1 370 0
 520 009c 21A8     		add	r0, sp, #132
 521 009e FFF7FEFF 		bl	ecp_group_init
 522              	.LVL76:
 523              		.loc 1 372 0
 524 00a2 FFF7FEFF 		bl	ecp_grp_id_list
 525              	.LVL77:
 526 00a6 0378     		ldrb	r3, [r0]	@ zero_extendqisi2
 527 00a8 0646     		mov	r6, r0
 528              	.LVL78:
 529 00aa 23B9     		cbnz	r3, .L58
 530 00ac 45E0     		b	.L55
 531              	.LVL79:
 532              	.L59:
 533 00ae 16F8013F 		ldrb	r3, [r6, #1]!	@ zero_extendqisi2
 534              	.LVL80:
 535 00b2 002B     		cmp	r3, #0
 536 00b4 41D0     		beq	.L55
 537              	.LVL81:
 538              	.L58:
 539              		.loc 1 375 0
 540 00b6 21A8     		add	r0, sp, #132
 541 00b8 FFF7FEFF 		bl	ecp_group_free
 542              	.LVL82:
 543              		.loc 1 376 0
 544 00bc 21A8     		add	r0, sp, #132
 545 00be 3178     		ldrb	r1, [r6]	@ zero_extendqisi2
 546 00c0 FFF7FEFF 		bl	ecp_use_known_dp
 547              	.LVL83:
 548 00c4 0446     		mov	r4, r0
 549 00c6 0028     		cmp	r0, #0
 550 00c8 57D1     		bne	.L56
 551              		.loc 1 379 0
 552 00ca 189A     		ldr	r2, [sp, #96]
 553 00cc 379B     		ldr	r3, [sp, #220]
 554 00ce 9A42     		cmp	r2, r3
 555 00d0 EDD1     		bne	.L59
 556 00d2 199A     		ldr	r2, [sp, #100]
 557 00d4 389B     		ldr	r3, [sp, #224]
 558 00d6 9A42     		cmp	r2, r3
 559 00d8 E9D1     		bne	.L59
 560              		.loc 1 380 0
 561 00da 03A8     		add	r0, sp, #12
 562              	.LVL84:
 563 00dc 22A9     		add	r1, sp, #136
 564 00de FFF7FEFF 		bl	mpi_cmp_mpi
 565              	.LVL85:
 566              		.loc 1 379 0
 567 00e2 0028     		cmp	r0, #0
 568 00e4 E3D1     		bne	.L59
ARM GAS  C:\Users\jo\AppData\Local\Temp\ccRMLSMa.s 			page 11


 569              		.loc 1 381 0
 570 00e6 06A8     		add	r0, sp, #24
 571 00e8 25A9     		add	r1, sp, #148
 572 00ea FFF7FEFF 		bl	mpi_cmp_mpi
 573              	.LVL86:
 574              		.loc 1 380 0
 575 00ee 0028     		cmp	r0, #0
 576 00f0 DDD1     		bne	.L59
 577              		.loc 1 382 0
 578 00f2 09A8     		add	r0, sp, #36
 579 00f4 28A9     		add	r1, sp, #160
 580 00f6 FFF7FEFF 		bl	mpi_cmp_mpi
 581              	.LVL87:
 582              		.loc 1 381 0
 583 00fa 0028     		cmp	r0, #0
 584 00fc D7D1     		bne	.L59
 585              		.loc 1 383 0
 586 00fe 15A8     		add	r0, sp, #84
 587 0100 34A9     		add	r1, sp, #208
 588 0102 FFF7FEFF 		bl	mpi_cmp_mpi
 589              	.LVL88:
 590              		.loc 1 382 0
 591 0106 0028     		cmp	r0, #0
 592 0108 D1D1     		bne	.L59
 593              		.loc 1 384 0
 594 010a 0CA8     		add	r0, sp, #48
 595 010c 2BA9     		add	r1, sp, #172
 596 010e FFF7FEFF 		bl	mpi_cmp_mpi
 597              	.LVL89:
 598              		.loc 1 383 0
 599 0112 0028     		cmp	r0, #0
 600 0114 CBD1     		bne	.L59
 601              		.loc 1 385 0
 602 0116 12A8     		add	r0, sp, #72
 603 0118 31A9     		add	r1, sp, #196
 604 011a FFF7FEFF 		bl	mpi_cmp_mpi
 605              	.LVL90:
 606              		.loc 1 384 0
 607 011e 0446     		mov	r4, r0
 608              	.LVL91:
 609 0120 0028     		cmp	r0, #0
 610 0122 C4D1     		bne	.L59
 611              		.loc 1 387 0
 612 0124 2146     		mov	r1, r4
 613 0126 0FA8     		add	r0, sp, #60
 614 0128 FFF7FEFF 		bl	mpi_get_bit
 615              	.LVL92:
 616 012c 2146     		mov	r1, r4
 617 012e 0746     		mov	r7, r0
 618 0130 2EA8     		add	r0, sp, #184
 619 0132 FFF7FEFF 		bl	mpi_get_bit
 620              	.LVL93:
 621              		.loc 1 385 0
 622 0136 8742     		cmp	r7, r0
 623 0138 B9D1     		bne	.L59
 624              	.LVL94:
 625              	.L55:
ARM GAS  C:\Users\jo\AppData\Local\Temp\ccRMLSMa.s 			page 12


 626              		.loc 1 395 0
 627 013a 21A8     		add	r0, sp, #132
 628 013c FFF7FEFF 		bl	ecp_group_free
 629              	.LVL95:
 630              		.loc 1 397 0
 631 0140 3378     		ldrb	r3, [r6]	@ zero_extendqisi2
 632 0142 8DF80430 		strb	r3, [sp, #4]
 633              		.loc 1 399 0
 634 0146 3378     		ldrb	r3, [r6]	@ zero_extendqisi2
 635 0148 002B     		cmp	r3, #0
 636 014a 00F0B780 		beq	.L84
 637              	.LVL96:
 638              	.LBE28:
 639              	.LBE27:
 640              		.loc 1 422 0
 641 014e 02A8     		add	r0, sp, #8
 642              	.LVL97:
 643 0150 FFF7FEFF 		bl	ecp_group_free
 644              	.LVL98:
 645 0154 05E0     		b	.L35
 646              	.LVL99:
 647              	.L81:
 648              	.LBE36:
 649              	.LBE40:
 650              		.loc 1 443 0
 651 0156 01A9     		add	r1, sp, #4
 652              	.LVL100:
 653 0158 FFF7FEFF 		bl	oid_get_ec_grp
 654              	.LVL101:
 655 015c 0028     		cmp	r0, #0
 656 015e 40F0A980 		bne	.L85
 657              	.LVL102:
 658              	.L35:
 659              		.loc 1 459 0
 660 0162 2B78     		ldrb	r3, [r5]	@ zero_extendqisi2
 661 0164 9DF80410 		ldrb	r1, [sp, #4]	@ zero_extendqisi2
 662 0168 13B1     		cbz	r3, .L61
 663              		.loc 1 459 0 is_stmt 0 discriminator 1
 664 016a 8B42     		cmp	r3, r1
 665 016c 40F09C80 		bne	.L67
 666              	.L61:
 667              		.loc 1 462 0 is_stmt 1
 668 0170 2846     		mov	r0, r5
 669 0172 FFF7FEFF 		bl	ecp_use_known_dp
 670              	.LVL103:
 671              		.loc 1 466 0
 672 0176 41B0     		add	sp, sp, #260
 673              		.cfi_remember_state
 674              		.cfi_def_cfa_offset 20
 675              		@ sp needed
 676 0178 F0BD     		pop	{r4, r5, r6, r7, pc}
 677              	.LVL104:
 678              	.L56:
 679              		.cfi_restore_state
 680              	.LBB41:
 681              	.LBB37:
 682              	.LBB31:
ARM GAS  C:\Users\jo\AppData\Local\Temp\ccRMLSMa.s 			page 13


 683              	.LBB29:
 684              		.loc 1 395 0
 685 017a 21A8     		add	r0, sp, #132
 686              	.LVL105:
 687 017c FFF7FEFF 		bl	ecp_group_free
 688              	.LVL106:
 689              		.loc 1 397 0
 690 0180 3378     		ldrb	r3, [r6]	@ zero_extendqisi2
 691 0182 8DF80430 		strb	r3, [sp, #4]
 692 0186 5EE7     		b	.L62
 693              	.LVL107:
 694              	.L83:
 695              	.LBE29:
 696              	.LBE31:
 697              	.LBB32:
 698              	.LBB23:
 699              		.loc 1 270 0
 700 0188 03A8     		add	r0, sp, #12
 701              	.LVL108:
 702 018a FFF7FEFF 		bl	mpi_msb
 703              	.LVL109:
 704              		.loc 1 272 0
 705 018e 009B     		ldr	r3, [sp]
 706              		.loc 1 270 0
 707 0190 1890     		str	r0, [sp, #96]
 708              		.loc 1 272 0
 709 0192 9F42     		cmp	r7, r3
 710 0194 40F09080 		bne	.L47
 711              		.loc 1 285 0
 712 0198 6846     		mov	r0, sp
 713 019a 3146     		mov	r1, r6
 714 019c 01AA     		add	r2, sp, #4
 715              	.LVL110:
 716 019e 3023     		movs	r3, #48
 717 01a0 FFF7FEFF 		bl	asn1_get_tag
 718              	.LVL111:
 719 01a4 0446     		mov	r4, r0
 720 01a6 0028     		cmp	r0, #0
 721 01a8 7FF44DAF 		bne	.L62
 722              		.loc 1 289 0
 723 01ac 9DE81800 		ldmia	sp, {r3, r4}
 724 01b0 1C44     		add	r4, r4, r3
 725              	.LVL112:
 726              		.loc 1 295 0
 727 01b2 2146     		mov	r1, r4
 728 01b4 6846     		mov	r0, sp
 729              	.LVL113:
 730 01b6 01AA     		add	r2, sp, #4
 731              	.LVL114:
 732 01b8 0423     		movs	r3, #4
 733 01ba FFF7FEFF 		bl	asn1_get_tag
 734              	.LVL115:
 735 01be 0028     		cmp	r0, #0
 736 01c0 7FF468AF 		bne	.L50
 737 01c4 06A8     		add	r0, sp, #24
 738              	.LVL116:
 739 01c6 9DE80600 		ldmia	sp, {r1, r2}
ARM GAS  C:\Users\jo\AppData\Local\Temp\ccRMLSMa.s 			page 14


 740 01ca FFF7FEFF 		bl	mpi_read_binary
 741              	.LVL117:
 742 01ce 0028     		cmp	r0, #0
 743 01d0 7FF460AF 		bne	.L50
 744              		.loc 1 301 0
 745 01d4 009F     		ldr	r7, [sp]
 746              	.LVL118:
 747 01d6 019B     		ldr	r3, [sp, #4]
 748              		.loc 1 303 0
 749 01d8 6846     		mov	r0, sp
 750              	.LVL119:
 751              		.loc 1 301 0
 752 01da 1F44     		add	r7, r7, r3
 753              		.loc 1 303 0
 754 01dc 2146     		mov	r1, r4
 755 01de 01AA     		add	r2, sp, #4
 756              	.LVL120:
 757 01e0 0423     		movs	r3, #4
 758              		.loc 1 301 0
 759 01e2 0097     		str	r7, [sp]
 760              		.loc 1 303 0
 761 01e4 FFF7FEFF 		bl	asn1_get_tag
 762              	.LVL121:
 763 01e8 0028     		cmp	r0, #0
 764 01ea 7FF453AF 		bne	.L50
 765 01ee 09A8     		add	r0, sp, #36
 766              	.LVL122:
 767 01f0 9DE80600 		ldmia	sp, {r1, r2}
 768 01f4 FFF7FEFF 		bl	mpi_read_binary
 769              	.LVL123:
 770 01f8 0028     		cmp	r0, #0
 771 01fa 7FF44BAF 		bne	.L50
 772              		.loc 1 309 0
 773 01fe 009F     		ldr	r7, [sp]
 774 0200 019B     		ldr	r3, [sp, #4]
 775              		.loc 1 312 0
 776 0202 6846     		mov	r0, sp
 777              	.LVL124:
 778              		.loc 1 309 0
 779 0204 1F44     		add	r7, r7, r3
 780              		.loc 1 312 0
 781 0206 2146     		mov	r1, r4
 782 0208 01AA     		add	r2, sp, #4
 783              	.LVL125:
 784 020a 0323     		movs	r3, #3
 785              		.loc 1 309 0
 786 020c 0097     		str	r7, [sp]
 787              		.loc 1 312 0
 788 020e FFF7FEFF 		bl	asn1_get_tag
 789              	.LVL126:
 790 0212 18B9     		cbnz	r0, .L46
 791              		.loc 1 313 0
 792 0214 9DE80C00 		ldmia	sp, {r2, r3}
 793 0218 1344     		add	r3, r3, r2
 794 021a 0093     		str	r3, [sp]
 795              	.L46:
 796              		.loc 1 315 0
ARM GAS  C:\Users\jo\AppData\Local\Temp\ccRMLSMa.s 			page 15


 797 021c 009B     		ldr	r3, [sp]
 798 021e 9C42     		cmp	r4, r3
 799 0220 4AD1     		bne	.L47
 800              		.loc 1 322 0
 801 0222 01AA     		add	r2, sp, #4
 802              	.LVL127:
 803 0224 6846     		mov	r0, sp
 804              	.LVL128:
 805 0226 3146     		mov	r1, r6
 806 0228 0423     		movs	r3, #4
 807 022a FFF7FEFF 		bl	asn1_get_tag
 808              	.LVL129:
 809 022e 0028     		cmp	r0, #0
 810 0230 7FF430AF 		bne	.L50
 811              		.loc 1 325 0
 812 0234 0CA9     		add	r1, sp, #48
 813 0236 02A8     		add	r0, sp, #8
 814              	.LVL130:
 815 0238 9DE80C00 		ldmia	sp, {r2, r3}
 816 023c FFF7FEFF 		bl	ecp_point_read_binary
 817              	.LVL131:
 818 0240 08B3     		cbz	r0, .L52
 819              		.loc 1 332 0
 820 0242 10F59D4F 		cmn	r0, #20096
 821 0246 31D1     		bne	.L38
 822              		.loc 1 333 0
 823 0248 009B     		ldr	r3, [sp]
 824 024a 1B78     		ldrb	r3, [r3]	@ zero_extendqisi2
 825              		.loc 1 332 0
 826 024c 023B     		subs	r3, r3, #2
 827 024e 012B     		cmp	r3, #1
 828 0250 2CD8     		bhi	.L38
 829              		.loc 1 334 0
 830 0252 03A8     		add	r0, sp, #12
 831              	.LVL132:
 832 0254 FFF7FEFF 		bl	mpi_size
 833              	.LVL133:
 834              		.loc 1 333 0
 835 0258 019B     		ldr	r3, [sp, #4]
 836              		.loc 1 334 0
 837 025a 411C     		adds	r1, r0, #1
 838              		.loc 1 333 0
 839 025c 9942     		cmp	r1, r3
 840              		.loc 1 334 0
 841 025e 0246     		mov	r2, r0
 842              		.loc 1 333 0
 843 0260 24D1     		bne	.L38
 844              		.loc 1 335 0
 845 0262 0099     		ldr	r1, [sp]
 846 0264 0CA8     		add	r0, sp, #48
 847 0266 0131     		adds	r1, r1, #1
 848 0268 FFF7FEFF 		bl	mpi_read_binary
 849              	.LVL134:
 850              		.loc 1 334 0
 851 026c F0B9     		cbnz	r0, .L38
 852              		.loc 1 336 0
 853 026e 009B     		ldr	r3, [sp]
ARM GAS  C:\Users\jo\AppData\Local\Temp\ccRMLSMa.s 			page 16


 854 0270 1978     		ldrb	r1, [r3]	@ zero_extendqisi2
 855 0272 0FA8     		add	r0, sp, #60
 856 0274 0239     		subs	r1, r1, #2
 857 0276 FFF7FEFF 		bl	mpi_lset
 858              	.LVL135:
 859              		.loc 1 335 0
 860 027a B8B9     		cbnz	r0, .L38
 861              		.loc 1 337 0
 862 027c 12A8     		add	r0, sp, #72
 863 027e 0121     		movs	r1, #1
 864 0280 FFF7FEFF 		bl	mpi_lset
 865              	.LVL136:
 866              		.loc 1 336 0
 867 0284 90B9     		cbnz	r0, .L38
 868              	.L52:
 869              		.loc 1 343 0
 870 0286 9DE80C00 		ldmia	sp, {r2, r3}
 871              		.loc 1 348 0
 872 028a 3146     		mov	r1, r6
 873              		.loc 1 343 0
 874 028c 1344     		add	r3, r3, r2
 875              		.loc 1 348 0
 876 028e 6846     		mov	r0, sp
 877 0290 15AA     		add	r2, sp, #84
 878              		.loc 1 343 0
 879 0292 0093     		str	r3, [sp]
 880              		.loc 1 348 0
 881 0294 FFF7FEFF 		bl	asn1_get_mpi
 882              	.LVL137:
 883 0298 0028     		cmp	r0, #0
 884 029a 7FF4FBAE 		bne	.L50
 885              		.loc 1 351 0
 886 029e 15A8     		add	r0, sp, #84
 887              	.LVL138:
 888 02a0 FFF7FEFF 		bl	mpi_msb
 889              	.LVL139:
 890 02a4 1990     		str	r0, [sp, #100]
 891 02a6 F9E6     		b	.L53
 892              	.LVL140:
 893              	.L67:
 894              	.LBE23:
 895              	.LBE32:
 896              	.LBE37:
 897              	.LBE41:
 898              		.loc 1 460 0
 899 02a8 0648     		ldr	r0, .L86+4
 900 02aa D0E6     		b	.L74
 901              	.LVL141:
 902              	.L38:
 903              	.LBB42:
 904              	.LBB38:
 905              	.LBB33:
 906              	.LBB24:
 907              		.loc 1 233 0
 908 02ac 054C     		ldr	r4, .L86+4
 909 02ae CAE6     		b	.L62
 910              	.LVL142:
ARM GAS  C:\Users\jo\AppData\Local\Temp\ccRMLSMa.s 			page 17


 911              	.L66:
 912              		.loc 1 261 0
 913 02b0 054C     		ldr	r4, .L86+8
 914 02b2 C8E6     		b	.L62
 915              	.LVL143:
 916              	.L85:
 917              	.LBE24:
 918              	.LBE33:
 919              	.LBE38:
 920              	.LBE42:
 921              		.loc 1 444 0
 922 02b4 0548     		ldr	r0, .L86+12
 923 02b6 CAE6     		b	.L74
 924              	.LVL144:
 925              	.L47:
 926              	.LBB43:
 927              	.LBB39:
 928              	.LBB34:
 929              	.LBB25:
 930              		.loc 1 273 0
 931 02b8 054C     		ldr	r4, .L86+16
 932 02ba C4E6     		b	.L62
 933              	.LVL145:
 934              	.L84:
 935              	.LBE25:
 936              	.LBE34:
 937              	.LBB35:
 938              	.LBB30:
 939              		.loc 1 400 0
 940 02bc 054C     		ldr	r4, .L86+20
 941 02be C2E6     		b	.L62
 942              	.L87:
 943              		.align	2
 944              	.L86:
 945 02c0 00000000 		.word	.LC0
 946 02c4 00D3FFFF 		.word	-11520
 947 02c8 80D6FFFF 		.word	-10624
 948 02cc 00D6FFFF 		.word	-10752
 949 02d0 9AD2FFFF 		.word	-11622
 950 02d4 80B1FFFF 		.word	-20096
 951              	.LBE30:
 952              	.LBE35:
 953              	.LBE39:
 954              	.LBE43:
 955              		.cfi_endproc
 956              	.LFE19:
 957              		.size	pk_use_ecparams, .-pk_use_ecparams
 958 02d8 AFF30080 		.section	.text.pk_parse_key_sec1_der,"ax",%progbits
 958      AFF30080 
 959              		.align	2
 960              		.p2align 4,,15
 961              		.thumb
 962              		.thumb_func
 963              		.type	pk_parse_key_sec1_der, %function
 964              	pk_parse_key_sec1_der:
 965              	.LFB25:
 966              		.loc 1 720 0
ARM GAS  C:\Users\jo\AppData\Local\Temp\ccRMLSMa.s 			page 18


 967              		.cfi_startproc
 968              		@ args = 0, pretend = 0, frame = 24
 969              		@ frame_needed = 0, uses_anonymous_args = 0
 970              	.LVL146:
 971 0000 2DE9F041 		push	{r4, r5, r6, r7, r8, lr}
 972              		.cfi_def_cfa_offset 24
 973              		.cfi_offset 4, -24
 974              		.cfi_offset 5, -20
 975              		.cfi_offset 6, -16
 976              		.cfi_offset 7, -12
 977              		.cfi_offset 8, -8
 978              		.cfi_offset 14, -4
 979 0004 88B0     		sub	sp, sp, #32
 980              		.cfi_def_cfa_offset 56
 981              		.loc 1 725 0
 982 0006 08AE     		add	r6, sp, #32
 983              		.loc 1 720 0
 984 0008 0546     		mov	r5, r0
 985              		.loc 1 725 0
 986 000a 46F8101D 		str	r1, [r6, #-16]!
 987              	.LVL147:
 988              		.loc 1 739 0
 989 000e 3023     		movs	r3, #48
 990 0010 1144     		add	r1, r1, r2
 991              	.LVL148:
 992 0012 3046     		mov	r0, r6
 993              	.LVL149:
 994 0014 03AA     		add	r2, sp, #12
 995              	.LVL150:
 996 0016 FFF7FEFF 		bl	asn1_get_tag
 997              	.LVL151:
 998 001a 20B1     		cbz	r0, .L138
 999              	.LVL152:
 1000              	.L133:
 1001              		.loc 1 796 0
 1002 001c A0F53450 		sub	r0, r0, #11520
 1003              	.LVL153:
 1004              	.L126:
 1005              		.loc 1 836 0
 1006 0020 08B0     		add	sp, sp, #32
 1007              		.cfi_remember_state
 1008              		.cfi_def_cfa_offset 24
 1009              		@ sp needed
 1010 0022 BDE8F081 		pop	{r4, r5, r6, r7, r8, pc}
 1011              	.LVL154:
 1012              	.L138:
 1013              		.cfi_restore_state
 1014              		.loc 1 745 0
 1015 0026 049F     		ldr	r7, [sp, #16]
 1016 0028 039B     		ldr	r3, [sp, #12]
 1017 002a 1F44     		add	r7, r7, r3
 1018              	.LVL155:
 1019              		.loc 1 747 0
 1020 002c 3946     		mov	r1, r7
 1021 002e 3046     		mov	r0, r6
 1022              	.LVL156:
 1023 0030 02AA     		add	r2, sp, #8
ARM GAS  C:\Users\jo\AppData\Local\Temp\ccRMLSMa.s 			page 19


 1024 0032 FFF7FEFF 		bl	asn1_get_int
 1025              	.LVL157:
 1026 0036 0028     		cmp	r0, #0
 1027 0038 F0D1     		bne	.L133
 1028              		.loc 1 750 0
 1029 003a 029B     		ldr	r3, [sp, #8]
 1030 003c 012B     		cmp	r3, #1
 1031 003e 48D1     		bne	.L108
 1032              		.loc 1 753 0
 1033 0040 3046     		mov	r0, r6
 1034              	.LVL158:
 1035 0042 3946     		mov	r1, r7
 1036 0044 03AA     		add	r2, sp, #12
 1037 0046 0423     		movs	r3, #4
 1038 0048 FFF7FEFF 		bl	asn1_get_tag
 1039              	.LVL159:
 1040 004c 0028     		cmp	r0, #0
 1041 004e E5D1     		bne	.L133
 1042              		.loc 1 756 0
 1043 0050 05F17C08 		add	r8, r5, #124
 1044 0054 4046     		mov	r0, r8
 1045              	.LVL160:
 1046 0056 0499     		ldr	r1, [sp, #16]
 1047 0058 039A     		ldr	r2, [sp, #12]
 1048 005a FFF7FEFF 		bl	mpi_read_binary
 1049              	.LVL161:
 1050 005e 0446     		mov	r4, r0
 1051 0060 0028     		cmp	r0, #0
 1052 0062 38D1     		bne	.L107
 1053              		.loc 1 762 0
 1054 0064 049A     		ldr	r2, [sp, #16]
 1055 0066 039B     		ldr	r3, [sp, #12]
 1056 0068 1344     		add	r3, r3, r2
 1057              		.loc 1 765 0
 1058 006a 9F42     		cmp	r7, r3
 1059              		.loc 1 762 0
 1060 006c 0493     		str	r3, [sp, #16]
 1061              	.LVL162:
 1062              		.loc 1 765 0
 1063 006e 16D0     		beq	.L130
 1064              		.loc 1 770 0
 1065 0070 3046     		mov	r0, r6
 1066              	.LVL163:
 1067 0072 3946     		mov	r1, r7
 1068 0074 03AA     		add	r2, sp, #12
 1069 0076 A023     		movs	r3, #160
 1070 0078 FFF7FEFF 		bl	asn1_get_tag
 1071              	.LVL164:
 1072 007c 0446     		mov	r4, r0
 1073 007e 80B3     		cbz	r0, .L139
 1074              		.loc 1 780 0
 1075 0080 10F1620F 		cmn	r0, #98
 1076 0084 27D1     		bne	.L107
 1077              	.L100:
 1078              		.loc 1 790 0
 1079 0086 3946     		mov	r1, r7
 1080 0088 3046     		mov	r0, r6
ARM GAS  C:\Users\jo\AppData\Local\Temp\ccRMLSMa.s 			page 20


 1081              	.LVL165:
 1082 008a 03AA     		add	r2, sp, #12
 1083 008c A123     		movs	r3, #161
 1084 008e FFF7FEFF 		bl	asn1_get_tag
 1085              	.LVL166:
 1086 0092 0446     		mov	r4, r0
 1087 0094 0028     		cmp	r0, #0
 1088 0096 42D0     		beq	.L140
 1089              		.loc 1 814 0
 1090 0098 10F1620F 		cmn	r0, #98
 1091 009c 1BD1     		bne	.L107
 1092              	.L130:
 1093 009e 05F18804 		add	r4, r5, #136
 1094              	.LVL167:
 1095              	.L94:
 1096              		.loc 1 821 0
 1097 00a2 0023     		movs	r3, #0
 1098 00a4 2146     		mov	r1, r4
 1099 00a6 0093     		str	r3, [sp]
 1100 00a8 0193     		str	r3, [sp, #4]
 1101 00aa 2846     		mov	r0, r5
 1102 00ac 4246     		mov	r2, r8
 1103 00ae 05F12803 		add	r3, r5, #40
 1104 00b2 FFF7FEFF 		bl	ecp_mul
 1105              	.LVL168:
 1106 00b6 0446     		mov	r4, r0
 1107 00b8 68B9     		cbnz	r0, .L107
 1108              	.LVL169:
 1109              	.L105:
 1110              		.loc 1 829 0
 1111 00ba 4146     		mov	r1, r8
 1112 00bc 2846     		mov	r0, r5
 1113 00be FFF7FEFF 		bl	ecp_check_privkey
 1114              	.LVL170:
 1115 00c2 0446     		mov	r4, r0
 1116 00c4 0028     		cmp	r0, #0
 1117 00c6 ABD0     		beq	.L126
 1118              	.LVL171:
 1119              	.L135:
 1120              		.loc 1 831 0
 1121 00c8 2846     		mov	r0, r5
 1122 00ca FFF7FEFF 		bl	ecp_keypair_free
 1123              	.LVL172:
 1124              		.loc 1 832 0
 1125 00ce 2046     		mov	r0, r4
 1126 00d0 A6E7     		b	.L126
 1127              	.LVL173:
 1128              	.L108:
 1129              		.loc 1 751 0
 1130 00d2 2A48     		ldr	r0, .L144
 1131              	.LVL174:
 1132 00d4 A4E7     		b	.L126
 1133              	.LVL175:
 1134              	.L107:
 1135              		.loc 1 825 0
 1136 00d6 2846     		mov	r0, r5
 1137              	.LVL176:
ARM GAS  C:\Users\jo\AppData\Local\Temp\ccRMLSMa.s 			page 21


 1138 00d8 FFF7FEFF 		bl	ecp_keypair_free
 1139              	.LVL177:
 1140              		.loc 1 826 0
 1141 00dc A4F53450 		sub	r0, r4, #11520
 1142 00e0 9EE7     		b	.L126
 1143              	.LVL178:
 1144              	.L139:
 1145              		.loc 1 773 0
 1146 00e2 049A     		ldr	r2, [sp, #16]
 1147 00e4 039C     		ldr	r4, [sp, #12]
 1148              	.LBB48:
 1149              	.LBB49:
 1150              		.loc 1 173 0
 1151 00e6 1378     		ldrb	r3, [r2]	@ zero_extendqisi2
 1152 00e8 0593     		str	r3, [sp, #20]
 1153              		.loc 1 174 0
 1154 00ea 062B     		cmp	r3, #6
 1155              	.LBE49:
 1156              	.LBE48:
 1157              		.loc 1 773 0
 1158 00ec 1444     		add	r4, r4, r2
 1159              	.LVL179:
 1160              	.LBB52:
 1161              	.LBB50:
 1162              		.loc 1 174 0
 1163 00ee 01D0     		beq	.L96
 1164              		.loc 1 176 0
 1165 00f0 302B     		cmp	r3, #48
 1166 00f2 39D1     		bne	.L109
 1167              	.L96:
 1168              		.loc 1 184 0
 1169 00f4 3046     		mov	r0, r6
 1170              	.LVL180:
 1171 00f6 2146     		mov	r1, r4
 1172 00f8 06AA     		add	r2, sp, #24
 1173 00fa FFF7FEFF 		bl	asn1_get_tag
 1174              	.LVL181:
 1175 00fe 58BB     		cbnz	r0, .L141
 1176              		.loc 1 189 0
 1177 0100 049A     		ldr	r2, [sp, #16]
 1178              		.loc 1 190 0
 1179 0102 069B     		ldr	r3, [sp, #24]
 1180              		.loc 1 189 0
 1181 0104 0792     		str	r2, [sp, #28]
 1182              		.loc 1 190 0
 1183 0106 1344     		add	r3, r3, r2
 1184              		.loc 1 192 0
 1185 0108 9C42     		cmp	r4, r3
 1186              		.loc 1 190 0
 1187 010a 0493     		str	r3, [sp, #16]
 1188              		.loc 1 192 0
 1189 010c 2AD1     		bne	.L142
 1190              	.LVL182:
 1191              	.L101:
 1192              	.LBE50:
 1193              	.LBE52:
 1194              		.loc 1 773 0
ARM GAS  C:\Users\jo\AppData\Local\Temp\ccRMLSMa.s 			page 22


 1195 010e 05A8     		add	r0, sp, #20
 1196              	.LVL183:
 1197 0110 2946     		mov	r1, r5
 1198 0112 FFF7FEFF 		bl	pk_use_ecparams
 1199              	.LVL184:
 1200 0116 0446     		mov	r4, r0
 1201 0118 0028     		cmp	r0, #0
 1202 011a B4D0     		beq	.L100
 1203 011c D4E7     		b	.L135
 1204              	.LVL185:
 1205              	.L140:
 1206              		.loc 1 793 0
 1207 011e 049C     		ldr	r4, [sp, #16]
 1208 0120 039B     		ldr	r3, [sp, #12]
 1209 0122 1C44     		add	r4, r4, r3
 1210              	.LVL186:
 1211              		.loc 1 795 0
 1212 0124 3046     		mov	r0, r6
 1213              	.LVL187:
 1214 0126 03AA     		add	r2, sp, #12
 1215 0128 2146     		mov	r1, r4
 1216 012a FFF7FEFF 		bl	asn1_get_bitstring_null
 1217              	.LVL188:
 1218 012e 0028     		cmp	r0, #0
 1219 0130 7FF474AF 		bne	.L133
 1220              		.loc 1 798 0
 1221 0134 049A     		ldr	r2, [sp, #16]
 1222 0136 039B     		ldr	r3, [sp, #12]
 1223 0138 D618     		adds	r6, r2, r3
 1224 013a A642     		cmp	r6, r4
 1225 013c 10D1     		bne	.L111
 1226              	.LVL189:
 1227              	.LBB53:
 1228              	.LBB54:
 1229              		.loc 1 480 0
 1230 013e 05F18804 		add	r4, r5, #136
 1231              	.LVL190:
 1232 0142 2146     		mov	r1, r4
 1233 0144 2846     		mov	r0, r5
 1234              	.LVL191:
 1235 0146 FFF7FEFF 		bl	ecp_point_read_binary
 1236              	.LVL192:
 1237 014a 78B1     		cbz	r0, .L143
 1238              		.loc 1 489 0
 1239 014c 0496     		str	r6, [sp, #16]
 1240              	.L106:
 1241              	.LBE54:
 1242              	.LBE53:
 1243              		.loc 1 810 0
 1244 014e 10F59D4F 		cmn	r0, #20096
 1245 0152 A6D0     		beq	.L94
 1246              		.loc 1 811 0
 1247 0154 0A48     		ldr	r0, .L144+4
 1248              	.LVL193:
 1249 0156 63E7     		b	.L126
 1250              	.LVL194:
 1251              	.L141:
ARM GAS  C:\Users\jo\AppData\Local\Temp\ccRMLSMa.s 			page 23


 1252              		.loc 1 773 0
 1253 0158 B0F53454 		subs	r4, r0, #11520
 1254              	.LVL195:
 1255 015c B4D1     		bne	.L135
 1256 015e D6E7     		b	.L101
 1257              	.LVL196:
 1258              	.L111:
 1259              		.loc 1 799 0
 1260 0160 0848     		ldr	r0, .L144+8
 1261              	.LVL197:
 1262 0162 5DE7     		b	.L126
 1263              	.LVL198:
 1264              	.L142:
 1265              	.LBB56:
 1266              	.LBB51:
 1267              		.loc 1 193 0
 1268 0164 074C     		ldr	r4, .L144+8
 1269              	.LVL199:
 1270 0166 AFE7     		b	.L135
 1271              	.LVL200:
 1272              	.L109:
 1273              		.loc 1 180 0
 1274 0168 074C     		ldr	r4, .L144+12
 1275              	.LVL201:
 1276 016a ADE7     		b	.L135
 1277              	.LVL202:
 1278              	.L143:
 1279              	.LBE51:
 1280              	.LBE56:
 1281              	.LBB57:
 1282              	.LBB55:
 1283              		.loc 1 483 0
 1284 016c 2846     		mov	r0, r5
 1285              	.LVL203:
 1286 016e 2146     		mov	r1, r4
 1287 0170 FFF7FEFF 		bl	ecp_check_pubkey
 1288              	.LVL204:
 1289              		.loc 1 489 0
 1290 0174 0496     		str	r6, [sp, #16]
 1291              	.LBE55:
 1292              	.LBE57:
 1293              		.loc 1 802 0
 1294 0176 0028     		cmp	r0, #0
 1295 0178 9FD0     		beq	.L105
 1296 017a E8E7     		b	.L106
 1297              	.L145:
 1298              		.align	2
 1299              	.L144:
 1300 017c 80D2FFFF 		.word	-11648
 1301 0180 00D3FFFF 		.word	-11520
 1302 0184 9AD2FFFF 		.word	-11622
 1303 0188 9ED2FFFF 		.word	-11618
 1304              		.cfi_endproc
 1305              	.LFE25:
 1306              		.size	pk_parse_key_sec1_der, .-pk_parse_key_sec1_der
 1307 018c AFF30080 		.section	.text.pk_parse_key_pkcs8_unencrypted_der,"ax",%progbits
 1308              		.align	2
ARM GAS  C:\Users\jo\AppData\Local\Temp\ccRMLSMa.s 			page 24


 1309              		.p2align 4,,15
 1310              		.thumb
 1311              		.thumb_func
 1312              		.type	pk_parse_key_pkcs8_unencrypted_der, %function
 1313              	pk_parse_key_pkcs8_unencrypted_der:
 1314              	.LFB26:
 1315              		.loc 1 846 0
 1316              		.cfi_startproc
 1317              		@ args = 0, pretend = 0, frame = 32
 1318              		@ frame_needed = 0, uses_anonymous_args = 0
 1319              	.LVL205:
 1320 0000 70B5     		push	{r4, r5, r6, lr}
 1321              		.cfi_def_cfa_offset 16
 1322              		.cfi_offset 4, -16
 1323              		.cfi_offset 5, -12
 1324              		.cfi_offset 6, -8
 1325              		.cfi_offset 14, -4
 1326 0002 88B0     		sub	sp, sp, #32
 1327              		.cfi_def_cfa_offset 48
 1328              		.loc 1 846 0
 1329 0004 0C46     		mov	r4, r1
 1330 0006 0646     		mov	r6, r0
 1331              		.loc 1 871 0
 1332 0008 1144     		add	r1, r1, r2
 1333              	.LVL206:
 1334              		.loc 1 852 0
 1335 000a 0025     		movs	r5, #0
 1336              		.loc 1 871 0
 1337 000c 03AA     		add	r2, sp, #12
 1338              	.LVL207:
 1339 000e 04A8     		add	r0, sp, #16
 1340              	.LVL208:
 1341 0010 3023     		movs	r3, #48
 1342              		.loc 1 850 0
 1343 0012 0494     		str	r4, [sp, #16]
 1344              		.loc 1 852 0
 1345 0014 8DF80750 		strb	r5, [sp, #7]
 1346              		.loc 1 871 0
 1347 0018 FFF7FEFF 		bl	asn1_get_tag
 1348              	.LVL209:
 1349 001c 20B1     		cbz	r0, .L167
 1350              	.LVL210:
 1351              	.L166:
 1352              		.loc 1 889 0
 1353 001e A0F53454 		sub	r4, r0, #11520
 1354              	.LVL211:
 1355              	.L148:
 1356              		.loc 1 925 0
 1357 0022 2046     		mov	r0, r4
 1358 0024 08B0     		add	sp, sp, #32
 1359              		.cfi_remember_state
 1360              		.cfi_def_cfa_offset 16
 1361              		@ sp needed
 1362 0026 70BD     		pop	{r4, r5, r6, pc}
 1363              	.LVL212:
 1364              	.L167:
 1365              		.cfi_restore_state
ARM GAS  C:\Users\jo\AppData\Local\Temp\ccRMLSMa.s 			page 25


 1366              		.loc 1 877 0
 1367 0028 049D     		ldr	r5, [sp, #16]
 1368 002a 039B     		ldr	r3, [sp, #12]
 1369 002c 1D44     		add	r5, r5, r3
 1370              	.LVL213:
 1371              		.loc 1 879 0
 1372 002e 2946     		mov	r1, r5
 1373 0030 04A8     		add	r0, sp, #16
 1374              	.LVL214:
 1375 0032 02AA     		add	r2, sp, #8
 1376 0034 FFF7FEFF 		bl	asn1_get_int
 1377              	.LVL215:
 1378 0038 0028     		cmp	r0, #0
 1379 003a F0D1     		bne	.L166
 1380              		.loc 1 882 0
 1381 003c 029C     		ldr	r4, [sp, #8]
 1382              	.LVL216:
 1383 003e 1CB1     		cbz	r4, .L168
 1384              		.loc 1 883 0
 1385 0040 264C     		ldr	r4, .L171
 1386              		.loc 1 925 0
 1387 0042 2046     		mov	r0, r4
 1388              	.LVL217:
 1389 0044 08B0     		add	sp, sp, #32
 1390              		.cfi_remember_state
 1391              		.cfi_def_cfa_offset 16
 1392              		@ sp needed
 1393 0046 70BD     		pop	{r4, r5, r6, pc}
 1394              	.LVL218:
 1395              	.L168:
 1396              		.cfi_restore_state
 1397              		.loc 1 885 0
 1398 0048 05AB     		add	r3, sp, #20
 1399 004a 04A8     		add	r0, sp, #16
 1400              	.LVL219:
 1401 004c 2946     		mov	r1, r5
 1402 004e 0DF10702 		add	r2, sp, #7
 1403 0052 FFF7FEFF 		bl	pk_get_pk_alg
 1404              	.LVL220:
 1405 0056 0028     		cmp	r0, #0
 1406 0058 E1D1     		bne	.L166
 1407              		.loc 1 888 0
 1408 005a 04A8     		add	r0, sp, #16
 1409              	.LVL221:
 1410 005c 2946     		mov	r1, r5
 1411 005e 03AA     		add	r2, sp, #12
 1412 0060 0423     		movs	r3, #4
 1413 0062 FFF7FEFF 		bl	asn1_get_tag
 1414              	.LVL222:
 1415 0066 0028     		cmp	r0, #0
 1416 0068 D9D1     		bne	.L166
 1417              		.loc 1 891 0
 1418 006a 039B     		ldr	r3, [sp, #12]
 1419 006c 3BB3     		cbz	r3, .L157
 1420              		.loc 1 895 0
 1421 006e 9DF80700 		ldrb	r0, [sp, #7]	@ zero_extendqisi2
 1422              	.LVL223:
ARM GAS  C:\Users\jo\AppData\Local\Temp\ccRMLSMa.s 			page 26


 1423 0072 FFF7FEFF 		bl	pk_info_from_type
 1424              	.LVL224:
 1425 0076 00B3     		cbz	r0, .L154
 1426              		.loc 1 898 0
 1427 0078 0146     		mov	r1, r0
 1428 007a 3046     		mov	r0, r6
 1429              	.LVL225:
 1430 007c FFF7FEFF 		bl	pk_init_ctx
 1431              	.LVL226:
 1432 0080 C8B9     		cbnz	r0, .L158
 1433              		.loc 1 902 0
 1434 0082 9DF80730 		ldrb	r3, [sp, #7]	@ zero_extendqisi2
 1435 0086 012B     		cmp	r3, #1
 1436 0088 1BD0     		beq	.L169
 1437              		.loc 1 912 0
 1438 008a 023B     		subs	r3, r3, #2
 1439 008c 012B     		cmp	r3, #1
 1440 008e 14D8     		bhi	.L154
 1441              		.loc 1 914 0
 1442 0090 05A8     		add	r0, sp, #20
 1443              	.LVL227:
 1444 0092 7168     		ldr	r1, [r6, #4]
 1445 0094 FFF7FEFF 		bl	pk_use_ecparams
 1446              	.LVL228:
 1447 0098 0546     		mov	r5, r0
 1448              	.LVL229:
 1449 009a 38B9     		cbnz	r0, .L155
 1450              		.loc 1 914 0 is_stmt 0 discriminator 1
 1451 009c 7068     		ldr	r0, [r6, #4]
 1452              	.LVL230:
 1453 009e 0499     		ldr	r1, [sp, #16]
 1454 00a0 039A     		ldr	r2, [sp, #12]
 1455 00a2 FFF7FEFF 		bl	pk_parse_key_sec1_der
 1456              	.LVL231:
 1457 00a6 0546     		mov	r5, r0
 1458 00a8 0028     		cmp	r0, #0
 1459 00aa BAD0     		beq	.L148
 1460              	.L155:
 1461              		.loc 1 917 0 is_stmt 1
 1462 00ac 3046     		mov	r0, r6
 1463              	.LVL232:
 1464 00ae FFF7FEFF 		bl	pk_free
 1465              	.LVL233:
 1466              		.loc 1 918 0
 1467 00b2 2C46     		mov	r4, r5
 1468 00b4 B5E7     		b	.L148
 1469              	.LVL234:
 1470              	.L158:
 1471 00b6 0446     		mov	r4, r0
 1472 00b8 B3E7     		b	.L148
 1473              	.LVL235:
 1474              	.L154:
 1475              		.loc 1 896 0
 1476 00ba 094C     		ldr	r4, .L171+4
 1477 00bc B1E7     		b	.L148
 1478              	.LVL236:
 1479              	.L157:
ARM GAS  C:\Users\jo\AppData\Local\Temp\ccRMLSMa.s 			page 27


 1480              		.loc 1 892 0
 1481 00be 094C     		ldr	r4, .L171+8
 1482 00c0 AFE7     		b	.L148
 1483              	.L169:
 1484              		.loc 1 904 0
 1485 00c2 7068     		ldr	r0, [r6, #4]
 1486              	.LVL237:
 1487 00c4 0499     		ldr	r1, [sp, #16]
 1488 00c6 039A     		ldr	r2, [sp, #12]
 1489 00c8 FFF7FEFF 		bl	pk_parse_key_pkcs1_der
 1490              	.LVL238:
 1491 00cc 0446     		mov	r4, r0
 1492 00ce 08B9     		cbnz	r0, .L170
 1493              		.loc 1 924 0
 1494 00d0 0024     		movs	r4, #0
 1495 00d2 A6E7     		b	.L148
 1496              	.L170:
 1497              		.loc 1 906 0
 1498 00d4 3046     		mov	r0, r6
 1499              	.LVL239:
 1500 00d6 FFF7FEFF 		bl	pk_free
 1501              	.LVL240:
 1502              		.loc 1 907 0
 1503 00da A2E7     		b	.L148
 1504              	.L172:
 1505              		.align	2
 1506              	.L171:
 1507 00dc 80D2FFFF 		.word	-11648
 1508 00e0 80D3FFFF 		.word	-11392
 1509 00e4 A0D2FFFF 		.word	-11616
 1510              		.cfi_endproc
 1511              	.LFE26:
 1512              		.size	pk_parse_key_pkcs8_unencrypted_der, .-pk_parse_key_pkcs8_unencrypted_der
 1513 00e8 AFF30080 		.section	.text.unlikely.pk_parse_key_pkcs8_encrypted_der,"ax",%progbits
 1513      AFF30080 
 1514              		.align	2
 1515              		.thumb
 1516              		.thumb_func
 1517              		.type	pk_parse_key_pkcs8_encrypted_der, %function
 1518              	pk_parse_key_pkcs8_encrypted_der:
 1519              	.LFB27:
 1520              		.loc 1 935 0
 1521              		.cfi_startproc
 1522              		@ args = 4, pretend = 0, frame = 2088
 1523              		@ frame_needed = 0, uses_anonymous_args = 0
 1524              	.LVL241:
 1525 0000 F0B5     		push	{r4, r5, r6, r7, lr}
 1526              		.cfi_def_cfa_offset 20
 1527              		.cfi_offset 4, -20
 1528              		.cfi_offset 5, -16
 1529              		.cfi_offset 6, -12
 1530              		.cfi_offset 7, -8
 1531              		.cfi_offset 14, -4
 1532 0002 ADF6440D 		subw	sp, sp, #2116
 1533              		.cfi_def_cfa_offset 2136
 1534              		.loc 1 935 0
 1535 0006 0C46     		mov	r4, r1
ARM GAS  C:\Users\jo\AppData\Local\Temp\ccRMLSMa.s 			page 28


 1536 0008 1646     		mov	r6, r2
 1537              		.loc 1 946 0
 1538 000a 0021     		movs	r1, #0
 1539              	.LVL242:
 1540              		.loc 1 935 0
 1541 000c 0546     		mov	r5, r0
 1542              		.loc 1 946 0
 1543 000e 4FF40062 		mov	r2, #2048
 1544              	.LVL243:
 1545 0012 10A8     		add	r0, sp, #64
 1546              	.LVL244:
 1547              		.loc 1 935 0
 1548 0014 1F46     		mov	r7, r3
 1549              		.loc 1 946 0
 1550 0016 FFF7FEFF 		bl	memset
 1551              	.LVL245:
 1552              		.loc 1 951 0
 1553 001a DDF85838 		ldr	r3, [sp, #2136]
 1554              		.loc 1 948 0
 1555 001e 0994     		str	r4, [sp, #36]
 1556              		.loc 1 949 0
 1557 0020 A119     		adds	r1, r4, r6
 1558              	.LVL246:
 1559              		.loc 1 951 0
 1560 0022 002B     		cmp	r3, #0
 1561 0024 71D0     		beq	.L182
 1562              		.loc 1 968 0
 1563 0026 08AA     		add	r2, sp, #32
 1564 0028 09A8     		add	r0, sp, #36
 1565 002a 3023     		movs	r3, #48
 1566 002c FFF7FEFF 		bl	asn1_get_tag
 1567              	.LVL247:
 1568 0030 80B9     		cbnz	r0, .L202
 1569              		.loc 1 974 0
 1570 0032 089B     		ldr	r3, [sp, #32]
 1571 0034 099E     		ldr	r6, [sp, #36]
 1572              	.LVL248:
 1573 0036 1E44     		add	r6, r6, r3
 1574              	.LVL249:
 1575              		.loc 1 976 0
 1576 0038 3146     		mov	r1, r6
 1577 003a 0AAA     		add	r2, sp, #40
 1578 003c 0DAB     		add	r3, sp, #52
 1579 003e 09A8     		add	r0, sp, #36
 1580              	.LVL250:
 1581 0040 FFF7FEFF 		bl	asn1_get_alg
 1582              	.LVL251:
 1583 0044 30B9     		cbnz	r0, .L202
 1584              		.loc 1 979 0
 1585 0046 3146     		mov	r1, r6
 1586 0048 09A8     		add	r0, sp, #36
 1587              	.LVL252:
 1588 004a 08AA     		add	r2, sp, #32
 1589 004c 0423     		movs	r3, #4
 1590 004e FFF7FEFF 		bl	asn1_get_tag
 1591              	.LVL253:
 1592 0052 10B1     		cbz	r0, .L177
ARM GAS  C:\Users\jo\AppData\Local\Temp\ccRMLSMa.s 			page 29


 1593              	.LVL254:
 1594              	.L202:
 1595              		.loc 1 980 0
 1596 0054 A0F53450 		sub	r0, r0, #11520
 1597              	.LVL255:
 1598 0058 64E0     		b	.L199
 1599              	.LVL256:
 1600              	.L177:
 1601              		.loc 1 982 0
 1602 005a 089B     		ldr	r3, [sp, #32]
 1603 005c B3F5006F 		cmp	r3, #2048
 1604 0060 55D8     		bhi	.L183
 1605              		.loc 1 989 0
 1606 0062 0DF11F01 		add	r1, sp, #31
 1607 0066 0DF11E02 		add	r2, sp, #30
 1608 006a 0AA8     		add	r0, sp, #40
 1609              	.LVL257:
 1610 006c FFF7FEFF 		bl	oid_get_pkcs12_pbe_alg
 1611              	.LVL258:
 1612 0070 0146     		mov	r1, r0
 1613 0072 B0B9     		cbnz	r0, .L178
 1614              		.loc 1 991 0
 1615 0074 0898     		ldr	r0, [sp, #32]
 1616 0076 0390     		str	r0, [sp, #12]
 1617 0078 DDF85808 		ldr	r0, [sp, #2136]
 1618 007c 099E     		ldr	r6, [sp, #36]
 1619              	.LVL259:
 1620 007e 0190     		str	r0, [sp, #4]
 1621 0080 10A8     		add	r0, sp, #64
 1622 0082 0490     		str	r0, [sp, #16]
 1623 0084 9DF81E20 		ldrb	r2, [sp, #30]	@ zero_extendqisi2
 1624 0088 9DF81F30 		ldrb	r3, [sp, #31]	@ zero_extendqisi2
 1625 008c 0296     		str	r6, [sp, #8]
 1626 008e 0097     		str	r7, [sp]
 1627 0090 0DA8     		add	r0, sp, #52
 1628 0092 FFF7FEFF 		bl	pkcs12_pbe
 1629              	.LVL260:
 1630 0096 0028     		cmp	r0, #0
 1631 0098 3FD0     		beq	.L179
 1632              		.loc 1 995 0
 1633 009a 10F5F05F 		cmn	r0, #7680
 1634 009e 41D1     		bne	.L199
 1635 00a0 37E0     		b	.L187
 1636              	.LVL261:
 1637              	.L178:
 1638              		.loc 1 1003 0
 1639 00a2 0B9A     		ldr	r2, [sp, #44]
 1640 00a4 0A2A     		cmp	r2, #10
 1641 00a6 17D1     		bne	.L180
 1642              		.loc 1 1003 0 is_stmt 0 discriminator 1
 1643 00a8 0C99     		ldr	r1, [sp, #48]
 1644 00aa 2048     		ldr	r0, .L203
 1645 00ac FFF7FEFF 		bl	memcmp
 1646              	.LVL262:
 1647 00b0 0146     		mov	r1, r0
 1648 00b2 80BB     		cbnz	r0, .L189
 1649              		.loc 1 1005 0 is_stmt 1
ARM GAS  C:\Users\jo\AppData\Local\Temp\ccRMLSMa.s 			page 30


 1650 00b4 099A     		ldr	r2, [sp, #36]
 1651 00b6 089B     		ldr	r3, [sp, #32]
 1652 00b8 8DE80C00 		stmia	sp, {r2, r3}
 1653 00bc 10AB     		add	r3, sp, #64
 1654 00be 0293     		str	r3, [sp, #8]
 1655 00c0 0DA8     		add	r0, sp, #52
 1656 00c2 3A46     		mov	r2, r7
 1657 00c4 DDF85838 		ldr	r3, [sp, #2136]
 1658 00c8 FFF7FEFF 		bl	pkcs12_pbe_sha1_rc4_128
 1659              	.LVL263:
 1660 00cc 50BB     		cbnz	r0, .L199
 1661              		.loc 1 1016 0
 1662 00ce 9DF84030 		ldrb	r3, [sp, #64]	@ zero_extendqisi2
 1663 00d2 302B     		cmp	r3, #48
 1664 00d4 21D0     		beq	.L179
 1665 00d6 1CE0     		b	.L187
 1666              	.LVL264:
 1667              	.L180:
 1668              		.loc 1 1024 0
 1669 00d8 092A     		cmp	r2, #9
 1670 00da 1CD1     		bne	.L189
 1671              		.loc 1 1024 0 is_stmt 0 discriminator 1
 1672 00dc 0C99     		ldr	r1, [sp, #48]
 1673 00de 1448     		ldr	r0, .L203+4
 1674 00e0 FFF7FEFF 		bl	memcmp
 1675              	.LVL265:
 1676 00e4 0146     		mov	r1, r0
 1677 00e6 B0B9     		cbnz	r0, .L189
 1678              		.loc 1 1026 0 is_stmt 1
 1679 00e8 099A     		ldr	r2, [sp, #36]
 1680 00ea 089B     		ldr	r3, [sp, #32]
 1681 00ec 8DE80C00 		stmia	sp, {r2, r3}
 1682 00f0 10AB     		add	r3, sp, #64
 1683 00f2 0293     		str	r3, [sp, #8]
 1684 00f4 0DA8     		add	r0, sp, #52
 1685 00f6 3A46     		mov	r2, r7
 1686 00f8 DDF85838 		ldr	r3, [sp, #2136]
 1687 00fc FFF7FEFF 		bl	pkcs5_pbes2
 1688              	.LVL266:
 1689 0100 58B1     		cbz	r0, .L179
 1690              		.loc 1 1029 0
 1691 0102 10F5785F 		cmn	r0, #15872
 1692 0106 0DD1     		bne	.L199
 1693 0108 03E0     		b	.L187
 1694              	.LVL267:
 1695              	.L182:
 1696              		.loc 1 952 0
 1697 010a 0A48     		ldr	r0, .L203+8
 1698 010c 0AE0     		b	.L199
 1699              	.LVL268:
 1700              	.L183:
 1701              		.loc 1 983 0
 1702 010e 0A48     		ldr	r0, .L203+12
 1703              	.LVL269:
 1704 0110 08E0     		b	.L199
 1705              	.LVL270:
 1706              	.L187:
ARM GAS  C:\Users\jo\AppData\Local\Temp\ccRMLSMa.s 			page 31


 1707              		.loc 1 1017 0
 1708 0112 0A48     		ldr	r0, .L203+16
 1709              	.LVL271:
 1710 0114 06E0     		b	.L199
 1711              	.LVL272:
 1712              	.L189:
 1713              		.loc 1 1044 0
 1714 0116 0A48     		ldr	r0, .L203+20
 1715 0118 04E0     		b	.L199
 1716              	.LVL273:
 1717              	.L179:
 1718              		.loc 1 1046 0
 1719 011a 2846     		mov	r0, r5
 1720              	.LVL274:
 1721 011c 10A9     		add	r1, sp, #64
 1722 011e 089A     		ldr	r2, [sp, #32]
 1723 0120 FFF7FEFF 		bl	pk_parse_key_pkcs8_unencrypted_der
 1724              	.LVL275:
 1725              	.L199:
 1726              		.loc 1 1047 0
 1727 0124 0DF6440D 		addw	sp, sp, #2116
 1728              		.cfi_def_cfa_offset 20
 1729              		@ sp needed
 1730 0128 F0BD     		pop	{r4, r5, r6, r7, pc}
 1731              	.LVL276:
 1732              	.L204:
 1733 012a 00BF     		.align	2
 1734              	.L203:
 1735 012c 08000000 		.word	.LC1
 1736 0130 14000000 		.word	.LC2
 1737 0134 00D4FFFF 		.word	-11264
 1738 0138 80D1FFFF 		.word	-11904
 1739 013c 80D4FFFF 		.word	-11136
 1740 0140 80D6FFFF 		.word	-10624
 1741              		.cfi_endproc
 1742              	.LFE27:
 1743              		.size	pk_parse_key_pkcs8_encrypted_der, .-pk_parse_key_pkcs8_encrypted_der
 1744              		.section	.text.pk_load_file,"ax",%progbits
 1745              		.align	2
 1746              		.p2align 4,,15
 1747              		.global	pk_load_file
 1748              		.thumb
 1749              		.thumb_func
 1750              		.type	pk_load_file, %function
 1751              	pk_load_file:
 1752              	.LFB12:
 1753              		.loc 1 74 0
 1754              		.cfi_startproc
 1755              		@ args = 0, pretend = 0, frame = 0
 1756              		@ frame_needed = 0, uses_anonymous_args = 0
 1757              	.LVL277:
 1758 0000 F8B5     		push	{r3, r4, r5, r6, r7, lr}
 1759              		.cfi_def_cfa_offset 24
 1760              		.cfi_offset 3, -24
 1761              		.cfi_offset 4, -20
 1762              		.cfi_offset 5, -16
 1763              		.cfi_offset 6, -12
ARM GAS  C:\Users\jo\AppData\Local\Temp\ccRMLSMa.s 			page 32


 1764              		.cfi_offset 7, -8
 1765              		.cfi_offset 14, -4
 1766              		.loc 1 74 0
 1767 0002 0F46     		mov	r7, r1
 1768              		.loc 1 78 0
 1769 0004 1E49     		ldr	r1, .L215
 1770              	.LVL278:
 1771              		.loc 1 74 0
 1772 0006 1646     		mov	r6, r2
 1773              		.loc 1 78 0
 1774 0008 FFF7FEFF 		bl	fopen
 1775              	.LVL279:
 1776 000c 88B3     		cbz	r0, .L210
 1777 000e 0446     		mov	r4, r0
 1778              		.loc 1 81 0
 1779 0010 0021     		movs	r1, #0
 1780 0012 0222     		movs	r2, #2
 1781 0014 FFF7FEFF 		bl	fseek
 1782              	.LVL280:
 1783              		.loc 1 82 0
 1784 0018 2046     		mov	r0, r4
 1785 001a FFF7FEFF 		bl	ftell
 1786              	.LVL281:
 1787 001e 431C     		adds	r3, r0, #1
 1788 0020 0546     		mov	r5, r0
 1789              	.LVL282:
 1790 0022 28D0     		beq	.L212
 1791              		.loc 1 87 0
 1792 0024 0021     		movs	r1, #0
 1793 0026 0A46     		mov	r2, r1
 1794 0028 2046     		mov	r0, r4
 1795              	.LVL283:
 1796 002a FFF7FEFF 		bl	fseek
 1797              	.LVL284:
 1798              		.loc 1 89 0
 1799 002e 3560     		str	r5, [r6]
 1800              		.loc 1 92 0
 1801 0030 681C     		adds	r0, r5, #1
 1802 0032 FFF7FEFF 		bl	malloc
 1803              	.LVL285:
 1804 0036 3860     		str	r0, [r7]
 1805              		.loc 1 91 0
 1806 0038 B0B1     		cbz	r0, .L213
 1807              		.loc 1 98 0
 1808 003a 2346     		mov	r3, r4
 1809 003c 2A46     		mov	r2, r5
 1810 003e 0121     		movs	r1, #1
 1811 0040 FFF7FEFF 		bl	fread
 1812              	.LVL286:
 1813 0044 3368     		ldr	r3, [r6]
 1814 0046 9842     		cmp	r0, r3
 1815              		.loc 1 100 0
 1816 0048 2046     		mov	r0, r4
 1817              		.loc 1 98 0
 1818 004a 06D1     		bne	.L214
 1819              		.loc 1 105 0
 1820 004c FFF7FEFF 		bl	fclose
ARM GAS  C:\Users\jo\AppData\Local\Temp\ccRMLSMa.s 			page 33


 1821              	.LVL287:
 1822              		.loc 1 107 0
 1823 0050 3A68     		ldr	r2, [r7]
 1824 0052 3368     		ldr	r3, [r6]
 1825 0054 0020     		movs	r0, #0
 1826 0056 D054     		strb	r0, [r2, r3]
 1827              		.loc 1 109 0
 1828 0058 F8BD     		pop	{r3, r4, r5, r6, r7, pc}
 1829              	.LVL288:
 1830              	.L214:
 1831              		.loc 1 100 0
 1832 005a FFF7FEFF 		bl	fclose
 1833              	.LVL289:
 1834              		.loc 1 101 0
 1835 005e 3868     		ldr	r0, [r7]
 1836 0060 FFF7FEFF 		bl	free
 1837              	.LVL290:
 1838              		.loc 1 102 0
 1839 0064 0748     		ldr	r0, .L215+4
 1840 0066 F8BD     		pop	{r3, r4, r5, r6, r7, pc}
 1841              	.LVL291:
 1842              	.L213:
 1843              		.loc 1 94 0
 1844 0068 2046     		mov	r0, r4
 1845 006a FFF7FEFF 		bl	fclose
 1846              	.LVL292:
 1847              		.loc 1 95 0
 1848 006e 0648     		ldr	r0, .L215+8
 1849 0070 F8BD     		pop	{r3, r4, r5, r6, r7, pc}
 1850              	.LVL293:
 1851              	.L210:
 1852              		.loc 1 79 0
 1853 0072 0448     		ldr	r0, .L215+4
 1854              	.LVL294:
 1855              		.loc 1 110 0
 1856 0074 F8BD     		pop	{r3, r4, r5, r6, r7, pc}
 1857              	.LVL295:
 1858              	.L212:
 1859              		.loc 1 84 0
 1860 0076 2046     		mov	r0, r4
 1861              	.LVL296:
 1862 0078 FFF7FEFF 		bl	fclose
 1863              	.LVL297:
 1864              		.loc 1 85 0
 1865 007c 0148     		ldr	r0, .L215+4
 1866 007e F8BD     		pop	{r3, r4, r5, r6, r7, pc}
 1867              	.LVL298:
 1868              	.L216:
 1869              		.align	2
 1870              	.L215:
 1871 0080 20000000 		.word	.LC3
 1872 0084 00D2FFFF 		.word	-11776
 1873 0088 80D0FFFF 		.word	-12160
 1874              		.cfi_endproc
 1875              	.LFE12:
 1876              		.size	pk_load_file, .-pk_load_file
 1877 008c AFF30080 		.section	.text.pk_parse_subpubkey,"ax",%progbits
ARM GAS  C:\Users\jo\AppData\Local\Temp\ccRMLSMa.s 			page 34


 1878              		.align	2
 1879              		.p2align 4,,15
 1880              		.global	pk_parse_subpubkey
 1881              		.thumb
 1882              		.thumb_func
 1883              		.type	pk_parse_subpubkey, %function
 1884              	pk_parse_subpubkey:
 1885              	.LFB23:
 1886              		.loc 1 575 0
 1887              		.cfi_startproc
 1888              		@ args = 0, pretend = 0, frame = 24
 1889              		@ frame_needed = 0, uses_anonymous_args = 0
 1890              	.LVL299:
 1891 0000 2DE9F043 		push	{r4, r5, r6, r7, r8, r9, lr}
 1892              		.cfi_def_cfa_offset 28
 1893              		.cfi_offset 4, -28
 1894              		.cfi_offset 5, -24
 1895              		.cfi_offset 6, -20
 1896              		.cfi_offset 7, -16
 1897              		.cfi_offset 8, -12
 1898              		.cfi_offset 9, -8
 1899              		.cfi_offset 14, -4
 1900 0004 87B0     		sub	sp, sp, #28
 1901              		.cfi_def_cfa_offset 56
 1902              		.loc 1 575 0
 1903 0006 1646     		mov	r6, r2
 1904              		.loc 1 579 0
 1905 0008 0024     		movs	r4, #0
 1906              		.loc 1 582 0
 1907 000a 01AA     		add	r2, sp, #4
 1908              	.LVL300:
 1909 000c 3023     		movs	r3, #48
 1910              		.loc 1 579 0
 1911 000e 8DF80340 		strb	r4, [sp, #3]
 1912              		.loc 1 575 0
 1913 0012 0546     		mov	r5, r0
 1914              		.loc 1 582 0
 1915 0014 FFF7FEFF 		bl	asn1_get_tag
 1916              	.LVL301:
 1917 0018 20B1     		cbz	r0, .L218
 1918              		.loc 1 585 0
 1919 001a A0F53450 		sub	r0, r0, #11520
 1920              	.LVL302:
 1921              	.L244:
 1922              		.loc 1 630 0
 1923 001e 07B0     		add	sp, sp, #28
 1924              		.cfi_remember_state
 1925              		.cfi_def_cfa_offset 28
 1926              		@ sp needed
 1927 0020 BDE8F083 		pop	{r4, r5, r6, r7, r8, r9, pc}
 1928              	.LVL303:
 1929              	.L218:
 1930              		.cfi_restore_state
 1931              		.loc 1 588 0
 1932 0024 019B     		ldr	r3, [sp, #4]
 1933 0026 2C68     		ldr	r4, [r5]
 1934 0028 1C44     		add	r4, r4, r3
ARM GAS  C:\Users\jo\AppData\Local\Temp\ccRMLSMa.s 			page 35


 1935              	.LVL304:
 1936              		.loc 1 590 0
 1937 002a 2146     		mov	r1, r4
 1938 002c 03AB     		add	r3, sp, #12
 1939 002e 2846     		mov	r0, r5
 1940              	.LVL305:
 1941 0030 0DF10302 		add	r2, sp, #3
 1942 0034 FFF7FEFF 		bl	pk_get_pk_alg
 1943              	.LVL306:
 1944 0038 0028     		cmp	r0, #0
 1945 003a F0D1     		bne	.L244
 1946              		.loc 1 593 0
 1947 003c 01AA     		add	r2, sp, #4
 1948 003e 2846     		mov	r0, r5
 1949              	.LVL307:
 1950 0040 2146     		mov	r1, r4
 1951 0042 FFF7FEFF 		bl	asn1_get_bitstring_null
 1952              	.LVL308:
 1953 0046 E8B9     		cbnz	r0, .L246
 1954              		.loc 1 596 0
 1955 0048 2F68     		ldr	r7, [r5]
 1956 004a 019B     		ldr	r3, [sp, #4]
 1957 004c 1F44     		add	r7, r7, r3
 1958 004e A742     		cmp	r7, r4
 1959 0050 1BD1     		bne	.L235
 1960              		.loc 1 600 0
 1961 0052 9DF80300 		ldrb	r0, [sp, #3]	@ zero_extendqisi2
 1962              	.LVL309:
 1963 0056 FFF7FEFF 		bl	pk_info_from_type
 1964              	.LVL310:
 1965 005a 0028     		cmp	r0, #0
 1966 005c 54D0     		beq	.L236
 1967              		.loc 1 603 0
 1968 005e 0146     		mov	r1, r0
 1969 0060 3046     		mov	r0, r6
 1970              	.LVL311:
 1971 0062 FFF7FEFF 		bl	pk_init_ctx
 1972              	.LVL312:
 1973 0066 0028     		cmp	r0, #0
 1974 0068 D9D1     		bne	.L244
 1975              		.loc 1 607 0
 1976 006a 9DF80330 		ldrb	r3, [sp, #3]	@ zero_extendqisi2
 1977 006e 012B     		cmp	r3, #1
 1978 0070 0DD0     		beq	.L247
 1979              		.loc 1 613 0
 1980 0072 023B     		subs	r3, r3, #2
 1981 0074 012B     		cmp	r3, #1
 1982 0076 28D9     		bls	.L248
 1983              		.loc 1 620 0
 1984 0078 2F4C     		ldr	r4, .L251
 1985              	.LVL313:
 1986              	.L230:
 1987              		.loc 1 627 0
 1988 007a 3046     		mov	r0, r6
 1989 007c FFF7FEFF 		bl	pk_free
 1990              	.LVL314:
 1991 0080 2046     		mov	r0, r4
ARM GAS  C:\Users\jo\AppData\Local\Temp\ccRMLSMa.s 			page 36


 1992 0082 CCE7     		b	.L244
 1993              	.LVL315:
 1994              	.L246:
 1995              		.loc 1 594 0
 1996 0084 A0F52C50 		sub	r0, r0, #11008
 1997              	.LVL316:
 1998 0088 C9E7     		b	.L244
 1999              	.LVL317:
 2000              	.L235:
 2001              		.loc 1 597 0
 2002 008a 2C48     		ldr	r0, .L251+4
 2003              	.LVL318:
 2004 008c C7E7     		b	.L244
 2005              	.LVL319:
 2006              	.L247:
 2007              	.LBB62:
 2008              	.LBB63:
 2009              		.loc 1 509 0
 2010 008e 2846     		mov	r0, r5
 2011              	.LVL320:
 2012 0090 3946     		mov	r1, r7
 2013 0092 02AA     		add	r2, sp, #8
 2014 0094 3023     		movs	r3, #48
 2015              	.LBE63:
 2016              	.LBE62:
 2017              		.loc 1 609 0
 2018 0096 7468     		ldr	r4, [r6, #4]
 2019              	.LVL321:
 2020              	.LBB66:
 2021              	.LBB64:
 2022              		.loc 1 509 0
 2023 0098 FFF7FEFF 		bl	asn1_get_tag
 2024              	.LVL322:
 2025 009c 60B9     		cbnz	r0, .L226
 2026              		.loc 1 513 0
 2027 009e 2A68     		ldr	r2, [r5]
 2028 00a0 029B     		ldr	r3, [sp, #8]
 2029 00a2 1344     		add	r3, r3, r2
 2030 00a4 9F42     		cmp	r7, r3
 2031 00a6 0ED1     		bne	.L240
 2032              		.loc 1 517 0
 2033 00a8 04F10808 		add	r8, r4, #8
 2034 00ac 4246     		mov	r2, r8
 2035 00ae 2846     		mov	r0, r5
 2036              	.LVL323:
 2037 00b0 3946     		mov	r1, r7
 2038 00b2 FFF7FEFF 		bl	asn1_get_mpi
 2039              	.LVL324:
 2040 00b6 48B3     		cbz	r0, .L249
 2041              	.L226:
 2042              		.loc 1 519 0
 2043 00b8 A0F52C54 		sub	r4, r0, #11008
 2044              	.LVL325:
 2045              	.LBE64:
 2046              	.LBE66:
 2047              		.loc 1 622 0
 2048 00bc 002C     		cmp	r4, #0
ARM GAS  C:\Users\jo\AppData\Local\Temp\ccRMLSMa.s 			page 37


 2049 00be DCD1     		bne	.L230
 2050              	.LVL326:
 2051              	.L229:
 2052              		.loc 1 622 0 is_stmt 0 discriminator 1
 2053 00c0 2B68     		ldr	r3, [r5]
 2054 00c2 9F42     		cmp	r7, r3
 2055 00c4 1ED0     		beq	.L233
 2056              	.LVL327:
 2057              	.L240:
 2058              		.loc 1 623 0 is_stmt 1
 2059 00c6 1D4C     		ldr	r4, .L251+4
 2060 00c8 D7E7     		b	.L230
 2061              	.LVL328:
 2062              	.L248:
 2063              		.loc 1 615 0
 2064 00ca 03A8     		add	r0, sp, #12
 2065              	.LVL329:
 2066 00cc 7168     		ldr	r1, [r6, #4]
 2067 00ce FFF7FEFF 		bl	pk_use_ecparams
 2068              	.LVL330:
 2069              		.loc 1 616 0
 2070 00d2 0446     		mov	r4, r0
 2071              	.LVL331:
 2072 00d4 0028     		cmp	r0, #0
 2073 00d6 D0D1     		bne	.L230
 2074              		.loc 1 617 0
 2075 00d8 D6F80480 		ldr	r8, [r6, #4]
 2076              	.LVL332:
 2077              	.LBB67:
 2078              	.LBB68:
 2079              		.loc 1 481 0
 2080 00dc 2A68     		ldr	r2, [r5]
 2081              		.loc 1 480 0
 2082 00de 08F18809 		add	r9, r8, #136
 2083 00e2 4946     		mov	r1, r9
 2084 00e4 4046     		mov	r0, r8
 2085              	.LVL333:
 2086 00e6 BB1A     		subs	r3, r7, r2
 2087 00e8 FFF7FEFF 		bl	ecp_point_read_binary
 2088              	.LVL334:
 2089 00ec 0446     		mov	r4, r0
 2090              	.LVL335:
 2091 00ee 08B1     		cbz	r0, .L250
 2092              		.loc 1 489 0
 2093 00f0 2F60     		str	r7, [r5]
 2094              	.LVL336:
 2095 00f2 C2E7     		b	.L230
 2096              	.LVL337:
 2097              	.L250:
 2098              		.loc 1 483 0
 2099 00f4 4046     		mov	r0, r8
 2100              	.LVL338:
 2101 00f6 4946     		mov	r1, r9
 2102 00f8 FFF7FEFF 		bl	ecp_check_pubkey
 2103              	.LVL339:
 2104              		.loc 1 489 0
 2105 00fc 2F60     		str	r7, [r5]
ARM GAS  C:\Users\jo\AppData\Local\Temp\ccRMLSMa.s 			page 38


 2106              	.LVL340:
 2107              	.LBE68:
 2108              	.LBE67:
 2109              		.loc 1 622 0
 2110 00fe 0446     		mov	r4, r0
 2111 0100 0028     		cmp	r0, #0
 2112 0102 BAD1     		bne	.L230
 2113              	.LVL341:
 2114              	.L233:
 2115              		.loc 1 627 0
 2116 0104 0020     		movs	r0, #0
 2117 0106 8AE7     		b	.L244
 2118              	.LVL342:
 2119              	.L236:
 2120              		.loc 1 601 0
 2121 0108 0B48     		ldr	r0, .L251
 2122              	.LVL343:
 2123 010a 88E7     		b	.L244
 2124              	.LVL344:
 2125              	.L249:
 2126              	.LBB69:
 2127              	.LBB65:
 2128              		.loc 1 517 0
 2129 010c 2846     		mov	r0, r5
 2130              	.LVL345:
 2131 010e 3946     		mov	r1, r7
 2132 0110 04F11402 		add	r2, r4, #20
 2133 0114 FFF7FEFF 		bl	asn1_get_mpi
 2134              	.LVL346:
 2135 0118 0028     		cmp	r0, #0
 2136 011a CDD1     		bne	.L226
 2137              		.loc 1 521 0
 2138 011c 2B68     		ldr	r3, [r5]
 2139 011e 9F42     		cmp	r7, r3
 2140 0120 D1D1     		bne	.L240
 2141              		.loc 1 525 0
 2142 0122 2046     		mov	r0, r4
 2143              	.LVL347:
 2144 0124 FFF7FEFF 		bl	rsa_check_pubkey
 2145              	.LVL348:
 2146 0128 20B9     		cbnz	r0, .L238
 2147              		.loc 1 528 0
 2148 012a 4046     		mov	r0, r8
 2149              	.LVL349:
 2150 012c FFF7FEFF 		bl	mpi_size
 2151              	.LVL350:
 2152 0130 6060     		str	r0, [r4, #4]
 2153              	.LVL351:
 2154 0132 C5E7     		b	.L229
 2155              	.LVL352:
 2156              	.L238:
 2157              		.loc 1 526 0
 2158 0134 024C     		ldr	r4, .L251+8
 2159              	.LVL353:
 2160 0136 A0E7     		b	.L230
 2161              	.L252:
 2162              		.align	2
ARM GAS  C:\Users\jo\AppData\Local\Temp\ccRMLSMa.s 			page 39


 2163              	.L251:
 2164 0138 80D3FFFF 		.word	-11392
 2165 013c 9AD4FFFF 		.word	-11110
 2166 0140 00D5FFFF 		.word	-11008
 2167              	.LBE65:
 2168              	.LBE69:
 2169              		.cfi_endproc
 2170              	.LFE23:
 2171              		.size	pk_parse_subpubkey, .-pk_parse_subpubkey
 2172 0144 AFF30080 		.section	.text.pk_parse_key,"ax",%progbits
 2172      AFF30080 
 2172      AFF30080 
 2173              		.align	2
 2174              		.p2align 4,,15
 2175              		.global	pk_parse_key
 2176              		.thumb
 2177              		.thumb_func
 2178              		.type	pk_parse_key, %function
 2179              	pk_parse_key:
 2180              	.LFB28:
 2181              		.loc 1 1056 0
 2182              		.cfi_startproc
 2183              		@ args = 4, pretend = 0, frame = 16
 2184              		@ frame_needed = 0, uses_anonymous_args = 0
 2185              	.LVL354:
 2186 0000 2DE9F041 		push	{r4, r5, r6, r7, r8, lr}
 2187              		.cfi_def_cfa_offset 24
 2188              		.cfi_offset 4, -24
 2189              		.cfi_offset 5, -20
 2190              		.cfi_offset 6, -16
 2191              		.cfi_offset 7, -12
 2192              		.cfi_offset 8, -8
 2193              		.cfi_offset 14, -4
 2194 0004 88B0     		sub	sp, sp, #32
 2195              		.cfi_def_cfa_offset 56
 2196              		.loc 1 1056 0
 2197 0006 0546     		mov	r5, r0
 2198              		.loc 1 1064 0
 2199 0008 05A8     		add	r0, sp, #20
 2200              	.LVL355:
 2201              		.loc 1 1056 0
 2202 000a 0E46     		mov	r6, r1
 2203 000c 1F46     		mov	r7, r3
 2204 000e 0E9C     		ldr	r4, [sp, #56]
 2205 0010 9046     		mov	r8, r2
 2206              		.loc 1 1064 0
 2207 0012 FFF7FEFF 		bl	pem_init
 2208              	.LVL356:
 2209              		.loc 1 1067 0
 2210 0016 04AA     		add	r2, sp, #16
 2211 0018 0292     		str	r2, [sp, #8]
 2212 001a 0097     		str	r7, [sp]
 2213 001c 0194     		str	r4, [sp, #4]
 2214 001e 05A8     		add	r0, sp, #20
 2215 0020 3346     		mov	r3, r6
 2216 0022 6D49     		ldr	r1, .L324
 2217 0024 6D4A     		ldr	r2, .L324+4
ARM GAS  C:\Users\jo\AppData\Local\Temp\ccRMLSMa.s 			page 40


 2218 0026 FFF7FEFF 		bl	pem_read_buffer
 2219              	.LVL357:
 2220              		.loc 1 1071 0
 2221 002a 58B1     		cbz	r0, .L318
 2222              		.loc 1 1086 0
 2223 002c 10F59C5F 		cmn	r0, #4992
 2224 0030 7BD0     		beq	.L265
 2225              		.loc 1 1088 0
 2226 0032 10F5985F 		cmn	r0, #4864
 2227 0036 7AD0     		beq	.L266
 2228              		.loc 1 1090 0
 2229 0038 10F5845F 		cmn	r0, #4224
 2230 003c 20D0     		beq	.L319
 2231              	.LVL358:
 2232              	.L256:
 2233              		.loc 1 1219 0
 2234 003e 08B0     		add	sp, sp, #32
 2235              		.cfi_remember_state
 2236              		.cfi_def_cfa_offset 24
 2237              		@ sp needed
 2238 0040 BDE8F081 		pop	{r4, r5, r6, r7, r8, pc}
 2239              	.LVL359:
 2240              	.L318:
 2241              		.cfi_restore_state
 2242              		.loc 1 1073 0
 2243 0044 0120     		movs	r0, #1
 2244              	.LVL360:
 2245 0046 FFF7FEFF 		bl	pk_info_from_type
 2246              	.LVL361:
 2247 004a 0028     		cmp	r0, #0
 2248 004c 71D0     		beq	.L262
 2249              		.loc 1 1076 0
 2250 004e 0146     		mov	r1, r0
 2251 0050 2846     		mov	r0, r5
 2252              	.LVL362:
 2253 0052 FFF7FEFF 		bl	pk_init_ctx
 2254              	.LVL363:
 2255 0056 0446     		mov	r4, r0
 2256 0058 48B1     		cbz	r0, .L320
 2257              	.L317:
 2258              		.loc 1 1151 0
 2259 005a 2846     		mov	r0, r5
 2260              	.LVL364:
 2261 005c FFF7FEFF 		bl	pk_free
 2262              	.LVL365:
 2263              	.L270:
 2264              		.loc 1 1154 0
 2265 0060 05A8     		add	r0, sp, #20
 2266 0062 FFF7FEFF 		bl	pem_free
 2267              	.LVL366:
 2268              		.loc 1 1147 0
 2269 0066 2046     		mov	r0, r4
 2270              		.loc 1 1219 0
 2271 0068 08B0     		add	sp, sp, #32
 2272              		.cfi_remember_state
 2273              		.cfi_def_cfa_offset 24
 2274              		@ sp needed
ARM GAS  C:\Users\jo\AppData\Local\Temp\ccRMLSMa.s 			page 41


 2275 006a BDE8F081 		pop	{r4, r5, r6, r7, r8, pc}
 2276              	.LVL367:
 2277              	.L320:
 2278              		.cfi_restore_state
 2279              		.loc 1 1076 0 discriminator 1
 2280 006e 6868     		ldr	r0, [r5, #4]
 2281              	.LVL368:
 2282 0070 0599     		ldr	r1, [sp, #20]
 2283 0072 069A     		ldr	r2, [sp, #24]
 2284 0074 FFF7FEFF 		bl	pk_parse_key_pkcs1_der
 2285              	.LVL369:
 2286 0078 0446     		mov	r4, r0
 2287 007a 0028     		cmp	r0, #0
 2288 007c EDD1     		bne	.L317
 2289 007e EFE7     		b	.L270
 2290              	.L319:
 2291              		.loc 1 1095 0
 2292 0080 04AB     		add	r3, sp, #16
 2293 0082 0293     		str	r3, [sp, #8]
 2294 0084 0097     		str	r7, [sp]
 2295 0086 0194     		str	r4, [sp, #4]
 2296 0088 05A8     		add	r0, sp, #20
 2297              	.LVL370:
 2298 008a 5549     		ldr	r1, .L324+8
 2299 008c 554A     		ldr	r2, .L324+12
 2300 008e 3346     		mov	r3, r6
 2301 0090 FFF7FEFF 		bl	pem_read_buffer
 2302              	.LVL371:
 2303              		.loc 1 1099 0
 2304 0094 0028     		cmp	r0, #0
 2305 0096 34D0     		beq	.L321
 2306              		.loc 1 1114 0
 2307 0098 10F59C5F 		cmn	r0, #4992
 2308 009c 45D0     		beq	.L265
 2309              		.loc 1 1116 0
 2310 009e 10F5985F 		cmn	r0, #4864
 2311 00a2 44D0     		beq	.L266
 2312              		.loc 1 1118 0
 2313 00a4 10F5845F 		cmn	r0, #4224
 2314 00a8 C9D1     		bne	.L256
 2315              		.loc 1 1122 0
 2316 00aa 0023     		movs	r3, #0
 2317 00ac 04AA     		add	r2, sp, #16
 2318 00ae 0292     		str	r2, [sp, #8]
 2319 00b0 0093     		str	r3, [sp]
 2320 00b2 0193     		str	r3, [sp, #4]
 2321 00b4 05A8     		add	r0, sp, #20
 2322              	.LVL372:
 2323 00b6 4C49     		ldr	r1, .L324+16
 2324 00b8 4C4A     		ldr	r2, .L324+20
 2325 00ba 3346     		mov	r3, r6
 2326 00bc FFF7FEFF 		bl	pem_read_buffer
 2327              	.LVL373:
 2328              		.loc 1 1126 0
 2329 00c0 0028     		cmp	r0, #0
 2330 00c2 38D0     		beq	.L322
 2331              		.loc 1 1137 0
ARM GAS  C:\Users\jo\AppData\Local\Temp\ccRMLSMa.s 			page 42


 2332 00c4 10F5845F 		cmn	r0, #4224
 2333 00c8 B9D1     		bne	.L256
 2334              		.loc 1 1141 0
 2335 00ca 0023     		movs	r3, #0
 2336 00cc 04AA     		add	r2, sp, #16
 2337 00ce 0292     		str	r2, [sp, #8]
 2338 00d0 0093     		str	r3, [sp]
 2339 00d2 0193     		str	r3, [sp, #4]
 2340 00d4 05A8     		add	r0, sp, #20
 2341              	.LVL374:
 2342 00d6 4649     		ldr	r1, .L324+24
 2343 00d8 464A     		ldr	r2, .L324+28
 2344 00da 3346     		mov	r3, r6
 2345 00dc FFF7FEFF 		bl	pem_read_buffer
 2346              	.LVL375:
 2347              		.loc 1 1145 0
 2348 00e0 0028     		cmp	r0, #0
 2349 00e2 31D0     		beq	.L323
 2350              		.loc 1 1157 0
 2351 00e4 10F5845F 		cmn	r0, #4224
 2352 00e8 A9D1     		bne	.L256
 2353              		.loc 1 1173 0
 2354 00ea 0094     		str	r4, [sp]
 2355 00ec 3B46     		mov	r3, r7
 2356 00ee 2846     		mov	r0, r5
 2357              	.LVL376:
 2358 00f0 3146     		mov	r1, r6
 2359 00f2 4246     		mov	r2, r8
 2360 00f4 FFF7FEFF 		bl	pk_parse_key_pkcs8_encrypted_der
 2361              	.LVL377:
 2362 00f8 0446     		mov	r4, r0
 2363 00fa 0028     		cmp	r0, #0
 2364 00fc 2FD1     		bne	.L271
 2365              	.L272:
 2366              		.loc 1 1176 0
 2367 00fe 0020     		movs	r0, #0
 2368              	.LVL378:
 2369 0100 9DE7     		b	.L256
 2370              	.LVL379:
 2371              	.L321:
 2372              		.loc 1 1101 0
 2373 0102 0220     		movs	r0, #2
 2374              	.LVL380:
 2375 0104 FFF7FEFF 		bl	pk_info_from_type
 2376              	.LVL381:
 2377 0108 0146     		mov	r1, r0
 2378 010a 90B1     		cbz	r0, .L262
 2379              		.loc 1 1104 0
 2380 010c 2846     		mov	r0, r5
 2381              	.LVL382:
 2382 010e FFF7FEFF 		bl	pk_init_ctx
 2383              	.LVL383:
 2384 0112 0446     		mov	r4, r0
 2385 0114 0028     		cmp	r0, #0
 2386 0116 A0D1     		bne	.L317
 2387              		.loc 1 1104 0 is_stmt 0 discriminator 1
 2388 0118 6868     		ldr	r0, [r5, #4]
ARM GAS  C:\Users\jo\AppData\Local\Temp\ccRMLSMa.s 			page 43


 2389              	.LVL384:
 2390 011a 0599     		ldr	r1, [sp, #20]
 2391 011c 069A     		ldr	r2, [sp, #24]
 2392 011e FFF7FEFF 		bl	pk_parse_key_sec1_der
 2393              	.LVL385:
 2394 0122 0446     		mov	r4, r0
 2395 0124 0028     		cmp	r0, #0
 2396 0126 98D1     		bne	.L317
 2397 0128 9AE7     		b	.L270
 2398              	.LVL386:
 2399              	.L265:
 2400              		.loc 1 1087 0 is_stmt 1
 2401 012a 3348     		ldr	r0, .L324+32
 2402 012c 87E7     		b	.L256
 2403              	.LVL387:
 2404              	.L266:
 2405              		.loc 1 1089 0
 2406 012e 3348     		ldr	r0, .L324+36
 2407              	.LVL388:
 2408 0130 85E7     		b	.L256
 2409              	.LVL389:
 2410              	.L262:
 2411              		.loc 1 1074 0
 2412 0132 3348     		ldr	r0, .L324+40
 2413              	.LVL390:
 2414 0134 83E7     		b	.L256
 2415              	.LVL391:
 2416              	.L322:
 2417              		.loc 1 1128 0
 2418 0136 2846     		mov	r0, r5
 2419              	.LVL392:
 2420 0138 0599     		ldr	r1, [sp, #20]
 2421 013a 069A     		ldr	r2, [sp, #24]
 2422 013c FFF7FEFF 		bl	pk_parse_key_pkcs8_unencrypted_der
 2423              	.LVL393:
 2424 0140 0446     		mov	r4, r0
 2425 0142 0028     		cmp	r0, #0
 2426 0144 8CD0     		beq	.L270
 2427 0146 88E7     		b	.L317
 2428              	.L323:
 2429              		.loc 1 1147 0
 2430 0148 0094     		str	r4, [sp]
 2431 014a 3B46     		mov	r3, r7
 2432 014c 2846     		mov	r0, r5
 2433              	.LVL394:
 2434 014e 0599     		ldr	r1, [sp, #20]
 2435 0150 069A     		ldr	r2, [sp, #24]
 2436 0152 FFF7FEFF 		bl	pk_parse_key_pkcs8_encrypted_der
 2437              	.LVL395:
 2438 0156 0446     		mov	r4, r0
 2439 0158 0028     		cmp	r0, #0
 2440 015a 81D0     		beq	.L270
 2441 015c 7DE7     		b	.L317
 2442              	.L271:
 2443              		.loc 1 1179 0
 2444 015e 2846     		mov	r0, r5
 2445              	.LVL396:
ARM GAS  C:\Users\jo\AppData\Local\Temp\ccRMLSMa.s 			page 44


 2446 0160 FFF7FEFF 		bl	pk_free
 2447              	.LVL397:
 2448              		.loc 1 1181 0
 2449 0164 14F52E5F 		cmn	r4, #11136
 2450 0168 DFD0     		beq	.L265
 2451              		.loc 1 1187 0
 2452 016a 2846     		mov	r0, r5
 2453 016c 3146     		mov	r1, r6
 2454 016e 4246     		mov	r2, r8
 2455 0170 FFF7FEFF 		bl	pk_parse_key_pkcs8_unencrypted_der
 2456              	.LVL398:
 2457 0174 0028     		cmp	r0, #0
 2458 0176 C2D0     		beq	.L272
 2459              		.loc 1 1190 0
 2460 0178 2846     		mov	r0, r5
 2461              	.LVL399:
 2462 017a FFF7FEFF 		bl	pk_free
 2463              	.LVL400:
 2464              		.loc 1 1193 0
 2465 017e 0120     		movs	r0, #1
 2466 0180 FFF7FEFF 		bl	pk_info_from_type
 2467              	.LVL401:
 2468 0184 0146     		mov	r1, r0
 2469 0186 0028     		cmp	r0, #0
 2470 0188 D3D0     		beq	.L262
 2471              		.loc 1 1196 0
 2472 018a 2846     		mov	r0, r5
 2473              	.LVL402:
 2474 018c FFF7FEFF 		bl	pk_init_ctx
 2475              	.LVL403:
 2476 0190 0028     		cmp	r0, #0
 2477 0192 B4D1     		bne	.L272
 2478              		.loc 1 1196 0 is_stmt 0 discriminator 1
 2479 0194 6868     		ldr	r0, [r5, #4]
 2480              	.LVL404:
 2481 0196 3146     		mov	r1, r6
 2482 0198 4246     		mov	r2, r8
 2483 019a FFF7FEFF 		bl	pk_parse_key_pkcs1_der
 2484              	.LVL405:
 2485 019e 0028     		cmp	r0, #0
 2486 01a0 ADD0     		beq	.L272
 2487              		.loc 1 1202 0 is_stmt 1
 2488 01a2 2846     		mov	r0, r5
 2489              	.LVL406:
 2490 01a4 FFF7FEFF 		bl	pk_free
 2491              	.LVL407:
 2492              		.loc 1 1206 0
 2493 01a8 0220     		movs	r0, #2
 2494 01aa FFF7FEFF 		bl	pk_info_from_type
 2495              	.LVL408:
 2496 01ae 0146     		mov	r1, r0
 2497 01b0 0028     		cmp	r0, #0
 2498 01b2 BED0     		beq	.L262
 2499              		.loc 1 1209 0
 2500 01b4 2846     		mov	r0, r5
 2501              	.LVL409:
 2502 01b6 FFF7FEFF 		bl	pk_init_ctx
ARM GAS  C:\Users\jo\AppData\Local\Temp\ccRMLSMa.s 			page 45


 2503              	.LVL410:
 2504 01ba 0028     		cmp	r0, #0
 2505 01bc 9FD1     		bne	.L272
 2506              		.loc 1 1209 0 is_stmt 0 discriminator 1
 2507 01be 3146     		mov	r1, r6
 2508 01c0 4246     		mov	r2, r8
 2509 01c2 6868     		ldr	r0, [r5, #4]
 2510              	.LVL411:
 2511 01c4 FFF7FEFF 		bl	pk_parse_key_sec1_der
 2512              	.LVL412:
 2513 01c8 0028     		cmp	r0, #0
 2514 01ca 98D0     		beq	.L272
 2515              		.loc 1 1215 0 is_stmt 1
 2516 01cc 2846     		mov	r0, r5
 2517              	.LVL413:
 2518 01ce FFF7FEFF 		bl	pk_free
 2519              	.LVL414:
 2520              		.loc 1 1218 0
 2521 01d2 0C48     		ldr	r0, .L324+44
 2522 01d4 33E7     		b	.L256
 2523              	.L325:
 2524 01d6 00BF     		.align	2
 2525              	.L324:
 2526 01d8 24000000 		.word	.LC4
 2527 01dc 44000000 		.word	.LC5
 2528 01e0 64000000 		.word	.LC6
 2529 01e4 84000000 		.word	.LC7
 2530 01e8 A4000000 		.word	.LC8
 2531 01ec C0000000 		.word	.LC9
 2532 01f0 DC000000 		.word	.LC10
 2533 01f4 04010000 		.word	.LC11
 2534 01f8 80D4FFFF 		.word	-11136
 2535 01fc 00D4FFFF 		.word	-11264
 2536 0200 80D3FFFF 		.word	-11392
 2537 0204 00D3FFFF 		.word	-11520
 2538              		.cfi_endproc
 2539              	.LFE28:
 2540              		.size	pk_parse_key, .-pk_parse_key
 2541 0208 AFF30080 		.section	.text.pk_parse_keyfile,"ax",%progbits
 2541      AFF30080 
 2542              		.align	2
 2543              		.p2align 4,,15
 2544              		.global	pk_parse_keyfile
 2545              		.thumb
 2546              		.thumb_func
 2547              		.type	pk_parse_keyfile, %function
 2548              	pk_parse_keyfile:
 2549              	.LFB13:
 2550              		.loc 1 117 0
 2551              		.cfi_startproc
 2552              		@ args = 0, pretend = 0, frame = 8
 2553              		@ frame_needed = 0, uses_anonymous_args = 0
 2554              	.LVL415:
 2555 0000 30B5     		push	{r4, r5, lr}
 2556              		.cfi_def_cfa_offset 12
 2557              		.cfi_offset 4, -12
 2558              		.cfi_offset 5, -8
ARM GAS  C:\Users\jo\AppData\Local\Temp\ccRMLSMa.s 			page 46


 2559              		.cfi_offset 14, -4
 2560 0002 85B0     		sub	sp, sp, #20
 2561              		.cfi_def_cfa_offset 32
 2562              		.loc 1 117 0
 2563 0004 0546     		mov	r5, r0
 2564 0006 1446     		mov	r4, r2
 2565              		.loc 1 122 0
 2566 0008 0846     		mov	r0, r1
 2567              	.LVL416:
 2568 000a 02AA     		add	r2, sp, #8
 2569              	.LVL417:
 2570 000c 03A9     		add	r1, sp, #12
 2571              	.LVL418:
 2572 000e FFF7FEFF 		bl	pk_load_file
 2573              	.LVL419:
 2574 0012 D0B9     		cbnz	r0, .L327
 2575              		.loc 1 125 0
 2576 0014 DCB1     		cbz	r4, .L336
 2577              		.loc 1 128 0
 2578 0016 2046     		mov	r0, r4
 2579              	.LVL420:
 2580 0018 FFF7FEFF 		bl	strlen
 2581              	.LVL421:
 2582 001c 2346     		mov	r3, r4
 2583 001e 0090     		str	r0, [sp]
 2584 0020 0399     		ldr	r1, [sp, #12]
 2585 0022 029A     		ldr	r2, [sp, #8]
 2586 0024 2846     		mov	r0, r5
 2587 0026 FFF7FEFF 		bl	pk_parse_key
 2588              	.LVL422:
 2589 002a 0446     		mov	r4, r0
 2590              	.LVL423:
 2591              	.L329:
 2592              		.loc 1 131 0
 2593 002c 029A     		ldr	r2, [sp, #8]
 2594 002e 039B     		ldr	r3, [sp, #12]
 2595              	.LVL424:
 2596              	.LBB70:
 2597              	.LBB71:
 2598              		.loc 1 67 0
 2599 0030 511C     		adds	r1, r2, #1
 2600 0032 15D0     		beq	.L333
 2601 0034 0132     		adds	r2, r2, #1
 2602              	.LVL425:
 2603 0036 1A44     		add	r2, r2, r3
 2604 0038 0021     		movs	r1, #0
 2605              	.LVL426:
 2606              	.L331:
 2607 003a 1970     		strb	r1, [r3]
 2608              	.LVL427:
 2609 003c 0133     		adds	r3, r3, #1
 2610              	.LVL428:
 2611 003e 9342     		cmp	r3, r2
 2612 0040 FBD1     		bne	.L331
 2613 0042 0398     		ldr	r0, [sp, #12]
 2614              	.LVL429:
 2615              	.L330:
ARM GAS  C:\Users\jo\AppData\Local\Temp\ccRMLSMa.s 			page 47


 2616              	.LBE71:
 2617              	.LBE70:
 2618              		.loc 1 132 0
 2619 0044 FFF7FEFF 		bl	free
 2620              	.LVL430:
 2621              		.loc 1 134 0
 2622 0048 2046     		mov	r0, r4
 2623              	.LVL431:
 2624              	.L327:
 2625              		.loc 1 135 0
 2626 004a 05B0     		add	sp, sp, #20
 2627              		.cfi_remember_state
 2628              		.cfi_def_cfa_offset 12
 2629              		@ sp needed
 2630 004c 30BD     		pop	{r4, r5, pc}
 2631              	.LVL432:
 2632              	.L336:
 2633              		.cfi_restore_state
 2634              		.loc 1 126 0
 2635 004e 0094     		str	r4, [sp]
 2636 0050 2346     		mov	r3, r4
 2637 0052 0399     		ldr	r1, [sp, #12]
 2638 0054 029A     		ldr	r2, [sp, #8]
 2639 0056 2846     		mov	r0, r5
 2640              	.LVL433:
 2641 0058 FFF7FEFF 		bl	pk_parse_key
 2642              	.LVL434:
 2643 005c 0446     		mov	r4, r0
 2644              	.LVL435:
 2645 005e E5E7     		b	.L329
 2646              	.LVL436:
 2647              	.L333:
 2648              	.LBB73:
 2649              	.LBB72:
 2650              		.loc 1 67 0
 2651 0060 1846     		mov	r0, r3
 2652              	.LVL437:
 2653 0062 EFE7     		b	.L330
 2654              	.LBE72:
 2655              	.LBE73:
 2656              		.cfi_endproc
 2657              	.LFE13:
 2658              		.size	pk_parse_keyfile, .-pk_parse_keyfile
 2659 0064 AFF30080 		.section	.text.pk_parse_public_key,"ax",%progbits
 2659      AFF30080 
 2659      AFF30080 
 2660              		.align	2
 2661              		.p2align 4,,15
 2662              		.global	pk_parse_public_key
 2663              		.thumb
 2664              		.thumb_func
 2665              		.type	pk_parse_public_key, %function
 2666              	pk_parse_public_key:
 2667              	.LFB29:
 2668              		.loc 1 1226 0
 2669              		.cfi_startproc
 2670              		@ args = 0, pretend = 0, frame = 24
ARM GAS  C:\Users\jo\AppData\Local\Temp\ccRMLSMa.s 			page 48


 2671              		@ frame_needed = 0, uses_anonymous_args = 0
 2672              	.LVL438:
 2673 0000 F0B5     		push	{r4, r5, r6, r7, lr}
 2674              		.cfi_def_cfa_offset 20
 2675              		.cfi_offset 4, -20
 2676              		.cfi_offset 5, -16
 2677              		.cfi_offset 6, -12
 2678              		.cfi_offset 7, -8
 2679              		.cfi_offset 14, -4
 2680 0002 8BB0     		sub	sp, sp, #44
 2681              		.cfi_def_cfa_offset 64
 2682              		.loc 1 1226 0
 2683 0004 0746     		mov	r7, r0
 2684              		.loc 1 1233 0
 2685 0006 07A8     		add	r0, sp, #28
 2686              	.LVL439:
 2687              		.loc 1 1226 0
 2688 0008 0D46     		mov	r5, r1
 2689 000a 1646     		mov	r6, r2
 2690              		.loc 1 1233 0
 2691 000c FFF7FEFF 		bl	pem_init
 2692              	.LVL440:
 2693              		.loc 1 1234 0
 2694 0010 0022     		movs	r2, #0
 2695 0012 06A9     		add	r1, sp, #24
 2696 0014 0092     		str	r2, [sp]
 2697 0016 0192     		str	r2, [sp, #4]
 2698 0018 0291     		str	r1, [sp, #8]
 2699 001a 07A8     		add	r0, sp, #28
 2700 001c 2B46     		mov	r3, r5
 2701 001e 0D49     		ldr	r1, .L346
 2702 0020 0D4A     		ldr	r2, .L346+4
 2703 0022 FFF7FEFF 		bl	pem_read_buffer
 2704              	.LVL441:
 2705              		.loc 1 1239 0
 2706 0026 0446     		mov	r4, r0
 2707 0028 78B9     		cbnz	r0, .L338
 2708              		.loc 1 1244 0
 2709 002a 079D     		ldr	r5, [sp, #28]
 2710              	.LVL442:
 2711              		.loc 1 1245 0
 2712 002c 089E     		ldr	r6, [sp, #32]
 2713              	.LVL443:
 2714              	.L339:
 2715              		.loc 1 1253 0
 2716 002e 0AA8     		add	r0, sp, #40
 2717              	.LVL444:
 2718              		.loc 1 1255 0
 2719 0030 A919     		adds	r1, r5, r6
 2720              		.loc 1 1253 0
 2721 0032 40F8145D 		str	r5, [r0, #-20]!
 2722              		.loc 1 1255 0
 2723 0036 3A46     		mov	r2, r7
 2724 0038 FFF7FEFF 		bl	pk_parse_subpubkey
 2725              	.LVL445:
 2726 003c 0446     		mov	r4, r0
 2727              	.LVL446:
ARM GAS  C:\Users\jo\AppData\Local\Temp\ccRMLSMa.s 			page 49


 2728              	.L345:
 2729              		.loc 1 1258 0
 2730 003e 07A8     		add	r0, sp, #28
 2731 0040 FFF7FEFF 		bl	pem_free
 2732              	.LVL447:
 2733              		.loc 1 1261 0
 2734 0044 2046     		mov	r0, r4
 2735              		.loc 1 1262 0
 2736 0046 0BB0     		add	sp, sp, #44
 2737              		.cfi_remember_state
 2738              		.cfi_def_cfa_offset 20
 2739              		@ sp needed
 2740 0048 F0BD     		pop	{r4, r5, r6, r7, pc}
 2741              	.LVL448:
 2742              	.L338:
 2743              		.cfi_restore_state
 2744              		.loc 1 1247 0
 2745 004a 10F5845F 		cmn	r0, #4224
 2746 004e EED0     		beq	.L339
 2747 0050 F5E7     		b	.L345
 2748              	.L347:
 2749 0052 00BF     		.align	2
 2750              	.L346:
 2751 0054 28010000 		.word	.LC12
 2752 0058 44010000 		.word	.LC13
 2753              		.cfi_endproc
 2754              	.LFE29:
 2755              		.size	pk_parse_public_key, .-pk_parse_public_key
 2756 005c AFF30080 		.section	.text.pk_parse_public_keyfile,"ax",%progbits
 2757              		.align	2
 2758              		.p2align 4,,15
 2759              		.global	pk_parse_public_keyfile
 2760              		.thumb
 2761              		.thumb_func
 2762              		.type	pk_parse_public_keyfile, %function
 2763              	pk_parse_public_keyfile:
 2764              	.LFB14:
 2765              		.loc 1 141 0
 2766              		.cfi_startproc
 2767              		@ args = 0, pretend = 0, frame = 8
 2768              		@ frame_needed = 0, uses_anonymous_args = 0
 2769              	.LVL449:
 2770 0000 30B5     		push	{r4, r5, lr}
 2771              		.cfi_def_cfa_offset 12
 2772              		.cfi_offset 4, -12
 2773              		.cfi_offset 5, -8
 2774              		.cfi_offset 14, -4
 2775 0002 83B0     		sub	sp, sp, #12
 2776              		.cfi_def_cfa_offset 24
 2777              		.loc 1 141 0
 2778 0004 0546     		mov	r5, r0
 2779              		.loc 1 146 0
 2780 0006 6A46     		mov	r2, sp
 2781 0008 0846     		mov	r0, r1
 2782              	.LVL450:
 2783 000a 01A9     		add	r1, sp, #4
 2784              	.LVL451:
ARM GAS  C:\Users\jo\AppData\Local\Temp\ccRMLSMa.s 			page 50


 2785 000c FFF7FEFF 		bl	pk_load_file
 2786              	.LVL452:
 2787 0010 0446     		mov	r4, r0
 2788 0012 08B1     		cbz	r0, .L356
 2789              		.loc 1 155 0
 2790 0014 03B0     		add	sp, sp, #12
 2791              		.cfi_remember_state
 2792              		.cfi_def_cfa_offset 12
 2793              		@ sp needed
 2794 0016 30BD     		pop	{r4, r5, pc}
 2795              	.LVL453:
 2796              	.L356:
 2797              		.cfi_restore_state
 2798              		.loc 1 149 0
 2799 0018 2846     		mov	r0, r5
 2800              	.LVL454:
 2801 001a 0199     		ldr	r1, [sp, #4]
 2802 001c 009A     		ldr	r2, [sp]
 2803 001e FFF7FEFF 		bl	pk_parse_public_key
 2804              	.LVL455:
 2805              		.loc 1 151 0
 2806 0022 9DE80C00 		ldmia	sp, {r2, r3}
 2807              	.LBB74:
 2808              	.LBB75:
 2809              		.loc 1 67 0
 2810 0026 511C     		adds	r1, r2, #1
 2811              	.LBE75:
 2812              	.LBE74:
 2813              		.loc 1 149 0
 2814 0028 0546     		mov	r5, r0
 2815              	.LVL456:
 2816              	.LBB78:
 2817              	.LBB76:
 2818              		.loc 1 67 0
 2819 002a 0CD0     		beq	.L353
 2820 002c 0132     		adds	r2, r2, #1
 2821              	.LVL457:
 2822 002e 1A44     		add	r2, r2, r3
 2823 0030 2046     		mov	r0, r4
 2824              	.LVL458:
 2825              	.L351:
 2826 0032 1870     		strb	r0, [r3]
 2827              	.LVL459:
 2828 0034 0133     		adds	r3, r3, #1
 2829              	.LVL460:
 2830 0036 9342     		cmp	r3, r2
 2831 0038 FBD1     		bne	.L351
 2832 003a 0198     		ldr	r0, [sp, #4]
 2833              	.LVL461:
 2834              	.L350:
 2835              	.LBE76:
 2836              	.LBE78:
 2837              		.loc 1 152 0
 2838 003c FFF7FEFF 		bl	free
 2839              	.LVL462:
 2840              		.loc 1 154 0
 2841 0040 2846     		mov	r0, r5
ARM GAS  C:\Users\jo\AppData\Local\Temp\ccRMLSMa.s 			page 51


 2842              		.loc 1 155 0
 2843 0042 03B0     		add	sp, sp, #12
 2844              		.cfi_remember_state
 2845              		.cfi_def_cfa_offset 12
 2846              		@ sp needed
 2847 0044 30BD     		pop	{r4, r5, pc}
 2848              	.LVL463:
 2849              	.L353:
 2850              		.cfi_restore_state
 2851              	.LBB79:
 2852              	.LBB77:
 2853              		.loc 1 67 0
 2854 0046 1846     		mov	r0, r3
 2855              	.LVL464:
 2856 0048 F8E7     		b	.L350
 2857              	.LBE77:
 2858              	.LBE79:
 2859              		.cfi_endproc
 2860              	.LFE14:
 2861              		.size	pk_parse_public_keyfile, .-pk_parse_public_keyfile
 2862 004a 00BFAFF3 		.section	.rodata.str1.4,"aMS",%progbits,1
 2862      0080
 2863              		.align	2
 2864              	.LC0:
 2865 0000 2A8648CE 		.ascii	"*\206H\316=\001\001\000"
 2865      3D010100 
 2866              	.LC1:
 2867 0008 2A864886 		.ascii	"*\206H\206\367\015\001\014\001\001\000"
 2867      F70D010C 
 2867      010100
 2868 0013 00       		.space	1
 2869              	.LC2:
 2870 0014 2A864886 		.ascii	"*\206H\206\367\015\001\005\015\000"
 2870      F70D0105 
 2870      0D00
 2871 001e 0000     		.space	2
 2872              	.LC3:
 2873 0020 726200   		.ascii	"rb\000"
 2874 0023 00       		.space	1
 2875              	.LC4:
 2876 0024 2D2D2D2D 		.ascii	"-----BEGIN RSA PRIVATE KEY-----\000"
 2876      2D424547 
 2876      494E2052 
 2876      53412050 
 2876      52495641 
 2877              	.LC5:
 2878 0044 2D2D2D2D 		.ascii	"-----END RSA PRIVATE KEY-----\000"
 2878      2D454E44 
 2878      20525341 
 2878      20505249 
 2878      56415445 
 2879 0062 0000     		.space	2
 2880              	.LC6:
 2881 0064 2D2D2D2D 		.ascii	"-----BEGIN EC PRIVATE KEY-----\000"
 2881      2D424547 
 2881      494E2045 
 2881      43205052 
ARM GAS  C:\Users\jo\AppData\Local\Temp\ccRMLSMa.s 			page 52


 2881      49564154 
 2882 0083 00       		.space	1
 2883              	.LC7:
 2884 0084 2D2D2D2D 		.ascii	"-----END EC PRIVATE KEY-----\000"
 2884      2D454E44 
 2884      20454320 
 2884      50524956 
 2884      41544520 
 2885 00a1 000000   		.space	3
 2886              	.LC8:
 2887 00a4 2D2D2D2D 		.ascii	"-----BEGIN PRIVATE KEY-----\000"
 2887      2D424547 
 2887      494E2050 
 2887      52495641 
 2887      5445204B 
 2888              	.LC9:
 2889 00c0 2D2D2D2D 		.ascii	"-----END PRIVATE KEY-----\000"
 2889      2D454E44 
 2889      20505249 
 2889      56415445 
 2889      204B4559 
 2890 00da 0000     		.space	2
 2891              	.LC10:
 2892 00dc 2D2D2D2D 		.ascii	"-----BEGIN ENCRYPTED PRIVATE KEY-----\000"
 2892      2D424547 
 2892      494E2045 
 2892      4E435259 
 2892      50544544 
 2893 0102 0000     		.space	2
 2894              	.LC11:
 2895 0104 2D2D2D2D 		.ascii	"-----END ENCRYPTED PRIVATE KEY-----\000"
 2895      2D454E44 
 2895      20454E43 
 2895      52595054 
 2895      45442050 
 2896              	.LC12:
 2897 0128 2D2D2D2D 		.ascii	"-----BEGIN PUBLIC KEY-----\000"
 2897      2D424547 
 2897      494E2050 
 2897      55424C49 
 2897      43204B45 
 2898 0143 00       		.space	1
 2899              	.LC13:
 2900 0144 2D2D2D2D 		.ascii	"-----END PUBLIC KEY-----\000"
 2900      2D454E44 
 2900      20505542 
 2900      4C494320 
 2900      4B45592D 
 2901 015d 000000   		.text
 2902              	.Letext0:
 2903              		.file 2 "c:\\program files\\gnu tools arm embedded\\4.9 2014q4\\lib\\gcc\\arm-none-eabi\\4.9.3\\in
 2904              		.file 3 "../../../ext/mbedtls-1.3.11/library/../include/polarssl/md.h"
 2905              		.file 4 "c:\\program files\\gnu tools arm embedded\\4.9 2014q4\\arm-none-eabi\\include\\machine\\_
 2906              		.file 5 "c:\\program files\\gnu tools arm embedded\\4.9 2014q4\\arm-none-eabi\\include\\sys\\lock.
 2907              		.file 6 "c:\\program files\\gnu tools arm embedded\\4.9 2014q4\\arm-none-eabi\\include\\sys\\_type
 2908              		.file 7 "c:\\program files\\gnu tools arm embedded\\4.9 2014q4\\arm-none-eabi\\include\\sys\\reent
 2909              		.file 8 "c:\\program files\\gnu tools arm embedded\\4.9 2014q4\\arm-none-eabi\\include\\stdio.h"
ARM GAS  C:\Users\jo\AppData\Local\Temp\ccRMLSMa.s 			page 53


 2910              		.file 9 "c:\\program files\\gnu tools arm embedded\\4.9 2014q4\\arm-none-eabi\\include\\stdint.h"
 2911              		.file 10 "../../../ext/mbedtls-1.3.11/library/../include/polarssl/bignum.h"
 2912              		.file 11 "../../../ext/mbedtls-1.3.11/library/../include/polarssl/rsa.h"
 2913              		.file 12 "../../../ext/mbedtls-1.3.11/library/../include/polarssl/ecp.h"
 2914              		.file 13 "../../../ext/mbedtls-1.3.11/library/../include/polarssl/pk.h"
 2915              		.file 14 "../../../ext/mbedtls-1.3.11/library/../include/polarssl/asn1.h"
 2916              		.file 15 "../../../ext/mbedtls-1.3.11/library/../include/polarssl/cipher.h"
 2917              		.file 16 "../../../ext/mbedtls-1.3.11/library/../include/polarssl/pem.h"
 2918              		.file 17 "../../../ext/mbedtls-1.3.11/library/../include/polarssl/oid.h"
 2919              		.file 18 "c:\\program files\\gnu tools arm embedded\\4.9 2014q4\\arm-none-eabi\\include\\string.h"
 2920              		.file 19 "../../../ext/mbedtls-1.3.11/library/../include/polarssl/pkcs12.h"
 2921              		.file 20 "../../../ext/mbedtls-1.3.11/library/../include/polarssl/pkcs5.h"
 2922              		.file 21 "c:\\program files\\gnu tools arm embedded\\4.9 2014q4\\arm-none-eabi\\include\\stdlib.h"