ARM GAS  C:\Users\jo\AppData\Local\Temp\ccRMLSMa.s 			page 1


   1              		.syntax unified
   2              		.cpu cortex-m4
   3              		.fpu softvfp
   4              		.eabi_attribute 20, 1
   5              		.eabi_attribute 21, 1
   6              		.eabi_attribute 23, 3
   7              		.eabi_attribute 24, 1
   8              		.eabi_attribute 25, 1
   9              		.eabi_attribute 26, 1
  10              		.eabi_attribute 30, 2
  11              		.eabi_attribute 34, 1
  12              		.eabi_attribute 18, 4
  13              		.thumb
  14              		.file	"pkparse.c"
  15              		.text
  16              	.Ltext0:
  17              		.cfi_sections	.debug_frame
  18              		.section	.text.pk_parse_key_pkcs1_der,"ax",%progbits
  19              		.align	2
  20              		.p2align 4,,15
  21              		.thumb
  22              		.thumb_func
  23              		.type	pk_parse_key_pkcs1_der, %function
  24              	pk_parse_key_pkcs1_der:
  25              	.LFB24:
  26              		.file 1 "../../../ext/mbedtls-1.3.11/library/pkparse.c"
  27              		.loc 1 639 0
  28              		.cfi_startproc
  29              		@ args = 0, pretend = 0, frame = 8
  30              		@ frame_needed = 0, uses_anonymous_args = 0
  31              	.LVL0:
  32 0000 2DE9F041 		push	{r4, r5, r6, r7, r8, lr}
  33              		.cfi_def_cfa_offset 24
  34              		.cfi_offset 4, -24
  35              		.cfi_offset 5, -20
  36              		.cfi_offset 6, -16
  37              		.cfi_offset 7, -12
  38              		.cfi_offset 8, -8
  39              		.cfi_offset 14, -4
  40 0004 82B0     		sub	sp, sp, #8
  41              		.cfi_def_cfa_offset 32
  42              		.loc 1 644 0
  43 0006 02AD     		add	r5, sp, #8
  44              		.loc 1 639 0
  45 0008 0646     		mov	r6, r0
  46              		.loc 1 644 0
  47 000a 45F8041D 		str	r1, [r5, #-4]!
  48              	.LVL1:
  49              		.loc 1 663 0
  50 000e 3023     		movs	r3, #48
  51 0010 1144     		add	r1, r1, r2
  52              	.LVL2:
  53 0012 2846     		mov	r0, r5
  54              	.LVL3:
  55 0014 6A46     		mov	r2, sp
  56              	.LVL4:
  57 0016 FFF7FEFF 		bl	asn1_get_tag
ARM GAS  C:\Users\jo\AppData\Local\Temp\ccRMLSMa.s 			page 2


  58              	.LVL5:
  59 001a 20B1     		cbz	r0, .L13
  60              	.LVL6:
  61              	.L11:
  62              		.loc 1 673 0
  63 001c A0F53450 		sub	r0, r0, #11520
  64              	.LVL7:
  65              	.L3:
  66              		.loc 1 710 0
  67 0020 02B0     		add	sp, sp, #8
  68              		.cfi_remember_state
  69              		.cfi_def_cfa_offset 24
  70              		@ sp needed
  71 0022 BDE8F081 		pop	{r4, r5, r6, r7, r8, pc}
  72              	.LVL8:
  73              	.L13:
  74              		.cfi_restore_state
  75              		.loc 1 669 0
  76 0026 9DE88800 		ldmia	sp, {r3, r7}
  77 002a 1F44     		add	r7, r7, r3
  78              	.LVL9:
  79              		.loc 1 671 0
  80 002c 3946     		mov	r1, r7
  81 002e 2846     		mov	r0, r5
  82              	.LVL10:
  83 0030 3246     		mov	r2, r6
  84 0032 FFF7FEFF 		bl	asn1_get_int
  85              	.LVL11:
  86 0036 0028     		cmp	r0, #0
  87 0038 F0D1     		bne	.L11
  88              		.loc 1 676 0
  89 003a 3368     		ldr	r3, [r6]
  90 003c 002B     		cmp	r3, #0
  91 003e 5FD1     		bne	.L8
  92              		.loc 1 681 0
  93 0040 06F10808 		add	r8, r6, #8
  94 0044 4246     		mov	r2, r8
  95 0046 2846     		mov	r0, r5
  96              	.LVL12:
  97 0048 3946     		mov	r1, r7
  98 004a FFF7FEFF 		bl	asn1_get_mpi
  99              	.LVL13:
 100 004e 0446     		mov	r4, r0
 101 0050 78B9     		cbnz	r0, .L5
 102              		.loc 1 681 0 is_stmt 0 discriminator 1
 103 0052 2846     		mov	r0, r5
 104              	.LVL14:
 105 0054 3946     		mov	r1, r7
 106 0056 06F11402 		add	r2, r6, #20
 107 005a FFF7FEFF 		bl	asn1_get_mpi
 108              	.LVL15:
 109 005e 0446     		mov	r4, r0
 110 0060 38B9     		cbnz	r0, .L5
 111              		.loc 1 682 0 is_stmt 1
 112 0062 2846     		mov	r0, r5
 113              	.LVL16:
 114 0064 3946     		mov	r1, r7
ARM GAS  C:\Users\jo\AppData\Local\Temp\ccRMLSMa.s 			page 3


 115 0066 06F12002 		add	r2, r6, #32
 116 006a FFF7FEFF 		bl	asn1_get_mpi
 117              	.LVL17:
 118 006e 0446     		mov	r4, r0
 119 0070 38B1     		cbz	r0, .L14
 120              	.L5:
 121              		.loc 1 690 0
 122 0072 3046     		mov	r0, r6
 123              	.LVL18:
 124 0074 FFF7FEFF 		bl	rsa_free
 125              	.LVL19:
 126              		.loc 1 691 0
 127 0078 A4F53450 		sub	r0, r4, #11520
 128              		.loc 1 710 0
 129 007c 02B0     		add	sp, sp, #8
 130              		.cfi_remember_state
 131              		.cfi_def_cfa_offset 24
 132              		@ sp needed
 133 007e BDE8F081 		pop	{r4, r5, r6, r7, r8, pc}
 134              	.LVL20:
 135              	.L14:
 136              		.cfi_restore_state
 137              		.loc 1 683 0
 138 0082 2846     		mov	r0, r5
 139              	.LVL21:
 140 0084 3946     		mov	r1, r7
 141 0086 06F12C02 		add	r2, r6, #44
 142 008a FFF7FEFF 		bl	asn1_get_mpi
 143              	.LVL22:
 144 008e 0446     		mov	r4, r0
 145 0090 0028     		cmp	r0, #0
 146 0092 EED1     		bne	.L5
 147              		.loc 1 684 0
 148 0094 2846     		mov	r0, r5
 149              	.LVL23:
 150 0096 3946     		mov	r1, r7
 151 0098 06F13802 		add	r2, r6, #56
 152 009c FFF7FEFF 		bl	asn1_get_mpi
 153              	.LVL24:
 154 00a0 0446     		mov	r4, r0
 155 00a2 0028     		cmp	r0, #0
 156 00a4 E5D1     		bne	.L5
 157              		.loc 1 685 0
 158 00a6 2846     		mov	r0, r5
 159              	.LVL25:
 160 00a8 3946     		mov	r1, r7
 161 00aa 06F14402 		add	r2, r6, #68
 162 00ae FFF7FEFF 		bl	asn1_get_mpi
 163              	.LVL26:
 164 00b2 0446     		mov	r4, r0
 165 00b4 0028     		cmp	r0, #0
 166 00b6 DCD1     		bne	.L5
 167              		.loc 1 686 0
 168 00b8 2846     		mov	r0, r5
 169              	.LVL27:
 170 00ba 3946     		mov	r1, r7
 171 00bc 06F15002 		add	r2, r6, #80
ARM GAS  C:\Users\jo\AppData\Local\Temp\ccRMLSMa.s 			page 4


 172 00c0 FFF7FEFF 		bl	asn1_get_mpi
 173              	.LVL28:
 174 00c4 0446     		mov	r4, r0
 175 00c6 0028     		cmp	r0, #0
 176 00c8 D3D1     		bne	.L5
 177              		.loc 1 687 0
 178 00ca 2846     		mov	r0, r5
 179              	.LVL29:
 180 00cc 3946     		mov	r1, r7
 181 00ce 06F15C02 		add	r2, r6, #92
 182 00d2 FFF7FEFF 		bl	asn1_get_mpi
 183              	.LVL30:
 184 00d6 0446     		mov	r4, r0
 185 00d8 0028     		cmp	r0, #0
 186 00da CAD1     		bne	.L5
 187              		.loc 1 694 0
 188 00dc 4046     		mov	r0, r8
 189              	.LVL31:
 190 00de FFF7FEFF 		bl	mpi_size
 191              	.LVL32:
 192              		.loc 1 696 0
 193 00e2 019B     		ldr	r3, [sp, #4]
 194              		.loc 1 694 0
 195 00e4 7060     		str	r0, [r6, #4]
 196              		.loc 1 696 0
 197 00e6 BB42     		cmp	r3, r7
 198              		.loc 1 698 0
 199 00e8 3046     		mov	r0, r6
 200              		.loc 1 696 0
 201 00ea 0BD1     		bne	.L15
 202              	.LVL33:
 203              		.loc 1 703 0
 204 00ec FFF7FEFF 		bl	rsa_check_privkey
 205              	.LVL34:
 206 00f0 0446     		mov	r4, r0
 207 00f2 0028     		cmp	r0, #0
 208 00f4 94D0     		beq	.L3
 209              		.loc 1 705 0
 210 00f6 3046     		mov	r0, r6
 211              	.LVL35:
 212 00f8 FFF7FEFF 		bl	rsa_free
 213              	.LVL36:
 214              		.loc 1 706 0
 215 00fc 2046     		mov	r0, r4
 216 00fe 8FE7     		b	.L3
 217              	.LVL37:
 218              	.L8:
 219              		.loc 1 678 0
 220 0100 0248     		ldr	r0, .L16
 221              	.LVL38:
 222 0102 8DE7     		b	.L3
 223              	.LVL39:
 224              	.L15:
 225              		.loc 1 698 0
 226 0104 FFF7FEFF 		bl	rsa_free
 227              	.LVL40:
 228              		.loc 1 699 0
ARM GAS  C:\Users\jo\AppData\Local\Temp\ccRMLSMa.s 			page 5


 229 0108 0148     		ldr	r0, .L16+4
 230 010a 89E7     		b	.L3
 231              	.L17:
 232              		.align	2
 233              	.L16:
 234 010c 80D2FFFF 		.word	-11648
 235 0110 9AD2FFFF 		.word	-11622
 236              		.cfi_endproc
 237              	.LFE24:
 238              		.size	pk_parse_key_pkcs1_der, .-pk_parse_key_pkcs1_der
 239 0114 AFF30080 		.section	.text.pk_get_pk_alg,"ax",%progbits
 239      AFF30080 
 239      AFF30080 
 240              		.align	2
 241              		.p2align 4,,15
 242              		.thumb
 243              		.thumb_func
 244              		.type	pk_get_pk_alg, %function
 245              	pk_get_pk_alg:
 246              	.LFB22:
 247              		.loc 1 543 0
 248              		.cfi_startproc
 249              		@ args = 0, pretend = 0, frame = 16
 250              		@ frame_needed = 0, uses_anonymous_args = 0
 251              	.LVL41:
 252 0000 F0B5     		push	{r4, r5, r6, r7, lr}
 253              		.cfi_def_cfa_offset 20
 254              		.cfi_offset 4, -20
 255              		.cfi_offset 5, -16
 256              		.cfi_offset 6, -12
 257              		.cfi_offset 7, -8
 258              		.cfi_offset 14, -4
 259              		.loc 1 547 0
 260 0002 1C46     		mov	r4, r3
 261 0004 0025     		movs	r5, #0
 262 0006 04F8015B 		strb	r5, [r4], #1
 263 000a 0134     		adds	r4, r4, #1
 264 000c 5D70     		strb	r5, [r3, #1]
 265 000e 04F8015B 		strb	r5, [r4], #1
 266 0012 04F8015B 		strb	r5, [r4], #1
 267 0016 04F8015B 		strb	r5, [r4], #1
 268 001a 04F8015B 		strb	r5, [r4], #1
 269 001e 04F8015B 		strb	r5, [r4], #1
 270 0022 04F8015B 		strb	r5, [r4], #1
 271 0026 04F8015B 		strb	r5, [r4], #1
 272 002a 04F8015B 		strb	r5, [r4], #1
 273 002e 04F8015B 		strb	r5, [r4], #1
 274              		.loc 1 543 0
 275 0032 85B0     		sub	sp, sp, #20
 276              		.cfi_def_cfa_offset 40
 277              		.loc 1 543 0
 278 0034 1746     		mov	r7, r2
 279              		.loc 1 547 0
 280 0036 2570     		strb	r5, [r4]
 281              		.loc 1 549 0
 282 0038 01AA     		add	r2, sp, #4
 283              	.LVL42:
ARM GAS  C:\Users\jo\AppData\Local\Temp\ccRMLSMa.s 			page 6


 284              		.loc 1 543 0
 285 003a 1E46     		mov	r6, r3
 286              		.loc 1 549 0
 287 003c FFF7FEFF 		bl	asn1_get_alg
 288              	.LVL43:
 289 0040 18B1     		cbz	r0, .L19
 290              		.loc 1 550 0
 291 0042 A0F52A50 		sub	r0, r0, #10880
 292              	.LVL44:
 293              	.L20:
 294              		.loc 1 566 0
 295 0046 05B0     		add	sp, sp, #20
 296              		.cfi_remember_state
 297              		.cfi_def_cfa_offset 20
 298              		@ sp needed
 299 0048 F0BD     		pop	{r4, r5, r6, r7, pc}
 300              	.LVL45:
 301              	.L19:
 302              		.cfi_restore_state
 303              		.loc 1 552 0
 304 004a 01A8     		add	r0, sp, #4
 305              	.LVL46:
 306 004c 3946     		mov	r1, r7
 307 004e FFF7FEFF 		bl	oid_get_pk_alg
 308              	.LVL47:
 309 0052 68B9     		cbnz	r0, .L22
 310              	.LVL48:
 311              	.LBB8:
 312              	.LBB9:
 313              		.loc 1 558 0
 314 0054 3B78     		ldrb	r3, [r7]	@ zero_extendqisi2
 315 0056 012B     		cmp	r3, #1
 316 0058 F5D1     		bne	.L20
 317              		.loc 1 559 0
 318 005a 3368     		ldr	r3, [r6]
 319              		.loc 1 558 0
 320 005c 052B     		cmp	r3, #5
 321 005e 00D0     		beq	.L21
 322              		.loc 1 559 0
 323 0060 43B9     		cbnz	r3, .L23
 324              	.L21:
 325 0062 7368     		ldr	r3, [r6, #4]
 326              		.loc 1 562 0
 327 0064 0448     		ldr	r0, .L30
 328 0066 002B     		cmp	r3, #0
 329 0068 08BF     		it	eq
 330 006a 0020     		moveq	r0, #0
 331              	.LBE9:
 332              	.LBE8:
 333              		.loc 1 566 0
 334 006c 05B0     		add	sp, sp, #20
 335              		.cfi_remember_state
 336              		.cfi_def_cfa_offset 20
 337              		@ sp needed
 338 006e F0BD     		pop	{r4, r5, r6, r7, pc}
 339              	.LVL49:
 340              	.L22:
ARM GAS  C:\Users\jo\AppData\Local\Temp\ccRMLSMa.s 			page 7


 341              		.cfi_restore_state
 342              		.loc 1 553 0
 343 0070 0248     		ldr	r0, .L30+4
 344 0072 E8E7     		b	.L20
 345              	.LVL50:
 346              	.L23:
 347              	.LBB11:
 348              	.LBB10:
 349              		.loc 1 562 0
 350 0074 0048     		ldr	r0, .L30
 351 0076 E6E7     		b	.L20
 352              	.L31:
 353              		.align	2
 354              	.L30:
 355 0078 80D5FFFF 		.word	-10880
 356 007c 80D3FFFF 		.word	-11392
 357              	.LBE10:
 358              	.LBE11:
 359              		.cfi_endproc
 360              	.LFE22:
 361              		.size	pk_get_pk_alg, .-pk_get_pk_alg
 362              		.section	.text.pk_use_ecparams,"ax",%progbits
 363              		.align	2
 364              		.p2align 4,,15
 365              		.thumb
 366              		.thumb_func
 367              		.type	pk_use_ecparams, %function
 368              	pk_use_ecparams:
 369              	.LFB19:
 370              		.loc 1 437 0
 371              		.cfi_startproc
 372              		@ args = 0, pretend = 0, frame = 256
 373              		@ frame_needed = 0, uses_anonymous_args = 0
 374              	.LVL51:
 375 0000 F0B5     		push	{r4, r5, r6, r7, lr}
 376              		.cfi_def_cfa_offset 20
 377              		.cfi_offset 4, -20
 378              		.cfi_offset 5, -16
 379              		.cfi_offset 6, -12
 380              		.cfi_offset 7, -8
 381              		.cfi_offset 14, -4
 382              		.loc 1 441 0
 383 0002 0368     		ldr	r3, [r0]
 384 0004 062B     		cmp	r3, #6
 385              		.loc 1 437 0
 386 0006 C1B0     		sub	sp, sp, #260
 387              		.cfi_def_cfa_offset 280
 388              		.loc 1 437 0
 389 0008 0446     		mov	r4, r0
 390 000a 0D46     		mov	r5, r1
 391              		.loc 1 441 0
 392 000c 00F0A380 		beq	.L81
 393              	.LVL52:
 394              	.LBB18:
 395              	.LBB19:
 396              		.loc 1 414 0
 397 0010 02A8     		add	r0, sp, #8
ARM GAS  C:\Users\jo\AppData\Local\Temp\ccRMLSMa.s 			page 8


 398              	.LVL53:
 399 0012 FFF7FEFF 		bl	ecp_group_init
 400              	.LVL54:
 401 0016 A368     		ldr	r3, [r4, #8]
 402 0018 6668     		ldr	r6, [r4, #4]
 403              	.LVL55:
 404              	.LBB20:
 405              	.LBB21:
 406              		.loc 1 222 0
 407 001a 0093     		str	r3, [sp]
 408              		.loc 1 223 0
 409 001c 1E44     		add	r6, r6, r3
 410              	.LVL56:
 411              		.loc 1 229 0
 412 001e 3146     		mov	r1, r6
 413 0020 6846     		mov	r0, sp
 414 0022 21AA     		add	r2, sp, #132
 415 0024 FFF7FEFF 		bl	asn1_get_int
 416              	.LVL57:
 417 0028 0028     		cmp	r0, #0
 418 002a 33D1     		bne	.L50
 419              		.loc 1 232 0
 420 002c 219B     		ldr	r3, [sp, #132]
 421 002e 013B     		subs	r3, r3, #1
 422 0030 022B     		cmp	r3, #2
 423 0032 00F23B81 		bhi	.L38
 424              		.loc 1 241 0
 425 0036 01AA     		add	r2, sp, #4
 426              	.LVL58:
 427 0038 6846     		mov	r0, sp
 428              	.LVL59:
 429 003a 3146     		mov	r1, r6
 430 003c 3023     		movs	r3, #48
 431 003e FFF7FEFF 		bl	asn1_get_tag
 432              	.LVL60:
 433 0042 0446     		mov	r4, r0
 434              	.LVL61:
 435 0044 28B1     		cbz	r0, .L82
 436              	.LVL62:
 437              	.L62:
 438              	.LBE21:
 439              	.LBE20:
 440              		.loc 1 422 0
 441 0046 02A8     		add	r0, sp, #8
 442              	.LVL63:
 443 0048 FFF7FEFF 		bl	ecp_group_free
 444              	.LVL64:
 445 004c 2046     		mov	r0, r4
 446              	.LVL65:
 447              	.L74:
 448              	.LBE19:
 449              	.LBE18:
 450              		.loc 1 466 0
 451 004e 41B0     		add	sp, sp, #260
 452              		.cfi_remember_state
 453              		.cfi_def_cfa_offset 20
 454              		@ sp needed
ARM GAS  C:\Users\jo\AppData\Local\Temp\ccRMLSMa.s 			page 9


 455 0050 F0BD     		pop	{r4, r5, r6, r7, pc}
 456              	.LVL66:
 457              	.L82:
 458              		.cfi_restore_state
 459              	.LBB40:
 460              	.LBB36:
 461              	.LBB26:
 462              	.LBB22:
 463              		.loc 1 245 0
 464 0052 9DE88800 		ldmia	sp, {r3, r7}
 465 0056 1F44     		add	r7, r7, r3
 466              	.LVL67:
 467              		.loc 1 255 0
 468 0058 3946     		mov	r1, r7
 469 005a 6846     		mov	r0, sp
 470              	.LVL68:
 471 005c 01AA     		add	r2, sp, #4
 472              	.LVL69:
 473 005e 0623     		movs	r3, #6
 474 0060 FFF7FEFF 		bl	asn1_get_tag
 475              	.LVL70:
 476 0064 0446     		mov	r4, r0
 477 0066 0028     		cmp	r0, #0
 478 0068 EDD1     		bne	.L62
 479              		.loc 1 258 0
 480 006a 019A     		ldr	r2, [sp, #4]
 481 006c 072A     		cmp	r2, #7
 482 006e 40F01F81 		bne	.L66
 483              		.loc 1 259 0
 484 0072 009C     		ldr	r4, [sp]
 485 0074 9249     		ldr	r1, .L86
 486 0076 2046     		mov	r0, r4
 487              	.LVL71:
 488 0078 FFF7FEFF 		bl	memcmp
 489              	.LVL72:
 490              		.loc 1 258 0
 491 007c 0028     		cmp	r0, #0
 492 007e 40F01781 		bne	.L66
 493              		.loc 1 264 0
 494 0082 0734     		adds	r4, r4, #7
 495              		.loc 1 267 0
 496 0084 03AA     		add	r2, sp, #12
 497 0086 6846     		mov	r0, sp
 498 0088 3946     		mov	r1, r7
 499              		.loc 1 264 0
 500 008a 0094     		str	r4, [sp]
 501              		.loc 1 267 0
 502 008c FFF7FEFF 		bl	asn1_get_mpi
 503              	.LVL73:
 504 0090 0028     		cmp	r0, #0
 505 0092 79D0     		beq	.L83
 506              	.LVL74:
 507              	.L50:
 508              		.loc 1 349 0
 509 0094 A0F53454 		sub	r4, r0, #11520
 510              	.LBE22:
 511              	.LBE26:
ARM GAS  C:\Users\jo\AppData\Local\Temp\ccRMLSMa.s 			page 10


 512              		.loc 1 416 0
 513 0098 002C     		cmp	r4, #0
 514 009a D4D1     		bne	.L62
 515              	.LVL75:
 516              	.L53:
 517              	.LBB27:
 518              	.LBB28:
 519              		.loc 1 370 0
 520 009c 21A8     		add	r0, sp, #132
 521 009e FFF7FEFF 		bl	ecp_group_init
 522              	.LVL76:
 523              		.loc 1 372 0
 524 00a2 FFF7FEFF 		bl	ecp_grp_id_list
 525              	.LVL77:
 526 00a6 0378     		ldrb	r3, [r0]	@ zero_extendqisi2
 527 00a8 0646     		mov	r6, r0
 528              	.LVL78:
 529 00aa 23B9     		cbnz	r3, .L58
 530 00ac 45E0     		b	.L55
 531              	.LVL79:
 532              	.L59:
 533 00ae 16F8013F 		ldrb	r3, [r6, #1]!	@ zero_extendqisi2
 534              	.LVL80:
 535 00b2 002B     		cmp	r3, #0
 536 00b4 41D0     		beq	.L55
 537              	.LVL81:
 538              	.L58:
 539              		.loc 1 375 0
 540 00b6 21A8     		add	r0, sp, #132
 541 00b8 FFF7FEFF 		bl	ecp_group_free
 542              	.LVL82:
 543              		.loc 1 376 0
 544 00bc 21A8     		add	r0, sp, #132
 545 00be 3178     		ldrb	r1, [r6]	@ zero_extendqisi2
 546 00c0 FFF7FEFF 		bl	ecp_use_known_dp
 547              	.LVL83:
 548 00c4 0446     		mov	r4, r0
 549 00c6 0028     		cmp	r0, #0
 550 00c8 57D1     		bne	.L56
 551              		.loc 1 379 0
 552 00ca 189A     		ldr	r2, [sp, #96]
 553 00cc 379B     		ldr	r3, [sp, #220]
 554 00ce 9A42     		cmp	r2, r3
 555 00d0 EDD1     		bne	.L59
 556 00d2 199A     		ldr	r2, [sp, #100]
 557 00d4 389B     		ldr	r3, [sp, #224]
 558 00d6 9A42     		cmp	r2, r3
 559 00d8 E9D1     		bne	.L59
 560              		.loc 1 380 0
 561 00da 03A8     		add	r0, sp, #12
 562              	.LVL84:
 563 00dc 22A9     		add	r1, sp, #136
 564 00de FFF7FEFF 		bl	mpi_cmp_mpi
 565              	.LVL85:
 566              		.loc 1 379 0
 567 00e2 0028     		cmp	r0, #0
 568 00e4 E3D1     		bne	.L59
ARM GAS  C:\Users\jo\AppData\Local\Temp\ccRMLSMa.s 			page 11


 569              		.loc 1 381 0
 570 00e6 06A8     		add	r0, sp, #24
 571 00e8 25A9     		add	r1, sp, #148
 572 00ea FFF7FEFF 		bl	mpi_cmp_mpi
 573              	.LVL86:
 574              		.loc 1 380 0
 575 00ee 0028     		cmp	r0, #0
 576 00f0 DDD1     		bne	.L59
 577              		.loc 1 382 0
 578 00f2 09A8     		add	r0, sp, #36
 579 00f4 28A9     		add	r1, sp, #160
 580 00f6 FFF7FEFF 		bl	mpi_cmp_mpi
 581              	.LVL87:
 582              		.loc 1 381 0
 583 00fa 0028     		cmp	r0, #0
 584 00fc D7D1     		bne	.L59
 585              		.loc 1 383 0
 586 00fe 15A8     		add	r0, sp, #84
 587 0100 34A9     		add	r1, sp, #208
 588 0102 FFF7FEFF 		bl	mpi_cmp_mpi
 589              	.LVL88:
 590              		.loc 1 382 0
 591 0106 0028     		cmp	r0, #0
 592 0108 D1D1     		bne	.L59
 593              		.loc 1 384 0
 594 010a 0CA8     		add	r0, sp, #48
 595 010c 2BA9     		add	r1, sp, #172
 596 010e FFF7FEFF 		bl	mpi_cmp_mpi
 597              	.LVL89:
 598              		.loc 1 383 0
 599 0112 0028     		cmp	r0, #0
 600 0114 CBD1     		bne	.L59
 601              		.loc 1 385 0
 602 0116 12A8     		add	r0, sp, #72
 603 0118 31A9     		add	r1, sp, #196
 604 011a FFF7FEFF 		bl	mpi_cmp_mpi
 605              	.LVL90:
 606              		.loc 1 384 0
 607 011e 0446     		mov	r4, r0
 608              	.LVL91:
 609 0120 0028     		cmp	r0, #0
 610 0122 C4D1     		bne	.L59
 611              		.loc 1 387 0
 612 0124 2146     		mov	r1, r4
 613 0126 0FA8     		add	r0, sp, #60
 614 0128 FFF7FEFF 		bl	mpi_get_bit
 615              	.LVL92:
 616 012c 2146     		mov	r1, r4
 617 012e 0746     		mov	r7, r0
 618 0130 2EA8     		add	r0, sp, #184
 619 0132 FFF7FEFF 		bl	mpi_get_bit
 620              	.LVL93:
 621              		.loc 1 385 0
 622 0136 8742     		cmp	r7, r0
 623 0138 B9D1     		bne	.L59
 624              	.LVL94:
 625              	.L55:
ARM GAS  C:\Users\jo\AppData\Local\Temp\ccRMLSMa.s 			page 12


 626              		.loc 1 395 0
 627 013a 21A8     		add	r0, sp, #132
 628 013c FFF7FEFF 		bl	ecp_group_free
 629              	.LVL95:
 630              		.loc 1 397 0
 631 0140 3378     		ldrb	r3, [r6]	@ zero_extendqisi2
 632 0142 8DF80430 		strb	r3, [sp, #4]
 633              		.loc 1 399 0
 634 0146 3378     		ldrb	r3, [r6]	@ zero_extendqisi2
 635 0148 002B     		cmp	r3, #0
 636 014a 00F0B780 		beq	.L84
 637              	.LVL96:
 638              	.LBE28:
 639              	.LBE27:
 640              		.loc 1 422 0
 641 014e 02A8     		add	r0, sp, #8
 642              	.LVL97:
 643 0150 FFF7FEFF 		bl	ecp_group_free
 644              	.LVL98:
 645 0154 05E0     		b	.L35
 646              	.LVL99:
 647              	.L81:
 648              	.LBE36:
 649              	.LBE40:
 650              		.loc 1 443 0
 651 0156 01A9     		add	r1, sp, #4
 652              	.LVL100:
 653 0158 FFF7FEFF 		bl	oid_get_ec_grp
 654              	.LVL101:
 655 015c 0028     		cmp	r0, #0
 656 015e 40F0A980 		bne	.L85
 657              	.LVL102:
 658              	.L35:
 659              		.loc 1 459 0
 660 0162 2B78     		ldrb	r3, [r5]	@ zero_extendqisi2
 661 0164 9DF80410 		ldrb	r1, [sp, #4]	@ zero_extendqisi2
 662 0168 13B1     		cbz	r3, .L61
 663              		.loc 1 459 0 is_stmt 0 discriminator 1
 664 016a 8B42     		cmp	r3, r1
 665 016c 40F09C80 		bne	.L67
 666              	.L61:
 667              		.loc 1 462 0 is_stmt 1
 668 0170 2846     		mov	r0, r5
 669 0172 FFF7FEFF 		bl	ecp_use_known_dp
 670              	.LVL103:
 671              		.loc 1 466 0
 672 0176 41B0     		add	sp, sp, #260
 673              		.cfi_remember_state
 674              		.cfi_def_cfa_offset 20
 675              		@ sp needed
 676 0178 F0BD     		pop	{r4, r5, r6, r7, pc}
 677              	.LVL104:
 678              	.L56:
 679              		.cfi_restore_state
 680              	.LBB41:
 681              	.LBB37:
 682              	.LBB31:
ARM GAS  C:\Users\jo\AppData\Local\Temp\ccRMLSMa.s 			page 13


 683              	.LBB29:
 684              		.loc 1 395 0
 685 017a 21A8     		add	r0, sp, #132
 686              	.LVL105:
 687 017c FFF7FEFF 		bl	ecp_group_free
 688              	.LVL106:
 689              		.loc 1 397 0
 690 0180 3378     		ldrb	r3, [r6]	@ zero_extendqisi2
 691 0182 8DF80430 		strb	r3, [sp, #4]
 692 0186 5EE7     		b	.L62
 693              	.LVL107:
 694              	.L83:
 695              	.LBE29:
 696              	.LBE31:
 697              	.LBB32:
 698              	.LBB23:
 699              		.loc 1 270 0
 700 0188 03A8     		add	r0, sp, #12
 701              	.LVL108:
 702 018a FFF7FEFF 		bl	mpi_msb
 703              	.LVL109:
 704              		.loc 1 272 0
 705 018e 009B     		ldr	r3, [sp]
 706              		.loc 1 270 0
 707 0190 1890     		str	r0, [sp, #96]
 708              		.loc 1 272 0
 709 0192 9F42     		cmp	r7, r3
 710 0194 40F09080 		bne	.L47
 711              		.loc 1 285 0
 712 0198 6846     		mov	r0, sp
 713 019a 3146     		mov	r1, r6
 714 019c 01AA     		add	r2, sp, #4
 715              	.LVL110:
 716 019e 3023     		movs	r3, #48
 717 01a0 FFF7FEFF 		bl	asn1_get_tag
 718              	.LVL111:
 719 01a4 0446     		mov	r4, r0
 720 01a6 0028     		cmp	r0, #0
 721 01a8 7FF44DAF 		bne	.L62
 722              		.loc 1 289 0
 723 01ac 9DE81800 		ldmia	sp, {r3, r4}
 724 01b0 1C44     		add	r4, r4, r3
 725              	.LVL112:
 726              		.loc 1 295 0
 727 01b2 2146     		mov	r1, r4
 728 01b4 6846     		mov	r0, sp
 729              	.LVL113:
 730 01b6 01AA     		add	r2, sp, #4
 731              	.LVL114:
 732 01b8 0423     		movs	r3, #4
 733 01ba FFF7FEFF 		bl	asn1_get_tag
 734              	.LVL115:
 735 01be 0028     		cmp	r0, #0
 736 01c0 7FF468AF 		bne	.L50
 737 01c4 06A8     		add	r0, sp, #24
 738              	.LVL116:
 739 01c6 9DE80600 		ldmia	sp, {r1, r2}
ARM GAS  C:\Users\jo\AppData\Local\Temp\ccRMLSMa.s 			page 14


 740 01ca FFF7FEFF 		bl	mpi_read_binary
 741              	.LVL117:
 742 01ce 0028     		cmp	r0, #0
 743 01d0 7FF460AF 		bne	.L50
 744              		.loc 1 301 0
 745 01d4 009F     		ldr	r7, [sp]
 746              	.LVL118:
 747 01d6 019B     		ldr	r3, [sp, #4]
 748              		.loc 1 303 0
 749 01d8 6846     		mov	r0, sp
 750              	.LVL119:
 751              		.loc 1 301 0
 752 01da 1F44     		add	r7, r7, r3
 753              		.loc 1 303 0
 754 01dc 2146     		mov	r1, r4
 755 01de 01AA     		add	r2, sp, #4
 756              	.LVL120:
 757 01e0 0423     		movs	r3, #4
 758              		.loc 1 301 0
 759 01e2 0097     		str	r7, [sp]
 760              		.loc 1 303 0
 761 01e4 FFF7FEFF 		bl	asn1_get_tag
 762              	.LVL121:
 763 01e8 0028     		cmp	r0, #0
 764 01ea 7FF453AF 		bne	.L50
 765 01ee 09A8     		add	r0, sp, #36
 766              	.LVL122:
 767 01f0 9DE80600 		ldmia	sp, {r1, r2}
 768 01f4 FFF7FEFF 		bl	mpi_read_binary
 769              	.LVL123:
 770 01f8 0028     		cmp	r0, #0
 771 01fa 7FF44BAF 		bne	.L50
 772              		.loc 1 309 0
 773 01fe 009F     		ldr	r7, [sp]
 774 0200 019B     		ldr	r3, [sp, #4]
 775              		.loc 1 312 0
 776 0202 6846     		mov	r0, sp
 777              	.LVL124:
 778              		.loc 1 309 0
 779 0204 1F44     		add	r7, r7, r3
 780              		.loc 1 312 0
 781 0206 2146     		mov	r1, r4
 782 0208 01AA     		add	r2, sp, #4
 783              	.LVL125:
 784 020a 0323     		movs	r3, #3
 785              		.loc 1 309 0
 786 020c 0097     		str	r7, [sp]
 787              		.loc 1 312 0
 788 020e FFF7FEFF 		bl	asn1_get_tag
 789              	.LVL126:
 790 0212 18B9     		cbnz	r0, .L46
 791              		.loc 1 313 0
 792 0214 9DE80C00 		ldmia	sp, {r2, r3}
 793 0218 1344     		add	r3, r3, r2
 794 021a 0093     		str	r3, [sp]
 795              	.L46:
 796              		.loc 1 315 0
ARM GAS  C:\Users\jo\AppData\Local\Temp\ccRMLSMa.s 			page 15


 797 021c 009B     		ldr	r3, [sp]
 798 021e 9C42     		cmp	r4, r3
 799 0220 4AD1     		bne	.L47
 800              		.loc 1 322 0
 801 0222 01AA     		add	r2, sp, #4
 802              	.LVL127:
 803 0224 6846     		mov	r0, sp
 804              	.LVL128:
 805 0226 3146     		mov	r1, r6
 806 0228 0423     		movs	r3, #4
 807 022a FFF7FEFF 		bl	asn1_get_tag
 808              	.LVL129:
 809 022e 0028     		cmp	r0, #0
 810 0230 7FF430AF 		bne	.L50
 811              		.loc 1 325 0
 812 0234 0CA9     		add	r1, sp, #48
 813 0236 02A8     		add	r0, sp, #8
 814              	.LVL130:
 815 0238 9DE80C00 		ldmia	sp, {r2, r3}
 816 023c FFF7FEFF 		bl	ecp_point_read_binary
 817              	.LVL131:
 818 0240 08B3     		cbz	r0, .L52
 819              		.loc 1 332 0
 820 0242 10F59D4F 		cmn	r0, #20096
 821 0246 31D1     		bne	.L38
 822              		.loc 1 333 0
 823 0248 009B     		ldr	r3, [sp]
 824 024a 1B78     		ldrb	r3, [r3]	@ zero_extendqisi2
 825              		.loc 1 332 0
 826 024c 023B     		subs	r3, r3, #2
 827 024e 012B     		cmp	r3, #1
 828 0250 2CD8     		bhi	.L38
 829              		.loc 1 334 0
 830 0252 03A8     		add	r0, sp, #12
 831              	.LVL132:
 832 0254 FFF7FEFF 		bl	mpi_size
 833              	.LVL133:
 834              		.loc 1 333 0
 835 0258 019B     		ldr	r3, [sp, #4]
 836              		.loc 1 334 0
 837 025a 411C     		adds	r1, r0, #1
 838              		.loc 1 333 0
 839 025c 9942     		cmp	r1, r3
 840              		.loc 1 334 0
 841 025e 0246     		mov	r2, r0
 842              		.loc 1 333 0
 843 0260 24D1     		bne	.L38
 844              		.loc 1 335 0
 845 0262 0099     		ldr	r1, [sp]
 846 0264 0CA8     		add	r0, sp, #48
 847 0266 0131     		adds	r1, r1, #1
 848 0268 FFF7FEFF 		bl	mpi_read_binary
 849              	.LVL134:
 850              		.loc 1 334 0
 851 026c F0B9     		cbnz	r0, .L38
 852              		.loc 1 336 0
 853 026e 009B     		ldr	r3, [sp]
ARM GAS  C:\Users\jo\AppData\Local\Temp\ccRMLSMa.s 			page 16


 854 0270 1978     		ldrb	r1, [r3]	@ zero_extendqisi2
 855 0272 0FA8     		add	r0, sp, #60
 856 0274 0239     		subs	r1, r1, #2
 857 0276 FFF7FEFF 		bl	mpi_lset
 858              	.LVL135:
 859              		.loc 1 335 0
 860 027a B8B9     		cbnz	r0, .L38
 861              		.loc 1 337 0
 862 027c 12A8     		add	r0, sp, #72
 863 027e 0121     		movs	r1, #1
 864 0280 FFF7FEFF 		bl	mpi_lset
 865              	.LVL136:
 866              		.loc 1 336 0
 867 0284 90B9     		cbnz	r0, .L38
 868              	.L52:
 869              		.loc 1 343 0
 870 0286 9DE80C00 		ldmia	sp, {r2, r3}
 871              		.loc 1 348 0
 872 028a 3146     		mov	r1, r6
 873              		.loc 1 343 0
 874 028c 1344     		add	r3, r3, r2
 875              		.loc 1 348 0
 876 028e 6846     		mov	r0, sp
 877 0290 15AA     		add	r2, sp, #84
 878              		.loc 1 343 0
 879 0292 0093     		str	r3, [sp]
 880              		.loc 1 348 0
 881 0294 FFF7FEFF 		bl	asn1_get_mpi
 882              	.LVL137:
 883 0298 0028     		cmp	r0, #0
 884 029a 7FF4FBAE 		bne	.L50
 885              		.loc 1 351 0
 886 029e 15A8     		add	r0, sp, #84
 887              	.LVL138:
 888 02a0 FFF7FEFF 		bl	mpi_msb
 889              	.LVL139:
 890 02a4 1990     		str	r0, [sp, #100]
 891 02a6 F9E6     		b	.L53
 892              	.LVL140:
 893              	.L67:
 894              	.LBE23:
 895              	.LBE32:
 896              	.LBE37:
 897              	.LBE41:
 898              		.loc 1 460 0
 899 02a8 0648     		ldr	r0, .L86+4
 900 02aa D0E6     		b	.L74
 901              	.LVL141:
 902              	.L38:
 903              	.LBB42:
 904              	.LBB38:
 905              	.LBB33:
 906              	.LBB24:
 907              		.loc 1 233 0
 908 02ac 054C     		ldr	r4, .L86+4
 909 02ae CAE6     		b	.L62
 910              	.LVL142:
ARM GAS  C:\Users\jo\AppData\Local\Temp\ccRMLSMa.s 			page 17


 911              	.L66:
 912              		.loc 1 261 0
 913 02b0 054C     		ldr	r4, .L86+8
 914 02b2 C8E6     		b	.L62
 915              	.LVL143:
 916              	.L85:
 917              	.LBE24:
 918              	.LBE33:
 919              	.LBE38:
 920              	.LBE42:
 921              		.loc 1 444 0
 922 02b4 0548     		ldr	r0, .L86+12
 923 02b6 CAE6     		b	.L74
 924              	.LVL144:
 925              	.L47:
 926              	.LBB43:
 927              	.LBB39:
 928              	.LBB34:
 929              	.LBB25:
 930              		.loc 1 273 0
 931 02b8 054C     		ldr	r4, .L86+16
 932 02ba C4E6     		b	.L62
 933              	.LVL145:
 934              	.L84:
 935              	.LBE25:
 936              	.LBE34:
 937              	.LBB35:
 938              	.LBB30:
 939              		.loc 1 400 0
 940 02bc 054C     		ldr	r4, .L86+20
 941 02be C2E6     		b	.L62
 942              	.L87:
 943              		.align	2
 944              	.L86:
 945 02c0 00000000 		.word	.LC0
 946 02c4 00D3FFFF 		.word	-11520
 947 02c8 80D6FFFF 		.word	-10624
 948 02cc 00D6FFFF 		.word	-10752
 949 02d0 9AD2FFFF 		.word	-11622
 950 02d4 80B1FFFF 		.word	-20096
 951              	.LBE30:
 952              	.LBE35:
 953              	.LBE39:
 954              	.LBE43:
 955              		.cfi_endproc
 956              	.LFE19:
 957              		.size	pk_use_ecparams, .-pk_use_ecparams
 958 02d8 AFF30080 		.section	.text.pk_parse_key_sec1_der,"ax",%progbits
 958      AFF30080 
 959              		.align	2
 960              		.p2align 4,,15
 961              		.thumb
 962              		.thumb_func
 963              		.type	pk_parse_key_sec1_der, %function
 964              	pk_parse_key_sec1_der:
 965              	.LFB25:
 966              		.loc 1 720 0
ARM GAS  C:\Users\jo\AppData\Local\Temp\ccRMLSMa.s 			page 18


 967              		.cfi_startproc
 968              		@ args = 0, pretend = 0, frame = 24
 969              		@ frame_needed = 0, uses_anonymous_args = 0
 970              	.LVL146:
 971 0000 2DE9F041 		push	{r4, r5, r6, r7, r8, lr}
 972              		.cfi_def_cfa_offset 24
 973              		.cfi_offset 4, -24
 974              		.cfi_offset 5, -20
 975              		.cfi_offset 6, -16
 976              		.cfi_offset 7, -12
 977              		.cfi_offset 8, -8
 978              		.cfi_offset 14, -4
 979 0004 88B0     		sub	sp, sp, #32
 980              		.cfi_def_cfa_offset 56
 981              		.loc 1 725 0
 982 0006 08AE     		add	r6, sp, #32
 983              		.loc 1 720 0
 984 0008 0546     		mov	r5, r0
 985              		.loc 1 725 0
 986 000a 46F8101D 		str	r1, [r6, #-16]!
 987              	.LVL147:
 988              		.loc 1 739 0
 989 000e 3023     		movs	r3, #48
 990 0010 1144     		add	r1, r1, r2
 991              	.LVL148:
 992 0012 3046     		mov	r0, r6
 993              	.LVL149:
 994 0014 03AA     		add	r2, sp, #12
 995              	.LVL150:
 996 0016 FFF7FEFF 		bl	asn1_get_tag
 997              	.LVL151:
 998 001a 20B1     		cbz	r0, .L138
 999              	.LVL152:
 1000              	.L133:
 1001              		.loc 1 796 0
 1002 001c A0F53450 		sub	r0, r0, #11520
 1003              	.LVL153:
 1004              	.L126:
 1005              		.loc 1 836 0
 1006 0020 08B0     		add	sp, sp, #32
 1007              		.cfi_remember_state
 1008              		.cfi_def_cfa_offset 24
 1009              		@ sp needed
 1010 0022 BDE8F081 		pop	{r4, r5, r6, r7, r8, pc}
 1011              	.LVL154:
 1012              	.L138:
 1013              		.cfi_restore_state
 1014              		.loc 1 745 0
 1015 0026 049F     		ldr	r7, [sp, #16]
 1016 0028 039B     		ldr	r3, [sp, #12]
 1017 002a 1F44     		add	r7, r7, r3
 1018              	.LVL155:
 1019              		.loc 1 747 0
 1020 002c 3946     		mov	r1, r7
 1021 002e 3046     		mov	r0, r6
 1022              	.LVL156:
 1023 0030 02AA     		add	r2, sp, #8
ARM GAS  C:\Users\jo\AppData\Local\Temp\ccRMLSMa.s 			page 19


 1024 0032 FFF7FEFF 		bl	asn1_get_int
 1025              	.LVL157:
 1026 0036 0028     		cmp	r0, #0
 1027 0038 F0D1     		bne	.L133
 1028              		.loc 1 750 0
 1029 003a 029B     		ldr	r3, [sp, #8]
 1030 003c 012B     		cmp	r3, #1
 1031 003e 48D1     		bne	.L108
 1032              		.loc 1 753 0
 1033 0040 3046     		mov	r0, r6
 1034              	.LVL158:
 1035 0042 3946     		mov	r1, r7
 1036 0044 03AA     		add	r2, sp, #12
 1037 0046 0423     		movs	r3, #4
 1038 0048 FFF7FEFF 		bl	asn1_get_tag
 1039              	.LVL159:
 1040 004c 0028     		cmp	r0, #0
 1041 004e E5D1     		bne	.L133
 1042              		.loc 1 756 0
 1043 0050 05F17C08 		add	r8, r5, #124
 1044 0054 4046     		mov	r0, r8
 1045              	.LVL160:
 1046 0056 0499     		ldr	r1, [sp, #16]
 1047 0058 039A     		ldr	r2, [sp, #12]
 1048 005a FFF7FEFF 		bl	mpi_read_binary
 1049              	.LVL161:
 1050 005e 0446     		mov	r4, r0
 1051 0060 0028     		cmp	r0, #0
 1052 0062 38D1     		bne	.L107
 1053              		.loc 1 762 0
 1054 0064 049A     		ldr	r2, [sp, #16]
 1055 0066 039B     		ldr	r3, [sp, #12]
 1056 0068 1344     		add	r3, r3, r2
 1057              		.loc 1 765 0
 1058 006a 9F42     		cmp	r7, r3
 1059              		.loc 1 762 0
 1060 006c 0493     		str	r3, [sp, #16]
 1061              	.LVL162:
 1062              		.loc 1 765 0
 1063 006e 16D0     		beq	.L130
 1064              		.loc 1 770 0
 1065 0070 3046     		mov	r0, r6
 1066              	.LVL163:
 1067 0072 3946     		mov	r1, r7
 1068 0074 03AA     		add	r2, sp, #12
 1069 0076 A023     		movs	r3, #160
 1070 0078 FFF7FEFF 		bl	asn1_get_tag
 1071              	.LVL164:
 1072 007c 0446     		mov	r4, r0
 1073 007e 80B3     		cbz	r0, .L139
 1074              		.loc 1 780 0
 1075 0080 10F1620F 		cmn	r0, #98
 1076 0084 27D1     		bne	.L107
 1077              	.L100:
 1078              		.loc 1 790 0
 1079 0086 3946     		mov	r1, r7
 1080 0088 3046     		mov	r0, r6
ARM GAS  C:\Users\jo\AppData\Local\Temp\ccRMLSMa.s 			page 20


 1081              	.LVL165:
 1082 008a 03AA     		add	r2, sp, #12
 1083 008c A123     		movs	r3, #161
 1084 008e FFF7FEFF 		bl	asn1_get_tag
 1085              	.LVL166:
 1086 0092 0446     		mov	r4, r0
 1087 0094 0028     		cmp	r0, #0
 1088 0096 42D0     		beq	.L140
 1089              		.loc 1 814 0
 1090 0098 10F1620F 		cmn	r0, #98
 1091 009c 1BD1     		bne	.L107
 1092              	.L130:
 1093 009e 05F18804 		add	r4, r5, #136
 1094              	.LVL167:
 1095              	.L94:
 1096              		.loc 1 821 0
 1097 00a2 0023     		movs	r3, #0
 1098 00a4 2146     		mov	r1, r4
 1099 00a6 0093     		str	r3, [sp]
 1100 00a8 0193     		str	r3, [sp, #4]
 1101 00aa 2846     		mov	r0, r5
 1102 00ac 4246     		mov	r2, r8
 1103 00ae 05F12803 		add	r3, r5, #40
 1104 00b2 FFF7FEFF 		bl	ecp_mul
 1105              	.LVL168:
 1106 00b6 0446     		mov	r4, r0
 1107 00b8 68B9     		cbnz	r0, .L107
 1108              	.LVL169:
 1109              	.L105:
 1110              		.loc 1 829 0
 1111 00ba 4146     		mov	r1, r8
 1112 00bc 2846     		mov	r0, r5
 1113 00be FFF7FEFF 		bl	ecp_check_privkey
 1114              	.LVL170:
 1115 00c2 0446     		mov	r4, r0
 1116 00c4 0028     		cmp	r0, #0
 1117 00c6 ABD0     		beq	.L126
 1118              	.LVL171:
 1119              	.L135:
 1120              		.loc 1 831 0
 1121 00c8 2846     		mov	r0, r5
 1122 00ca FFF7FEFF 		bl	ecp_keypair_free
 1123              	.LVL172:
 1124              		.loc 1 832 0
 1125 00ce 2046     		mov	r0, r4
 1126 00d0 A6E7     		b	.L126
 1127              	.LVL173:
 1128              	.L108:
 1129              		.loc 1 751 0
 1130 00d2 2A48     		ldr	r0, .L144
 1131              	.LVL174:
 1132 00d4 A4E7     		b	.L126
 1133              	.LVL175:
 1134              	.L107:
 1135              		.loc 1 825 0
 1136 00d6 2846     		mov	r0, r5
 1137              	.LVL176:
ARM GAS  C:\Users\jo\AppData\Local\Temp\ccRMLSMa.s 			page 21


 1138 00d8 FFF7FEFF 		bl	ecp_keypair_free
 1139              	.LVL177:
 1140              		.loc 1 826 0
 1141 00dc A4F53450 		sub	r0, r4, #11520
 1142 00e0 9EE7     		b	.L126
 1143              	.LVL178:
 1144              	.L139:
 1145              		.loc 1 773 0
 1146 00e2 049A     		ldr	r2, [sp, #16]
 1147 00e4 039C     		ldr	r4, [sp, #12]
 1148              	.LBB48:
 1149              	.LBB49:
 1150              		.loc 1 173 0
 1151 00e6 1378     		ldrb	r3, [r2]	@ zero_extendqisi2
 1152 00e8 0593     		str	r3, [sp, #20]
 1153              		.loc 1 174 0
 1154 00ea 062B     		cmp	r3, #6
 1155              	.LBE49:
 1156              	.LBE48:
 1157              		.loc 1 773 0
 1158 00ec 1444     		add	r4, r4, r2
 1159              	.LVL179:
 1160              	.LBB52:
 1161              	.LBB50:
 1162              		.loc 1 174 0
 1163 00ee 01D0     		beq	.L96
 1164              		.loc 1 176 0
 1165 00f0 302B     		cmp	r3, #48
 1166 00f2 39D1     		bne	.L109
 1167              	.L96:
 1168              		.loc 1 184 0
 1169 00f4 3046     		mov	r0, r6
 1170              	.LVL180:
 1171 00f6 2146     		mov	r1, r4
 1172 00f8 06AA     		add	r2, sp, #24
 1173 00fa FFF7FEFF 		bl	asn1_get_tag
 1174              	.LVL181:
 1175 00fe 58BB     		cbnz	r0, .L141
 1176              		.loc 1 189 0
 1177 0100 049A     		ldr	r2, [sp, #16]
 1178              		.loc 1 190 0
 1179 0102 069B     		ldr	r3, [sp, #24]
 1180              		.loc 1 189 0
 1181 0104 0792     		str	r2, [sp, #28]
 1182              		.loc 1 190 0
 1183 0106 1344     		add	r3, r3, r2
 1184              		.loc 1 192 0
 1185 0108 9C42     		cmp	r4, r3
 1186              		.loc 1 190 0
 1187 010a 0493     		str	r3, [sp, #16]
 1188              		.loc 1 192 0
 1189 010c 2AD1     		bne	.L142
 1190              	.LVL182:
 1191              	.L101:
 1192              	.LBE50:
 1193              	.LBE52:
 1194              		.loc 1 773 0
ARM GAS  C:\Users\jo\AppData\Local\Temp\ccRMLSMa.s 			page 22


 1195 010e 05A8     		add	r0, sp, #20
 1196              	.LVL183:
 1197 0110 2946     		mov	r1, r5
 1198 0112 FFF7FEFF 		bl	pk_use_ecparams
 1199              	.LVL184:
 1200 0116 0446     		mov	r4, r0
 1201 0118 0028     		cmp	r0, #0
 1202 011a B4D0     		beq	.L100
 1203 011c D4E7     		b	.L135
 1204              	.LVL185:
 1205              	.L140:
 1206              		.loc 1 793 0
 1207 011e 049C     		ldr	r4, [sp, #16]
 1208 0120 039B     		ldr	r3, [sp, #12]
 1209 0122 1C44     		add	r4, r4, r3
 1210              	.LVL186:
 1211              		.loc 1 795 0
 1212 0124 3046     		mov	r0, r6
 1213              	.LVL187:
 1214 0126 03AA     		add	r2, sp, #12
 1215 0128 2146     		mov	r1, r4
 1216 012a FFF7FEFF 		bl	asn1_get_bitstring_null
 1217              	.LVL188:
 1218 012e 0028     		cmp	r0, #0
 1219 0130 7FF474AF 		bne	.L133
 1220              		.loc 1 798 0
 1221 0134 049A     		ldr	r2, [sp, #16]
 1222 0136 039B     		ldr	r3, [sp, #12]
 1223 0138 D618     		adds	r6, r2, r3
 1224 013a A642     		cmp	r6, r4
 1225 013c 10D1     		bne	.L111
 1226              	.LVL189:
 1227              	.LBB53:
 1228              	.LBB54:
 1229              		.loc 1 480 0
 1230 013e 05F18804 		add	r4, r5, #136
 1231              	.LVL190:
 1232 0142 2146     		mov	r1, r4
 1233 0144 2846     		mov	r0, r5
 1234              	.LVL191:
 1235 0146 FFF7FEFF 		bl	ecp_point_read_binary
 1236              	.LVL192:
 1237 014a 78B1     		cbz	r0, .L143
 1238              		.loc 1 489 0
 1239 014c 0496     		str	r6, [sp, #16]
 1240              	.L106:
 1241              	.LBE54:
 1242              	.LBE53:
 1243              		.loc 1 810 0
 1244 014e 10F59D4F 		cmn	r0, #20096
 1245 0152 A6D0     		beq	.L94
 1246              		.loc 1 811 0
 1247 0154 0A48     		ldr	r0, .L144+4
 1248              	.LVL193:
 1249 0156 63E7     		b	.L126
 1250              	.LVL194:
 1251              	.L141:
ARM GAS  C:\Users\jo\AppData\Local\Temp\ccRMLSMa.s 			page 23


 1252              		.loc 1 773 0
 1253 0158 B0F53454 		subs	r4, r0, #11520
 1254              	.LVL195:
 1255 015c B4D1     		bne	.L135
 1256 015e D6E7     		b	.L101
 1257              	.LVL196:
 1258              	.L111:
 1259              		.loc 1 799 0
 1260 0160 0848     		ldr	r0, .L144+8
 1261              	.LVL197:
 1262 0162 5DE7     		b	.L126
 1263              	.LVL198:
 1264              	.L142:
 1265              	.LBB56:
 1266              	.LBB51:
 1267              		.loc 1 193 0
 1268 0164 074C     		ldr	r4, .L144+8
 1269              	.LVL199:
 1270 0166 AFE7     		b	.L135
 1271              	.LVL200:
 1272              	.L109:
 1273              		.loc 1 180 0
 1274 0168 074C     		ldr	r4, .L144+12
 1275              	.LVL201:
 1276 016a ADE7     		b	.L135
 1277              	.LVL202:
 1278              	.L143:
 1279              	.LBE51:
 1280              	.LBE56:
 1281              	.LBB57:
 1282              	.LBB55:
 1283              		.loc 1 483 0
 1284 016c 2846     		mov	r0, r5
 1285              	.LVL203:
 1286 016e 2146     		mov	r1, r4
 1287 0170 FFF7FEFF 		bl	ecp_check_pubkey
 1288              	.LVL204:
 1289              		.loc 1 489 0
 1290 0174 0496     		str	r6, [sp, #16]
 1291              	.LBE55:
 1292              	.LBE57:
 1293              		.loc 1 802 0
 1294 0176 0028     		cmp	r0, #0
 1295 0178 9FD0     		beq	.L105
 1296 017a E8E7     		b	.L106
 1297              	.L145:
 1298              		.align	2
 1299              	.L144:
 1300 017c 80D2FFFF 		.word	-11648
 1301 0180 00D3FFFF 		.word	-11520
 1302 0184 9AD2FFFF 		.word	-11622
 1303 0188 9ED2FFFF 		.word	-11618
 1304              		.cfi_endproc
 1305              	.LFE25:
 1306              		.size	pk_parse_key_sec1_der, .-pk_parse_key_sec1_der
 1307 018c AFF30080 		.section	.text.pk_parse_key_pkcs8_unencrypted_der,"ax",%progbits
 1308              		.align	2
ARM GAS  C:\Users\jo\AppData\Local\Temp\ccRMLSMa.s 			page 24


 1309              		.p2align 4,,15
 1310              		.thumb
 1311              		.thumb_func
 1312              		.type	pk_parse_key_pkcs8_unencrypted_der, %function
 1313              	pk_parse_key_pkcs8_unencrypted_der:
 1314              	.LFB26:
 1315              		.loc 1 846 0
 1316              		.cfi_startproc
 1317              		@ args = 0, pretend = 0, frame = 32
 1318              		@ frame_needed = 0, uses_anonymous_args = 0
 1319              	.LVL205:
 1320 0000 70B5     		push	{r4, r5, r6, lr}
 1321              		.cfi_def_cfa_offset 16
 1322              		.cfi_offset 4, -16
 1323              		.cfi_offset 5, -12
 1324              		.cfi_offset 6, -8
 1325              		.cfi_offset 14, -4
 1326 0002 88B0     		sub	sp, sp, #32
 1327              		.cfi_def_cfa_offset 48
 1328              		.loc 1 846 0
 1329 0004 0C46     		mov	r4, r1
 1330 0006 0646     		mov	r6, r0
 1331              		.loc 1 871 0
 1332 0008 1144     		add	r1, r1, r2
 1333              	.LVL206:
 1334              		.loc 1 852 0
 1335 000a 0025     		movs	r5, #0
 1336              		.loc 1 871 0
 1337 000c 03AA     		add	r2, sp, #12
 1338              	.LVL207:
 1339 000e 04A8     		add	r0, sp, #16
 1340              	.LVL208:
 1341 0010 3023     		movs	r3, #48
 1342              		.loc 1 850 0
 1343 0012 0494     		str	r4, [sp, #16]
 1344              		.loc 1 852 0
 1345 0014 8DF80750 		strb	r5, [sp, #7]
 1346              		.loc 1 871 0
 1347 0018 FFF7FEFF 		bl	asn1_get_tag
 1348              	.LVL209:
 1349 001c 20B1     		cbz	r0, .L167
 1350              	.LVL210:
 1351              	.L166:
 1352              		.loc 1 889 0
 1353 001e A0F53454 		sub	r4, r0, #11520
 1354              	.LVL211:
 1355              	.L148:
 1356              		.loc 1 925 0
 1357 0022 2046     		mov	r0, r4
 1358 0024 08B0     		add	sp, sp, #32
 1359              		.cfi_remember_state
 1360              		.cfi_def_cfa_offset 16
 1361              		@ sp needed
 1362 0026 70BD     		pop	{r4, r5, r6, pc}
 1363              	.LVL212:
 1364              	.L167:
 1365              		.cfi_restore_state
ARM GAS  C:\Users\jo\AppData\Local\Temp\ccRMLSMa.s 			page 25


 1366              		.loc 1 877 0
 1367 0028 049D     		ldr	r5, [sp, #16]
 1368 002a 039B     		ldr	r3, [sp, #12]
 1369 002c 1D44     		add	r5, r5, r3
 1370              	.LVL213:
 1371              		.loc 1 879 0
 1372 002e 2946     		mov	r1, r5
 1373 0030 04A8     		add	r0, sp, #16
 1374              	.LVL214:
 1375 0032 02AA     		add	r2, sp, #8
 1376 0034 FFF7FEFF 		bl	asn1_get_int
 1377              	.LVL215:
 1378 0038 0028     		cmp	r0, #0
 1379 003a F0D1     		bne	.L166
 1380              		.loc 1 882 0
 1381 003c 029C     		ldr	r4, [sp, #8]
 1382              	.LVL216:
 1383 003e 1CB1     		cbz	r4, .L168
 1384              		.loc 1 883 0
 1385 0040 264C     		ldr	r4, .L171
 1386              		.loc 1 925 0
 1387 0042 2046     		mov	r0, r4
 1388              	.LVL217:
 1389 0044 08B0     		add	sp, sp, #32
 1390              		.cfi_remember_state
 1391              		.cfi_def_cfa_offset 16
 1392              		@ sp needed
 1393 0046 70BD     		pop	{r4, r5, r6, pc}
 1394              	.LVL218:
 1395              	.L168:
 1396              		.cfi_restore_state
 1397              		.loc 1 885 0
 1398 0048 05AB     		add	r3, sp, #20
 1399 004a 04A8     		add	r0, sp, #16
 1400              	.LVL219:
 1401 004c 2946     		mov	r1, r5
 1402 004e 0DF10702 		add	r2, sp, #7
 1403 0052 FFF7FEFF 		bl	pk_get_pk_alg
 1404              	.LVL220:
 1405 0056 0028     		cmp	r0, #0
 1406 0058 E1D1     		bne	.L166
 1407              		.loc 1 888 0
 1408 005a 04A8     		add	r0, sp, #16
 1409              	.LVL221:
 1410 005c 2946     		mov	r1, r5
 1411 005e 03AA     		add	r2, sp, #12
 1412 0060 0423     		movs	r3, #4
 1413 0062 FFF7FEFF 		bl	asn1_get_tag
 1414              	.LVL222:
 1415 0066 0028     		cmp	r0, #0
 1416 0068 D9D1     		bne	.L166
 1417              		.loc 1 891 0
 1418 006a 039B     		ldr	r3, [sp, #12]
 1419 006c 3BB3     		cbz	r3, .L157
 1420              		.loc 1 895 0
 1421 006e 9DF80700 		ldrb	r0, [sp, #7]	@ zero_extendqisi2
 1422              	.LVL223:
ARM GAS  C:\Users\jo\AppData\Local\Temp\ccRMLSMa.s 			page 26


 1423 0072 FFF7FEFF 		bl	pk_info_from_type
 1424              	.LVL224:
 1425 0076 00B3     		cbz	r0, .L154
 1426              		.loc 1 898 0
 1427 0078 0146     		mov	r1, r0
 1428 007a 3046     		mov	r0, r6
 1429              	.LVL225:
 1430 007c FFF7FEFF 		bl	pk_init_ctx
 1431              	.LVL226:
 1432 0080 C8B9     		cbnz	r0, .L158
 1433              		.loc 1 902 0
 1434 0082 9DF80730 		ldrb	r3, [sp, #7]	@ zero_extendqisi2
 1435 0086 012B     		cmp	r3, #1
 1436 0088 1BD0     		beq	.L169
 1437              		.loc 1 912 0
 1438 008a 023B     		subs	r3, r3, #2
 1439 008c 012B     		cmp	r3, #1
 1440 008e 14D8     		bhi	.L154
 1441              		.loc 1 914 0
 1442 0090 05A8     		add	r0, sp, #20
 1443              	.LVL227:
 1444 0092 7168     		ldr	r1, [r6, #4]
 1445 0094 FFF7FEFF 		bl	pk_use_ecparams
 1446              	.LVL228:
 1447 0098 0546     		mov	r5, r0
 1448              	.LVL229:
 1449 009a 38B9     		cbnz	r0, .L155
 1450              		.loc 1 914 0 is_stmt 0 discriminator 1
 1451 009c 7068     		ldr	r0, [r6, #4]
 1452              	.LVL230:
 1453 009e 0499     		ldr	r1, [sp, #16]
 1454 00a0 039A     		ldr	r2, [sp, #12]
 1455 00a2 FFF7FEFF 		bl	pk_parse_key_sec1_der
 1456              	.LVL231:
 1457 00a6 0546     		mov	r5, r0
 1458 00a8 0028     		cmp	r0, #0
 1459 00aa BAD0     		beq	.L148
 1460              	.L155:
 1461              		.loc 1 917 0 is_stmt 1
 1462 00ac 3046     		mov	r0, r6
 1463              	.LVL232:
 1464 00ae FFF7FEFF 		bl	pk_free
 1465              	.LVL233:
 1466              		.loc 1 918 0
 1467 00b2 2C46     		mov	r4, r5
 1468 00b4 B5E7     		b	.L148
 1469              	.LVL234:
 1470              	.L158:
 1471 00b6 0446     		mov	r4, r0
 1472 00b8 B3E7     		b	.L148
 1473              	.LVL235:
 1474              	.L154:
 1475              		.loc 1 896 0
 1476 00ba 094C     		ldr	r4, .L171+4
 1477 00bc B1E7     		b	.L148
 1478              	.LVL236:
 1479              	.L157:
ARM GAS  C:\Users\jo\AppData\Local\Temp\ccRMLSMa.s 			page 27


 1480              		.loc 1 892 0
 1481 00be 094C     		ldr	r4, .L171+8
 1482 00c0 AFE7     		b	.L148
 1483              	.L169:
 1484              		.loc 1 904 0
 1485 00c2 7068     		ldr	r0, [r6, #4]
 1486              	.LVL237:
 1487 00c4 0499     		ldr	r1, [sp, #16]
 1488 00c6 039A     		ldr	r2, [sp, #12]
 1489 00c8 FFF7FEFF 		bl	pk_parse_key_pkcs1_der
 1490              	.LVL238:
 1491 00cc 0446     		mov	r4, r0
 1492 00ce 08B9     		cbnz	r0, .L170
 1493              		.loc 1 924 0
 1494 00d0 0024     		movs	r4, #0
 1495 00d2 A6E7     		b	.L148
 1496              	.L170:
 1497              		.loc 1 906 0
 1498 00d4 3046     		mov	r0, r6
 1499              	.LVL239:
 1500 00d6 FFF7FEFF 		bl	pk_free
 1501              	.LVL240:
 1502              		.loc 1 907 0
 1503 00da A2E7     		b	.L148
 1504              	.L172:
 1505              		.align	2
 1506              	.L171:
 1507 00dc 80D2FFFF 		.word	-11648
 1508 00e0 80D3FFFF 		.word	-11392
 1509 00e4 A0D2FFFF 		.word	-11616
 1510              		.cfi_endproc
 1511              	.LFE26:
 1512              		.size	pk_parse_key_pkcs8_unencrypted_der, .-pk_parse_key_pkcs8_unencrypted_der
 1513 00e8 AFF30080 		.section	.text.unlikely.pk_parse_key_pkcs8_encrypted_der,"ax",%progbits
 1513      AFF30080 
 1514              		.align	2
 1515              		.thumb
 1516              		.thumb_func
 1517              		.type	pk_parse_key_pkcs8_encrypted_der, %function
 1518              	pk_parse_key_pkcs8_encrypted_der:
 1519              	.LFB27:
 1520              		.loc 1 935 0
 1521              		.cfi_startproc
 1522              		@ args = 4, pretend = 0, frame = 2088
 1523              		@ frame_needed = 0, uses_anonymous_args = 0
 1524              	.LVL241:
 1525 0000 F0B5     		push	{r4, r5, r6, r7, lr}
 1526              		.cfi_def_cfa_offset 20
 1527              		.cfi_offset 4, -20
 1528              		.cfi_offset 5, -16
 1529              		.cfi_offset 6, -12
 1530              		.cfi_offset 7, -8
 1531              		.cfi_offset 14, -4
 1532 0002 ADF6440D 		subw	sp, sp, #2116
 1533              		.cfi_def_cfa_offset 2136
 1534              		.loc 1 935 0
 1535 0006 0C46     		mov	r4, r1
ARM GAS  C:\Users\jo\AppData\Local\Temp\ccRMLSMa.s 			page 28


 1536 0008 1646     		mov	r6, r2
 1537              		.loc 1 946 0
 1538 000a 0021     		movs	r1, #0
 1539              	.LVL242:
 1540              		.loc 1 935 0
 1541 000c 0546     		mov	r5, r0
 1542              		.loc 1 946 0
 1543 000e 4FF40062 		mov	r2, #2048
 1544              	.LVL243:
 1545 0012 10A8     		add	r0, sp, #64
 1546              	.LVL244:
 1547              		.loc 1 935 0
 1548 0014 1F46     		mov	r7, r3
 1549              		.loc 1 946 0
 1550 0016 FFF7FEFF 		bl	memset
 1551              	.LVL245:
 1552              		.loc 1 951 0
 1553 001a DDF85838 		ldr	r3, [sp, #2136]
 1554              		.loc 1 948 0
 1555 001e 0994     		str	r4, [sp, #36]
 1556              		.loc 1 949 0
 1557 0020 A119     		adds	r1, r4, r6
 1558              	.LVL246:
 1559              		.loc 1 951 0
 1560 0022 002B     		cmp	r3, #0
 1561 0024 71D0     		beq	.L182
 1562              		.loc 1 968 0
 1563 0026 08AA     		add	r2, sp, #32
 1564 0028 09A8     		add	r0, sp, #36
 1565 002a 3023     		movs	r3, #48
 1566 002c FFF7FEFF 		bl	asn1_get_tag
 1567              	.LVL247:
 1568 0030 80B9     		cbnz	r0, .L202
 1569              		.loc 1 974 0
 1570 0032 089B     		ldr	r3, [sp, #32]
 1571 0034 099E     		ldr	r6, [sp, #36]
 1572              	.LVL248:
 1573 0036 1E44     		add	r6, r6, r3
 1574              	.LVL249:
 1575              		.loc 1 976 0
 1576 0038 3146     		mov	r1, r6
 1577 003a 0AAA     		add	r2, sp, #40
 1578 003c 0DAB     		add	r3, sp, #52
 1579 003e 09A8     		add	r0, sp, #36
 1580              	.LVL250:
 1581 0040 FFF7FEFF 		bl	asn1_get_alg
 1582              	.LVL251:
 1583 0044 30B9     		cbnz	r0, .L202
 1584              		.loc 1 979 0
 1585 0046 3146     		mov	r1, r6
 1586 0048 09A8     		add	r0, sp, #36
 1587              	.LVL252:
 1588 004a 08AA     		add	r2, sp, #32
 1589 004c 0423     		movs	r3, #4
 1590 004e FFF7FEFF 		bl	asn1_get_tag
 1591              	.LVL253:
 1592 0052 10B1     		cbz	r0, .L177
ARM GAS  C:\Users\jo\AppData\Local\Temp\ccRMLSMa.s 			page 29


 1593              	.LVL254:
 1594              	.L202:
 1595              		.loc 1 980 0
 1596 0054 A0F53450 		sub	r0, r0, #11520
 1597              	.LVL255:
 1598 0058 64E0     		b	.L199
 1599              	.LVL256:
 1600              	.L177:
 1601              		.loc 1 982 0
 1602 005a 089B     		ldr	r3, [sp, #32]
 1603 005c B3F5006F 		cmp	r3, #2048
 1604 0060 55D8     		bhi	.L183
 1605              		.loc 1 989 0
 1606 0062 0DF11F01 		add	r1, sp, #31
 1607 0066 0DF11E02 		add	r2, sp, #30
 1608 006a 0AA8     		add	r0, sp, #40
 1609              	.LVL257:
 1610 006c FFF7FEFF 		bl	oid_get_pkcs12_pbe_alg
 1611              	.LVL258:
 1612 0070 0146     		mov	r1, r0
 1613 0072 B0B9     		cbnz	r0, .L178
 1614              		.loc 1 991 0
 1615 0074 0898     		ldr	r0, [sp, #32]
 1616 0076 0390     		str	r0, [sp, #12]
 1617 0078 DDF85808 		ldr	r0, [sp, #2136]
 1618 007c 099E     		ldr	r6, [sp, #36]
 1619              	.LVL259:
 1620 007e 0190     		str	r0, [sp, #4]
 1621 0080 10A8     		add	r0, sp, #64
 1622 0082 0490     		str	r0, [sp, #16]
 1623 0084 9DF81E20 		ldrb	r2, [sp, #30]	@ zero_extendqisi2
 1624 0088 9DF81F30 		ldrb	r3, [sp, #31]	@ zero_extendqisi2
 1625 008c 0296     		str	r6, [sp, #8]
 1626 008e 0097     		str	r7, [sp]
 1627 0090 0DA8     		add	r0, sp, #52
 1628 0092 FFF7FEFF 		bl	pkcs12_pbe
 1629              	.LVL260:
 1630 0096 0028     		cmp	r0, #0
 1631 0098 3FD0     		beq	.L179
 1632              		.loc 1 995 0
 1633 009a 10F5F05F 		cmn	r0, #7680
 1634 009e 41D1     		bne	.L199
 1635 00a0 37E0     		b	.L187
 1636              	.LVL261:
 1637              	.L178:
 1638              		.loc 1 1003 0
 1639 00a2 0B9A     		ldr	r2, [sp, #44]
 1640 00a4 0A2A     		cmp	r2, #10
 1641 00a6 17D1     		bne	.L180
 1642              		.loc 1 1003 0 is_stmt 0 discriminator 1
 1643 00a8 0C99     		ldr	r1, [sp, #48]
 1644 00aa 2048     		ldr	r0, .L203
 1645 00ac FFF7FEFF 		bl	memcmp
 1646              	.LVL262:
 1647 00b0 0146     		mov	r1, r0
 1648 00b2 80BB     		cbnz	r0, .L189
 1649              		.loc 1 1005 0 is_stmt 1
ARM GAS  C:\Users\jo\AppData\Local\Temp\ccRMLSMa.s 			page 30


 1650 00b4 099A     		ldr	r2, [sp, #36]
 1651 00b6 089B     		ldr	r3, [sp, #32]
 1652 00b8 8DE80C00 		stmia	sp, {r2, r3}
 1653 00bc 10AB     		add	r3, sp, #64
 1654 00be 0293     		str	r3, [sp, #8]
 1655 00c0 0DA8     		add	r0, sp, #52
 1656 00c2 3A46     		mov	r2, r7
 1657 00c4 DDF85838 		ldr	r3, [sp, #2136]
 1658 00c8 FFF7FEFF 		bl	pkcs12_pbe_sha1_rc4_128
 1659              	.LVL263:
 1660 00cc 50BB     		cbnz	r0, .L199
 1661              		.loc 1 1016 0
 1662 00ce 9DF84030 		ldrb	r3, [sp, #64]	@ zero_extendqisi2
 1663 00d2 302B     		cmp	r3, #48
 1664 00d4 21D0     		beq	.L179
 1665 00d6 1CE0     		b	.L187
 1666              	.LVL264:
 1667              	.L180:
 1668              		.loc 1 1024 0
 1669 00d8 092A     		cmp	r2, #9
 1670 00da 1CD1     		bne	.L189
 1671              		.loc 1 1024 0 is_stmt 0 discriminator 1
 1672 00dc 0C99     		ldr	r1, [sp, #48]
 1673 00de 1448     		ldr	r0, .L203+4
 1674 00e0 FFF7FEFF 		bl	memcmp
 1675              	.LVL265:
 1676 00e4 0146     		mov	r1, r0
 1677 00e6 B0B9     		cbnz	r0, .L189
 1678              		.loc 1 1026 0 is_stmt 1
 1679 00e8 099A     		ldr	r2, [sp, #36]
 1680 00ea 089B     		ldr	r3, [sp, #32]
 1681 00ec 8DE80C00 		stmia	sp, {r2, r3}
 1682 00f0 10AB     		add	r3, sp, #64
 1683 00f2 0293     		str	r3, [sp, #8]
 1684 00f4 0DA8     		add	r0, sp, #52
 1685 00f6 3A46     		mov	r2, r7
 1686 00f8 DDF85838 		ldr	r3, [sp, #2136]
 1687 00fc FFF7FEFF 		bl	pkcs5_pbes2
 1688              	.LVL266:
 1689 0100 58B1     		cbz	r0, .L179
 1690              		.loc 1 1029 0
 1691 0102 10F5785F 		cmn	r0, #15872
 1692 0106 0DD1     		bne	.L199
 1693 0108 03E0     		b	.L187
 1694              	.LVL267:
 1695              	.L182:
 1696              		.loc 1 952 0
 1697 010a 0A48     		ldr	r0, .L203+8
 1698 010c 0AE0     		b	.L199
 1699              	.LVL268:
 1700              	.L183:
 1701              		.loc 1 983 0
 1702 010e 0A48     		ldr	r0, .L203+12
 1703              	.LVL269:
 1704 0110 08E0     		b	.L199
 1705              	.LVL270:
 1706              	.L187:
ARM GAS  C:\Users\jo\AppData\Local\Temp\ccRMLSMa.s 			page 31


 1707              		.loc 1 1017 0
 1708 0112 0A48     		ldr	r0, .L203+16
 1709              	.LVL271:
 1710 0114 06E0     		b	.L199
 1711              	.LVL272:
 1712              	.L189:
 1713              		.loc 1 1044 0
 1714 0116 0A48     		ldr	r0, .L203+20
 1715 0118 04E0     		b	.L199
 1716              	.LVL273:
 1717              	.L179:
 1718              		.loc 1 1046 0
 1719 011a 2846     		mov	r0, r5
 1720              	.LVL274:
 1721 011c 10A9     		add	r1, sp, #64
 1722 011e 089A     		ldr	r2, [sp, #32]
 1723 0120 FFF7FEFF 		bl	pk_parse_key_pkcs8_unencrypted_der
 1724              	.LVL275:
 1725              	.L199:
 1726              		.loc 1 1047 0
 1727 0124 0DF6440D 		addw	sp, sp, #2116
 1728              		.cfi_def_cfa_offset 20
 1729              		@ sp needed
 1730 0128 F0BD     		pop	{r4, r5, r6, r7, pc}
 1731              	.LVL276:
 1732              	.L204:
 1733 012a 00BF     		.align	2
 1734              	.L203:
 1735 012c 08000000 		.word	.LC1
 1736 0130 14000000 		.word	.LC2
 1737 0134 00D4FFFF 		.word	-11264
 1738 0138 80D1FFFF 		.word	-11904
 1739 013c 80D4FFFF 		.word	-11136
 1740 0140 80D6FFFF 		.word	-10624
 1741              		.cfi_endproc
 1742              	.LFE27:
 1743              		.size	pk_parse_key_pkcs8_encrypted_der, .-pk_parse_key_pkcs8_encrypted_der
 1744              		.section	.text.pk_load_file,"ax",%progbits
 1745              		.align	2
 1746              		.p2align 4,,15
 1747              		.global	pk_load_file
 1748              		.thumb
 1749              		.thumb_func
 1750              		.type	pk_load_file, %function
 1751              	pk_load_file:
 1752              	.LFB12:
 1753              		.loc 1 74 0
 1754              		.cfi_startproc
 1755              		@ args = 0, pretend = 0, frame = 0
 1756              		@ frame_needed = 0, uses_anonymous_args = 0
 1757              	.LVL277:
 1758 0000 F8B5     		push	{r3, r4, r5, r6, r7, lr}
 1759              		.cfi_def_cfa_offset 24
 1760              		.cfi_offset 3, -24
 1761              		.cfi_offset 4, -20
 1762              		.cfi_offset 5, -16
 1763              		.cfi_offset 6, -12
ARM GAS  C:\Users\jo\AppData\Local\Temp\ccRMLSMa.s 			page 32


 1764              		.cfi_offset 7, -8
 1765              		.cfi_offset 14, -4
 1766              		.loc 1 74 0
 1767 0002 0F46     		mov	r7, r1
 1768              		.loc 1 78 0
 1769 0004 1E49     		ldr	r1, .L215
 1770              	.LVL278:
 1771              		.loc 1 74 0
 1772 0006 1646     		mov	r6, r2
 1773              		.loc 1 78 0
 1774 0008 FFF7FEFF 		bl	fopen
 1775              	.LVL279:
 1776 000c 88B3     		cbz	r0, .L210
 1777 000e 0446     		mov	r4, r0
 1778              		.loc 1 81 0
 1779 0010 0021     		movs	r1, #0
 1780 0012 0222     		movs	r2, #2
 1781 0014 FFF7FEFF 		bl	fseek
 1782              	.LVL280:
 1783              		.loc 1 82 0
 1784 0018 2046     		mov	r0, r4
 1785 001a FFF7FEFF 		bl	ftell
 1786              	.LVL281:
 1787 001e 431C     		adds	r3, r0, #1
 1788 0020 0546     		mov	r5, r0
 1789              	.LVL282:
 1790 0022 28D0     		beq	.L212
 1791              		.loc 1 87 0
 1792 0024 0021     		movs	r1, #0
 1793 0026 0A46     		mov	r2, r1
 1794 0028 2046     		mov	r0, r4
 1795              	.LVL283:
 1796 002a FFF7FEFF 		bl	fseek
 1797              	.LVL284:
 1798              		.loc 1 89 0
 1799 002e 3560     		str	r5, [r6]
 1800              		.loc 1 92 0
 1801 0030 681C     		adds	r0, r5, #1
 1802 0032 FFF7FEFF 		bl	malloc
 1803              	.LVL285:
 1804 0036 3860     		str	r0, [r7]
 1805              		.loc 1 91 0
 1806 0038 B0B1     		cbz	r0, .L213
 1807              		.loc 1 98 0
 1808 003a 2346     		mov	r3, r4
 1809 003c 2A46     		mov	r2, r5
 1810 003e 0121     		movs	r1, #1
 1811 0040 FFF7FEFF 		bl	fread
 1812              	.LVL286:
 1813 0044 3368     		ldr	r3, [r6]
 1814 0046 9842     		cmp	r0, r3
 1815              		.loc 1 100 0
 1816 0048 2046     		mov	r0, r4
 1817              		.loc 1 98 0
 1818 004a 06D1     		bne	.L214
 1819              		.loc 1 105 0
 1820 004c FFF7FEFF 		bl	fclose
ARM GAS  C:\Users\jo\AppData\Local\Temp\ccRMLSMa.s 			page 33


 1821              	.LVL287:
 1822              		.loc 1 107 0
 1823 0050 3A68     		ldr	r2, [r7]
 1824 0052 3368     		ldr	r3, [r6]
 1825 0054 0020     		movs	r0, #0
 1826 0056 D054     		strb	r0, [r2, r3]
 1827              		.loc 1 109 0
 1828 0058 F8BD     		pop	{r3, r4, r5, r6, r7, pc}
 1829              	.LVL288:
 1830              	.L214:
 1831              		.loc 1 100 0
 1832 005a FFF7FEFF 		bl	fclose
 1833              	.LVL289:
 1834              		.loc 1 101 0
 1835 005e 3868     		ldr	r0, [r7]
 1836 0060 FFF7FEFF 		bl	free
 1837              	.LVL290:
 1838              		.loc 1 102 0
 1839 0064 0748     		ldr	r0, .L215+4
 1840 0066 F8BD     		pop	{r3, r4, r5, r6, r7, pc}
 1841              	.LVL291:
 1842              	.L213:
 1843              		.loc 1 94 0
 1844 0068 2046     		mov	r0, r4
 1845 006a FFF7FEFF 		bl	fclose
 1846              	.LVL292:
 1847              		.loc 1 95 0
 1848 006e 0648     		ldr	r0, .L215+8
 1849 0070 F8BD     		pop	{r3, r4, r5, r6, r7, pc}
 1850              	.LVL293:
 1851              	.L210:
 1852              		.loc 1 79 0
 1853 0072 0448     		ldr	r0, .L215+4
 1854              	.LVL294:
 1855              		.loc 1 110 0
 1856 0074 F8BD     		pop	{r3, r4, r5, r6, r7, pc}
 1857              	.LVL295:
 1858              	.L212:
 1859              		.loc 1 84 0
 1860 0076 2046     		mov	r0, r4
 1861              	.LVL296:
 1862 0078 FFF7FEFF 		bl	fclose
 1863              	.LVL297:
 1864              		.loc 1 85 0
 1865 007c 0148     		ldr	r0, .L215+4
 1866 007e F8BD     		pop	{r3, r4, r5, r6, r7, pc}
 1867              	.LVL298:
 1868              	.L216:
 1869              		.align	2
 1870              	.L215:
 1871 0080 20000000 		.word	.LC3
 1872 0084 00D2FFFF 		.word	-11776
 1873 0088 80D0FFFF 		.word	-12160
 1874              		.cfi_endproc
 1875              	.LFE12:
 1876              		.size	pk_load_file, .-pk_load_file
 1877 008c AFF30080 		.section	.text.pk_parse_subpubkey,"ax",%progbits
ARM GAS  C:\Users\jo\AppData\Local\Temp\ccRMLSMa.s 			page 34


 1878              		.align	2
 1879              		.p2align 4,,15
 1880              		.global	pk_parse_subpubkey
 1881              		.thumb
 1882              		.thumb_func
 1883              		.type	pk_parse_subpubkey, %function
 1884              	pk_parse_subpubkey:
 1885              	.LFB23:
 1886              		.loc 1 575 0
 1887              		.cfi_startproc
 1888              		@ args = 0, pretend = 0, frame = 24
 1889              		@ frame_needed = 0, uses_anonymous_args = 0
 1890              	.LVL299:
 1891 0000 2DE9F043 		push	{r4, r5, r6, r7, r8, r9, lr}
 1892              		.cfi_def_cfa_offset 28
 1893              		.cfi_offset 4, -28
 1894              		.cfi_offset 5, -24
 1895              		.cfi_offset 6, -20
 1896              		.cfi_offset 7, -16
 1897              		.cfi_offset 8, -12
 1898              		.cfi_offset 9, -8
 1899              		.cfi_offset 14, -4
 1900 0004 87B0     		sub	sp, sp, #28
 1901              		.cfi_def_cfa_offset 56
 1902              		.loc 1 575 0
 1903 0006 1646     		mov	r6, r2
 1904              		.loc 1 579 0
 1905 0008 0024     		movs	r4, #0
 1906              		.loc 1 582 0
 1907 000a 01AA     		add	r2, sp, #4
 1908              	.LVL300:
 1909 000c 3023     		movs	r3, #48
 1910              		.loc 1 579 0
 1911 000e 8DF80340 		strb	r4, [sp, #3]
 1912              		.loc 1 575 0
 1913 0012 0546     		mov	r5, r0
 1914              		.loc 1 582 0
 1915 0014 FFF7FEFF 		bl	asn1_get_tag
 1916              	.LVL301:
 1917 0018 20B1     		cbz	r0, .L218
 1918              		.loc 1 585 0
 1919 001a A0F53450 		sub	r0, r0, #11520
 1920              	.LVL302:
 1921              	.L244:
 1922              		.loc 1 630 0
 1923 001e 07B0     		add	sp, sp, #28
 1924              		.cfi_remember_state
 1925              		.cfi_def_cfa_offset 28
 1926              		@ sp needed
 1927 0020 BDE8F083 		pop	{r4, r5, r6, r7, r8, r9, pc}
 1928              	.LVL303:
 1929              	.L218:
 1930              		.cfi_restore_state
 1931              		.loc 1 588 0
 1932 0024 019B     		ldr	r3, [sp, #4]
 1933 0026 2C68     		ldr	r4, [r5]
 1934 0028 1C44     		add	r4, r4, r3
ARM GAS  C:\Users\jo\AppData\Local\Temp\ccRMLSMa.s 			page 35


 1935              	.LVL304:
 1936              		.loc 1 590 0
 1937 002a 2146     		mov	r1, r4
 1938 002c 03AB     		add	r3, sp, #12
 1939 002e 2846     		mov	r0, r5
 1940              	.LVL305:
 1941 0030 0DF10302 		add	r2, sp, #3
 1942 0034 FFF7FEFF 		bl	pk_get_pk_alg
 1943              	.LVL306:
 1944 0038 0028     		cmp	r0, #0
 1945 003a F0D1     		bne	.L244
 1946              		.loc 1 593 0
 1947 003c 01AA     		add	r2, sp, #4
 1948 003e 2846     		mov	r0, r5
 1949              	.LVL307:
 1950 0040 2146     		mov	r1, r4
 1951 0042 FFF7FEFF 		bl	asn1_get_bitstring_null
 1952              	.LVL308:
 1953 0046 E8B9     		cbnz	r0, .L246
 1954              		.loc 1 596 0
 1955 0048 2F68     		ldr	r7, [r5]
 1956 004a 019B     		ldr	r3, [sp, #4]
 1957 004c 1F44     		add	r7, r7, r3
 1958 004e A742     		cmp	r7, r4
 1959 0050 1BD1     		bne	.L235
 1960              		.loc 1 600 0
 1961 0052 9DF80300 		ldrb	r0, [sp, #3]	@ zero_extendqisi2
 1962              	.LVL309:
 1963 0056 FFF7FEFF 		bl	pk_info_from_type
 1964              	.LVL310:
 1965 005a 0028     		cmp	r0, #0
 1966 005c 54D0     		beq	.L236
 1967              		.loc 1 603 0
 1968 005e 0146     		mov	r1, r0
 1969 0060 3046     		mov	r0, r6
 1970              	.LVL311:
 1971 0062 FFF7FEFF 		bl	pk_init_ctx
 1972              	.LVL312:
 1973 0066 0028     		cmp	r0, #0
 1974 0068 D9D1     		bne	.L244
 1975              		.loc 1 607 0
 1976 006a 9DF80330 		ldrb	r3, [sp, #3]	@ zero_extendqisi2
 1977 006e 012B     		cmp	r3, #1
 1978 0070 0DD0     		beq	.L247
 1979              		.loc 1 613 0
 1980 0072 023B     		subs	r3, r3, #2
 1981 0074 012B     		cmp	r3, #1
 1982 0076 28D9     		bls	.L248
 1983              		.loc 1 620 0
 1984 0078 2F4C     		ldr	r4, .L251
 1985              	.LVL313:
 1986              	.L230:
 1987              		.loc 1 627 0
 1988 007a 3046     		mov	r0, r6
 1989 007c FFF7FEFF 		bl	pk_free
 1990              	.LVL314:
 1991 0080 2046     		mov	r0, r4
ARM GAS  C:\Users\jo\AppData\Local\Temp\ccRMLSMa.s 			page 36


 1992 0082 CCE7     		b	.L244
 1993              	.LVL315:
 1994              	.L246:
 1995              		.loc 1 594 0
 1996 0084 A0F52C50 		sub	r0, r0, #11008
 1997              	.LVL316:
 1998 0088 C9E7     		b	.L244
 1999              	.LVL317:
 2000              	.L235:
 2001              		.loc 1 597 0
 2002 008a 2C48     		ldr	r0, .L251+4
 2003              	.LVL318:
 2004 008c C7E7     		b	.L244
 2005              	.LVL319:
 2006              	.L247:
 2007              	.LBB62:
 2008              	.LBB63:
 2009              		.loc 1 509 0
 2010 008e 2846     		mov	r0, r5
 2011              	.LVL320:
 2012 0090 3946     		mov	r1, r7
 2013 0092 02AA     		add	r2, sp, #8
 2014 0094 3023     		movs	r3, #48
 2015              	.LBE63:
 2016              	.LBE62:
 2017              		.loc 1 609 0
 2018 0096 7468     		ldr	r4, [r6, #4]
 2019              	.LVL321:
 2020              	.LBB66:
 2021              	.LBB64:
 2022              		.loc 1 509 0
 2023 0098 FFF7FEFF 		bl	asn1_get_tag
 2024              	.LVL322:
 2025 009c 60B9     		cbnz	r0, .L226
 2026              		.loc 1 513 0
 2027 009e 2A68     		ldr	r2, [r5]
 2028 00a0 029B     		ldr	r3, [sp, #8]
 2029 00a2 1344     		add	r3, r3, r2
 2030 00a4 9F42     		cmp	r7, r3
 2031 00a6 0ED1     		bne	.L240
 2032              		.loc 1 517 0
 2033 00a8 04F10808 		add	r8, r4, #8
 2034 00ac 4246     		mov	r2, r8
 2035 00ae 2846     		mov	r0, r5
 2036              	.LVL323:
 2037 00b0 3946     		mov	r1, r7
 2038 00b2 FFF7FEFF 		bl	asn1_get_mpi
 2039              	.LVL324:
 2040 00b6 48B3     		cbz	r0, .L249
 2041              	.L226:
 2042              		.loc 1 519 0
 2043 00b8 A0F52C54 		sub	r4, r0, #11008
 2044              	.LVL325:
 2045              	.LBE64:
 2046              	.LBE66:
 2047              		.loc 1 622 0
 2048 00bc 002C     		cmp	r4, #0
ARM GAS  C:\Users\jo\AppData\Local\Temp\ccRMLSMa.s 			page 37


 2049 00be DCD1     		bne	.L230
 2050              	.LVL326:
 2051              	.L229:
 2052              		.loc 1 622 0 is_stmt 0 discriminator 1
 2053 00c0 2B68     		ldr	r3, [r5]
 2054 00c2 9F42     		cmp	r7, r3
 2055 00c4 1ED0     		beq	.L233
 2056              	.LVL327:
 2057              	.L240:
 2058              		.loc 1 623 0 is_stmt 1
 2059 00c6 1D4C     		ldr	r4, .L251+4
 2060 00c8 D7E7     		b	.L230
 2061              	.LVL328:
 2062              	.L248:
 2063              		.loc 1 615 0
 2064 00ca 03A8     		add	r0, sp, #12
 2065              	.LVL329:
 2066 00cc 7168     		ldr	r1, [r6, #4]
 2067 00ce FFF7FEFF 		bl	pk_use_ecparams
 2068              	.LVL330:
 2069              		.loc 1 616 0
 2070 00d2 0446     		mov	r4, r0
 2071              	.LVL331:
 2072 00d4 0028     		cmp	r0, #0
 2073 00d6 D0D1     		bne	.L230
 2074              		.loc 1 617 0
 2075 00d8 D6F80480 		ldr	r8, [r6, #4]
 2076              	.LVL332:
 2077              	.LBB67:
 2078              	.LBB68:
 2079              		.loc 1 481 0
 2080 00dc 2A68     		ldr	r2, [r5]
 2081              		.loc 1 480 0
 2082 00de 08F18809 		add	r9, r8, #136
 2083 00e2 4946     		mov	r1, r9
 2084 00e4 4046     		mov	r0, r8
 2085              	.LVL333:
 2086 00e6 BB1A     		subs	r3, r7, r2
 2087 00e8 FFF7FEFF 		bl	ecp_point_read_binary
 2088              	.LVL334:
 2089 00ec 0446     		mov	r4, r0
 2090              	.LVL335:
 2091 00ee 08B1     		cbz	r0, .L250
 2092              		.loc 1 489 0
 2093 00f0 2F60     		str	r7, [r5]
 2094              	.LVL336:
 2095 00f2 C2E7     		b	.L230
 2096              	.LVL337:
 2097              	.L250:
 2098              		.loc 1 483 0
 2099 00f4 4046     		mov	r0, r8
 2100              	.LVL338:
 2101 00f6 4946     		mov	r1, r9
 2102 00f8 FFF7FEFF 		bl	ecp_check_pubkey
 2103              	.LVL339:
 2104              		.loc 1 489 0
 2105 00fc 2F60     		str	r7, [r5]
ARM GAS  C:\Users\jo\AppData\Local\Temp\ccRMLSMa.s 			page 38


 2106              	.LVL340:
 2107              	.LBE68:
 2108              	.LBE67:
 2109              		.loc 1 622 0
 2110 00fe 0446     		mov	r4, r0
 2111 0100 0028     		cmp	r0, #0
 2112 0102 BAD1     		bne	.L230
 2113              	.LVL341:
 2114              	.L233:
 2115              		.loc 1 627 0
 2116 0104 0020     		movs	r0, #0
 2117 0106 8AE7     		b	.L244
 2118              	.LVL342:
 2119              	.L236:
 2120              		.loc 1 601 0
 2121 0108 0B48     		ldr	r0, .L251
 2122              	.LVL343:
 2123 010a 88E7     		b	.L244
 2124              	.LVL344:
 2125              	.L249:
 2126              	.LBB69:
 2127              	.LBB65:
 2128              		.loc 1 517 0
 2129 010c 2846     		mov	r0, r5
 2130              	.LVL345:
 2131 010e 3946     		mov	r1, r7
 2132 0110 04F11402 		add	r2, r4, #20
 2133 0114 FFF7FEFF 		bl	asn1_get_mpi
 2134              	.LVL346:
 2135 0118 0028     		cmp	r0, #0
 2136 011a CDD1     		bne	.L226
 2137              		.loc 1 521 0
 2138 011c 2B68     		ldr	r3, [r5]
 2139 011e 9F42     		cmp	r7, r3
 2140 0120 D1D1     		bne	.L240
 2141              		.loc 1 525 0
 2142 0122 2046     		mov	r0, r4
 2143              	.LVL347:
 2144 0124 FFF7FEFF 		bl	rsa_check_pubkey
 2145              	.LVL348:
 2146 0128 20B9     		cbnz	r0, .L238
 2147              		.loc 1 528 0
 2148 012a 4046     		mov	r0, r8
 2149              	.LVL349:
 2150 012c FFF7FEFF 		bl	mpi_size
 2151              	.LVL350:
 2152 0130 6060     		str	r0, [r4, #4]
 2153              	.LVL351:
 2154 0132 C5E7     		b	.L229
 2155              	.LVL352:
 2156              	.L238:
 2157              		.loc 1 526 0
 2158 0134 024C     		ldr	r4, .L251+8
 2159              	.LVL353:
 2160 0136 A0E7     		b	.L230
 2161              	.L252:
 2162              		.align	2
ARM GAS  C:\Users\jo\AppData\Local\Temp\ccRMLSMa.s 			page 39


 2163              	.L251:
 2164 0138 80D3FFFF 		.word	-11392
 2165 013c 9AD4FFFF 		.word	-11110
 2166 0140 00D5FFFF 		.word	-11008
 2167              	.LBE65:
 2168              	.LBE69:
 2169              		.cfi_endproc
 2170              	.LFE23:
 2171              		.size	pk_parse_subpubkey, .-pk_parse_subpubkey
 2172 0144 AFF30080 		.section	.text.pk_parse_key,"ax",%progbits
 2172      AFF30080 
 2172      AFF30080 
 2173              		.align	2
 2174              		.p2align 4,,15
 2175              		.global	pk_parse_key
 2176              		.thumb
 2177              		.thumb_func
 2178              		.type	pk_parse_key, %function
 2179              	pk_parse_key:
 2180              	.LFB28:
 2181              		.loc 1 1056 0
 2182              		.cfi_startproc
 2183              		@ args = 4, pretend = 0, frame = 16
 2184              		@ frame_needed = 0, uses_anonymous_args = 0
 2185              	.LVL354:
 2186 0000 2DE9F041 		push	{r4, r5, r6, r7, r8, lr}
 2187              		.cfi_def_cfa_offset 24
 2188              		.cfi_offset 4, -24
 2189              		.cfi_offset 5, -20
 2190              		.cfi_offset 6, -16
 2191              		.cfi_offset 7, -12
 2192              		.cfi_offset 8, -8
 2193              		.cfi_offset 14, -4
 2194 0004 88B0     		sub	sp, sp, #32
 2195              		.cfi_def_cfa_offset 56
 2196              		.loc 1 1056 0
 2197 0006 0546     		mov	r5, r0
 2198              		.loc 1 1064 0
 2199 0008 05A8     		add	r0, sp, #20
 2200              	.LVL355:
 2201              		.loc 1 1056 0
 2202 000a 0E46     		mov	r6, r1
 2203 000c 1F46     		mov	r7, r3
 2204 000e 0E9C     		ldr	r4, [sp, #56]
 2205 0010 9046     		mov	r8, r2
 2206              		.loc 1 1064 0
 2207 0012 FFF7FEFF 		bl	pem_init
 2208              	.LVL356:
 2209              		.loc 1 1067 0
 2210 0016 04AA     		add	r2, sp, #16
 2211 0018 0292     		str	r2, [sp, #8]
 2212 001a 0097     		str	r7, [sp]
 2213 001c 0194     		str	r4, [sp, #4]
 2214 001e 05A8     		add	r0, sp, #20
 2215 0020 3346     		mov	r3, r6
 2216 0022 6D49     		ldr	r1, .L324
 2217 0024 6D4A     		ldr	r2, .L324+4
ARM GAS  C:\Users\jo\AppData\Local\Temp\ccRMLSMa.s 			page 40


 2218 0026 FFF7FEFF 		bl	pem_read_buffer
 2219              	.LVL357:
 2220              		.loc 1 1071 0
 2221 002a 58B1     		cbz	r0, .L318
 2222              		.loc 1 1086 0
 2223 002c 10F59C5F 		cmn	r0, #4992
 2224 0030 7BD0     		beq	.L265
 2225              		.loc 1 1088 0
 2226 0032 10F5985F 		cmn	r0, #4864
 2227 0036 7AD0     		beq	.L266
 2228              		.loc 1 1090 0
 2229 0038 10F5845F 		cmn	r0, #4224
 2230 003c 20D0     		beq	.L319
 2231              	.LVL358:
 2232              	.L256:
 2233              		.loc 1 1219 0
 2234 003e 08B0     		add	sp, sp, #32
 2235              		.cfi_remember_state
 2236              		.cfi_def_cfa_offset 24
 2237              		@ sp needed
 2238 0040 BDE8F081 		pop	{r4, r5, r6, r7, r8, pc}
 2239              	.LVL359:
 2240              	.L318:
 2241              		.cfi_restore_state
 2242              		.loc 1 1073 0
 2243 0044 0120     		movs	r0, #1
 2244              	.LVL360:
 2245 0046 FFF7FEFF 		bl	pk_info_from_type
 2246              	.LVL361:
 2247 004a 0028     		cmp	r0, #0
 2248 004c 71D0     		beq	.L262
 2249              		.loc 1 1076 0
 2250 004e 0146     		mov	r1, r0
 2251 0050 2846     		mov	r0, r5
 2252              	.LVL362:
 2253 0052 FFF7FEFF 		bl	pk_init_ctx
 2254              	.LVL363:
 2255 0056 0446     		mov	r4, r0
 2256 0058 48B1     		cbz	r0, .L320
 2257              	.L317:
 2258              		.loc 1 1151 0
 2259 005a 2846     		mov	r0, r5
 2260              	.LVL364:
 2261 005c FFF7FEFF 		bl	pk_free
 2262              	.LVL365:
 2263              	.L270:
 2264              		.loc 1 1154 0
 2265 0060 05A8     		add	r0, sp, #20
 2266 0062 FFF7FEFF 		bl	pem_free
 2267              	.LVL366:
 2268              		.loc 1 1147 0
 2269 0066 2046     		mov	r0, r4
 2270              		.loc 1 1219 0
 2271 0068 08B0     		add	sp, sp, #32
 2272              		.cfi_remember_state
 2273              		.cfi_def_cfa_offset 24
 2274              		@ sp needed
ARM GAS  C:\Users\jo\AppData\Local\Temp\ccRMLSMa.s 			page 41


 2275 006a BDE8F081 		pop	{r4, r5, r6, r7, r8, pc}
 2276              	.LVL367:
 2277              	.L320:
 2278              		.cfi_restore_state
 2279              		.loc 1 1076 0 discriminator 1
 2280 006e 6868     		ldr	r0, [r5, #4]
 2281              	.LVL368:
 2282 0070 0599     		ldr	r1, [sp, #20]
 2283 0072 069A     		ldr	r2, [sp, #24]
 2284 0074 FFF7FEFF 		bl	pk_parse_key_pkcs1_der
 2285              	.LVL369:
 2286 0078 0446     		mov	r4, r0
 2287 007a 0028     		cmp	r0, #0
 2288 007c EDD1     		bne	.L317
 2289 007e EFE7     		b	.L270
 2290              	.L319:
 2291              		.loc 1 1095 0
 2292 0080 04AB     		add	r3, sp, #16
 2293 0082 0293     		str	r3, [sp, #8]
 2294 0084 0097     		str	r7, [sp]
 2295 0086 0194     		str	r4, [sp, #4]
 2296 0088 05A8     		add	r0, sp, #20
 2297              	.LVL370:
 2298 008a 5549     		ldr	r1, .L324+8
 2299 008c 554A     		ldr	r2, .L324+12
 2300 008e 3346     		mov	r3, r6
 2301 0090 FFF7FEFF 		bl	pem_read_buffer
 2302              	.LVL371:
 2303              		.loc 1 1099 0
 2304 0094 0028     		cmp	r0, #0
 2305 0096 34D0     		beq	.L321
 2306              		.loc 1 1114 0
 2307 0098 10F59C5F 		cmn	r0, #4992
 2308 009c 45D0     		beq	.L265
 2309              		.loc 1 1116 0
 2310 009e 10F5985F 		cmn	r0, #4864
 2311 00a2 44D0     		beq	.L266
 2312              		.loc 1 1118 0
 2313 00a4 10F5845F 		cmn	r0, #4224
 2314 00a8 C9D1     		bne	.L256
 2315              		.loc 1 1122 0
 2316 00aa 0023     		movs	r3, #0
 2317 00ac 04AA     		add	r2, sp, #16
 2318 00ae 0292     		str	r2, [sp, #8]
 2319 00b0 0093     		str	r3, [sp]
 2320 00b2 0193     		str	r3, [sp, #4]
 2321 00b4 05A8     		add	r0, sp, #20
 2322              	.LVL372:
 2323 00b6 4C49     		ldr	r1, .L324+16
 2324 00b8 4C4A     		ldr	r2, .L324+20
 2325 00ba 3346     		mov	r3, r6
 2326 00bc FFF7FEFF 		bl	pem_read_buffer
 2327              	.LVL373:
 2328              		.loc 1 1126 0
 2329 00c0 0028     		cmp	r0, #0
 2330 00c2 38D0     		beq	.L322
 2331              		.loc 1 1137 0
ARM GAS  C:\Users\jo\AppData\Local\Temp\ccRMLSMa.s 			page 42


 2332 00c4 10F5845F 		cmn	r0, #4224
 2333 00c8 B9D1     		bne	.L256
 2334              		.loc 1 1141 0
 2335 00ca 0023     		movs	r3, #0
 2336 00cc 04AA     		add	r2, sp, #16
 2337 00ce 0292     		str	r2, [sp, #8]
 2338 00d0 0093     		str	r3, [sp]
 2339 00d2 0193     		str	r3, [sp, #4]
 2340 00d4 05A8     		add	r0, sp, #20
 2341              	.LVL374:
 2342 00d6 4649     		ldr	r1, .L324+24
 2343 00d8 464A     		ldr	r2, .L324+28
 2344 00da 3346     		mov	r3, r6
 2345 00dc FFF7FEFF 		bl	pem_read_buffer
 2346              	.LVL375:
 2347              		.loc 1 1145 0
 2348 00e0 0028     		cmp	r0, #0
 2349 00e2 31D0     		beq	.L323
 2350              		.loc 1 1157 0
 2351 00e4 10F5845F 		cmn	r0, #4224
 2352 00e8 A9D1     		bne	.L256
 2353              		.loc 1 1173 0
 2354 00ea 0094     		str	r4, [sp]
 2355 00ec 3B46     		mov	r3, r7
 2356 00ee 2846     		mov	r0, r5
 2357              	.LVL376:
 2358 00f0 3146     		mov	r1, r6
 2359 00f2 4246     		mov	r2, r8
 2360 00f4 FFF7FEFF 		bl	pk_parse_key_pkcs8_encrypted_der
 2361              	.LVL377:
 2362 00f8 0446     		mov	r4, r0
 2363 00fa 0028     		cmp	r0, #0
 2364 00fc 2FD1     		bne	.L271
 2365              	.L272:
 2366              		.loc 1 1176 0
 2367 00fe 0020     		movs	r0, #0
 2368              	.LVL378:
 2369 0100 9DE7     		b	.L256
 2370              	.LVL379:
 2371              	.L321:
 2372              		.loc 1 1101 0
 2373 0102 0220     		movs	r0, #2
 2374              	.LVL380:
 2375 0104 FFF7FEFF 		bl	pk_info_from_type
 2376              	.LVL381:
 2377 0108 0146     		mov	r1, r0
 2378 010a 90B1     		cbz	r0, .L262
 2379              		.loc 1 1104 0
 2380 010c 2846     		mov	r0, r5
 2381              	.LVL382:
 2382 010e FFF7FEFF 		bl	pk_init_ctx
 2383              	.LVL383:
 2384 0112 0446     		mov	r4, r0
 2385 0114 0028     		cmp	r0, #0
 2386 0116 A0D1     		bne	.L317
 2387              		.loc 1 1104 0 is_stmt 0 discriminator 1
 2388 0118 6868     		ldr	r0, [r5, #4]
ARM GAS  C:\Users\jo\AppData\Local\Temp\ccRMLSMa.s 			page 43


 2389              	.LVL384:
 2390 011a 0599     		ldr	r1, [sp, #20]
 2391 011c 069A     		ldr	r2, [sp, #24]
 2392 011e FFF7FEFF 		bl	pk_parse_key_sec1_der
 2393              	.LVL385:
 2394 0122 0446     		mov	r4, r0
 2395 0124 0028     		cmp	r0, #0
 2396 0126 98D1     		bne	.L317
 2397 0128 9AE7     		b	.L270
 2398              	.LVL386:
 2399              	.L265:
 2400              		.loc 1 1087 0 is_stmt 1
 2401 012a 3348     		ldr	r0, .L324+32
 2402 012c 87E7     		b	.L256
 2403              	.LVL387:
 2404              	.L266:
 2405              		.loc 1 1089 0
 2406 012e 3348     		ldr	r0, .L324+36
 2407              	.LVL388:
 2408 0130 85E7     		b	.L256
 2409              	.LVL389:
 2410              	.L262:
 2411              		.loc 1 1074 0
 2412 0132 3348     		ldr	r0, .L324+40
 2413              	.LVL390:
 2414 0134 83E7     		b	.L256
 2415              	.LVL391:
 2416              	.L322:
 2417              		.loc 1 1128 0
 2418 0136 2846     		mov	r0, r5
 2419              	.LVL392:
 2420 0138 0599     		ldr	r1, [sp, #20]
 2421 013a 069A     		ldr	r2, [sp, #24]
 2422 013c FFF7FEFF 		bl	pk_parse_key_pkcs8_unencrypted_der
 2423              	.LVL393:
 2424 0140 0446     		mov	r4, r0
 2425 0142 0028     		cmp	r0, #0
 2426 0144 8CD0     		beq	.L270
 2427 0146 88E7     		b	.L317
 2428              	.L323:
 2429              		.loc 1 1147 0
 2430 0148 0094     		str	r4, [sp]
 2431 014a 3B46     		mov	r3, r7
 2432 014c 2846     		mov	r0, r5
 2433              	.LVL394:
 2434 014e 0599     		ldr	r1, [sp, #20]
 2435 0150 069A     		ldr	r2, [sp, #24]
 2436 0152 FFF7FEFF 		bl	pk_parse_key_pkcs8_encrypted_der
 2437              	.LVL395:
 2438 0156 0446     		mov	r4, r0
 2439 0158 0028     		cmp	r0, #0
 2440 015a 81D0     		beq	.L270
 2441 015c 7DE7     		b	.L317
 2442              	.L271:
 2443              		.loc 1 1179 0
 2444 015e 2846     		mov	r0, r5
 2445              	.LVL396:
ARM GAS  C:\Users\jo\AppData\Local\Temp\ccRMLSMa.s 			page 44


 2446 0160 FFF7FEFF 		bl	pk_free
 2447              	.LVL397:
 2448              		.loc 1 1181 0
 2449 0164 14F52E5F 		cmn	r4, #11136
 2450 0168 DFD0     		beq	.L265
 2451              		.loc 1 1187 0
 2452 016a 2846     		mov	r0, r5
 2453 016c 3146     		mov	r1, r6
 2454 016e 4246     		mov	r2, r8
 2455 0170 FFF7FEFF 		bl	pk_parse_key_pkcs8_unencrypted_der
 2456              	.LVL398:
 2457 0174 0028     		cmp	r0, #0
 2458 0176 C2D0     		beq	.L272
 2459              		.loc 1 1190 0
 2460 0178 2846     		mov	r0, r5
 2461              	.LVL399:
 2462 017a FFF7FEFF 		bl	pk_free
 2463              	.LVL400:
 2464              		.loc 1 1193 0
 2465 017e 0120     		movs	r0, #1
 2466 0180 FFF7FEFF 		bl	pk_info_from_type
 2467              	.LVL401:
 2468 0184 0146     		mov	r1, r0
 2469 0186 0028     		cmp	r0, #0
 2470 0188 D3D0     		beq	.L262
 2471              		.loc 1 1196 0
 2472 018a 2846     		mov	r0, r5
 2473              	.LVL402:
 2474 018c FFF7FEFF 		bl	pk_init_ctx
 2475              	.LVL403:
 2476 0190 0028     		cmp	r0, #0
 2477 0192 B4D1     		bne	.L272
 2478              		.loc 1 1196 0 is_stmt 0 discriminator 1
 2479 0194 6868     		ldr	r0, [r5, #4]
 2480              	.LVL404:
 2481 0196 3146     		mov	r1, r6
 2482 0198 4246     		mov	r2, r8
 2483 019a FFF7FEFF 		bl	pk_parse_key_pkcs1_der
 2484              	.LVL405:
 2485 019e 0028     		cmp	r0, #0
 2486 01a0 ADD0     		beq	.L272
 2487              		.loc 1 1202 0 is_stmt 1
 2488 01a2 2846     		mov	r0, r5
 2489              	.LVL406:
 2490 01a4 FFF7FEFF 		bl	pk_free
 2491              	.LVL407:
 2492              		.loc 1 1206 0
 2493 01a8 0220     		movs	r0, #2
 2494 01aa FFF7FEFF 		bl	pk_info_from_type
 2495              	.LVL408:
 2496 01ae 0146     		mov	r1, r0
 2497 01b0 0028     		cmp	r0, #0
 2498 01b2 BED0     		beq	.L262
 2499              		.loc 1 1209 0
 2500 01b4 2846     		mov	r0, r5
 2501              	.LVL409:
 2502 01b6 FFF7FEFF 		bl	pk_init_ctx
ARM GAS  C:\Users\jo\AppData\Local\Temp\ccRMLSMa.s 			page 45


 2503              	.LVL410:
 2504 01ba 0028     		cmp	r0, #0
 2505 01bc 9FD1     		bne	.L272
 2506              		.loc 1 1209 0 is_stmt 0 discriminator 1
 2507 01be 3146     		mov	r1, r6
 2508 01c0 4246     		mov	r2, r8
 2509 01c2 6868     		ldr	r0, [r5, #4]
 2510              	.LVL411:
 2511 01c4 FFF7FEFF 		bl	pk_parse_key_sec1_der
 2512              	.LVL412:
 2513 01c8 0028     		cmp	r0, #0
 2514 01ca 98D0     		beq	.L272
 2515              		.loc 1 1215 0 is_stmt 1
 2516 01cc 2846     		mov	r0, r5
 2517              	.LVL413:
 2518 01ce FFF7FEFF 		bl	pk_free
 2519              	.LVL414:
 2520              		.loc 1 1218 0
 2521 01d2 0C48     		ldr	r0, .L324+44
 2522 01d4 33E7     		b	.L256
 2523              	.L325:
 2524 01d6 00BF     		.align	2
 2525              	.L324:
 2526 01d8 24000000 		.word	.LC4
 2527 01dc 44000000 		.word	.LC5
 2528 01e0 64000000 		.word	.LC6
 2529 01e4 84000000 		.word	.LC7
 2530 01e8 A4000000 		.word	.LC8
 2531 01ec C0000000 		.word	.LC9
 2532 01f0 DC000000 		.word	.LC10
 2533 01f4 04010000 		.word	.LC11
 2534 01f8 80D4FFFF 		.word	-11136
 2535 01fc 00D4FFFF 		.word	-11264
 2536 0200 80D3FFFF 		.word	-11392
 2537 0204 00D3FFFF 		.word	-11520
 2538              		.cfi_endproc
 2539              	.LFE28:
 2540              		.size	pk_parse_key, .-pk_parse_key
 2541 0208 AFF30080 		.section	.text.pk_parse_keyfile,"ax",%progbits
 2541      AFF30080 
 2542              		.align	2
 2543              		.p2align 4,,15
 2544              		.global	pk_parse_keyfile
 2545              		.thumb
 2546              		.thumb_func
 2547              		.type	pk_parse_keyfile, %function
 2548              	pk_parse_keyfile:
 2549              	.LFB13:
 2550              		.loc 1 117 0
 2551              		.cfi_startproc
 2552              		@ args = 0, pretend = 0, frame = 8
 2553              		@ frame_needed = 0, uses_anonymous_args = 0
 2554              	.LVL415:
 2555 0000 30B5     		push	{r4, r5, lr}
 2556              		.cfi_def_cfa_offset 12
 2557              		.cfi_offset 4, -12
 2558              		.cfi_offset 5, -8
ARM GAS  C:\Users\jo\AppData\Local\Temp\ccRMLSMa.s 			page 46


 2559              		.cfi_offset 14, -4
 2560 0002 85B0     		sub	sp, sp, #20
 2561              		.cfi_def_cfa_offset 32
 2562              		.loc 1 117 0
 2563 0004 0546     		mov	r5, r0
 2564 0006 1446     		mov	r4, r2
 2565              		.loc 1 122 0
 2566 0008 0846     		mov	r0, r1
 2567              	.LVL416:
 2568 000a 02AA     		add	r2, sp, #8
 2569              	.LVL417:
 2570 000c 03A9     		add	r1, sp, #12
 2571              	.LVL418:
 2572 000e FFF7FEFF 		bl	pk_load_file
 2573              	.LVL419:
 2574 0012 D0B9     		cbnz	r0, .L327
 2575              		.loc 1 125 0
 2576 0014 DCB1     		cbz	r4, .L336
 2577              		.loc 1 128 0
 2578 0016 2046     		mov	r0, r4
 2579              	.LVL420:
 2580 0018 FFF7FEFF 		bl	strlen
 2581              	.LVL421:
 2582 001c 2346     		mov	r3, r4
 2583 001e 0090     		str	r0, [sp]
 2584 0020 0399     		ldr	r1, [sp, #12]
 2585 0022 029A     		ldr	r2, [sp, #8]
 2586 0024 2846     		mov	r0, r5
 2587 0026 FFF7FEFF 		bl	pk_parse_key
 2588              	.LVL422:
 2589 002a 0446     		mov	r4, r0
 2590              	.LVL423:
 2591              	.L329:
 2592              		.loc 1 131 0
 2593 002c 029A     		ldr	r2, [sp, #8]
 2594 002e 039B     		ldr	r3, [sp, #12]
 2595              	.LVL424:
 2596              	.LBB70:
 2597              	.LBB71:
 2598              		.loc 1 67 0
 2599 0030 511C     		adds	r1, r2, #1
 2600 0032 15D0     		beq	.L333
 2601 0034 0132     		adds	r2, r2, #1
 2602              	.LVL425:
 2603 0036 1A44     		add	r2, r2, r3
 2604 0038 0021     		movs	r1, #0
 2605              	.LVL426:
 2606              	.L331:
 2607 003a 1970     		strb	r1, [r3]
 2608              	.LVL427:
 2609 003c 0133     		adds	r3, r3, #1
 2610              	.LVL428:
 2611 003e 9342     		cmp	r3, r2
 2612 0040 FBD1     		bne	.L331
 2613 0042 0398     		ldr	r0, [sp, #12]
 2614              	.LVL429:
 2615              	.L330:
ARM GAS  C:\Users\jo\AppData\Local\Temp\ccRMLSMa.s 			page 47


 2616              	.LBE71:
 2617              	.LBE70:
 2618              		.loc 1 132 0
 2619 0044 FFF7FEFF 		bl	free
 2620              	.LVL430:
 2621              		.loc 1 134 0
 2622 0048 2046     		mov	r0, r4
 2623              	.LVL431:
 2624              	.L327:
 2625              		.loc 1 135 0
 2626 004a 05B0     		add	sp, sp, #20
 2627              		.cfi_remember_state
 2628              		.cfi_def_cfa_offset 12
 2629              		@ sp needed
 2630 004c 30BD     		pop	{r4, r5, pc}
 2631              	.LVL432:
 2632              	.L336:
 2633              		.cfi_restore_state
 2634              		.loc 1 126 0
 2635 004e 0094     		str	r4, [sp]
 2636 0050 2346     		mov	r3, r4
 2637 0052 0399     		ldr	r1, [sp, #12]
 2638 0054 029A     		ldr	r2, [sp, #8]
 2639 0056 2846     		mov	r0, r5
 2640              	.LVL433:
 2641 0058 FFF7FEFF 		bl	pk_parse_key
 2642              	.LVL434:
 2643 005c 0446     		mov	r4, r0
 2644              	.LVL435:
 2645 005e E5E7     		b	.L329
 2646              	.LVL436:
 2647              	.L333:
 2648              	.LBB73:
 2649              	.LBB72:
 2650              		.loc 1 67 0
 2651 0060 1846     		mov	r0, r3
 2652              	.LVL437:
 2653 0062 EFE7     		b	.L330
 2654              	.LBE72:
 2655              	.LBE73:
 2656              		.cfi_endproc
 2657              	.LFE13:
 2658              		.size	pk_parse_keyfile, .-pk_parse_keyfile
 2659 0064 AFF30080 		.section	.text.pk_parse_public_key,"ax",%progbits
 2659      AFF30080 
 2659      AFF30080 
 2660              		.align	2
 2661              		.p2align 4,,15
 2662              		.global	pk_parse_public_key
 2663              		.thumb
 2664              		.thumb_func
 2665              		.type	pk_parse_public_key, %function
 2666              	pk_parse_public_key:
 2667              	.LFB29:
 2668              		.loc 1 1226 0
 2669              		.cfi_startproc
 2670              		@ args = 0, pretend = 0, frame = 24
ARM GAS  C:\Users\jo\AppData\Local\Temp\ccRMLSMa.s 			page 48


 2671              		@ frame_needed = 0, uses_anonymous_args = 0
 2672              	.LVL438:
 2673 0000 F0B5     		push	{r4, r5, r6, r7, lr}
 2674              		.cfi_def_cfa_offset 20
 2675              		.cfi_offset 4, -20
 2676              		.cfi_offset 5, -16
 2677              		.cfi_offset 6, -12
 2678              		.cfi_offset 7, -8
 2679              		.cfi_offset 14, -4
 2680 0002 8BB0     		sub	sp, sp, #44
 2681              		.cfi_def_cfa_offset 64
 2682              		.loc 1 1226 0
 2683 0004 0746     		mov	r7, r0
 2684              		.loc 1 1233 0
 2685 0006 07A8     		add	r0, sp, #28
 2686              	.LVL439:
 2687              		.loc 1 1226 0
 2688 0008 0D46     		mov	r5, r1
 2689 000a 1646     		mov	r6, r2
 2690              		.loc 1 1233 0
 2691 000c FFF7FEFF 		bl	pem_init
 2692              	.LVL440:
 2693              		.loc 1 1234 0
 2694 0010 0022     		movs	r2, #0
 2695 0012 06A9     		add	r1, sp, #24
 2696 0014 0092     		str	r2, [sp]
 2697 0016 0192     		str	r2, [sp, #4]
 2698 0018 0291     		str	r1, [sp, #8]
 2699 001a 07A8     		add	r0, sp, #28
 2700 001c 2B46     		mov	r3, r5
 2701 001e 0D49     		ldr	r1, .L346
 2702 0020 0D4A     		ldr	r2, .L346+4
 2703 0022 FFF7FEFF 		bl	pem_read_buffer
 2704              	.LVL441:
 2705              		.loc 1 1239 0
 2706 0026 0446     		mov	r4, r0
 2707 0028 78B9     		cbnz	r0, .L338
 2708              		.loc 1 1244 0
 2709 002a 079D     		ldr	r5, [sp, #28]
 2710              	.LVL442:
 2711              		.loc 1 1245 0
 2712 002c 089E     		ldr	r6, [sp, #32]
 2713              	.LVL443:
 2714              	.L339:
 2715              		.loc 1 1253 0
 2716 002e 0AA8     		add	r0, sp, #40
 2717              	.LVL444:
 2718              		.loc 1 1255 0
 2719 0030 A919     		adds	r1, r5, r6
 2720              		.loc 1 1253 0
 2721 0032 40F8145D 		str	r5, [r0, #-20]!
 2722              		.loc 1 1255 0
 2723 0036 3A46     		mov	r2, r7
 2724 0038 FFF7FEFF 		bl	pk_parse_subpubkey
 2725              	.LVL445:
 2726 003c 0446     		mov	r4, r0
 2727              	.LVL446:
ARM GAS  C:\Users\jo\AppData\Local\Temp\ccRMLSMa.s 			page 49


 2728              	.L345:
 2729              		.loc 1 1258 0
 2730 003e 07A8     		add	r0, sp, #28
 2731 0040 FFF7FEFF 		bl	pem_free
 2732              	.LVL447:
 2733              		.loc 1 1261 0
 2734 0044 2046     		mov	r0, r4
 2735              		.loc 1 1262 0
 2736 0046 0BB0     		add	sp, sp, #44
 2737              		.cfi_remember_state
 2738              		.cfi_def_cfa_offset 20
 2739              		@ sp needed
 2740 0048 F0BD     		pop	{r4, r5, r6, r7, pc}
 2741              	.LVL448:
 2742              	.L338:
 2743              		.cfi_restore_state
 2744              		.loc 1 1247 0
 2745 004a 10F5845F 		cmn	r0, #4224
 2746 004e EED0     		beq	.L339
 2747 0050 F5E7     		b	.L345
 2748              	.L347:
 2749 0052 00BF     		.align	2
 2750              	.L346:
 2751 0054 28010000 		.word	.LC12
 2752 0058 44010000 		.word	.LC13
 2753              		.cfi_endproc
 2754              	.LFE29:
 2755              		.size	pk_parse_public_key, .-pk_parse_public_key
 2756 005c AFF30080 		.section	.text.pk_parse_public_keyfile,"ax",%progbits
 2757              		.align	2
 2758              		.p2align 4,,15
 2759              		.global	pk_parse_public_keyfile
 2760              		.thumb
 2761              		.thumb_func
 2762              		.type	pk_parse_public_keyfile, %function
 2763              	pk_parse_public_keyfile:
 2764              	.LFB14:
 2765              		.loc 1 141 0
 2766              		.cfi_startproc
 2767              		@ args = 0, pretend = 0, frame = 8
 2768              		@ frame_needed = 0, uses_anonymous_args = 0
 2769              	.LVL449:
 2770 0000 30B5     		push	{r4, r5, lr}
 2771              		.cfi_def_cfa_offset 12
 2772              		.cfi_offset 4, -12
 2773              		.cfi_offset 5, -8
 2774              		.cfi_offset 14, -4
 2775 0002 83B0     		sub	sp, sp, #12
 2776              		.cfi_def_cfa_offset 24
 2777              		.loc 1 141 0
 2778 0004 0546     		mov	r5, r0
 2779              		.loc 1 146 0
 2780 0006 6A46     		mov	r2, sp
 2781 0008 0846     		mov	r0, r1
 2782              	.LVL450:
 2783 000a 01A9     		add	r1, sp, #4
 2784              	.LVL451:
ARM GAS  C:\Users\jo\AppData\Local\Temp\ccRMLSMa.s 			page 50


 2785 000c FFF7FEFF 		bl	pk_load_file
 2786              	.LVL452:
 2787 0010 0446     		mov	r4, r0
 2788 0012 08B1     		cbz	r0, .L356
 2789              		.loc 1 155 0
 2790 0014 03B0     		add	sp, sp, #12
 2791              		.cfi_remember_state
 2792              		.cfi_def_cfa_offset 12
 2793              		@ sp needed
 2794 0016 30BD     		pop	{r4, r5, pc}
 2795              	.LVL453:
 2796              	.L356:
 2797              		.cfi_restore_state
 2798              		.loc 1 149 0
 2799 0018 2846     		mov	r0, r5
 2800              	.LVL454:
 2801 001a 0199     		ldr	r1, [sp, #4]
 2802 001c 009A     		ldr	r2, [sp]
 2803 001e FFF7FEFF 		bl	pk_parse_public_key
 2804              	.LVL455:
 2805              		.loc 1 151 0
 2806 0022 9DE80C00 		ldmia	sp, {r2, r3}
 2807              	.LBB74:
 2808              	.LBB75:
 2809              		.loc 1 67 0
 2810 0026 511C     		adds	r1, r2, #1
 2811              	.LBE75:
 2812              	.LBE74:
 2813              		.loc 1 149 0
 2814 0028 0546     		mov	r5, r0
 2815              	.LVL456:
 2816              	.LBB78:
 2817              	.LBB76:
 2818              		.loc 1 67 0
 2819 002a 0CD0     		beq	.L353
 2820 002c 0132     		adds	r2, r2, #1
 2821              	.LVL457:
 2822 002e 1A44     		add	r2, r2, r3
 2823 0030 2046     		mov	r0, r4
 2824              	.LVL458:
 2825              	.L351:
 2826 0032 1870     		strb	r0, [r3]
 2827              	.LVL459:
 2828 0034 0133     		adds	r3, r3, #1
 2829              	.LVL460:
 2830 0036 9342     		cmp	r3, r2
 2831 0038 FBD1     		bne	.L351
 2832 003a 0198     		ldr	r0, [sp, #4]
 2833              	.LVL461:
 2834              	.L350:
 2835              	.LBE76:
 2836              	.LBE78:
 2837              		.loc 1 152 0
 2838 003c FFF7FEFF 		bl	free
 2839              	.LVL462:
 2840              		.loc 1 154 0
 2841 0040 2846     		mov	r0, r5
ARM GAS  C:\Users\jo\AppData\Local\Temp\ccRMLSMa.s 			page 51


 2842              		.loc 1 155 0
 2843 0042 03B0     		add	sp, sp, #12
 2844              		.cfi_remember_state
 2845              		.cfi_def_cfa_offset 12
 2846              		@ sp needed
 2847 0044 30BD     		pop	{r4, r5, pc}
 2848              	.LVL463:
 2849              	.L353:
 2850              		.cfi_restore_state
 2851              	.LBB79:
 2852              	.LBB77:
 2853              		.loc 1 67 0
 2854 0046 1846     		mov	r0, r3
 2855              	.LVL464:
 2856 0048 F8E7     		b	.L350
 2857              	.LBE77:
 2858              	.LBE79:
 2859              		.cfi_endproc
 2860              	.LFE14:
 2861              		.size	pk_parse_public_keyfile, .-pk_parse_public_keyfile
 2862 004a 00BFAFF3 		.section	.rodata.str1.4,"aMS",%progbits,1
 2862      0080
 2863              		.align	2
 2864              	.LC0:
 2865 0000 2A8648CE 		.ascii	"*\206H\316=\001\001\000"
 2865      3D010100 
 2866              	.LC1:
 2867 0008 2A864886 		.ascii	"*\206H\206\367\015\001\014\001\001\000"
 2867      F70D010C 
 2867      010100
 2868 0013 00       		.space	1
 2869              	.LC2:
 2870 0014 2A864886 		.ascii	"*\206H\206\367\015\001\005\015\000"
 2870      F70D0105 
 2870      0D00
 2871 001e 0000     		.space	2
 2872              	.LC3:
 2873 0020 726200   		.ascii	"rb\000"
 2874 0023 00       		.space	1
 2875              	.LC4:
 2876 0024 2D2D2D2D 		.ascii	"-----BEGIN RSA PRIVATE KEY-----\000"
 2876      2D424547 
 2876      494E2052 
 2876      53412050 
 2876      52495641 
 2877              	.LC5:
 2878 0044 2D2D2D2D 		.ascii	"-----END RSA PRIVATE KEY-----\000"
 2878      2D454E44 
 2878      20525341 
 2878      20505249 
 2878      56415445 
 2879 0062 0000     		.space	2
 2880              	.LC6:
 2881 0064 2D2D2D2D 		.ascii	"-----BEGIN EC PRIVATE KEY-----\000"
 2881      2D424547 
 2881      494E2045 
 2881      43205052 
ARM GAS  C:\Users\jo\AppData\Local\Temp\ccRMLSMa.s 			page 52


 2881      49564154 
 2882 0083 00       		.space	1
 2883              	.LC7:
 2884 0084 2D2D2D2D 		.ascii	"-----END EC PRIVATE KEY-----\000"
 2884      2D454E44 
 2884      20454320 
 2884      50524956 
 2884      41544520 
 2885 00a1 000000   		.space	3
 2886              	.LC8:
 2887 00a4 2D2D2D2D 		.ascii	"-----BEGIN PRIVATE KEY-----\000"
 2887      2D424547 
 2887      494E2050 
 2887      52495641 
 2887      5445204B 
 2888              	.LC9:
 2889 00c0 2D2D2D2D 		.ascii	"-----END PRIVATE KEY-----\000"
 2889      2D454E44 
 2889      20505249 
 2889      56415445 
 2889      204B4559 
 2890 00da 0000     		.space	2
 2891              	.LC10:
 2892 00dc 2D2D2D2D 		.ascii	"-----BEGIN ENCRYPTED PRIVATE KEY-----\000"
 2892      2D424547 
 2892      494E2045 
 2892      4E435259 
 2892      50544544 
 2893 0102 0000     		.space	2
 2894              	.LC11:
 2895 0104 2D2D2D2D 		.ascii	"-----END ENCRYPTED PRIVATE KEY-----\000"
 2895      2D454E44 
 2895      20454E43 
 2895      52595054 
 2895      45442050 
 2896              	.LC12:
 2897 0128 2D2D2D2D 		.ascii	"-----BEGIN PUBLIC KEY-----\000"
 2897      2D424547 
 2897      494E2050 
 2897      55424C49 
 2897      43204B45 
 2898 0143 00       		.space	1
 2899              	.LC13:
 2900 0144 2D2D2D2D 		.ascii	"-----END PUBLIC KEY-----\000"
 2900      2D454E44 
 2900      20505542 
 2900      4C494320 
 2900      4B45592D 
 2901 015d 000000   		.text
 2902              	.Letext0:
 2903              		.file 2 "c:\\program files\\gnu tools arm embedded\\4.9 2014q4\\lib\\gcc\\arm-none-eabi\\4.9.3\\in
 2904              		.file 3 "../../../ext/mbedtls-1.3.11/library/../include/polarssl/md.h"
 2905              		.file 4 "c:\\program files\\gnu tools arm embedded\\4.9 2014q4\\arm-none-eabi\\include\\machine\\_
 2906              		.file 5 "c:\\program files\\gnu tools arm embedded\\4.9 2014q4\\arm-none-eabi\\include\\sys\\lock.
 2907              		.file 6 "c:\\program files\\gnu tools arm embedded\\4.9 2014q4\\arm-none-eabi\\include\\sys\\_type
 2908              		.file 7 "c:\\program files\\gnu tools arm embedded\\4.9 2014q4\\arm-none-eabi\\include\\sys\\reent
 2909              		.file 8 "c:\\program files\\gnu tools arm embedded\\4.9 2014q4\\arm-none-eabi\\include\\stdio.h"
ARM GAS  C:\Users\jo\AppData\Local\Temp\ccRMLSMa.s 			page 53


 2910              		.file 9 "c:\\program files\\gnu tools arm embedded\\4.9 2014q4\\arm-none-eabi\\include\\stdint.h"
 2911              		.file 10 "../../../ext/mbedtls-1.3.11/library/../include/polarssl/bignum.h"
 2912              		.file 11 "../../../ext/mbedtls-1.3.11/library/../include/polarssl/rsa.h"
 2913              		.file 12 "../../../ext/mbedtls-1.3.11/library/../include/polarssl/ecp.h"
 2914              		.file 13 "../../../ext/mbedtls-1.3.11/library/../include/polarssl/pk.h"
 2915              		.file 14 "../../../ext/mbedtls-1.3.11/library/../include/polarssl/asn1.h"
 2916              		.file 15 "../../../ext/mbedtls-1.3.11/library/../include/polarssl/cipher.h"
 2917              		.file 16 "../../../ext/mbedtls-1.3.11/library/../include/polarssl/pem.h"
 2918              		.file 17 "../../../ext/mbedtls-1.3.11/library/../include/polarssl/oid.h"
 2919              		.file 18 "c:\\program files\\gnu tools arm embedded\\4.9 2014q4\\arm-none-eabi\\include\\string.h"
 2920              		.file 19 "../../../ext/mbedtls-1.3.11/library/../include/polarssl/pkcs12.h"
 2921              		.file 20 "../../../ext/mbedtls-1.3.11/library/../include/polarssl/pkcs5.h"
 2922              		.file 21 "c:\\program files\\gnu tools arm embedded\\4.9 2014q4\\arm-none-eabi\\include\\stdlib.h"
 2923              		.section	.debug_info,"",%progbits
 2924              	.Ldebug_info0:
 2925 0000 42320000 		.4byte	0x3242
 2926 0004 0400     		.2byte	0x4
 2927 0006 00000000 		.4byte	.Ldebug_abbrev0
 2928 000a 04       		.byte	0x4
 2929 000b 01       		.uleb128 0x1
 2930 000c C1000000 		.4byte	.LASF333
 2931 0010 01       		.byte	0x1
 2932 0011 CF050000 		.4byte	.LASF334
 2933 0015 22080000 		.4byte	.LASF335
 2934 0019 28010000 		.4byte	.Ldebug_ranges0+0x128
 2935 001d 00000000 		.4byte	0
 2936 0021 00000000 		.4byte	.Ldebug_line0
 2937 0025 02       		.uleb128 0x2
 2938 0026 04       		.byte	0x4
 2939 0027 05       		.byte	0x5
 2940 0028 696E7400 		.ascii	"int\000"
 2941 002c 03       		.uleb128 0x3
 2942 002d F8060000 		.4byte	.LASF11
 2943 0031 02       		.byte	0x2
 2944 0032 D4       		.byte	0xd4
 2945 0033 37000000 		.4byte	0x37
 2946 0037 04       		.uleb128 0x4
 2947 0038 04       		.byte	0x4
 2948 0039 07       		.byte	0x7
 2949 003a F7010000 		.4byte	.LASF0
 2950 003e 05       		.uleb128 0x5
 2951 003f 01       		.byte	0x1
 2952 0040 03       		.byte	0x3
 2953 0041 30       		.byte	0x30
 2954 0042 83000000 		.4byte	0x83
 2955 0046 06       		.uleb128 0x6
 2956 0047 B9130000 		.4byte	.LASF1
 2957 004b 00       		.sleb128 0
 2958 004c 06       		.uleb128 0x6
 2959 004d 79120000 		.4byte	.LASF2
 2960 0051 01       		.sleb128 1
 2961 0052 06       		.uleb128 0x6
 2962 0053 89120000 		.4byte	.LASF3
 2963 0057 02       		.sleb128 2
 2964 0058 06       		.uleb128 0x6
 2965 0059 99120000 		.4byte	.LASF4
 2966 005d 03       		.sleb128 3
ARM GAS  C:\Users\jo\AppData\Local\Temp\ccRMLSMa.s 			page 54


 2967 005e 06       		.uleb128 0x6
 2968 005f 5E040000 		.4byte	.LASF5
 2969 0063 04       		.sleb128 4
 2970 0064 06       		.uleb128 0x6
 2971 0065 390E0000 		.4byte	.LASF6
 2972 0069 05       		.sleb128 5
 2973 006a 06       		.uleb128 0x6
 2974 006b D6120000 		.4byte	.LASF7
 2975 006f 06       		.sleb128 6
 2976 0070 06       		.uleb128 0x6
 2977 0071 820A0000 		.4byte	.LASF8
 2978 0075 07       		.sleb128 7
 2979 0076 06       		.uleb128 0x6
 2980 0077 5A110000 		.4byte	.LASF9
 2981 007b 08       		.sleb128 8
 2982 007c 06       		.uleb128 0x6
 2983 007d 040B0000 		.4byte	.LASF10
 2984 0081 09       		.sleb128 9
 2985 0082 00       		.byte	0
 2986 0083 03       		.uleb128 0x3
 2987 0084 6D0C0000 		.4byte	.LASF12
 2988 0088 03       		.byte	0x3
 2989 0089 3B       		.byte	0x3b
 2990 008a 3E000000 		.4byte	0x3e
 2991 008e 07       		.uleb128 0x7
 2992 008f 04       		.byte	0x4
 2993 0090 94000000 		.4byte	0x94
 2994 0094 08       		.uleb128 0x8
 2995 0095 99000000 		.4byte	0x99
 2996 0099 04       		.uleb128 0x4
 2997 009a 01       		.byte	0x1
 2998 009b 08       		.byte	0x8
 2999 009c 9D080000 		.4byte	.LASF13
 3000 00a0 09       		.uleb128 0x9
 3001 00a1 AB000000 		.4byte	0xab
 3002 00a5 0A       		.uleb128 0xa
 3003 00a6 AB000000 		.4byte	0xab
 3004 00aa 00       		.byte	0
 3005 00ab 0B       		.uleb128 0xb
 3006 00ac 04       		.byte	0x4
 3007 00ad 07       		.uleb128 0x7
 3008 00ae 04       		.byte	0x4
 3009 00af A0000000 		.4byte	0xa0
 3010 00b3 07       		.uleb128 0x7
 3011 00b4 04       		.byte	0x4
 3012 00b5 B9000000 		.4byte	0xb9
 3013 00b9 08       		.uleb128 0x8
 3014 00ba BE000000 		.4byte	0xbe
 3015 00be 04       		.uleb128 0x4
 3016 00bf 01       		.byte	0x1
 3017 00c0 08       		.byte	0x8
 3018 00c1 8B100000 		.4byte	.LASF14
 3019 00c5 07       		.uleb128 0x7
 3020 00c6 04       		.byte	0x4
 3021 00c7 BE000000 		.4byte	0xbe
 3022 00cb 0C       		.uleb128 0xc
 3023 00cc AB000000 		.4byte	0xab
ARM GAS  C:\Users\jo\AppData\Local\Temp\ccRMLSMa.s 			page 55


 3024 00d0 07       		.uleb128 0x7
 3025 00d1 04       		.byte	0x4
 3026 00d2 CB000000 		.4byte	0xcb
 3027 00d6 04       		.uleb128 0x4
 3028 00d7 01       		.byte	0x1
 3029 00d8 06       		.byte	0x6
 3030 00d9 2B120000 		.4byte	.LASF15
 3031 00dd 04       		.uleb128 0x4
 3032 00de 02       		.byte	0x2
 3033 00df 05       		.byte	0x5
 3034 00e0 FD0C0000 		.4byte	.LASF16
 3035 00e4 04       		.uleb128 0x4
 3036 00e5 02       		.byte	0x2
 3037 00e6 07       		.byte	0x7
 3038 00e7 4D120000 		.4byte	.LASF17
 3039 00eb 03       		.uleb128 0x3
 3040 00ec 63020000 		.4byte	.LASF18
 3041 00f0 04       		.byte	0x4
 3042 00f1 3F       		.byte	0x3f
 3043 00f2 F6000000 		.4byte	0xf6
 3044 00f6 04       		.uleb128 0x4
 3045 00f7 04       		.byte	0x4
 3046 00f8 05       		.byte	0x5
 3047 00f9 3B0D0000 		.4byte	.LASF19
 3048 00fd 03       		.uleb128 0x3
 3049 00fe A6100000 		.4byte	.LASF20
 3050 0102 04       		.byte	0x4
 3051 0103 41       		.byte	0x41
 3052 0104 08010000 		.4byte	0x108
 3053 0108 04       		.uleb128 0x4
 3054 0109 04       		.byte	0x4
 3055 010a 07       		.byte	0x7
 3056 010b 790F0000 		.4byte	.LASF21
 3057 010f 04       		.uleb128 0x4
 3058 0110 08       		.byte	0x8
 3059 0111 05       		.byte	0x5
 3060 0112 E5090000 		.4byte	.LASF22
 3061 0116 04       		.uleb128 0x4
 3062 0117 08       		.byte	0x8
 3063 0118 07       		.byte	0x7
 3064 0119 3A050000 		.4byte	.LASF23
 3065 011d 03       		.uleb128 0x3
 3066 011e C4020000 		.4byte	.LASF24
 3067 0122 05       		.byte	0x5
 3068 0123 07       		.byte	0x7
 3069 0124 25000000 		.4byte	0x25
 3070 0128 03       		.uleb128 0x3
 3071 0129 4E130000 		.4byte	.LASF25
 3072 012d 06       		.byte	0x6
 3073 012e 10       		.byte	0x10
 3074 012f F6000000 		.4byte	0xf6
 3075 0133 03       		.uleb128 0x3
 3076 0134 B0030000 		.4byte	.LASF26
 3077 0138 06       		.byte	0x6
 3078 0139 27       		.byte	0x27
 3079 013a F6000000 		.4byte	0xf6
 3080 013e 0D       		.uleb128 0xd
ARM GAS  C:\Users\jo\AppData\Local\Temp\ccRMLSMa.s 			page 56


 3081 013f B40F0000 		.4byte	.LASF27
 3082 0143 02       		.byte	0x2
 3083 0144 6101     		.2byte	0x161
 3084 0146 37000000 		.4byte	0x37
 3085 014a 0E       		.uleb128 0xe
 3086 014b 04       		.byte	0x4
 3087 014c 06       		.byte	0x6
 3088 014d 4A       		.byte	0x4a
 3089 014e 69010000 		.4byte	0x169
 3090 0152 0F       		.uleb128 0xf
 3091 0153 70090000 		.4byte	.LASF28
 3092 0157 06       		.byte	0x6
 3093 0158 4C       		.byte	0x4c
 3094 0159 3E010000 		.4byte	0x13e
 3095 015d 0F       		.uleb128 0xf
 3096 015e BD0D0000 		.4byte	.LASF29
 3097 0162 06       		.byte	0x6
 3098 0163 4D       		.byte	0x4d
 3099 0164 69010000 		.4byte	0x169
 3100 0168 00       		.byte	0
 3101 0169 10       		.uleb128 0x10
 3102 016a BE000000 		.4byte	0xbe
 3103 016e 79010000 		.4byte	0x179
 3104 0172 11       		.uleb128 0x11
 3105 0173 79010000 		.4byte	0x179
 3106 0177 03       		.byte	0x3
 3107 0178 00       		.byte	0
 3108 0179 04       		.uleb128 0x4
 3109 017a 04       		.byte	0x4
 3110 017b 07       		.byte	0x7
 3111 017c 700F0000 		.4byte	.LASF30
 3112 0180 12       		.uleb128 0x12
 3113 0181 08       		.byte	0x8
 3114 0182 06       		.byte	0x6
 3115 0183 47       		.byte	0x47
 3116 0184 A1010000 		.4byte	0x1a1
 3117 0188 13       		.uleb128 0x13
 3118 0189 93040000 		.4byte	.LASF31
 3119 018d 06       		.byte	0x6
 3120 018e 49       		.byte	0x49
 3121 018f 25000000 		.4byte	0x25
 3122 0193 00       		.byte	0
 3123 0194 13       		.uleb128 0x13
 3124 0195 04080000 		.4byte	.LASF32
 3125 0199 06       		.byte	0x6
 3126 019a 4E       		.byte	0x4e
 3127 019b 4A010000 		.4byte	0x14a
 3128 019f 04       		.byte	0x4
 3129 01a0 00       		.byte	0
 3130 01a1 03       		.uleb128 0x3
 3131 01a2 F90A0000 		.4byte	.LASF33
 3132 01a6 06       		.byte	0x6
 3133 01a7 4F       		.byte	0x4f
 3134 01a8 80010000 		.4byte	0x180
 3135 01ac 03       		.uleb128 0x3
 3136 01ad 53090000 		.4byte	.LASF34
 3137 01b1 06       		.byte	0x6
ARM GAS  C:\Users\jo\AppData\Local\Temp\ccRMLSMa.s 			page 57


 3138 01b2 53       		.byte	0x53
 3139 01b3 1D010000 		.4byte	0x11d
 3140 01b7 03       		.uleb128 0x3
 3141 01b8 4E0A0000 		.4byte	.LASF35
 3142 01bc 07       		.byte	0x7
 3143 01bd 16       		.byte	0x16
 3144 01be 08010000 		.4byte	0x108
 3145 01c2 14       		.uleb128 0x14
 3146 01c3 FE030000 		.4byte	.LASF40
 3147 01c7 18       		.byte	0x18
 3148 01c8 07       		.byte	0x7
 3149 01c9 2D       		.byte	0x2d
 3150 01ca 15020000 		.4byte	0x215
 3151 01ce 13       		.uleb128 0x13
 3152 01cf AA070000 		.4byte	.LASF36
 3153 01d3 07       		.byte	0x7
 3154 01d4 2F       		.byte	0x2f
 3155 01d5 15020000 		.4byte	0x215
 3156 01d9 00       		.byte	0
 3157 01da 15       		.uleb128 0x15
 3158 01db 5F6B00   		.ascii	"_k\000"
 3159 01de 07       		.byte	0x7
 3160 01df 30       		.byte	0x30
 3161 01e0 25000000 		.4byte	0x25
 3162 01e4 04       		.byte	0x4
 3163 01e5 13       		.uleb128 0x13
 3164 01e6 8C0E0000 		.4byte	.LASF37
 3165 01ea 07       		.byte	0x7
 3166 01eb 30       		.byte	0x30
 3167 01ec 25000000 		.4byte	0x25
 3168 01f0 08       		.byte	0x8
 3169 01f1 13       		.uleb128 0x13
 3170 01f2 650D0000 		.4byte	.LASF38
 3171 01f6 07       		.byte	0x7
 3172 01f7 30       		.byte	0x30
 3173 01f8 25000000 		.4byte	0x25
 3174 01fc 0C       		.byte	0xc
 3175 01fd 13       		.uleb128 0x13
 3176 01fe 86050000 		.4byte	.LASF39
 3177 0202 07       		.byte	0x7
 3178 0203 30       		.byte	0x30
 3179 0204 25000000 		.4byte	0x25
 3180 0208 10       		.byte	0x10
 3181 0209 15       		.uleb128 0x15
 3182 020a 5F7800   		.ascii	"_x\000"
 3183 020d 07       		.byte	0x7
 3184 020e 31       		.byte	0x31
 3185 020f 1B020000 		.4byte	0x21b
 3186 0213 14       		.byte	0x14
 3187 0214 00       		.byte	0
 3188 0215 07       		.uleb128 0x7
 3189 0216 04       		.byte	0x4
 3190 0217 C2010000 		.4byte	0x1c2
 3191 021b 10       		.uleb128 0x10
 3192 021c B7010000 		.4byte	0x1b7
 3193 0220 2B020000 		.4byte	0x22b
 3194 0224 11       		.uleb128 0x11
ARM GAS  C:\Users\jo\AppData\Local\Temp\ccRMLSMa.s 			page 58


 3195 0225 79010000 		.4byte	0x179
 3196 0229 00       		.byte	0
 3197 022a 00       		.byte	0
 3198 022b 14       		.uleb128 0x14
 3199 022c 1C0F0000 		.4byte	.LASF41
 3200 0230 24       		.byte	0x24
 3201 0231 07       		.byte	0x7
 3202 0232 35       		.byte	0x35
 3203 0233 A4020000 		.4byte	0x2a4
 3204 0237 13       		.uleb128 0x13
 3205 0238 14070000 		.4byte	.LASF42
 3206 023c 07       		.byte	0x7
 3207 023d 37       		.byte	0x37
 3208 023e 25000000 		.4byte	0x25
 3209 0242 00       		.byte	0
 3210 0243 13       		.uleb128 0x13
 3211 0244 B7040000 		.4byte	.LASF43
 3212 0248 07       		.byte	0x7
 3213 0249 38       		.byte	0x38
 3214 024a 25000000 		.4byte	0x25
 3215 024e 04       		.byte	0x4
 3216 024f 13       		.uleb128 0x13
 3217 0250 54040000 		.4byte	.LASF44
 3218 0254 07       		.byte	0x7
 3219 0255 39       		.byte	0x39
 3220 0256 25000000 		.4byte	0x25
 3221 025a 08       		.byte	0x8
 3222 025b 13       		.uleb128 0x13
 3223 025c A2080000 		.4byte	.LASF45
 3224 0260 07       		.byte	0x7
 3225 0261 3A       		.byte	0x3a
 3226 0262 25000000 		.4byte	0x25
 3227 0266 0C       		.byte	0xc
 3228 0267 13       		.uleb128 0x13
 3229 0268 030C0000 		.4byte	.LASF46
 3230 026c 07       		.byte	0x7
 3231 026d 3B       		.byte	0x3b
 3232 026e 25000000 		.4byte	0x25
 3233 0272 10       		.byte	0x10
 3234 0273 13       		.uleb128 0x13
 3235 0274 0D0E0000 		.4byte	.LASF47
 3236 0278 07       		.byte	0x7
 3237 0279 3C       		.byte	0x3c
 3238 027a 25000000 		.4byte	0x25
 3239 027e 14       		.byte	0x14
 3240 027f 13       		.uleb128 0x13
 3241 0280 06040000 		.4byte	.LASF48
 3242 0284 07       		.byte	0x7
 3243 0285 3D       		.byte	0x3d
 3244 0286 25000000 		.4byte	0x25
 3245 028a 18       		.byte	0x18
 3246 028b 13       		.uleb128 0x13
 3247 028c 3C070000 		.4byte	.LASF49
 3248 0290 07       		.byte	0x7
 3249 0291 3E       		.byte	0x3e
 3250 0292 25000000 		.4byte	0x25
 3251 0296 1C       		.byte	0x1c
ARM GAS  C:\Users\jo\AppData\Local\Temp\ccRMLSMa.s 			page 59


 3252 0297 13       		.uleb128 0x13
 3253 0298 2B0B0000 		.4byte	.LASF50
 3254 029c 07       		.byte	0x7
 3255 029d 3F       		.byte	0x3f
 3256 029e 25000000 		.4byte	0x25
 3257 02a2 20       		.byte	0x20
 3258 02a3 00       		.byte	0
 3259 02a4 16       		.uleb128 0x16
 3260 02a5 A9000000 		.4byte	.LASF51
 3261 02a9 0801     		.2byte	0x108
 3262 02ab 07       		.byte	0x7
 3263 02ac 48       		.byte	0x48
 3264 02ad E4020000 		.4byte	0x2e4
 3265 02b1 13       		.uleb128 0x13
 3266 02b2 23120000 		.4byte	.LASF52
 3267 02b6 07       		.byte	0x7
 3268 02b7 49       		.byte	0x49
 3269 02b8 E4020000 		.4byte	0x2e4
 3270 02bc 00       		.byte	0
 3271 02bd 13       		.uleb128 0x13
 3272 02be 2F100000 		.4byte	.LASF53
 3273 02c2 07       		.byte	0x7
 3274 02c3 4A       		.byte	0x4a
 3275 02c4 E4020000 		.4byte	0x2e4
 3276 02c8 80       		.byte	0x80
 3277 02c9 17       		.uleb128 0x17
 3278 02ca F7120000 		.4byte	.LASF54
 3279 02ce 07       		.byte	0x7
 3280 02cf 4C       		.byte	0x4c
 3281 02d0 B7010000 		.4byte	0x1b7
 3282 02d4 0001     		.2byte	0x100
 3283 02d6 17       		.uleb128 0x17
 3284 02d7 CA130000 		.4byte	.LASF55
 3285 02db 07       		.byte	0x7
 3286 02dc 4F       		.byte	0x4f
 3287 02dd B7010000 		.4byte	0x1b7
 3288 02e1 0401     		.2byte	0x104
 3289 02e3 00       		.byte	0
 3290 02e4 10       		.uleb128 0x10
 3291 02e5 AB000000 		.4byte	0xab
 3292 02e9 F4020000 		.4byte	0x2f4
 3293 02ed 11       		.uleb128 0x11
 3294 02ee 79010000 		.4byte	0x179
 3295 02f2 1F       		.byte	0x1f
 3296 02f3 00       		.byte	0
 3297 02f4 16       		.uleb128 0x16
 3298 02f5 C20C0000 		.4byte	.LASF56
 3299 02f9 9001     		.2byte	0x190
 3300 02fb 07       		.byte	0x7
 3301 02fc 5B       		.byte	0x5b
 3302 02fd 32030000 		.4byte	0x332
 3303 0301 13       		.uleb128 0x13
 3304 0302 AA070000 		.4byte	.LASF36
 3305 0306 07       		.byte	0x7
 3306 0307 5C       		.byte	0x5c
 3307 0308 32030000 		.4byte	0x332
 3308 030c 00       		.byte	0
ARM GAS  C:\Users\jo\AppData\Local\Temp\ccRMLSMa.s 			page 60


 3309 030d 13       		.uleb128 0x13
 3310 030e 65070000 		.4byte	.LASF57
 3311 0312 07       		.byte	0x7
 3312 0313 5D       		.byte	0x5d
 3313 0314 25000000 		.4byte	0x25
 3314 0318 04       		.byte	0x4
 3315 0319 13       		.uleb128 0x13
 3316 031a B8030000 		.4byte	.LASF58
 3317 031e 07       		.byte	0x7
 3318 031f 5F       		.byte	0x5f
 3319 0320 38030000 		.4byte	0x338
 3320 0324 08       		.byte	0x8
 3321 0325 13       		.uleb128 0x13
 3322 0326 A9000000 		.4byte	.LASF51
 3323 032a 07       		.byte	0x7
 3324 032b 60       		.byte	0x60
 3325 032c A4020000 		.4byte	0x2a4
 3326 0330 88       		.byte	0x88
 3327 0331 00       		.byte	0
 3328 0332 07       		.uleb128 0x7
 3329 0333 04       		.byte	0x4
 3330 0334 F4020000 		.4byte	0x2f4
 3331 0338 10       		.uleb128 0x10
 3332 0339 48030000 		.4byte	0x348
 3333 033d 48030000 		.4byte	0x348
 3334 0341 11       		.uleb128 0x11
 3335 0342 79010000 		.4byte	0x179
 3336 0346 1F       		.byte	0x1f
 3337 0347 00       		.byte	0
 3338 0348 07       		.uleb128 0x7
 3339 0349 04       		.byte	0x4
 3340 034a 4E030000 		.4byte	0x34e
 3341 034e 18       		.uleb128 0x18
 3342 034f 14       		.uleb128 0x14
 3343 0350 9C110000 		.4byte	.LASF59
 3344 0354 08       		.byte	0x8
 3345 0355 07       		.byte	0x7
 3346 0356 73       		.byte	0x73
 3347 0357 74030000 		.4byte	0x374
 3348 035b 13       		.uleb128 0x13
 3349 035c 0F0A0000 		.4byte	.LASF60
 3350 0360 07       		.byte	0x7
 3351 0361 74       		.byte	0x74
 3352 0362 C5000000 		.4byte	0xc5
 3353 0366 00       		.byte	0
 3354 0367 13       		.uleb128 0x13
 3355 0368 00130000 		.4byte	.LASF61
 3356 036c 07       		.byte	0x7
 3357 036d 75       		.byte	0x75
 3358 036e 25000000 		.4byte	0x25
 3359 0372 04       		.byte	0x4
 3360 0373 00       		.byte	0
 3361 0374 14       		.uleb128 0x14
 3362 0375 7E050000 		.4byte	.LASF62
 3363 0379 68       		.byte	0x68
 3364 037a 07       		.byte	0x7
 3365 037b B3       		.byte	0xb3
ARM GAS  C:\Users\jo\AppData\Local\Temp\ccRMLSMa.s 			page 61


 3366 037c 9E040000 		.4byte	0x49e
 3367 0380 15       		.uleb128 0x15
 3368 0381 5F7000   		.ascii	"_p\000"
 3369 0384 07       		.byte	0x7
 3370 0385 B4       		.byte	0xb4
 3371 0386 C5000000 		.4byte	0xc5
 3372 038a 00       		.byte	0
 3373 038b 15       		.uleb128 0x15
 3374 038c 5F7200   		.ascii	"_r\000"
 3375 038f 07       		.byte	0x7
 3376 0390 B5       		.byte	0xb5
 3377 0391 25000000 		.4byte	0x25
 3378 0395 04       		.byte	0x4
 3379 0396 15       		.uleb128 0x15
 3380 0397 5F7700   		.ascii	"_w\000"
 3381 039a 07       		.byte	0x7
 3382 039b B6       		.byte	0xb6
 3383 039c 25000000 		.4byte	0x25
 3384 03a0 08       		.byte	0x8
 3385 03a1 13       		.uleb128 0x13
 3386 03a2 5C020000 		.4byte	.LASF63
 3387 03a6 07       		.byte	0x7
 3388 03a7 B7       		.byte	0xb7
 3389 03a8 DD000000 		.4byte	0xdd
 3390 03ac 0C       		.byte	0xc
 3391 03ad 13       		.uleb128 0x13
 3392 03ae 760A0000 		.4byte	.LASF64
 3393 03b2 07       		.byte	0x7
 3394 03b3 B8       		.byte	0xb8
 3395 03b4 DD000000 		.4byte	0xdd
 3396 03b8 0E       		.byte	0xe
 3397 03b9 15       		.uleb128 0x15
 3398 03ba 5F626600 		.ascii	"_bf\000"
 3399 03be 07       		.byte	0x7
 3400 03bf B9       		.byte	0xb9
 3401 03c0 4F030000 		.4byte	0x34f
 3402 03c4 10       		.byte	0x10
 3403 03c5 13       		.uleb128 0x13
 3404 03c6 53020000 		.4byte	.LASF65
 3405 03ca 07       		.byte	0x7
 3406 03cb BA       		.byte	0xba
 3407 03cc 25000000 		.4byte	0x25
 3408 03d0 18       		.byte	0x18
 3409 03d1 13       		.uleb128 0x13
 3410 03d2 E0030000 		.4byte	.LASF66
 3411 03d6 07       		.byte	0x7
 3412 03d7 C1       		.byte	0xc1
 3413 03d8 AB000000 		.4byte	0xab
 3414 03dc 1C       		.byte	0x1c
 3415 03dd 13       		.uleb128 0x13
 3416 03de E9020000 		.4byte	.LASF67
 3417 03e2 07       		.byte	0x7
 3418 03e3 C3       		.byte	0xc3
 3419 03e4 FA050000 		.4byte	0x5fa
 3420 03e8 20       		.byte	0x20
 3421 03e9 13       		.uleb128 0x13
 3422 03ea 5C0C0000 		.4byte	.LASF68
ARM GAS  C:\Users\jo\AppData\Local\Temp\ccRMLSMa.s 			page 62


 3423 03ee 07       		.byte	0x7
 3424 03ef C5       		.byte	0xc5
 3425 03f0 1E060000 		.4byte	0x61e
 3426 03f4 24       		.byte	0x24
 3427 03f5 13       		.uleb128 0x13
 3428 03f6 2E140000 		.4byte	.LASF69
 3429 03fa 07       		.byte	0x7
 3430 03fb C8       		.byte	0xc8
 3431 03fc 42060000 		.4byte	0x642
 3432 0400 28       		.byte	0x28
 3433 0401 13       		.uleb128 0x13
 3434 0402 97090000 		.4byte	.LASF70
 3435 0406 07       		.byte	0x7
 3436 0407 C9       		.byte	0xc9
 3437 0408 5C060000 		.4byte	0x65c
 3438 040c 2C       		.byte	0x2c
 3439 040d 15       		.uleb128 0x15
 3440 040e 5F756200 		.ascii	"_ub\000"
 3441 0412 07       		.byte	0x7
 3442 0413 CC       		.byte	0xcc
 3443 0414 4F030000 		.4byte	0x34f
 3444 0418 30       		.byte	0x30
 3445 0419 15       		.uleb128 0x15
 3446 041a 5F757000 		.ascii	"_up\000"
 3447 041e 07       		.byte	0x7
 3448 041f CD       		.byte	0xcd
 3449 0420 C5000000 		.4byte	0xc5
 3450 0424 38       		.byte	0x38
 3451 0425 15       		.uleb128 0x15
 3452 0426 5F757200 		.ascii	"_ur\000"
 3453 042a 07       		.byte	0x7
 3454 042b CE       		.byte	0xce
 3455 042c 25000000 		.4byte	0x25
 3456 0430 3C       		.byte	0x3c
 3457 0431 13       		.uleb128 0x13
 3458 0432 7A140000 		.4byte	.LASF71
 3459 0436 07       		.byte	0x7
 3460 0437 D1       		.byte	0xd1
 3461 0438 62060000 		.4byte	0x662
 3462 043c 40       		.byte	0x40
 3463 043d 13       		.uleb128 0x13
 3464 043e 55130000 		.4byte	.LASF72
 3465 0442 07       		.byte	0x7
 3466 0443 D2       		.byte	0xd2
 3467 0444 72060000 		.4byte	0x672
 3468 0448 43       		.byte	0x43
 3469 0449 15       		.uleb128 0x15
 3470 044a 5F6C6200 		.ascii	"_lb\000"
 3471 044e 07       		.byte	0x7
 3472 044f D5       		.byte	0xd5
 3473 0450 4F030000 		.4byte	0x34f
 3474 0454 44       		.byte	0x44
 3475 0455 13       		.uleb128 0x13
 3476 0456 130F0000 		.4byte	.LASF73
 3477 045a 07       		.byte	0x7
 3478 045b D8       		.byte	0xd8
 3479 045c 25000000 		.4byte	0x25
ARM GAS  C:\Users\jo\AppData\Local\Temp\ccRMLSMa.s 			page 63


 3480 0460 4C       		.byte	0x4c
 3481 0461 13       		.uleb128 0x13
 3482 0462 13060000 		.4byte	.LASF74
 3483 0466 07       		.byte	0x7
 3484 0467 D9       		.byte	0xd9
 3485 0468 28010000 		.4byte	0x128
 3486 046c 50       		.byte	0x50
 3487 046d 13       		.uleb128 0x13
 3488 046e B70D0000 		.4byte	.LASF75
 3489 0472 07       		.byte	0x7
 3490 0473 DC       		.byte	0xdc
 3491 0474 BC040000 		.4byte	0x4bc
 3492 0478 54       		.byte	0x54
 3493 0479 13       		.uleb128 0x13
 3494 047a 2D0F0000 		.4byte	.LASF76
 3495 047e 07       		.byte	0x7
 3496 047f E0       		.byte	0xe0
 3497 0480 AC010000 		.4byte	0x1ac
 3498 0484 58       		.byte	0x58
 3499 0485 13       		.uleb128 0x13
 3500 0486 CA0C0000 		.4byte	.LASF77
 3501 048a 07       		.byte	0x7
 3502 048b E2       		.byte	0xe2
 3503 048c A1010000 		.4byte	0x1a1
 3504 0490 5C       		.byte	0x5c
 3505 0491 13       		.uleb128 0x13
 3506 0492 B1130000 		.4byte	.LASF78
 3507 0496 07       		.byte	0x7
 3508 0497 E3       		.byte	0xe3
 3509 0498 25000000 		.4byte	0x25
 3510 049c 64       		.byte	0x64
 3511 049d 00       		.byte	0
 3512 049e 19       		.uleb128 0x19
 3513 049f 25000000 		.4byte	0x25
 3514 04a3 BC040000 		.4byte	0x4bc
 3515 04a7 0A       		.uleb128 0xa
 3516 04a8 BC040000 		.4byte	0x4bc
 3517 04ac 0A       		.uleb128 0xa
 3518 04ad AB000000 		.4byte	0xab
 3519 04b1 0A       		.uleb128 0xa
 3520 04b2 F4050000 		.4byte	0x5f4
 3521 04b6 0A       		.uleb128 0xa
 3522 04b7 25000000 		.4byte	0x25
 3523 04bb 00       		.byte	0
 3524 04bc 07       		.uleb128 0x7
 3525 04bd 04       		.byte	0x4
 3526 04be C2040000 		.4byte	0x4c2
 3527 04c2 1A       		.uleb128 0x1a
 3528 04c3 37120000 		.4byte	.LASF79
 3529 04c7 2804     		.2byte	0x428
 3530 04c9 07       		.byte	0x7
 3531 04ca 3902     		.2byte	0x239
 3532 04cc F4050000 		.4byte	0x5f4
 3533 04d0 1B       		.uleb128 0x1b
 3534 04d1 6D020000 		.4byte	.LASF80
 3535 04d5 07       		.byte	0x7
 3536 04d6 3B02     		.2byte	0x23b
ARM GAS  C:\Users\jo\AppData\Local\Temp\ccRMLSMa.s 			page 64


 3537 04d8 25000000 		.4byte	0x25
 3538 04dc 00       		.byte	0
 3539 04dd 1B       		.uleb128 0x1b
 3540 04de C8090000 		.4byte	.LASF81
 3541 04e2 07       		.byte	0x7
 3542 04e3 4002     		.2byte	0x240
 3543 04e5 C9060000 		.4byte	0x6c9
 3544 04e9 04       		.byte	0x4
 3545 04ea 1B       		.uleb128 0x1b
 3546 04eb 70030000 		.4byte	.LASF82
 3547 04ef 07       		.byte	0x7
 3548 04f0 4002     		.2byte	0x240
 3549 04f2 C9060000 		.4byte	0x6c9
 3550 04f6 08       		.byte	0x8
 3551 04f7 1B       		.uleb128 0x1b
 3552 04f8 69140000 		.4byte	.LASF83
 3553 04fc 07       		.byte	0x7
 3554 04fd 4002     		.2byte	0x240
 3555 04ff C9060000 		.4byte	0x6c9
 3556 0503 0C       		.byte	0xc
 3557 0504 1B       		.uleb128 0x1b
 3558 0505 60070000 		.4byte	.LASF84
 3559 0509 07       		.byte	0x7
 3560 050a 4202     		.2byte	0x242
 3561 050c 25000000 		.4byte	0x25
 3562 0510 10       		.byte	0x10
 3563 0511 1B       		.uleb128 0x1b
 3564 0512 62060000 		.4byte	.LASF85
 3565 0516 07       		.byte	0x7
 3566 0517 4302     		.2byte	0x243
 3567 0519 AB080000 		.4byte	0x8ab
 3568 051d 14       		.byte	0x14
 3569 051e 1B       		.uleb128 0x1b
 3570 051f 9E0E0000 		.4byte	.LASF86
 3571 0523 07       		.byte	0x7
 3572 0524 4502     		.2byte	0x245
 3573 0526 25000000 		.4byte	0x25
 3574 052a 30       		.byte	0x30
 3575 052b 1B       		.uleb128 0x1b
 3576 052c 6B0D0000 		.4byte	.LASF87
 3577 0530 07       		.byte	0x7
 3578 0531 4602     		.2byte	0x246
 3579 0533 8E000000 		.4byte	0x8e
 3580 0537 34       		.byte	0x34
 3581 0538 1B       		.uleb128 0x1b
 3582 0539 9E090000 		.4byte	.LASF88
 3583 053d 07       		.byte	0x7
 3584 053e 4802     		.2byte	0x248
 3585 0540 25000000 		.4byte	0x25
 3586 0544 38       		.byte	0x38
 3587 0545 1B       		.uleb128 0x1b
 3588 0546 C00A0000 		.4byte	.LASF89
 3589 054a 07       		.byte	0x7
 3590 054b 4A02     		.2byte	0x24a
 3591 054d C6080000 		.4byte	0x8c6
 3592 0551 3C       		.byte	0x3c
 3593 0552 1B       		.uleb128 0x1b
ARM GAS  C:\Users\jo\AppData\Local\Temp\ccRMLSMa.s 			page 65


 3594 0553 18040000 		.4byte	.LASF90
 3595 0557 07       		.byte	0x7
 3596 0558 4D02     		.2byte	0x24d
 3597 055a 15020000 		.4byte	0x215
 3598 055e 40       		.byte	0x40
 3599 055f 1B       		.uleb128 0x1b
 3600 0560 30050000 		.4byte	.LASF91
 3601 0564 07       		.byte	0x7
 3602 0565 4E02     		.2byte	0x24e
 3603 0567 25000000 		.4byte	0x25
 3604 056b 44       		.byte	0x44
 3605 056c 1B       		.uleb128 0x1b
 3606 056d 0C080000 		.4byte	.LASF92
 3607 0571 07       		.byte	0x7
 3608 0572 4F02     		.2byte	0x24f
 3609 0574 15020000 		.4byte	0x215
 3610 0578 48       		.byte	0x48
 3611 0579 1B       		.uleb128 0x1b
 3612 057a 360A0000 		.4byte	.LASF93
 3613 057e 07       		.byte	0x7
 3614 057f 5002     		.2byte	0x250
 3615 0581 CC080000 		.4byte	0x8cc
 3616 0585 4C       		.byte	0x4c
 3617 0586 1B       		.uleb128 0x1b
 3618 0587 840E0000 		.4byte	.LASF94
 3619 058b 07       		.byte	0x7
 3620 058c 5302     		.2byte	0x253
 3621 058e 25000000 		.4byte	0x25
 3622 0592 50       		.byte	0x50
 3623 0593 1B       		.uleb128 0x1b
 3624 0594 6A100000 		.4byte	.LASF95
 3625 0598 07       		.byte	0x7
 3626 0599 5402     		.2byte	0x254
 3627 059b F4050000 		.4byte	0x5f4
 3628 059f 54       		.byte	0x54
 3629 05a0 1B       		.uleb128 0x1b
 3630 05a1 7F0E0000 		.4byte	.LASF96
 3631 05a5 07       		.byte	0x7
 3632 05a6 7702     		.2byte	0x277
 3633 05a8 89080000 		.4byte	0x889
 3634 05ac 58       		.byte	0x58
 3635 05ad 1C       		.uleb128 0x1c
 3636 05ae C20C0000 		.4byte	.LASF56
 3637 05b2 07       		.byte	0x7
 3638 05b3 7B02     		.2byte	0x27b
 3639 05b5 32030000 		.4byte	0x332
 3640 05b9 4801     		.2byte	0x148
 3641 05bb 1C       		.uleb128 0x1c
 3642 05bc C5080000 		.4byte	.LASF97
 3643 05c0 07       		.byte	0x7
 3644 05c1 7C02     		.2byte	0x27c
 3645 05c3 F4020000 		.4byte	0x2f4
 3646 05c7 4C01     		.2byte	0x14c
 3647 05c9 1C       		.uleb128 0x1c
 3648 05ca AC080000 		.4byte	.LASF98
 3649 05ce 07       		.byte	0x7
 3650 05cf 8002     		.2byte	0x280
ARM GAS  C:\Users\jo\AppData\Local\Temp\ccRMLSMa.s 			page 66


 3651 05d1 DD080000 		.4byte	0x8dd
 3652 05d5 DC02     		.2byte	0x2dc
 3653 05d7 1C       		.uleb128 0x1c
 3654 05d8 D5110000 		.4byte	.LASF99
 3655 05dc 07       		.byte	0x7
 3656 05dd 8502     		.2byte	0x285
 3657 05df 8E060000 		.4byte	0x68e
 3658 05e3 E002     		.2byte	0x2e0
 3659 05e5 1C       		.uleb128 0x1c
 3660 05e6 600D0000 		.4byte	.LASF100
 3661 05ea 07       		.byte	0x7
 3662 05eb 8602     		.2byte	0x286
 3663 05ed E9080000 		.4byte	0x8e9
 3664 05f1 EC02     		.2byte	0x2ec
 3665 05f3 00       		.byte	0
 3666 05f4 07       		.uleb128 0x7
 3667 05f5 04       		.byte	0x4
 3668 05f6 99000000 		.4byte	0x99
 3669 05fa 07       		.uleb128 0x7
 3670 05fb 04       		.byte	0x4
 3671 05fc 9E040000 		.4byte	0x49e
 3672 0600 19       		.uleb128 0x19
 3673 0601 25000000 		.4byte	0x25
 3674 0605 1E060000 		.4byte	0x61e
 3675 0609 0A       		.uleb128 0xa
 3676 060a BC040000 		.4byte	0x4bc
 3677 060e 0A       		.uleb128 0xa
 3678 060f AB000000 		.4byte	0xab
 3679 0613 0A       		.uleb128 0xa
 3680 0614 8E000000 		.4byte	0x8e
 3681 0618 0A       		.uleb128 0xa
 3682 0619 25000000 		.4byte	0x25
 3683 061d 00       		.byte	0
 3684 061e 07       		.uleb128 0x7
 3685 061f 04       		.byte	0x4
 3686 0620 00060000 		.4byte	0x600
 3687 0624 19       		.uleb128 0x19
 3688 0625 33010000 		.4byte	0x133
 3689 0629 42060000 		.4byte	0x642
 3690 062d 0A       		.uleb128 0xa
 3691 062e BC040000 		.4byte	0x4bc
 3692 0632 0A       		.uleb128 0xa
 3693 0633 AB000000 		.4byte	0xab
 3694 0637 0A       		.uleb128 0xa
 3695 0638 33010000 		.4byte	0x133
 3696 063c 0A       		.uleb128 0xa
 3697 063d 25000000 		.4byte	0x25
 3698 0641 00       		.byte	0
 3699 0642 07       		.uleb128 0x7
 3700 0643 04       		.byte	0x4
 3701 0644 24060000 		.4byte	0x624
 3702 0648 19       		.uleb128 0x19
 3703 0649 25000000 		.4byte	0x25
 3704 064d 5C060000 		.4byte	0x65c
 3705 0651 0A       		.uleb128 0xa
 3706 0652 BC040000 		.4byte	0x4bc
 3707 0656 0A       		.uleb128 0xa
ARM GAS  C:\Users\jo\AppData\Local\Temp\ccRMLSMa.s 			page 67


 3708 0657 AB000000 		.4byte	0xab
 3709 065b 00       		.byte	0
 3710 065c 07       		.uleb128 0x7
 3711 065d 04       		.byte	0x4
 3712 065e 48060000 		.4byte	0x648
 3713 0662 10       		.uleb128 0x10
 3714 0663 BE000000 		.4byte	0xbe
 3715 0667 72060000 		.4byte	0x672
 3716 066b 11       		.uleb128 0x11
 3717 066c 79010000 		.4byte	0x179
 3718 0670 02       		.byte	0x2
 3719 0671 00       		.byte	0
 3720 0672 10       		.uleb128 0x10
 3721 0673 BE000000 		.4byte	0xbe
 3722 0677 82060000 		.4byte	0x682
 3723 067b 11       		.uleb128 0x11
 3724 067c 79010000 		.4byte	0x179
 3725 0680 00       		.byte	0
 3726 0681 00       		.byte	0
 3727 0682 0D       		.uleb128 0xd
 3728 0683 FD050000 		.4byte	.LASF101
 3729 0687 07       		.byte	0x7
 3730 0688 1D01     		.2byte	0x11d
 3731 068a 74030000 		.4byte	0x374
 3732 068e 1D       		.uleb128 0x1d
 3733 068f C8110000 		.4byte	.LASF102
 3734 0693 0C       		.byte	0xc
 3735 0694 07       		.byte	0x7
 3736 0695 2101     		.2byte	0x121
 3737 0697 C3060000 		.4byte	0x6c3
 3738 069b 1B       		.uleb128 0x1b
 3739 069c AA070000 		.4byte	.LASF36
 3740 06a0 07       		.byte	0x7
 3741 06a1 2301     		.2byte	0x123
 3742 06a3 C3060000 		.4byte	0x6c3
 3743 06a7 00       		.byte	0
 3744 06a8 1B       		.uleb128 0x1b
 3745 06a9 AD0F0000 		.4byte	.LASF103
 3746 06ad 07       		.byte	0x7
 3747 06ae 2401     		.2byte	0x124
 3748 06b0 25000000 		.4byte	0x25
 3749 06b4 04       		.byte	0x4
 3750 06b5 1B       		.uleb128 0x1b
 3751 06b6 76090000 		.4byte	.LASF104
 3752 06ba 07       		.byte	0x7
 3753 06bb 2501     		.2byte	0x125
 3754 06bd C9060000 		.4byte	0x6c9
 3755 06c1 08       		.byte	0x8
 3756 06c2 00       		.byte	0
 3757 06c3 07       		.uleb128 0x7
 3758 06c4 04       		.byte	0x4
 3759 06c5 8E060000 		.4byte	0x68e
 3760 06c9 07       		.uleb128 0x7
 3761 06ca 04       		.byte	0x4
 3762 06cb 82060000 		.4byte	0x682
 3763 06cf 1D       		.uleb128 0x1d
 3764 06d0 EA040000 		.4byte	.LASF105
ARM GAS  C:\Users\jo\AppData\Local\Temp\ccRMLSMa.s 			page 68


 3765 06d4 0E       		.byte	0xe
 3766 06d5 07       		.byte	0x7
 3767 06d6 3D01     		.2byte	0x13d
 3768 06d8 04070000 		.4byte	0x704
 3769 06dc 1B       		.uleb128 0x1b
 3770 06dd E4130000 		.4byte	.LASF106
 3771 06e1 07       		.byte	0x7
 3772 06e2 3E01     		.2byte	0x13e
 3773 06e4 04070000 		.4byte	0x704
 3774 06e8 00       		.byte	0
 3775 06e9 1B       		.uleb128 0x1b
 3776 06ea 480A0000 		.4byte	.LASF107
 3777 06ee 07       		.byte	0x7
 3778 06ef 3F01     		.2byte	0x13f
 3779 06f1 04070000 		.4byte	0x704
 3780 06f5 06       		.byte	0x6
 3781 06f6 1B       		.uleb128 0x1b
 3782 06f7 7D040000 		.4byte	.LASF108
 3783 06fb 07       		.byte	0x7
 3784 06fc 4001     		.2byte	0x140
 3785 06fe E4000000 		.4byte	0xe4
 3786 0702 0C       		.byte	0xc
 3787 0703 00       		.byte	0
 3788 0704 10       		.uleb128 0x10
 3789 0705 E4000000 		.4byte	0xe4
 3790 0709 14070000 		.4byte	0x714
 3791 070d 11       		.uleb128 0x11
 3792 070e 79010000 		.4byte	0x179
 3793 0712 02       		.byte	0x2
 3794 0713 00       		.byte	0
 3795 0714 1E       		.uleb128 0x1e
 3796 0715 D0       		.byte	0xd0
 3797 0716 07       		.byte	0x7
 3798 0717 5802     		.2byte	0x258
 3799 0719 15080000 		.4byte	0x815
 3800 071d 1B       		.uleb128 0x1b
 3801 071e 5B130000 		.4byte	.LASF109
 3802 0722 07       		.byte	0x7
 3803 0723 5A02     		.2byte	0x25a
 3804 0725 37000000 		.4byte	0x37
 3805 0729 00       		.byte	0
 3806 072a 1B       		.uleb128 0x1b
 3807 072b F4110000 		.4byte	.LASF110
 3808 072f 07       		.byte	0x7
 3809 0730 5B02     		.2byte	0x25b
 3810 0732 F4050000 		.4byte	0x5f4
 3811 0736 04       		.byte	0x4
 3812 0737 1B       		.uleb128 0x1b
 3813 0738 5B050000 		.4byte	.LASF111
 3814 073c 07       		.byte	0x7
 3815 073d 5C02     		.2byte	0x25c
 3816 073f 15080000 		.4byte	0x815
 3817 0743 08       		.byte	0x8
 3818 0744 1B       		.uleb128 0x1b
 3819 0745 630E0000 		.4byte	.LASF112
 3820 0749 07       		.byte	0x7
 3821 074a 5D02     		.2byte	0x25d
ARM GAS  C:\Users\jo\AppData\Local\Temp\ccRMLSMa.s 			page 69


 3822 074c 2B020000 		.4byte	0x22b
 3823 0750 24       		.byte	0x24
 3824 0751 1B       		.uleb128 0x1b
 3825 0752 CF090000 		.4byte	.LASF113
 3826 0756 07       		.byte	0x7
 3827 0757 5E02     		.2byte	0x25e
 3828 0759 25000000 		.4byte	0x25
 3829 075d 48       		.byte	0x48
 3830 075e 1B       		.uleb128 0x1b
 3831 075f EA130000 		.4byte	.LASF114
 3832 0763 07       		.byte	0x7
 3833 0764 5F02     		.2byte	0x25f
 3834 0766 16010000 		.4byte	0x116
 3835 076a 50       		.byte	0x50
 3836 076b 1B       		.uleb128 0x1b
 3837 076c D4010000 		.4byte	.LASF115
 3838 0770 07       		.byte	0x7
 3839 0771 6002     		.2byte	0x260
 3840 0773 CF060000 		.4byte	0x6cf
 3841 0777 58       		.byte	0x58
 3842 0778 1B       		.uleb128 0x1b
 3843 0779 81080000 		.4byte	.LASF116
 3844 077d 07       		.byte	0x7
 3845 077e 6102     		.2byte	0x261
 3846 0780 A1010000 		.4byte	0x1a1
 3847 0784 68       		.byte	0x68
 3848 0785 1B       		.uleb128 0x1b
 3849 0786 01120000 		.4byte	.LASF117
 3850 078a 07       		.byte	0x7
 3851 078b 6202     		.2byte	0x262
 3852 078d A1010000 		.4byte	0x1a1
 3853 0791 70       		.byte	0x70
 3854 0792 1B       		.uleb128 0x1b
 3855 0793 24130000 		.4byte	.LASF118
 3856 0797 07       		.byte	0x7
 3857 0798 6302     		.2byte	0x263
 3858 079a A1010000 		.4byte	0x1a1
 3859 079e 78       		.byte	0x78
 3860 079f 1B       		.uleb128 0x1b
 3861 07a0 940E0000 		.4byte	.LASF119
 3862 07a4 07       		.byte	0x7
 3863 07a5 6402     		.2byte	0x264
 3864 07a7 25080000 		.4byte	0x825
 3865 07ab 80       		.byte	0x80
 3866 07ac 1B       		.uleb128 0x1b
 3867 07ad EB010000 		.4byte	.LASF120
 3868 07b1 07       		.byte	0x7
 3869 07b2 6502     		.2byte	0x265
 3870 07b4 35080000 		.4byte	0x835
 3871 07b8 88       		.byte	0x88
 3872 07b9 1B       		.uleb128 0x1b
 3873 07ba 33110000 		.4byte	.LASF121
 3874 07be 07       		.byte	0x7
 3875 07bf 6602     		.2byte	0x266
 3876 07c1 25000000 		.4byte	0x25
 3877 07c5 A0       		.byte	0xa0
 3878 07c6 1B       		.uleb128 0x1b
ARM GAS  C:\Users\jo\AppData\Local\Temp\ccRMLSMa.s 			page 70


 3879 07c7 FB020000 		.4byte	.LASF122
 3880 07cb 07       		.byte	0x7
 3881 07cc 6702     		.2byte	0x267
 3882 07ce A1010000 		.4byte	0x1a1
 3883 07d2 A4       		.byte	0xa4
 3884 07d3 1B       		.uleb128 0x1b
 3885 07d4 B6080000 		.4byte	.LASF123
 3886 07d8 07       		.byte	0x7
 3887 07d9 6802     		.2byte	0x268
 3888 07db A1010000 		.4byte	0x1a1
 3889 07df AC       		.byte	0xac
 3890 07e0 1B       		.uleb128 0x1b
 3891 07e1 B0070000 		.4byte	.LASF124
 3892 07e5 07       		.byte	0x7
 3893 07e6 6902     		.2byte	0x269
 3894 07e8 A1010000 		.4byte	0x1a1
 3895 07ec B4       		.byte	0xb4
 3896 07ed 1B       		.uleb128 0x1b
 3897 07ee 560A0000 		.4byte	.LASF125
 3898 07f2 07       		.byte	0x7
 3899 07f3 6A02     		.2byte	0x26a
 3900 07f5 A1010000 		.4byte	0x1a1
 3901 07f9 BC       		.byte	0xbc
 3902 07fa 1B       		.uleb128 0x1b
 3903 07fb 70080000 		.4byte	.LASF126
 3904 07ff 07       		.byte	0x7
 3905 0800 6B02     		.2byte	0x26b
 3906 0802 A1010000 		.4byte	0x1a1
 3907 0806 C4       		.byte	0xc4
 3908 0807 1B       		.uleb128 0x1b
 3909 0808 A20B0000 		.4byte	.LASF127
 3910 080c 07       		.byte	0x7
 3911 080d 6C02     		.2byte	0x26c
 3912 080f 25000000 		.4byte	0x25
 3913 0813 CC       		.byte	0xcc
 3914 0814 00       		.byte	0
 3915 0815 10       		.uleb128 0x10
 3916 0816 99000000 		.4byte	0x99
 3917 081a 25080000 		.4byte	0x825
 3918 081e 11       		.uleb128 0x11
 3919 081f 79010000 		.4byte	0x179
 3920 0823 19       		.byte	0x19
 3921 0824 00       		.byte	0
 3922 0825 10       		.uleb128 0x10
 3923 0826 99000000 		.4byte	0x99
 3924 082a 35080000 		.4byte	0x835
 3925 082e 11       		.uleb128 0x11
 3926 082f 79010000 		.4byte	0x179
 3927 0833 07       		.byte	0x7
 3928 0834 00       		.byte	0
 3929 0835 10       		.uleb128 0x10
 3930 0836 99000000 		.4byte	0x99
 3931 083a 45080000 		.4byte	0x845
 3932 083e 11       		.uleb128 0x11
 3933 083f 79010000 		.4byte	0x179
 3934 0843 17       		.byte	0x17
 3935 0844 00       		.byte	0
ARM GAS  C:\Users\jo\AppData\Local\Temp\ccRMLSMa.s 			page 71


 3936 0845 1E       		.uleb128 0x1e
 3937 0846 F0       		.byte	0xf0
 3938 0847 07       		.byte	0x7
 3939 0848 7102     		.2byte	0x271
 3940 084a 69080000 		.4byte	0x869
 3941 084e 1B       		.uleb128 0x1b
 3942 084f CD040000 		.4byte	.LASF128
 3943 0853 07       		.byte	0x7
 3944 0854 7402     		.2byte	0x274
 3945 0856 69080000 		.4byte	0x869
 3946 085a 00       		.byte	0
 3947 085b 1B       		.uleb128 0x1b
 3948 085c 71140000 		.4byte	.LASF129
 3949 0860 07       		.byte	0x7
 3950 0861 7502     		.2byte	0x275
 3951 0863 79080000 		.4byte	0x879
 3952 0867 78       		.byte	0x78
 3953 0868 00       		.byte	0
 3954 0869 10       		.uleb128 0x10
 3955 086a C5000000 		.4byte	0xc5
 3956 086e 79080000 		.4byte	0x879
 3957 0872 11       		.uleb128 0x11
 3958 0873 79010000 		.4byte	0x179
 3959 0877 1D       		.byte	0x1d
 3960 0878 00       		.byte	0
 3961 0879 10       		.uleb128 0x10
 3962 087a 37000000 		.4byte	0x37
 3963 087e 89080000 		.4byte	0x889
 3964 0882 11       		.uleb128 0x11
 3965 0883 79010000 		.4byte	0x179
 3966 0887 1D       		.byte	0x1d
 3967 0888 00       		.byte	0
 3968 0889 1F       		.uleb128 0x1f
 3969 088a F0       		.byte	0xf0
 3970 088b 07       		.byte	0x7
 3971 088c 5602     		.2byte	0x256
 3972 088e AB080000 		.4byte	0x8ab
 3973 0892 20       		.uleb128 0x20
 3974 0893 37120000 		.4byte	.LASF79
 3975 0897 07       		.byte	0x7
 3976 0898 6D02     		.2byte	0x26d
 3977 089a 14070000 		.4byte	0x714
 3978 089e 20       		.uleb128 0x20
 3979 089f 720E0000 		.4byte	.LASF130
 3980 08a3 07       		.byte	0x7
 3981 08a4 7602     		.2byte	0x276
 3982 08a6 45080000 		.4byte	0x845
 3983 08aa 00       		.byte	0
 3984 08ab 10       		.uleb128 0x10
 3985 08ac 99000000 		.4byte	0x99
 3986 08b0 BB080000 		.4byte	0x8bb
 3987 08b4 11       		.uleb128 0x11
 3988 08b5 79010000 		.4byte	0x179
 3989 08b9 18       		.byte	0x18
 3990 08ba 00       		.byte	0
 3991 08bb 09       		.uleb128 0x9
 3992 08bc C6080000 		.4byte	0x8c6
ARM GAS  C:\Users\jo\AppData\Local\Temp\ccRMLSMa.s 			page 72


 3993 08c0 0A       		.uleb128 0xa
 3994 08c1 BC040000 		.4byte	0x4bc
 3995 08c5 00       		.byte	0
 3996 08c6 07       		.uleb128 0x7
 3997 08c7 04       		.byte	0x4
 3998 08c8 BB080000 		.4byte	0x8bb
 3999 08cc 07       		.uleb128 0x7
 4000 08cd 04       		.byte	0x4
 4001 08ce 15020000 		.4byte	0x215
 4002 08d2 09       		.uleb128 0x9
 4003 08d3 DD080000 		.4byte	0x8dd
 4004 08d7 0A       		.uleb128 0xa
 4005 08d8 25000000 		.4byte	0x25
 4006 08dc 00       		.byte	0
 4007 08dd 07       		.uleb128 0x7
 4008 08de 04       		.byte	0x4
 4009 08df E3080000 		.4byte	0x8e3
 4010 08e3 07       		.uleb128 0x7
 4011 08e4 04       		.byte	0x4
 4012 08e5 D2080000 		.4byte	0x8d2
 4013 08e9 10       		.uleb128 0x10
 4014 08ea 82060000 		.4byte	0x682
 4015 08ee F9080000 		.4byte	0x8f9
 4016 08f2 11       		.uleb128 0x11
 4017 08f3 79010000 		.4byte	0x179
 4018 08f7 02       		.byte	0x2
 4019 08f8 00       		.byte	0
 4020 08f9 03       		.uleb128 0x3
 4021 08fa 8B130000 		.4byte	.LASF131
 4022 08fe 08       		.byte	0x8
 4023 08ff 34       		.byte	0x34
 4024 0900 82060000 		.4byte	0x682
 4025 0904 03       		.uleb128 0x3
 4026 0905 BB0F0000 		.4byte	.LASF132
 4027 0909 09       		.byte	0x9
 4028 090a 2C       		.byte	0x2c
 4029 090b EB000000 		.4byte	0xeb
 4030 090f 03       		.uleb128 0x3
 4031 0910 4B040000 		.4byte	.LASF133
 4032 0914 09       		.byte	0x9
 4033 0915 2D       		.byte	0x2d
 4034 0916 FD000000 		.4byte	0xfd
 4035 091a 03       		.uleb128 0x3
 4036 091b F5130000 		.4byte	.LASF134
 4037 091f 0A       		.byte	0xa
 4038 0920 9F       		.byte	0x9f
 4039 0921 04090000 		.4byte	0x904
 4040 0925 03       		.uleb128 0x3
 4041 0926 D6020000 		.4byte	.LASF135
 4042 092a 0A       		.byte	0xa
 4043 092b A0       		.byte	0xa0
 4044 092c 0F090000 		.4byte	0x90f
 4045 0930 12       		.uleb128 0x12
 4046 0931 0C       		.byte	0xc
 4047 0932 0A       		.byte	0xa
 4048 0933 B6       		.byte	0xb6
 4049 0934 57090000 		.4byte	0x957
ARM GAS  C:\Users\jo\AppData\Local\Temp\ccRMLSMa.s 			page 73


 4050 0938 15       		.uleb128 0x15
 4051 0939 7300     		.ascii	"s\000"
 4052 093b 0A       		.byte	0xa
 4053 093c B8       		.byte	0xb8
 4054 093d 25000000 		.4byte	0x25
 4055 0941 00       		.byte	0
 4056 0942 15       		.uleb128 0x15
 4057 0943 6E00     		.ascii	"n\000"
 4058 0945 0A       		.byte	0xa
 4059 0946 B9       		.byte	0xb9
 4060 0947 2C000000 		.4byte	0x2c
 4061 094b 04       		.byte	0x4
 4062 094c 15       		.uleb128 0x15
 4063 094d 7000     		.ascii	"p\000"
 4064 094f 0A       		.byte	0xa
 4065 0950 BA       		.byte	0xba
 4066 0951 57090000 		.4byte	0x957
 4067 0955 08       		.byte	0x8
 4068 0956 00       		.byte	0
 4069 0957 07       		.uleb128 0x7
 4070 0958 04       		.byte	0x4
 4071 0959 25090000 		.4byte	0x925
 4072 095d 21       		.uleb128 0x21
 4073 095e 6D706900 		.ascii	"mpi\000"
 4074 0962 0A       		.byte	0xa
 4075 0963 BC       		.byte	0xbc
 4076 0964 30090000 		.4byte	0x930
 4077 0968 12       		.uleb128 0x12
 4078 0969 AC       		.byte	0xac
 4079 096a 0B       		.byte	0xb
 4080 096b 50       		.byte	0x50
 4081 096c 2B0A0000 		.4byte	0xa2b
 4082 0970 15       		.uleb128 0x15
 4083 0971 76657200 		.ascii	"ver\000"
 4084 0975 0B       		.byte	0xb
 4085 0976 52       		.byte	0x52
 4086 0977 25000000 		.4byte	0x25
 4087 097b 00       		.byte	0
 4088 097c 15       		.uleb128 0x15
 4089 097d 6C656E00 		.ascii	"len\000"
 4090 0981 0B       		.byte	0xb
 4091 0982 53       		.byte	0x53
 4092 0983 2C000000 		.4byte	0x2c
 4093 0987 04       		.byte	0x4
 4094 0988 15       		.uleb128 0x15
 4095 0989 4E00     		.ascii	"N\000"
 4096 098b 0B       		.byte	0xb
 4097 098c 55       		.byte	0x55
 4098 098d 5D090000 		.4byte	0x95d
 4099 0991 08       		.byte	0x8
 4100 0992 15       		.uleb128 0x15
 4101 0993 4500     		.ascii	"E\000"
 4102 0995 0B       		.byte	0xb
 4103 0996 56       		.byte	0x56
 4104 0997 5D090000 		.4byte	0x95d
 4105 099b 14       		.byte	0x14
 4106 099c 15       		.uleb128 0x15
ARM GAS  C:\Users\jo\AppData\Local\Temp\ccRMLSMa.s 			page 74


 4107 099d 4400     		.ascii	"D\000"
 4108 099f 0B       		.byte	0xb
 4109 09a0 58       		.byte	0x58
 4110 09a1 5D090000 		.4byte	0x95d
 4111 09a5 20       		.byte	0x20
 4112 09a6 15       		.uleb128 0x15
 4113 09a7 5000     		.ascii	"P\000"
 4114 09a9 0B       		.byte	0xb
 4115 09aa 59       		.byte	0x59
 4116 09ab 5D090000 		.4byte	0x95d
 4117 09af 2C       		.byte	0x2c
 4118 09b0 15       		.uleb128 0x15
 4119 09b1 5100     		.ascii	"Q\000"
 4120 09b3 0B       		.byte	0xb
 4121 09b4 5A       		.byte	0x5a
 4122 09b5 5D090000 		.4byte	0x95d
 4123 09b9 38       		.byte	0x38
 4124 09ba 15       		.uleb128 0x15
 4125 09bb 445000   		.ascii	"DP\000"
 4126 09be 0B       		.byte	0xb
 4127 09bf 5B       		.byte	0x5b
 4128 09c0 5D090000 		.4byte	0x95d
 4129 09c4 44       		.byte	0x44
 4130 09c5 15       		.uleb128 0x15
 4131 09c6 445100   		.ascii	"DQ\000"
 4132 09c9 0B       		.byte	0xb
 4133 09ca 5C       		.byte	0x5c
 4134 09cb 5D090000 		.4byte	0x95d
 4135 09cf 50       		.byte	0x50
 4136 09d0 15       		.uleb128 0x15
 4137 09d1 515000   		.ascii	"QP\000"
 4138 09d4 0B       		.byte	0xb
 4139 09d5 5D       		.byte	0x5d
 4140 09d6 5D090000 		.4byte	0x95d
 4141 09da 5C       		.byte	0x5c
 4142 09db 15       		.uleb128 0x15
 4143 09dc 524E00   		.ascii	"RN\000"
 4144 09df 0B       		.byte	0xb
 4145 09e0 5F       		.byte	0x5f
 4146 09e1 5D090000 		.4byte	0x95d
 4147 09e5 68       		.byte	0x68
 4148 09e6 15       		.uleb128 0x15
 4149 09e7 525000   		.ascii	"RP\000"
 4150 09ea 0B       		.byte	0xb
 4151 09eb 60       		.byte	0x60
 4152 09ec 5D090000 		.4byte	0x95d
 4153 09f0 74       		.byte	0x74
 4154 09f1 15       		.uleb128 0x15
 4155 09f2 525100   		.ascii	"RQ\000"
 4156 09f5 0B       		.byte	0xb
 4157 09f6 61       		.byte	0x61
 4158 09f7 5D090000 		.4byte	0x95d
 4159 09fb 80       		.byte	0x80
 4160 09fc 15       		.uleb128 0x15
 4161 09fd 566900   		.ascii	"Vi\000"
 4162 0a00 0B       		.byte	0xb
 4163 0a01 63       		.byte	0x63
ARM GAS  C:\Users\jo\AppData\Local\Temp\ccRMLSMa.s 			page 75


 4164 0a02 5D090000 		.4byte	0x95d
 4165 0a06 8C       		.byte	0x8c
 4166 0a07 15       		.uleb128 0x15
 4167 0a08 566600   		.ascii	"Vf\000"
 4168 0a0b 0B       		.byte	0xb
 4169 0a0c 64       		.byte	0x64
 4170 0a0d 5D090000 		.4byte	0x95d
 4171 0a11 98       		.byte	0x98
 4172 0a12 13       		.uleb128 0x13
 4173 0a13 400A0000 		.4byte	.LASF136
 4174 0a17 0B       		.byte	0xb
 4175 0a18 66       		.byte	0x66
 4176 0a19 25000000 		.4byte	0x25
 4177 0a1d A4       		.byte	0xa4
 4178 0a1e 13       		.uleb128 0x13
 4179 0a1f 71120000 		.4byte	.LASF137
 4180 0a23 0B       		.byte	0xb
 4181 0a24 68       		.byte	0x68
 4182 0a25 25000000 		.4byte	0x25
 4183 0a29 A8       		.byte	0xa8
 4184 0a2a 00       		.byte	0
 4185 0a2b 03       		.uleb128 0x3
 4186 0a2c 4A0D0000 		.4byte	.LASF138
 4187 0a30 0B       		.byte	0xb
 4188 0a31 70       		.byte	0x70
 4189 0a32 68090000 		.4byte	0x968
 4190 0a36 05       		.uleb128 0x5
 4191 0a37 01       		.byte	0x1
 4192 0a38 0C       		.byte	0xc
 4193 0a39 37       		.byte	0x37
 4194 0a3a 9F0A0000 		.4byte	0xa9f
 4195 0a3e 06       		.uleb128 0x6
 4196 0a3f 530B0000 		.4byte	.LASF139
 4197 0a43 00       		.sleb128 0
 4198 0a44 06       		.uleb128 0x6
 4199 0a45 46070000 		.4byte	.LASF140
 4200 0a49 01       		.sleb128 1
 4201 0a4a 06       		.uleb128 0x6
 4202 0a4b D3070000 		.4byte	.LASF141
 4203 0a4f 02       		.sleb128 2
 4204 0a50 06       		.uleb128 0x6
 4205 0a51 B5050000 		.4byte	.LASF142
 4206 0a55 03       		.sleb128 3
 4207 0a56 06       		.uleb128 0x6
 4208 0a57 40110000 		.4byte	.LASF143
 4209 0a5b 04       		.sleb128 4
 4210 0a5c 06       		.uleb128 0x6
 4211 0a5d 0C020000 		.4byte	.LASF144
 4212 0a61 05       		.sleb128 5
 4213 0a62 06       		.uleb128 0x6
 4214 0a63 070D0000 		.4byte	.LASF145
 4215 0a67 06       		.sleb128 6
 4216 0a68 06       		.uleb128 0x6
 4217 0a69 9D050000 		.4byte	.LASF146
 4218 0a6d 07       		.sleb128 7
 4219 0a6e 06       		.uleb128 0x6
 4220 0a6f 210E0000 		.4byte	.LASF147
ARM GAS  C:\Users\jo\AppData\Local\Temp\ccRMLSMa.s 			page 76


 4221 0a73 08       		.sleb128 8
 4222 0a74 06       		.uleb128 0x6
 4223 0a75 FC130000 		.4byte	.LASF148
 4224 0a79 09       		.sleb128 9
 4225 0a7a 06       		.uleb128 0x6
 4226 0a7b B1100000 		.4byte	.LASF149
 4227 0a7f 0A       		.sleb128 10
 4228 0a80 06       		.uleb128 0x6
 4229 0a81 E5080000 		.4byte	.LASF150
 4230 0a85 0B       		.sleb128 11
 4231 0a86 06       		.uleb128 0x6
 4232 0a87 BE0E0000 		.4byte	.LASF151
 4233 0a8b 0C       		.sleb128 12
 4234 0a8c 06       		.uleb128 0x6
 4235 0a8d A3110000 		.4byte	.LASF152
 4236 0a91 0D       		.sleb128 13
 4237 0a92 06       		.uleb128 0x6
 4238 0a93 1B060000 		.4byte	.LASF153
 4239 0a97 0E       		.sleb128 14
 4240 0a98 06       		.uleb128 0x6
 4241 0a99 F60F0000 		.4byte	.LASF154
 4242 0a9d 0F       		.sleb128 15
 4243 0a9e 00       		.byte	0
 4244 0a9f 03       		.uleb128 0x3
 4245 0aa0 06130000 		.4byte	.LASF155
 4246 0aa4 0C       		.byte	0xc
 4247 0aa5 48       		.byte	0x48
 4248 0aa6 360A0000 		.4byte	0xa36
 4249 0aaa 12       		.uleb128 0x12
 4250 0aab 24       		.byte	0x24
 4251 0aac 0C       		.byte	0xc
 4252 0aad 65       		.byte	0x65
 4253 0aae D10A0000 		.4byte	0xad1
 4254 0ab2 15       		.uleb128 0x15
 4255 0ab3 5800     		.ascii	"X\000"
 4256 0ab5 0C       		.byte	0xc
 4257 0ab6 67       		.byte	0x67
 4258 0ab7 5D090000 		.4byte	0x95d
 4259 0abb 00       		.byte	0
 4260 0abc 15       		.uleb128 0x15
 4261 0abd 5900     		.ascii	"Y\000"
 4262 0abf 0C       		.byte	0xc
 4263 0ac0 68       		.byte	0x68
 4264 0ac1 5D090000 		.4byte	0x95d
 4265 0ac5 0C       		.byte	0xc
 4266 0ac6 15       		.uleb128 0x15
 4267 0ac7 5A00     		.ascii	"Z\000"
 4268 0ac9 0C       		.byte	0xc
 4269 0aca 69       		.byte	0x69
 4270 0acb 5D090000 		.4byte	0x95d
 4271 0acf 18       		.byte	0x18
 4272 0ad0 00       		.byte	0
 4273 0ad1 03       		.uleb128 0x3
 4274 0ad2 41040000 		.4byte	.LASF156
 4275 0ad6 0C       		.byte	0xc
 4276 0ad7 6B       		.byte	0x6b
 4277 0ad8 AA0A0000 		.4byte	0xaaa
ARM GAS  C:\Users\jo\AppData\Local\Temp\ccRMLSMa.s 			page 77


 4278 0adc 12       		.uleb128 0x12
 4279 0add 7C       		.byte	0x7c
 4280 0ade 0C       		.byte	0xc
 4281 0adf 85       		.byte	0x85
 4282 0ae0 8A0B0000 		.4byte	0xb8a
 4283 0ae4 15       		.uleb128 0x15
 4284 0ae5 696400   		.ascii	"id\000"
 4285 0ae8 0C       		.byte	0xc
 4286 0ae9 87       		.byte	0x87
 4287 0aea 9F0A0000 		.4byte	0xa9f
 4288 0aee 00       		.byte	0
 4289 0aef 15       		.uleb128 0x15
 4290 0af0 5000     		.ascii	"P\000"
 4291 0af2 0C       		.byte	0xc
 4292 0af3 88       		.byte	0x88
 4293 0af4 5D090000 		.4byte	0x95d
 4294 0af8 04       		.byte	0x4
 4295 0af9 15       		.uleb128 0x15
 4296 0afa 4100     		.ascii	"A\000"
 4297 0afc 0C       		.byte	0xc
 4298 0afd 89       		.byte	0x89
 4299 0afe 5D090000 		.4byte	0x95d
 4300 0b02 10       		.byte	0x10
 4301 0b03 15       		.uleb128 0x15
 4302 0b04 4200     		.ascii	"B\000"
 4303 0b06 0C       		.byte	0xc
 4304 0b07 8A       		.byte	0x8a
 4305 0b08 5D090000 		.4byte	0x95d
 4306 0b0c 1C       		.byte	0x1c
 4307 0b0d 15       		.uleb128 0x15
 4308 0b0e 4700     		.ascii	"G\000"
 4309 0b10 0C       		.byte	0xc
 4310 0b11 8B       		.byte	0x8b
 4311 0b12 D10A0000 		.4byte	0xad1
 4312 0b16 28       		.byte	0x28
 4313 0b17 15       		.uleb128 0x15
 4314 0b18 4E00     		.ascii	"N\000"
 4315 0b1a 0C       		.byte	0xc
 4316 0b1b 8C       		.byte	0x8c
 4317 0b1c 5D090000 		.4byte	0x95d
 4318 0b20 4C       		.byte	0x4c
 4319 0b21 13       		.uleb128 0x13
 4320 0b22 64100000 		.4byte	.LASF157
 4321 0b26 0C       		.byte	0xc
 4322 0b27 8D       		.byte	0x8d
 4323 0b28 2C000000 		.4byte	0x2c
 4324 0b2c 58       		.byte	0x58
 4325 0b2d 13       		.uleb128 0x13
 4326 0b2e 7C0A0000 		.4byte	.LASF158
 4327 0b32 0C       		.byte	0xc
 4328 0b33 8E       		.byte	0x8e
 4329 0b34 2C000000 		.4byte	0x2c
 4330 0b38 5C       		.byte	0x5c
 4331 0b39 15       		.uleb128 0x15
 4332 0b3a 6800     		.ascii	"h\000"
 4333 0b3c 0C       		.byte	0xc
 4334 0b3d 8F       		.byte	0x8f
ARM GAS  C:\Users\jo\AppData\Local\Temp\ccRMLSMa.s 			page 78


 4335 0b3e 37000000 		.4byte	0x37
 4336 0b42 60       		.byte	0x60
 4337 0b43 13       		.uleb128 0x13
 4338 0b44 53030000 		.4byte	.LASF159
 4339 0b48 0C       		.byte	0xc
 4340 0b49 90       		.byte	0x90
 4341 0b4a 9F0B0000 		.4byte	0xb9f
 4342 0b4e 64       		.byte	0x64
 4343 0b4f 13       		.uleb128 0x13
 4344 0b50 8B050000 		.4byte	.LASF160
 4345 0b54 0C       		.byte	0xc
 4346 0b55 91       		.byte	0x91
 4347 0b56 BF0B0000 		.4byte	0xbbf
 4348 0b5a 68       		.byte	0x68
 4349 0b5b 13       		.uleb128 0x13
 4350 0b5c 68130000 		.4byte	.LASF161
 4351 0b60 0C       		.byte	0xc
 4352 0b61 92       		.byte	0x92
 4353 0b62 BF0B0000 		.4byte	0xbbf
 4354 0b66 6C       		.byte	0x6c
 4355 0b67 13       		.uleb128 0x13
 4356 0b68 950A0000 		.4byte	.LASF162
 4357 0b6c 0C       		.byte	0xc
 4358 0b6d 93       		.byte	0x93
 4359 0b6e AB000000 		.4byte	0xab
 4360 0b72 70       		.byte	0x70
 4361 0b73 15       		.uleb128 0x15
 4362 0b74 5400     		.ascii	"T\000"
 4363 0b76 0C       		.byte	0xc
 4364 0b77 94       		.byte	0x94
 4365 0b78 B90B0000 		.4byte	0xbb9
 4366 0b7c 74       		.byte	0x74
 4367 0b7d 13       		.uleb128 0x13
 4368 0b7e ED070000 		.4byte	.LASF163
 4369 0b82 0C       		.byte	0xc
 4370 0b83 95       		.byte	0x95
 4371 0b84 2C000000 		.4byte	0x2c
 4372 0b88 78       		.byte	0x78
 4373 0b89 00       		.byte	0
 4374 0b8a 19       		.uleb128 0x19
 4375 0b8b 25000000 		.4byte	0x25
 4376 0b8f 990B0000 		.4byte	0xb99
 4377 0b93 0A       		.uleb128 0xa
 4378 0b94 990B0000 		.4byte	0xb99
 4379 0b98 00       		.byte	0
 4380 0b99 07       		.uleb128 0x7
 4381 0b9a 04       		.byte	0x4
 4382 0b9b 5D090000 		.4byte	0x95d
 4383 0b9f 07       		.uleb128 0x7
 4384 0ba0 04       		.byte	0x4
 4385 0ba1 8A0B0000 		.4byte	0xb8a
 4386 0ba5 19       		.uleb128 0x19
 4387 0ba6 25000000 		.4byte	0x25
 4388 0baa B90B0000 		.4byte	0xbb9
 4389 0bae 0A       		.uleb128 0xa
 4390 0baf B90B0000 		.4byte	0xbb9
 4391 0bb3 0A       		.uleb128 0xa
ARM GAS  C:\Users\jo\AppData\Local\Temp\ccRMLSMa.s 			page 79


 4392 0bb4 AB000000 		.4byte	0xab
 4393 0bb8 00       		.byte	0
 4394 0bb9 07       		.uleb128 0x7
 4395 0bba 04       		.byte	0x4
 4396 0bbb D10A0000 		.4byte	0xad1
 4397 0bbf 07       		.uleb128 0x7
 4398 0bc0 04       		.byte	0x4
 4399 0bc1 A50B0000 		.4byte	0xba5
 4400 0bc5 03       		.uleb128 0x3
 4401 0bc6 2D0C0000 		.4byte	.LASF164
 4402 0bca 0C       		.byte	0xc
 4403 0bcb 97       		.byte	0x97
 4404 0bcc DC0A0000 		.4byte	0xadc
 4405 0bd0 12       		.uleb128 0x12
 4406 0bd1 AC       		.byte	0xac
 4407 0bd2 0C       		.byte	0xc
 4408 0bd3 A0       		.byte	0xa0
 4409 0bd4 F90B0000 		.4byte	0xbf9
 4410 0bd8 15       		.uleb128 0x15
 4411 0bd9 67727000 		.ascii	"grp\000"
 4412 0bdd 0C       		.byte	0xc
 4413 0bde A2       		.byte	0xa2
 4414 0bdf C50B0000 		.4byte	0xbc5
 4415 0be3 00       		.byte	0
 4416 0be4 15       		.uleb128 0x15
 4417 0be5 6400     		.ascii	"d\000"
 4418 0be7 0C       		.byte	0xc
 4419 0be8 A3       		.byte	0xa3
 4420 0be9 5D090000 		.4byte	0x95d
 4421 0bed 7C       		.byte	0x7c
 4422 0bee 15       		.uleb128 0x15
 4423 0bef 5100     		.ascii	"Q\000"
 4424 0bf1 0C       		.byte	0xc
 4425 0bf2 A4       		.byte	0xa4
 4426 0bf3 D10A0000 		.4byte	0xad1
 4427 0bf7 88       		.byte	0x88
 4428 0bf8 00       		.byte	0
 4429 0bf9 03       		.uleb128 0x3
 4430 0bfa EF020000 		.4byte	.LASF165
 4431 0bfe 0C       		.byte	0xc
 4432 0bff A6       		.byte	0xa6
 4433 0c00 D00B0000 		.4byte	0xbd0
 4434 0c04 05       		.uleb128 0x5
 4435 0c05 01       		.byte	0x1
 4436 0c06 0D       		.byte	0xd
 4437 0c07 5C       		.byte	0x5c
 4438 0c08 370C0000 		.4byte	0xc37
 4439 0c0c 06       		.uleb128 0x6
 4440 0c0d 60120000 		.4byte	.LASF166
 4441 0c11 00       		.sleb128 0
 4442 0c12 06       		.uleb128 0x6
 4443 0c13 26020000 		.4byte	.LASF167
 4444 0c17 01       		.sleb128 1
 4445 0c18 06       		.uleb128 0x6
 4446 0c19 EB0C0000 		.4byte	.LASF168
 4447 0c1d 02       		.sleb128 2
 4448 0c1e 06       		.uleb128 0x6
ARM GAS  C:\Users\jo\AppData\Local\Temp\ccRMLSMa.s 			page 80


 4449 0c1f BF010000 		.4byte	.LASF169
 4450 0c23 03       		.sleb128 3
 4451 0c24 06       		.uleb128 0x6
 4452 0c25 9B0F0000 		.4byte	.LASF170
 4453 0c29 04       		.sleb128 4
 4454 0c2a 06       		.uleb128 0x6
 4455 0c2b 0F120000 		.4byte	.LASF171
 4456 0c2f 05       		.sleb128 5
 4457 0c30 06       		.uleb128 0x6
 4458 0c31 DD110000 		.4byte	.LASF172
 4459 0c35 06       		.sleb128 6
 4460 0c36 00       		.byte	0
 4461 0c37 03       		.uleb128 0x3
 4462 0c38 65000000 		.4byte	.LASF173
 4463 0c3c 0D       		.byte	0xd
 4464 0c3d 64       		.byte	0x64
 4465 0c3e 040C0000 		.4byte	0xc04
 4466 0c42 05       		.uleb128 0x5
 4467 0c43 01       		.byte	0x1
 4468 0c44 0D       		.byte	0xd
 4469 0c45 75       		.byte	0x75
 4470 0c46 5D0C0000 		.4byte	0xc5d
 4471 0c4a 06       		.uleb128 0x6
 4472 0c4b 4C0E0000 		.4byte	.LASF174
 4473 0c4f 00       		.sleb128 0
 4474 0c50 06       		.uleb128 0x6
 4475 0c51 D4040000 		.4byte	.LASF175
 4476 0c55 01       		.sleb128 1
 4477 0c56 06       		.uleb128 0x6
 4478 0c57 AB0B0000 		.4byte	.LASF176
 4479 0c5b 02       		.sleb128 2
 4480 0c5c 00       		.byte	0
 4481 0c5d 03       		.uleb128 0x3
 4482 0c5e E9120000 		.4byte	.LASF177
 4483 0c62 0D       		.byte	0xd
 4484 0c63 79       		.byte	0x79
 4485 0c64 420C0000 		.4byte	0xc42
 4486 0c68 12       		.uleb128 0x12
 4487 0c69 0C       		.byte	0xc
 4488 0c6a 0D       		.byte	0xd
 4489 0c6b 7E       		.byte	0x7e
 4490 0c6c 950C0000 		.4byte	0xc95
 4491 0c70 13       		.uleb128 0x13
 4492 0c71 88090000 		.4byte	.LASF178
 4493 0c75 0D       		.byte	0xd
 4494 0c76 80       		.byte	0x80
 4495 0c77 5D0C0000 		.4byte	0xc5d
 4496 0c7b 00       		.byte	0
 4497 0c7c 13       		.uleb128 0x13
 4498 0c7d 44000000 		.4byte	.LASF179
 4499 0c81 0D       		.byte	0xd
 4500 0c82 81       		.byte	0x81
 4501 0c83 8E000000 		.4byte	0x8e
 4502 0c87 04       		.byte	0x4
 4503 0c88 13       		.uleb128 0x13
 4504 0c89 5C060000 		.4byte	.LASF180
 4505 0c8d 0D       		.byte	0xd
ARM GAS  C:\Users\jo\AppData\Local\Temp\ccRMLSMa.s 			page 81


 4506 0c8e 82       		.byte	0x82
 4507 0c8f AB000000 		.4byte	0xab
 4508 0c93 08       		.byte	0x8
 4509 0c94 00       		.byte	0
 4510 0c95 03       		.uleb128 0x3
 4511 0c96 89000000 		.4byte	.LASF181
 4512 0c9a 0D       		.byte	0xd
 4513 0c9b 83       		.byte	0x83
 4514 0c9c 680C0000 		.4byte	0xc68
 4515 0ca0 12       		.uleb128 0x12
 4516 0ca1 30       		.byte	0x30
 4517 0ca2 0D       		.byte	0xd
 4518 0ca3 8B       		.byte	0x8b
 4519 0ca4 390D0000 		.4byte	0xd39
 4520 0ca8 13       		.uleb128 0x13
 4521 0ca9 88090000 		.4byte	.LASF178
 4522 0cad 0D       		.byte	0xd
 4523 0cae 8E       		.byte	0x8e
 4524 0caf 370C0000 		.4byte	0xc37
 4525 0cb3 00       		.byte	0
 4526 0cb4 13       		.uleb128 0x13
 4527 0cb5 44000000 		.4byte	.LASF179
 4528 0cb9 0D       		.byte	0xd
 4529 0cba 91       		.byte	0x91
 4530 0cbb 8E000000 		.4byte	0x8e
 4531 0cbf 04       		.byte	0x4
 4532 0cc0 13       		.uleb128 0x13
 4533 0cc1 5C090000 		.4byte	.LASF182
 4534 0cc5 0D       		.byte	0xd
 4535 0cc6 94       		.byte	0x94
 4536 0cc7 4F0D0000 		.4byte	0xd4f
 4537 0ccb 08       		.byte	0x8
 4538 0ccc 13       		.uleb128 0x13
 4539 0ccd AC0A0000 		.4byte	.LASF183
 4540 0cd1 0D       		.byte	0xd
 4541 0cd2 97       		.byte	0x97
 4542 0cd3 640D0000 		.4byte	0xd64
 4543 0cd7 0C       		.byte	0xc
 4544 0cd8 13       		.uleb128 0x13
 4545 0cd9 91050000 		.4byte	.LASF184
 4546 0cdd 0D       		.byte	0xd
 4547 0cde 9A       		.byte	0x9a
 4548 0cdf 920D0000 		.4byte	0xd92
 4549 0ce3 10       		.byte	0x10
 4550 0ce4 13       		.uleb128 0x13
 4551 0ce5 630C0000 		.4byte	.LASF185
 4552 0ce9 0D       		.byte	0xd
 4553 0cea 9F       		.byte	0x9f
 4554 0ceb EF0D0000 		.4byte	0xdef
 4555 0cef 14       		.byte	0x14
 4556 0cf0 13       		.uleb128 0x13
 4557 0cf1 C10B0000 		.4byte	.LASF186
 4558 0cf5 0D       		.byte	0xd
 4559 0cf6 A6       		.byte	0xa6
 4560 0cf7 270E0000 		.4byte	0xe27
 4561 0cfb 18       		.byte	0x18
 4562 0cfc 13       		.uleb128 0x13
ARM GAS  C:\Users\jo\AppData\Local\Temp\ccRMLSMa.s 			page 82


 4563 0cfd 3B100000 		.4byte	.LASF187
 4564 0d01 0D       		.byte	0xd
 4565 0d02 AC       		.byte	0xac
 4566 0d03 270E0000 		.4byte	0xe27
 4567 0d07 1C       		.byte	0x1c
 4568 0d08 13       		.uleb128 0x13
 4569 0d09 4C060000 		.4byte	.LASF188
 4570 0d0d 0D       		.byte	0xd
 4571 0d0e B2       		.byte	0xb2
 4572 0d0f 410E0000 		.4byte	0xe41
 4573 0d13 20       		.byte	0x20
 4574 0d14 13       		.uleb128 0x13
 4575 0d15 46140000 		.4byte	.LASF189
 4576 0d19 0D       		.byte	0xd
 4577 0d1a B5       		.byte	0xb5
 4578 0d1b D0000000 		.4byte	0xd0
 4579 0d1f 24       		.byte	0x24
 4580 0d20 13       		.uleb128 0x13
 4581 0d21 FF060000 		.4byte	.LASF190
 4582 0d25 0D       		.byte	0xd
 4583 0d26 B8       		.byte	0xb8
 4584 0d27 AD000000 		.4byte	0xad
 4585 0d2b 28       		.byte	0x28
 4586 0d2c 13       		.uleb128 0x13
 4587 0d2d 680B0000 		.4byte	.LASF191
 4588 0d31 0D       		.byte	0xd
 4589 0d32 BB       		.byte	0xbb
 4590 0d33 5D0E0000 		.4byte	0xe5d
 4591 0d37 2C       		.byte	0x2c
 4592 0d38 00       		.byte	0
 4593 0d39 19       		.uleb128 0x19
 4594 0d3a 2C000000 		.4byte	0x2c
 4595 0d3e 480D0000 		.4byte	0xd48
 4596 0d42 0A       		.uleb128 0xa
 4597 0d43 480D0000 		.4byte	0xd48
 4598 0d47 00       		.byte	0
 4599 0d48 07       		.uleb128 0x7
 4600 0d49 04       		.byte	0x4
 4601 0d4a 4E0D0000 		.4byte	0xd4e
 4602 0d4e 22       		.uleb128 0x22
 4603 0d4f 07       		.uleb128 0x7
 4604 0d50 04       		.byte	0x4
 4605 0d51 390D0000 		.4byte	0xd39
 4606 0d55 19       		.uleb128 0x19
 4607 0d56 25000000 		.4byte	0x25
 4608 0d5a 640D0000 		.4byte	0xd64
 4609 0d5e 0A       		.uleb128 0xa
 4610 0d5f 370C0000 		.4byte	0xc37
 4611 0d63 00       		.byte	0
 4612 0d64 07       		.uleb128 0x7
 4613 0d65 04       		.byte	0x4
 4614 0d66 550D0000 		.4byte	0xd55
 4615 0d6a 19       		.uleb128 0x19
 4616 0d6b 25000000 		.4byte	0x25
 4617 0d6f 920D0000 		.4byte	0xd92
 4618 0d73 0A       		.uleb128 0xa
 4619 0d74 AB000000 		.4byte	0xab
ARM GAS  C:\Users\jo\AppData\Local\Temp\ccRMLSMa.s 			page 83


 4620 0d78 0A       		.uleb128 0xa
 4621 0d79 83000000 		.4byte	0x83
 4622 0d7d 0A       		.uleb128 0xa
 4623 0d7e B3000000 		.4byte	0xb3
 4624 0d82 0A       		.uleb128 0xa
 4625 0d83 2C000000 		.4byte	0x2c
 4626 0d87 0A       		.uleb128 0xa
 4627 0d88 B3000000 		.4byte	0xb3
 4628 0d8c 0A       		.uleb128 0xa
 4629 0d8d 2C000000 		.4byte	0x2c
 4630 0d91 00       		.byte	0
 4631 0d92 07       		.uleb128 0x7
 4632 0d93 04       		.byte	0x4
 4633 0d94 6A0D0000 		.4byte	0xd6a
 4634 0d98 19       		.uleb128 0x19
 4635 0d99 25000000 		.4byte	0x25
 4636 0d9d CA0D0000 		.4byte	0xdca
 4637 0da1 0A       		.uleb128 0xa
 4638 0da2 AB000000 		.4byte	0xab
 4639 0da6 0A       		.uleb128 0xa
 4640 0da7 83000000 		.4byte	0x83
 4641 0dab 0A       		.uleb128 0xa
 4642 0dac B3000000 		.4byte	0xb3
 4643 0db0 0A       		.uleb128 0xa
 4644 0db1 2C000000 		.4byte	0x2c
 4645 0db5 0A       		.uleb128 0xa
 4646 0db6 C5000000 		.4byte	0xc5
 4647 0dba 0A       		.uleb128 0xa
 4648 0dbb CA0D0000 		.4byte	0xdca
 4649 0dbf 0A       		.uleb128 0xa
 4650 0dc0 D00D0000 		.4byte	0xdd0
 4651 0dc4 0A       		.uleb128 0xa
 4652 0dc5 AB000000 		.4byte	0xab
 4653 0dc9 00       		.byte	0
 4654 0dca 07       		.uleb128 0x7
 4655 0dcb 04       		.byte	0x4
 4656 0dcc 2C000000 		.4byte	0x2c
 4657 0dd0 07       		.uleb128 0x7
 4658 0dd1 04       		.byte	0x4
 4659 0dd2 D60D0000 		.4byte	0xdd6
 4660 0dd6 19       		.uleb128 0x19
 4661 0dd7 25000000 		.4byte	0x25
 4662 0ddb EF0D0000 		.4byte	0xdef
 4663 0ddf 0A       		.uleb128 0xa
 4664 0de0 AB000000 		.4byte	0xab
 4665 0de4 0A       		.uleb128 0xa
 4666 0de5 C5000000 		.4byte	0xc5
 4667 0de9 0A       		.uleb128 0xa
 4668 0dea 2C000000 		.4byte	0x2c
 4669 0dee 00       		.byte	0
 4670 0def 07       		.uleb128 0x7
 4671 0df0 04       		.byte	0x4
 4672 0df1 980D0000 		.4byte	0xd98
 4673 0df5 19       		.uleb128 0x19
 4674 0df6 25000000 		.4byte	0x25
 4675 0dfa 270E0000 		.4byte	0xe27
 4676 0dfe 0A       		.uleb128 0xa
ARM GAS  C:\Users\jo\AppData\Local\Temp\ccRMLSMa.s 			page 84


 4677 0dff AB000000 		.4byte	0xab
 4678 0e03 0A       		.uleb128 0xa
 4679 0e04 B3000000 		.4byte	0xb3
 4680 0e08 0A       		.uleb128 0xa
 4681 0e09 2C000000 		.4byte	0x2c
 4682 0e0d 0A       		.uleb128 0xa
 4683 0e0e C5000000 		.4byte	0xc5
 4684 0e12 0A       		.uleb128 0xa
 4685 0e13 CA0D0000 		.4byte	0xdca
 4686 0e17 0A       		.uleb128 0xa
 4687 0e18 2C000000 		.4byte	0x2c
 4688 0e1c 0A       		.uleb128 0xa
 4689 0e1d D00D0000 		.4byte	0xdd0
 4690 0e21 0A       		.uleb128 0xa
 4691 0e22 AB000000 		.4byte	0xab
 4692 0e26 00       		.byte	0
 4693 0e27 07       		.uleb128 0x7
 4694 0e28 04       		.byte	0x4
 4695 0e29 F50D0000 		.4byte	0xdf5
 4696 0e2d 19       		.uleb128 0x19
 4697 0e2e 25000000 		.4byte	0x25
 4698 0e32 410E0000 		.4byte	0xe41
 4699 0e36 0A       		.uleb128 0xa
 4700 0e37 480D0000 		.4byte	0xd48
 4701 0e3b 0A       		.uleb128 0xa
 4702 0e3c 480D0000 		.4byte	0xd48
 4703 0e40 00       		.byte	0
 4704 0e41 07       		.uleb128 0x7
 4705 0e42 04       		.byte	0x4
 4706 0e43 2D0E0000 		.4byte	0xe2d
 4707 0e47 09       		.uleb128 0x9
 4708 0e48 570E0000 		.4byte	0xe57
 4709 0e4c 0A       		.uleb128 0xa
 4710 0e4d 480D0000 		.4byte	0xd48
 4711 0e51 0A       		.uleb128 0xa
 4712 0e52 570E0000 		.4byte	0xe57
 4713 0e56 00       		.byte	0
 4714 0e57 07       		.uleb128 0x7
 4715 0e58 04       		.byte	0x4
 4716 0e59 950C0000 		.4byte	0xc95
 4717 0e5d 07       		.uleb128 0x7
 4718 0e5e 04       		.byte	0x4
 4719 0e5f 470E0000 		.4byte	0xe47
 4720 0e63 03       		.uleb128 0x3
 4721 0e64 170E0000 		.4byte	.LASF192
 4722 0e68 0D       		.byte	0xd
 4723 0e69 BD       		.byte	0xbd
 4724 0e6a A00C0000 		.4byte	0xca0
 4725 0e6e 12       		.uleb128 0x12
 4726 0e6f 08       		.byte	0x8
 4727 0e70 0D       		.byte	0xd
 4728 0e71 C2       		.byte	0xc2
 4729 0e72 8F0E0000 		.4byte	0xe8f
 4730 0e76 13       		.uleb128 0x13
 4731 0e77 E30C0000 		.4byte	.LASF193
 4732 0e7b 0D       		.byte	0xd
 4733 0e7c C4       		.byte	0xc4
ARM GAS  C:\Users\jo\AppData\Local\Temp\ccRMLSMa.s 			page 85


 4734 0e7d 8F0E0000 		.4byte	0xe8f
 4735 0e81 00       		.byte	0
 4736 0e82 13       		.uleb128 0x13
 4737 0e83 5D100000 		.4byte	.LASF194
 4738 0e87 0D       		.byte	0xd
 4739 0e88 C5       		.byte	0xc5
 4740 0e89 AB000000 		.4byte	0xab
 4741 0e8d 04       		.byte	0x4
 4742 0e8e 00       		.byte	0
 4743 0e8f 07       		.uleb128 0x7
 4744 0e90 04       		.byte	0x4
 4745 0e91 950E0000 		.4byte	0xe95
 4746 0e95 08       		.uleb128 0x8
 4747 0e96 630E0000 		.4byte	0xe63
 4748 0e9a 03       		.uleb128 0x3
 4749 0e9b 6F000000 		.4byte	.LASF195
 4750 0e9f 0D       		.byte	0xd
 4751 0ea0 C6       		.byte	0xc6
 4752 0ea1 6E0E0000 		.4byte	0xe6e
 4753 0ea5 14       		.uleb128 0x14
 4754 0ea6 560D0000 		.4byte	.LASF196
 4755 0eaa 0C       		.byte	0xc
 4756 0eab 0E       		.byte	0xe
 4757 0eac 79       		.byte	0x79
 4758 0ead D40E0000 		.4byte	0xed4
 4759 0eb1 15       		.uleb128 0x15
 4760 0eb2 74616700 		.ascii	"tag\000"
 4761 0eb6 0E       		.byte	0xe
 4762 0eb7 7B       		.byte	0x7b
 4763 0eb8 25000000 		.4byte	0x25
 4764 0ebc 00       		.byte	0
 4765 0ebd 15       		.uleb128 0x15
 4766 0ebe 6C656E00 		.ascii	"len\000"
 4767 0ec2 0E       		.byte	0xe
 4768 0ec3 7C       		.byte	0x7c
 4769 0ec4 2C000000 		.4byte	0x2c
 4770 0ec8 04       		.byte	0x4
 4771 0ec9 15       		.uleb128 0x15
 4772 0eca 7000     		.ascii	"p\000"
 4773 0ecc 0E       		.byte	0xe
 4774 0ecd 7D       		.byte	0x7d
 4775 0ece C5000000 		.4byte	0xc5
 4776 0ed2 08       		.byte	0x8
 4777 0ed3 00       		.byte	0
 4778 0ed4 03       		.uleb128 0x3
 4779 0ed5 7E110000 		.4byte	.LASF197
 4780 0ed9 0E       		.byte	0xe
 4781 0eda 7F       		.byte	0x7f
 4782 0edb A50E0000 		.4byte	0xea5
 4783 0edf 05       		.uleb128 0x5
 4784 0ee0 01       		.byte	0x1
 4785 0ee1 0F       		.byte	0xf
 4786 0ee2 53       		.byte	0x53
 4787 0ee3 0E100000 		.4byte	0x100e
 4788 0ee7 06       		.uleb128 0x6
 4789 0ee8 48100000 		.4byte	.LASF198
 4790 0eec 00       		.sleb128 0
ARM GAS  C:\Users\jo\AppData\Local\Temp\ccRMLSMa.s 			page 86


 4791 0eed 06       		.uleb128 0x6
 4792 0eee 86020000 		.4byte	.LASF199
 4793 0ef2 01       		.sleb128 1
 4794 0ef3 06       		.uleb128 0x6
 4795 0ef4 DA0F0000 		.4byte	.LASF200
 4796 0ef8 02       		.sleb128 2
 4797 0ef9 06       		.uleb128 0x6
 4798 0efa 94030000 		.4byte	.LASF201
 4799 0efe 03       		.sleb128 3
 4800 0eff 06       		.uleb128 0x6
 4801 0f00 DD0A0000 		.4byte	.LASF202
 4802 0f04 04       		.sleb128 4
 4803 0f05 06       		.uleb128 0x6
 4804 0f06 32130000 		.4byte	.LASF203
 4805 0f0a 05       		.sleb128 5
 4806 0f0b 06       		.uleb128 0x6
 4807 0f0c 6D060000 		.4byte	.LASF204
 4808 0f10 06       		.sleb128 6
 4809 0f11 06       		.uleb128 0x6
 4810 0f12 28000000 		.4byte	.LASF205
 4811 0f16 07       		.sleb128 7
 4812 0f17 06       		.uleb128 0x6
 4813 0f18 A9090000 		.4byte	.LASF206
 4814 0f1c 08       		.sleb128 8
 4815 0f1d 06       		.uleb128 0x6
 4816 0f1e 1D070000 		.4byte	.LASF207
 4817 0f22 09       		.sleb128 9
 4818 0f23 06       		.uleb128 0x6
 4819 0f24 10100000 		.4byte	.LASF208
 4820 0f28 0A       		.sleb128 10
 4821 0f29 06       		.uleb128 0x6
 4822 0f2a 09030000 		.4byte	.LASF209
 4823 0f2e 0B       		.sleb128 11
 4824 0f2f 06       		.uleb128 0x6
 4825 0f30 F3090000 		.4byte	.LASF210
 4826 0f34 0C       		.sleb128 12
 4827 0f35 06       		.uleb128 0x6
 4828 0f36 9B040000 		.4byte	.LASF211
 4829 0f3a 0D       		.sleb128 13
 4830 0f3b 06       		.uleb128 0x6
 4831 0f3c E00B0000 		.4byte	.LASF212
 4832 0f40 0E       		.sleb128 14
 4833 0f41 06       		.uleb128 0x6
 4834 0f42 6F130000 		.4byte	.LASF213
 4835 0f46 0F       		.sleb128 15
 4836 0f47 06       		.uleb128 0x6
 4837 0f48 1F0D0000 		.4byte	.LASF214
 4838 0f4c 10       		.sleb128 16
 4839 0f4d 06       		.uleb128 0x6
 4840 0f4e FA080000 		.4byte	.LASF215
 4841 0f52 11       		.sleb128 17
 4842 0f53 06       		.uleb128 0x6
 4843 0f54 4F0F0000 		.4byte	.LASF216
 4844 0f58 12       		.sleb128 18
 4845 0f59 06       		.uleb128 0x6
 4846 0f5a 150A0000 		.4byte	.LASF217
 4847 0f5e 13       		.sleb128 19
ARM GAS  C:\Users\jo\AppData\Local\Temp\ccRMLSMa.s 			page 87


 4848 0f5f 06       		.uleb128 0x6
 4849 0f60 90130000 		.4byte	.LASF218
 4850 0f64 14       		.sleb128 20
 4851 0f65 06       		.uleb128 0x6
 4852 0f66 A9120000 		.4byte	.LASF219
 4853 0f6a 15       		.sleb128 21
 4854 0f6b 06       		.uleb128 0x6
 4855 0f6c 770C0000 		.4byte	.LASF220
 4856 0f70 16       		.sleb128 22
 4857 0f71 06       		.uleb128 0x6
 4858 0f72 7B0D0000 		.4byte	.LASF221
 4859 0f76 17       		.sleb128 23
 4860 0f77 06       		.uleb128 0x6
 4861 0f78 780B0000 		.4byte	.LASF222
 4862 0f7c 18       		.sleb128 24
 4863 0f7d 06       		.uleb128 0x6
 4864 0f7e 9B010000 		.4byte	.LASF223
 4865 0f82 19       		.sleb128 25
 4866 0f83 06       		.uleb128 0x6
 4867 0f84 F20E0000 		.4byte	.LASF224
 4868 0f88 1A       		.sleb128 26
 4869 0f89 06       		.uleb128 0x6
 4870 0f8a 20040000 		.4byte	.LASF225
 4871 0f8e 1B       		.sleb128 27
 4872 0f8f 06       		.uleb128 0x6
 4873 0f90 FA100000 		.4byte	.LASF226
 4874 0f94 1C       		.sleb128 28
 4875 0f95 06       		.uleb128 0x6
 4876 0f96 F2040000 		.4byte	.LASF227
 4877 0f9a 1D       		.sleb128 29
 4878 0f9b 06       		.uleb128 0x6
 4879 0f9c 0C0C0000 		.4byte	.LASF228
 4880 0fa0 1E       		.sleb128 30
 4881 0fa1 06       		.uleb128 0x6
 4882 0fa2 AB060000 		.4byte	.LASF229
 4883 0fa6 1F       		.sleb128 31
 4884 0fa7 06       		.uleb128 0x6
 4885 0fa8 370C0000 		.4byte	.LASF230
 4886 0fac 20       		.sleb128 32
 4887 0fad 06       		.uleb128 0x6
 4888 0fae 58030000 		.4byte	.LASF231
 4889 0fb2 21       		.sleb128 33
 4890 0fb3 06       		.uleb128 0x6
 4891 0fb4 330F0000 		.4byte	.LASF232
 4892 0fb8 22       		.sleb128 34
 4893 0fb9 06       		.uleb128 0x6
 4894 0fba DC060000 		.4byte	.LASF233
 4895 0fbe 23       		.sleb128 35
 4896 0fbf 06       		.uleb128 0x6
 4897 0fc0 11140000 		.4byte	.LASF234
 4898 0fc4 24       		.sleb128 36
 4899 0fc5 06       		.uleb128 0x6
 4900 0fc6 A7020000 		.4byte	.LASF235
 4901 0fca 25       		.sleb128 37
 4902 0fcb 06       		.uleb128 0x6
 4903 0fcc 36020000 		.4byte	.LASF236
 4904 0fd0 26       		.sleb128 38
ARM GAS  C:\Users\jo\AppData\Local\Temp\ccRMLSMa.s 			page 88


 4905 0fd1 06       		.uleb128 0x6
 4906 0fd2 13050000 		.4byte	.LASF237
 4907 0fd6 27       		.sleb128 39
 4908 0fd7 06       		.uleb128 0x6
 4909 0fd8 D30E0000 		.4byte	.LASF238
 4910 0fdc 28       		.sleb128 40
 4911 0fdd 06       		.uleb128 0x6
 4912 0fde 29090000 		.4byte	.LASF239
 4913 0fe2 29       		.sleb128 41
 4914 0fe3 06       		.uleb128 0x6
 4915 0fe4 72100000 		.4byte	.LASF240
 4916 0fe8 2A       		.sleb128 42
 4917 0fe9 06       		.uleb128 0x6
 4918 0fea 49000000 		.4byte	.LASF241
 4919 0fee 2B       		.sleb128 43
 4920 0fef 06       		.uleb128 0x6
 4921 0ff0 78030000 		.4byte	.LASF242
 4922 0ff4 2C       		.sleb128 44
 4923 0ff5 06       		.uleb128 0x6
 4924 0ff6 C6100000 		.4byte	.LASF243
 4925 0ffa 2D       		.sleb128 45
 4926 0ffb 06       		.uleb128 0x6
 4927 0ffc 980C0000 		.4byte	.LASF244
 4928 1000 2E       		.sleb128 46
 4929 1001 06       		.uleb128 0x6
 4930 1002 00000000 		.4byte	.LASF245
 4931 1006 2F       		.sleb128 47
 4932 1007 06       		.uleb128 0x6
 4933 1008 E50D0000 		.4byte	.LASF246
 4934 100c 30       		.sleb128 48
 4935 100d 00       		.byte	0
 4936 100e 03       		.uleb128 0x3
 4937 100f B00E0000 		.4byte	.LASF247
 4938 1013 0F       		.byte	0xf
 4939 1014 85       		.byte	0x85
 4940 1015 DF0E0000 		.4byte	0xedf
 4941 1019 12       		.uleb128 0x12
 4942 101a 0C       		.byte	0xc
 4943 101b 10       		.byte	0x10
 4944 101c 36       		.byte	0x36
 4945 101d 46100000 		.4byte	0x1046
 4946 1021 15       		.uleb128 0x15
 4947 1022 62756600 		.ascii	"buf\000"
 4948 1026 10       		.byte	0x10
 4949 1027 38       		.byte	0x38
 4950 1028 C5000000 		.4byte	0xc5
 4951 102c 00       		.byte	0
 4952 102d 13       		.uleb128 0x13
 4953 102e 22090000 		.4byte	.LASF248
 4954 1032 10       		.byte	0x10
 4955 1033 39       		.byte	0x39
 4956 1034 2C000000 		.4byte	0x2c
 4957 1038 04       		.byte	0x4
 4958 1039 13       		.uleb128 0x13
 4959 103a 730B0000 		.4byte	.LASF249
 4960 103e 10       		.byte	0x10
 4961 103f 3A       		.byte	0x3a
ARM GAS  C:\Users\jo\AppData\Local\Temp\ccRMLSMa.s 			page 89


 4962 1040 C5000000 		.4byte	0xc5
 4963 1044 08       		.byte	0x8
 4964 1045 00       		.byte	0
 4965 1046 03       		.uleb128 0x3
 4966 1047 DD020000 		.4byte	.LASF250
 4967 104b 10       		.byte	0x10
 4968 104c 3C       		.byte	0x3c
 4969 104d 19100000 		.4byte	0x1019
 4970 1051 23       		.uleb128 0x23
 4971 1052 6F040000 		.4byte	.LASF254
 4972 1056 01       		.byte	0x1
 4973 1057 1C02     		.2byte	0x21c
 4974 1059 25000000 		.4byte	0x25
 4975 105d 01       		.byte	0x1
 4976 105e A9100000 		.4byte	0x10a9
 4977 1062 24       		.uleb128 0x24
 4978 1063 7000     		.ascii	"p\000"
 4979 1065 01       		.byte	0x1
 4980 1066 1C02     		.2byte	0x21c
 4981 1068 A9100000 		.4byte	0x10a9
 4982 106c 24       		.uleb128 0x24
 4983 106d 656E6400 		.ascii	"end\000"
 4984 1071 01       		.byte	0x1
 4985 1072 1D02     		.2byte	0x21d
 4986 1074 B3000000 		.4byte	0xb3
 4987 1078 25       		.uleb128 0x25
 4988 1079 DE090000 		.4byte	.LASF251
 4989 107d 01       		.byte	0x1
 4990 107e 1E02     		.2byte	0x21e
 4991 1080 AF100000 		.4byte	0x10af
 4992 1084 25       		.uleb128 0x25
 4993 1085 21000000 		.4byte	.LASF252
 4994 1089 01       		.byte	0x1
 4995 108a 1E02     		.2byte	0x21e
 4996 108c B5100000 		.4byte	0x10b5
 4997 1090 26       		.uleb128 0x26
 4998 1091 72657400 		.ascii	"ret\000"
 4999 1095 01       		.byte	0x1
 5000 1096 2002     		.2byte	0x220
 5001 1098 25000000 		.4byte	0x25
 5002 109c 27       		.uleb128 0x27
 5003 109d 94110000 		.4byte	.LASF253
 5004 10a1 01       		.byte	0x1
 5005 10a2 2102     		.2byte	0x221
 5006 10a4 D40E0000 		.4byte	0xed4
 5007 10a8 00       		.byte	0
 5008 10a9 07       		.uleb128 0x7
 5009 10aa 04       		.byte	0x4
 5010 10ab C5000000 		.4byte	0xc5
 5011 10af 07       		.uleb128 0x7
 5012 10b0 04       		.byte	0x4
 5013 10b1 370C0000 		.4byte	0xc37
 5014 10b5 07       		.uleb128 0x7
 5015 10b6 04       		.byte	0x4
 5016 10b7 D40E0000 		.4byte	0xed4
 5017 10bb 28       		.uleb128 0x28
 5018 10bc 3B0B0000 		.4byte	.LASF255
ARM GAS  C:\Users\jo\AppData\Local\Temp\ccRMLSMa.s 			page 90


 5019 10c0 01       		.byte	0x1
 5020 10c1 DB       		.byte	0xdb
 5021 10c2 25000000 		.4byte	0x25
 5022 10c6 01       		.byte	0x1
 5023 10c7 2D110000 		.4byte	0x112d
 5024 10cb 29       		.uleb128 0x29
 5025 10cc 21000000 		.4byte	.LASF252
 5026 10d0 01       		.byte	0x1
 5027 10d1 DB       		.byte	0xdb
 5028 10d2 2D110000 		.4byte	0x112d
 5029 10d6 2A       		.uleb128 0x2a
 5030 10d7 67727000 		.ascii	"grp\000"
 5031 10db 01       		.byte	0x1
 5032 10dc DB       		.byte	0xdb
 5033 10dd 38110000 		.4byte	0x1138
 5034 10e1 2B       		.uleb128 0x2b
 5035 10e2 72657400 		.ascii	"ret\000"
 5036 10e6 01       		.byte	0x1
 5037 10e7 DD       		.byte	0xdd
 5038 10e8 25000000 		.4byte	0x25
 5039 10ec 2B       		.uleb128 0x2b
 5040 10ed 7000     		.ascii	"p\000"
 5041 10ef 01       		.byte	0x1
 5042 10f0 DE       		.byte	0xde
 5043 10f1 C5000000 		.4byte	0xc5
 5044 10f5 2B       		.uleb128 0x2b
 5045 10f6 656E6400 		.ascii	"end\000"
 5046 10fa 01       		.byte	0x1
 5047 10fb DF       		.byte	0xdf
 5048 10fc 3E110000 		.4byte	0x113e
 5049 1100 2C       		.uleb128 0x2c
 5050 1101 8D090000 		.4byte	.LASF256
 5051 1105 01       		.byte	0x1
 5052 1106 E0       		.byte	0xe0
 5053 1107 B3000000 		.4byte	0xb3
 5054 110b 2C       		.uleb128 0x2c
 5055 110c 51050000 		.4byte	.LASF257
 5056 1110 01       		.byte	0x1
 5057 1111 E0       		.byte	0xe0
 5058 1112 B3000000 		.4byte	0xb3
 5059 1116 2B       		.uleb128 0x2b
 5060 1117 6C656E00 		.ascii	"len\000"
 5061 111b 01       		.byte	0x1
 5062 111c E1       		.byte	0xe1
 5063 111d 2C000000 		.4byte	0x2c
 5064 1121 2B       		.uleb128 0x2b
 5065 1122 76657200 		.ascii	"ver\000"
 5066 1126 01       		.byte	0x1
 5067 1127 E2       		.byte	0xe2
 5068 1128 25000000 		.4byte	0x25
 5069 112c 00       		.byte	0
 5070 112d 07       		.uleb128 0x7
 5071 112e 04       		.byte	0x4
 5072 112f 33110000 		.4byte	0x1133
 5073 1133 08       		.uleb128 0x8
 5074 1134 D40E0000 		.4byte	0xed4
 5075 1138 07       		.uleb128 0x7
ARM GAS  C:\Users\jo\AppData\Local\Temp\ccRMLSMa.s 			page 91


 5076 1139 04       		.byte	0x4
 5077 113a C50B0000 		.4byte	0xbc5
 5078 113e 08       		.uleb128 0x8
 5079 113f B3000000 		.4byte	0xb3
 5080 1143 2D       		.uleb128 0x2d
 5081 1144 82070000 		.4byte	.LASF336
 5082 1148 01       		.byte	0x1
 5083 1149 42       		.byte	0x42
 5084 114a 01       		.byte	0x1
 5085 114b 6B110000 		.4byte	0x116b
 5086 114f 2A       		.uleb128 0x2a
 5087 1150 7600     		.ascii	"v\000"
 5088 1152 01       		.byte	0x1
 5089 1153 42       		.byte	0x42
 5090 1154 AB000000 		.4byte	0xab
 5091 1158 2A       		.uleb128 0x2a
 5092 1159 6E00     		.ascii	"n\000"
 5093 115b 01       		.byte	0x1
 5094 115c 42       		.byte	0x42
 5095 115d 2C000000 		.4byte	0x2c
 5096 1161 2B       		.uleb128 0x2b
 5097 1162 7000     		.ascii	"p\000"
 5098 1164 01       		.byte	0x1
 5099 1165 43       		.byte	0x43
 5100 1166 6B110000 		.4byte	0x116b
 5101 116a 00       		.byte	0
 5102 116b 07       		.uleb128 0x7
 5103 116c 04       		.byte	0x4
 5104 116d 71110000 		.4byte	0x1171
 5105 1171 2E       		.uleb128 0x2e
 5106 1172 BE000000 		.4byte	0xbe
 5107 1176 2F       		.uleb128 0x2f
 5108 1177 CE080000 		.4byte	.LASF263
 5109 117b 01       		.byte	0x1
 5110 117c 7C02     		.2byte	0x27c
 5111 117e 25000000 		.4byte	0x25
 5112 1182 00000000 		.4byte	.LFB24
 5113 1186 14010000 		.4byte	.LFE24-.LFB24
 5114 118a 01       		.uleb128 0x1
 5115 118b 9C       		.byte	0x9c
 5116 118c A4130000 		.4byte	0x13a4
 5117 1190 30       		.uleb128 0x30
 5118 1191 72736100 		.ascii	"rsa\000"
 5119 1195 01       		.byte	0x1
 5120 1196 7C02     		.2byte	0x27c
 5121 1198 A4130000 		.4byte	0x13a4
 5122 119c 00000000 		.4byte	.LLST0
 5123 11a0 30       		.uleb128 0x30
 5124 11a1 6B657900 		.ascii	"key\000"
 5125 11a5 01       		.byte	0x1
 5126 11a6 7D02     		.2byte	0x27d
 5127 11a8 B3000000 		.4byte	0xb3
 5128 11ac 4A000000 		.4byte	.LLST1
 5129 11b0 31       		.uleb128 0x31
 5130 11b1 8E080000 		.4byte	.LASF258
 5131 11b5 01       		.byte	0x1
 5132 11b6 7E02     		.2byte	0x27e
ARM GAS  C:\Users\jo\AppData\Local\Temp\ccRMLSMa.s 			page 92


 5133 11b8 2C000000 		.4byte	0x2c
 5134 11bc 77000000 		.4byte	.LLST2
 5135 11c0 32       		.uleb128 0x32
 5136 11c1 72657400 		.ascii	"ret\000"
 5137 11c5 01       		.byte	0x1
 5138 11c6 8002     		.2byte	0x280
 5139 11c8 25000000 		.4byte	0x25
 5140 11cc 98000000 		.4byte	.LLST3
 5141 11d0 33       		.uleb128 0x33
 5142 11d1 6C656E00 		.ascii	"len\000"
 5143 11d5 01       		.byte	0x1
 5144 11d6 8102     		.2byte	0x281
 5145 11d8 2C000000 		.4byte	0x2c
 5146 11dc 02       		.uleb128 0x2
 5147 11dd 91       		.byte	0x91
 5148 11de 60       		.sleb128 -32
 5149 11df 33       		.uleb128 0x33
 5150 11e0 7000     		.ascii	"p\000"
 5151 11e2 01       		.byte	0x1
 5152 11e3 8202     		.2byte	0x282
 5153 11e5 C5000000 		.4byte	0xc5
 5154 11e9 02       		.uleb128 0x2
 5155 11ea 91       		.byte	0x91
 5156 11eb 64       		.sleb128 -28
 5157 11ec 32       		.uleb128 0x32
 5158 11ed 656E6400 		.ascii	"end\000"
 5159 11f1 01       		.byte	0x1
 5160 11f2 8202     		.2byte	0x282
 5161 11f4 C5000000 		.4byte	0xc5
 5162 11f8 B3010000 		.4byte	.LLST4
 5163 11fc 34       		.uleb128 0x34
 5164 11fd 1A000000 		.4byte	.LVL5
 5165 1201 1E2D0000 		.4byte	0x2d1e
 5166 1205 27120000 		.4byte	0x1227
 5167 1209 35       		.uleb128 0x35
 5168 120a 01       		.uleb128 0x1
 5169 120b 53       		.byte	0x53
 5170 120c 02       		.uleb128 0x2
 5171 120d 08       		.byte	0x8
 5172 120e 30       		.byte	0x30
 5173 120f 35       		.uleb128 0x35
 5174 1210 01       		.uleb128 0x1
 5175 1211 52       		.byte	0x52
 5176 1212 02       		.uleb128 0x2
 5177 1213 7D       		.byte	0x7d
 5178 1214 00       		.sleb128 0
 5179 1215 35       		.uleb128 0x35
 5180 1216 01       		.uleb128 0x1
 5181 1217 51       		.byte	0x51
 5182 1218 07       		.uleb128 0x7
 5183 1219 F3       		.byte	0xf3
 5184 121a 01       		.uleb128 0x1
 5185 121b 51       		.byte	0x51
 5186 121c F3       		.byte	0xf3
 5187 121d 01       		.uleb128 0x1
 5188 121e 52       		.byte	0x52
 5189 121f 22       		.byte	0x22
ARM GAS  C:\Users\jo\AppData\Local\Temp\ccRMLSMa.s 			page 93


 5190 1220 35       		.uleb128 0x35
 5191 1221 01       		.uleb128 0x1
 5192 1222 50       		.byte	0x50
 5193 1223 02       		.uleb128 0x2
 5194 1224 75       		.byte	0x75
 5195 1225 00       		.sleb128 0
 5196 1226 00       		.byte	0
 5197 1227 34       		.uleb128 0x34
 5198 1228 36000000 		.4byte	.LVL11
 5199 122c 422D0000 		.4byte	0x2d42
 5200 1230 47120000 		.4byte	0x1247
 5201 1234 35       		.uleb128 0x35
 5202 1235 01       		.uleb128 0x1
 5203 1236 52       		.byte	0x52
 5204 1237 02       		.uleb128 0x2
 5205 1238 76       		.byte	0x76
 5206 1239 00       		.sleb128 0
 5207 123a 35       		.uleb128 0x35
 5208 123b 01       		.uleb128 0x1
 5209 123c 51       		.byte	0x51
 5210 123d 02       		.uleb128 0x2
 5211 123e 77       		.byte	0x77
 5212 123f 00       		.sleb128 0
 5213 1240 35       		.uleb128 0x35
 5214 1241 01       		.uleb128 0x1
 5215 1242 50       		.byte	0x50
 5216 1243 02       		.uleb128 0x2
 5217 1244 75       		.byte	0x75
 5218 1245 00       		.sleb128 0
 5219 1246 00       		.byte	0
 5220 1247 34       		.uleb128 0x34
 5221 1248 4E000000 		.4byte	.LVL13
 5222 124c 672D0000 		.4byte	0x2d67
 5223 1250 67120000 		.4byte	0x1267
 5224 1254 35       		.uleb128 0x35
 5225 1255 01       		.uleb128 0x1
 5226 1256 52       		.byte	0x52
 5227 1257 02       		.uleb128 0x2
 5228 1258 78       		.byte	0x78
 5229 1259 00       		.sleb128 0
 5230 125a 35       		.uleb128 0x35
 5231 125b 01       		.uleb128 0x1
 5232 125c 51       		.byte	0x51
 5233 125d 02       		.uleb128 0x2
 5234 125e 77       		.byte	0x77
 5235 125f 00       		.sleb128 0
 5236 1260 35       		.uleb128 0x35
 5237 1261 01       		.uleb128 0x1
 5238 1262 50       		.byte	0x50
 5239 1263 02       		.uleb128 0x2
 5240 1264 75       		.byte	0x75
 5241 1265 00       		.sleb128 0
 5242 1266 00       		.byte	0
 5243 1267 34       		.uleb128 0x34
 5244 1268 5E000000 		.4byte	.LVL15
 5245 126c 672D0000 		.4byte	0x2d67
 5246 1270 87120000 		.4byte	0x1287
ARM GAS  C:\Users\jo\AppData\Local\Temp\ccRMLSMa.s 			page 94


 5247 1274 35       		.uleb128 0x35
 5248 1275 01       		.uleb128 0x1
 5249 1276 52       		.byte	0x52
 5250 1277 02       		.uleb128 0x2
 5251 1278 76       		.byte	0x76
 5252 1279 14       		.sleb128 20
 5253 127a 35       		.uleb128 0x35
 5254 127b 01       		.uleb128 0x1
 5255 127c 51       		.byte	0x51
 5256 127d 02       		.uleb128 0x2
 5257 127e 77       		.byte	0x77
 5258 127f 00       		.sleb128 0
 5259 1280 35       		.uleb128 0x35
 5260 1281 01       		.uleb128 0x1
 5261 1282 50       		.byte	0x50
 5262 1283 02       		.uleb128 0x2
 5263 1284 75       		.byte	0x75
 5264 1285 00       		.sleb128 0
 5265 1286 00       		.byte	0
 5266 1287 34       		.uleb128 0x34
 5267 1288 6E000000 		.4byte	.LVL17
 5268 128c 672D0000 		.4byte	0x2d67
 5269 1290 A7120000 		.4byte	0x12a7
 5270 1294 35       		.uleb128 0x35
 5271 1295 01       		.uleb128 0x1
 5272 1296 52       		.byte	0x52
 5273 1297 02       		.uleb128 0x2
 5274 1298 76       		.byte	0x76
 5275 1299 20       		.sleb128 32
 5276 129a 35       		.uleb128 0x35
 5277 129b 01       		.uleb128 0x1
 5278 129c 51       		.byte	0x51
 5279 129d 02       		.uleb128 0x2
 5280 129e 77       		.byte	0x77
 5281 129f 00       		.sleb128 0
 5282 12a0 35       		.uleb128 0x35
 5283 12a1 01       		.uleb128 0x1
 5284 12a2 50       		.byte	0x50
 5285 12a3 02       		.uleb128 0x2
 5286 12a4 75       		.byte	0x75
 5287 12a5 00       		.sleb128 0
 5288 12a6 00       		.byte	0
 5289 12a7 34       		.uleb128 0x34
 5290 12a8 78000000 		.4byte	.LVL19
 5291 12ac 872D0000 		.4byte	0x2d87
 5292 12b0 BB120000 		.4byte	0x12bb
 5293 12b4 35       		.uleb128 0x35
 5294 12b5 01       		.uleb128 0x1
 5295 12b6 50       		.byte	0x50
 5296 12b7 02       		.uleb128 0x2
 5297 12b8 76       		.byte	0x76
 5298 12b9 00       		.sleb128 0
 5299 12ba 00       		.byte	0
 5300 12bb 34       		.uleb128 0x34
 5301 12bc 8E000000 		.4byte	.LVL22
 5302 12c0 672D0000 		.4byte	0x2d67
 5303 12c4 DB120000 		.4byte	0x12db
ARM GAS  C:\Users\jo\AppData\Local\Temp\ccRMLSMa.s 			page 95


 5304 12c8 35       		.uleb128 0x35
 5305 12c9 01       		.uleb128 0x1
 5306 12ca 52       		.byte	0x52
 5307 12cb 02       		.uleb128 0x2
 5308 12cc 76       		.byte	0x76
 5309 12cd 2C       		.sleb128 44
 5310 12ce 35       		.uleb128 0x35
 5311 12cf 01       		.uleb128 0x1
 5312 12d0 51       		.byte	0x51
 5313 12d1 02       		.uleb128 0x2
 5314 12d2 77       		.byte	0x77
 5315 12d3 00       		.sleb128 0
 5316 12d4 35       		.uleb128 0x35
 5317 12d5 01       		.uleb128 0x1
 5318 12d6 50       		.byte	0x50
 5319 12d7 02       		.uleb128 0x2
 5320 12d8 75       		.byte	0x75
 5321 12d9 00       		.sleb128 0
 5322 12da 00       		.byte	0
 5323 12db 34       		.uleb128 0x34
 5324 12dc A0000000 		.4byte	.LVL24
 5325 12e0 672D0000 		.4byte	0x2d67
 5326 12e4 FB120000 		.4byte	0x12fb
 5327 12e8 35       		.uleb128 0x35
 5328 12e9 01       		.uleb128 0x1
 5329 12ea 52       		.byte	0x52
 5330 12eb 02       		.uleb128 0x2
 5331 12ec 76       		.byte	0x76
 5332 12ed 38       		.sleb128 56
 5333 12ee 35       		.uleb128 0x35
 5334 12ef 01       		.uleb128 0x1
 5335 12f0 51       		.byte	0x51
 5336 12f1 02       		.uleb128 0x2
 5337 12f2 77       		.byte	0x77
 5338 12f3 00       		.sleb128 0
 5339 12f4 35       		.uleb128 0x35
 5340 12f5 01       		.uleb128 0x1
 5341 12f6 50       		.byte	0x50
 5342 12f7 02       		.uleb128 0x2
 5343 12f8 75       		.byte	0x75
 5344 12f9 00       		.sleb128 0
 5345 12fa 00       		.byte	0
 5346 12fb 34       		.uleb128 0x34
 5347 12fc B2000000 		.4byte	.LVL26
 5348 1300 672D0000 		.4byte	0x2d67
 5349 1304 1C130000 		.4byte	0x131c
 5350 1308 35       		.uleb128 0x35
 5351 1309 01       		.uleb128 0x1
 5352 130a 52       		.byte	0x52
 5353 130b 03       		.uleb128 0x3
 5354 130c 76       		.byte	0x76
 5355 130d C400     		.sleb128 68
 5356 130f 35       		.uleb128 0x35
 5357 1310 01       		.uleb128 0x1
 5358 1311 51       		.byte	0x51
 5359 1312 02       		.uleb128 0x2
 5360 1313 77       		.byte	0x77
ARM GAS  C:\Users\jo\AppData\Local\Temp\ccRMLSMa.s 			page 96


 5361 1314 00       		.sleb128 0
 5362 1315 35       		.uleb128 0x35
 5363 1316 01       		.uleb128 0x1
 5364 1317 50       		.byte	0x50
 5365 1318 02       		.uleb128 0x2
 5366 1319 75       		.byte	0x75
 5367 131a 00       		.sleb128 0
 5368 131b 00       		.byte	0
 5369 131c 34       		.uleb128 0x34
 5370 131d C4000000 		.4byte	.LVL28
 5371 1321 672D0000 		.4byte	0x2d67
 5372 1325 3D130000 		.4byte	0x133d
 5373 1329 35       		.uleb128 0x35
 5374 132a 01       		.uleb128 0x1
 5375 132b 52       		.byte	0x52
 5376 132c 03       		.uleb128 0x3
 5377 132d 76       		.byte	0x76
 5378 132e D000     		.sleb128 80
 5379 1330 35       		.uleb128 0x35
 5380 1331 01       		.uleb128 0x1
 5381 1332 51       		.byte	0x51
 5382 1333 02       		.uleb128 0x2
 5383 1334 77       		.byte	0x77
 5384 1335 00       		.sleb128 0
 5385 1336 35       		.uleb128 0x35
 5386 1337 01       		.uleb128 0x1
 5387 1338 50       		.byte	0x50
 5388 1339 02       		.uleb128 0x2
 5389 133a 75       		.byte	0x75
 5390 133b 00       		.sleb128 0
 5391 133c 00       		.byte	0
 5392 133d 34       		.uleb128 0x34
 5393 133e D6000000 		.4byte	.LVL30
 5394 1342 672D0000 		.4byte	0x2d67
 5395 1346 5E130000 		.4byte	0x135e
 5396 134a 35       		.uleb128 0x35
 5397 134b 01       		.uleb128 0x1
 5398 134c 52       		.byte	0x52
 5399 134d 03       		.uleb128 0x3
 5400 134e 76       		.byte	0x76
 5401 134f DC00     		.sleb128 92
 5402 1351 35       		.uleb128 0x35
 5403 1352 01       		.uleb128 0x1
 5404 1353 51       		.byte	0x51
 5405 1354 02       		.uleb128 0x2
 5406 1355 77       		.byte	0x77
 5407 1356 00       		.sleb128 0
 5408 1357 35       		.uleb128 0x35
 5409 1358 01       		.uleb128 0x1
 5410 1359 50       		.byte	0x50
 5411 135a 02       		.uleb128 0x2
 5412 135b 75       		.byte	0x75
 5413 135c 00       		.sleb128 0
 5414 135d 00       		.byte	0
 5415 135e 34       		.uleb128 0x34
 5416 135f E2000000 		.4byte	.LVL32
 5417 1363 992D0000 		.4byte	0x2d99
ARM GAS  C:\Users\jo\AppData\Local\Temp\ccRMLSMa.s 			page 97


 5418 1367 72130000 		.4byte	0x1372
 5419 136b 35       		.uleb128 0x35
 5420 136c 01       		.uleb128 0x1
 5421 136d 50       		.byte	0x50
 5422 136e 02       		.uleb128 0x2
 5423 136f 78       		.byte	0x78
 5424 1370 00       		.sleb128 0
 5425 1371 00       		.byte	0
 5426 1372 34       		.uleb128 0x34
 5427 1373 F0000000 		.4byte	.LVL34
 5428 1377 BA2D0000 		.4byte	0x2dba
 5429 137b 86130000 		.4byte	0x1386
 5430 137f 35       		.uleb128 0x35
 5431 1380 01       		.uleb128 0x1
 5432 1381 50       		.byte	0x50
 5433 1382 02       		.uleb128 0x2
 5434 1383 76       		.byte	0x76
 5435 1384 00       		.sleb128 0
 5436 1385 00       		.byte	0
 5437 1386 34       		.uleb128 0x34
 5438 1387 FC000000 		.4byte	.LVL36
 5439 138b 872D0000 		.4byte	0x2d87
 5440 138f 9A130000 		.4byte	0x139a
 5441 1393 35       		.uleb128 0x35
 5442 1394 01       		.uleb128 0x1
 5443 1395 50       		.byte	0x50
 5444 1396 02       		.uleb128 0x2
 5445 1397 76       		.byte	0x76
 5446 1398 00       		.sleb128 0
 5447 1399 00       		.byte	0
 5448 139a 36       		.uleb128 0x36
 5449 139b 08010000 		.4byte	.LVL40
 5450 139f 872D0000 		.4byte	0x2d87
 5451 13a3 00       		.byte	0
 5452 13a4 07       		.uleb128 0x7
 5453 13a5 04       		.byte	0x4
 5454 13a6 2B0A0000 		.4byte	0xa2b
 5455 13aa 37       		.uleb128 0x37
 5456 13ab 51100000 		.4byte	0x1051
 5457 13af 00000000 		.4byte	.LFB22
 5458 13b3 80000000 		.4byte	.LFE22-.LFB22
 5459 13b7 01       		.uleb128 0x1
 5460 13b8 9C       		.byte	0x9c
 5461 13b9 6F140000 		.4byte	0x146f
 5462 13bd 38       		.uleb128 0x38
 5463 13be 62100000 		.4byte	0x1062
 5464 13c2 05020000 		.4byte	.LLST5
 5465 13c6 38       		.uleb128 0x38
 5466 13c7 6C100000 		.4byte	0x106c
 5467 13cb 26020000 		.4byte	.LLST6
 5468 13cf 38       		.uleb128 0x38
 5469 13d0 78100000 		.4byte	0x1078
 5470 13d4 47020000 		.4byte	.LLST7
 5471 13d8 38       		.uleb128 0x38
 5472 13d9 84100000 		.4byte	0x1084
 5473 13dd 65020000 		.4byte	.LLST8
 5474 13e1 39       		.uleb128 0x39
ARM GAS  C:\Users\jo\AppData\Local\Temp\ccRMLSMa.s 			page 98


 5475 13e2 90100000 		.4byte	0x1090
 5476 13e6 83020000 		.4byte	.LLST9
 5477 13ea 3A       		.uleb128 0x3a
 5478 13eb 9C100000 		.4byte	0x109c
 5479 13ef 02       		.uleb128 0x2
 5480 13f0 91       		.byte	0x91
 5481 13f1 5C       		.sleb128 -36
 5482 13f2 3B       		.uleb128 0x3b
 5483 13f3 00000000 		.4byte	.Ldebug_ranges0+0
 5484 13f7 30140000 		.4byte	0x1430
 5485 13fb 38       		.uleb128 0x38
 5486 13fc 62100000 		.4byte	0x1062
 5487 1400 A1020000 		.4byte	.LLST10
 5488 1404 38       		.uleb128 0x38
 5489 1405 6C100000 		.4byte	0x106c
 5490 1409 A1020000 		.4byte	.LLST10
 5491 140d 38       		.uleb128 0x38
 5492 140e 84100000 		.4byte	0x1084
 5493 1412 C5020000 		.4byte	.LLST12
 5494 1416 38       		.uleb128 0x38
 5495 1417 78100000 		.4byte	0x1078
 5496 141b E3020000 		.4byte	.LLST13
 5497 141f 3C       		.uleb128 0x3c
 5498 1420 00000000 		.4byte	.Ldebug_ranges0+0
 5499 1424 3D       		.uleb128 0x3d
 5500 1425 90100000 		.4byte	0x1090
 5501 1429 3D       		.uleb128 0x3d
 5502 142a 9C100000 		.4byte	0x109c
 5503 142e 00       		.byte	0
 5504 142f 00       		.byte	0
 5505 1430 34       		.uleb128 0x34
 5506 1431 40000000 		.4byte	.LVL43
 5507 1435 DA2D0000 		.4byte	0x2dda
 5508 1439 58140000 		.4byte	0x1458
 5509 143d 35       		.uleb128 0x35
 5510 143e 01       		.uleb128 0x1
 5511 143f 53       		.byte	0x53
 5512 1440 02       		.uleb128 0x2
 5513 1441 76       		.byte	0x76
 5514 1442 00       		.sleb128 0
 5515 1443 35       		.uleb128 0x35
 5516 1444 01       		.uleb128 0x1
 5517 1445 52       		.byte	0x52
 5518 1446 02       		.uleb128 0x2
 5519 1447 91       		.byte	0x91
 5520 1448 5C       		.sleb128 -36
 5521 1449 35       		.uleb128 0x35
 5522 144a 01       		.uleb128 0x1
 5523 144b 51       		.byte	0x51
 5524 144c 03       		.uleb128 0x3
 5525 144d F3       		.byte	0xf3
 5526 144e 01       		.uleb128 0x1
 5527 144f 51       		.byte	0x51
 5528 1450 35       		.uleb128 0x35
 5529 1451 01       		.uleb128 0x1
 5530 1452 50       		.byte	0x50
 5531 1453 03       		.uleb128 0x3
ARM GAS  C:\Users\jo\AppData\Local\Temp\ccRMLSMa.s 			page 99


 5532 1454 F3       		.byte	0xf3
 5533 1455 01       		.uleb128 0x1
 5534 1456 50       		.byte	0x50
 5535 1457 00       		.byte	0
 5536 1458 3E       		.uleb128 0x3e
 5537 1459 52000000 		.4byte	.LVL47
 5538 145d FF2D0000 		.4byte	0x2dff
 5539 1461 35       		.uleb128 0x35
 5540 1462 01       		.uleb128 0x1
 5541 1463 51       		.byte	0x51
 5542 1464 02       		.uleb128 0x2
 5543 1465 77       		.byte	0x77
 5544 1466 00       		.sleb128 0
 5545 1467 35       		.uleb128 0x35
 5546 1468 01       		.uleb128 0x1
 5547 1469 50       		.byte	0x50
 5548 146a 02       		.uleb128 0x2
 5549 146b 91       		.byte	0x91
 5550 146c 5C       		.sleb128 -36
 5551 146d 00       		.byte	0
 5552 146e 00       		.byte	0
 5553 146f 23       		.uleb128 0x23
 5554 1470 38030000 		.4byte	.LASF259
 5555 1474 01       		.byte	0x1
 5556 1475 9801     		.2byte	0x198
 5557 1477 25000000 		.4byte	0x25
 5558 147b 01       		.byte	0x1
 5559 147c B9140000 		.4byte	0x14b9
 5560 1480 25       		.uleb128 0x25
 5561 1481 21000000 		.4byte	.LASF252
 5562 1485 01       		.byte	0x1
 5563 1486 9801     		.2byte	0x198
 5564 1488 2D110000 		.4byte	0x112d
 5565 148c 25       		.uleb128 0x25
 5566 148d 1B090000 		.4byte	.LASF260
 5567 1491 01       		.byte	0x1
 5568 1492 9901     		.2byte	0x199
 5569 1494 B9140000 		.4byte	0x14b9
 5570 1498 26       		.uleb128 0x26
 5571 1499 72657400 		.ascii	"ret\000"
 5572 149d 01       		.byte	0x1
 5573 149e 9B01     		.2byte	0x19b
 5574 14a0 25000000 		.4byte	0x25
 5575 14a4 26       		.uleb128 0x26
 5576 14a5 67727000 		.ascii	"grp\000"
 5577 14a9 01       		.byte	0x1
 5578 14aa 9C01     		.2byte	0x19c
 5579 14ac C50B0000 		.4byte	0xbc5
 5580 14b0 3F       		.uleb128 0x3f
 5581 14b1 10040000 		.4byte	.LASF262
 5582 14b5 01       		.byte	0x1
 5583 14b6 A501     		.2byte	0x1a5
 5584 14b8 00       		.byte	0
 5585 14b9 07       		.uleb128 0x7
 5586 14ba 04       		.byte	0x4
 5587 14bb 9F0A0000 		.4byte	0xa9f
 5588 14bf 23       		.uleb128 0x23
ARM GAS  C:\Users\jo\AppData\Local\Temp\ccRMLSMa.s 			page 100


 5589 14c0 93070000 		.4byte	.LASF261
 5590 14c4 01       		.byte	0x1
 5591 14c5 6C01     		.2byte	0x16c
 5592 14c7 25000000 		.4byte	0x25
 5593 14cb 01       		.byte	0x1
 5594 14cc 14150000 		.4byte	0x1514
 5595 14d0 24       		.uleb128 0x24
 5596 14d1 67727000 		.ascii	"grp\000"
 5597 14d5 01       		.byte	0x1
 5598 14d6 6C01     		.2byte	0x16c
 5599 14d8 14150000 		.4byte	0x1514
 5600 14dc 25       		.uleb128 0x25
 5601 14dd 1B090000 		.4byte	.LASF260
 5602 14e1 01       		.byte	0x1
 5603 14e2 6C01     		.2byte	0x16c
 5604 14e4 B9140000 		.4byte	0x14b9
 5605 14e8 26       		.uleb128 0x26
 5606 14e9 72657400 		.ascii	"ret\000"
 5607 14ed 01       		.byte	0x1
 5608 14ee 6E01     		.2byte	0x16e
 5609 14f0 25000000 		.4byte	0x25
 5610 14f4 26       		.uleb128 0x26
 5611 14f5 72656600 		.ascii	"ref\000"
 5612 14f9 01       		.byte	0x1
 5613 14fa 6F01     		.2byte	0x16f
 5614 14fc C50B0000 		.4byte	0xbc5
 5615 1500 26       		.uleb128 0x26
 5616 1501 696400   		.ascii	"id\000"
 5617 1504 01       		.byte	0x1
 5618 1505 7001     		.2byte	0x170
 5619 1507 1F150000 		.4byte	0x151f
 5620 150b 3F       		.uleb128 0x3f
 5621 150c 10040000 		.4byte	.LASF262
 5622 1510 01       		.byte	0x1
 5623 1511 8A01     		.2byte	0x18a
 5624 1513 00       		.byte	0
 5625 1514 07       		.uleb128 0x7
 5626 1515 04       		.byte	0x4
 5627 1516 1A150000 		.4byte	0x151a
 5628 151a 08       		.uleb128 0x8
 5629 151b C50B0000 		.4byte	0xbc5
 5630 151f 07       		.uleb128 0x7
 5631 1520 04       		.byte	0x4
 5632 1521 25150000 		.4byte	0x1525
 5633 1525 08       		.uleb128 0x8
 5634 1526 9F0A0000 		.4byte	0xa9f
 5635 152a 2F       		.uleb128 0x2f
 5636 152b 8B0F0000 		.4byte	.LASF264
 5637 152f 01       		.byte	0x1
 5638 1530 B401     		.2byte	0x1b4
 5639 1532 25000000 		.4byte	0x25
 5640 1536 00000000 		.4byte	.LFB19
 5641 153a D8020000 		.4byte	.LFE19-.LFB19
 5642 153e 01       		.uleb128 0x1
 5643 153f 9C       		.byte	0x9c
 5644 1540 7C1A0000 		.4byte	0x1a7c
 5645 1544 31       		.uleb128 0x31
ARM GAS  C:\Users\jo\AppData\Local\Temp\ccRMLSMa.s 			page 101


 5646 1545 21000000 		.4byte	.LASF252
 5647 1549 01       		.byte	0x1
 5648 154a B401     		.2byte	0x1b4
 5649 154c 2D110000 		.4byte	0x112d
 5650 1550 01030000 		.4byte	.LLST14
 5651 1554 30       		.uleb128 0x30
 5652 1555 67727000 		.ascii	"grp\000"
 5653 1559 01       		.byte	0x1
 5654 155a B401     		.2byte	0x1b4
 5655 155c 38110000 		.4byte	0x1138
 5656 1560 6A030000 		.4byte	.LLST15
 5657 1564 26       		.uleb128 0x26
 5658 1565 72657400 		.ascii	"ret\000"
 5659 1569 01       		.byte	0x1
 5660 156a B601     		.2byte	0x1b6
 5661 156c 25000000 		.4byte	0x25
 5662 1570 40       		.uleb128 0x40
 5663 1571 1B090000 		.4byte	.LASF260
 5664 1575 01       		.byte	0x1
 5665 1576 B701     		.2byte	0x1b7
 5666 1578 9F0A0000 		.4byte	0xa9f
 5667 157c 03       		.uleb128 0x3
 5668 157d 91       		.byte	0x91
 5669 157e EC7D     		.sleb128 -276
 5670 1580 41       		.uleb128 0x41
 5671 1581 6F140000 		.4byte	0x146f
 5672 1585 10000000 		.4byte	.LBB18
 5673 1589 18000000 		.4byte	.Ldebug_ranges0+0x18
 5674 158d 01       		.byte	0x1
 5675 158e C101     		.2byte	0x1c1
 5676 1590 561A0000 		.4byte	0x1a56
 5677 1594 38       		.uleb128 0x38
 5678 1595 8C140000 		.4byte	0x148c
 5679 1599 9E030000 		.4byte	.LLST16
 5680 159d 38       		.uleb128 0x38
 5681 159e 80140000 		.4byte	0x1480
 5682 15a2 9B040000 		.4byte	.LLST17
 5683 15a6 3C       		.uleb128 0x3c
 5684 15a7 18000000 		.4byte	.Ldebug_ranges0+0x18
 5685 15ab 39       		.uleb128 0x39
 5686 15ac 98140000 		.4byte	0x1498
 5687 15b0 FF040000 		.4byte	.LLST18
 5688 15b4 3A       		.uleb128 0x3a
 5689 15b5 A4140000 		.4byte	0x14a4
 5690 15b9 03       		.uleb128 0x3
 5691 15ba 91       		.byte	0x91
 5692 15bb F07D     		.sleb128 -272
 5693 15bd 42       		.uleb128 0x42
 5694 15be B0140000 		.4byte	0x14b0
 5695 15c2 41       		.uleb128 0x41
 5696 15c3 BB100000 		.4byte	0x10bb
 5697 15c7 1A000000 		.4byte	.LBB20
 5698 15cb 48000000 		.4byte	.Ldebug_ranges0+0x48
 5699 15cf 01       		.byte	0x1
 5700 15d0 A001     		.2byte	0x1a0
 5701 15d2 80180000 		.4byte	0x1880
 5702 15d6 43       		.uleb128 0x43
ARM GAS  C:\Users\jo\AppData\Local\Temp\ccRMLSMa.s 			page 102


 5703 15d7 CB100000 		.4byte	0x10cb
 5704 15db 43       		.uleb128 0x43
 5705 15dc CB100000 		.4byte	0x10cb
 5706 15e0 38       		.uleb128 0x38
 5707 15e1 D6100000 		.4byte	0x10d6
 5708 15e5 1E050000 		.4byte	.LLST19
 5709 15e9 3C       		.uleb128 0x3c
 5710 15ea 48000000 		.4byte	.Ldebug_ranges0+0x48
 5711 15ee 39       		.uleb128 0x39
 5712 15ef E1100000 		.4byte	0x10e1
 5713 15f3 B7050000 		.4byte	.LLST20
 5714 15f7 3A       		.uleb128 0x3a
 5715 15f8 EC100000 		.4byte	0x10ec
 5716 15fc 03       		.uleb128 0x3
 5717 15fd 91       		.byte	0x91
 5718 15fe E87D     		.sleb128 -280
 5719 1600 39       		.uleb128 0x39
 5720 1601 F5100000 		.4byte	0x10f5
 5721 1605 6F060000 		.4byte	.LLST21
 5722 1609 39       		.uleb128 0x39
 5723 160a 00110000 		.4byte	0x1100
 5724 160e AE060000 		.4byte	.LLST22
 5725 1612 39       		.uleb128 0x39
 5726 1613 0B110000 		.4byte	0x110b
 5727 1617 D7060000 		.4byte	.LLST23
 5728 161b 3A       		.uleb128 0x3a
 5729 161c 16110000 		.4byte	0x1116
 5730 1620 03       		.uleb128 0x3
 5731 1621 91       		.byte	0x91
 5732 1622 EC7D     		.sleb128 -276
 5733 1624 3A       		.uleb128 0x3a
 5734 1625 21110000 		.4byte	0x1121
 5735 1629 03       		.uleb128 0x3
 5736 162a 91       		.byte	0x91
 5737 162b EC7E     		.sleb128 -148
 5738 162d 34       		.uleb128 0x34
 5739 162e 28000000 		.4byte	.LVL57
 5740 1632 422D0000 		.4byte	0x2d42
 5741 1636 4E160000 		.4byte	0x164e
 5742 163a 35       		.uleb128 0x35
 5743 163b 01       		.uleb128 0x1
 5744 163c 52       		.byte	0x52
 5745 163d 03       		.uleb128 0x3
 5746 163e 91       		.byte	0x91
 5747 163f EC7E     		.sleb128 -148
 5748 1641 35       		.uleb128 0x35
 5749 1642 01       		.uleb128 0x1
 5750 1643 51       		.byte	0x51
 5751 1644 02       		.uleb128 0x2
 5752 1645 76       		.byte	0x76
 5753 1646 00       		.sleb128 0
 5754 1647 35       		.uleb128 0x35
 5755 1648 01       		.uleb128 0x1
 5756 1649 50       		.byte	0x50
 5757 164a 02       		.uleb128 0x2
 5758 164b 7D       		.byte	0x7d
 5759 164c 00       		.sleb128 0
ARM GAS  C:\Users\jo\AppData\Local\Temp\ccRMLSMa.s 			page 103


 5760 164d 00       		.byte	0
 5761 164e 34       		.uleb128 0x34
 5762 164f 42000000 		.4byte	.LVL60
 5763 1653 1E2D0000 		.4byte	0x2d1e
 5764 1657 75160000 		.4byte	0x1675
 5765 165b 35       		.uleb128 0x35
 5766 165c 01       		.uleb128 0x1
 5767 165d 53       		.byte	0x53
 5768 165e 02       		.uleb128 0x2
 5769 165f 08       		.byte	0x8
 5770 1660 30       		.byte	0x30
 5771 1661 35       		.uleb128 0x35
 5772 1662 01       		.uleb128 0x1
 5773 1663 52       		.byte	0x52
 5774 1664 03       		.uleb128 0x3
 5775 1665 91       		.byte	0x91
 5776 1666 EC7D     		.sleb128 -276
 5777 1668 35       		.uleb128 0x35
 5778 1669 01       		.uleb128 0x1
 5779 166a 51       		.byte	0x51
 5780 166b 02       		.uleb128 0x2
 5781 166c 76       		.byte	0x76
 5782 166d 00       		.sleb128 0
 5783 166e 35       		.uleb128 0x35
 5784 166f 01       		.uleb128 0x1
 5785 1670 50       		.byte	0x50
 5786 1671 02       		.uleb128 0x2
 5787 1672 7D       		.byte	0x7d
 5788 1673 00       		.sleb128 0
 5789 1674 00       		.byte	0
 5790 1675 34       		.uleb128 0x34
 5791 1676 64000000 		.4byte	.LVL70
 5792 167a 1E2D0000 		.4byte	0x2d1e
 5793 167e 9B160000 		.4byte	0x169b
 5794 1682 35       		.uleb128 0x35
 5795 1683 01       		.uleb128 0x1
 5796 1684 53       		.byte	0x53
 5797 1685 01       		.uleb128 0x1
 5798 1686 36       		.byte	0x36
 5799 1687 35       		.uleb128 0x35
 5800 1688 01       		.uleb128 0x1
 5801 1689 52       		.byte	0x52
 5802 168a 03       		.uleb128 0x3
 5803 168b 91       		.byte	0x91
 5804 168c EC7D     		.sleb128 -276
 5805 168e 35       		.uleb128 0x35
 5806 168f 01       		.uleb128 0x1
 5807 1690 51       		.byte	0x51
 5808 1691 02       		.uleb128 0x2
 5809 1692 77       		.byte	0x77
 5810 1693 00       		.sleb128 0
 5811 1694 35       		.uleb128 0x35
 5812 1695 01       		.uleb128 0x1
 5813 1696 50       		.byte	0x50
 5814 1697 02       		.uleb128 0x2
 5815 1698 7D       		.byte	0x7d
 5816 1699 00       		.sleb128 0
ARM GAS  C:\Users\jo\AppData\Local\Temp\ccRMLSMa.s 			page 104


 5817 169a 00       		.byte	0
 5818 169b 34       		.uleb128 0x34
 5819 169c 7C000000 		.4byte	.LVL72
 5820 16a0 1A2E0000 		.4byte	0x2e1a
 5821 16a4 B8160000 		.4byte	0x16b8
 5822 16a8 35       		.uleb128 0x35
 5823 16a9 01       		.uleb128 0x1
 5824 16aa 51       		.byte	0x51
 5825 16ab 05       		.uleb128 0x5
 5826 16ac 03       		.byte	0x3
 5827 16ad 00000000 		.4byte	.LC0
 5828 16b1 35       		.uleb128 0x35
 5829 16b2 01       		.uleb128 0x1
 5830 16b3 50       		.byte	0x50
 5831 16b4 02       		.uleb128 0x2
 5832 16b5 74       		.byte	0x74
 5833 16b6 00       		.sleb128 0
 5834 16b7 00       		.byte	0
 5835 16b8 34       		.uleb128 0x34
 5836 16b9 90000000 		.4byte	.LVL73
 5837 16bd 672D0000 		.4byte	0x2d67
 5838 16c1 D9160000 		.4byte	0x16d9
 5839 16c5 35       		.uleb128 0x35
 5840 16c6 01       		.uleb128 0x1
 5841 16c7 52       		.byte	0x52
 5842 16c8 03       		.uleb128 0x3
 5843 16c9 91       		.byte	0x91
 5844 16ca F47D     		.sleb128 -268
 5845 16cc 35       		.uleb128 0x35
 5846 16cd 01       		.uleb128 0x1
 5847 16ce 51       		.byte	0x51
 5848 16cf 02       		.uleb128 0x2
 5849 16d0 77       		.byte	0x77
 5850 16d1 00       		.sleb128 0
 5851 16d2 35       		.uleb128 0x35
 5852 16d3 01       		.uleb128 0x1
 5853 16d4 50       		.byte	0x50
 5854 16d5 02       		.uleb128 0x2
 5855 16d6 7D       		.byte	0x7d
 5856 16d7 00       		.sleb128 0
 5857 16d8 00       		.byte	0
 5858 16d9 34       		.uleb128 0x34
 5859 16da 8E010000 		.4byte	.LVL109
 5860 16de 392E0000 		.4byte	0x2e39
 5861 16e2 EE160000 		.4byte	0x16ee
 5862 16e6 35       		.uleb128 0x35
 5863 16e7 01       		.uleb128 0x1
 5864 16e8 50       		.byte	0x50
 5865 16e9 03       		.uleb128 0x3
 5866 16ea 91       		.byte	0x91
 5867 16eb F47D     		.sleb128 -268
 5868 16ed 00       		.byte	0
 5869 16ee 34       		.uleb128 0x34
 5870 16ef A4010000 		.4byte	.LVL111
 5871 16f3 1E2D0000 		.4byte	0x2d1e
 5872 16f7 15170000 		.4byte	0x1715
 5873 16fb 35       		.uleb128 0x35
ARM GAS  C:\Users\jo\AppData\Local\Temp\ccRMLSMa.s 			page 105


 5874 16fc 01       		.uleb128 0x1
 5875 16fd 53       		.byte	0x53
 5876 16fe 02       		.uleb128 0x2
 5877 16ff 08       		.byte	0x8
 5878 1700 30       		.byte	0x30
 5879 1701 35       		.uleb128 0x35
 5880 1702 01       		.uleb128 0x1
 5881 1703 52       		.byte	0x52
 5882 1704 03       		.uleb128 0x3
 5883 1705 91       		.byte	0x91
 5884 1706 EC7D     		.sleb128 -276
 5885 1708 35       		.uleb128 0x35
 5886 1709 01       		.uleb128 0x1
 5887 170a 51       		.byte	0x51
 5888 170b 02       		.uleb128 0x2
 5889 170c 76       		.byte	0x76
 5890 170d 00       		.sleb128 0
 5891 170e 35       		.uleb128 0x35
 5892 170f 01       		.uleb128 0x1
 5893 1710 50       		.byte	0x50
 5894 1711 02       		.uleb128 0x2
 5895 1712 7D       		.byte	0x7d
 5896 1713 00       		.sleb128 0
 5897 1714 00       		.byte	0
 5898 1715 34       		.uleb128 0x34
 5899 1716 BE010000 		.4byte	.LVL115
 5900 171a 1E2D0000 		.4byte	0x2d1e
 5901 171e 3B170000 		.4byte	0x173b
 5902 1722 35       		.uleb128 0x35
 5903 1723 01       		.uleb128 0x1
 5904 1724 53       		.byte	0x53
 5905 1725 01       		.uleb128 0x1
 5906 1726 34       		.byte	0x34
 5907 1727 35       		.uleb128 0x35
 5908 1728 01       		.uleb128 0x1
 5909 1729 52       		.byte	0x52
 5910 172a 03       		.uleb128 0x3
 5911 172b 91       		.byte	0x91
 5912 172c EC7D     		.sleb128 -276
 5913 172e 35       		.uleb128 0x35
 5914 172f 01       		.uleb128 0x1
 5915 1730 51       		.byte	0x51
 5916 1731 02       		.uleb128 0x2
 5917 1732 74       		.byte	0x74
 5918 1733 00       		.sleb128 0
 5919 1734 35       		.uleb128 0x35
 5920 1735 01       		.uleb128 0x1
 5921 1736 50       		.byte	0x50
 5922 1737 02       		.uleb128 0x2
 5923 1738 7D       		.byte	0x7d
 5924 1739 00       		.sleb128 0
 5925 173a 00       		.byte	0
 5926 173b 34       		.uleb128 0x34
 5927 173c CE010000 		.4byte	.LVL117
 5928 1740 4F2E0000 		.4byte	0x2e4f
 5929 1744 50170000 		.4byte	0x1750
 5930 1748 35       		.uleb128 0x35
ARM GAS  C:\Users\jo\AppData\Local\Temp\ccRMLSMa.s 			page 106


 5931 1749 01       		.uleb128 0x1
 5932 174a 50       		.byte	0x50
 5933 174b 03       		.uleb128 0x3
 5934 174c 91       		.byte	0x91
 5935 174d 807E     		.sleb128 -256
 5936 174f 00       		.byte	0
 5937 1750 34       		.uleb128 0x34
 5938 1751 E8010000 		.4byte	.LVL121
 5939 1755 1E2D0000 		.4byte	0x2d1e
 5940 1759 76170000 		.4byte	0x1776
 5941 175d 35       		.uleb128 0x35
 5942 175e 01       		.uleb128 0x1
 5943 175f 53       		.byte	0x53
 5944 1760 01       		.uleb128 0x1
 5945 1761 34       		.byte	0x34
 5946 1762 35       		.uleb128 0x35
 5947 1763 01       		.uleb128 0x1
 5948 1764 52       		.byte	0x52
 5949 1765 03       		.uleb128 0x3
 5950 1766 91       		.byte	0x91
 5951 1767 EC7D     		.sleb128 -276
 5952 1769 35       		.uleb128 0x35
 5953 176a 01       		.uleb128 0x1
 5954 176b 51       		.byte	0x51
 5955 176c 02       		.uleb128 0x2
 5956 176d 74       		.byte	0x74
 5957 176e 00       		.sleb128 0
 5958 176f 35       		.uleb128 0x35
 5959 1770 01       		.uleb128 0x1
 5960 1771 50       		.byte	0x50
 5961 1772 02       		.uleb128 0x2
 5962 1773 7D       		.byte	0x7d
 5963 1774 00       		.sleb128 0
 5964 1775 00       		.byte	0
 5965 1776 34       		.uleb128 0x34
 5966 1777 F8010000 		.4byte	.LVL123
 5967 177b 4F2E0000 		.4byte	0x2e4f
 5968 177f 8B170000 		.4byte	0x178b
 5969 1783 35       		.uleb128 0x35
 5970 1784 01       		.uleb128 0x1
 5971 1785 50       		.byte	0x50
 5972 1786 03       		.uleb128 0x3
 5973 1787 91       		.byte	0x91
 5974 1788 8C7E     		.sleb128 -244
 5975 178a 00       		.byte	0
 5976 178b 34       		.uleb128 0x34
 5977 178c 12020000 		.4byte	.LVL126
 5978 1790 1E2D0000 		.4byte	0x2d1e
 5979 1794 B1170000 		.4byte	0x17b1
 5980 1798 35       		.uleb128 0x35
 5981 1799 01       		.uleb128 0x1
 5982 179a 53       		.byte	0x53
 5983 179b 01       		.uleb128 0x1
 5984 179c 33       		.byte	0x33
 5985 179d 35       		.uleb128 0x35
 5986 179e 01       		.uleb128 0x1
 5987 179f 52       		.byte	0x52
ARM GAS  C:\Users\jo\AppData\Local\Temp\ccRMLSMa.s 			page 107


 5988 17a0 03       		.uleb128 0x3
 5989 17a1 91       		.byte	0x91
 5990 17a2 EC7D     		.sleb128 -276
 5991 17a4 35       		.uleb128 0x35
 5992 17a5 01       		.uleb128 0x1
 5993 17a6 51       		.byte	0x51
 5994 17a7 02       		.uleb128 0x2
 5995 17a8 74       		.byte	0x74
 5996 17a9 00       		.sleb128 0
 5997 17aa 35       		.uleb128 0x35
 5998 17ab 01       		.uleb128 0x1
 5999 17ac 50       		.byte	0x50
 6000 17ad 02       		.uleb128 0x2
 6001 17ae 7D       		.byte	0x7d
 6002 17af 00       		.sleb128 0
 6003 17b0 00       		.byte	0
 6004 17b1 34       		.uleb128 0x34
 6005 17b2 2E020000 		.4byte	.LVL129
 6006 17b6 1E2D0000 		.4byte	0x2d1e
 6007 17ba D7170000 		.4byte	0x17d7
 6008 17be 35       		.uleb128 0x35
 6009 17bf 01       		.uleb128 0x1
 6010 17c0 53       		.byte	0x53
 6011 17c1 01       		.uleb128 0x1
 6012 17c2 34       		.byte	0x34
 6013 17c3 35       		.uleb128 0x35
 6014 17c4 01       		.uleb128 0x1
 6015 17c5 52       		.byte	0x52
 6016 17c6 03       		.uleb128 0x3
 6017 17c7 91       		.byte	0x91
 6018 17c8 EC7D     		.sleb128 -276
 6019 17ca 35       		.uleb128 0x35
 6020 17cb 01       		.uleb128 0x1
 6021 17cc 51       		.byte	0x51
 6022 17cd 02       		.uleb128 0x2
 6023 17ce 76       		.byte	0x76
 6024 17cf 00       		.sleb128 0
 6025 17d0 35       		.uleb128 0x35
 6026 17d1 01       		.uleb128 0x1
 6027 17d2 50       		.byte	0x50
 6028 17d3 02       		.uleb128 0x2
 6029 17d4 7D       		.byte	0x7d
 6030 17d5 00       		.sleb128 0
 6031 17d6 00       		.byte	0
 6032 17d7 34       		.uleb128 0x34
 6033 17d8 40020000 		.4byte	.LVL131
 6034 17dc 6F2E0000 		.4byte	0x2e6f
 6035 17e0 F3170000 		.4byte	0x17f3
 6036 17e4 35       		.uleb128 0x35
 6037 17e5 01       		.uleb128 0x1
 6038 17e6 51       		.byte	0x51
 6039 17e7 03       		.uleb128 0x3
 6040 17e8 91       		.byte	0x91
 6041 17e9 987E     		.sleb128 -232
 6042 17eb 35       		.uleb128 0x35
 6043 17ec 01       		.uleb128 0x1
 6044 17ed 50       		.byte	0x50
ARM GAS  C:\Users\jo\AppData\Local\Temp\ccRMLSMa.s 			page 108


 6045 17ee 03       		.uleb128 0x3
 6046 17ef 91       		.byte	0x91
 6047 17f0 F07D     		.sleb128 -272
 6048 17f2 00       		.byte	0
 6049 17f3 34       		.uleb128 0x34
 6050 17f4 58020000 		.4byte	.LVL133
 6051 17f8 992D0000 		.4byte	0x2d99
 6052 17fc 08180000 		.4byte	0x1808
 6053 1800 35       		.uleb128 0x35
 6054 1801 01       		.uleb128 0x1
 6055 1802 50       		.byte	0x50
 6056 1803 03       		.uleb128 0x3
 6057 1804 91       		.byte	0x91
 6058 1805 F47D     		.sleb128 -268
 6059 1807 00       		.byte	0
 6060 1808 34       		.uleb128 0x34
 6061 1809 6C020000 		.4byte	.LVL134
 6062 180d 4F2E0000 		.4byte	0x2e4f
 6063 1811 1D180000 		.4byte	0x181d
 6064 1815 35       		.uleb128 0x35
 6065 1816 01       		.uleb128 0x1
 6066 1817 50       		.byte	0x50
 6067 1818 03       		.uleb128 0x3
 6068 1819 91       		.byte	0x91
 6069 181a 987E     		.sleb128 -232
 6070 181c 00       		.byte	0
 6071 181d 34       		.uleb128 0x34
 6072 181e 7A020000 		.4byte	.LVL135
 6073 1822 942E0000 		.4byte	0x2e94
 6074 1826 32180000 		.4byte	0x1832
 6075 182a 35       		.uleb128 0x35
 6076 182b 01       		.uleb128 0x1
 6077 182c 50       		.byte	0x50
 6078 182d 03       		.uleb128 0x3
 6079 182e 91       		.byte	0x91
 6080 182f A47E     		.sleb128 -220
 6081 1831 00       		.byte	0
 6082 1832 34       		.uleb128 0x34
 6083 1833 84020000 		.4byte	.LVL136
 6084 1837 942E0000 		.4byte	0x2e94
 6085 183b 4C180000 		.4byte	0x184c
 6086 183f 35       		.uleb128 0x35
 6087 1840 01       		.uleb128 0x1
 6088 1841 51       		.byte	0x51
 6089 1842 01       		.uleb128 0x1
 6090 1843 31       		.byte	0x31
 6091 1844 35       		.uleb128 0x35
 6092 1845 01       		.uleb128 0x1
 6093 1846 50       		.byte	0x50
 6094 1847 03       		.uleb128 0x3
 6095 1848 91       		.byte	0x91
 6096 1849 B07E     		.sleb128 -208
 6097 184b 00       		.byte	0
 6098 184c 34       		.uleb128 0x34
 6099 184d 98020000 		.4byte	.LVL137
 6100 1851 672D0000 		.4byte	0x2d67
 6101 1855 6D180000 		.4byte	0x186d
ARM GAS  C:\Users\jo\AppData\Local\Temp\ccRMLSMa.s 			page 109


 6102 1859 35       		.uleb128 0x35
 6103 185a 01       		.uleb128 0x1
 6104 185b 52       		.byte	0x52
 6105 185c 03       		.uleb128 0x3
 6106 185d 91       		.byte	0x91
 6107 185e BC7E     		.sleb128 -196
 6108 1860 35       		.uleb128 0x35
 6109 1861 01       		.uleb128 0x1
 6110 1862 51       		.byte	0x51
 6111 1863 02       		.uleb128 0x2
 6112 1864 76       		.byte	0x76
 6113 1865 00       		.sleb128 0
 6114 1866 35       		.uleb128 0x35
 6115 1867 01       		.uleb128 0x1
 6116 1868 50       		.byte	0x50
 6117 1869 02       		.uleb128 0x2
 6118 186a 7D       		.byte	0x7d
 6119 186b 00       		.sleb128 0
 6120 186c 00       		.byte	0
 6121 186d 3E       		.uleb128 0x3e
 6122 186e A4020000 		.4byte	.LVL139
 6123 1872 392E0000 		.4byte	0x2e39
 6124 1876 35       		.uleb128 0x35
 6125 1877 01       		.uleb128 0x1
 6126 1878 50       		.byte	0x50
 6127 1879 03       		.uleb128 0x3
 6128 187a 91       		.byte	0x91
 6129 187b BC7E     		.sleb128 -196
 6130 187d 00       		.byte	0
 6131 187e 00       		.byte	0
 6132 187f 00       		.byte	0
 6133 1880 41       		.uleb128 0x41
 6134 1881 BF140000 		.4byte	0x14bf
 6135 1885 9C000000 		.4byte	.LBB27
 6136 1889 78000000 		.4byte	.Ldebug_ranges0+0x78
 6137 188d 01       		.byte	0x1
 6138 188e A301     		.2byte	0x1a3
 6139 1890 191A0000 		.4byte	0x1a19
 6140 1894 38       		.uleb128 0x38
 6141 1895 DC140000 		.4byte	0x14dc
 6142 1899 EA060000 		.4byte	.LLST24
 6143 189d 38       		.uleb128 0x38
 6144 189e D0140000 		.4byte	0x14d0
 6145 18a2 1C070000 		.4byte	.LLST25
 6146 18a6 3C       		.uleb128 0x3c
 6147 18a7 78000000 		.4byte	.Ldebug_ranges0+0x78
 6148 18ab 39       		.uleb128 0x39
 6149 18ac E8140000 		.4byte	0x14e8
 6150 18b0 67070000 		.4byte	.LLST26
 6151 18b4 3A       		.uleb128 0x3a
 6152 18b5 F4140000 		.4byte	0x14f4
 6153 18b9 03       		.uleb128 0x3
 6154 18ba 91       		.byte	0x91
 6155 18bb EC7E     		.sleb128 -148
 6156 18bd 39       		.uleb128 0x39
 6157 18be 00150000 		.4byte	0x1500
 6158 18c2 CA070000 		.4byte	.LLST27
ARM GAS  C:\Users\jo\AppData\Local\Temp\ccRMLSMa.s 			page 110


 6159 18c6 42       		.uleb128 0x42
 6160 18c7 0B150000 		.4byte	0x150b
 6161 18cb 34       		.uleb128 0x34
 6162 18cc A2000000 		.4byte	.LVL76
 6163 18d0 AF2E0000 		.4byte	0x2eaf
 6164 18d4 E0180000 		.4byte	0x18e0
 6165 18d8 35       		.uleb128 0x35
 6166 18d9 01       		.uleb128 0x1
 6167 18da 50       		.byte	0x50
 6168 18db 03       		.uleb128 0x3
 6169 18dc 91       		.byte	0x91
 6170 18dd EC7E     		.sleb128 -148
 6171 18df 00       		.byte	0
 6172 18e0 36       		.uleb128 0x36
 6173 18e1 A6000000 		.4byte	.LVL77
 6174 18e5 C12E0000 		.4byte	0x2ec1
 6175 18e9 34       		.uleb128 0x34
 6176 18ea BC000000 		.4byte	.LVL82
 6177 18ee CC2E0000 		.4byte	0x2ecc
 6178 18f2 FE180000 		.4byte	0x18fe
 6179 18f6 35       		.uleb128 0x35
 6180 18f7 01       		.uleb128 0x1
 6181 18f8 50       		.byte	0x50
 6182 18f9 03       		.uleb128 0x3
 6183 18fa 91       		.byte	0x91
 6184 18fb EC7E     		.sleb128 -148
 6185 18fd 00       		.byte	0
 6186 18fe 34       		.uleb128 0x34
 6187 18ff C4000000 		.4byte	.LVL83
 6188 1903 DE2E0000 		.4byte	0x2ede
 6189 1907 13190000 		.4byte	0x1913
 6190 190b 35       		.uleb128 0x35
 6191 190c 01       		.uleb128 0x1
 6192 190d 50       		.byte	0x50
 6193 190e 03       		.uleb128 0x3
 6194 190f 91       		.byte	0x91
 6195 1910 EC7E     		.sleb128 -148
 6196 1912 00       		.byte	0
 6197 1913 34       		.uleb128 0x34
 6198 1914 E2000000 		.4byte	.LVL85
 6199 1918 F92E0000 		.4byte	0x2ef9
 6200 191c 2F190000 		.4byte	0x192f
 6201 1920 35       		.uleb128 0x35
 6202 1921 01       		.uleb128 0x1
 6203 1922 51       		.byte	0x51
 6204 1923 03       		.uleb128 0x3
 6205 1924 91       		.byte	0x91
 6206 1925 F07E     		.sleb128 -144
 6207 1927 35       		.uleb128 0x35
 6208 1928 01       		.uleb128 0x1
 6209 1929 50       		.byte	0x50
 6210 192a 03       		.uleb128 0x3
 6211 192b 91       		.byte	0x91
 6212 192c F47D     		.sleb128 -268
 6213 192e 00       		.byte	0
 6214 192f 34       		.uleb128 0x34
 6215 1930 EE000000 		.4byte	.LVL86
ARM GAS  C:\Users\jo\AppData\Local\Temp\ccRMLSMa.s 			page 111


 6216 1934 F92E0000 		.4byte	0x2ef9
 6217 1938 4B190000 		.4byte	0x194b
 6218 193c 35       		.uleb128 0x35
 6219 193d 01       		.uleb128 0x1
 6220 193e 51       		.byte	0x51
 6221 193f 03       		.uleb128 0x3
 6222 1940 91       		.byte	0x91
 6223 1941 FC7E     		.sleb128 -132
 6224 1943 35       		.uleb128 0x35
 6225 1944 01       		.uleb128 0x1
 6226 1945 50       		.byte	0x50
 6227 1946 03       		.uleb128 0x3
 6228 1947 91       		.byte	0x91
 6229 1948 807E     		.sleb128 -256
 6230 194a 00       		.byte	0
 6231 194b 34       		.uleb128 0x34
 6232 194c FA000000 		.4byte	.LVL87
 6233 1950 F92E0000 		.4byte	0x2ef9
 6234 1954 67190000 		.4byte	0x1967
 6235 1958 35       		.uleb128 0x35
 6236 1959 01       		.uleb128 0x1
 6237 195a 51       		.byte	0x51
 6238 195b 03       		.uleb128 0x3
 6239 195c 91       		.byte	0x91
 6240 195d 887F     		.sleb128 -120
 6241 195f 35       		.uleb128 0x35
 6242 1960 01       		.uleb128 0x1
 6243 1961 50       		.byte	0x50
 6244 1962 03       		.uleb128 0x3
 6245 1963 91       		.byte	0x91
 6246 1964 8C7E     		.sleb128 -244
 6247 1966 00       		.byte	0
 6248 1967 34       		.uleb128 0x34
 6249 1968 06010000 		.4byte	.LVL88
 6250 196c F92E0000 		.4byte	0x2ef9
 6251 1970 83190000 		.4byte	0x1983
 6252 1974 35       		.uleb128 0x35
 6253 1975 01       		.uleb128 0x1
 6254 1976 51       		.byte	0x51
 6255 1977 03       		.uleb128 0x3
 6256 1978 91       		.byte	0x91
 6257 1979 B87F     		.sleb128 -72
 6258 197b 35       		.uleb128 0x35
 6259 197c 01       		.uleb128 0x1
 6260 197d 50       		.byte	0x50
 6261 197e 03       		.uleb128 0x3
 6262 197f 91       		.byte	0x91
 6263 1980 BC7E     		.sleb128 -196
 6264 1982 00       		.byte	0
 6265 1983 34       		.uleb128 0x34
 6266 1984 12010000 		.4byte	.LVL89
 6267 1988 F92E0000 		.4byte	0x2ef9
 6268 198c 9F190000 		.4byte	0x199f
 6269 1990 35       		.uleb128 0x35
 6270 1991 01       		.uleb128 0x1
 6271 1992 51       		.byte	0x51
 6272 1993 03       		.uleb128 0x3
ARM GAS  C:\Users\jo\AppData\Local\Temp\ccRMLSMa.s 			page 112


 6273 1994 91       		.byte	0x91
 6274 1995 947F     		.sleb128 -108
 6275 1997 35       		.uleb128 0x35
 6276 1998 01       		.uleb128 0x1
 6277 1999 50       		.byte	0x50
 6278 199a 03       		.uleb128 0x3
 6279 199b 91       		.byte	0x91
 6280 199c 987E     		.sleb128 -232
 6281 199e 00       		.byte	0
 6282 199f 34       		.uleb128 0x34
 6283 19a0 1E010000 		.4byte	.LVL90
 6284 19a4 F92E0000 		.4byte	0x2ef9
 6285 19a8 BB190000 		.4byte	0x19bb
 6286 19ac 35       		.uleb128 0x35
 6287 19ad 01       		.uleb128 0x1
 6288 19ae 51       		.byte	0x51
 6289 19af 03       		.uleb128 0x3
 6290 19b0 91       		.byte	0x91
 6291 19b1 AC7F     		.sleb128 -84
 6292 19b3 35       		.uleb128 0x35
 6293 19b4 01       		.uleb128 0x1
 6294 19b5 50       		.byte	0x50
 6295 19b6 03       		.uleb128 0x3
 6296 19b7 91       		.byte	0x91
 6297 19b8 B07E     		.sleb128 -208
 6298 19ba 00       		.byte	0
 6299 19bb 34       		.uleb128 0x34
 6300 19bc 2C010000 		.4byte	.LVL92
 6301 19c0 142F0000 		.4byte	0x2f14
 6302 19c4 D6190000 		.4byte	0x19d6
 6303 19c8 35       		.uleb128 0x35
 6304 19c9 01       		.uleb128 0x1
 6305 19ca 51       		.byte	0x51
 6306 19cb 02       		.uleb128 0x2
 6307 19cc 74       		.byte	0x74
 6308 19cd 00       		.sleb128 0
 6309 19ce 35       		.uleb128 0x35
 6310 19cf 01       		.uleb128 0x1
 6311 19d0 50       		.byte	0x50
 6312 19d1 03       		.uleb128 0x3
 6313 19d2 91       		.byte	0x91
 6314 19d3 A47E     		.sleb128 -220
 6315 19d5 00       		.byte	0
 6316 19d6 34       		.uleb128 0x34
 6317 19d7 36010000 		.4byte	.LVL93
 6318 19db 142F0000 		.4byte	0x2f14
 6319 19df F1190000 		.4byte	0x19f1
 6320 19e3 35       		.uleb128 0x35
 6321 19e4 01       		.uleb128 0x1
 6322 19e5 51       		.byte	0x51
 6323 19e6 02       		.uleb128 0x2
 6324 19e7 74       		.byte	0x74
 6325 19e8 00       		.sleb128 0
 6326 19e9 35       		.uleb128 0x35
 6327 19ea 01       		.uleb128 0x1
 6328 19eb 50       		.byte	0x50
 6329 19ec 03       		.uleb128 0x3
ARM GAS  C:\Users\jo\AppData\Local\Temp\ccRMLSMa.s 			page 113


 6330 19ed 91       		.byte	0x91
 6331 19ee A07F     		.sleb128 -96
 6332 19f0 00       		.byte	0
 6333 19f1 34       		.uleb128 0x34
 6334 19f2 40010000 		.4byte	.LVL95
 6335 19f6 CC2E0000 		.4byte	0x2ecc
 6336 19fa 061A0000 		.4byte	0x1a06
 6337 19fe 35       		.uleb128 0x35
 6338 19ff 01       		.uleb128 0x1
 6339 1a00 50       		.byte	0x50
 6340 1a01 03       		.uleb128 0x3
 6341 1a02 91       		.byte	0x91
 6342 1a03 EC7E     		.sleb128 -148
 6343 1a05 00       		.byte	0
 6344 1a06 3E       		.uleb128 0x3e
 6345 1a07 80010000 		.4byte	.LVL106
 6346 1a0b CC2E0000 		.4byte	0x2ecc
 6347 1a0f 35       		.uleb128 0x35
 6348 1a10 01       		.uleb128 0x1
 6349 1a11 50       		.byte	0x50
 6350 1a12 03       		.uleb128 0x3
 6351 1a13 91       		.byte	0x91
 6352 1a14 EC7E     		.sleb128 -148
 6353 1a16 00       		.byte	0
 6354 1a17 00       		.byte	0
 6355 1a18 00       		.byte	0
 6356 1a19 34       		.uleb128 0x34
 6357 1a1a 16000000 		.4byte	.LVL54
 6358 1a1e AF2E0000 		.4byte	0x2eaf
 6359 1a22 2E1A0000 		.4byte	0x1a2e
 6360 1a26 35       		.uleb128 0x35
 6361 1a27 01       		.uleb128 0x1
 6362 1a28 50       		.byte	0x50
 6363 1a29 03       		.uleb128 0x3
 6364 1a2a 91       		.byte	0x91
 6365 1a2b F07D     		.sleb128 -272
 6366 1a2d 00       		.byte	0
 6367 1a2e 34       		.uleb128 0x34
 6368 1a2f 4C000000 		.4byte	.LVL64
 6369 1a33 CC2E0000 		.4byte	0x2ecc
 6370 1a37 431A0000 		.4byte	0x1a43
 6371 1a3b 35       		.uleb128 0x35
 6372 1a3c 01       		.uleb128 0x1
 6373 1a3d 50       		.byte	0x50
 6374 1a3e 03       		.uleb128 0x3
 6375 1a3f 91       		.byte	0x91
 6376 1a40 F07D     		.sleb128 -272
 6377 1a42 00       		.byte	0
 6378 1a43 3E       		.uleb128 0x3e
 6379 1a44 54010000 		.4byte	.LVL98
 6380 1a48 CC2E0000 		.4byte	0x2ecc
 6381 1a4c 35       		.uleb128 0x35
 6382 1a4d 01       		.uleb128 0x1
 6383 1a4e 50       		.byte	0x50
 6384 1a4f 03       		.uleb128 0x3
 6385 1a50 91       		.byte	0x91
 6386 1a51 F07D     		.sleb128 -272
ARM GAS  C:\Users\jo\AppData\Local\Temp\ccRMLSMa.s 			page 114


 6387 1a53 00       		.byte	0
 6388 1a54 00       		.byte	0
 6389 1a55 00       		.byte	0
 6390 1a56 34       		.uleb128 0x34
 6391 1a57 5C010000 		.4byte	.LVL101
 6392 1a5b 2F2F0000 		.4byte	0x2f2f
 6393 1a5f 6B1A0000 		.4byte	0x1a6b
 6394 1a63 35       		.uleb128 0x35
 6395 1a64 01       		.uleb128 0x1
 6396 1a65 51       		.byte	0x51
 6397 1a66 03       		.uleb128 0x3
 6398 1a67 91       		.byte	0x91
 6399 1a68 EC7D     		.sleb128 -276
 6400 1a6a 00       		.byte	0
 6401 1a6b 3E       		.uleb128 0x3e
 6402 1a6c 76010000 		.4byte	.LVL103
 6403 1a70 DE2E0000 		.4byte	0x2ede
 6404 1a74 35       		.uleb128 0x35
 6405 1a75 01       		.uleb128 0x1
 6406 1a76 50       		.byte	0x50
 6407 1a77 02       		.uleb128 0x2
 6408 1a78 75       		.byte	0x75
 6409 1a79 00       		.sleb128 0
 6410 1a7a 00       		.byte	0
 6411 1a7b 00       		.byte	0
 6412 1a7c 28       		.uleb128 0x28
 6413 1a7d 3C060000 		.4byte	.LASF265
 6414 1a81 01       		.byte	0x1
 6415 1a82 A7       		.byte	0xa7
 6416 1a83 25000000 		.4byte	0x25
 6417 1a87 01       		.byte	0x1
 6418 1a88 B71A0000 		.4byte	0x1ab7
 6419 1a8c 2A       		.uleb128 0x2a
 6420 1a8d 7000     		.ascii	"p\000"
 6421 1a8f 01       		.byte	0x1
 6422 1a90 A7       		.byte	0xa7
 6423 1a91 A9100000 		.4byte	0x10a9
 6424 1a95 2A       		.uleb128 0x2a
 6425 1a96 656E6400 		.ascii	"end\000"
 6426 1a9a 01       		.byte	0x1
 6427 1a9b A7       		.byte	0xa7
 6428 1a9c B3000000 		.4byte	0xb3
 6429 1aa0 29       		.uleb128 0x29
 6430 1aa1 21000000 		.4byte	.LASF252
 6431 1aa5 01       		.byte	0x1
 6432 1aa6 A8       		.byte	0xa8
 6433 1aa7 B5100000 		.4byte	0x10b5
 6434 1aab 2B       		.uleb128 0x2b
 6435 1aac 72657400 		.ascii	"ret\000"
 6436 1ab0 01       		.byte	0x1
 6437 1ab1 AA       		.byte	0xaa
 6438 1ab2 25000000 		.4byte	0x25
 6439 1ab6 00       		.byte	0
 6440 1ab7 23       		.uleb128 0x23
 6441 1ab8 9C0A0000 		.4byte	.LASF266
 6442 1abc 01       		.byte	0x1
 6443 1abd DB01     		.2byte	0x1db
ARM GAS  C:\Users\jo\AppData\Local\Temp\ccRMLSMa.s 			page 115


 6444 1abf 25000000 		.4byte	0x25
 6445 1ac3 01       		.byte	0x1
 6446 1ac4 F71A0000 		.4byte	0x1af7
 6447 1ac8 24       		.uleb128 0x24
 6448 1ac9 7000     		.ascii	"p\000"
 6449 1acb 01       		.byte	0x1
 6450 1acc DB01     		.2byte	0x1db
 6451 1ace A9100000 		.4byte	0x10a9
 6452 1ad2 24       		.uleb128 0x24
 6453 1ad3 656E6400 		.ascii	"end\000"
 6454 1ad7 01       		.byte	0x1
 6455 1ad8 DB01     		.2byte	0x1db
 6456 1ada B3000000 		.4byte	0xb3
 6457 1ade 24       		.uleb128 0x24
 6458 1adf 6B657900 		.ascii	"key\000"
 6459 1ae3 01       		.byte	0x1
 6460 1ae4 DC01     		.2byte	0x1dc
 6461 1ae6 F71A0000 		.4byte	0x1af7
 6462 1aea 26       		.uleb128 0x26
 6463 1aeb 72657400 		.ascii	"ret\000"
 6464 1aef 01       		.byte	0x1
 6465 1af0 DE01     		.2byte	0x1de
 6466 1af2 25000000 		.4byte	0x25
 6467 1af6 00       		.byte	0
 6468 1af7 07       		.uleb128 0x7
 6469 1af8 04       		.byte	0x4
 6470 1af9 F90B0000 		.4byte	0xbf9
 6471 1afd 2F       		.uleb128 0x2f
 6472 1afe E8030000 		.4byte	.LASF267
 6473 1b02 01       		.byte	0x1
 6474 1b03 CD02     		.2byte	0x2cd
 6475 1b05 25000000 		.4byte	0x25
 6476 1b09 00000000 		.4byte	.LFB25
 6477 1b0d 8C010000 		.4byte	.LFE25-.LFB25
 6478 1b11 01       		.uleb128 0x1
 6479 1b12 9C       		.byte	0x9c
 6480 1b13 061E0000 		.4byte	0x1e06
 6481 1b17 30       		.uleb128 0x30
 6482 1b18 65636B00 		.ascii	"eck\000"
 6483 1b1c 01       		.byte	0x1
 6484 1b1d CD02     		.2byte	0x2cd
 6485 1b1f F71A0000 		.4byte	0x1af7
 6486 1b23 0B080000 		.4byte	.LLST28
 6487 1b27 30       		.uleb128 0x30
 6488 1b28 6B657900 		.ascii	"key\000"
 6489 1b2c 01       		.byte	0x1
 6490 1b2d CE02     		.2byte	0x2ce
 6491 1b2f B3000000 		.4byte	0xb3
 6492 1b33 29080000 		.4byte	.LLST29
 6493 1b37 31       		.uleb128 0x31
 6494 1b38 8E080000 		.4byte	.LASF258
 6495 1b3c 01       		.byte	0x1
 6496 1b3d CF02     		.2byte	0x2cf
 6497 1b3f 2C000000 		.4byte	0x2c
 6498 1b43 56080000 		.4byte	.LLST30
 6499 1b47 32       		.uleb128 0x32
 6500 1b48 72657400 		.ascii	"ret\000"
ARM GAS  C:\Users\jo\AppData\Local\Temp\ccRMLSMa.s 			page 116


 6501 1b4c 01       		.byte	0x1
 6502 1b4d D102     		.2byte	0x2d1
 6503 1b4f 25000000 		.4byte	0x25
 6504 1b53 77080000 		.4byte	.LLST31
 6505 1b57 40       		.uleb128 0x40
 6506 1b58 04020000 		.4byte	.LASF268
 6507 1b5c 01       		.byte	0x1
 6508 1b5d D202     		.2byte	0x2d2
 6509 1b5f 25000000 		.4byte	0x25
 6510 1b63 02       		.uleb128 0x2
 6511 1b64 91       		.byte	0x91
 6512 1b65 50       		.sleb128 -48
 6513 1b66 44       		.uleb128 0x44
 6514 1b67 D40B0000 		.4byte	.LASF269
 6515 1b6b 01       		.byte	0x1
 6516 1b6c D202     		.2byte	0x2d2
 6517 1b6e 25000000 		.4byte	0x25
 6518 1b72 50090000 		.4byte	.LLST32
 6519 1b76 33       		.uleb128 0x33
 6520 1b77 6C656E00 		.ascii	"len\000"
 6521 1b7b 01       		.byte	0x1
 6522 1b7c D302     		.2byte	0x2d3
 6523 1b7e 2C000000 		.4byte	0x2c
 6524 1b82 02       		.uleb128 0x2
 6525 1b83 91       		.byte	0x91
 6526 1b84 54       		.sleb128 -44
 6527 1b85 40       		.uleb128 0x40
 6528 1b86 21000000 		.4byte	.LASF252
 6529 1b8a 01       		.byte	0x1
 6530 1b8b D402     		.2byte	0x2d4
 6531 1b8d D40E0000 		.4byte	0xed4
 6532 1b91 02       		.uleb128 0x2
 6533 1b92 91       		.byte	0x91
 6534 1b93 5C       		.sleb128 -36
 6535 1b94 33       		.uleb128 0x33
 6536 1b95 7000     		.ascii	"p\000"
 6537 1b97 01       		.byte	0x1
 6538 1b98 D502     		.2byte	0x2d5
 6539 1b9a C5000000 		.4byte	0xc5
 6540 1b9e 02       		.uleb128 0x2
 6541 1b9f 91       		.byte	0x91
 6542 1ba0 58       		.sleb128 -40
 6543 1ba1 32       		.uleb128 0x32
 6544 1ba2 656E6400 		.ascii	"end\000"
 6545 1ba6 01       		.byte	0x1
 6546 1ba7 D602     		.2byte	0x2d6
 6547 1ba9 C5000000 		.4byte	0xc5
 6548 1bad 70090000 		.4byte	.LLST33
 6549 1bb1 44       		.uleb128 0x44
 6550 1bb2 360B0000 		.4byte	.LASF270
 6551 1bb6 01       		.byte	0x1
 6552 1bb7 D702     		.2byte	0x2d7
 6553 1bb9 C5000000 		.4byte	0xc5
 6554 1bbd C2090000 		.4byte	.LLST34
 6555 1bc1 41       		.uleb128 0x41
 6556 1bc2 7C1A0000 		.4byte	0x1a7c
 6557 1bc6 E6000000 		.4byte	.LBB48
ARM GAS  C:\Users\jo\AppData\Local\Temp\ccRMLSMa.s 			page 117


 6558 1bca 98000000 		.4byte	.Ldebug_ranges0+0x98
 6559 1bce 01       		.byte	0x1
 6560 1bcf 0503     		.2byte	0x305
 6561 1bd1 1C1C0000 		.4byte	0x1c1c
 6562 1bd5 38       		.uleb128 0x38
 6563 1bd6 A01A0000 		.4byte	0x1aa0
 6564 1bda E0090000 		.4byte	.LLST35
 6565 1bde 38       		.uleb128 0x38
 6566 1bdf 951A0000 		.4byte	0x1a95
 6567 1be3 270A0000 		.4byte	.LLST36
 6568 1be7 38       		.uleb128 0x38
 6569 1be8 8C1A0000 		.4byte	0x1a8c
 6570 1bec 6C0A0000 		.4byte	.LLST37
 6571 1bf0 3C       		.uleb128 0x3c
 6572 1bf1 98000000 		.4byte	.Ldebug_ranges0+0x98
 6573 1bf5 39       		.uleb128 0x39
 6574 1bf6 AB1A0000 		.4byte	0x1aab
 6575 1bfa 9B0A0000 		.4byte	.LLST38
 6576 1bfe 3E       		.uleb128 0x3e
 6577 1bff FE000000 		.4byte	.LVL181
 6578 1c03 1E2D0000 		.4byte	0x2d1e
 6579 1c07 35       		.uleb128 0x35
 6580 1c08 01       		.uleb128 0x1
 6581 1c09 52       		.byte	0x52
 6582 1c0a 02       		.uleb128 0x2
 6583 1c0b 91       		.byte	0x91
 6584 1c0c 60       		.sleb128 -32
 6585 1c0d 35       		.uleb128 0x35
 6586 1c0e 01       		.uleb128 0x1
 6587 1c0f 51       		.byte	0x51
 6588 1c10 02       		.uleb128 0x2
 6589 1c11 74       		.byte	0x74
 6590 1c12 00       		.sleb128 0
 6591 1c13 35       		.uleb128 0x35
 6592 1c14 01       		.uleb128 0x1
 6593 1c15 50       		.byte	0x50
 6594 1c16 02       		.uleb128 0x2
 6595 1c17 76       		.byte	0x76
 6596 1c18 00       		.sleb128 0
 6597 1c19 00       		.byte	0
 6598 1c1a 00       		.byte	0
 6599 1c1b 00       		.byte	0
 6600 1c1c 41       		.uleb128 0x41
 6601 1c1d B71A0000 		.4byte	0x1ab7
 6602 1c21 3E010000 		.4byte	.LBB53
 6603 1c25 B8000000 		.4byte	.Ldebug_ranges0+0xb8
 6604 1c29 01       		.byte	0x1
 6605 1c2a 2203     		.2byte	0x322
 6606 1c2c 8B1C0000 		.4byte	0x1c8b
 6607 1c30 38       		.uleb128 0x38
 6608 1c31 DE1A0000 		.4byte	0x1ade
 6609 1c35 C40A0000 		.4byte	.LLST39
 6610 1c39 38       		.uleb128 0x38
 6611 1c3a D21A0000 		.4byte	0x1ad2
 6612 1c3e E20A0000 		.4byte	.LLST40
 6613 1c42 38       		.uleb128 0x38
 6614 1c43 C81A0000 		.4byte	0x1ac8
ARM GAS  C:\Users\jo\AppData\Local\Temp\ccRMLSMa.s 			page 118


 6615 1c47 000B0000 		.4byte	.LLST41
 6616 1c4b 3C       		.uleb128 0x3c
 6617 1c4c B8000000 		.4byte	.Ldebug_ranges0+0xb8
 6618 1c50 39       		.uleb128 0x39
 6619 1c51 EA1A0000 		.4byte	0x1aea
 6620 1c55 220B0000 		.4byte	.LLST42
 6621 1c59 34       		.uleb128 0x34
 6622 1c5a 4A010000 		.4byte	.LVL192
 6623 1c5e 6F2E0000 		.4byte	0x2e6f
 6624 1c62 731C0000 		.4byte	0x1c73
 6625 1c66 35       		.uleb128 0x35
 6626 1c67 01       		.uleb128 0x1
 6627 1c68 51       		.byte	0x51
 6628 1c69 02       		.uleb128 0x2
 6629 1c6a 74       		.byte	0x74
 6630 1c6b 00       		.sleb128 0
 6631 1c6c 35       		.uleb128 0x35
 6632 1c6d 01       		.uleb128 0x1
 6633 1c6e 50       		.byte	0x50
 6634 1c6f 02       		.uleb128 0x2
 6635 1c70 75       		.byte	0x75
 6636 1c71 00       		.sleb128 0
 6637 1c72 00       		.byte	0
 6638 1c73 3E       		.uleb128 0x3e
 6639 1c74 74010000 		.4byte	.LVL204
 6640 1c78 4A2F0000 		.4byte	0x2f4a
 6641 1c7c 35       		.uleb128 0x35
 6642 1c7d 01       		.uleb128 0x1
 6643 1c7e 51       		.byte	0x51
 6644 1c7f 02       		.uleb128 0x2
 6645 1c80 74       		.byte	0x74
 6646 1c81 00       		.sleb128 0
 6647 1c82 35       		.uleb128 0x35
 6648 1c83 01       		.uleb128 0x1
 6649 1c84 50       		.byte	0x50
 6650 1c85 02       		.uleb128 0x2
 6651 1c86 75       		.byte	0x75
 6652 1c87 00       		.sleb128 0
 6653 1c88 00       		.byte	0
 6654 1c89 00       		.byte	0
 6655 1c8a 00       		.byte	0
 6656 1c8b 34       		.uleb128 0x34
 6657 1c8c 1A000000 		.4byte	.LVL151
 6658 1c90 1E2D0000 		.4byte	0x2d1e
 6659 1c94 B61C0000 		.4byte	0x1cb6
 6660 1c98 35       		.uleb128 0x35
 6661 1c99 01       		.uleb128 0x1
 6662 1c9a 53       		.byte	0x53
 6663 1c9b 02       		.uleb128 0x2
 6664 1c9c 08       		.byte	0x8
 6665 1c9d 30       		.byte	0x30
 6666 1c9e 35       		.uleb128 0x35
 6667 1c9f 01       		.uleb128 0x1
 6668 1ca0 52       		.byte	0x52
 6669 1ca1 02       		.uleb128 0x2
 6670 1ca2 91       		.byte	0x91
 6671 1ca3 54       		.sleb128 -44
ARM GAS  C:\Users\jo\AppData\Local\Temp\ccRMLSMa.s 			page 119


 6672 1ca4 35       		.uleb128 0x35
 6673 1ca5 01       		.uleb128 0x1
 6674 1ca6 51       		.byte	0x51
 6675 1ca7 07       		.uleb128 0x7
 6676 1ca8 F3       		.byte	0xf3
 6677 1ca9 01       		.uleb128 0x1
 6678 1caa 51       		.byte	0x51
 6679 1cab F3       		.byte	0xf3
 6680 1cac 01       		.uleb128 0x1
 6681 1cad 52       		.byte	0x52
 6682 1cae 22       		.byte	0x22
 6683 1caf 35       		.uleb128 0x35
 6684 1cb0 01       		.uleb128 0x1
 6685 1cb1 50       		.byte	0x50
 6686 1cb2 02       		.uleb128 0x2
 6687 1cb3 76       		.byte	0x76
 6688 1cb4 00       		.sleb128 0
 6689 1cb5 00       		.byte	0
 6690 1cb6 34       		.uleb128 0x34
 6691 1cb7 36000000 		.4byte	.LVL157
 6692 1cbb 422D0000 		.4byte	0x2d42
 6693 1cbf D61C0000 		.4byte	0x1cd6
 6694 1cc3 35       		.uleb128 0x35
 6695 1cc4 01       		.uleb128 0x1
 6696 1cc5 52       		.byte	0x52
 6697 1cc6 02       		.uleb128 0x2
 6698 1cc7 91       		.byte	0x91
 6699 1cc8 50       		.sleb128 -48
 6700 1cc9 35       		.uleb128 0x35
 6701 1cca 01       		.uleb128 0x1
 6702 1ccb 51       		.byte	0x51
 6703 1ccc 02       		.uleb128 0x2
 6704 1ccd 77       		.byte	0x77
 6705 1cce 00       		.sleb128 0
 6706 1ccf 35       		.uleb128 0x35
 6707 1cd0 01       		.uleb128 0x1
 6708 1cd1 50       		.byte	0x50
 6709 1cd2 02       		.uleb128 0x2
 6710 1cd3 76       		.byte	0x76
 6711 1cd4 00       		.sleb128 0
 6712 1cd5 00       		.byte	0
 6713 1cd6 34       		.uleb128 0x34
 6714 1cd7 4C000000 		.4byte	.LVL159
 6715 1cdb 1E2D0000 		.4byte	0x2d1e
 6716 1cdf FB1C0000 		.4byte	0x1cfb
 6717 1ce3 35       		.uleb128 0x35
 6718 1ce4 01       		.uleb128 0x1
 6719 1ce5 53       		.byte	0x53
 6720 1ce6 01       		.uleb128 0x1
 6721 1ce7 34       		.byte	0x34
 6722 1ce8 35       		.uleb128 0x35
 6723 1ce9 01       		.uleb128 0x1
 6724 1cea 52       		.byte	0x52
 6725 1ceb 02       		.uleb128 0x2
 6726 1cec 91       		.byte	0x91
 6727 1ced 54       		.sleb128 -44
 6728 1cee 35       		.uleb128 0x35
ARM GAS  C:\Users\jo\AppData\Local\Temp\ccRMLSMa.s 			page 120


 6729 1cef 01       		.uleb128 0x1
 6730 1cf0 51       		.byte	0x51
 6731 1cf1 02       		.uleb128 0x2
 6732 1cf2 77       		.byte	0x77
 6733 1cf3 00       		.sleb128 0
 6734 1cf4 35       		.uleb128 0x35
 6735 1cf5 01       		.uleb128 0x1
 6736 1cf6 50       		.byte	0x50
 6737 1cf7 02       		.uleb128 0x2
 6738 1cf8 76       		.byte	0x76
 6739 1cf9 00       		.sleb128 0
 6740 1cfa 00       		.byte	0
 6741 1cfb 34       		.uleb128 0x34
 6742 1cfc 5E000000 		.4byte	.LVL161
 6743 1d00 4F2E0000 		.4byte	0x2e4f
 6744 1d04 0F1D0000 		.4byte	0x1d0f
 6745 1d08 35       		.uleb128 0x35
 6746 1d09 01       		.uleb128 0x1
 6747 1d0a 50       		.byte	0x50
 6748 1d0b 02       		.uleb128 0x2
 6749 1d0c 78       		.byte	0x78
 6750 1d0d 00       		.sleb128 0
 6751 1d0e 00       		.byte	0
 6752 1d0f 34       		.uleb128 0x34
 6753 1d10 7C000000 		.4byte	.LVL164
 6754 1d14 1E2D0000 		.4byte	0x2d1e
 6755 1d18 351D0000 		.4byte	0x1d35
 6756 1d1c 35       		.uleb128 0x35
 6757 1d1d 01       		.uleb128 0x1
 6758 1d1e 53       		.byte	0x53
 6759 1d1f 02       		.uleb128 0x2
 6760 1d20 08       		.byte	0x8
 6761 1d21 A0       		.byte	0xa0
 6762 1d22 35       		.uleb128 0x35
 6763 1d23 01       		.uleb128 0x1
 6764 1d24 52       		.byte	0x52
 6765 1d25 02       		.uleb128 0x2
 6766 1d26 91       		.byte	0x91
 6767 1d27 54       		.sleb128 -44
 6768 1d28 35       		.uleb128 0x35
 6769 1d29 01       		.uleb128 0x1
 6770 1d2a 51       		.byte	0x51
 6771 1d2b 02       		.uleb128 0x2
 6772 1d2c 77       		.byte	0x77
 6773 1d2d 00       		.sleb128 0
 6774 1d2e 35       		.uleb128 0x35
 6775 1d2f 01       		.uleb128 0x1
 6776 1d30 50       		.byte	0x50
 6777 1d31 02       		.uleb128 0x2
 6778 1d32 76       		.byte	0x76
 6779 1d33 00       		.sleb128 0
 6780 1d34 00       		.byte	0
 6781 1d35 34       		.uleb128 0x34
 6782 1d36 92000000 		.4byte	.LVL166
 6783 1d3a 1E2D0000 		.4byte	0x2d1e
 6784 1d3e 5B1D0000 		.4byte	0x1d5b
 6785 1d42 35       		.uleb128 0x35
ARM GAS  C:\Users\jo\AppData\Local\Temp\ccRMLSMa.s 			page 121


 6786 1d43 01       		.uleb128 0x1
 6787 1d44 53       		.byte	0x53
 6788 1d45 02       		.uleb128 0x2
 6789 1d46 08       		.byte	0x8
 6790 1d47 A1       		.byte	0xa1
 6791 1d48 35       		.uleb128 0x35
 6792 1d49 01       		.uleb128 0x1
 6793 1d4a 52       		.byte	0x52
 6794 1d4b 02       		.uleb128 0x2
 6795 1d4c 91       		.byte	0x91
 6796 1d4d 54       		.sleb128 -44
 6797 1d4e 35       		.uleb128 0x35
 6798 1d4f 01       		.uleb128 0x1
 6799 1d50 51       		.byte	0x51
 6800 1d51 02       		.uleb128 0x2
 6801 1d52 77       		.byte	0x77
 6802 1d53 00       		.sleb128 0
 6803 1d54 35       		.uleb128 0x35
 6804 1d55 01       		.uleb128 0x1
 6805 1d56 50       		.byte	0x50
 6806 1d57 02       		.uleb128 0x2
 6807 1d58 76       		.byte	0x76
 6808 1d59 00       		.sleb128 0
 6809 1d5a 00       		.byte	0
 6810 1d5b 34       		.uleb128 0x34
 6811 1d5c B6000000 		.4byte	.LVL168
 6812 1d60 702F0000 		.4byte	0x2f70
 6813 1d64 8D1D0000 		.4byte	0x1d8d
 6814 1d68 35       		.uleb128 0x35
 6815 1d69 01       		.uleb128 0x1
 6816 1d6a 53       		.byte	0x53
 6817 1d6b 02       		.uleb128 0x2
 6818 1d6c 75       		.byte	0x75
 6819 1d6d 28       		.sleb128 40
 6820 1d6e 35       		.uleb128 0x35
 6821 1d6f 01       		.uleb128 0x1
 6822 1d70 52       		.byte	0x52
 6823 1d71 02       		.uleb128 0x2
 6824 1d72 78       		.byte	0x78
 6825 1d73 00       		.sleb128 0
 6826 1d74 35       		.uleb128 0x35
 6827 1d75 01       		.uleb128 0x1
 6828 1d76 51       		.byte	0x51
 6829 1d77 02       		.uleb128 0x2
 6830 1d78 74       		.byte	0x74
 6831 1d79 00       		.sleb128 0
 6832 1d7a 35       		.uleb128 0x35
 6833 1d7b 01       		.uleb128 0x1
 6834 1d7c 50       		.byte	0x50
 6835 1d7d 02       		.uleb128 0x2
 6836 1d7e 75       		.byte	0x75
 6837 1d7f 00       		.sleb128 0
 6838 1d80 35       		.uleb128 0x35
 6839 1d81 02       		.uleb128 0x2
 6840 1d82 7D       		.byte	0x7d
 6841 1d83 04       		.sleb128 4
 6842 1d84 01       		.uleb128 0x1
ARM GAS  C:\Users\jo\AppData\Local\Temp\ccRMLSMa.s 			page 122


 6843 1d85 30       		.byte	0x30
 6844 1d86 35       		.uleb128 0x35
 6845 1d87 02       		.uleb128 0x2
 6846 1d88 7D       		.byte	0x7d
 6847 1d89 00       		.sleb128 0
 6848 1d8a 01       		.uleb128 0x1
 6849 1d8b 30       		.byte	0x30
 6850 1d8c 00       		.byte	0
 6851 1d8d 34       		.uleb128 0x34
 6852 1d8e C2000000 		.4byte	.LVL170
 6853 1d92 9F2F0000 		.4byte	0x2f9f
 6854 1d96 A71D0000 		.4byte	0x1da7
 6855 1d9a 35       		.uleb128 0x35
 6856 1d9b 01       		.uleb128 0x1
 6857 1d9c 51       		.byte	0x51
 6858 1d9d 02       		.uleb128 0x2
 6859 1d9e 78       		.byte	0x78
 6860 1d9f 00       		.sleb128 0
 6861 1da0 35       		.uleb128 0x35
 6862 1da1 01       		.uleb128 0x1
 6863 1da2 50       		.byte	0x50
 6864 1da3 02       		.uleb128 0x2
 6865 1da4 75       		.byte	0x75
 6866 1da5 00       		.sleb128 0
 6867 1da6 00       		.byte	0
 6868 1da7 34       		.uleb128 0x34
 6869 1da8 CE000000 		.4byte	.LVL172
 6870 1dac BA2F0000 		.4byte	0x2fba
 6871 1db0 BB1D0000 		.4byte	0x1dbb
 6872 1db4 35       		.uleb128 0x35
 6873 1db5 01       		.uleb128 0x1
 6874 1db6 50       		.byte	0x50
 6875 1db7 02       		.uleb128 0x2
 6876 1db8 75       		.byte	0x75
 6877 1db9 00       		.sleb128 0
 6878 1dba 00       		.byte	0
 6879 1dbb 34       		.uleb128 0x34
 6880 1dbc DC000000 		.4byte	.LVL177
 6881 1dc0 BA2F0000 		.4byte	0x2fba
 6882 1dc4 CF1D0000 		.4byte	0x1dcf
 6883 1dc8 35       		.uleb128 0x35
 6884 1dc9 01       		.uleb128 0x1
 6885 1dca 50       		.byte	0x50
 6886 1dcb 02       		.uleb128 0x2
 6887 1dcc 75       		.byte	0x75
 6888 1dcd 00       		.sleb128 0
 6889 1dce 00       		.byte	0
 6890 1dcf 34       		.uleb128 0x34
 6891 1dd0 16010000 		.4byte	.LVL184
 6892 1dd4 2A150000 		.4byte	0x152a
 6893 1dd8 E91D0000 		.4byte	0x1de9
 6894 1ddc 35       		.uleb128 0x35
 6895 1ddd 01       		.uleb128 0x1
 6896 1dde 51       		.byte	0x51
 6897 1ddf 02       		.uleb128 0x2
 6898 1de0 75       		.byte	0x75
 6899 1de1 00       		.sleb128 0
ARM GAS  C:\Users\jo\AppData\Local\Temp\ccRMLSMa.s 			page 123


 6900 1de2 35       		.uleb128 0x35
 6901 1de3 01       		.uleb128 0x1
 6902 1de4 50       		.byte	0x50
 6903 1de5 02       		.uleb128 0x2
 6904 1de6 91       		.byte	0x91
 6905 1de7 5C       		.sleb128 -36
 6906 1de8 00       		.byte	0
 6907 1de9 3E       		.uleb128 0x3e
 6908 1dea 2E010000 		.4byte	.LVL188
 6909 1dee CC2F0000 		.4byte	0x2fcc
 6910 1df2 35       		.uleb128 0x35
 6911 1df3 01       		.uleb128 0x1
 6912 1df4 52       		.byte	0x52
 6913 1df5 02       		.uleb128 0x2
 6914 1df6 91       		.byte	0x91
 6915 1df7 54       		.sleb128 -44
 6916 1df8 35       		.uleb128 0x35
 6917 1df9 01       		.uleb128 0x1
 6918 1dfa 51       		.byte	0x51
 6919 1dfb 02       		.uleb128 0x2
 6920 1dfc 74       		.byte	0x74
 6921 1dfd 00       		.sleb128 0
 6922 1dfe 35       		.uleb128 0x35
 6923 1dff 01       		.uleb128 0x1
 6924 1e00 50       		.byte	0x50
 6925 1e01 02       		.uleb128 0x2
 6926 1e02 76       		.byte	0x76
 6927 1e03 00       		.sleb128 0
 6928 1e04 00       		.byte	0
 6929 1e05 00       		.byte	0
 6930 1e06 2F       		.uleb128 0x2f
 6931 1e07 BD030000 		.4byte	.LASF271
 6932 1e0b 01       		.byte	0x1
 6933 1e0c 4A03     		.2byte	0x34a
 6934 1e0e 25000000 		.4byte	0x25
 6935 1e12 00000000 		.4byte	.LFB26
 6936 1e16 E8000000 		.4byte	.LFE26-.LFB26
 6937 1e1a 01       		.uleb128 0x1
 6938 1e1b 9C       		.byte	0x9c
 6939 1e1c C51F0000 		.4byte	0x1fc5
 6940 1e20 30       		.uleb128 0x30
 6941 1e21 706B00   		.ascii	"pk\000"
 6942 1e24 01       		.byte	0x1
 6943 1e25 4B03     		.2byte	0x34b
 6944 1e27 C51F0000 		.4byte	0x1fc5
 6945 1e2b 4B0B0000 		.4byte	.LLST43
 6946 1e2f 30       		.uleb128 0x30
 6947 1e30 6B657900 		.ascii	"key\000"
 6948 1e34 01       		.byte	0x1
 6949 1e35 4C03     		.2byte	0x34c
 6950 1e37 B3000000 		.4byte	0xb3
 6951 1e3b 690B0000 		.4byte	.LLST44
 6952 1e3f 31       		.uleb128 0x31
 6953 1e40 8E080000 		.4byte	.LASF258
 6954 1e44 01       		.byte	0x1
 6955 1e45 4D03     		.2byte	0x34d
 6956 1e47 2C000000 		.4byte	0x2c
ARM GAS  C:\Users\jo\AppData\Local\Temp\ccRMLSMa.s 			page 124


 6957 1e4b AE0B0000 		.4byte	.LLST45
 6958 1e4f 32       		.uleb128 0x32
 6959 1e50 72657400 		.ascii	"ret\000"
 6960 1e54 01       		.byte	0x1
 6961 1e55 4F03     		.2byte	0x34f
 6962 1e57 25000000 		.4byte	0x25
 6963 1e5b CF0B0000 		.4byte	.LLST46
 6964 1e5f 40       		.uleb128 0x40
 6965 1e60 04020000 		.4byte	.LASF268
 6966 1e64 01       		.byte	0x1
 6967 1e65 4F03     		.2byte	0x34f
 6968 1e67 25000000 		.4byte	0x25
 6969 1e6b 02       		.uleb128 0x2
 6970 1e6c 91       		.byte	0x91
 6971 1e6d 58       		.sleb128 -40
 6972 1e6e 33       		.uleb128 0x33
 6973 1e6f 6C656E00 		.ascii	"len\000"
 6974 1e73 01       		.byte	0x1
 6975 1e74 5003     		.2byte	0x350
 6976 1e76 2C000000 		.4byte	0x2c
 6977 1e7a 02       		.uleb128 0x2
 6978 1e7b 91       		.byte	0x91
 6979 1e7c 5C       		.sleb128 -36
 6980 1e7d 40       		.uleb128 0x40
 6981 1e7e 21000000 		.4byte	.LASF252
 6982 1e82 01       		.byte	0x1
 6983 1e83 5103     		.2byte	0x351
 6984 1e85 D40E0000 		.4byte	0xed4
 6985 1e89 02       		.uleb128 0x2
 6986 1e8a 91       		.byte	0x91
 6987 1e8b 64       		.sleb128 -28
 6988 1e8c 33       		.uleb128 0x33
 6989 1e8d 7000     		.ascii	"p\000"
 6990 1e8f 01       		.byte	0x1
 6991 1e90 5203     		.2byte	0x352
 6992 1e92 C5000000 		.4byte	0xc5
 6993 1e96 02       		.uleb128 0x2
 6994 1e97 91       		.byte	0x91
 6995 1e98 60       		.sleb128 -32
 6996 1e99 32       		.uleb128 0x32
 6997 1e9a 656E6400 		.ascii	"end\000"
 6998 1e9e 01       		.byte	0x1
 6999 1e9f 5303     		.2byte	0x353
 7000 1ea1 C5000000 		.4byte	0xc5
 7001 1ea5 7C0C0000 		.4byte	.LLST47
 7002 1ea9 40       		.uleb128 0x40
 7003 1eaa DE090000 		.4byte	.LASF251
 7004 1eae 01       		.byte	0x1
 7005 1eaf 5403     		.2byte	0x354
 7006 1eb1 370C0000 		.4byte	0xc37
 7007 1eb5 02       		.uleb128 0x2
 7008 1eb6 91       		.byte	0x91
 7009 1eb7 57       		.sleb128 -41
 7010 1eb8 44       		.uleb128 0x44
 7011 1eb9 E30C0000 		.4byte	.LASF193
 7012 1ebd 01       		.byte	0x1
 7013 1ebe 5503     		.2byte	0x355
ARM GAS  C:\Users\jo\AppData\Local\Temp\ccRMLSMa.s 			page 125


 7014 1ec0 8F0E0000 		.4byte	0xe8f
 7015 1ec4 9A0C0000 		.4byte	.LLST48
 7016 1ec8 34       		.uleb128 0x34
 7017 1ec9 1C000000 		.4byte	.LVL209
 7018 1ecd 1E2D0000 		.4byte	0x2d1e
 7019 1ed1 F21E0000 		.4byte	0x1ef2
 7020 1ed5 35       		.uleb128 0x35
 7021 1ed6 01       		.uleb128 0x1
 7022 1ed7 53       		.byte	0x53
 7023 1ed8 02       		.uleb128 0x2
 7024 1ed9 08       		.byte	0x8
 7025 1eda 30       		.byte	0x30
 7026 1edb 35       		.uleb128 0x35
 7027 1edc 01       		.uleb128 0x1
 7028 1edd 52       		.byte	0x52
 7029 1ede 02       		.uleb128 0x2
 7030 1edf 91       		.byte	0x91
 7031 1ee0 5C       		.sleb128 -36
 7032 1ee1 35       		.uleb128 0x35
 7033 1ee2 01       		.uleb128 0x1
 7034 1ee3 51       		.byte	0x51
 7035 1ee4 06       		.uleb128 0x6
 7036 1ee5 74       		.byte	0x74
 7037 1ee6 00       		.sleb128 0
 7038 1ee7 F3       		.byte	0xf3
 7039 1ee8 01       		.uleb128 0x1
 7040 1ee9 52       		.byte	0x52
 7041 1eea 22       		.byte	0x22
 7042 1eeb 35       		.uleb128 0x35
 7043 1eec 01       		.uleb128 0x1
 7044 1eed 50       		.byte	0x50
 7045 1eee 02       		.uleb128 0x2
 7046 1eef 91       		.byte	0x91
 7047 1ef0 60       		.sleb128 -32
 7048 1ef1 00       		.byte	0
 7049 1ef2 34       		.uleb128 0x34
 7050 1ef3 38000000 		.4byte	.LVL215
 7051 1ef7 422D0000 		.4byte	0x2d42
 7052 1efb 121F0000 		.4byte	0x1f12
 7053 1eff 35       		.uleb128 0x35
 7054 1f00 01       		.uleb128 0x1
 7055 1f01 52       		.byte	0x52
 7056 1f02 02       		.uleb128 0x2
 7057 1f03 91       		.byte	0x91
 7058 1f04 58       		.sleb128 -40
 7059 1f05 35       		.uleb128 0x35
 7060 1f06 01       		.uleb128 0x1
 7061 1f07 51       		.byte	0x51
 7062 1f08 02       		.uleb128 0x2
 7063 1f09 75       		.byte	0x75
 7064 1f0a 00       		.sleb128 0
 7065 1f0b 35       		.uleb128 0x35
 7066 1f0c 01       		.uleb128 0x1
 7067 1f0d 50       		.byte	0x50
 7068 1f0e 02       		.uleb128 0x2
 7069 1f0f 91       		.byte	0x91
 7070 1f10 60       		.sleb128 -32
ARM GAS  C:\Users\jo\AppData\Local\Temp\ccRMLSMa.s 			page 126


 7071 1f11 00       		.byte	0
 7072 1f12 34       		.uleb128 0x34
 7073 1f13 56000000 		.4byte	.LVL220
 7074 1f17 51100000 		.4byte	0x1051
 7075 1f1b 381F0000 		.4byte	0x1f38
 7076 1f1f 35       		.uleb128 0x35
 7077 1f20 01       		.uleb128 0x1
 7078 1f21 53       		.byte	0x53
 7079 1f22 02       		.uleb128 0x2
 7080 1f23 91       		.byte	0x91
 7081 1f24 64       		.sleb128 -28
 7082 1f25 35       		.uleb128 0x35
 7083 1f26 01       		.uleb128 0x1
 7084 1f27 52       		.byte	0x52
 7085 1f28 02       		.uleb128 0x2
 7086 1f29 91       		.byte	0x91
 7087 1f2a 57       		.sleb128 -41
 7088 1f2b 35       		.uleb128 0x35
 7089 1f2c 01       		.uleb128 0x1
 7090 1f2d 51       		.byte	0x51
 7091 1f2e 02       		.uleb128 0x2
 7092 1f2f 75       		.byte	0x75
 7093 1f30 00       		.sleb128 0
 7094 1f31 35       		.uleb128 0x35
 7095 1f32 01       		.uleb128 0x1
 7096 1f33 50       		.byte	0x50
 7097 1f34 02       		.uleb128 0x2
 7098 1f35 91       		.byte	0x91
 7099 1f36 60       		.sleb128 -32
 7100 1f37 00       		.byte	0
 7101 1f38 34       		.uleb128 0x34
 7102 1f39 66000000 		.4byte	.LVL222
 7103 1f3d 1E2D0000 		.4byte	0x2d1e
 7104 1f41 5D1F0000 		.4byte	0x1f5d
 7105 1f45 35       		.uleb128 0x35
 7106 1f46 01       		.uleb128 0x1
 7107 1f47 53       		.byte	0x53
 7108 1f48 01       		.uleb128 0x1
 7109 1f49 34       		.byte	0x34
 7110 1f4a 35       		.uleb128 0x35
 7111 1f4b 01       		.uleb128 0x1
 7112 1f4c 52       		.byte	0x52
 7113 1f4d 02       		.uleb128 0x2
 7114 1f4e 91       		.byte	0x91
 7115 1f4f 5C       		.sleb128 -36
 7116 1f50 35       		.uleb128 0x35
 7117 1f51 01       		.uleb128 0x1
 7118 1f52 51       		.byte	0x51
 7119 1f53 02       		.uleb128 0x2
 7120 1f54 75       		.byte	0x75
 7121 1f55 00       		.sleb128 0
 7122 1f56 35       		.uleb128 0x35
 7123 1f57 01       		.uleb128 0x1
 7124 1f58 50       		.byte	0x50
 7125 1f59 02       		.uleb128 0x2
 7126 1f5a 91       		.byte	0x91
 7127 1f5b 60       		.sleb128 -32
ARM GAS  C:\Users\jo\AppData\Local\Temp\ccRMLSMa.s 			page 127


 7128 1f5c 00       		.byte	0
 7129 1f5d 36       		.uleb128 0x36
 7130 1f5e 76000000 		.4byte	.LVL224
 7131 1f62 EB2F0000 		.4byte	0x2feb
 7132 1f66 34       		.uleb128 0x34
 7133 1f67 80000000 		.4byte	.LVL226
 7134 1f6b 00300000 		.4byte	0x3000
 7135 1f6f 7A1F0000 		.4byte	0x1f7a
 7136 1f73 35       		.uleb128 0x35
 7137 1f74 01       		.uleb128 0x1
 7138 1f75 50       		.byte	0x50
 7139 1f76 02       		.uleb128 0x2
 7140 1f77 76       		.byte	0x76
 7141 1f78 00       		.sleb128 0
 7142 1f79 00       		.byte	0
 7143 1f7a 34       		.uleb128 0x34
 7144 1f7b 98000000 		.4byte	.LVL228
 7145 1f7f 2A150000 		.4byte	0x152a
 7146 1f83 8E1F0000 		.4byte	0x1f8e
 7147 1f87 35       		.uleb128 0x35
 7148 1f88 01       		.uleb128 0x1
 7149 1f89 50       		.byte	0x50
 7150 1f8a 02       		.uleb128 0x2
 7151 1f8b 91       		.byte	0x91
 7152 1f8c 64       		.sleb128 -28
 7153 1f8d 00       		.byte	0
 7154 1f8e 36       		.uleb128 0x36
 7155 1f8f A6000000 		.4byte	.LVL231
 7156 1f93 FD1A0000 		.4byte	0x1afd
 7157 1f97 34       		.uleb128 0x34
 7158 1f98 B2000000 		.4byte	.LVL233
 7159 1f9c 1A300000 		.4byte	0x301a
 7160 1fa0 AB1F0000 		.4byte	0x1fab
 7161 1fa4 35       		.uleb128 0x35
 7162 1fa5 01       		.uleb128 0x1
 7163 1fa6 50       		.byte	0x50
 7164 1fa7 02       		.uleb128 0x2
 7165 1fa8 76       		.byte	0x76
 7166 1fa9 00       		.sleb128 0
 7167 1faa 00       		.byte	0
 7168 1fab 36       		.uleb128 0x36
 7169 1fac CC000000 		.4byte	.LVL238
 7170 1fb0 76110000 		.4byte	0x1176
 7171 1fb4 3E       		.uleb128 0x3e
 7172 1fb5 DA000000 		.4byte	.LVL240
 7173 1fb9 1A300000 		.4byte	0x301a
 7174 1fbd 35       		.uleb128 0x35
 7175 1fbe 01       		.uleb128 0x1
 7176 1fbf 50       		.byte	0x50
 7177 1fc0 02       		.uleb128 0x2
 7178 1fc1 76       		.byte	0x76
 7179 1fc2 00       		.sleb128 0
 7180 1fc3 00       		.byte	0
 7181 1fc4 00       		.byte	0
 7182 1fc5 07       		.uleb128 0x7
 7183 1fc6 04       		.byte	0x4
 7184 1fc7 9A0E0000 		.4byte	0xe9a
ARM GAS  C:\Users\jo\AppData\Local\Temp\ccRMLSMa.s 			page 128


 7185 1fcb 2F       		.uleb128 0x2f
 7186 1fcc C40D0000 		.4byte	.LASF272
 7187 1fd0 01       		.byte	0x1
 7188 1fd1 A303     		.2byte	0x3a3
 7189 1fd3 25000000 		.4byte	0x25
 7190 1fd7 00000000 		.4byte	.LFB27
 7191 1fdb 44010000 		.4byte	.LFE27-.LFB27
 7192 1fdf 01       		.uleb128 0x1
 7193 1fe0 9C       		.byte	0x9c
 7194 1fe1 5E220000 		.4byte	0x225e
 7195 1fe5 30       		.uleb128 0x30
 7196 1fe6 706B00   		.ascii	"pk\000"
 7197 1fe9 01       		.byte	0x1
 7198 1fea A403     		.2byte	0x3a4
 7199 1fec C51F0000 		.4byte	0x1fc5
 7200 1ff0 B80C0000 		.4byte	.LLST49
 7201 1ff4 30       		.uleb128 0x30
 7202 1ff5 6B657900 		.ascii	"key\000"
 7203 1ff9 01       		.byte	0x1
 7204 1ffa A503     		.2byte	0x3a5
 7205 1ffc B3000000 		.4byte	0xb3
 7206 2000 E40C0000 		.4byte	.LLST50
 7207 2004 31       		.uleb128 0x31
 7208 2005 8E080000 		.4byte	.LASF258
 7209 2009 01       		.byte	0x1
 7210 200a A503     		.2byte	0x3a5
 7211 200c 2C000000 		.4byte	0x2c
 7212 2010 100D0000 		.4byte	.LLST51
 7213 2014 30       		.uleb128 0x30
 7214 2015 70776400 		.ascii	"pwd\000"
 7215 2019 01       		.byte	0x1
 7216 201a A603     		.2byte	0x3a6
 7217 201c B3000000 		.4byte	0xb3
 7218 2020 550D0000 		.4byte	.LLST52
 7219 2024 31       		.uleb128 0x31
 7220 2025 74020000 		.4byte	.LASF273
 7221 2029 01       		.byte	0x1
 7222 202a A603     		.2byte	0x3a6
 7223 202c 2C000000 		.4byte	0x2c
 7224 2030 810D0000 		.4byte	.LLST53
 7225 2034 32       		.uleb128 0x32
 7226 2035 72657400 		.ascii	"ret\000"
 7227 2039 01       		.byte	0x1
 7228 203a A803     		.2byte	0x3a8
 7229 203c 25000000 		.4byte	0x25
 7230 2040 A10D0000 		.4byte	.LLST54
 7231 2044 44       		.uleb128 0x44
 7232 2045 B7000000 		.4byte	.LASF274
 7233 2049 01       		.byte	0x1
 7234 204a A803     		.2byte	0x3a8
 7235 204c 25000000 		.4byte	0x25
 7236 2050 260E0000 		.4byte	.LLST55
 7237 2054 33       		.uleb128 0x33
 7238 2055 6C656E00 		.ascii	"len\000"
 7239 2059 01       		.byte	0x1
 7240 205a A903     		.2byte	0x3a9
 7241 205c 2C000000 		.4byte	0x2c
ARM GAS  C:\Users\jo\AppData\Local\Temp\ccRMLSMa.s 			page 129


 7242 2060 03       		.uleb128 0x3
 7243 2061 91       		.byte	0x91
 7244 2062 C86F     		.sleb128 -2104
 7245 2064 33       		.uleb128 0x33
 7246 2065 62756600 		.ascii	"buf\000"
 7247 2069 01       		.byte	0x1
 7248 206a AA03     		.2byte	0x3aa
 7249 206c 5E220000 		.4byte	0x225e
 7250 2070 03       		.uleb128 0x3
 7251 2071 91       		.byte	0x91
 7252 2072 E86F     		.sleb128 -2072
 7253 2074 33       		.uleb128 0x33
 7254 2075 7000     		.ascii	"p\000"
 7255 2077 01       		.byte	0x1
 7256 2078 AB03     		.2byte	0x3ab
 7257 207a C5000000 		.4byte	0xc5
 7258 207e 03       		.uleb128 0x3
 7259 207f 91       		.byte	0x91
 7260 2080 CC6F     		.sleb128 -2100
 7261 2082 32       		.uleb128 0x32
 7262 2083 656E6400 		.ascii	"end\000"
 7263 2087 01       		.byte	0x1
 7264 2088 AB03     		.2byte	0x3ab
 7265 208a C5000000 		.4byte	0xc5
 7266 208e 3A0E0000 		.4byte	.LLST56
 7267 2092 40       		.uleb128 0x40
 7268 2093 82040000 		.4byte	.LASF275
 7269 2097 01       		.byte	0x1
 7270 2098 AC03     		.2byte	0x3ac
 7271 209a D40E0000 		.4byte	0xed4
 7272 209e 03       		.uleb128 0x3
 7273 209f 91       		.byte	0x91
 7274 20a0 D06F     		.sleb128 -2096
 7275 20a2 40       		.uleb128 0x40
 7276 20a3 7B020000 		.4byte	.LASF276
 7277 20a7 01       		.byte	0x1
 7278 20a8 AC03     		.2byte	0x3ac
 7279 20aa D40E0000 		.4byte	0xed4
 7280 20ae 03       		.uleb128 0x3
 7281 20af 91       		.byte	0x91
 7282 20b0 DC6F     		.sleb128 -2084
 7283 20b2 40       		.uleb128 0x40
 7284 20b3 65090000 		.4byte	.LASF277
 7285 20b7 01       		.byte	0x1
 7286 20b8 AE03     		.2byte	0x3ae
 7287 20ba 0E100000 		.4byte	0x100e
 7288 20be 03       		.uleb128 0x3
 7289 20bf 91       		.byte	0x91
 7290 20c0 C66F     		.sleb128 -2106
 7291 20c2 40       		.uleb128 0x40
 7292 20c3 35060000 		.4byte	.LASF278
 7293 20c7 01       		.byte	0x1
 7294 20c8 AF03     		.2byte	0x3af
 7295 20ca 83000000 		.4byte	0x83
 7296 20ce 03       		.uleb128 0x3
 7297 20cf 91       		.byte	0x91
 7298 20d0 C76F     		.sleb128 -2105
ARM GAS  C:\Users\jo\AppData\Local\Temp\ccRMLSMa.s 			page 130


 7299 20d2 34       		.uleb128 0x34
 7300 20d3 1A000000 		.4byte	.LVL245
 7301 20d7 2B300000 		.4byte	0x302b
 7302 20db F3200000 		.4byte	0x20f3
 7303 20df 35       		.uleb128 0x35
 7304 20e0 01       		.uleb128 0x1
 7305 20e1 52       		.byte	0x52
 7306 20e2 03       		.uleb128 0x3
 7307 20e3 0A       		.byte	0xa
 7308 20e4 0008     		.2byte	0x800
 7309 20e6 35       		.uleb128 0x35
 7310 20e7 01       		.uleb128 0x1
 7311 20e8 51       		.byte	0x51
 7312 20e9 01       		.uleb128 0x1
 7313 20ea 30       		.byte	0x30
 7314 20eb 35       		.uleb128 0x35
 7315 20ec 01       		.uleb128 0x1
 7316 20ed 50       		.byte	0x50
 7317 20ee 03       		.uleb128 0x3
 7318 20ef 91       		.byte	0x91
 7319 20f0 E86F     		.sleb128 -2072
 7320 20f2 00       		.byte	0
 7321 20f3 34       		.uleb128 0x34
 7322 20f4 30000000 		.4byte	.LVL247
 7323 20f8 1E2D0000 		.4byte	0x2d1e
 7324 20fc 1E210000 		.4byte	0x211e
 7325 2100 35       		.uleb128 0x35
 7326 2101 01       		.uleb128 0x1
 7327 2102 53       		.byte	0x53
 7328 2103 02       		.uleb128 0x2
 7329 2104 08       		.byte	0x8
 7330 2105 30       		.byte	0x30
 7331 2106 35       		.uleb128 0x35
 7332 2107 01       		.uleb128 0x1
 7333 2108 52       		.byte	0x52
 7334 2109 03       		.uleb128 0x3
 7335 210a 91       		.byte	0x91
 7336 210b C86F     		.sleb128 -2104
 7337 210d 35       		.uleb128 0x35
 7338 210e 01       		.uleb128 0x1
 7339 210f 51       		.byte	0x51
 7340 2110 05       		.uleb128 0x5
 7341 2111 74       		.byte	0x74
 7342 2112 00       		.sleb128 0
 7343 2113 76       		.byte	0x76
 7344 2114 00       		.sleb128 0
 7345 2115 22       		.byte	0x22
 7346 2116 35       		.uleb128 0x35
 7347 2117 01       		.uleb128 0x1
 7348 2118 50       		.byte	0x50
 7349 2119 03       		.uleb128 0x3
 7350 211a 91       		.byte	0x91
 7351 211b CC6F     		.sleb128 -2100
 7352 211d 00       		.byte	0
 7353 211e 34       		.uleb128 0x34
 7354 211f 44000000 		.4byte	.LVL251
 7355 2123 DA2D0000 		.4byte	0x2dda
ARM GAS  C:\Users\jo\AppData\Local\Temp\ccRMLSMa.s 			page 131


 7356 2127 47210000 		.4byte	0x2147
 7357 212b 35       		.uleb128 0x35
 7358 212c 01       		.uleb128 0x1
 7359 212d 53       		.byte	0x53
 7360 212e 03       		.uleb128 0x3
 7361 212f 91       		.byte	0x91
 7362 2130 DC6F     		.sleb128 -2084
 7363 2132 35       		.uleb128 0x35
 7364 2133 01       		.uleb128 0x1
 7365 2134 52       		.byte	0x52
 7366 2135 03       		.uleb128 0x3
 7367 2136 91       		.byte	0x91
 7368 2137 D06F     		.sleb128 -2096
 7369 2139 35       		.uleb128 0x35
 7370 213a 01       		.uleb128 0x1
 7371 213b 51       		.byte	0x51
 7372 213c 02       		.uleb128 0x2
 7373 213d 76       		.byte	0x76
 7374 213e 00       		.sleb128 0
 7375 213f 35       		.uleb128 0x35
 7376 2140 01       		.uleb128 0x1
 7377 2141 50       		.byte	0x50
 7378 2142 03       		.uleb128 0x3
 7379 2143 91       		.byte	0x91
 7380 2144 CC6F     		.sleb128 -2100
 7381 2146 00       		.byte	0
 7382 2147 34       		.uleb128 0x34
 7383 2148 52000000 		.4byte	.LVL253
 7384 214c 1E2D0000 		.4byte	0x2d1e
 7385 2150 6E210000 		.4byte	0x216e
 7386 2154 35       		.uleb128 0x35
 7387 2155 01       		.uleb128 0x1
 7388 2156 53       		.byte	0x53
 7389 2157 01       		.uleb128 0x1
 7390 2158 34       		.byte	0x34
 7391 2159 35       		.uleb128 0x35
 7392 215a 01       		.uleb128 0x1
 7393 215b 52       		.byte	0x52
 7394 215c 03       		.uleb128 0x3
 7395 215d 91       		.byte	0x91
 7396 215e C86F     		.sleb128 -2104
 7397 2160 35       		.uleb128 0x35
 7398 2161 01       		.uleb128 0x1
 7399 2162 51       		.byte	0x51
 7400 2163 02       		.uleb128 0x2
 7401 2164 76       		.byte	0x76
 7402 2165 00       		.sleb128 0
 7403 2166 35       		.uleb128 0x35
 7404 2167 01       		.uleb128 0x1
 7405 2168 50       		.byte	0x50
 7406 2169 03       		.uleb128 0x3
 7407 216a 91       		.byte	0x91
 7408 216b CC6F     		.sleb128 -2100
 7409 216d 00       		.byte	0
 7410 216e 34       		.uleb128 0x34
 7411 216f 70000000 		.4byte	.LVL258
 7412 2173 48300000 		.4byte	0x3048
ARM GAS  C:\Users\jo\AppData\Local\Temp\ccRMLSMa.s 			page 132


 7413 2177 91210000 		.4byte	0x2191
 7414 217b 35       		.uleb128 0x35
 7415 217c 01       		.uleb128 0x1
 7416 217d 52       		.byte	0x52
 7417 217e 03       		.uleb128 0x3
 7418 217f 91       		.byte	0x91
 7419 2180 C66F     		.sleb128 -2106
 7420 2182 35       		.uleb128 0x35
 7421 2183 01       		.uleb128 0x1
 7422 2184 51       		.byte	0x51
 7423 2185 03       		.uleb128 0x3
 7424 2186 91       		.byte	0x91
 7425 2187 C76F     		.sleb128 -2105
 7426 2189 35       		.uleb128 0x35
 7427 218a 01       		.uleb128 0x1
 7428 218b 50       		.byte	0x50
 7429 218c 03       		.uleb128 0x3
 7430 218d 91       		.byte	0x91
 7431 218e D06F     		.sleb128 -2096
 7432 2190 00       		.byte	0
 7433 2191 34       		.uleb128 0x34
 7434 2192 96000000 		.4byte	.LVL260
 7435 2196 74300000 		.4byte	0x3074
 7436 219a C4210000 		.4byte	0x21c4
 7437 219e 35       		.uleb128 0x35
 7438 219f 01       		.uleb128 0x1
 7439 21a0 50       		.byte	0x50
 7440 21a1 03       		.uleb128 0x3
 7441 21a2 91       		.byte	0x91
 7442 21a3 DC6F     		.sleb128 -2084
 7443 21a5 35       		.uleb128 0x35
 7444 21a6 02       		.uleb128 0x2
 7445 21a7 7D       		.byte	0x7d
 7446 21a8 10       		.sleb128 16
 7447 21a9 03       		.uleb128 0x3
 7448 21aa 91       		.byte	0x91
 7449 21ab E86F     		.sleb128 -2072
 7450 21ad 35       		.uleb128 0x35
 7451 21ae 02       		.uleb128 0x2
 7452 21af 7D       		.byte	0x7d
 7453 21b0 08       		.sleb128 8
 7454 21b1 02       		.uleb128 0x2
 7455 21b2 76       		.byte	0x76
 7456 21b3 00       		.sleb128 0
 7457 21b4 35       		.uleb128 0x35
 7458 21b5 02       		.uleb128 0x2
 7459 21b6 7D       		.byte	0x7d
 7460 21b7 04       		.sleb128 4
 7461 21b8 03       		.uleb128 0x3
 7462 21b9 91       		.byte	0x91
 7463 21ba 00       		.sleb128 0
 7464 21bb 06       		.byte	0x6
 7465 21bc 35       		.uleb128 0x35
 7466 21bd 02       		.uleb128 0x2
 7467 21be 7D       		.byte	0x7d
 7468 21bf 00       		.sleb128 0
 7469 21c0 02       		.uleb128 0x2
ARM GAS  C:\Users\jo\AppData\Local\Temp\ccRMLSMa.s 			page 133


 7470 21c1 77       		.byte	0x77
 7471 21c2 00       		.sleb128 0
 7472 21c3 00       		.byte	0
 7473 21c4 34       		.uleb128 0x34
 7474 21c5 B0000000 		.4byte	.LVL262
 7475 21c9 1A2E0000 		.4byte	0x2e1a
 7476 21cd DB210000 		.4byte	0x21db
 7477 21d1 35       		.uleb128 0x35
 7478 21d2 01       		.uleb128 0x1
 7479 21d3 50       		.byte	0x50
 7480 21d4 05       		.uleb128 0x5
 7481 21d5 03       		.byte	0x3
 7482 21d6 08000000 		.4byte	.LC1
 7483 21da 00       		.byte	0
 7484 21db 34       		.uleb128 0x34
 7485 21dc CC000000 		.4byte	.LVL263
 7486 21e0 B1300000 		.4byte	0x30b1
 7487 21e4 05220000 		.4byte	0x2205
 7488 21e8 35       		.uleb128 0x35
 7489 21e9 01       		.uleb128 0x1
 7490 21ea 53       		.byte	0x53
 7491 21eb 03       		.uleb128 0x3
 7492 21ec 91       		.byte	0x91
 7493 21ed 00       		.sleb128 0
 7494 21ee 06       		.byte	0x6
 7495 21ef 35       		.uleb128 0x35
 7496 21f0 01       		.uleb128 0x1
 7497 21f1 52       		.byte	0x52
 7498 21f2 02       		.uleb128 0x2
 7499 21f3 77       		.byte	0x77
 7500 21f4 00       		.sleb128 0
 7501 21f5 35       		.uleb128 0x35
 7502 21f6 01       		.uleb128 0x1
 7503 21f7 50       		.byte	0x50
 7504 21f8 03       		.uleb128 0x3
 7505 21f9 91       		.byte	0x91
 7506 21fa DC6F     		.sleb128 -2084
 7507 21fc 35       		.uleb128 0x35
 7508 21fd 02       		.uleb128 0x2
 7509 21fe 7D       		.byte	0x7d
 7510 21ff 08       		.sleb128 8
 7511 2200 03       		.uleb128 0x3
 7512 2201 91       		.byte	0x91
 7513 2202 E86F     		.sleb128 -2072
 7514 2204 00       		.byte	0
 7515 2205 34       		.uleb128 0x34
 7516 2206 E4000000 		.4byte	.LVL265
 7517 220a 1A2E0000 		.4byte	0x2e1a
 7518 220e 1C220000 		.4byte	0x221c
 7519 2212 35       		.uleb128 0x35
 7520 2213 01       		.uleb128 0x1
 7521 2214 50       		.byte	0x50
 7522 2215 05       		.uleb128 0x5
 7523 2216 03       		.byte	0x3
 7524 2217 14000000 		.4byte	.LC2
 7525 221b 00       		.byte	0
 7526 221c 34       		.uleb128 0x34
ARM GAS  C:\Users\jo\AppData\Local\Temp\ccRMLSMa.s 			page 134


 7527 221d 00010000 		.4byte	.LVL266
 7528 2221 E4300000 		.4byte	0x30e4
 7529 2225 46220000 		.4byte	0x2246
 7530 2229 35       		.uleb128 0x35
 7531 222a 01       		.uleb128 0x1
 7532 222b 53       		.byte	0x53
 7533 222c 03       		.uleb128 0x3
 7534 222d 91       		.byte	0x91
 7535 222e 00       		.sleb128 0
 7536 222f 06       		.byte	0x6
 7537 2230 35       		.uleb128 0x35
 7538 2231 01       		.uleb128 0x1
 7539 2232 52       		.byte	0x52
 7540 2233 02       		.uleb128 0x2
 7541 2234 77       		.byte	0x77
 7542 2235 00       		.sleb128 0
 7543 2236 35       		.uleb128 0x35
 7544 2237 01       		.uleb128 0x1
 7545 2238 50       		.byte	0x50
 7546 2239 03       		.uleb128 0x3
 7547 223a 91       		.byte	0x91
 7548 223b DC6F     		.sleb128 -2084
 7549 223d 35       		.uleb128 0x35
 7550 223e 02       		.uleb128 0x2
 7551 223f 7D       		.byte	0x7d
 7552 2240 08       		.sleb128 8
 7553 2241 03       		.uleb128 0x3
 7554 2242 91       		.byte	0x91
 7555 2243 E86F     		.sleb128 -2072
 7556 2245 00       		.byte	0
 7557 2246 3E       		.uleb128 0x3e
 7558 2247 24010000 		.4byte	.LVL275
 7559 224b 061E0000 		.4byte	0x1e06
 7560 224f 35       		.uleb128 0x35
 7561 2250 01       		.uleb128 0x1
 7562 2251 51       		.byte	0x51
 7563 2252 03       		.uleb128 0x3
 7564 2253 91       		.byte	0x91
 7565 2254 E86F     		.sleb128 -2072
 7566 2256 35       		.uleb128 0x35
 7567 2257 01       		.uleb128 0x1
 7568 2258 50       		.byte	0x50
 7569 2259 02       		.uleb128 0x2
 7570 225a 75       		.byte	0x75
 7571 225b 00       		.sleb128 0
 7572 225c 00       		.byte	0
 7573 225d 00       		.byte	0
 7574 225e 10       		.uleb128 0x10
 7575 225f BE000000 		.4byte	0xbe
 7576 2263 6F220000 		.4byte	0x226f
 7577 2267 45       		.uleb128 0x45
 7578 2268 79010000 		.4byte	0x179
 7579 226c FF07     		.2byte	0x7ff
 7580 226e 00       		.byte	0
 7581 226f 46       		.uleb128 0x46
 7582 2270 4F0C0000 		.4byte	.LASF282
 7583 2274 01       		.byte	0x1
ARM GAS  C:\Users\jo\AppData\Local\Temp\ccRMLSMa.s 			page 135


 7584 2275 49       		.byte	0x49
 7585 2276 25000000 		.4byte	0x25
 7586 227a 00000000 		.4byte	.LFB12
 7587 227e 8C000000 		.4byte	.LFE12-.LFB12
 7588 2282 01       		.uleb128 0x1
 7589 2283 9C       		.byte	0x9c
 7590 2284 BB230000 		.4byte	0x23bb
 7591 2288 47       		.uleb128 0x47
 7592 2289 CE070000 		.4byte	.LASF279
 7593 228d 01       		.byte	0x1
 7594 228e 49       		.byte	0x49
 7595 228f 8E000000 		.4byte	0x8e
 7596 2293 B00E0000 		.4byte	.LLST57
 7597 2297 48       		.uleb128 0x48
 7598 2298 62756600 		.ascii	"buf\000"
 7599 229c 01       		.byte	0x1
 7600 229d 49       		.byte	0x49
 7601 229e A9100000 		.4byte	0x10a9
 7602 22a2 D10E0000 		.4byte	.LLST58
 7603 22a6 48       		.uleb128 0x48
 7604 22a7 6E00     		.ascii	"n\000"
 7605 22a9 01       		.byte	0x1
 7606 22aa 49       		.byte	0x49
 7607 22ab CA0D0000 		.4byte	0xdca
 7608 22af FD0E0000 		.4byte	.LLST59
 7609 22b3 49       		.uleb128 0x49
 7610 22b4 6600     		.ascii	"f\000"
 7611 22b6 01       		.byte	0x1
 7612 22b7 4B       		.byte	0x4b
 7613 22b8 BB230000 		.4byte	0x23bb
 7614 22bc 290F0000 		.4byte	.LLST60
 7615 22c0 4A       		.uleb128 0x4a
 7616 22c1 8E040000 		.4byte	.LASF280
 7617 22c5 01       		.byte	0x1
 7618 22c6 4C       		.byte	0x4c
 7619 22c7 F6000000 		.4byte	0xf6
 7620 22cb 730F0000 		.4byte	.LLST61
 7621 22cf 34       		.uleb128 0x34
 7622 22d0 0C000000 		.4byte	.LVL279
 7623 22d4 17310000 		.4byte	0x3117
 7624 22d8 ED220000 		.4byte	0x22ed
 7625 22dc 35       		.uleb128 0x35
 7626 22dd 01       		.uleb128 0x1
 7627 22de 51       		.byte	0x51
 7628 22df 05       		.uleb128 0x5
 7629 22e0 03       		.byte	0x3
 7630 22e1 20000000 		.4byte	.LC3
 7631 22e5 35       		.uleb128 0x35
 7632 22e6 01       		.uleb128 0x1
 7633 22e7 50       		.byte	0x50
 7634 22e8 03       		.uleb128 0x3
 7635 22e9 F3       		.byte	0xf3
 7636 22ea 01       		.uleb128 0x1
 7637 22eb 50       		.byte	0x50
 7638 22ec 00       		.byte	0
 7639 22ed 34       		.uleb128 0x34
 7640 22ee 18000000 		.4byte	.LVL280
ARM GAS  C:\Users\jo\AppData\Local\Temp\ccRMLSMa.s 			page 136


 7641 22f2 31310000 		.4byte	0x3131
 7642 22f6 0B230000 		.4byte	0x230b
 7643 22fa 35       		.uleb128 0x35
 7644 22fb 01       		.uleb128 0x1
 7645 22fc 52       		.byte	0x52
 7646 22fd 01       		.uleb128 0x1
 7647 22fe 32       		.byte	0x32
 7648 22ff 35       		.uleb128 0x35
 7649 2300 01       		.uleb128 0x1
 7650 2301 51       		.byte	0x51
 7651 2302 01       		.uleb128 0x1
 7652 2303 30       		.byte	0x30
 7653 2304 35       		.uleb128 0x35
 7654 2305 01       		.uleb128 0x1
 7655 2306 50       		.byte	0x50
 7656 2307 02       		.uleb128 0x2
 7657 2308 74       		.byte	0x74
 7658 2309 00       		.sleb128 0
 7659 230a 00       		.byte	0
 7660 230b 34       		.uleb128 0x34
 7661 230c 1E000000 		.4byte	.LVL281
 7662 2310 50310000 		.4byte	0x3150
 7663 2314 1F230000 		.4byte	0x231f
 7664 2318 35       		.uleb128 0x35
 7665 2319 01       		.uleb128 0x1
 7666 231a 50       		.byte	0x50
 7667 231b 02       		.uleb128 0x2
 7668 231c 74       		.byte	0x74
 7669 231d 00       		.sleb128 0
 7670 231e 00       		.byte	0
 7671 231f 34       		.uleb128 0x34
 7672 2320 2E000000 		.4byte	.LVL284
 7673 2324 31310000 		.4byte	0x3131
 7674 2328 3D230000 		.4byte	0x233d
 7675 232c 35       		.uleb128 0x35
 7676 232d 01       		.uleb128 0x1
 7677 232e 52       		.byte	0x52
 7678 232f 01       		.uleb128 0x1
 7679 2330 30       		.byte	0x30
 7680 2331 35       		.uleb128 0x35
 7681 2332 01       		.uleb128 0x1
 7682 2333 51       		.byte	0x51
 7683 2334 01       		.uleb128 0x1
 7684 2335 30       		.byte	0x30
 7685 2336 35       		.uleb128 0x35
 7686 2337 01       		.uleb128 0x1
 7687 2338 50       		.byte	0x50
 7688 2339 02       		.uleb128 0x2
 7689 233a 74       		.byte	0x74
 7690 233b 00       		.sleb128 0
 7691 233c 00       		.byte	0
 7692 233d 34       		.uleb128 0x34
 7693 233e 36000000 		.4byte	.LVL285
 7694 2342 65310000 		.4byte	0x3165
 7695 2346 51230000 		.4byte	0x2351
 7696 234a 35       		.uleb128 0x35
 7697 234b 01       		.uleb128 0x1
ARM GAS  C:\Users\jo\AppData\Local\Temp\ccRMLSMa.s 			page 137


 7698 234c 50       		.byte	0x50
 7699 234d 02       		.uleb128 0x2
 7700 234e 75       		.byte	0x75
 7701 234f 01       		.sleb128 1
 7702 2350 00       		.byte	0
 7703 2351 34       		.uleb128 0x34
 7704 2352 44000000 		.4byte	.LVL286
 7705 2356 7A310000 		.4byte	0x317a
 7706 235a 70230000 		.4byte	0x2370
 7707 235e 35       		.uleb128 0x35
 7708 235f 01       		.uleb128 0x1
 7709 2360 53       		.byte	0x53
 7710 2361 02       		.uleb128 0x2
 7711 2362 74       		.byte	0x74
 7712 2363 00       		.sleb128 0
 7713 2364 35       		.uleb128 0x35
 7714 2365 01       		.uleb128 0x1
 7715 2366 52       		.byte	0x52
 7716 2367 02       		.uleb128 0x2
 7717 2368 75       		.byte	0x75
 7718 2369 00       		.sleb128 0
 7719 236a 35       		.uleb128 0x35
 7720 236b 01       		.uleb128 0x1
 7721 236c 51       		.byte	0x51
 7722 236d 01       		.uleb128 0x1
 7723 236e 31       		.byte	0x31
 7724 236f 00       		.byte	0
 7725 2370 34       		.uleb128 0x34
 7726 2371 50000000 		.4byte	.LVL287
 7727 2375 9E310000 		.4byte	0x319e
 7728 2379 84230000 		.4byte	0x2384
 7729 237d 35       		.uleb128 0x35
 7730 237e 01       		.uleb128 0x1
 7731 237f 50       		.byte	0x50
 7732 2380 02       		.uleb128 0x2
 7733 2381 74       		.byte	0x74
 7734 2382 00       		.sleb128 0
 7735 2383 00       		.byte	0
 7736 2384 36       		.uleb128 0x36
 7737 2385 5E000000 		.4byte	.LVL289
 7738 2389 9E310000 		.4byte	0x319e
 7739 238d 36       		.uleb128 0x36
 7740 238e 64000000 		.4byte	.LVL290
 7741 2392 B3310000 		.4byte	0x31b3
 7742 2396 34       		.uleb128 0x34
 7743 2397 6E000000 		.4byte	.LVL292
 7744 239b 9E310000 		.4byte	0x319e
 7745 239f AA230000 		.4byte	0x23aa
 7746 23a3 35       		.uleb128 0x35
 7747 23a4 01       		.uleb128 0x1
 7748 23a5 50       		.byte	0x50
 7749 23a6 02       		.uleb128 0x2
 7750 23a7 74       		.byte	0x74
 7751 23a8 00       		.sleb128 0
 7752 23a9 00       		.byte	0
 7753 23aa 3E       		.uleb128 0x3e
 7754 23ab 7C000000 		.4byte	.LVL297
ARM GAS  C:\Users\jo\AppData\Local\Temp\ccRMLSMa.s 			page 138


 7755 23af 9E310000 		.4byte	0x319e
 7756 23b3 35       		.uleb128 0x35
 7757 23b4 01       		.uleb128 0x1
 7758 23b5 50       		.byte	0x50
 7759 23b6 02       		.uleb128 0x2
 7760 23b7 74       		.byte	0x74
 7761 23b8 00       		.sleb128 0
 7762 23b9 00       		.byte	0
 7763 23ba 00       		.byte	0
 7764 23bb 07       		.uleb128 0x7
 7765 23bc 04       		.byte	0x4
 7766 23bd F9080000 		.4byte	0x8f9
 7767 23c1 23       		.uleb128 0x23
 7768 23c2 13130000 		.4byte	.LASF281
 7769 23c6 01       		.byte	0x1
 7770 23c7 F601     		.2byte	0x1f6
 7771 23c9 25000000 		.4byte	0x25
 7772 23cd 01       		.byte	0x1
 7773 23ce 0D240000 		.4byte	0x240d
 7774 23d2 24       		.uleb128 0x24
 7775 23d3 7000     		.ascii	"p\000"
 7776 23d5 01       		.byte	0x1
 7777 23d6 F601     		.2byte	0x1f6
 7778 23d8 A9100000 		.4byte	0x10a9
 7779 23dc 24       		.uleb128 0x24
 7780 23dd 656E6400 		.ascii	"end\000"
 7781 23e1 01       		.byte	0x1
 7782 23e2 F701     		.2byte	0x1f7
 7783 23e4 B3000000 		.4byte	0xb3
 7784 23e8 24       		.uleb128 0x24
 7785 23e9 72736100 		.ascii	"rsa\000"
 7786 23ed 01       		.byte	0x1
 7787 23ee F801     		.2byte	0x1f8
 7788 23f0 A4130000 		.4byte	0x13a4
 7789 23f4 26       		.uleb128 0x26
 7790 23f5 72657400 		.ascii	"ret\000"
 7791 23f9 01       		.byte	0x1
 7792 23fa FA01     		.2byte	0x1fa
 7793 23fc 25000000 		.4byte	0x25
 7794 2400 26       		.uleb128 0x26
 7795 2401 6C656E00 		.ascii	"len\000"
 7796 2405 01       		.byte	0x1
 7797 2406 FB01     		.2byte	0x1fb
 7798 2408 2C000000 		.4byte	0x2c
 7799 240c 00       		.byte	0
 7800 240d 4B       		.uleb128 0x4b
 7801 240e CA0A0000 		.4byte	.LASF283
 7802 2412 01       		.byte	0x1
 7803 2413 3D02     		.2byte	0x23d
 7804 2415 25000000 		.4byte	0x25
 7805 2419 00000000 		.4byte	.LFB23
 7806 241d 44010000 		.4byte	.LFE23-.LFB23
 7807 2421 01       		.uleb128 0x1
 7808 2422 9C       		.byte	0x9c
 7809 2423 90260000 		.4byte	0x2690
 7810 2427 30       		.uleb128 0x30
 7811 2428 7000     		.ascii	"p\000"
ARM GAS  C:\Users\jo\AppData\Local\Temp\ccRMLSMa.s 			page 139


 7812 242a 01       		.byte	0x1
 7813 242b 3D02     		.2byte	0x23d
 7814 242d A9100000 		.4byte	0x10a9
 7815 2431 A70F0000 		.4byte	.LLST62
 7816 2435 30       		.uleb128 0x30
 7817 2436 656E6400 		.ascii	"end\000"
 7818 243a 01       		.byte	0x1
 7819 243b 3D02     		.2byte	0x23d
 7820 243d B3000000 		.4byte	0xb3
 7821 2441 C50F0000 		.4byte	.LLST63
 7822 2445 30       		.uleb128 0x30
 7823 2446 706B00   		.ascii	"pk\000"
 7824 2449 01       		.byte	0x1
 7825 244a 3E02     		.2byte	0x23e
 7826 244c C51F0000 		.4byte	0x1fc5
 7827 2450 20100000 		.4byte	.LLST64
 7828 2454 32       		.uleb128 0x32
 7829 2455 72657400 		.ascii	"ret\000"
 7830 2459 01       		.byte	0x1
 7831 245a 4002     		.2byte	0x240
 7832 245c 25000000 		.4byte	0x25
 7833 2460 3E100000 		.4byte	.LLST65
 7834 2464 33       		.uleb128 0x33
 7835 2465 6C656E00 		.ascii	"len\000"
 7836 2469 01       		.byte	0x1
 7837 246a 4102     		.2byte	0x241
 7838 246c 2C000000 		.4byte	0x2c
 7839 2470 02       		.uleb128 0x2
 7840 2471 91       		.byte	0x91
 7841 2472 4C       		.sleb128 -52
 7842 2473 40       		.uleb128 0x40
 7843 2474 25030000 		.4byte	.LASF284
 7844 2478 01       		.byte	0x1
 7845 2479 4202     		.2byte	0x242
 7846 247b D40E0000 		.4byte	0xed4
 7847 247f 02       		.uleb128 0x2
 7848 2480 91       		.byte	0x91
 7849 2481 54       		.sleb128 -44
 7850 2482 40       		.uleb128 0x40
 7851 2483 DE090000 		.4byte	.LASF251
 7852 2487 01       		.byte	0x1
 7853 2488 4302     		.2byte	0x243
 7854 248a 370C0000 		.4byte	0xc37
 7855 248e 02       		.uleb128 0x2
 7856 248f 91       		.byte	0x91
 7857 2490 4B       		.sleb128 -53
 7858 2491 44       		.uleb128 0x44
 7859 2492 E30C0000 		.4byte	.LASF193
 7860 2496 01       		.byte	0x1
 7861 2497 4402     		.2byte	0x244
 7862 2499 8F0E0000 		.4byte	0xe8f
 7863 249d 20110000 		.4byte	.LLST66
 7864 24a1 41       		.uleb128 0x41
 7865 24a2 C1230000 		.4byte	0x23c1
 7866 24a6 8E000000 		.4byte	.LBB62
 7867 24aa D0000000 		.4byte	.Ldebug_ranges0+0xd0
 7868 24ae 01       		.byte	0x1
ARM GAS  C:\Users\jo\AppData\Local\Temp\ccRMLSMa.s 			page 140


 7869 24af 6102     		.2byte	0x261
 7870 24b1 72250000 		.4byte	0x2572
 7871 24b5 38       		.uleb128 0x38
 7872 24b6 E8230000 		.4byte	0x23e8
 7873 24ba 49110000 		.4byte	.LLST67
 7874 24be 38       		.uleb128 0x38
 7875 24bf DC230000 		.4byte	0x23dc
 7876 24c3 74110000 		.4byte	.LLST68
 7877 24c7 38       		.uleb128 0x38
 7878 24c8 D2230000 		.4byte	0x23d2
 7879 24cc 9D110000 		.4byte	.LLST69
 7880 24d0 3C       		.uleb128 0x3c
 7881 24d1 D0000000 		.4byte	.Ldebug_ranges0+0xd0
 7882 24d5 39       		.uleb128 0x39
 7883 24d6 F4230000 		.4byte	0x23f4
 7884 24da C6110000 		.4byte	.LLST70
 7885 24de 3A       		.uleb128 0x3a
 7886 24df 00240000 		.4byte	0x2400
 7887 24e3 02       		.uleb128 0x2
 7888 24e4 91       		.byte	0x91
 7889 24e5 50       		.sleb128 -48
 7890 24e6 34       		.uleb128 0x34
 7891 24e7 9C000000 		.4byte	.LVL322
 7892 24eb 1E2D0000 		.4byte	0x2d1e
 7893 24ef 0C250000 		.4byte	0x250c
 7894 24f3 35       		.uleb128 0x35
 7895 24f4 01       		.uleb128 0x1
 7896 24f5 53       		.byte	0x53
 7897 24f6 02       		.uleb128 0x2
 7898 24f7 08       		.byte	0x8
 7899 24f8 30       		.byte	0x30
 7900 24f9 35       		.uleb128 0x35
 7901 24fa 01       		.uleb128 0x1
 7902 24fb 52       		.byte	0x52
 7903 24fc 02       		.uleb128 0x2
 7904 24fd 91       		.byte	0x91
 7905 24fe 50       		.sleb128 -48
 7906 24ff 35       		.uleb128 0x35
 7907 2500 01       		.uleb128 0x1
 7908 2501 51       		.byte	0x51
 7909 2502 02       		.uleb128 0x2
 7910 2503 77       		.byte	0x77
 7911 2504 00       		.sleb128 0
 7912 2505 35       		.uleb128 0x35
 7913 2506 01       		.uleb128 0x1
 7914 2507 50       		.byte	0x50
 7915 2508 02       		.uleb128 0x2
 7916 2509 75       		.byte	0x75
 7917 250a 00       		.sleb128 0
 7918 250b 00       		.byte	0
 7919 250c 34       		.uleb128 0x34
 7920 250d B6000000 		.4byte	.LVL324
 7921 2511 672D0000 		.4byte	0x2d67
 7922 2515 2C250000 		.4byte	0x252c
 7923 2519 35       		.uleb128 0x35
 7924 251a 01       		.uleb128 0x1
 7925 251b 52       		.byte	0x52
ARM GAS  C:\Users\jo\AppData\Local\Temp\ccRMLSMa.s 			page 141


 7926 251c 02       		.uleb128 0x2
 7927 251d 78       		.byte	0x78
 7928 251e 00       		.sleb128 0
 7929 251f 35       		.uleb128 0x35
 7930 2520 01       		.uleb128 0x1
 7931 2521 51       		.byte	0x51
 7932 2522 02       		.uleb128 0x2
 7933 2523 77       		.byte	0x77
 7934 2524 00       		.sleb128 0
 7935 2525 35       		.uleb128 0x35
 7936 2526 01       		.uleb128 0x1
 7937 2527 50       		.byte	0x50
 7938 2528 02       		.uleb128 0x2
 7939 2529 75       		.byte	0x75
 7940 252a 00       		.sleb128 0
 7941 252b 00       		.byte	0
 7942 252c 34       		.uleb128 0x34
 7943 252d 18010000 		.4byte	.LVL346
 7944 2531 672D0000 		.4byte	0x2d67
 7945 2535 4C250000 		.4byte	0x254c
 7946 2539 35       		.uleb128 0x35
 7947 253a 01       		.uleb128 0x1
 7948 253b 52       		.byte	0x52
 7949 253c 02       		.uleb128 0x2
 7950 253d 74       		.byte	0x74
 7951 253e 14       		.sleb128 20
 7952 253f 35       		.uleb128 0x35
 7953 2540 01       		.uleb128 0x1
 7954 2541 51       		.byte	0x51
 7955 2542 02       		.uleb128 0x2
 7956 2543 77       		.byte	0x77
 7957 2544 00       		.sleb128 0
 7958 2545 35       		.uleb128 0x35
 7959 2546 01       		.uleb128 0x1
 7960 2547 50       		.byte	0x50
 7961 2548 02       		.uleb128 0x2
 7962 2549 75       		.byte	0x75
 7963 254a 00       		.sleb128 0
 7964 254b 00       		.byte	0
 7965 254c 34       		.uleb128 0x34
 7966 254d 28010000 		.4byte	.LVL348
 7967 2551 C4310000 		.4byte	0x31c4
 7968 2555 60250000 		.4byte	0x2560
 7969 2559 35       		.uleb128 0x35
 7970 255a 01       		.uleb128 0x1
 7971 255b 50       		.byte	0x50
 7972 255c 02       		.uleb128 0x2
 7973 255d 74       		.byte	0x74
 7974 255e 00       		.sleb128 0
 7975 255f 00       		.byte	0
 7976 2560 3E       		.uleb128 0x3e
 7977 2561 30010000 		.4byte	.LVL350
 7978 2565 992D0000 		.4byte	0x2d99
 7979 2569 35       		.uleb128 0x35
 7980 256a 01       		.uleb128 0x1
 7981 256b 50       		.byte	0x50
 7982 256c 02       		.uleb128 0x2
ARM GAS  C:\Users\jo\AppData\Local\Temp\ccRMLSMa.s 			page 142


 7983 256d 78       		.byte	0x78
 7984 256e 00       		.sleb128 0
 7985 256f 00       		.byte	0
 7986 2570 00       		.byte	0
 7987 2571 00       		.byte	0
 7988 2572 4C       		.uleb128 0x4c
 7989 2573 B71A0000 		.4byte	0x1ab7
 7990 2577 DC000000 		.4byte	.LBB67
 7991 257b 22000000 		.4byte	.LBE67-.LBB67
 7992 257f 01       		.byte	0x1
 7993 2580 6902     		.2byte	0x269
 7994 2582 E1250000 		.4byte	0x25e1
 7995 2586 43       		.uleb128 0x43
 7996 2587 DE1A0000 		.4byte	0x1ade
 7997 258b 38       		.uleb128 0x38
 7998 258c D21A0000 		.4byte	0x1ad2
 7999 2590 10120000 		.4byte	.LLST71
 8000 2594 38       		.uleb128 0x38
 8001 2595 C81A0000 		.4byte	0x1ac8
 8002 2599 23120000 		.4byte	.LLST72
 8003 259d 4D       		.uleb128 0x4d
 8004 259e DC000000 		.4byte	.LBB68
 8005 25a2 22000000 		.4byte	.LBE68-.LBB68
 8006 25a6 39       		.uleb128 0x39
 8007 25a7 EA1A0000 		.4byte	0x1aea
 8008 25ab 36120000 		.4byte	.LLST73
 8009 25af 34       		.uleb128 0x34
 8010 25b0 EC000000 		.4byte	.LVL334
 8011 25b4 6F2E0000 		.4byte	0x2e6f
 8012 25b8 C9250000 		.4byte	0x25c9
 8013 25bc 35       		.uleb128 0x35
 8014 25bd 01       		.uleb128 0x1
 8015 25be 51       		.byte	0x51
 8016 25bf 02       		.uleb128 0x2
 8017 25c0 79       		.byte	0x79
 8018 25c1 00       		.sleb128 0
 8019 25c2 35       		.uleb128 0x35
 8020 25c3 01       		.uleb128 0x1
 8021 25c4 50       		.byte	0x50
 8022 25c5 02       		.uleb128 0x2
 8023 25c6 78       		.byte	0x78
 8024 25c7 00       		.sleb128 0
 8025 25c8 00       		.byte	0
 8026 25c9 3E       		.uleb128 0x3e
 8027 25ca FC000000 		.4byte	.LVL339
 8028 25ce 4A2F0000 		.4byte	0x2f4a
 8029 25d2 35       		.uleb128 0x35
 8030 25d3 01       		.uleb128 0x1
 8031 25d4 51       		.byte	0x51
 8032 25d5 02       		.uleb128 0x2
 8033 25d6 79       		.byte	0x79
 8034 25d7 00       		.sleb128 0
 8035 25d8 35       		.uleb128 0x35
 8036 25d9 01       		.uleb128 0x1
 8037 25da 50       		.byte	0x50
 8038 25db 02       		.uleb128 0x2
 8039 25dc 78       		.byte	0x78
ARM GAS  C:\Users\jo\AppData\Local\Temp\ccRMLSMa.s 			page 143


 8040 25dd 00       		.sleb128 0
 8041 25de 00       		.byte	0
 8042 25df 00       		.byte	0
 8043 25e0 00       		.byte	0
 8044 25e1 34       		.uleb128 0x34
 8045 25e2 18000000 		.4byte	.LVL301
 8046 25e6 1E2D0000 		.4byte	0x2d1e
 8047 25ea 08260000 		.4byte	0x2608
 8048 25ee 35       		.uleb128 0x35
 8049 25ef 01       		.uleb128 0x1
 8050 25f0 53       		.byte	0x53
 8051 25f1 02       		.uleb128 0x2
 8052 25f2 08       		.byte	0x8
 8053 25f3 30       		.byte	0x30
 8054 25f4 35       		.uleb128 0x35
 8055 25f5 01       		.uleb128 0x1
 8056 25f6 52       		.byte	0x52
 8057 25f7 02       		.uleb128 0x2
 8058 25f8 91       		.byte	0x91
 8059 25f9 4C       		.sleb128 -52
 8060 25fa 35       		.uleb128 0x35
 8061 25fb 01       		.uleb128 0x1
 8062 25fc 51       		.byte	0x51
 8063 25fd 03       		.uleb128 0x3
 8064 25fe F3       		.byte	0xf3
 8065 25ff 01       		.uleb128 0x1
 8066 2600 51       		.byte	0x51
 8067 2601 35       		.uleb128 0x35
 8068 2602 01       		.uleb128 0x1
 8069 2603 50       		.byte	0x50
 8070 2604 02       		.uleb128 0x2
 8071 2605 75       		.byte	0x75
 8072 2606 00       		.sleb128 0
 8073 2607 00       		.byte	0
 8074 2608 34       		.uleb128 0x34
 8075 2609 38000000 		.4byte	.LVL306
 8076 260d 51100000 		.4byte	0x1051
 8077 2611 2E260000 		.4byte	0x262e
 8078 2615 35       		.uleb128 0x35
 8079 2616 01       		.uleb128 0x1
 8080 2617 53       		.byte	0x53
 8081 2618 02       		.uleb128 0x2
 8082 2619 91       		.byte	0x91
 8083 261a 54       		.sleb128 -44
 8084 261b 35       		.uleb128 0x35
 8085 261c 01       		.uleb128 0x1
 8086 261d 52       		.byte	0x52
 8087 261e 02       		.uleb128 0x2
 8088 261f 91       		.byte	0x91
 8089 2620 4B       		.sleb128 -53
 8090 2621 35       		.uleb128 0x35
 8091 2622 01       		.uleb128 0x1
 8092 2623 51       		.byte	0x51
 8093 2624 02       		.uleb128 0x2
 8094 2625 74       		.byte	0x74
 8095 2626 00       		.sleb128 0
 8096 2627 35       		.uleb128 0x35
ARM GAS  C:\Users\jo\AppData\Local\Temp\ccRMLSMa.s 			page 144


 8097 2628 01       		.uleb128 0x1
 8098 2629 50       		.byte	0x50
 8099 262a 02       		.uleb128 0x2
 8100 262b 75       		.byte	0x75
 8101 262c 00       		.sleb128 0
 8102 262d 00       		.byte	0
 8103 262e 34       		.uleb128 0x34
 8104 262f 46000000 		.4byte	.LVL308
 8105 2633 CC2F0000 		.4byte	0x2fcc
 8106 2637 4E260000 		.4byte	0x264e
 8107 263b 35       		.uleb128 0x35
 8108 263c 01       		.uleb128 0x1
 8109 263d 52       		.byte	0x52
 8110 263e 02       		.uleb128 0x2
 8111 263f 91       		.byte	0x91
 8112 2640 4C       		.sleb128 -52
 8113 2641 35       		.uleb128 0x35
 8114 2642 01       		.uleb128 0x1
 8115 2643 51       		.byte	0x51
 8116 2644 02       		.uleb128 0x2
 8117 2645 74       		.byte	0x74
 8118 2646 00       		.sleb128 0
 8119 2647 35       		.uleb128 0x35
 8120 2648 01       		.uleb128 0x1
 8121 2649 50       		.byte	0x50
 8122 264a 02       		.uleb128 0x2
 8123 264b 75       		.byte	0x75
 8124 264c 00       		.sleb128 0
 8125 264d 00       		.byte	0
 8126 264e 36       		.uleb128 0x36
 8127 264f 5A000000 		.4byte	.LVL310
 8128 2653 EB2F0000 		.4byte	0x2feb
 8129 2657 34       		.uleb128 0x34
 8130 2658 66000000 		.4byte	.LVL312
 8131 265c 00300000 		.4byte	0x3000
 8132 2660 6B260000 		.4byte	0x266b
 8133 2664 35       		.uleb128 0x35
 8134 2665 01       		.uleb128 0x1
 8135 2666 50       		.byte	0x50
 8136 2667 02       		.uleb128 0x2
 8137 2668 76       		.byte	0x76
 8138 2669 00       		.sleb128 0
 8139 266a 00       		.byte	0
 8140 266b 34       		.uleb128 0x34
 8141 266c 80000000 		.4byte	.LVL314
 8142 2670 1A300000 		.4byte	0x301a
 8143 2674 7F260000 		.4byte	0x267f
 8144 2678 35       		.uleb128 0x35
 8145 2679 01       		.uleb128 0x1
 8146 267a 50       		.byte	0x50
 8147 267b 02       		.uleb128 0x2
 8148 267c 76       		.byte	0x76
 8149 267d 00       		.sleb128 0
 8150 267e 00       		.byte	0
 8151 267f 3E       		.uleb128 0x3e
 8152 2680 D2000000 		.4byte	.LVL330
 8153 2684 2A150000 		.4byte	0x152a
ARM GAS  C:\Users\jo\AppData\Local\Temp\ccRMLSMa.s 			page 145


 8154 2688 35       		.uleb128 0x35
 8155 2689 01       		.uleb128 0x1
 8156 268a 50       		.byte	0x50
 8157 268b 02       		.uleb128 0x2
 8158 268c 91       		.byte	0x91
 8159 268d 54       		.sleb128 -44
 8160 268e 00       		.byte	0
 8161 268f 00       		.byte	0
 8162 2690 4B       		.uleb128 0x4b
 8163 2691 99100000 		.4byte	.LASF285
 8164 2695 01       		.byte	0x1
 8165 2696 1D04     		.2byte	0x41d
 8166 2698 25000000 		.4byte	0x25
 8167 269c 00000000 		.4byte	.LFB28
 8168 26a0 08020000 		.4byte	.LFE28-.LFB28
 8169 26a4 01       		.uleb128 0x1
 8170 26a5 9C       		.byte	0x9c
 8171 26a6 242A0000 		.4byte	0x2a24
 8172 26aa 30       		.uleb128 0x30
 8173 26ab 706B00   		.ascii	"pk\000"
 8174 26ae 01       		.byte	0x1
 8175 26af 1D04     		.2byte	0x41d
 8176 26b1 C51F0000 		.4byte	0x1fc5
 8177 26b5 5F120000 		.4byte	.LLST74
 8178 26b9 30       		.uleb128 0x30
 8179 26ba 6B657900 		.ascii	"key\000"
 8180 26be 01       		.byte	0x1
 8181 26bf 1E04     		.2byte	0x41e
 8182 26c1 B3000000 		.4byte	0xb3
 8183 26c5 7D120000 		.4byte	.LLST75
 8184 26c9 31       		.uleb128 0x31
 8185 26ca 8E080000 		.4byte	.LASF258
 8186 26ce 01       		.byte	0x1
 8187 26cf 1E04     		.2byte	0x41e
 8188 26d1 2C000000 		.4byte	0x2c
 8189 26d5 9B120000 		.4byte	.LLST76
 8190 26d9 30       		.uleb128 0x30
 8191 26da 70776400 		.ascii	"pwd\000"
 8192 26de 01       		.byte	0x1
 8193 26df 1F04     		.2byte	0x41f
 8194 26e1 B3000000 		.4byte	0xb3
 8195 26e5 B9120000 		.4byte	.LLST77
 8196 26e9 31       		.uleb128 0x31
 8197 26ea 74020000 		.4byte	.LASF273
 8198 26ee 01       		.byte	0x1
 8199 26ef 1F04     		.2byte	0x41f
 8200 26f1 2C000000 		.4byte	0x2c
 8201 26f5 D7120000 		.4byte	.LLST78
 8202 26f9 32       		.uleb128 0x32
 8203 26fa 72657400 		.ascii	"ret\000"
 8204 26fe 01       		.byte	0x1
 8205 26ff 2104     		.2byte	0x421
 8206 2701 25000000 		.4byte	0x25
 8207 2705 F7120000 		.4byte	.LLST79
 8208 2709 44       		.uleb128 0x44
 8209 270a E30C0000 		.4byte	.LASF193
 8210 270e 01       		.byte	0x1
ARM GAS  C:\Users\jo\AppData\Local\Temp\ccRMLSMa.s 			page 146


 8211 270f 2204     		.2byte	0x422
 8212 2711 8F0E0000 		.4byte	0xe8f
 8213 2715 12140000 		.4byte	.LLST80
 8214 2719 33       		.uleb128 0x33
 8215 271a 6C656E00 		.ascii	"len\000"
 8216 271e 01       		.byte	0x1
 8217 271f 2504     		.2byte	0x425
 8218 2721 2C000000 		.4byte	0x2c
 8219 2725 02       		.uleb128 0x2
 8220 2726 91       		.byte	0x91
 8221 2727 58       		.sleb128 -40
 8222 2728 33       		.uleb128 0x33
 8223 2729 70656D00 		.ascii	"pem\000"
 8224 272d 01       		.byte	0x1
 8225 272e 2604     		.2byte	0x426
 8226 2730 46100000 		.4byte	0x1046
 8227 2734 02       		.uleb128 0x2
 8228 2735 91       		.byte	0x91
 8229 2736 5C       		.sleb128 -36
 8230 2737 34       		.uleb128 0x34
 8231 2738 16000000 		.4byte	.LVL356
 8232 273c D9310000 		.4byte	0x31d9
 8233 2740 4B270000 		.4byte	0x274b
 8234 2744 35       		.uleb128 0x35
 8235 2745 01       		.uleb128 0x1
 8236 2746 50       		.byte	0x50
 8237 2747 02       		.uleb128 0x2
 8238 2748 91       		.byte	0x91
 8239 2749 5C       		.sleb128 -36
 8240 274a 00       		.byte	0
 8241 274b 34       		.uleb128 0x34
 8242 274c 2A000000 		.4byte	.LVL357
 8243 2750 F0310000 		.4byte	0x31f0
 8244 2754 8C270000 		.4byte	0x278c
 8245 2758 35       		.uleb128 0x35
 8246 2759 01       		.uleb128 0x1
 8247 275a 53       		.byte	0x53
 8248 275b 02       		.uleb128 0x2
 8249 275c 76       		.byte	0x76
 8250 275d 00       		.sleb128 0
 8251 275e 35       		.uleb128 0x35
 8252 275f 01       		.uleb128 0x1
 8253 2760 52       		.byte	0x52
 8254 2761 05       		.uleb128 0x5
 8255 2762 03       		.byte	0x3
 8256 2763 44000000 		.4byte	.LC5
 8257 2767 35       		.uleb128 0x35
 8258 2768 01       		.uleb128 0x1
 8259 2769 51       		.byte	0x51
 8260 276a 05       		.uleb128 0x5
 8261 276b 03       		.byte	0x3
 8262 276c 24000000 		.4byte	.LC4
 8263 2770 35       		.uleb128 0x35
 8264 2771 01       		.uleb128 0x1
 8265 2772 50       		.byte	0x50
 8266 2773 02       		.uleb128 0x2
 8267 2774 91       		.byte	0x91
ARM GAS  C:\Users\jo\AppData\Local\Temp\ccRMLSMa.s 			page 147


 8268 2775 5C       		.sleb128 -36
 8269 2776 35       		.uleb128 0x35
 8270 2777 02       		.uleb128 0x2
 8271 2778 7D       		.byte	0x7d
 8272 2779 08       		.sleb128 8
 8273 277a 02       		.uleb128 0x2
 8274 277b 91       		.byte	0x91
 8275 277c 58       		.sleb128 -40
 8276 277d 35       		.uleb128 0x35
 8277 277e 02       		.uleb128 0x2
 8278 277f 7D       		.byte	0x7d
 8279 2780 04       		.sleb128 4
 8280 2781 02       		.uleb128 0x2
 8281 2782 74       		.byte	0x74
 8282 2783 00       		.sleb128 0
 8283 2784 35       		.uleb128 0x35
 8284 2785 02       		.uleb128 0x2
 8285 2786 7D       		.byte	0x7d
 8286 2787 00       		.sleb128 0
 8287 2788 02       		.uleb128 0x2
 8288 2789 77       		.byte	0x77
 8289 278a 00       		.sleb128 0
 8290 278b 00       		.byte	0
 8291 278c 34       		.uleb128 0x34
 8292 278d 4A000000 		.4byte	.LVL361
 8293 2791 EB2F0000 		.4byte	0x2feb
 8294 2795 9F270000 		.4byte	0x279f
 8295 2799 35       		.uleb128 0x35
 8296 279a 01       		.uleb128 0x1
 8297 279b 50       		.byte	0x50
 8298 279c 01       		.uleb128 0x1
 8299 279d 31       		.byte	0x31
 8300 279e 00       		.byte	0
 8301 279f 34       		.uleb128 0x34
 8302 27a0 56000000 		.4byte	.LVL363
 8303 27a4 00300000 		.4byte	0x3000
 8304 27a8 B3270000 		.4byte	0x27b3
 8305 27ac 35       		.uleb128 0x35
 8306 27ad 01       		.uleb128 0x1
 8307 27ae 50       		.byte	0x50
 8308 27af 02       		.uleb128 0x2
 8309 27b0 75       		.byte	0x75
 8310 27b1 00       		.sleb128 0
 8311 27b2 00       		.byte	0
 8312 27b3 34       		.uleb128 0x34
 8313 27b4 60000000 		.4byte	.LVL365
 8314 27b8 1A300000 		.4byte	0x301a
 8315 27bc C7270000 		.4byte	0x27c7
 8316 27c0 35       		.uleb128 0x35
 8317 27c1 01       		.uleb128 0x1
 8318 27c2 50       		.byte	0x50
 8319 27c3 02       		.uleb128 0x2
 8320 27c4 75       		.byte	0x75
 8321 27c5 00       		.sleb128 0
 8322 27c6 00       		.byte	0
 8323 27c7 34       		.uleb128 0x34
 8324 27c8 66000000 		.4byte	.LVL366
ARM GAS  C:\Users\jo\AppData\Local\Temp\ccRMLSMa.s 			page 148


 8325 27cc 23320000 		.4byte	0x3223
 8326 27d0 DB270000 		.4byte	0x27db
 8327 27d4 35       		.uleb128 0x35
 8328 27d5 01       		.uleb128 0x1
 8329 27d6 50       		.byte	0x50
 8330 27d7 02       		.uleb128 0x2
 8331 27d8 91       		.byte	0x91
 8332 27d9 5C       		.sleb128 -36
 8333 27da 00       		.byte	0
 8334 27db 36       		.uleb128 0x36
 8335 27dc 78000000 		.4byte	.LVL369
 8336 27e0 76110000 		.4byte	0x1176
 8337 27e4 34       		.uleb128 0x34
 8338 27e5 94000000 		.4byte	.LVL371
 8339 27e9 F0310000 		.4byte	0x31f0
 8340 27ed 25280000 		.4byte	0x2825
 8341 27f1 35       		.uleb128 0x35
 8342 27f2 01       		.uleb128 0x1
 8343 27f3 53       		.byte	0x53
 8344 27f4 02       		.uleb128 0x2
 8345 27f5 76       		.byte	0x76
 8346 27f6 00       		.sleb128 0
 8347 27f7 35       		.uleb128 0x35
 8348 27f8 01       		.uleb128 0x1
 8349 27f9 52       		.byte	0x52
 8350 27fa 05       		.uleb128 0x5
 8351 27fb 03       		.byte	0x3
 8352 27fc 84000000 		.4byte	.LC7
 8353 2800 35       		.uleb128 0x35
 8354 2801 01       		.uleb128 0x1
 8355 2802 51       		.byte	0x51
 8356 2803 05       		.uleb128 0x5
 8357 2804 03       		.byte	0x3
 8358 2805 64000000 		.4byte	.LC6
 8359 2809 35       		.uleb128 0x35
 8360 280a 01       		.uleb128 0x1
 8361 280b 50       		.byte	0x50
 8362 280c 02       		.uleb128 0x2
 8363 280d 91       		.byte	0x91
 8364 280e 5C       		.sleb128 -36
 8365 280f 35       		.uleb128 0x35
 8366 2810 02       		.uleb128 0x2
 8367 2811 7D       		.byte	0x7d
 8368 2812 08       		.sleb128 8
 8369 2813 02       		.uleb128 0x2
 8370 2814 91       		.byte	0x91
 8371 2815 58       		.sleb128 -40
 8372 2816 35       		.uleb128 0x35
 8373 2817 02       		.uleb128 0x2
 8374 2818 7D       		.byte	0x7d
 8375 2819 04       		.sleb128 4
 8376 281a 02       		.uleb128 0x2
 8377 281b 74       		.byte	0x74
 8378 281c 00       		.sleb128 0
 8379 281d 35       		.uleb128 0x35
 8380 281e 02       		.uleb128 0x2
 8381 281f 7D       		.byte	0x7d
ARM GAS  C:\Users\jo\AppData\Local\Temp\ccRMLSMa.s 			page 149


 8382 2820 00       		.sleb128 0
 8383 2821 02       		.uleb128 0x2
 8384 2822 77       		.byte	0x77
 8385 2823 00       		.sleb128 0
 8386 2824 00       		.byte	0
 8387 2825 34       		.uleb128 0x34
 8388 2826 C0000000 		.4byte	.LVL373
 8389 282a F0310000 		.4byte	0x31f0
 8390 282e 64280000 		.4byte	0x2864
 8391 2832 35       		.uleb128 0x35
 8392 2833 01       		.uleb128 0x1
 8393 2834 53       		.byte	0x53
 8394 2835 02       		.uleb128 0x2
 8395 2836 76       		.byte	0x76
 8396 2837 00       		.sleb128 0
 8397 2838 35       		.uleb128 0x35
 8398 2839 01       		.uleb128 0x1
 8399 283a 52       		.byte	0x52
 8400 283b 05       		.uleb128 0x5
 8401 283c 03       		.byte	0x3
 8402 283d C0000000 		.4byte	.LC9
 8403 2841 35       		.uleb128 0x35
 8404 2842 01       		.uleb128 0x1
 8405 2843 51       		.byte	0x51
 8406 2844 05       		.uleb128 0x5
 8407 2845 03       		.byte	0x3
 8408 2846 A4000000 		.4byte	.LC8
 8409 284a 35       		.uleb128 0x35
 8410 284b 01       		.uleb128 0x1
 8411 284c 50       		.byte	0x50
 8412 284d 02       		.uleb128 0x2
 8413 284e 91       		.byte	0x91
 8414 284f 5C       		.sleb128 -36
 8415 2850 35       		.uleb128 0x35
 8416 2851 02       		.uleb128 0x2
 8417 2852 7D       		.byte	0x7d
 8418 2853 08       		.sleb128 8
 8419 2854 02       		.uleb128 0x2
 8420 2855 91       		.byte	0x91
 8421 2856 58       		.sleb128 -40
 8422 2857 35       		.uleb128 0x35
 8423 2858 02       		.uleb128 0x2
 8424 2859 7D       		.byte	0x7d
 8425 285a 04       		.sleb128 4
 8426 285b 01       		.uleb128 0x1
 8427 285c 30       		.byte	0x30
 8428 285d 35       		.uleb128 0x35
 8429 285e 02       		.uleb128 0x2
 8430 285f 7D       		.byte	0x7d
 8431 2860 00       		.sleb128 0
 8432 2861 01       		.uleb128 0x1
 8433 2862 30       		.byte	0x30
 8434 2863 00       		.byte	0
 8435 2864 34       		.uleb128 0x34
 8436 2865 E0000000 		.4byte	.LVL375
 8437 2869 F0310000 		.4byte	0x31f0
 8438 286d A3280000 		.4byte	0x28a3
ARM GAS  C:\Users\jo\AppData\Local\Temp\ccRMLSMa.s 			page 150


 8439 2871 35       		.uleb128 0x35
 8440 2872 01       		.uleb128 0x1
 8441 2873 53       		.byte	0x53
 8442 2874 02       		.uleb128 0x2
 8443 2875 76       		.byte	0x76
 8444 2876 00       		.sleb128 0
 8445 2877 35       		.uleb128 0x35
 8446 2878 01       		.uleb128 0x1
 8447 2879 52       		.byte	0x52
 8448 287a 05       		.uleb128 0x5
 8449 287b 03       		.byte	0x3
 8450 287c 04010000 		.4byte	.LC11
 8451 2880 35       		.uleb128 0x35
 8452 2881 01       		.uleb128 0x1
 8453 2882 51       		.byte	0x51
 8454 2883 05       		.uleb128 0x5
 8455 2884 03       		.byte	0x3
 8456 2885 DC000000 		.4byte	.LC10
 8457 2889 35       		.uleb128 0x35
 8458 288a 01       		.uleb128 0x1
 8459 288b 50       		.byte	0x50
 8460 288c 02       		.uleb128 0x2
 8461 288d 91       		.byte	0x91
 8462 288e 5C       		.sleb128 -36
 8463 288f 35       		.uleb128 0x35
 8464 2890 02       		.uleb128 0x2
 8465 2891 7D       		.byte	0x7d
 8466 2892 08       		.sleb128 8
 8467 2893 02       		.uleb128 0x2
 8468 2894 91       		.byte	0x91
 8469 2895 58       		.sleb128 -40
 8470 2896 35       		.uleb128 0x35
 8471 2897 02       		.uleb128 0x2
 8472 2898 7D       		.byte	0x7d
 8473 2899 04       		.sleb128 4
 8474 289a 01       		.uleb128 0x1
 8475 289b 30       		.byte	0x30
 8476 289c 35       		.uleb128 0x35
 8477 289d 02       		.uleb128 0x2
 8478 289e 7D       		.byte	0x7d
 8479 289f 00       		.sleb128 0
 8480 28a0 01       		.uleb128 0x1
 8481 28a1 30       		.byte	0x30
 8482 28a2 00       		.byte	0
 8483 28a3 34       		.uleb128 0x34
 8484 28a4 F8000000 		.4byte	.LVL377
 8485 28a8 CB1F0000 		.4byte	0x1fcb
 8486 28ac D0280000 		.4byte	0x28d0
 8487 28b0 35       		.uleb128 0x35
 8488 28b1 01       		.uleb128 0x1
 8489 28b2 53       		.byte	0x53
 8490 28b3 02       		.uleb128 0x2
 8491 28b4 77       		.byte	0x77
 8492 28b5 00       		.sleb128 0
 8493 28b6 35       		.uleb128 0x35
 8494 28b7 01       		.uleb128 0x1
 8495 28b8 52       		.byte	0x52
ARM GAS  C:\Users\jo\AppData\Local\Temp\ccRMLSMa.s 			page 151


 8496 28b9 02       		.uleb128 0x2
 8497 28ba 78       		.byte	0x78
 8498 28bb 00       		.sleb128 0
 8499 28bc 35       		.uleb128 0x35
 8500 28bd 01       		.uleb128 0x1
 8501 28be 51       		.byte	0x51
 8502 28bf 02       		.uleb128 0x2
 8503 28c0 76       		.byte	0x76
 8504 28c1 00       		.sleb128 0
 8505 28c2 35       		.uleb128 0x35
 8506 28c3 01       		.uleb128 0x1
 8507 28c4 50       		.byte	0x50
 8508 28c5 02       		.uleb128 0x2
 8509 28c6 75       		.byte	0x75
 8510 28c7 00       		.sleb128 0
 8511 28c8 35       		.uleb128 0x35
 8512 28c9 02       		.uleb128 0x2
 8513 28ca 7D       		.byte	0x7d
 8514 28cb 00       		.sleb128 0
 8515 28cc 02       		.uleb128 0x2
 8516 28cd 74       		.byte	0x74
 8517 28ce 00       		.sleb128 0
 8518 28cf 00       		.byte	0
 8519 28d0 34       		.uleb128 0x34
 8520 28d1 08010000 		.4byte	.LVL381
 8521 28d5 EB2F0000 		.4byte	0x2feb
 8522 28d9 E3280000 		.4byte	0x28e3
 8523 28dd 35       		.uleb128 0x35
 8524 28de 01       		.uleb128 0x1
 8525 28df 50       		.byte	0x50
 8526 28e0 01       		.uleb128 0x1
 8527 28e1 32       		.byte	0x32
 8528 28e2 00       		.byte	0
 8529 28e3 34       		.uleb128 0x34
 8530 28e4 12010000 		.4byte	.LVL383
 8531 28e8 00300000 		.4byte	0x3000
 8532 28ec F7280000 		.4byte	0x28f7
 8533 28f0 35       		.uleb128 0x35
 8534 28f1 01       		.uleb128 0x1
 8535 28f2 50       		.byte	0x50
 8536 28f3 02       		.uleb128 0x2
 8537 28f4 75       		.byte	0x75
 8538 28f5 00       		.sleb128 0
 8539 28f6 00       		.byte	0
 8540 28f7 36       		.uleb128 0x36
 8541 28f8 22010000 		.4byte	.LVL385
 8542 28fc FD1A0000 		.4byte	0x1afd
 8543 2900 34       		.uleb128 0x34
 8544 2901 40010000 		.4byte	.LVL393
 8545 2905 061E0000 		.4byte	0x1e06
 8546 2909 14290000 		.4byte	0x2914
 8547 290d 35       		.uleb128 0x35
 8548 290e 01       		.uleb128 0x1
 8549 290f 50       		.byte	0x50
 8550 2910 02       		.uleb128 0x2
 8551 2911 75       		.byte	0x75
 8552 2912 00       		.sleb128 0
ARM GAS  C:\Users\jo\AppData\Local\Temp\ccRMLSMa.s 			page 152


 8553 2913 00       		.byte	0
 8554 2914 34       		.uleb128 0x34
 8555 2915 56010000 		.4byte	.LVL395
 8556 2919 CB1F0000 		.4byte	0x1fcb
 8557 291d 35290000 		.4byte	0x2935
 8558 2921 35       		.uleb128 0x35
 8559 2922 01       		.uleb128 0x1
 8560 2923 53       		.byte	0x53
 8561 2924 02       		.uleb128 0x2
 8562 2925 77       		.byte	0x77
 8563 2926 00       		.sleb128 0
 8564 2927 35       		.uleb128 0x35
 8565 2928 01       		.uleb128 0x1
 8566 2929 50       		.byte	0x50
 8567 292a 02       		.uleb128 0x2
 8568 292b 75       		.byte	0x75
 8569 292c 00       		.sleb128 0
 8570 292d 35       		.uleb128 0x35
 8571 292e 02       		.uleb128 0x2
 8572 292f 7D       		.byte	0x7d
 8573 2930 00       		.sleb128 0
 8574 2931 02       		.uleb128 0x2
 8575 2932 74       		.byte	0x74
 8576 2933 00       		.sleb128 0
 8577 2934 00       		.byte	0
 8578 2935 34       		.uleb128 0x34
 8579 2936 64010000 		.4byte	.LVL397
 8580 293a 1A300000 		.4byte	0x301a
 8581 293e 49290000 		.4byte	0x2949
 8582 2942 35       		.uleb128 0x35
 8583 2943 01       		.uleb128 0x1
 8584 2944 50       		.byte	0x50
 8585 2945 02       		.uleb128 0x2
 8586 2946 75       		.byte	0x75
 8587 2947 00       		.sleb128 0
 8588 2948 00       		.byte	0
 8589 2949 34       		.uleb128 0x34
 8590 294a 74010000 		.4byte	.LVL398
 8591 294e 061E0000 		.4byte	0x1e06
 8592 2952 69290000 		.4byte	0x2969
 8593 2956 35       		.uleb128 0x35
 8594 2957 01       		.uleb128 0x1
 8595 2958 52       		.byte	0x52
 8596 2959 02       		.uleb128 0x2
 8597 295a 78       		.byte	0x78
 8598 295b 00       		.sleb128 0
 8599 295c 35       		.uleb128 0x35
 8600 295d 01       		.uleb128 0x1
 8601 295e 51       		.byte	0x51
 8602 295f 02       		.uleb128 0x2
 8603 2960 76       		.byte	0x76
 8604 2961 00       		.sleb128 0
 8605 2962 35       		.uleb128 0x35
 8606 2963 01       		.uleb128 0x1
 8607 2964 50       		.byte	0x50
 8608 2965 02       		.uleb128 0x2
 8609 2966 75       		.byte	0x75
ARM GAS  C:\Users\jo\AppData\Local\Temp\ccRMLSMa.s 			page 153


 8610 2967 00       		.sleb128 0
 8611 2968 00       		.byte	0
 8612 2969 34       		.uleb128 0x34
 8613 296a 7E010000 		.4byte	.LVL400
 8614 296e 1A300000 		.4byte	0x301a
 8615 2972 7D290000 		.4byte	0x297d
 8616 2976 35       		.uleb128 0x35
 8617 2977 01       		.uleb128 0x1
 8618 2978 50       		.byte	0x50
 8619 2979 02       		.uleb128 0x2
 8620 297a 75       		.byte	0x75
 8621 297b 00       		.sleb128 0
 8622 297c 00       		.byte	0
 8623 297d 34       		.uleb128 0x34
 8624 297e 84010000 		.4byte	.LVL401
 8625 2982 EB2F0000 		.4byte	0x2feb
 8626 2986 90290000 		.4byte	0x2990
 8627 298a 35       		.uleb128 0x35
 8628 298b 01       		.uleb128 0x1
 8629 298c 50       		.byte	0x50
 8630 298d 01       		.uleb128 0x1
 8631 298e 31       		.byte	0x31
 8632 298f 00       		.byte	0
 8633 2990 34       		.uleb128 0x34
 8634 2991 90010000 		.4byte	.LVL403
 8635 2995 00300000 		.4byte	0x3000
 8636 2999 A4290000 		.4byte	0x29a4
 8637 299d 35       		.uleb128 0x35
 8638 299e 01       		.uleb128 0x1
 8639 299f 50       		.byte	0x50
 8640 29a0 02       		.uleb128 0x2
 8641 29a1 75       		.byte	0x75
 8642 29a2 00       		.sleb128 0
 8643 29a3 00       		.byte	0
 8644 29a4 34       		.uleb128 0x34
 8645 29a5 9E010000 		.4byte	.LVL405
 8646 29a9 76110000 		.4byte	0x1176
 8647 29ad BE290000 		.4byte	0x29be
 8648 29b1 35       		.uleb128 0x35
 8649 29b2 01       		.uleb128 0x1
 8650 29b3 52       		.byte	0x52
 8651 29b4 02       		.uleb128 0x2
 8652 29b5 78       		.byte	0x78
 8653 29b6 00       		.sleb128 0
 8654 29b7 35       		.uleb128 0x35
 8655 29b8 01       		.uleb128 0x1
 8656 29b9 51       		.byte	0x51
 8657 29ba 02       		.uleb128 0x2
 8658 29bb 76       		.byte	0x76
 8659 29bc 00       		.sleb128 0
 8660 29bd 00       		.byte	0
 8661 29be 34       		.uleb128 0x34
 8662 29bf A8010000 		.4byte	.LVL407
 8663 29c3 1A300000 		.4byte	0x301a
 8664 29c7 D2290000 		.4byte	0x29d2
 8665 29cb 35       		.uleb128 0x35
 8666 29cc 01       		.uleb128 0x1
ARM GAS  C:\Users\jo\AppData\Local\Temp\ccRMLSMa.s 			page 154


 8667 29cd 50       		.byte	0x50
 8668 29ce 02       		.uleb128 0x2
 8669 29cf 75       		.byte	0x75
 8670 29d0 00       		.sleb128 0
 8671 29d1 00       		.byte	0
 8672 29d2 34       		.uleb128 0x34
 8673 29d3 AE010000 		.4byte	.LVL408
 8674 29d7 EB2F0000 		.4byte	0x2feb
 8675 29db E5290000 		.4byte	0x29e5
 8676 29df 35       		.uleb128 0x35
 8677 29e0 01       		.uleb128 0x1
 8678 29e1 50       		.byte	0x50
 8679 29e2 01       		.uleb128 0x1
 8680 29e3 32       		.byte	0x32
 8681 29e4 00       		.byte	0
 8682 29e5 34       		.uleb128 0x34
 8683 29e6 BA010000 		.4byte	.LVL410
 8684 29ea 00300000 		.4byte	0x3000
 8685 29ee F9290000 		.4byte	0x29f9
 8686 29f2 35       		.uleb128 0x35
 8687 29f3 01       		.uleb128 0x1
 8688 29f4 50       		.byte	0x50
 8689 29f5 02       		.uleb128 0x2
 8690 29f6 75       		.byte	0x75
 8691 29f7 00       		.sleb128 0
 8692 29f8 00       		.byte	0
 8693 29f9 34       		.uleb128 0x34
 8694 29fa C8010000 		.4byte	.LVL412
 8695 29fe FD1A0000 		.4byte	0x1afd
 8696 2a02 132A0000 		.4byte	0x2a13
 8697 2a06 35       		.uleb128 0x35
 8698 2a07 01       		.uleb128 0x1
 8699 2a08 52       		.byte	0x52
 8700 2a09 02       		.uleb128 0x2
 8701 2a0a 78       		.byte	0x78
 8702 2a0b 00       		.sleb128 0
 8703 2a0c 35       		.uleb128 0x35
 8704 2a0d 01       		.uleb128 0x1
 8705 2a0e 51       		.byte	0x51
 8706 2a0f 02       		.uleb128 0x2
 8707 2a10 76       		.byte	0x76
 8708 2a11 00       		.sleb128 0
 8709 2a12 00       		.byte	0
 8710 2a13 3E       		.uleb128 0x3e
 8711 2a14 D2010000 		.4byte	.LVL414
 8712 2a18 1A300000 		.4byte	0x301a
 8713 2a1c 35       		.uleb128 0x35
 8714 2a1d 01       		.uleb128 0x1
 8715 2a1e 50       		.byte	0x50
 8716 2a1f 02       		.uleb128 0x2
 8717 2a20 75       		.byte	0x75
 8718 2a21 00       		.sleb128 0
 8719 2a22 00       		.byte	0
 8720 2a23 00       		.byte	0
 8721 2a24 46       		.uleb128 0x46
 8722 2a25 11080000 		.4byte	.LASF286
 8723 2a29 01       		.byte	0x1
ARM GAS  C:\Users\jo\AppData\Local\Temp\ccRMLSMa.s 			page 155


 8724 2a2a 73       		.byte	0x73
 8725 2a2b 25000000 		.4byte	0x25
 8726 2a2f 00000000 		.4byte	.LFB13
 8727 2a33 64000000 		.4byte	.LFE13-.LFB13
 8728 2a37 01       		.uleb128 0x1
 8729 2a38 9C       		.byte	0x9c
 8730 2a39 3E2B0000 		.4byte	0x2b3e
 8731 2a3d 48       		.uleb128 0x48
 8732 2a3e 63747800 		.ascii	"ctx\000"
 8733 2a42 01       		.byte	0x1
 8734 2a43 73       		.byte	0x73
 8735 2a44 C51F0000 		.4byte	0x1fc5
 8736 2a48 7D140000 		.4byte	.LLST81
 8737 2a4c 47       		.uleb128 0x47
 8738 2a4d CE070000 		.4byte	.LASF279
 8739 2a51 01       		.byte	0x1
 8740 2a52 74       		.byte	0x74
 8741 2a53 8E000000 		.4byte	0x8e
 8742 2a57 9B140000 		.4byte	.LLST82
 8743 2a5b 48       		.uleb128 0x48
 8744 2a5c 70776400 		.ascii	"pwd\000"
 8745 2a60 01       		.byte	0x1
 8746 2a61 74       		.byte	0x74
 8747 2a62 8E000000 		.4byte	0x8e
 8748 2a66 C7140000 		.4byte	.LLST83
 8749 2a6a 49       		.uleb128 0x49
 8750 2a6b 72657400 		.ascii	"ret\000"
 8751 2a6f 01       		.byte	0x1
 8752 2a70 76       		.byte	0x76
 8753 2a71 25000000 		.4byte	0x25
 8754 2a75 0C150000 		.4byte	.LLST84
 8755 2a79 4E       		.uleb128 0x4e
 8756 2a7a 6E00     		.ascii	"n\000"
 8757 2a7c 01       		.byte	0x1
 8758 2a7d 77       		.byte	0x77
 8759 2a7e 2C000000 		.4byte	0x2c
 8760 2a82 02       		.uleb128 0x2
 8761 2a83 91       		.byte	0x91
 8762 2a84 68       		.sleb128 -24
 8763 2a85 4E       		.uleb128 0x4e
 8764 2a86 62756600 		.ascii	"buf\000"
 8765 2a8a 01       		.byte	0x1
 8766 2a8b 78       		.byte	0x78
 8767 2a8c C5000000 		.4byte	0xc5
 8768 2a90 02       		.uleb128 0x2
 8769 2a91 91       		.byte	0x91
 8770 2a92 6C       		.sleb128 -20
 8771 2a93 4F       		.uleb128 0x4f
 8772 2a94 43110000 		.4byte	0x1143
 8773 2a98 30000000 		.4byte	.LBB70
 8774 2a9c F0000000 		.4byte	.Ldebug_ranges0+0xf0
 8775 2aa0 01       		.byte	0x1
 8776 2aa1 83       		.byte	0x83
 8777 2aa2 C82A0000 		.4byte	0x2ac8
 8778 2aa6 38       		.uleb128 0x38
 8779 2aa7 58110000 		.4byte	0x1158
 8780 2aab 56150000 		.4byte	.LLST85
ARM GAS  C:\Users\jo\AppData\Local\Temp\ccRMLSMa.s 			page 156


 8781 2aaf 38       		.uleb128 0x38
 8782 2ab0 4F110000 		.4byte	0x114f
 8783 2ab4 80150000 		.4byte	.LLST86
 8784 2ab8 3C       		.uleb128 0x3c
 8785 2ab9 F0000000 		.4byte	.Ldebug_ranges0+0xf0
 8786 2abd 39       		.uleb128 0x39
 8787 2abe 61110000 		.4byte	0x1161
 8788 2ac2 B6150000 		.4byte	.LLST87
 8789 2ac6 00       		.byte	0
 8790 2ac7 00       		.byte	0
 8791 2ac8 34       		.uleb128 0x34
 8792 2ac9 12000000 		.4byte	.LVL419
 8793 2acd 6F220000 		.4byte	0x226f
 8794 2ad1 E92A0000 		.4byte	0x2ae9
 8795 2ad5 35       		.uleb128 0x35
 8796 2ad6 01       		.uleb128 0x1
 8797 2ad7 52       		.byte	0x52
 8798 2ad8 02       		.uleb128 0x2
 8799 2ad9 91       		.byte	0x91
 8800 2ada 68       		.sleb128 -24
 8801 2adb 35       		.uleb128 0x35
 8802 2adc 01       		.uleb128 0x1
 8803 2add 51       		.byte	0x51
 8804 2ade 02       		.uleb128 0x2
 8805 2adf 91       		.byte	0x91
 8806 2ae0 6C       		.sleb128 -20
 8807 2ae1 35       		.uleb128 0x35
 8808 2ae2 01       		.uleb128 0x1
 8809 2ae3 50       		.byte	0x50
 8810 2ae4 03       		.uleb128 0x3
 8811 2ae5 F3       		.byte	0xf3
 8812 2ae6 01       		.uleb128 0x1
 8813 2ae7 51       		.byte	0x51
 8814 2ae8 00       		.byte	0
 8815 2ae9 34       		.uleb128 0x34
 8816 2aea 1C000000 		.4byte	.LVL421
 8817 2aee 34320000 		.4byte	0x3234
 8818 2af2 FD2A0000 		.4byte	0x2afd
 8819 2af6 35       		.uleb128 0x35
 8820 2af7 01       		.uleb128 0x1
 8821 2af8 50       		.byte	0x50
 8822 2af9 02       		.uleb128 0x2
 8823 2afa 74       		.byte	0x74
 8824 2afb 00       		.sleb128 0
 8825 2afc 00       		.byte	0
 8826 2afd 34       		.uleb128 0x34
 8827 2afe 2A000000 		.4byte	.LVL422
 8828 2b02 90260000 		.4byte	0x2690
 8829 2b06 172B0000 		.4byte	0x2b17
 8830 2b0a 35       		.uleb128 0x35
 8831 2b0b 01       		.uleb128 0x1
 8832 2b0c 53       		.byte	0x53
 8833 2b0d 02       		.uleb128 0x2
 8834 2b0e 74       		.byte	0x74
 8835 2b0f 00       		.sleb128 0
 8836 2b10 35       		.uleb128 0x35
 8837 2b11 01       		.uleb128 0x1
ARM GAS  C:\Users\jo\AppData\Local\Temp\ccRMLSMa.s 			page 157


 8838 2b12 50       		.byte	0x50
 8839 2b13 02       		.uleb128 0x2
 8840 2b14 75       		.byte	0x75
 8841 2b15 00       		.sleb128 0
 8842 2b16 00       		.byte	0
 8843 2b17 36       		.uleb128 0x36
 8844 2b18 48000000 		.4byte	.LVL430
 8845 2b1c B3310000 		.4byte	0x31b3
 8846 2b20 3E       		.uleb128 0x3e
 8847 2b21 5C000000 		.4byte	.LVL434
 8848 2b25 90260000 		.4byte	0x2690
 8849 2b29 35       		.uleb128 0x35
 8850 2b2a 01       		.uleb128 0x1
 8851 2b2b 53       		.byte	0x53
 8852 2b2c 02       		.uleb128 0x2
 8853 2b2d 74       		.byte	0x74
 8854 2b2e 00       		.sleb128 0
 8855 2b2f 35       		.uleb128 0x35
 8856 2b30 01       		.uleb128 0x1
 8857 2b31 50       		.byte	0x50
 8858 2b32 02       		.uleb128 0x2
 8859 2b33 75       		.byte	0x75
 8860 2b34 00       		.sleb128 0
 8861 2b35 35       		.uleb128 0x35
 8862 2b36 02       		.uleb128 0x2
 8863 2b37 7D       		.byte	0x7d
 8864 2b38 00       		.sleb128 0
 8865 2b39 02       		.uleb128 0x2
 8866 2b3a 74       		.byte	0x74
 8867 2b3b 00       		.sleb128 0
 8868 2b3c 00       		.byte	0
 8869 2b3d 00       		.byte	0
 8870 2b3e 4B       		.uleb128 0x4b
 8871 2b3f 55140000 		.4byte	.LASF287
 8872 2b43 01       		.byte	0x1
 8873 2b44 C804     		.2byte	0x4c8
 8874 2b46 25000000 		.4byte	0x25
 8875 2b4a 00000000 		.4byte	.LFB29
 8876 2b4e 5C000000 		.4byte	.LFE29-.LFB29
 8877 2b52 01       		.uleb128 0x1
 8878 2b53 9C       		.byte	0x9c
 8879 2b54 4A2C0000 		.4byte	0x2c4a
 8880 2b58 30       		.uleb128 0x30
 8881 2b59 63747800 		.ascii	"ctx\000"
 8882 2b5d 01       		.byte	0x1
 8883 2b5e C804     		.2byte	0x4c8
 8884 2b60 C51F0000 		.4byte	0x1fc5
 8885 2b64 EC150000 		.4byte	.LLST88
 8886 2b68 30       		.uleb128 0x30
 8887 2b69 6B657900 		.ascii	"key\000"
 8888 2b6d 01       		.byte	0x1
 8889 2b6e C904     		.2byte	0x4c9
 8890 2b70 B3000000 		.4byte	0xb3
 8891 2b74 0A160000 		.4byte	.LLST89
 8892 2b78 31       		.uleb128 0x31
 8893 2b79 8E080000 		.4byte	.LASF258
 8894 2b7d 01       		.byte	0x1
ARM GAS  C:\Users\jo\AppData\Local\Temp\ccRMLSMa.s 			page 158


 8895 2b7e C904     		.2byte	0x4c9
 8896 2b80 2C000000 		.4byte	0x2c
 8897 2b84 28160000 		.4byte	.LLST90
 8898 2b88 32       		.uleb128 0x32
 8899 2b89 72657400 		.ascii	"ret\000"
 8900 2b8d 01       		.byte	0x1
 8901 2b8e CB04     		.2byte	0x4cb
 8902 2b90 25000000 		.4byte	0x25
 8903 2b94 46160000 		.4byte	.LLST91
 8904 2b98 33       		.uleb128 0x33
 8905 2b99 7000     		.ascii	"p\000"
 8906 2b9b 01       		.byte	0x1
 8907 2b9c CC04     		.2byte	0x4cc
 8908 2b9e C5000000 		.4byte	0xc5
 8909 2ba2 02       		.uleb128 0x2
 8910 2ba3 91       		.byte	0x91
 8911 2ba4 54       		.sleb128 -44
 8912 2ba5 33       		.uleb128 0x33
 8913 2ba6 6C656E00 		.ascii	"len\000"
 8914 2baa 01       		.byte	0x1
 8915 2bab CE04     		.2byte	0x4ce
 8916 2bad 2C000000 		.4byte	0x2c
 8917 2bb1 02       		.uleb128 0x2
 8918 2bb2 91       		.byte	0x91
 8919 2bb3 58       		.sleb128 -40
 8920 2bb4 33       		.uleb128 0x33
 8921 2bb5 70656D00 		.ascii	"pem\000"
 8922 2bb9 01       		.byte	0x1
 8923 2bba CF04     		.2byte	0x4cf
 8924 2bbc 46100000 		.4byte	0x1046
 8925 2bc0 02       		.uleb128 0x2
 8926 2bc1 91       		.byte	0x91
 8927 2bc2 5C       		.sleb128 -36
 8928 2bc3 34       		.uleb128 0x34
 8929 2bc4 10000000 		.4byte	.LVL440
 8930 2bc8 D9310000 		.4byte	0x31d9
 8931 2bcc D72B0000 		.4byte	0x2bd7
 8932 2bd0 35       		.uleb128 0x35
 8933 2bd1 01       		.uleb128 0x1
 8934 2bd2 50       		.byte	0x50
 8935 2bd3 02       		.uleb128 0x2
 8936 2bd4 91       		.byte	0x91
 8937 2bd5 5C       		.sleb128 -36
 8938 2bd6 00       		.byte	0
 8939 2bd7 34       		.uleb128 0x34
 8940 2bd8 26000000 		.4byte	.LVL441
 8941 2bdc F0310000 		.4byte	0x31f0
 8942 2be0 162C0000 		.4byte	0x2c16
 8943 2be4 35       		.uleb128 0x35
 8944 2be5 01       		.uleb128 0x1
 8945 2be6 53       		.byte	0x53
 8946 2be7 02       		.uleb128 0x2
 8947 2be8 75       		.byte	0x75
 8948 2be9 00       		.sleb128 0
 8949 2bea 35       		.uleb128 0x35
 8950 2beb 01       		.uleb128 0x1
 8951 2bec 52       		.byte	0x52
ARM GAS  C:\Users\jo\AppData\Local\Temp\ccRMLSMa.s 			page 159


 8952 2bed 05       		.uleb128 0x5
 8953 2bee 03       		.byte	0x3
 8954 2bef 44010000 		.4byte	.LC13
 8955 2bf3 35       		.uleb128 0x35
 8956 2bf4 01       		.uleb128 0x1
 8957 2bf5 51       		.byte	0x51
 8958 2bf6 05       		.uleb128 0x5
 8959 2bf7 03       		.byte	0x3
 8960 2bf8 28010000 		.4byte	.LC12
 8961 2bfc 35       		.uleb128 0x35
 8962 2bfd 01       		.uleb128 0x1
 8963 2bfe 50       		.byte	0x50
 8964 2bff 02       		.uleb128 0x2
 8965 2c00 91       		.byte	0x91
 8966 2c01 5C       		.sleb128 -36
 8967 2c02 35       		.uleb128 0x35
 8968 2c03 02       		.uleb128 0x2
 8969 2c04 7D       		.byte	0x7d
 8970 2c05 08       		.sleb128 8
 8971 2c06 02       		.uleb128 0x2
 8972 2c07 91       		.byte	0x91
 8973 2c08 58       		.sleb128 -40
 8974 2c09 35       		.uleb128 0x35
 8975 2c0a 02       		.uleb128 0x2
 8976 2c0b 7D       		.byte	0x7d
 8977 2c0c 04       		.sleb128 4
 8978 2c0d 01       		.uleb128 0x1
 8979 2c0e 30       		.byte	0x30
 8980 2c0f 35       		.uleb128 0x35
 8981 2c10 02       		.uleb128 0x2
 8982 2c11 7D       		.byte	0x7d
 8983 2c12 00       		.sleb128 0
 8984 2c13 01       		.uleb128 0x1
 8985 2c14 30       		.byte	0x30
 8986 2c15 00       		.byte	0
 8987 2c16 34       		.uleb128 0x34
 8988 2c17 3C000000 		.4byte	.LVL445
 8989 2c1b 0D240000 		.4byte	0x240d
 8990 2c1f 392C0000 		.4byte	0x2c39
 8991 2c23 35       		.uleb128 0x35
 8992 2c24 01       		.uleb128 0x1
 8993 2c25 52       		.byte	0x52
 8994 2c26 02       		.uleb128 0x2
 8995 2c27 77       		.byte	0x77
 8996 2c28 00       		.sleb128 0
 8997 2c29 35       		.uleb128 0x35
 8998 2c2a 01       		.uleb128 0x1
 8999 2c2b 51       		.byte	0x51
 9000 2c2c 05       		.uleb128 0x5
 9001 2c2d 75       		.byte	0x75
 9002 2c2e 00       		.sleb128 0
 9003 2c2f 76       		.byte	0x76
 9004 2c30 00       		.sleb128 0
 9005 2c31 22       		.byte	0x22
 9006 2c32 35       		.uleb128 0x35
 9007 2c33 01       		.uleb128 0x1
 9008 2c34 50       		.byte	0x50
ARM GAS  C:\Users\jo\AppData\Local\Temp\ccRMLSMa.s 			page 160


 9009 2c35 02       		.uleb128 0x2
 9010 2c36 91       		.byte	0x91
 9011 2c37 54       		.sleb128 -44
 9012 2c38 00       		.byte	0
 9013 2c39 3E       		.uleb128 0x3e
 9014 2c3a 44000000 		.4byte	.LVL447
 9015 2c3e 23320000 		.4byte	0x3223
 9016 2c42 35       		.uleb128 0x35
 9017 2c43 01       		.uleb128 0x1
 9018 2c44 50       		.byte	0x50
 9019 2c45 02       		.uleb128 0x2
 9020 2c46 91       		.byte	0x91
 9021 2c47 5C       		.sleb128 -36
 9022 2c48 00       		.byte	0
 9023 2c49 00       		.byte	0
 9024 2c4a 46       		.uleb128 0x46
 9025 2c4b 1B110000 		.4byte	.LASF288
 9026 2c4f 01       		.byte	0x1
 9027 2c50 8C       		.byte	0x8c
 9028 2c51 25000000 		.4byte	0x25
 9029 2c55 00000000 		.4byte	.LFB14
 9030 2c59 4A000000 		.4byte	.LFE14-.LFB14
 9031 2c5d 01       		.uleb128 0x1
 9032 2c5e 9C       		.byte	0x9c
 9033 2c5f 1E2D0000 		.4byte	0x2d1e
 9034 2c63 48       		.uleb128 0x48
 9035 2c64 63747800 		.ascii	"ctx\000"
 9036 2c68 01       		.byte	0x1
 9037 2c69 8C       		.byte	0x8c
 9038 2c6a C51F0000 		.4byte	0x1fc5
 9039 2c6e 6F160000 		.4byte	.LLST92
 9040 2c72 47       		.uleb128 0x47
 9041 2c73 CE070000 		.4byte	.LASF279
 9042 2c77 01       		.byte	0x1
 9043 2c78 8C       		.byte	0x8c
 9044 2c79 8E000000 		.4byte	0x8e
 9045 2c7d 9B160000 		.4byte	.LLST93
 9046 2c81 49       		.uleb128 0x49
 9047 2c82 72657400 		.ascii	"ret\000"
 9048 2c86 01       		.byte	0x1
 9049 2c87 8E       		.byte	0x8e
 9050 2c88 25000000 		.4byte	0x25
 9051 2c8c C7160000 		.4byte	.LLST94
 9052 2c90 4E       		.uleb128 0x4e
 9053 2c91 6E00     		.ascii	"n\000"
 9054 2c93 01       		.byte	0x1
 9055 2c94 8F       		.byte	0x8f
 9056 2c95 2C000000 		.4byte	0x2c
 9057 2c99 02       		.uleb128 0x2
 9058 2c9a 91       		.byte	0x91
 9059 2c9b 68       		.sleb128 -24
 9060 2c9c 4E       		.uleb128 0x4e
 9061 2c9d 62756600 		.ascii	"buf\000"
 9062 2ca1 01       		.byte	0x1
 9063 2ca2 90       		.byte	0x90
 9064 2ca3 C5000000 		.4byte	0xc5
 9065 2ca7 02       		.uleb128 0x2
ARM GAS  C:\Users\jo\AppData\Local\Temp\ccRMLSMa.s 			page 161


 9066 2ca8 91       		.byte	0x91
 9067 2ca9 6C       		.sleb128 -20
 9068 2caa 4F       		.uleb128 0x4f
 9069 2cab 43110000 		.4byte	0x1143
 9070 2caf 26000000 		.4byte	.LBB74
 9071 2cb3 08010000 		.4byte	.Ldebug_ranges0+0x108
 9072 2cb7 01       		.byte	0x1
 9073 2cb8 97       		.byte	0x97
 9074 2cb9 DF2C0000 		.4byte	0x2cdf
 9075 2cbd 38       		.uleb128 0x38
 9076 2cbe 58110000 		.4byte	0x1158
 9077 2cc2 11170000 		.4byte	.LLST95
 9078 2cc6 38       		.uleb128 0x38
 9079 2cc7 4F110000 		.4byte	0x114f
 9080 2ccb 70170000 		.4byte	.LLST96
 9081 2ccf 3C       		.uleb128 0x3c
 9082 2cd0 08010000 		.4byte	.Ldebug_ranges0+0x108
 9083 2cd4 39       		.uleb128 0x39
 9084 2cd5 61110000 		.4byte	0x1161
 9085 2cd9 A6170000 		.4byte	.LLST97
 9086 2cdd 00       		.byte	0
 9087 2cde 00       		.byte	0
 9088 2cdf 34       		.uleb128 0x34
 9089 2ce0 10000000 		.4byte	.LVL452
 9090 2ce4 6F220000 		.4byte	0x226f
 9091 2ce8 002D0000 		.4byte	0x2d00
 9092 2cec 35       		.uleb128 0x35
 9093 2ced 01       		.uleb128 0x1
 9094 2cee 52       		.byte	0x52
 9095 2cef 02       		.uleb128 0x2
 9096 2cf0 7D       		.byte	0x7d
 9097 2cf1 00       		.sleb128 0
 9098 2cf2 35       		.uleb128 0x35
 9099 2cf3 01       		.uleb128 0x1
 9100 2cf4 51       		.byte	0x51
 9101 2cf5 02       		.uleb128 0x2
 9102 2cf6 91       		.byte	0x91
 9103 2cf7 6C       		.sleb128 -20
 9104 2cf8 35       		.uleb128 0x35
 9105 2cf9 01       		.uleb128 0x1
 9106 2cfa 50       		.byte	0x50
 9107 2cfb 03       		.uleb128 0x3
 9108 2cfc F3       		.byte	0xf3
 9109 2cfd 01       		.uleb128 0x1
 9110 2cfe 51       		.byte	0x51
 9111 2cff 00       		.byte	0
 9112 2d00 34       		.uleb128 0x34
 9113 2d01 22000000 		.4byte	.LVL455
 9114 2d05 3E2B0000 		.4byte	0x2b3e
 9115 2d09 142D0000 		.4byte	0x2d14
 9116 2d0d 35       		.uleb128 0x35
 9117 2d0e 01       		.uleb128 0x1
 9118 2d0f 50       		.byte	0x50
 9119 2d10 02       		.uleb128 0x2
 9120 2d11 75       		.byte	0x75
 9121 2d12 00       		.sleb128 0
 9122 2d13 00       		.byte	0
ARM GAS  C:\Users\jo\AppData\Local\Temp\ccRMLSMa.s 			page 162


 9123 2d14 36       		.uleb128 0x36
 9124 2d15 40000000 		.4byte	.LVL462
 9125 2d19 B3310000 		.4byte	0x31b3
 9126 2d1d 00       		.byte	0
 9127 2d1e 50       		.uleb128 0x50
 9128 2d1f C1070000 		.4byte	.LASF289
 9129 2d23 0E       		.byte	0xe
 9130 2d24 BE       		.byte	0xbe
 9131 2d25 25000000 		.4byte	0x25
 9132 2d29 422D0000 		.4byte	0x2d42
 9133 2d2d 0A       		.uleb128 0xa
 9134 2d2e A9100000 		.4byte	0x10a9
 9135 2d32 0A       		.uleb128 0xa
 9136 2d33 B3000000 		.4byte	0xb3
 9137 2d37 0A       		.uleb128 0xa
 9138 2d38 CA0D0000 		.4byte	0xdca
 9139 2d3c 0A       		.uleb128 0xa
 9140 2d3d 25000000 		.4byte	0x25
 9141 2d41 00       		.byte	0
 9142 2d42 50       		.uleb128 0x50
 9143 2d43 87110000 		.4byte	.LASF290
 9144 2d47 0E       		.byte	0xe
 9145 2d48 DA       		.byte	0xda
 9146 2d49 25000000 		.4byte	0x25
 9147 2d4d 612D0000 		.4byte	0x2d61
 9148 2d51 0A       		.uleb128 0xa
 9149 2d52 A9100000 		.4byte	0x10a9
 9150 2d56 0A       		.uleb128 0xa
 9151 2d57 B3000000 		.4byte	0xb3
 9152 2d5b 0A       		.uleb128 0xa
 9153 2d5c 612D0000 		.4byte	0x2d61
 9154 2d60 00       		.byte	0
 9155 2d61 07       		.uleb128 0x7
 9156 2d62 04       		.byte	0x4
 9157 2d63 25000000 		.4byte	0x25
 9158 2d67 51       		.uleb128 0x51
 9159 2d68 46090000 		.4byte	.LASF291
 9160 2d6c 0E       		.byte	0xe
 9161 2d6d 1401     		.2byte	0x114
 9162 2d6f 25000000 		.4byte	0x25
 9163 2d73 872D0000 		.4byte	0x2d87
 9164 2d77 0A       		.uleb128 0xa
 9165 2d78 A9100000 		.4byte	0x10a9
 9166 2d7c 0A       		.uleb128 0xa
 9167 2d7d B3000000 		.4byte	0xb3
 9168 2d81 0A       		.uleb128 0xa
 9169 2d82 990B0000 		.4byte	0xb99
 9170 2d86 00       		.byte	0
 9171 2d87 52       		.uleb128 0x52
 9172 2d88 79070000 		.4byte	.LASF301
 9173 2d8c 0B       		.byte	0xb
 9174 2d8d 7E02     		.2byte	0x27e
 9175 2d8f 992D0000 		.4byte	0x2d99
 9176 2d93 0A       		.uleb128 0xa
 9177 2d94 A4130000 		.4byte	0x13a4
 9178 2d98 00       		.byte	0
 9179 2d99 51       		.uleb128 0x51
ARM GAS  C:\Users\jo\AppData\Local\Temp\ccRMLSMa.s 			page 163


 9180 2d9a 34140000 		.4byte	.LASF292
 9181 2d9e 0A       		.byte	0xa
 9182 2d9f 5B01     		.2byte	0x15b
 9183 2da1 2C000000 		.4byte	0x2c
 9184 2da5 AF2D0000 		.4byte	0x2daf
 9185 2da9 0A       		.uleb128 0xa
 9186 2daa AF2D0000 		.4byte	0x2daf
 9187 2dae 00       		.byte	0
 9188 2daf 07       		.uleb128 0x7
 9189 2db0 04       		.byte	0x4
 9190 2db1 B52D0000 		.4byte	0x2db5
 9191 2db5 08       		.uleb128 0x8
 9192 2db6 5D090000 		.4byte	0x95d
 9193 2dba 50       		.uleb128 0x50
 9194 2dbb D2130000 		.4byte	.LASF293
 9195 2dbf 0B       		.byte	0xb
 9196 2dc0 BB       		.byte	0xbb
 9197 2dc1 25000000 		.4byte	0x25
 9198 2dc5 CF2D0000 		.4byte	0x2dcf
 9199 2dc9 0A       		.uleb128 0xa
 9200 2dca CF2D0000 		.4byte	0x2dcf
 9201 2dce 00       		.byte	0
 9202 2dcf 07       		.uleb128 0x7
 9203 2dd0 04       		.byte	0x4
 9204 2dd1 D52D0000 		.4byte	0x2dd5
 9205 2dd5 08       		.uleb128 0x8
 9206 2dd6 2B0A0000 		.4byte	0xa2b
 9207 2dda 51       		.uleb128 0x51
 9208 2ddb C0040000 		.4byte	.LASF294
 9209 2ddf 0E       		.byte	0xe
 9210 2de0 2501     		.2byte	0x125
 9211 2de2 25000000 		.4byte	0x25
 9212 2de6 FF2D0000 		.4byte	0x2dff
 9213 2dea 0A       		.uleb128 0xa
 9214 2deb A9100000 		.4byte	0x10a9
 9215 2def 0A       		.uleb128 0xa
 9216 2df0 B3000000 		.4byte	0xb3
 9217 2df4 0A       		.uleb128 0xa
 9218 2df5 B5100000 		.4byte	0x10b5
 9219 2df9 0A       		.uleb128 0xa
 9220 2dfa B5100000 		.4byte	0x10b5
 9221 2dfe 00       		.byte	0
 9222 2dff 51       		.uleb128 0x51
 9223 2e00 04060000 		.4byte	.LASF295
 9224 2e04 11       		.byte	0x11
 9225 2e05 B201     		.2byte	0x1b2
 9226 2e07 25000000 		.4byte	0x25
 9227 2e0b 1A2E0000 		.4byte	0x2e1a
 9228 2e0f 0A       		.uleb128 0xa
 9229 2e10 2D110000 		.4byte	0x112d
 9230 2e14 0A       		.uleb128 0xa
 9231 2e15 AF100000 		.4byte	0x10af
 9232 2e19 00       		.byte	0
 9233 2e1a 50       		.uleb128 0x50
 9234 2e1b 0D070000 		.4byte	.LASF296
 9235 2e1f 12       		.byte	0x12
 9236 2e20 16       		.byte	0x16
ARM GAS  C:\Users\jo\AppData\Local\Temp\ccRMLSMa.s 			page 164


 9237 2e21 25000000 		.4byte	0x25
 9238 2e25 392E0000 		.4byte	0x2e39
 9239 2e29 0A       		.uleb128 0xa
 9240 2e2a 480D0000 		.4byte	0xd48
 9241 2e2e 0A       		.uleb128 0xa
 9242 2e2f 480D0000 		.4byte	0xd48
 9243 2e33 0A       		.uleb128 0xa
 9244 2e34 2C000000 		.4byte	0x2c
 9245 2e38 00       		.byte	0
 9246 2e39 51       		.uleb128 0x51
 9247 2e3a 30030000 		.4byte	.LASF297
 9248 2e3e 0A       		.byte	0xa
 9249 2e3f 5401     		.2byte	0x154
 9250 2e41 2C000000 		.4byte	0x2c
 9251 2e45 4F2E0000 		.4byte	0x2e4f
 9252 2e49 0A       		.uleb128 0xa
 9253 2e4a AF2D0000 		.4byte	0x2daf
 9254 2e4e 00       		.byte	0
 9255 2e4f 51       		.uleb128 0x51
 9256 2e50 F4070000 		.4byte	.LASF298
 9257 2e54 0A       		.byte	0xa
 9258 2e55 A001     		.2byte	0x1a0
 9259 2e57 25000000 		.4byte	0x25
 9260 2e5b 6F2E0000 		.4byte	0x2e6f
 9261 2e5f 0A       		.uleb128 0xa
 9262 2e60 990B0000 		.4byte	0xb99
 9263 2e64 0A       		.uleb128 0xa
 9264 2e65 B3000000 		.4byte	0xb3
 9265 2e69 0A       		.uleb128 0xa
 9266 2e6a 2C000000 		.4byte	0x2c
 9267 2e6e 00       		.byte	0
 9268 2e6f 51       		.uleb128 0x51
 9269 2e70 68050000 		.4byte	.LASF299
 9270 2e74 0C       		.byte	0xc
 9271 2e75 9201     		.2byte	0x192
 9272 2e77 25000000 		.4byte	0x25
 9273 2e7b 942E0000 		.4byte	0x2e94
 9274 2e7f 0A       		.uleb128 0xa
 9275 2e80 14150000 		.4byte	0x1514
 9276 2e84 0A       		.uleb128 0xa
 9277 2e85 B90B0000 		.4byte	0xbb9
 9278 2e89 0A       		.uleb128 0xa
 9279 2e8a B3000000 		.4byte	0xb3
 9280 2e8e 0A       		.uleb128 0xa
 9281 2e8f 2C000000 		.4byte	0x2c
 9282 2e93 00       		.byte	0
 9283 2e94 51       		.uleb128 0x51
 9284 2e95 B90C0000 		.4byte	.LASF300
 9285 2e99 0A       		.byte	0xa
 9286 2e9a 2601     		.2byte	0x126
 9287 2e9c 25000000 		.4byte	0x25
 9288 2ea0 AF2E0000 		.4byte	0x2eaf
 9289 2ea4 0A       		.uleb128 0xa
 9290 2ea5 990B0000 		.4byte	0xb99
 9291 2ea9 0A       		.uleb128 0xa
 9292 2eaa 1A090000 		.4byte	0x91a
 9293 2eae 00       		.byte	0
ARM GAS  C:\Users\jo\AppData\Local\Temp\ccRMLSMa.s 			page 165


 9294 2eaf 52       		.uleb128 0x52
 9295 2eb0 3E120000 		.4byte	.LASF302
 9296 2eb4 0C       		.byte	0xc
 9297 2eb5 2201     		.2byte	0x122
 9298 2eb7 C12E0000 		.4byte	0x2ec1
 9299 2ebb 0A       		.uleb128 0xa
 9300 2ebc 38110000 		.4byte	0x1138
 9301 2ec0 00       		.byte	0
 9302 2ec1 53       		.uleb128 0x53
 9303 2ec2 CC060000 		.4byte	.LASF337
 9304 2ec6 0C       		.byte	0xc
 9305 2ec7 FD       		.byte	0xfd
 9306 2ec8 1F150000 		.4byte	0x151f
 9307 2ecc 52       		.uleb128 0x52
 9308 2ecd 7A000000 		.4byte	.LASF303
 9309 2ed1 0C       		.byte	0xc
 9310 2ed2 3101     		.2byte	0x131
 9311 2ed4 DE2E0000 		.4byte	0x2ede
 9312 2ed8 0A       		.uleb128 0xa
 9313 2ed9 38110000 		.4byte	0x1138
 9314 2edd 00       		.byte	0
 9315 2ede 51       		.uleb128 0x51
 9316 2edf 89060000 		.4byte	.LASF304
 9317 2ee3 0C       		.byte	0xc
 9318 2ee4 D801     		.2byte	0x1d8
 9319 2ee6 25000000 		.4byte	0x25
 9320 2eea F92E0000 		.4byte	0x2ef9
 9321 2eee 0A       		.uleb128 0xa
 9322 2eef 38110000 		.4byte	0x1138
 9323 2ef3 0A       		.uleb128 0xa
 9324 2ef4 9F0A0000 		.4byte	0xa9f
 9325 2ef8 00       		.byte	0
 9326 2ef9 51       		.uleb128 0x51
 9327 2efa 210F0000 		.4byte	.LASF305
 9328 2efe 0A       		.byte	0xa
 9329 2eff DC01     		.2byte	0x1dc
 9330 2f01 25000000 		.4byte	0x25
 9331 2f05 142F0000 		.4byte	0x2f14
 9332 2f09 0A       		.uleb128 0xa
 9333 2f0a AF2D0000 		.4byte	0x2daf
 9334 2f0e 0A       		.uleb128 0xa
 9335 2f0f AF2D0000 		.4byte	0x2daf
 9336 2f13 00       		.byte	0
 9337 2f14 51       		.uleb128 0x51
 9338 2f15 CA120000 		.4byte	.LASF306
 9339 2f19 0A       		.byte	0xa
 9340 2f1a 3001     		.2byte	0x130
 9341 2f1c 25000000 		.4byte	0x25
 9342 2f20 2F2F0000 		.4byte	0x2f2f
 9343 2f24 0A       		.uleb128 0xa
 9344 2f25 AF2D0000 		.4byte	0x2daf
 9345 2f29 0A       		.uleb128 0xa
 9346 2f2a 2C000000 		.4byte	0x2c
 9347 2f2e 00       		.byte	0
 9348 2f2f 51       		.uleb128 0x51
 9349 2f30 6A070000 		.4byte	.LASF307
 9350 2f34 11       		.byte	0x11
ARM GAS  C:\Users\jo\AppData\Local\Temp\ccRMLSMa.s 			page 166


 9351 2f35 C901     		.2byte	0x1c9
 9352 2f37 25000000 		.4byte	0x25
 9353 2f3b 4A2F0000 		.4byte	0x2f4a
 9354 2f3f 0A       		.uleb128 0xa
 9355 2f40 2D110000 		.4byte	0x112d
 9356 2f44 0A       		.uleb128 0xa
 9357 2f45 B9140000 		.4byte	0x14b9
 9358 2f49 00       		.byte	0
 9359 2f4a 51       		.uleb128 0x51
 9360 2f4b 6D110000 		.4byte	.LASF308
 9361 2f4f 0C       		.byte	0xc
 9362 2f50 4C02     		.2byte	0x24c
 9363 2f52 25000000 		.4byte	0x25
 9364 2f56 652F0000 		.4byte	0x2f65
 9365 2f5a 0A       		.uleb128 0xa
 9366 2f5b 14150000 		.4byte	0x1514
 9367 2f5f 0A       		.uleb128 0xa
 9368 2f60 652F0000 		.4byte	0x2f65
 9369 2f64 00       		.byte	0
 9370 2f65 07       		.uleb128 0x7
 9371 2f66 04       		.byte	0x4
 9372 2f67 6B2F0000 		.4byte	0x2f6b
 9373 2f6b 08       		.uleb128 0x8
 9374 2f6c D10A0000 		.4byte	0xad1
 9375 2f70 51       		.uleb128 0x51
 9376 2f71 1A0B0000 		.4byte	.LASF309
 9377 2f75 0C       		.byte	0xc
 9378 2f76 3302     		.2byte	0x233
 9379 2f78 25000000 		.4byte	0x25
 9380 2f7c 9F2F0000 		.4byte	0x2f9f
 9381 2f80 0A       		.uleb128 0xa
 9382 2f81 38110000 		.4byte	0x1138
 9383 2f85 0A       		.uleb128 0xa
 9384 2f86 B90B0000 		.4byte	0xbb9
 9385 2f8a 0A       		.uleb128 0xa
 9386 2f8b AF2D0000 		.4byte	0x2daf
 9387 2f8f 0A       		.uleb128 0xa
 9388 2f90 652F0000 		.4byte	0x2f65
 9389 2f94 0A       		.uleb128 0xa
 9390 2f95 D00D0000 		.4byte	0xdd0
 9391 2f99 0A       		.uleb128 0xa
 9392 2f9a AB000000 		.4byte	0xab
 9393 2f9e 00       		.byte	0
 9394 2f9f 51       		.uleb128 0x51
 9395 2fa0 D9010000 		.4byte	.LASF310
 9396 2fa4 0C       		.byte	0xc
 9397 2fa5 5B02     		.2byte	0x25b
 9398 2fa7 25000000 		.4byte	0x25
 9399 2fab BA2F0000 		.4byte	0x2fba
 9400 2faf 0A       		.uleb128 0xa
 9401 2fb0 14150000 		.4byte	0x1514
 9402 2fb4 0A       		.uleb128 0xa
 9403 2fb5 AF2D0000 		.4byte	0x2daf
 9404 2fb9 00       		.byte	0
 9405 2fba 52       		.uleb128 0x52
 9406 2fbb 650A0000 		.4byte	.LASF311
 9407 2fbf 0C       		.byte	0xc
ARM GAS  C:\Users\jo\AppData\Local\Temp\ccRMLSMa.s 			page 167


 9408 2fc0 3601     		.2byte	0x136
 9409 2fc2 CC2F0000 		.4byte	0x2fcc
 9410 2fc6 0A       		.uleb128 0xa
 9411 2fc7 F71A0000 		.4byte	0x1af7
 9412 2fcb 00       		.byte	0
 9413 2fcc 50       		.uleb128 0x50
 9414 2fcd 9F0D0000 		.4byte	.LASF312
 9415 2fd1 0E       		.byte	0xe
 9416 2fd2 F6       		.byte	0xf6
 9417 2fd3 25000000 		.4byte	0x25
 9418 2fd7 EB2F0000 		.4byte	0x2feb
 9419 2fdb 0A       		.uleb128 0xa
 9420 2fdc A9100000 		.4byte	0x10a9
 9421 2fe0 0A       		.uleb128 0xa
 9422 2fe1 B3000000 		.4byte	0xb3
 9423 2fe5 0A       		.uleb128 0xa
 9424 2fe6 CA0D0000 		.4byte	0xdca
 9425 2fea 00       		.byte	0
 9426 2feb 50       		.uleb128 0x50
 9427 2fec 97000000 		.4byte	.LASF313
 9428 2ff0 0D       		.byte	0xd
 9429 2ff1 DB       		.byte	0xdb
 9430 2ff2 8F0E0000 		.4byte	0xe8f
 9431 2ff6 00300000 		.4byte	0x3000
 9432 2ffa 0A       		.uleb128 0xa
 9433 2ffb 370C0000 		.4byte	0xc37
 9434 2fff 00       		.byte	0
 9435 3000 50       		.uleb128 0x50
 9436 3001 7C090000 		.4byte	.LASF314
 9437 3005 0D       		.byte	0xd
 9438 3006 F5       		.byte	0xf5
 9439 3007 25000000 		.4byte	0x25
 9440 300b 1A300000 		.4byte	0x301a
 9441 300f 0A       		.uleb128 0xa
 9442 3010 C51F0000 		.4byte	0x1fc5
 9443 3014 0A       		.uleb128 0xa
 9444 3015 8F0E0000 		.4byte	0xe8f
 9445 3019 00       		.byte	0
 9446 301a 54       		.uleb128 0x54
 9447 301b 95080000 		.4byte	.LASF315
 9448 301f 0D       		.byte	0xd
 9449 3020 E5       		.byte	0xe5
 9450 3021 2B300000 		.4byte	0x302b
 9451 3025 0A       		.uleb128 0xa
 9452 3026 C51F0000 		.4byte	0x1fc5
 9453 302a 00       		.byte	0
 9454 302b 55       		.uleb128 0x55
 9455 302c B90A0000 		.4byte	.LASF316
 9456 3030 AB000000 		.4byte	0xab
 9457 3034 48300000 		.4byte	0x3048
 9458 3038 0A       		.uleb128 0xa
 9459 3039 AB000000 		.4byte	0xab
 9460 303d 0A       		.uleb128 0xa
 9461 303e 25000000 		.4byte	0x25
 9462 3042 0A       		.uleb128 0xa
 9463 3043 79010000 		.4byte	0x179
 9464 3047 00       		.byte	0
ARM GAS  C:\Users\jo\AppData\Local\Temp\ccRMLSMa.s 			page 168


 9465 3048 51       		.uleb128 0x51
 9466 3049 C30F0000 		.4byte	.LASF317
 9467 304d 11       		.byte	0x11
 9468 304e 3302     		.2byte	0x233
 9469 3050 25000000 		.4byte	0x25
 9470 3054 68300000 		.4byte	0x3068
 9471 3058 0A       		.uleb128 0xa
 9472 3059 2D110000 		.4byte	0x112d
 9473 305d 0A       		.uleb128 0xa
 9474 305e 68300000 		.4byte	0x3068
 9475 3062 0A       		.uleb128 0xa
 9476 3063 6E300000 		.4byte	0x306e
 9477 3067 00       		.byte	0
 9478 3068 07       		.uleb128 0x7
 9479 3069 04       		.byte	0x4
 9480 306a 83000000 		.4byte	0x83
 9481 306e 07       		.uleb128 0x7
 9482 306f 04       		.byte	0x4
 9483 3070 0E100000 		.4byte	0x100e
 9484 3074 50       		.uleb128 0x50
 9485 3075 BD110000 		.4byte	.LASF318
 9486 3079 13       		.byte	0x13
 9487 307a 54       		.byte	0x54
 9488 307b 25000000 		.4byte	0x25
 9489 307f B1300000 		.4byte	0x30b1
 9490 3083 0A       		.uleb128 0xa
 9491 3084 B5100000 		.4byte	0x10b5
 9492 3088 0A       		.uleb128 0xa
 9493 3089 25000000 		.4byte	0x25
 9494 308d 0A       		.uleb128 0xa
 9495 308e 0E100000 		.4byte	0x100e
 9496 3092 0A       		.uleb128 0xa
 9497 3093 83000000 		.4byte	0x83
 9498 3097 0A       		.uleb128 0xa
 9499 3098 B3000000 		.4byte	0xb3
 9500 309c 0A       		.uleb128 0xa
 9501 309d 2C000000 		.4byte	0x2c
 9502 30a1 0A       		.uleb128 0xa
 9503 30a2 B3000000 		.4byte	0xb3
 9504 30a6 0A       		.uleb128 0xa
 9505 30a7 2C000000 		.4byte	0x2c
 9506 30ab 0A       		.uleb128 0xa
 9507 30ac C5000000 		.4byte	0xc5
 9508 30b0 00       		.byte	0
 9509 30b1 50       		.uleb128 0x50
 9510 30b2 E2100000 		.4byte	.LASF319
 9511 30b6 13       		.byte	0x13
 9512 30b7 3F       		.byte	0x3f
 9513 30b8 25000000 		.4byte	0x25
 9514 30bc E4300000 		.4byte	0x30e4
 9515 30c0 0A       		.uleb128 0xa
 9516 30c1 B5100000 		.4byte	0x10b5
 9517 30c5 0A       		.uleb128 0xa
 9518 30c6 25000000 		.4byte	0x25
 9519 30ca 0A       		.uleb128 0xa
 9520 30cb B3000000 		.4byte	0xb3
 9521 30cf 0A       		.uleb128 0xa
ARM GAS  C:\Users\jo\AppData\Local\Temp\ccRMLSMa.s 			page 169


 9522 30d0 2C000000 		.4byte	0x2c
 9523 30d4 0A       		.uleb128 0xa
 9524 30d5 B3000000 		.4byte	0xb3
 9525 30d9 0A       		.uleb128 0xa
 9526 30da 2C000000 		.4byte	0x2c
 9527 30de 0A       		.uleb128 0xa
 9528 30df C5000000 		.4byte	0xc5
 9529 30e3 00       		.byte	0
 9530 30e4 50       		.uleb128 0x50
 9531 30e5 9B020000 		.4byte	.LASF320
 9532 30e9 14       		.byte	0x14
 9533 30ea 42       		.byte	0x42
 9534 30eb 25000000 		.4byte	0x25
 9535 30ef 17310000 		.4byte	0x3117
 9536 30f3 0A       		.uleb128 0xa
 9537 30f4 B5100000 		.4byte	0x10b5
 9538 30f8 0A       		.uleb128 0xa
 9539 30f9 25000000 		.4byte	0x25
 9540 30fd 0A       		.uleb128 0xa
 9541 30fe B3000000 		.4byte	0xb3
 9542 3102 0A       		.uleb128 0xa
 9543 3103 2C000000 		.4byte	0x2c
 9544 3107 0A       		.uleb128 0xa
 9545 3108 B3000000 		.4byte	0xb3
 9546 310c 0A       		.uleb128 0xa
 9547 310d 2C000000 		.4byte	0x2c
 9548 3111 0A       		.uleb128 0xa
 9549 3112 C5000000 		.4byte	0xc5
 9550 3116 00       		.byte	0
 9551 3117 50       		.uleb128 0x50
 9552 3118 CE0B0000 		.4byte	.LASF321
 9553 311c 08       		.byte	0x8
 9554 311d DC       		.byte	0xdc
 9555 311e BB230000 		.4byte	0x23bb
 9556 3122 31310000 		.4byte	0x3131
 9557 3126 0A       		.uleb128 0xa
 9558 3127 8E000000 		.4byte	0x8e
 9559 312b 0A       		.uleb128 0xa
 9560 312c 8E000000 		.4byte	0x8e
 9561 3130 00       		.byte	0
 9562 3131 50       		.uleb128 0x50
 9563 3132 B30A0000 		.4byte	.LASF322
 9564 3136 08       		.byte	0x8
 9565 3137 CF       		.byte	0xcf
 9566 3138 25000000 		.4byte	0x25
 9567 313c 50310000 		.4byte	0x3150
 9568 3140 0A       		.uleb128 0xa
 9569 3141 BB230000 		.4byte	0x23bb
 9570 3145 0A       		.uleb128 0xa
 9571 3146 F6000000 		.4byte	0xf6
 9572 314a 0A       		.uleb128 0xa
 9573 314b 25000000 		.4byte	0x25
 9574 314f 00       		.byte	0
 9575 3150 50       		.uleb128 0x50
 9576 3151 9C0B0000 		.4byte	.LASF323
 9577 3155 08       		.byte	0x8
 9578 3156 D5       		.byte	0xd5
ARM GAS  C:\Users\jo\AppData\Local\Temp\ccRMLSMa.s 			page 170


 9579 3157 F6000000 		.4byte	0xf6
 9580 315b 65310000 		.4byte	0x3165
 9581 315f 0A       		.uleb128 0xa
 9582 3160 BB230000 		.4byte	0x23bb
 9583 3164 00       		.byte	0
 9584 3165 50       		.uleb128 0x50
 9585 3166 CE110000 		.4byte	.LASF324
 9586 316a 15       		.byte	0x15
 9587 316b 60       		.byte	0x60
 9588 316c AB000000 		.4byte	0xab
 9589 3170 7A310000 		.4byte	0x317a
 9590 3174 0A       		.uleb128 0xa
 9591 3175 2C000000 		.4byte	0x2c
 9592 3179 00       		.byte	0
 9593 317a 50       		.uleb128 0x50
 9594 317b 440D0000 		.4byte	.LASF325
 9595 317f 08       		.byte	0x8
 9596 3180 C8       		.byte	0xc8
 9597 3181 2C000000 		.4byte	0x2c
 9598 3185 9E310000 		.4byte	0x319e
 9599 3189 0A       		.uleb128 0xa
 9600 318a AB000000 		.4byte	0xab
 9601 318e 0A       		.uleb128 0xa
 9602 318f 2C000000 		.4byte	0x2c
 9603 3193 0A       		.uleb128 0xa
 9604 3194 2C000000 		.4byte	0x2c
 9605 3198 0A       		.uleb128 0xa
 9606 3199 BB230000 		.4byte	0x23bb
 9607 319d 00       		.byte	0
 9608 319e 50       		.uleb128 0x50
 9609 319f 060E0000 		.4byte	.LASF326
 9610 31a3 08       		.byte	0x8
 9611 31a4 A8       		.byte	0xa8
 9612 31a5 25000000 		.4byte	0x25
 9613 31a9 B3310000 		.4byte	0x31b3
 9614 31ad 0A       		.uleb128 0xa
 9615 31ae BB230000 		.4byte	0x23bb
 9616 31b2 00       		.byte	0
 9617 31b3 54       		.uleb128 0x54
 9618 31b4 7A0E0000 		.4byte	.LASF327
 9619 31b8 15       		.byte	0x15
 9620 31b9 55       		.byte	0x55
 9621 31ba C4310000 		.4byte	0x31c4
 9622 31be 0A       		.uleb128 0xa
 9623 31bf AB000000 		.4byte	0xab
 9624 31c3 00       		.byte	0
 9625 31c4 50       		.uleb128 0x50
 9626 31c5 9A060000 		.4byte	.LASF328
 9627 31c9 0B       		.byte	0xb
 9628 31ca B2       		.byte	0xb2
 9629 31cb 25000000 		.4byte	0x25
 9630 31cf D9310000 		.4byte	0x31d9
 9631 31d3 0A       		.uleb128 0xa
 9632 31d4 CF2D0000 		.4byte	0x2dcf
 9633 31d8 00       		.byte	0
 9634 31d9 54       		.uleb128 0x54
 9635 31da 220B0000 		.4byte	.LASF329
ARM GAS  C:\Users\jo\AppData\Local\Temp\ccRMLSMa.s 			page 171


 9636 31de 10       		.byte	0x10
 9637 31df 43       		.byte	0x43
 9638 31e0 EA310000 		.4byte	0x31ea
 9639 31e4 0A       		.uleb128 0xa
 9640 31e5 EA310000 		.4byte	0x31ea
 9641 31e9 00       		.byte	0
 9642 31ea 07       		.uleb128 0x7
 9643 31eb 04       		.byte	0x4
 9644 31ec 46100000 		.4byte	0x1046
 9645 31f0 50       		.uleb128 0x50
 9646 31f1 D30C0000 		.4byte	.LASF330
 9647 31f5 10       		.byte	0x10
 9648 31f6 5B       		.byte	0x5b
 9649 31f7 25000000 		.4byte	0x25
 9650 31fb 23320000 		.4byte	0x3223
 9651 31ff 0A       		.uleb128 0xa
 9652 3200 EA310000 		.4byte	0x31ea
 9653 3204 0A       		.uleb128 0xa
 9654 3205 8E000000 		.4byte	0x8e
 9655 3209 0A       		.uleb128 0xa
 9656 320a 8E000000 		.4byte	0x8e
 9657 320e 0A       		.uleb128 0xa
 9658 320f B3000000 		.4byte	0xb3
 9659 3213 0A       		.uleb128 0xa
 9660 3214 B3000000 		.4byte	0xb3
 9661 3218 0A       		.uleb128 0xa
 9662 3219 2C000000 		.4byte	0x2c
 9663 321d 0A       		.uleb128 0xa
 9664 321e CA0D0000 		.4byte	0xdca
 9665 3222 00       		.byte	0
 9666 3223 54       		.uleb128 0x54
 9667 3224 3D140000 		.4byte	.LASF331
 9668 3228 10       		.byte	0x10
 9669 3229 65       		.byte	0x65
 9670 322a 34320000 		.4byte	0x3234
 9671 322e 0A       		.uleb128 0xa
 9672 322f EA310000 		.4byte	0x31ea
 9673 3233 00       		.byte	0
 9674 3234 56       		.uleb128 0x56
 9675 3235 FC0B0000 		.4byte	.LASF332
 9676 3239 12       		.byte	0x12
 9677 323a 21       		.byte	0x21
 9678 323b 2C000000 		.4byte	0x2c
 9679 323f 0A       		.uleb128 0xa
 9680 3240 8E000000 		.4byte	0x8e
 9681 3244 00       		.byte	0
 9682 3245 00       		.byte	0
 9683              		.section	.debug_abbrev,"",%progbits
 9684              	.Ldebug_abbrev0:
 9685 0000 01       		.uleb128 0x1
 9686 0001 11       		.uleb128 0x11
 9687 0002 01       		.byte	0x1
 9688 0003 25       		.uleb128 0x25
 9689 0004 0E       		.uleb128 0xe
 9690 0005 13       		.uleb128 0x13
 9691 0006 0B       		.uleb128 0xb
 9692 0007 03       		.uleb128 0x3
ARM GAS  C:\Users\jo\AppData\Local\Temp\ccRMLSMa.s 			page 172


 9693 0008 0E       		.uleb128 0xe
 9694 0009 1B       		.uleb128 0x1b
 9695 000a 0E       		.uleb128 0xe
 9696 000b 55       		.uleb128 0x55
 9697 000c 17       		.uleb128 0x17
 9698 000d 11       		.uleb128 0x11
 9699 000e 01       		.uleb128 0x1
 9700 000f 10       		.uleb128 0x10
 9701 0010 17       		.uleb128 0x17
 9702 0011 00       		.byte	0
 9703 0012 00       		.byte	0
 9704 0013 02       		.uleb128 0x2
 9705 0014 24       		.uleb128 0x24
 9706 0015 00       		.byte	0
 9707 0016 0B       		.uleb128 0xb
 9708 0017 0B       		.uleb128 0xb
 9709 0018 3E       		.uleb128 0x3e
 9710 0019 0B       		.uleb128 0xb
 9711 001a 03       		.uleb128 0x3
 9712 001b 08       		.uleb128 0x8
 9713 001c 00       		.byte	0
 9714 001d 00       		.byte	0
 9715 001e 03       		.uleb128 0x3
 9716 001f 16       		.uleb128 0x16
 9717 0020 00       		.byte	0
 9718 0021 03       		.uleb128 0x3
 9719 0022 0E       		.uleb128 0xe
 9720 0023 3A       		.uleb128 0x3a
 9721 0024 0B       		.uleb128 0xb
 9722 0025 3B       		.uleb128 0x3b
 9723 0026 0B       		.uleb128 0xb
 9724 0027 49       		.uleb128 0x49
 9725 0028 13       		.uleb128 0x13
 9726 0029 00       		.byte	0
 9727 002a 00       		.byte	0
 9728 002b 04       		.uleb128 0x4
 9729 002c 24       		.uleb128 0x24
 9730 002d 00       		.byte	0
 9731 002e 0B       		.uleb128 0xb
 9732 002f 0B       		.uleb128 0xb
 9733 0030 3E       		.uleb128 0x3e
 9734 0031 0B       		.uleb128 0xb
 9735 0032 03       		.uleb128 0x3
 9736 0033 0E       		.uleb128 0xe
 9737 0034 00       		.byte	0
 9738 0035 00       		.byte	0
 9739 0036 05       		.uleb128 0x5
 9740 0037 04       		.uleb128 0x4
 9741 0038 01       		.byte	0x1
 9742 0039 0B       		.uleb128 0xb
 9743 003a 0B       		.uleb128 0xb
 9744 003b 3A       		.uleb128 0x3a
 9745 003c 0B       		.uleb128 0xb
 9746 003d 3B       		.uleb128 0x3b
 9747 003e 0B       		.uleb128 0xb
 9748 003f 01       		.uleb128 0x1
 9749 0040 13       		.uleb128 0x13
ARM GAS  C:\Users\jo\AppData\Local\Temp\ccRMLSMa.s 			page 173


 9750 0041 00       		.byte	0
 9751 0042 00       		.byte	0
 9752 0043 06       		.uleb128 0x6
 9753 0044 28       		.uleb128 0x28
 9754 0045 00       		.byte	0
 9755 0046 03       		.uleb128 0x3
 9756 0047 0E       		.uleb128 0xe
 9757 0048 1C       		.uleb128 0x1c
 9758 0049 0D       		.uleb128 0xd
 9759 004a 00       		.byte	0
 9760 004b 00       		.byte	0
 9761 004c 07       		.uleb128 0x7
 9762 004d 0F       		.uleb128 0xf
 9763 004e 00       		.byte	0
 9764 004f 0B       		.uleb128 0xb
 9765 0050 0B       		.uleb128 0xb
 9766 0051 49       		.uleb128 0x49
 9767 0052 13       		.uleb128 0x13
 9768 0053 00       		.byte	0
 9769 0054 00       		.byte	0
 9770 0055 08       		.uleb128 0x8
 9771 0056 26       		.uleb128 0x26
 9772 0057 00       		.byte	0
 9773 0058 49       		.uleb128 0x49
 9774 0059 13       		.uleb128 0x13
 9775 005a 00       		.byte	0
 9776 005b 00       		.byte	0
 9777 005c 09       		.uleb128 0x9
 9778 005d 15       		.uleb128 0x15
 9779 005e 01       		.byte	0x1
 9780 005f 27       		.uleb128 0x27
 9781 0060 19       		.uleb128 0x19
 9782 0061 01       		.uleb128 0x1
 9783 0062 13       		.uleb128 0x13
 9784 0063 00       		.byte	0
 9785 0064 00       		.byte	0
 9786 0065 0A       		.uleb128 0xa
 9787 0066 05       		.uleb128 0x5
 9788 0067 00       		.byte	0
 9789 0068 49       		.uleb128 0x49
 9790 0069 13       		.uleb128 0x13
 9791 006a 00       		.byte	0
 9792 006b 00       		.byte	0
 9793 006c 0B       		.uleb128 0xb
 9794 006d 0F       		.uleb128 0xf
 9795 006e 00       		.byte	0
 9796 006f 0B       		.uleb128 0xb
 9797 0070 0B       		.uleb128 0xb
 9798 0071 00       		.byte	0
 9799 0072 00       		.byte	0
 9800 0073 0C       		.uleb128 0xc
 9801 0074 15       		.uleb128 0x15
 9802 0075 00       		.byte	0
 9803 0076 27       		.uleb128 0x27
 9804 0077 19       		.uleb128 0x19
 9805 0078 49       		.uleb128 0x49
 9806 0079 13       		.uleb128 0x13
ARM GAS  C:\Users\jo\AppData\Local\Temp\ccRMLSMa.s 			page 174


 9807 007a 00       		.byte	0
 9808 007b 00       		.byte	0
 9809 007c 0D       		.uleb128 0xd
 9810 007d 16       		.uleb128 0x16
 9811 007e 00       		.byte	0
 9812 007f 03       		.uleb128 0x3
 9813 0080 0E       		.uleb128 0xe
 9814 0081 3A       		.uleb128 0x3a
 9815 0082 0B       		.uleb128 0xb
 9816 0083 3B       		.uleb128 0x3b
 9817 0084 05       		.uleb128 0x5
 9818 0085 49       		.uleb128 0x49
 9819 0086 13       		.uleb128 0x13
 9820 0087 00       		.byte	0
 9821 0088 00       		.byte	0
 9822 0089 0E       		.uleb128 0xe
 9823 008a 17       		.uleb128 0x17
 9824 008b 01       		.byte	0x1
 9825 008c 0B       		.uleb128 0xb
 9826 008d 0B       		.uleb128 0xb
 9827 008e 3A       		.uleb128 0x3a
 9828 008f 0B       		.uleb128 0xb
 9829 0090 3B       		.uleb128 0x3b
 9830 0091 0B       		.uleb128 0xb
 9831 0092 01       		.uleb128 0x1
 9832 0093 13       		.uleb128 0x13
 9833 0094 00       		.byte	0
 9834 0095 00       		.byte	0
 9835 0096 0F       		.uleb128 0xf
 9836 0097 0D       		.uleb128 0xd
 9837 0098 00       		.byte	0
 9838 0099 03       		.uleb128 0x3
 9839 009a 0E       		.uleb128 0xe
 9840 009b 3A       		.uleb128 0x3a
 9841 009c 0B       		.uleb128 0xb
 9842 009d 3B       		.uleb128 0x3b
 9843 009e 0B       		.uleb128 0xb
 9844 009f 49       		.uleb128 0x49
 9845 00a0 13       		.uleb128 0x13
 9846 00a1 00       		.byte	0
 9847 00a2 00       		.byte	0
 9848 00a3 10       		.uleb128 0x10
 9849 00a4 01       		.uleb128 0x1
 9850 00a5 01       		.byte	0x1
 9851 00a6 49       		.uleb128 0x49
 9852 00a7 13       		.uleb128 0x13
 9853 00a8 01       		.uleb128 0x1
 9854 00a9 13       		.uleb128 0x13
 9855 00aa 00       		.byte	0
 9856 00ab 00       		.byte	0
 9857 00ac 11       		.uleb128 0x11
 9858 00ad 21       		.uleb128 0x21
 9859 00ae 00       		.byte	0
 9860 00af 49       		.uleb128 0x49
 9861 00b0 13       		.uleb128 0x13
 9862 00b1 2F       		.uleb128 0x2f
 9863 00b2 0B       		.uleb128 0xb
ARM GAS  C:\Users\jo\AppData\Local\Temp\ccRMLSMa.s 			page 175


 9864 00b3 00       		.byte	0
 9865 00b4 00       		.byte	0
 9866 00b5 12       		.uleb128 0x12
 9867 00b6 13       		.uleb128 0x13
 9868 00b7 01       		.byte	0x1
 9869 00b8 0B       		.uleb128 0xb
 9870 00b9 0B       		.uleb128 0xb
 9871 00ba 3A       		.uleb128 0x3a
 9872 00bb 0B       		.uleb128 0xb
 9873 00bc 3B       		.uleb128 0x3b
 9874 00bd 0B       		.uleb128 0xb
 9875 00be 01       		.uleb128 0x1
 9876 00bf 13       		.uleb128 0x13
 9877 00c0 00       		.byte	0
 9878 00c1 00       		.byte	0
 9879 00c2 13       		.uleb128 0x13
 9880 00c3 0D       		.uleb128 0xd
 9881 00c4 00       		.byte	0
 9882 00c5 03       		.uleb128 0x3
 9883 00c6 0E       		.uleb128 0xe
 9884 00c7 3A       		.uleb128 0x3a
 9885 00c8 0B       		.uleb128 0xb
 9886 00c9 3B       		.uleb128 0x3b
 9887 00ca 0B       		.uleb128 0xb
 9888 00cb 49       		.uleb128 0x49
 9889 00cc 13       		.uleb128 0x13
 9890 00cd 38       		.uleb128 0x38
 9891 00ce 0B       		.uleb128 0xb
 9892 00cf 00       		.byte	0
 9893 00d0 00       		.byte	0
 9894 00d1 14       		.uleb128 0x14
 9895 00d2 13       		.uleb128 0x13
 9896 00d3 01       		.byte	0x1
 9897 00d4 03       		.uleb128 0x3
 9898 00d5 0E       		.uleb128 0xe
 9899 00d6 0B       		.uleb128 0xb
 9900 00d7 0B       		.uleb128 0xb
 9901 00d8 3A       		.uleb128 0x3a
 9902 00d9 0B       		.uleb128 0xb
 9903 00da 3B       		.uleb128 0x3b
 9904 00db 0B       		.uleb128 0xb
 9905 00dc 01       		.uleb128 0x1
 9906 00dd 13       		.uleb128 0x13
 9907 00de 00       		.byte	0
 9908 00df 00       		.byte	0
 9909 00e0 15       		.uleb128 0x15
 9910 00e1 0D       		.uleb128 0xd
 9911 00e2 00       		.byte	0
 9912 00e3 03       		.uleb128 0x3
 9913 00e4 08       		.uleb128 0x8
 9914 00e5 3A       		.uleb128 0x3a
 9915 00e6 0B       		.uleb128 0xb
 9916 00e7 3B       		.uleb128 0x3b
 9917 00e8 0B       		.uleb128 0xb
 9918 00e9 49       		.uleb128 0x49
 9919 00ea 13       		.uleb128 0x13
 9920 00eb 38       		.uleb128 0x38
ARM GAS  C:\Users\jo\AppData\Local\Temp\ccRMLSMa.s 			page 176


 9921 00ec 0B       		.uleb128 0xb
 9922 00ed 00       		.byte	0
 9923 00ee 00       		.byte	0
 9924 00ef 16       		.uleb128 0x16
 9925 00f0 13       		.uleb128 0x13
 9926 00f1 01       		.byte	0x1
 9927 00f2 03       		.uleb128 0x3
 9928 00f3 0E       		.uleb128 0xe
 9929 00f4 0B       		.uleb128 0xb
 9930 00f5 05       		.uleb128 0x5
 9931 00f6 3A       		.uleb128 0x3a
 9932 00f7 0B       		.uleb128 0xb
 9933 00f8 3B       		.uleb128 0x3b
 9934 00f9 0B       		.uleb128 0xb
 9935 00fa 01       		.uleb128 0x1
 9936 00fb 13       		.uleb128 0x13
 9937 00fc 00       		.byte	0
 9938 00fd 00       		.byte	0
 9939 00fe 17       		.uleb128 0x17
 9940 00ff 0D       		.uleb128 0xd
 9941 0100 00       		.byte	0
 9942 0101 03       		.uleb128 0x3
 9943 0102 0E       		.uleb128 0xe
 9944 0103 3A       		.uleb128 0x3a
 9945 0104 0B       		.uleb128 0xb
 9946 0105 3B       		.uleb128 0x3b
 9947 0106 0B       		.uleb128 0xb
 9948 0107 49       		.uleb128 0x49
 9949 0108 13       		.uleb128 0x13
 9950 0109 38       		.uleb128 0x38
 9951 010a 05       		.uleb128 0x5
 9952 010b 00       		.byte	0
 9953 010c 00       		.byte	0
 9954 010d 18       		.uleb128 0x18
 9955 010e 15       		.uleb128 0x15
 9956 010f 00       		.byte	0
 9957 0110 27       		.uleb128 0x27
 9958 0111 19       		.uleb128 0x19
 9959 0112 00       		.byte	0
 9960 0113 00       		.byte	0
 9961 0114 19       		.uleb128 0x19
 9962 0115 15       		.uleb128 0x15
 9963 0116 01       		.byte	0x1
 9964 0117 27       		.uleb128 0x27
 9965 0118 19       		.uleb128 0x19
 9966 0119 49       		.uleb128 0x49
 9967 011a 13       		.uleb128 0x13
 9968 011b 01       		.uleb128 0x1
 9969 011c 13       		.uleb128 0x13
 9970 011d 00       		.byte	0
 9971 011e 00       		.byte	0
 9972 011f 1A       		.uleb128 0x1a
 9973 0120 13       		.uleb128 0x13
 9974 0121 01       		.byte	0x1
 9975 0122 03       		.uleb128 0x3
 9976 0123 0E       		.uleb128 0xe
 9977 0124 0B       		.uleb128 0xb
ARM GAS  C:\Users\jo\AppData\Local\Temp\ccRMLSMa.s 			page 177


 9978 0125 05       		.uleb128 0x5
 9979 0126 3A       		.uleb128 0x3a
 9980 0127 0B       		.uleb128 0xb
 9981 0128 3B       		.uleb128 0x3b
 9982 0129 05       		.uleb128 0x5
 9983 012a 01       		.uleb128 0x1
 9984 012b 13       		.uleb128 0x13
 9985 012c 00       		.byte	0
 9986 012d 00       		.byte	0
 9987 012e 1B       		.uleb128 0x1b
 9988 012f 0D       		.uleb128 0xd
 9989 0130 00       		.byte	0
 9990 0131 03       		.uleb128 0x3
 9991 0132 0E       		.uleb128 0xe
 9992 0133 3A       		.uleb128 0x3a
 9993 0134 0B       		.uleb128 0xb
 9994 0135 3B       		.uleb128 0x3b
 9995 0136 05       		.uleb128 0x5
 9996 0137 49       		.uleb128 0x49
 9997 0138 13       		.uleb128 0x13
 9998 0139 38       		.uleb128 0x38
 9999 013a 0B       		.uleb128 0xb
 10000 013b 00       		.byte	0
 10001 013c 00       		.byte	0
 10002 013d 1C       		.uleb128 0x1c
 10003 013e 0D       		.uleb128 0xd
 10004 013f 00       		.byte	0
 10005 0140 03       		.uleb128 0x3
 10006 0141 0E       		.uleb128 0xe
 10007 0142 3A       		.uleb128 0x3a
 10008 0143 0B       		.uleb128 0xb
 10009 0144 3B       		.uleb128 0x3b
 10010 0145 05       		.uleb128 0x5
 10011 0146 49       		.uleb128 0x49
 10012 0147 13       		.uleb128 0x13
 10013 0148 38       		.uleb128 0x38
 10014 0149 05       		.uleb128 0x5
 10015 014a 00       		.byte	0
 10016 014b 00       		.byte	0
 10017 014c 1D       		.uleb128 0x1d
 10018 014d 13       		.uleb128 0x13
 10019 014e 01       		.byte	0x1
 10020 014f 03       		.uleb128 0x3
 10021 0150 0E       		.uleb128 0xe
 10022 0151 0B       		.uleb128 0xb
 10023 0152 0B       		.uleb128 0xb
 10024 0153 3A       		.uleb128 0x3a
 10025 0154 0B       		.uleb128 0xb
 10026 0155 3B       		.uleb128 0x3b
 10027 0156 05       		.uleb128 0x5
 10028 0157 01       		.uleb128 0x1
 10029 0158 13       		.uleb128 0x13
 10030 0159 00       		.byte	0
 10031 015a 00       		.byte	0
 10032 015b 1E       		.uleb128 0x1e
 10033 015c 13       		.uleb128 0x13
 10034 015d 01       		.byte	0x1
ARM GAS  C:\Users\jo\AppData\Local\Temp\ccRMLSMa.s 			page 178


 10035 015e 0B       		.uleb128 0xb
 10036 015f 0B       		.uleb128 0xb
 10037 0160 3A       		.uleb128 0x3a
 10038 0161 0B       		.uleb128 0xb
 10039 0162 3B       		.uleb128 0x3b
 10040 0163 05       		.uleb128 0x5
 10041 0164 01       		.uleb128 0x1
 10042 0165 13       		.uleb128 0x13
 10043 0166 00       		.byte	0
 10044 0167 00       		.byte	0
 10045 0168 1F       		.uleb128 0x1f
 10046 0169 17       		.uleb128 0x17
 10047 016a 01       		.byte	0x1
 10048 016b 0B       		.uleb128 0xb
 10049 016c 0B       		.uleb128 0xb
 10050 016d 3A       		.uleb128 0x3a
 10051 016e 0B       		.uleb128 0xb
 10052 016f 3B       		.uleb128 0x3b
 10053 0170 05       		.uleb128 0x5
 10054 0171 01       		.uleb128 0x1
 10055 0172 13       		.uleb128 0x13
 10056 0173 00       		.byte	0
 10057 0174 00       		.byte	0
 10058 0175 20       		.uleb128 0x20
 10059 0176 0D       		.uleb128 0xd
 10060 0177 00       		.byte	0
 10061 0178 03       		.uleb128 0x3
 10062 0179 0E       		.uleb128 0xe
 10063 017a 3A       		.uleb128 0x3a
 10064 017b 0B       		.uleb128 0xb
 10065 017c 3B       		.uleb128 0x3b
 10066 017d 05       		.uleb128 0x5
 10067 017e 49       		.uleb128 0x49
 10068 017f 13       		.uleb128 0x13
 10069 0180 00       		.byte	0
 10070 0181 00       		.byte	0
 10071 0182 21       		.uleb128 0x21
 10072 0183 16       		.uleb128 0x16
 10073 0184 00       		.byte	0
 10074 0185 03       		.uleb128 0x3
 10075 0186 08       		.uleb128 0x8
 10076 0187 3A       		.uleb128 0x3a
 10077 0188 0B       		.uleb128 0xb
 10078 0189 3B       		.uleb128 0x3b
 10079 018a 0B       		.uleb128 0xb
 10080 018b 49       		.uleb128 0x49
 10081 018c 13       		.uleb128 0x13
 10082 018d 00       		.byte	0
 10083 018e 00       		.byte	0
 10084 018f 22       		.uleb128 0x22
 10085 0190 26       		.uleb128 0x26
 10086 0191 00       		.byte	0
 10087 0192 00       		.byte	0
 10088 0193 00       		.byte	0
 10089 0194 23       		.uleb128 0x23
 10090 0195 2E       		.uleb128 0x2e
 10091 0196 01       		.byte	0x1
ARM GAS  C:\Users\jo\AppData\Local\Temp\ccRMLSMa.s 			page 179


 10092 0197 03       		.uleb128 0x3
 10093 0198 0E       		.uleb128 0xe
 10094 0199 3A       		.uleb128 0x3a
 10095 019a 0B       		.uleb128 0xb
 10096 019b 3B       		.uleb128 0x3b
 10097 019c 05       		.uleb128 0x5
 10098 019d 27       		.uleb128 0x27
 10099 019e 19       		.uleb128 0x19
 10100 019f 49       		.uleb128 0x49
 10101 01a0 13       		.uleb128 0x13
 10102 01a1 20       		.uleb128 0x20
 10103 01a2 0B       		.uleb128 0xb
 10104 01a3 01       		.uleb128 0x1
 10105 01a4 13       		.uleb128 0x13
 10106 01a5 00       		.byte	0
 10107 01a6 00       		.byte	0
 10108 01a7 24       		.uleb128 0x24
 10109 01a8 05       		.uleb128 0x5
 10110 01a9 00       		.byte	0
 10111 01aa 03       		.uleb128 0x3
 10112 01ab 08       		.uleb128 0x8
 10113 01ac 3A       		.uleb128 0x3a
 10114 01ad 0B       		.uleb128 0xb
 10115 01ae 3B       		.uleb128 0x3b
 10116 01af 05       		.uleb128 0x5
 10117 01b0 49       		.uleb128 0x49
 10118 01b1 13       		.uleb128 0x13
 10119 01b2 00       		.byte	0
 10120 01b3 00       		.byte	0
 10121 01b4 25       		.uleb128 0x25
 10122 01b5 05       		.uleb128 0x5
 10123 01b6 00       		.byte	0
 10124 01b7 03       		.uleb128 0x3
 10125 01b8 0E       		.uleb128 0xe
 10126 01b9 3A       		.uleb128 0x3a
 10127 01ba 0B       		.uleb128 0xb
 10128 01bb 3B       		.uleb128 0x3b
 10129 01bc 05       		.uleb128 0x5
 10130 01bd 49       		.uleb128 0x49
 10131 01be 13       		.uleb128 0x13
 10132 01bf 00       		.byte	0
 10133 01c0 00       		.byte	0
 10134 01c1 26       		.uleb128 0x26
 10135 01c2 34       		.uleb128 0x34
 10136 01c3 00       		.byte	0
 10137 01c4 03       		.uleb128 0x3
 10138 01c5 08       		.uleb128 0x8
 10139 01c6 3A       		.uleb128 0x3a
 10140 01c7 0B       		.uleb128 0xb
 10141 01c8 3B       		.uleb128 0x3b
 10142 01c9 05       		.uleb128 0x5
 10143 01ca 49       		.uleb128 0x49
 10144 01cb 13       		.uleb128 0x13
 10145 01cc 00       		.byte	0
 10146 01cd 00       		.byte	0
 10147 01ce 27       		.uleb128 0x27
 10148 01cf 34       		.uleb128 0x34
ARM GAS  C:\Users\jo\AppData\Local\Temp\ccRMLSMa.s 			page 180


 10149 01d0 00       		.byte	0
 10150 01d1 03       		.uleb128 0x3
 10151 01d2 0E       		.uleb128 0xe
 10152 01d3 3A       		.uleb128 0x3a
 10153 01d4 0B       		.uleb128 0xb
 10154 01d5 3B       		.uleb128 0x3b
 10155 01d6 05       		.uleb128 0x5
 10156 01d7 49       		.uleb128 0x49
 10157 01d8 13       		.uleb128 0x13
 10158 01d9 00       		.byte	0
 10159 01da 00       		.byte	0
 10160 01db 28       		.uleb128 0x28
 10161 01dc 2E       		.uleb128 0x2e
 10162 01dd 01       		.byte	0x1
 10163 01de 03       		.uleb128 0x3
 10164 01df 0E       		.uleb128 0xe
 10165 01e0 3A       		.uleb128 0x3a
 10166 01e1 0B       		.uleb128 0xb
 10167 01e2 3B       		.uleb128 0x3b
 10168 01e3 0B       		.uleb128 0xb
 10169 01e4 27       		.uleb128 0x27
 10170 01e5 19       		.uleb128 0x19
 10171 01e6 49       		.uleb128 0x49
 10172 01e7 13       		.uleb128 0x13
 10173 01e8 20       		.uleb128 0x20
 10174 01e9 0B       		.uleb128 0xb
 10175 01ea 01       		.uleb128 0x1
 10176 01eb 13       		.uleb128 0x13
 10177 01ec 00       		.byte	0
 10178 01ed 00       		.byte	0
 10179 01ee 29       		.uleb128 0x29
 10180 01ef 05       		.uleb128 0x5
 10181 01f0 00       		.byte	0
 10182 01f1 03       		.uleb128 0x3
 10183 01f2 0E       		.uleb128 0xe
 10184 01f3 3A       		.uleb128 0x3a
 10185 01f4 0B       		.uleb128 0xb
 10186 01f5 3B       		.uleb128 0x3b
 10187 01f6 0B       		.uleb128 0xb
 10188 01f7 49       		.uleb128 0x49
 10189 01f8 13       		.uleb128 0x13
 10190 01f9 00       		.byte	0
 10191 01fa 00       		.byte	0
 10192 01fb 2A       		.uleb128 0x2a
 10193 01fc 05       		.uleb128 0x5
 10194 01fd 00       		.byte	0
 10195 01fe 03       		.uleb128 0x3
 10196 01ff 08       		.uleb128 0x8
 10197 0200 3A       		.uleb128 0x3a
 10198 0201 0B       		.uleb128 0xb
 10199 0202 3B       		.uleb128 0x3b
 10200 0203 0B       		.uleb128 0xb
 10201 0204 49       		.uleb128 0x49
 10202 0205 13       		.uleb128 0x13
 10203 0206 00       		.byte	0
 10204 0207 00       		.byte	0
 10205 0208 2B       		.uleb128 0x2b
ARM GAS  C:\Users\jo\AppData\Local\Temp\ccRMLSMa.s 			page 181


 10206 0209 34       		.uleb128 0x34
 10207 020a 00       		.byte	0
 10208 020b 03       		.uleb128 0x3
 10209 020c 08       		.uleb128 0x8
 10210 020d 3A       		.uleb128 0x3a
 10211 020e 0B       		.uleb128 0xb
 10212 020f 3B       		.uleb128 0x3b
 10213 0210 0B       		.uleb128 0xb
 10214 0211 49       		.uleb128 0x49
 10215 0212 13       		.uleb128 0x13
 10216 0213 00       		.byte	0
 10217 0214 00       		.byte	0
 10218 0215 2C       		.uleb128 0x2c
 10219 0216 34       		.uleb128 0x34
 10220 0217 00       		.byte	0
 10221 0218 03       		.uleb128 0x3
 10222 0219 0E       		.uleb128 0xe
 10223 021a 3A       		.uleb128 0x3a
 10224 021b 0B       		.uleb128 0xb
 10225 021c 3B       		.uleb128 0x3b
 10226 021d 0B       		.uleb128 0xb
 10227 021e 49       		.uleb128 0x49
 10228 021f 13       		.uleb128 0x13
 10229 0220 00       		.byte	0
 10230 0221 00       		.byte	0
 10231 0222 2D       		.uleb128 0x2d
 10232 0223 2E       		.uleb128 0x2e
 10233 0224 01       		.byte	0x1
 10234 0225 03       		.uleb128 0x3
 10235 0226 0E       		.uleb128 0xe
 10236 0227 3A       		.uleb128 0x3a
 10237 0228 0B       		.uleb128 0xb
 10238 0229 3B       		.uleb128 0x3b
 10239 022a 0B       		.uleb128 0xb
 10240 022b 27       		.uleb128 0x27
 10241 022c 19       		.uleb128 0x19
 10242 022d 20       		.uleb128 0x20
 10243 022e 0B       		.uleb128 0xb
 10244 022f 01       		.uleb128 0x1
 10245 0230 13       		.uleb128 0x13
 10246 0231 00       		.byte	0
 10247 0232 00       		.byte	0
 10248 0233 2E       		.uleb128 0x2e
 10249 0234 35       		.uleb128 0x35
 10250 0235 00       		.byte	0
 10251 0236 49       		.uleb128 0x49
 10252 0237 13       		.uleb128 0x13
 10253 0238 00       		.byte	0
 10254 0239 00       		.byte	0
 10255 023a 2F       		.uleb128 0x2f
 10256 023b 2E       		.uleb128 0x2e
 10257 023c 01       		.byte	0x1
 10258 023d 03       		.uleb128 0x3
 10259 023e 0E       		.uleb128 0xe
 10260 023f 3A       		.uleb128 0x3a
 10261 0240 0B       		.uleb128 0xb
 10262 0241 3B       		.uleb128 0x3b
ARM GAS  C:\Users\jo\AppData\Local\Temp\ccRMLSMa.s 			page 182


 10263 0242 05       		.uleb128 0x5
 10264 0243 27       		.uleb128 0x27
 10265 0244 19       		.uleb128 0x19
 10266 0245 49       		.uleb128 0x49
 10267 0246 13       		.uleb128 0x13
 10268 0247 11       		.uleb128 0x11
 10269 0248 01       		.uleb128 0x1
 10270 0249 12       		.uleb128 0x12
 10271 024a 06       		.uleb128 0x6
 10272 024b 40       		.uleb128 0x40
 10273 024c 18       		.uleb128 0x18
 10274 024d 9742     		.uleb128 0x2117
 10275 024f 19       		.uleb128 0x19
 10276 0250 01       		.uleb128 0x1
 10277 0251 13       		.uleb128 0x13
 10278 0252 00       		.byte	0
 10279 0253 00       		.byte	0
 10280 0254 30       		.uleb128 0x30
 10281 0255 05       		.uleb128 0x5
 10282 0256 00       		.byte	0
 10283 0257 03       		.uleb128 0x3
 10284 0258 08       		.uleb128 0x8
 10285 0259 3A       		.uleb128 0x3a
 10286 025a 0B       		.uleb128 0xb
 10287 025b 3B       		.uleb128 0x3b
 10288 025c 05       		.uleb128 0x5
 10289 025d 49       		.uleb128 0x49
 10290 025e 13       		.uleb128 0x13
 10291 025f 02       		.uleb128 0x2
 10292 0260 17       		.uleb128 0x17
 10293 0261 00       		.byte	0
 10294 0262 00       		.byte	0
 10295 0263 31       		.uleb128 0x31
 10296 0264 05       		.uleb128 0x5
 10297 0265 00       		.byte	0
 10298 0266 03       		.uleb128 0x3
 10299 0267 0E       		.uleb128 0xe
 10300 0268 3A       		.uleb128 0x3a
 10301 0269 0B       		.uleb128 0xb
 10302 026a 3B       		.uleb128 0x3b
 10303 026b 05       		.uleb128 0x5
 10304 026c 49       		.uleb128 0x49
 10305 026d 13       		.uleb128 0x13
 10306 026e 02       		.uleb128 0x2
 10307 026f 17       		.uleb128 0x17
 10308 0270 00       		.byte	0
 10309 0271 00       		.byte	0
 10310 0272 32       		.uleb128 0x32
 10311 0273 34       		.uleb128 0x34
 10312 0274 00       		.byte	0
 10313 0275 03       		.uleb128 0x3
 10314 0276 08       		.uleb128 0x8
 10315 0277 3A       		.uleb128 0x3a
 10316 0278 0B       		.uleb128 0xb
 10317 0279 3B       		.uleb128 0x3b
 10318 027a 05       		.uleb128 0x5
 10319 027b 49       		.uleb128 0x49
ARM GAS  C:\Users\jo\AppData\Local\Temp\ccRMLSMa.s 			page 183


 10320 027c 13       		.uleb128 0x13
 10321 027d 02       		.uleb128 0x2
 10322 027e 17       		.uleb128 0x17
 10323 027f 00       		.byte	0
 10324 0280 00       		.byte	0
 10325 0281 33       		.uleb128 0x33
 10326 0282 34       		.uleb128 0x34
 10327 0283 00       		.byte	0
 10328 0284 03       		.uleb128 0x3
 10329 0285 08       		.uleb128 0x8
 10330 0286 3A       		.uleb128 0x3a
 10331 0287 0B       		.uleb128 0xb
 10332 0288 3B       		.uleb128 0x3b
 10333 0289 05       		.uleb128 0x5
 10334 028a 49       		.uleb128 0x49
 10335 028b 13       		.uleb128 0x13
 10336 028c 02       		.uleb128 0x2
 10337 028d 18       		.uleb128 0x18
 10338 028e 00       		.byte	0
 10339 028f 00       		.byte	0
 10340 0290 34       		.uleb128 0x34
 10341 0291 898201   		.uleb128 0x4109
 10342 0294 01       		.byte	0x1
 10343 0295 11       		.uleb128 0x11
 10344 0296 01       		.uleb128 0x1
 10345 0297 31       		.uleb128 0x31
 10346 0298 13       		.uleb128 0x13
 10347 0299 01       		.uleb128 0x1
 10348 029a 13       		.uleb128 0x13
 10349 029b 00       		.byte	0
 10350 029c 00       		.byte	0
 10351 029d 35       		.uleb128 0x35
 10352 029e 8A8201   		.uleb128 0x410a
 10353 02a1 00       		.byte	0
 10354 02a2 02       		.uleb128 0x2
 10355 02a3 18       		.uleb128 0x18
 10356 02a4 9142     		.uleb128 0x2111
 10357 02a6 18       		.uleb128 0x18
 10358 02a7 00       		.byte	0
 10359 02a8 00       		.byte	0
 10360 02a9 36       		.uleb128 0x36
 10361 02aa 898201   		.uleb128 0x4109
 10362 02ad 00       		.byte	0
 10363 02ae 11       		.uleb128 0x11
 10364 02af 01       		.uleb128 0x1
 10365 02b0 31       		.uleb128 0x31
 10366 02b1 13       		.uleb128 0x13
 10367 02b2 00       		.byte	0
 10368 02b3 00       		.byte	0
 10369 02b4 37       		.uleb128 0x37
 10370 02b5 2E       		.uleb128 0x2e
 10371 02b6 01       		.byte	0x1
 10372 02b7 31       		.uleb128 0x31
 10373 02b8 13       		.uleb128 0x13
 10374 02b9 11       		.uleb128 0x11
 10375 02ba 01       		.uleb128 0x1
 10376 02bb 12       		.uleb128 0x12
ARM GAS  C:\Users\jo\AppData\Local\Temp\ccRMLSMa.s 			page 184


 10377 02bc 06       		.uleb128 0x6
 10378 02bd 40       		.uleb128 0x40
 10379 02be 18       		.uleb128 0x18
 10380 02bf 9742     		.uleb128 0x2117
 10381 02c1 19       		.uleb128 0x19
 10382 02c2 01       		.uleb128 0x1
 10383 02c3 13       		.uleb128 0x13
 10384 02c4 00       		.byte	0
 10385 02c5 00       		.byte	0
 10386 02c6 38       		.uleb128 0x38
 10387 02c7 05       		.uleb128 0x5
 10388 02c8 00       		.byte	0
 10389 02c9 31       		.uleb128 0x31
 10390 02ca 13       		.uleb128 0x13
 10391 02cb 02       		.uleb128 0x2
 10392 02cc 17       		.uleb128 0x17
 10393 02cd 00       		.byte	0
 10394 02ce 00       		.byte	0
 10395 02cf 39       		.uleb128 0x39
 10396 02d0 34       		.uleb128 0x34
 10397 02d1 00       		.byte	0
 10398 02d2 31       		.uleb128 0x31
 10399 02d3 13       		.uleb128 0x13
 10400 02d4 02       		.uleb128 0x2
 10401 02d5 17       		.uleb128 0x17
 10402 02d6 00       		.byte	0
 10403 02d7 00       		.byte	0
 10404 02d8 3A       		.uleb128 0x3a
 10405 02d9 34       		.uleb128 0x34
 10406 02da 00       		.byte	0
 10407 02db 31       		.uleb128 0x31
 10408 02dc 13       		.uleb128 0x13
 10409 02dd 02       		.uleb128 0x2
 10410 02de 18       		.uleb128 0x18
 10411 02df 00       		.byte	0
 10412 02e0 00       		.byte	0
 10413 02e1 3B       		.uleb128 0x3b
 10414 02e2 0B       		.uleb128 0xb
 10415 02e3 01       		.byte	0x1
 10416 02e4 55       		.uleb128 0x55
 10417 02e5 17       		.uleb128 0x17
 10418 02e6 01       		.uleb128 0x1
 10419 02e7 13       		.uleb128 0x13
 10420 02e8 00       		.byte	0
 10421 02e9 00       		.byte	0
 10422 02ea 3C       		.uleb128 0x3c
 10423 02eb 0B       		.uleb128 0xb
 10424 02ec 01       		.byte	0x1
 10425 02ed 55       		.uleb128 0x55
 10426 02ee 17       		.uleb128 0x17
 10427 02ef 00       		.byte	0
 10428 02f0 00       		.byte	0
 10429 02f1 3D       		.uleb128 0x3d
 10430 02f2 34       		.uleb128 0x34
 10431 02f3 00       		.byte	0
 10432 02f4 31       		.uleb128 0x31
 10433 02f5 13       		.uleb128 0x13
ARM GAS  C:\Users\jo\AppData\Local\Temp\ccRMLSMa.s 			page 185


 10434 02f6 00       		.byte	0
 10435 02f7 00       		.byte	0
 10436 02f8 3E       		.uleb128 0x3e
 10437 02f9 898201   		.uleb128 0x4109
 10438 02fc 01       		.byte	0x1
 10439 02fd 11       		.uleb128 0x11
 10440 02fe 01       		.uleb128 0x1
 10441 02ff 31       		.uleb128 0x31
 10442 0300 13       		.uleb128 0x13
 10443 0301 00       		.byte	0
 10444 0302 00       		.byte	0
 10445 0303 3F       		.uleb128 0x3f
 10446 0304 0A       		.uleb128 0xa
 10447 0305 00       		.byte	0
 10448 0306 03       		.uleb128 0x3
 10449 0307 0E       		.uleb128 0xe
 10450 0308 3A       		.uleb128 0x3a
 10451 0309 0B       		.uleb128 0xb
 10452 030a 3B       		.uleb128 0x3b
 10453 030b 05       		.uleb128 0x5
 10454 030c 00       		.byte	0
 10455 030d 00       		.byte	0
 10456 030e 40       		.uleb128 0x40
 10457 030f 34       		.uleb128 0x34
 10458 0310 00       		.byte	0
 10459 0311 03       		.uleb128 0x3
 10460 0312 0E       		.uleb128 0xe
 10461 0313 3A       		.uleb128 0x3a
 10462 0314 0B       		.uleb128 0xb
 10463 0315 3B       		.uleb128 0x3b
 10464 0316 05       		.uleb128 0x5
 10465 0317 49       		.uleb128 0x49
 10466 0318 13       		.uleb128 0x13
 10467 0319 02       		.uleb128 0x2
 10468 031a 18       		.uleb128 0x18
 10469 031b 00       		.byte	0
 10470 031c 00       		.byte	0
 10471 031d 41       		.uleb128 0x41
 10472 031e 1D       		.uleb128 0x1d
 10473 031f 01       		.byte	0x1
 10474 0320 31       		.uleb128 0x31
 10475 0321 13       		.uleb128 0x13
 10476 0322 52       		.uleb128 0x52
 10477 0323 01       		.uleb128 0x1
 10478 0324 55       		.uleb128 0x55
 10479 0325 17       		.uleb128 0x17
 10480 0326 58       		.uleb128 0x58
 10481 0327 0B       		.uleb128 0xb
 10482 0328 59       		.uleb128 0x59
 10483 0329 05       		.uleb128 0x5
 10484 032a 01       		.uleb128 0x1
 10485 032b 13       		.uleb128 0x13
 10486 032c 00       		.byte	0
 10487 032d 00       		.byte	0
 10488 032e 42       		.uleb128 0x42
 10489 032f 0A       		.uleb128 0xa
 10490 0330 00       		.byte	0
ARM GAS  C:\Users\jo\AppData\Local\Temp\ccRMLSMa.s 			page 186


 10491 0331 31       		.uleb128 0x31
 10492 0332 13       		.uleb128 0x13
 10493 0333 00       		.byte	0
 10494 0334 00       		.byte	0
 10495 0335 43       		.uleb128 0x43
 10496 0336 05       		.uleb128 0x5
 10497 0337 00       		.byte	0
 10498 0338 31       		.uleb128 0x31
 10499 0339 13       		.uleb128 0x13
 10500 033a 00       		.byte	0
 10501 033b 00       		.byte	0
 10502 033c 44       		.uleb128 0x44
 10503 033d 34       		.uleb128 0x34
 10504 033e 00       		.byte	0
 10505 033f 03       		.uleb128 0x3
 10506 0340 0E       		.uleb128 0xe
 10507 0341 3A       		.uleb128 0x3a
 10508 0342 0B       		.uleb128 0xb
 10509 0343 3B       		.uleb128 0x3b
 10510 0344 05       		.uleb128 0x5
 10511 0345 49       		.uleb128 0x49
 10512 0346 13       		.uleb128 0x13
 10513 0347 02       		.uleb128 0x2
 10514 0348 17       		.uleb128 0x17
 10515 0349 00       		.byte	0
 10516 034a 00       		.byte	0
 10517 034b 45       		.uleb128 0x45
 10518 034c 21       		.uleb128 0x21
 10519 034d 00       		.byte	0
 10520 034e 49       		.uleb128 0x49
 10521 034f 13       		.uleb128 0x13
 10522 0350 2F       		.uleb128 0x2f
 10523 0351 05       		.uleb128 0x5
 10524 0352 00       		.byte	0
 10525 0353 00       		.byte	0
 10526 0354 46       		.uleb128 0x46
 10527 0355 2E       		.uleb128 0x2e
 10528 0356 01       		.byte	0x1
 10529 0357 3F       		.uleb128 0x3f
 10530 0358 19       		.uleb128 0x19
 10531 0359 03       		.uleb128 0x3
 10532 035a 0E       		.uleb128 0xe
 10533 035b 3A       		.uleb128 0x3a
 10534 035c 0B       		.uleb128 0xb
 10535 035d 3B       		.uleb128 0x3b
 10536 035e 0B       		.uleb128 0xb
 10537 035f 27       		.uleb128 0x27
 10538 0360 19       		.uleb128 0x19
 10539 0361 49       		.uleb128 0x49
 10540 0362 13       		.uleb128 0x13
 10541 0363 11       		.uleb128 0x11
 10542 0364 01       		.uleb128 0x1
 10543 0365 12       		.uleb128 0x12
 10544 0366 06       		.uleb128 0x6
 10545 0367 40       		.uleb128 0x40
 10546 0368 18       		.uleb128 0x18
 10547 0369 9742     		.uleb128 0x2117
ARM GAS  C:\Users\jo\AppData\Local\Temp\ccRMLSMa.s 			page 187


 10548 036b 19       		.uleb128 0x19
 10549 036c 01       		.uleb128 0x1
 10550 036d 13       		.uleb128 0x13
 10551 036e 00       		.byte	0
 10552 036f 00       		.byte	0
 10553 0370 47       		.uleb128 0x47
 10554 0371 05       		.uleb128 0x5
 10555 0372 00       		.byte	0
 10556 0373 03       		.uleb128 0x3
 10557 0374 0E       		.uleb128 0xe
 10558 0375 3A       		.uleb128 0x3a
 10559 0376 0B       		.uleb128 0xb
 10560 0377 3B       		.uleb128 0x3b
 10561 0378 0B       		.uleb128 0xb
 10562 0379 49       		.uleb128 0x49
 10563 037a 13       		.uleb128 0x13
 10564 037b 02       		.uleb128 0x2
 10565 037c 17       		.uleb128 0x17
 10566 037d 00       		.byte	0
 10567 037e 00       		.byte	0
 10568 037f 48       		.uleb128 0x48
 10569 0380 05       		.uleb128 0x5
 10570 0381 00       		.byte	0
 10571 0382 03       		.uleb128 0x3
 10572 0383 08       		.uleb128 0x8
 10573 0384 3A       		.uleb128 0x3a
 10574 0385 0B       		.uleb128 0xb
 10575 0386 3B       		.uleb128 0x3b
 10576 0387 0B       		.uleb128 0xb
 10577 0388 49       		.uleb128 0x49
 10578 0389 13       		.uleb128 0x13
 10579 038a 02       		.uleb128 0x2
 10580 038b 17       		.uleb128 0x17
 10581 038c 00       		.byte	0
 10582 038d 00       		.byte	0
 10583 038e 49       		.uleb128 0x49
 10584 038f 34       		.uleb128 0x34
 10585 0390 00       		.byte	0
 10586 0391 03       		.uleb128 0x3
 10587 0392 08       		.uleb128 0x8
 10588 0393 3A       		.uleb128 0x3a
 10589 0394 0B       		.uleb128 0xb
 10590 0395 3B       		.uleb128 0x3b
 10591 0396 0B       		.uleb128 0xb
 10592 0397 49       		.uleb128 0x49
 10593 0398 13       		.uleb128 0x13
 10594 0399 02       		.uleb128 0x2
 10595 039a 17       		.uleb128 0x17
 10596 039b 00       		.byte	0
 10597 039c 00       		.byte	0
 10598 039d 4A       		.uleb128 0x4a
 10599 039e 34       		.uleb128 0x34
 10600 039f 00       		.byte	0
 10601 03a0 03       		.uleb128 0x3
 10602 03a1 0E       		.uleb128 0xe
 10603 03a2 3A       		.uleb128 0x3a
 10604 03a3 0B       		.uleb128 0xb
ARM GAS  C:\Users\jo\AppData\Local\Temp\ccRMLSMa.s 			page 188


 10605 03a4 3B       		.uleb128 0x3b
 10606 03a5 0B       		.uleb128 0xb
 10607 03a6 49       		.uleb128 0x49
 10608 03a7 13       		.uleb128 0x13
 10609 03a8 02       		.uleb128 0x2
 10610 03a9 17       		.uleb128 0x17
 10611 03aa 00       		.byte	0
 10612 03ab 00       		.byte	0
 10613 03ac 4B       		.uleb128 0x4b
 10614 03ad 2E       		.uleb128 0x2e
 10615 03ae 01       		.byte	0x1
 10616 03af 3F       		.uleb128 0x3f
 10617 03b0 19       		.uleb128 0x19
 10618 03b1 03       		.uleb128 0x3
 10619 03b2 0E       		.uleb128 0xe
 10620 03b3 3A       		.uleb128 0x3a
 10621 03b4 0B       		.uleb128 0xb
 10622 03b5 3B       		.uleb128 0x3b
 10623 03b6 05       		.uleb128 0x5
 10624 03b7 27       		.uleb128 0x27
 10625 03b8 19       		.uleb128 0x19
 10626 03b9 49       		.uleb128 0x49
 10627 03ba 13       		.uleb128 0x13
 10628 03bb 11       		.uleb128 0x11
 10629 03bc 01       		.uleb128 0x1
 10630 03bd 12       		.uleb128 0x12
 10631 03be 06       		.uleb128 0x6
 10632 03bf 40       		.uleb128 0x40
 10633 03c0 18       		.uleb128 0x18
 10634 03c1 9742     		.uleb128 0x2117
 10635 03c3 19       		.uleb128 0x19
 10636 03c4 01       		.uleb128 0x1
 10637 03c5 13       		.uleb128 0x13
 10638 03c6 00       		.byte	0
 10639 03c7 00       		.byte	0
 10640 03c8 4C       		.uleb128 0x4c
 10641 03c9 1D       		.uleb128 0x1d
 10642 03ca 01       		.byte	0x1
 10643 03cb 31       		.uleb128 0x31
 10644 03cc 13       		.uleb128 0x13
 10645 03cd 11       		.uleb128 0x11
 10646 03ce 01       		.uleb128 0x1
 10647 03cf 12       		.uleb128 0x12
 10648 03d0 06       		.uleb128 0x6
 10649 03d1 58       		.uleb128 0x58
 10650 03d2 0B       		.uleb128 0xb
 10651 03d3 59       		.uleb128 0x59
 10652 03d4 05       		.uleb128 0x5
 10653 03d5 01       		.uleb128 0x1
 10654 03d6 13       		.uleb128 0x13
 10655 03d7 00       		.byte	0
 10656 03d8 00       		.byte	0
 10657 03d9 4D       		.uleb128 0x4d
 10658 03da 0B       		.uleb128 0xb
 10659 03db 01       		.byte	0x1
 10660 03dc 11       		.uleb128 0x11
 10661 03dd 01       		.uleb128 0x1
ARM GAS  C:\Users\jo\AppData\Local\Temp\ccRMLSMa.s 			page 189


 10662 03de 12       		.uleb128 0x12
 10663 03df 06       		.uleb128 0x6
 10664 03e0 00       		.byte	0
 10665 03e1 00       		.byte	0
 10666 03e2 4E       		.uleb128 0x4e
 10667 03e3 34       		.uleb128 0x34
 10668 03e4 00       		.byte	0
 10669 03e5 03       		.uleb128 0x3
 10670 03e6 08       		.uleb128 0x8
 10671 03e7 3A       		.uleb128 0x3a
 10672 03e8 0B       		.uleb128 0xb
 10673 03e9 3B       		.uleb128 0x3b
 10674 03ea 0B       		.uleb128 0xb
 10675 03eb 49       		.uleb128 0x49
 10676 03ec 13       		.uleb128 0x13
 10677 03ed 02       		.uleb128 0x2
 10678 03ee 18       		.uleb128 0x18
 10679 03ef 00       		.byte	0
 10680 03f0 00       		.byte	0
 10681 03f1 4F       		.uleb128 0x4f
 10682 03f2 1D       		.uleb128 0x1d
 10683 03f3 01       		.byte	0x1
 10684 03f4 31       		.uleb128 0x31
 10685 03f5 13       		.uleb128 0x13
 10686 03f6 52       		.uleb128 0x52
 10687 03f7 01       		.uleb128 0x1
 10688 03f8 55       		.uleb128 0x55
 10689 03f9 17       		.uleb128 0x17
 10690 03fa 58       		.uleb128 0x58
 10691 03fb 0B       		.uleb128 0xb
 10692 03fc 59       		.uleb128 0x59
 10693 03fd 0B       		.uleb128 0xb
 10694 03fe 01       		.uleb128 0x1
 10695 03ff 13       		.uleb128 0x13
 10696 0400 00       		.byte	0
 10697 0401 00       		.byte	0
 10698 0402 50       		.uleb128 0x50
 10699 0403 2E       		.uleb128 0x2e
 10700 0404 01       		.byte	0x1
 10701 0405 3F       		.uleb128 0x3f
 10702 0406 19       		.uleb128 0x19
 10703 0407 03       		.uleb128 0x3
 10704 0408 0E       		.uleb128 0xe
 10705 0409 3A       		.uleb128 0x3a
 10706 040a 0B       		.uleb128 0xb
 10707 040b 3B       		.uleb128 0x3b
 10708 040c 0B       		.uleb128 0xb
 10709 040d 27       		.uleb128 0x27
 10710 040e 19       		.uleb128 0x19
 10711 040f 49       		.uleb128 0x49
 10712 0410 13       		.uleb128 0x13
 10713 0411 3C       		.uleb128 0x3c
 10714 0412 19       		.uleb128 0x19
 10715 0413 01       		.uleb128 0x1
 10716 0414 13       		.uleb128 0x13
 10717 0415 00       		.byte	0
 10718 0416 00       		.byte	0
ARM GAS  C:\Users\jo\AppData\Local\Temp\ccRMLSMa.s 			page 190


 10719 0417 51       		.uleb128 0x51
 10720 0418 2E       		.uleb128 0x2e
 10721 0419 01       		.byte	0x1
 10722 041a 3F       		.uleb128 0x3f
 10723 041b 19       		.uleb128 0x19
 10724 041c 03       		.uleb128 0x3
 10725 041d 0E       		.uleb128 0xe
 10726 041e 3A       		.uleb128 0x3a
 10727 041f 0B       		.uleb128 0xb
 10728 0420 3B       		.uleb128 0x3b
 10729 0421 05       		.uleb128 0x5
 10730 0422 27       		.uleb128 0x27
 10731 0423 19       		.uleb128 0x19
 10732 0424 49       		.uleb128 0x49
 10733 0425 13       		.uleb128 0x13
 10734 0426 3C       		.uleb128 0x3c
 10735 0427 19       		.uleb128 0x19
 10736 0428 01       		.uleb128 0x1
 10737 0429 13       		.uleb128 0x13
 10738 042a 00       		.byte	0
 10739 042b 00       		.byte	0
 10740 042c 52       		.uleb128 0x52
 10741 042d 2E       		.uleb128 0x2e
 10742 042e 01       		.byte	0x1
 10743 042f 3F       		.uleb128 0x3f
 10744 0430 19       		.uleb128 0x19
 10745 0431 03       		.uleb128 0x3
 10746 0432 0E       		.uleb128 0xe
 10747 0433 3A       		.uleb128 0x3a
 10748 0434 0B       		.uleb128 0xb
 10749 0435 3B       		.uleb128 0x3b
 10750 0436 05       		.uleb128 0x5
 10751 0437 27       		.uleb128 0x27
 10752 0438 19       		.uleb128 0x19
 10753 0439 3C       		.uleb128 0x3c
 10754 043a 19       		.uleb128 0x19
 10755 043b 01       		.uleb128 0x1
 10756 043c 13       		.uleb128 0x13
 10757 043d 00       		.byte	0
 10758 043e 00       		.byte	0
 10759 043f 53       		.uleb128 0x53
 10760 0440 2E       		.uleb128 0x2e
 10761 0441 00       		.byte	0
 10762 0442 3F       		.uleb128 0x3f
 10763 0443 19       		.uleb128 0x19
 10764 0444 03       		.uleb128 0x3
 10765 0445 0E       		.uleb128 0xe
 10766 0446 3A       		.uleb128 0x3a
 10767 0447 0B       		.uleb128 0xb
 10768 0448 3B       		.uleb128 0x3b
 10769 0449 0B       		.uleb128 0xb
 10770 044a 27       		.uleb128 0x27
 10771 044b 19       		.uleb128 0x19
 10772 044c 49       		.uleb128 0x49
 10773 044d 13       		.uleb128 0x13
 10774 044e 3C       		.uleb128 0x3c
 10775 044f 19       		.uleb128 0x19
ARM GAS  C:\Users\jo\AppData\Local\Temp\ccRMLSMa.s 			page 191


 10776 0450 00       		.byte	0
 10777 0451 00       		.byte	0
 10778 0452 54       		.uleb128 0x54
 10779 0453 2E       		.uleb128 0x2e
 10780 0454 01       		.byte	0x1
 10781 0455 3F       		.uleb128 0x3f
 10782 0456 19       		.uleb128 0x19
 10783 0457 03       		.uleb128 0x3
 10784 0458 0E       		.uleb128 0xe
 10785 0459 3A       		.uleb128 0x3a
 10786 045a 0B       		.uleb128 0xb
 10787 045b 3B       		.uleb128 0x3b
 10788 045c 0B       		.uleb128 0xb
 10789 045d 27       		.uleb128 0x27
 10790 045e 19       		.uleb128 0x19
 10791 045f 3C       		.uleb128 0x3c
 10792 0460 19       		.uleb128 0x19
 10793 0461 01       		.uleb128 0x1
 10794 0462 13       		.uleb128 0x13
 10795 0463 00       		.byte	0
 10796 0464 00       		.byte	0
 10797 0465 55       		.uleb128 0x55
 10798 0466 2E       		.uleb128 0x2e
 10799 0467 01       		.byte	0x1
 10800 0468 3F       		.uleb128 0x3f
 10801 0469 19       		.uleb128 0x19
 10802 046a 03       		.uleb128 0x3
 10803 046b 0E       		.uleb128 0xe
 10804 046c 27       		.uleb128 0x27
 10805 046d 19       		.uleb128 0x19
 10806 046e 49       		.uleb128 0x49
 10807 046f 13       		.uleb128 0x13
 10808 0470 34       		.uleb128 0x34
 10809 0471 19       		.uleb128 0x19
 10810 0472 3C       		.uleb128 0x3c
 10811 0473 19       		.uleb128 0x19
 10812 0474 01       		.uleb128 0x1
 10813 0475 13       		.uleb128 0x13
 10814 0476 00       		.byte	0
 10815 0477 00       		.byte	0
 10816 0478 56       		.uleb128 0x56
 10817 0479 2E       		.uleb128 0x2e
 10818 047a 01       		.byte	0x1
 10819 047b 3F       		.uleb128 0x3f
 10820 047c 19       		.uleb128 0x19
 10821 047d 03       		.uleb128 0x3
 10822 047e 0E       		.uleb128 0xe
 10823 047f 3A       		.uleb128 0x3a
 10824 0480 0B       		.uleb128 0xb
 10825 0481 3B       		.uleb128 0x3b
 10826 0482 0B       		.uleb128 0xb
 10827 0483 27       		.uleb128 0x27
 10828 0484 19       		.uleb128 0x19
 10829 0485 49       		.uleb128 0x49
 10830 0486 13       		.uleb128 0x13
 10831 0487 3C       		.uleb128 0x3c
 10832 0488 19       		.uleb128 0x19
ARM GAS  C:\Users\jo\AppData\Local\Temp\ccRMLSMa.s 			page 192


 10833 0489 00       		.byte	0
 10834 048a 00       		.byte	0
 10835 048b 00       		.byte	0
 10836              		.section	.debug_loc,"",%progbits
 10837              	.Ldebug_loc0:
 10838              	.LLST0:
 10839 0000 00000000 		.4byte	.LVL0
 10840 0004 14000000 		.4byte	.LVL3
 10841 0008 0100     		.2byte	0x1
 10842 000a 50       		.byte	0x50
 10843 000b 14000000 		.4byte	.LVL3
 10844 000f EC000000 		.4byte	.LVL33
 10845 0013 0100     		.2byte	0x1
 10846 0015 56       		.byte	0x56
 10847 0016 EC000000 		.4byte	.LVL33
 10848 001a EF000000 		.4byte	.LVL34-1
 10849 001e 0100     		.2byte	0x1
 10850 0020 50       		.byte	0x50
 10851 0021 EF000000 		.4byte	.LVL34-1
 10852 0025 04010000 		.4byte	.LVL39
 10853 0029 0100     		.2byte	0x1
 10854 002b 56       		.byte	0x56
 10855 002c 04010000 		.4byte	.LVL39
 10856 0030 07010000 		.4byte	.LVL40-1
 10857 0034 0100     		.2byte	0x1
 10858 0036 50       		.byte	0x50
 10859 0037 07010000 		.4byte	.LVL40-1
 10860 003b 14010000 		.4byte	.LFE24
 10861 003f 0100     		.2byte	0x1
 10862 0041 56       		.byte	0x56
 10863 0042 00000000 		.4byte	0
 10864 0046 00000000 		.4byte	0
 10865              	.LLST1:
 10866 004a 00000000 		.4byte	.LVL0
 10867 004e 12000000 		.4byte	.LVL2
 10868 0052 0100     		.2byte	0x1
 10869 0054 51       		.byte	0x51
 10870 0055 12000000 		.4byte	.LVL2
 10871 0059 19000000 		.4byte	.LVL5-1
 10872 005d 0200     		.2byte	0x2
 10873 005f 75       		.byte	0x75
 10874 0060 00       		.sleb128 0
 10875 0061 19000000 		.4byte	.LVL5-1
 10876 0065 14010000 		.4byte	.LFE24
 10877 0069 0400     		.2byte	0x4
 10878 006b F3       		.byte	0xf3
 10879 006c 01       		.uleb128 0x1
 10880 006d 51       		.byte	0x51
 10881 006e 9F       		.byte	0x9f
 10882 006f 00000000 		.4byte	0
 10883 0073 00000000 		.4byte	0
 10884              	.LLST2:
 10885 0077 00000000 		.4byte	.LVL0
 10886 007b 16000000 		.4byte	.LVL4
 10887 007f 0100     		.2byte	0x1
 10888 0081 52       		.byte	0x52
 10889 0082 16000000 		.4byte	.LVL4
ARM GAS  C:\Users\jo\AppData\Local\Temp\ccRMLSMa.s 			page 193


 10890 0086 14010000 		.4byte	.LFE24
 10891 008a 0400     		.2byte	0x4
 10892 008c F3       		.byte	0xf3
 10893 008d 01       		.uleb128 0x1
 10894 008e 52       		.byte	0x52
 10895 008f 9F       		.byte	0x9f
 10896 0090 00000000 		.4byte	0
 10897 0094 00000000 		.4byte	0
 10898              	.LLST3:
 10899 0098 1A000000 		.4byte	.LVL5
 10900 009c 20000000 		.4byte	.LVL7
 10901 00a0 0100     		.2byte	0x1
 10902 00a2 50       		.byte	0x50
 10903 00a3 26000000 		.4byte	.LVL8
 10904 00a7 30000000 		.4byte	.LVL10
 10905 00ab 0100     		.2byte	0x1
 10906 00ad 50       		.byte	0x50
 10907 00ae 36000000 		.4byte	.LVL11
 10908 00b2 48000000 		.4byte	.LVL12
 10909 00b6 0100     		.2byte	0x1
 10910 00b8 50       		.byte	0x50
 10911 00b9 4E000000 		.4byte	.LVL13
 10912 00bd 54000000 		.4byte	.LVL14
 10913 00c1 0100     		.2byte	0x1
 10914 00c3 50       		.byte	0x50
 10915 00c4 54000000 		.4byte	.LVL14
 10916 00c8 5E000000 		.4byte	.LVL15
 10917 00cc 0100     		.2byte	0x1
 10918 00ce 54       		.byte	0x54
 10919 00cf 5E000000 		.4byte	.LVL15
 10920 00d3 64000000 		.4byte	.LVL16
 10921 00d7 0100     		.2byte	0x1
 10922 00d9 50       		.byte	0x50
 10923 00da 64000000 		.4byte	.LVL16
 10924 00de 6E000000 		.4byte	.LVL17
 10925 00e2 0100     		.2byte	0x1
 10926 00e4 54       		.byte	0x54
 10927 00e5 6E000000 		.4byte	.LVL17
 10928 00e9 74000000 		.4byte	.LVL18
 10929 00ed 0100     		.2byte	0x1
 10930 00ef 50       		.byte	0x50
 10931 00f0 74000000 		.4byte	.LVL18
 10932 00f4 82000000 		.4byte	.LVL20
 10933 00f8 0100     		.2byte	0x1
 10934 00fa 54       		.byte	0x54
 10935 00fb 82000000 		.4byte	.LVL20
 10936 00ff 84000000 		.4byte	.LVL21
 10937 0103 0100     		.2byte	0x1
 10938 0105 50       		.byte	0x50
 10939 0106 84000000 		.4byte	.LVL21
 10940 010a 8E000000 		.4byte	.LVL22
 10941 010e 0100     		.2byte	0x1
 10942 0110 54       		.byte	0x54
 10943 0111 8E000000 		.4byte	.LVL22
 10944 0115 96000000 		.4byte	.LVL23
 10945 0119 0100     		.2byte	0x1
 10946 011b 50       		.byte	0x50
ARM GAS  C:\Users\jo\AppData\Local\Temp\ccRMLSMa.s 			page 194


 10947 011c 96000000 		.4byte	.LVL23
 10948 0120 A0000000 		.4byte	.LVL24
 10949 0124 0100     		.2byte	0x1
 10950 0126 54       		.byte	0x54
 10951 0127 A0000000 		.4byte	.LVL24
 10952 012b A8000000 		.4byte	.LVL25
 10953 012f 0100     		.2byte	0x1
 10954 0131 50       		.byte	0x50
 10955 0132 A8000000 		.4byte	.LVL25
 10956 0136 B2000000 		.4byte	.LVL26
 10957 013a 0100     		.2byte	0x1
 10958 013c 54       		.byte	0x54
 10959 013d B2000000 		.4byte	.LVL26
 10960 0141 BA000000 		.4byte	.LVL27
 10961 0145 0100     		.2byte	0x1
 10962 0147 50       		.byte	0x50
 10963 0148 BA000000 		.4byte	.LVL27
 10964 014c C4000000 		.4byte	.LVL28
 10965 0150 0100     		.2byte	0x1
 10966 0152 54       		.byte	0x54
 10967 0153 C4000000 		.4byte	.LVL28
 10968 0157 CC000000 		.4byte	.LVL29
 10969 015b 0100     		.2byte	0x1
 10970 015d 50       		.byte	0x50
 10971 015e CC000000 		.4byte	.LVL29
 10972 0162 D6000000 		.4byte	.LVL30
 10973 0166 0100     		.2byte	0x1
 10974 0168 54       		.byte	0x54
 10975 0169 D6000000 		.4byte	.LVL30
 10976 016d DE000000 		.4byte	.LVL31
 10977 0171 0100     		.2byte	0x1
 10978 0173 50       		.byte	0x50
 10979 0174 DE000000 		.4byte	.LVL31
 10980 0178 F0000000 		.4byte	.LVL34
 10981 017c 0100     		.2byte	0x1
 10982 017e 54       		.byte	0x54
 10983 017f F0000000 		.4byte	.LVL34
 10984 0183 F8000000 		.4byte	.LVL35
 10985 0187 0100     		.2byte	0x1
 10986 0189 50       		.byte	0x50
 10987 018a F8000000 		.4byte	.LVL35
 10988 018e 00010000 		.4byte	.LVL37
 10989 0192 0100     		.2byte	0x1
 10990 0194 54       		.byte	0x54
 10991 0195 00010000 		.4byte	.LVL37
 10992 0199 02010000 		.4byte	.LVL38
 10993 019d 0100     		.2byte	0x1
 10994 019f 50       		.byte	0x50
 10995 01a0 04010000 		.4byte	.LVL39
 10996 01a4 14010000 		.4byte	.LFE24
 10997 01a8 0100     		.2byte	0x1
 10998 01aa 54       		.byte	0x54
 10999 01ab 00000000 		.4byte	0
 11000 01af 00000000 		.4byte	0
 11001              	.LLST4:
 11002 01b3 0E000000 		.4byte	.LVL1
 11003 01b7 12000000 		.4byte	.LVL2
ARM GAS  C:\Users\jo\AppData\Local\Temp\ccRMLSMa.s 			page 195


 11004 01bb 0600     		.2byte	0x6
 11005 01bd 71       		.byte	0x71
 11006 01be 00       		.sleb128 0
 11007 01bf 72       		.byte	0x72
 11008 01c0 00       		.sleb128 0
 11009 01c1 22       		.byte	0x22
 11010 01c2 9F       		.byte	0x9f
 11011 01c3 12000000 		.4byte	.LVL2
 11012 01c7 19000000 		.4byte	.LVL5-1
 11013 01cb 0100     		.2byte	0x1
 11014 01cd 51       		.byte	0x51
 11015 01ce 19000000 		.4byte	.LVL5-1
 11016 01d2 1C000000 		.4byte	.LVL6
 11017 01d6 0800     		.2byte	0x8
 11018 01d8 F3       		.byte	0xf3
 11019 01d9 01       		.uleb128 0x1
 11020 01da 51       		.byte	0x51
 11021 01db F3       		.byte	0xf3
 11022 01dc 01       		.uleb128 0x1
 11023 01dd 52       		.byte	0x52
 11024 01de 22       		.byte	0x22
 11025 01df 9F       		.byte	0x9f
 11026 01e0 26000000 		.4byte	.LVL8
 11027 01e4 2C000000 		.4byte	.LVL9
 11028 01e8 0800     		.2byte	0x8
 11029 01ea F3       		.byte	0xf3
 11030 01eb 01       		.uleb128 0x1
 11031 01ec 51       		.byte	0x51
 11032 01ed F3       		.byte	0xf3
 11033 01ee 01       		.uleb128 0x1
 11034 01ef 52       		.byte	0x52
 11035 01f0 22       		.byte	0x22
 11036 01f1 9F       		.byte	0x9f
 11037 01f2 2C000000 		.4byte	.LVL9
 11038 01f6 14010000 		.4byte	.LFE24
 11039 01fa 0100     		.2byte	0x1
 11040 01fc 57       		.byte	0x57
 11041 01fd 00000000 		.4byte	0
 11042 0201 00000000 		.4byte	0
 11043              	.LLST5:
 11044 0205 00000000 		.4byte	.LVL41
 11045 0209 3F000000 		.4byte	.LVL43-1
 11046 020d 0100     		.2byte	0x1
 11047 020f 50       		.byte	0x50
 11048 0210 3F000000 		.4byte	.LVL43-1
 11049 0214 80000000 		.4byte	.LFE22
 11050 0218 0400     		.2byte	0x4
 11051 021a F3       		.byte	0xf3
 11052 021b 01       		.uleb128 0x1
 11053 021c 50       		.byte	0x50
 11054 021d 9F       		.byte	0x9f
 11055 021e 00000000 		.4byte	0
 11056 0222 00000000 		.4byte	0
 11057              	.LLST6:
 11058 0226 00000000 		.4byte	.LVL41
 11059 022a 3F000000 		.4byte	.LVL43-1
 11060 022e 0100     		.2byte	0x1
ARM GAS  C:\Users\jo\AppData\Local\Temp\ccRMLSMa.s 			page 196


 11061 0230 51       		.byte	0x51
 11062 0231 3F000000 		.4byte	.LVL43-1
 11063 0235 80000000 		.4byte	.LFE22
 11064 0239 0400     		.2byte	0x4
 11065 023b F3       		.byte	0xf3
 11066 023c 01       		.uleb128 0x1
 11067 023d 51       		.byte	0x51
 11068 023e 9F       		.byte	0x9f
 11069 023f 00000000 		.4byte	0
 11070 0243 00000000 		.4byte	0
 11071              	.LLST7:
 11072 0247 00000000 		.4byte	.LVL41
 11073 024b 3A000000 		.4byte	.LVL42
 11074 024f 0100     		.2byte	0x1
 11075 0251 52       		.byte	0x52
 11076 0252 3A000000 		.4byte	.LVL42
 11077 0256 80000000 		.4byte	.LFE22
 11078 025a 0100     		.2byte	0x1
 11079 025c 57       		.byte	0x57
 11080 025d 00000000 		.4byte	0
 11081 0261 00000000 		.4byte	0
 11082              	.LLST8:
 11083 0265 00000000 		.4byte	.LVL41
 11084 0269 3F000000 		.4byte	.LVL43-1
 11085 026d 0100     		.2byte	0x1
 11086 026f 53       		.byte	0x53
 11087 0270 3F000000 		.4byte	.LVL43-1
 11088 0274 80000000 		.4byte	.LFE22
 11089 0278 0100     		.2byte	0x1
 11090 027a 56       		.byte	0x56
 11091 027b 00000000 		.4byte	0
 11092 027f 00000000 		.4byte	0
 11093              	.LLST9:
 11094 0283 40000000 		.4byte	.LVL43
 11095 0287 46000000 		.4byte	.LVL44
 11096 028b 0100     		.2byte	0x1
 11097 028d 50       		.byte	0x50
 11098 028e 4A000000 		.4byte	.LVL45
 11099 0292 4C000000 		.4byte	.LVL46
 11100 0296 0100     		.2byte	0x1
 11101 0298 50       		.byte	0x50
 11102 0299 00000000 		.4byte	0
 11103 029d 00000000 		.4byte	0
 11104              	.LLST10:
 11105 02a1 54000000 		.4byte	.LVL48
 11106 02a5 70000000 		.4byte	.LVL49
 11107 02a9 0400     		.2byte	0x4
 11108 02ab F3       		.byte	0xf3
 11109 02ac 01       		.uleb128 0x1
 11110 02ad 50       		.byte	0x50
 11111 02ae 9F       		.byte	0x9f
 11112 02af 74000000 		.4byte	.LVL50
 11113 02b3 80000000 		.4byte	.LFE22
 11114 02b7 0400     		.2byte	0x4
 11115 02b9 F3       		.byte	0xf3
 11116 02ba 01       		.uleb128 0x1
 11117 02bb 50       		.byte	0x50
ARM GAS  C:\Users\jo\AppData\Local\Temp\ccRMLSMa.s 			page 197


 11118 02bc 9F       		.byte	0x9f
 11119 02bd 00000000 		.4byte	0
 11120 02c1 00000000 		.4byte	0
 11121              	.LLST12:
 11122 02c5 54000000 		.4byte	.LVL48
 11123 02c9 70000000 		.4byte	.LVL49
 11124 02cd 0100     		.2byte	0x1
 11125 02cf 56       		.byte	0x56
 11126 02d0 74000000 		.4byte	.LVL50
 11127 02d4 80000000 		.4byte	.LFE22
 11128 02d8 0100     		.2byte	0x1
 11129 02da 56       		.byte	0x56
 11130 02db 00000000 		.4byte	0
 11131 02df 00000000 		.4byte	0
 11132              	.LLST13:
 11133 02e3 54000000 		.4byte	.LVL48
 11134 02e7 70000000 		.4byte	.LVL49
 11135 02eb 0100     		.2byte	0x1
 11136 02ed 57       		.byte	0x57
 11137 02ee 74000000 		.4byte	.LVL50
 11138 02f2 80000000 		.4byte	.LFE22
 11139 02f6 0100     		.2byte	0x1
 11140 02f8 57       		.byte	0x57
 11141 02f9 00000000 		.4byte	0
 11142 02fd 00000000 		.4byte	0
 11143              	.LLST14:
 11144 0301 00000000 		.4byte	.LVL51
 11145 0305 12000000 		.4byte	.LVL53
 11146 0309 0100     		.2byte	0x1
 11147 030b 50       		.byte	0x50
 11148 030c 12000000 		.4byte	.LVL53
 11149 0310 44000000 		.4byte	.LVL61
 11150 0314 0100     		.2byte	0x1
 11151 0316 54       		.byte	0x54
 11152 0317 44000000 		.4byte	.LVL61
 11153 031b 56010000 		.4byte	.LVL99
 11154 031f 0400     		.2byte	0x4
 11155 0321 F3       		.byte	0xf3
 11156 0322 01       		.uleb128 0x1
 11157 0323 50       		.byte	0x50
 11158 0324 9F       		.byte	0x9f
 11159 0325 56010000 		.4byte	.LVL99
 11160 0329 5B010000 		.4byte	.LVL101-1
 11161 032d 0100     		.2byte	0x1
 11162 032f 50       		.byte	0x50
 11163 0330 5B010000 		.4byte	.LVL101-1
 11164 0334 62010000 		.4byte	.LVL102
 11165 0338 0100     		.2byte	0x1
 11166 033a 54       		.byte	0x54
 11167 033b 62010000 		.4byte	.LVL102
 11168 033f B4020000 		.4byte	.LVL143
 11169 0343 0400     		.2byte	0x4
 11170 0345 F3       		.byte	0xf3
 11171 0346 01       		.uleb128 0x1
 11172 0347 50       		.byte	0x50
 11173 0348 9F       		.byte	0x9f
 11174 0349 B4020000 		.4byte	.LVL143
ARM GAS  C:\Users\jo\AppData\Local\Temp\ccRMLSMa.s 			page 198


 11175 034d B8020000 		.4byte	.LVL144
 11176 0351 0100     		.2byte	0x1
 11177 0353 54       		.byte	0x54
 11178 0354 B8020000 		.4byte	.LVL144
 11179 0358 D8020000 		.4byte	.LFE19
 11180 035c 0400     		.2byte	0x4
 11181 035e F3       		.byte	0xf3
 11182 035f 01       		.uleb128 0x1
 11183 0360 50       		.byte	0x50
 11184 0361 9F       		.byte	0x9f
 11185 0362 00000000 		.4byte	0
 11186 0366 00000000 		.4byte	0
 11187              	.LLST15:
 11188 036a 00000000 		.4byte	.LVL51
 11189 036e 15000000 		.4byte	.LVL54-1
 11190 0372 0100     		.2byte	0x1
 11191 0374 51       		.byte	0x51
 11192 0375 15000000 		.4byte	.LVL54-1
 11193 0379 56010000 		.4byte	.LVL99
 11194 037d 0100     		.2byte	0x1
 11195 037f 55       		.byte	0x55
 11196 0380 56010000 		.4byte	.LVL99
 11197 0384 58010000 		.4byte	.LVL100
 11198 0388 0100     		.2byte	0x1
 11199 038a 51       		.byte	0x51
 11200 038b 58010000 		.4byte	.LVL100
 11201 038f D8020000 		.4byte	.LFE19
 11202 0393 0100     		.2byte	0x1
 11203 0395 55       		.byte	0x55
 11204 0396 00000000 		.4byte	0
 11205 039a 00000000 		.4byte	0
 11206              	.LLST16:
 11207 039e 10000000 		.4byte	.LVL52
 11208 03a2 38000000 		.4byte	.LVL58
 11209 03a6 0400     		.2byte	0x4
 11210 03a8 91       		.byte	0x91
 11211 03a9 EC7D     		.sleb128 -276
 11212 03ab 9F       		.byte	0x9f
 11213 03ac 38000000 		.4byte	.LVL58
 11214 03b0 41000000 		.4byte	.LVL60-1
 11215 03b4 0100     		.2byte	0x1
 11216 03b6 52       		.byte	0x52
 11217 03b7 41000000 		.4byte	.LVL60-1
 11218 03bb 4E000000 		.4byte	.LVL65
 11219 03bf 0400     		.2byte	0x4
 11220 03c1 91       		.byte	0x91
 11221 03c2 EC7D     		.sleb128 -276
 11222 03c4 9F       		.byte	0x9f
 11223 03c5 52000000 		.4byte	.LVL66
 11224 03c9 5E000000 		.4byte	.LVL69
 11225 03cd 0400     		.2byte	0x4
 11226 03cf 91       		.byte	0x91
 11227 03d0 EC7D     		.sleb128 -276
 11228 03d2 9F       		.byte	0x9f
 11229 03d3 5E000000 		.4byte	.LVL69
 11230 03d7 63000000 		.4byte	.LVL70-1
 11231 03db 0100     		.2byte	0x1
ARM GAS  C:\Users\jo\AppData\Local\Temp\ccRMLSMa.s 			page 199


 11232 03dd 52       		.byte	0x52
 11233 03de 63000000 		.4byte	.LVL70-1
 11234 03e2 56010000 		.4byte	.LVL99
 11235 03e6 0400     		.2byte	0x4
 11236 03e8 91       		.byte	0x91
 11237 03e9 EC7D     		.sleb128 -276
 11238 03eb 9F       		.byte	0x9f
 11239 03ec 7A010000 		.4byte	.LVL104
 11240 03f0 9E010000 		.4byte	.LVL110
 11241 03f4 0400     		.2byte	0x4
 11242 03f6 91       		.byte	0x91
 11243 03f7 EC7D     		.sleb128 -276
 11244 03f9 9F       		.byte	0x9f
 11245 03fa 9E010000 		.4byte	.LVL110
 11246 03fe A3010000 		.4byte	.LVL111-1
 11247 0402 0100     		.2byte	0x1
 11248 0404 52       		.byte	0x52
 11249 0405 A3010000 		.4byte	.LVL111-1
 11250 0409 B8010000 		.4byte	.LVL114
 11251 040d 0400     		.2byte	0x4
 11252 040f 91       		.byte	0x91
 11253 0410 EC7D     		.sleb128 -276
 11254 0412 9F       		.byte	0x9f
 11255 0413 B8010000 		.4byte	.LVL114
 11256 0417 BD010000 		.4byte	.LVL115-1
 11257 041b 0100     		.2byte	0x1
 11258 041d 52       		.byte	0x52
 11259 041e BD010000 		.4byte	.LVL115-1
 11260 0422 E0010000 		.4byte	.LVL120
 11261 0426 0400     		.2byte	0x4
 11262 0428 91       		.byte	0x91
 11263 0429 EC7D     		.sleb128 -276
 11264 042b 9F       		.byte	0x9f
 11265 042c E0010000 		.4byte	.LVL120
 11266 0430 E7010000 		.4byte	.LVL121-1
 11267 0434 0100     		.2byte	0x1
 11268 0436 52       		.byte	0x52
 11269 0437 E7010000 		.4byte	.LVL121-1
 11270 043b 0A020000 		.4byte	.LVL125
 11271 043f 0400     		.2byte	0x4
 11272 0441 91       		.byte	0x91
 11273 0442 EC7D     		.sleb128 -276
 11274 0444 9F       		.byte	0x9f
 11275 0445 0A020000 		.4byte	.LVL125
 11276 0449 11020000 		.4byte	.LVL126-1
 11277 044d 0100     		.2byte	0x1
 11278 044f 52       		.byte	0x52
 11279 0450 11020000 		.4byte	.LVL126-1
 11280 0454 24020000 		.4byte	.LVL127
 11281 0458 0400     		.2byte	0x4
 11282 045a 91       		.byte	0x91
 11283 045b EC7D     		.sleb128 -276
 11284 045d 9F       		.byte	0x9f
 11285 045e 24020000 		.4byte	.LVL127
 11286 0462 2D020000 		.4byte	.LVL129-1
 11287 0466 0100     		.2byte	0x1
 11288 0468 52       		.byte	0x52
ARM GAS  C:\Users\jo\AppData\Local\Temp\ccRMLSMa.s 			page 200


 11289 0469 2D020000 		.4byte	.LVL129-1
 11290 046d A8020000 		.4byte	.LVL140
 11291 0471 0400     		.2byte	0x4
 11292 0473 91       		.byte	0x91
 11293 0474 EC7D     		.sleb128 -276
 11294 0476 9F       		.byte	0x9f
 11295 0477 AC020000 		.4byte	.LVL141
 11296 047b B4020000 		.4byte	.LVL143
 11297 047f 0400     		.2byte	0x4
 11298 0481 91       		.byte	0x91
 11299 0482 EC7D     		.sleb128 -276
 11300 0484 9F       		.byte	0x9f
 11301 0485 B8020000 		.4byte	.LVL144
 11302 0489 D8020000 		.4byte	.LFE19
 11303 048d 0400     		.2byte	0x4
 11304 048f 91       		.byte	0x91
 11305 0490 EC7D     		.sleb128 -276
 11306 0492 9F       		.byte	0x9f
 11307 0493 00000000 		.4byte	0
 11308 0497 00000000 		.4byte	0
 11309              	.LLST17:
 11310 049b 10000000 		.4byte	.LVL52
 11311 049f 12000000 		.4byte	.LVL53
 11312 04a3 0100     		.2byte	0x1
 11313 04a5 50       		.byte	0x50
 11314 04a6 12000000 		.4byte	.LVL53
 11315 04aa 44000000 		.4byte	.LVL61
 11316 04ae 0100     		.2byte	0x1
 11317 04b0 54       		.byte	0x54
 11318 04b1 44000000 		.4byte	.LVL61
 11319 04b5 4E000000 		.4byte	.LVL65
 11320 04b9 0400     		.2byte	0x4
 11321 04bb F3       		.byte	0xf3
 11322 04bc 01       		.uleb128 0x1
 11323 04bd 50       		.byte	0x50
 11324 04be 9F       		.byte	0x9f
 11325 04bf 52000000 		.4byte	.LVL66
 11326 04c3 56010000 		.4byte	.LVL99
 11327 04c7 0400     		.2byte	0x4
 11328 04c9 F3       		.byte	0xf3
 11329 04ca 01       		.uleb128 0x1
 11330 04cb 50       		.byte	0x50
 11331 04cc 9F       		.byte	0x9f
 11332 04cd 7A010000 		.4byte	.LVL104
 11333 04d1 A8020000 		.4byte	.LVL140
 11334 04d5 0400     		.2byte	0x4
 11335 04d7 F3       		.byte	0xf3
 11336 04d8 01       		.uleb128 0x1
 11337 04d9 50       		.byte	0x50
 11338 04da 9F       		.byte	0x9f
 11339 04db AC020000 		.4byte	.LVL141
 11340 04df B4020000 		.4byte	.LVL143
 11341 04e3 0400     		.2byte	0x4
 11342 04e5 F3       		.byte	0xf3
 11343 04e6 01       		.uleb128 0x1
 11344 04e7 50       		.byte	0x50
 11345 04e8 9F       		.byte	0x9f
ARM GAS  C:\Users\jo\AppData\Local\Temp\ccRMLSMa.s 			page 201


 11346 04e9 B8020000 		.4byte	.LVL144
 11347 04ed D8020000 		.4byte	.LFE19
 11348 04f1 0400     		.2byte	0x4
 11349 04f3 F3       		.byte	0xf3
 11350 04f4 01       		.uleb128 0x1
 11351 04f5 50       		.byte	0x50
 11352 04f6 9F       		.byte	0x9f
 11353 04f7 00000000 		.4byte	0
 11354 04fb 00000000 		.4byte	0
 11355              	.LLST18:
 11356 04ff 46000000 		.4byte	.LVL62
 11357 0503 4E000000 		.4byte	.LVL65
 11358 0507 0100     		.2byte	0x1
 11359 0509 54       		.byte	0x54
 11360 050a 4E010000 		.4byte	.LVL96
 11361 050e 56010000 		.4byte	.LVL99
 11362 0512 0200     		.2byte	0x2
 11363 0514 30       		.byte	0x30
 11364 0515 9F       		.byte	0x9f
 11365 0516 00000000 		.4byte	0
 11366 051a 00000000 		.4byte	0
 11367              	.LLST19:
 11368 051e 1A000000 		.4byte	.LVL55
 11369 0522 48000000 		.4byte	.LVL63
 11370 0526 0400     		.2byte	0x4
 11371 0528 91       		.byte	0x91
 11372 0529 F07D     		.sleb128 -272
 11373 052b 9F       		.byte	0x9f
 11374 052c 48000000 		.4byte	.LVL63
 11375 0530 4B000000 		.4byte	.LVL64-1
 11376 0534 0100     		.2byte	0x1
 11377 0536 50       		.byte	0x50
 11378 0537 4B000000 		.4byte	.LVL64-1
 11379 053b 4E000000 		.4byte	.LVL65
 11380 053f 0400     		.2byte	0x4
 11381 0541 91       		.byte	0x91
 11382 0542 F07D     		.sleb128 -272
 11383 0544 9F       		.byte	0x9f
 11384 0545 52000000 		.4byte	.LVL66
 11385 0549 50010000 		.4byte	.LVL97
 11386 054d 0400     		.2byte	0x4
 11387 054f 91       		.byte	0x91
 11388 0550 F07D     		.sleb128 -272
 11389 0552 9F       		.byte	0x9f
 11390 0553 50010000 		.4byte	.LVL97
 11391 0557 53010000 		.4byte	.LVL98-1
 11392 055b 0100     		.2byte	0x1
 11393 055d 50       		.byte	0x50
 11394 055e 53010000 		.4byte	.LVL98-1
 11395 0562 56010000 		.4byte	.LVL99
 11396 0566 0400     		.2byte	0x4
 11397 0568 91       		.byte	0x91
 11398 0569 F07D     		.sleb128 -272
 11399 056b 9F       		.byte	0x9f
 11400 056c 7A010000 		.4byte	.LVL104
 11401 0570 38020000 		.4byte	.LVL130
 11402 0574 0400     		.2byte	0x4
ARM GAS  C:\Users\jo\AppData\Local\Temp\ccRMLSMa.s 			page 202


 11403 0576 91       		.byte	0x91
 11404 0577 F07D     		.sleb128 -272
 11405 0579 9F       		.byte	0x9f
 11406 057a 38020000 		.4byte	.LVL130
 11407 057e 3F020000 		.4byte	.LVL131-1
 11408 0582 0100     		.2byte	0x1
 11409 0584 50       		.byte	0x50
 11410 0585 3F020000 		.4byte	.LVL131-1
 11411 0589 A8020000 		.4byte	.LVL140
 11412 058d 0400     		.2byte	0x4
 11413 058f 91       		.byte	0x91
 11414 0590 F07D     		.sleb128 -272
 11415 0592 9F       		.byte	0x9f
 11416 0593 AC020000 		.4byte	.LVL141
 11417 0597 B4020000 		.4byte	.LVL143
 11418 059b 0400     		.2byte	0x4
 11419 059d 91       		.byte	0x91
 11420 059e F07D     		.sleb128 -272
 11421 05a0 9F       		.byte	0x9f
 11422 05a1 B8020000 		.4byte	.LVL144
 11423 05a5 D8020000 		.4byte	.LFE19
 11424 05a9 0400     		.2byte	0x4
 11425 05ab 91       		.byte	0x91
 11426 05ac F07D     		.sleb128 -272
 11427 05ae 9F       		.byte	0x9f
 11428 05af 00000000 		.4byte	0
 11429 05b3 00000000 		.4byte	0
 11430              	.LLST20:
 11431 05b7 28000000 		.4byte	.LVL57
 11432 05bb 3A000000 		.4byte	.LVL59
 11433 05bf 0100     		.2byte	0x1
 11434 05c1 50       		.byte	0x50
 11435 05c2 42000000 		.4byte	.LVL60
 11436 05c6 46000000 		.4byte	.LVL62
 11437 05ca 0100     		.2byte	0x1
 11438 05cc 50       		.byte	0x50
 11439 05cd 52000000 		.4byte	.LVL66
 11440 05d1 5C000000 		.4byte	.LVL68
 11441 05d5 0100     		.2byte	0x1
 11442 05d7 50       		.byte	0x50
 11443 05d8 5C000000 		.4byte	.LVL68
 11444 05dc 64000000 		.4byte	.LVL70
 11445 05e0 0100     		.2byte	0x1
 11446 05e2 54       		.byte	0x54
 11447 05e3 64000000 		.4byte	.LVL70
 11448 05e7 78000000 		.4byte	.LVL71
 11449 05eb 0100     		.2byte	0x1
 11450 05ed 50       		.byte	0x50
 11451 05ee 90000000 		.4byte	.LVL73
 11452 05f2 9C000000 		.4byte	.LVL75
 11453 05f6 0100     		.2byte	0x1
 11454 05f8 50       		.byte	0x50
 11455 05f9 88010000 		.4byte	.LVL107
 11456 05fd 8A010000 		.4byte	.LVL108
 11457 0601 0100     		.2byte	0x1
 11458 0603 50       		.byte	0x50
 11459 0604 A4010000 		.4byte	.LVL111
ARM GAS  C:\Users\jo\AppData\Local\Temp\ccRMLSMa.s 			page 203


 11460 0608 B6010000 		.4byte	.LVL113
 11461 060c 0100     		.2byte	0x1
 11462 060e 50       		.byte	0x50
 11463 060f BE010000 		.4byte	.LVL115
 11464 0613 C6010000 		.4byte	.LVL116
 11465 0617 0100     		.2byte	0x1
 11466 0619 50       		.byte	0x50
 11467 061a CE010000 		.4byte	.LVL117
 11468 061e DA010000 		.4byte	.LVL119
 11469 0622 0100     		.2byte	0x1
 11470 0624 50       		.byte	0x50
 11471 0625 E8010000 		.4byte	.LVL121
 11472 0629 F0010000 		.4byte	.LVL122
 11473 062d 0100     		.2byte	0x1
 11474 062f 50       		.byte	0x50
 11475 0630 F8010000 		.4byte	.LVL123
 11476 0634 04020000 		.4byte	.LVL124
 11477 0638 0100     		.2byte	0x1
 11478 063a 50       		.byte	0x50
 11479 063b 12020000 		.4byte	.LVL126
 11480 063f 26020000 		.4byte	.LVL128
 11481 0643 0100     		.2byte	0x1
 11482 0645 50       		.byte	0x50
 11483 0646 2E020000 		.4byte	.LVL129
 11484 064a 38020000 		.4byte	.LVL130
 11485 064e 0100     		.2byte	0x1
 11486 0650 50       		.byte	0x50
 11487 0651 40020000 		.4byte	.LVL131
 11488 0655 54020000 		.4byte	.LVL132
 11489 0659 0100     		.2byte	0x1
 11490 065b 50       		.byte	0x50
 11491 065c 98020000 		.4byte	.LVL137
 11492 0660 A0020000 		.4byte	.LVL138
 11493 0664 0100     		.2byte	0x1
 11494 0666 50       		.byte	0x50
 11495 0667 00000000 		.4byte	0
 11496 066b 00000000 		.4byte	0
 11497              	.LLST21:
 11498 066f 1E000000 		.4byte	.LVL56
 11499 0673 46000000 		.4byte	.LVL62
 11500 0677 0100     		.2byte	0x1
 11501 0679 56       		.byte	0x56
 11502 067a 52000000 		.4byte	.LVL66
 11503 067e AA000000 		.4byte	.LVL78
 11504 0682 0100     		.2byte	0x1
 11505 0684 56       		.byte	0x56
 11506 0685 88010000 		.4byte	.LVL107
 11507 0689 A8020000 		.4byte	.LVL140
 11508 068d 0100     		.2byte	0x1
 11509 068f 56       		.byte	0x56
 11510 0690 AC020000 		.4byte	.LVL141
 11511 0694 B4020000 		.4byte	.LVL143
 11512 0698 0100     		.2byte	0x1
 11513 069a 56       		.byte	0x56
 11514 069b B8020000 		.4byte	.LVL144
 11515 069f BC020000 		.4byte	.LVL145
 11516 06a3 0100     		.2byte	0x1
ARM GAS  C:\Users\jo\AppData\Local\Temp\ccRMLSMa.s 			page 204


 11517 06a5 56       		.byte	0x56
 11518 06a6 00000000 		.4byte	0
 11519 06aa 00000000 		.4byte	0
 11520              	.LLST22:
 11521 06ae 58000000 		.4byte	.LVL67
 11522 06b2 94000000 		.4byte	.LVL74
 11523 06b6 0100     		.2byte	0x1
 11524 06b8 57       		.byte	0x57
 11525 06b9 88010000 		.4byte	.LVL107
 11526 06bd D6010000 		.4byte	.LVL118
 11527 06c1 0100     		.2byte	0x1
 11528 06c3 57       		.byte	0x57
 11529 06c4 B0020000 		.4byte	.LVL142
 11530 06c8 B4020000 		.4byte	.LVL143
 11531 06cc 0100     		.2byte	0x1
 11532 06ce 57       		.byte	0x57
 11533 06cf 00000000 		.4byte	0
 11534 06d3 00000000 		.4byte	0
 11535              	.LLST23:
 11536 06d7 B2010000 		.4byte	.LVL112
 11537 06db A8020000 		.4byte	.LVL140
 11538 06df 0100     		.2byte	0x1
 11539 06e1 54       		.byte	0x54
 11540 06e2 00000000 		.4byte	0
 11541 06e6 00000000 		.4byte	0
 11542              	.LLST24:
 11543 06ea 9C000000 		.4byte	.LVL75
 11544 06ee 56010000 		.4byte	.LVL99
 11545 06f2 0400     		.2byte	0x4
 11546 06f4 91       		.byte	0x91
 11547 06f5 EC7D     		.sleb128 -276
 11548 06f7 9F       		.byte	0x9f
 11549 06f8 7A010000 		.4byte	.LVL104
 11550 06fc 88010000 		.4byte	.LVL107
 11551 0700 0400     		.2byte	0x4
 11552 0702 91       		.byte	0x91
 11553 0703 EC7D     		.sleb128 -276
 11554 0705 9F       		.byte	0x9f
 11555 0706 BC020000 		.4byte	.LVL145
 11556 070a D8020000 		.4byte	.LFE19
 11557 070e 0400     		.2byte	0x4
 11558 0710 91       		.byte	0x91
 11559 0711 EC7D     		.sleb128 -276
 11560 0713 9F       		.byte	0x9f
 11561 0714 00000000 		.4byte	0
 11562 0718 00000000 		.4byte	0
 11563              	.LLST25:
 11564 071c 9C000000 		.4byte	.LVL75
 11565 0720 50010000 		.4byte	.LVL97
 11566 0724 0400     		.2byte	0x4
 11567 0726 91       		.byte	0x91
 11568 0727 F07D     		.sleb128 -272
 11569 0729 9F       		.byte	0x9f
 11570 072a 50010000 		.4byte	.LVL97
 11571 072e 53010000 		.4byte	.LVL98-1
 11572 0732 0100     		.2byte	0x1
 11573 0734 50       		.byte	0x50
ARM GAS  C:\Users\jo\AppData\Local\Temp\ccRMLSMa.s 			page 205


 11574 0735 53010000 		.4byte	.LVL98-1
 11575 0739 56010000 		.4byte	.LVL99
 11576 073d 0400     		.2byte	0x4
 11577 073f 91       		.byte	0x91
 11578 0740 F07D     		.sleb128 -272
 11579 0742 9F       		.byte	0x9f
 11580 0743 7A010000 		.4byte	.LVL104
 11581 0747 88010000 		.4byte	.LVL107
 11582 074b 0400     		.2byte	0x4
 11583 074d 91       		.byte	0x91
 11584 074e F07D     		.sleb128 -272
 11585 0750 9F       		.byte	0x9f
 11586 0751 BC020000 		.4byte	.LVL145
 11587 0755 D8020000 		.4byte	.LFE19
 11588 0759 0400     		.2byte	0x4
 11589 075b 91       		.byte	0x91
 11590 075c F07D     		.sleb128 -272
 11591 075e 9F       		.byte	0x9f
 11592 075f 00000000 		.4byte	0
 11593 0763 00000000 		.4byte	0
 11594              	.LLST26:
 11595 0767 46000000 		.4byte	.LVL62
 11596 076b 4E000000 		.4byte	.LVL65
 11597 076f 0100     		.2byte	0x1
 11598 0771 54       		.byte	0x54
 11599 0772 9C000000 		.4byte	.LVL75
 11600 0776 C4000000 		.4byte	.LVL83
 11601 077a 0200     		.2byte	0x2
 11602 077c 30       		.byte	0x30
 11603 077d 9F       		.byte	0x9f
 11604 077e C4000000 		.4byte	.LVL83
 11605 0782 DC000000 		.4byte	.LVL84
 11606 0786 0100     		.2byte	0x1
 11607 0788 50       		.byte	0x50
 11608 0789 DC000000 		.4byte	.LVL84
 11609 078d 20010000 		.4byte	.LVL91
 11610 0791 0100     		.2byte	0x1
 11611 0793 54       		.byte	0x54
 11612 0794 3A010000 		.4byte	.LVL94
 11613 0798 56010000 		.4byte	.LVL99
 11614 079c 0200     		.2byte	0x2
 11615 079e 30       		.byte	0x30
 11616 079f 9F       		.byte	0x9f
 11617 07a0 7A010000 		.4byte	.LVL104
 11618 07a4 7C010000 		.4byte	.LVL105
 11619 07a8 0100     		.2byte	0x1
 11620 07aa 50       		.byte	0x50
 11621 07ab 7C010000 		.4byte	.LVL105
 11622 07af 88010000 		.4byte	.LVL107
 11623 07b3 0100     		.2byte	0x1
 11624 07b5 54       		.byte	0x54
 11625 07b6 BC020000 		.4byte	.LVL145
 11626 07ba D8020000 		.4byte	.LFE19
 11627 07be 0200     		.2byte	0x2
 11628 07c0 30       		.byte	0x30
 11629 07c1 9F       		.byte	0x9f
 11630 07c2 00000000 		.4byte	0
ARM GAS  C:\Users\jo\AppData\Local\Temp\ccRMLSMa.s 			page 206


 11631 07c6 00000000 		.4byte	0
 11632              	.LLST27:
 11633 07ca AA000000 		.4byte	.LVL78
 11634 07ce AE000000 		.4byte	.LVL79
 11635 07d2 0100     		.2byte	0x1
 11636 07d4 50       		.byte	0x50
 11637 07d5 AE000000 		.4byte	.LVL79
 11638 07d9 B2000000 		.4byte	.LVL80
 11639 07dd 0100     		.2byte	0x1
 11640 07df 56       		.byte	0x56
 11641 07e0 B2000000 		.4byte	.LVL80
 11642 07e4 B6000000 		.4byte	.LVL81
 11643 07e8 0300     		.2byte	0x3
 11644 07ea 76       		.byte	0x76
 11645 07eb 7F       		.sleb128 -1
 11646 07ec 9F       		.byte	0x9f
 11647 07ed B6000000 		.4byte	.LVL81
 11648 07f1 3A010000 		.4byte	.LVL94
 11649 07f5 0100     		.2byte	0x1
 11650 07f7 56       		.byte	0x56
 11651 07f8 7A010000 		.4byte	.LVL104
 11652 07fc 88010000 		.4byte	.LVL107
 11653 0800 0100     		.2byte	0x1
 11654 0802 56       		.byte	0x56
 11655 0803 00000000 		.4byte	0
 11656 0807 00000000 		.4byte	0
 11657              	.LLST28:
 11658 080b 00000000 		.4byte	.LVL146
 11659 080f 14000000 		.4byte	.LVL149
 11660 0813 0100     		.2byte	0x1
 11661 0815 50       		.byte	0x50
 11662 0816 14000000 		.4byte	.LVL149
 11663 081a 8C010000 		.4byte	.LFE25
 11664 081e 0100     		.2byte	0x1
 11665 0820 55       		.byte	0x55
 11666 0821 00000000 		.4byte	0
 11667 0825 00000000 		.4byte	0
 11668              	.LLST29:
 11669 0829 00000000 		.4byte	.LVL146
 11670 082d 12000000 		.4byte	.LVL148
 11671 0831 0100     		.2byte	0x1
 11672 0833 51       		.byte	0x51
 11673 0834 12000000 		.4byte	.LVL148
 11674 0838 19000000 		.4byte	.LVL151-1
 11675 083c 0200     		.2byte	0x2
 11676 083e 76       		.byte	0x76
 11677 083f 00       		.sleb128 0
 11678 0840 19000000 		.4byte	.LVL151-1
 11679 0844 8C010000 		.4byte	.LFE25
 11680 0848 0400     		.2byte	0x4
 11681 084a F3       		.byte	0xf3
 11682 084b 01       		.uleb128 0x1
 11683 084c 51       		.byte	0x51
 11684 084d 9F       		.byte	0x9f
 11685 084e 00000000 		.4byte	0
 11686 0852 00000000 		.4byte	0
 11687              	.LLST30:
ARM GAS  C:\Users\jo\AppData\Local\Temp\ccRMLSMa.s 			page 207


 11688 0856 00000000 		.4byte	.LVL146
 11689 085a 16000000 		.4byte	.LVL150
 11690 085e 0100     		.2byte	0x1
 11691 0860 52       		.byte	0x52
 11692 0861 16000000 		.4byte	.LVL150
 11693 0865 8C010000 		.4byte	.LFE25
 11694 0869 0400     		.2byte	0x4
 11695 086b F3       		.byte	0xf3
 11696 086c 01       		.uleb128 0x1
 11697 086d 52       		.byte	0x52
 11698 086e 9F       		.byte	0x9f
 11699 086f 00000000 		.4byte	0
 11700 0873 00000000 		.4byte	0
 11701              	.LLST31:
 11702 0877 1A000000 		.4byte	.LVL151
 11703 087b 20000000 		.4byte	.LVL153
 11704 087f 0100     		.2byte	0x1
 11705 0881 50       		.byte	0x50
 11706 0882 26000000 		.4byte	.LVL154
 11707 0886 30000000 		.4byte	.LVL156
 11708 088a 0100     		.2byte	0x1
 11709 088c 50       		.byte	0x50
 11710 088d 36000000 		.4byte	.LVL157
 11711 0891 42000000 		.4byte	.LVL158
 11712 0895 0100     		.2byte	0x1
 11713 0897 50       		.byte	0x50
 11714 0898 4C000000 		.4byte	.LVL159
 11715 089c 56000000 		.4byte	.LVL160
 11716 08a0 0100     		.2byte	0x1
 11717 08a2 50       		.byte	0x50
 11718 08a3 5E000000 		.4byte	.LVL161
 11719 08a7 72000000 		.4byte	.LVL163
 11720 08ab 0100     		.2byte	0x1
 11721 08ad 50       		.byte	0x50
 11722 08ae 72000000 		.4byte	.LVL163
 11723 08b2 7C000000 		.4byte	.LVL164
 11724 08b6 0100     		.2byte	0x1
 11725 08b8 54       		.byte	0x54
 11726 08b9 7C000000 		.4byte	.LVL164
 11727 08bd 8A000000 		.4byte	.LVL165
 11728 08c1 0100     		.2byte	0x1
 11729 08c3 50       		.byte	0x50
 11730 08c4 8A000000 		.4byte	.LVL165
 11731 08c8 92000000 		.4byte	.LVL166
 11732 08cc 0100     		.2byte	0x1
 11733 08ce 54       		.byte	0x54
 11734 08cf 92000000 		.4byte	.LVL166
 11735 08d3 A2000000 		.4byte	.LVL167
 11736 08d7 0100     		.2byte	0x1
 11737 08d9 50       		.byte	0x50
 11738 08da B6000000 		.4byte	.LVL168
 11739 08de BA000000 		.4byte	.LVL169
 11740 08e2 0100     		.2byte	0x1
 11741 08e4 50       		.byte	0x50
 11742 08e5 C2000000 		.4byte	.LVL170
 11743 08e9 C8000000 		.4byte	.LVL171
 11744 08ed 0100     		.2byte	0x1
ARM GAS  C:\Users\jo\AppData\Local\Temp\ccRMLSMa.s 			page 208


 11745 08ef 50       		.byte	0x50
 11746 08f0 D2000000 		.4byte	.LVL173
 11747 08f4 D4000000 		.4byte	.LVL174
 11748 08f8 0100     		.2byte	0x1
 11749 08fa 50       		.byte	0x50
 11750 08fb D6000000 		.4byte	.LVL175
 11751 08ff D8000000 		.4byte	.LVL176
 11752 0903 0100     		.2byte	0x1
 11753 0905 50       		.byte	0x50
 11754 0906 D8000000 		.4byte	.LVL176
 11755 090a E2000000 		.4byte	.LVL178
 11756 090e 0100     		.2byte	0x1
 11757 0910 54       		.byte	0x54
 11758 0911 E2000000 		.4byte	.LVL178
 11759 0915 F6000000 		.4byte	.LVL180
 11760 0919 0100     		.2byte	0x1
 11761 091b 50       		.byte	0x50
 11762 091c 16010000 		.4byte	.LVL184
 11763 0920 26010000 		.4byte	.LVL187
 11764 0924 0100     		.2byte	0x1
 11765 0926 50       		.byte	0x50
 11766 0927 2E010000 		.4byte	.LVL188
 11767 092b 46010000 		.4byte	.LVL191
 11768 092f 0100     		.2byte	0x1
 11769 0931 50       		.byte	0x50
 11770 0932 60010000 		.4byte	.LVL196
 11771 0936 62010000 		.4byte	.LVL197
 11772 093a 0100     		.2byte	0x1
 11773 093c 50       		.byte	0x50
 11774 093d 68010000 		.4byte	.LVL200
 11775 0941 6C010000 		.4byte	.LVL202
 11776 0945 0100     		.2byte	0x1
 11777 0947 50       		.byte	0x50
 11778 0948 00000000 		.4byte	0
 11779 094c 00000000 		.4byte	0
 11780              	.LLST32:
 11781 0950 6E000000 		.4byte	.LVL162
 11782 0954 D2000000 		.4byte	.LVL173
 11783 0958 0200     		.2byte	0x2
 11784 095a 30       		.byte	0x30
 11785 095b 9F       		.byte	0x9f
 11786 095c E2000000 		.4byte	.LVL178
 11787 0960 8C010000 		.4byte	.LFE25
 11788 0964 0200     		.2byte	0x2
 11789 0966 30       		.byte	0x30
 11790 0967 9F       		.byte	0x9f
 11791 0968 00000000 		.4byte	0
 11792 096c 00000000 		.4byte	0
 11793              	.LLST33:
 11794 0970 0E000000 		.4byte	.LVL147
 11795 0974 12000000 		.4byte	.LVL148
 11796 0978 0600     		.2byte	0x6
 11797 097a 71       		.byte	0x71
 11798 097b 00       		.sleb128 0
 11799 097c 72       		.byte	0x72
 11800 097d 00       		.sleb128 0
 11801 097e 22       		.byte	0x22
ARM GAS  C:\Users\jo\AppData\Local\Temp\ccRMLSMa.s 			page 209


 11802 097f 9F       		.byte	0x9f
 11803 0980 12000000 		.4byte	.LVL148
 11804 0984 19000000 		.4byte	.LVL151-1
 11805 0988 0100     		.2byte	0x1
 11806 098a 51       		.byte	0x51
 11807 098b 19000000 		.4byte	.LVL151-1
 11808 098f 1C000000 		.4byte	.LVL152
 11809 0993 0800     		.2byte	0x8
 11810 0995 F3       		.byte	0xf3
 11811 0996 01       		.uleb128 0x1
 11812 0997 51       		.byte	0x51
 11813 0998 F3       		.byte	0xf3
 11814 0999 01       		.uleb128 0x1
 11815 099a 52       		.byte	0x52
 11816 099b 22       		.byte	0x22
 11817 099c 9F       		.byte	0x9f
 11818 099d 26000000 		.4byte	.LVL154
 11819 09a1 2C000000 		.4byte	.LVL155
 11820 09a5 0800     		.2byte	0x8
 11821 09a7 F3       		.byte	0xf3
 11822 09a8 01       		.uleb128 0x1
 11823 09a9 51       		.byte	0x51
 11824 09aa F3       		.byte	0xf3
 11825 09ab 01       		.uleb128 0x1
 11826 09ac 52       		.byte	0x52
 11827 09ad 22       		.byte	0x22
 11828 09ae 9F       		.byte	0x9f
 11829 09af 2C000000 		.4byte	.LVL155
 11830 09b3 8C010000 		.4byte	.LFE25
 11831 09b7 0100     		.2byte	0x1
 11832 09b9 57       		.byte	0x57
 11833 09ba 00000000 		.4byte	0
 11834 09be 00000000 		.4byte	0
 11835              	.LLST34:
 11836 09c2 24010000 		.4byte	.LVL186
 11837 09c6 42010000 		.4byte	.LVL190
 11838 09ca 0100     		.2byte	0x1
 11839 09cc 54       		.byte	0x54
 11840 09cd 60010000 		.4byte	.LVL196
 11841 09d1 64010000 		.4byte	.LVL198
 11842 09d5 0100     		.2byte	0x1
 11843 09d7 54       		.byte	0x54
 11844 09d8 00000000 		.4byte	0
 11845 09dc 00000000 		.4byte	0
 11846              	.LLST35:
 11847 09e0 EE000000 		.4byte	.LVL179
 11848 09e4 10010000 		.4byte	.LVL183
 11849 09e8 0300     		.2byte	0x3
 11850 09ea 91       		.byte	0x91
 11851 09eb 5C       		.sleb128 -36
 11852 09ec 9F       		.byte	0x9f
 11853 09ed 10010000 		.4byte	.LVL183
 11854 09f1 15010000 		.4byte	.LVL184-1
 11855 09f5 0100     		.2byte	0x1
 11856 09f7 50       		.byte	0x50
 11857 09f8 15010000 		.4byte	.LVL184-1
 11858 09fc 1E010000 		.4byte	.LVL185
ARM GAS  C:\Users\jo\AppData\Local\Temp\ccRMLSMa.s 			page 210


 11859 0a00 0300     		.2byte	0x3
 11860 0a02 91       		.byte	0x91
 11861 0a03 5C       		.sleb128 -36
 11862 0a04 9F       		.byte	0x9f
 11863 0a05 58010000 		.4byte	.LVL194
 11864 0a09 60010000 		.4byte	.LVL196
 11865 0a0d 0300     		.2byte	0x3
 11866 0a0f 91       		.byte	0x91
 11867 0a10 5C       		.sleb128 -36
 11868 0a11 9F       		.byte	0x9f
 11869 0a12 64010000 		.4byte	.LVL198
 11870 0a16 6C010000 		.4byte	.LVL202
 11871 0a1a 0300     		.2byte	0x3
 11872 0a1c 91       		.byte	0x91
 11873 0a1d 5C       		.sleb128 -36
 11874 0a1e 9F       		.byte	0x9f
 11875 0a1f 00000000 		.4byte	0
 11876 0a23 00000000 		.4byte	0
 11877              	.LLST36:
 11878 0a27 EE000000 		.4byte	.LVL179
 11879 0a2b 0E010000 		.4byte	.LVL182
 11880 0a2f 0100     		.2byte	0x1
 11881 0a31 54       		.byte	0x54
 11882 0a32 58010000 		.4byte	.LVL194
 11883 0a36 5C010000 		.4byte	.LVL195
 11884 0a3a 0100     		.2byte	0x1
 11885 0a3c 54       		.byte	0x54
 11886 0a3d 64010000 		.4byte	.LVL198
 11887 0a41 66010000 		.4byte	.LVL199
 11888 0a45 0100     		.2byte	0x1
 11889 0a47 54       		.byte	0x54
 11890 0a48 68010000 		.4byte	.LVL200
 11891 0a4c 6A010000 		.4byte	.LVL201
 11892 0a50 0100     		.2byte	0x1
 11893 0a52 54       		.byte	0x54
 11894 0a53 6A010000 		.4byte	.LVL201
 11895 0a57 6C010000 		.4byte	.LVL202
 11896 0a5b 0700     		.2byte	0x7
 11897 0a5d 72       		.byte	0x72
 11898 0a5e 00       		.sleb128 0
 11899 0a5f 91       		.byte	0x91
 11900 0a60 54       		.sleb128 -44
 11901 0a61 06       		.byte	0x6
 11902 0a62 22       		.byte	0x22
 11903 0a63 9F       		.byte	0x9f
 11904 0a64 00000000 		.4byte	0
 11905 0a68 00000000 		.4byte	0
 11906              	.LLST37:
 11907 0a6c EE000000 		.4byte	.LVL179
 11908 0a70 1E010000 		.4byte	.LVL185
 11909 0a74 0300     		.2byte	0x3
 11910 0a76 91       		.byte	0x91
 11911 0a77 58       		.sleb128 -40
 11912 0a78 9F       		.byte	0x9f
 11913 0a79 58010000 		.4byte	.LVL194
 11914 0a7d 60010000 		.4byte	.LVL196
 11915 0a81 0300     		.2byte	0x3
ARM GAS  C:\Users\jo\AppData\Local\Temp\ccRMLSMa.s 			page 211


 11916 0a83 91       		.byte	0x91
 11917 0a84 58       		.sleb128 -40
 11918 0a85 9F       		.byte	0x9f
 11919 0a86 64010000 		.4byte	.LVL198
 11920 0a8a 6C010000 		.4byte	.LVL202
 11921 0a8e 0300     		.2byte	0x3
 11922 0a90 91       		.byte	0x91
 11923 0a91 58       		.sleb128 -40
 11924 0a92 9F       		.byte	0x9f
 11925 0a93 00000000 		.4byte	0
 11926 0a97 00000000 		.4byte	0
 11927              	.LLST38:
 11928 0a9b FE000000 		.4byte	.LVL181
 11929 0a9f 10010000 		.4byte	.LVL183
 11930 0aa3 0100     		.2byte	0x1
 11931 0aa5 50       		.byte	0x50
 11932 0aa6 58010000 		.4byte	.LVL194
 11933 0aaa 60010000 		.4byte	.LVL196
 11934 0aae 0100     		.2byte	0x1
 11935 0ab0 50       		.byte	0x50
 11936 0ab1 64010000 		.4byte	.LVL198
 11937 0ab5 68010000 		.4byte	.LVL200
 11938 0ab9 0100     		.2byte	0x1
 11939 0abb 50       		.byte	0x50
 11940 0abc 00000000 		.4byte	0
 11941 0ac0 00000000 		.4byte	0
 11942              	.LLST39:
 11943 0ac4 3E010000 		.4byte	.LVL189
 11944 0ac8 58010000 		.4byte	.LVL194
 11945 0acc 0100     		.2byte	0x1
 11946 0ace 55       		.byte	0x55
 11947 0acf 6C010000 		.4byte	.LVL202
 11948 0ad3 8C010000 		.4byte	.LFE25
 11949 0ad7 0100     		.2byte	0x1
 11950 0ad9 55       		.byte	0x55
 11951 0ada 00000000 		.4byte	0
 11952 0ade 00000000 		.4byte	0
 11953              	.LLST40:
 11954 0ae2 3E010000 		.4byte	.LVL189
 11955 0ae6 58010000 		.4byte	.LVL194
 11956 0aea 0100     		.2byte	0x1
 11957 0aec 56       		.byte	0x56
 11958 0aed 6C010000 		.4byte	.LVL202
 11959 0af1 8C010000 		.4byte	.LFE25
 11960 0af5 0100     		.2byte	0x1
 11961 0af7 56       		.byte	0x56
 11962 0af8 00000000 		.4byte	0
 11963 0afc 00000000 		.4byte	0
 11964              	.LLST41:
 11965 0b00 3E010000 		.4byte	.LVL189
 11966 0b04 58010000 		.4byte	.LVL194
 11967 0b08 0300     		.2byte	0x3
 11968 0b0a 91       		.byte	0x91
 11969 0b0b 58       		.sleb128 -40
 11970 0b0c 9F       		.byte	0x9f
 11971 0b0d 6C010000 		.4byte	.LVL202
 11972 0b11 8C010000 		.4byte	.LFE25
ARM GAS  C:\Users\jo\AppData\Local\Temp\ccRMLSMa.s 			page 212


 11973 0b15 0300     		.2byte	0x3
 11974 0b17 91       		.byte	0x91
 11975 0b18 58       		.sleb128 -40
 11976 0b19 9F       		.byte	0x9f
 11977 0b1a 00000000 		.4byte	0
 11978 0b1e 00000000 		.4byte	0
 11979              	.LLST42:
 11980 0b22 4A010000 		.4byte	.LVL192
 11981 0b26 56010000 		.4byte	.LVL193
 11982 0b2a 0100     		.2byte	0x1
 11983 0b2c 50       		.byte	0x50
 11984 0b2d 6C010000 		.4byte	.LVL202
 11985 0b31 6E010000 		.4byte	.LVL203
 11986 0b35 0100     		.2byte	0x1
 11987 0b37 50       		.byte	0x50
 11988 0b38 74010000 		.4byte	.LVL204
 11989 0b3c 8C010000 		.4byte	.LFE25
 11990 0b40 0100     		.2byte	0x1
 11991 0b42 50       		.byte	0x50
 11992 0b43 00000000 		.4byte	0
 11993 0b47 00000000 		.4byte	0
 11994              	.LLST43:
 11995 0b4b 00000000 		.4byte	.LVL205
 11996 0b4f 10000000 		.4byte	.LVL208
 11997 0b53 0100     		.2byte	0x1
 11998 0b55 50       		.byte	0x50
 11999 0b56 10000000 		.4byte	.LVL208
 12000 0b5a E8000000 		.4byte	.LFE26
 12001 0b5e 0100     		.2byte	0x1
 12002 0b60 56       		.byte	0x56
 12003 0b61 00000000 		.4byte	0
 12004 0b65 00000000 		.4byte	0
 12005              	.LLST44:
 12006 0b69 00000000 		.4byte	.LVL205
 12007 0b6d 0A000000 		.4byte	.LVL206
 12008 0b71 0100     		.2byte	0x1
 12009 0b73 51       		.byte	0x51
 12010 0b74 0A000000 		.4byte	.LVL206
 12011 0b78 1E000000 		.4byte	.LVL210
 12012 0b7c 0100     		.2byte	0x1
 12013 0b7e 54       		.byte	0x54
 12014 0b7f 1E000000 		.4byte	.LVL210
 12015 0b83 28000000 		.4byte	.LVL212
 12016 0b87 0400     		.2byte	0x4
 12017 0b89 F3       		.byte	0xf3
 12018 0b8a 01       		.uleb128 0x1
 12019 0b8b 51       		.byte	0x51
 12020 0b8c 9F       		.byte	0x9f
 12021 0b8d 28000000 		.4byte	.LVL212
 12022 0b91 3E000000 		.4byte	.LVL216
 12023 0b95 0100     		.2byte	0x1
 12024 0b97 54       		.byte	0x54
 12025 0b98 3E000000 		.4byte	.LVL216
 12026 0b9c E8000000 		.4byte	.LFE26
 12027 0ba0 0400     		.2byte	0x4
 12028 0ba2 F3       		.byte	0xf3
 12029 0ba3 01       		.uleb128 0x1
ARM GAS  C:\Users\jo\AppData\Local\Temp\ccRMLSMa.s 			page 213


 12030 0ba4 51       		.byte	0x51
 12031 0ba5 9F       		.byte	0x9f
 12032 0ba6 00000000 		.4byte	0
 12033 0baa 00000000 		.4byte	0
 12034              	.LLST45:
 12035 0bae 00000000 		.4byte	.LVL205
 12036 0bb2 0E000000 		.4byte	.LVL207
 12037 0bb6 0100     		.2byte	0x1
 12038 0bb8 52       		.byte	0x52
 12039 0bb9 0E000000 		.4byte	.LVL207
 12040 0bbd E8000000 		.4byte	.LFE26
 12041 0bc1 0400     		.2byte	0x4
 12042 0bc3 F3       		.byte	0xf3
 12043 0bc4 01       		.uleb128 0x1
 12044 0bc5 52       		.byte	0x52
 12045 0bc6 9F       		.byte	0x9f
 12046 0bc7 00000000 		.4byte	0
 12047 0bcb 00000000 		.4byte	0
 12048              	.LLST46:
 12049 0bcf 1C000000 		.4byte	.LVL209
 12050 0bd3 22000000 		.4byte	.LVL211
 12051 0bd7 0100     		.2byte	0x1
 12052 0bd9 50       		.byte	0x50
 12053 0bda 28000000 		.4byte	.LVL212
 12054 0bde 32000000 		.4byte	.LVL214
 12055 0be2 0100     		.2byte	0x1
 12056 0be4 50       		.byte	0x50
 12057 0be5 38000000 		.4byte	.LVL215
 12058 0be9 44000000 		.4byte	.LVL217
 12059 0bed 0100     		.2byte	0x1
 12060 0bef 50       		.byte	0x50
 12061 0bf0 48000000 		.4byte	.LVL218
 12062 0bf4 4C000000 		.4byte	.LVL219
 12063 0bf8 0100     		.2byte	0x1
 12064 0bfa 50       		.byte	0x50
 12065 0bfb 56000000 		.4byte	.LVL220
 12066 0bff 5C000000 		.4byte	.LVL221
 12067 0c03 0100     		.2byte	0x1
 12068 0c05 50       		.byte	0x50
 12069 0c06 66000000 		.4byte	.LVL222
 12070 0c0a 72000000 		.4byte	.LVL223
 12071 0c0e 0100     		.2byte	0x1
 12072 0c10 50       		.byte	0x50
 12073 0c11 80000000 		.4byte	.LVL226
 12074 0c15 92000000 		.4byte	.LVL227
 12075 0c19 0100     		.2byte	0x1
 12076 0c1b 50       		.byte	0x50
 12077 0c1c 98000000 		.4byte	.LVL228
 12078 0c20 9E000000 		.4byte	.LVL230
 12079 0c24 0100     		.2byte	0x1
 12080 0c26 50       		.byte	0x50
 12081 0c27 9E000000 		.4byte	.LVL230
 12082 0c2b A6000000 		.4byte	.LVL231
 12083 0c2f 0100     		.2byte	0x1
 12084 0c31 55       		.byte	0x55
 12085 0c32 A6000000 		.4byte	.LVL231
 12086 0c36 AE000000 		.4byte	.LVL232
ARM GAS  C:\Users\jo\AppData\Local\Temp\ccRMLSMa.s 			page 214


 12087 0c3a 0100     		.2byte	0x1
 12088 0c3c 50       		.byte	0x50
 12089 0c3d AE000000 		.4byte	.LVL232
 12090 0c41 B6000000 		.4byte	.LVL234
 12091 0c45 0100     		.2byte	0x1
 12092 0c47 55       		.byte	0x55
 12093 0c48 B6000000 		.4byte	.LVL234
 12094 0c4c BA000000 		.4byte	.LVL235
 12095 0c50 0100     		.2byte	0x1
 12096 0c52 50       		.byte	0x50
 12097 0c53 BE000000 		.4byte	.LVL236
 12098 0c57 C4000000 		.4byte	.LVL237
 12099 0c5b 0100     		.2byte	0x1
 12100 0c5d 50       		.byte	0x50
 12101 0c5e CC000000 		.4byte	.LVL238
 12102 0c62 D6000000 		.4byte	.LVL239
 12103 0c66 0100     		.2byte	0x1
 12104 0c68 50       		.byte	0x50
 12105 0c69 D6000000 		.4byte	.LVL239
 12106 0c6d E8000000 		.4byte	.LFE26
 12107 0c71 0100     		.2byte	0x1
 12108 0c73 54       		.byte	0x54
 12109 0c74 00000000 		.4byte	0
 12110 0c78 00000000 		.4byte	0
 12111              	.LLST47:
 12112 0c7c 2E000000 		.4byte	.LVL213
 12113 0c80 9A000000 		.4byte	.LVL229
 12114 0c84 0100     		.2byte	0x1
 12115 0c86 55       		.byte	0x55
 12116 0c87 B6000000 		.4byte	.LVL234
 12117 0c8b E8000000 		.4byte	.LFE26
 12118 0c8f 0100     		.2byte	0x1
 12119 0c91 55       		.byte	0x55
 12120 0c92 00000000 		.4byte	0
 12121 0c96 00000000 		.4byte	0
 12122              	.LLST48:
 12123 0c9a 76000000 		.4byte	.LVL224
 12124 0c9e 7C000000 		.4byte	.LVL225
 12125 0ca2 0100     		.2byte	0x1
 12126 0ca4 50       		.byte	0x50
 12127 0ca5 7C000000 		.4byte	.LVL225
 12128 0ca9 7F000000 		.4byte	.LVL226-1
 12129 0cad 0100     		.2byte	0x1
 12130 0caf 51       		.byte	0x51
 12131 0cb0 00000000 		.4byte	0
 12132 0cb4 00000000 		.4byte	0
 12133              	.LLST49:
 12134 0cb8 00000000 		.4byte	.LVL241
 12135 0cbc 14000000 		.4byte	.LVL244
 12136 0cc0 0100     		.2byte	0x1
 12137 0cc2 50       		.byte	0x50
 12138 0cc3 14000000 		.4byte	.LVL244
 12139 0cc7 2A010000 		.4byte	.LVL276
 12140 0ccb 0100     		.2byte	0x1
 12141 0ccd 55       		.byte	0x55
 12142 0cce 2A010000 		.4byte	.LVL276
 12143 0cd2 44010000 		.4byte	.LFE27
ARM GAS  C:\Users\jo\AppData\Local\Temp\ccRMLSMa.s 			page 215


 12144 0cd6 0400     		.2byte	0x4
 12145 0cd8 F3       		.byte	0xf3
 12146 0cd9 01       		.uleb128 0x1
 12147 0cda 50       		.byte	0x50
 12148 0cdb 9F       		.byte	0x9f
 12149 0cdc 00000000 		.4byte	0
 12150 0ce0 00000000 		.4byte	0
 12151              	.LLST50:
 12152 0ce4 00000000 		.4byte	.LVL241
 12153 0ce8 0C000000 		.4byte	.LVL242
 12154 0cec 0100     		.2byte	0x1
 12155 0cee 51       		.byte	0x51
 12156 0cef 0C000000 		.4byte	.LVL242
 12157 0cf3 2A010000 		.4byte	.LVL276
 12158 0cf7 0100     		.2byte	0x1
 12159 0cf9 54       		.byte	0x54
 12160 0cfa 2A010000 		.4byte	.LVL276
 12161 0cfe 44010000 		.4byte	.LFE27
 12162 0d02 0400     		.2byte	0x4
 12163 0d04 F3       		.byte	0xf3
 12164 0d05 01       		.uleb128 0x1
 12165 0d06 51       		.byte	0x51
 12166 0d07 9F       		.byte	0x9f
 12167 0d08 00000000 		.4byte	0
 12168 0d0c 00000000 		.4byte	0
 12169              	.LLST51:
 12170 0d10 00000000 		.4byte	.LVL241
 12171 0d14 12000000 		.4byte	.LVL243
 12172 0d18 0100     		.2byte	0x1
 12173 0d1a 52       		.byte	0x52
 12174 0d1b 12000000 		.4byte	.LVL243
 12175 0d1f 36000000 		.4byte	.LVL248
 12176 0d23 0100     		.2byte	0x1
 12177 0d25 56       		.byte	0x56
 12178 0d26 36000000 		.4byte	.LVL248
 12179 0d2a 0A010000 		.4byte	.LVL267
 12180 0d2e 0400     		.2byte	0x4
 12181 0d30 F3       		.byte	0xf3
 12182 0d31 01       		.uleb128 0x1
 12183 0d32 52       		.byte	0x52
 12184 0d33 9F       		.byte	0x9f
 12185 0d34 0A010000 		.4byte	.LVL267
 12186 0d38 0E010000 		.4byte	.LVL268
 12187 0d3c 0100     		.2byte	0x1
 12188 0d3e 56       		.byte	0x56
 12189 0d3f 0E010000 		.4byte	.LVL268
 12190 0d43 44010000 		.4byte	.LFE27
 12191 0d47 0400     		.2byte	0x4
 12192 0d49 F3       		.byte	0xf3
 12193 0d4a 01       		.uleb128 0x1
 12194 0d4b 52       		.byte	0x52
 12195 0d4c 9F       		.byte	0x9f
 12196 0d4d 00000000 		.4byte	0
 12197 0d51 00000000 		.4byte	0
 12198              	.LLST52:
 12199 0d55 00000000 		.4byte	.LVL241
 12200 0d59 19000000 		.4byte	.LVL245-1
ARM GAS  C:\Users\jo\AppData\Local\Temp\ccRMLSMa.s 			page 216


 12201 0d5d 0100     		.2byte	0x1
 12202 0d5f 53       		.byte	0x53
 12203 0d60 19000000 		.4byte	.LVL245-1
 12204 0d64 2A010000 		.4byte	.LVL276
 12205 0d68 0100     		.2byte	0x1
 12206 0d6a 57       		.byte	0x57
 12207 0d6b 2A010000 		.4byte	.LVL276
 12208 0d6f 44010000 		.4byte	.LFE27
 12209 0d73 0400     		.2byte	0x4
 12210 0d75 F3       		.byte	0xf3
 12211 0d76 01       		.uleb128 0x1
 12212 0d77 53       		.byte	0x53
 12213 0d78 9F       		.byte	0x9f
 12214 0d79 00000000 		.4byte	0
 12215 0d7d 00000000 		.4byte	0
 12216              	.LLST53:
 12217 0d81 00000000 		.4byte	.LVL241
 12218 0d85 2A010000 		.4byte	.LVL276
 12219 0d89 0200     		.2byte	0x2
 12220 0d8b 91       		.byte	0x91
 12221 0d8c 00       		.sleb128 0
 12222 0d8d 2A010000 		.4byte	.LVL276
 12223 0d91 44010000 		.4byte	.LFE27
 12224 0d95 0200     		.2byte	0x2
 12225 0d97 7D       		.byte	0x7d
 12226 0d98 00       		.sleb128 0
 12227 0d99 00000000 		.4byte	0
 12228 0d9d 00000000 		.4byte	0
 12229              	.LLST54:
 12230 0da1 30000000 		.4byte	.LVL247
 12231 0da5 40000000 		.4byte	.LVL250
 12232 0da9 0100     		.2byte	0x1
 12233 0dab 50       		.byte	0x50
 12234 0dac 44000000 		.4byte	.LVL251
 12235 0db0 4A000000 		.4byte	.LVL252
 12236 0db4 0100     		.2byte	0x1
 12237 0db6 50       		.byte	0x50
 12238 0db7 52000000 		.4byte	.LVL253
 12239 0dbb 58000000 		.4byte	.LVL255
 12240 0dbf 0100     		.2byte	0x1
 12241 0dc1 50       		.byte	0x50
 12242 0dc2 58000000 		.4byte	.LVL255
 12243 0dc6 5A000000 		.4byte	.LVL256
 12244 0dca 0500     		.2byte	0x5
 12245 0dcc 70       		.byte	0x70
 12246 0dcd 80DA00   		.sleb128 11520
 12247 0dd0 9F       		.byte	0x9f
 12248 0dd1 5A000000 		.4byte	.LVL256
 12249 0dd5 6C000000 		.4byte	.LVL257
 12250 0dd9 0100     		.2byte	0x1
 12251 0ddb 50       		.byte	0x50
 12252 0ddc 96000000 		.4byte	.LVL260
 12253 0de0 A2000000 		.4byte	.LVL261
 12254 0de4 0100     		.2byte	0x1
 12255 0de6 50       		.byte	0x50
 12256 0de7 CC000000 		.4byte	.LVL263
 12257 0deb D8000000 		.4byte	.LVL264
ARM GAS  C:\Users\jo\AppData\Local\Temp\ccRMLSMa.s 			page 217


 12258 0def 0100     		.2byte	0x1
 12259 0df1 50       		.byte	0x50
 12260 0df2 00010000 		.4byte	.LVL266
 12261 0df6 0A010000 		.4byte	.LVL267
 12262 0dfa 0100     		.2byte	0x1
 12263 0dfc 50       		.byte	0x50
 12264 0dfd 0E010000 		.4byte	.LVL268
 12265 0e01 10010000 		.4byte	.LVL269
 12266 0e05 0100     		.2byte	0x1
 12267 0e07 50       		.byte	0x50
 12268 0e08 12010000 		.4byte	.LVL270
 12269 0e0c 14010000 		.4byte	.LVL271
 12270 0e10 0100     		.2byte	0x1
 12271 0e12 50       		.byte	0x50
 12272 0e13 1A010000 		.4byte	.LVL273
 12273 0e17 1C010000 		.4byte	.LVL274
 12274 0e1b 0100     		.2byte	0x1
 12275 0e1d 50       		.byte	0x50
 12276 0e1e 00000000 		.4byte	0
 12277 0e22 00000000 		.4byte	0
 12278              	.LLST55:
 12279 0e26 00000000 		.4byte	.LVL241
 12280 0e2a 1A010000 		.4byte	.LVL273
 12281 0e2e 0200     		.2byte	0x2
 12282 0e30 30       		.byte	0x30
 12283 0e31 9F       		.byte	0x9f
 12284 0e32 00000000 		.4byte	0
 12285 0e36 00000000 		.4byte	0
 12286              	.LLST56:
 12287 0e3a 22000000 		.4byte	.LVL246
 12288 0e3e 2F000000 		.4byte	.LVL247-1
 12289 0e42 0100     		.2byte	0x1
 12290 0e44 51       		.byte	0x51
 12291 0e45 2F000000 		.4byte	.LVL247-1
 12292 0e49 36000000 		.4byte	.LVL248
 12293 0e4d 0600     		.2byte	0x6
 12294 0e4f 74       		.byte	0x74
 12295 0e50 00       		.sleb128 0
 12296 0e51 76       		.byte	0x76
 12297 0e52 00       		.sleb128 0
 12298 0e53 22       		.byte	0x22
 12299 0e54 9F       		.byte	0x9f
 12300 0e55 36000000 		.4byte	.LVL248
 12301 0e59 38000000 		.4byte	.LVL249
 12302 0e5d 0700     		.2byte	0x7
 12303 0e5f 74       		.byte	0x74
 12304 0e60 00       		.sleb128 0
 12305 0e61 F3       		.byte	0xf3
 12306 0e62 01       		.uleb128 0x1
 12307 0e63 52       		.byte	0x52
 12308 0e64 22       		.byte	0x22
 12309 0e65 9F       		.byte	0x9f
 12310 0e66 38000000 		.4byte	.LVL249
 12311 0e6a 54000000 		.4byte	.LVL254
 12312 0e6e 0100     		.2byte	0x1
 12313 0e70 56       		.byte	0x56
 12314 0e71 5A000000 		.4byte	.LVL256
ARM GAS  C:\Users\jo\AppData\Local\Temp\ccRMLSMa.s 			page 218


 12315 0e75 7E000000 		.4byte	.LVL259
 12316 0e79 0100     		.2byte	0x1
 12317 0e7b 56       		.byte	0x56
 12318 0e7c A2000000 		.4byte	.LVL261
 12319 0e80 0A010000 		.4byte	.LVL267
 12320 0e84 0100     		.2byte	0x1
 12321 0e86 56       		.byte	0x56
 12322 0e87 0A010000 		.4byte	.LVL267
 12323 0e8b 0E010000 		.4byte	.LVL268
 12324 0e8f 0100     		.2byte	0x1
 12325 0e91 51       		.byte	0x51
 12326 0e92 0E010000 		.4byte	.LVL268
 12327 0e96 12010000 		.4byte	.LVL270
 12328 0e9a 0100     		.2byte	0x1
 12329 0e9c 56       		.byte	0x56
 12330 0e9d 16010000 		.4byte	.LVL272
 12331 0ea1 1A010000 		.4byte	.LVL273
 12332 0ea5 0100     		.2byte	0x1
 12333 0ea7 56       		.byte	0x56
 12334 0ea8 00000000 		.4byte	0
 12335 0eac 00000000 		.4byte	0
 12336              	.LLST57:
 12337 0eb0 00000000 		.4byte	.LVL277
 12338 0eb4 0B000000 		.4byte	.LVL279-1
 12339 0eb8 0100     		.2byte	0x1
 12340 0eba 50       		.byte	0x50
 12341 0ebb 0B000000 		.4byte	.LVL279-1
 12342 0ebf 8C000000 		.4byte	.LFE12
 12343 0ec3 0400     		.2byte	0x4
 12344 0ec5 F3       		.byte	0xf3
 12345 0ec6 01       		.uleb128 0x1
 12346 0ec7 50       		.byte	0x50
 12347 0ec8 9F       		.byte	0x9f
 12348 0ec9 00000000 		.4byte	0
 12349 0ecd 00000000 		.4byte	0
 12350              	.LLST58:
 12351 0ed1 00000000 		.4byte	.LVL277
 12352 0ed5 06000000 		.4byte	.LVL278
 12353 0ed9 0100     		.2byte	0x1
 12354 0edb 51       		.byte	0x51
 12355 0edc 06000000 		.4byte	.LVL278
 12356 0ee0 80000000 		.4byte	.LVL298
 12357 0ee4 0100     		.2byte	0x1
 12358 0ee6 57       		.byte	0x57
 12359 0ee7 80000000 		.4byte	.LVL298
 12360 0eeb 8C000000 		.4byte	.LFE12
 12361 0eef 0400     		.2byte	0x4
 12362 0ef1 F3       		.byte	0xf3
 12363 0ef2 01       		.uleb128 0x1
 12364 0ef3 51       		.byte	0x51
 12365 0ef4 9F       		.byte	0x9f
 12366 0ef5 00000000 		.4byte	0
 12367 0ef9 00000000 		.4byte	0
 12368              	.LLST59:
 12369 0efd 00000000 		.4byte	.LVL277
 12370 0f01 0B000000 		.4byte	.LVL279-1
 12371 0f05 0100     		.2byte	0x1
ARM GAS  C:\Users\jo\AppData\Local\Temp\ccRMLSMa.s 			page 219


 12372 0f07 52       		.byte	0x52
 12373 0f08 0B000000 		.4byte	.LVL279-1
 12374 0f0c 80000000 		.4byte	.LVL298
 12375 0f10 0100     		.2byte	0x1
 12376 0f12 56       		.byte	0x56
 12377 0f13 80000000 		.4byte	.LVL298
 12378 0f17 8C000000 		.4byte	.LFE12
 12379 0f1b 0400     		.2byte	0x4
 12380 0f1d F3       		.byte	0xf3
 12381 0f1e 01       		.uleb128 0x1
 12382 0f1f 52       		.byte	0x52
 12383 0f20 9F       		.byte	0x9f
 12384 0f21 00000000 		.4byte	0
 12385 0f25 00000000 		.4byte	0
 12386              	.LLST60:
 12387 0f29 0C000000 		.4byte	.LVL279
 12388 0f2d 17000000 		.4byte	.LVL280-1
 12389 0f31 0100     		.2byte	0x1
 12390 0f33 50       		.byte	0x50
 12391 0f34 17000000 		.4byte	.LVL280-1
 12392 0f38 5A000000 		.4byte	.LVL288
 12393 0f3c 0100     		.2byte	0x1
 12394 0f3e 54       		.byte	0x54
 12395 0f3f 5A000000 		.4byte	.LVL288
 12396 0f43 5D000000 		.4byte	.LVL289-1
 12397 0f47 0100     		.2byte	0x1
 12398 0f49 50       		.byte	0x50
 12399 0f4a 5D000000 		.4byte	.LVL289-1
 12400 0f4e 72000000 		.4byte	.LVL293
 12401 0f52 0100     		.2byte	0x1
 12402 0f54 54       		.byte	0x54
 12403 0f55 72000000 		.4byte	.LVL293
 12404 0f59 74000000 		.4byte	.LVL294
 12405 0f5d 0100     		.2byte	0x1
 12406 0f5f 50       		.byte	0x50
 12407 0f60 76000000 		.4byte	.LVL295
 12408 0f64 80000000 		.4byte	.LVL298
 12409 0f68 0100     		.2byte	0x1
 12410 0f6a 54       		.byte	0x54
 12411 0f6b 00000000 		.4byte	0
 12412 0f6f 00000000 		.4byte	0
 12413              	.LLST61:
 12414 0f73 22000000 		.4byte	.LVL282
 12415 0f77 2A000000 		.4byte	.LVL283
 12416 0f7b 0100     		.2byte	0x1
 12417 0f7d 50       		.byte	0x50
 12418 0f7e 2A000000 		.4byte	.LVL283
 12419 0f82 72000000 		.4byte	.LVL293
 12420 0f86 0100     		.2byte	0x1
 12421 0f88 55       		.byte	0x55
 12422 0f89 76000000 		.4byte	.LVL295
 12423 0f8d 78000000 		.4byte	.LVL296
 12424 0f91 0100     		.2byte	0x1
 12425 0f93 50       		.byte	0x50
 12426 0f94 78000000 		.4byte	.LVL296
 12427 0f98 80000000 		.4byte	.LVL298
 12428 0f9c 0100     		.2byte	0x1
ARM GAS  C:\Users\jo\AppData\Local\Temp\ccRMLSMa.s 			page 220


 12429 0f9e 55       		.byte	0x55
 12430 0f9f 00000000 		.4byte	0
 12431 0fa3 00000000 		.4byte	0
 12432              	.LLST62:
 12433 0fa7 00000000 		.4byte	.LVL299
 12434 0fab 17000000 		.4byte	.LVL301-1
 12435 0faf 0100     		.2byte	0x1
 12436 0fb1 50       		.byte	0x50
 12437 0fb2 17000000 		.4byte	.LVL301-1
 12438 0fb6 44010000 		.4byte	.LFE23
 12439 0fba 0100     		.2byte	0x1
 12440 0fbc 55       		.byte	0x55
 12441 0fbd 00000000 		.4byte	0
 12442 0fc1 00000000 		.4byte	0
 12443              	.LLST63:
 12444 0fc5 00000000 		.4byte	.LVL299
 12445 0fc9 17000000 		.4byte	.LVL301-1
 12446 0fcd 0100     		.2byte	0x1
 12447 0fcf 51       		.byte	0x51
 12448 0fd0 17000000 		.4byte	.LVL301-1
 12449 0fd4 1E000000 		.4byte	.LVL302
 12450 0fd8 0400     		.2byte	0x4
 12451 0fda F3       		.byte	0xf3
 12452 0fdb 01       		.uleb128 0x1
 12453 0fdc 51       		.byte	0x51
 12454 0fdd 9F       		.byte	0x9f
 12455 0fde 24000000 		.4byte	.LVL303
 12456 0fe2 2A000000 		.4byte	.LVL304
 12457 0fe6 0400     		.2byte	0x4
 12458 0fe8 F3       		.byte	0xf3
 12459 0fe9 01       		.uleb128 0x1
 12460 0fea 51       		.byte	0x51
 12461 0feb 9F       		.byte	0x9f
 12462 0fec 2A000000 		.4byte	.LVL304
 12463 0ff0 7A000000 		.4byte	.LVL313
 12464 0ff4 0100     		.2byte	0x1
 12465 0ff6 54       		.byte	0x54
 12466 0ff7 84000000 		.4byte	.LVL315
 12467 0ffb 98000000 		.4byte	.LVL321
 12468 0fff 0100     		.2byte	0x1
 12469 1001 54       		.byte	0x54
 12470 1002 CA000000 		.4byte	.LVL328
 12471 1006 D4000000 		.4byte	.LVL331
 12472 100a 0100     		.2byte	0x1
 12473 100c 54       		.byte	0x54
 12474 100d 08010000 		.4byte	.LVL342
 12475 1011 0C010000 		.4byte	.LVL344
 12476 1015 0100     		.2byte	0x1
 12477 1017 54       		.byte	0x54
 12478 1018 00000000 		.4byte	0
 12479 101c 00000000 		.4byte	0
 12480              	.LLST64:
 12481 1020 00000000 		.4byte	.LVL299
 12482 1024 0C000000 		.4byte	.LVL300
 12483 1028 0100     		.2byte	0x1
 12484 102a 52       		.byte	0x52
 12485 102b 0C000000 		.4byte	.LVL300
ARM GAS  C:\Users\jo\AppData\Local\Temp\ccRMLSMa.s 			page 221


 12486 102f 44010000 		.4byte	.LFE23
 12487 1033 0100     		.2byte	0x1
 12488 1035 56       		.byte	0x56
 12489 1036 00000000 		.4byte	0
 12490 103a 00000000 		.4byte	0
 12491              	.LLST65:
 12492 103e 18000000 		.4byte	.LVL301
 12493 1042 1E000000 		.4byte	.LVL302
 12494 1046 0100     		.2byte	0x1
 12495 1048 50       		.byte	0x50
 12496 1049 24000000 		.4byte	.LVL303
 12497 104d 30000000 		.4byte	.LVL305
 12498 1051 0100     		.2byte	0x1
 12499 1053 50       		.byte	0x50
 12500 1054 38000000 		.4byte	.LVL306
 12501 1058 40000000 		.4byte	.LVL307
 12502 105c 0100     		.2byte	0x1
 12503 105e 50       		.byte	0x50
 12504 105f 46000000 		.4byte	.LVL308
 12505 1063 56000000 		.4byte	.LVL309
 12506 1067 0100     		.2byte	0x1
 12507 1069 50       		.byte	0x50
 12508 106a 66000000 		.4byte	.LVL312
 12509 106e 7A000000 		.4byte	.LVL313
 12510 1072 0100     		.2byte	0x1
 12511 1074 50       		.byte	0x50
 12512 1075 7A000000 		.4byte	.LVL313
 12513 1079 84000000 		.4byte	.LVL315
 12514 107d 0100     		.2byte	0x1
 12515 107f 54       		.byte	0x54
 12516 1080 84000000 		.4byte	.LVL315
 12517 1084 88000000 		.4byte	.LVL316
 12518 1088 0100     		.2byte	0x1
 12519 108a 50       		.byte	0x50
 12520 108b 88000000 		.4byte	.LVL316
 12521 108f 8A000000 		.4byte	.LVL317
 12522 1093 0500     		.2byte	0x5
 12523 1095 70       		.byte	0x70
 12524 1096 80D600   		.sleb128 11008
 12525 1099 9F       		.byte	0x9f
 12526 109a 8A000000 		.4byte	.LVL317
 12527 109e 8C000000 		.4byte	.LVL318
 12528 10a2 0100     		.2byte	0x1
 12529 10a4 50       		.byte	0x50
 12530 10a5 8E000000 		.4byte	.LVL319
 12531 10a9 90000000 		.4byte	.LVL320
 12532 10ad 0100     		.2byte	0x1
 12533 10af 50       		.byte	0x50
 12534 10b0 BC000000 		.4byte	.LVL325
 12535 10b4 C0000000 		.4byte	.LVL326
 12536 10b8 0100     		.2byte	0x1
 12537 10ba 54       		.byte	0x54
 12538 10bb C0000000 		.4byte	.LVL326
 12539 10bf C6000000 		.4byte	.LVL327
 12540 10c3 0200     		.2byte	0x2
 12541 10c5 30       		.byte	0x30
 12542 10c6 9F       		.byte	0x9f
ARM GAS  C:\Users\jo\AppData\Local\Temp\ccRMLSMa.s 			page 222


 12543 10c7 CA000000 		.4byte	.LVL328
 12544 10cb CC000000 		.4byte	.LVL329
 12545 10cf 0100     		.2byte	0x1
 12546 10d1 50       		.byte	0x50
 12547 10d2 D2000000 		.4byte	.LVL330
 12548 10d6 E6000000 		.4byte	.LVL333
 12549 10da 0100     		.2byte	0x1
 12550 10dc 50       		.byte	0x50
 12551 10dd E6000000 		.4byte	.LVL333
 12552 10e1 EE000000 		.4byte	.LVL335
 12553 10e5 0100     		.2byte	0x1
 12554 10e7 54       		.byte	0x54
 12555 10e8 F2000000 		.4byte	.LVL336
 12556 10ec F4000000 		.4byte	.LVL337
 12557 10f0 0100     		.2byte	0x1
 12558 10f2 50       		.byte	0x50
 12559 10f3 FE000000 		.4byte	.LVL340
 12560 10f7 04010000 		.4byte	.LVL341
 12561 10fb 0100     		.2byte	0x1
 12562 10fd 50       		.byte	0x50
 12563 10fe 32010000 		.4byte	.LVL351
 12564 1102 34010000 		.4byte	.LVL352
 12565 1106 0200     		.2byte	0x2
 12566 1108 30       		.byte	0x30
 12567 1109 9F       		.byte	0x9f
 12568 110a 36010000 		.4byte	.LVL353
 12569 110e 44010000 		.4byte	.LFE23
 12570 1112 0400     		.2byte	0x4
 12571 1114 0B       		.byte	0xb
 12572 1115 00D5     		.2byte	0xd500
 12573 1117 9F       		.byte	0x9f
 12574 1118 00000000 		.4byte	0
 12575 111c 00000000 		.4byte	0
 12576              	.LLST66:
 12577 1120 5A000000 		.4byte	.LVL310
 12578 1124 62000000 		.4byte	.LVL311
 12579 1128 0100     		.2byte	0x1
 12580 112a 50       		.byte	0x50
 12581 112b 62000000 		.4byte	.LVL311
 12582 112f 65000000 		.4byte	.LVL312-1
 12583 1133 0100     		.2byte	0x1
 12584 1135 51       		.byte	0x51
 12585 1136 08010000 		.4byte	.LVL342
 12586 113a 0A010000 		.4byte	.LVL343
 12587 113e 0100     		.2byte	0x1
 12588 1140 50       		.byte	0x50
 12589 1141 00000000 		.4byte	0
 12590 1145 00000000 		.4byte	0
 12591              	.LLST67:
 12592 1149 98000000 		.4byte	.LVL321
 12593 114d BC000000 		.4byte	.LVL325
 12594 1151 0100     		.2byte	0x1
 12595 1153 54       		.byte	0x54
 12596 1154 0C010000 		.4byte	.LVL344
 12597 1158 36010000 		.4byte	.LVL353
 12598 115c 0100     		.2byte	0x1
 12599 115e 54       		.byte	0x54
ARM GAS  C:\Users\jo\AppData\Local\Temp\ccRMLSMa.s 			page 223


 12600 115f 36010000 		.4byte	.LVL353
 12601 1163 44010000 		.4byte	.LFE23
 12602 1167 0300     		.2byte	0x3
 12603 1169 78       		.byte	0x78
 12604 116a 78       		.sleb128 -8
 12605 116b 9F       		.byte	0x9f
 12606 116c 00000000 		.4byte	0
 12607 1170 00000000 		.4byte	0
 12608              	.LLST68:
 12609 1174 98000000 		.4byte	.LVL321
 12610 1178 9B000000 		.4byte	.LVL322-1
 12611 117c 0100     		.2byte	0x1
 12612 117e 51       		.byte	0x51
 12613 117f 9B000000 		.4byte	.LVL322-1
 12614 1183 CA000000 		.4byte	.LVL328
 12615 1187 0100     		.2byte	0x1
 12616 1189 57       		.byte	0x57
 12617 118a 0C010000 		.4byte	.LVL344
 12618 118e 44010000 		.4byte	.LFE23
 12619 1192 0100     		.2byte	0x1
 12620 1194 57       		.byte	0x57
 12621 1195 00000000 		.4byte	0
 12622 1199 00000000 		.4byte	0
 12623              	.LLST69:
 12624 119d 98000000 		.4byte	.LVL321
 12625 11a1 9B000000 		.4byte	.LVL322-1
 12626 11a5 0100     		.2byte	0x1
 12627 11a7 50       		.byte	0x50
 12628 11a8 9B000000 		.4byte	.LVL322-1
 12629 11ac CA000000 		.4byte	.LVL328
 12630 11b0 0100     		.2byte	0x1
 12631 11b2 55       		.byte	0x55
 12632 11b3 0C010000 		.4byte	.LVL344
 12633 11b7 44010000 		.4byte	.LFE23
 12634 11bb 0100     		.2byte	0x1
 12635 11bd 55       		.byte	0x55
 12636 11be 00000000 		.4byte	0
 12637 11c2 00000000 		.4byte	0
 12638              	.LLST70:
 12639 11c6 9C000000 		.4byte	.LVL322
 12640 11ca B0000000 		.4byte	.LVL323
 12641 11ce 0100     		.2byte	0x1
 12642 11d0 50       		.byte	0x50
 12643 11d1 B6000000 		.4byte	.LVL324
 12644 11d5 C0000000 		.4byte	.LVL326
 12645 11d9 0100     		.2byte	0x1
 12646 11db 50       		.byte	0x50
 12647 11dc 0C010000 		.4byte	.LVL344
 12648 11e0 0E010000 		.4byte	.LVL345
 12649 11e4 0100     		.2byte	0x1
 12650 11e6 50       		.byte	0x50
 12651 11e7 18010000 		.4byte	.LVL346
 12652 11eb 24010000 		.4byte	.LVL347
 12653 11ef 0100     		.2byte	0x1
 12654 11f1 50       		.byte	0x50
 12655 11f2 28010000 		.4byte	.LVL348
 12656 11f6 2C010000 		.4byte	.LVL349
ARM GAS  C:\Users\jo\AppData\Local\Temp\ccRMLSMa.s 			page 224


 12657 11fa 0100     		.2byte	0x1
 12658 11fc 50       		.byte	0x50
 12659 11fd 34010000 		.4byte	.LVL352
 12660 1201 44010000 		.4byte	.LFE23
 12661 1205 0100     		.2byte	0x1
 12662 1207 50       		.byte	0x50
 12663 1208 00000000 		.4byte	0
 12664 120c 00000000 		.4byte	0
 12665              	.LLST71:
 12666 1210 DC000000 		.4byte	.LVL332
 12667 1214 04010000 		.4byte	.LVL341
 12668 1218 0100     		.2byte	0x1
 12669 121a 57       		.byte	0x57
 12670 121b 00000000 		.4byte	0
 12671 121f 00000000 		.4byte	0
 12672              	.LLST72:
 12673 1223 DC000000 		.4byte	.LVL332
 12674 1227 04010000 		.4byte	.LVL341
 12675 122b 0100     		.2byte	0x1
 12676 122d 55       		.byte	0x55
 12677 122e 00000000 		.4byte	0
 12678 1232 00000000 		.4byte	0
 12679              	.LLST73:
 12680 1236 EC000000 		.4byte	.LVL334
 12681 123a F6000000 		.4byte	.LVL338
 12682 123e 0100     		.2byte	0x1
 12683 1240 50       		.byte	0x50
 12684 1241 F6000000 		.4byte	.LVL338
 12685 1245 FC000000 		.4byte	.LVL339
 12686 1249 0100     		.2byte	0x1
 12687 124b 54       		.byte	0x54
 12688 124c FC000000 		.4byte	.LVL339
 12689 1250 04010000 		.4byte	.LVL341
 12690 1254 0100     		.2byte	0x1
 12691 1256 50       		.byte	0x50
 12692 1257 00000000 		.4byte	0
 12693 125b 00000000 		.4byte	0
 12694              	.LLST74:
 12695 125f 00000000 		.4byte	.LVL354
 12696 1263 0A000000 		.4byte	.LVL355
 12697 1267 0100     		.2byte	0x1
 12698 1269 50       		.byte	0x50
 12699 126a 0A000000 		.4byte	.LVL355
 12700 126e 08020000 		.4byte	.LFE28
 12701 1272 0100     		.2byte	0x1
 12702 1274 55       		.byte	0x55
 12703 1275 00000000 		.4byte	0
 12704 1279 00000000 		.4byte	0
 12705              	.LLST75:
 12706 127d 00000000 		.4byte	.LVL354
 12707 1281 15000000 		.4byte	.LVL356-1
 12708 1285 0100     		.2byte	0x1
 12709 1287 51       		.byte	0x51
 12710 1288 15000000 		.4byte	.LVL356-1
 12711 128c 08020000 		.4byte	.LFE28
 12712 1290 0100     		.2byte	0x1
 12713 1292 56       		.byte	0x56
ARM GAS  C:\Users\jo\AppData\Local\Temp\ccRMLSMa.s 			page 225


 12714 1293 00000000 		.4byte	0
 12715 1297 00000000 		.4byte	0
 12716              	.LLST76:
 12717 129b 00000000 		.4byte	.LVL354
 12718 129f 15000000 		.4byte	.LVL356-1
 12719 12a3 0100     		.2byte	0x1
 12720 12a5 52       		.byte	0x52
 12721 12a6 15000000 		.4byte	.LVL356-1
 12722 12aa 08020000 		.4byte	.LFE28
 12723 12ae 0100     		.2byte	0x1
 12724 12b0 58       		.byte	0x58
 12725 12b1 00000000 		.4byte	0
 12726 12b5 00000000 		.4byte	0
 12727              	.LLST77:
 12728 12b9 00000000 		.4byte	.LVL354
 12729 12bd 15000000 		.4byte	.LVL356-1
 12730 12c1 0100     		.2byte	0x1
 12731 12c3 53       		.byte	0x53
 12732 12c4 15000000 		.4byte	.LVL356-1
 12733 12c8 08020000 		.4byte	.LFE28
 12734 12cc 0100     		.2byte	0x1
 12735 12ce 57       		.byte	0x57
 12736 12cf 00000000 		.4byte	0
 12737 12d3 00000000 		.4byte	0
 12738              	.LLST78:
 12739 12d7 00000000 		.4byte	.LVL354
 12740 12db 44000000 		.4byte	.LVL359
 12741 12df 0200     		.2byte	0x2
 12742 12e1 91       		.byte	0x91
 12743 12e2 00       		.sleb128 0
 12744 12e3 44000000 		.4byte	.LVL359
 12745 12e7 08020000 		.4byte	.LFE28
 12746 12eb 0200     		.2byte	0x2
 12747 12ed 91       		.byte	0x91
 12748 12ee 00       		.sleb128 0
 12749 12ef 00000000 		.4byte	0
 12750 12f3 00000000 		.4byte	0
 12751              	.LLST79:
 12752 12f7 2A000000 		.4byte	.LVL357
 12753 12fb 3E000000 		.4byte	.LVL358
 12754 12ff 0100     		.2byte	0x1
 12755 1301 50       		.byte	0x50
 12756 1302 44000000 		.4byte	.LVL359
 12757 1306 46000000 		.4byte	.LVL360
 12758 130a 0100     		.2byte	0x1
 12759 130c 50       		.byte	0x50
 12760 130d 56000000 		.4byte	.LVL363
 12761 1311 5C000000 		.4byte	.LVL364
 12762 1315 0100     		.2byte	0x1
 12763 1317 50       		.byte	0x50
 12764 1318 5C000000 		.4byte	.LVL364
 12765 131c 6E000000 		.4byte	.LVL367
 12766 1320 0100     		.2byte	0x1
 12767 1322 54       		.byte	0x54
 12768 1323 6E000000 		.4byte	.LVL367
 12769 1327 70000000 		.4byte	.LVL368
 12770 132b 0100     		.2byte	0x1
ARM GAS  C:\Users\jo\AppData\Local\Temp\ccRMLSMa.s 			page 226


 12771 132d 50       		.byte	0x50
 12772 132e 70000000 		.4byte	.LVL368
 12773 1332 78000000 		.4byte	.LVL369
 12774 1336 0100     		.2byte	0x1
 12775 1338 54       		.byte	0x54
 12776 1339 78000000 		.4byte	.LVL369
 12777 133d 8A000000 		.4byte	.LVL370
 12778 1341 0100     		.2byte	0x1
 12779 1343 50       		.byte	0x50
 12780 1344 94000000 		.4byte	.LVL371
 12781 1348 B6000000 		.4byte	.LVL372
 12782 134c 0100     		.2byte	0x1
 12783 134e 50       		.byte	0x50
 12784 134f C0000000 		.4byte	.LVL373
 12785 1353 D6000000 		.4byte	.LVL374
 12786 1357 0100     		.2byte	0x1
 12787 1359 50       		.byte	0x50
 12788 135a E0000000 		.4byte	.LVL375
 12789 135e F0000000 		.4byte	.LVL376
 12790 1362 0100     		.2byte	0x1
 12791 1364 50       		.byte	0x50
 12792 1365 F8000000 		.4byte	.LVL377
 12793 1369 00010000 		.4byte	.LVL378
 12794 136d 0100     		.2byte	0x1
 12795 136f 50       		.byte	0x50
 12796 1370 02010000 		.4byte	.LVL379
 12797 1374 04010000 		.4byte	.LVL380
 12798 1378 0100     		.2byte	0x1
 12799 137a 50       		.byte	0x50
 12800 137b 12010000 		.4byte	.LVL383
 12801 137f 1A010000 		.4byte	.LVL384
 12802 1383 0100     		.2byte	0x1
 12803 1385 50       		.byte	0x50
 12804 1386 1A010000 		.4byte	.LVL384
 12805 138a 22010000 		.4byte	.LVL385
 12806 138e 0100     		.2byte	0x1
 12807 1390 54       		.byte	0x54
 12808 1391 22010000 		.4byte	.LVL385
 12809 1395 2A010000 		.4byte	.LVL386
 12810 1399 0100     		.2byte	0x1
 12811 139b 50       		.byte	0x50
 12812 139c 2E010000 		.4byte	.LVL387
 12813 13a0 30010000 		.4byte	.LVL388
 12814 13a4 0100     		.2byte	0x1
 12815 13a6 50       		.byte	0x50
 12816 13a7 36010000 		.4byte	.LVL391
 12817 13ab 38010000 		.4byte	.LVL392
 12818 13af 0100     		.2byte	0x1
 12819 13b1 50       		.byte	0x50
 12820 13b2 40010000 		.4byte	.LVL393
 12821 13b6 4E010000 		.4byte	.LVL394
 12822 13ba 0100     		.2byte	0x1
 12823 13bc 50       		.byte	0x50
 12824 13bd 56010000 		.4byte	.LVL395
 12825 13c1 60010000 		.4byte	.LVL396
 12826 13c5 0100     		.2byte	0x1
 12827 13c7 50       		.byte	0x50
ARM GAS  C:\Users\jo\AppData\Local\Temp\ccRMLSMa.s 			page 227


 12828 13c8 60010000 		.4byte	.LVL396
 12829 13cc 74010000 		.4byte	.LVL398
 12830 13d0 0100     		.2byte	0x1
 12831 13d2 54       		.byte	0x54
 12832 13d3 74010000 		.4byte	.LVL398
 12833 13d7 7A010000 		.4byte	.LVL399
 12834 13db 0100     		.2byte	0x1
 12835 13dd 50       		.byte	0x50
 12836 13de 90010000 		.4byte	.LVL403
 12837 13e2 96010000 		.4byte	.LVL404
 12838 13e6 0100     		.2byte	0x1
 12839 13e8 50       		.byte	0x50
 12840 13e9 9E010000 		.4byte	.LVL405
 12841 13ed A4010000 		.4byte	.LVL406
 12842 13f1 0100     		.2byte	0x1
 12843 13f3 50       		.byte	0x50
 12844 13f4 BA010000 		.4byte	.LVL410
 12845 13f8 C4010000 		.4byte	.LVL411
 12846 13fc 0100     		.2byte	0x1
 12847 13fe 50       		.byte	0x50
 12848 13ff C8010000 		.4byte	.LVL412
 12849 1403 CE010000 		.4byte	.LVL413
 12850 1407 0100     		.2byte	0x1
 12851 1409 50       		.byte	0x50
 12852 140a 00000000 		.4byte	0
 12853 140e 00000000 		.4byte	0
 12854              	.LLST80:
 12855 1412 4A000000 		.4byte	.LVL361
 12856 1416 52000000 		.4byte	.LVL362
 12857 141a 0100     		.2byte	0x1
 12858 141c 50       		.byte	0x50
 12859 141d 52000000 		.4byte	.LVL362
 12860 1421 55000000 		.4byte	.LVL363-1
 12861 1425 0100     		.2byte	0x1
 12862 1427 51       		.byte	0x51
 12863 1428 08010000 		.4byte	.LVL381
 12864 142c 0E010000 		.4byte	.LVL382
 12865 1430 0100     		.2byte	0x1
 12866 1432 50       		.byte	0x50
 12867 1433 0E010000 		.4byte	.LVL382
 12868 1437 11010000 		.4byte	.LVL383-1
 12869 143b 0100     		.2byte	0x1
 12870 143d 51       		.byte	0x51
 12871 143e 32010000 		.4byte	.LVL389
 12872 1442 34010000 		.4byte	.LVL390
 12873 1446 0100     		.2byte	0x1
 12874 1448 50       		.byte	0x50
 12875 1449 84010000 		.4byte	.LVL401
 12876 144d 8C010000 		.4byte	.LVL402
 12877 1451 0100     		.2byte	0x1
 12878 1453 50       		.byte	0x50
 12879 1454 8C010000 		.4byte	.LVL402
 12880 1458 8F010000 		.4byte	.LVL403-1
 12881 145c 0100     		.2byte	0x1
 12882 145e 51       		.byte	0x51
 12883 145f AE010000 		.4byte	.LVL408
 12884 1463 B6010000 		.4byte	.LVL409
ARM GAS  C:\Users\jo\AppData\Local\Temp\ccRMLSMa.s 			page 228


 12885 1467 0100     		.2byte	0x1
 12886 1469 50       		.byte	0x50
 12887 146a B6010000 		.4byte	.LVL409
 12888 146e B9010000 		.4byte	.LVL410-1
 12889 1472 0100     		.2byte	0x1
 12890 1474 51       		.byte	0x51
 12891 1475 00000000 		.4byte	0
 12892 1479 00000000 		.4byte	0
 12893              	.LLST81:
 12894 147d 00000000 		.4byte	.LVL415
 12895 1481 0A000000 		.4byte	.LVL416
 12896 1485 0100     		.2byte	0x1
 12897 1487 50       		.byte	0x50
 12898 1488 0A000000 		.4byte	.LVL416
 12899 148c 64000000 		.4byte	.LFE13
 12900 1490 0100     		.2byte	0x1
 12901 1492 55       		.byte	0x55
 12902 1493 00000000 		.4byte	0
 12903 1497 00000000 		.4byte	0
 12904              	.LLST82:
 12905 149b 00000000 		.4byte	.LVL415
 12906 149f 0E000000 		.4byte	.LVL418
 12907 14a3 0100     		.2byte	0x1
 12908 14a5 51       		.byte	0x51
 12909 14a6 0E000000 		.4byte	.LVL418
 12910 14aa 11000000 		.4byte	.LVL419-1
 12911 14ae 0100     		.2byte	0x1
 12912 14b0 50       		.byte	0x50
 12913 14b1 11000000 		.4byte	.LVL419-1
 12914 14b5 64000000 		.4byte	.LFE13
 12915 14b9 0400     		.2byte	0x4
 12916 14bb F3       		.byte	0xf3
 12917 14bc 01       		.uleb128 0x1
 12918 14bd 51       		.byte	0x51
 12919 14be 9F       		.byte	0x9f
 12920 14bf 00000000 		.4byte	0
 12921 14c3 00000000 		.4byte	0
 12922              	.LLST83:
 12923 14c7 00000000 		.4byte	.LVL415
 12924 14cb 0C000000 		.4byte	.LVL417
 12925 14cf 0100     		.2byte	0x1
 12926 14d1 52       		.byte	0x52
 12927 14d2 0C000000 		.4byte	.LVL417
 12928 14d6 2C000000 		.4byte	.LVL423
 12929 14da 0100     		.2byte	0x1
 12930 14dc 54       		.byte	0x54
 12931 14dd 2C000000 		.4byte	.LVL423
 12932 14e1 4E000000 		.4byte	.LVL432
 12933 14e5 0400     		.2byte	0x4
 12934 14e7 F3       		.byte	0xf3
 12935 14e8 01       		.uleb128 0x1
 12936 14e9 52       		.byte	0x52
 12937 14ea 9F       		.byte	0x9f
 12938 14eb 4E000000 		.4byte	.LVL432
 12939 14ef 5E000000 		.4byte	.LVL435
 12940 14f3 0100     		.2byte	0x1
 12941 14f5 54       		.byte	0x54
ARM GAS  C:\Users\jo\AppData\Local\Temp\ccRMLSMa.s 			page 229


 12942 14f6 5E000000 		.4byte	.LVL435
 12943 14fa 64000000 		.4byte	.LFE13
 12944 14fe 0400     		.2byte	0x4
 12945 1500 F3       		.byte	0xf3
 12946 1501 01       		.uleb128 0x1
 12947 1502 52       		.byte	0x52
 12948 1503 9F       		.byte	0x9f
 12949 1504 00000000 		.4byte	0
 12950 1508 00000000 		.4byte	0
 12951              	.LLST84:
 12952 150c 12000000 		.4byte	.LVL419
 12953 1510 18000000 		.4byte	.LVL420
 12954 1514 0100     		.2byte	0x1
 12955 1516 50       		.byte	0x50
 12956 1517 2C000000 		.4byte	.LVL423
 12957 151b 44000000 		.4byte	.LVL429
 12958 151f 0100     		.2byte	0x1
 12959 1521 50       		.byte	0x50
 12960 1522 44000000 		.4byte	.LVL429
 12961 1526 4A000000 		.4byte	.LVL431
 12962 152a 0100     		.2byte	0x1
 12963 152c 54       		.byte	0x54
 12964 152d 4A000000 		.4byte	.LVL431
 12965 1531 58000000 		.4byte	.LVL433
 12966 1535 0100     		.2byte	0x1
 12967 1537 50       		.byte	0x50
 12968 1538 5E000000 		.4byte	.LVL435
 12969 153c 62000000 		.4byte	.LVL437
 12970 1540 0100     		.2byte	0x1
 12971 1542 50       		.byte	0x50
 12972 1543 62000000 		.4byte	.LVL437
 12973 1547 64000000 		.4byte	.LFE13
 12974 154b 0100     		.2byte	0x1
 12975 154d 54       		.byte	0x54
 12976 154e 00000000 		.4byte	0
 12977 1552 00000000 		.4byte	0
 12978              	.LLST85:
 12979 1556 30000000 		.4byte	.LVL424
 12980 155a 36000000 		.4byte	.LVL425
 12981 155e 0100     		.2byte	0x1
 12982 1560 52       		.byte	0x52
 12983 1561 36000000 		.4byte	.LVL425
 12984 1565 3A000000 		.4byte	.LVL426
 12985 1569 0200     		.2byte	0x2
 12986 156b 91       		.byte	0x91
 12987 156c 68       		.sleb128 -24
 12988 156d 60000000 		.4byte	.LVL436
 12989 1571 64000000 		.4byte	.LFE13
 12990 1575 0100     		.2byte	0x1
 12991 1577 52       		.byte	0x52
 12992 1578 00000000 		.4byte	0
 12993 157c 00000000 		.4byte	0
 12994              	.LLST86:
 12995 1580 30000000 		.4byte	.LVL424
 12996 1584 3C000000 		.4byte	.LVL427
 12997 1588 0100     		.2byte	0x1
 12998 158a 53       		.byte	0x53
ARM GAS  C:\Users\jo\AppData\Local\Temp\ccRMLSMa.s 			page 230


 12999 158b 3C000000 		.4byte	.LVL427
 13000 158f 3E000000 		.4byte	.LVL428
 13001 1593 0300     		.2byte	0x3
 13002 1595 73       		.byte	0x73
 13003 1596 01       		.sleb128 1
 13004 1597 9F       		.byte	0x9f
 13005 1598 3E000000 		.4byte	.LVL428
 13006 159c 47000000 		.4byte	.LVL430-1
 13007 15a0 0100     		.2byte	0x1
 13008 15a2 53       		.byte	0x53
 13009 15a3 60000000 		.4byte	.LVL436
 13010 15a7 64000000 		.4byte	.LFE13
 13011 15ab 0100     		.2byte	0x1
 13012 15ad 53       		.byte	0x53
 13013 15ae 00000000 		.4byte	0
 13014 15b2 00000000 		.4byte	0
 13015              	.LLST87:
 13016 15b6 30000000 		.4byte	.LVL424
 13017 15ba 3A000000 		.4byte	.LVL426
 13018 15be 0100     		.2byte	0x1
 13019 15c0 53       		.byte	0x53
 13020 15c1 3A000000 		.4byte	.LVL426
 13021 15c5 3E000000 		.4byte	.LVL428
 13022 15c9 0300     		.2byte	0x3
 13023 15cb 73       		.byte	0x73
 13024 15cc 01       		.sleb128 1
 13025 15cd 9F       		.byte	0x9f
 13026 15ce 3E000000 		.4byte	.LVL428
 13027 15d2 44000000 		.4byte	.LVL429
 13028 15d6 0100     		.2byte	0x1
 13029 15d8 53       		.byte	0x53
 13030 15d9 60000000 		.4byte	.LVL436
 13031 15dd 64000000 		.4byte	.LFE13
 13032 15e1 0100     		.2byte	0x1
 13033 15e3 53       		.byte	0x53
 13034 15e4 00000000 		.4byte	0
 13035 15e8 00000000 		.4byte	0
 13036              	.LLST88:
 13037 15ec 00000000 		.4byte	.LVL438
 13038 15f0 08000000 		.4byte	.LVL439
 13039 15f4 0100     		.2byte	0x1
 13040 15f6 50       		.byte	0x50
 13041 15f7 08000000 		.4byte	.LVL439
 13042 15fb 5C000000 		.4byte	.LFE29
 13043 15ff 0100     		.2byte	0x1
 13044 1601 57       		.byte	0x57
 13045 1602 00000000 		.4byte	0
 13046 1606 00000000 		.4byte	0
 13047              	.LLST89:
 13048 160a 00000000 		.4byte	.LVL438
 13049 160e 0F000000 		.4byte	.LVL440-1
 13050 1612 0100     		.2byte	0x1
 13051 1614 51       		.byte	0x51
 13052 1615 0F000000 		.4byte	.LVL440-1
 13053 1619 5C000000 		.4byte	.LFE29
 13054 161d 0100     		.2byte	0x1
 13055 161f 55       		.byte	0x55
ARM GAS  C:\Users\jo\AppData\Local\Temp\ccRMLSMa.s 			page 231


 13056 1620 00000000 		.4byte	0
 13057 1624 00000000 		.4byte	0
 13058              	.LLST90:
 13059 1628 00000000 		.4byte	.LVL438
 13060 162c 0F000000 		.4byte	.LVL440-1
 13061 1630 0100     		.2byte	0x1
 13062 1632 52       		.byte	0x52
 13063 1633 0F000000 		.4byte	.LVL440-1
 13064 1637 5C000000 		.4byte	.LFE29
 13065 163b 0100     		.2byte	0x1
 13066 163d 56       		.byte	0x56
 13067 163e 00000000 		.4byte	0
 13068 1642 00000000 		.4byte	0
 13069              	.LLST91:
 13070 1646 26000000 		.4byte	.LVL441
 13071 164a 30000000 		.4byte	.LVL444
 13072 164e 0100     		.2byte	0x1
 13073 1650 50       		.byte	0x50
 13074 1651 30000000 		.4byte	.LVL444
 13075 1655 4A000000 		.4byte	.LVL448
 13076 1659 0100     		.2byte	0x1
 13077 165b 54       		.byte	0x54
 13078 165c 4A000000 		.4byte	.LVL448
 13079 1660 5C000000 		.4byte	.LFE29
 13080 1664 0100     		.2byte	0x1
 13081 1666 50       		.byte	0x50
 13082 1667 00000000 		.4byte	0
 13083 166b 00000000 		.4byte	0
 13084              	.LLST92:
 13085 166f 00000000 		.4byte	.LVL449
 13086 1673 0A000000 		.4byte	.LVL450
 13087 1677 0100     		.2byte	0x1
 13088 1679 50       		.byte	0x50
 13089 167a 0A000000 		.4byte	.LVL450
 13090 167e 2A000000 		.4byte	.LVL456
 13091 1682 0100     		.2byte	0x1
 13092 1684 55       		.byte	0x55
 13093 1685 2A000000 		.4byte	.LVL456
 13094 1689 4A000000 		.4byte	.LFE14
 13095 168d 0400     		.2byte	0x4
 13096 168f F3       		.byte	0xf3
 13097 1690 01       		.uleb128 0x1
 13098 1691 50       		.byte	0x50
 13099 1692 9F       		.byte	0x9f
 13100 1693 00000000 		.4byte	0
 13101 1697 00000000 		.4byte	0
 13102              	.LLST93:
 13103 169b 00000000 		.4byte	.LVL449
 13104 169f 0C000000 		.4byte	.LVL451
 13105 16a3 0100     		.2byte	0x1
 13106 16a5 51       		.byte	0x51
 13107 16a6 0C000000 		.4byte	.LVL451
 13108 16aa 0F000000 		.4byte	.LVL452-1
 13109 16ae 0100     		.2byte	0x1
 13110 16b0 50       		.byte	0x50
 13111 16b1 0F000000 		.4byte	.LVL452-1
 13112 16b5 4A000000 		.4byte	.LFE14
ARM GAS  C:\Users\jo\AppData\Local\Temp\ccRMLSMa.s 			page 232


 13113 16b9 0400     		.2byte	0x4
 13114 16bb F3       		.byte	0xf3
 13115 16bc 01       		.uleb128 0x1
 13116 16bd 51       		.byte	0x51
 13117 16be 9F       		.byte	0x9f
 13118 16bf 00000000 		.4byte	0
 13119 16c3 00000000 		.4byte	0
 13120              	.LLST94:
 13121 16c7 10000000 		.4byte	.LVL452
 13122 16cb 1A000000 		.4byte	.LVL454
 13123 16cf 0100     		.2byte	0x1
 13124 16d1 50       		.byte	0x50
 13125 16d2 1A000000 		.4byte	.LVL454
 13126 16d6 2A000000 		.4byte	.LVL456
 13127 16da 0100     		.2byte	0x1
 13128 16dc 54       		.byte	0x54
 13129 16dd 2A000000 		.4byte	.LVL456
 13130 16e1 32000000 		.4byte	.LVL458
 13131 16e5 0100     		.2byte	0x1
 13132 16e7 50       		.byte	0x50
 13133 16e8 32000000 		.4byte	.LVL458
 13134 16ec 46000000 		.4byte	.LVL463
 13135 16f0 0100     		.2byte	0x1
 13136 16f2 55       		.byte	0x55
 13137 16f3 46000000 		.4byte	.LVL463
 13138 16f7 48000000 		.4byte	.LVL464
 13139 16fb 0100     		.2byte	0x1
 13140 16fd 50       		.byte	0x50
 13141 16fe 48000000 		.4byte	.LVL464
 13142 1702 4A000000 		.4byte	.LFE14
 13143 1706 0100     		.2byte	0x1
 13144 1708 55       		.byte	0x55
 13145 1709 00000000 		.4byte	0
 13146 170d 00000000 		.4byte	0
 13147              	.LLST95:
 13148 1711 2A000000 		.4byte	.LVL456
 13149 1715 2E000000 		.4byte	.LVL457
 13150 1719 0100     		.2byte	0x1
 13151 171b 52       		.byte	0x52
 13152 171c 2E000000 		.4byte	.LVL457
 13153 1720 32000000 		.4byte	.LVL458
 13154 1724 0200     		.2byte	0x2
 13155 1726 7D       		.byte	0x7d
 13156 1727 00       		.sleb128 0
 13157 1728 32000000 		.4byte	.LVL458
 13158 172c 34000000 		.4byte	.LVL459
 13159 1730 0300     		.2byte	0x3
 13160 1732 71       		.byte	0x71
 13161 1733 7F       		.sleb128 -1
 13162 1734 9F       		.byte	0x9f
 13163 1735 34000000 		.4byte	.LVL459
 13164 1739 36000000 		.4byte	.LVL460
 13165 173d 0A00     		.2byte	0xa
 13166 173f 73       		.byte	0x73
 13167 1740 00       		.sleb128 0
 13168 1741 20       		.byte	0x20
 13169 1742 71       		.byte	0x71
ARM GAS  C:\Users\jo\AppData\Local\Temp\ccRMLSMa.s 			page 233


 13170 1743 00       		.sleb128 0
 13171 1744 22       		.byte	0x22
 13172 1745 73       		.byte	0x73
 13173 1746 00       		.sleb128 0
 13174 1747 22       		.byte	0x22
 13175 1748 9F       		.byte	0x9f
 13176 1749 36000000 		.4byte	.LVL460
 13177 174d 3C000000 		.4byte	.LVL461
 13178 1751 0A00     		.2byte	0xa
 13179 1753 73       		.byte	0x73
 13180 1754 00       		.sleb128 0
 13181 1755 20       		.byte	0x20
 13182 1756 73       		.byte	0x73
 13183 1757 00       		.sleb128 0
 13184 1758 22       		.byte	0x22
 13185 1759 71       		.byte	0x71
 13186 175a 00       		.sleb128 0
 13187 175b 22       		.byte	0x22
 13188 175c 9F       		.byte	0x9f
 13189 175d 46000000 		.4byte	.LVL463
 13190 1761 4A000000 		.4byte	.LFE14
 13191 1765 0100     		.2byte	0x1
 13192 1767 52       		.byte	0x52
 13193 1768 00000000 		.4byte	0
 13194 176c 00000000 		.4byte	0
 13195              	.LLST96:
 13196 1770 2A000000 		.4byte	.LVL456
 13197 1774 34000000 		.4byte	.LVL459
 13198 1778 0100     		.2byte	0x1
 13199 177a 53       		.byte	0x53
 13200 177b 34000000 		.4byte	.LVL459
 13201 177f 36000000 		.4byte	.LVL460
 13202 1783 0300     		.2byte	0x3
 13203 1785 73       		.byte	0x73
 13204 1786 01       		.sleb128 1
 13205 1787 9F       		.byte	0x9f
 13206 1788 36000000 		.4byte	.LVL460
 13207 178c 3F000000 		.4byte	.LVL462-1
 13208 1790 0100     		.2byte	0x1
 13209 1792 53       		.byte	0x53
 13210 1793 46000000 		.4byte	.LVL463
 13211 1797 4A000000 		.4byte	.LFE14
 13212 179b 0100     		.2byte	0x1
 13213 179d 53       		.byte	0x53
 13214 179e 00000000 		.4byte	0
 13215 17a2 00000000 		.4byte	0
 13216              	.LLST97:
 13217 17a6 2A000000 		.4byte	.LVL456
 13218 17aa 32000000 		.4byte	.LVL458
 13219 17ae 0100     		.2byte	0x1
 13220 17b0 53       		.byte	0x53
 13221 17b1 32000000 		.4byte	.LVL458
 13222 17b5 36000000 		.4byte	.LVL460
 13223 17b9 0300     		.2byte	0x3
 13224 17bb 73       		.byte	0x73
 13225 17bc 01       		.sleb128 1
 13226 17bd 9F       		.byte	0x9f
ARM GAS  C:\Users\jo\AppData\Local\Temp\ccRMLSMa.s 			page 234


 13227 17be 36000000 		.4byte	.LVL460
 13228 17c2 3C000000 		.4byte	.LVL461
 13229 17c6 0100     		.2byte	0x1
 13230 17c8 53       		.byte	0x53
 13231 17c9 46000000 		.4byte	.LVL463
 13232 17cd 4A000000 		.4byte	.LFE14
 13233 17d1 0100     		.2byte	0x1
 13234 17d3 53       		.byte	0x53
 13235 17d4 00000000 		.4byte	0
 13236 17d8 00000000 		.4byte	0
 13237              		.section	.debug_aranges,"",%progbits
 13238 0000 74000000 		.4byte	0x74
 13239 0004 0200     		.2byte	0x2
 13240 0006 00000000 		.4byte	.Ldebug_info0
 13241 000a 04       		.byte	0x4
 13242 000b 00       		.byte	0
 13243 000c 0000     		.2byte	0
 13244 000e 0000     		.2byte	0
 13245 0010 00000000 		.4byte	.LFB24
 13246 0014 14010000 		.4byte	.LFE24-.LFB24
 13247 0018 00000000 		.4byte	.LFB22
 13248 001c 80000000 		.4byte	.LFE22-.LFB22
 13249 0020 00000000 		.4byte	.LFB19
 13250 0024 D8020000 		.4byte	.LFE19-.LFB19
 13251 0028 00000000 		.4byte	.LFB25
 13252 002c 8C010000 		.4byte	.LFE25-.LFB25
 13253 0030 00000000 		.4byte	.LFB26
 13254 0034 E8000000 		.4byte	.LFE26-.LFB26
 13255 0038 00000000 		.4byte	.LFB27
 13256 003c 44010000 		.4byte	.LFE27-.LFB27
 13257 0040 00000000 		.4byte	.LFB12
 13258 0044 8C000000 		.4byte	.LFE12-.LFB12
 13259 0048 00000000 		.4byte	.LFB23
 13260 004c 44010000 		.4byte	.LFE23-.LFB23
 13261 0050 00000000 		.4byte	.LFB28
 13262 0054 08020000 		.4byte	.LFE28-.LFB28
 13263 0058 00000000 		.4byte	.LFB13
 13264 005c 64000000 		.4byte	.LFE13-.LFB13
 13265 0060 00000000 		.4byte	.LFB29
 13266 0064 5C000000 		.4byte	.LFE29-.LFB29
 13267 0068 00000000 		.4byte	.LFB14
 13268 006c 4A000000 		.4byte	.LFE14-.LFB14
 13269 0070 00000000 		.4byte	0
 13270 0074 00000000 		.4byte	0
 13271              		.section	.debug_ranges,"",%progbits
 13272              	.Ldebug_ranges0:
 13273 0000 54000000 		.4byte	.LBB8
 13274 0004 6C000000 		.4byte	.LBE8
 13275 0008 74000000 		.4byte	.LBB11
 13276 000c 80000000 		.4byte	.LBE11
 13277 0010 00000000 		.4byte	0
 13278 0014 00000000 		.4byte	0
 13279 0018 10000000 		.4byte	.LBB18
 13280 001c 4E000000 		.4byte	.LBE18
 13281 0020 52000000 		.4byte	.LBB40
 13282 0024 56010000 		.4byte	.LBE40
 13283 0028 7A010000 		.4byte	.LBB41
ARM GAS  C:\Users\jo\AppData\Local\Temp\ccRMLSMa.s 			page 235


 13284 002c A8020000 		.4byte	.LBE41
 13285 0030 AC020000 		.4byte	.LBB42
 13286 0034 B4020000 		.4byte	.LBE42
 13287 0038 B8020000 		.4byte	.LBB43
 13288 003c D8020000 		.4byte	.LBE43
 13289 0040 00000000 		.4byte	0
 13290 0044 00000000 		.4byte	0
 13291 0048 1A000000 		.4byte	.LBB20
 13292 004c 46000000 		.4byte	.LBE20
 13293 0050 52000000 		.4byte	.LBB26
 13294 0054 98000000 		.4byte	.LBE26
 13295 0058 88010000 		.4byte	.LBB32
 13296 005c A8020000 		.4byte	.LBE32
 13297 0060 AC020000 		.4byte	.LBB33
 13298 0064 B4020000 		.4byte	.LBE33
 13299 0068 B8020000 		.4byte	.LBB34
 13300 006c BC020000 		.4byte	.LBE34
 13301 0070 00000000 		.4byte	0
 13302 0074 00000000 		.4byte	0
 13303 0078 9C000000 		.4byte	.LBB27
 13304 007c 4E010000 		.4byte	.LBE27
 13305 0080 7A010000 		.4byte	.LBB31
 13306 0084 88010000 		.4byte	.LBE31
 13307 0088 BC020000 		.4byte	.LBB35
 13308 008c D8020000 		.4byte	.LBE35
 13309 0090 00000000 		.4byte	0
 13310 0094 00000000 		.4byte	0
 13311 0098 E6000000 		.4byte	.LBB48
 13312 009c EC000000 		.4byte	.LBE48
 13313 00a0 EE000000 		.4byte	.LBB52
 13314 00a4 0E010000 		.4byte	.LBE52
 13315 00a8 64010000 		.4byte	.LBB56
 13316 00ac 6C010000 		.4byte	.LBE56
 13317 00b0 00000000 		.4byte	0
 13318 00b4 00000000 		.4byte	0
 13319 00b8 3E010000 		.4byte	.LBB53
 13320 00bc 4E010000 		.4byte	.LBE53
 13321 00c0 6C010000 		.4byte	.LBB57
 13322 00c4 76010000 		.4byte	.LBE57
 13323 00c8 00000000 		.4byte	0
 13324 00cc 00000000 		.4byte	0
 13325 00d0 8E000000 		.4byte	.LBB62
 13326 00d4 96000000 		.4byte	.LBE62
 13327 00d8 98000000 		.4byte	.LBB66
 13328 00dc BC000000 		.4byte	.LBE66
 13329 00e0 0C010000 		.4byte	.LBB69
 13330 00e4 44010000 		.4byte	.LBE69
 13331 00e8 00000000 		.4byte	0
 13332 00ec 00000000 		.4byte	0
 13333 00f0 30000000 		.4byte	.LBB70
 13334 00f4 44000000 		.4byte	.LBE70
 13335 00f8 60000000 		.4byte	.LBB73
 13336 00fc 64000000 		.4byte	.LBE73
 13337 0100 00000000 		.4byte	0
 13338 0104 00000000 		.4byte	0
 13339 0108 26000000 		.4byte	.LBB74
 13340 010c 28000000 		.4byte	.LBE74
ARM GAS  C:\Users\jo\AppData\Local\Temp\ccRMLSMa.s 			page 236


 13341 0110 2A000000 		.4byte	.LBB78
 13342 0114 3C000000 		.4byte	.LBE78
 13343 0118 46000000 		.4byte	.LBB79
 13344 011c 4A000000 		.4byte	.LBE79
 13345 0120 00000000 		.4byte	0
 13346 0124 00000000 		.4byte	0
 13347 0128 00000000 		.4byte	.LFB24
 13348 012c 14010000 		.4byte	.LFE24
 13349 0130 00000000 		.4byte	.LFB22
 13350 0134 80000000 		.4byte	.LFE22
 13351 0138 00000000 		.4byte	.LFB19
 13352 013c D8020000 		.4byte	.LFE19
 13353 0140 00000000 		.4byte	.LFB25
 13354 0144 8C010000 		.4byte	.LFE25
 13355 0148 00000000 		.4byte	.LFB26
 13356 014c E8000000 		.4byte	.LFE26
 13357 0150 00000000 		.4byte	.LFB27
 13358 0154 44010000 		.4byte	.LFE27
 13359 0158 00000000 		.4byte	.LFB12
 13360 015c 8C000000 		.4byte	.LFE12
 13361 0160 00000000 		.4byte	.LFB23
 13362 0164 44010000 		.4byte	.LFE23
 13363 0168 00000000 		.4byte	.LFB28
 13364 016c 08020000 		.4byte	.LFE28
 13365 0170 00000000 		.4byte	.LFB13
 13366 0174 64000000 		.4byte	.LFE13
 13367 0178 00000000 		.4byte	.LFB29
 13368 017c 5C000000 		.4byte	.LFE29
 13369 0180 00000000 		.4byte	.LFB14
 13370 0184 4A000000 		.4byte	.LFE14
 13371 0188 00000000 		.4byte	0
 13372 018c 00000000 		.4byte	0
 13373              		.section	.debug_line,"",%progbits
 13374              	.Ldebug_line0:
 13375 0000 89060000 		.section	.debug_str,"MS",%progbits,1
 13375      02009702 
 13375      00000201 
 13375      FB0E0D00 
 13375      01010101 
 13376              	.LASF245:
 13377 0000 504F4C41 		.ascii	"POLARSSL_CIPHER_CAMELLIA_192_CCM\000"
 13377      5253534C 
 13377      5F434950 
 13377      4845525F 
 13377      43414D45 
 13378              	.LASF252:
 13379 0021 70617261 		.ascii	"params\000"
 13379      6D7300
 13380              	.LASF205:
 13381 0028 504F4C41 		.ascii	"POLARSSL_CIPHER_AES_256_CBC\000"
 13381      5253534C 
 13381      5F434950 
 13381      4845525F 
 13381      4145535F 
 13382              	.LASF179:
 13383 0044 6E616D65 		.ascii	"name\000"
 13383      00
ARM GAS  C:\Users\jo\AppData\Local\Temp\ccRMLSMa.s 			page 237


 13384              	.LASF241:
 13385 0049 504F4C41 		.ascii	"POLARSSL_CIPHER_AES_128_CCM\000"
 13385      5253534C 
 13385      5F434950 
 13385      4845525F 
 13385      4145535F 
 13386              	.LASF173:
 13387 0065 706B5F74 		.ascii	"pk_type_t\000"
 13387      7970655F 
 13387      7400
 13388              	.LASF195:
 13389 006f 706B5F63 		.ascii	"pk_context\000"
 13389      6F6E7465 
 13389      787400
 13390              	.LASF303:
 13391 007a 6563705F 		.ascii	"ecp_group_free\000"
 13391      67726F75 
 13391      705F6672 
 13391      656500
 13392              	.LASF181:
 13393 0089 706B5F64 		.ascii	"pk_debug_item\000"
 13393      65627567 
 13393      5F697465 
 13393      6D00
 13394              	.LASF313:
 13395 0097 706B5F69 		.ascii	"pk_info_from_type\000"
 13395      6E666F5F 
 13395      66726F6D 
 13395      5F747970 
 13395      6500
 13396              	.LASF51:
 13397 00a9 5F6F6E5F 		.ascii	"_on_exit_args\000"
 13397      65786974 
 13397      5F617267 
 13397      7300
 13398              	.LASF274:
 13399 00b7 64656372 		.ascii	"decrypted\000"
 13399      79707465 
 13399      6400
 13400              	.LASF333:
 13401 00c1 474E5520 		.ascii	"GNU C 4.9.3 20141119 (release) [ARM/embedded-4_9-br"
 13401      4320342E 
 13401      392E3320 
 13401      32303134 
 13401      31313139 
 13402 00f4 616E6368 		.ascii	"anch revision 218278] -mcpu=cortex-m4 -mno-thumb-in"
 13402      20726576 
 13402      6973696F 
 13402      6E203231 
 13402      38323738 
 13403 0127 74657277 		.ascii	"terwork -mthumb -ggdb -O2 -fomit-frame-pointer -fal"
 13403      6F726B20 
 13403      2D6D7468 
 13403      756D6220 
 13403      2D676764 
 13404 015a 69676E2D 		.ascii	"ign-functions=16 -ffunction-sections -fdata-section"
 13404      66756E63 
ARM GAS  C:\Users\jo\AppData\Local\Temp\ccRMLSMa.s 			page 238


 13404      74696F6E 
 13404      733D3136 
 13404      202D6666 
 13405 018d 73202D66 		.ascii	"s -fno-common\000"
 13405      6E6F2D63 
 13405      6F6D6D6F 
 13405      6E00
 13406              	.LASF223:
 13407 019b 504F4C41 		.ascii	"POLARSSL_CIPHER_CAMELLIA_256_CFB128\000"
 13407      5253534C 
 13407      5F434950 
 13407      4845525F 
 13407      43414D45 
 13408              	.LASF169:
 13409 01bf 504F4C41 		.ascii	"POLARSSL_PK_ECKEY_DH\000"
 13409      5253534C 
 13409      5F504B5F 
 13409      45434B45 
 13409      595F4448 
 13410              	.LASF115:
 13411 01d4 5F723438 		.ascii	"_r48\000"
 13411      00
 13412              	.LASF310:
 13413 01d9 6563705F 		.ascii	"ecp_check_privkey\000"
 13413      63686563 
 13413      6B5F7072 
 13413      69766B65 
 13413      7900
 13414              	.LASF120:
 13415 01eb 5F736967 		.ascii	"_signal_buf\000"
 13415      6E616C5F 
 13415      62756600 
 13416              	.LASF0:
 13417 01f7 756E7369 		.ascii	"unsigned int\000"
 13417      676E6564 
 13417      20696E74 
 13417      00
 13418              	.LASF268:
 13419 0204 76657273 		.ascii	"version\000"
 13419      696F6E00 
 13420              	.LASF144:
 13421 020c 504F4C41 		.ascii	"POLARSSL_ECP_DP_SECP521R1\000"
 13421      5253534C 
 13421      5F454350 
 13421      5F44505F 
 13421      53454350 
 13422              	.LASF167:
 13423 0226 504F4C41 		.ascii	"POLARSSL_PK_RSA\000"
 13423      5253534C 
 13423      5F504B5F 
 13423      52534100 
 13424              	.LASF236:
 13425 0236 504F4C41 		.ascii	"POLARSSL_CIPHER_BLOWFISH_ECB\000"
 13425      5253534C 
 13425      5F434950 
 13425      4845525F 
 13425      424C4F57 
ARM GAS  C:\Users\jo\AppData\Local\Temp\ccRMLSMa.s 			page 239


 13426              	.LASF65:
 13427 0253 5F6C6266 		.ascii	"_lbfsize\000"
 13427      73697A65 
 13427      00
 13428              	.LASF63:
 13429 025c 5F666C61 		.ascii	"_flags\000"
 13429      677300
 13430              	.LASF18:
 13431 0263 5F5F696E 		.ascii	"__int32_t\000"
 13431      7433325F 
 13431      7400
 13432              	.LASF80:
 13433 026d 5F657272 		.ascii	"_errno\000"
 13433      6E6F00
 13434              	.LASF273:
 13435 0274 7077646C 		.ascii	"pwdlen\000"
 13435      656E00
 13436              	.LASF276:
 13437 027b 7062655F 		.ascii	"pbe_params\000"
 13437      70617261 
 13437      6D7300
 13438              	.LASF199:
 13439 0286 504F4C41 		.ascii	"POLARSSL_CIPHER_NULL\000"
 13439      5253534C 
 13439      5F434950 
 13439      4845525F 
 13439      4E554C4C 
 13440              	.LASF320:
 13441 029b 706B6373 		.ascii	"pkcs5_pbes2\000"
 13441      355F7062 
 13441      65733200 
 13442              	.LASF235:
 13443 02a7 504F4C41 		.ascii	"POLARSSL_CIPHER_DES_EDE3_CBC\000"
 13443      5253534C 
 13443      5F434950 
 13443      4845525F 
 13443      4445535F 
 13444              	.LASF24:
 13445 02c4 5F4C4F43 		.ascii	"_LOCK_RECURSIVE_T\000"
 13445      4B5F5245 
 13445      43555253 
 13445      4956455F 
 13445      5400
 13446              	.LASF135:
 13447 02d6 745F7569 		.ascii	"t_uint\000"
 13447      6E7400
 13448              	.LASF250:
 13449 02dd 70656D5F 		.ascii	"pem_context\000"
 13449      636F6E74 
 13449      65787400 
 13450              	.LASF67:
 13451 02e9 5F726561 		.ascii	"_read\000"
 13451      6400
 13452              	.LASF165:
 13453 02ef 6563705F 		.ascii	"ecp_keypair\000"
 13453      6B657970 
 13453      61697200 
ARM GAS  C:\Users\jo\AppData\Local\Temp\ccRMLSMa.s 			page 240


 13454              	.LASF122:
 13455 02fb 5F6D6272 		.ascii	"_mbrlen_state\000"
 13455      6C656E5F 
 13455      73746174 
 13455      6500
 13456              	.LASF209:
 13457 0309 504F4C41 		.ascii	"POLARSSL_CIPHER_AES_128_CTR\000"
 13457      5253534C 
 13457      5F434950 
 13457      4845525F 
 13457      4145535F 
 13458              	.LASF284:
 13459 0325 616C675F 		.ascii	"alg_params\000"
 13459      70617261 
 13459      6D7300
 13460              	.LASF297:
 13461 0330 6D70695F 		.ascii	"mpi_msb\000"
 13461      6D736200 
 13462              	.LASF259:
 13463 0338 706B5F67 		.ascii	"pk_group_id_from_specified\000"
 13463      726F7570 
 13463      5F69645F 
 13463      66726F6D 
 13463      5F737065 
 13464              	.LASF159:
 13465 0353 6D6F6470 		.ascii	"modp\000"
 13465      00
 13466              	.LASF231:
 13467 0358 504F4C41 		.ascii	"POLARSSL_CIPHER_DES_CBC\000"
 13467      5253534C 
 13467      5F434950 
 13467      4845525F 
 13467      4445535F 
 13468              	.LASF82:
 13469 0370 5F737464 		.ascii	"_stdout\000"
 13469      6F757400 
 13470              	.LASF242:
 13471 0378 504F4C41 		.ascii	"POLARSSL_CIPHER_AES_192_CCM\000"
 13471      5253534C 
 13471      5F434950 
 13471      4845525F 
 13471      4145535F 
 13472              	.LASF201:
 13473 0394 504F4C41 		.ascii	"POLARSSL_CIPHER_AES_192_ECB\000"
 13473      5253534C 
 13473      5F434950 
 13473      4845525F 
 13473      4145535F 
 13474              	.LASF26:
 13475 03b0 5F66706F 		.ascii	"_fpos_t\000"
 13475      735F7400 
 13476              	.LASF58:
 13477 03b8 5F666E73 		.ascii	"_fns\000"
 13477      00
 13478              	.LASF271:
 13479 03bd 706B5F70 		.ascii	"pk_parse_key_pkcs8_unencrypted_der\000"
 13479      61727365 
ARM GAS  C:\Users\jo\AppData\Local\Temp\ccRMLSMa.s 			page 241


 13479      5F6B6579 
 13479      5F706B63 
 13479      73385F75 
 13480              	.LASF66:
 13481 03e0 5F636F6F 		.ascii	"_cookie\000"
 13481      6B696500 
 13482              	.LASF267:
 13483 03e8 706B5F70 		.ascii	"pk_parse_key_sec1_der\000"
 13483      61727365 
 13483      5F6B6579 
 13483      5F736563 
 13483      315F6465 
 13484              	.LASF40:
 13485 03fe 5F426967 		.ascii	"_Bigint\000"
 13485      696E7400 
 13486              	.LASF48:
 13487 0406 5F5F746D 		.ascii	"__tm_wday\000"
 13487      5F776461 
 13487      7900
 13488              	.LASF262:
 13489 0410 636C6561 		.ascii	"cleanup\000"
 13489      6E757000 
 13490              	.LASF90:
 13491 0418 5F726573 		.ascii	"_result\000"
 13491      756C7400 
 13492              	.LASF225:
 13493 0420 504F4C41 		.ascii	"POLARSSL_CIPHER_CAMELLIA_192_CTR\000"
 13493      5253534C 
 13493      5F434950 
 13493      4845525F 
 13493      43414D45 
 13494              	.LASF156:
 13495 0441 6563705F 		.ascii	"ecp_point\000"
 13495      706F696E 
 13495      7400
 13496              	.LASF133:
 13497 044b 75696E74 		.ascii	"uint32_t\000"
 13497      33325F74 
 13497      00
 13498              	.LASF44:
 13499 0454 5F5F746D 		.ascii	"__tm_hour\000"
 13499      5F686F75 
 13499      7200
 13500              	.LASF5:
 13501 045e 504F4C41 		.ascii	"POLARSSL_MD_SHA1\000"
 13501      5253534C 
 13501      5F4D445F 
 13501      53484131 
 13501      00
 13502              	.LASF254:
 13503 046f 706B5F67 		.ascii	"pk_get_pk_alg\000"
 13503      65745F70 
 13503      6B5F616C 
 13503      6700
 13504              	.LASF108:
 13505 047d 5F616464 		.ascii	"_add\000"
 13505      00
ARM GAS  C:\Users\jo\AppData\Local\Temp\ccRMLSMa.s 			page 242


 13506              	.LASF275:
 13507 0482 7062655F 		.ascii	"pbe_alg_oid\000"
 13507      616C675F 
 13507      6F696400 
 13508              	.LASF280:
 13509 048e 73697A65 		.ascii	"size\000"
 13509      00
 13510              	.LASF31:
 13511 0493 5F5F636F 		.ascii	"__count\000"
 13511      756E7400 
 13512              	.LASF211:
 13513 049b 504F4C41 		.ascii	"POLARSSL_CIPHER_AES_256_CTR\000"
 13513      5253534C 
 13513      5F434950 
 13513      4845525F 
 13513      4145535F 
 13514              	.LASF43:
 13515 04b7 5F5F746D 		.ascii	"__tm_min\000"
 13515      5F6D696E 
 13515      00
 13516              	.LASF294:
 13517 04c0 61736E31 		.ascii	"asn1_get_alg\000"
 13517      5F676574 
 13517      5F616C67 
 13517      00
 13518              	.LASF128:
 13519 04cd 5F6E6578 		.ascii	"_nextf\000"
 13519      746600
 13520              	.LASF175:
 13521 04d4 504F4C41 		.ascii	"POLARSSL_PK_DEBUG_MPI\000"
 13521      5253534C 
 13521      5F504B5F 
 13521      44454255 
 13521      475F4D50 
 13522              	.LASF105:
 13523 04ea 5F72616E 		.ascii	"_rand48\000"
 13523      64343800 
 13524              	.LASF227:
 13525 04f2 504F4C41 		.ascii	"POLARSSL_CIPHER_CAMELLIA_128_GCM\000"
 13525      5253534C 
 13525      5F434950 
 13525      4845525F 
 13525      43414D45 
 13526              	.LASF237:
 13527 0513 504F4C41 		.ascii	"POLARSSL_CIPHER_BLOWFISH_CBC\000"
 13527      5253534C 
 13527      5F434950 
 13527      4845525F 
 13527      424C4F57 
 13528              	.LASF91:
 13529 0530 5F726573 		.ascii	"_result_k\000"
 13529      756C745F 
 13529      6B00
 13530              	.LASF23:
 13531 053a 6C6F6E67 		.ascii	"long long unsigned int\000"
 13531      206C6F6E 
 13531      6720756E 
ARM GAS  C:\Users\jo\AppData\Local\Temp\ccRMLSMa.s 			page 243


 13531      7369676E 
 13531      65642069 
 13532              	.LASF257:
 13533 0551 656E645F 		.ascii	"end_curve\000"
 13533      63757276 
 13533      6500
 13534              	.LASF111:
 13535 055b 5F617363 		.ascii	"_asctime_buf\000"
 13535      74696D65 
 13535      5F627566 
 13535      00
 13536              	.LASF299:
 13537 0568 6563705F 		.ascii	"ecp_point_read_binary\000"
 13537      706F696E 
 13537      745F7265 
 13537      61645F62 
 13537      696E6172 
 13538              	.LASF62:
 13539 057e 5F5F7346 		.ascii	"__sFILE\000"
 13539      494C4500 
 13540              	.LASF39:
 13541 0586 5F776473 		.ascii	"_wds\000"
 13541      00
 13542              	.LASF160:
 13543 058b 745F7072 		.ascii	"t_pre\000"
 13543      6500
 13544              	.LASF184:
 13545 0591 76657269 		.ascii	"verify_func\000"
 13545      66795F66 
 13545      756E6300 
 13546              	.LASF146:
 13547 059d 504F4C41 		.ascii	"POLARSSL_ECP_DP_BP384R1\000"
 13547      5253534C 
 13547      5F454350 
 13547      5F44505F 
 13547      42503338 
 13548              	.LASF142:
 13549 05b5 504F4C41 		.ascii	"POLARSSL_ECP_DP_SECP256R1\000"
 13549      5253534C 
 13549      5F454350 
 13549      5F44505F 
 13549      53454350 
 13550              	.LASF334:
 13551 05cf 2E2E2F2E 		.ascii	"../../../ext/mbedtls-1.3.11/library/pkparse.c\000"
 13551      2E2F2E2E 
 13551      2F657874 
 13551      2F6D6265 
 13551      64746C73 
 13552              	.LASF101:
 13553 05fd 5F5F4649 		.ascii	"__FILE\000"
 13553      4C4500
 13554              	.LASF295:
 13555 0604 6F69645F 		.ascii	"oid_get_pk_alg\000"
 13555      6765745F 
 13555      706B5F61 
 13555      6C6700
 13556              	.LASF74:
ARM GAS  C:\Users\jo\AppData\Local\Temp\ccRMLSMa.s 			page 244


 13557 0613 5F6F6666 		.ascii	"_offset\000"
 13557      73657400 
 13558              	.LASF153:
 13559 061b 504F4C41 		.ascii	"POLARSSL_ECP_DP_SECP224K1\000"
 13559      5253534C 
 13559      5F454350 
 13559      5F44505F 
 13559      53454350 
 13560              	.LASF278:
 13561 0635 6D645F61 		.ascii	"md_alg\000"
 13561      6C6700
 13562              	.LASF265:
 13563 063c 706B5F67 		.ascii	"pk_get_ecparams\000"
 13563      65745F65 
 13563      63706172 
 13563      616D7300 
 13564              	.LASF188:
 13565 064c 63686563 		.ascii	"check_pair_func\000"
 13565      6B5F7061 
 13565      69725F66 
 13565      756E6300 
 13566              	.LASF180:
 13567 065c 76616C75 		.ascii	"value\000"
 13567      6500
 13568              	.LASF85:
 13569 0662 5F656D65 		.ascii	"_emergency\000"
 13569      7267656E 
 13569      637900
 13570              	.LASF204:
 13571 066d 504F4C41 		.ascii	"POLARSSL_CIPHER_AES_192_CBC\000"
 13571      5253534C 
 13571      5F434950 
 13571      4845525F 
 13571      4145535F 
 13572              	.LASF304:
 13573 0689 6563705F 		.ascii	"ecp_use_known_dp\000"
 13573      7573655F 
 13573      6B6E6F77 
 13573      6E5F6470 
 13573      00
 13574              	.LASF328:
 13575 069a 7273615F 		.ascii	"rsa_check_pubkey\000"
 13575      63686563 
 13575      6B5F7075 
 13575      626B6579 
 13575      00
 13576              	.LASF229:
 13577 06ab 504F4C41 		.ascii	"POLARSSL_CIPHER_CAMELLIA_256_GCM\000"
 13577      5253534C 
 13577      5F434950 
 13577      4845525F 
 13577      43414D45 
 13578              	.LASF337:
 13579 06cc 6563705F 		.ascii	"ecp_grp_id_list\000"
 13579      6772705F 
 13579      69645F6C 
 13579      69737400 
ARM GAS  C:\Users\jo\AppData\Local\Temp\ccRMLSMa.s 			page 245


 13580              	.LASF233:
 13581 06dc 504F4C41 		.ascii	"POLARSSL_CIPHER_DES_EDE_CBC\000"
 13581      5253534C 
 13581      5F434950 
 13581      4845525F 
 13581      4445535F 
 13582              	.LASF11:
 13583 06f8 73697A65 		.ascii	"size_t\000"
 13583      5F7400
 13584              	.LASF190:
 13585 06ff 6374785F 		.ascii	"ctx_free_func\000"
 13585      66726565 
 13585      5F66756E 
 13585      6300
 13586              	.LASF296:
 13587 070d 6D656D63 		.ascii	"memcmp\000"
 13587      6D7000
 13588              	.LASF42:
 13589 0714 5F5F746D 		.ascii	"__tm_sec\000"
 13589      5F736563 
 13589      00
 13590              	.LASF207:
 13591 071d 504F4C41 		.ascii	"POLARSSL_CIPHER_AES_192_CFB128\000"
 13591      5253534C 
 13591      5F434950 
 13591      4845525F 
 13591      4145535F 
 13592              	.LASF49:
 13593 073c 5F5F746D 		.ascii	"__tm_yday\000"
 13593      5F796461 
 13593      7900
 13594              	.LASF140:
 13595 0746 504F4C41 		.ascii	"POLARSSL_ECP_DP_SECP192R1\000"
 13595      5253534C 
 13595      5F454350 
 13595      5F44505F 
 13595      53454350 
 13596              	.LASF84:
 13597 0760 5F696E63 		.ascii	"_inc\000"
 13597      00
 13598              	.LASF57:
 13599 0765 5F696E64 		.ascii	"_ind\000"
 13599      00
 13600              	.LASF307:
 13601 076a 6F69645F 		.ascii	"oid_get_ec_grp\000"
 13601      6765745F 
 13601      65635F67 
 13601      727000
 13602              	.LASF301:
 13603 0779 7273615F 		.ascii	"rsa_free\000"
 13603      66726565 
 13603      00
 13604              	.LASF336:
 13605 0782 706F6C61 		.ascii	"polarssl_zeroize\000"
 13605      7273736C 
 13605      5F7A6572 
 13605      6F697A65 
ARM GAS  C:\Users\jo\AppData\Local\Temp\ccRMLSMa.s 			page 246


 13605      00
 13606              	.LASF261:
 13607 0793 706B5F67 		.ascii	"pk_group_id_from_group\000"
 13607      726F7570 
 13607      5F69645F 
 13607      66726F6D 
 13607      5F67726F 
 13608              	.LASF36:
 13609 07aa 5F6E6578 		.ascii	"_next\000"
 13609      7400
 13610              	.LASF124:
 13611 07b0 5F6D6273 		.ascii	"_mbsrtowcs_state\000"
 13611      72746F77 
 13611      63735F73 
 13611      74617465 
 13611      00
 13612              	.LASF289:
 13613 07c1 61736E31 		.ascii	"asn1_get_tag\000"
 13613      5F676574 
 13613      5F746167 
 13613      00
 13614              	.LASF279:
 13615 07ce 70617468 		.ascii	"path\000"
 13615      00
 13616              	.LASF141:
 13617 07d3 504F4C41 		.ascii	"POLARSSL_ECP_DP_SECP224R1\000"
 13617      5253534C 
 13617      5F454350 
 13617      5F44505F 
 13617      53454350 
 13618              	.LASF163:
 13619 07ed 545F7369 		.ascii	"T_size\000"
 13619      7A6500
 13620              	.LASF298:
 13621 07f4 6D70695F 		.ascii	"mpi_read_binary\000"
 13621      72656164 
 13621      5F62696E 
 13621      61727900 
 13622              	.LASF32:
 13623 0804 5F5F7661 		.ascii	"__value\000"
 13623      6C756500 
 13624              	.LASF92:
 13625 080c 5F703573 		.ascii	"_p5s\000"
 13625      00
 13626              	.LASF286:
 13627 0811 706B5F70 		.ascii	"pk_parse_keyfile\000"
 13627      61727365 
 13627      5F6B6579 
 13627      66696C65 
 13627      00
 13628              	.LASF335:
 13629 0822 433A5C55 		.ascii	"C:\\Users\\jo\\Documents\\GitHub\\ChibiOS\\demos\\S"
 13629      73657273 
 13629      5C6A6F5C 
 13629      446F6375 
 13629      6D656E74 
 13630 084e 544D3332 		.ascii	"TM32\\RT-STM32F407-DISCOVERY-uHttp\000"
ARM GAS  C:\Users\jo\AppData\Local\Temp\ccRMLSMa.s 			page 247


 13630      5C52542D 
 13630      53544D33 
 13630      32463430 
 13630      372D4449 
 13631              	.LASF126:
 13632 0870 5F776373 		.ascii	"_wcsrtombs_state\000"
 13632      72746F6D 
 13632      62735F73 
 13632      74617465 
 13632      00
 13633              	.LASF116:
 13634 0881 5F6D626C 		.ascii	"_mblen_state\000"
 13634      656E5F73 
 13634      74617465 
 13634      00
 13635              	.LASF258:
 13636 088e 6B65796C 		.ascii	"keylen\000"
 13636      656E00
 13637              	.LASF315:
 13638 0895 706B5F66 		.ascii	"pk_free\000"
 13638      72656500 
 13639              	.LASF13:
 13640 089d 63686172 		.ascii	"char\000"
 13640      00
 13641              	.LASF45:
 13642 08a2 5F5F746D 		.ascii	"__tm_mday\000"
 13642      5F6D6461 
 13642      7900
 13643              	.LASF98:
 13644 08ac 5F736967 		.ascii	"_sig_func\000"
 13644      5F66756E 
 13644      6300
 13645              	.LASF123:
 13646 08b6 5F6D6272 		.ascii	"_mbrtowc_state\000"
 13646      746F7763 
 13646      5F737461 
 13646      746500
 13647              	.LASF97:
 13648 08c5 5F617465 		.ascii	"_atexit0\000"
 13648      78697430 
 13648      00
 13649              	.LASF263:
 13650 08ce 706B5F70 		.ascii	"pk_parse_key_pkcs1_der\000"
 13650      61727365 
 13650      5F6B6579 
 13650      5F706B63 
 13650      73315F64 
 13651              	.LASF150:
 13652 08e5 504F4C41 		.ascii	"POLARSSL_ECP_DP_M383\000"
 13652      5253534C 
 13652      5F454350 
 13652      5F44505F 
 13652      4D333833 
 13653              	.LASF215:
 13654 08fa 504F4C41 		.ascii	"POLARSSL_CIPHER_CAMELLIA_128_ECB\000"
 13654      5253534C 
 13654      5F434950 
ARM GAS  C:\Users\jo\AppData\Local\Temp\ccRMLSMa.s 			page 248


 13654      4845525F 
 13654      43414D45 
 13655              	.LASF260:
 13656 091b 6772705F 		.ascii	"grp_id\000"
 13656      696400
 13657              	.LASF248:
 13658 0922 6275666C 		.ascii	"buflen\000"
 13658      656E00
 13659              	.LASF239:
 13660 0929 504F4C41 		.ascii	"POLARSSL_CIPHER_BLOWFISH_CTR\000"
 13660      5253534C 
 13660      5F434950 
 13660      4845525F 
 13660      424C4F57 
 13661              	.LASF291:
 13662 0946 61736E31 		.ascii	"asn1_get_mpi\000"
 13662      5F676574 
 13662      5F6D7069 
 13662      00
 13663              	.LASF34:
 13664 0953 5F666C6F 		.ascii	"_flock_t\000"
 13664      636B5F74 
 13664      00
 13665              	.LASF182:
 13666 095c 6765745F 		.ascii	"get_size\000"
 13666      73697A65 
 13666      00
 13667              	.LASF277:
 13668 0965 63697068 		.ascii	"cipher_alg\000"
 13668      65725F61 
 13668      6C6700
 13669              	.LASF28:
 13670 0970 5F5F7763 		.ascii	"__wch\000"
 13670      6800
 13671              	.LASF104:
 13672 0976 5F696F62 		.ascii	"_iobs\000"
 13672      7300
 13673              	.LASF314:
 13674 097c 706B5F69 		.ascii	"pk_init_ctx\000"
 13674      6E69745F 
 13674      63747800 
 13675              	.LASF178:
 13676 0988 74797065 		.ascii	"type\000"
 13676      00
 13677              	.LASF256:
 13678 098d 656E645F 		.ascii	"end_field\000"
 13678      6669656C 
 13678      6400
 13679              	.LASF70:
 13680 0997 5F636C6F 		.ascii	"_close\000"
 13680      736500
 13681              	.LASF88:
 13682 099e 5F5F7364 		.ascii	"__sdidinit\000"
 13682      6964696E 
 13682      697400
 13683              	.LASF206:
 13684 09a9 504F4C41 		.ascii	"POLARSSL_CIPHER_AES_128_CFB128\000"
ARM GAS  C:\Users\jo\AppData\Local\Temp\ccRMLSMa.s 			page 249


 13684      5253534C 
 13684      5F434950 
 13684      4845525F 
 13684      4145535F 
 13685              	.LASF81:
 13686 09c8 5F737464 		.ascii	"_stdin\000"
 13686      696E00
 13687              	.LASF113:
 13688 09cf 5F67616D 		.ascii	"_gamma_signgam\000"
 13688      6D615F73 
 13688      69676E67 
 13688      616D00
 13689              	.LASF251:
 13690 09de 706B5F61 		.ascii	"pk_alg\000"
 13690      6C6700
 13691              	.LASF22:
 13692 09e5 6C6F6E67 		.ascii	"long long int\000"
 13692      206C6F6E 
 13692      6720696E 
 13692      7400
 13693              	.LASF210:
 13694 09f3 504F4C41 		.ascii	"POLARSSL_CIPHER_AES_192_CTR\000"
 13694      5253534C 
 13694      5F434950 
 13694      4845525F 
 13694      4145535F 
 13695              	.LASF60:
 13696 0a0f 5F626173 		.ascii	"_base\000"
 13696      6500
 13697              	.LASF217:
 13698 0a15 504F4C41 		.ascii	"POLARSSL_CIPHER_CAMELLIA_256_ECB\000"
 13698      5253534C 
 13698      5F434950 
 13698      4845525F 
 13698      43414D45 
 13699              	.LASF93:
 13700 0a36 5F667265 		.ascii	"_freelist\000"
 13700      656C6973 
 13700      7400
 13701              	.LASF136:
 13702 0a40 70616464 		.ascii	"padding\000"
 13702      696E6700 
 13703              	.LASF107:
 13704 0a48 5F6D756C 		.ascii	"_mult\000"
 13704      7400
 13705              	.LASF35:
 13706 0a4e 5F5F554C 		.ascii	"__ULong\000"
 13706      6F6E6700 
 13707              	.LASF125:
 13708 0a56 5F776372 		.ascii	"_wcrtomb_state\000"
 13708      746F6D62 
 13708      5F737461 
 13708      746500
 13709              	.LASF311:
 13710 0a65 6563705F 		.ascii	"ecp_keypair_free\000"
 13710      6B657970 
 13710      6169725F 
ARM GAS  C:\Users\jo\AppData\Local\Temp\ccRMLSMa.s 			page 250


 13710      66726565 
 13710      00
 13711              	.LASF64:
 13712 0a76 5F66696C 		.ascii	"_file\000"
 13712      6500
 13713              	.LASF158:
 13714 0a7c 6E626974 		.ascii	"nbits\000"
 13714      7300
 13715              	.LASF8:
 13716 0a82 504F4C41 		.ascii	"POLARSSL_MD_SHA384\000"
 13716      5253534C 
 13716      5F4D445F 
 13716      53484133 
 13716      383400
 13717              	.LASF162:
 13718 0a95 745F6461 		.ascii	"t_data\000"
 13718      746100
 13719              	.LASF266:
 13720 0a9c 706B5F67 		.ascii	"pk_get_ecpubkey\000"
 13720      65745F65 
 13720      63707562 
 13720      6B657900 
 13721              	.LASF183:
 13722 0aac 63616E5F 		.ascii	"can_do\000"
 13722      646F00
 13723              	.LASF322:
 13724 0ab3 66736565 		.ascii	"fseek\000"
 13724      6B00
 13725              	.LASF316:
 13726 0ab9 6D656D73 		.ascii	"memset\000"
 13726      657400
 13727              	.LASF89:
 13728 0ac0 5F5F636C 		.ascii	"__cleanup\000"
 13728      65616E75 
 13728      7000
 13729              	.LASF283:
 13730 0aca 706B5F70 		.ascii	"pk_parse_subpubkey\000"
 13730      61727365 
 13730      5F737562 
 13730      7075626B 
 13730      657900
 13731              	.LASF202:
 13732 0add 504F4C41 		.ascii	"POLARSSL_CIPHER_AES_256_ECB\000"
 13732      5253534C 
 13732      5F434950 
 13732      4845525F 
 13732      4145535F 
 13733              	.LASF33:
 13734 0af9 5F6D6273 		.ascii	"_mbstate_t\000"
 13734      74617465 
 13734      5F7400
 13735              	.LASF10:
 13736 0b04 504F4C41 		.ascii	"POLARSSL_MD_RIPEMD160\000"
 13736      5253534C 
 13736      5F4D445F 
 13736      52495045 
 13736      4D443136 
ARM GAS  C:\Users\jo\AppData\Local\Temp\ccRMLSMa.s 			page 251


 13737              	.LASF309:
 13738 0b1a 6563705F 		.ascii	"ecp_mul\000"
 13738      6D756C00 
 13739              	.LASF329:
 13740 0b22 70656D5F 		.ascii	"pem_init\000"
 13740      696E6974 
 13740      00
 13741              	.LASF50:
 13742 0b2b 5F5F746D 		.ascii	"__tm_isdst\000"
 13742      5F697364 
 13742      737400
 13743              	.LASF270:
 13744 0b36 656E6432 		.ascii	"end2\000"
 13744      00
 13745              	.LASF255:
 13746 0b3b 706B5F67 		.ascii	"pk_group_from_specified\000"
 13746      726F7570 
 13746      5F66726F 
 13746      6D5F7370 
 13746      65636966 
 13747              	.LASF139:
 13748 0b53 504F4C41 		.ascii	"POLARSSL_ECP_DP_NONE\000"
 13748      5253534C 
 13748      5F454350 
 13748      5F44505F 
 13748      4E4F4E45 
 13749              	.LASF191:
 13750 0b68 64656275 		.ascii	"debug_func\000"
 13750      675F6675 
 13750      6E6300
 13751              	.LASF249:
 13752 0b73 696E666F 		.ascii	"info\000"
 13752      00
 13753              	.LASF222:
 13754 0b78 504F4C41 		.ascii	"POLARSSL_CIPHER_CAMELLIA_192_CFB128\000"
 13754      5253534C 
 13754      5F434950 
 13754      4845525F 
 13754      43414D45 
 13755              	.LASF323:
 13756 0b9c 6674656C 		.ascii	"ftell\000"
 13756      6C00
 13757              	.LASF127:
 13758 0ba2 5F685F65 		.ascii	"_h_errno\000"
 13758      72726E6F 
 13758      00
 13759              	.LASF176:
 13760 0bab 504F4C41 		.ascii	"POLARSSL_PK_DEBUG_ECP\000"
 13760      5253534C 
 13760      5F504B5F 
 13760      44454255 
 13760      475F4543 
 13761              	.LASF186:
 13762 0bc1 64656372 		.ascii	"decrypt_func\000"
 13762      7970745F 
 13762      66756E63 
 13762      00
ARM GAS  C:\Users\jo\AppData\Local\Temp\ccRMLSMa.s 			page 252


 13763              	.LASF321:
 13764 0bce 666F7065 		.ascii	"fopen\000"
 13764      6E00
 13765              	.LASF269:
 13766 0bd4 7075626B 		.ascii	"pubkey_done\000"
 13766      65795F64 
 13766      6F6E6500 
 13767              	.LASF212:
 13768 0be0 504F4C41 		.ascii	"POLARSSL_CIPHER_AES_128_GCM\000"
 13768      5253534C 
 13768      5F434950 
 13768      4845525F 
 13768      4145535F 
 13769              	.LASF332:
 13770 0bfc 7374726C 		.ascii	"strlen\000"
 13770      656E00
 13771              	.LASF46:
 13772 0c03 5F5F746D 		.ascii	"__tm_mon\000"
 13772      5F6D6F6E 
 13772      00
 13773              	.LASF228:
 13774 0c0c 504F4C41 		.ascii	"POLARSSL_CIPHER_CAMELLIA_192_GCM\000"
 13774      5253534C 
 13774      5F434950 
 13774      4845525F 
 13774      43414D45 
 13775              	.LASF164:
 13776 0c2d 6563705F 		.ascii	"ecp_group\000"
 13776      67726F75 
 13776      7000
 13777              	.LASF230:
 13778 0c37 504F4C41 		.ascii	"POLARSSL_CIPHER_DES_ECB\000"
 13778      5253534C 
 13778      5F434950 
 13778      4845525F 
 13778      4445535F 
 13779              	.LASF282:
 13780 0c4f 706B5F6C 		.ascii	"pk_load_file\000"
 13780      6F61645F 
 13780      66696C65 
 13780      00
 13781              	.LASF68:
 13782 0c5c 5F777269 		.ascii	"_write\000"
 13782      746500
 13783              	.LASF185:
 13784 0c63 7369676E 		.ascii	"sign_func\000"
 13784      5F66756E 
 13784      6300
 13785              	.LASF12:
 13786 0c6d 6D645F74 		.ascii	"md_type_t\000"
 13786      7970655F 
 13786      7400
 13787              	.LASF220:
 13788 0c77 504F4C41 		.ascii	"POLARSSL_CIPHER_CAMELLIA_256_CBC\000"
 13788      5253534C 
 13788      5F434950 
 13788      4845525F 
ARM GAS  C:\Users\jo\AppData\Local\Temp\ccRMLSMa.s 			page 253


 13788      43414D45 
 13789              	.LASF244:
 13790 0c98 504F4C41 		.ascii	"POLARSSL_CIPHER_CAMELLIA_128_CCM\000"
 13790      5253534C 
 13790      5F434950 
 13790      4845525F 
 13790      43414D45 
 13791              	.LASF300:
 13792 0cb9 6D70695F 		.ascii	"mpi_lset\000"
 13792      6C736574 
 13792      00
 13793              	.LASF56:
 13794 0cc2 5F617465 		.ascii	"_atexit\000"
 13794      78697400 
 13795              	.LASF77:
 13796 0cca 5F6D6273 		.ascii	"_mbstate\000"
 13796      74617465 
 13796      00
 13797              	.LASF330:
 13798 0cd3 70656D5F 		.ascii	"pem_read_buffer\000"
 13798      72656164 
 13798      5F627566 
 13798      66657200 
 13799              	.LASF193:
 13800 0ce3 706B5F69 		.ascii	"pk_info\000"
 13800      6E666F00 
 13801              	.LASF168:
 13802 0ceb 504F4C41 		.ascii	"POLARSSL_PK_ECKEY\000"
 13802      5253534C 
 13802      5F504B5F 
 13802      45434B45 
 13802      5900
 13803              	.LASF16:
 13804 0cfd 73686F72 		.ascii	"short int\000"
 13804      7420696E 
 13804      7400
 13805              	.LASF145:
 13806 0d07 504F4C41 		.ascii	"POLARSSL_ECP_DP_BP256R1\000"
 13806      5253534C 
 13806      5F454350 
 13806      5F44505F 
 13806      42503235 
 13807              	.LASF214:
 13808 0d1f 504F4C41 		.ascii	"POLARSSL_CIPHER_AES_256_GCM\000"
 13808      5253534C 
 13808      5F434950 
 13808      4845525F 
 13808      4145535F 
 13809              	.LASF19:
 13810 0d3b 6C6F6E67 		.ascii	"long int\000"
 13810      20696E74 
 13810      00
 13811              	.LASF325:
 13812 0d44 66726561 		.ascii	"fread\000"
 13812      6400
 13813              	.LASF138:
 13814 0d4a 7273615F 		.ascii	"rsa_context\000"
ARM GAS  C:\Users\jo\AppData\Local\Temp\ccRMLSMa.s 			page 254


 13814      636F6E74 
 13814      65787400 
 13815              	.LASF196:
 13816 0d56 5F61736E 		.ascii	"_asn1_buf\000"
 13816      315F6275 
 13816      6600
 13817              	.LASF100:
 13818 0d60 5F5F7366 		.ascii	"__sf\000"
 13818      00
 13819              	.LASF38:
 13820 0d65 5F736967 		.ascii	"_sign\000"
 13820      6E00
 13821              	.LASF87:
 13822 0d6b 5F637572 		.ascii	"_current_locale\000"
 13822      72656E74 
 13822      5F6C6F63 
 13822      616C6500 
 13823              	.LASF221:
 13824 0d7b 504F4C41 		.ascii	"POLARSSL_CIPHER_CAMELLIA_128_CFB128\000"
 13824      5253534C 
 13824      5F434950 
 13824      4845525F 
 13824      43414D45 
 13825              	.LASF312:
 13826 0d9f 61736E31 		.ascii	"asn1_get_bitstring_null\000"
 13826      5F676574 
 13826      5F626974 
 13826      73747269 
 13826      6E675F6E 
 13827              	.LASF75:
 13828 0db7 5F646174 		.ascii	"_data\000"
 13828      6100
 13829              	.LASF29:
 13830 0dbd 5F5F7763 		.ascii	"__wchb\000"
 13830      686200
 13831              	.LASF272:
 13832 0dc4 706B5F70 		.ascii	"pk_parse_key_pkcs8_encrypted_der\000"
 13832      61727365 
 13832      5F6B6579 
 13832      5F706B63 
 13832      73385F65 
 13833              	.LASF246:
 13834 0de5 504F4C41 		.ascii	"POLARSSL_CIPHER_CAMELLIA_256_CCM\000"
 13834      5253534C 
 13834      5F434950 
 13834      4845525F 
 13834      43414D45 
 13835              	.LASF326:
 13836 0e06 66636C6F 		.ascii	"fclose\000"
 13836      736500
 13837              	.LASF47:
 13838 0e0d 5F5F746D 		.ascii	"__tm_year\000"
 13838      5F796561 
 13838      7200
 13839              	.LASF192:
 13840 0e17 706B5F69 		.ascii	"pk_info_t\000"
 13840      6E666F5F 
ARM GAS  C:\Users\jo\AppData\Local\Temp\ccRMLSMa.s 			page 255


 13840      7400
 13841              	.LASF147:
 13842 0e21 504F4C41 		.ascii	"POLARSSL_ECP_DP_BP512R1\000"
 13842      5253534C 
 13842      5F454350 
 13842      5F44505F 
 13842      42503531 
 13843              	.LASF6:
 13844 0e39 504F4C41 		.ascii	"POLARSSL_MD_SHA224\000"
 13844      5253534C 
 13844      5F4D445F 
 13844      53484132 
 13844      323400
 13845              	.LASF174:
 13846 0e4c 504F4C41 		.ascii	"POLARSSL_PK_DEBUG_NONE\000"
 13846      5253534C 
 13846      5F504B5F 
 13846      44454255 
 13846      475F4E4F 
 13847              	.LASF112:
 13848 0e63 5F6C6F63 		.ascii	"_localtime_buf\000"
 13848      616C7469 
 13848      6D655F62 
 13848      756600
 13849              	.LASF130:
 13850 0e72 5F756E75 		.ascii	"_unused\000"
 13850      73656400 
 13851              	.LASF327:
 13852 0e7a 66726565 		.ascii	"free\000"
 13852      00
 13853              	.LASF96:
 13854 0e7f 5F6E6577 		.ascii	"_new\000"
 13854      00
 13855              	.LASF94:
 13856 0e84 5F637674 		.ascii	"_cvtlen\000"
 13856      6C656E00 
 13857              	.LASF37:
 13858 0e8c 5F6D6178 		.ascii	"_maxwds\000"
 13858      77647300 
 13859              	.LASF119:
 13860 0e94 5F6C3634 		.ascii	"_l64a_buf\000"
 13860      615F6275 
 13860      6600
 13861              	.LASF86:
 13862 0e9e 5F637572 		.ascii	"_current_category\000"
 13862      72656E74 
 13862      5F636174 
 13862      65676F72 
 13862      7900
 13863              	.LASF247:
 13864 0eb0 63697068 		.ascii	"cipher_type_t\000"
 13864      65725F74 
 13864      7970655F 
 13864      7400
 13865              	.LASF151:
 13866 0ebe 504F4C41 		.ascii	"POLARSSL_ECP_DP_M511\000"
 13866      5253534C 
ARM GAS  C:\Users\jo\AppData\Local\Temp\ccRMLSMa.s 			page 256


 13866      5F454350 
 13866      5F44505F 
 13866      4D353131 
 13867              	.LASF238:
 13868 0ed3 504F4C41 		.ascii	"POLARSSL_CIPHER_BLOWFISH_CFB64\000"
 13868      5253534C 
 13868      5F434950 
 13868      4845525F 
 13868      424C4F57 
 13869              	.LASF224:
 13870 0ef2 504F4C41 		.ascii	"POLARSSL_CIPHER_CAMELLIA_128_CTR\000"
 13870      5253534C 
 13870      5F434950 
 13870      4845525F 
 13870      43414D45 
 13871              	.LASF73:
 13872 0f13 5F626C6B 		.ascii	"_blksize\000"
 13872      73697A65 
 13872      00
 13873              	.LASF41:
 13874 0f1c 5F5F746D 		.ascii	"__tm\000"
 13874      00
 13875              	.LASF305:
 13876 0f21 6D70695F 		.ascii	"mpi_cmp_mpi\000"
 13876      636D705F 
 13876      6D706900 
 13877              	.LASF76:
 13878 0f2d 5F6C6F63 		.ascii	"_lock\000"
 13878      6B00
 13879              	.LASF232:
 13880 0f33 504F4C41 		.ascii	"POLARSSL_CIPHER_DES_EDE_ECB\000"
 13880      5253534C 
 13880      5F434950 
 13880      4845525F 
 13880      4445535F 
 13881              	.LASF216:
 13882 0f4f 504F4C41 		.ascii	"POLARSSL_CIPHER_CAMELLIA_192_ECB\000"
 13882      5253534C 
 13882      5F434950 
 13882      4845525F 
 13882      43414D45 
 13883              	.LASF30:
 13884 0f70 73697A65 		.ascii	"sizetype\000"
 13884      74797065 
 13884      00
 13885              	.LASF21:
 13886 0f79 6C6F6E67 		.ascii	"long unsigned int\000"
 13886      20756E73 
 13886      69676E65 
 13886      6420696E 
 13886      7400
 13887              	.LASF264:
 13888 0f8b 706B5F75 		.ascii	"pk_use_ecparams\000"
 13888      73655F65 
 13888      63706172 
 13888      616D7300 
 13889              	.LASF170:
ARM GAS  C:\Users\jo\AppData\Local\Temp\ccRMLSMa.s 			page 257


 13890 0f9b 504F4C41 		.ascii	"POLARSSL_PK_ECDSA\000"
 13890      5253534C 
 13890      5F504B5F 
 13890      45434453 
 13890      4100
 13891              	.LASF103:
 13892 0fad 5F6E696F 		.ascii	"_niobs\000"
 13892      627300
 13893              	.LASF27:
 13894 0fb4 77696E74 		.ascii	"wint_t\000"
 13894      5F7400
 13895              	.LASF132:
 13896 0fbb 696E7433 		.ascii	"int32_t\000"
 13896      325F7400 
 13897              	.LASF317:
 13898 0fc3 6F69645F 		.ascii	"oid_get_pkcs12_pbe_alg\000"
 13898      6765745F 
 13898      706B6373 
 13898      31325F70 
 13898      62655F61 
 13899              	.LASF200:
 13900 0fda 504F4C41 		.ascii	"POLARSSL_CIPHER_AES_128_ECB\000"
 13900      5253534C 
 13900      5F434950 
 13900      4845525F 
 13900      4145535F 
 13901              	.LASF154:
 13902 0ff6 504F4C41 		.ascii	"POLARSSL_ECP_DP_SECP256K1\000"
 13902      5253534C 
 13902      5F454350 
 13902      5F44505F 
 13902      53454350 
 13903              	.LASF208:
 13904 1010 504F4C41 		.ascii	"POLARSSL_CIPHER_AES_256_CFB128\000"
 13904      5253534C 
 13904      5F434950 
 13904      4845525F 
 13904      4145535F 
 13905              	.LASF53:
 13906 102f 5F64736F 		.ascii	"_dso_handle\000"
 13906      5F68616E 
 13906      646C6500 
 13907              	.LASF187:
 13908 103b 656E6372 		.ascii	"encrypt_func\000"
 13908      7970745F 
 13908      66756E63 
 13908      00
 13909              	.LASF198:
 13910 1048 504F4C41 		.ascii	"POLARSSL_CIPHER_NONE\000"
 13910      5253534C 
 13910      5F434950 
 13910      4845525F 
 13910      4E4F4E45 
 13911              	.LASF194:
 13912 105d 706B5F63 		.ascii	"pk_ctx\000"
 13912      747800
 13913              	.LASF157:
ARM GAS  C:\Users\jo\AppData\Local\Temp\ccRMLSMa.s 			page 258


 13914 1064 70626974 		.ascii	"pbits\000"
 13914      7300
 13915              	.LASF95:
 13916 106a 5F637674 		.ascii	"_cvtbuf\000"
 13916      62756600 
 13917              	.LASF240:
 13918 1072 504F4C41 		.ascii	"POLARSSL_CIPHER_ARC4_128\000"
 13918      5253534C 
 13918      5F434950 
 13918      4845525F 
 13918      41524334 
 13919              	.LASF14:
 13920 108b 756E7369 		.ascii	"unsigned char\000"
 13920      676E6564 
 13920      20636861 
 13920      7200
 13921              	.LASF285:
 13922 1099 706B5F70 		.ascii	"pk_parse_key\000"
 13922      61727365 
 13922      5F6B6579 
 13922      00
 13923              	.LASF20:
 13924 10a6 5F5F7569 		.ascii	"__uint32_t\000"
 13924      6E743332 
 13924      5F7400
 13925              	.LASF149:
 13926 10b1 504F4C41 		.ascii	"POLARSSL_ECP_DP_M255\000"
 13926      5253534C 
 13926      5F454350 
 13926      5F44505F 
 13926      4D323535 
 13927              	.LASF243:
 13928 10c6 504F4C41 		.ascii	"POLARSSL_CIPHER_AES_256_CCM\000"
 13928      5253534C 
 13928      5F434950 
 13928      4845525F 
 13928      4145535F 
 13929              	.LASF319:
 13930 10e2 706B6373 		.ascii	"pkcs12_pbe_sha1_rc4_128\000"
 13930      31325F70 
 13930      62655F73 
 13930      6861315F 
 13930      7263345F 
 13931              	.LASF226:
 13932 10fa 504F4C41 		.ascii	"POLARSSL_CIPHER_CAMELLIA_256_CTR\000"
 13932      5253534C 
 13932      5F434950 
 13932      4845525F 
 13932      43414D45 
 13933              	.LASF288:
 13934 111b 706B5F70 		.ascii	"pk_parse_public_keyfile\000"
 13934      61727365 
 13934      5F707562 
 13934      6C69635F 
 13934      6B657966 
 13935              	.LASF121:
 13936 1133 5F676574 		.ascii	"_getdate_err\000"
ARM GAS  C:\Users\jo\AppData\Local\Temp\ccRMLSMa.s 			page 259


 13936      64617465 
 13936      5F657272 
 13936      00
 13937              	.LASF143:
 13938 1140 504F4C41 		.ascii	"POLARSSL_ECP_DP_SECP384R1\000"
 13938      5253534C 
 13938      5F454350 
 13938      5F44505F 
 13938      53454350 
 13939              	.LASF9:
 13940 115a 504F4C41 		.ascii	"POLARSSL_MD_SHA512\000"
 13940      5253534C 
 13940      5F4D445F 
 13940      53484135 
 13940      313200
 13941              	.LASF308:
 13942 116d 6563705F 		.ascii	"ecp_check_pubkey\000"
 13942      63686563 
 13942      6B5F7075 
 13942      626B6579 
 13942      00
 13943              	.LASF197:
 13944 117e 61736E31 		.ascii	"asn1_buf\000"
 13944      5F627566 
 13944      00
 13945              	.LASF290:
 13946 1187 61736E31 		.ascii	"asn1_get_int\000"
 13946      5F676574 
 13946      5F696E74 
 13946      00
 13947              	.LASF253:
 13948 1194 616C675F 		.ascii	"alg_oid\000"
 13948      6F696400 
 13949              	.LASF59:
 13950 119c 5F5F7362 		.ascii	"__sbuf\000"
 13950      756600
 13951              	.LASF152:
 13952 11a3 504F4C41 		.ascii	"POLARSSL_ECP_DP_SECP192K1\000"
 13952      5253534C 
 13952      5F454350 
 13952      5F44505F 
 13952      53454350 
 13953              	.LASF318:
 13954 11bd 706B6373 		.ascii	"pkcs12_pbe\000"
 13954      31325F70 
 13954      626500
 13955              	.LASF102:
 13956 11c8 5F676C75 		.ascii	"_glue\000"
 13956      6500
 13957              	.LASF324:
 13958 11ce 6D616C6C 		.ascii	"malloc\000"
 13958      6F6300
 13959              	.LASF99:
 13960 11d5 5F5F7367 		.ascii	"__sglue\000"
 13960      6C756500 
 13961              	.LASF172:
 13962 11dd 504F4C41 		.ascii	"POLARSSL_PK_RSASSA_PSS\000"
ARM GAS  C:\Users\jo\AppData\Local\Temp\ccRMLSMa.s 			page 260


 13962      5253534C 
 13962      5F504B5F 
 13962      52534153 
 13962      53415F50 
 13963              	.LASF110:
 13964 11f4 5F737472 		.ascii	"_strtok_last\000"
 13964      746F6B5F 
 13964      6C617374 
 13964      00
 13965              	.LASF117:
 13966 1201 5F6D6274 		.ascii	"_mbtowc_state\000"
 13966      6F77635F 
 13966      73746174 
 13966      6500
 13967              	.LASF171:
 13968 120f 504F4C41 		.ascii	"POLARSSL_PK_RSA_ALT\000"
 13968      5253534C 
 13968      5F504B5F 
 13968      5253415F 
 13968      414C5400 
 13969              	.LASF52:
 13970 1223 5F666E61 		.ascii	"_fnargs\000"
 13970      72677300 
 13971              	.LASF15:
 13972 122b 7369676E 		.ascii	"signed char\000"
 13972      65642063 
 13972      68617200 
 13973              	.LASF79:
 13974 1237 5F726565 		.ascii	"_reent\000"
 13974      6E7400
 13975              	.LASF302:
 13976 123e 6563705F 		.ascii	"ecp_group_init\000"
 13976      67726F75 
 13976      705F696E 
 13976      697400
 13977              	.LASF17:
 13978 124d 73686F72 		.ascii	"short unsigned int\000"
 13978      7420756E 
 13978      7369676E 
 13978      65642069 
 13978      6E7400
 13979              	.LASF166:
 13980 1260 504F4C41 		.ascii	"POLARSSL_PK_NONE\000"
 13980      5253534C 
 13980      5F504B5F 
 13980      4E4F4E45 
 13980      00
 13981              	.LASF137:
 13982 1271 68617368 		.ascii	"hash_id\000"
 13982      5F696400 
 13983              	.LASF2:
 13984 1279 504F4C41 		.ascii	"POLARSSL_MD_MD2\000"
 13984      5253534C 
 13984      5F4D445F 
 13984      4D443200 
 13985              	.LASF3:
 13986 1289 504F4C41 		.ascii	"POLARSSL_MD_MD4\000"
ARM GAS  C:\Users\jo\AppData\Local\Temp\ccRMLSMa.s 			page 261


 13986      5253534C 
 13986      5F4D445F 
 13986      4D443400 
 13987              	.LASF4:
 13988 1299 504F4C41 		.ascii	"POLARSSL_MD_MD5\000"
 13988      5253534C 
 13988      5F4D445F 
 13988      4D443500 
 13989              	.LASF219:
 13990 12a9 504F4C41 		.ascii	"POLARSSL_CIPHER_CAMELLIA_192_CBC\000"
 13990      5253534C 
 13990      5F434950 
 13990      4845525F 
 13990      43414D45 
 13991              	.LASF306:
 13992 12ca 6D70695F 		.ascii	"mpi_get_bit\000"
 13992      6765745F 
 13992      62697400 
 13993              	.LASF7:
 13994 12d6 504F4C41 		.ascii	"POLARSSL_MD_SHA256\000"
 13994      5253534C 
 13994      5F4D445F 
 13994      53484132 
 13994      353600
 13995              	.LASF177:
 13996 12e9 706B5F64 		.ascii	"pk_debug_type\000"
 13996      65627567 
 13996      5F747970 
 13996      6500
 13997              	.LASF54:
 13998 12f7 5F666E74 		.ascii	"_fntypes\000"
 13998      79706573 
 13998      00
 13999              	.LASF61:
 14000 1300 5F73697A 		.ascii	"_size\000"
 14000      6500
 14001              	.LASF155:
 14002 1306 6563705F 		.ascii	"ecp_group_id\000"
 14002      67726F75 
 14002      705F6964 
 14002      00
 14003              	.LASF281:
 14004 1313 706B5F67 		.ascii	"pk_get_rsapubkey\000"
 14004      65745F72 
 14004      73617075 
 14004      626B6579 
 14004      00
 14005              	.LASF118:
 14006 1324 5F776374 		.ascii	"_wctomb_state\000"
 14006      6F6D625F 
 14006      73746174 
 14006      6500
 14007              	.LASF203:
 14008 1332 504F4C41 		.ascii	"POLARSSL_CIPHER_AES_128_CBC\000"
 14008      5253534C 
 14008      5F434950 
 14008      4845525F 
ARM GAS  C:\Users\jo\AppData\Local\Temp\ccRMLSMa.s 			page 262


 14008      4145535F 
 14009              	.LASF25:
 14010 134e 5F6F6666 		.ascii	"_off_t\000"
 14010      5F7400
 14011              	.LASF72:
 14012 1355 5F6E6275 		.ascii	"_nbuf\000"
 14012      6600
 14013              	.LASF109:
 14014 135b 5F756E75 		.ascii	"_unused_rand\000"
 14014      7365645F 
 14014      72616E64 
 14014      00
 14015              	.LASF161:
 14016 1368 745F706F 		.ascii	"t_post\000"
 14016      737400
 14017              	.LASF213:
 14018 136f 504F4C41 		.ascii	"POLARSSL_CIPHER_AES_192_GCM\000"
 14018      5253534C 
 14018      5F434950 
 14018      4845525F 
 14018      4145535F 
 14019              	.LASF131:
 14020 138b 46494C45 		.ascii	"FILE\000"
 14020      00
 14021              	.LASF218:
 14022 1390 504F4C41 		.ascii	"POLARSSL_CIPHER_CAMELLIA_128_CBC\000"
 14022      5253534C 
 14022      5F434950 
 14022      4845525F 
 14022      43414D45 
 14023              	.LASF78:
 14024 13b1 5F666C61 		.ascii	"_flags2\000"
 14024      67733200 
 14025              	.LASF1:
 14026 13b9 504F4C41 		.ascii	"POLARSSL_MD_NONE\000"
 14026      5253534C 
 14026      5F4D445F 
 14026      4E4F4E45 
 14026      00
 14027              	.LASF55:
 14028 13ca 5F69735F 		.ascii	"_is_cxa\000"
 14028      63786100 
 14029              	.LASF293:
 14030 13d2 7273615F 		.ascii	"rsa_check_privkey\000"
 14030      63686563 
 14030      6B5F7072 
 14030      69766B65 
 14030      7900
 14031              	.LASF106:
 14032 13e4 5F736565 		.ascii	"_seed\000"
 14032      6400
 14033              	.LASF114:
 14034 13ea 5F72616E 		.ascii	"_rand_next\000"
 14034      645F6E65 
 14034      787400
 14035              	.LASF134:
 14036 13f5 745F7369 		.ascii	"t_sint\000"
ARM GAS  C:\Users\jo\AppData\Local\Temp\ccRMLSMa.s 			page 263


 14036      6E7400
 14037              	.LASF148:
 14038 13fc 504F4C41 		.ascii	"POLARSSL_ECP_DP_M221\000"
 14038      5253534C 
 14038      5F454350 
 14038      5F44505F 
 14038      4D323231 
 14039              	.LASF234:
 14040 1411 504F4C41 		.ascii	"POLARSSL_CIPHER_DES_EDE3_ECB\000"
 14040      5253534C 
 14040      5F434950 
 14040      4845525F 
 14040      4445535F 
 14041              	.LASF69:
 14042 142e 5F736565 		.ascii	"_seek\000"
 14042      6B00
 14043              	.LASF292:
 14044 1434 6D70695F 		.ascii	"mpi_size\000"
 14044      73697A65 
 14044      00
 14045              	.LASF331:
 14046 143d 70656D5F 		.ascii	"pem_free\000"
 14046      66726565 
 14046      00
 14047              	.LASF189:
 14048 1446 6374785F 		.ascii	"ctx_alloc_func\000"
 14048      616C6C6F 
 14048      635F6675 
 14048      6E6300
 14049              	.LASF287:
 14050 1455 706B5F70 		.ascii	"pk_parse_public_key\000"
 14050      61727365 
 14050      5F707562 
 14050      6C69635F 
 14050      6B657900 
 14051              	.LASF83:
 14052 1469 5F737464 		.ascii	"_stderr\000"
 14052      65727200 
 14053              	.LASF129:
 14054 1471 5F6E6D61 		.ascii	"_nmalloc\000"
 14054      6C6C6F63 
 14054      00
 14055              	.LASF71:
 14056 147a 5F756275 		.ascii	"_ubuf\000"
 14056      6600
 14057              		.ident	"GCC: (GNU Tools for ARM Embedded Processors) 4.9.3 20141119 (release) [ARM/embedded-4_9-br
ARM GAS  C:\Users\jo\AppData\Local\Temp\ccRMLSMa.s 			page 264


DEFINED SYMBOLS
                            *ABS*:00000000 pkparse.c
C:\Users\jo\AppData\Local\Temp\ccRMLSMa.s:19     .text.pk_parse_key_pkcs1_der:00000000 $t
C:\Users\jo\AppData\Local\Temp\ccRMLSMa.s:24     .text.pk_parse_key_pkcs1_der:00000000 pk_parse_key_pkcs1_der
C:\Users\jo\AppData\Local\Temp\ccRMLSMa.s:234    .text.pk_parse_key_pkcs1_der:0000010c $d
C:\Users\jo\AppData\Local\Temp\ccRMLSMa.s:240    .text.pk_get_pk_alg:00000000 $t
C:\Users\jo\AppData\Local\Temp\ccRMLSMa.s:245    .text.pk_get_pk_alg:00000000 pk_get_pk_alg
C:\Users\jo\AppData\Local\Temp\ccRMLSMa.s:355    .text.pk_get_pk_alg:00000078 $d
C:\Users\jo\AppData\Local\Temp\ccRMLSMa.s:363    .text.pk_use_ecparams:00000000 $t
C:\Users\jo\AppData\Local\Temp\ccRMLSMa.s:368    .text.pk_use_ecparams:00000000 pk_use_ecparams
C:\Users\jo\AppData\Local\Temp\ccRMLSMa.s:945    .text.pk_use_ecparams:000002c0 $d
C:\Users\jo\AppData\Local\Temp\ccRMLSMa.s:959    .text.pk_parse_key_sec1_der:00000000 $t
C:\Users\jo\AppData\Local\Temp\ccRMLSMa.s:964    .text.pk_parse_key_sec1_der:00000000 pk_parse_key_sec1_der
C:\Users\jo\AppData\Local\Temp\ccRMLSMa.s:1300   .text.pk_parse_key_sec1_der:0000017c $d
C:\Users\jo\AppData\Local\Temp\ccRMLSMa.s:1308   .text.pk_parse_key_pkcs8_unencrypted_der:00000000 $t
C:\Users\jo\AppData\Local\Temp\ccRMLSMa.s:1313   .text.pk_parse_key_pkcs8_unencrypted_der:00000000 pk_parse_key_pkcs8_unencrypted_der
C:\Users\jo\AppData\Local\Temp\ccRMLSMa.s:1507   .text.pk_parse_key_pkcs8_unencrypted_der:000000dc $d
C:\Users\jo\AppData\Local\Temp\ccRMLSMa.s:1514   .text.unlikely.pk_parse_key_pkcs8_encrypted_der:00000000 $t
C:\Users\jo\AppData\Local\Temp\ccRMLSMa.s:1518   .text.unlikely.pk_parse_key_pkcs8_encrypted_der:00000000 pk_parse_key_pkcs8_encrypted_der
C:\Users\jo\AppData\Local\Temp\ccRMLSMa.s:1735   .text.unlikely.pk_parse_key_pkcs8_encrypted_der:0000012c $d
C:\Users\jo\AppData\Local\Temp\ccRMLSMa.s:1745   .text.pk_load_file:00000000 $t
C:\Users\jo\AppData\Local\Temp\ccRMLSMa.s:1751   .text.pk_load_file:00000000 pk_load_file
C:\Users\jo\AppData\Local\Temp\ccRMLSMa.s:1871   .text.pk_load_file:00000080 $d
C:\Users\jo\AppData\Local\Temp\ccRMLSMa.s:1878   .text.pk_parse_subpubkey:00000000 $t
C:\Users\jo\AppData\Local\Temp\ccRMLSMa.s:1884   .text.pk_parse_subpubkey:00000000 pk_parse_subpubkey
C:\Users\jo\AppData\Local\Temp\ccRMLSMa.s:2164   .text.pk_parse_subpubkey:00000138 $d
C:\Users\jo\AppData\Local\Temp\ccRMLSMa.s:2173   .text.pk_parse_key:00000000 $t
C:\Users\jo\AppData\Local\Temp\ccRMLSMa.s:2179   .text.pk_parse_key:00000000 pk_parse_key
C:\Users\jo\AppData\Local\Temp\ccRMLSMa.s:2526   .text.pk_parse_key:000001d8 $d
C:\Users\jo\AppData\Local\Temp\ccRMLSMa.s:2542   .text.pk_parse_keyfile:00000000 $t
C:\Users\jo\AppData\Local\Temp\ccRMLSMa.s:2548   .text.pk_parse_keyfile:00000000 pk_parse_keyfile
C:\Users\jo\AppData\Local\Temp\ccRMLSMa.s:2660   .text.pk_parse_public_key:00000000 $t
C:\Users\jo\AppData\Local\Temp\ccRMLSMa.s:2666   .text.pk_parse_public_key:00000000 pk_parse_public_key
C:\Users\jo\AppData\Local\Temp\ccRMLSMa.s:2751   .text.pk_parse_public_key:00000054 $d
C:\Users\jo\AppData\Local\Temp\ccRMLSMa.s:2757   .text.pk_parse_public_keyfile:00000000 $t
C:\Users\jo\AppData\Local\Temp\ccRMLSMa.s:2763   .text.pk_parse_public_keyfile:00000000 pk_parse_public_keyfile
C:\Users\jo\AppData\Local\Temp\ccRMLSMa.s:2863   .rodata.str1.4:00000000 $d
                     .debug_frame:00000010 $d
C:\Users\jo\AppData\Local\Temp\ccRMLSMa.s:239    .text.pk_parse_key_pkcs1_der:00000114 $t
C:\Users\jo\AppData\Local\Temp\ccRMLSMa.s:958    .text.pk_use_ecparams:000002d8 $t
C:\Users\jo\AppData\Local\Temp\ccRMLSMa.s:1307   .text.pk_parse_key_sec1_der:0000018c $t
C:\Users\jo\AppData\Local\Temp\ccRMLSMa.s:1513   .text.pk_parse_key_pkcs8_unencrypted_der:000000e8 $t
C:\Users\jo\AppData\Local\Temp\ccRMLSMa.s:1877   .text.pk_load_file:0000008c $t
C:\Users\jo\AppData\Local\Temp\ccRMLSMa.s:2172   .text.pk_parse_subpubkey:00000144 $t
C:\Users\jo\AppData\Local\Temp\ccRMLSMa.s:2541   .text.pk_parse_key:00000208 $t
C:\Users\jo\AppData\Local\Temp\ccRMLSMa.s:2756   .text.pk_parse_public_key:0000005c $t

UNDEFINED SYMBOLS
asn1_get_tag
asn1_get_int
asn1_get_mpi
rsa_free
mpi_size
rsa_check_privkey
asn1_get_alg
oid_get_pk_alg
ecp_group_init
ARM GAS  C:\Users\jo\AppData\Local\Temp\ccRMLSMa.s 			page 265


ecp_group_free
memcmp
ecp_grp_id_list
ecp_use_known_dp
mpi_cmp_mpi
mpi_get_bit
oid_get_ec_grp
mpi_msb
mpi_read_binary
ecp_point_read_binary
mpi_lset
ecp_mul
ecp_check_privkey
ecp_keypair_free
asn1_get_bitstring_null
ecp_check_pubkey
pk_info_from_type
pk_init_ctx
pk_free
memset
oid_get_pkcs12_pbe_alg
pkcs12_pbe
pkcs12_pbe_sha1_rc4_128
pkcs5_pbes2
fopen
fseek
ftell
malloc
fread
fclose
free
rsa_check_pubkey
pem_init
pem_read_buffer
pem_free
strlen
