ARM GAS  C:\Users\jo\AppData\Local\Temp\cc0xvuUV.s 			page 1


   1              		.syntax unified
   2              		.cpu cortex-m4
   3              		.fpu softvfp
   4              		.eabi_attribute 20, 1
   5              		.eabi_attribute 21, 1
   6              		.eabi_attribute 23, 3
   7              		.eabi_attribute 24, 1
   8              		.eabi_attribute 25, 1
   9              		.eabi_attribute 26, 1
  10              		.eabi_attribute 30, 2
  11              		.eabi_attribute 34, 1
  12              		.eabi_attribute 18, 4
  13              		.thumb
  14              		.file	"responses.c"
  15              		.text
  16              	.Ltext0:
  17              		.cfi_sections	.debug_frame
  18              		.section	.text.HttpResponseText,"ax",%progbits
  19              		.align	2
  20              		.p2align 4,,15
  21              		.global	HttpResponseText
  22              		.thumb
  23              		.thumb_func
  24              		.type	HttpResponseText, %function
  25              	HttpResponseText:
  26              	.LFB260:
  27              		.file 1 "../../../demos/STM32/RT-STM32F407-DISCOVERY-uHttp/uhttp-1.1/responses.c"
  28              		.loc 1 140 0
  29              		.cfi_startproc
  30              		@ args = 0, pretend = 0, frame = 0
  31              		@ frame_needed = 0, uses_anonymous_args = 0
  32              		@ link register save eliminated.
  33              	.LVL0:
  34 0000 30B4     		push	{r4, r5}
  35              		.cfi_def_cfa_offset 8
  36              		.cfi_offset 4, -8
  37              		.cfi_offset 5, -4
  38              		.loc 1 140 0
  39 0002 0146     		mov	r1, r0
  40 0004 0E4C     		ldr	r4, .L16
  41              		.loc 1 145 0
  42 0006 0023     		movs	r3, #0
  43 0008 01E0     		b	.L3
  44              	.LVL1:
  45              	.L14:
  46              		.loc 1 145 0 is_stmt 0 discriminator 2
  47 000a 432B     		cmp	r3, #67
  48 000c 09D0     		beq	.L4
  49              	.LVL2:
  50              	.L3:
  51              		.loc 1 146 0 is_stmt 1
  52 000e 54F83320 		ldr	r2, [r4, r3, lsl #3]
  53 0012 0B4D     		ldr	r5, .L16
  54 0014 8A42     		cmp	r2, r1
  55 0016 4FEAC300 		lsl	r0, r3, #3
  56 001a 03F10103 		add	r3, r3, #1
  57              	.LVL3:
ARM GAS  C:\Users\jo\AppData\Local\Temp\cc0xvuUV.s 			page 2


  58 001e F4DC     		bgt	.L14
  59              		.loc 1 150 0
  60 0020 07D0     		beq	.L15
  61              	.LVL4:
  62              	.L4:
  63              	.LBB7:
  64              	.LBB8:
  65              	.LBB9:
  66              		.loc 1 161 0
  67 0022 084B     		ldr	r3, .L16+4
  68              	.LVL5:
  69 0024 0848     		ldr	r0, .L16+8
  70              	.LBE9:
  71              	.LBE8:
  72              	.LBE7:
  73              		.loc 1 165 0
  74 0026 30BC     		pop	{r4, r5}
  75              		.cfi_remember_state
  76              		.cfi_restore 5
  77              		.cfi_restore 4
  78              		.cfi_def_cfa_offset 0
  79              	.LBB12:
  80              	.LBB11:
  81              	.LBB10:
  82              		.loc 1 161 0
  83 0028 B1F5C87F 		cmp	r1, #400
  84 002c B8BF     		it	lt
  85 002e 1846     		movlt	r0, r3
  86              	.LBE10:
  87              	.LBE11:
  88              	.LBE12:
  89              		.loc 1 165 0
  90 0030 7047     		bx	lr
  91              	.LVL6:
  92              	.L15:
  93              		.cfi_restore_state
  94              		.loc 1 151 0
  95 0032 2844     		add	r0, r0, r5
  96 0034 4068     		ldr	r0, [r0, #4]
  97              	.LVL7:
  98              		.loc 1 154 0
  99 0036 0028     		cmp	r0, #0
 100 0038 F3D0     		beq	.L4
 101              		.loc 1 165 0
 102 003a 30BC     		pop	{r4, r5}
 103              		.cfi_restore 4
 104              		.cfi_restore 5
 105              		.cfi_def_cfa_offset 0
 106 003c 7047     		bx	lr
 107              	.L17:
 108 003e 00BF     		.align	2
 109              	.L16:
 110 0040 00000000 		.word	.LANCHOR0
 111 0044 08000000 		.word	.LC1
 112 0048 00000000 		.word	.LC0
 113              		.cfi_endproc
 114              	.LFE260:
ARM GAS  C:\Users\jo\AppData\Local\Temp\cc0xvuUV.s 			page 3


 115              		.size	HttpResponseText, .-HttpResponseText
 116 004c AFF30080 		.section	.text.HttpSendHeaderTop,"ax",%progbits
 117              		.align	2
 118              		.p2align 4,,15
 119              		.global	HttpSendHeaderTop
 120              		.thumb
 121              		.thumb_func
 122              		.type	HttpSendHeaderTop, %function
 123              	HttpSendHeaderTop:
 124              	.LFB261:
 125              		.loc 1 168 0
 126              		.cfi_startproc
 127              		@ args = 0, pretend = 0, frame = 0
 128              		@ frame_needed = 0, uses_anonymous_args = 0
 129              	.LVL8:
 130 0000 30B5     		push	{r4, r5, lr}
 131              		.cfi_def_cfa_offset 12
 132              		.cfi_offset 4, -12
 133              		.cfi_offset 5, -8
 134              		.cfi_offset 14, -4
 135 0002 0546     		mov	r5, r0
 136 0004 83B0     		sub	sp, sp, #12
 137              		.cfi_def_cfa_offset 24
 138              		.loc 1 172 0
 139 0006 0846     		mov	r0, r1
 140              	.LVL9:
 141              		.loc 1 168 0
 142 0008 0C46     		mov	r4, r1
 143              		.loc 1 172 0
 144 000a FFF7FEFF 		bl	HttpResponseText
 145              	.LVL10:
 146 000e 2B68     		ldr	r3, [r5]
 147 0010 0449     		ldr	r1, .L20
 148 0012 0190     		str	r0, [sp, #4]
 149 0014 0122     		movs	r2, #1
 150 0016 1846     		mov	r0, r3
 151 0018 0094     		str	r4, [sp]
 152 001a 1346     		mov	r3, r2
 153 001c FFF7FEFF 		bl	s_printf
 154              	.LVL11:
 155              		.loc 1 181 0
 156 0020 03B0     		add	sp, sp, #12
 157              		.cfi_def_cfa_offset 12
 158              		@ sp needed
 159 0022 30BD     		pop	{r4, r5, pc}
 160              	.LVL12:
 161              	.L21:
 162              		.align	2
 163              	.L20:
 164 0024 00000000 		.word	.LANCHOR1
 165              		.cfi_endproc
 166              	.LFE261:
 167              		.size	HttpSendHeaderTop, .-HttpSendHeaderTop
 168 0028 AFF30080 		.section	.text.HttpSendHeaderBottom,"ax",%progbits
 168      AFF30080 
 169              		.align	2
 170              		.p2align 4,,15
ARM GAS  C:\Users\jo\AppData\Local\Temp\cc0xvuUV.s 			page 4


 171              		.global	HttpSendHeaderBottom
 172              		.thumb
 173              		.thumb_func
 174              		.type	HttpSendHeaderBottom, %function
 175              	HttpSendHeaderBottom:
 176              	.LFB262:
 177              		.loc 1 195 0
 178              		.cfi_startproc
 179              		@ args = 0, pretend = 0, frame = 0
 180              		@ frame_needed = 0, uses_anonymous_args = 0
 181              	.LVL13:
 182 0000 F0B5     		push	{r4, r5, r6, r7, lr}
 183              		.cfi_def_cfa_offset 20
 184              		.cfi_offset 4, -20
 185              		.cfi_offset 5, -16
 186              		.cfi_offset 6, -12
 187              		.cfi_offset 7, -8
 188              		.cfi_offset 14, -4
 189 0002 0446     		mov	r4, r0
 190 0004 85B0     		sub	sp, sp, #20
 191              		.cfi_def_cfa_offset 40
 192              		.loc 1 195 0
 193 0006 1D46     		mov	r5, r3
 194              		.loc 1 197 0
 195 0008 69B1     		cbz	r1, .L23
 196              		.loc 1 197 0 is_stmt 0 discriminator 1
 197 000a 62B1     		cbz	r2, .L23
 198              		.loc 1 198 0 is_stmt 1
 199 000c 0068     		ldr	r0, [r0]
 200              	.LVL14:
 201 000e 0F4F     		ldr	r7, .L32
 202 0010 0F4E     		ldr	r6, .L32+4
 203 0012 0192     		str	r2, [sp, #4]
 204 0014 0022     		movs	r2, #0
 205              	.LVL15:
 206 0016 0B46     		mov	r3, r1
 207              	.LVL16:
 208 0018 0392     		str	r2, [sp, #12]
 209 001a 0097     		str	r7, [sp]
 210 001c 0296     		str	r6, [sp, #8]
 211 001e 0D49     		ldr	r1, .L32+8
 212              	.LVL17:
 213 0020 0D4A     		ldr	r2, .L32+12
 214 0022 FFF7FEFF 		bl	s_vputs
 215              	.LVL18:
 216              	.L23:
 217              		.loc 1 200 0
 218 0026 002D     		cmp	r5, #0
 219 0028 05DB     		blt	.L24
 220              		.loc 1 201 0
 221 002a 2B46     		mov	r3, r5
 222 002c 2068     		ldr	r0, [r4]
 223 002e 0B49     		ldr	r1, .L32+16
 224 0030 0B4A     		ldr	r2, .L32+20
 225 0032 FFF7FEFF 		bl	s_printf
 226              	.LVL19:
 227              	.L24:
ARM GAS  C:\Users\jo\AppData\Local\Temp\cc0xvuUV.s 			page 5


 228              		.loc 1 220 0
 229 0036 2168     		ldr	r1, [r4]
 230 0038 0A48     		ldr	r0, .L32+24
 231 003a FFF7FEFF 		bl	s_puts
 232              	.LVL20:
 233              		.loc 1 229 0
 234 003e 2168     		ldr	r1, [r4]
 235 0040 0348     		ldr	r0, .L32+4
 236              		.loc 1 231 0
 237 0042 05B0     		add	sp, sp, #20
 238              		.cfi_def_cfa_offset 20
 239              		@ sp needed
 240 0044 BDE8F040 		pop	{r4, r5, r6, r7, lr}
 241              		.cfi_restore 14
 242              		.cfi_restore 7
 243              		.cfi_restore 6
 244              		.cfi_restore 5
 245              		.cfi_restore 4
 246              		.cfi_def_cfa_offset 0
 247              	.LVL21:
 248              		.loc 1 229 0
 249 0048 FFF7FEBF 		b	s_puts
 250              	.LVL22:
 251              	.L33:
 252              		.align	2
 253              	.L32:
 254 004c 10000000 		.word	.LC3
 255 0050 14000000 		.word	.LC4
 256 0054 00000000 		.word	ct_Content_Type
 257 0058 0C000000 		.word	.LC2
 258 005c 18000000 		.word	.LC5
 259 0060 00000000 		.word	ct_Content_Length
 260 0064 24000000 		.word	.LC6
 261              		.cfi_endproc
 262              	.LFE262:
 263              		.size	HttpSendHeaderBottom, .-HttpSendHeaderBottom
 264 0068 AFF30080 		.section	.text.HttpSendError,"ax",%progbits
 264      AFF30080 
 265              		.align	2
 266              		.p2align 4,,15
 267              		.global	HttpSendError
 268              		.thumb
 269              		.thumb_func
 270              		.type	HttpSendError, %function
 271              	HttpSendError:
 272              	.LFB263:
 273              		.loc 1 234 0
 274              		.cfi_startproc
 275              		@ args = 0, pretend = 0, frame = 0
 276              		@ frame_needed = 0, uses_anonymous_args = 0
 277              	.LVL23:
 278 0000 70B5     		push	{r4, r5, r6, lr}
 279              		.cfi_def_cfa_offset 16
 280              		.cfi_offset 4, -16
 281              		.cfi_offset 5, -12
 282              		.cfi_offset 6, -8
 283              		.cfi_offset 14, -4
ARM GAS  C:\Users\jo\AppData\Local\Temp\cc0xvuUV.s 			page 6


 284 0002 0546     		mov	r5, r0
 285 0004 82B0     		sub	sp, sp, #8
 286              		.cfi_def_cfa_offset 24
 287              		.loc 1 236 0
 288 0006 0846     		mov	r0, r1
 289              	.LVL24:
 290              		.loc 1 234 0
 291 0008 0C46     		mov	r4, r1
 292              		.loc 1 236 0
 293 000a FFF7FEFF 		bl	HttpResponseText
 294              	.LVL25:
 295              		.loc 1 243 0
 296 000e 2146     		mov	r1, r4
 297              		.loc 1 236 0
 298 0010 0646     		mov	r6, r0
 299              	.LVL26:
 300              		.loc 1 243 0
 301 0012 2846     		mov	r0, r5
 302              	.LVL27:
 303 0014 FFF7FEFF 		bl	HttpSendHeaderTop
 304              	.LVL28:
 305              		.loc 1 245 0
 306 0018 40F29113 		movw	r3, #401
 307 001c 9C42     		cmp	r4, r3
 308 001e 18D0     		beq	.L37
 309              	.L35:
 310              		.loc 1 249 0
 311 0020 3046     		mov	r0, r6
 312 0022 FFF7FEFF 		bl	strlen
 313              	.LVL29:
 314 0026 00F12003 		add	r3, r0, #32
 315 002a 5B00     		lsls	r3, r3, #1
 316 002c 2846     		mov	r0, r5
 317 002e 0C49     		ldr	r1, .L38
 318 0030 0C4A     		ldr	r2, .L38+4
 319 0032 FFF7FEFF 		bl	HttpSendHeaderBottom
 320              	.LVL30:
 321              		.loc 1 251 0
 322 0036 2868     		ldr	r0, [r5]
 323 0038 0B49     		ldr	r1, .L38+8
 324 003a 8DE85000 		stmia	sp, {r4, r6}
 325 003e 2246     		mov	r2, r4
 326 0040 3346     		mov	r3, r6
 327 0042 FFF7FEFF 		bl	s_printf
 328              	.LVL31:
 329              		.loc 1 252 0
 330 0046 2868     		ldr	r0, [r5]
 331              		.loc 1 253 0
 332 0048 02B0     		add	sp, sp, #8
 333              		.cfi_remember_state
 334              		.cfi_def_cfa_offset 16
 335              		@ sp needed
 336 004a BDE87040 		pop	{r4, r5, r6, lr}
 337              		.cfi_restore 14
 338              		.cfi_restore 6
 339              		.cfi_restore 5
 340              		.cfi_restore 4
ARM GAS  C:\Users\jo\AppData\Local\Temp\cc0xvuUV.s 			page 7


 341              		.cfi_def_cfa_offset 0
 342              	.LVL32:
 343              		.loc 1 252 0
 344 004e FFF7FEBF 		b	s_flush
 345              	.LVL33:
 346              	.L37:
 347              		.cfi_restore_state
 348              	.LBB13:
 349              		.loc 1 247 0
 350 0052 2868     		ldr	r0, [r5]
 351 0054 0549     		ldr	r1, .L38+12
 352 0056 AA6A     		ldr	r2, [r5, #40]
 353 0058 FFF7FEFF 		bl	s_printf
 354              	.LVL34:
 355 005c E0E7     		b	.L35
 356              	.L39:
 357 005e 00BF     		.align	2
 358              	.L38:
 359 0060 38000000 		.word	.LC7
 360 0064 40000000 		.word	.LC8
 361 0068 00000000 		.word	.LANCHOR3
 362 006c 00000000 		.word	.LANCHOR2
 363              	.LBE13:
 364              		.cfi_endproc
 365              	.LFE263:
 366              		.size	HttpSendError, .-HttpSendError
 367              		.section	.text.HttpSendRedirection,"ax",%progbits
 368              		.align	2
 369              		.p2align 4,,15
 370              		.global	HttpSendRedirection
 371              		.thumb
 372              		.thumb_func
 373              		.type	HttpSendRedirection, %function
 374              	HttpSendRedirection:
 375              	.LFB264:
 376              		.loc 1 259 0
 377              		.cfi_startproc
 378              		@ args = 4, pretend = 12, frame = 8
 379              		@ frame_needed = 0, uses_anonymous_args = 1
 380              	.LVL35:
 381 0000 0EB4     		push	{r1, r2, r3}
 382              		.cfi_def_cfa_offset 12
 383              		.cfi_offset 1, -12
 384              		.cfi_offset 2, -8
 385              		.cfi_offset 3, -4
 386 0002 2DE9F041 		push	{r4, r5, r6, r7, r8, lr}
 387              		.cfi_def_cfa_offset 36
 388              		.cfi_offset 4, -36
 389              		.cfi_offset 5, -32
 390              		.cfi_offset 6, -28
 391              		.cfi_offset 7, -24
 392              		.cfi_offset 8, -20
 393              		.cfi_offset 14, -16
 394 0006 85B0     		sub	sp, sp, #20
 395              		.cfi_def_cfa_offset 56
 396              		.loc 1 259 0
 397 0008 0BAD     		add	r5, sp, #44
ARM GAS  C:\Users\jo\AppData\Local\Temp\cc0xvuUV.s 			page 8


 398              		.loc 1 266 0
 399 000a 0C9B     		ldr	r3, [sp, #48]
 400              	.LVL36:
 401              		.loc 1 259 0
 402 000c 55F8048B 		ldr	r8, [r5], #4
 403              		.loc 1 266 0
 404 0010 2C1D     		adds	r4, r5, #4
 405              		.loc 1 259 0
 406 0012 0746     		mov	r7, r0
 407              		.loc 1 266 0
 408 0014 0394     		str	r4, [sp, #12]
 409 0016 002B     		cmp	r3, #0
 410 0018 4AD0     		beq	.L47
 411              		.loc 1 266 0 is_stmt 0 discriminator 3
 412 001a 0026     		movs	r6, #0
 413              	.LVL37:
 414              	.L42:
 415 001c 1846     		mov	r0, r3
 416 001e 0434     		adds	r4, r4, #4
 417 0020 FFF7FEFF 		bl	strlen
 418              	.LVL38:
 419 0024 54F8043C 		ldr	r3, [r4, #-4]
 420 0028 0394     		str	r4, [sp, #12]
 421 002a 0644     		add	r6, r6, r0
 422              	.LVL39:
 423 002c 002B     		cmp	r3, #0
 424 002e F5D1     		bne	.L42
 425 0030 701C     		adds	r0, r6, #1
 426              	.LVL40:
 427              	.L41:
 428              		.loc 1 268 0 is_stmt 1
 429 0032 FFF7FEFF 		bl	malloc
 430              	.LVL41:
 431              		.loc 1 269 0
 432 0036 0646     		mov	r6, r0
 433 0038 0028     		cmp	r0, #0
 434 003a 33D0     		beq	.L43
 435              	.LBB14:
 436              		.loc 1 274 0
 437 003c 4146     		mov	r1, r8
 438 003e 3846     		mov	r0, r7
 439              	.LVL42:
 440              		.loc 1 272 0
 441 0040 D7F80080 		ldr	r8, [r7]
 442              	.LVL43:
 443              		.loc 1 274 0
 444 0044 FFF7FEFF 		bl	HttpSendHeaderTop
 445              	.LVL44:
 446              		.loc 1 277 0
 447 0048 0C99     		ldr	r1, [sp, #48]
 448              	.LVL45:
 449 004a 2C1D     		adds	r4, r5, #4
 450 004c 0023     		movs	r3, #0
 451 004e 0394     		str	r4, [sp, #12]
 452 0050 3370     		strb	r3, [r6]
 453 0052 41B1     		cbz	r1, .L46
 454              	.L45:
ARM GAS  C:\Users\jo\AppData\Local\Temp\cc0xvuUV.s 			page 9


 455              		.loc 1 277 0 is_stmt 0 discriminator 3
 456 0054 0434     		adds	r4, r4, #4
 457 0056 3046     		mov	r0, r6
 458 0058 FFF7FEFF 		bl	strcat
 459              	.LVL46:
 460 005c 54F8041C 		ldr	r1, [r4, #-4]
 461              	.LVL47:
 462 0060 0394     		str	r4, [sp, #12]
 463 0062 0029     		cmp	r1, #0
 464 0064 F6D1     		bne	.L45
 465              	.L46:
 466              		.loc 1 281 0 is_stmt 1
 467 0066 134B     		ldr	r3, .L54
 468 0068 0093     		str	r3, [sp]
 469 006a 0023     		movs	r3, #0
 470 006c 1249     		ldr	r1, .L54+4
 471              	.LVL48:
 472 006e 134A     		ldr	r2, .L54+8
 473 0070 0193     		str	r3, [sp, #4]
 474 0072 4046     		mov	r0, r8
 475 0074 3346     		mov	r3, r6
 476 0076 FFF7FEFF 		bl	s_vputs
 477              	.LVL49:
 478              		.loc 1 282 0
 479 007a 3046     		mov	r0, r6
 480 007c FFF7FEFF 		bl	strlen
 481              	.LVL50:
 482 0080 0F49     		ldr	r1, .L54+12
 483 0082 104A     		ldr	r2, .L54+16
 484 0084 00F13303 		add	r3, r0, #51
 485 0088 3846     		mov	r0, r7
 486 008a FFF7FEFF 		bl	HttpSendHeaderBottom
 487              	.LVL51:
 488              		.loc 1 285 0
 489 008e 0E49     		ldr	r1, .L54+20
 490 0090 3246     		mov	r2, r6
 491 0092 4046     		mov	r0, r8
 492 0094 FFF7FEFF 		bl	s_printf
 493              	.LVL52:
 494              		.loc 1 286 0
 495 0098 4046     		mov	r0, r8
 496 009a FFF7FEFF 		bl	s_flush
 497              	.LVL53:
 498              		.loc 1 287 0
 499 009e 3046     		mov	r0, r6
 500 00a0 FFF7FEFF 		bl	free
 501              	.LVL54:
 502              	.L43:
 503              	.LBE14:
 504              		.loc 1 290 0
 505 00a4 0020     		movs	r0, #0
 506 00a6 05B0     		add	sp, sp, #20
 507              		.cfi_remember_state
 508              		.cfi_def_cfa_offset 36
 509              		@ sp needed
 510 00a8 BDE8F041 		pop	{r4, r5, r6, r7, r8, lr}
 511              		.cfi_restore 14
ARM GAS  C:\Users\jo\AppData\Local\Temp\cc0xvuUV.s 			page 10


 512              		.cfi_restore 8
 513              		.cfi_restore 7
 514              		.cfi_restore 6
 515              		.cfi_restore 5
 516              		.cfi_restore 4
 517              		.cfi_def_cfa_offset 12
 518              	.LVL55:
 519 00ac 03B0     		add	sp, sp, #12
 520              		.cfi_restore 3
 521              		.cfi_restore 2
 522              		.cfi_restore 1
 523              		.cfi_def_cfa_offset 0
 524 00ae 7047     		bx	lr
 525              	.LVL56:
 526              	.L47:
 527              		.cfi_restore_state
 528              		.loc 1 266 0
 529 00b0 0120     		movs	r0, #1
 530              	.LVL57:
 531 00b2 BEE7     		b	.L41
 532              	.L55:
 533              		.align	2
 534              	.L54:
 535 00b4 14000000 		.word	.LC4
 536 00b8 00000000 		.word	ct_Location
 537 00bc 0C000000 		.word	.LC2
 538 00c0 38000000 		.word	.LC7
 539 00c4 40000000 		.word	.LC8
 540 00c8 00000000 		.word	.LANCHOR4
 541              		.cfi_endproc
 542              	.LFE264:
 543              		.size	HttpSendRedirection, .-HttpSendRedirection
 544 00cc AFF30080 		.section	.rodata.fmt_P.8431,"a",%progbits
 545              		.align	2
 546              		.set	.LANCHOR1,. + 0
 547              		.type	fmt_P.8431, %object
 548              		.size	fmt_P.8431, 38
 549              	fmt_P.8431:
 550 0000 48545450 		.ascii	"HTTP/%d.%d %d %s\015\012Server: uHTTP 0.0\015\012\000"
 550      2F25642E 
 550      25642025 
 550      64202573 
 550      0D0A5365 
 551 0026 0000     		.section	.rodata.auth_fmt_P.8444,"a",%progbits
 552              		.align	2
 553              		.set	.LANCHOR2,. + 0
 554              		.type	auth_fmt_P.8444, %object
 555              		.size	auth_fmt_P.8444, 37
 556              	auth_fmt_P.8444:
 557 0000 5757572D 		.ascii	"WWW-Authenticate: Basic realm=\"%s\"\015\012\000"
 557      41757468 
 557      656E7469 
 557      63617465 
 557      3A204261 
 558 0025 000000   		.section	.rodata.response_list,"a",%progbits
 559              		.align	2
 560              		.set	.LANCHOR0,. + 0
ARM GAS  C:\Users\jo\AppData\Local\Temp\cc0xvuUV.s 			page 11


 561              		.type	response_list, %object
 562              		.size	response_list, 536
 563              	response_list:
 564 0000 64000000 		.word	100
 565 0004 48000000 		.word	.LC9
 566 0008 65000000 		.word	101
 567 000c 54000000 		.word	.LC10
 568 0010 66000000 		.word	102
 569 0014 68000000 		.word	.LC11
 570 0018 67000000 		.word	103
 571 001c 74000000 		.word	.LC12
 572 0020 C8000000 		.word	200
 573 0024 08000000 		.word	.LC1
 574 0028 C9000000 		.word	201
 575 002c 80000000 		.word	.LC13
 576 0030 CA000000 		.word	202
 577 0034 88000000 		.word	.LC14
 578 0038 CB000000 		.word	203
 579 003c 94000000 		.word	.LC15
 580 0040 CC000000 		.word	204
 581 0044 B4000000 		.word	.LC16
 582 0048 CD000000 		.word	205
 583 004c C0000000 		.word	.LC17
 584 0050 CE000000 		.word	206
 585 0054 D0000000 		.word	.LC18
 586 0058 CF000000 		.word	207
 587 005c E0000000 		.word	.LC19
 588 0060 D0000000 		.word	208
 589 0064 F0000000 		.word	.LC20
 590 0068 E2000000 		.word	226
 591 006c 04010000 		.word	.LC21
 592 0070 2C010000 		.word	300
 593 0074 0C010000 		.word	.LC22
 594 0078 2D010000 		.word	301
 595 007c 20010000 		.word	.LC23
 596 0080 2E010000 		.word	302
 597 0084 34010000 		.word	.LC24
 598 0088 2F010000 		.word	303
 599 008c 48010000 		.word	.LC25
 600 0090 30010000 		.word	304
 601 0094 54010000 		.word	.LC26
 602 0098 31010000 		.word	305
 603 009c 64010000 		.word	.LC27
 604 00a0 32010000 		.word	306
 605 00a4 70010000 		.word	.LC28
 606 00a8 33010000 		.word	307
 607 00ac 80010000 		.word	.LC29
 608 00b0 34010000 		.word	308
 609 00b4 94010000 		.word	.LC30
 610 00b8 90010000 		.word	400
 611 00bc A8010000 		.word	.LC31
 612 00c0 91010000 		.word	401
 613 00c4 B4010000 		.word	.LC32
 614 00c8 92010000 		.word	402
 615 00cc C4010000 		.word	.LC33
 616 00d0 93010000 		.word	403
 617 00d4 D8010000 		.word	.LC34
ARM GAS  C:\Users\jo\AppData\Local\Temp\cc0xvuUV.s 			page 12


 618 00d8 94010000 		.word	404
 619 00dc E4010000 		.word	.LC35
 620 00e0 95010000 		.word	405
 621 00e4 F0010000 		.word	.LC36
 622 00e8 96010000 		.word	406
 623 00ec FC010000 		.word	.LC37
 624 00f0 97010000 		.word	407
 625 00f4 0C020000 		.word	.LC38
 626 00f8 98010000 		.word	408
 627 00fc 2C020000 		.word	.LC39
 628 0100 99010000 		.word	409
 629 0104 40020000 		.word	.LC40
 630 0108 9A010000 		.word	410
 631 010c 4C020000 		.word	.LC41
 632 0110 9B010000 		.word	411
 633 0114 54020000 		.word	.LC42
 634 0118 9C010000 		.word	412
 635 011c 64020000 		.word	.LC43
 636 0120 9D010000 		.word	413
 637 0124 78020000 		.word	.LC44
 638 0128 9E010000 		.word	414
 639 012c 94020000 		.word	.LC45
 640 0130 9F010000 		.word	415
 641 0134 AC020000 		.word	.LC46
 642 0138 A0010000 		.word	416
 643 013c C4020000 		.word	.LC47
 644 0140 A1010000 		.word	417
 645 0144 E4020000 		.word	.LC48
 646 0148 A2010000 		.word	418
 647 014c F8020000 		.word	.LC49
 648 0150 A6010000 		.word	422
 649 0154 08030000 		.word	.LC50
 650 0158 A7010000 		.word	423
 651 015c 20030000 		.word	.LC51
 652 0160 A8010000 		.word	424
 653 0164 28030000 		.word	.LC52
 654 0168 A9010000 		.word	425
 655 016c 3C030000 		.word	.LC53
 656 0170 AA010000 		.word	426
 657 0174 54030000 		.word	.LC54
 658 0178 AC010000 		.word	428
 659 017c 68030000 		.word	.LC55
 660 0180 AD010000 		.word	429
 661 0184 80030000 		.word	.LC56
 662 0188 AF010000 		.word	431
 663 018c 94030000 		.word	.LC57
 664 0190 BC010000 		.word	444
 665 0194 B4030000 		.word	.LC58
 666 0198 C1010000 		.word	449
 667 019c C0030000 		.word	.LC59
 668 01a0 F3010000 		.word	499
 669 01a4 CC030000 		.word	.LC60
 670 01a8 F4010000 		.word	500
 671 01ac E4030000 		.word	.LC61
 672 01b0 F5010000 		.word	501
 673 01b4 FC030000 		.word	.LC62
 674 01b8 F6010000 		.word	502
ARM GAS  C:\Users\jo\AppData\Local\Temp\cc0xvuUV.s 			page 13


 675 01bc 14040000 		.word	.LC63
 676 01c0 F7010000 		.word	503
 677 01c4 20040000 		.word	.LC64
 678 01c8 F8010000 		.word	504
 679 01cc 40040000 		.word	.LC65
 680 01d0 F9010000 		.word	505
 681 01d4 54040000 		.word	.LC66
 682 01d8 FA010000 		.word	506
 683 01dc 70040000 		.word	.LC67
 684 01e0 FB010000 		.word	507
 685 01e4 88040000 		.word	.LC68
 686 01e8 FC010000 		.word	508
 687 01ec A0040000 		.word	.LC69
 688 01f0 FD010000 		.word	509
 689 01f4 B0040000 		.word	.LC70
 690 01f8 FE010000 		.word	510
 691 01fc CC040000 		.word	.LC71
 692 0200 FF010000 		.word	511
 693 0204 DC040000 		.word	.LC72
 694 0208 56020000 		.word	598
 695 020c FC040000 		.word	.LC73
 696 0210 57020000 		.word	599
 697 0214 18050000 		.word	.LC74
 698              		.section	.rodata.str1.4,"aMS",%progbits,1
 699              		.align	2
 700              	.LC0:
 701 0000 4572726F 		.ascii	"Error\000"
 701      7200
 702 0006 0000     		.space	2
 703              	.LC1:
 704 0008 4F4B00   		.ascii	"OK\000"
 705 000b 00       		.space	1
 706              	.LC2:
 707 000c 3A2000   		.ascii	": \000"
 708 000f 00       		.space	1
 709              	.LC3:
 710 0010 2F00     		.ascii	"/\000"
 711 0012 0000     		.space	2
 712              	.LC4:
 713 0014 0D0A00   		.ascii	"\015\012\000"
 714 0017 00       		.space	1
 715              	.LC5:
 716 0018 25733A20 		.ascii	"%s: %ld\015\012\000"
 716      256C640D 
 716      0A00
 717 0022 0000     		.space	2
 718              	.LC6:
 719 0024 436F6E6E 		.ascii	"Connection: close\015\012\000"
 719      65637469 
 719      6F6E3A20 
 719      636C6F73 
 719      650D0A00 
 720              	.LC7:
 721 0038 74657874 		.ascii	"text\000"
 721      00
 722 003d 000000   		.space	3
 723              	.LC8:
ARM GAS  C:\Users\jo\AppData\Local\Temp\cc0xvuUV.s 			page 14


 724 0040 68746D6C 		.ascii	"html\000"
 724      00
 725 0045 000000   		.space	3
 726              	.LC9:
 727 0048 436F6E74 		.ascii	"Continue\000"
 727      696E7565 
 727      00
 728 0051 000000   		.space	3
 729              	.LC10:
 730 0054 53776974 		.ascii	"Switching Protocols\000"
 730      6368696E 
 730      67205072 
 730      6F746F63 
 730      6F6C7300 
 731              	.LC11:
 732 0068 50726F63 		.ascii	"Processing\000"
 732      65737369 
 732      6E6700
 733 0073 00       		.space	1
 734              	.LC12:
 735 0074 43686563 		.ascii	"Checkpoint\000"
 735      6B706F69 
 735      6E7400
 736 007f 00       		.space	1
 737              	.LC13:
 738 0080 43726561 		.ascii	"Created\000"
 738      74656400 
 739              	.LC14:
 740 0088 41636365 		.ascii	"Accepted\000"
 740      70746564 
 740      00
 741 0091 000000   		.space	3
 742              	.LC15:
 743 0094 4E6F6E2D 		.ascii	"Non-Authoritative Information\000"
 743      41757468 
 743      6F726974 
 743      61746976 
 743      6520496E 
 744 00b2 0000     		.space	2
 745              	.LC16:
 746 00b4 4E6F2043 		.ascii	"No Content\000"
 746      6F6E7465 
 746      6E7400
 747 00bf 00       		.space	1
 748              	.LC17:
 749 00c0 52657365 		.ascii	"Reset Content\000"
 749      7420436F 
 749      6E74656E 
 749      7400
 750 00ce 0000     		.space	2
 751              	.LC18:
 752 00d0 50617274 		.ascii	"Partial Content\000"
 752      69616C20 
 752      436F6E74 
 752      656E7400 
 753              	.LC19:
 754 00e0 4D756C74 		.ascii	"Multi-Status\000"
ARM GAS  C:\Users\jo\AppData\Local\Temp\cc0xvuUV.s 			page 15


 754      692D5374 
 754      61747573 
 754      00
 755 00ed 000000   		.space	3
 756              	.LC20:
 757 00f0 416C7265 		.ascii	"Already Reported\000"
 757      61647920 
 757      5265706F 
 757      72746564 
 757      00
 758 0101 000000   		.space	3
 759              	.LC21:
 760 0104 494D2055 		.ascii	"IM Used\000"
 760      73656400 
 761              	.LC22:
 762 010c 4D756C74 		.ascii	"Multiple Choices\000"
 762      69706C65 
 762      2043686F 
 762      69636573 
 762      00
 763 011d 000000   		.space	3
 764              	.LC23:
 765 0120 4D6F7665 		.ascii	"Moved Permanently\000"
 765      64205065 
 765      726D616E 
 765      656E746C 
 765      7900
 766 0132 0000     		.space	2
 767              	.LC24:
 768 0134 4D6F7665 		.ascii	"Moved Temporarily\000"
 768      64205465 
 768      6D706F72 
 768      6172696C 
 768      7900
 769 0146 0000     		.space	2
 770              	.LC25:
 771 0148 53656520 		.ascii	"See Other\000"
 771      4F746865 
 771      7200
 772 0152 0000     		.space	2
 773              	.LC26:
 774 0154 4E6F7420 		.ascii	"Not Modified\000"
 774      4D6F6469 
 774      66696564 
 774      00
 775 0161 000000   		.space	3
 776              	.LC27:
 777 0164 55736520 		.ascii	"Use Proxy\000"
 777      50726F78 
 777      7900
 778 016e 0000     		.space	2
 779              	.LC28:
 780 0170 53776974 		.ascii	"Switch Proxy\000"
 780      63682050 
 780      726F7879 
 780      00
 781 017d 000000   		.space	3
ARM GAS  C:\Users\jo\AppData\Local\Temp\cc0xvuUV.s 			page 16


 782              	.LC29:
 783 0180 54656D70 		.ascii	"Temporary Redirect\000"
 783      6F726172 
 783      79205265 
 783      64697265 
 783      637400
 784 0193 00       		.space	1
 785              	.LC30:
 786 0194 52657375 		.ascii	"Resume Incomplete\000"
 786      6D652049 
 786      6E636F6D 
 786      706C6574 
 786      6500
 787 01a6 0000     		.space	2
 788              	.LC31:
 789 01a8 42616420 		.ascii	"Bad Request\000"
 789      52657175 
 789      65737400 
 790              	.LC32:
 791 01b4 556E6175 		.ascii	"Unauthorized\000"
 791      74686F72 
 791      697A6564 
 791      00
 792 01c1 000000   		.space	3
 793              	.LC33:
 794 01c4 5061796D 		.ascii	"Payment Required\000"
 794      656E7420 
 794      52657175 
 794      69726564 
 794      00
 795 01d5 000000   		.space	3
 796              	.LC34:
 797 01d8 466F7262 		.ascii	"Forbidden\000"
 797      69646465 
 797      6E00
 798 01e2 0000     		.space	2
 799              	.LC35:
 800 01e4 4E6F7420 		.ascii	"Not Found\000"
 800      466F756E 
 800      6400
 801 01ee 0000     		.space	2
 802              	.LC36:
 803 01f0 4E6F7420 		.ascii	"Not Allowed\000"
 803      416C6C6F 
 803      77656400 
 804              	.LC37:
 805 01fc 4E6F7420 		.ascii	"Not Acceptable\000"
 805      41636365 
 805      70746162 
 805      6C6500
 806 020b 00       		.space	1
 807              	.LC38:
 808 020c 50726F78 		.ascii	"Proxy Authentication Required\000"
 808      79204175 
 808      7468656E 
 808      74696361 
 808      74696F6E 
ARM GAS  C:\Users\jo\AppData\Local\Temp\cc0xvuUV.s 			page 17


 809 022a 0000     		.space	2
 810              	.LC39:
 811 022c 52657175 		.ascii	"Request Time-out\000"
 811      65737420 
 811      54696D65 
 811      2D6F7574 
 811      00
 812 023d 000000   		.space	3
 813              	.LC40:
 814 0240 436F6E66 		.ascii	"Conflict\000"
 814      6C696374 
 814      00
 815 0249 000000   		.space	3
 816              	.LC41:
 817 024c 476F6E65 		.ascii	"Gone\000"
 817      00
 818 0251 000000   		.space	3
 819              	.LC42:
 820 0254 4C656E67 		.ascii	"Length Required\000"
 820      74682052 
 820      65717569 
 820      72656400 
 821              	.LC43:
 822 0264 50726563 		.ascii	"Precondition Failed\000"
 822      6F6E6469 
 822      74696F6E 
 822      20466169 
 822      6C656400 
 823              	.LC44:
 824 0278 52657175 		.ascii	"Request Entity Too Large\000"
 824      65737420 
 824      456E7469 
 824      74792054 
 824      6F6F204C 
 825 0291 000000   		.space	3
 826              	.LC45:
 827 0294 52657175 		.ascii	"Request-URI Too Large\000"
 827      6573742D 
 827      55524920 
 827      546F6F20 
 827      4C617267 
 828 02aa 0000     		.space	2
 829              	.LC46:
 830 02ac 556E7375 		.ascii	"Unsupported Media Type\000"
 830      70706F72 
 830      74656420 
 830      4D656469 
 830      61205479 
 831 02c3 00       		.space	1
 832              	.LC47:
 833 02c4 52657175 		.ascii	"Requested Range Not Satisfiable\000"
 833      65737465 
 833      64205261 
 833      6E676520 
 833      4E6F7420 
 834              	.LC48:
 835 02e4 45787065 		.ascii	"Expectation Failed\000"
ARM GAS  C:\Users\jo\AppData\Local\Temp\cc0xvuUV.s 			page 18


 835      63746174 
 835      696F6E20 
 835      4661696C 
 835      656400
 836 02f7 00       		.space	1
 837              	.LC49:
 838 02f8 49276D20 		.ascii	"I'm a teapot\000"
 838      61207465 
 838      61706F74 
 838      00
 839 0305 000000   		.space	3
 840              	.LC50:
 841 0308 556E7072 		.ascii	"Unprocessable Entity\000"
 841      6F636573 
 841      7361626C 
 841      6520456E 
 841      74697479 
 842 031d 000000   		.space	3
 843              	.LC51:
 844 0320 4C6F636B 		.ascii	"Locked\000"
 844      656400
 845 0327 00       		.space	1
 846              	.LC52:
 847 0328 4661696C 		.ascii	"Failed Dependency\000"
 847      65642044 
 847      6570656E 
 847      64656E63 
 847      7900
 848 033a 0000     		.space	2
 849              	.LC53:
 850 033c 556E6F72 		.ascii	"Unordered Collection\000"
 850      64657265 
 850      6420436F 
 850      6C6C6563 
 850      74696F6E 
 851 0351 000000   		.space	3
 852              	.LC54:
 853 0354 55706772 		.ascii	"Upgrade Required\000"
 853      61646520 
 853      52657175 
 853      69726564 
 853      00
 854 0365 000000   		.space	3
 855              	.LC55:
 856 0368 50726563 		.ascii	"Precondition Required\000"
 856      6F6E6469 
 856      74696F6E 
 856      20526571 
 856      75697265 
 857 037e 0000     		.space	2
 858              	.LC56:
 859 0380 546F6F20 		.ascii	"Too Many Requests\000"
 859      4D616E79 
 859      20526571 
 859      75657374 
 859      7300
 860 0392 0000     		.space	2
ARM GAS  C:\Users\jo\AppData\Local\Temp\cc0xvuUV.s 			page 19


 861              	.LC57:
 862 0394 52657175 		.ascii	"Request Header Fields Too Large\000"
 862      65737420 
 862      48656164 
 862      65722046 
 862      69656C64 
 863              	.LC58:
 864 03b4 4E6F2052 		.ascii	"No Response\000"
 864      6573706F 
 864      6E736500 
 865              	.LC59:
 866 03c0 52657472 		.ascii	"Retry With\000"
 866      79205769 
 866      746800
 867 03cb 00       		.space	1
 868              	.LC60:
 869 03cc 436C6965 		.ascii	"Client Closed Request\000"
 869      6E742043 
 869      6C6F7365 
 869      64205265 
 869      71756573 
 870 03e2 0000     		.space	2
 871              	.LC61:
 872 03e4 496E7465 		.ascii	"Internal Server Error\000"
 872      726E616C 
 872      20536572 
 872      76657220 
 872      4572726F 
 873 03fa 0000     		.space	2
 874              	.LC62:
 875 03fc 4D657468 		.ascii	"Method Not Implemented\000"
 875      6F64204E 
 875      6F742049 
 875      6D706C65 
 875      6D656E74 
 876 0413 00       		.space	1
 877              	.LC63:
 878 0414 42616420 		.ascii	"Bad Gateway\000"
 878      47617465 
 878      77617900 
 879              	.LC64:
 880 0420 53657276 		.ascii	"Service Temporarily Unavailable\000"
 880      69636520 
 880      54656D70 
 880      6F726172 
 880      696C7920 
 881              	.LC65:
 882 0440 47617465 		.ascii	"Gateway Time-out\000"
 882      77617920 
 882      54696D65 
 882      2D6F7574 
 882      00
 883 0451 000000   		.space	3
 884              	.LC66:
 885 0454 48545450 		.ascii	"HTTP Version Not Supported\000"
 885      20566572 
 885      73696F6E 
ARM GAS  C:\Users\jo\AppData\Local\Temp\cc0xvuUV.s 			page 20


 885      204E6F74 
 885      20537570 
 886 046f 00       		.space	1
 887              	.LC67:
 888 0470 56617269 		.ascii	"Variant Also Negotiates\000"
 888      616E7420 
 888      416C736F 
 888      204E6567 
 888      6F746961 
 889              	.LC68:
 890 0488 496E7375 		.ascii	"Insufficient Storage\000"
 890      66666963 
 890      69656E74 
 890      2053746F 
 890      72616765 
 891 049d 000000   		.space	3
 892              	.LC69:
 893 04a0 4C6F6F70 		.ascii	"Loop Detected\000"
 893      20446574 
 893      65637465 
 893      6400
 894 04ae 0000     		.space	2
 895              	.LC70:
 896 04b0 42616E64 		.ascii	"Bandwidth Limit Exceeded\000"
 896      77696474 
 896      68204C69 
 896      6D697420 
 896      45786365 
 897 04c9 000000   		.space	3
 898              	.LC71:
 899 04cc 4E6F7420 		.ascii	"Not Extended\000"
 899      45787465 
 899      6E646564 
 899      00
 900 04d9 000000   		.space	3
 901              	.LC72:
 902 04dc 4E657477 		.ascii	"Network Authentication Required\000"
 902      6F726B20 
 902      41757468 
 902      656E7469 
 902      63617469 
 903              	.LC73:
 904 04fc 4E657477 		.ascii	"Network read timeout error\000"
 904      6F726B20 
 904      72656164 
 904      2074696D 
 904      656F7574 
 905 0517 00       		.space	1
 906              	.LC74:
 907 0518 4E657477 		.ascii	"Network connect timeout error\000"
 907      6F726B20 
 907      636F6E6E 
 907      65637420 
 907      74696D65 
 908 0536 0000     		.section	.rodata.body.8442,"a",%progbits
 909              		.align	2
 910              		.set	.LANCHOR3,. + 0
ARM GAS  C:\Users\jo\AppData\Local\Temp\cc0xvuUV.s 			page 21


 911              		.type	body.8442, %object
 912              		.size	body.8442, 67
 913              	body.8442:
 914 0000 3C48544D 		.ascii	"<HTML><HEAD><TITLE>%d %s</TITLE></HEAD><BODY>%d %s<"
 914      4C3E3C48 
 914      4541443E 
 914      3C544954 
 914      4C453E25 
 915 0033 2F424F44 		.ascii	"/BODY></HTML>\015\012\000"
 915      593E3C2F 
 915      48544D4C 
 915      3E0D0A00 
 916 0043 00       		.section	.rodata.body.8456,"a",%progbits
 917              		.align	2
 918              		.set	.LANCHOR4,. + 0
 919              		.type	body.8456, %object
 920              		.size	body.8456, 54
 921              	body.8456:
 922 0000 3C68746D 		.ascii	"<html><body><a href=\"%s\">Continue</a></body></htm"
 922      6C3E3C62 
 922      6F64793E 
 922      3C612068 
 922      7265663D 
 923 0031 6C3E0D0A 		.ascii	"l>\015\012\000"
 923      00
 924 0036 0000     		.text
 925              	.Letext0:
 926              		.file 2 "c:\\program files\\gnu tools arm embedded\\4.9 2014q4\\lib\\gcc\\arm-none-eabi\\4.9.3\\in
 927              		.file 3 "c:\\program files\\gnu tools arm embedded\\4.9 2014q4\\arm-none-eabi\\include\\machine\\_
 928              		.file 4 "c:\\program files\\gnu tools arm embedded\\4.9 2014q4\\arm-none-eabi\\include\\stdint.h"
 929              		.file 5 "../../../os/rt/ports/ARMCMx/compilers/GCC/chtypes.h"
 930              		.file 6 "../../../os/rt/include/chsystypes.h"
 931              		.file 7 "../../../os/rt/include/chschd.h"
 932              		.file 8 "../../../os/rt/ports/ARMCMx/chcore.h"
 933              		.file 9 "../../../os/rt/ports/ARMCMx/chcore_v7m.h"
 934              		.file 10 "../../../os/rt/include/chdebug.h"
 935              		.file 11 "../../../os/rt/include/chtm.h"
 936              		.file 12 "../../../os/rt/include/chsem.h"
 937              		.file 13 "../../../os/rt/include/chmtx.h"
 938              		.file 14 "c:\\program files\\gnu tools arm embedded\\4.9 2014q4\\lib\\gcc\\arm-none-eabi\\4.9.3\\i
 939              		.file 15 "<built-in>"
 940              		.file 16 "../../../os/various/lwip_bindings/arch/cc.h"
 941              		.file 17 "../../../ext/lwip/src/include/ipv4/lwip/inet.h"
 942              		.file 18 "../../../ext/lwip/src/include/lwip\\sockets.h"
 943              		.file 19 "./uhttp-1.1/pro/lwip/streamio.h"
 944              		.file 20 "./os/streamio.h"
 945              		.file 21 "./uhttp-1.1/uhttpd.h"
 946              		.file 22 "../../../os/ext/CMSIS/include/core_cm4.h"
 947              		.file 23 "c:\\program files\\gnu tools arm embedded\\4.9 2014q4\\arm-none-eabi\\include\\string.h"
 948              		.file 24 "c:\\program files\\gnu tools arm embedded\\4.9 2014q4\\arm-none-eabi\\include\\stdlib.h"
 949              		.section	.debug_info,"",%progbits
 950              	.Ldebug_info0:
 951 0000 F20F0000 		.4byte	0xff2
 952 0004 0400     		.2byte	0x4
 953 0006 00000000 		.4byte	.Ldebug_abbrev0
 954 000a 04       		.byte	0x4
 955 000b 01       		.uleb128 0x1
ARM GAS  C:\Users\jo\AppData\Local\Temp\cc0xvuUV.s 			page 22


 956 000c 2F040000 		.4byte	.LASF199
 957 0010 01       		.byte	0x1
 958 0011 D8000000 		.4byte	.LASF200
 959 0015 7D010000 		.4byte	.LASF201
 960 0019 18000000 		.4byte	.Ldebug_ranges0+0x18
 961 001d 00000000 		.4byte	0
 962 0021 00000000 		.4byte	.Ldebug_line0
 963 0025 02       		.uleb128 0x2
 964 0026 04       		.byte	0x4
 965 0027 05       		.byte	0x5
 966 0028 696E7400 		.ascii	"int\000"
 967 002c 03       		.uleb128 0x3
 968 002d 1C000000 		.4byte	.LASF2
 969 0031 02       		.byte	0x2
 970 0032 D4       		.byte	0xd4
 971 0033 37000000 		.4byte	0x37
 972 0037 04       		.uleb128 0x4
 973 0038 04       		.byte	0x4
 974 0039 07       		.byte	0x7
 975 003a 46030000 		.4byte	.LASF0
 976 003e 04       		.uleb128 0x4
 977 003f 01       		.byte	0x1
 978 0040 06       		.byte	0x6
 979 0041 E6010000 		.4byte	.LASF1
 980 0045 03       		.uleb128 0x3
 981 0046 78000000 		.4byte	.LASF3
 982 004a 03       		.byte	0x3
 983 004b 1D       		.byte	0x1d
 984 004c 50000000 		.4byte	0x50
 985 0050 04       		.uleb128 0x4
 986 0051 01       		.byte	0x1
 987 0052 08       		.byte	0x8
 988 0053 97060000 		.4byte	.LASF4
 989 0057 04       		.uleb128 0x4
 990 0058 02       		.byte	0x2
 991 0059 05       		.byte	0x5
 992 005a AF060000 		.4byte	.LASF5
 993 005e 03       		.uleb128 0x3
 994 005f 92070000 		.4byte	.LASF6
 995 0063 03       		.byte	0x3
 996 0064 2B       		.byte	0x2b
 997 0065 69000000 		.4byte	0x69
 998 0069 04       		.uleb128 0x4
 999 006a 02       		.byte	0x2
 1000 006b 07       		.byte	0x7
 1001 006c 9C030000 		.4byte	.LASF7
 1002 0070 03       		.uleb128 0x3
 1003 0071 1D040000 		.4byte	.LASF8
 1004 0075 03       		.byte	0x3
 1005 0076 3F       		.byte	0x3f
 1006 0077 7B000000 		.4byte	0x7b
 1007 007b 04       		.uleb128 0x4
 1008 007c 04       		.byte	0x4
 1009 007d 05       		.byte	0x5
 1010 007e 50020000 		.4byte	.LASF9
 1011 0082 03       		.uleb128 0x3
 1012 0083 CB070000 		.4byte	.LASF10
ARM GAS  C:\Users\jo\AppData\Local\Temp\cc0xvuUV.s 			page 23


 1013 0087 03       		.byte	0x3
 1014 0088 41       		.byte	0x41
 1015 0089 8D000000 		.4byte	0x8d
 1016 008d 04       		.uleb128 0x4
 1017 008e 04       		.byte	0x4
 1018 008f 07       		.byte	0x7
 1019 0090 57070000 		.4byte	.LASF11
 1020 0094 04       		.uleb128 0x4
 1021 0095 08       		.byte	0x8
 1022 0096 05       		.byte	0x5
 1023 0097 D8010000 		.4byte	.LASF12
 1024 009b 03       		.uleb128 0x3
 1025 009c 0B060000 		.4byte	.LASF13
 1026 00a0 03       		.byte	0x3
 1027 00a1 5B       		.byte	0x5b
 1028 00a2 A6000000 		.4byte	0xa6
 1029 00a6 04       		.uleb128 0x4
 1030 00a7 08       		.byte	0x8
 1031 00a8 07       		.byte	0x7
 1032 00a9 C1000000 		.4byte	.LASF14
 1033 00ad 04       		.uleb128 0x4
 1034 00ae 04       		.byte	0x4
 1035 00af 07       		.byte	0x7
 1036 00b0 34050000 		.4byte	.LASF15
 1037 00b4 05       		.uleb128 0x5
 1038 00b5 04       		.byte	0x4
 1039 00b6 06       		.uleb128 0x6
 1040 00b7 04       		.byte	0x4
 1041 00b8 BC000000 		.4byte	0xbc
 1042 00bc 04       		.uleb128 0x4
 1043 00bd 01       		.byte	0x1
 1044 00be 08       		.byte	0x8
 1045 00bf 7B070000 		.4byte	.LASF16
 1046 00c3 06       		.uleb128 0x6
 1047 00c4 04       		.byte	0x4
 1048 00c5 C9000000 		.4byte	0xc9
 1049 00c9 07       		.uleb128 0x7
 1050 00ca BC000000 		.4byte	0xbc
 1051 00ce 08       		.uleb128 0x8
 1052 00cf BC000000 		.4byte	0xbc
 1053 00d3 DE000000 		.4byte	0xde
 1054 00d7 09       		.uleb128 0x9
 1055 00d8 AD000000 		.4byte	0xad
 1056 00dc 07       		.byte	0x7
 1057 00dd 00       		.byte	0
 1058 00de 03       		.uleb128 0x3
 1059 00df D5080000 		.4byte	.LASF17
 1060 00e3 04       		.byte	0x4
 1061 00e4 15       		.byte	0x15
 1062 00e5 45000000 		.4byte	0x45
 1063 00e9 03       		.uleb128 0x3
 1064 00ea 9A020000 		.4byte	.LASF18
 1065 00ee 04       		.byte	0x4
 1066 00ef 21       		.byte	0x21
 1067 00f0 5E000000 		.4byte	0x5e
 1068 00f4 03       		.uleb128 0x3
 1069 00f5 8F060000 		.4byte	.LASF19
ARM GAS  C:\Users\jo\AppData\Local\Temp\cc0xvuUV.s 			page 24


 1070 00f9 04       		.byte	0x4
 1071 00fa 2C       		.byte	0x2c
 1072 00fb 70000000 		.4byte	0x70
 1073 00ff 03       		.uleb128 0x3
 1074 0100 1B070000 		.4byte	.LASF20
 1075 0104 04       		.byte	0x4
 1076 0105 2D       		.byte	0x2d
 1077 0106 82000000 		.4byte	0x82
 1078 010a 03       		.uleb128 0x3
 1079 010b 9A050000 		.4byte	.LASF21
 1080 010f 04       		.byte	0x4
 1081 0110 39       		.byte	0x39
 1082 0111 9B000000 		.4byte	0x9b
 1083 0115 0A       		.uleb128 0xa
 1084 0116 F4000000 		.4byte	0xf4
 1085 011a 03       		.uleb128 0x3
 1086 011b 2C080000 		.4byte	.LASF22
 1087 011f 05       		.byte	0x5
 1088 0120 45       		.byte	0x45
 1089 0121 FF000000 		.4byte	0xff
 1090 0125 03       		.uleb128 0x3
 1091 0126 D6060000 		.4byte	.LASF23
 1092 012a 05       		.byte	0x5
 1093 012b 48       		.byte	0x48
 1094 012c DE000000 		.4byte	0xde
 1095 0130 03       		.uleb128 0x3
 1096 0131 67020000 		.4byte	.LASF24
 1097 0135 05       		.byte	0x5
 1098 0136 49       		.byte	0x49
 1099 0137 DE000000 		.4byte	0xde
 1100 013b 03       		.uleb128 0x3
 1101 013c 29060000 		.4byte	.LASF25
 1102 0140 05       		.byte	0x5
 1103 0141 4A       		.byte	0x4a
 1104 0142 DE000000 		.4byte	0xde
 1105 0146 03       		.uleb128 0x3
 1106 0147 5E060000 		.4byte	.LASF26
 1107 014b 05       		.byte	0x5
 1108 014c 4C       		.byte	0x4c
 1109 014d FF000000 		.4byte	0xff
 1110 0151 03       		.uleb128 0x3
 1111 0152 D4030000 		.4byte	.LASF27
 1112 0156 05       		.byte	0x5
 1113 0157 4D       		.byte	0x4d
 1114 0158 F4000000 		.4byte	0xf4
 1115 015c 03       		.uleb128 0x3
 1116 015d 0A040000 		.4byte	.LASF28
 1117 0161 05       		.byte	0x5
 1118 0162 4F       		.byte	0x4f
 1119 0163 FF000000 		.4byte	0xff
 1120 0167 03       		.uleb128 0x3
 1121 0168 35030000 		.4byte	.LASF29
 1122 016c 05       		.byte	0x5
 1123 016d 51       		.byte	0x51
 1124 016e F4000000 		.4byte	0xf4
 1125 0172 03       		.uleb128 0x3
 1126 0173 AD070000 		.4byte	.LASF30
ARM GAS  C:\Users\jo\AppData\Local\Temp\cc0xvuUV.s 			page 25


 1127 0177 06       		.byte	0x6
 1128 0178 33       		.byte	0x33
 1129 0179 FF000000 		.4byte	0xff
 1130 017d 03       		.uleb128 0x3
 1131 017e 9D070000 		.4byte	.LASF31
 1132 0182 06       		.byte	0x6
 1133 0183 3F       		.byte	0x3f
 1134 0184 88010000 		.4byte	0x188
 1135 0188 0B       		.uleb128 0xb
 1136 0189 B8030000 		.4byte	.LASF52
 1137 018d 48       		.byte	0x48
 1138 018e 07       		.byte	0x7
 1139 018f C2       		.byte	0xc2
 1140 0190 81020000 		.4byte	0x281
 1141 0194 0C       		.uleb128 0xc
 1142 0195 CF060000 		.4byte	.LASF32
 1143 0199 07       		.byte	0x7
 1144 019a C3       		.byte	0xc3
 1145 019b 8C020000 		.4byte	0x28c
 1146 019f 00       		.byte	0
 1147 01a0 0C       		.uleb128 0xc
 1148 01a1 57060000 		.4byte	.LASF33
 1149 01a5 07       		.byte	0x7
 1150 01a6 C5       		.byte	0xc5
 1151 01a7 8C020000 		.4byte	0x28c
 1152 01ab 04       		.byte	0x4
 1153 01ac 0C       		.uleb128 0xc
 1154 01ad 76010000 		.4byte	.LASF34
 1155 01b1 07       		.byte	0x7
 1156 01b2 C7       		.byte	0xc7
 1157 01b3 46010000 		.4byte	0x146
 1158 01b7 08       		.byte	0x8
 1159 01b8 0C       		.uleb128 0xc
 1160 01b9 57090000 		.4byte	.LASF35
 1161 01bd 07       		.byte	0x7
 1162 01be C8       		.byte	0xc8
 1163 01bf DE040000 		.4byte	0x4de
 1164 01c3 0C       		.byte	0xc
 1165 01c4 0C       		.uleb128 0xc
 1166 01c5 A9020000 		.4byte	.LASF36
 1167 01c9 07       		.byte	0x7
 1168 01ca CA       		.byte	0xca
 1169 01cb 8C020000 		.4byte	0x28c
 1170 01cf 10       		.byte	0x10
 1171 01d0 0C       		.uleb128 0xc
 1172 01d1 B5050000 		.4byte	.LASF37
 1173 01d5 07       		.byte	0x7
 1174 01d6 CB       		.byte	0xcb
 1175 01d7 8C020000 		.4byte	0x28c
 1176 01db 14       		.byte	0x14
 1177 01dc 0C       		.uleb128 0xc
 1178 01dd ED080000 		.4byte	.LASF38
 1179 01e1 07       		.byte	0x7
 1180 01e2 D2       		.byte	0xd2
 1181 01e3 C3000000 		.4byte	0xc3
 1182 01e7 18       		.byte	0x18
 1183 01e8 0C       		.uleb128 0xc
ARM GAS  C:\Users\jo\AppData\Local\Temp\cc0xvuUV.s 			page 26


 1184 01e9 DC050000 		.4byte	.LASF39
 1185 01ed 07       		.byte	0x7
 1186 01ee D8       		.byte	0xd8
 1187 01ef F0060000 		.4byte	0x6f0
 1188 01f3 1C       		.byte	0x1c
 1189 01f4 0C       		.uleb128 0xc
 1190 01f5 B9060000 		.4byte	.LASF40
 1191 01f9 07       		.byte	0x7
 1192 01fa DD       		.byte	0xdd
 1193 01fb 30010000 		.4byte	0x130
 1194 01ff 20       		.byte	0x20
 1195 0200 0C       		.uleb128 0xc
 1196 0201 DE060000 		.4byte	.LASF41
 1197 0205 07       		.byte	0x7
 1198 0206 E1       		.byte	0xe1
 1199 0207 25010000 		.4byte	0x125
 1200 020b 21       		.byte	0x21
 1201 020c 0C       		.uleb128 0xc
 1202 020d 92080000 		.4byte	.LASF42
 1203 0211 07       		.byte	0x7
 1204 0212 E6       		.byte	0xe6
 1205 0213 3B010000 		.4byte	0x13b
 1206 0217 22       		.byte	0x22
 1207 0218 0D       		.uleb128 0xd
 1208 0219 705F7500 		.ascii	"p_u\000"
 1209 021d 07       		.byte	0x7
 1210 021e 3101     		.2byte	0x131
 1211 0220 2B060000 		.4byte	0x62b
 1212 0224 24       		.byte	0x24
 1213 0225 0E       		.uleb128 0xe
 1214 0226 25050000 		.4byte	.LASF43
 1215 022a 07       		.byte	0x7
 1216 022b 3601     		.2byte	0x136
 1217 022d 92020000 		.4byte	0x292
 1218 0231 28       		.byte	0x28
 1219 0232 0E       		.uleb128 0xe
 1220 0233 7A030000 		.4byte	.LASF44
 1221 0237 07       		.byte	0x7
 1222 0238 3C01     		.2byte	0x13c
 1223 023a B6020000 		.4byte	0x2b6
 1224 023e 2C       		.byte	0x2c
 1225 023f 0E       		.uleb128 0xe
 1226 0240 36090000 		.4byte	.LASF45
 1227 0244 07       		.byte	0x7
 1228 0245 4001     		.2byte	0x140
 1229 0247 51010000 		.4byte	0x151
 1230 024b 34       		.byte	0x34
 1231 024c 0E       		.uleb128 0xe
 1232 024d 10070000 		.4byte	.LASF46
 1233 0251 07       		.byte	0x7
 1234 0252 4601     		.2byte	0x146
 1235 0254 5C010000 		.4byte	0x15c
 1236 0258 38       		.byte	0x38
 1237 0259 0E       		.uleb128 0xe
 1238 025a A5060000 		.4byte	.LASF47
 1239 025e 07       		.byte	0x7
 1240 025f 4D01     		.2byte	0x14d
ARM GAS  C:\Users\jo\AppData\Local\Temp\cc0xvuUV.s 			page 27


 1241 0261 EA060000 		.4byte	0x6ea
 1242 0265 3C       		.byte	0x3c
 1243 0266 0E       		.uleb128 0xe
 1244 0267 B7070000 		.4byte	.LASF48
 1245 026b 07       		.byte	0x7
 1246 026c 5101     		.2byte	0x151
 1247 026e 46010000 		.4byte	0x146
 1248 0272 40       		.byte	0x40
 1249 0273 0E       		.uleb128 0xe
 1250 0274 02020000 		.4byte	.LASF49
 1251 0278 07       		.byte	0x7
 1252 0279 5801     		.2byte	0x158
 1253 027b B4000000 		.4byte	0xb4
 1254 027f 44       		.byte	0x44
 1255 0280 00       		.byte	0
 1256 0281 03       		.uleb128 0x3
 1257 0282 3D050000 		.4byte	.LASF50
 1258 0286 06       		.byte	0x6
 1259 0287 44       		.byte	0x44
 1260 0288 8C020000 		.4byte	0x28c
 1261 028c 06       		.uleb128 0x6
 1262 028d 04       		.byte	0x4
 1263 028e 7D010000 		.4byte	0x17d
 1264 0292 03       		.uleb128 0x3
 1265 0293 08090000 		.4byte	.LASF51
 1266 0297 06       		.byte	0x6
 1267 0298 49       		.byte	0x49
 1268 0299 9D020000 		.4byte	0x29d
 1269 029d 0B       		.uleb128 0xb
 1270 029e 3C070000 		.4byte	.LASF53
 1271 02a2 04       		.byte	0x4
 1272 02a3 07       		.byte	0x7
 1273 02a4 B0       		.byte	0xb0
 1274 02a5 B6020000 		.4byte	0x2b6
 1275 02a9 0C       		.uleb128 0xc
 1276 02aa CF060000 		.4byte	.LASF32
 1277 02ae 07       		.byte	0x7
 1278 02af B1       		.byte	0xb1
 1279 02b0 8C020000 		.4byte	0x28c
 1280 02b4 00       		.byte	0
 1281 02b5 00       		.byte	0
 1282 02b6 03       		.uleb128 0x3
 1283 02b7 70080000 		.4byte	.LASF54
 1284 02bb 06       		.byte	0x6
 1285 02bc 50       		.byte	0x50
 1286 02bd C1020000 		.4byte	0x2c1
 1287 02c1 0B       		.uleb128 0xb
 1288 02c2 65010000 		.4byte	.LASF55
 1289 02c6 08       		.byte	0x8
 1290 02c7 07       		.byte	0x7
 1291 02c8 B7       		.byte	0xb7
 1292 02c9 E6020000 		.4byte	0x2e6
 1293 02cd 0C       		.uleb128 0xc
 1294 02ce CF060000 		.4byte	.LASF32
 1295 02d2 07       		.byte	0x7
 1296 02d3 B8       		.byte	0xb8
 1297 02d4 8C020000 		.4byte	0x28c
ARM GAS  C:\Users\jo\AppData\Local\Temp\cc0xvuUV.s 			page 28


 1298 02d8 00       		.byte	0
 1299 02d9 0C       		.uleb128 0xc
 1300 02da 57060000 		.4byte	.LASF33
 1301 02de 07       		.byte	0x7
 1302 02df B9       		.byte	0xb9
 1303 02e0 8C020000 		.4byte	0x28c
 1304 02e4 04       		.byte	0x4
 1305 02e5 00       		.byte	0
 1306 02e6 03       		.uleb128 0x3
 1307 02e7 07000000 		.4byte	.LASF56
 1308 02eb 06       		.byte	0x6
 1309 02ec 57       		.byte	0x57
 1310 02ed F1020000 		.4byte	0x2f1
 1311 02f1 0F       		.uleb128 0xf
 1312 02f2 FC030000 		.4byte	.LASF57
 1313 02f6 1C       		.byte	0x1c
 1314 02f7 07       		.byte	0x7
 1315 02f8 9001     		.2byte	0x190
 1316 02fa 4D030000 		.4byte	0x34d
 1317 02fe 0E       		.uleb128 0xe
 1318 02ff 2B070000 		.4byte	.LASF58
 1319 0303 07       		.byte	0x7
 1320 0304 9101     		.2byte	0x191
 1321 0306 B6020000 		.4byte	0x2b6
 1322 030a 00       		.byte	0
 1323 030b 0E       		.uleb128 0xe
 1324 030c C1060000 		.4byte	.LASF59
 1325 0310 07       		.byte	0x7
 1326 0311 9201     		.2byte	0x192
 1327 0313 46010000 		.4byte	0x146
 1328 0317 08       		.byte	0x8
 1329 0318 0E       		.uleb128 0xe
 1330 0319 BD050000 		.4byte	.LASF60
 1331 031d 07       		.byte	0x7
 1332 031e 9401     		.2byte	0x194
 1333 0320 DE040000 		.4byte	0x4de
 1334 0324 0C       		.byte	0xc
 1335 0325 0E       		.uleb128 0xe
 1336 0326 C1020000 		.4byte	.LASF61
 1337 032a 07       		.byte	0x7
 1338 032b 9701     		.2byte	0x197
 1339 032d 8C020000 		.4byte	0x28c
 1340 0331 10       		.byte	0x10
 1341 0332 0E       		.uleb128 0xe
 1342 0333 F5050000 		.4byte	.LASF62
 1343 0337 07       		.byte	0x7
 1344 0338 9801     		.2byte	0x198
 1345 033a 8C020000 		.4byte	0x28c
 1346 033e 14       		.byte	0x14
 1347 033f 0E       		.uleb128 0xe
 1348 0340 17090000 		.4byte	.LASF63
 1349 0344 07       		.byte	0x7
 1350 0345 9B01     		.2byte	0x19b
 1351 0347 8C020000 		.4byte	0x28c
 1352 034b 18       		.byte	0x18
 1353 034c 00       		.byte	0
 1354 034d 03       		.uleb128 0x3
ARM GAS  C:\Users\jo\AppData\Local\Temp\cc0xvuUV.s 			page 29


 1355 034e C2070000 		.4byte	.LASF64
 1356 0352 06       		.byte	0x6
 1357 0353 5C       		.byte	0x5c
 1358 0354 58030000 		.4byte	0x358
 1359 0358 06       		.uleb128 0x6
 1360 0359 04       		.byte	0x4
 1361 035a 5E030000 		.4byte	0x35e
 1362 035e 10       		.uleb128 0x10
 1363 035f 69030000 		.4byte	0x369
 1364 0363 11       		.uleb128 0x11
 1365 0364 B4000000 		.4byte	0xb4
 1366 0368 00       		.byte	0
 1367 0369 03       		.uleb128 0x3
 1368 036a 47060000 		.4byte	.LASF65
 1369 036e 06       		.byte	0x6
 1370 036f 61       		.byte	0x61
 1371 0370 74030000 		.4byte	0x374
 1372 0374 0F       		.uleb128 0xf
 1373 0375 10080000 		.4byte	.LASF66
 1374 0379 14       		.byte	0x14
 1375 037a 07       		.byte	0x7
 1376 037b 6B01     		.2byte	0x16b
 1377 037d C3030000 		.4byte	0x3c3
 1378 0381 0E       		.uleb128 0xe
 1379 0382 5A030000 		.4byte	.LASF67
 1380 0386 07       		.byte	0x7
 1381 0387 6C01     		.2byte	0x16c
 1382 0389 F6060000 		.4byte	0x6f6
 1383 038d 00       		.byte	0
 1384 038e 0E       		.uleb128 0xe
 1385 038f D2020000 		.4byte	.LASF68
 1386 0393 07       		.byte	0x7
 1387 0394 6D01     		.2byte	0x16d
 1388 0396 F6060000 		.4byte	0x6f6
 1389 039a 04       		.byte	0x4
 1390 039b 0E       		.uleb128 0xe
 1391 039c 33070000 		.4byte	.LASF69
 1392 03a0 07       		.byte	0x7
 1393 03a1 6E01     		.2byte	0x16e
 1394 03a3 72010000 		.4byte	0x172
 1395 03a7 08       		.byte	0x8
 1396 03a8 0E       		.uleb128 0xe
 1397 03a9 5D090000 		.4byte	.LASF70
 1398 03ad 07       		.byte	0x7
 1399 03ae 6F01     		.2byte	0x16f
 1400 03b0 4D030000 		.4byte	0x34d
 1401 03b4 0C       		.byte	0xc
 1402 03b5 0E       		.uleb128 0xe
 1403 03b6 42080000 		.4byte	.LASF71
 1404 03ba 07       		.byte	0x7
 1405 03bb 7101     		.2byte	0x171
 1406 03bd B4000000 		.4byte	0xb4
 1407 03c1 10       		.byte	0x10
 1408 03c2 00       		.byte	0
 1409 03c3 03       		.uleb128 0x3
 1410 03c4 3D010000 		.4byte	.LASF72
 1411 03c8 06       		.byte	0x6
ARM GAS  C:\Users\jo\AppData\Local\Temp\cc0xvuUV.s 			page 30


 1412 03c9 66       		.byte	0x66
 1413 03ca CE030000 		.4byte	0x3ce
 1414 03ce 0F       		.uleb128 0xf
 1415 03cf 50050000 		.4byte	.LASF73
 1416 03d3 10       		.byte	0x10
 1417 03d4 07       		.byte	0x7
 1418 03d5 7B01     		.2byte	0x17b
 1419 03d7 10040000 		.4byte	0x410
 1420 03db 0E       		.uleb128 0xe
 1421 03dc 5A030000 		.4byte	.LASF67
 1422 03e0 07       		.byte	0x7
 1423 03e1 7C01     		.2byte	0x17c
 1424 03e3 F6060000 		.4byte	0x6f6
 1425 03e7 00       		.byte	0
 1426 03e8 0E       		.uleb128 0xe
 1427 03e9 D2020000 		.4byte	.LASF68
 1428 03ed 07       		.byte	0x7
 1429 03ee 7E01     		.2byte	0x17e
 1430 03f0 F6060000 		.4byte	0x6f6
 1431 03f4 04       		.byte	0x4
 1432 03f5 0E       		.uleb128 0xe
 1433 03f6 33070000 		.4byte	.LASF69
 1434 03fa 07       		.byte	0x7
 1435 03fb 8001     		.2byte	0x180
 1436 03fd 72010000 		.4byte	0x172
 1437 0401 08       		.byte	0x8
 1438 0402 0E       		.uleb128 0xe
 1439 0403 8E050000 		.4byte	.LASF74
 1440 0407 07       		.byte	0x7
 1441 0408 8801     		.2byte	0x188
 1442 040a 72010000 		.4byte	0x172
 1443 040e 0C       		.byte	0xc
 1444 040f 00       		.byte	0
 1445 0410 03       		.uleb128 0x3
 1446 0411 96000000 		.4byte	.LASF75
 1447 0415 06       		.byte	0x6
 1448 0416 6B       		.byte	0x6b
 1449 0417 1B040000 		.4byte	0x41b
 1450 041b 12       		.uleb128 0x12
 1451 041c 79060000 		.4byte	.LASF76
 1452 0420 1404     		.2byte	0x414
 1453 0422 07       		.byte	0x7
 1454 0423 A201     		.2byte	0x1a2
 1455 0425 5E040000 		.4byte	0x45e
 1456 0429 0E       		.uleb128 0xe
 1457 042a D6070000 		.4byte	.LASF77
 1458 042e 07       		.byte	0x7
 1459 042f AA01     		.2byte	0x1aa
 1460 0431 FC060000 		.4byte	0x6fc
 1461 0435 00       		.byte	0
 1462 0436 0E       		.uleb128 0xe
 1463 0437 99080000 		.4byte	.LASF78
 1464 043b 07       		.byte	0x7
 1465 043c AF01     		.2byte	0x1af
 1466 043e 67010000 		.4byte	0x167
 1467 0442 04       		.byte	0x4
 1468 0443 0E       		.uleb128 0xe
ARM GAS  C:\Users\jo\AppData\Local\Temp\cc0xvuUV.s 			page 31


 1469 0444 0D030000 		.4byte	.LASF79
 1470 0448 07       		.byte	0x7
 1471 0449 B301     		.2byte	0x1b3
 1472 044b 67010000 		.4byte	0x167
 1473 044f 08       		.byte	0x8
 1474 0450 0E       		.uleb128 0xe
 1475 0451 21090000 		.4byte	.LASF80
 1476 0455 07       		.byte	0x7
 1477 0456 B901     		.2byte	0x1b9
 1478 0458 00060000 		.4byte	0x600
 1479 045c 0C       		.byte	0xc
 1480 045d 00       		.byte	0
 1481 045e 03       		.uleb128 0x3
 1482 045f DA030000 		.4byte	.LASF81
 1483 0463 06       		.byte	0x6
 1484 0464 70       		.byte	0x70
 1485 0465 69040000 		.4byte	0x469
 1486 0469 12       		.uleb128 0x12
 1487 046a 82020000 		.4byte	.LASF82
 1488 046e 7005     		.2byte	0x570
 1489 0470 07       		.byte	0x7
 1490 0471 C201     		.2byte	0x1c2
 1491 0473 C8040000 		.4byte	0x4c8
 1492 0477 0E       		.uleb128 0xe
 1493 0478 FF020000 		.4byte	.LASF83
 1494 047c 07       		.byte	0x7
 1495 047d C601     		.2byte	0x1c6
 1496 047f E6020000 		.4byte	0x2e6
 1497 0483 00       		.byte	0
 1498 0484 0E       		.uleb128 0xe
 1499 0485 C2030000 		.4byte	.LASF84
 1500 0489 07       		.byte	0x7
 1501 048a CA01     		.2byte	0x1ca
 1502 048c C3030000 		.4byte	0x3c3
 1503 0490 1C       		.byte	0x1c
 1504 0491 0D       		.uleb128 0xd
 1505 0492 64626700 		.ascii	"dbg\000"
 1506 0496 07       		.byte	0x7
 1507 0497 CE01     		.2byte	0x1ce
 1508 0499 10040000 		.4byte	0x410
 1509 049d 2C       		.byte	0x2c
 1510 049e 13       		.uleb128 0x13
 1511 049f 32010000 		.4byte	.LASF85
 1512 04a3 07       		.byte	0x7
 1513 04a4 D201     		.2byte	0x1d2
 1514 04a6 7D010000 		.4byte	0x17d
 1515 04aa 4004     		.2byte	0x440
 1516 04ac 14       		.uleb128 0x14
 1517 04ad 746D00   		.ascii	"tm\000"
 1518 04b0 07       		.byte	0x7
 1519 04b1 D701     		.2byte	0x1d7
 1520 04b3 20060000 		.4byte	0x620
 1521 04b7 8804     		.2byte	0x488
 1522 04b9 13       		.uleb128 0x13
 1523 04ba E6060000 		.4byte	.LASF86
 1524 04be 07       		.byte	0x7
 1525 04bf E301     		.2byte	0x1e3
ARM GAS  C:\Users\jo\AppData\Local\Temp\cc0xvuUV.s 			page 32


 1526 04c1 01070000 		.4byte	0x701
 1527 04c5 9004     		.2byte	0x490
 1528 04c7 00       		.byte	0
 1529 04c8 03       		.uleb128 0x3
 1530 04c9 C9020000 		.4byte	.LASF87
 1531 04cd 08       		.byte	0x8
 1532 04ce 65       		.byte	0x65
 1533 04cf B4000000 		.4byte	0xb4
 1534 04d3 03       		.uleb128 0x3
 1535 04d4 09050000 		.4byte	.LASF88
 1536 04d8 08       		.byte	0x8
 1537 04d9 6D       		.byte	0x6d
 1538 04da 0A010000 		.4byte	0x10a
 1539 04de 0B       		.uleb128 0xb
 1540 04df FF070000 		.4byte	.LASF89
 1541 04e3 04       		.byte	0x4
 1542 04e4 08       		.byte	0x8
 1543 04e5 89       		.byte	0x89
 1544 04e6 F7040000 		.4byte	0x4f7
 1545 04ea 15       		.uleb128 0x15
 1546 04eb 72313300 		.ascii	"r13\000"
 1547 04ef 08       		.byte	0x8
 1548 04f0 8A       		.byte	0x8a
 1549 04f1 72050000 		.4byte	0x572
 1550 04f5 00       		.byte	0
 1551 04f6 00       		.byte	0
 1552 04f7 0B       		.uleb128 0xb
 1553 04f8 82000000 		.4byte	.LASF90
 1554 04fc 24       		.byte	0x24
 1555 04fd 09       		.byte	0x9
 1556 04fe F4       		.byte	0xf4
 1557 04ff 72050000 		.4byte	0x572
 1558 0503 0D       		.uleb128 0xd
 1559 0504 723400   		.ascii	"r4\000"
 1560 0507 09       		.byte	0x9
 1561 0508 0701     		.2byte	0x107
 1562 050a C8040000 		.4byte	0x4c8
 1563 050e 00       		.byte	0
 1564 050f 0D       		.uleb128 0xd
 1565 0510 723500   		.ascii	"r5\000"
 1566 0513 09       		.byte	0x9
 1567 0514 0801     		.2byte	0x108
 1568 0516 C8040000 		.4byte	0x4c8
 1569 051a 04       		.byte	0x4
 1570 051b 0D       		.uleb128 0xd
 1571 051c 723600   		.ascii	"r6\000"
 1572 051f 09       		.byte	0x9
 1573 0520 0901     		.2byte	0x109
 1574 0522 C8040000 		.4byte	0x4c8
 1575 0526 08       		.byte	0x8
 1576 0527 0D       		.uleb128 0xd
 1577 0528 723700   		.ascii	"r7\000"
 1578 052b 09       		.byte	0x9
 1579 052c 0A01     		.2byte	0x10a
 1580 052e C8040000 		.4byte	0x4c8
 1581 0532 0C       		.byte	0xc
 1582 0533 0D       		.uleb128 0xd
ARM GAS  C:\Users\jo\AppData\Local\Temp\cc0xvuUV.s 			page 33


 1583 0534 723800   		.ascii	"r8\000"
 1584 0537 09       		.byte	0x9
 1585 0538 0B01     		.2byte	0x10b
 1586 053a C8040000 		.4byte	0x4c8
 1587 053e 10       		.byte	0x10
 1588 053f 0D       		.uleb128 0xd
 1589 0540 723900   		.ascii	"r9\000"
 1590 0543 09       		.byte	0x9
 1591 0544 0C01     		.2byte	0x10c
 1592 0546 C8040000 		.4byte	0x4c8
 1593 054a 14       		.byte	0x14
 1594 054b 0D       		.uleb128 0xd
 1595 054c 72313000 		.ascii	"r10\000"
 1596 0550 09       		.byte	0x9
 1597 0551 0D01     		.2byte	0x10d
 1598 0553 C8040000 		.4byte	0x4c8
 1599 0557 18       		.byte	0x18
 1600 0558 0D       		.uleb128 0xd
 1601 0559 72313100 		.ascii	"r11\000"
 1602 055d 09       		.byte	0x9
 1603 055e 0E01     		.2byte	0x10e
 1604 0560 C8040000 		.4byte	0x4c8
 1605 0564 1C       		.byte	0x1c
 1606 0565 0D       		.uleb128 0xd
 1607 0566 6C7200   		.ascii	"lr\000"
 1608 0569 09       		.byte	0x9
 1609 056a 0F01     		.2byte	0x10f
 1610 056c C8040000 		.4byte	0x4c8
 1611 0570 20       		.byte	0x20
 1612 0571 00       		.byte	0
 1613 0572 06       		.uleb128 0x6
 1614 0573 04       		.byte	0x4
 1615 0574 F7040000 		.4byte	0x4f7
 1616 0578 16       		.uleb128 0x16
 1617 0579 10       		.byte	0x10
 1618 057a 0A       		.byte	0xa
 1619 057b 51       		.byte	0x51
 1620 057c B1050000 		.4byte	0x5b1
 1621 0580 0C       		.uleb128 0xc
 1622 0581 14000000 		.4byte	.LASF91
 1623 0585 0A       		.byte	0xa
 1624 0586 55       		.byte	0x55
 1625 0587 72010000 		.4byte	0x172
 1626 058b 00       		.byte	0
 1627 058c 0C       		.uleb128 0xc
 1628 058d 94020000 		.4byte	.LASF92
 1629 0591 0A       		.byte	0xa
 1630 0592 59       		.byte	0x59
 1631 0593 8C020000 		.4byte	0x28c
 1632 0597 04       		.byte	0x4
 1633 0598 0C       		.uleb128 0xc
 1634 0599 4D090000 		.4byte	.LASF93
 1635 059d 0A       		.byte	0xa
 1636 059e 5D       		.byte	0x5d
 1637 059f B4000000 		.4byte	0xb4
 1638 05a3 08       		.byte	0x8
 1639 05a4 0C       		.uleb128 0xc
ARM GAS  C:\Users\jo\AppData\Local\Temp\cc0xvuUV.s 			page 34


 1640 05a5 20010000 		.4byte	.LASF94
 1641 05a9 0A       		.byte	0xa
 1642 05aa 61       		.byte	0x61
 1643 05ab DE000000 		.4byte	0xde
 1644 05af 0C       		.byte	0xc
 1645 05b0 00       		.byte	0
 1646 05b1 03       		.uleb128 0x3
 1647 05b2 7F050000 		.4byte	.LASF95
 1648 05b6 0A       		.byte	0xa
 1649 05b7 62       		.byte	0x62
 1650 05b8 78050000 		.4byte	0x578
 1651 05bc 17       		.uleb128 0x17
 1652 05bd 0804     		.2byte	0x408
 1653 05bf 0A       		.byte	0xa
 1654 05c0 67       		.byte	0x67
 1655 05c1 EA050000 		.4byte	0x5ea
 1656 05c5 0C       		.uleb128 0xc
 1657 05c6 B9020000 		.4byte	.LASF96
 1658 05ca 0A       		.byte	0xa
 1659 05cb 6B       		.byte	0x6b
 1660 05cc 37000000 		.4byte	0x37
 1661 05d0 00       		.byte	0
 1662 05d1 0C       		.uleb128 0xc
 1663 05d2 00000000 		.4byte	.LASF97
 1664 05d6 0A       		.byte	0xa
 1665 05d7 6F       		.byte	0x6f
 1666 05d8 EA050000 		.4byte	0x5ea
 1667 05dc 04       		.byte	0x4
 1668 05dd 0C       		.uleb128 0xc
 1669 05de E6030000 		.4byte	.LASF98
 1670 05e2 0A       		.byte	0xa
 1671 05e3 73       		.byte	0x73
 1672 05e4 F0050000 		.4byte	0x5f0
 1673 05e8 08       		.byte	0x8
 1674 05e9 00       		.byte	0
 1675 05ea 06       		.uleb128 0x6
 1676 05eb 04       		.byte	0x4
 1677 05ec B1050000 		.4byte	0x5b1
 1678 05f0 08       		.uleb128 0x8
 1679 05f1 B1050000 		.4byte	0x5b1
 1680 05f5 00060000 		.4byte	0x600
 1681 05f9 09       		.uleb128 0x9
 1682 05fa AD000000 		.4byte	0xad
 1683 05fe 3F       		.byte	0x3f
 1684 05ff 00       		.byte	0
 1685 0600 03       		.uleb128 0x3
 1686 0601 A3050000 		.4byte	.LASF99
 1687 0605 0A       		.byte	0xa
 1688 0606 74       		.byte	0x74
 1689 0607 BC050000 		.4byte	0x5bc
 1690 060b 16       		.uleb128 0x16
 1691 060c 04       		.byte	0x4
 1692 060d 0B       		.byte	0xb
 1693 060e 38       		.byte	0x38
 1694 060f 20060000 		.4byte	0x620
 1695 0613 0C       		.uleb128 0xc
 1696 0614 DA020000 		.4byte	.LASF100
ARM GAS  C:\Users\jo\AppData\Local\Temp\cc0xvuUV.s 			page 35


 1697 0618 0B       		.byte	0xb
 1698 0619 3C       		.byte	0x3c
 1699 061a 1A010000 		.4byte	0x11a
 1700 061e 00       		.byte	0
 1701 061f 00       		.byte	0
 1702 0620 03       		.uleb128 0x3
 1703 0621 C3050000 		.4byte	.LASF101
 1704 0625 0B       		.byte	0xb
 1705 0626 3D       		.byte	0x3d
 1706 0627 0B060000 		.4byte	0x60b
 1707 062b 18       		.uleb128 0x18
 1708 062c 04       		.byte	0x4
 1709 062d 07       		.byte	0x7
 1710 062e FA       		.byte	0xfa
 1711 062f 88060000 		.4byte	0x688
 1712 0633 19       		.uleb128 0x19
 1713 0634 3B000000 		.4byte	.LASF102
 1714 0638 07       		.byte	0x7
 1715 0639 0101     		.2byte	0x101
 1716 063b 51010000 		.4byte	0x151
 1717 063f 19       		.uleb128 0x19
 1718 0640 29010000 		.4byte	.LASF103
 1719 0644 07       		.byte	0x7
 1720 0645 0801     		.2byte	0x108
 1721 0647 51010000 		.4byte	0x151
 1722 064b 19       		.uleb128 0x19
 1723 064c E6080000 		.4byte	.LASF104
 1724 0650 07       		.byte	0x7
 1725 0651 0F01     		.2byte	0x10f
 1726 0653 B4000000 		.4byte	0xb4
 1727 0657 19       		.uleb128 0x19
 1728 0658 40020000 		.4byte	.LASF105
 1729 065c 07       		.byte	0x7
 1730 065d 1601     		.2byte	0x116
 1731 065f 88060000 		.4byte	0x688
 1732 0663 19       		.uleb128 0x19
 1733 0664 69030000 		.4byte	.LASF106
 1734 0668 07       		.byte	0x7
 1735 0669 1E01     		.2byte	0x11e
 1736 066b B3060000 		.4byte	0x6b3
 1737 066f 19       		.uleb128 0x19
 1738 0670 24070000 		.4byte	.LASF107
 1739 0674 07       		.byte	0x7
 1740 0675 2701     		.2byte	0x127
 1741 0677 EA060000 		.4byte	0x6ea
 1742 067b 19       		.uleb128 0x19
 1743 067c C8060000 		.4byte	.LASF108
 1744 0680 07       		.byte	0x7
 1745 0681 2F01     		.2byte	0x12f
 1746 0683 5C010000 		.4byte	0x15c
 1747 0687 00       		.byte	0
 1748 0688 06       		.uleb128 0x6
 1749 0689 04       		.byte	0x4
 1750 068a 81020000 		.4byte	0x281
 1751 068e 0B       		.uleb128 0xb
 1752 068f 03070000 		.4byte	.LASF109
 1753 0693 0C       		.byte	0xc
ARM GAS  C:\Users\jo\AppData\Local\Temp\cc0xvuUV.s 			page 36


 1754 0694 0C       		.byte	0xc
 1755 0695 34       		.byte	0x34
 1756 0696 B3060000 		.4byte	0x6b3
 1757 069a 0C       		.uleb128 0xc
 1758 069b B1020000 		.4byte	.LASF110
 1759 069f 0C       		.byte	0xc
 1760 06a0 35       		.byte	0x35
 1761 06a1 B6020000 		.4byte	0x2b6
 1762 06a5 00       		.byte	0
 1763 06a6 0C       		.uleb128 0xc
 1764 06a7 8B030000 		.4byte	.LASF111
 1765 06ab 0C       		.byte	0xc
 1766 06ac 37       		.byte	0x37
 1767 06ad 67010000 		.4byte	0x167
 1768 06b1 08       		.byte	0x8
 1769 06b2 00       		.byte	0
 1770 06b3 06       		.uleb128 0x6
 1771 06b4 04       		.byte	0x4
 1772 06b5 8E060000 		.4byte	0x68e
 1773 06b9 0B       		.uleb128 0xb
 1774 06ba F1070000 		.4byte	.LASF112
 1775 06be 10       		.byte	0x10
 1776 06bf 0D       		.byte	0xd
 1777 06c0 39       		.byte	0x39
 1778 06c1 EA060000 		.4byte	0x6ea
 1779 06c5 0C       		.uleb128 0xc
 1780 06c6 13020000 		.4byte	.LASF113
 1781 06ca 0D       		.byte	0xd
 1782 06cb 3A       		.byte	0x3a
 1783 06cc B6020000 		.4byte	0x2b6
 1784 06d0 00       		.byte	0
 1785 06d1 0C       		.uleb128 0xc
 1786 06d2 45090000 		.4byte	.LASF114
 1787 06d6 0D       		.byte	0xd
 1788 06d7 3C       		.byte	0x3c
 1789 06d8 8C020000 		.4byte	0x28c
 1790 06dc 08       		.byte	0x8
 1791 06dd 0C       		.uleb128 0xc
 1792 06de A6070000 		.4byte	.LASF115
 1793 06e2 0D       		.byte	0xd
 1794 06e3 3E       		.byte	0x3e
 1795 06e4 1C070000 		.4byte	0x71c
 1796 06e8 0C       		.byte	0xc
 1797 06e9 00       		.byte	0
 1798 06ea 06       		.uleb128 0x6
 1799 06eb 04       		.byte	0x4
 1800 06ec B9060000 		.4byte	0x6b9
 1801 06f0 06       		.uleb128 0x6
 1802 06f1 04       		.byte	0x4
 1803 06f2 D3040000 		.4byte	0x4d3
 1804 06f6 06       		.uleb128 0x6
 1805 06f7 04       		.byte	0x4
 1806 06f8 69030000 		.4byte	0x369
 1807 06fc 0A       		.uleb128 0xa
 1808 06fd C3000000 		.4byte	0xc3
 1809 0701 08       		.uleb128 0x8
 1810 0702 D3040000 		.4byte	0x4d3
ARM GAS  C:\Users\jo\AppData\Local\Temp\cc0xvuUV.s 			page 37


 1811 0706 11070000 		.4byte	0x711
 1812 070a 09       		.uleb128 0x9
 1813 070b AD000000 		.4byte	0xad
 1814 070f 1B       		.byte	0x1b
 1815 0710 00       		.byte	0
 1816 0711 03       		.uleb128 0x3
 1817 0712 05030000 		.4byte	.LASF116
 1818 0716 0D       		.byte	0xd
 1819 0717 34       		.byte	0x34
 1820 0718 B9060000 		.4byte	0x6b9
 1821 071c 06       		.uleb128 0x6
 1822 071d 04       		.byte	0x4
 1823 071e 11070000 		.4byte	0x711
 1824 0722 04       		.uleb128 0x4
 1825 0723 01       		.byte	0x1
 1826 0724 02       		.byte	0x2
 1827 0725 89060000 		.4byte	.LASF117
 1828 0729 03       		.uleb128 0x3
 1829 072a 70050000 		.4byte	.LASF118
 1830 072e 0E       		.byte	0xe
 1831 072f 28       		.byte	0x28
 1832 0730 34070000 		.4byte	0x734
 1833 0734 0B       		.uleb128 0xb
 1834 0735 78020000 		.4byte	.LASF119
 1835 0739 04       		.byte	0x4
 1836 073a 0F       		.byte	0xf
 1837 073b 00       		.byte	0
 1838 073c 4B070000 		.4byte	0x74b
 1839 0740 1A       		.uleb128 0x1a
 1840 0741 FA070000 		.4byte	.LASF120
 1841 0745 B4000000 		.4byte	0xb4
 1842 0749 00       		.byte	0
 1843 074a 00       		.byte	0
 1844 074b 03       		.uleb128 0x3
 1845 074c 8E000000 		.4byte	.LASF121
 1846 0750 0E       		.byte	0xe
 1847 0751 62       		.byte	0x62
 1848 0752 29070000 		.4byte	0x729
 1849 0756 03       		.uleb128 0x3
 1850 0757 2F050000 		.4byte	.LASF122
 1851 075b 10       		.byte	0x10
 1852 075c 3F       		.byte	0x3f
 1853 075d DE000000 		.4byte	0xde
 1854 0761 03       		.uleb128 0x3
 1855 0762 49080000 		.4byte	.LASF123
 1856 0766 10       		.byte	0x10
 1857 0767 41       		.byte	0x41
 1858 0768 E9000000 		.4byte	0xe9
 1859 076c 03       		.uleb128 0x3
 1860 076d 85030000 		.4byte	.LASF124
 1861 0771 10       		.byte	0x10
 1862 0772 43       		.byte	0x43
 1863 0773 FF000000 		.4byte	0xff
 1864 0777 0B       		.uleb128 0xb
 1865 0778 65090000 		.4byte	.LASF125
 1866 077c 04       		.byte	0x4
 1867 077d 11       		.byte	0x11
ARM GAS  C:\Users\jo\AppData\Local\Temp\cc0xvuUV.s 			page 38


 1868 077e 2C       		.byte	0x2c
 1869 077f 90070000 		.4byte	0x790
 1870 0783 0C       		.uleb128 0xc
 1871 0784 53030000 		.4byte	.LASF126
 1872 0788 11       		.byte	0x11
 1873 0789 2D       		.byte	0x2d
 1874 078a 6C070000 		.4byte	0x76c
 1875 078e 00       		.byte	0
 1876 078f 00       		.byte	0
 1877 0790 0B       		.uleb128 0xb
 1878 0791 B9080000 		.4byte	.LASF127
 1879 0795 10       		.byte	0x10
 1880 0796 12       		.byte	0x12
 1881 0797 33       		.byte	0x33
 1882 0798 D9070000 		.4byte	0x7d9
 1883 079c 0C       		.uleb128 0xc
 1884 079d D4050000 		.4byte	.LASF128
 1885 07a1 12       		.byte	0x12
 1886 07a2 34       		.byte	0x34
 1887 07a3 56070000 		.4byte	0x756
 1888 07a7 00       		.byte	0
 1889 07a8 0C       		.uleb128 0xc
 1890 07a9 1A050000 		.4byte	.LASF129
 1891 07ad 12       		.byte	0x12
 1892 07ae 35       		.byte	0x35
 1893 07af 56070000 		.4byte	0x756
 1894 07b3 01       		.byte	0x1
 1895 07b4 0C       		.uleb128 0xc
 1896 07b5 16060000 		.4byte	.LASF130
 1897 07b9 12       		.byte	0x12
 1898 07ba 36       		.byte	0x36
 1899 07bb 61070000 		.4byte	0x761
 1900 07bf 02       		.byte	0x2
 1901 07c0 0C       		.uleb128 0xc
 1902 07c1 AF030000 		.4byte	.LASF131
 1903 07c5 12       		.byte	0x12
 1904 07c6 37       		.byte	0x37
 1905 07c7 77070000 		.4byte	0x777
 1906 07cb 04       		.byte	0x4
 1907 07cc 0C       		.uleb128 0xc
 1908 07cd F6020000 		.4byte	.LASF132
 1909 07d1 12       		.byte	0x12
 1910 07d2 38       		.byte	0x38
 1911 07d3 CE000000 		.4byte	0xce
 1912 07d7 08       		.byte	0x8
 1913 07d8 00       		.byte	0
 1914 07d9 1B       		.uleb128 0x1b
 1915 07da 80070000 		.4byte	.LASF133
 1916 07de 6406     		.2byte	0x664
 1917 07e0 13       		.byte	0x13
 1918 07e1 3A       		.byte	0x3a
 1919 07e2 3F080000 		.4byte	0x83f
 1920 07e6 0C       		.uleb128 0xc
 1921 07e7 1F060000 		.4byte	.LASF134
 1922 07eb 13       		.byte	0x13
 1923 07ec 3B       		.byte	0x3b
 1924 07ed 25000000 		.4byte	0x25
ARM GAS  C:\Users\jo\AppData\Local\Temp\cc0xvuUV.s 			page 39


 1925 07f1 00       		.byte	0
 1926 07f2 0C       		.uleb128 0xc
 1927 07f3 6D090000 		.4byte	.LASF135
 1928 07f7 13       		.byte	0x13
 1929 07f8 3C       		.byte	0x3c
 1930 07f9 25000000 		.4byte	0x25
 1931 07fd 04       		.byte	0x4
 1932 07fe 0C       		.uleb128 0xc
 1933 07ff CB080000 		.4byte	.LASF136
 1934 0803 13       		.byte	0x13
 1935 0804 3D       		.byte	0x3d
 1936 0805 3F080000 		.4byte	0x83f
 1937 0809 08       		.byte	0x8
 1938 080a 1C       		.uleb128 0x1c
 1939 080b 66060000 		.4byte	.LASF137
 1940 080f 13       		.byte	0x13
 1941 0810 3E       		.byte	0x3e
 1942 0811 25000000 		.4byte	0x25
 1943 0815 3C06     		.2byte	0x63c
 1944 0817 1C       		.uleb128 0x1c
 1945 0818 3B030000 		.4byte	.LASF138
 1946 081c 13       		.byte	0x13
 1947 081d 3F       		.byte	0x3f
 1948 081e 25000000 		.4byte	0x25
 1949 0822 4006     		.2byte	0x640
 1950 0824 1C       		.uleb128 0x1c
 1951 0825 4C070000 		.4byte	.LASF139
 1952 0829 13       		.byte	0x13
 1953 082a 40       		.byte	0x40
 1954 082b 90070000 		.4byte	0x790
 1955 082f 4406     		.2byte	0x644
 1956 0831 1C       		.uleb128 0x1c
 1957 0832 91030000 		.4byte	.LASF140
 1958 0836 13       		.byte	0x13
 1959 0837 41       		.byte	0x41
 1960 0838 90070000 		.4byte	0x790
 1961 083c 5406     		.2byte	0x654
 1962 083e 00       		.byte	0
 1963 083f 08       		.uleb128 0x8
 1964 0840 BC000000 		.4byte	0xbc
 1965 0844 50080000 		.4byte	0x850
 1966 0848 1D       		.uleb128 0x1d
 1967 0849 AD000000 		.4byte	0xad
 1968 084d 3306     		.2byte	0x633
 1969 084f 00       		.byte	0
 1970 0850 03       		.uleb128 0x3
 1971 0851 F0030000 		.4byte	.LASF141
 1972 0855 14       		.byte	0x14
 1973 0856 3D       		.byte	0x3d
 1974 0857 D9070000 		.4byte	0x7d9
 1975 085b 06       		.uleb128 0x6
 1976 085c 04       		.byte	0x4
 1977 085d 50080000 		.4byte	0x850
 1978 0861 03       		.uleb128 0x3
 1979 0862 AC080000 		.4byte	.LASF142
 1980 0866 15       		.byte	0x15
 1981 0867 89       		.byte	0x89
ARM GAS  C:\Users\jo\AppData\Local\Temp\cc0xvuUV.s 			page 40


 1982 0868 6C080000 		.4byte	0x86c
 1983 086c 0B       		.uleb128 0xb
 1984 086d 39060000 		.4byte	.LASF143
 1985 0871 4C       		.byte	0x4c
 1986 0872 15       		.byte	0x15
 1987 0873 8C       		.byte	0x8c
 1988 0874 5D090000 		.4byte	0x95d
 1989 0878 0C       		.uleb128 0xc
 1990 0879 A1080000 		.4byte	.LASF144
 1991 087d 15       		.byte	0x15
 1992 087e 8D       		.byte	0x8d
 1993 087f 25000000 		.4byte	0x25
 1994 0883 00       		.byte	0
 1995 0884 0C       		.uleb128 0xc
 1996 0885 8C020000 		.4byte	.LASF145
 1997 0889 15       		.byte	0x15
 1998 088a 8E       		.byte	0x8e
 1999 088b B6000000 		.4byte	0xb6
 2000 088f 04       		.byte	0x4
 2001 0890 0C       		.uleb128 0xc
 2002 0891 23000000 		.4byte	.LASF146
 2003 0895 15       		.byte	0x15
 2004 0896 8F       		.byte	0x8f
 2005 0897 25000000 		.4byte	0x25
 2006 089b 08       		.byte	0x8
 2007 089c 0C       		.uleb128 0xc
 2008 089d 57000000 		.4byte	.LASF147
 2009 08a1 15       		.byte	0x15
 2010 08a2 90       		.byte	0x90
 2011 08a3 B6000000 		.4byte	0xb6
 2012 08a7 0C       		.byte	0xc
 2013 08a8 0C       		.uleb128 0xc
 2014 08a9 0A020000 		.4byte	.LASF148
 2015 08ad 15       		.byte	0x15
 2016 08ae 91       		.byte	0x91
 2017 08af B6000000 		.4byte	0xb6
 2018 08b3 10       		.byte	0x10
 2019 08b4 0C       		.uleb128 0xc
 2020 08b5 F9010000 		.4byte	.LASF149
 2021 08b9 15       		.byte	0x15
 2022 08ba 92       		.byte	0x92
 2023 08bb B6000000 		.4byte	0xb6
 2024 08bf 14       		.byte	0x14
 2025 08c0 0C       		.uleb128 0xc
 2026 08c1 2A020000 		.4byte	.LASF150
 2027 08c5 15       		.byte	0x15
 2028 08c6 93       		.byte	0x93
 2029 08c7 B6000000 		.4byte	0xb6
 2030 08cb 18       		.byte	0x18
 2031 08cc 0C       		.uleb128 0xc
 2032 08cd 1B020000 		.4byte	.LASF151
 2033 08d1 15       		.byte	0x15
 2034 08d2 94       		.byte	0x94
 2035 08d3 25000000 		.4byte	0x25
 2036 08d7 1C       		.byte	0x1c
 2037 08d8 0C       		.uleb128 0xc
 2038 08d9 C9030000 		.4byte	.LASF152
ARM GAS  C:\Users\jo\AppData\Local\Temp\cc0xvuUV.s 			page 41


 2039 08dd 15       		.byte	0x15
 2040 08de 96       		.byte	0x96
 2041 08df 7B000000 		.4byte	0x7b
 2042 08e3 20       		.byte	0x20
 2043 08e4 0C       		.uleb128 0xc
 2044 08e5 70030000 		.4byte	.LASF153
 2045 08e9 15       		.byte	0x15
 2046 08ea 97       		.byte	0x97
 2047 08eb B6000000 		.4byte	0xb6
 2048 08ef 24       		.byte	0x24
 2049 08f0 0C       		.uleb128 0xc
 2050 08f1 3C090000 		.4byte	.LASF154
 2051 08f5 15       		.byte	0x15
 2052 08f6 98       		.byte	0x98
 2053 08f7 B6000000 		.4byte	0xb6
 2054 08fb 28       		.byte	0x28
 2055 08fc 0C       		.uleb128 0xc
 2056 08fd B6000000 		.4byte	.LASF155
 2057 0901 15       		.byte	0x15
 2058 0902 99       		.byte	0x99
 2059 0903 B6000000 		.4byte	0xb6
 2060 0907 2C       		.byte	0x2c
 2061 0908 0C       		.uleb128 0xc
 2062 0909 2C030000 		.4byte	.LASF156
 2063 090d 15       		.byte	0x15
 2064 090e 9A       		.byte	0x9a
 2065 090f B6000000 		.4byte	0xb6
 2066 0913 30       		.byte	0x30
 2067 0914 0C       		.uleb128 0xc
 2068 0915 46020000 		.4byte	.LASF157
 2069 0919 15       		.byte	0x15
 2070 091a 9B       		.byte	0x9b
 2071 091b B6000000 		.4byte	0xb6
 2072 091f 34       		.byte	0x34
 2073 0920 0C       		.uleb128 0xc
 2074 0921 2F000000 		.4byte	.LASF158
 2075 0925 15       		.byte	0x15
 2076 0926 9F       		.byte	0x9f
 2077 0927 B6000000 		.4byte	0xb6
 2078 092b 38       		.byte	0x38
 2079 092c 0C       		.uleb128 0xc
 2080 092d 67050000 		.4byte	.LASF159
 2081 0931 15       		.byte	0x15
 2082 0932 A0       		.byte	0xa0
 2083 0933 B6000000 		.4byte	0xb6
 2084 0937 3C       		.byte	0x3c
 2085 0938 0C       		.uleb128 0xc
 2086 0939 4F080000 		.4byte	.LASF160
 2087 093d 15       		.byte	0x15
 2088 093e A1       		.byte	0xa1
 2089 093f B6000000 		.4byte	0xb6
 2090 0943 40       		.byte	0x40
 2091 0944 0C       		.uleb128 0xc
 2092 0945 34080000 		.4byte	.LASF161
 2093 0949 15       		.byte	0x15
 2094 094a A2       		.byte	0xa2
 2095 094b B6000000 		.4byte	0xb6
ARM GAS  C:\Users\jo\AppData\Local\Temp\cc0xvuUV.s 			page 42


 2096 094f 44       		.byte	0x44
 2097 0950 0C       		.uleb128 0xc
 2098 0951 CB010000 		.4byte	.LASF162
 2099 0955 15       		.byte	0x15
 2100 0956 A3       		.byte	0xa3
 2101 0957 B6000000 		.4byte	0xb6
 2102 095b 48       		.byte	0x48
 2103 095c 00       		.byte	0
 2104 095d 03       		.uleb128 0x3
 2105 095e 59020000 		.4byte	.LASF163
 2106 0962 15       		.byte	0x15
 2107 0963 A8       		.byte	0xa8
 2108 0964 68090000 		.4byte	0x968
 2109 0968 0B       		.uleb128 0xb
 2110 0969 61080000 		.4byte	.LASF164
 2111 096d 50       		.byte	0x50
 2112 096e 15       		.byte	0x15
 2113 096f AB       		.byte	0xab
 2114 0970 8D090000 		.4byte	0x98d
 2115 0974 0C       		.uleb128 0xc
 2116 0975 DD080000 		.4byte	.LASF165
 2117 0979 15       		.byte	0x15
 2118 097a AC       		.byte	0xac
 2119 097b 5B080000 		.4byte	0x85b
 2120 097f 00       		.byte	0
 2121 0980 0C       		.uleb128 0xc
 2122 0981 14050000 		.4byte	.LASF166
 2123 0985 15       		.byte	0x15
 2124 0986 AD       		.byte	0xad
 2125 0987 61080000 		.4byte	0x861
 2126 098b 04       		.byte	0x4
 2127 098c 00       		.byte	0
 2128 098d 06       		.uleb128 0x6
 2129 098e 04       		.byte	0x4
 2130 098f 5D090000 		.4byte	0x95d
 2131 0993 03       		.uleb128 0x3
 2132 0994 42000000 		.4byte	.LASF167
 2133 0998 01       		.byte	0x1
 2134 0999 31       		.byte	0x31
 2135 099a 9E090000 		.4byte	0x99e
 2136 099e 0B       		.uleb128 0xb
 2137 099f 16030000 		.4byte	.LASF168
 2138 09a3 08       		.byte	0x8
 2139 09a4 01       		.byte	0x1
 2140 09a5 33       		.byte	0x33
 2141 09a6 C3090000 		.4byte	0x9c3
 2142 09aa 0C       		.uleb128 0xc
 2143 09ab 31060000 		.4byte	.LASF169
 2144 09af 01       		.byte	0x1
 2145 09b0 34       		.byte	0x34
 2146 09b1 25000000 		.4byte	0x25
 2147 09b5 00       		.byte	0
 2148 09b6 0C       		.uleb128 0xc
 2149 09b7 70020000 		.4byte	.LASF170
 2150 09bb 01       		.byte	0x1
 2151 09bc 35       		.byte	0x35
 2152 09bd C3000000 		.4byte	0xc3
ARM GAS  C:\Users\jo\AppData\Local\Temp\cc0xvuUV.s 			page 43


 2153 09c1 04       		.byte	0x4
 2154 09c2 00       		.byte	0
 2155 09c3 1E       		.uleb128 0x1e
 2156 09c4 E0070000 		.4byte	.LASF190
 2157 09c8 01       		.byte	0x1
 2158 09c9 8B       		.byte	0x8b
 2159 09ca C3000000 		.4byte	0xc3
 2160 09ce 01       		.byte	0x1
 2161 09cf 0A0A0000 		.4byte	0xa0a
 2162 09d3 1F       		.uleb128 0x1f
 2163 09d4 5C080000 		.4byte	.LASF184
 2164 09d8 01       		.byte	0x1
 2165 09d9 8B       		.byte	0x8b
 2166 09da 25000000 		.4byte	0x25
 2167 09de 20       		.uleb128 0x20
 2168 09df 727000   		.ascii	"rp\000"
 2169 09e2 01       		.byte	0x1
 2170 09e3 8D       		.byte	0x8d
 2171 09e4 C3000000 		.4byte	0xc3
 2172 09e8 20       		.uleb128 0x20
 2173 09e9 6900     		.ascii	"i\000"
 2174 09eb 01       		.byte	0x1
 2175 09ec 8F       		.byte	0x8f
 2176 09ed 25000000 		.4byte	0x25
 2177 09f1 21       		.uleb128 0x21
 2178 09f2 22       		.uleb128 0x22
 2179 09f3 71060000 		.4byte	.LASF171
 2180 09f7 01       		.byte	0x1
 2181 09f8 9B       		.byte	0x9b
 2182 09f9 C3000000 		.4byte	0xc3
 2183 09fd 22       		.uleb128 0x22
 2184 09fe 61000000 		.4byte	.LASF172
 2185 0a02 01       		.byte	0x1
 2186 0a03 9C       		.byte	0x9c
 2187 0a04 C3000000 		.4byte	0xc3
 2188 0a08 00       		.byte	0
 2189 0a09 00       		.byte	0
 2190 0a0a 23       		.uleb128 0x23
 2191 0a0b C3090000 		.4byte	0x9c3
 2192 0a0f 00000000 		.4byte	.LFB260
 2193 0a13 4C000000 		.4byte	.LFE260-.LFB260
 2194 0a17 01       		.uleb128 0x1
 2195 0a18 9C       		.byte	0x9c
 2196 0a19 680A0000 		.4byte	0xa68
 2197 0a1d 24       		.uleb128 0x24
 2198 0a1e D3090000 		.4byte	0x9d3
 2199 0a22 00000000 		.4byte	.LLST0
 2200 0a26 25       		.uleb128 0x25
 2201 0a27 DE090000 		.4byte	0x9de
 2202 0a2b 1E000000 		.4byte	.LLST1
 2203 0a2f 25       		.uleb128 0x25
 2204 0a30 E8090000 		.4byte	0x9e8
 2205 0a34 49000000 		.4byte	.LLST2
 2206 0a38 26       		.uleb128 0x26
 2207 0a39 00000000 		.4byte	.Ldebug_ranges0+0
 2208 0a3d 24       		.uleb128 0x24
 2209 0a3e D3090000 		.4byte	0x9d3
ARM GAS  C:\Users\jo\AppData\Local\Temp\cc0xvuUV.s 			page 44


 2210 0a42 8F000000 		.4byte	.LLST3
 2211 0a46 26       		.uleb128 0x26
 2212 0a47 00000000 		.4byte	.Ldebug_ranges0+0
 2213 0a4b 27       		.uleb128 0x27
 2214 0a4c DE090000 		.4byte	0x9de
 2215 0a50 27       		.uleb128 0x27
 2216 0a51 E8090000 		.4byte	0x9e8
 2217 0a55 26       		.uleb128 0x26
 2218 0a56 00000000 		.4byte	.Ldebug_ranges0+0
 2219 0a5a 27       		.uleb128 0x27
 2220 0a5b F2090000 		.4byte	0x9f2
 2221 0a5f 27       		.uleb128 0x27
 2222 0a60 FD090000 		.4byte	0x9fd
 2223 0a64 00       		.byte	0
 2224 0a65 00       		.byte	0
 2225 0a66 00       		.byte	0
 2226 0a67 00       		.byte	0
 2227 0a68 28       		.uleb128 0x28
 2228 0a69 69070000 		.4byte	.LASF174
 2229 0a6d 01       		.byte	0x1
 2230 0a6e A7       		.byte	0xa7
 2231 0a6f 00000000 		.4byte	.LFB261
 2232 0a73 28000000 		.4byte	.LFE261-.LFB261
 2233 0a77 01       		.uleb128 0x1
 2234 0a78 9C       		.byte	0x9c
 2235 0a79 E40A0000 		.4byte	0xae4
 2236 0a7d 29       		.uleb128 0x29
 2237 0a7e 687300   		.ascii	"hs\000"
 2238 0a81 01       		.byte	0x1
 2239 0a82 A7       		.byte	0xa7
 2240 0a83 8D090000 		.4byte	0x98d
 2241 0a87 A2000000 		.4byte	.LLST4
 2242 0a8b 2A       		.uleb128 0x2a
 2243 0a8c F2010000 		.4byte	.LASF173
 2244 0a90 01       		.byte	0x1
 2245 0a91 A7       		.byte	0xa7
 2246 0a92 25000000 		.4byte	0x25
 2247 0a96 CE000000 		.4byte	.LLST5
 2248 0a9a 2B       		.uleb128 0x2b
 2249 0a9b A3020000 		.4byte	.LASF180
 2250 0a9f 01       		.byte	0x1
 2251 0aa0 AA       		.byte	0xaa
 2252 0aa1 F40A0000 		.4byte	0xaf4
 2253 0aa5 05       		.uleb128 0x5
 2254 0aa6 03       		.byte	0x3
 2255 0aa7 00000000 		.4byte	fmt_P.8431
 2256 0aab 2C       		.uleb128 0x2c
 2257 0aac 0E000000 		.4byte	.LVL10
 2258 0ab0 C3090000 		.4byte	0x9c3
 2259 0ab4 BF0A0000 		.4byte	0xabf
 2260 0ab8 2D       		.uleb128 0x2d
 2261 0ab9 01       		.uleb128 0x1
 2262 0aba 50       		.byte	0x50
 2263 0abb 02       		.uleb128 0x2
 2264 0abc 74       		.byte	0x74
 2265 0abd 00       		.sleb128 0
 2266 0abe 00       		.byte	0
ARM GAS  C:\Users\jo\AppData\Local\Temp\cc0xvuUV.s 			page 45


 2267 0abf 2E       		.uleb128 0x2e
 2268 0ac0 20000000 		.4byte	.LVL11
 2269 0ac4 440F0000 		.4byte	0xf44
 2270 0ac8 2D       		.uleb128 0x2d
 2271 0ac9 01       		.uleb128 0x1
 2272 0aca 53       		.byte	0x53
 2273 0acb 01       		.uleb128 0x1
 2274 0acc 31       		.byte	0x31
 2275 0acd 2D       		.uleb128 0x2d
 2276 0ace 01       		.uleb128 0x1
 2277 0acf 52       		.byte	0x52
 2278 0ad0 01       		.uleb128 0x1
 2279 0ad1 31       		.byte	0x31
 2280 0ad2 2D       		.uleb128 0x2d
 2281 0ad3 01       		.uleb128 0x1
 2282 0ad4 51       		.byte	0x51
 2283 0ad5 05       		.uleb128 0x5
 2284 0ad6 03       		.byte	0x3
 2285 0ad7 00000000 		.4byte	.LANCHOR1
 2286 0adb 2D       		.uleb128 0x2d
 2287 0adc 02       		.uleb128 0x2
 2288 0add 7D       		.byte	0x7d
 2289 0ade 00       		.sleb128 0
 2290 0adf 02       		.uleb128 0x2
 2291 0ae0 74       		.byte	0x74
 2292 0ae1 00       		.sleb128 0
 2293 0ae2 00       		.byte	0
 2294 0ae3 00       		.byte	0
 2295 0ae4 08       		.uleb128 0x8
 2296 0ae5 BC000000 		.4byte	0xbc
 2297 0ae9 F40A0000 		.4byte	0xaf4
 2298 0aed 09       		.uleb128 0x9
 2299 0aee AD000000 		.4byte	0xad
 2300 0af2 25       		.byte	0x25
 2301 0af3 00       		.byte	0
 2302 0af4 07       		.uleb128 0x7
 2303 0af5 E40A0000 		.4byte	0xae4
 2304 0af9 28       		.uleb128 0x28
 2305 0afa E1020000 		.4byte	.LASF175
 2306 0afe 01       		.byte	0x1
 2307 0aff C2       		.byte	0xc2
 2308 0b00 00000000 		.4byte	.LFB262
 2309 0b04 68000000 		.4byte	.LFE262-.LFB262
 2310 0b08 01       		.uleb128 0x1
 2311 0b09 9C       		.byte	0x9c
 2312 0b0a CB0B0000 		.4byte	0xbcb
 2313 0b0e 29       		.uleb128 0x29
 2314 0b0f 687300   		.ascii	"hs\000"
 2315 0b12 01       		.byte	0x1
 2316 0b13 C2       		.byte	0xc2
 2317 0b14 8D090000 		.4byte	0x98d
 2318 0b18 FA000000 		.4byte	.LLST6
 2319 0b1c 2A       		.uleb128 0x2a
 2320 0b1d B1000000 		.4byte	.LASF176
 2321 0b21 01       		.byte	0x1
 2322 0b22 C2       		.byte	0xc2
 2323 0b23 B6000000 		.4byte	0xb6
ARM GAS  C:\Users\jo\AppData\Local\Temp\cc0xvuUV.s 			page 46


 2324 0b27 26010000 		.4byte	.LLST7
 2325 0b2b 2A       		.uleb128 0x2a
 2326 0b2c 27040000 		.4byte	.LASF177
 2327 0b30 01       		.byte	0x1
 2328 0b31 C2       		.byte	0xc2
 2329 0b32 B6000000 		.4byte	0xb6
 2330 0b36 52010000 		.4byte	.LLST8
 2331 0b3a 2A       		.uleb128 0x2a
 2332 0b3b C5080000 		.4byte	.LASF178
 2333 0b3f 01       		.byte	0x1
 2334 0b40 C2       		.byte	0xc2
 2335 0b41 7B000000 		.4byte	0x7b
 2336 0b45 7F010000 		.4byte	.LLST9
 2337 0b49 2C       		.uleb128 0x2c
 2338 0b4a 26000000 		.4byte	.LVL18
 2339 0b4e 5F0F0000 		.4byte	0xf5f
 2340 0b52 830B0000 		.4byte	0xb83
 2341 0b56 2D       		.uleb128 0x2d
 2342 0b57 01       		.uleb128 0x1
 2343 0b58 53       		.byte	0x53
 2344 0b59 03       		.uleb128 0x3
 2345 0b5a F3       		.byte	0xf3
 2346 0b5b 01       		.uleb128 0x1
 2347 0b5c 51       		.byte	0x51
 2348 0b5d 2D       		.uleb128 0x2d
 2349 0b5e 01       		.uleb128 0x1
 2350 0b5f 52       		.byte	0x52
 2351 0b60 05       		.uleb128 0x5
 2352 0b61 03       		.byte	0x3
 2353 0b62 0C000000 		.4byte	.LC2
 2354 0b66 2D       		.uleb128 0x2d
 2355 0b67 02       		.uleb128 0x2
 2356 0b68 7D       		.byte	0x7d
 2357 0b69 0C       		.sleb128 12
 2358 0b6a 01       		.uleb128 0x1
 2359 0b6b 30       		.byte	0x30
 2360 0b6c 2D       		.uleb128 0x2d
 2361 0b6d 02       		.uleb128 0x2
 2362 0b6e 7D       		.byte	0x7d
 2363 0b6f 08       		.sleb128 8
 2364 0b70 02       		.uleb128 0x2
 2365 0b71 76       		.byte	0x76
 2366 0b72 00       		.sleb128 0
 2367 0b73 2D       		.uleb128 0x2d
 2368 0b74 02       		.uleb128 0x2
 2369 0b75 7D       		.byte	0x7d
 2370 0b76 04       		.sleb128 4
 2371 0b77 03       		.uleb128 0x3
 2372 0b78 F3       		.byte	0xf3
 2373 0b79 01       		.uleb128 0x1
 2374 0b7a 52       		.byte	0x52
 2375 0b7b 2D       		.uleb128 0x2d
 2376 0b7c 02       		.uleb128 0x2
 2377 0b7d 7D       		.byte	0x7d
 2378 0b7e 00       		.sleb128 0
 2379 0b7f 02       		.uleb128 0x2
 2380 0b80 77       		.byte	0x77
ARM GAS  C:\Users\jo\AppData\Local\Temp\cc0xvuUV.s 			page 47


 2381 0b81 00       		.sleb128 0
 2382 0b82 00       		.byte	0
 2383 0b83 2C       		.uleb128 0x2c
 2384 0b84 36000000 		.4byte	.LVL19
 2385 0b88 440F0000 		.4byte	0xf44
 2386 0b8c A00B0000 		.4byte	0xba0
 2387 0b90 2D       		.uleb128 0x2d
 2388 0b91 01       		.uleb128 0x1
 2389 0b92 53       		.byte	0x53
 2390 0b93 02       		.uleb128 0x2
 2391 0b94 75       		.byte	0x75
 2392 0b95 00       		.sleb128 0
 2393 0b96 2D       		.uleb128 0x2d
 2394 0b97 01       		.uleb128 0x1
 2395 0b98 51       		.byte	0x51
 2396 0b99 05       		.uleb128 0x5
 2397 0b9a 03       		.byte	0x3
 2398 0b9b 18000000 		.4byte	.LC5
 2399 0b9f 00       		.byte	0
 2400 0ba0 2C       		.uleb128 0x2c
 2401 0ba1 3E000000 		.4byte	.LVL20
 2402 0ba5 750F0000 		.4byte	0xf75
 2403 0ba9 B70B0000 		.4byte	0xbb7
 2404 0bad 2D       		.uleb128 0x2d
 2405 0bae 01       		.uleb128 0x1
 2406 0baf 50       		.byte	0x50
 2407 0bb0 05       		.uleb128 0x5
 2408 0bb1 03       		.byte	0x3
 2409 0bb2 24000000 		.4byte	.LC6
 2410 0bb6 00       		.byte	0
 2411 0bb7 2F       		.uleb128 0x2f
 2412 0bb8 4C000000 		.4byte	.LVL22
 2413 0bbc 750F0000 		.4byte	0xf75
 2414 0bc0 2D       		.uleb128 0x2d
 2415 0bc1 01       		.uleb128 0x1
 2416 0bc2 50       		.byte	0x50
 2417 0bc3 05       		.uleb128 0x5
 2418 0bc4 03       		.byte	0x3
 2419 0bc5 14000000 		.4byte	.LC4
 2420 0bc9 00       		.byte	0
 2421 0bca 00       		.byte	0
 2422 0bcb 28       		.uleb128 0x28
 2423 0bcc E7050000 		.4byte	.LASF179
 2424 0bd0 01       		.byte	0x1
 2425 0bd1 E9       		.byte	0xe9
 2426 0bd2 00000000 		.4byte	.LFB263
 2427 0bd6 70000000 		.4byte	.LFE263-.LFB263
 2428 0bda 01       		.uleb128 0x1
 2429 0bdb 9C       		.byte	0x9c
 2430 0bdc F20C0000 		.4byte	0xcf2
 2431 0be0 29       		.uleb128 0x29
 2432 0be1 687300   		.ascii	"hs\000"
 2433 0be4 01       		.byte	0x1
 2434 0be5 E9       		.byte	0xe9
 2435 0be6 8D090000 		.4byte	0x98d
 2436 0bea AB010000 		.4byte	.LLST10
 2437 0bee 2A       		.uleb128 0x2a
ARM GAS  C:\Users\jo\AppData\Local\Temp\cc0xvuUV.s 			page 48


 2438 0bef F2010000 		.4byte	.LASF173
 2439 0bf3 01       		.byte	0x1
 2440 0bf4 E9       		.byte	0xe9
 2441 0bf5 25000000 		.4byte	0x25
 2442 0bf9 E2010000 		.4byte	.LLST11
 2443 0bfd 2B       		.uleb128 0x2b
 2444 0bfe 3B020000 		.4byte	.LASF181
 2445 0c02 01       		.byte	0x1
 2446 0c03 EB       		.byte	0xeb
 2447 0c04 020D0000 		.4byte	0xd02
 2448 0c08 05       		.uleb128 0x5
 2449 0c09 03       		.byte	0x3
 2450 0c0a 00000000 		.4byte	body.8442
 2451 0c0e 30       		.uleb128 0x30
 2452 0c0f 8D070000 		.4byte	.LASF182
 2453 0c13 01       		.byte	0x1
 2454 0c14 EC       		.byte	0xec
 2455 0c15 C3000000 		.4byte	0xc3
 2456 0c19 19020000 		.4byte	.LLST12
 2457 0c1d 31       		.uleb128 0x31
 2458 0c1e 52000000 		.4byte	.LBB13
 2459 0c22 1E000000 		.4byte	.LBE13-.LBB13
 2460 0c26 4F0C0000 		.4byte	0xc4f
 2461 0c2a 2B       		.uleb128 0x2b
 2462 0c2b 21080000 		.4byte	.LASF183
 2463 0c2f 01       		.byte	0x1
 2464 0c30 F6       		.byte	0xf6
 2465 0c31 170D0000 		.4byte	0xd17
 2466 0c35 05       		.uleb128 0x5
 2467 0c36 03       		.byte	0x3
 2468 0c37 00000000 		.4byte	auth_fmt_P.8444
 2469 0c3b 2E       		.uleb128 0x2e
 2470 0c3c 5C000000 		.4byte	.LVL34
 2471 0c40 440F0000 		.4byte	0xf44
 2472 0c44 2D       		.uleb128 0x2d
 2473 0c45 01       		.uleb128 0x1
 2474 0c46 51       		.byte	0x51
 2475 0c47 05       		.uleb128 0x5
 2476 0c48 03       		.byte	0x3
 2477 0c49 00000000 		.4byte	.LANCHOR2
 2478 0c4d 00       		.byte	0
 2479 0c4e 00       		.byte	0
 2480 0c4f 2C       		.uleb128 0x2c
 2481 0c50 0E000000 		.4byte	.LVL25
 2482 0c54 C3090000 		.4byte	0x9c3
 2483 0c58 630C0000 		.4byte	0xc63
 2484 0c5c 2D       		.uleb128 0x2d
 2485 0c5d 01       		.uleb128 0x1
 2486 0c5e 50       		.byte	0x50
 2487 0c5f 02       		.uleb128 0x2
 2488 0c60 74       		.byte	0x74
 2489 0c61 00       		.sleb128 0
 2490 0c62 00       		.byte	0
 2491 0c63 2C       		.uleb128 0x2c
 2492 0c64 18000000 		.4byte	.LVL28
 2493 0c68 680A0000 		.4byte	0xa68
 2494 0c6c 7D0C0000 		.4byte	0xc7d
ARM GAS  C:\Users\jo\AppData\Local\Temp\cc0xvuUV.s 			page 49


 2495 0c70 2D       		.uleb128 0x2d
 2496 0c71 01       		.uleb128 0x1
 2497 0c72 51       		.byte	0x51
 2498 0c73 02       		.uleb128 0x2
 2499 0c74 74       		.byte	0x74
 2500 0c75 00       		.sleb128 0
 2501 0c76 2D       		.uleb128 0x2d
 2502 0c77 01       		.uleb128 0x1
 2503 0c78 50       		.byte	0x50
 2504 0c79 02       		.uleb128 0x2
 2505 0c7a 75       		.byte	0x75
 2506 0c7b 00       		.sleb128 0
 2507 0c7c 00       		.byte	0
 2508 0c7d 2C       		.uleb128 0x2c
 2509 0c7e 26000000 		.4byte	.LVL29
 2510 0c82 8F0F0000 		.4byte	0xf8f
 2511 0c86 910C0000 		.4byte	0xc91
 2512 0c8a 2D       		.uleb128 0x2d
 2513 0c8b 01       		.uleb128 0x1
 2514 0c8c 50       		.byte	0x50
 2515 0c8d 02       		.uleb128 0x2
 2516 0c8e 76       		.byte	0x76
 2517 0c8f 00       		.sleb128 0
 2518 0c90 00       		.byte	0
 2519 0c91 2C       		.uleb128 0x2c
 2520 0c92 36000000 		.4byte	.LVL30
 2521 0c96 F90A0000 		.4byte	0xaf9
 2522 0c9a B70C0000 		.4byte	0xcb7
 2523 0c9e 2D       		.uleb128 0x2d
 2524 0c9f 01       		.uleb128 0x1
 2525 0ca0 52       		.byte	0x52
 2526 0ca1 05       		.uleb128 0x5
 2527 0ca2 03       		.byte	0x3
 2528 0ca3 40000000 		.4byte	.LC8
 2529 0ca7 2D       		.uleb128 0x2d
 2530 0ca8 01       		.uleb128 0x1
 2531 0ca9 51       		.byte	0x51
 2532 0caa 05       		.uleb128 0x5
 2533 0cab 03       		.byte	0x3
 2534 0cac 38000000 		.4byte	.LC7
 2535 0cb0 2D       		.uleb128 0x2d
 2536 0cb1 01       		.uleb128 0x1
 2537 0cb2 50       		.byte	0x50
 2538 0cb3 02       		.uleb128 0x2
 2539 0cb4 75       		.byte	0x75
 2540 0cb5 00       		.sleb128 0
 2541 0cb6 00       		.byte	0
 2542 0cb7 2C       		.uleb128 0x2c
 2543 0cb8 46000000 		.4byte	.LVL31
 2544 0cbc 440F0000 		.4byte	0xf44
 2545 0cc0 E80C0000 		.4byte	0xce8
 2546 0cc4 2D       		.uleb128 0x2d
 2547 0cc5 01       		.uleb128 0x1
 2548 0cc6 53       		.byte	0x53
 2549 0cc7 02       		.uleb128 0x2
 2550 0cc8 76       		.byte	0x76
 2551 0cc9 00       		.sleb128 0
ARM GAS  C:\Users\jo\AppData\Local\Temp\cc0xvuUV.s 			page 50


 2552 0cca 2D       		.uleb128 0x2d
 2553 0ccb 01       		.uleb128 0x1
 2554 0ccc 52       		.byte	0x52
 2555 0ccd 02       		.uleb128 0x2
 2556 0cce 74       		.byte	0x74
 2557 0ccf 00       		.sleb128 0
 2558 0cd0 2D       		.uleb128 0x2d
 2559 0cd1 01       		.uleb128 0x1
 2560 0cd2 51       		.byte	0x51
 2561 0cd3 05       		.uleb128 0x5
 2562 0cd4 03       		.byte	0x3
 2563 0cd5 00000000 		.4byte	.LANCHOR3
 2564 0cd9 2D       		.uleb128 0x2d
 2565 0cda 02       		.uleb128 0x2
 2566 0cdb 7D       		.byte	0x7d
 2567 0cdc 04       		.sleb128 4
 2568 0cdd 02       		.uleb128 0x2
 2569 0cde 76       		.byte	0x76
 2570 0cdf 00       		.sleb128 0
 2571 0ce0 2D       		.uleb128 0x2d
 2572 0ce1 02       		.uleb128 0x2
 2573 0ce2 7D       		.byte	0x7d
 2574 0ce3 00       		.sleb128 0
 2575 0ce4 02       		.uleb128 0x2
 2576 0ce5 74       		.byte	0x74
 2577 0ce6 00       		.sleb128 0
 2578 0ce7 00       		.byte	0
 2579 0ce8 32       		.uleb128 0x32
 2580 0ce9 52000000 		.4byte	.LVL33
 2581 0ced A40F0000 		.4byte	0xfa4
 2582 0cf1 00       		.byte	0
 2583 0cf2 08       		.uleb128 0x8
 2584 0cf3 BC000000 		.4byte	0xbc
 2585 0cf7 020D0000 		.4byte	0xd02
 2586 0cfb 09       		.uleb128 0x9
 2587 0cfc AD000000 		.4byte	0xad
 2588 0d00 42       		.byte	0x42
 2589 0d01 00       		.byte	0
 2590 0d02 07       		.uleb128 0x7
 2591 0d03 F20C0000 		.4byte	0xcf2
 2592 0d07 08       		.uleb128 0x8
 2593 0d08 BC000000 		.4byte	0xbc
 2594 0d0c 170D0000 		.4byte	0xd17
 2595 0d10 09       		.uleb128 0x9
 2596 0d11 AD000000 		.4byte	0xad
 2597 0d15 24       		.byte	0x24
 2598 0d16 00       		.byte	0
 2599 0d17 07       		.uleb128 0x7
 2600 0d18 070D0000 		.4byte	0xd07
 2601 0d1c 33       		.uleb128 0x33
 2602 0d1d F4080000 		.4byte	.LASF202
 2603 0d21 01       		.byte	0x1
 2604 0d22 0201     		.2byte	0x102
 2605 0d24 25000000 		.4byte	0x25
 2606 0d28 00000000 		.4byte	.LFB264
 2607 0d2c CC000000 		.4byte	.LFE264-.LFB264
 2608 0d30 01       		.uleb128 0x1
ARM GAS  C:\Users\jo\AppData\Local\Temp\cc0xvuUV.s 			page 51


 2609 0d31 9C       		.byte	0x9c
 2610 0d32 B70E0000 		.4byte	0xeb7
 2611 0d36 34       		.uleb128 0x34
 2612 0d37 687300   		.ascii	"hs\000"
 2613 0d3a 01       		.byte	0x1
 2614 0d3b 0201     		.2byte	0x102
 2615 0d3d 8D090000 		.4byte	0x98d
 2616 0d41 42020000 		.4byte	.LLST13
 2617 0d45 35       		.uleb128 0x35
 2618 0d46 5C080000 		.4byte	.LASF184
 2619 0d4a 01       		.byte	0x1
 2620 0d4b 0201     		.2byte	0x102
 2621 0d4d 25000000 		.4byte	0x25
 2622 0d51 02       		.uleb128 0x2
 2623 0d52 91       		.byte	0x91
 2624 0d53 74       		.sleb128 -12
 2625 0d54 36       		.uleb128 0x36
 2626 0d55 37       		.uleb128 0x37
 2627 0d56 617000   		.ascii	"ap\000"
 2628 0d59 01       		.byte	0x1
 2629 0d5a 0401     		.2byte	0x104
 2630 0d5c 4B070000 		.4byte	0x74b
 2631 0d60 02       		.uleb128 0x2
 2632 0d61 91       		.byte	0x91
 2633 0d62 54       		.sleb128 -44
 2634 0d63 38       		.uleb128 0x38
 2635 0d64 6C656E00 		.ascii	"len\000"
 2636 0d68 01       		.byte	0x1
 2637 0d69 0501     		.2byte	0x105
 2638 0d6b 25000000 		.4byte	0x25
 2639 0d6f 84020000 		.4byte	.LLST14
 2640 0d73 38       		.uleb128 0x38
 2641 0d74 637000   		.ascii	"cp\000"
 2642 0d77 01       		.byte	0x1
 2643 0d78 0601     		.2byte	0x106
 2644 0d7a B6000000 		.4byte	0xb6
 2645 0d7e AF020000 		.4byte	.LLST15
 2646 0d82 38       		.uleb128 0x38
 2647 0d83 6C6F6300 		.ascii	"loc\000"
 2648 0d87 01       		.byte	0x1
 2649 0d88 0701     		.2byte	0x107
 2650 0d8a B6000000 		.4byte	0xb6
 2651 0d8e EE020000 		.4byte	.LLST16
 2652 0d92 31       		.uleb128 0x31
 2653 0d93 3C000000 		.4byte	.LBB14
 2654 0d97 68000000 		.4byte	.LBE14-.LBB14
 2655 0d9b A40E0000 		.4byte	0xea4
 2656 0d9f 39       		.uleb128 0x39
 2657 0da0 3B020000 		.4byte	.LASF181
 2658 0da4 01       		.byte	0x1
 2659 0da5 0E01     		.2byte	0x10e
 2660 0da7 C70E0000 		.4byte	0xec7
 2661 0dab 05       		.uleb128 0x5
 2662 0dac 03       		.byte	0x3
 2663 0dad 00000000 		.4byte	body.8456
 2664 0db1 38       		.uleb128 0x38
 2665 0db2 737000   		.ascii	"sp\000"
ARM GAS  C:\Users\jo\AppData\Local\Temp\cc0xvuUV.s 			page 52


 2666 0db5 01       		.byte	0x1
 2667 0db6 1001     		.2byte	0x110
 2668 0db8 5B080000 		.4byte	0x85b
 2669 0dbc 0C030000 		.4byte	.LLST17
 2670 0dc0 2C       		.uleb128 0x2c
 2671 0dc1 48000000 		.4byte	.LVL44
 2672 0dc5 680A0000 		.4byte	0xa68
 2673 0dc9 DB0D0000 		.4byte	0xddb
 2674 0dcd 2D       		.uleb128 0x2d
 2675 0dce 01       		.uleb128 0x1
 2676 0dcf 51       		.byte	0x51
 2677 0dd0 03       		.uleb128 0x3
 2678 0dd1 75       		.byte	0x75
 2679 0dd2 7C       		.sleb128 -4
 2680 0dd3 06       		.byte	0x6
 2681 0dd4 2D       		.uleb128 0x2d
 2682 0dd5 01       		.uleb128 0x1
 2683 0dd6 50       		.byte	0x50
 2684 0dd7 02       		.uleb128 0x2
 2685 0dd8 77       		.byte	0x77
 2686 0dd9 00       		.sleb128 0
 2687 0dda 00       		.byte	0
 2688 0ddb 2C       		.uleb128 0x2c
 2689 0ddc 5C000000 		.4byte	.LVL46
 2690 0de0 B90F0000 		.4byte	0xfb9
 2691 0de4 EF0D0000 		.4byte	0xdef
 2692 0de8 2D       		.uleb128 0x2d
 2693 0de9 01       		.uleb128 0x1
 2694 0dea 50       		.byte	0x50
 2695 0deb 02       		.uleb128 0x2
 2696 0dec 76       		.byte	0x76
 2697 0ded 00       		.sleb128 0
 2698 0dee 00       		.byte	0
 2699 0def 2C       		.uleb128 0x2c
 2700 0df0 7A000000 		.4byte	.LVL49
 2701 0df4 5F0F0000 		.4byte	0xf5f
 2702 0df8 220E0000 		.4byte	0xe22
 2703 0dfc 2D       		.uleb128 0x2d
 2704 0dfd 01       		.uleb128 0x1
 2705 0dfe 53       		.byte	0x53
 2706 0dff 02       		.uleb128 0x2
 2707 0e00 76       		.byte	0x76
 2708 0e01 00       		.sleb128 0
 2709 0e02 2D       		.uleb128 0x2d
 2710 0e03 01       		.uleb128 0x1
 2711 0e04 52       		.byte	0x52
 2712 0e05 05       		.uleb128 0x5
 2713 0e06 03       		.byte	0x3
 2714 0e07 0C000000 		.4byte	.LC2
 2715 0e0b 2D       		.uleb128 0x2d
 2716 0e0c 01       		.uleb128 0x1
 2717 0e0d 50       		.byte	0x50
 2718 0e0e 02       		.uleb128 0x2
 2719 0e0f 78       		.byte	0x78
 2720 0e10 00       		.sleb128 0
 2721 0e11 2D       		.uleb128 0x2d
 2722 0e12 02       		.uleb128 0x2
ARM GAS  C:\Users\jo\AppData\Local\Temp\cc0xvuUV.s 			page 53


 2723 0e13 7D       		.byte	0x7d
 2724 0e14 04       		.sleb128 4
 2725 0e15 01       		.uleb128 0x1
 2726 0e16 30       		.byte	0x30
 2727 0e17 2D       		.uleb128 0x2d
 2728 0e18 02       		.uleb128 0x2
 2729 0e19 7D       		.byte	0x7d
 2730 0e1a 00       		.sleb128 0
 2731 0e1b 05       		.uleb128 0x5
 2732 0e1c 03       		.byte	0x3
 2733 0e1d 14000000 		.4byte	.LC4
 2734 0e21 00       		.byte	0
 2735 0e22 2C       		.uleb128 0x2c
 2736 0e23 80000000 		.4byte	.LVL50
 2737 0e27 8F0F0000 		.4byte	0xf8f
 2738 0e2b 360E0000 		.4byte	0xe36
 2739 0e2f 2D       		.uleb128 0x2d
 2740 0e30 01       		.uleb128 0x1
 2741 0e31 50       		.byte	0x50
 2742 0e32 02       		.uleb128 0x2
 2743 0e33 76       		.byte	0x76
 2744 0e34 00       		.sleb128 0
 2745 0e35 00       		.byte	0
 2746 0e36 2C       		.uleb128 0x2c
 2747 0e37 8E000000 		.4byte	.LVL51
 2748 0e3b F90A0000 		.4byte	0xaf9
 2749 0e3f 5C0E0000 		.4byte	0xe5c
 2750 0e43 2D       		.uleb128 0x2d
 2751 0e44 01       		.uleb128 0x1
 2752 0e45 52       		.byte	0x52
 2753 0e46 05       		.uleb128 0x5
 2754 0e47 03       		.byte	0x3
 2755 0e48 40000000 		.4byte	.LC8
 2756 0e4c 2D       		.uleb128 0x2d
 2757 0e4d 01       		.uleb128 0x1
 2758 0e4e 51       		.byte	0x51
 2759 0e4f 05       		.uleb128 0x5
 2760 0e50 03       		.byte	0x3
 2761 0e51 38000000 		.4byte	.LC7
 2762 0e55 2D       		.uleb128 0x2d
 2763 0e56 01       		.uleb128 0x1
 2764 0e57 50       		.byte	0x50
 2765 0e58 02       		.uleb128 0x2
 2766 0e59 77       		.byte	0x77
 2767 0e5a 00       		.sleb128 0
 2768 0e5b 00       		.byte	0
 2769 0e5c 2C       		.uleb128 0x2c
 2770 0e5d 98000000 		.4byte	.LVL52
 2771 0e61 440F0000 		.4byte	0xf44
 2772 0e65 7F0E0000 		.4byte	0xe7f
 2773 0e69 2D       		.uleb128 0x2d
 2774 0e6a 01       		.uleb128 0x1
 2775 0e6b 52       		.byte	0x52
 2776 0e6c 02       		.uleb128 0x2
 2777 0e6d 76       		.byte	0x76
 2778 0e6e 00       		.sleb128 0
 2779 0e6f 2D       		.uleb128 0x2d
ARM GAS  C:\Users\jo\AppData\Local\Temp\cc0xvuUV.s 			page 54


 2780 0e70 01       		.uleb128 0x1
 2781 0e71 51       		.byte	0x51
 2782 0e72 05       		.uleb128 0x5
 2783 0e73 03       		.byte	0x3
 2784 0e74 00000000 		.4byte	.LANCHOR4
 2785 0e78 2D       		.uleb128 0x2d
 2786 0e79 01       		.uleb128 0x1
 2787 0e7a 50       		.byte	0x50
 2788 0e7b 02       		.uleb128 0x2
 2789 0e7c 78       		.byte	0x78
 2790 0e7d 00       		.sleb128 0
 2791 0e7e 00       		.byte	0
 2792 0e7f 2C       		.uleb128 0x2c
 2793 0e80 9E000000 		.4byte	.LVL53
 2794 0e84 A40F0000 		.4byte	0xfa4
 2795 0e88 930E0000 		.4byte	0xe93
 2796 0e8c 2D       		.uleb128 0x2d
 2797 0e8d 01       		.uleb128 0x1
 2798 0e8e 50       		.byte	0x50
 2799 0e8f 02       		.uleb128 0x2
 2800 0e90 78       		.byte	0x78
 2801 0e91 00       		.sleb128 0
 2802 0e92 00       		.byte	0
 2803 0e93 2E       		.uleb128 0x2e
 2804 0e94 A4000000 		.4byte	.LVL54
 2805 0e98 D30F0000 		.4byte	0xfd3
 2806 0e9c 2D       		.uleb128 0x2d
 2807 0e9d 01       		.uleb128 0x1
 2808 0e9e 50       		.byte	0x50
 2809 0e9f 02       		.uleb128 0x2
 2810 0ea0 76       		.byte	0x76
 2811 0ea1 00       		.sleb128 0
 2812 0ea2 00       		.byte	0
 2813 0ea3 00       		.byte	0
 2814 0ea4 3A       		.uleb128 0x3a
 2815 0ea5 24000000 		.4byte	.LVL38
 2816 0ea9 8F0F0000 		.4byte	0xf8f
 2817 0ead 3A       		.uleb128 0x3a
 2818 0eae 36000000 		.4byte	.LVL41
 2819 0eb2 E40F0000 		.4byte	0xfe4
 2820 0eb6 00       		.byte	0
 2821 0eb7 08       		.uleb128 0x8
 2822 0eb8 BC000000 		.4byte	0xbc
 2823 0ebc C70E0000 		.4byte	0xec7
 2824 0ec0 09       		.uleb128 0x9
 2825 0ec1 AD000000 		.4byte	0xad
 2826 0ec5 35       		.byte	0x35
 2827 0ec6 00       		.byte	0
 2828 0ec7 07       		.uleb128 0x7
 2829 0ec8 B70E0000 		.4byte	0xeb7
 2830 0ecc 08       		.uleb128 0x8
 2831 0ecd 93090000 		.4byte	0x993
 2832 0ed1 DC0E0000 		.4byte	0xedc
 2833 0ed5 09       		.uleb128 0x9
 2834 0ed6 AD000000 		.4byte	0xad
 2835 0eda 42       		.byte	0x42
 2836 0edb 00       		.byte	0
ARM GAS  C:\Users\jo\AppData\Local\Temp\cc0xvuUV.s 			page 55


 2837 0edc 2B       		.uleb128 0x2b
 2838 0edd FD050000 		.4byte	.LASF185
 2839 0ee1 01       		.byte	0x1
 2840 0ee2 39       		.byte	0x39
 2841 0ee3 ED0E0000 		.4byte	0xeed
 2842 0ee7 05       		.uleb128 0x5
 2843 0ee8 03       		.byte	0x3
 2844 0ee9 00000000 		.4byte	response_list
 2845 0eed 07       		.uleb128 0x7
 2846 0eee CC0E0000 		.4byte	0xecc
 2847 0ef2 3B       		.uleb128 0x3b
 2848 0ef3 53010000 		.4byte	.LASF186
 2849 0ef7 16       		.byte	0x16
 2850 0ef8 A706     		.2byte	0x6a7
 2851 0efa 15010000 		.4byte	0x115
 2852 0efe 3C       		.uleb128 0x3c
 2853 0eff 636800   		.ascii	"ch\000"
 2854 0f02 07       		.byte	0x7
 2855 0f03 0902     		.2byte	0x209
 2856 0f05 5E040000 		.4byte	0x45e
 2857 0f09 08       		.uleb128 0x8
 2858 0f0a BC000000 		.4byte	0xbc
 2859 0f0e 140F0000 		.4byte	0xf14
 2860 0f12 3D       		.uleb128 0x3d
 2861 0f13 00       		.byte	0
 2862 0f14 3E       		.uleb128 0x3e
 2863 0f15 68000000 		.4byte	.LASF187
 2864 0f19 15       		.byte	0x15
 2865 0f1a B6       		.byte	0xb6
 2866 0f1b 1F0F0000 		.4byte	0xf1f
 2867 0f1f 07       		.uleb128 0x7
 2868 0f20 090F0000 		.4byte	0xf09
 2869 0f24 3E       		.uleb128 0x3e
 2870 0f25 80080000 		.4byte	.LASF188
 2871 0f29 15       		.byte	0x15
 2872 0f2a BC       		.byte	0xbc
 2873 0f2b 2F0F0000 		.4byte	0xf2f
 2874 0f2f 07       		.uleb128 0x7
 2875 0f30 090F0000 		.4byte	0xf09
 2876 0f34 3E       		.uleb128 0x3e
 2877 0f35 A5000000 		.4byte	.LASF189
 2878 0f39 15       		.byte	0x15
 2879 0f3a C2       		.byte	0xc2
 2880 0f3b 3F0F0000 		.4byte	0xf3f
 2881 0f3f 07       		.uleb128 0x7
 2882 0f40 090F0000 		.4byte	0xf09
 2883 0f44 3F       		.uleb128 0x3f
 2884 0f45 07080000 		.4byte	.LASF191
 2885 0f49 14       		.byte	0x14
 2886 0f4a C0       		.byte	0xc0
 2887 0f4b 25000000 		.4byte	0x25
 2888 0f4f 5F0F0000 		.4byte	0xf5f
 2889 0f53 11       		.uleb128 0x11
 2890 0f54 5B080000 		.4byte	0x85b
 2891 0f58 11       		.uleb128 0x11
 2892 0f59 C3000000 		.4byte	0xc3
 2893 0f5d 36       		.uleb128 0x36
ARM GAS  C:\Users\jo\AppData\Local\Temp\cc0xvuUV.s 			page 56


 2894 0f5e 00       		.byte	0
 2895 0f5f 3F       		.uleb128 0x3f
 2896 0f60 2E090000 		.4byte	.LASF192
 2897 0f64 14       		.byte	0x14
 2898 0f65 B3       		.byte	0xb3
 2899 0f66 25000000 		.4byte	0x25
 2900 0f6a 750F0000 		.4byte	0xf75
 2901 0f6e 11       		.uleb128 0x11
 2902 0f6f 5B080000 		.4byte	0x85b
 2903 0f73 36       		.uleb128 0x36
 2904 0f74 00       		.byte	0
 2905 0f75 3F       		.uleb128 0x3f
 2906 0f76 FC060000 		.4byte	.LASF193
 2907 0f7a 14       		.byte	0x14
 2908 0f7b AA       		.byte	0xaa
 2909 0f7c 25000000 		.4byte	0x25
 2910 0f80 8F0F0000 		.4byte	0xf8f
 2911 0f84 11       		.uleb128 0x11
 2912 0f85 C3000000 		.4byte	0xc3
 2913 0f89 11       		.uleb128 0x11
 2914 0f8a 5B080000 		.4byte	0x85b
 2915 0f8e 00       		.byte	0
 2916 0f8f 3F       		.uleb128 0x3f
 2917 0f90 62030000 		.4byte	.LASF194
 2918 0f94 17       		.byte	0x17
 2919 0f95 21       		.byte	0x21
 2920 0f96 2C000000 		.4byte	0x2c
 2921 0f9a A40F0000 		.4byte	0xfa4
 2922 0f9e 11       		.uleb128 0x11
 2923 0f9f C3000000 		.4byte	0xc3
 2924 0fa3 00       		.byte	0
 2925 0fa4 3F       		.uleb128 0x3f
 2926 0fa5 33020000 		.4byte	.LASF195
 2927 0fa9 14       		.byte	0x14
 2928 0faa CF       		.byte	0xcf
 2929 0fab 25000000 		.4byte	0x25
 2930 0faf B90F0000 		.4byte	0xfb9
 2931 0fb3 11       		.uleb128 0x11
 2932 0fb4 5B080000 		.4byte	0x85b
 2933 0fb8 00       		.byte	0
 2934 0fb9 3F       		.uleb128 0x3f
 2935 0fba 16040000 		.4byte	.LASF196
 2936 0fbe 17       		.byte	0x17
 2937 0fbf 1A       		.byte	0x1a
 2938 0fc0 B6000000 		.4byte	0xb6
 2939 0fc4 D30F0000 		.4byte	0xfd3
 2940 0fc8 11       		.uleb128 0x11
 2941 0fc9 B6000000 		.4byte	0xb6
 2942 0fcd 11       		.uleb128 0x11
 2943 0fce C3000000 		.4byte	0xc3
 2944 0fd2 00       		.byte	0
 2945 0fd3 40       		.uleb128 0x40
 2946 0fd4 60010000 		.4byte	.LASF197
 2947 0fd8 18       		.byte	0x18
 2948 0fd9 55       		.byte	0x55
 2949 0fda E40F0000 		.4byte	0xfe4
 2950 0fde 11       		.uleb128 0x11
ARM GAS  C:\Users\jo\AppData\Local\Temp\cc0xvuUV.s 			page 57


 2951 0fdf B4000000 		.4byte	0xb4
 2952 0fe3 00       		.byte	0
 2953 0fe4 41       		.uleb128 0x41
 2954 0fe5 F5060000 		.4byte	.LASF198
 2955 0fe9 18       		.byte	0x18
 2956 0fea 60       		.byte	0x60
 2957 0feb B4000000 		.4byte	0xb4
 2958 0fef 11       		.uleb128 0x11
 2959 0ff0 2C000000 		.4byte	0x2c
 2960 0ff4 00       		.byte	0
 2961 0ff5 00       		.byte	0
 2962              		.section	.debug_abbrev,"",%progbits
 2963              	.Ldebug_abbrev0:
 2964 0000 01       		.uleb128 0x1
 2965 0001 11       		.uleb128 0x11
 2966 0002 01       		.byte	0x1
 2967 0003 25       		.uleb128 0x25
 2968 0004 0E       		.uleb128 0xe
 2969 0005 13       		.uleb128 0x13
 2970 0006 0B       		.uleb128 0xb
 2971 0007 03       		.uleb128 0x3
 2972 0008 0E       		.uleb128 0xe
 2973 0009 1B       		.uleb128 0x1b
 2974 000a 0E       		.uleb128 0xe
 2975 000b 55       		.uleb128 0x55
 2976 000c 17       		.uleb128 0x17
 2977 000d 11       		.uleb128 0x11
 2978 000e 01       		.uleb128 0x1
 2979 000f 10       		.uleb128 0x10
 2980 0010 17       		.uleb128 0x17
 2981 0011 00       		.byte	0
 2982 0012 00       		.byte	0
 2983 0013 02       		.uleb128 0x2
 2984 0014 24       		.uleb128 0x24
 2985 0015 00       		.byte	0
 2986 0016 0B       		.uleb128 0xb
 2987 0017 0B       		.uleb128 0xb
 2988 0018 3E       		.uleb128 0x3e
 2989 0019 0B       		.uleb128 0xb
 2990 001a 03       		.uleb128 0x3
 2991 001b 08       		.uleb128 0x8
 2992 001c 00       		.byte	0
 2993 001d 00       		.byte	0
 2994 001e 03       		.uleb128 0x3
 2995 001f 16       		.uleb128 0x16
 2996 0020 00       		.byte	0
 2997 0021 03       		.uleb128 0x3
 2998 0022 0E       		.uleb128 0xe
 2999 0023 3A       		.uleb128 0x3a
 3000 0024 0B       		.uleb128 0xb
 3001 0025 3B       		.uleb128 0x3b
 3002 0026 0B       		.uleb128 0xb
 3003 0027 49       		.uleb128 0x49
 3004 0028 13       		.uleb128 0x13
 3005 0029 00       		.byte	0
 3006 002a 00       		.byte	0
 3007 002b 04       		.uleb128 0x4
ARM GAS  C:\Users\jo\AppData\Local\Temp\cc0xvuUV.s 			page 58


 3008 002c 24       		.uleb128 0x24
 3009 002d 00       		.byte	0
 3010 002e 0B       		.uleb128 0xb
 3011 002f 0B       		.uleb128 0xb
 3012 0030 3E       		.uleb128 0x3e
 3013 0031 0B       		.uleb128 0xb
 3014 0032 03       		.uleb128 0x3
 3015 0033 0E       		.uleb128 0xe
 3016 0034 00       		.byte	0
 3017 0035 00       		.byte	0
 3018 0036 05       		.uleb128 0x5
 3019 0037 0F       		.uleb128 0xf
 3020 0038 00       		.byte	0
 3021 0039 0B       		.uleb128 0xb
 3022 003a 0B       		.uleb128 0xb
 3023 003b 00       		.byte	0
 3024 003c 00       		.byte	0
 3025 003d 06       		.uleb128 0x6
 3026 003e 0F       		.uleb128 0xf
 3027 003f 00       		.byte	0
 3028 0040 0B       		.uleb128 0xb
 3029 0041 0B       		.uleb128 0xb
 3030 0042 49       		.uleb128 0x49
 3031 0043 13       		.uleb128 0x13
 3032 0044 00       		.byte	0
 3033 0045 00       		.byte	0
 3034 0046 07       		.uleb128 0x7
 3035 0047 26       		.uleb128 0x26
 3036 0048 00       		.byte	0
 3037 0049 49       		.uleb128 0x49
 3038 004a 13       		.uleb128 0x13
 3039 004b 00       		.byte	0
 3040 004c 00       		.byte	0
 3041 004d 08       		.uleb128 0x8
 3042 004e 01       		.uleb128 0x1
 3043 004f 01       		.byte	0x1
 3044 0050 49       		.uleb128 0x49
 3045 0051 13       		.uleb128 0x13
 3046 0052 01       		.uleb128 0x1
 3047 0053 13       		.uleb128 0x13
 3048 0054 00       		.byte	0
 3049 0055 00       		.byte	0
 3050 0056 09       		.uleb128 0x9
 3051 0057 21       		.uleb128 0x21
 3052 0058 00       		.byte	0
 3053 0059 49       		.uleb128 0x49
 3054 005a 13       		.uleb128 0x13
 3055 005b 2F       		.uleb128 0x2f
 3056 005c 0B       		.uleb128 0xb
 3057 005d 00       		.byte	0
 3058 005e 00       		.byte	0
 3059 005f 0A       		.uleb128 0xa
 3060 0060 35       		.uleb128 0x35
 3061 0061 00       		.byte	0
 3062 0062 49       		.uleb128 0x49
 3063 0063 13       		.uleb128 0x13
 3064 0064 00       		.byte	0
ARM GAS  C:\Users\jo\AppData\Local\Temp\cc0xvuUV.s 			page 59


 3065 0065 00       		.byte	0
 3066 0066 0B       		.uleb128 0xb
 3067 0067 13       		.uleb128 0x13
 3068 0068 01       		.byte	0x1
 3069 0069 03       		.uleb128 0x3
 3070 006a 0E       		.uleb128 0xe
 3071 006b 0B       		.uleb128 0xb
 3072 006c 0B       		.uleb128 0xb
 3073 006d 3A       		.uleb128 0x3a
 3074 006e 0B       		.uleb128 0xb
 3075 006f 3B       		.uleb128 0x3b
 3076 0070 0B       		.uleb128 0xb
 3077 0071 01       		.uleb128 0x1
 3078 0072 13       		.uleb128 0x13
 3079 0073 00       		.byte	0
 3080 0074 00       		.byte	0
 3081 0075 0C       		.uleb128 0xc
 3082 0076 0D       		.uleb128 0xd
 3083 0077 00       		.byte	0
 3084 0078 03       		.uleb128 0x3
 3085 0079 0E       		.uleb128 0xe
 3086 007a 3A       		.uleb128 0x3a
 3087 007b 0B       		.uleb128 0xb
 3088 007c 3B       		.uleb128 0x3b
 3089 007d 0B       		.uleb128 0xb
 3090 007e 49       		.uleb128 0x49
 3091 007f 13       		.uleb128 0x13
 3092 0080 38       		.uleb128 0x38
 3093 0081 0B       		.uleb128 0xb
 3094 0082 00       		.byte	0
 3095 0083 00       		.byte	0
 3096 0084 0D       		.uleb128 0xd
 3097 0085 0D       		.uleb128 0xd
 3098 0086 00       		.byte	0
 3099 0087 03       		.uleb128 0x3
 3100 0088 08       		.uleb128 0x8
 3101 0089 3A       		.uleb128 0x3a
 3102 008a 0B       		.uleb128 0xb
 3103 008b 3B       		.uleb128 0x3b
 3104 008c 05       		.uleb128 0x5
 3105 008d 49       		.uleb128 0x49
 3106 008e 13       		.uleb128 0x13
 3107 008f 38       		.uleb128 0x38
 3108 0090 0B       		.uleb128 0xb
 3109 0091 00       		.byte	0
 3110 0092 00       		.byte	0
 3111 0093 0E       		.uleb128 0xe
 3112 0094 0D       		.uleb128 0xd
 3113 0095 00       		.byte	0
 3114 0096 03       		.uleb128 0x3
 3115 0097 0E       		.uleb128 0xe
 3116 0098 3A       		.uleb128 0x3a
 3117 0099 0B       		.uleb128 0xb
 3118 009a 3B       		.uleb128 0x3b
 3119 009b 05       		.uleb128 0x5
 3120 009c 49       		.uleb128 0x49
 3121 009d 13       		.uleb128 0x13
ARM GAS  C:\Users\jo\AppData\Local\Temp\cc0xvuUV.s 			page 60


 3122 009e 38       		.uleb128 0x38
 3123 009f 0B       		.uleb128 0xb
 3124 00a0 00       		.byte	0
 3125 00a1 00       		.byte	0
 3126 00a2 0F       		.uleb128 0xf
 3127 00a3 13       		.uleb128 0x13
 3128 00a4 01       		.byte	0x1
 3129 00a5 03       		.uleb128 0x3
 3130 00a6 0E       		.uleb128 0xe
 3131 00a7 0B       		.uleb128 0xb
 3132 00a8 0B       		.uleb128 0xb
 3133 00a9 3A       		.uleb128 0x3a
 3134 00aa 0B       		.uleb128 0xb
 3135 00ab 3B       		.uleb128 0x3b
 3136 00ac 05       		.uleb128 0x5
 3137 00ad 01       		.uleb128 0x1
 3138 00ae 13       		.uleb128 0x13
 3139 00af 00       		.byte	0
 3140 00b0 00       		.byte	0
 3141 00b1 10       		.uleb128 0x10
 3142 00b2 15       		.uleb128 0x15
 3143 00b3 01       		.byte	0x1
 3144 00b4 27       		.uleb128 0x27
 3145 00b5 19       		.uleb128 0x19
 3146 00b6 01       		.uleb128 0x1
 3147 00b7 13       		.uleb128 0x13
 3148 00b8 00       		.byte	0
 3149 00b9 00       		.byte	0
 3150 00ba 11       		.uleb128 0x11
 3151 00bb 05       		.uleb128 0x5
 3152 00bc 00       		.byte	0
 3153 00bd 49       		.uleb128 0x49
 3154 00be 13       		.uleb128 0x13
 3155 00bf 00       		.byte	0
 3156 00c0 00       		.byte	0
 3157 00c1 12       		.uleb128 0x12
 3158 00c2 13       		.uleb128 0x13
 3159 00c3 01       		.byte	0x1
 3160 00c4 03       		.uleb128 0x3
 3161 00c5 0E       		.uleb128 0xe
 3162 00c6 0B       		.uleb128 0xb
 3163 00c7 05       		.uleb128 0x5
 3164 00c8 3A       		.uleb128 0x3a
 3165 00c9 0B       		.uleb128 0xb
 3166 00ca 3B       		.uleb128 0x3b
 3167 00cb 05       		.uleb128 0x5
 3168 00cc 01       		.uleb128 0x1
 3169 00cd 13       		.uleb128 0x13
 3170 00ce 00       		.byte	0
 3171 00cf 00       		.byte	0
 3172 00d0 13       		.uleb128 0x13
 3173 00d1 0D       		.uleb128 0xd
 3174 00d2 00       		.byte	0
 3175 00d3 03       		.uleb128 0x3
 3176 00d4 0E       		.uleb128 0xe
 3177 00d5 3A       		.uleb128 0x3a
 3178 00d6 0B       		.uleb128 0xb
ARM GAS  C:\Users\jo\AppData\Local\Temp\cc0xvuUV.s 			page 61


 3179 00d7 3B       		.uleb128 0x3b
 3180 00d8 05       		.uleb128 0x5
 3181 00d9 49       		.uleb128 0x49
 3182 00da 13       		.uleb128 0x13
 3183 00db 38       		.uleb128 0x38
 3184 00dc 05       		.uleb128 0x5
 3185 00dd 00       		.byte	0
 3186 00de 00       		.byte	0
 3187 00df 14       		.uleb128 0x14
 3188 00e0 0D       		.uleb128 0xd
 3189 00e1 00       		.byte	0
 3190 00e2 03       		.uleb128 0x3
 3191 00e3 08       		.uleb128 0x8
 3192 00e4 3A       		.uleb128 0x3a
 3193 00e5 0B       		.uleb128 0xb
 3194 00e6 3B       		.uleb128 0x3b
 3195 00e7 05       		.uleb128 0x5
 3196 00e8 49       		.uleb128 0x49
 3197 00e9 13       		.uleb128 0x13
 3198 00ea 38       		.uleb128 0x38
 3199 00eb 05       		.uleb128 0x5
 3200 00ec 00       		.byte	0
 3201 00ed 00       		.byte	0
 3202 00ee 15       		.uleb128 0x15
 3203 00ef 0D       		.uleb128 0xd
 3204 00f0 00       		.byte	0
 3205 00f1 03       		.uleb128 0x3
 3206 00f2 08       		.uleb128 0x8
 3207 00f3 3A       		.uleb128 0x3a
 3208 00f4 0B       		.uleb128 0xb
 3209 00f5 3B       		.uleb128 0x3b
 3210 00f6 0B       		.uleb128 0xb
 3211 00f7 49       		.uleb128 0x49
 3212 00f8 13       		.uleb128 0x13
 3213 00f9 38       		.uleb128 0x38
 3214 00fa 0B       		.uleb128 0xb
 3215 00fb 00       		.byte	0
 3216 00fc 00       		.byte	0
 3217 00fd 16       		.uleb128 0x16
 3218 00fe 13       		.uleb128 0x13
 3219 00ff 01       		.byte	0x1
 3220 0100 0B       		.uleb128 0xb
 3221 0101 0B       		.uleb128 0xb
 3222 0102 3A       		.uleb128 0x3a
 3223 0103 0B       		.uleb128 0xb
 3224 0104 3B       		.uleb128 0x3b
 3225 0105 0B       		.uleb128 0xb
 3226 0106 01       		.uleb128 0x1
 3227 0107 13       		.uleb128 0x13
 3228 0108 00       		.byte	0
 3229 0109 00       		.byte	0
 3230 010a 17       		.uleb128 0x17
 3231 010b 13       		.uleb128 0x13
 3232 010c 01       		.byte	0x1
 3233 010d 0B       		.uleb128 0xb
 3234 010e 05       		.uleb128 0x5
 3235 010f 3A       		.uleb128 0x3a
ARM GAS  C:\Users\jo\AppData\Local\Temp\cc0xvuUV.s 			page 62


 3236 0110 0B       		.uleb128 0xb
 3237 0111 3B       		.uleb128 0x3b
 3238 0112 0B       		.uleb128 0xb
 3239 0113 01       		.uleb128 0x1
 3240 0114 13       		.uleb128 0x13
 3241 0115 00       		.byte	0
 3242 0116 00       		.byte	0
 3243 0117 18       		.uleb128 0x18
 3244 0118 17       		.uleb128 0x17
 3245 0119 01       		.byte	0x1
 3246 011a 0B       		.uleb128 0xb
 3247 011b 0B       		.uleb128 0xb
 3248 011c 3A       		.uleb128 0x3a
 3249 011d 0B       		.uleb128 0xb
 3250 011e 3B       		.uleb128 0x3b
 3251 011f 0B       		.uleb128 0xb
 3252 0120 01       		.uleb128 0x1
 3253 0121 13       		.uleb128 0x13
 3254 0122 00       		.byte	0
 3255 0123 00       		.byte	0
 3256 0124 19       		.uleb128 0x19
 3257 0125 0D       		.uleb128 0xd
 3258 0126 00       		.byte	0
 3259 0127 03       		.uleb128 0x3
 3260 0128 0E       		.uleb128 0xe
 3261 0129 3A       		.uleb128 0x3a
 3262 012a 0B       		.uleb128 0xb
 3263 012b 3B       		.uleb128 0x3b
 3264 012c 05       		.uleb128 0x5
 3265 012d 49       		.uleb128 0x49
 3266 012e 13       		.uleb128 0x13
 3267 012f 00       		.byte	0
 3268 0130 00       		.byte	0
 3269 0131 1A       		.uleb128 0x1a
 3270 0132 0D       		.uleb128 0xd
 3271 0133 00       		.byte	0
 3272 0134 03       		.uleb128 0x3
 3273 0135 0E       		.uleb128 0xe
 3274 0136 49       		.uleb128 0x49
 3275 0137 13       		.uleb128 0x13
 3276 0138 38       		.uleb128 0x38
 3277 0139 0B       		.uleb128 0xb
 3278 013a 34       		.uleb128 0x34
 3279 013b 19       		.uleb128 0x19
 3280 013c 00       		.byte	0
 3281 013d 00       		.byte	0
 3282 013e 1B       		.uleb128 0x1b
 3283 013f 13       		.uleb128 0x13
 3284 0140 01       		.byte	0x1
 3285 0141 03       		.uleb128 0x3
 3286 0142 0E       		.uleb128 0xe
 3287 0143 0B       		.uleb128 0xb
 3288 0144 05       		.uleb128 0x5
 3289 0145 3A       		.uleb128 0x3a
 3290 0146 0B       		.uleb128 0xb
 3291 0147 3B       		.uleb128 0x3b
 3292 0148 0B       		.uleb128 0xb
ARM GAS  C:\Users\jo\AppData\Local\Temp\cc0xvuUV.s 			page 63


 3293 0149 01       		.uleb128 0x1
 3294 014a 13       		.uleb128 0x13
 3295 014b 00       		.byte	0
 3296 014c 00       		.byte	0
 3297 014d 1C       		.uleb128 0x1c
 3298 014e 0D       		.uleb128 0xd
 3299 014f 00       		.byte	0
 3300 0150 03       		.uleb128 0x3
 3301 0151 0E       		.uleb128 0xe
 3302 0152 3A       		.uleb128 0x3a
 3303 0153 0B       		.uleb128 0xb
 3304 0154 3B       		.uleb128 0x3b
 3305 0155 0B       		.uleb128 0xb
 3306 0156 49       		.uleb128 0x49
 3307 0157 13       		.uleb128 0x13
 3308 0158 38       		.uleb128 0x38
 3309 0159 05       		.uleb128 0x5
 3310 015a 00       		.byte	0
 3311 015b 00       		.byte	0
 3312 015c 1D       		.uleb128 0x1d
 3313 015d 21       		.uleb128 0x21
 3314 015e 00       		.byte	0
 3315 015f 49       		.uleb128 0x49
 3316 0160 13       		.uleb128 0x13
 3317 0161 2F       		.uleb128 0x2f
 3318 0162 05       		.uleb128 0x5
 3319 0163 00       		.byte	0
 3320 0164 00       		.byte	0
 3321 0165 1E       		.uleb128 0x1e
 3322 0166 2E       		.uleb128 0x2e
 3323 0167 01       		.byte	0x1
 3324 0168 3F       		.uleb128 0x3f
 3325 0169 19       		.uleb128 0x19
 3326 016a 03       		.uleb128 0x3
 3327 016b 0E       		.uleb128 0xe
 3328 016c 3A       		.uleb128 0x3a
 3329 016d 0B       		.uleb128 0xb
 3330 016e 3B       		.uleb128 0x3b
 3331 016f 0B       		.uleb128 0xb
 3332 0170 27       		.uleb128 0x27
 3333 0171 19       		.uleb128 0x19
 3334 0172 49       		.uleb128 0x49
 3335 0173 13       		.uleb128 0x13
 3336 0174 20       		.uleb128 0x20
 3337 0175 0B       		.uleb128 0xb
 3338 0176 01       		.uleb128 0x1
 3339 0177 13       		.uleb128 0x13
 3340 0178 00       		.byte	0
 3341 0179 00       		.byte	0
 3342 017a 1F       		.uleb128 0x1f
 3343 017b 05       		.uleb128 0x5
 3344 017c 00       		.byte	0
 3345 017d 03       		.uleb128 0x3
 3346 017e 0E       		.uleb128 0xe
 3347 017f 3A       		.uleb128 0x3a
 3348 0180 0B       		.uleb128 0xb
 3349 0181 3B       		.uleb128 0x3b
ARM GAS  C:\Users\jo\AppData\Local\Temp\cc0xvuUV.s 			page 64


 3350 0182 0B       		.uleb128 0xb
 3351 0183 49       		.uleb128 0x49
 3352 0184 13       		.uleb128 0x13
 3353 0185 00       		.byte	0
 3354 0186 00       		.byte	0
 3355 0187 20       		.uleb128 0x20
 3356 0188 34       		.uleb128 0x34
 3357 0189 00       		.byte	0
 3358 018a 03       		.uleb128 0x3
 3359 018b 08       		.uleb128 0x8
 3360 018c 3A       		.uleb128 0x3a
 3361 018d 0B       		.uleb128 0xb
 3362 018e 3B       		.uleb128 0x3b
 3363 018f 0B       		.uleb128 0xb
 3364 0190 49       		.uleb128 0x49
 3365 0191 13       		.uleb128 0x13
 3366 0192 00       		.byte	0
 3367 0193 00       		.byte	0
 3368 0194 21       		.uleb128 0x21
 3369 0195 0B       		.uleb128 0xb
 3370 0196 01       		.byte	0x1
 3371 0197 00       		.byte	0
 3372 0198 00       		.byte	0
 3373 0199 22       		.uleb128 0x22
 3374 019a 34       		.uleb128 0x34
 3375 019b 00       		.byte	0
 3376 019c 03       		.uleb128 0x3
 3377 019d 0E       		.uleb128 0xe
 3378 019e 3A       		.uleb128 0x3a
 3379 019f 0B       		.uleb128 0xb
 3380 01a0 3B       		.uleb128 0x3b
 3381 01a1 0B       		.uleb128 0xb
 3382 01a2 49       		.uleb128 0x49
 3383 01a3 13       		.uleb128 0x13
 3384 01a4 00       		.byte	0
 3385 01a5 00       		.byte	0
 3386 01a6 23       		.uleb128 0x23
 3387 01a7 2E       		.uleb128 0x2e
 3388 01a8 01       		.byte	0x1
 3389 01a9 31       		.uleb128 0x31
 3390 01aa 13       		.uleb128 0x13
 3391 01ab 11       		.uleb128 0x11
 3392 01ac 01       		.uleb128 0x1
 3393 01ad 12       		.uleb128 0x12
 3394 01ae 06       		.uleb128 0x6
 3395 01af 40       		.uleb128 0x40
 3396 01b0 18       		.uleb128 0x18
 3397 01b1 9742     		.uleb128 0x2117
 3398 01b3 19       		.uleb128 0x19
 3399 01b4 01       		.uleb128 0x1
 3400 01b5 13       		.uleb128 0x13
 3401 01b6 00       		.byte	0
 3402 01b7 00       		.byte	0
 3403 01b8 24       		.uleb128 0x24
 3404 01b9 05       		.uleb128 0x5
 3405 01ba 00       		.byte	0
 3406 01bb 31       		.uleb128 0x31
ARM GAS  C:\Users\jo\AppData\Local\Temp\cc0xvuUV.s 			page 65


 3407 01bc 13       		.uleb128 0x13
 3408 01bd 02       		.uleb128 0x2
 3409 01be 17       		.uleb128 0x17
 3410 01bf 00       		.byte	0
 3411 01c0 00       		.byte	0
 3412 01c1 25       		.uleb128 0x25
 3413 01c2 34       		.uleb128 0x34
 3414 01c3 00       		.byte	0
 3415 01c4 31       		.uleb128 0x31
 3416 01c5 13       		.uleb128 0x13
 3417 01c6 02       		.uleb128 0x2
 3418 01c7 17       		.uleb128 0x17
 3419 01c8 00       		.byte	0
 3420 01c9 00       		.byte	0
 3421 01ca 26       		.uleb128 0x26
 3422 01cb 0B       		.uleb128 0xb
 3423 01cc 01       		.byte	0x1
 3424 01cd 55       		.uleb128 0x55
 3425 01ce 17       		.uleb128 0x17
 3426 01cf 00       		.byte	0
 3427 01d0 00       		.byte	0
 3428 01d1 27       		.uleb128 0x27
 3429 01d2 34       		.uleb128 0x34
 3430 01d3 00       		.byte	0
 3431 01d4 31       		.uleb128 0x31
 3432 01d5 13       		.uleb128 0x13
 3433 01d6 00       		.byte	0
 3434 01d7 00       		.byte	0
 3435 01d8 28       		.uleb128 0x28
 3436 01d9 2E       		.uleb128 0x2e
 3437 01da 01       		.byte	0x1
 3438 01db 3F       		.uleb128 0x3f
 3439 01dc 19       		.uleb128 0x19
 3440 01dd 03       		.uleb128 0x3
 3441 01de 0E       		.uleb128 0xe
 3442 01df 3A       		.uleb128 0x3a
 3443 01e0 0B       		.uleb128 0xb
 3444 01e1 3B       		.uleb128 0x3b
 3445 01e2 0B       		.uleb128 0xb
 3446 01e3 27       		.uleb128 0x27
 3447 01e4 19       		.uleb128 0x19
 3448 01e5 11       		.uleb128 0x11
 3449 01e6 01       		.uleb128 0x1
 3450 01e7 12       		.uleb128 0x12
 3451 01e8 06       		.uleb128 0x6
 3452 01e9 40       		.uleb128 0x40
 3453 01ea 18       		.uleb128 0x18
 3454 01eb 9742     		.uleb128 0x2117
 3455 01ed 19       		.uleb128 0x19
 3456 01ee 01       		.uleb128 0x1
 3457 01ef 13       		.uleb128 0x13
 3458 01f0 00       		.byte	0
 3459 01f1 00       		.byte	0
 3460 01f2 29       		.uleb128 0x29
 3461 01f3 05       		.uleb128 0x5
 3462 01f4 00       		.byte	0
 3463 01f5 03       		.uleb128 0x3
ARM GAS  C:\Users\jo\AppData\Local\Temp\cc0xvuUV.s 			page 66


 3464 01f6 08       		.uleb128 0x8
 3465 01f7 3A       		.uleb128 0x3a
 3466 01f8 0B       		.uleb128 0xb
 3467 01f9 3B       		.uleb128 0x3b
 3468 01fa 0B       		.uleb128 0xb
 3469 01fb 49       		.uleb128 0x49
 3470 01fc 13       		.uleb128 0x13
 3471 01fd 02       		.uleb128 0x2
 3472 01fe 17       		.uleb128 0x17
 3473 01ff 00       		.byte	0
 3474 0200 00       		.byte	0
 3475 0201 2A       		.uleb128 0x2a
 3476 0202 05       		.uleb128 0x5
 3477 0203 00       		.byte	0
 3478 0204 03       		.uleb128 0x3
 3479 0205 0E       		.uleb128 0xe
 3480 0206 3A       		.uleb128 0x3a
 3481 0207 0B       		.uleb128 0xb
 3482 0208 3B       		.uleb128 0x3b
 3483 0209 0B       		.uleb128 0xb
 3484 020a 49       		.uleb128 0x49
 3485 020b 13       		.uleb128 0x13
 3486 020c 02       		.uleb128 0x2
 3487 020d 17       		.uleb128 0x17
 3488 020e 00       		.byte	0
 3489 020f 00       		.byte	0
 3490 0210 2B       		.uleb128 0x2b
 3491 0211 34       		.uleb128 0x34
 3492 0212 00       		.byte	0
 3493 0213 03       		.uleb128 0x3
 3494 0214 0E       		.uleb128 0xe
 3495 0215 3A       		.uleb128 0x3a
 3496 0216 0B       		.uleb128 0xb
 3497 0217 3B       		.uleb128 0x3b
 3498 0218 0B       		.uleb128 0xb
 3499 0219 49       		.uleb128 0x49
 3500 021a 13       		.uleb128 0x13
 3501 021b 02       		.uleb128 0x2
 3502 021c 18       		.uleb128 0x18
 3503 021d 00       		.byte	0
 3504 021e 00       		.byte	0
 3505 021f 2C       		.uleb128 0x2c
 3506 0220 898201   		.uleb128 0x4109
 3507 0223 01       		.byte	0x1
 3508 0224 11       		.uleb128 0x11
 3509 0225 01       		.uleb128 0x1
 3510 0226 31       		.uleb128 0x31
 3511 0227 13       		.uleb128 0x13
 3512 0228 01       		.uleb128 0x1
 3513 0229 13       		.uleb128 0x13
 3514 022a 00       		.byte	0
 3515 022b 00       		.byte	0
 3516 022c 2D       		.uleb128 0x2d
 3517 022d 8A8201   		.uleb128 0x410a
 3518 0230 00       		.byte	0
 3519 0231 02       		.uleb128 0x2
 3520 0232 18       		.uleb128 0x18
ARM GAS  C:\Users\jo\AppData\Local\Temp\cc0xvuUV.s 			page 67


 3521 0233 9142     		.uleb128 0x2111
 3522 0235 18       		.uleb128 0x18
 3523 0236 00       		.byte	0
 3524 0237 00       		.byte	0
 3525 0238 2E       		.uleb128 0x2e
 3526 0239 898201   		.uleb128 0x4109
 3527 023c 01       		.byte	0x1
 3528 023d 11       		.uleb128 0x11
 3529 023e 01       		.uleb128 0x1
 3530 023f 31       		.uleb128 0x31
 3531 0240 13       		.uleb128 0x13
 3532 0241 00       		.byte	0
 3533 0242 00       		.byte	0
 3534 0243 2F       		.uleb128 0x2f
 3535 0244 898201   		.uleb128 0x4109
 3536 0247 01       		.byte	0x1
 3537 0248 11       		.uleb128 0x11
 3538 0249 01       		.uleb128 0x1
 3539 024a 9542     		.uleb128 0x2115
 3540 024c 19       		.uleb128 0x19
 3541 024d 31       		.uleb128 0x31
 3542 024e 13       		.uleb128 0x13
 3543 024f 00       		.byte	0
 3544 0250 00       		.byte	0
 3545 0251 30       		.uleb128 0x30
 3546 0252 34       		.uleb128 0x34
 3547 0253 00       		.byte	0
 3548 0254 03       		.uleb128 0x3
 3549 0255 0E       		.uleb128 0xe
 3550 0256 3A       		.uleb128 0x3a
 3551 0257 0B       		.uleb128 0xb
 3552 0258 3B       		.uleb128 0x3b
 3553 0259 0B       		.uleb128 0xb
 3554 025a 49       		.uleb128 0x49
 3555 025b 13       		.uleb128 0x13
 3556 025c 02       		.uleb128 0x2
 3557 025d 17       		.uleb128 0x17
 3558 025e 00       		.byte	0
 3559 025f 00       		.byte	0
 3560 0260 31       		.uleb128 0x31
 3561 0261 0B       		.uleb128 0xb
 3562 0262 01       		.byte	0x1
 3563 0263 11       		.uleb128 0x11
 3564 0264 01       		.uleb128 0x1
 3565 0265 12       		.uleb128 0x12
 3566 0266 06       		.uleb128 0x6
 3567 0267 01       		.uleb128 0x1
 3568 0268 13       		.uleb128 0x13
 3569 0269 00       		.byte	0
 3570 026a 00       		.byte	0
 3571 026b 32       		.uleb128 0x32
 3572 026c 898201   		.uleb128 0x4109
 3573 026f 00       		.byte	0
 3574 0270 11       		.uleb128 0x11
 3575 0271 01       		.uleb128 0x1
 3576 0272 9542     		.uleb128 0x2115
 3577 0274 19       		.uleb128 0x19
ARM GAS  C:\Users\jo\AppData\Local\Temp\cc0xvuUV.s 			page 68


 3578 0275 31       		.uleb128 0x31
 3579 0276 13       		.uleb128 0x13
 3580 0277 00       		.byte	0
 3581 0278 00       		.byte	0
 3582 0279 33       		.uleb128 0x33
 3583 027a 2E       		.uleb128 0x2e
 3584 027b 01       		.byte	0x1
 3585 027c 3F       		.uleb128 0x3f
 3586 027d 19       		.uleb128 0x19
 3587 027e 03       		.uleb128 0x3
 3588 027f 0E       		.uleb128 0xe
 3589 0280 3A       		.uleb128 0x3a
 3590 0281 0B       		.uleb128 0xb
 3591 0282 3B       		.uleb128 0x3b
 3592 0283 05       		.uleb128 0x5
 3593 0284 27       		.uleb128 0x27
 3594 0285 19       		.uleb128 0x19
 3595 0286 49       		.uleb128 0x49
 3596 0287 13       		.uleb128 0x13
 3597 0288 11       		.uleb128 0x11
 3598 0289 01       		.uleb128 0x1
 3599 028a 12       		.uleb128 0x12
 3600 028b 06       		.uleb128 0x6
 3601 028c 40       		.uleb128 0x40
 3602 028d 18       		.uleb128 0x18
 3603 028e 9742     		.uleb128 0x2117
 3604 0290 19       		.uleb128 0x19
 3605 0291 01       		.uleb128 0x1
 3606 0292 13       		.uleb128 0x13
 3607 0293 00       		.byte	0
 3608 0294 00       		.byte	0
 3609 0295 34       		.uleb128 0x34
 3610 0296 05       		.uleb128 0x5
 3611 0297 00       		.byte	0
 3612 0298 03       		.uleb128 0x3
 3613 0299 08       		.uleb128 0x8
 3614 029a 3A       		.uleb128 0x3a
 3615 029b 0B       		.uleb128 0xb
 3616 029c 3B       		.uleb128 0x3b
 3617 029d 05       		.uleb128 0x5
 3618 029e 49       		.uleb128 0x49
 3619 029f 13       		.uleb128 0x13
 3620 02a0 02       		.uleb128 0x2
 3621 02a1 17       		.uleb128 0x17
 3622 02a2 00       		.byte	0
 3623 02a3 00       		.byte	0
 3624 02a4 35       		.uleb128 0x35
 3625 02a5 05       		.uleb128 0x5
 3626 02a6 00       		.byte	0
 3627 02a7 03       		.uleb128 0x3
 3628 02a8 0E       		.uleb128 0xe
 3629 02a9 3A       		.uleb128 0x3a
 3630 02aa 0B       		.uleb128 0xb
 3631 02ab 3B       		.uleb128 0x3b
 3632 02ac 05       		.uleb128 0x5
 3633 02ad 49       		.uleb128 0x49
 3634 02ae 13       		.uleb128 0x13
ARM GAS  C:\Users\jo\AppData\Local\Temp\cc0xvuUV.s 			page 69


 3635 02af 02       		.uleb128 0x2
 3636 02b0 18       		.uleb128 0x18
 3637 02b1 00       		.byte	0
 3638 02b2 00       		.byte	0
 3639 02b3 36       		.uleb128 0x36
 3640 02b4 18       		.uleb128 0x18
 3641 02b5 00       		.byte	0
 3642 02b6 00       		.byte	0
 3643 02b7 00       		.byte	0
 3644 02b8 37       		.uleb128 0x37
 3645 02b9 34       		.uleb128 0x34
 3646 02ba 00       		.byte	0
 3647 02bb 03       		.uleb128 0x3
 3648 02bc 08       		.uleb128 0x8
 3649 02bd 3A       		.uleb128 0x3a
 3650 02be 0B       		.uleb128 0xb
 3651 02bf 3B       		.uleb128 0x3b
 3652 02c0 05       		.uleb128 0x5
 3653 02c1 49       		.uleb128 0x49
 3654 02c2 13       		.uleb128 0x13
 3655 02c3 02       		.uleb128 0x2
 3656 02c4 18       		.uleb128 0x18
 3657 02c5 00       		.byte	0
 3658 02c6 00       		.byte	0
 3659 02c7 38       		.uleb128 0x38
 3660 02c8 34       		.uleb128 0x34
 3661 02c9 00       		.byte	0
 3662 02ca 03       		.uleb128 0x3
 3663 02cb 08       		.uleb128 0x8
 3664 02cc 3A       		.uleb128 0x3a
 3665 02cd 0B       		.uleb128 0xb
 3666 02ce 3B       		.uleb128 0x3b
 3667 02cf 05       		.uleb128 0x5
 3668 02d0 49       		.uleb128 0x49
 3669 02d1 13       		.uleb128 0x13
 3670 02d2 02       		.uleb128 0x2
 3671 02d3 17       		.uleb128 0x17
 3672 02d4 00       		.byte	0
 3673 02d5 00       		.byte	0
 3674 02d6 39       		.uleb128 0x39
 3675 02d7 34       		.uleb128 0x34
 3676 02d8 00       		.byte	0
 3677 02d9 03       		.uleb128 0x3
 3678 02da 0E       		.uleb128 0xe
 3679 02db 3A       		.uleb128 0x3a
 3680 02dc 0B       		.uleb128 0xb
 3681 02dd 3B       		.uleb128 0x3b
 3682 02de 05       		.uleb128 0x5
 3683 02df 49       		.uleb128 0x49
 3684 02e0 13       		.uleb128 0x13
 3685 02e1 02       		.uleb128 0x2
 3686 02e2 18       		.uleb128 0x18
 3687 02e3 00       		.byte	0
 3688 02e4 00       		.byte	0
 3689 02e5 3A       		.uleb128 0x3a
 3690 02e6 898201   		.uleb128 0x4109
 3691 02e9 00       		.byte	0
ARM GAS  C:\Users\jo\AppData\Local\Temp\cc0xvuUV.s 			page 70


 3692 02ea 11       		.uleb128 0x11
 3693 02eb 01       		.uleb128 0x1
 3694 02ec 31       		.uleb128 0x31
 3695 02ed 13       		.uleb128 0x13
 3696 02ee 00       		.byte	0
 3697 02ef 00       		.byte	0
 3698 02f0 3B       		.uleb128 0x3b
 3699 02f1 34       		.uleb128 0x34
 3700 02f2 00       		.byte	0
 3701 02f3 03       		.uleb128 0x3
 3702 02f4 0E       		.uleb128 0xe
 3703 02f5 3A       		.uleb128 0x3a
 3704 02f6 0B       		.uleb128 0xb
 3705 02f7 3B       		.uleb128 0x3b
 3706 02f8 05       		.uleb128 0x5
 3707 02f9 49       		.uleb128 0x49
 3708 02fa 13       		.uleb128 0x13
 3709 02fb 3F       		.uleb128 0x3f
 3710 02fc 19       		.uleb128 0x19
 3711 02fd 3C       		.uleb128 0x3c
 3712 02fe 19       		.uleb128 0x19
 3713 02ff 00       		.byte	0
 3714 0300 00       		.byte	0
 3715 0301 3C       		.uleb128 0x3c
 3716 0302 34       		.uleb128 0x34
 3717 0303 00       		.byte	0
 3718 0304 03       		.uleb128 0x3
 3719 0305 08       		.uleb128 0x8
 3720 0306 3A       		.uleb128 0x3a
 3721 0307 0B       		.uleb128 0xb
 3722 0308 3B       		.uleb128 0x3b
 3723 0309 05       		.uleb128 0x5
 3724 030a 49       		.uleb128 0x49
 3725 030b 13       		.uleb128 0x13
 3726 030c 3F       		.uleb128 0x3f
 3727 030d 19       		.uleb128 0x19
 3728 030e 3C       		.uleb128 0x3c
 3729 030f 19       		.uleb128 0x19
 3730 0310 00       		.byte	0
 3731 0311 00       		.byte	0
 3732 0312 3D       		.uleb128 0x3d
 3733 0313 21       		.uleb128 0x21
 3734 0314 00       		.byte	0
 3735 0315 00       		.byte	0
 3736 0316 00       		.byte	0
 3737 0317 3E       		.uleb128 0x3e
 3738 0318 34       		.uleb128 0x34
 3739 0319 00       		.byte	0
 3740 031a 03       		.uleb128 0x3
 3741 031b 0E       		.uleb128 0xe
 3742 031c 3A       		.uleb128 0x3a
 3743 031d 0B       		.uleb128 0xb
 3744 031e 3B       		.uleb128 0x3b
 3745 031f 0B       		.uleb128 0xb
 3746 0320 49       		.uleb128 0x49
 3747 0321 13       		.uleb128 0x13
 3748 0322 3F       		.uleb128 0x3f
ARM GAS  C:\Users\jo\AppData\Local\Temp\cc0xvuUV.s 			page 71


 3749 0323 19       		.uleb128 0x19
 3750 0324 3C       		.uleb128 0x3c
 3751 0325 19       		.uleb128 0x19
 3752 0326 00       		.byte	0
 3753 0327 00       		.byte	0
 3754 0328 3F       		.uleb128 0x3f
 3755 0329 2E       		.uleb128 0x2e
 3756 032a 01       		.byte	0x1
 3757 032b 3F       		.uleb128 0x3f
 3758 032c 19       		.uleb128 0x19
 3759 032d 03       		.uleb128 0x3
 3760 032e 0E       		.uleb128 0xe
 3761 032f 3A       		.uleb128 0x3a
 3762 0330 0B       		.uleb128 0xb
 3763 0331 3B       		.uleb128 0x3b
 3764 0332 0B       		.uleb128 0xb
 3765 0333 27       		.uleb128 0x27
 3766 0334 19       		.uleb128 0x19
 3767 0335 49       		.uleb128 0x49
 3768 0336 13       		.uleb128 0x13
 3769 0337 3C       		.uleb128 0x3c
 3770 0338 19       		.uleb128 0x19
 3771 0339 01       		.uleb128 0x1
 3772 033a 13       		.uleb128 0x13
 3773 033b 00       		.byte	0
 3774 033c 00       		.byte	0
 3775 033d 40       		.uleb128 0x40
 3776 033e 2E       		.uleb128 0x2e
 3777 033f 01       		.byte	0x1
 3778 0340 3F       		.uleb128 0x3f
 3779 0341 19       		.uleb128 0x19
 3780 0342 03       		.uleb128 0x3
 3781 0343 0E       		.uleb128 0xe
 3782 0344 3A       		.uleb128 0x3a
 3783 0345 0B       		.uleb128 0xb
 3784 0346 3B       		.uleb128 0x3b
 3785 0347 0B       		.uleb128 0xb
 3786 0348 27       		.uleb128 0x27
 3787 0349 19       		.uleb128 0x19
 3788 034a 3C       		.uleb128 0x3c
 3789 034b 19       		.uleb128 0x19
 3790 034c 01       		.uleb128 0x1
 3791 034d 13       		.uleb128 0x13
 3792 034e 00       		.byte	0
 3793 034f 00       		.byte	0
 3794 0350 41       		.uleb128 0x41
 3795 0351 2E       		.uleb128 0x2e
 3796 0352 01       		.byte	0x1
 3797 0353 3F       		.uleb128 0x3f
 3798 0354 19       		.uleb128 0x19
 3799 0355 03       		.uleb128 0x3
 3800 0356 0E       		.uleb128 0xe
 3801 0357 3A       		.uleb128 0x3a
 3802 0358 0B       		.uleb128 0xb
 3803 0359 3B       		.uleb128 0x3b
 3804 035a 0B       		.uleb128 0xb
 3805 035b 27       		.uleb128 0x27
ARM GAS  C:\Users\jo\AppData\Local\Temp\cc0xvuUV.s 			page 72


 3806 035c 19       		.uleb128 0x19
 3807 035d 49       		.uleb128 0x49
 3808 035e 13       		.uleb128 0x13
 3809 035f 3C       		.uleb128 0x3c
 3810 0360 19       		.uleb128 0x19
 3811 0361 00       		.byte	0
 3812 0362 00       		.byte	0
 3813 0363 00       		.byte	0
 3814              		.section	.debug_loc,"",%progbits
 3815              	.Ldebug_loc0:
 3816              	.LLST0:
 3817 0000 00000000 		.4byte	.LVL0
 3818 0004 0A000000 		.4byte	.LVL1
 3819 0008 0100     		.2byte	0x1
 3820 000a 50       		.byte	0x50
 3821 000b 0A000000 		.4byte	.LVL1
 3822 000f 4C000000 		.4byte	.LFE260
 3823 0013 0100     		.2byte	0x1
 3824 0015 51       		.byte	0x51
 3825 0016 00000000 		.4byte	0
 3826 001a 00000000 		.4byte	0
 3827              	.LLST1:
 3828 001e 00000000 		.4byte	.LVL0
 3829 0022 22000000 		.4byte	.LVL4
 3830 0026 0200     		.2byte	0x2
 3831 0028 30       		.byte	0x30
 3832 0029 9F       		.byte	0x9f
 3833 002a 32000000 		.4byte	.LVL6
 3834 002e 36000000 		.4byte	.LVL7
 3835 0032 0200     		.2byte	0x2
 3836 0034 30       		.byte	0x30
 3837 0035 9F       		.byte	0x9f
 3838 0036 36000000 		.4byte	.LVL7
 3839 003a 4C000000 		.4byte	.LFE260
 3840 003e 0100     		.2byte	0x1
 3841 0040 50       		.byte	0x50
 3842 0041 00000000 		.4byte	0
 3843 0045 00000000 		.4byte	0
 3844              	.LLST2:
 3845 0049 00000000 		.4byte	.LVL0
 3846 004d 0A000000 		.4byte	.LVL1
 3847 0051 0200     		.2byte	0x2
 3848 0053 30       		.byte	0x30
 3849 0054 9F       		.byte	0x9f
 3850 0055 0A000000 		.4byte	.LVL1
 3851 0059 0E000000 		.4byte	.LVL2
 3852 005d 0300     		.2byte	0x3
 3853 005f 73       		.byte	0x73
 3854 0060 7F       		.sleb128 -1
 3855 0061 9F       		.byte	0x9f
 3856 0062 0E000000 		.4byte	.LVL2
 3857 0066 1E000000 		.4byte	.LVL3
 3858 006a 0100     		.2byte	0x1
 3859 006c 53       		.byte	0x53
 3860 006d 1E000000 		.4byte	.LVL3
 3861 0071 24000000 		.4byte	.LVL5
 3862 0075 0300     		.2byte	0x3
ARM GAS  C:\Users\jo\AppData\Local\Temp\cc0xvuUV.s 			page 73


 3863 0077 73       		.byte	0x73
 3864 0078 7F       		.sleb128 -1
 3865 0079 9F       		.byte	0x9f
 3866 007a 32000000 		.4byte	.LVL6
 3867 007e 4C000000 		.4byte	.LFE260
 3868 0082 0300     		.2byte	0x3
 3869 0084 73       		.byte	0x73
 3870 0085 7F       		.sleb128 -1
 3871 0086 9F       		.byte	0x9f
 3872 0087 00000000 		.4byte	0
 3873 008b 00000000 		.4byte	0
 3874              	.LLST3:
 3875 008f 22000000 		.4byte	.LVL4
 3876 0093 32000000 		.4byte	.LVL6
 3877 0097 0100     		.2byte	0x1
 3878 0099 51       		.byte	0x51
 3879 009a 00000000 		.4byte	0
 3880 009e 00000000 		.4byte	0
 3881              	.LLST4:
 3882 00a2 00000000 		.4byte	.LVL8
 3883 00a6 08000000 		.4byte	.LVL9
 3884 00aa 0100     		.2byte	0x1
 3885 00ac 50       		.byte	0x50
 3886 00ad 08000000 		.4byte	.LVL9
 3887 00b1 24000000 		.4byte	.LVL12
 3888 00b5 0100     		.2byte	0x1
 3889 00b7 55       		.byte	0x55
 3890 00b8 24000000 		.4byte	.LVL12
 3891 00bc 28000000 		.4byte	.LFE261
 3892 00c0 0400     		.2byte	0x4
 3893 00c2 F3       		.byte	0xf3
 3894 00c3 01       		.uleb128 0x1
 3895 00c4 50       		.byte	0x50
 3896 00c5 9F       		.byte	0x9f
 3897 00c6 00000000 		.4byte	0
 3898 00ca 00000000 		.4byte	0
 3899              	.LLST5:
 3900 00ce 00000000 		.4byte	.LVL8
 3901 00d2 0D000000 		.4byte	.LVL10-1
 3902 00d6 0100     		.2byte	0x1
 3903 00d8 51       		.byte	0x51
 3904 00d9 0D000000 		.4byte	.LVL10-1
 3905 00dd 24000000 		.4byte	.LVL12
 3906 00e1 0100     		.2byte	0x1
 3907 00e3 54       		.byte	0x54
 3908 00e4 24000000 		.4byte	.LVL12
 3909 00e8 28000000 		.4byte	.LFE261
 3910 00ec 0400     		.2byte	0x4
 3911 00ee F3       		.byte	0xf3
 3912 00ef 01       		.uleb128 0x1
 3913 00f0 51       		.byte	0x51
 3914 00f1 9F       		.byte	0x9f
 3915 00f2 00000000 		.4byte	0
 3916 00f6 00000000 		.4byte	0
 3917              	.LLST6:
 3918 00fa 00000000 		.4byte	.LVL13
 3919 00fe 0E000000 		.4byte	.LVL14
ARM GAS  C:\Users\jo\AppData\Local\Temp\cc0xvuUV.s 			page 74


 3920 0102 0100     		.2byte	0x1
 3921 0104 50       		.byte	0x50
 3922 0105 0E000000 		.4byte	.LVL14
 3923 0109 48000000 		.4byte	.LVL21
 3924 010d 0100     		.2byte	0x1
 3925 010f 54       		.byte	0x54
 3926 0110 48000000 		.4byte	.LVL21
 3927 0114 68000000 		.4byte	.LFE262
 3928 0118 0400     		.2byte	0x4
 3929 011a F3       		.byte	0xf3
 3930 011b 01       		.uleb128 0x1
 3931 011c 50       		.byte	0x50
 3932 011d 9F       		.byte	0x9f
 3933 011e 00000000 		.4byte	0
 3934 0122 00000000 		.4byte	0
 3935              	.LLST7:
 3936 0126 00000000 		.4byte	.LVL13
 3937 012a 20000000 		.4byte	.LVL17
 3938 012e 0100     		.2byte	0x1
 3939 0130 51       		.byte	0x51
 3940 0131 20000000 		.4byte	.LVL17
 3941 0135 25000000 		.4byte	.LVL18-1
 3942 0139 0100     		.2byte	0x1
 3943 013b 53       		.byte	0x53
 3944 013c 25000000 		.4byte	.LVL18-1
 3945 0140 68000000 		.4byte	.LFE262
 3946 0144 0400     		.2byte	0x4
 3947 0146 F3       		.byte	0xf3
 3948 0147 01       		.uleb128 0x1
 3949 0148 51       		.byte	0x51
 3950 0149 9F       		.byte	0x9f
 3951 014a 00000000 		.4byte	0
 3952 014e 00000000 		.4byte	0
 3953              	.LLST8:
 3954 0152 00000000 		.4byte	.LVL13
 3955 0156 16000000 		.4byte	.LVL15
 3956 015a 0100     		.2byte	0x1
 3957 015c 52       		.byte	0x52
 3958 015d 16000000 		.4byte	.LVL15
 3959 0161 25000000 		.4byte	.LVL18-1
 3960 0165 0200     		.2byte	0x2
 3961 0167 91       		.byte	0x91
 3962 0168 5C       		.sleb128 -36
 3963 0169 25000000 		.4byte	.LVL18-1
 3964 016d 68000000 		.4byte	.LFE262
 3965 0171 0400     		.2byte	0x4
 3966 0173 F3       		.byte	0xf3
 3967 0174 01       		.uleb128 0x1
 3968 0175 52       		.byte	0x52
 3969 0176 9F       		.byte	0x9f
 3970 0177 00000000 		.4byte	0
 3971 017b 00000000 		.4byte	0
 3972              	.LLST9:
 3973 017f 00000000 		.4byte	.LVL13
 3974 0183 18000000 		.4byte	.LVL16
 3975 0187 0100     		.2byte	0x1
 3976 0189 53       		.byte	0x53
ARM GAS  C:\Users\jo\AppData\Local\Temp\cc0xvuUV.s 			page 75


 3977 018a 18000000 		.4byte	.LVL16
 3978 018e 48000000 		.4byte	.LVL21
 3979 0192 0100     		.2byte	0x1
 3980 0194 55       		.byte	0x55
 3981 0195 48000000 		.4byte	.LVL21
 3982 0199 68000000 		.4byte	.LFE262
 3983 019d 0400     		.2byte	0x4
 3984 019f F3       		.byte	0xf3
 3985 01a0 01       		.uleb128 0x1
 3986 01a1 53       		.byte	0x53
 3987 01a2 9F       		.byte	0x9f
 3988 01a3 00000000 		.4byte	0
 3989 01a7 00000000 		.4byte	0
 3990              	.LLST10:
 3991 01ab 00000000 		.4byte	.LVL23
 3992 01af 08000000 		.4byte	.LVL24
 3993 01b3 0100     		.2byte	0x1
 3994 01b5 50       		.byte	0x50
 3995 01b6 08000000 		.4byte	.LVL24
 3996 01ba 4E000000 		.4byte	.LVL32
 3997 01be 0100     		.2byte	0x1
 3998 01c0 55       		.byte	0x55
 3999 01c1 4E000000 		.4byte	.LVL32
 4000 01c5 52000000 		.4byte	.LVL33
 4001 01c9 0400     		.2byte	0x4
 4002 01cb F3       		.byte	0xf3
 4003 01cc 01       		.uleb128 0x1
 4004 01cd 50       		.byte	0x50
 4005 01ce 9F       		.byte	0x9f
 4006 01cf 52000000 		.4byte	.LVL33
 4007 01d3 70000000 		.4byte	.LFE263
 4008 01d7 0100     		.2byte	0x1
 4009 01d9 55       		.byte	0x55
 4010 01da 00000000 		.4byte	0
 4011 01de 00000000 		.4byte	0
 4012              	.LLST11:
 4013 01e2 00000000 		.4byte	.LVL23
 4014 01e6 0D000000 		.4byte	.LVL25-1
 4015 01ea 0100     		.2byte	0x1
 4016 01ec 51       		.byte	0x51
 4017 01ed 0D000000 		.4byte	.LVL25-1
 4018 01f1 4E000000 		.4byte	.LVL32
 4019 01f5 0100     		.2byte	0x1
 4020 01f7 54       		.byte	0x54
 4021 01f8 4E000000 		.4byte	.LVL32
 4022 01fc 52000000 		.4byte	.LVL33
 4023 0200 0400     		.2byte	0x4
 4024 0202 F3       		.byte	0xf3
 4025 0203 01       		.uleb128 0x1
 4026 0204 51       		.byte	0x51
 4027 0205 9F       		.byte	0x9f
 4028 0206 52000000 		.4byte	.LVL33
 4029 020a 70000000 		.4byte	.LFE263
 4030 020e 0100     		.2byte	0x1
 4031 0210 54       		.byte	0x54
 4032 0211 00000000 		.4byte	0
 4033 0215 00000000 		.4byte	0
ARM GAS  C:\Users\jo\AppData\Local\Temp\cc0xvuUV.s 			page 76


 4034              	.LLST12:
 4035 0219 12000000 		.4byte	.LVL26
 4036 021d 14000000 		.4byte	.LVL27
 4037 0221 0100     		.2byte	0x1
 4038 0223 50       		.byte	0x50
 4039 0224 14000000 		.4byte	.LVL27
 4040 0228 4E000000 		.4byte	.LVL32
 4041 022c 0100     		.2byte	0x1
 4042 022e 56       		.byte	0x56
 4043 022f 52000000 		.4byte	.LVL33
 4044 0233 70000000 		.4byte	.LFE263
 4045 0237 0100     		.2byte	0x1
 4046 0239 56       		.byte	0x56
 4047 023a 00000000 		.4byte	0
 4048 023e 00000000 		.4byte	0
 4049              	.LLST13:
 4050 0242 00000000 		.4byte	.LVL35
 4051 0246 1C000000 		.4byte	.LVL37
 4052 024a 0100     		.2byte	0x1
 4053 024c 50       		.byte	0x50
 4054 024d 1C000000 		.4byte	.LVL37
 4055 0251 AC000000 		.4byte	.LVL55
 4056 0255 0100     		.2byte	0x1
 4057 0257 57       		.byte	0x57
 4058 0258 AC000000 		.4byte	.LVL55
 4059 025c B0000000 		.4byte	.LVL56
 4060 0260 0400     		.2byte	0x4
 4061 0262 F3       		.byte	0xf3
 4062 0263 01       		.uleb128 0x1
 4063 0264 50       		.byte	0x50
 4064 0265 9F       		.byte	0x9f
 4065 0266 B0000000 		.4byte	.LVL56
 4066 026a B2000000 		.4byte	.LVL57
 4067 026e 0100     		.2byte	0x1
 4068 0270 50       		.byte	0x50
 4069 0271 B2000000 		.4byte	.LVL57
 4070 0275 CC000000 		.4byte	.LFE264
 4071 0279 0100     		.2byte	0x1
 4072 027b 57       		.byte	0x57
 4073 027c 00000000 		.4byte	0
 4074 0280 00000000 		.4byte	0
 4075              	.LLST14:
 4076 0284 00000000 		.4byte	.LVL35
 4077 0288 1C000000 		.4byte	.LVL37
 4078 028c 0200     		.2byte	0x2
 4079 028e 30       		.byte	0x30
 4080 028f 9F       		.byte	0x9f
 4081 0290 1C000000 		.4byte	.LVL37
 4082 0294 32000000 		.4byte	.LVL40
 4083 0298 0100     		.2byte	0x1
 4084 029a 56       		.byte	0x56
 4085 029b B0000000 		.4byte	.LVL56
 4086 029f CC000000 		.4byte	.LFE264
 4087 02a3 0200     		.2byte	0x2
 4088 02a5 30       		.byte	0x30
 4089 02a6 9F       		.byte	0x9f
 4090 02a7 00000000 		.4byte	0
ARM GAS  C:\Users\jo\AppData\Local\Temp\cc0xvuUV.s 			page 77


 4091 02ab 00000000 		.4byte	0
 4092              	.LLST15:
 4093 02af 0C000000 		.4byte	.LVL36
 4094 02b3 23000000 		.4byte	.LVL38-1
 4095 02b7 0100     		.2byte	0x1
 4096 02b9 53       		.byte	0x53
 4097 02ba 2C000000 		.4byte	.LVL39
 4098 02be 35000000 		.4byte	.LVL41-1
 4099 02c2 0100     		.2byte	0x1
 4100 02c4 53       		.byte	0x53
 4101 02c5 4A000000 		.4byte	.LVL45
 4102 02c9 5B000000 		.4byte	.LVL46-1
 4103 02cd 0100     		.2byte	0x1
 4104 02cf 51       		.byte	0x51
 4105 02d0 60000000 		.4byte	.LVL47
 4106 02d4 6E000000 		.4byte	.LVL48
 4107 02d8 0100     		.2byte	0x1
 4108 02da 51       		.byte	0x51
 4109 02db B0000000 		.4byte	.LVL56
 4110 02df CC000000 		.4byte	.LFE264
 4111 02e3 0100     		.2byte	0x1
 4112 02e5 53       		.byte	0x53
 4113 02e6 00000000 		.4byte	0
 4114 02ea 00000000 		.4byte	0
 4115              	.LLST16:
 4116 02ee 36000000 		.4byte	.LVL41
 4117 02f2 40000000 		.4byte	.LVL42
 4118 02f6 0100     		.2byte	0x1
 4119 02f8 50       		.byte	0x50
 4120 02f9 40000000 		.4byte	.LVL42
 4121 02fd AC000000 		.4byte	.LVL55
 4122 0301 0100     		.2byte	0x1
 4123 0303 56       		.byte	0x56
 4124 0304 00000000 		.4byte	0
 4125 0308 00000000 		.4byte	0
 4126              	.LLST17:
 4127 030c 44000000 		.4byte	.LVL43
 4128 0310 A4000000 		.4byte	.LVL54
 4129 0314 0100     		.2byte	0x1
 4130 0316 58       		.byte	0x58
 4131 0317 00000000 		.4byte	0
 4132 031b 00000000 		.4byte	0
 4133              		.section	.debug_aranges,"",%progbits
 4134 0000 3C000000 		.4byte	0x3c
 4135 0004 0200     		.2byte	0x2
 4136 0006 00000000 		.4byte	.Ldebug_info0
 4137 000a 04       		.byte	0x4
 4138 000b 00       		.byte	0
 4139 000c 0000     		.2byte	0
 4140 000e 0000     		.2byte	0
 4141 0010 00000000 		.4byte	.LFB260
 4142 0014 4C000000 		.4byte	.LFE260-.LFB260
 4143 0018 00000000 		.4byte	.LFB261
 4144 001c 28000000 		.4byte	.LFE261-.LFB261
 4145 0020 00000000 		.4byte	.LFB262
 4146 0024 68000000 		.4byte	.LFE262-.LFB262
 4147 0028 00000000 		.4byte	.LFB263
ARM GAS  C:\Users\jo\AppData\Local\Temp\cc0xvuUV.s 			page 78


 4148 002c 70000000 		.4byte	.LFE263-.LFB263
 4149 0030 00000000 		.4byte	.LFB264
 4150 0034 CC000000 		.4byte	.LFE264-.LFB264
 4151 0038 00000000 		.4byte	0
 4152 003c 00000000 		.4byte	0
 4153              		.section	.debug_ranges,"",%progbits
 4154              	.Ldebug_ranges0:
 4155 0000 22000000 		.4byte	.LBB7
 4156 0004 26000000 		.4byte	.LBE7
 4157 0008 28000000 		.4byte	.LBB12
 4158 000c 30000000 		.4byte	.LBE12
 4159 0010 00000000 		.4byte	0
 4160 0014 00000000 		.4byte	0
 4161 0018 00000000 		.4byte	.LFB260
 4162 001c 4C000000 		.4byte	.LFE260
 4163 0020 00000000 		.4byte	.LFB261
 4164 0024 28000000 		.4byte	.LFE261
 4165 0028 00000000 		.4byte	.LFB262
 4166 002c 68000000 		.4byte	.LFE262
 4167 0030 00000000 		.4byte	.LFB263
 4168 0034 70000000 		.4byte	.LFE263
 4169 0038 00000000 		.4byte	.LFB264
 4170 003c CC000000 		.4byte	.LFE264
 4171 0040 00000000 		.4byte	0
 4172 0044 00000000 		.4byte	0
 4173              		.section	.debug_line,"",%progbits
 4174              	.Ldebug_line0:
 4175 0000 45040000 		.section	.debug_str,"MS",%progbits,1
 4175      02008703 
 4175      00000201 
 4175      FB0E0D00 
 4175      01010101 
 4176              	.LASF97:
 4177 0000 74625F70 		.ascii	"tb_ptr\000"
 4177      747200
 4178              	.LASF56:
 4179 0007 72656164 		.ascii	"ready_list_t\000"
 4179      795F6C69 
 4179      73745F74 
 4179      00
 4180              	.LASF91:
 4181 0014 73655F74 		.ascii	"se_time\000"
 4181      696D6500 
 4182              	.LASF2:
 4183 001c 73697A65 		.ascii	"size_t\000"
 4183      5F7400
 4184              	.LASF146:
 4185 0023 7265715F 		.ascii	"req_version\000"
 4185      76657273 
 4185      696F6E00 
 4186              	.LASF158:
 4187 002f 7265715F 		.ascii	"req_referer\000"
 4187      72656665 
 4187      72657200 
 4188              	.LASF102:
 4189 003b 7264796D 		.ascii	"rdymsg\000"
 4189      736700
ARM GAS  C:\Users\jo\AppData\Local\Temp\cc0xvuUV.s 			page 79


 4190              	.LASF167:
 4191 0042 48545450 		.ascii	"HTTP_RESPONSE_STATUS\000"
 4191      5F524553 
 4191      504F4E53 
 4191      455F5354 
 4191      41545553 
 4192              	.LASF147:
 4193 0057 7265715F 		.ascii	"req_query\000"
 4193      71756572 
 4193      7900
 4194              	.LASF172:
 4195 0061 6F6B5F74 		.ascii	"ok_txt\000"
 4195      787400
 4196              	.LASF187:
 4197 0068 63745F43 		.ascii	"ct_Content_Type\000"
 4197      6F6E7465 
 4197      6E745F54 
 4197      79706500 
 4198              	.LASF3:
 4199 0078 5F5F7569 		.ascii	"__uint8_t\000"
 4199      6E74385F 
 4199      7400
 4200              	.LASF90:
 4201 0082 706F7274 		.ascii	"port_intctx\000"
 4201      5F696E74 
 4201      63747800 
 4202              	.LASF121:
 4203 008e 76615F6C 		.ascii	"va_list\000"
 4203      69737400 
 4204              	.LASF75:
 4205 0096 73797374 		.ascii	"system_debug_t\000"
 4205      656D5F64 
 4205      65627567 
 4205      5F7400
 4206              	.LASF189:
 4207 00a5 63745F4C 		.ascii	"ct_Location\000"
 4207      6F636174 
 4207      696F6E00 
 4208              	.LASF176:
 4209 00b1 74797065 		.ascii	"type\000"
 4209      00
 4210              	.LASF155:
 4211 00b6 7265715F 		.ascii	"req_cookie\000"
 4211      636F6F6B 
 4211      696500
 4212              	.LASF14:
 4213 00c1 6C6F6E67 		.ascii	"long long unsigned int\000"
 4213      206C6F6E 
 4213      6720756E 
 4213      7369676E 
 4213      65642069 
 4214              	.LASF200:
 4215 00d8 2E2E2F2E 		.ascii	"../../../demos/STM32/RT-STM32F407-DISCOVERY-uHttp/u"
 4215      2E2F2E2E 
 4215      2F64656D 
 4215      6F732F53 
 4215      544D3332 
ARM GAS  C:\Users\jo\AppData\Local\Temp\cc0xvuUV.s 			page 80


 4216 010b 68747470 		.ascii	"http-1.1/responses.c\000"
 4216      2D312E31 
 4216      2F726573 
 4216      706F6E73 
 4216      65732E63 
 4217              	.LASF94:
 4218 0120 73655F73 		.ascii	"se_state\000"
 4218      74617465 
 4218      00
 4219              	.LASF103:
 4220 0129 65786974 		.ascii	"exitcode\000"
 4220      636F6465 
 4220      00
 4221              	.LASF85:
 4222 0132 6D61696E 		.ascii	"mainthread\000"
 4222      74687265 
 4222      616400
 4223              	.LASF72:
 4224 013d 76697274 		.ascii	"virtual_timers_list_t\000"
 4224      75616C5F 
 4224      74696D65 
 4224      72735F6C 
 4224      6973745F 
 4225              	.LASF186:
 4226 0153 49544D5F 		.ascii	"ITM_RxBuffer\000"
 4226      52784275 
 4226      66666572 
 4226      00
 4227              	.LASF197:
 4228 0160 66726565 		.ascii	"free\000"
 4228      00
 4229              	.LASF55:
 4230 0165 63685F74 		.ascii	"ch_threads_queue\000"
 4230      68726561 
 4230      64735F71 
 4230      75657565 
 4230      00
 4231              	.LASF34:
 4232 0176 705F7072 		.ascii	"p_prio\000"
 4232      696F00
 4233              	.LASF201:
 4234 017d 433A5C55 		.ascii	"C:\\Users\\jo\\Documents\\GitHub\\ChibiOS\\demos\\S"
 4234      73657273 
 4234      5C6A6F5C 
 4234      446F6375 
 4234      6D656E74 
 4235 01a9 544D3332 		.ascii	"TM32\\RT-STM32F407-DISCOVERY-uHttp\000"
 4235      5C52542D 
 4235      53544D33 
 4235      32463430 
 4235      372D4449 
 4236              	.LASF162:
 4237 01cb 7265715F 		.ascii	"req_bnd_type\000"
 4237      626E645F 
 4237      74797065 
 4237      00
 4238              	.LASF12:
ARM GAS  C:\Users\jo\AppData\Local\Temp\cc0xvuUV.s 			page 81


 4239 01d8 6C6F6E67 		.ascii	"long long int\000"
 4239      206C6F6E 
 4239      6720696E 
 4239      7400
 4240              	.LASF1:
 4241 01e6 7369676E 		.ascii	"signed char\000"
 4241      65642063 
 4241      68617200 
 4242              	.LASF173:
 4243 01f2 73746174 		.ascii	"status\000"
 4243      757300
 4244              	.LASF149:
 4245 01f9 7265715F 		.ascii	"req_argn\000"
 4245      6172676E 
 4245      00
 4246              	.LASF49:
 4247 0202 705F6D70 		.ascii	"p_mpool\000"
 4247      6F6F6C00 
 4248              	.LASF148:
 4249 020a 7265715F 		.ascii	"req_argp\000"
 4249      61726770 
 4249      00
 4250              	.LASF113:
 4251 0213 6D5F7175 		.ascii	"m_queue\000"
 4251      65756500 
 4252              	.LASF151:
 4253 021b 7265715F 		.ascii	"req_connection\000"
 4253      636F6E6E 
 4253      65637469 
 4253      6F6E00
 4254              	.LASF150:
 4255 022a 7265715F 		.ascii	"req_argv\000"
 4255      61726776 
 4255      00
 4256              	.LASF195:
 4257 0233 735F666C 		.ascii	"s_flush\000"
 4257      75736800 
 4258              	.LASF181:
 4259 023b 626F6479 		.ascii	"body\000"
 4259      00
 4260              	.LASF105:
 4261 0240 77747472 		.ascii	"wttrp\000"
 4261      7000
 4262              	.LASF157:
 4263 0246 7265715F 		.ascii	"req_agent\000"
 4263      6167656E 
 4263      7400
 4264              	.LASF9:
 4265 0250 6C6F6E67 		.ascii	"long int\000"
 4265      20696E74 
 4265      00
 4266              	.LASF163:
 4267 0259 48545450 		.ascii	"HTTPD_SESSION\000"
 4267      445F5345 
 4267      5353494F 
 4267      4E00
 4268              	.LASF24:
ARM GAS  C:\Users\jo\AppData\Local\Temp\cc0xvuUV.s 			page 82


 4269 0267 74737461 		.ascii	"tstate_t\000"
 4269      74655F74 
 4269      00
 4270              	.LASF170:
 4271 0270 72735F74 		.ascii	"rs_text\000"
 4271      65787400 
 4272              	.LASF119:
 4273 0278 5F5F7661 		.ascii	"__va_list\000"
 4273      5F6C6973 
 4273      7400
 4274              	.LASF82:
 4275 0282 63685F73 		.ascii	"ch_system\000"
 4275      79737465 
 4275      6D00
 4276              	.LASF145:
 4277 028c 7265715F 		.ascii	"req_url\000"
 4277      75726C00 
 4278              	.LASF92:
 4279 0294 73655F74 		.ascii	"se_tp\000"
 4279      7000
 4280              	.LASF18:
 4281 029a 75696E74 		.ascii	"uint16_t\000"
 4281      31365F74 
 4281      00
 4282              	.LASF180:
 4283 02a3 666D745F 		.ascii	"fmt_P\000"
 4283      5000
 4284              	.LASF36:
 4285 02a9 705F6E65 		.ascii	"p_newer\000"
 4285      77657200 
 4286              	.LASF110:
 4287 02b1 735F7175 		.ascii	"s_queue\000"
 4287      65756500 
 4288              	.LASF96:
 4289 02b9 74625F73 		.ascii	"tb_size\000"
 4289      697A6500 
 4290              	.LASF61:
 4291 02c1 725F6E65 		.ascii	"r_newer\000"
 4291      77657200 
 4292              	.LASF87:
 4293 02c9 72656761 		.ascii	"regarm_t\000"
 4293      726D5F74 
 4293      00
 4294              	.LASF68:
 4295 02d2 76745F70 		.ascii	"vt_prev\000"
 4295      72657600 
 4296              	.LASF100:
 4297 02da 6F666673 		.ascii	"offset\000"
 4297      657400
 4298              	.LASF175:
 4299 02e1 48747470 		.ascii	"HttpSendHeaderBottom\000"
 4299      53656E64 
 4299      48656164 
 4299      6572426F 
 4299      74746F6D 
 4300              	.LASF132:
 4301 02f6 73696E5F 		.ascii	"sin_zero\000"
ARM GAS  C:\Users\jo\AppData\Local\Temp\cc0xvuUV.s 			page 83


 4301      7A65726F 
 4301      00
 4302              	.LASF83:
 4303 02ff 726C6973 		.ascii	"rlist\000"
 4303      7400
 4304              	.LASF116:
 4305 0305 6D757465 		.ascii	"mutex_t\000"
 4305      785F7400 
 4306              	.LASF79:
 4307 030d 6C6F636B 		.ascii	"lock_cnt\000"
 4307      5F636E74 
 4307      00
 4308              	.LASF168:
 4309 0316 5F485454 		.ascii	"_HTTP_RESPONSE_STATUS\000"
 4309      505F5245 
 4309      53504F4E 
 4309      53455F53 
 4309      54415455 
 4310              	.LASF156:
 4311 032c 7265715F 		.ascii	"req_auth\000"
 4311      61757468 
 4311      00
 4312              	.LASF29:
 4313 0335 636E745F 		.ascii	"cnt_t\000"
 4313      7400
 4314              	.LASF138:
 4315 033b 7374726D 		.ascii	"strm_csock\000"
 4315      5F63736F 
 4315      636B00
 4316              	.LASF0:
 4317 0346 756E7369 		.ascii	"unsigned int\000"
 4317      676E6564 
 4317      20696E74 
 4317      00
 4318              	.LASF126:
 4319 0353 735F6164 		.ascii	"s_addr\000"
 4319      647200
 4320              	.LASF67:
 4321 035a 76745F6E 		.ascii	"vt_next\000"
 4321      65787400 
 4322              	.LASF194:
 4323 0362 7374726C 		.ascii	"strlen\000"
 4323      656E00
 4324              	.LASF106:
 4325 0369 77747365 		.ascii	"wtsemp\000"
 4325      6D7000
 4326              	.LASF153:
 4327 0370 7265715F 		.ascii	"req_realm\000"
 4327      7265616C 
 4327      6D00
 4328              	.LASF44:
 4329 037a 705F6D73 		.ascii	"p_msgqueue\000"
 4329      67717565 
 4329      756500
 4330              	.LASF124:
 4331 0385 7533325F 		.ascii	"u32_t\000"
 4331      7400
ARM GAS  C:\Users\jo\AppData\Local\Temp\cc0xvuUV.s 			page 84


 4332              	.LASF111:
 4333 038b 735F636E 		.ascii	"s_cnt\000"
 4333      7400
 4334              	.LASF140:
 4335 0391 7374726D 		.ascii	"strm_caddr\000"
 4335      5F636164 
 4335      647200
 4336              	.LASF7:
 4337 039c 73686F72 		.ascii	"short unsigned int\000"
 4337      7420756E 
 4337      7369676E 
 4337      65642069 
 4337      6E7400
 4338              	.LASF131:
 4339 03af 73696E5F 		.ascii	"sin_addr\000"
 4339      61646472 
 4339      00
 4340              	.LASF52:
 4341 03b8 63685F74 		.ascii	"ch_thread\000"
 4341      68726561 
 4341      6400
 4342              	.LASF84:
 4343 03c2 76746C69 		.ascii	"vtlist\000"
 4343      737400
 4344              	.LASF152:
 4345 03c9 7265715F 		.ascii	"req_length\000"
 4345      6C656E67 
 4345      746800
 4346              	.LASF27:
 4347 03d4 6D73675F 		.ascii	"msg_t\000"
 4347      7400
 4348              	.LASF81:
 4349 03da 63685F73 		.ascii	"ch_system_t\000"
 4349      79737465 
 4349      6D5F7400 
 4350              	.LASF98:
 4351 03e6 74625F62 		.ascii	"tb_buffer\000"
 4351      75666665 
 4351      7200
 4352              	.LASF141:
 4353 03f0 48545450 		.ascii	"HTTP_STREAM\000"
 4353      5F535452 
 4353      45414D00 
 4354              	.LASF57:
 4355 03fc 63685F72 		.ascii	"ch_ready_list\000"
 4355      65616479 
 4355      5F6C6973 
 4355      7400
 4356              	.LASF28:
 4357 040a 6576656E 		.ascii	"eventmask_t\000"
 4357      746D6173 
 4357      6B5F7400 
 4358              	.LASF196:
 4359 0416 73747263 		.ascii	"strcat\000"
 4359      617400
 4360              	.LASF8:
 4361 041d 5F5F696E 		.ascii	"__int32_t\000"
ARM GAS  C:\Users\jo\AppData\Local\Temp\cc0xvuUV.s 			page 85


 4361      7433325F 
 4361      7400
 4362              	.LASF177:
 4363 0427 73756274 		.ascii	"subtype\000"
 4363      79706500 
 4364              	.LASF199:
 4365 042f 474E5520 		.ascii	"GNU C 4.9.3 20141119 (release) [ARM/embedded-4_9-br"
 4365      4320342E 
 4365      392E3320 
 4365      32303134 
 4365      31313139 
 4366 0462 616E6368 		.ascii	"anch revision 218278] -mcpu=cortex-m4 -mno-thumb-in"
 4366      20726576 
 4366      6973696F 
 4366      6E203231 
 4366      38323738 
 4367 0495 74657277 		.ascii	"terwork -mthumb -ggdb -O2 -fomit-frame-pointer -fal"
 4367      6F726B20 
 4367      2D6D7468 
 4367      756D6220 
 4367      2D676764 
 4368 04c8 69676E2D 		.ascii	"ign-functions=16 -ffunction-sections -fdata-section"
 4368      66756E63 
 4368      74696F6E 
 4368      733D3136 
 4368      202D6666 
 4369 04fb 73202D66 		.ascii	"s -fno-common\000"
 4369      6E6F2D63 
 4369      6F6D6D6F 
 4369      6E00
 4370              	.LASF88:
 4371 0509 73746B61 		.ascii	"stkalign_t\000"
 4371      6C69676E 
 4371      5F7400
 4372              	.LASF166:
 4373 0514 735F7265 		.ascii	"s_req\000"
 4373      7100
 4374              	.LASF129:
 4375 051a 73696E5F 		.ascii	"sin_family\000"
 4375      66616D69 
 4375      6C7900
 4376              	.LASF43:
 4377 0525 705F7761 		.ascii	"p_waiting\000"
 4377      6974696E 
 4377      6700
 4378              	.LASF122:
 4379 052f 75385F74 		.ascii	"u8_t\000"
 4379      00
 4380              	.LASF15:
 4381 0534 73697A65 		.ascii	"sizetype\000"
 4381      74797065 
 4381      00
 4382              	.LASF50:
 4383 053d 74687265 		.ascii	"thread_reference_t\000"
 4383      61645F72 
 4383      65666572 
 4383      656E6365 
ARM GAS  C:\Users\jo\AppData\Local\Temp\cc0xvuUV.s 			page 86


 4383      5F7400
 4384              	.LASF73:
 4385 0550 63685F76 		.ascii	"ch_virtual_timers_list\000"
 4385      69727475 
 4385      616C5F74 
 4385      696D6572 
 4385      735F6C69 
 4386              	.LASF159:
 4387 0567 7265715F 		.ascii	"req_host\000"
 4387      686F7374 
 4387      00
 4388              	.LASF118:
 4389 0570 5F5F676E 		.ascii	"__gnuc_va_list\000"
 4389      75635F76 
 4389      615F6C69 
 4389      737400
 4390              	.LASF95:
 4391 057f 63685F73 		.ascii	"ch_swc_event_t\000"
 4391      77635F65 
 4391      76656E74 
 4391      5F7400
 4392              	.LASF74:
 4393 058e 76745F6C 		.ascii	"vt_lasttime\000"
 4393      61737474 
 4393      696D6500 
 4394              	.LASF21:
 4395 059a 75696E74 		.ascii	"uint64_t\000"
 4395      36345F74 
 4395      00
 4396              	.LASF99:
 4397 05a3 63685F74 		.ascii	"ch_trace_buffer_t\000"
 4397      72616365 
 4397      5F627566 
 4397      6665725F 
 4397      7400
 4398              	.LASF37:
 4399 05b5 705F6F6C 		.ascii	"p_older\000"
 4399      64657200 
 4400              	.LASF60:
 4401 05bd 725F6374 		.ascii	"r_ctx\000"
 4401      7800
 4402              	.LASF101:
 4403 05c3 746D5F63 		.ascii	"tm_calibration_t\000"
 4403      616C6962 
 4403      72617469 
 4403      6F6E5F74 
 4403      00
 4404              	.LASF128:
 4405 05d4 73696E5F 		.ascii	"sin_len\000"
 4405      6C656E00 
 4406              	.LASF39:
 4407 05dc 705F7374 		.ascii	"p_stklimit\000"
 4407      6B6C696D 
 4407      697400
 4408              	.LASF179:
 4409 05e7 48747470 		.ascii	"HttpSendError\000"
 4409      53656E64 
ARM GAS  C:\Users\jo\AppData\Local\Temp\cc0xvuUV.s 			page 87


 4409      4572726F 
 4409      7200
 4410              	.LASF62:
 4411 05f5 725F6F6C 		.ascii	"r_older\000"
 4411      64657200 
 4412              	.LASF185:
 4413 05fd 72657370 		.ascii	"response_list\000"
 4413      6F6E7365 
 4413      5F6C6973 
 4413      7400
 4414              	.LASF13:
 4415 060b 5F5F7569 		.ascii	"__uint64_t\000"
 4415      6E743634 
 4415      5F7400
 4416              	.LASF130:
 4417 0616 73696E5F 		.ascii	"sin_port\000"
 4417      706F7274 
 4417      00
 4418              	.LASF134:
 4419 061f 7374726D 		.ascii	"strm_ipos\000"
 4419      5F69706F 
 4419      7300
 4420              	.LASF25:
 4421 0629 74726566 		.ascii	"trefs_t\000"
 4421      735F7400 
 4422              	.LASF169:
 4423 0631 72735F63 		.ascii	"rs_code\000"
 4423      6F646500 
 4424              	.LASF143:
 4425 0639 5F485454 		.ascii	"_HTTP_REQUEST\000"
 4425      505F5245 
 4425      51554553 
 4425      5400
 4426              	.LASF65:
 4427 0647 76697274 		.ascii	"virtual_timer_t\000"
 4427      75616C5F 
 4427      74696D65 
 4427      725F7400 
 4428              	.LASF33:
 4429 0657 705F7072 		.ascii	"p_prev\000"
 4429      657600
 4430              	.LASF26:
 4431 065e 74707269 		.ascii	"tprio_t\000"
 4431      6F5F7400 
 4432              	.LASF137:
 4433 0666 7374726D 		.ascii	"strm_ssock\000"
 4433      5F73736F 
 4433      636B00
 4434              	.LASF171:
 4435 0671 6572725F 		.ascii	"err_txt\000"
 4435      74787400 
 4436              	.LASF76:
 4437 0679 63685F73 		.ascii	"ch_system_debug\000"
 4437      79737465 
 4437      6D5F6465 
 4437      62756700 
 4438              	.LASF117:
ARM GAS  C:\Users\jo\AppData\Local\Temp\cc0xvuUV.s 			page 88


 4439 0689 5F426F6F 		.ascii	"_Bool\000"
 4439      6C00
 4440              	.LASF19:
 4441 068f 696E7433 		.ascii	"int32_t\000"
 4441      325F7400 
 4442              	.LASF4:
 4443 0697 756E7369 		.ascii	"unsigned char\000"
 4443      676E6564 
 4443      20636861 
 4443      7200
 4444              	.LASF47:
 4445 06a5 705F6D74 		.ascii	"p_mtxlist\000"
 4445      786C6973 
 4445      7400
 4446              	.LASF5:
 4447 06af 73686F72 		.ascii	"short int\000"
 4447      7420696E 
 4447      7400
 4448              	.LASF40:
 4449 06b9 705F7374 		.ascii	"p_state\000"
 4449      61746500 
 4450              	.LASF59:
 4451 06c1 725F7072 		.ascii	"r_prio\000"
 4451      696F00
 4452              	.LASF108:
 4453 06c8 65776D61 		.ascii	"ewmask\000"
 4453      736B00
 4454              	.LASF32:
 4455 06cf 705F6E65 		.ascii	"p_next\000"
 4455      787400
 4456              	.LASF23:
 4457 06d6 746D6F64 		.ascii	"tmode_t\000"
 4457      655F7400 
 4458              	.LASF41:
 4459 06de 705F666C 		.ascii	"p_flags\000"
 4459      61677300 
 4460              	.LASF86:
 4461 06e6 69646C65 		.ascii	"idle_thread_wa\000"
 4461      5F746872 
 4461      6561645F 
 4461      776100
 4462              	.LASF198:
 4463 06f5 6D616C6C 		.ascii	"malloc\000"
 4463      6F6300
 4464              	.LASF193:
 4465 06fc 735F7075 		.ascii	"s_puts\000"
 4465      747300
 4466              	.LASF109:
 4467 0703 63685F73 		.ascii	"ch_semaphore\000"
 4467      656D6170 
 4467      686F7265 
 4467      00
 4468              	.LASF46:
 4469 0710 705F6570 		.ascii	"p_epending\000"
 4469      656E6469 
 4469      6E6700
 4470              	.LASF20:
ARM GAS  C:\Users\jo\AppData\Local\Temp\cc0xvuUV.s 			page 89


 4471 071b 75696E74 		.ascii	"uint32_t\000"
 4471      33325F74 
 4471      00
 4472              	.LASF107:
 4473 0724 77746D74 		.ascii	"wtmtxp\000"
 4473      787000
 4474              	.LASF58:
 4475 072b 725F7175 		.ascii	"r_queue\000"
 4475      65756500 
 4476              	.LASF69:
 4477 0733 76745F64 		.ascii	"vt_delta\000"
 4477      656C7461 
 4477      00
 4478              	.LASF53:
 4479 073c 63685F74 		.ascii	"ch_threads_list\000"
 4479      68726561 
 4479      64735F6C 
 4479      69737400 
 4480              	.LASF139:
 4481 074c 7374726D 		.ascii	"strm_saddr\000"
 4481      5F736164 
 4481      647200
 4482              	.LASF11:
 4483 0757 6C6F6E67 		.ascii	"long unsigned int\000"
 4483      20756E73 
 4483      69676E65 
 4483      6420696E 
 4483      7400
 4484              	.LASF174:
 4485 0769 48747470 		.ascii	"HttpSendHeaderTop\000"
 4485      53656E64 
 4485      48656164 
 4485      6572546F 
 4485      7000
 4486              	.LASF16:
 4487 077b 63686172 		.ascii	"char\000"
 4487      00
 4488              	.LASF133:
 4489 0780 5F485454 		.ascii	"_HTTP_STREAM\000"
 4489      505F5354 
 4489      5245414D 
 4489      00
 4490              	.LASF182:
 4491 078d 74657874 		.ascii	"text\000"
 4491      00
 4492              	.LASF6:
 4493 0792 5F5F7569 		.ascii	"__uint16_t\000"
 4493      6E743136 
 4493      5F7400
 4494              	.LASF31:
 4495 079d 74687265 		.ascii	"thread_t\000"
 4495      61645F74 
 4495      00
 4496              	.LASF115:
 4497 07a6 6D5F6E65 		.ascii	"m_next\000"
 4497      787400
 4498              	.LASF30:
ARM GAS  C:\Users\jo\AppData\Local\Temp\cc0xvuUV.s 			page 90


 4499 07ad 73797374 		.ascii	"systime_t\000"
 4499      696D655F 
 4499      7400
 4500              	.LASF48:
 4501 07b7 705F7265 		.ascii	"p_realprio\000"
 4501      616C7072 
 4501      696F00
 4502              	.LASF64:
 4503 07c2 76746675 		.ascii	"vtfunc_t\000"
 4503      6E635F74 
 4503      00
 4504              	.LASF10:
 4505 07cb 5F5F7569 		.ascii	"__uint32_t\000"
 4505      6E743332 
 4505      5F7400
 4506              	.LASF77:
 4507 07d6 70616E69 		.ascii	"panic_msg\000"
 4507      635F6D73 
 4507      6700
 4508              	.LASF190:
 4509 07e0 48747470 		.ascii	"HttpResponseText\000"
 4509      52657370 
 4509      6F6E7365 
 4509      54657874 
 4509      00
 4510              	.LASF112:
 4511 07f1 63685F6D 		.ascii	"ch_mutex\000"
 4511      75746578 
 4511      00
 4512              	.LASF120:
 4513 07fa 5F5F6170 		.ascii	"__ap\000"
 4513      00
 4514              	.LASF89:
 4515 07ff 636F6E74 		.ascii	"context\000"
 4515      65787400 
 4516              	.LASF191:
 4517 0807 735F7072 		.ascii	"s_printf\000"
 4517      696E7466 
 4517      00
 4518              	.LASF66:
 4519 0810 63685F76 		.ascii	"ch_virtual_timer\000"
 4519      69727475 
 4519      616C5F74 
 4519      696D6572 
 4519      00
 4520              	.LASF183:
 4521 0821 61757468 		.ascii	"auth_fmt_P\000"
 4521      5F666D74 
 4521      5F5000
 4522              	.LASF22:
 4523 082c 7274636E 		.ascii	"rtcnt_t\000"
 4523      745F7400 
 4524              	.LASF161:
 4525 0834 7265715F 		.ascii	"req_bnd_dispo\000"
 4525      626E645F 
 4525      64697370 
 4525      6F00
ARM GAS  C:\Users\jo\AppData\Local\Temp\cc0xvuUV.s 			page 91


 4526              	.LASF71:
 4527 0842 76745F70 		.ascii	"vt_par\000"
 4527      617200
 4528              	.LASF123:
 4529 0849 7531365F 		.ascii	"u16_t\000"
 4529      7400
 4530              	.LASF160:
 4531 084f 7265715F 		.ascii	"req_encoding\000"
 4531      656E636F 
 4531      64696E67 
 4531      00
 4532              	.LASF184:
 4533 085c 636F6465 		.ascii	"code\000"
 4533      00
 4534              	.LASF164:
 4535 0861 5F485454 		.ascii	"_HTTPD_SESSION\000"
 4535      50445F53 
 4535      45535349 
 4535      4F4E00
 4536              	.LASF54:
 4537 0870 74687265 		.ascii	"threads_queue_t\000"
 4537      6164735F 
 4537      71756575 
 4537      655F7400 
 4538              	.LASF188:
 4539 0880 63745F43 		.ascii	"ct_Content_Length\000"
 4539      6F6E7465 
 4539      6E745F4C 
 4539      656E6774 
 4539      6800
 4540              	.LASF42:
 4541 0892 705F7265 		.ascii	"p_refs\000"
 4541      667300
 4542              	.LASF78:
 4543 0899 6973725F 		.ascii	"isr_cnt\000"
 4543      636E7400 
 4544              	.LASF144:
 4545 08a1 7265715F 		.ascii	"req_method\000"
 4545      6D657468 
 4545      6F6400
 4546              	.LASF142:
 4547 08ac 48545450 		.ascii	"HTTP_REQUEST\000"
 4547      5F524551 
 4547      55455354 
 4547      00
 4548              	.LASF127:
 4549 08b9 736F636B 		.ascii	"sockaddr_in\000"
 4549      61646472 
 4549      5F696E00 
 4550              	.LASF178:
 4551 08c5 62797465 		.ascii	"bytes\000"
 4551      7300
 4552              	.LASF136:
 4553 08cb 7374726D 		.ascii	"strm_ibuf\000"
 4553      5F696275 
 4553      6600
 4554              	.LASF17:
ARM GAS  C:\Users\jo\AppData\Local\Temp\cc0xvuUV.s 			page 92


 4555 08d5 75696E74 		.ascii	"uint8_t\000"
 4555      385F7400 
 4556              	.LASF165:
 4557 08dd 735F7374 		.ascii	"s_stream\000"
 4557      7265616D 
 4557      00
 4558              	.LASF104:
 4559 08e6 77746F62 		.ascii	"wtobjp\000"
 4559      6A7000
 4560              	.LASF38:
 4561 08ed 705F6E61 		.ascii	"p_name\000"
 4561      6D6500
 4562              	.LASF202:
 4563 08f4 48747470 		.ascii	"HttpSendRedirection\000"
 4563      53656E64 
 4563      52656469 
 4563      72656374 
 4563      696F6E00 
 4564              	.LASF51:
 4565 0908 74687265 		.ascii	"threads_list_t\000"
 4565      6164735F 
 4565      6C697374 
 4565      5F7400
 4566              	.LASF63:
 4567 0917 725F6375 		.ascii	"r_current\000"
 4567      7272656E 
 4567      7400
 4568              	.LASF80:
 4569 0921 74726163 		.ascii	"trace_buffer\000"
 4569      655F6275 
 4569      66666572 
 4569      00
 4570              	.LASF192:
 4571 092e 735F7670 		.ascii	"s_vputs\000"
 4571      75747300 
 4572              	.LASF45:
 4573 0936 705F6D73 		.ascii	"p_msg\000"
 4573      6700
 4574              	.LASF154:
 4575 093c 7265715F 		.ascii	"req_type\000"
 4575      74797065 
 4575      00
 4576              	.LASF114:
 4577 0945 6D5F6F77 		.ascii	"m_owner\000"
 4577      6E657200 
 4578              	.LASF93:
 4579 094d 73655F77 		.ascii	"se_wtobjp\000"
 4579      746F626A 
 4579      7000
 4580              	.LASF35:
 4581 0957 705F6374 		.ascii	"p_ctx\000"
 4581      7800
 4582              	.LASF70:
 4583 095d 76745F66 		.ascii	"vt_func\000"
 4583      756E6300 
 4584              	.LASF125:
 4585 0965 696E5F61 		.ascii	"in_addr\000"
ARM GAS  C:\Users\jo\AppData\Local\Temp\cc0xvuUV.s 			page 93


 4585      64647200 
 4586              	.LASF135:
 4587 096d 7374726D 		.ascii	"strm_ilen\000"
 4587      5F696C65 
 4587      6E00
 4588              		.ident	"GCC: (GNU Tools for ARM Embedded Processors) 4.9.3 20141119 (release) [ARM/embedded-4_9-br
ARM GAS  C:\Users\jo\AppData\Local\Temp\cc0xvuUV.s 			page 94


DEFINED SYMBOLS
                            *ABS*:00000000 responses.c
C:\Users\jo\AppData\Local\Temp\cc0xvuUV.s:19     .text.HttpResponseText:00000000 $t
C:\Users\jo\AppData\Local\Temp\cc0xvuUV.s:25     .text.HttpResponseText:00000000 HttpResponseText
C:\Users\jo\AppData\Local\Temp\cc0xvuUV.s:110    .text.HttpResponseText:00000040 $d
C:\Users\jo\AppData\Local\Temp\cc0xvuUV.s:117    .text.HttpSendHeaderTop:00000000 $t
C:\Users\jo\AppData\Local\Temp\cc0xvuUV.s:123    .text.HttpSendHeaderTop:00000000 HttpSendHeaderTop
C:\Users\jo\AppData\Local\Temp\cc0xvuUV.s:164    .text.HttpSendHeaderTop:00000024 $d
C:\Users\jo\AppData\Local\Temp\cc0xvuUV.s:169    .text.HttpSendHeaderBottom:00000000 $t
C:\Users\jo\AppData\Local\Temp\cc0xvuUV.s:175    .text.HttpSendHeaderBottom:00000000 HttpSendHeaderBottom
C:\Users\jo\AppData\Local\Temp\cc0xvuUV.s:254    .text.HttpSendHeaderBottom:0000004c $d
C:\Users\jo\AppData\Local\Temp\cc0xvuUV.s:265    .text.HttpSendError:00000000 $t
C:\Users\jo\AppData\Local\Temp\cc0xvuUV.s:271    .text.HttpSendError:00000000 HttpSendError
C:\Users\jo\AppData\Local\Temp\cc0xvuUV.s:359    .text.HttpSendError:00000060 $d
C:\Users\jo\AppData\Local\Temp\cc0xvuUV.s:368    .text.HttpSendRedirection:00000000 $t
C:\Users\jo\AppData\Local\Temp\cc0xvuUV.s:374    .text.HttpSendRedirection:00000000 HttpSendRedirection
C:\Users\jo\AppData\Local\Temp\cc0xvuUV.s:535    .text.HttpSendRedirection:000000b4 $d
C:\Users\jo\AppData\Local\Temp\cc0xvuUV.s:545    .rodata.fmt_P.8431:00000000 $d
C:\Users\jo\AppData\Local\Temp\cc0xvuUV.s:549    .rodata.fmt_P.8431:00000000 fmt_P.8431
C:\Users\jo\AppData\Local\Temp\cc0xvuUV.s:552    .rodata.auth_fmt_P.8444:00000000 $d
C:\Users\jo\AppData\Local\Temp\cc0xvuUV.s:556    .rodata.auth_fmt_P.8444:00000000 auth_fmt_P.8444
C:\Users\jo\AppData\Local\Temp\cc0xvuUV.s:559    .rodata.response_list:00000000 $d
C:\Users\jo\AppData\Local\Temp\cc0xvuUV.s:563    .rodata.response_list:00000000 response_list
C:\Users\jo\AppData\Local\Temp\cc0xvuUV.s:699    .rodata.str1.4:00000000 $d
C:\Users\jo\AppData\Local\Temp\cc0xvuUV.s:909    .rodata.body.8442:00000000 $d
C:\Users\jo\AppData\Local\Temp\cc0xvuUV.s:913    .rodata.body.8442:00000000 body.8442
C:\Users\jo\AppData\Local\Temp\cc0xvuUV.s:917    .rodata.body.8456:00000000 $d
C:\Users\jo\AppData\Local\Temp\cc0xvuUV.s:921    .rodata.body.8456:00000000 body.8456
                     .debug_frame:00000010 $d
C:\Users\jo\AppData\Local\Temp\cc0xvuUV.s:116    .text.HttpResponseText:0000004c $t
C:\Users\jo\AppData\Local\Temp\cc0xvuUV.s:168    .text.HttpSendHeaderTop:00000028 $t
C:\Users\jo\AppData\Local\Temp\cc0xvuUV.s:264    .text.HttpSendHeaderBottom:00000068 $t
C:\Users\jo\AppData\Local\Temp\cc0xvuUV.s:544    .text.HttpSendRedirection:000000cc $t

UNDEFINED SYMBOLS
s_printf
s_vputs
s_puts
ct_Content_Type
ct_Content_Length
strlen
s_flush
malloc
strcat
free
ct_Location
