ARM GAS  C:\Users\jo\AppData\Local\Temp\ccdgtuym.s 			page 1


   1              		.syntax unified
   2              		.cpu cortex-m4
   3              		.fpu softvfp
   4              		.eabi_attribute 20, 1
   5              		.eabi_attribute 21, 1
   6              		.eabi_attribute 23, 3
   7              		.eabi_attribute 24, 1
   8              		.eabi_attribute 25, 1
   9              		.eabi_attribute 26, 1
  10              		.eabi_attribute 30, 2
  11              		.eabi_attribute 34, 1
  12              		.eabi_attribute 18, 4
  13              		.thumb
  14              		.file	"ripemd160.c"
  15              		.text
  16              	.Ltext0:
  17              		.cfi_sections	.debug_frame
  18              		.section	.text.ripemd160_init,"ax",%progbits
  19              		.align	2
  20              		.p2align 4,,15
  21              		.global	ripemd160_init
  22              		.thumb
  23              		.thumb_func
  24              		.type	ripemd160_init, %function
  25              	ripemd160_init:
  26              	.LFB1:
  27              		.file 1 "../../../ext/mbedtls-1.3.11/library/ripemd160.c"
  28              		.loc 1 83 0
  29              		.cfi_startproc
  30              		@ args = 0, pretend = 0, frame = 0
  31              		@ frame_needed = 0, uses_anonymous_args = 0
  32              		@ link register save eliminated.
  33              	.LVL0:
  34              		.loc 1 84 0
  35 0000 0021     		movs	r1, #0
  36 0002 DC22     		movs	r2, #220
  37 0004 FFF7FEBF 		b	memset
  38              	.LVL1:
  39              		.cfi_endproc
  40              	.LFE1:
  41              		.size	ripemd160_init, .-ripemd160_init
  42 0008 AFF30080 		.section	.text.ripemd160_free,"ax",%progbits
  42      AFF30080 
  43              		.align	2
  44              		.p2align 4,,15
  45              		.global	ripemd160_free
  46              		.thumb
  47              		.thumb_func
  48              		.type	ripemd160_free, %function
  49              	ripemd160_free:
  50              	.LFB2:
  51              		.loc 1 88 0
  52              		.cfi_startproc
  53              		@ args = 0, pretend = 0, frame = 0
  54              		@ frame_needed = 0, uses_anonymous_args = 0
  55              		@ link register save eliminated.
  56              	.LVL2:
ARM GAS  C:\Users\jo\AppData\Local\Temp\ccdgtuym.s 			page 2


  57              		.loc 1 89 0
  58 0000 30B1     		cbz	r0, .L2
  59 0002 00F1DC02 		add	r2, r0, #220
  60              	.LBB58:
  61              	.LBB59:
  62              		.loc 1 79 0
  63 0006 0023     		movs	r3, #0
  64              	.LVL3:
  65              	.L4:
  66 0008 0370     		strb	r3, [r0]
  67              	.LVL4:
  68 000a 0130     		adds	r0, r0, #1
  69              	.LVL5:
  70 000c 9042     		cmp	r0, r2
  71 000e FBD1     		bne	.L4
  72              	.LVL6:
  73              	.L2:
  74 0010 7047     		bx	lr
  75              	.LBE59:
  76              	.LBE58:
  77              		.cfi_endproc
  78              	.LFE2:
  79              		.size	ripemd160_free, .-ripemd160_free
  80 0012 00BFAFF3 		.section	.text.ripemd160_starts,"ax",%progbits
  80      0080AFF3 
  80      0080AFF3 
  80      0080
  81              		.align	2
  82              		.p2align 4,,15
  83              		.global	ripemd160_starts
  84              		.thumb
  85              		.thumb_func
  86              		.type	ripemd160_starts, %function
  87              	ripemd160_starts:
  88              	.LFB3:
  89              		.loc 1 99 0
  90              		.cfi_startproc
  91              		@ args = 0, pretend = 0, frame = 0
  92              		@ frame_needed = 0, uses_anonymous_args = 0
  93              		@ link register save eliminated.
  94              	.LVL7:
  95 0000 30B4     		push	{r4, r5}
  96              		.cfi_def_cfa_offset 8
  97              		.cfi_offset 4, -8
  98              		.cfi_offset 5, -4
  99              		.loc 1 103 0
 100 0002 074B     		ldr	r3, .L10
 101              		.loc 1 104 0
 102 0004 074D     		ldr	r5, .L10+4
 103              		.loc 1 105 0
 104 0006 084C     		ldr	r4, .L10+8
 105              		.loc 1 106 0
 106 0008 0849     		ldr	r1, .L10+12
 107              		.loc 1 107 0
 108 000a 094A     		ldr	r2, .L10+16
 109              		.loc 1 103 0
 110 000c 8360     		str	r3, [r0, #8]
ARM GAS  C:\Users\jo\AppData\Local\Temp\ccdgtuym.s 			page 3


 111              		.loc 1 100 0
 112 000e 0023     		movs	r3, #0
 113              		.loc 1 104 0
 114 0010 C560     		str	r5, [r0, #12]
 115              		.loc 1 105 0
 116 0012 0461     		str	r4, [r0, #16]
 117              		.loc 1 106 0
 118 0014 4161     		str	r1, [r0, #20]
 119              		.loc 1 107 0
 120 0016 8261     		str	r2, [r0, #24]
 121              		.loc 1 100 0
 122 0018 0360     		str	r3, [r0]
 123              		.loc 1 101 0
 124 001a 4360     		str	r3, [r0, #4]
 125              		.loc 1 108 0
 126 001c 30BC     		pop	{r4, r5}
 127              		.cfi_restore 5
 128              		.cfi_restore 4
 129              		.cfi_def_cfa_offset 0
 130 001e 7047     		bx	lr
 131              	.L11:
 132              		.align	2
 133              	.L10:
 134 0020 01234567 		.word	1732584193
 135 0024 89ABCDEF 		.word	-271733879
 136 0028 FEDCBA98 		.word	-1732584194
 137 002c 76543210 		.word	271733878
 138 0030 F0E1D2C3 		.word	-1009589776
 139              		.cfi_endproc
 140              	.LFE3:
 141              		.size	ripemd160_starts, .-ripemd160_starts
 142 0034 AFF30080 		.section	.text.ripemd160_process,"ax",%progbits
 142      AFF30080 
 142      AFF30080 
 143              		.align	2
 144              		.p2align 4,,15
 145              		.global	ripemd160_process
 146              		.thumb
 147              		.thumb_func
 148              		.type	ripemd160_process, %function
 149              	ripemd160_process:
 150              	.LFB4:
 151              		.loc 1 114 0
 152              		.cfi_startproc
 153              		@ args = 0, pretend = 0, frame = 192
 154              		@ frame_needed = 0, uses_anonymous_args = 0
 155              	.LVL8:
 156 0000 2DE9F04F 		push	{r4, r5, r6, r7, r8, r9, r10, fp, lr}
 157              		.cfi_def_cfa_offset 36
 158              		.cfi_offset 4, -36
 159              		.cfi_offset 5, -32
 160              		.cfi_offset 6, -28
 161              		.cfi_offset 7, -24
 162              		.cfi_offset 8, -20
 163              		.cfi_offset 9, -16
 164              		.cfi_offset 10, -12
 165              		.cfi_offset 11, -8
ARM GAS  C:\Users\jo\AppData\Local\Temp\ccdgtuym.s 			page 4


 166              		.cfi_offset 14, -4
 167 0004 B1B0     		sub	sp, sp, #196
 168              		.cfi_def_cfa_offset 232
 169              		.loc 1 120 0
 170 0006 91F80EE0 		ldrb	lr, [r1, #14]	@ zero_extendqisi2
 171 000a CDF824E0 		str	lr, [sp, #36]
 172 000e 91F80CE0 		ldrb	lr, [r1, #12]	@ zero_extendqisi2
 173 0012 CDF828E0 		str	lr, [sp, #40]
 174 0016 91F80FE0 		ldrb	lr, [r1, #15]	@ zero_extendqisi2
 175 001a CDF82CE0 		str	lr, [sp, #44]
 176              		.loc 1 121 0
 177 001e 91F811E0 		ldrb	lr, [r1, #17]	@ zero_extendqisi2
 178              		.loc 1 118 0
 179 0022 CC79     		ldrb	r4, [r1, #7]	@ zero_extendqisi2
 180              		.loc 1 119 0
 181 0024 4E7A     		ldrb	r6, [r1, #9]	@ zero_extendqisi2
 182              		.loc 1 121 0
 183 0026 CDF830E0 		str	lr, [sp, #48]
 184 002a 91F812E0 		ldrb	lr, [r1, #18]	@ zero_extendqisi2
 185              		.loc 1 119 0
 186 002e 8F7A     		ldrb	r7, [r1, #10]	@ zero_extendqisi2
 187 0030 0B7A     		ldrb	r3, [r1, #8]	@ zero_extendqisi2
 188              		.loc 1 118 0
 189 0032 0294     		str	r4, [sp, #8]
 190              		.loc 1 119 0
 191 0034 0396     		str	r6, [sp, #12]
 192 0036 CC7A     		ldrb	r4, [r1, #11]	@ zero_extendqisi2
 193              		.loc 1 120 0
 194 0038 4E7B     		ldrb	r6, [r1, #13]	@ zero_extendqisi2
 195              		.loc 1 121 0
 196 003a CDF834E0 		str	lr, [sp, #52]
 197 003e 91F810E0 		ldrb	lr, [r1, #16]	@ zero_extendqisi2
 198              		.loc 1 117 0
 199 0042 91F801B0 		ldrb	fp, [r1, #1]	@ zero_extendqisi2
 200 0046 91F800A0 		ldrb	r10, [r1]	@ zero_extendqisi2
 201              		.loc 1 118 0
 202 004a 91F805C0 		ldrb	ip, [r1, #5]	@ zero_extendqisi2
 203 004e 0D79     		ldrb	r5, [r1, #4]	@ zero_extendqisi2
 204              		.loc 1 114 0
 205 0050 1390     		str	r0, [sp, #76]
 206              		.loc 1 117 0
 207 0052 8A78     		ldrb	r2, [r1, #2]	@ zero_extendqisi2
 208 0054 91F80380 		ldrb	r8, [r1, #3]	@ zero_extendqisi2
 209              		.loc 1 118 0
 210 0058 8879     		ldrb	r0, [r1, #6]	@ zero_extendqisi2
 211              	.LVL9:
 212              		.loc 1 119 0
 213 005a 0497     		str	r7, [sp, #16]
 214 005c 0593     		str	r3, [sp, #20]
 215 005e 0794     		str	r4, [sp, #28]
 216              		.loc 1 120 0
 217 0060 0896     		str	r6, [sp, #32]
 218              		.loc 1 121 0
 219 0062 CDF83CE0 		str	lr, [sp, #60]
 220 0066 91F813E0 		ldrb	lr, [r1, #19]	@ zero_extendqisi2
 221              		.loc 1 123 0
 222 006a 0B7E     		ldrb	r3, [r1, #24]	@ zero_extendqisi2
ARM GAS  C:\Users\jo\AppData\Local\Temp\ccdgtuym.s 			page 5


 223 006c 1993     		str	r3, [sp, #100]
 224              		.loc 1 124 0
 225 006e 8B7F     		ldrb	r3, [r1, #30]	@ zero_extendqisi2
 226 0070 0E93     		str	r3, [sp, #56]
 227 0072 0B7F     		ldrb	r3, [r1, #28]	@ zero_extendqisi2
 228 0074 1293     		str	r3, [sp, #72]
 229 0076 CB7F     		ldrb	r3, [r1, #31]	@ zero_extendqisi2
 230 0078 1593     		str	r3, [sp, #84]
 231              		.loc 1 125 0
 232 007a 91F82130 		ldrb	r3, [r1, #33]	@ zero_extendqisi2
 233 007e 1B93     		str	r3, [sp, #108]
 234 0080 91F82230 		ldrb	r3, [r1, #34]	@ zero_extendqisi2
 235 0084 1C93     		str	r3, [sp, #112]
 236 0086 91F82030 		ldrb	r3, [r1, #32]	@ zero_extendqisi2
 237 008a 1D93     		str	r3, [sp, #116]
 238 008c 91F82330 		ldrb	r3, [r1, #35]	@ zero_extendqisi2
 239 0090 1E93     		str	r3, [sp, #120]
 240              		.loc 1 134 0
 241 0092 139B     		ldr	r3, [sp, #76]
 242              		.loc 1 123 0
 243 0094 4F7E     		ldrb	r7, [r1, #25]	@ zero_extendqisi2
 244              		.loc 1 134 0
 245 0096 9B68     		ldr	r3, [r3, #8]
 246              		.loc 1 123 0
 247 0098 1797     		str	r7, [sp, #92]
 248              		.loc 1 134 0
 249 009a 1493     		str	r3, [sp, #80]
 250              		.loc 1 123 0
 251 009c 8F7E     		ldrb	r7, [r1, #26]	@ zero_extendqisi2
 252              		.loc 1 135 0
 253 009e 139B     		ldr	r3, [sp, #76]
 254              		.loc 1 123 0
 255 00a0 1897     		str	r7, [sp, #96]
 256              		.loc 1 118 0
 257 00a2 0004     		lsls	r0, r0, #16
 258              		.loc 1 123 0
 259 00a4 CF7E     		ldrb	r7, [r1, #27]	@ zero_extendqisi2
 260              		.loc 1 122 0
 261 00a6 91F81590 		ldrb	r9, [r1, #21]	@ zero_extendqisi2
 262 00aa 0E7D     		ldrb	r6, [r1, #20]	@ zero_extendqisi2
 263              		.loc 1 121 0
 264 00ac CDF840E0 		str	lr, [sp, #64]
 265 00b0 40EA0C20 		orr	r0, r0, ip, lsl #8
 266              		.loc 1 122 0
 267 00b4 8C7D     		ldrb	r4, [r1, #22]	@ zero_extendqisi2
 268 00b6 91F817E0 		ldrb	lr, [r1, #23]	@ zero_extendqisi2
 269              		.loc 1 123 0
 270 00ba 1A97     		str	r7, [sp, #104]
 271              		.loc 1 118 0
 272 00bc 2843     		orrs	r0, r0, r5
 273              		.loc 1 124 0
 274 00be 4F7F     		ldrb	r7, [r1, #29]	@ zero_extendqisi2
 275              		.loc 1 135 0
 276 00c0 DB68     		ldr	r3, [r3, #12]
 277              	.LVL10:
 278              		.loc 1 118 0
 279 00c2 029D     		ldr	r5, [sp, #8]
ARM GAS  C:\Users\jo\AppData\Local\Temp\ccdgtuym.s 			page 6


 280              		.loc 1 127 0
 281 00c4 91F828C0 		ldrb	ip, [r1, #40]	@ zero_extendqisi2
 282 00c8 CDF884C0 		str	ip, [sp, #132]
 283              		.loc 1 117 0
 284 00cc 1204     		lsls	r2, r2, #16
 285              		.loc 1 127 0
 286 00ce 91F82BC0 		ldrb	ip, [r1, #43]	@ zero_extendqisi2
 287 00d2 CDF888C0 		str	ip, [sp, #136]
 288 00d6 42EA0B22 		orr	r2, r2, fp, lsl #8
 289              		.loc 1 118 0
 290 00da 40EA056C 		orr	ip, r0, r5, lsl #24
 291              		.loc 1 122 0
 292 00de 2404     		lsls	r4, r4, #16
 293              		.loc 1 119 0
 294 00e0 049D     		ldr	r5, [sp, #16]
 295              		.loc 1 118 0
 296 00e2 CDF808C0 		str	ip, [sp, #8]
 297              	.LVL11:
 298              		.loc 1 117 0
 299 00e6 42EA0A02 		orr	r2, r2, r10
 300              		.loc 1 129 0
 301 00ea 91F831C0 		ldrb	ip, [r1, #49]	@ zero_extendqisi2
 302 00ee 0398     		ldr	r0, [sp, #12]
 303              		.loc 1 135 0
 304 00f0 1193     		str	r3, [sp, #68]
 305 00f2 44EA0924 		orr	r4, r4, r9, lsl #8
 306              		.loc 1 126 0
 307 00f6 91F82430 		ldrb	r3, [r1, #36]	@ zero_extendqisi2
 308              		.loc 1 127 0
 309 00fa 91F82990 		ldrb	r9, [r1, #41]	@ zero_extendqisi2
 310              		.loc 1 129 0
 311 00fe CDF894C0 		str	ip, [sp, #148]
 312              		.loc 1 117 0
 313 0102 42EA0868 		orr	r8, r2, r8, lsl #24
 314              		.loc 1 129 0
 315 0106 91F832C0 		ldrb	ip, [r1, #50]	@ zero_extendqisi2
 316              		.loc 1 128 0
 317 010a 91F82C20 		ldrb	r2, [r1, #44]	@ zero_extendqisi2
 318              		.loc 1 126 0
 319 010e 1693     		str	r3, [sp, #88]
 320              		.loc 1 122 0
 321 0110 3443     		orrs	r4, r4, r6
 322              		.loc 1 128 0
 323 0112 91F82D30 		ldrb	r3, [r1, #45]	@ zero_extendqisi2
 324              		.loc 1 127 0
 325 0116 CDF87C90 		str	r9, [sp, #124]
 326              		.loc 1 122 0
 327 011a 44EA0E6E 		orr	lr, r4, lr, lsl #24
 328              		.loc 1 127 0
 329 011e 91F82A90 		ldrb	r9, [r1, #42]	@ zero_extendqisi2
 330              		.loc 1 128 0
 331 0122 2492     		str	r2, [sp, #144]
 332              		.loc 1 129 0
 333 0124 CDF898C0 		str	ip, [sp, #152]
 334              		.loc 1 119 0
 335 0128 2A04     		lsls	r2, r5, #16
 336              		.loc 1 129 0
ARM GAS  C:\Users\jo\AppData\Local\Temp\ccdgtuym.s 			page 7


 337 012a 91F830C0 		ldrb	ip, [r1, #48]	@ zero_extendqisi2
 338              		.loc 1 126 0
 339 012e 91F825B0 		ldrb	fp, [r1, #37]	@ zero_extendqisi2
 340              		.loc 1 128 0
 341 0132 91F82E40 		ldrb	r4, [r1, #46]	@ zero_extendqisi2
 342              		.loc 1 126 0
 343 0136 91F826A0 		ldrb	r10, [r1, #38]	@ zero_extendqisi2
 344              		.loc 1 117 0
 345 013a CDF80480 		str	r8, [sp, #4]
 346              	.LVL12:
 347              		.loc 1 127 0
 348 013e CDF88090 		str	r9, [sp, #128]
 349              		.loc 1 126 0
 350 0142 91F82780 		ldrb	r8, [r1, #39]	@ zero_extendqisi2
 351              		.loc 1 128 0
 352 0146 2393     		str	r3, [sp, #140]
 353              		.loc 1 122 0
 354 0148 CDF818E0 		str	lr, [sp, #24]
 355 014c 42EA0022 		orr	r2, r2, r0, lsl #8
 356              		.loc 1 128 0
 357 0150 91F82FE0 		ldrb	lr, [r1, #47]	@ zero_extendqisi2
 358              		.loc 1 129 0
 359 0154 CDF89CC0 		str	ip, [sp, #156]
 360 0158 91F833C0 		ldrb	ip, [r1, #51]	@ zero_extendqisi2
 361              	.LVL13:
 362              		.loc 1 119 0
 363 015c 0598     		ldr	r0, [sp, #20]
 364              	.LVL14:
 365              		.loc 1 124 0
 366 015e 0E9E     		ldr	r6, [sp, #56]
 367              		.loc 1 129 0
 368 0160 CDF8A0C0 		str	ip, [sp, #160]
 369              		.loc 1 119 0
 370 0164 0243     		orrs	r2, r2, r0
 371              		.loc 1 130 0
 372 0166 91F835C0 		ldrb	ip, [r1, #53]	@ zero_extendqisi2
 373              		.loc 1 119 0
 374 016a 0798     		ldr	r0, [sp, #28]
 375              		.loc 1 130 0
 376 016c CDF8A4C0 		str	ip, [sp, #164]
 377 0170 91F834C0 		ldrb	ip, [r1, #52]	@ zero_extendqisi2
 378 0174 CDF8A8C0 		str	ip, [sp, #168]
 379              		.loc 1 124 0
 380 0178 3304     		lsls	r3, r6, #16
 381              		.loc 1 119 0
 382 017a 42EA006C 		orr	ip, r2, r0, lsl #24
 383              		.loc 1 131 0
 384 017e 91F83A20 		ldrb	r2, [r1, #58]	@ zero_extendqisi2
 385              		.loc 1 120 0
 386 0182 0998     		ldr	r0, [sp, #36]
 387              		.loc 1 124 0
 388 0184 129D     		ldr	r5, [sp, #72]
 389              		.loc 1 119 0
 390 0186 CDF80CC0 		str	ip, [sp, #12]
 391              	.LVL15:
 392 018a 43EA0723 		orr	r3, r3, r7, lsl #8
 393              		.loc 1 131 0
ARM GAS  C:\Users\jo\AppData\Local\Temp\ccdgtuym.s 			page 8


 394 018e 91F83970 		ldrb	r7, [r1, #57]	@ zero_extendqisi2
 395              		.loc 1 130 0
 396 0192 91F837C0 		ldrb	ip, [r1, #55]	@ zero_extendqisi2
 397 0196 CDF8ACC0 		str	ip, [sp, #172]
 398              		.loc 1 131 0
 399 019a 1204     		lsls	r2, r2, #16
 400 019c 42EA0722 		orr	r2, r2, r7, lsl #8
 401 01a0 089F     		ldr	r7, [sp, #32]
 402              		.loc 1 130 0
 403 01a2 91F83690 		ldrb	r9, [r1, #54]	@ zero_extendqisi2
 404              		.loc 1 120 0
 405 01a6 0004     		lsls	r0, r0, #16
 406 01a8 40EA0720 		orr	r0, r0, r7, lsl #8
 407              		.loc 1 131 0
 408 01ac 91F83870 		ldrb	r7, [r1, #56]	@ zero_extendqisi2
 409              		.loc 1 124 0
 410 01b0 2B43     		orrs	r3, r3, r5
 411 01b2 159D     		ldr	r5, [sp, #84]
 412              		.loc 1 131 0
 413 01b4 3A43     		orrs	r2, r2, r7
 414 01b6 91F83B70 		ldrb	r7, [r1, #59]	@ zero_extendqisi2
 415              		.loc 1 124 0
 416 01ba 43EA056C 		orr	ip, r3, r5, lsl #24
 417 01be CDF820C0 		str	ip, [sp, #32]
 418              		.loc 1 131 0
 419 01c2 42EA076C 		orr	ip, r2, r7, lsl #24
 420 01c6 CDF838C0 		str	ip, [sp, #56]
 421              		.loc 1 132 0
 422 01ca 91F83DC0 		ldrb	ip, [r1, #61]	@ zero_extendqisi2
 423              		.loc 1 136 0
 424 01ce 139B     		ldr	r3, [sp, #76]
 425              		.loc 1 132 0
 426 01d0 CDF8B0C0 		str	ip, [sp, #176]
 427 01d4 91F83EC0 		ldrb	ip, [r1, #62]	@ zero_extendqisi2
 428 01d8 CDF8B4C0 		str	ip, [sp, #180]
 429 01dc 91F83CC0 		ldrb	ip, [r1, #60]	@ zero_extendqisi2
 430 01e0 CDF8B8C0 		str	ip, [sp, #184]
 431 01e4 91F83FC0 		ldrb	ip, [r1, #63]	@ zero_extendqisi2
 432              		.loc 1 136 0
 433 01e8 1969     		ldr	r1, [r3, #16]
 434              	.LVL16:
 435              		.loc 1 132 0
 436 01ea CDF8BCC0 		str	ip, [sp, #188]
 437              		.loc 1 136 0
 438 01ee 0D46     		mov	r5, r1
 439              		.loc 1 120 0
 440 01f0 0A99     		ldr	r1, [sp, #40]
 441              	.LVL17:
 442 01f2 0C9A     		ldr	r2, [sp, #48]
 443              		.loc 1 161 0
 444 01f4 1595     		str	r5, [sp, #84]
 445              		.loc 1 120 0
 446 01f6 0843     		orrs	r0, r0, r1
 447 01f8 0B99     		ldr	r1, [sp, #44]
 448 01fa 149F     		ldr	r7, [sp, #80]
 449 01fc 40EA016C 		orr	ip, r0, r1, lsl #24
 450              		.loc 1 137 0
ARM GAS  C:\Users\jo\AppData\Local\Temp\ccdgtuym.s 			page 9


 451 0200 1846     		mov	r0, r3
 452 0202 5B69     		ldr	r3, [r3, #20]
 453              		.loc 1 161 0
 454 0204 1599     		ldr	r1, [sp, #84]
 455              		.loc 1 120 0
 456 0206 CDF810C0 		str	ip, [sp, #16]
 457              	.LVL18:
 458              		.loc 1 137 0
 459 020a 1E46     		mov	r6, r3
 460              		.loc 1 121 0
 461 020c 0D9B     		ldr	r3, [sp, #52]
 462              		.loc 1 161 0
 463 020e 1296     		str	r6, [sp, #72]
 464              		.loc 1 121 0
 465 0210 1B04     		lsls	r3, r3, #16
 466 0212 43EA0223 		orr	r3, r3, r2, lsl #8
 467              		.loc 1 161 0
 468 0216 AC46     		mov	ip, r5
 469              		.loc 1 121 0
 470 0218 0F9A     		ldr	r2, [sp, #60]
 471              		.loc 1 161 0
 472 021a 119D     		ldr	r5, [sp, #68]
 473              		.loc 1 121 0
 474 021c 1A43     		orrs	r2, r2, r3
 475              		.loc 1 161 0
 476 021e 8CEA0503 		eor	r3, ip, r5
 477 0222 8C46     		mov	ip, r1
 478 0224 6CEA0601 		orn	r1, ip, r6
 479 0228 7340     		eors	r3, r3, r6
 480              		.loc 1 121 0
 481 022a 109E     		ldr	r6, [sp, #64]
 482              		.loc 1 126 0
 483 022c 4FEA0A4A 		lsl	r10, r10, #16
 484              		.loc 1 121 0
 485 0230 42EA066C 		orr	ip, r2, r6, lsl #24
 486              		.loc 1 126 0
 487 0234 169A     		ldr	r2, [sp, #88]
 488              		.loc 1 121 0
 489 0236 CDF814C0 		str	ip, [sp, #20]
 490 023a 3B44     		add	r3, r3, r7
 491              	.LVL19:
 492 023c 4AEA0B2A 		orr	r10, r10, fp, lsl #8
 493              		.loc 1 161 0
 494 0240 019F     		ldr	r7, [sp, #4]
 495 0242 DFF808B4 		ldr	fp, .L14
 496              		.loc 1 123 0
 497 0246 189E     		ldr	r6, [sp, #96]
 498              		.loc 1 126 0
 499 0248 4AEA020A 		orr	r10, r10, r2
 500              		.loc 1 138 0
 501 024c 8269     		ldr	r2, [r0, #24]
 502              		.loc 1 161 0
 503 024e 3B44     		add	r3, r3, r7
 504              		.loc 1 138 0
 505 0250 1046     		mov	r0, r2
 506              		.loc 1 161 0
 507 0252 02EB7353 		add	r3, r2, r3, ror #21
ARM GAS  C:\Users\jo\AppData\Local\Temp\ccdgtuym.s 			page 10


 508 0256 149A     		ldr	r2, [sp, #80]
 509 0258 1690     		str	r0, [sp, #88]
 510 025a 6940     		eors	r1, r1, r5
 511 025c 9344     		add	fp, r2, fp
 512 025e 069A     		ldr	r2, [sp, #24]
 513 0260 8B44     		add	fp, fp, r1
 514 0262 9344     		add	fp, fp, r2
 515 0264 159A     		ldr	r2, [sp, #84]
 516 0266 4FEAB252 		ror	r2, r2, #22
 517              		.loc 1 126 0
 518 026a 4AEA086C 		orr	ip, r10, r8, lsl #24
 519              	.LVL20:
 520 026e 82EA0501 		eor	r1, r2, r5
 521              		.loc 1 128 0
 522 0272 4FEA0448 		lsl	r8, r4, #16
 523 0276 169D     		ldr	r5, [sp, #88]
 524 0278 029C     		ldr	r4, [sp, #8]
 525              		.loc 1 126 0
 526 027a CDF828C0 		str	ip, [sp, #40]
 527              		.loc 1 162 0
 528 027e 5940     		eors	r1, r1, r3
 529 0280 2C44     		add	r4, r4, r5
 530 0282 0C44     		add	r4, r4, r1
 531 0284 119D     		ldr	r5, [sp, #68]
 532 0286 1299     		ldr	r1, [sp, #72]
 533              		.loc 1 161 0
 534 0288 00EB3B6B 		add	fp, r0, fp, ror #24
 535              		.loc 1 162 0
 536 028c 01EBB444 		add	r4, r1, r4, ror #18
 537              		.loc 1 123 0
 538 0290 3004     		lsls	r0, r6, #16
 539              		.loc 1 162 0
 540 0292 65EA0201 		orn	r1, r5, r2
 541 0296 179E     		ldr	r6, [sp, #92]
 542 0298 239D     		ldr	r5, [sp, #140]
 543 029a 40EA0620 		orr	r0, r0, r6, lsl #8
 544 029e 48EA0526 		orr	r6, r8, r5, lsl #8
 545 02a2 169D     		ldr	r5, [sp, #88]
 546 02a4 05F1A14C 		add	ip, r5, #1350565888
 547 02a8 0CF50A1C 		add	ip, ip, #2260992
 548 02ac 0E9D     		ldr	r5, [sp, #56]
 549 02ae 0CF6E63C 		addw	ip, ip, #3046
 550 02b2 8BEA0101 		eor	r1, fp, r1
 551 02b6 AC44     		add	ip, ip, r5
 552 02b8 129D     		ldr	r5, [sp, #72]
 553 02ba 8C44     		add	ip, ip, r1
 554 02bc 05EBFC5C 		add	ip, r5, ip, ror #23
 555 02c0 119D     		ldr	r5, [sp, #68]
 556              		.loc 1 123 0
 557 02c2 1999     		ldr	r1, [sp, #100]
 558              		.loc 1 162 0
 559 02c4 4FEAB558 		ror	r8, r5, #22
 560              		.loc 1 123 0
 561 02c8 1A9D     		ldr	r5, [sp, #104]
 562 02ca 0143     		orrs	r1, r1, r0
 563              		.loc 1 128 0
 564 02cc 2498     		ldr	r0, [sp, #144]
ARM GAS  C:\Users\jo\AppData\Local\Temp\ccdgtuym.s 			page 11


 565              		.loc 1 123 0
 566 02ce 41EA056A 		orr	r10, r1, r5, lsl #24
 567 02d2 039D     		ldr	r5, [sp, #12]
 568 02d4 1299     		ldr	r1, [sp, #72]
 569 02d6 CDF81CA0 		str	r10, [sp, #28]
 570              		.loc 1 128 0
 571 02da 0643     		orrs	r6, r6, r0
 572 02dc 6918     		adds	r1, r5, r1
 573 02de 46EA0E6E 		orr	lr, r6, lr, lsl #24
 574 02e2 DA4D     		ldr	r5, .L14
 575 02e4 129E     		ldr	r6, [sp, #72]
 576 02e6 CDF830E0 		str	lr, [sp, #48]
 577 02ea 7519     		adds	r5, r6, r5
 578 02ec 089E     		ldr	r6, [sp, #32]
 579 02ee 3544     		add	r5, r5, r6
 580 02f0 049E     		ldr	r6, [sp, #16]
 581 02f2 06EB020A 		add	r10, r6, r2
 582 02f6 D54E     		ldr	r6, .L14
 583 02f8 83EA0800 		eor	r0, r3, r8
 584              		.loc 1 163 0
 585 02fc 6040     		eors	r0, r0, r4
 586              	.LVL21:
 587 02fe 9619     		adds	r6, r2, r6
 588 0300 0844     		add	r0, r0, r1
 589 0302 3E44     		add	r6, r6, r7
 590 0304 6BEA0801 		orn	r1, fp, r8
 591              		.loc 1 125 0
 592 0308 1C9F     		ldr	r7, [sp, #112]
 593              		.loc 1 163 0
 594 030a 4FEAB353 		ror	r3, r3, #22
 595 030e 8CEA0101 		eor	r1, ip, r1
 596 0312 02EB7040 		add	r0, r2, r0, ror #17
 597 0316 0D44     		add	r5, r5, r1
 598              		.loc 1 125 0
 599 0318 4FEA074E 		lsl	lr, r7, #16
 600 031c 84EA0301 		eor	r1, r4, r3
 601 0320 1B9F     		ldr	r7, [sp, #108]
 602              		.loc 1 163 0
 603 0322 4FEABB5B 		ror	fp, fp, #22
 604              		.loc 1 164 0
 605 0326 4140     		eors	r1, r1, r0
 606              		.loc 1 163 0
 607 0328 02EBF555 		add	r5, r2, r5, ror #23
 608              		.loc 1 164 0
 609 032c 8A44     		add	r10, r10, r1
 610 032e 4EEA072E 		orr	lr, lr, r7, lsl #8
 611 0332 6CEA0B01 		orn	r1, ip, fp
 612              		.loc 1 125 0
 613 0336 1D9F     		ldr	r7, [sp, #116]
 614              		.loc 1 164 0
 615 0338 6940     		eors	r1, r1, r5
 616 033a 0E44     		add	r6, r6, r1
 617              		.loc 1 125 0
 618 033c 4EEA070E 		orr	lr, lr, r7
 619 0340 2999     		ldr	r1, [sp, #164]
 620 0342 059F     		ldr	r7, [sp, #20]
 621              		.loc 1 164 0
ARM GAS  C:\Users\jo\AppData\Local\Temp\ccdgtuym.s 			page 12


 622 0344 4FEAB454 		ror	r4, r4, #22
 623              		.loc 1 130 0
 624 0348 4FEA0942 		lsl	r2, r9, #16
 625              		.loc 1 164 0
 626 034c 08EB3A5A 		add	r10, r8, r10, ror #20
 627 0350 42EA0122 		orr	r2, r2, r1, lsl #8
 628 0354 B946     		mov	r9, r7
 629 0356 80EA0401 		eor	r1, r0, r4
 630 035a 08EB7656 		add	r6, r8, r6, ror #21
 631              		.loc 1 165 0
 632 035e 81EA0A01 		eor	r1, r1, r10
 633 0362 C144     		add	r9, r9, r8
 634 0364 08F1A148 		add	r8, r8, #1350565888
 635 0368 8944     		add	r9, r9, r1
 636 036a 08F50A18 		add	r8, r8, #2260992
 637 036e 0A99     		ldr	r1, [sp, #40]
 638              		.loc 1 164 0
 639 0370 4FEABC5C 		ror	ip, ip, #22
 640 0374 08F6E638 		addw	r8, r8, #3046
 641 0378 08EB0107 		add	r7, r8, r1
 642 037c 0699     		ldr	r1, [sp, #24]
 643              		.loc 1 165 0
 644 037e 65EA0C08 		orn	r8, r5, ip
 645 0382 4FEAB050 		ror	r0, r0, #22
 646 0386 86EA0808 		eor	r8, r6, r8
 647 038a 03EBF969 		add	r9, r3, r9, ror #27
 648 038e B844     		add	r8, r8, r7
 649 0390 0B44     		add	r3, r3, r1
 650              		.loc 1 130 0
 651 0392 2A9F     		ldr	r7, [sp, #168]
 652 0394 8AEA0001 		eor	r1, r10, r0
 653              		.loc 1 166 0
 654 0398 81EA0901 		eor	r1, r1, r9
 655              		.loc 1 130 0
 656 039c 3A43     		orrs	r2, r2, r7
 657              		.loc 1 166 0
 658 039e 0B44     		add	r3, r3, r1
 659              		.loc 1 125 0
 660 03a0 1E9F     		ldr	r7, [sp, #120]
 661 03a2 0799     		ldr	r1, [sp, #28]
 662              		.loc 1 166 0
 663 03a4 04EB3363 		add	r3, r4, r3, ror #24
 664              		.loc 1 125 0
 665 03a8 4EEA076E 		orr	lr, lr, r7, lsl #24
 666 03ac 0C44     		add	r4, r4, r1
 667 03ae 039F     		ldr	r7, [sp, #12]
 668 03b0 A649     		ldr	r1, .L14
 669 03b2 CDF824E0 		str	lr, [sp, #36]
 670 03b6 7918     		adds	r1, r7, r1
 671              		.loc 1 130 0
 672 03b8 2B9F     		ldr	r7, [sp, #172]
 673              		.loc 1 166 0
 674 03ba 4FEABA5A 		ror	r10, r10, #22
 675              		.loc 1 130 0
 676 03be 42EA076E 		orr	lr, r2, r7, lsl #24
 677 03c2 89EA0A07 		eor	r7, r9, r10
 678 03c6 089A     		ldr	r2, [sp, #32]
ARM GAS  C:\Users\jo\AppData\Local\Temp\ccdgtuym.s 			page 13


 679 03c8 CDF834E0 		str	lr, [sp, #52]
 680              		.loc 1 167 0
 681 03cc 5F40     		eors	r7, r7, r3
 682              		.loc 1 165 0
 683 03ce 4FEAB555 		ror	r5, r5, #22
 684              		.loc 1 167 0
 685 03d2 2744     		add	r7, r7, r4
 686              		.loc 1 165 0
 687 03d4 0BEBF848 		add	r8, fp, r8, ror #19
 688              		.loc 1 167 0
 689 03d8 00EB7767 		add	r7, r0, r7, ror #25
 690 03dc 0C9C     		ldr	r4, [sp, #48]
 691 03de 8B44     		add	fp, fp, r1
 692 03e0 1044     		add	r0, r0, r2
 693              		.loc 1 166 0
 694 03e2 66EA0501 		orn	r1, r6, r5
 695 03e6 994A     		ldr	r2, .L14
 696 03e8 88EA0101 		eor	r1, r8, r1
 697 03ec 4FEAB656 		ror	r6, r6, #22
 698 03f0 A218     		adds	r2, r4, r2
 699 03f2 8B44     		add	fp, fp, r1
 700 03f4 0CEB7B4B 		add	fp, ip, fp, ror #17
 701 03f8 9444     		add	ip, ip, r2
 702              		.loc 1 167 0
 703 03fa 68EA0602 		orn	r2, r8, r6
 704 03fe 4FEAB959 		ror	r9, r9, #22
 705 0402 8BEA0202 		eor	r2, fp, r2
 706 0406 9444     		add	ip, ip, r2
 707 0408 83EA0902 		eor	r2, r3, r9
 708              		.loc 1 168 0
 709 040c 4FEAB353 		ror	r3, r3, #22
 710 0410 099C     		ldr	r4, [sp, #36]
 711 0412 7A40     		eors	r2, r2, r7
 712 0414 1946     		mov	r1, r3
 713              		.loc 1 127 0
 714 0416 209B     		ldr	r3, [sp, #128]
 715 0418 1091     		str	r1, [sp, #64]
 716              		.loc 1 168 0
 717 041a 1044     		add	r0, r0, r2
 718 041c 0AEBF050 		add	r0, r10, r0, ror #23
 719 0420 A244     		add	r10, r10, r4
 720              		.loc 1 127 0
 721 0422 1C04     		lsls	r4, r3, #16
 722              		.loc 1 132 0
 723 0424 2D9B     		ldr	r3, [sp, #180]
 724 0426 059A     		ldr	r2, [sp, #20]
 725 0428 4FEA034E 		lsl	lr, r3, #16
 726 042c 1F9B     		ldr	r3, [sp, #124]
 727 042e 44EA0324 		orr	r4, r4, r3, lsl #8
 728 0432 1346     		mov	r3, r2
 729 0434 854A     		ldr	r2, .L14
 730              		.loc 1 167 0
 731 0436 4FEAB858 		ror	r8, r8, #22
 732 043a 9A18     		adds	r2, r3, r2
 733 043c 05EB7C4C 		add	ip, r5, ip, ror #17
 734 0440 1544     		add	r5, r5, r2
 735              		.loc 1 168 0
ARM GAS  C:\Users\jo\AppData\Local\Temp\ccdgtuym.s 			page 14


 736 0442 6BEA0802 		orn	r2, fp, r8
 737 0446 8CEA0202 		eor	r2, ip, r2
 738 044a 7940     		eors	r1, r1, r7
 739 044c 2C9B     		ldr	r3, [sp, #176]
 740 044e 1544     		add	r5, r5, r2
 741              		.loc 1 169 0
 742 0450 4140     		eors	r1, r1, r0
 743 0452 0A9A     		ldr	r2, [sp, #40]
 744 0454 5144     		add	r1, r1, r10
 745 0456 09EB7151 		add	r1, r9, r1, ror #21
 746 045a 9144     		add	r9, r9, r2
 747 045c 0D9A     		ldr	r2, [sp, #52]
 748 045e 9246     		mov	r10, r2
 749 0460 7A4A     		ldr	r2, .L14
 750 0462 4EEA032E 		orr	lr, lr, r3, lsl #8
 751              		.loc 1 127 0
 752 0466 219B     		ldr	r3, [sp, #132]
 753              		.loc 1 168 0
 754 0468 4FEABB5B 		ror	fp, fp, #22
 755 046c 5244     		add	r2, r10, r2
 756 046e 06EBF565 		add	r5, r6, r5, ror #27
 757              		.loc 1 127 0
 758 0472 1C43     		orrs	r4, r4, r3
 759 0474 1644     		add	r6, r6, r2
 760              		.loc 1 132 0
 761 0476 2E9B     		ldr	r3, [sp, #184]
 762              		.loc 1 169 0
 763 0478 6CEA0B02 		orn	r2, ip, fp
 764 047c 4FEAB757 		ror	r7, r7, #22
 765 0480 6A40     		eors	r2, r2, r5
 766 0482 1644     		add	r6, r6, r2
 767              		.loc 1 132 0
 768 0484 4EEA030E 		orr	lr, lr, r3
 769 0488 80EA0702 		eor	r2, r0, r7
 770              		.loc 1 127 0
 771 048c 229B     		ldr	r3, [sp, #136]
 772              		.loc 1 170 0
 773 048e 4A40     		eors	r2, r2, r1
 774 0490 4A44     		add	r2, r2, r9
 775              		.loc 1 127 0
 776 0492 44EA0369 		orr	r9, r4, r3, lsl #24
 777 0496 079C     		ldr	r4, [sp, #28]
 778 0498 CDF82C90 		str	r9, [sp, #44]
 779 049c A146     		mov	r9, r4
 780 049e 6B4C     		ldr	r4, .L14
 781              		.loc 1 132 0
 782 04a0 2F9B     		ldr	r3, [sp, #188]
 783              		.loc 1 169 0
 784 04a2 4FEABC5C 		ror	ip, ip, #22
 785 04a6 4C44     		add	r4, r9, r4
 786 04a8 08EB7666 		add	r6, r8, r6, ror #25
 787 04ac A044     		add	r8, r8, r4
 788              		.loc 1 170 0
 789 04ae 65EA0C04 		orn	r4, r5, ip
 790 04b2 4FEAB555 		ror	r5, r5, #22
 791 04b6 1795     		str	r5, [sp, #92]
 792              		.loc 1 132 0
ARM GAS  C:\Users\jo\AppData\Local\Temp\ccdgtuym.s 			page 15


 793 04b8 4EEA036E 		orr	lr, lr, r3, lsl #24
 794 04bc 0B9D     		ldr	r5, [sp, #44]
 795              		.loc 1 170 0
 796 04be 109B     		ldr	r3, [sp, #64]
 797              		.loc 1 132 0
 798 04c0 CDF83CE0 		str	lr, [sp, #60]
 799              		.loc 1 170 0
 800 04c4 4FEAB050 		ror	r0, r0, #22
 801 04c8 7440     		eors	r4, r4, r6
 802 04ca 03EBF242 		add	r2, r3, r2, ror #19
 803 04ce A044     		add	r8, r8, r4
 804 04d0 2B44     		add	r3, r3, r5
 805 04d2 81EA0004 		eor	r4, r1, r0
 806 04d6 0F9D     		ldr	r5, [sp, #60]
 807              		.loc 1 171 0
 808 04d8 5440     		eors	r4, r4, r2
 809 04da 05F1A14E 		add	lr, r5, #1350565888
 810 04de 2344     		add	r3, r3, r4
 811 04e0 179C     		ldr	r4, [sp, #92]
 812              		.loc 1 129 0
 813 04e2 269D     		ldr	r5, [sp, #152]
 814 04e4 0EF50A1E 		add	lr, lr, #2260992
 815              		.loc 1 170 0
 816 04e8 0BEB7868 		add	r8, fp, r8, ror #25
 817              		.loc 1 171 0
 818 04ec 66EA0404 		orn	r4, r6, r4
 819 04f0 0EF6E63E 		addw	lr, lr, #3046
 820 04f4 88EA0404 		eor	r4, r8, r4
 821 04f8 DE44     		add	lr, lr, fp
 822 04fa A644     		add	lr, lr, r4
 823 04fc 259C     		ldr	r4, [sp, #148]
 824              		.loc 1 129 0
 825 04fe 4FEA054A 		lsl	r10, r5, #16
 826 0502 4AEA042A 		orr	r10, r10, r4, lsl #8
 827 0506 0C9C     		ldr	r4, [sp, #48]
 828 0508 099D     		ldr	r5, [sp, #36]
 829              		.loc 1 171 0
 830 050a 07EBB343 		add	r3, r7, r3, ror #18
 831 050e 3C19     		adds	r4, r7, r4
 832 0510 4E4F     		ldr	r7, .L14
 833 0512 EF19     		adds	r7, r5, r7
 834              		.loc 1 129 0
 835 0514 279D     		ldr	r5, [sp, #156]
 836              		.loc 1 171 0
 837 0516 4FEAB151 		ror	r1, r1, #22
 838 051a 4FEAB656 		ror	r6, r6, #22
 839              		.loc 1 129 0
 840 051e 4AEA050A 		orr	r10, r10, r5
 841 0522 289D     		ldr	r5, [sp, #160]
 842              		.loc 1 171 0
 843 0524 0CEB3E6E 		add	lr, ip, lr, ror #24
 844              		.loc 1 172 0
 845 0528 68EA0609 		orn	r9, r8, r6
 846 052c 82EA010B 		eor	fp, r2, r1
 847 0530 8BEA030B 		eor	fp, fp, r3
 848 0534 BC44     		add	ip, ip, r7
 849 0536 8EEA0907 		eor	r7, lr, r9
ARM GAS  C:\Users\jo\AppData\Local\Temp\ccdgtuym.s 			page 16


 850              		.loc 1 129 0
 851 053a 4AEA0569 		orr	r9, r10, r5, lsl #24
 852 053e 4D46     		mov	r5, r9
 853              		.loc 1 172 0
 854 0540 5C44     		add	r4, r4, fp
 855 0542 00EB7444 		add	r4, r0, r4, ror #17
 856 0546 1095     		str	r5, [sp, #64]
 857 0548 2844     		add	r0, r0, r5
 858 054a 179D     		ldr	r5, [sp, #92]
 859 054c DFF8FCA0 		ldr	r10, .L14
 860 0550 DFF8F8B0 		ldr	fp, .L14
 861 0554 4FEAB252 		ror	r2, r2, #22
 862              	.LVL22:
 863 0558 6744     		add	r7, r7, ip
 864              	.LVL23:
 865 055a 05EB7757 		add	r7, r5, r7, ror #21
 866              	.LVL24:
 867 055e 83EA0209 		eor	r9, r3, r2
 868 0562 029D     		ldr	r5, [sp, #8]
 869              	.LVL25:
 870              		.loc 1 173 0
 871 0564 89EA0409 		eor	r9, r9, r4
 872 0568 4FEAB353 		ror	r3, r3, #22
 873              	.LVL26:
 874 056c AA44     		add	r10, r5, r10
 875 056e 4844     		add	r0, r0, r9
 876 0570 179D     		ldr	r5, [sp, #92]
 877 0572 1793     		str	r3, [sp, #92]
 878              	.LVL27:
 879 0574 84EA0309 		eor	r9, r4, r3
 880 0578 0D9B     		ldr	r3, [sp, #52]
 881 057a 01EBB060 		add	r0, r1, r0, ror #26
 882              		.loc 1 172 0
 883 057e 4FEAB858 		ror	r8, r8, #22
 884              	.LVL28:
 885 0582 5544     		add	r5, r5, r10
 886              	.LVL29:
 887 0584 1944     		add	r1, r1, r3
 888              	.LVL30:
 889 0586 DFF8C4A0 		ldr	r10, .L14
 890 058a 0B9B     		ldr	r3, [sp, #44]
 891              		.loc 1 173 0
 892 058c 6EEA080C 		orn	ip, lr, r8
 893 0590 87EA0C0C 		eor	ip, r7, ip
 894              		.loc 1 174 0
 895 0594 89EA0009 		eor	r9, r9, r0
 896 0598 9A44     		add	r10, r3, r10
 897 059a 4FEAB453 		ror	r3, r4, #22
 898 059e 0E9C     		ldr	r4, [sp, #56]
 899              	.LVL31:
 900 05a0 1893     		str	r3, [sp, #96]
 901              		.loc 1 173 0
 902 05a2 4FEABE5E 		ror	lr, lr, #22
 903              	.LVL32:
 904 05a6 6544     		add	r5, r5, ip
 905              	.LVL33:
 906              		.loc 1 174 0
ARM GAS  C:\Users\jo\AppData\Local\Temp\ccdgtuym.s 			page 17


 907 05a8 4944     		add	r1, r1, r9
 908              		.loc 1 173 0
 909 05aa 06EBB545 		add	r5, r6, r5, ror #18
 910              	.LVL34:
 911              		.loc 1 174 0
 912 05ae 67EA0E0C 		orn	ip, r7, lr
 913 05b2 02EB7161 		add	r1, r2, r1, ror #25
 914              	.LVL35:
 915 05b6 2244     		add	r2, r2, r4
 916              	.LVL36:
 917 05b8 049C     		ldr	r4, [sp, #16]
 918 05ba 85EA0C09 		eor	r9, r5, ip
 919 05be 80EA030C 		eor	ip, r0, r3
 920              		.loc 1 175 0
 921 05c2 8CEA010C 		eor	ip, ip, r1
 922 05c6 0F9B     		ldr	r3, [sp, #60]
 923              	.LVL37:
 924 05c8 A344     		add	fp, r4, fp
 925 05ca 179C     		ldr	r4, [sp, #92]
 926 05cc 5644     		add	r6, r6, r10
 927              	.LVL38:
 928 05ce 6244     		add	r2, r2, ip
 929 05d0 04EBF252 		add	r2, r4, r2, ror #23
 930              		.loc 1 174 0
 931 05d4 4FEAB757 		ror	r7, r7, #22
 932              	.LVL39:
 933 05d8 4E44     		add	r6, r6, r9
 934              	.LVL40:
 935 05da 1C44     		add	r4, r4, r3
 936 05dc 08EBB646 		add	r6, r8, r6, ror #18
 937              	.LVL41:
 938              		.loc 1 175 0
 939 05e0 65EA0709 		orn	r9, r5, r7
 940 05e4 4FEAB050 		ror	r0, r0, #22
 941              	.LVL42:
 942 05e8 2346     		mov	r3, r4
 943 05ea DFF860A0 		ldr	r10, .L14
 944 05ee 109C     		ldr	r4, [sp, #64]
 945 05f0 D844     		add	r8, r8, fp
 946              	.LVL43:
 947 05f2 81EA000C 		eor	ip, r1, r0
 948 05f6 86EA090B 		eor	fp, r6, r9
 949 05fa 4FEAB555 		ror	r5, r5, #22
 950              	.LVL44:
 951              		.loc 1 176 0
 952 05fe 8CEA020C 		eor	ip, ip, r2
 953 0602 A244     		add	r10, r4, r10
 954              		.loc 1 175 0
 955 0604 C344     		add	fp, fp, r8
 956              	.LVL45:
 957              		.loc 1 176 0
 958 0606 189C     		ldr	r4, [sp, #96]
 959              		.loc 1 175 0
 960 0608 0EEB3B5B 		add	fp, lr, fp, ror #20
 961              	.LVL46:
 962              		.loc 1 176 0
 963 060c 66EA0508 		orn	r8, r6, r5
ARM GAS  C:\Users\jo\AppData\Local\Temp\ccdgtuym.s 			page 18


 964 0610 6344     		add	r3, r3, ip
 965              	.LVL47:
 966 0612 04EB336C 		add	ip, r4, r3, ror #24
 967              	.LVL48:
 968 0616 D644     		add	lr, lr, r10
 969              	.LVL49:
 970 0618 4FEAB151 		ror	r1, r1, #22
 971              	.LVL50:
 972 061c 8BEA080A 		eor	r10, fp, r8
 973              		.loc 1 186 0
 974 0620 CDF85CC0 		str	ip, [sp, #92]
 975              		.loc 1 176 0
 976 0624 F244     		add	r10, r10, lr
 977              	.LVL51:
 978              		.loc 1 186 0
 979 0626 21EA0C0E 		bic	lr, r1, ip
 980 062a 0CEA020C 		and	ip, ip, r2
 981              	.LVL52:
 982 062e 079B     		ldr	r3, [sp, #28]
 983 0630 089C     		ldr	r4, [sp, #32]
 984 0632 DFF81C80 		ldr	r8, .L14+4
 985 0636 4EEA0C09 		orr	r9, lr, ip
 986 063a DFF818C0 		ldr	ip, .L14+8
 987              		.loc 1 176 0
 988 063e 07EBBA6A 		add	r10, r7, r10, ror #26
 989              	.LVL53:
 990 0642 4FEAB656 		ror	r6, r6, #22
 991              	.LVL54:
 992 0646 9C44     		add	ip, r3, ip
 993 0648 06E0     		b	.L15
 994              	.L16:
 995 064a 00BF     		.align	2
 996              	.L14:
 997 064c E68BA250 		.word	1352829926
 998 0650 9979825A 		.word	1518500249
 999 0654 24D14D5C 		.word	1548603684
 1000              	.L15:
 1001 0658 A044     		add	r8, r4, r8
 1002              		.loc 1 186 0
 1003 065a 0AEA060E 		and	lr, r10, r6
 1004 065e 189C     		ldr	r4, [sp, #96]
 1005 0660 0C9B     		ldr	r3, [sp, #48]
 1006 0662 6744     		add	r7, r7, ip
 1007              	.LVL55:
 1008 0664 2BEA060C 		bic	ip, fp, r6
 1009 0668 4EEA0C0E 		orr	lr, lr, ip
 1010 066c 4444     		add	r4, r4, r8
 1011              	.LVL56:
 1012 066e 07EB0E0C 		add	ip, r7, lr
 1013 0672 DFF8D083 		ldr	r8, .L17
 1014 0676 059F     		ldr	r7, [sp, #20]
 1015 0678 A144     		add	r9, r9, r4
 1016              	.LVL57:
 1017 067a B844     		add	r8, r7, r8
 1018 067c 00EB7969 		add	r9, r0, r9, ror #25
 1019              	.LVL58:
 1020 0680 8044     		add	r8, r8, r0
ARM GAS  C:\Users\jo\AppData\Local\Temp\ccdgtuym.s 			page 19


 1021 0682 03F1B840 		add	r0, r3, #1543503872
 1022              	.LVL59:
 1023              		.loc 1 187 0
 1024 0686 179C     		ldr	r4, [sp, #92]
 1025 0688 179B     		ldr	r3, [sp, #92]
 1026 068a 00F59B00 		add	r0, r0, #5079040
 1027              		.loc 1 186 0
 1028 068e 4FEAB252 		ror	r2, r2, #22
 1029              	.LVL60:
 1030 0692 00F5A240 		add	r0, r0, #20736
 1031              		.loc 1 187 0
 1032 0696 22EA0907 		bic	r7, r2, r9
 1033              		.loc 1 186 0
 1034 069a 05EBFC5C 		add	ip, r5, ip, ror #23
 1035              	.LVL61:
 1036 069e 4FEABB5B 		ror	fp, fp, #22
 1037              	.LVL62:
 1038              		.loc 1 187 0
 1039 06a2 09EA0404 		and	r4, r9, r4
 1040 06a6 2430     		adds	r0, r0, #36
 1041 06a8 47EA040E 		orr	lr, r7, r4
 1042 06ac 2844     		add	r0, r0, r5
 1043 06ae 0CEA0B07 		and	r7, ip, fp
 1044 06b2 2AEA0B05 		bic	r5, r10, fp
 1045              	.LVL63:
 1046 06b6 2F43     		orrs	r7, r7, r5
 1047 06b8 C519     		adds	r5, r0, r7
 1048 06ba C644     		add	lr, lr, r8
 1049              	.LVL64:
 1050 06bc 0D98     		ldr	r0, [sp, #52]
 1051 06be E14F     		ldr	r7, .L17
 1052 06c0 01EBBE6E 		add	lr, r1, lr, ror #26
 1053              	.LVL65:
 1054 06c4 4FEAB353 		ror	r3, r3, #22
 1055              	.LVL66:
 1056              		.loc 1 188 0
 1057 06c8 23EA0E08 		bic	r8, r3, lr
 1058 06cc 0EEA0904 		and	r4, lr, r9
 1059 06d0 C719     		adds	r7, r0, r7
 1060 06d2 3944     		add	r1, r1, r7
 1061              	.LVL67:
 1062 06d4 48EA0400 		orr	r0, r8, r4
 1063 06d8 049F     		ldr	r7, [sp, #16]
 1064 06da DB4C     		ldr	r4, .L17+4
 1065              		.loc 1 187 0
 1066 06dc 06EBF545 		add	r5, r6, r5, ror #19
 1067              	.LVL68:
 1068 06e0 4FEABA5A 		ror	r10, r10, #22
 1069              	.LVL69:
 1070 06e4 3C19     		adds	r4, r7, r4
 1071              		.loc 1 188 0
 1072 06e6 05EA0A08 		and	r8, r5, r10
 1073 06ea 2644     		add	r6, r6, r4
 1074              	.LVL70:
 1075 06ec 2CEA0A04 		bic	r4, ip, r10
 1076 06f0 48EA0407 		orr	r7, r8, r4
 1077 06f4 F419     		adds	r4, r6, r7
ARM GAS  C:\Users\jo\AppData\Local\Temp\ccdgtuym.s 			page 20


 1078 06f6 0844     		add	r0, r0, r1
 1079              	.LVL71:
 1080 06f8 029E     		ldr	r6, [sp, #8]
 1081 06fa DFF84883 		ldr	r8, .L17
 1082 06fe 02EB3060 		add	r0, r2, r0, ror #24
 1083              	.LVL72:
 1084 0702 4FEAB959 		ror	r9, r9, #22
 1085              	.LVL73:
 1086              		.loc 1 189 0
 1087 0706 00EA0E01 		and	r1, r0, lr
 1088 070a B044     		add	r8, r6, r8
 1089 070c 29EA0006 		bic	r6, r9, r0
 1090 0710 46EA0107 		orr	r7, r6, r1
 1091 0714 089E     		ldr	r6, [sp, #32]
 1092 0716 CB49     		ldr	r1, .L17
 1093 0718 4244     		add	r2, r2, r8
 1094              	.LVL74:
 1095 071a 06F1B848 		add	r8, r6, #1543503872
 1096 071e 08F59B08 		add	r8, r8, #5079040
 1097 0722 08F5A248 		add	r8, r8, #20736
 1098              		.loc 1 188 0
 1099 0726 0BEB7444 		add	r4, fp, r4, ror #17
 1100              	.LVL75:
 1101 072a 4FEABC5C 		ror	ip, ip, #22
 1102              	.LVL76:
 1103 072e 08F12408 		add	r8, r8, #36
 1104              		.loc 1 189 0
 1105 0732 04EA0C06 		and	r6, r4, ip
 1106 0736 C344     		add	fp, fp, r8
 1107              	.LVL77:
 1108 0738 25EA0C08 		bic	r8, r5, ip
 1109 073c 46EA0806 		orr	r6, r6, r8
 1110 0740 0BEB0608 		add	r8, fp, r6
 1111 0744 0B9E     		ldr	r6, [sp, #44]
 1112 0746 1744     		add	r7, r7, r2
 1113              	.LVL78:
 1114 0748 7118     		adds	r1, r6, r1
 1115 074a 03EBF747 		add	r7, r3, r7, ror #19
 1116              	.LVL79:
 1117 074e 4FEABE5E 		ror	lr, lr, #22
 1118              	.LVL80:
 1119 0752 1944     		add	r1, r1, r3
 1120 0754 019B     		ldr	r3, [sp, #4]
 1121              	.LVL81:
 1122              		.loc 1 190 0
 1123 0756 2EEA070B 		bic	fp, lr, r7
 1124 075a 07EA0002 		and	r2, r7, r0
 1125 075e 4BEA0206 		orr	r6, fp, r2
 1126 0762 9B46     		mov	fp, r3
 1127 0764 B84B     		ldr	r3, .L17+4
 1128              		.loc 1 189 0
 1129 0766 4FEAB555 		ror	r5, r5, #22
 1130              	.LVL82:
 1131 076a 0AEB7868 		add	r8, r10, r8, ror #25
 1132              	.LVL83:
 1133 076e 5B44     		add	r3, fp, r3
 1134 0770 9A44     		add	r10, r10, r3
ARM GAS  C:\Users\jo\AppData\Local\Temp\ccdgtuym.s 			page 21


 1135              	.LVL84:
 1136              		.loc 1 190 0
 1137 0772 08EA050B 		and	fp, r8, r5
 1138 0776 24EA0503 		bic	r3, r4, r5
 1139 077a 0E44     		add	r6, r6, r1
 1140              	.LVL85:
 1141 077c 4BEA0301 		orr	r1, fp, r3
 1142 0780 09EB7656 		add	r6, r9, r6, ror #21
 1143              	.LVL86:
 1144 0784 4FEAB050 		ror	r0, r0, #22
 1145              	.LVL87:
 1146 0788 0AEB0103 		add	r3, r10, r1
 1147              	.LVL88:
 1148 078c DFF8B4B2 		ldr	fp, .L17
 1149 0790 0799     		ldr	r1, [sp, #28]
 1150              		.loc 1 191 0
 1151 0792 20EA060A 		bic	r10, r0, r6
 1152 0796 06EA0702 		and	r2, r6, r7
 1153 079a 8B44     		add	fp, r1, fp
 1154 079c 4AEA0201 		orr	r1, r10, r2
 1155 07a0 0D9A     		ldr	r2, [sp, #52]
 1156 07a2 9246     		mov	r10, r2
 1157 07a4 A84A     		ldr	r2, .L17+4
 1158              		.loc 1 190 0
 1159 07a6 0CEB3353 		add	r3, ip, r3, ror #20
 1160              	.LVL89:
 1161 07aa 4FEAB454 		ror	r4, r4, #22
 1162              	.LVL90:
 1163 07ae 5244     		add	r2, r10, r2
 1164              		.loc 1 191 0
 1165 07b0 1794     		str	r4, [sp, #92]
 1166 07b2 D944     		add	r9, r9, fp
 1167              	.LVL91:
 1168 07b4 03EA040A 		and	r10, r3, r4
 1169 07b8 9444     		add	ip, ip, r2
 1170              	.LVL92:
 1171 07ba DFF888B2 		ldr	fp, .L17
 1172 07be 28EA0402 		bic	r2, r8, r4
 1173 07c2 0F9C     		ldr	r4, [sp, #60]
 1174              	.LVL93:
 1175 07c4 A344     		add	fp, r4, fp
 1176 07c6 069C     		ldr	r4, [sp, #24]
 1177 07c8 4944     		add	r1, r1, r9
 1178              	.LVL94:
 1179 07ca 0EEBF151 		add	r1, lr, r1, ror #23
 1180              	.LVL95:
 1181 07ce 4FEAB757 		ror	r7, r7, #22
 1182              	.LVL96:
 1183 07d2 F344     		add	fp, fp, lr
 1184 07d4 4AEA020A 		orr	r10, r10, r2
 1185 07d8 04F1B84E 		add	lr, r4, #1543503872
 1186              	.LVL97:
 1187 07dc 0CEB0A02 		add	r2, ip, r10
 1188              	.LVL98:
 1189 07e0 0EF59B0E 		add	lr, lr, #5079040
 1190              		.loc 1 192 0
 1191 07e4 27EA010C 		bic	ip, r7, r1
ARM GAS  C:\Users\jo\AppData\Local\Temp\ccdgtuym.s 			page 22


 1192 07e8 01EA060A 		and	r10, r1, r6
 1193 07ec 049C     		ldr	r4, [sp, #16]
 1194 07ee 4CEA0A09 		orr	r9, ip, r10
 1195 07f2 0EF5A24E 		add	lr, lr, #20736
 1196 07f6 DFF84CA2 		ldr	r10, .L17
 1197              		.loc 1 191 0
 1198 07fa 05EB3262 		add	r2, r5, r2, ror #24
 1199              	.LVL99:
 1200 07fe 4FEAB858 		ror	r8, r8, #22
 1201              	.LVL100:
 1202 0802 0EF1240E 		add	lr, lr, #36
 1203              		.loc 1 192 0
 1204 0806 02EA080C 		and	ip, r2, r8
 1205 080a AE44     		add	lr, lr, r5
 1206 080c D944     		add	r9, r9, fp
 1207              	.LVL101:
 1208 080e 23EA0805 		bic	r5, r3, r8
 1209              	.LVL102:
 1210 0812 A244     		add	r10, r4, r10
 1211 0814 00EB7969 		add	r9, r0, r9, ror #25
 1212              	.LVL103:
 1213 0818 4FEAB656 		ror	r6, r6, #22
 1214              	.LVL104:
 1215 081c 8244     		add	r10, r10, r0
 1216 081e 4CEA050C 		orr	ip, ip, r5
 1217 0822 0B98     		ldr	r0, [sp, #44]
 1218              	.LVL105:
 1219 0824 179C     		ldr	r4, [sp, #92]
 1220              		.loc 1 193 0
 1221 0826 26EA090B 		bic	fp, r6, r9
 1222              		.loc 1 192 0
 1223 082a 0EEB0C05 		add	r5, lr, ip
 1224              	.LVL106:
 1225              		.loc 1 193 0
 1226 082e 09EA010E 		and	lr, r9, r1
 1227 0832 4BEA0E0C 		orr	ip, fp, lr
 1228 0836 8646     		mov	lr, r0
 1229 0838 8348     		ldr	r0, .L17+4
 1230              		.loc 1 192 0
 1231 083a 04EBF555 		add	r5, r4, r5, ror #23
 1232              	.LVL107:
 1233 083e 4FEAB353 		ror	r3, r3, #22
 1234              	.LVL108:
 1235 0842 7044     		add	r0, lr, r0
 1236              		.loc 1 193 0
 1237 0844 05EA030B 		and	fp, r5, r3
 1238 0848 0444     		add	r4, r4, r0
 1239 084a 22EA0300 		bic	r0, r2, r3
 1240 084e D444     		add	ip, ip, r10
 1241              	.LVL109:
 1242 0850 4BEA000A 		orr	r10, fp, r0
 1243 0854 04EB0A00 		add	r0, r4, r10
 1244 0858 DFF8E8B1 		ldr	fp, .L17
 1245 085c 109C     		ldr	r4, [sp, #64]
 1246 085e A344     		add	fp, r4, fp
 1247 0860 07EB7C4C 		add	ip, r7, ip, ror #17
 1248              	.LVL110:
ARM GAS  C:\Users\jo\AppData\Local\Temp\ccdgtuym.s 			page 23


 1249 0864 0E9C     		ldr	r4, [sp, #56]
 1250 0866 5F44     		add	r7, r7, fp
 1251              	.LVL111:
 1252 0868 DFF8DCB1 		ldr	fp, .L17+4
 1253 086c 4FEAB151 		ror	r1, r1, #22
 1254              	.LVL112:
 1255 0870 08EB7050 		add	r0, r8, r0, ror #21
 1256              	.LVL113:
 1257 0874 4FEAB252 		ror	r2, r2, #22
 1258              	.LVL114:
 1259 0878 A344     		add	fp, r4, fp
 1260              		.loc 1 194 0
 1261 087a 0CEA090A 		and	r10, ip, r9
 1262 087e 21EA0C0E 		bic	lr, r1, ip
 1263 0882 00EA0204 		and	r4, r0, r2
 1264 0886 D844     		add	r8, r8, fp
 1265              	.LVL115:
 1266 0888 25EA020B 		bic	fp, r5, r2
 1267 088c 4EEA0A0E 		orr	lr, lr, r10
 1268 0890 44EA0B04 		orr	r4, r4, fp
 1269 0894 08EB040B 		add	fp, r8, r4
 1270 0898 BE44     		add	lr, lr, r7
 1271              	.LVL116:
 1272 089a 019C     		ldr	r4, [sp, #4]
 1273 089c 694F     		ldr	r7, .L17
 1274 089e E719     		adds	r7, r4, r7
 1275 08a0 06EB7E6E 		add	lr, r6, lr, ror #25
 1276              	.LVL117:
 1277 08a4 3E44     		add	r6, r6, r7
 1278              	.LVL118:
 1279 08a6 0F9F     		ldr	r7, [sp, #60]
 1280 08a8 B846     		mov	r8, r7
 1281 08aa 674F     		ldr	r7, .L17+4
 1282 08ac 4FEAB555 		ror	r5, r5, #22
 1283              	.LVL119:
 1284 08b0 03EB7B6B 		add	fp, r3, fp, ror #25
 1285 08b4 4FEAB959 		ror	r9, r9, #22
 1286              	.LVL120:
 1287 08b8 4744     		add	r7, r8, r7
 1288              		.loc 1 195 0
 1289 08ba 0EEA0C04 		and	r4, lr, ip
 1290 08be 29EA0E0A 		bic	r10, r9, lr
 1291 08c2 0BEA0508 		and	r8, fp, r5
 1292 08c6 3B44     		add	r3, r3, r7
 1293              	.LVL121:
 1294 08c8 20EA0507 		bic	r7, r0, r5
 1295 08cc 4AEA040A 		orr	r10, r10, r4
 1296 08d0 48EA0708 		orr	r8, r8, r7
 1297 08d4 03EB0807 		add	r7, r3, r8
 1298 08d8 B244     		add	r10, r10, r6
 1299              	.LVL122:
 1300 08da 0A9B     		ldr	r3, [sp, #40]
 1301 08dc 594E     		ldr	r6, .L17
 1302 08de 9E19     		adds	r6, r3, r6
 1303 08e0 01EB3A5A 		add	r10, r1, r10, ror #20
 1304              	.LVL123:
 1305 08e4 4FEABC5C 		ror	ip, ip, #22
ARM GAS  C:\Users\jo\AppData\Local\Temp\ccdgtuym.s 			page 24


 1306              	.LVL124:
 1307 08e8 0E44     		add	r6, r6, r1
 1308 08ea 0999     		ldr	r1, [sp, #36]
 1309              	.LVL125:
 1310              		.loc 1 196 0
 1311 08ec 2CEA0A08 		bic	r8, ip, r10
 1312 08f0 0AEA0E04 		and	r4, r10, lr
 1313 08f4 48EA0403 		orr	r3, r8, r4
 1314 08f8 8846     		mov	r8, r1
 1315 08fa 5349     		ldr	r1, .L17+4
 1316              		.loc 1 195 0
 1317 08fc 02EB7767 		add	r7, r2, r7, ror #25
 1318              	.LVL126:
 1319 0900 4FEAB050 		ror	r0, r0, #22
 1320              	.LVL127:
 1321 0904 4144     		add	r1, r8, r1
 1322 0906 0A44     		add	r2, r2, r1
 1323              	.LVL128:
 1324              		.loc 1 196 0
 1325 0908 07EA0008 		and	r8, r7, r0
 1326 090c 2BEA0001 		bic	r1, fp, r0
 1327 0910 48EA0108 		orr	r8, r8, r1
 1328 0914 02EB0801 		add	r1, r2, r8
 1329 0918 3344     		add	r3, r3, r6
 1330              	.LVL129:
 1331 091a 069A     		ldr	r2, [sp, #24]
 1332 091c 494E     		ldr	r6, .L17
 1333 091e 9619     		adds	r6, r2, r6
 1334 0920 09EB7343 		add	r3, r9, r3, ror #17
 1335              	.LVL130:
 1336 0924 4FEABE5E 		ror	lr, lr, #22
 1337              	.LVL131:
 1338 0928 B144     		add	r9, r9, r6
 1339              	.LVL132:
 1340 092a 109E     		ldr	r6, [sp, #64]
 1341              		.loc 1 197 0
 1342 092c 2EEA0308 		bic	r8, lr, r3
 1343 0930 03EA0A04 		and	r4, r3, r10
 1344 0934 48EA0402 		orr	r2, r8, r4
 1345 0938 B046     		mov	r8, r6
 1346 093a 434E     		ldr	r6, .L17+4
 1347              		.loc 1 196 0
 1348 093c 05EB3151 		add	r1, r5, r1, ror #20
 1349              	.LVL133:
 1350 0940 4FEABB5B 		ror	fp, fp, #22
 1351              	.LVL134:
 1352 0944 4644     		add	r6, r8, r6
 1353 0946 7419     		adds	r4, r6, r5
 1354              		.loc 1 197 0
 1355 0948 01EA0B08 		and	r8, r1, fp
 1356 094c 27EA0B05 		bic	r5, r7, fp
 1357              	.LVL135:
 1358 0950 48EA0506 		orr	r6, r8, r5
 1359 0954 A519     		adds	r5, r4, r6
 1360 0956 039E     		ldr	r6, [sp, #12]
 1361 0958 4A44     		add	r2, r2, r9
 1362              	.LVL136:
ARM GAS  C:\Users\jo\AppData\Local\Temp\ccdgtuym.s 			page 25


 1363 095a B046     		mov	r8, r6
 1364 095c 394E     		ldr	r6, .L17
 1365 095e 0CEBF252 		add	r2, ip, r2, ror #23
 1366              	.LVL137:
 1367 0962 4FEABA5A 		ror	r10, r10, #22
 1368              	.LVL138:
 1369              		.loc 1 198 0
 1370 0966 02EA0304 		and	r4, r2, r3
 1371 096a 4644     		add	r6, r8, r6
 1372 096c 2AEA0208 		bic	r8, r10, r2
 1373 0970 B444     		add	ip, ip, r6
 1374              	.LVL139:
 1375 0972 48EA0409 		orr	r9, r8, r4
 1376 0976 059E     		ldr	r6, [sp, #20]
 1377 0978 334C     		ldr	r4, .L17+4
 1378              		.loc 1 197 0
 1379 097a 00EB7565 		add	r5, r0, r5, ror #25
 1380              	.LVL140:
 1381 097e 4FEAB757 		ror	r7, r7, #22
 1382              	.LVL141:
 1383 0982 3419     		adds	r4, r6, r4
 1384              		.loc 1 198 0
 1385 0984 05EA0708 		and	r8, r5, r7
 1386 0988 4FEAB356 		ror	r6, r3, #22
 1387 098c 2044     		add	r0, r0, r4
 1388              	.LVL142:
 1389 098e 0E9B     		ldr	r3, [sp, #56]
 1390              	.LVL143:
 1391 0990 21EA0704 		bic	r4, r1, r7
 1392 0994 E144     		add	r9, r9, ip
 1393              	.LVL144:
 1394 0996 0EEB7959 		add	r9, lr, r9, ror #21
 1395              	.LVL145:
 1396 099a 48EA0408 		orr	r8, r8, r4
 1397 099e 00EB0804 		add	r4, r0, r8
 1398              	.LVL146:
 1399 09a2 03F1B54C 		add	ip, r3, #1518338048
 1400              		.loc 1 199 0
 1401 09a6 26EA0908 		bic	r8, r6, r9
 1402 09aa 09EA0203 		and	r3, r9, r2
 1403 09ae 48EA0300 		orr	r0, r8, r3
 1404 09b2 0A9B     		ldr	r3, [sp, #40]
 1405 09b4 DFF89080 		ldr	r8, .L17+4
 1406 09b8 0CF51E3C 		add	ip, ip, #161792
 1407              		.loc 1 198 0
 1408 09bc 4FEAB151 		ror	r1, r1, #22
 1409              	.LVL147:
 1410 09c0 0BEBB464 		add	r4, fp, r4, ror #26
 1411              	.LVL148:
 1412 09c4 9844     		add	r8, r3, r8
 1413 09c6 0CF2991C 		addw	ip, ip, #409
 1414 09ca E644     		add	lr, lr, ip
 1415              	.LVL149:
 1416 09cc C344     		add	fp, fp, r8
 1417              	.LVL150:
 1418              		.loc 1 199 0
 1419 09ce 04EA010C 		and	ip, r4, r1
ARM GAS  C:\Users\jo\AppData\Local\Temp\ccdgtuym.s 			page 26


 1420 09d2 25EA0108 		bic	r8, r5, r1
 1421 09d6 4CEA080C 		orr	ip, ip, r8
 1422 09da 4FEAB253 		ror	r3, r2, #22
 1423 09de 0BEB0C08 		add	r8, fp, ip
 1424 09e2 0C9A     		ldr	r2, [sp, #48]
 1425              	.LVL151:
 1426 09e4 DFF85CC0 		ldr	ip, .L17
 1427              		.loc 1 200 0
 1428 09e8 1793     		str	r3, [sp, #92]
 1429              		.loc 1 199 0
 1430 09ea 7044     		add	r0, r0, lr
 1431              	.LVL152:
 1432 09ec 0AEB7060 		add	r0, r10, r0, ror #25
 1433              	.LVL153:
 1434 09f0 9444     		add	ip, r2, ip
 1435              		.loc 1 200 0
 1436 09f2 23EA0002 		bic	r2, r3, r0
 1437 09f6 00EA0903 		and	r3, r0, r9
 1438              	.LVL154:
 1439 09fa 1343     		orrs	r3, r3, r2
 1440 09fc 029A     		ldr	r2, [sp, #8]
 1441 09fe 02F1B84E 		add	lr, r2, #1543503872
 1442 0a02 0EF59B0E 		add	lr, lr, #5079040
 1443 0a06 D444     		add	ip, ip, r10
 1444 0a08 0EF5A24E 		add	lr, lr, #20736
 1445              		.loc 1 199 0
 1446 0a0c 07EB7848 		add	r8, r7, r8, ror #17
 1447              	.LVL155:
 1448 0a10 4FEAB555 		ror	r5, r5, #22
 1449              	.LVL156:
 1450 0a14 0EF1240E 		add	lr, lr, #36
 1451              		.loc 1 200 0
 1452 0a18 9C44     		add	ip, ip, r3
 1453              	.LVL157:
 1454 0a1a 08EA050B 		and	fp, r8, r5
 1455 0a1e 06EBFC4C 		add	ip, r6, ip, ror #19
 1456              	.LVL158:
 1457 0a22 7744     		add	r7, r7, lr
 1458              	.LVL159:
 1459 0a24 4FEAB959 		ror	r9, r9, #22
 1460              	.LVL160:
 1461 0a28 24EA050E 		bic	lr, r4, r5
 1462 0a2c 4A46     		mov	r2, r9
 1463              	.LVL161:
 1464 0a2e 4BEA0E0E 		orr	lr, fp, lr
 1465              		.loc 1 201 0
 1466 0a32 6FEA0C09 		mvn	r9, ip
 1467 0a36 1892     		str	r2, [sp, #96]
 1468 0a38 09EA020B 		and	fp, r9, r2
 1469              		.loc 1 200 0
 1470 0a3c BE44     		add	lr, lr, r7
 1471 0a3e 039A     		ldr	r2, [sp, #12]
 1472 0a40 04E0     		b	.L18
 1473              	.L19:
 1474 0a42 00BF     		.align	2
 1475              	.L17:
 1476 0a44 9979825A 		.word	1518500249
ARM GAS  C:\Users\jo\AppData\Local\Temp\ccdgtuym.s 			page 27


 1477 0a48 24D14D5C 		.word	1548603684
 1478              	.L18:
 1479              	.LVL162:
 1480 0a4c 099F     		ldr	r7, [sp, #36]
 1481              	.LVL163:
 1482 0a4e DE4B     		ldr	r3, .L20
 1483 0a50 9246     		mov	r10, r2
 1484 0a52 FB18     		adds	r3, r7, r3
 1485 0a54 DD4A     		ldr	r2, .L20+4
 1486              		.loc 1 201 0
 1487 0a56 0CEA0007 		and	r7, ip, r0
 1488              		.loc 1 200 0
 1489 0a5a 01EBFE4E 		add	lr, r1, lr, ror #19
 1490              	.LVL164:
 1491 0a5e 4FEAB454 		ror	r4, r4, #22
 1492              	.LVL165:
 1493              		.loc 1 201 0
 1494 0a62 4BEA0707 		orr	r7, fp, r7
 1495 0a66 3344     		add	r3, r3, r6
 1496              	.LVL166:
 1497 0a68 5244     		add	r2, r10, r2
 1498 0a6a 28EA0406 		bic	r6, r8, r4
 1499 0a6e 0EEA040A 		and	r10, lr, r4
 1500 0a72 3B44     		add	r3, r3, r7
 1501              	.LVL167:
 1502 0a74 179F     		ldr	r7, [sp, #92]
 1503 0a76 DFF85CB3 		ldr	fp, .L20+12
 1504 0a7a 4AEA0606 		orr	r6, r10, r6
 1505 0a7e 0A44     		add	r2, r2, r1
 1506 0a80 07EB3353 		add	r3, r7, r3, ror #20
 1507              	.LVL168:
 1508 0a84 9119     		adds	r1, r2, r6
 1509              	.LVL169:
 1510 0a86 049F     		ldr	r7, [sp, #16]
 1511 0a88 D14A     		ldr	r2, .L20+8
 1512 0a8a BA18     		adds	r2, r7, r2
 1513 0a8c 0F9F     		ldr	r7, [sp, #60]
 1514 0a8e 07EB0B06 		add	r6, r7, fp
 1515 0a92 179F     		ldr	r7, [sp, #92]
 1516 0a94 05EB7151 		add	r1, r5, r1, ror #21
 1517 0a98 4FEAB858 		ror	r8, r8, #22
 1518              	.LVL170:
 1519 0a9c 3A44     		add	r2, r2, r7
 1520              		.loc 1 211 0
 1521 0a9e 61EA0E07 		orn	r7, r1, lr
 1522              		.loc 1 201 0
 1523 0aa2 4FEAB050 		ror	r0, r0, #22
 1524              	.LVL171:
 1525              		.loc 1 211 0
 1526 0aa6 87EA0807 		eor	r7, r7, r8
 1527 0aaa 43EA0909 		orr	r9, r3, r9
 1528              	.LVL172:
 1529 0aae 3544     		add	r5, r5, r6
 1530              	.LVL173:
 1531 0ab0 89EA0009 		eor	r9, r9, r0
 1532 0ab4 3D44     		add	r5, r5, r7
 1533 0ab6 189F     		ldr	r7, [sp, #96]
ARM GAS  C:\Users\jo\AppData\Local\Temp\ccdgtuym.s 			page 28


 1534 0ab8 069E     		ldr	r6, [sp, #24]
 1535 0aba 9144     		add	r9, r9, r2
 1536 0abc 07EB7959 		add	r9, r7, r9, ror #21
 1537              	.LVL174:
 1538 0ac0 0B9F     		ldr	r7, [sp, #44]
 1539 0ac2 07F1DD4A 		add	r10, r7, #1853882368
 1540 0ac6 0AF5B30A 		add	r10, r10, #5865472
 1541 0aca 189F     		ldr	r7, [sp, #96]
 1542 0acc 0AF5D74A 		add	r10, r10, #27520
 1543 0ad0 04EBF555 		add	r5, r4, r5, ror #23
 1544 0ad4 0AF1210A 		add	r10, r10, #33
 1545 0ad8 4FEABE5E 		ror	lr, lr, #22
 1546              	.LVL175:
 1547 0adc 5E44     		add	r6, r6, fp
 1548 0ade BA44     		add	r10, r10, r7
 1549              		.loc 1 212 0
 1550 0ae0 65EA0107 		orn	r7, r5, r1
 1551 0ae4 87EA0E07 		eor	r7, r7, lr
 1552 0ae8 3444     		add	r4, r4, r6
 1553              	.LVL176:
 1554 0aea 3C44     		add	r4, r4, r7
 1555 0aec 0E9F     		ldr	r7, [sp, #56]
 1556 0aee 029E     		ldr	r6, [sp, #8]
 1557              		.loc 1 211 0
 1558 0af0 4FEABC5C 		ror	ip, ip, #22
 1559              	.LVL177:
 1560              		.loc 1 212 0
 1561 0af4 69EA0302 		orn	r2, r9, r3
 1562 0af8 82EA0C02 		eor	r2, r2, ip
 1563 0afc 07F1DD47 		add	r7, r7, #1853882368
 1564 0b00 9244     		add	r10, r10, r2
 1565              	.LVL178:
 1566 0b02 07F5B307 		add	r7, r7, #5865472
 1567 0b06 00EBFA4A 		add	r10, r0, r10, ror #19
 1568              	.LVL179:
 1569 0b0a 07F5D747 		add	r7, r7, #27520
 1570 0b0e 4FEAB353 		ror	r3, r3, #22
 1571              	.LVL180:
 1572              		.loc 1 213 0
 1573 0b12 6AEA0902 		orn	r2, r10, r9
 1574 0b16 2137     		adds	r7, r7, #33
 1575              		.loc 1 212 0
 1576 0b18 08EB7464 		add	r4, r8, r4, ror #25
 1577              	.LVL181:
 1578              		.loc 1 213 0
 1579 0b1c 5A40     		eors	r2, r2, r3
 1580 0b1e 3844     		add	r0, r0, r7
 1581              	.LVL182:
 1582              		.loc 1 212 0
 1583 0b20 4FEAB151 		ror	r1, r1, #22
 1584              	.LVL183:
 1585              		.loc 1 213 0
 1586 0b24 64EA0507 		orn	r7, r4, r5
 1587 0b28 5E44     		add	r6, r6, fp
 1588 0b2a 1044     		add	r0, r0, r2
 1589              	.LVL184:
 1590 0b2c B044     		add	r8, r8, r6
ARM GAS  C:\Users\jo\AppData\Local\Temp\ccdgtuym.s 			page 29


 1591              	.LVL185:
 1592 0b2e 87EA0106 		eor	r6, r7, r1
 1593 0b32 0CEBB067 		add	r7, ip, r0, ror #26
 1594              	.LVL186:
 1595 0b36 4FEAB550 		ror	r0, r5, #22
 1596 0b3a 049D     		ldr	r5, [sp, #16]
 1597              	.LVL187:
 1598 0b3c 059A     		ldr	r2, [sp, #20]
 1599 0b3e 1790     		str	r0, [sp, #92]
 1600 0b40 B044     		add	r8, r8, r6
 1601 0b42 A34E     		ldr	r6, .L20+8
 1602 0b44 05EB0B00 		add	r0, r5, fp
 1603 0b48 0EEB7848 		add	r8, lr, r8, ror #17
 1604 0b4c 9619     		adds	r6, r2, r6
 1605 0b4e 8644     		add	lr, lr, r0
 1606              	.LVL188:
 1607              		.loc 1 214 0
 1608 0b50 1798     		ldr	r0, [sp, #92]
 1609 0b52 0A9D     		ldr	r5, [sp, #40]
 1610 0b54 B444     		add	ip, ip, r6
 1611              	.LVL189:
 1612 0b56 68EA0406 		orn	r6, r8, r4
 1613 0b5a 7040     		eors	r0, r0, r6
 1614 0b5c 9C4E     		ldr	r6, .L20+8
 1615              		.loc 1 213 0
 1616 0b5e 4FEAB959 		ror	r9, r9, #22
 1617              	.LVL190:
 1618              		.loc 1 214 0
 1619 0b62 67EA0A02 		orn	r2, r7, r10
 1620 0b66 82EA0902 		eor	r2, r2, r9
 1621 0b6a AE19     		adds	r6, r5, r6
 1622 0b6c 089D     		ldr	r5, [sp, #32]
 1623 0b6e 9444     		add	ip, ip, r2
 1624              	.LVL191:
 1625 0b70 7044     		add	r0, r0, lr
 1626 0b72 03EB7C6C 		add	ip, r3, ip, ror #25
 1627              	.LVL192:
 1628 0b76 01EB7050 		add	r0, r1, r0, ror #21
 1629 0b7a AE46     		mov	lr, r5
 1630 0b7c 4FEABA5A 		ror	r10, r10, #22
 1631              	.LVL193:
 1632 0b80 0F9D     		ldr	r5, [sp, #60]
 1633              		.loc 1 215 0
 1634 0b82 6CEA0702 		orn	r2, ip, r7
 1635              		.loc 1 214 0
 1636 0b86 4FEAB454 		ror	r4, r4, #22
 1637              	.LVL194:
 1638 0b8a DE44     		add	lr, lr, fp
 1639 0b8c 3344     		add	r3, r3, r6
 1640              	.LVL195:
 1641              		.loc 1 215 0
 1642 0b8e 60EA0806 		orn	r6, r0, r8
 1643 0b92 82EA0A02 		eor	r2, r2, r10
 1644 0b96 7144     		add	r1, r1, lr
 1645              	.LVL196:
 1646 0b98 86EA040E 		eor	lr, r6, r4
 1647 0b9c 1344     		add	r3, r3, r2
ARM GAS  C:\Users\jo\AppData\Local\Temp\ccdgtuym.s 			page 30


 1648              	.LVL197:
 1649 0b9e 7144     		add	r1, r1, lr
 1650 0ba0 05F1DD4E 		add	lr, r5, #1853882368
 1651 0ba4 09EBB346 		add	r6, r9, r3, ror #18
 1652              	.LVL198:
 1653 0ba8 0EF5B30E 		add	lr, lr, #5865472
 1654 0bac 179B     		ldr	r3, [sp, #92]
 1655 0bae 0E9D     		ldr	r5, [sp, #56]
 1656 0bb0 0EF5D74E 		add	lr, lr, #27520
 1657 0bb4 03EB3161 		add	r1, r3, r1, ror #24
 1658 0bb8 4FEAB757 		ror	r7, r7, #22
 1659              	.LVL199:
 1660              		.loc 1 216 0
 1661 0bbc 66EA0C03 		orn	r3, r6, ip
 1662 0bc0 0EF1210E 		add	lr, lr, #33
 1663 0bc4 05EB0B02 		add	r2, r5, fp
 1664 0bc8 7B40     		eors	r3, r3, r7
 1665 0bca 179D     		ldr	r5, [sp, #92]
 1666 0bcc F144     		add	r9, r9, lr
 1667              	.LVL200:
 1668              		.loc 1 215 0
 1669 0bce 4FEAB858 		ror	r8, r8, #22
 1670              	.LVL201:
 1671              		.loc 1 216 0
 1672 0bd2 61EA000E 		orn	lr, r1, r0
 1673 0bd6 9944     		add	r9, r9, r3
 1674              	.LVL202:
 1675 0bd8 099B     		ldr	r3, [sp, #36]
 1676 0bda 8EEA080E 		eor	lr, lr, r8
 1677 0bde 2A44     		add	r2, r2, r5
 1678 0be0 7244     		add	r2, r2, lr
 1679 0be2 03F1DD4E 		add	lr, r3, #1853882368
 1680 0be6 0EF5B30E 		add	lr, lr, #5865472
 1681 0bea 0AEBF955 		add	r5, r10, r9, ror #23
 1682              	.LVL203:
 1683 0bee 079B     		ldr	r3, [sp, #28]
 1684 0bf0 0EF5D74E 		add	lr, lr, #27520
 1685 0bf4 04EBB262 		add	r2, r4, r2, ror #26
 1686 0bf8 4FEABC5C 		ror	ip, ip, #22
 1687              	.LVL204:
 1688              		.loc 1 217 0
 1689 0bfc 65EA0609 		orn	r9, r5, r6
 1690 0c00 0EF1210E 		add	lr, lr, #33
 1691              		.loc 1 216 0
 1692 0c04 4FEAB050 		ror	r0, r0, #22
 1693              	.LVL205:
 1694 0c08 5B44     		add	r3, r3, fp
 1695              		.loc 1 217 0
 1696 0c0a 89EA0C09 		eor	r9, r9, ip
 1697 0c0e F244     		add	r10, r10, lr
 1698              	.LVL206:
 1699 0c10 62EA010E 		orn	lr, r2, r1
 1700 0c14 1C44     		add	r4, r4, r3
 1701              	.LVL207:
 1702 0c16 CA44     		add	r10, r10, r9
 1703              	.LVL208:
 1704 0c18 8EEA0003 		eor	r3, lr, r0
ARM GAS  C:\Users\jo\AppData\Local\Temp\ccdgtuym.s 			page 31


 1705 0c1c 2344     		add	r3, r3, r4
 1706 0c1e 07EBFA4E 		add	lr, r7, r10, ror #19
 1707              	.LVL209:
 1708 0c22 029C     		ldr	r4, [sp, #8]
 1709 0c24 DFF8A8A1 		ldr	r10, .L20+8
 1710 0c28 4FEAB656 		ror	r6, r6, #22
 1711              	.LVL210:
 1712 0c2c A244     		add	r10, r4, r10
 1713              		.loc 1 218 0
 1714 0c2e 6EEA0509 		orn	r9, lr, r5
 1715 0c32 0A9C     		ldr	r4, [sp, #40]
 1716 0c34 89EA0609 		eor	r9, r9, r6
 1717 0c38 5744     		add	r7, r7, r10
 1718              	.LVL211:
 1719 0c3a 4FEAB555 		ror	r5, r5, #22
 1720              	.LVL212:
 1721              		.loc 1 217 0
 1722 0c3e 08EBB363 		add	r3, r8, r3, ror #26
 1723              	.LVL213:
 1724              		.loc 1 218 0
 1725 0c42 4F44     		add	r7, r7, r9
 1726 0c44 1795     		str	r5, [sp, #92]
 1727 0c46 DFF88891 		ldr	r9, .L20+8
 1728 0c4a 039D     		ldr	r5, [sp, #12]
 1729 0c4c 63EA020A 		orn	r10, r3, r2
 1730              		.loc 1 217 0
 1731 0c50 4FEAB151 		ror	r1, r1, #22
 1732              	.LVL214:
 1733 0c54 5C44     		add	r4, r4, fp
 1734 0c56 A044     		add	r8, r8, r4
 1735              	.LVL215:
 1736 0c58 A944     		add	r9, r5, r9
 1737              		.loc 1 218 0
 1738 0c5a 8AEA0104 		eor	r4, r10, r1
 1739 0c5e 0C9D     		ldr	r5, [sp, #48]
 1740 0c60 4444     		add	r4, r4, r8
 1741 0c62 0CEB7747 		add	r7, ip, r7, ror #17
 1742              	.LVL216:
 1743 0c66 00EBB444 		add	r4, r0, r4, ror #18
 1744              	.LVL217:
 1745 0c6a AA46     		mov	r10, r5
 1746              		.loc 1 219 0
 1747 0c6c 179D     		ldr	r5, [sp, #92]
 1748 0c6e 67EA0E08 		orn	r8, r7, lr
 1749              		.loc 1 218 0
 1750 0c72 4FEAB252 		ror	r2, r2, #22
 1751              	.LVL218:
 1752 0c76 DA44     		add	r10, r10, fp
 1753 0c78 CC44     		add	ip, ip, r9
 1754              	.LVL219:
 1755              		.loc 1 219 0
 1756 0c7a 64EA0309 		orn	r9, r4, r3
 1757 0c7e 88EA0508 		eor	r8, r8, r5
 1758 0c82 5044     		add	r0, r0, r10
 1759              	.LVL220:
 1760 0c84 089D     		ldr	r5, [sp, #32]
 1761              	.LVL221:
ARM GAS  C:\Users\jo\AppData\Local\Temp\ccdgtuym.s 			page 32


 1762 0c86 89EA020A 		eor	r10, r9, r2
 1763 0c8a DFF84491 		ldr	r9, .L20+8
 1764 0c8e C444     		add	ip, ip, r8
 1765              	.LVL222:
 1766 0c90 4FEAB353 		ror	r3, r3, #22
 1767              	.LVL223:
 1768 0c94 06EBBC4C 		add	ip, r6, ip, ror #18
 1769              	.LVL224:
 1770 0c98 A944     		add	r9, r5, r9
 1771 0c9a 1D46     		mov	r5, r3
 1772 0c9c 099B     		ldr	r3, [sp, #36]
 1773              		.loc 1 220 0
 1774 0c9e 1895     		str	r5, [sp, #96]
 1775              		.loc 1 219 0
 1776 0ca0 4FEABE5E 		ror	lr, lr, #22
 1777              	.LVL225:
 1778              		.loc 1 220 0
 1779 0ca4 6CEA0708 		orn	r8, ip, r7
 1780 0ca8 88EA0E08 		eor	r8, r8, lr
 1781              		.loc 1 219 0
 1782 0cac 5044     		add	r0, r0, r10
 1783 0cae 4E44     		add	r6, r6, r9
 1784              	.LVL226:
 1785 0cb0 9A46     		mov	r10, r3
 1786              		.loc 1 220 0
 1787 0cb2 179B     		ldr	r3, [sp, #92]
 1788              		.loc 1 219 0
 1789 0cb4 01EB3050 		add	r0, r1, r0, ror #20
 1790              	.LVL227:
 1791              		.loc 1 220 0
 1792 0cb8 4644     		add	r6, r6, r8
 1793              	.LVL228:
 1794 0cba 60EA0409 		orn	r9, r0, r4
 1795 0cbe 03EB3666 		add	r6, r3, r6, ror #24
 1796              	.LVL229:
 1797 0cc2 DA44     		add	r10, r10, fp
 1798 0cc4 109B     		ldr	r3, [sp, #64]
 1799 0cc6 5144     		add	r1, r1, r10
 1800              	.LVL230:
 1801 0cc8 89EA050A 		eor	r10, r9, r5
 1802 0ccc 019D     		ldr	r5, [sp, #4]
 1803              	.LVL231:
 1804 0cce DFF80091 		ldr	r9, .L20+8
 1805 0cd2 5144     		add	r1, r1, r10
 1806 0cd4 9A46     		mov	r10, r3
 1807 0cd6 179B     		ldr	r3, [sp, #92]
 1808 0cd8 02EBF141 		add	r1, r2, r1, ror #19
 1809 0cdc A944     		add	r9, r5, r9
 1810 0cde 4FEAB454 		ror	r4, r4, #22
 1811              	.LVL232:
 1812 0ce2 DA44     		add	r10, r10, fp
 1813 0ce4 4B44     		add	r3, r3, r9
 1814              		.loc 1 221 0
 1815 0ce6 61EA0009 		orn	r9, r1, r0
 1816 0cea 1D46     		mov	r5, r3
 1817 0cec 5244     		add	r2, r2, r10
 1818              	.LVL233:
ARM GAS  C:\Users\jo\AppData\Local\Temp\ccdgtuym.s 			page 33


 1819 0cee 189B     		ldr	r3, [sp, #96]
 1820 0cf0 89EA040A 		eor	r10, r9, r4
 1821 0cf4 5244     		add	r2, r2, r10
 1822 0cf6 03EBF262 		add	r2, r3, r2, ror #27
 1823 0cfa DFF8D490 		ldr	r9, .L20+8
 1824 0cfe 079B     		ldr	r3, [sp, #28]
 1825              		.loc 1 220 0
 1826 0d00 4FEAB757 		ror	r7, r7, #22
 1827              	.LVL234:
 1828              		.loc 1 221 0
 1829 0d04 66EA0C08 		orn	r8, r6, ip
 1830 0d08 88EA0708 		eor	r8, r8, r7
 1831 0d0c 9944     		add	r9, r3, r9
 1832 0d0e 039B     		ldr	r3, [sp, #12]
 1833 0d10 4544     		add	r5, r5, r8
 1834              	.LVL235:
 1835 0d12 0EEBF545 		add	r5, lr, r5, ror #19
 1836              	.LVL236:
 1837 0d16 9A46     		mov	r10, r3
 1838 0d18 189B     		ldr	r3, [sp, #96]
 1839              		.loc 1 222 0
 1840 0d1a 65EA0608 		orn	r8, r5, r6
 1841              		.loc 1 221 0
 1842 0d1e 4FEAB050 		ror	r0, r0, #22
 1843              	.LVL237:
 1844 0d22 DA44     		add	r10, r10, fp
 1845 0d24 CE44     		add	lr, lr, r9
 1846              	.LVL238:
 1847              		.loc 1 222 0
 1848 0d26 4FEAB656 		ror	r6, r6, #22
 1849              	.LVL239:
 1850 0d2a 62EA0109 		orn	r9, r2, r1
 1851 0d2e 1796     		str	r6, [sp, #92]
 1852 0d30 5344     		add	r3, r3, r10
 1853 0d32 0D9E     		ldr	r6, [sp, #52]
 1854 0d34 89EA000A 		eor	r10, r9, r0
 1855 0d38 DFF89490 		ldr	r9, .L20+8
 1856              		.loc 1 221 0
 1857 0d3c 4FEABC5C 		ror	ip, ip, #22
 1858              	.LVL240:
 1859              		.loc 1 222 0
 1860 0d40 88EA0C08 		eor	r8, r8, ip
 1861 0d44 B144     		add	r9, r6, r9
 1862 0d46 0B9E     		ldr	r6, [sp, #44]
 1863 0d48 C644     		add	lr, lr, r8
 1864 0d4a 5344     		add	r3, r3, r10
 1865 0d4c 07EBBE6E 		add	lr, r7, lr, ror #26
 1866              	.LVL241:
 1867 0d50 04EBB343 		add	r3, r4, r3, ror #18
 1868              	.LVL242:
 1869 0d54 B246     		mov	r10, r6
 1870              		.loc 1 223 0
 1871 0d56 179E     		ldr	r6, [sp, #92]
 1872 0d58 6EEA0508 		orn	r8, lr, r5
 1873              		.loc 1 222 0
 1874 0d5c 4FEAB151 		ror	r1, r1, #22
 1875              	.LVL243:
ARM GAS  C:\Users\jo\AppData\Local\Temp\ccdgtuym.s 			page 34


 1876 0d60 DA44     		add	r10, r10, fp
 1877 0d62 4F44     		add	r7, r7, r9
 1878              	.LVL244:
 1879              		.loc 1 223 0
 1880 0d64 63EA0209 		orn	r9, r3, r2
 1881 0d68 88EA0608 		eor	r8, r8, r6
 1882 0d6c 5444     		add	r4, r4, r10
 1883              	.LVL245:
 1884 0d6e 0C9E     		ldr	r6, [sp, #48]
 1885 0d70 89EA010A 		eor	r10, r9, r1
 1886 0d74 DFF85890 		ldr	r9, .L20+8
 1887 0d78 4744     		add	r7, r7, r8
 1888              	.LVL246:
 1889 0d7a B144     		add	r9, r6, r9
 1890 0d7c 019E     		ldr	r6, [sp, #4]
 1891 0d7e 0CEBF767 		add	r7, ip, r7, ror #27
 1892              	.LVL247:
 1893 0d82 5444     		add	r4, r4, r10
 1894 0d84 00EBF444 		add	r4, r0, r4, ror #19
 1895 0d88 4FEAB555 		ror	r5, r5, #22
 1896              	.LVL248:
 1897              		.loc 1 224 0
 1898 0d8c 67EA0E08 		orn	r8, r7, lr
 1899 0d90 B246     		mov	r10, r6
 1900              		.loc 1 223 0
 1901 0d92 4FEAB252 		ror	r2, r2, #22
 1902              	.LVL249:
 1903              		.loc 1 224 0
 1904 0d96 179E     		ldr	r6, [sp, #92]
 1905 0d98 DA44     		add	r10, r10, fp
 1906 0d9a 88EA0508 		eor	r8, r8, r5
 1907 0d9e CC44     		add	ip, ip, r9
 1908              	.LVL250:
 1909 0da0 64EA0309 		orn	r9, r4, r3
 1910 0da4 5044     		add	r0, r0, r10
 1911              	.LVL251:
 1912 0da6 C444     		add	ip, ip, r8
 1913              	.LVL252:
 1914 0da8 89EA020A 		eor	r10, r9, r2
 1915 0dac 06EB3C5C 		add	ip, r6, ip, ror #20
 1916              	.LVL253:
 1917 0db0 5044     		add	r0, r0, r10
 1918 0db2 069E     		ldr	r6, [sp, #24]
 1919 0db4 DFF818A0 		ldr	r10, .L20+8
 1920 0db8 4FEAB353 		ror	r3, r3, #22
 1921              	.LVL254:
 1922 0dbc 1893     		str	r3, [sp, #96]
 1923 0dbe 059B     		ldr	r3, [sp, #20]
 1924 0dc0 B244     		add	r10, r6, r10
 1925 0dc2 179E     		ldr	r6, [sp, #92]
 1926 0dc4 08E0     		b	.L21
 1927              	.L22:
 1928 0dc6 00BF     		.align	2
 1929              	.L20:
 1930 0dc8 9979825A 		.word	1518500249
 1931 0dcc 24D14D5C 		.word	1548603684
 1932 0dd0 A1EBD96E 		.word	1859775393
ARM GAS  C:\Users\jo\AppData\Local\Temp\ccdgtuym.s 			page 35


 1933 0dd4 F33E706D 		.word	1836072691
 1934              	.L21:
 1935 0dd8 01EBF040 		add	r0, r1, r0, ror #19
 1936 0ddc D846     		mov	r8, fp
 1937 0dde 9B46     		mov	fp, r3
 1938              		.loc 1 225 0
 1939 0de0 189B     		ldr	r3, [sp, #96]
 1940 0de2 C344     		add	fp, fp, r8
 1941 0de4 5644     		add	r6, r6, r10
 1942 0de6 60EA040A 		orn	r10, r0, r4
 1943              		.loc 1 224 0
 1944 0dea 4FEABE5E 		ror	lr, lr, #22
 1945              	.LVL255:
 1946              		.loc 1 225 0
 1947 0dee 6CEA0709 		orn	r9, ip, r7
 1948 0df2 5944     		add	r1, r1, fp
 1949              	.LVL256:
 1950 0df4 8AEA030B 		eor	fp, r10, r3
 1951 0df8 109B     		ldr	r3, [sp, #64]
 1952              	.LVL257:
 1953 0dfa 89EA0E09 		eor	r9, r9, lr
 1954 0dfe 4E44     		add	r6, r6, r9
 1955              	.LVL258:
 1956 0e00 5944     		add	r1, r1, fp
 1957 0e02 03F1DD49 		add	r9, r3, #1853882368
 1958 0e06 0D9B     		ldr	r3, [sp, #52]
 1959 0e08 02EB7161 		add	r1, r2, r1, ror #25
 1960 0e0c 9844     		add	r8, r8, r3
 1961 0e0e 4FEAB454 		ror	r4, r4, #22
 1962              	.LVL259:
 1963              		.loc 1 226 0
 1964 0e12 61EA000B 		orn	fp, r1, r0
 1965 0e16 189B     		ldr	r3, [sp, #96]
 1966 0e18 8BEA040B 		eor	fp, fp, r4
 1967 0e1c 4244     		add	r2, r2, r8
 1968              	.LVL260:
 1969 0e1e 5A44     		add	r2, r2, fp
 1970 0e20 03EBF262 		add	r2, r3, r2, ror #27
 1971 0e24 029B     		ldr	r3, [sp, #8]
 1972 0e26 09F5B309 		add	r9, r9, #5865472
 1973              		.loc 1 225 0
 1974 0e2a 05EB7666 		add	r6, r5, r6, ror #25
 1975              	.LVL261:
 1976 0e2e 03F10F48 		add	r8, r3, #-1895825408
 1977 0e32 09F5D749 		add	r9, r9, #27520
 1978 0e36 4FEAB757 		ror	r7, r7, #22
 1979              	.LVL262:
 1980              		.loc 1 226 0
 1981 0e3a 66EA0C0A 		orn	r10, r6, ip
 1982 0e3e 09F12109 		add	r9, r9, #33
 1983 0e42 08F5DD18 		add	r8, r8, #1810432
 1984 0e46 099B     		ldr	r3, [sp, #36]
 1985 0e48 8AEA070A 		eor	r10, r10, r7
 1986 0e4c 4D44     		add	r5, r5, r9
 1987              	.LVL263:
 1988 0e4e 08F5E658 		add	r8, r8, #7360
 1989 0e52 5544     		add	r5, r5, r10
ARM GAS  C:\Users\jo\AppData\Local\Temp\ccdgtuym.s 			page 36


 1990              	.LVL264:
 1991 0e54 08F11C08 		add	r8, r8, #28
 1992 0e58 DFF8ACA6 		ldr	r10, .L23+8
 1993 0e5c 0EEBF565 		add	r5, lr, r5, ror #27
 1994              	.LVL265:
 1995 0e60 C644     		add	lr, lr, r8
 1996              	.LVL266:
 1997 0e62 9846     		mov	r8, r3
 1998 0e64 189B     		ldr	r3, [sp, #96]
 1999 0e66 4FEABC5C 		ror	ip, ip, #22
 2000              	.LVL267:
 2001 0e6a D044     		add	r8, r8, r10
 2002              		.loc 1 236 0
 2003 0e6c 05EA0C0B 		and	fp, r5, ip
 2004              		.loc 1 226 0
 2005 0e70 4FEAB050 		ror	r0, r0, #22
 2006              	.LVL268:
 2007              		.loc 1 236 0
 2008 0e74 26EA0C09 		bic	r9, r6, ip
 2009 0e78 4344     		add	r3, r3, r8
 2010 0e7a 02EA0108 		and	r8, r2, r1
 2011 0e7e 4FEAB151 		ror	r1, r1, #22
 2012              	.LVL269:
 2013 0e82 4BEA0909 		orr	r9, fp, r9
 2014 0e86 1791     		str	r1, [sp, #92]
 2015 0e88 20EA020B 		bic	fp, r0, r2
 2016 0e8c 0A99     		ldr	r1, [sp, #40]
 2017 0e8e 4BEA0808 		orr	r8, fp, r8
 2018 0e92 4344     		add	r3, r3, r8
 2019 0e94 01F10F48 		add	r8, r1, #-1895825408
 2020 0e98 08F5DD18 		add	r8, r8, #1810432
 2021 0e9c 0799     		ldr	r1, [sp, #28]
 2022 0e9e 08F5E658 		add	r8, r8, #7360
 2023 0ea2 CE44     		add	lr, lr, r9
 2024              	.LVL270:
 2025 0ea4 08F11C08 		add	r8, r8, #28
 2026 0ea8 07EB7E5E 		add	lr, r7, lr, ror #21
 2027              	.LVL271:
 2028 0eac 4FEAB656 		ror	r6, r6, #22
 2029              	.LVL272:
 2030 0eb0 4744     		add	r7, r7, r8
 2031              	.LVL273:
 2032 0eb2 8846     		mov	r8, r1
 2033              		.loc 1 237 0
 2034 0eb4 1799     		ldr	r1, [sp, #92]
 2035              		.loc 1 236 0
 2036 0eb6 04EB7343 		add	r3, r4, r3, ror #17
 2037              	.LVL274:
 2038              		.loc 1 237 0
 2039 0eba 0EEA060B 		and	fp, lr, r6
 2040 0ebe 25EA0609 		bic	r9, r5, r6
 2041 0ec2 D044     		add	r8, r8, r10
 2042 0ec4 4BEA0909 		orr	r9, fp, r9
 2043 0ec8 4444     		add	r4, r4, r8
 2044              	.LVL275:
 2045 0eca 21EA030B 		bic	fp, r1, r3
 2046 0ece 03EA0208 		and	r8, r3, r2
ARM GAS  C:\Users\jo\AppData\Local\Temp\ccdgtuym.s 			page 37


 2047 0ed2 0C99     		ldr	r1, [sp, #48]
 2048 0ed4 4BEA0808 		orr	r8, fp, r8
 2049 0ed8 4444     		add	r4, r4, r8
 2050 0eda 01F10F48 		add	r8, r1, #-1895825408
 2051 0ede 08F5DD18 		add	r8, r8, #1810432
 2052 0ee2 0599     		ldr	r1, [sp, #20]
 2053 0ee4 08F5E658 		add	r8, r8, #7360
 2054 0ee8 4F44     		add	r7, r7, r9
 2055              	.LVL276:
 2056 0eea 08F11C08 		add	r8, r8, #28
 2057 0eee 0CEB3757 		add	r7, ip, r7, ror #20
 2058              	.LVL277:
 2059 0ef2 4FEAB555 		ror	r5, r5, #22
 2060              	.LVL278:
 2061 0ef6 C444     		add	ip, ip, r8
 2062              	.LVL279:
 2063 0ef8 8846     		mov	r8, r1
 2064 0efa 00EBF464 		add	r4, r0, r4, ror #27
 2065              	.LVL280:
 2066              		.loc 1 238 0
 2067 0efe 07EA050B 		and	fp, r7, r5
 2068              		.loc 1 237 0
 2069 0f02 4FEAB252 		ror	r2, r2, #22
 2070              	.LVL281:
 2071              		.loc 1 238 0
 2072 0f06 2EEA0509 		bic	r9, lr, r5
 2073 0f0a D044     		add	r8, r8, r10
 2074 0f0c 4BEA0909 		orr	r9, fp, r9
 2075 0f10 4044     		add	r0, r0, r8
 2076              	.LVL282:
 2077 0f12 22EA040B 		bic	fp, r2, r4
 2078 0f16 04EA0308 		and	r8, r4, r3
 2079 0f1a 1799     		ldr	r1, [sp, #92]
 2080 0f1c 4BEA0808 		orr	r8, fp, r8
 2081 0f20 4044     		add	r0, r0, r8
 2082 0f22 01EB3060 		add	r0, r1, r0, ror #24
 2083 0f26 0B99     		ldr	r1, [sp, #44]
 2084 0f28 01F10F48 		add	r8, r1, #-1895825408
 2085 0f2c 4FEAB353 		ror	r3, r3, #22
 2086              	.LVL283:
 2087 0f30 08F5DD18 		add	r8, r8, #1810432
 2088 0f34 1893     		str	r3, [sp, #96]
 2089 0f36 08F5E658 		add	r8, r8, #7360
 2090 0f3a 029B     		ldr	r3, [sp, #8]
 2091 0f3c 1799     		ldr	r1, [sp, #92]
 2092 0f3e CC44     		add	ip, ip, r9
 2093              	.LVL284:
 2094 0f40 08F11C08 		add	r8, r8, #28
 2095 0f44 06EBBC4C 		add	ip, r6, ip, ror #18
 2096              	.LVL285:
 2097 0f48 4FEABE5E 		ror	lr, lr, #22
 2098              	.LVL286:
 2099 0f4c 4644     		add	r6, r6, r8
 2100              	.LVL287:
 2101 0f4e 9846     		mov	r8, r3
 2102              		.loc 1 239 0
 2103 0f50 189B     		ldr	r3, [sp, #96]
ARM GAS  C:\Users\jo\AppData\Local\Temp\ccdgtuym.s 			page 38


 2104 0f52 0CEA0E0B 		and	fp, ip, lr
 2105 0f56 27EA0E09 		bic	r9, r7, lr
 2106 0f5a D044     		add	r8, r8, r10
 2107 0f5c 4BEA0909 		orr	r9, fp, r9
 2108 0f60 23EA000B 		bic	fp, r3, r0
 2109 0f64 4FEAB453 		ror	r3, r4, #22
 2110 0f68 4144     		add	r1, r1, r8
 2111 0f6a 00EA0408 		and	r8, r0, r4
 2112 0f6e 1C46     		mov	r4, r3
 2113              	.LVL288:
 2114 0f70 019B     		ldr	r3, [sp, #4]
 2115              		.loc 1 241 0
 2116 0f72 1794     		str	r4, [sp, #92]
 2117              		.loc 1 239 0
 2118 0f74 4BEA0808 		orr	r8, fp, r8
 2119 0f78 4144     		add	r1, r1, r8
 2120 0f7a 03F10F48 		add	r8, r3, #-1895825408
 2121 0f7e 08F5DD18 		add	r8, r8, #1810432
 2122 0f82 049B     		ldr	r3, [sp, #16]
 2123 0f84 08F5E658 		add	r8, r8, #7360
 2124 0f88 4E44     		add	r6, r6, r9
 2125              	.LVL289:
 2126 0f8a 08F11C08 		add	r8, r8, #28
 2127 0f8e 05EB7646 		add	r6, r5, r6, ror #17
 2128              	.LVL290:
 2129 0f92 4FEAB757 		ror	r7, r7, #22
 2130              	.LVL291:
 2131 0f96 4544     		add	r5, r5, r8
 2132              	.LVL292:
 2133 0f98 9846     		mov	r8, r3
 2134 0f9a 02EB7151 		add	r1, r2, r1, ror #21
 2135              	.LVL293:
 2136              		.loc 1 240 0
 2137 0f9e 06EA070B 		and	fp, r6, r7
 2138 0fa2 2CEA0709 		bic	r9, ip, r7
 2139 0fa6 D044     		add	r8, r8, r10
 2140 0fa8 4BEA0909 		orr	r9, fp, r9
 2141 0fac 4244     		add	r2, r2, r8
 2142              	.LVL294:
 2143 0fae 24EA010B 		bic	fp, r4, r1
 2144 0fb2 01EA0008 		and	r8, r1, r0
 2145 0fb6 189B     		ldr	r3, [sp, #96]
 2146 0fb8 4BEA0808 		orr	r8, fp, r8
 2147 0fbc 4244     		add	r2, r2, r8
 2148 0fbe 03EBB242 		add	r2, r3, r2, ror #18
 2149 0fc2 099B     		ldr	r3, [sp, #36]
 2150 0fc4 03F10F48 		add	r8, r3, #-1895825408
 2151 0fc8 08F5DD18 		add	r8, r8, #1810432
 2152 0fcc 0C9B     		ldr	r3, [sp, #48]
 2153 0fce 08F5E658 		add	r8, r8, #7360
 2154 0fd2 4D44     		add	r5, r5, r9
 2155              	.LVL295:
 2156 0fd4 08F11C08 		add	r8, r8, #28
 2157 0fd8 0EEBB545 		add	r5, lr, r5, ror #18
 2158              	.LVL296:
 2159 0fdc 4FEABC5C 		ror	ip, ip, #22
 2160              	.LVL297:
ARM GAS  C:\Users\jo\AppData\Local\Temp\ccdgtuym.s 			page 39


 2161 0fe0 C644     		add	lr, lr, r8
 2162              	.LVL298:
 2163 0fe2 9846     		mov	r8, r3
 2164 0fe4 189B     		ldr	r3, [sp, #96]
 2165              		.loc 1 241 0
 2166 0fe6 05EA0C0B 		and	fp, r5, ip
 2167              		.loc 1 240 0
 2168 0fea 4FEAB050 		ror	r0, r0, #22
 2169              	.LVL299:
 2170              		.loc 1 241 0
 2171 0fee 26EA0C09 		bic	r9, r6, ip
 2172 0ff2 D044     		add	r8, r8, r10
 2173 0ff4 4BEA0909 		orr	r9, fp, r9
 2174 0ff8 4344     		add	r3, r3, r8
 2175 0ffa 20EA020B 		bic	fp, r0, r2
 2176 0ffe 02EA0108 		and	r8, r2, r1
 2177 1002 4BEA0808 		orr	r8, fp, r8
 2178 1006 4344     		add	r3, r3, r8
 2179 1008 04EBB343 		add	r3, r4, r3, ror #18
 2180 100c DFF8F084 		ldr	r8, .L23
 2181 1010 109C     		ldr	r4, [sp, #64]
 2182              	.LVL300:
 2183 1012 CE44     		add	lr, lr, r9
 2184              	.LVL301:
 2185 1014 A044     		add	r8, r4, r8
 2186 1016 07EB7E4E 		add	lr, r7, lr, ror #17
 2187              	.LVL302:
 2188 101a 4744     		add	r7, r7, r8
 2189              	.LVL303:
 2190 101c 1897     		str	r7, [sp, #96]
 2191              	.LVL304:
 2192 101e 0F9F     		ldr	r7, [sp, #60]
 2193 1020 179C     		ldr	r4, [sp, #92]
 2194 1022 4FEAB656 		ror	r6, r6, #22
 2195              	.LVL305:
 2196 1026 07EB0A08 		add	r8, r7, r10
 2197              		.loc 1 242 0
 2198 102a 0EEA060B 		and	fp, lr, r6
 2199              		.loc 1 241 0
 2200 102e 4FEAB151 		ror	r1, r1, #22
 2201              	.LVL306:
 2202              		.loc 1 242 0
 2203 1032 25EA0609 		bic	r9, r5, r6
 2204 1036 4444     		add	r4, r4, r8
 2205 1038 03EA0208 		and	r8, r3, r2
 2206 103c 4FEAB252 		ror	r2, r2, #22
 2207              	.LVL307:
 2208 1040 1792     		str	r2, [sp, #92]
 2209              	.LVL308:
 2210 1042 4BEA0909 		orr	r9, fp, r9
 2211 1046 059A     		ldr	r2, [sp, #20]
 2212 1048 189F     		ldr	r7, [sp, #96]
 2213 104a 21EA030B 		bic	fp, r1, r3
 2214 104e 4BEA0808 		orr	r8, fp, r8
 2215 1052 4444     		add	r4, r4, r8
 2216 1054 02F10F48 		add	r8, r2, #-1895825408
 2217 1058 08F5DD18 		add	r8, r8, #1810432
ARM GAS  C:\Users\jo\AppData\Local\Temp\ccdgtuym.s 			page 40


 2218 105c 019A     		ldr	r2, [sp, #4]
 2219 105e 08F5E658 		add	r8, r8, #7360
 2220 1062 4F44     		add	r7, r7, r9
 2221              	.LVL309:
 2222 1064 08F11C08 		add	r8, r8, #28
 2223 1068 0CEBF757 		add	r7, ip, r7, ror #23
 2224              	.LVL310:
 2225 106c 4FEAB555 		ror	r5, r5, #22
 2226              	.LVL311:
 2227 1070 C444     		add	ip, ip, r8
 2228              	.LVL312:
 2229 1072 9046     		mov	r8, r2
 2230              		.loc 1 243 0
 2231 1074 179A     		ldr	r2, [sp, #92]
 2232              		.loc 1 242 0
 2233 1076 00EBB464 		add	r4, r0, r4, ror #26
 2234              	.LVL313:
 2235              		.loc 1 243 0
 2236 107a 07EA050B 		and	fp, r7, r5
 2237 107e 2EEA0509 		bic	r9, lr, r5
 2238 1082 D044     		add	r8, r8, r10
 2239 1084 4BEA0909 		orr	r9, fp, r9
 2240 1088 4044     		add	r0, r0, r8
 2241              	.LVL314:
 2242 108a 22EA040B 		bic	fp, r2, r4
 2243 108e 04EA0308 		and	r8, r4, r3
 2244 1092 0D9A     		ldr	r2, [sp, #52]
 2245              	.LVL315:
 2246 1094 4BEA0808 		orr	r8, fp, r8
 2247 1098 4044     		add	r0, r0, r8
 2248 109a 02F10F48 		add	r8, r2, #-1895825408
 2249 109e 08F5DD18 		add	r8, r8, #1810432
 2250 10a2 069A     		ldr	r2, [sp, #24]
 2251 10a4 08F5E658 		add	r8, r8, #7360
 2252 10a8 CC44     		add	ip, ip, r9
 2253              	.LVL316:
 2254 10aa 08F11C08 		add	r8, r8, #28
 2255 10ae 06EB3C6C 		add	ip, r6, ip, ror #24
 2256              	.LVL317:
 2257 10b2 4644     		add	r6, r6, r8
 2258              	.LVL318:
 2259 10b4 9046     		mov	r8, r2
 2260 10b6 01EBB040 		add	r0, r1, r0, ror #18
 2261 10ba 4FEABE5E 		ror	lr, lr, #22
 2262              	.LVL319:
 2263 10be D044     		add	r8, r8, r10
 2264              		.loc 1 244 0
 2265 10c0 0CEA0E0B 		and	fp, ip, lr
 2266              		.loc 1 243 0
 2267 10c4 4FEAB353 		ror	r3, r3, #22
 2268              	.LVL320:
 2269              		.loc 1 244 0
 2270 10c8 27EA0E09 		bic	r9, r7, lr
 2271 10cc 4144     		add	r1, r1, r8
 2272              	.LVL321:
 2273 10ce 00EA0408 		and	r8, r0, r4
 2274 10d2 4FEAB454 		ror	r4, r4, #22
ARM GAS  C:\Users\jo\AppData\Local\Temp\ccdgtuym.s 			page 41


 2275              	.LVL322:
 2276 10d6 4BEA0909 		orr	r9, fp, r9
 2277 10da 1894     		str	r4, [sp, #96]
 2278 10dc 23EA000B 		bic	fp, r3, r0
 2279 10e0 049C     		ldr	r4, [sp, #16]
 2280 10e2 179A     		ldr	r2, [sp, #92]
 2281 10e4 4BEA0808 		orr	r8, fp, r8
 2282 10e8 4144     		add	r1, r1, r8
 2283 10ea 04F10F48 		add	r8, r4, #-1895825408
 2284 10ee 08F5DD18 		add	r8, r8, #1810432
 2285 10f2 109C     		ldr	r4, [sp, #64]
 2286 10f4 08F5E658 		add	r8, r8, #7360
 2287 10f8 4E44     		add	r6, r6, r9
 2288              	.LVL323:
 2289 10fa 08F11C08 		add	r8, r8, #28
 2290 10fe 05EBF656 		add	r6, r5, r6, ror #23
 2291              	.LVL324:
 2292 1102 4FEAB757 		ror	r7, r7, #22
 2293              	.LVL325:
 2294 1106 4544     		add	r5, r5, r8
 2295              	.LVL326:
 2296 1108 A046     		mov	r8, r4
 2297              		.loc 1 245 0
 2298 110a 189C     		ldr	r4, [sp, #96]
 2299              		.loc 1 244 0
 2300 110c 02EBB161 		add	r1, r2, r1, ror #26
 2301              	.LVL327:
 2302              		.loc 1 245 0
 2303 1110 06EA070B 		and	fp, r6, r7
 2304 1114 2CEA0709 		bic	r9, ip, r7
 2305 1118 D044     		add	r8, r8, r10
 2306 111a 4BEA0909 		orr	r9, fp, r9
 2307 111e 4244     		add	r2, r2, r8
 2308 1120 24EA010B 		bic	fp, r4, r1
 2309 1124 01EA0008 		and	r8, r1, r0
 2310 1128 089C     		ldr	r4, [sp, #32]
 2311 112a 4BEA0808 		orr	r8, fp, r8
 2312 112e 4244     		add	r2, r2, r8
 2313 1130 04F10F48 		add	r8, r4, #-1895825408
 2314 1134 08F5DD18 		add	r8, r8, #1810432
 2315 1138 039C     		ldr	r4, [sp, #12]
 2316 113a 08F5E658 		add	r8, r8, #7360
 2317 113e 4D44     		add	r5, r5, r9
 2318              	.LVL328:
 2319 1140 08F11C08 		add	r8, r8, #28
 2320 1144 0EEBB545 		add	r5, lr, r5, ror #18
 2321              	.LVL329:
 2322 1148 4FEABC5C 		ror	ip, ip, #22
 2323              	.LVL330:
 2324 114c C644     		add	lr, lr, r8
 2325              	.LVL331:
 2326 114e A046     		mov	r8, r4
 2327 1150 03EBF252 		add	r2, r3, r2, ror #23
 2328              	.LVL332:
 2329              		.loc 1 246 0
 2330 1154 05EA0C09 		and	r9, r5, ip
 2331              		.loc 1 245 0
ARM GAS  C:\Users\jo\AppData\Local\Temp\ccdgtuym.s 			page 42


 2332 1158 4FEAB050 		ror	r0, r0, #22
 2333              	.LVL333:
 2334              		.loc 1 246 0
 2335 115c 26EA0C0B 		bic	fp, r6, ip
 2336 1160 D044     		add	r8, r8, r10
 2337 1162 49EA0B0B 		orr	fp, r9, fp
 2338 1166 4344     		add	r3, r3, r8
 2339              	.LVL334:
 2340 1168 02EA0109 		and	r9, r2, r1
 2341 116c 20EA0208 		bic	r8, r0, r2
 2342 1170 48EA0908 		orr	r8, r8, r9
 2343 1174 9844     		add	r8, r8, r3
 2344 1176 189B     		ldr	r3, [sp, #96]
 2345 1178 0F9C     		ldr	r4, [sp, #60]
 2346 117a 03EB3858 		add	r8, r3, r8, ror #20
 2347 117e E04B     		ldr	r3, .L23
 2348 1180 E318     		adds	r3, r4, r3
 2349 1182 0D9C     		ldr	r4, [sp, #52]
 2350 1184 DE44     		add	lr, lr, fp
 2351              	.LVL335:
 2352 1186 07EBFE6E 		add	lr, r7, lr, ror #27
 2353              	.LVL336:
 2354 118a 4FEAB656 		ror	r6, r6, #22
 2355              	.LVL337:
 2356 118e 1F44     		add	r7, r7, r3
 2357              	.LVL338:
 2358 1190 04EB0A03 		add	r3, r4, r10
 2359 1194 189C     		ldr	r4, [sp, #96]
 2360              		.loc 1 247 0
 2361 1196 0EEA060B 		and	fp, lr, r6
 2362              		.loc 1 246 0
 2363 119a 4FEAB151 		ror	r1, r1, #22
 2364              	.LVL339:
 2365              		.loc 1 247 0
 2366 119e 25EA0609 		bic	r9, r5, r6
 2367 11a2 4BEA0909 		orr	r9, fp, r9
 2368 11a6 1C44     		add	r4, r4, r3
 2369 11a8 21EA080B 		bic	fp, r1, r8
 2370 11ac 08EA0203 		and	r3, r8, r2
 2371 11b0 4BEA0303 		orr	r3, fp, r3
 2372 11b4 1C44     		add	r4, r4, r3
 2373 11b6 0E9B     		ldr	r3, [sp, #56]
 2374 11b8 4F44     		add	r7, r7, r9
 2375              	.LVL340:
 2376 11ba 9946     		mov	r9, r3
 2377 11bc D04B     		ldr	r3, .L23
 2378 11be 4B44     		add	r3, r9, r3
 2379 11c0 0CEBB767 		add	r7, ip, r7, ror #26
 2380              	.LVL341:
 2381 11c4 9C44     		add	ip, ip, r3
 2382              	.LVL342:
 2383 11c6 0A9B     		ldr	r3, [sp, #40]
 2384 11c8 4FEAB555 		ror	r5, r5, #22
 2385              	.LVL343:
 2386 11cc 00EBF454 		add	r4, r0, r4, ror #23
 2387              	.LVL344:
 2388              		.loc 1 248 0
ARM GAS  C:\Users\jo\AppData\Local\Temp\ccdgtuym.s 			page 43


 2389 11d0 07EA050B 		and	fp, r7, r5
 2390              		.loc 1 247 0
 2391 11d4 4FEAB252 		ror	r2, r2, #22
 2392              	.LVL345:
 2393              		.loc 1 248 0
 2394 11d8 2EEA0509 		bic	r9, lr, r5
 2395 11dc 5344     		add	r3, r3, r10
 2396 11de 4BEA0909 		orr	r9, fp, r9
 2397 11e2 1844     		add	r0, r0, r3
 2398              	.LVL346:
 2399 11e4 22EA040B 		bic	fp, r2, r4
 2400 11e8 04EA0803 		and	r3, r4, r8
 2401 11ec 4BEA0303 		orr	r3, fp, r3
 2402 11f0 1844     		add	r0, r0, r3
 2403 11f2 069B     		ldr	r3, [sp, #24]
 2404 11f4 4FEAB858 		ror	r8, r8, #22
 2405              	.LVL347:
 2406 11f8 CDF85C80 		str	r8, [sp, #92]
 2407 11fc 9846     		mov	r8, r3
 2408 11fe C04B     		ldr	r3, .L23
 2409 1200 CC44     		add	ip, ip, r9
 2410              	.LVL348:
 2411 1202 4344     		add	r3, r8, r3
 2412 1204 06EB3C6C 		add	ip, r6, ip, ror #24
 2413              	.LVL349:
 2414 1208 1E44     		add	r6, r6, r3
 2415              	.LVL350:
 2416 120a 089B     		ldr	r3, [sp, #32]
 2417 120c 5344     		add	r3, r3, r10
 2418 120e 4FEABE5E 		ror	lr, lr, #22
 2419              	.LVL351:
 2420 1212 01EB3050 		add	r0, r1, r0, ror #20
 2421              	.LVL352:
 2422 1216 1944     		add	r1, r1, r3
 2423              	.LVL353:
 2424              		.loc 1 249 0
 2425 1218 179B     		ldr	r3, [sp, #92]
 2426 121a 0CEA0E09 		and	r9, ip, lr
 2427 121e 27EA0E08 		bic	r8, r7, lr
 2428 1222 49EA0808 		orr	r8, r9, r8
 2429 1226 23EA0009 		bic	r9, r3, r0
 2430 122a 00EA0403 		and	r3, r0, r4
 2431 122e 49EA0303 		orr	r3, r9, r3
 2432 1232 4FEAB459 		ror	r9, r4, #22
 2433 1236 079C     		ldr	r4, [sp, #28]
 2434              	.LVL354:
 2435 1238 4644     		add	r6, r6, r8
 2436              	.LVL355:
 2437 123a 04F10F48 		add	r8, r4, #-1895825408
 2438 123e 08F5DD18 		add	r8, r8, #1810432
 2439 1242 1944     		add	r1, r1, r3
 2440 1244 08F5E658 		add	r8, r8, #7360
 2441 1248 05EBB663 		add	r3, r5, r6, ror #26
 2442              	.LVL356:
 2443 124c 0B9E     		ldr	r6, [sp, #44]
 2444              		.loc 1 250 0
 2445 124e 1893     		str	r3, [sp, #96]
ARM GAS  C:\Users\jo\AppData\Local\Temp\ccdgtuym.s 			page 44


 2446              		.loc 1 249 0
 2447 1250 4FEAB757 		ror	r7, r7, #22
 2448              	.LVL357:
 2449 1254 08F11C08 		add	r8, r8, #28
 2450              		.loc 1 250 0
 2451 1258 1C46     		mov	r4, r3
 2452              		.loc 1 249 0
 2453 125a 02EBF161 		add	r1, r2, r1, ror #27
 2454              	.LVL358:
 2455              		.loc 1 250 0
 2456 125e 3C40     		ands	r4, r4, r7
 2457 1260 2CEA0703 		bic	r3, ip, r7
 2458              	.LVL359:
 2459 1264 4544     		add	r5, r5, r8
 2460              	.LVL360:
 2461 1266 B046     		mov	r8, r6
 2462 1268 D044     		add	r8, r8, r10
 2463 126a 2343     		orrs	r3, r3, r4
 2464 126c 01EA000B 		and	fp, r1, r0
 2465 1270 29EA0104 		bic	r4, r9, r1
 2466 1274 179E     		ldr	r6, [sp, #92]
 2467 1276 44EA0B0B 		orr	fp, r4, fp
 2468 127a 1D44     		add	r5, r5, r3
 2469              	.LVL361:
 2470 127c 4244     		add	r2, r2, r8
 2471              	.LVL362:
 2472 127e 0EEBF564 		add	r4, lr, r5, ror #27
 2473 1282 5A44     		add	r2, r2, fp
 2474 1284 06EB7242 		add	r2, r6, r2, ror #17
 2475 1288 2546     		mov	r5, r4
 2476              	.LVL363:
 2477              		.loc 1 251 0
 2478 128a 189E     		ldr	r6, [sp, #96]
 2479 128c 039C     		ldr	r4, [sp, #12]
 2480              	.LVL364:
 2481 128e 9C4B     		ldr	r3, .L23
 2482 1290 1995     		str	r5, [sp, #100]
 2483              		.loc 1 250 0
 2484 1292 4FEABC5C 		ror	ip, ip, #22
 2485              	.LVL365:
 2486              		.loc 1 251 0
 2487 1296 05EA0C0B 		and	fp, r5, ip
 2488 129a E318     		adds	r3, r4, r3
 2489 129c 0E9D     		ldr	r5, [sp, #56]
 2490              	.LVL366:
 2491 129e 26EA0C04 		bic	r4, r6, ip
 2492 12a2 7344     		add	r3, r3, lr
 2493 12a4 4BEA0404 		orr	r4, fp, r4
 2494 12a8 179E     		ldr	r6, [sp, #92]
 2495              		.loc 1 250 0
 2496 12aa 4FEAB050 		ror	r0, r0, #22
 2497              	.LVL367:
 2498 12ae A846     		mov	r8, r5
 2499              		.loc 1 251 0
 2500 12b0 1C44     		add	r4, r4, r3
 2501              	.LVL368:
 2502 12b2 189B     		ldr	r3, [sp, #96]
ARM GAS  C:\Users\jo\AppData\Local\Temp\ccdgtuym.s 			page 45


 2503 12b4 059D     		ldr	r5, [sp, #20]
 2504 12b6 20EA020E 		bic	lr, r0, r2
 2505 12ba D044     		add	r8, r8, r10
 2506 12bc 02EA010A 		and	r10, r2, r1
 2507 12c0 4EEA0A0A 		orr	r10, lr, r10
 2508 12c4 B044     		add	r8, r8, r6
 2509 12c6 4FEAB356 		ror	r6, r3, #22
 2510              		.loc 1 261 0
 2511 12ca 199B     		ldr	r3, [sp, #100]
 2512              		.loc 1 251 0
 2513 12cc 4FEAB151 		ror	r1, r1, #22
 2514              	.LVL369:
 2515 12d0 D044     		add	r8, r8, r10
 2516 12d2 A5F1AD4E 		sub	lr, r5, #1451229184
 2517 12d6 109D     		ldr	r5, [sp, #64]
 2518 12d8 09EB3868 		add	r8, r9, r8, ror #24
 2519              		.loc 1 261 0
 2520 12dc 63EA060B 		orn	fp, r3, r6
 2521 12e0 82EA0103 		eor	r3, r2, r1
 2522 12e4 83EA0803 		eor	r3, r3, r8
 2523 12e8 A944     		add	r9, r9, r5
 2524              	.LVL370:
 2525 12ea 9944     		add	r9, r9, r3
 2526 12ec AEF5301E 		sub	lr, lr, #2883584
 2527 12f0 019B     		ldr	r3, [sp, #4]
 2528 12f2 199D     		ldr	r5, [sp, #100]
 2529 12f4 AEF2B22E 		subw	lr, lr, #690
 2530              		.loc 1 251 0
 2531 12f8 07EB3454 		add	r4, r7, r4, ror #20
 2532              	.LVL371:
 2533 12fc 7744     		add	r7, r7, lr
 2534              	.LVL372:
 2535 12fe 9E46     		mov	lr, r3
 2536 1300 804B     		ldr	r3, .L23+4
 2537              		.loc 1 261 0
 2538 1302 84EA0B0B 		eor	fp, r4, fp
 2539 1306 7344     		add	r3, lr, r3
 2540 1308 5F44     		add	r7, r7, fp
 2541              	.LVL373:
 2542 130a 0CEBF757 		add	r7, ip, r7, ror #23
 2543              	.LVL374:
 2544 130e 9C44     		add	ip, ip, r3
 2545              	.LVL375:
 2546 1310 0F9B     		ldr	r3, [sp, #60]
 2547 1312 4FEAB252 		ror	r2, r2, #22
 2548              	.LVL376:
 2549 1316 00EB3969 		add	r9, r0, r9, ror #24
 2550 131a 88EA020E 		eor	lr, r8, r2
 2551 131e 1844     		add	r0, r0, r3
 2552              	.LVL377:
 2553 1320 069B     		ldr	r3, [sp, #24]
 2554 1322 4FEAB555 		ror	r5, r5, #22
 2555              	.LVL378:
 2556              		.loc 1 262 0
 2557 1326 8EEA090E 		eor	lr, lr, r9
 2558 132a 64EA050A 		orn	r10, r4, r5
 2559 132e 7044     		add	r0, r0, lr
ARM GAS  C:\Users\jo\AppData\Local\Temp\ccdgtuym.s 			page 46


 2560 1330 A3F1AD4E 		sub	lr, r3, #1451229184
 2561 1334 87EA0A0A 		eor	r10, r7, r10
 2562 1338 AEF5301E 		sub	lr, lr, #2883584
 2563 133c 4FEAB454 		ror	r4, r4, #22
 2564              	.LVL379:
 2565 1340 D444     		add	ip, ip, r10
 2566              	.LVL380:
 2567 1342 AEF2B22E 		subw	lr, lr, #690
 2568 1346 06EB7C4C 		add	ip, r6, ip, ror #17
 2569              	.LVL381:
 2570 134a 4FEAB85A 		ror	r10, r8, #22
 2571              		.loc 1 263 0
 2572 134e 67EA0403 		orn	r3, r7, r4
 2573 1352 06EB0E08 		add	r8, r6, lr
 2574              	.LVL382:
 2575 1356 0B9E     		ldr	r6, [sp, #44]
 2576              	.LVL383:
 2577 1358 8CEA0303 		eor	r3, ip, r3
 2578              		.loc 1 262 0
 2579 135c 01EBF060 		add	r0, r1, r0, ror #27
 2580              	.LVL384:
 2581 1360 3144     		add	r1, r1, r6
 2582              	.LVL385:
 2583              		.loc 1 263 0
 2584 1362 08EB0306 		add	r6, r8, r3
 2585              	.LVL386:
 2586 1366 0A9B     		ldr	r3, [sp, #40]
 2587 1368 9E46     		mov	lr, r3
 2588 136a 664B     		ldr	r3, .L23+4
 2589 136c 89EA0A0B 		eor	fp, r9, r10
 2590 1370 8BEA000B 		eor	fp, fp, r0
 2591 1374 7344     		add	r3, lr, r3
 2592 1376 05EBF666 		add	r6, r5, r6, ror #27
 2593              	.LVL387:
 2594 137a 5944     		add	r1, r1, fp
 2595 137c 4FEAB959 		ror	r9, r9, #22
 2596              	.LVL388:
 2597 1380 1D44     		add	r5, r5, r3
 2598              	.LVL389:
 2599 1382 059B     		ldr	r3, [sp, #20]
 2600 1384 02EB3158 		add	r8, r2, r1, ror #20
 2601              	.LVL390:
 2602 1388 80EA0901 		eor	r1, r0, r9
 2603 138c 4FEAB757 		ror	r7, r7, #22
 2604              	.LVL391:
 2605              		.loc 1 264 0
 2606 1390 81EA0801 		eor	r1, r1, r8
 2607 1394 1A44     		add	r2, r2, r3
 2608              	.LVL392:
 2609 1396 4FEABC5B 		ror	fp, ip, #22
 2610 139a 6CEA070E 		orn	lr, ip, r7
 2611 139e 0A44     		add	r2, r2, r1
 2612 13a0 DFF860C1 		ldr	ip, .L23+4
 2613              	.LVL393:
 2614 13a4 0899     		ldr	r1, [sp, #32]
 2615 13a6 86EA0E0E 		eor	lr, r6, lr
 2616 13aa 4FEAB050 		ror	r0, r0, #22
ARM GAS  C:\Users\jo\AppData\Local\Temp\ccdgtuym.s 			page 47


 2617              	.LVL394:
 2618 13ae 8C44     		add	ip, r1, ip
 2619 13b0 0299     		ldr	r1, [sp, #8]
 2620 13b2 0AEBF252 		add	r2, r10, r2, ror #23
 2621 13b6 88EA0003 		eor	r3, r8, r0
 2622 13ba 7544     		add	r5, r5, lr
 2623              	.LVL395:
 2624 13bc 04EB7555 		add	r5, r4, r5, ror #21
 2625              	.LVL396:
 2626              		.loc 1 265 0
 2627 13c0 66EA0B0E 		orn	lr, r6, fp
 2628 13c4 8A44     		add	r10, r10, r1
 2629              	.LVL397:
 2630 13c6 83EA0201 		eor	r1, r3, r2
 2631 13ca 85EA0E0E 		eor	lr, r5, lr
 2632 13ce 4FEAB653 		ror	r3, r6, #22
 2633 13d2 6444     		add	r4, r4, ip
 2634              	.LVL398:
 2635 13d4 109E     		ldr	r6, [sp, #64]
 2636              	.LVL399:
 2637 13d6 5144     		add	r1, r1, r10
 2638 13d8 DFF828A1 		ldr	r10, .L23+4
 2639 13dc 7444     		add	r4, r4, lr
 2640              	.LVL400:
 2641 13de 07EBB46C 		add	ip, r7, r4, ror #26
 2642              	.LVL401:
 2643 13e2 4FEAB858 		ror	r8, r8, #22
 2644              	.LVL402:
 2645 13e6 B244     		add	r10, r6, r10
 2646              		.loc 1 266 0
 2647 13e8 65EA0304 		orn	r4, r5, r3
 2648 13ec 069E     		ldr	r6, [sp, #24]
 2649              		.loc 1 265 0
 2650 13ee 09EB3151 		add	r1, r9, r1, ror #20
 2651              	.LVL403:
 2652 13f2 82EA080E 		eor	lr, r2, r8
 2653              		.loc 1 266 0
 2654 13f6 8CEA0404 		eor	r4, ip, r4
 2655 13fa 5744     		add	r7, r7, r10
 2656              	.LVL404:
 2657 13fc 4FEAB555 		ror	r5, r5, #22
 2658              	.LVL405:
 2659 1400 8EEA010E 		eor	lr, lr, r1
 2660 1404 2744     		add	r7, r7, r4
 2661              	.LVL406:
 2662 1406 B144     		add	r9, r9, r6
 2663              	.LVL407:
 2664 1408 039E     		ldr	r6, [sp, #12]
 2665 140a 0BEB376A 		add	r10, fp, r7, ror #24
 2666 140e F144     		add	r9, r9, lr
 2667              	.LVL408:
 2668              		.loc 1 267 0
 2669 1410 6CEA0507 		orn	r7, ip, r5
 2670              		.loc 1 266 0
 2671 1414 4FEAB252 		ror	r2, r2, #22
 2672              	.LVL409:
 2673 1418 A6F1AD4E 		sub	lr, r6, #1451229184
ARM GAS  C:\Users\jo\AppData\Local\Temp\ccdgtuym.s 			page 48


 2674 141c 00EBF966 		add	r6, r0, r9, ror #27
 2675              	.LVL410:
 2676              		.loc 1 267 0
 2677 1420 8AEA0709 		eor	r9, r10, r7
 2678 1424 099F     		ldr	r7, [sp, #36]
 2679 1426 81EA0204 		eor	r4, r1, r2
 2680 142a 7440     		eors	r4, r4, r6
 2681 142c 3844     		add	r0, r0, r7
 2682              	.LVL411:
 2683 142e AEF5301E 		sub	lr, lr, #2883584
 2684 1432 0B9F     		ldr	r7, [sp, #44]
 2685 1434 2044     		add	r0, r0, r4
 2686 1436 AEF2B22E 		subw	lr, lr, #690
 2687 143a 324C     		ldr	r4, .L23+4
 2688 143c DE44     		add	lr, lr, fp
 2689              	.LVL412:
 2690 143e 4FEABC5C 		ror	ip, ip, #22
 2691              	.LVL413:
 2692 1442 CE44     		add	lr, lr, r9
 2693              	.LVL414:
 2694 1444 3C19     		adds	r4, r7, r4
 2695 1446 03EBFE4E 		add	lr, r3, lr, ror #19
 2696              	.LVL415:
 2697              		.loc 1 268 0
 2698 144a 6AEA0C09 		orn	r9, r10, ip
 2699 144e 1C44     		add	r4, r4, r3
 2700 1450 089B     		ldr	r3, [sp, #32]
 2701              	.LVL416:
 2702 1452 8EEA0909 		eor	r9, lr, r9
 2703              		.loc 1 267 0
 2704 1456 08EBB047 		add	r7, r8, r0, ror #18
 2705              	.LVL417:
 2706 145a 4FEAB151 		ror	r1, r1, #22
 2707              	.LVL418:
 2708              		.loc 1 268 0
 2709 145e A144     		add	r9, r9, r4
 2710              	.LVL419:
 2711 1460 9844     		add	r8, r8, r3
 2712              	.LVL420:
 2713 1462 4FEABA54 		ror	r4, r10, #22
 2714 1466 0E9B     		ldr	r3, [sp, #56]
 2715 1468 DFF898A0 		ldr	r10, .L23+4
 2716              	.LVL421:
 2717 146c 86EA0100 		eor	r0, r6, r1
 2718 1470 7840     		eors	r0, r0, r7
 2719 1472 9A44     		add	r10, r3, r10
 2720 1474 05EB395B 		add	fp, r5, r9, ror #20
 2721 1478 8044     		add	r8, r8, r0
 2722              	.LVL422:
 2723 147a AA44     		add	r10, r10, r5
 2724              		.loc 1 269 0
 2725 147c 6EEA0400 		orn	r0, lr, r4
 2726 1480 079D     		ldr	r5, [sp, #28]
 2727              	.LVL423:
 2728              		.loc 1 268 0
 2729 1482 4FEAB656 		ror	r6, r6, #22
 2730              	.LVL424:
ARM GAS  C:\Users\jo\AppData\Local\Temp\ccdgtuym.s 			page 49


 2731              		.loc 1 269 0
 2732 1486 8BEA0000 		eor	r0, fp, r0
 2733              		.loc 1 268 0
 2734 148a 02EBB863 		add	r3, r2, r8, ror #26
 2735              	.LVL425:
 2736 148e 87EA0609 		eor	r9, r7, r6
 2737 1492 2A44     		add	r2, r2, r5
 2738              	.LVL426:
 2739              		.loc 1 269 0
 2740 1494 0AEB0005 		add	r5, r10, r0
 2741              	.LVL427:
 2742 1498 0CEBF568 		add	r8, ip, r5, ror #27
 2743 149c 89EA0309 		eor	r9, r9, r3
 2744 14a0 029D     		ldr	r5, [sp, #8]
 2745              	.LVL428:
 2746 14a2 1848     		ldr	r0, .L23+4
 2747 14a4 4FEAB757 		ror	r7, r7, #22
 2748              	.LVL429:
 2749 14a8 9144     		add	r9, r9, r2
 2750 14aa 039A     		ldr	r2, [sp, #12]
 2751 14ac 01EB3969 		add	r9, r1, r9, ror #24
 2752 14b0 2818     		adds	r0, r5, r0
 2753 14b2 83EA0705 		eor	r5, r3, r7
 2754 14b6 4FEABE5E 		ror	lr, lr, #22
 2755              	.LVL430:
 2756              		.loc 1 270 0
 2757 14ba 85EA0905 		eor	r5, r5, r9
 2758 14be 1144     		add	r1, r1, r2
 2759              	.LVL431:
 2760 14c0 6BEA0E0A 		orn	r10, fp, lr
 2761 14c4 2944     		add	r1, r1, r5
 2762 14c6 049D     		ldr	r5, [sp, #16]
 2763 14c8 88EA0A0A 		eor	r10, r8, r10
 2764 14cc 8444     		add	ip, ip, r0
 2765              	.LVL432:
 2766 14ce D444     		add	ip, ip, r10
 2767              	.LVL433:
 2768 14d0 AA46     		mov	r10, r5
 2769 14d2 0C4D     		ldr	r5, .L23+4
 2770 14d4 5544     		add	r5, r10, r5
 2771 14d6 04EB3C5C 		add	ip, r4, ip, ror #20
 2772              	.LVL434:
 2773 14da 2544     		add	r5, r5, r4
 2774 14dc 0D9C     		ldr	r4, [sp, #52]
 2775              	.LVL435:
 2776 14de 06EBF14A 		add	r10, r6, r1, ror #19
 2777 14e2 2644     		add	r6, r6, r4
 2778              	.LVL436:
 2779 14e4 099C     		ldr	r4, [sp, #36]
 2780 14e6 4FEABB5B 		ror	fp, fp, #22
 2781              	.LVL437:
 2782 14ea 4FEAB353 		ror	r3, r3, #22
 2783              	.LVL438:
 2784              		.loc 1 271 0
 2785 14ee 68EA0B00 		orn	r0, r8, fp
 2786 14f2 A4F1AD44 		sub	r4, r4, #1451229184
 2787 14f6 89EA0302 		eor	r2, r9, r3
ARM GAS  C:\Users\jo\AppData\Local\Temp\ccdgtuym.s 			page 50


 2788 14fa 8CEA0000 		eor	r0, ip, r0
 2789 14fe 05E0     		b	.L24
 2790              	.L25:
 2791              		.align	2
 2792              	.L23:
 2793 1500 DCBC1B8F 		.word	-1894007588
 2794 1504 4EFD53A9 		.word	-1454113458
 2795 1508 E9766D7A 		.word	2053994217
 2796              	.L24:
 2797 150c A4F53014 		sub	r4, r4, #2883584
 2798 1510 82EA0A02 		eor	r2, r2, r10
 2799 1514 4FEAB858 		ror	r8, r8, #22
 2800              	.LVL439:
 2801 1518 0544     		add	r5, r5, r0
 2802              	.LVL440:
 2803 151a A4F2B224 		subw	r4, r4, #690
 2804 151e 0EEBF545 		add	r5, lr, r5, ror #19
 2805              	.LVL441:
 2806 1522 1644     		add	r6, r6, r2
 2807              	.LVL442:
 2808 1524 A644     		add	lr, lr, r4
 2809              	.LVL443:
 2810              		.loc 1 272 0
 2811 1526 6CEA0802 		orn	r2, ip, r8
 2812 152a 0E9C     		ldr	r4, [sp, #56]
 2813 152c 6A40     		eors	r2, r2, r5
 2814              		.loc 1 271 0
 2815 152e 07EBB666 		add	r6, r7, r6, ror #26
 2816              	.LVL444:
 2817 1532 2744     		add	r7, r7, r4
 2818              	.LVL445:
 2819              		.loc 1 272 0
 2820 1534 0EEB0204 		add	r4, lr, r2
 2821 1538 0C9A     		ldr	r2, [sp, #48]
 2822              		.loc 1 271 0
 2823 153a 4FEAB959 		ror	r9, r9, #22
 2824              	.LVL446:
 2825 153e 9646     		mov	lr, r2
 2826 1540 424A     		ldr	r2, .L26
 2827 1542 8AEA0901 		eor	r1, r10, r9
 2828              		.loc 1 272 0
 2829 1546 81EA0600 		eor	r0, r1, r6
 2830 154a 7244     		add	r2, lr, r2
 2831 154c 0BEBB444 		add	r4, fp, r4, ror #18
 2832              	.LVL447:
 2833 1550 4FEABA5A 		ror	r10, r10, #22
 2834              	.LVL448:
 2835 1554 0744     		add	r7, r7, r0
 2836 1556 9344     		add	fp, fp, r2
 2837              	.LVL449:
 2838 1558 019A     		ldr	r2, [sp, #4]
 2839 155a 03EBF767 		add	r7, r3, r7, ror #27
 2840 155e 86EA0A0E 		eor	lr, r6, r10
 2841 1562 4FEABC51 		ror	r1, ip, #22
 2842              	.LVL450:
 2843 1566 1344     		add	r3, r3, r2
 2844              	.LVL451:
ARM GAS  C:\Users\jo\AppData\Local\Temp\ccdgtuym.s 			page 51


 2845              		.loc 1 273 0
 2846 1568 8EEA070E 		eor	lr, lr, r7
 2847 156c 079A     		ldr	r2, [sp, #28]
 2848 156e 65EA0100 		orn	r0, r5, r1
 2849 1572 9E44     		add	lr, lr, r3
 2850 1574 354B     		ldr	r3, .L26
 2851 1576 6040     		eors	r0, r0, r4
 2852 1578 D318     		adds	r3, r2, r3
 2853 157a 8344     		add	fp, fp, r0
 2854              	.LVL452:
 2855 157c 08EB7B5B 		add	fp, r8, fp, ror #21
 2856              	.LVL453:
 2857 1580 4FEAB656 		ror	r6, r6, #22
 2858              	.LVL454:
 2859 1584 9844     		add	r8, r8, r3
 2860              	.LVL455:
 2861 1586 049B     		ldr	r3, [sp, #16]
 2862 1588 09EB7E4E 		add	lr, r9, lr, ror #17
 2863 158c 87EA0602 		eor	r2, r7, r6
 2864 1590 4FEAB555 		ror	r5, r5, #22
 2865              	.LVL456:
 2866              		.loc 1 274 0
 2867 1594 82EA0E02 		eor	r2, r2, lr
 2868 1598 9944     		add	r9, r9, r3
 2869              	.LVL457:
 2870 159a 64EA050C 		orn	ip, r4, r5
 2871 159e 9144     		add	r9, r9, r2
 2872 15a0 0F9A     		ldr	r2, [sp, #60]
 2873 15a2 8BEA0C0C 		eor	ip, fp, ip
 2874 15a6 E044     		add	r8, r8, ip
 2875              	.LVL458:
 2876 15a8 A2F1AD4C 		sub	ip, r2, #1451229184
 2877 15ac ACF5301C 		sub	ip, ip, #2883584
 2878 15b0 ACF2B22C 		subw	ip, ip, #690
 2879 15b4 01EB3868 		add	r8, r1, r8, ror #24
 2880              	.LVL459:
 2881 15b8 4FEAB454 		ror	r4, r4, #22
 2882              	.LVL460:
 2883 15bc 4FEAB757 		ror	r7, r7, #22
 2884              	.LVL461:
 2885 15c0 8C44     		add	ip, ip, r1
 2886 15c2 0A99     		ldr	r1, [sp, #40]
 2887              	.LVL462:
 2888 15c4 0AEBF949 		add	r9, r10, r9, ror #19
 2889              	.LVL463:
 2890              		.loc 1 275 0
 2891 15c8 6BEA0403 		orn	r3, fp, r4
 2892 15cc 8EEA0702 		eor	r2, lr, r7
 2893 15d0 88EA0303 		eor	r3, r8, r3
 2894 15d4 82EA0902 		eor	r2, r2, r9
 2895 15d8 8A44     		add	r10, r10, r1
 2896              	.LVL464:
 2897 15da 9C44     		add	ip, ip, r3
 2898              	.LVL465:
 2899 15dc 9244     		add	r10, r10, r2
 2900 15de 0D9B     		ldr	r3, [sp, #52]
 2901 15e0 1A4A     		ldr	r2, .L26
ARM GAS  C:\Users\jo\AppData\Local\Temp\ccdgtuym.s 			page 52


 2902 15e2 1499     		ldr	r1, [sp, #80]
 2903 15e4 9A18     		adds	r2, r3, r2
 2904 15e6 05EBFC6C 		add	ip, r5, ip, ror #27
 2905              	.LVL466:
 2906 15ea 1544     		add	r5, r5, r2
 2907              	.LVL467:
 2908 15ec 0C9A     		ldr	r2, [sp, #48]
 2909 15ee 06EB7A5A 		add	r10, r6, r10, ror #21
 2910 15f2 1644     		add	r6, r6, r2
 2911              	.LVL468:
 2912 15f4 159A     		ldr	r2, [sp, #84]
 2913 15f6 4FEABB5B 		ror	fp, fp, #22
 2914              	.LVL469:
 2915 15fa 4FEABE5E 		ror	lr, lr, #22
 2916              	.LVL470:
 2917 15fe 89EA0E00 		eor	r0, r9, lr
 2918              	.LVL471:
 2919              		.loc 1 276 0
 2920 1602 68EA0B03 		orn	r3, r8, fp
 2921              	.LVL472:
 2922 1606 9644     		add	lr, lr, r2
 2923              	.LVL473:
 2924 1608 119A     		ldr	r2, [sp, #68]
 2925 160a 8CEA0303 		eor	r3, ip, r3
 2926              	.LVL474:
 2927 160e 02EBB959 		add	r9, r2, r9, ror #22
 2928              	.LVL475:
 2929 1612 1D44     		add	r5, r5, r3
 2930              	.LVL476:
 2931 1614 169A     		ldr	r2, [sp, #88]
 2932 1616 129B     		ldr	r3, [sp, #72]
 2933 1618 6118     		adds	r1, r4, r1
 2934 161a 80EA0A00 		eor	r0, r0, r10
 2935              	.LVL477:
 2936 161e 3C44     		add	r4, r4, r7
 2937              	.LVL478:
 2938 1620 1444     		add	r4, r4, r2
 2939 1622 8A44     		add	r10, r10, r1
 2940              	.LVL479:
 2941 1624 0644     		add	r6, r6, r0
 2942 1626 1F44     		add	r7, r7, r3
 2943              	.LVL480:
 2944              		.loc 1 283 0
 2945 1628 1398     		ldr	r0, [sp, #76]
 2946 162a 0EEBB853 		add	r3, lr, r8, ror #22
 2947              		.loc 1 282 0
 2948 162e 09EB0C02 		add	r2, r9, ip
 2949              	.LVL481:
 2950              		.loc 1 286 0
 2951 1632 0AEBB565 		add	r5, r10, r5, ror #26
 2952              		.loc 1 285 0
 2953 1636 04EB7656 		add	r6, r4, r6, ror #21
 2954              		.loc 1 284 0
 2955 163a 5F44     		add	r7, r7, fp
 2956              		.loc 1 283 0
 2957 163c C360     		str	r3, [r0, #12]
 2958              	.LVL482:
ARM GAS  C:\Users\jo\AppData\Local\Temp\ccdgtuym.s 			page 53


 2959              		.loc 1 287 0
 2960 163e 8260     		str	r2, [r0, #8]
 2961              		.loc 1 286 0
 2962 1640 8561     		str	r5, [r0, #24]
 2963              		.loc 1 285 0
 2964 1642 4661     		str	r6, [r0, #20]
 2965              		.loc 1 284 0
 2966 1644 0761     		str	r7, [r0, #16]
 2967              		.loc 1 288 0
 2968 1646 31B0     		add	sp, sp, #196
 2969              		.cfi_def_cfa_offset 36
 2970              		@ sp needed
 2971 1648 BDE8F08F 		pop	{r4, r5, r6, r7, r8, r9, r10, fp, pc}
 2972              	.LVL483:
 2973              	.L27:
 2974              		.align	2
 2975              	.L26:
 2976 164c 4EFD53A9 		.word	-1454113458
 2977              		.cfi_endproc
 2978              	.LFE4:
 2979              		.size	ripemd160_process, .-ripemd160_process
 2980              		.section	.text.ripemd160_update.part.0,"ax",%progbits
 2981              		.align	2
 2982              		.p2align 4,,15
 2983              		.thumb
 2984              		.thumb_func
 2985              		.type	ripemd160_update.part.0, %function
 2986              	ripemd160_update.part.0:
 2987              	.LFB15:
 2988              		.loc 1 293 0
 2989              		.cfi_startproc
 2990              		@ args = 0, pretend = 0, frame = 0
 2991              		@ frame_needed = 0, uses_anonymous_args = 0
 2992              	.LVL484:
 2993 0000 2DE9F843 		push	{r3, r4, r5, r6, r7, r8, r9, lr}
 2994              		.cfi_def_cfa_offset 32
 2995              		.cfi_offset 3, -32
 2996              		.cfi_offset 4, -28
 2997              		.cfi_offset 5, -24
 2998              		.cfi_offset 6, -20
 2999              		.cfi_offset 7, -16
 3000              		.cfi_offset 8, -12
 3001              		.cfi_offset 9, -8
 3002              		.cfi_offset 14, -4
 3003              		.loc 1 293 0
 3004 0004 0646     		mov	r6, r0
 3005              		.loc 1 302 0
 3006 0006 0068     		ldr	r0, [r0]
 3007              	.LVL485:
 3008              		.loc 1 305 0
 3009 0008 1318     		adds	r3, r2, r0
 3010              		.loc 1 308 0
 3011 000a 9A42     		cmp	r2, r3
 3012              		.loc 1 293 0
 3013 000c 1746     		mov	r7, r2
 3014 000e 8946     		mov	r9, r1
 3015              		.loc 1 305 0
ARM GAS  C:\Users\jo\AppData\Local\Temp\ccdgtuym.s 			page 54


 3016 0010 3360     		str	r3, [r6]
 3017              		.loc 1 302 0
 3018 0012 00F03F08 		and	r8, r0, #63
 3019              	.LVL486:
 3020              		.loc 1 308 0
 3021 0016 02D9     		bls	.L29
 3022              		.loc 1 309 0
 3023 0018 7368     		ldr	r3, [r6, #4]
 3024 001a 0133     		adds	r3, r3, #1
 3025 001c 7360     		str	r3, [r6, #4]
 3026              	.L29:
 3027              		.loc 1 311 0
 3028 001e B8F1000F 		cmp	r8, #0
 3029 0022 16D0     		beq	.L30
 3030              		.loc 1 303 0
 3031 0024 C8F14004 		rsb	r4, r8, #64
 3032              		.loc 1 311 0
 3033 0028 BC42     		cmp	r4, r7
 3034 002a 02D9     		bls	.L40
 3035              	.LVL487:
 3036              	.L32:
 3037              		.loc 1 327 0
 3038 002c 47BB     		cbnz	r7, .L41
 3039              	.LVL488:
 3040              	.L28:
 3041 002e BDE8F883 		pop	{r3, r4, r5, r6, r7, r8, r9, pc}
 3042              	.LVL489:
 3043              	.L40:
 3044              		.loc 1 313 0
 3045 0032 06EB0800 		add	r0, r6, r8
 3046 0036 4946     		mov	r1, r9
 3047              	.LVL490:
 3048 0038 2246     		mov	r2, r4
 3049              	.LVL491:
 3050 003a 1C30     		adds	r0, r0, #28
 3051 003c FFF7FEFF 		bl	memcpy
 3052              	.LVL492:
 3053              		.loc 1 314 0
 3054 0040 3046     		mov	r0, r6
 3055 0042 06F11C01 		add	r1, r6, #28
 3056 0046 FFF7FEFF 		bl	ripemd160_process
 3057              	.LVL493:
 3058              		.loc 1 316 0
 3059 004a 3F1B     		subs	r7, r7, r4
 3060              	.LVL494:
 3061              		.loc 1 315 0
 3062 004c A144     		add	r9, r9, r4
 3063              	.LVL495:
 3064              		.loc 1 317 0
 3065 004e 4FF00008 		mov	r8, #0
 3066              	.LVL496:
 3067              	.L30:
 3068              		.loc 1 320 0
 3069 0052 3F2F     		cmp	r7, #63
 3070 0054 EAD9     		bls	.L32
 3071 0056 3D46     		mov	r5, r7
 3072 0058 4C46     		mov	r4, r9
ARM GAS  C:\Users\jo\AppData\Local\Temp\ccdgtuym.s 			page 55


 3073              	.LVL497:
 3074              	.L33:
 3075              		.loc 1 322 0
 3076 005a 2146     		mov	r1, r4
 3077              		.loc 1 324 0
 3078 005c 403D     		subs	r5, r5, #64
 3079              	.LVL498:
 3080              		.loc 1 322 0
 3081 005e 3046     		mov	r0, r6
 3082 0060 FFF7FEFF 		bl	ripemd160_process
 3083              	.LVL499:
 3084              		.loc 1 320 0
 3085 0064 3F2D     		cmp	r5, #63
 3086              		.loc 1 323 0
 3087 0066 04F14004 		add	r4, r4, #64
 3088              	.LVL500:
 3089              		.loc 1 320 0
 3090 006a F6D8     		bhi	.L33
 3091 006c A7F14003 		sub	r3, r7, #64
 3092 0070 23F03F03 		bic	r3, r3, #63
 3093 0074 4033     		adds	r3, r3, #64
 3094 0076 07F03F07 		and	r7, r7, #63
 3095 007a 9944     		add	r9, r9, r3
 3096              		.loc 1 327 0
 3097 007c 002F     		cmp	r7, #0
 3098 007e D6D0     		beq	.L28
 3099              	.LVL501:
 3100              	.L41:
 3101              		.loc 1 329 0
 3102 0080 06EB0800 		add	r0, r6, r8
 3103 0084 4946     		mov	r1, r9
 3104 0086 3A46     		mov	r2, r7
 3105 0088 1C30     		adds	r0, r0, #28
 3106              		.loc 1 331 0
 3107 008a BDE8F843 		pop	{r3, r4, r5, r6, r7, r8, r9, lr}
 3108              		.cfi_restore 14
 3109              		.cfi_restore 9
 3110              		.cfi_restore 8
 3111              		.cfi_restore 7
 3112              		.cfi_restore 6
 3113              		.cfi_restore 5
 3114              		.cfi_restore 4
 3115              		.cfi_restore 3
 3116              		.cfi_def_cfa_offset 0
 3117              	.LVL502:
 3118              		.loc 1 329 0
 3119 008e FFF7FEBF 		b	memcpy
 3120              	.LVL503:
 3121              		.cfi_endproc
 3122              	.LFE15:
 3123              		.size	ripemd160_update.part.0, .-ripemd160_update.part.0
 3124 0092 00BFAFF3 		.section	.text.ripemd160_update,"ax",%progbits
 3124      0080AFF3 
 3124      0080AFF3 
 3124      0080
 3125              		.align	2
 3126              		.p2align 4,,15
ARM GAS  C:\Users\jo\AppData\Local\Temp\ccdgtuym.s 			page 56


 3127              		.global	ripemd160_update
 3128              		.thumb
 3129              		.thumb_func
 3130              		.type	ripemd160_update, %function
 3131              	ripemd160_update:
 3132              	.LFB5:
 3133              		.loc 1 295 0
 3134              		.cfi_startproc
 3135              		@ args = 0, pretend = 0, frame = 0
 3136              		@ frame_needed = 0, uses_anonymous_args = 0
 3137              		@ link register save eliminated.
 3138              	.LVL504:
 3139              		.loc 1 299 0
 3140 0000 0AB1     		cbz	r2, .L42
 3141 0002 FFF7FEBF 		b	ripemd160_update.part.0
 3142              	.LVL505:
 3143              	.L42:
 3144 0006 7047     		bx	lr
 3145              		.cfi_endproc
 3146              	.LFE5:
 3147              		.size	ripemd160_update, .-ripemd160_update
 3148 0008 AFF30080 		.section	.text.ripemd160_finish,"ax",%progbits
 3148      AFF30080 
 3149              		.align	2
 3150              		.p2align 4,,15
 3151              		.global	ripemd160_finish
 3152              		.thumb
 3153              		.thumb_func
 3154              		.type	ripemd160_finish, %function
 3155              	ripemd160_finish:
 3156              	.LFB6:
 3157              		.loc 1 345 0
 3158              		.cfi_startproc
 3159              		@ args = 0, pretend = 0, frame = 8
 3160              		@ frame_needed = 0, uses_anonymous_args = 0
 3161              	.LVL506:
 3162 0000 2DE9F041 		push	{r4, r5, r6, r7, r8, lr}
 3163              		.cfi_def_cfa_offset 24
 3164              		.cfi_offset 4, -24
 3165              		.cfi_offset 5, -20
 3166              		.cfi_offset 6, -16
 3167              		.cfi_offset 7, -12
 3168              		.cfi_offset 8, -8
 3169              		.cfi_offset 14, -4
 3170              		.loc 1 350 0
 3171 0004 0268     		ldr	r2, [r0]
 3172              		.loc 1 345 0
 3173 0006 0D46     		mov	r5, r1
 3174              		.loc 1 351 0
 3175 0008 4168     		ldr	r1, [r0, #4]
 3176              	.LVL507:
 3177              		.loc 1 350 0
 3178 000a 530F     		lsrs	r3, r2, #29
 3179              		.loc 1 345 0
 3180 000c 82B0     		sub	sp, sp, #8
 3181              		.cfi_def_cfa_offset 32
 3182              		.loc 1 350 0
ARM GAS  C:\Users\jo\AppData\Local\Temp\ccdgtuym.s 			page 57


 3183 000e 43EAC103 		orr	r3, r3, r1, lsl #3
 3184              	.LVL508:
 3185              		.loc 1 352 0
 3186 0012 D100     		lsls	r1, r2, #3
 3187              	.LVL509:
 3188              		.loc 1 357 0
 3189 0014 02F03F02 		and	r2, r2, #63
 3190              	.LVL510:
 3191              		.loc 1 345 0
 3192 0018 0446     		mov	r4, r0
 3193              		.loc 1 358 0
 3194 001a 372A     		cmp	r2, #55
 3195              		.loc 1 354 0
 3196 001c 4FEA1160 		lsr	r0, r1, #24
 3197              	.LVL511:
 3198              		.loc 1 355 0
 3199 0020 4FEA1328 		lsr	r8, r3, #8
 3200 0024 4FEA134C 		lsr	ip, r3, #16
 3201 0028 4FEA136E 		lsr	lr, r3, #24
 3202              		.loc 1 358 0
 3203 002c 94BF     		ite	ls
 3204 002e C2F13802 		rsbls	r2, r2, #56
 3205              	.LVL512:
 3206 0032 C2F17802 		rsbhi	r2, r2, #120
 3207              	.LVL513:
 3208              		.loc 1 354 0
 3209 0036 0F0A     		lsrs	r7, r1, #8
 3210 0038 0E0C     		lsrs	r6, r1, #16
 3211 003a 8DF80010 		strb	r1, [sp]
 3212 003e 8DF80300 		strb	r0, [sp, #3]
 3213              	.LBB60:
 3214              	.LBB61:
 3215 0042 2249     		ldr	r1, .L48
 3216              	.LVL514:
 3217              	.LBE61:
 3218              	.LBE60:
 3219              		.loc 1 355 0
 3220 0044 8DF80430 		strb	r3, [sp, #4]
 3221              	.LBB64:
 3222              	.LBB62:
 3223 0048 2046     		mov	r0, r4
 3224              	.LBE62:
 3225              	.LBE64:
 3226 004a 8DF806C0 		strb	ip, [sp, #6]
 3227 004e 8DF807E0 		strb	lr, [sp, #7]
 3228 0052 8DF80580 		strb	r8, [sp, #5]
 3229              		.loc 1 354 0
 3230 0056 8DF80170 		strb	r7, [sp, #1]
 3231 005a 8DF80260 		strb	r6, [sp, #2]
 3232              	.LBB65:
 3233              	.LBB63:
 3234 005e FFF7FEFF 		bl	ripemd160_update.part.0
 3235              	.LVL515:
 3236              	.LBE63:
 3237              	.LBE65:
 3238              	.LBB66:
 3239              	.LBB67:
ARM GAS  C:\Users\jo\AppData\Local\Temp\ccdgtuym.s 			page 58


 3240 0062 2046     		mov	r0, r4
 3241 0064 6946     		mov	r1, sp
 3242 0066 0822     		movs	r2, #8
 3243 0068 FFF7FEFF 		bl	ripemd160_update.part.0
 3244              	.LVL516:
 3245              	.LBE67:
 3246              	.LBE66:
 3247              		.loc 1 363 0
 3248 006c A368     		ldr	r3, [r4, #8]
 3249 006e 2B70     		strb	r3, [r5]
 3250 0070 A368     		ldr	r3, [r4, #8]
 3251 0072 1B0A     		lsrs	r3, r3, #8
 3252 0074 6B70     		strb	r3, [r5, #1]
 3253 0076 6389     		ldrh	r3, [r4, #10]
 3254 0078 AB70     		strb	r3, [r5, #2]
 3255 007a E37A     		ldrb	r3, [r4, #11]	@ zero_extendqisi2
 3256 007c EB70     		strb	r3, [r5, #3]
 3257              		.loc 1 364 0
 3258 007e E368     		ldr	r3, [r4, #12]
 3259 0080 2B71     		strb	r3, [r5, #4]
 3260 0082 E368     		ldr	r3, [r4, #12]
 3261 0084 1B0A     		lsrs	r3, r3, #8
 3262 0086 6B71     		strb	r3, [r5, #5]
 3263 0088 E389     		ldrh	r3, [r4, #14]
 3264 008a AB71     		strb	r3, [r5, #6]
 3265 008c E37B     		ldrb	r3, [r4, #15]	@ zero_extendqisi2
 3266 008e EB71     		strb	r3, [r5, #7]
 3267              		.loc 1 365 0
 3268 0090 2369     		ldr	r3, [r4, #16]
 3269 0092 2B72     		strb	r3, [r5, #8]
 3270 0094 2369     		ldr	r3, [r4, #16]
 3271 0096 1B0A     		lsrs	r3, r3, #8
 3272 0098 6B72     		strb	r3, [r5, #9]
 3273 009a 638A     		ldrh	r3, [r4, #18]
 3274 009c AB72     		strb	r3, [r5, #10]
 3275 009e E37C     		ldrb	r3, [r4, #19]	@ zero_extendqisi2
 3276 00a0 EB72     		strb	r3, [r5, #11]
 3277              		.loc 1 366 0
 3278 00a2 6369     		ldr	r3, [r4, #20]
 3279 00a4 2B73     		strb	r3, [r5, #12]
 3280 00a6 6369     		ldr	r3, [r4, #20]
 3281 00a8 1B0A     		lsrs	r3, r3, #8
 3282 00aa 6B73     		strb	r3, [r5, #13]
 3283 00ac E38A     		ldrh	r3, [r4, #22]
 3284 00ae AB73     		strb	r3, [r5, #14]
 3285 00b0 E37D     		ldrb	r3, [r4, #23]	@ zero_extendqisi2
 3286 00b2 EB73     		strb	r3, [r5, #15]
 3287              		.loc 1 367 0
 3288 00b4 A369     		ldr	r3, [r4, #24]
 3289 00b6 2B74     		strb	r3, [r5, #16]
 3290 00b8 A369     		ldr	r3, [r4, #24]
 3291 00ba 1B0A     		lsrs	r3, r3, #8
 3292 00bc 6B74     		strb	r3, [r5, #17]
 3293 00be 638B     		ldrh	r3, [r4, #26]
 3294 00c0 AB74     		strb	r3, [r5, #18]
 3295 00c2 E37E     		ldrb	r3, [r4, #27]	@ zero_extendqisi2
 3296 00c4 EB74     		strb	r3, [r5, #19]
ARM GAS  C:\Users\jo\AppData\Local\Temp\ccdgtuym.s 			page 59


 3297              		.loc 1 368 0
 3298 00c6 02B0     		add	sp, sp, #8
 3299              		.cfi_def_cfa_offset 24
 3300              	.LVL517:
 3301              		@ sp needed
 3302 00c8 BDE8F081 		pop	{r4, r5, r6, r7, r8, pc}
 3303              	.LVL518:
 3304              	.L49:
 3305              		.align	2
 3306              	.L48:
 3307 00cc 00000000 		.word	.LANCHOR0
 3308              		.cfi_endproc
 3309              	.LFE6:
 3310              		.size	ripemd160_finish, .-ripemd160_finish
 3311              		.section	.text.ripemd160,"ax",%progbits
 3312              		.align	2
 3313              		.p2align 4,,15
 3314              		.global	ripemd160
 3315              		.thumb
 3316              		.thumb_func
 3317              		.type	ripemd160, %function
 3318              	ripemd160:
 3319              	.LFB7:
 3320              		.loc 1 375 0
 3321              		.cfi_startproc
 3322              		@ args = 0, pretend = 0, frame = 224
 3323              		@ frame_needed = 0, uses_anonymous_args = 0
 3324              	.LVL519:
 3325 0000 F0B5     		push	{r4, r5, r6, r7, lr}
 3326              		.cfi_def_cfa_offset 20
 3327              		.cfi_offset 4, -20
 3328              		.cfi_offset 5, -16
 3329              		.cfi_offset 6, -12
 3330              		.cfi_offset 7, -8
 3331              		.cfi_offset 14, -4
 3332 0002 B9B0     		sub	sp, sp, #228
 3333              		.cfi_def_cfa_offset 248
 3334              	.LVL520:
 3335              		.loc 1 375 0
 3336 0004 0746     		mov	r7, r0
 3337 0006 0C46     		mov	r4, r1
 3338 0008 1546     		mov	r5, r2
 3339              	.LBB68:
 3340              	.LBB69:
 3341              		.loc 1 84 0
 3342 000a 0021     		movs	r1, #0
 3343              	.LVL521:
 3344 000c DC22     		movs	r2, #220
 3345              	.LVL522:
 3346 000e 01A8     		add	r0, sp, #4
 3347              	.LVL523:
 3348 0010 FFF7FEFF 		bl	memset
 3349              	.LVL524:
 3350              	.LBE69:
 3351              	.LBE68:
 3352              	.LBB70:
 3353              	.LBB71:
ARM GAS  C:\Users\jo\AppData\Local\Temp\ccdgtuym.s 			page 60


 3354              		.loc 1 103 0
 3355 0014 0E4E     		ldr	r6, .L59
 3356              		.loc 1 104 0
 3357 0016 0F48     		ldr	r0, .L59+4
 3358              		.loc 1 105 0
 3359 0018 0F49     		ldr	r1, .L59+8
 3360              		.loc 1 106 0
 3361 001a 104A     		ldr	r2, .L59+12
 3362              		.loc 1 107 0
 3363 001c 104B     		ldr	r3, .L59+16
 3364              		.loc 1 103 0
 3365 001e 0396     		str	r6, [sp, #12]
 3366              		.loc 1 104 0
 3367 0020 0490     		str	r0, [sp, #16]
 3368              		.loc 1 105 0
 3369 0022 0591     		str	r1, [sp, #20]
 3370              		.loc 1 106 0
 3371 0024 0692     		str	r2, [sp, #24]
 3372              		.loc 1 107 0
 3373 0026 0793     		str	r3, [sp, #28]
 3374              	.LVL525:
 3375              	.LBE71:
 3376              	.LBE70:
 3377              	.LBB72:
 3378              	.LBB73:
 3379              		.loc 1 299 0
 3380 0028 64B9     		cbnz	r4, .L58
 3381              	.L51:
 3382              	.LBE73:
 3383              	.LBE72:
 3384              		.loc 1 381 0
 3385 002a 2946     		mov	r1, r5
 3386 002c 01A8     		add	r0, sp, #4
 3387              	.LVL526:
 3388 002e FFF7FEFF 		bl	ripemd160_finish
 3389              	.LVL527:
 3390 0032 01AB     		add	r3, sp, #4
 3391              	.LVL528:
 3392              	.LBB75:
 3393              	.LBB76:
 3394              	.LBB77:
 3395              		.loc 1 79 0
 3396 0034 0022     		movs	r2, #0
 3397              	.LVL529:
 3398              	.L52:
 3399 0036 1A70     		strb	r2, [r3]
 3400              	.LVL530:
 3401 0038 38A9     		add	r1, sp, #224
 3402 003a 0133     		adds	r3, r3, #1
 3403              	.LVL531:
 3404 003c 8B42     		cmp	r3, r1
 3405 003e FAD1     		bne	.L52
 3406              	.LBE77:
 3407              	.LBE76:
 3408              	.LBE75:
 3409              		.loc 1 383 0
 3410 0040 39B0     		add	sp, sp, #228
ARM GAS  C:\Users\jo\AppData\Local\Temp\ccdgtuym.s 			page 61


 3411              		.cfi_remember_state
 3412              		.cfi_def_cfa_offset 20
 3413              		@ sp needed
 3414 0042 F0BD     		pop	{r4, r5, r6, r7, pc}
 3415              	.LVL532:
 3416              	.L58:
 3417              		.cfi_restore_state
 3418              	.LBB78:
 3419              	.LBB74:
 3420 0044 3946     		mov	r1, r7
 3421 0046 2246     		mov	r2, r4
 3422 0048 01A8     		add	r0, sp, #4
 3423              	.LVL533:
 3424 004a FFF7FEFF 		bl	ripemd160_update.part.0
 3425              	.LVL534:
 3426 004e ECE7     		b	.L51
 3427              	.L60:
 3428              		.align	2
 3429              	.L59:
 3430 0050 01234567 		.word	1732584193
 3431 0054 89ABCDEF 		.word	-271733879
 3432 0058 FEDCBA98 		.word	-1732584194
 3433 005c 76543210 		.word	271733878
 3434 0060 F0E1D2C3 		.word	-1009589776
 3435              	.LBE74:
 3436              	.LBE78:
 3437              		.cfi_endproc
 3438              	.LFE7:
 3439              		.size	ripemd160, .-ripemd160
 3440 0064 AFF30080 		.section	.text.ripemd160_file,"ax",%progbits
 3440      AFF30080 
 3440      AFF30080 
 3441              		.align	2
 3442              		.p2align 4,,15
 3443              		.global	ripemd160_file
 3444              		.thumb
 3445              		.thumb_func
 3446              		.type	ripemd160_file, %function
 3447              	ripemd160_file:
 3448              	.LFB8:
 3449              		.loc 1 390 0
 3450              		.cfi_startproc
 3451              		@ args = 0, pretend = 0, frame = 1248
 3452              		@ frame_needed = 0, uses_anonymous_args = 0
 3453              	.LVL535:
 3454 0000 F0B5     		push	{r4, r5, r6, r7, lr}
 3455              		.cfi_def_cfa_offset 20
 3456              		.cfi_offset 4, -20
 3457              		.cfi_offset 5, -16
 3458              		.cfi_offset 6, -12
 3459              		.cfi_offset 7, -8
 3460              		.cfi_offset 14, -4
 3461 0002 0F46     		mov	r7, r1
 3462 0004 ADF2E44D 		subw	sp, sp, #1252
 3463              		.cfi_def_cfa_offset 1272
 3464              		.loc 1 396 0
 3465 0008 2149     		ldr	r1, .L72
ARM GAS  C:\Users\jo\AppData\Local\Temp\ccdgtuym.s 			page 62


 3466              	.LVL536:
 3467 000a FFF7FEFF 		bl	fopen
 3468              	.LVL537:
 3469 000e 0646     		mov	r6, r0
 3470 0010 0028     		cmp	r0, #0
 3471 0012 39D0     		beq	.L67
 3472              	.LVL538:
 3473              	.LBB79:
 3474              	.LBB80:
 3475              		.loc 1 84 0
 3476 0014 0021     		movs	r1, #0
 3477 0016 DC22     		movs	r2, #220
 3478 0018 01A8     		add	r0, sp, #4
 3479              	.LVL539:
 3480 001a FFF7FEFF 		bl	memset
 3481              	.LVL540:
 3482              	.LBE80:
 3483              	.LBE79:
 3484              	.LBB81:
 3485              	.LBB82:
 3486              		.loc 1 103 0
 3487 001e 1D4C     		ldr	r4, .L72+4
 3488              		.loc 1 104 0
 3489 0020 1D48     		ldr	r0, .L72+8
 3490              		.loc 1 105 0
 3491 0022 1E49     		ldr	r1, .L72+12
 3492              		.loc 1 106 0
 3493 0024 1E4A     		ldr	r2, .L72+16
 3494              		.loc 1 107 0
 3495 0026 1F4B     		ldr	r3, .L72+20
 3496              		.loc 1 103 0
 3497 0028 0394     		str	r4, [sp, #12]
 3498              		.loc 1 104 0
 3499 002a 0490     		str	r0, [sp, #16]
 3500              		.loc 1 105 0
 3501 002c 0591     		str	r1, [sp, #20]
 3502              		.loc 1 106 0
 3503 002e 0692     		str	r2, [sp, #24]
 3504              		.loc 1 107 0
 3505 0030 0793     		str	r3, [sp, #28]
 3506 0032 38AD     		add	r5, sp, #224
 3507              	.L63:
 3508              	.LBE82:
 3509              	.LBE81:
 3510              		.loc 1 402 0
 3511 0034 0121     		movs	r1, #1
 3512 0036 4FF48062 		mov	r2, #1024
 3513 003a 2846     		mov	r0, r5
 3514 003c 3346     		mov	r3, r6
 3515 003e FFF7FEFF 		bl	fread
 3516              	.LVL541:
 3517              	.LBB83:
 3518              	.LBB84:
 3519 0042 2946     		mov	r1, r5
 3520              	.LBE84:
 3521              	.LBE83:
 3522 0044 0446     		mov	r4, r0
ARM GAS  C:\Users\jo\AppData\Local\Temp\ccdgtuym.s 			page 63


 3523              	.LVL542:
 3524              	.LBB87:
 3525              	.LBB85:
 3526 0046 0246     		mov	r2, r0
 3527              	.LBE85:
 3528              	.LBE87:
 3529 0048 18B1     		cbz	r0, .L70
 3530              	.LVL543:
 3531              	.LBB88:
 3532              	.LBB86:
 3533 004a 01A8     		add	r0, sp, #4
 3534              	.LVL544:
 3535 004c FFF7FEFF 		bl	ripemd160_update.part.0
 3536              	.LVL545:
 3537 0050 F0E7     		b	.L63
 3538              	.LVL546:
 3539              	.L70:
 3540              	.LBE86:
 3541              	.LBE88:
 3542              		.loc 1 405 0
 3543 0052 01A8     		add	r0, sp, #4
 3544              	.LVL547:
 3545 0054 3946     		mov	r1, r7
 3546              	.LVL548:
 3547 0056 FFF7FEFF 		bl	ripemd160_finish
 3548              	.LVL549:
 3549 005a 01AB     		add	r3, sp, #4
 3550              	.LVL550:
 3551              	.LBB89:
 3552              	.LBB90:
 3553              	.LBB91:
 3554              		.loc 1 79 0
 3555 005c 2046     		mov	r0, r4
 3556              	.LVL551:
 3557              	.L65:
 3558 005e 1870     		strb	r0, [r3]
 3559              	.LVL552:
 3560 0060 0133     		adds	r3, r3, #1
 3561              	.LVL553:
 3562 0062 AB42     		cmp	r3, r5
 3563 0064 FBD1     		bne	.L65
 3564              	.LBE91:
 3565              	.LBE90:
 3566              	.LBE89:
 3567              		.loc 1 408 0
 3568 0066 B489     		ldrh	r4, [r6, #12]
 3569 0068 04F04004 		and	r4, r4, #64
 3570 006c A4B2     		uxth	r4, r4
 3571              		.loc 1 410 0
 3572 006e 3046     		mov	r0, r6
 3573              	.LVL554:
 3574              		.loc 1 408 0
 3575 0070 2CB9     		cbnz	r4, .L71
 3576              	.LVL555:
 3577              		.loc 1 414 0
 3578 0072 FFF7FEFF 		bl	fclose
 3579              	.LVL556:
ARM GAS  C:\Users\jo\AppData\Local\Temp\ccdgtuym.s 			page 64


 3580              		.loc 1 415 0
 3581 0076 2046     		mov	r0, r4
 3582              	.LVL557:
 3583              	.L62:
 3584              		.loc 1 416 0
 3585 0078 0DF2E44D 		addw	sp, sp, #1252
 3586              		.cfi_remember_state
 3587              		.cfi_def_cfa_offset 20
 3588              		@ sp needed
 3589 007c F0BD     		pop	{r4, r5, r6, r7, pc}
 3590              	.LVL558:
 3591              	.L71:
 3592              		.cfi_restore_state
 3593              		.loc 1 410 0
 3594 007e FFF7FEFF 		bl	fclose
 3595              	.LVL559:
 3596              		.loc 1 411 0
 3597 0082 6FF07D00 		mvn	r0, #125
 3598 0086 F7E7     		b	.L62
 3599              	.LVL560:
 3600              	.L67:
 3601              		.loc 1 397 0
 3602 0088 6FF07D00 		mvn	r0, #125
 3603              	.LVL561:
 3604 008c F4E7     		b	.L62
 3605              	.L73:
 3606 008e 00BF     		.align	2
 3607              	.L72:
 3608 0090 00000000 		.word	.LC0
 3609 0094 01234567 		.word	1732584193
 3610 0098 89ABCDEF 		.word	-271733879
 3611 009c FEDCBA98 		.word	-1732584194
 3612 00a0 76543210 		.word	271733878
 3613 00a4 F0E1D2C3 		.word	-1009589776
 3614              		.cfi_endproc
 3615              	.LFE8:
 3616              		.size	ripemd160_file, .-ripemd160_file
 3617 00a8 AFF30080 		.section	.text.ripemd160_hmac_starts,"ax",%progbits
 3617      AFF30080 
 3618              		.align	2
 3619              		.p2align 4,,15
 3620              		.global	ripemd160_hmac_starts
 3621              		.thumb
 3622              		.thumb_func
 3623              		.type	ripemd160_hmac_starts, %function
 3624              	ripemd160_hmac_starts:
 3625              	.LFB9:
 3626              		.loc 1 424 0
 3627              		.cfi_startproc
 3628              		@ args = 0, pretend = 0, frame = 24
 3629              		@ frame_needed = 0, uses_anonymous_args = 0
 3630              	.LVL562:
 3631 0000 2DE9F043 		push	{r4, r5, r6, r7, r8, r9, lr}
 3632              		.cfi_def_cfa_offset 28
 3633              		.cfi_offset 4, -28
 3634              		.cfi_offset 5, -24
 3635              		.cfi_offset 6, -20
ARM GAS  C:\Users\jo\AppData\Local\Temp\ccdgtuym.s 			page 65


 3636              		.cfi_offset 7, -16
 3637              		.cfi_offset 8, -12
 3638              		.cfi_offset 9, -8
 3639              		.cfi_offset 14, -4
 3640              		.loc 1 428 0
 3641 0004 402A     		cmp	r2, #64
 3642              		.loc 1 424 0
 3643 0006 87B0     		sub	sp, sp, #28
 3644              		.cfi_def_cfa_offset 56
 3645              		.loc 1 424 0
 3646 0008 1546     		mov	r5, r2
 3647 000a 0646     		mov	r6, r0
 3648 000c 8946     		mov	r9, r1
 3649              		.loc 1 428 0
 3650 000e 46D8     		bhi	.L86
 3651              		.loc 1 435 0
 3652 0010 00F15C07 		add	r7, r0, #92
 3653 0014 3621     		movs	r1, #54
 3654              	.LVL563:
 3655 0016 4022     		movs	r2, #64
 3656              	.LVL564:
 3657 0018 3846     		mov	r0, r7
 3658              	.LVL565:
 3659              		.loc 1 436 0
 3660 001a 06F19C08 		add	r8, r6, #156
 3661              		.loc 1 435 0
 3662 001e FFF7FEFF 		bl	memset
 3663              	.LVL566:
 3664              		.loc 1 436 0
 3665 0022 4046     		mov	r0, r8
 3666 0024 5C21     		movs	r1, #92
 3667 0026 4022     		movs	r2, #64
 3668 0028 FFF7FEFF 		bl	memset
 3669              	.LVL567:
 3670 002c 01AC     		add	r4, sp, #4
 3671              		.loc 1 438 0
 3672 002e BDB1     		cbz	r5, .L77
 3673              	.LVL568:
 3674              	.L76:
 3675 0030 06F15B0E 		add	lr, r6, #91
 3676 0034 4946     		mov	r1, r9
 3677 0036 4046     		mov	r0, r8
 3678              		.loc 1 432 0 discriminator 3
 3679 0038 F446     		mov	ip, lr
 3680 003a 0022     		movs	r2, #0
 3681              	.LVL569:
 3682              	.L78:
 3683              		.loc 1 440 0 discriminator 3
 3684 003c 91F80080 		ldrb	r8, [r1]	@ zero_extendqisi2
 3685 0040 1CF8013F 		ldrb	r3, [ip, #1]!	@ zero_extendqisi2
 3686 0044 88EA0303 		eor	r3, r8, r3
 3687 0048 0EF8013F 		strb	r3, [lr, #1]!
 3688              		.loc 1 441 0 discriminator 3
 3689 004c 11F8018B 		ldrb	r8, [r1], #1	@ zero_extendqisi2
 3690 0050 0378     		ldrb	r3, [r0]	@ zero_extendqisi2
 3691              		.loc 1 438 0 discriminator 3
 3692 0052 0132     		adds	r2, r2, #1
ARM GAS  C:\Users\jo\AppData\Local\Temp\ccdgtuym.s 			page 66


 3693              	.LVL570:
 3694              		.loc 1 441 0 discriminator 3
 3695 0054 88EA0303 		eor	r3, r8, r3
 3696              		.loc 1 438 0 discriminator 3
 3697 0058 AA42     		cmp	r2, r5
 3698              		.loc 1 441 0 discriminator 3
 3699 005a 00F8013B 		strb	r3, [r0], #1
 3700              		.loc 1 438 0 discriminator 3
 3701 005e EDD3     		bcc	.L78
 3702              	.LVL571:
 3703              	.L77:
 3704              	.LBB92:
 3705              	.LBB93:
 3706              		.loc 1 100 0
 3707 0060 0025     		movs	r5, #0
 3708              	.LVL572:
 3709              		.loc 1 107 0
 3710 0062 1A4B     		ldr	r3, .L87
 3711              		.loc 1 103 0
 3712 0064 DFF870C0 		ldr	ip, .L87+12
 3713              		.loc 1 104 0
 3714 0068 DFF870E0 		ldr	lr, .L87+16
 3715              		.loc 1 105 0
 3716 006c 1848     		ldr	r0, .L87+4
 3717              		.loc 1 106 0
 3718 006e 194A     		ldr	r2, .L87+8
 3719              		.loc 1 105 0
 3720 0070 3061     		str	r0, [r6, #16]
 3721              		.loc 1 106 0
 3722 0072 7261     		str	r2, [r6, #20]
 3723              		.loc 1 107 0
 3724 0074 B361     		str	r3, [r6, #24]
 3725              		.loc 1 100 0
 3726 0076 3560     		str	r5, [r6]
 3727              	.LVL573:
 3728              	.LBE93:
 3729              	.LBE92:
 3730              	.LBB95:
 3731              	.LBB96:
 3732 0078 3946     		mov	r1, r7
 3733              	.LBE96:
 3734              	.LBE95:
 3735              	.LBB98:
 3736              	.LBB94:
 3737              		.loc 1 101 0
 3738 007a 7560     		str	r5, [r6, #4]
 3739              		.loc 1 103 0
 3740 007c C6F808C0 		str	ip, [r6, #8]
 3741              		.loc 1 104 0
 3742 0080 C6F80CE0 		str	lr, [r6, #12]
 3743              	.LBE94:
 3744              	.LBE98:
 3745              	.LBB99:
 3746              	.LBB97:
 3747 0084 3046     		mov	r0, r6
 3748 0086 4022     		movs	r2, #64
 3749 0088 FFF7FEFF 		bl	ripemd160_update.part.0
ARM GAS  C:\Users\jo\AppData\Local\Temp\ccdgtuym.s 			page 67


 3750              	.LVL574:
 3751              	.LBE97:
 3752              	.LBE99:
 3753              	.LBB100:
 3754              	.LBB101:
 3755              		.loc 1 79 0
 3756 008c 2B46     		mov	r3, r5
 3757              	.LVL575:
 3758              	.L79:
 3759 008e 2370     		strb	r3, [r4]
 3760              	.LVL576:
 3761 0090 06AA     		add	r2, sp, #24
 3762 0092 0134     		adds	r4, r4, #1
 3763              	.LVL577:
 3764 0094 9442     		cmp	r4, r2
 3765 0096 FAD1     		bne	.L79
 3766              	.LBE101:
 3767              	.LBE100:
 3768              		.loc 1 448 0
 3769 0098 07B0     		add	sp, sp, #28
 3770              		.cfi_remember_state
 3771              		.cfi_def_cfa_offset 28
 3772              		@ sp needed
 3773 009a BDE8F083 		pop	{r4, r5, r6, r7, r8, r9, pc}
 3774              	.LVL578:
 3775              	.L86:
 3776              		.cfi_restore_state
 3777              		.loc 1 430 0
 3778 009e 01AC     		add	r4, sp, #4
 3779 00a0 0846     		mov	r0, r1
 3780              	.LVL579:
 3781              		.loc 1 435 0
 3782 00a2 06F15C07 		add	r7, r6, #92
 3783              		.loc 1 430 0
 3784 00a6 1146     		mov	r1, r2
 3785              	.LVL580:
 3786 00a8 2246     		mov	r2, r4
 3787              	.LVL581:
 3788 00aa FFF7FEFF 		bl	ripemd160
 3789              	.LVL582:
 3790              		.loc 1 436 0
 3791 00ae 06F19C08 		add	r8, r6, #156
 3792              		.loc 1 435 0
 3793 00b2 3621     		movs	r1, #54
 3794 00b4 4022     		movs	r2, #64
 3795 00b6 3846     		mov	r0, r7
 3796 00b8 FFF7FEFF 		bl	memset
 3797              	.LVL583:
 3798              		.loc 1 436 0
 3799 00bc 4046     		mov	r0, r8
 3800 00be 5C21     		movs	r1, #92
 3801 00c0 4022     		movs	r2, #64
 3802 00c2 FFF7FEFF 		bl	memset
 3803              	.LVL584:
 3804              		.loc 1 432 0
 3805 00c6 A146     		mov	r9, r4
 3806              		.loc 1 431 0
ARM GAS  C:\Users\jo\AppData\Local\Temp\ccdgtuym.s 			page 68


 3807 00c8 1425     		movs	r5, #20
 3808 00ca B1E7     		b	.L76
 3809              	.L88:
 3810              		.align	2
 3811              	.L87:
 3812 00cc F0E1D2C3 		.word	-1009589776
 3813 00d0 FEDCBA98 		.word	-1732584194
 3814 00d4 76543210 		.word	271733878
 3815 00d8 01234567 		.word	1732584193
 3816 00dc 89ABCDEF 		.word	-271733879
 3817              		.cfi_endproc
 3818              	.LFE9:
 3819              		.size	ripemd160_hmac_starts, .-ripemd160_hmac_starts
 3820              		.section	.text.ripemd160_hmac_update,"ax",%progbits
 3821              		.align	2
 3822              		.p2align 4,,15
 3823              		.global	ripemd160_hmac_update
 3824              		.thumb
 3825              		.thumb_func
 3826              		.type	ripemd160_hmac_update, %function
 3827              	ripemd160_hmac_update:
 3828              	.LFB10:
 3829              		.loc 1 455 0
 3830              		.cfi_startproc
 3831              		@ args = 0, pretend = 0, frame = 0
 3832              		@ frame_needed = 0, uses_anonymous_args = 0
 3833              		@ link register save eliminated.
 3834              	.LVL585:
 3835              	.LBB102:
 3836              	.LBB103:
 3837              		.loc 1 299 0
 3838 0000 02B9     		cbnz	r2, .L91
 3839 0002 7047     		bx	lr
 3840              	.L91:
 3841 0004 FFF7FEBF 		b	ripemd160_update.part.0
 3842              	.LVL586:
 3843              	.LBE103:
 3844              	.LBE102:
 3845              		.cfi_endproc
 3846              	.LFE10:
 3847              		.size	ripemd160_hmac_update, .-ripemd160_hmac_update
 3848 0008 AFF30080 		.section	.text.ripemd160_hmac_finish,"ax",%progbits
 3848      AFF30080 
 3849              		.align	2
 3850              		.p2align 4,,15
 3851              		.global	ripemd160_hmac_finish
 3852              		.thumb
 3853              		.thumb_func
 3854              		.type	ripemd160_hmac_finish, %function
 3855              	ripemd160_hmac_finish:
 3856              	.LFB11:
 3857              		.loc 1 463 0
 3858              		.cfi_startproc
 3859              		@ args = 0, pretend = 0, frame = 24
 3860              		@ frame_needed = 0, uses_anonymous_args = 0
 3861              	.LVL587:
 3862 0000 F0B5     		push	{r4, r5, r6, r7, lr}
ARM GAS  C:\Users\jo\AppData\Local\Temp\ccdgtuym.s 			page 69


 3863              		.cfi_def_cfa_offset 20
 3864              		.cfi_offset 4, -20
 3865              		.cfi_offset 5, -16
 3866              		.cfi_offset 6, -12
 3867              		.cfi_offset 7, -8
 3868              		.cfi_offset 14, -4
 3869 0002 87B0     		sub	sp, sp, #28
 3870              		.cfi_def_cfa_offset 48
 3871              		.loc 1 463 0
 3872 0004 0546     		mov	r5, r0
 3873 0006 0E46     		mov	r6, r1
 3874              		.loc 1 466 0
 3875 0008 01A9     		add	r1, sp, #4
 3876              	.LVL588:
 3877 000a FFF7FEFF 		bl	ripemd160_finish
 3878              	.LVL589:
 3879              	.LBB104:
 3880              	.LBB105:
 3881              		.loc 1 100 0
 3882 000e 0024     		movs	r4, #0
 3883              		.loc 1 107 0
 3884 0010 114B     		ldr	r3, .L96
 3885              		.loc 1 104 0
 3886 0012 1248     		ldr	r0, .L96+4
 3887              		.loc 1 105 0
 3888 0014 1249     		ldr	r1, .L96+8
 3889              		.loc 1 106 0
 3890 0016 134A     		ldr	r2, .L96+12
 3891              		.loc 1 103 0
 3892 0018 134F     		ldr	r7, .L96+16
 3893              		.loc 1 107 0
 3894 001a AB61     		str	r3, [r5, #24]
 3895              	.LVL590:
 3896              		.loc 1 104 0
 3897 001c E860     		str	r0, [r5, #12]
 3898              		.loc 1 105 0
 3899 001e 2961     		str	r1, [r5, #16]
 3900              		.loc 1 106 0
 3901 0020 6A61     		str	r2, [r5, #20]
 3902              	.LBE105:
 3903              	.LBE104:
 3904              	.LBB107:
 3905              	.LBB108:
 3906 0022 2846     		mov	r0, r5
 3907 0024 05F19C01 		add	r1, r5, #156
 3908              	.LVL591:
 3909 0028 4022     		movs	r2, #64
 3910              	.LBE108:
 3911              	.LBE107:
 3912              	.LBB110:
 3913              	.LBB106:
 3914              		.loc 1 103 0
 3915 002a AF60     		str	r7, [r5, #8]
 3916              		.loc 1 100 0
 3917 002c 2C60     		str	r4, [r5]
 3918              		.loc 1 101 0
 3919 002e 6C60     		str	r4, [r5, #4]
ARM GAS  C:\Users\jo\AppData\Local\Temp\ccdgtuym.s 			page 70


 3920              	.LBE106:
 3921              	.LBE110:
 3922              	.LBB111:
 3923              	.LBB109:
 3924 0030 FFF7FEFF 		bl	ripemd160_update.part.0
 3925              	.LVL592:
 3926              	.LBE109:
 3927              	.LBE111:
 3928              	.LBB112:
 3929              	.LBB113:
 3930 0034 1422     		movs	r2, #20
 3931 0036 2846     		mov	r0, r5
 3932 0038 01A9     		add	r1, sp, #4
 3933              	.LVL593:
 3934 003a FFF7FEFF 		bl	ripemd160_update.part.0
 3935              	.LVL594:
 3936              	.LBE113:
 3937              	.LBE112:
 3938              		.loc 1 470 0
 3939 003e 2846     		mov	r0, r5
 3940 0040 3146     		mov	r1, r6
 3941 0042 FFF7FEFF 		bl	ripemd160_finish
 3942              	.LVL595:
 3943              	.LBB114:
 3944              	.LBB115:
 3945              		.loc 1 79 0
 3946 0046 01AB     		add	r3, sp, #4
 3947              	.LVL596:
 3948 0048 2246     		mov	r2, r4
 3949              	.LVL597:
 3950              	.L93:
 3951 004a 1A70     		strb	r2, [r3]
 3952              	.LVL598:
 3953 004c 06A9     		add	r1, sp, #24
 3954 004e 0133     		adds	r3, r3, #1
 3955              	.LVL599:
 3956 0050 8B42     		cmp	r3, r1
 3957 0052 FAD1     		bne	.L93
 3958              	.LBE115:
 3959              	.LBE114:
 3960              		.loc 1 473 0
 3961 0054 07B0     		add	sp, sp, #28
 3962              		.cfi_def_cfa_offset 20
 3963              		@ sp needed
 3964 0056 F0BD     		pop	{r4, r5, r6, r7, pc}
 3965              	.LVL600:
 3966              	.L97:
 3967              		.align	2
 3968              	.L96:
 3969 0058 F0E1D2C3 		.word	-1009589776
 3970 005c 89ABCDEF 		.word	-271733879
 3971 0060 FEDCBA98 		.word	-1732584194
 3972 0064 76543210 		.word	271733878
 3973 0068 01234567 		.word	1732584193
 3974              		.cfi_endproc
 3975              	.LFE11:
 3976              		.size	ripemd160_hmac_finish, .-ripemd160_hmac_finish
ARM GAS  C:\Users\jo\AppData\Local\Temp\ccdgtuym.s 			page 71


 3977 006c AFF30080 		.section	.text.ripemd160_hmac_reset,"ax",%progbits
 3978              		.align	2
 3979              		.p2align 4,,15
 3980              		.global	ripemd160_hmac_reset
 3981              		.thumb
 3982              		.thumb_func
 3983              		.type	ripemd160_hmac_reset, %function
 3984              	ripemd160_hmac_reset:
 3985              	.LFB12:
 3986              		.loc 1 479 0
 3987              		.cfi_startproc
 3988              		@ args = 0, pretend = 0, frame = 0
 3989              		@ frame_needed = 0, uses_anonymous_args = 0
 3990              		@ link register save eliminated.
 3991              	.LVL601:
 3992 0000 70B4     		push	{r4, r5, r6}
 3993              		.cfi_def_cfa_offset 12
 3994              		.cfi_offset 4, -12
 3995              		.cfi_offset 5, -8
 3996              		.cfi_offset 6, -4
 3997              	.LBB116:
 3998              	.LBB117:
 3999              		.loc 1 103 0
 4000 0002 094B     		ldr	r3, .L100
 4001              		.loc 1 104 0
 4002 0004 094E     		ldr	r6, .L100+4
 4003              		.loc 1 105 0
 4004 0006 0A4D     		ldr	r5, .L100+8
 4005              		.loc 1 106 0
 4006 0008 0A4C     		ldr	r4, .L100+12
 4007              		.loc 1 107 0
 4008 000a 0B4A     		ldr	r2, .L100+16
 4009              		.loc 1 103 0
 4010 000c 8360     		str	r3, [r0, #8]
 4011              	.LBE117:
 4012              	.LBE116:
 4013              		.loc 1 479 0
 4014 000e 0146     		mov	r1, r0
 4015              	.LVL602:
 4016              	.LBB119:
 4017              	.LBB118:
 4018              		.loc 1 100 0
 4019 0010 0023     		movs	r3, #0
 4020              		.loc 1 104 0
 4021 0012 C660     		str	r6, [r0, #12]
 4022              		.loc 1 105 0
 4023 0014 0561     		str	r5, [r0, #16]
 4024              		.loc 1 106 0
 4025 0016 4461     		str	r4, [r0, #20]
 4026              		.loc 1 107 0
 4027 0018 8261     		str	r2, [r0, #24]
 4028              	.LVL603:
 4029              		.loc 1 100 0
 4030 001a 0360     		str	r3, [r0]
 4031              		.loc 1 101 0
 4032 001c 4360     		str	r3, [r0, #4]
 4033              	.LBE118:
ARM GAS  C:\Users\jo\AppData\Local\Temp\ccdgtuym.s 			page 72


 4034              	.LBE119:
 4035              	.LBB120:
 4036              	.LBB121:
 4037 001e 5C31     		adds	r1, r1, #92
 4038              	.LVL604:
 4039 0020 4022     		movs	r2, #64
 4040              	.LBE121:
 4041              	.LBE120:
 4042              		.loc 1 482 0
 4043 0022 70BC     		pop	{r4, r5, r6}
 4044              		.cfi_restore 6
 4045              		.cfi_restore 5
 4046              		.cfi_restore 4
 4047              		.cfi_def_cfa_offset 0
 4048              	.LBB123:
 4049              	.LBB122:
 4050 0024 FFF7FEBF 		b	ripemd160_update.part.0
 4051              	.LVL605:
 4052              	.L101:
 4053              		.align	2
 4054              	.L100:
 4055 0028 01234567 		.word	1732584193
 4056 002c 89ABCDEF 		.word	-271733879
 4057 0030 FEDCBA98 		.word	-1732584194
 4058 0034 76543210 		.word	271733878
 4059 0038 F0E1D2C3 		.word	-1009589776
 4060              	.LBE122:
 4061              	.LBE123:
 4062              		.cfi_endproc
 4063              	.LFE12:
 4064              		.size	ripemd160_hmac_reset, .-ripemd160_hmac_reset
 4065 003c AFF30080 		.section	.text.ripemd160_hmac,"ax",%progbits
 4066              		.align	2
 4067              		.p2align 4,,15
 4068              		.global	ripemd160_hmac
 4069              		.thumb
 4070              		.thumb_func
 4071              		.type	ripemd160_hmac, %function
 4072              	ripemd160_hmac:
 4073              	.LFB13:
 4074              		.loc 1 490 0
 4075              		.cfi_startproc
 4076              		@ args = 4, pretend = 0, frame = 224
 4077              		@ frame_needed = 0, uses_anonymous_args = 0
 4078              	.LVL606:
 4079 0000 F0B5     		push	{r4, r5, r6, r7, lr}
 4080              		.cfi_def_cfa_offset 20
 4081              		.cfi_offset 4, -20
 4082              		.cfi_offset 5, -16
 4083              		.cfi_offset 6, -12
 4084              		.cfi_offset 7, -8
 4085              		.cfi_offset 14, -4
 4086 0002 B9B0     		sub	sp, sp, #228
 4087              		.cfi_def_cfa_offset 248
 4088              	.LVL607:
 4089              		.loc 1 490 0
 4090 0004 0646     		mov	r6, r0
ARM GAS  C:\Users\jo\AppData\Local\Temp\ccdgtuym.s 			page 73


 4091 0006 0D46     		mov	r5, r1
 4092 0008 1746     		mov	r7, r2
 4093              	.LBB124:
 4094              	.LBB125:
 4095              		.loc 1 84 0
 4096 000a 0021     		movs	r1, #0
 4097              	.LVL608:
 4098 000c DC22     		movs	r2, #220
 4099              	.LVL609:
 4100 000e 01A8     		add	r0, sp, #4
 4101              	.LVL610:
 4102              	.LBE125:
 4103              	.LBE124:
 4104              		.loc 1 490 0
 4105 0010 1C46     		mov	r4, r3
 4106              	.LBB127:
 4107              	.LBB126:
 4108              		.loc 1 84 0
 4109 0012 FFF7FEFF 		bl	memset
 4110              	.LVL611:
 4111              	.LBE126:
 4112              	.LBE127:
 4113              		.loc 1 494 0
 4114 0016 01A8     		add	r0, sp, #4
 4115              	.LVL612:
 4116 0018 3146     		mov	r1, r6
 4117 001a 2A46     		mov	r2, r5
 4118 001c FFF7FEFF 		bl	ripemd160_hmac_starts
 4119              	.LVL613:
 4120              	.LBB128:
 4121              	.LBB129:
 4122              	.LBB130:
 4123              		.loc 1 299 0
 4124 0020 64B9     		cbnz	r4, .L110
 4125              	.L103:
 4126              	.LBE130:
 4127              	.LBE129:
 4128              	.LBE128:
 4129              		.loc 1 496 0
 4130 0022 01A8     		add	r0, sp, #4
 4131              	.LVL614:
 4132 0024 3E99     		ldr	r1, [sp, #248]
 4133 0026 FFF7FEFF 		bl	ripemd160_hmac_finish
 4134              	.LVL615:
 4135 002a 01AB     		add	r3, sp, #4
 4136              	.LVL616:
 4137              	.LBB133:
 4138              	.LBB134:
 4139              	.LBB135:
 4140              		.loc 1 79 0
 4141 002c 0022     		movs	r2, #0
 4142              	.LVL617:
 4143              	.L104:
 4144 002e 1A70     		strb	r2, [r3]
 4145              	.LVL618:
 4146 0030 38A9     		add	r1, sp, #224
 4147 0032 0133     		adds	r3, r3, #1
ARM GAS  C:\Users\jo\AppData\Local\Temp\ccdgtuym.s 			page 74


 4148              	.LVL619:
 4149 0034 8B42     		cmp	r3, r1
 4150 0036 FAD1     		bne	.L104
 4151              	.LBE135:
 4152              	.LBE134:
 4153              	.LBE133:
 4154              		.loc 1 498 0
 4155 0038 39B0     		add	sp, sp, #228
 4156              		.cfi_remember_state
 4157              		.cfi_def_cfa_offset 20
 4158              		@ sp needed
 4159 003a F0BD     		pop	{r4, r5, r6, r7, pc}
 4160              	.LVL620:
 4161              	.L110:
 4162              		.cfi_restore_state
 4163              	.LBB136:
 4164              	.LBB132:
 4165              	.LBB131:
 4166 003c 3946     		mov	r1, r7
 4167 003e 2246     		mov	r2, r4
 4168 0040 01A8     		add	r0, sp, #4
 4169              	.LVL621:
 4170 0042 FFF7FEFF 		bl	ripemd160_update.part.0
 4171              	.LVL622:
 4172 0046 ECE7     		b	.L103
 4173              	.LBE131:
 4174              	.LBE132:
 4175              	.LBE136:
 4176              		.cfi_endproc
 4177              	.LFE13:
 4178              		.size	ripemd160_hmac, .-ripemd160_hmac
 4179 0048 AFF30080 		.section	.text.ripemd160_self_test,"ax",%progbits
 4179      AFF30080 
 4180              		.align	2
 4181              		.p2align 4,,15
 4182              		.global	ripemd160_self_test
 4183              		.thumb
 4184              		.thumb_func
 4185              		.type	ripemd160_self_test, %function
 4186              	ripemd160_self_test:
 4187              	.LFB14:
 4188              		.loc 1 593 0
 4189              		.cfi_startproc
 4190              		@ args = 0, pretend = 0, frame = 40
 4191              		@ frame_needed = 0, uses_anonymous_args = 0
 4192              	.LVL623:
 4193 0000 2DE9F04F 		push	{r4, r5, r6, r7, r8, r9, r10, fp, lr}
 4194              		.cfi_def_cfa_offset 36
 4195              		.cfi_offset 4, -36
 4196              		.cfi_offset 5, -32
 4197              		.cfi_offset 6, -28
 4198              		.cfi_offset 7, -24
 4199              		.cfi_offset 8, -20
 4200              		.cfi_offset 9, -16
 4201              		.cfi_offset 10, -12
 4202              		.cfi_offset 11, -8
 4203              		.cfi_offset 14, -4
ARM GAS  C:\Users\jo\AppData\Local\Temp\ccdgtuym.s 			page 75


 4204 0004 8DB0     		sub	sp, sp, #52
 4205              		.cfi_def_cfa_offset 88
 4206 0006 3F4A     		ldr	r2, .L147
 4207 0008 0392     		str	r2, [sp, #12]
 4208              		.loc 1 597 0
 4209 000a 0023     		movs	r3, #0
 4210 000c 3E4A     		ldr	r2, .L147+4
 4211 000e DFF810B1 		ldr	fp, .L147+28
 4212 0012 0492     		str	r2, [sp, #16]
 4213 0014 0793     		str	r3, [sp, #28]
 4214              		.loc 1 593 0
 4215 0016 0446     		mov	r4, r0
 4216              		.loc 1 597 0
 4217 0018 0893     		str	r3, [sp, #32]
 4218 001a 0993     		str	r3, [sp, #36]
 4219 001c 0A93     		str	r3, [sp, #40]
 4220 001e 0B93     		str	r3, [sp, #44]
 4221              	.LVL624:
 4222 0020 4FF0010A 		mov	r10, #1
 4223 0024 0DF11C08 		add	r8, sp, #28
 4224              	.LVL625:
 4225              	.L121:
 4226              		.loc 1 601 0
 4227 0028 002C     		cmp	r4, #0
 4228 002a 50D1     		bne	.L142
 4229              	.L112:
 4230              		.loc 1 604 0
 4231 002c 049B     		ldr	r3, [sp, #16]
 4232 002e 53F8045F 		ldr	r5, [r3, #4]!
 4233 0032 0493     		str	r3, [sp, #16]
 4234 0034 2846     		mov	r0, r5
 4235 0036 FFF7FEFF 		bl	strlen
 4236              	.LVL626:
 4237 003a 4246     		mov	r2, r8
 4238 003c 0146     		mov	r1, r0
 4239 003e 2846     		mov	r0, r5
 4240 0040 FFF7FEFF 		bl	ripemd160
 4241              	.LVL627:
 4242              		.loc 1 608 0
 4243 0044 4046     		mov	r0, r8
 4244 0046 5946     		mov	r1, fp
 4245 0048 1422     		movs	r2, #20
 4246 004a FFF7FEFF 		bl	memcmp
 4247              	.LVL628:
 4248 004e 0028     		cmp	r0, #0
 4249 0050 4CD1     		bne	.L117
 4250              		.loc 1 616 0
 4251 0052 002C     		cmp	r4, #0
 4252 0054 40D1     		bne	.L143
 4253              	.L115:
 4254              	.LVL629:
 4255 0056 2D4F     		ldr	r7, .L147+8
 4256 0058 039E     		ldr	r6, [sp, #12]
 4257 005a 4FF00109 		mov	r9, #1
 4258              	.LVL630:
 4259              		.loc 1 621 0 discriminator 1
 4260 005e 54BB     		cbnz	r4, .L144
ARM GAS  C:\Users\jo\AppData\Local\Temp\ccdgtuym.s 			page 76


 4261              	.LVL631:
 4262              	.L116:
 4263              		.loc 1 625 0
 4264 0060 2846     		mov	r0, r5
 4265 0062 FFF7FEFF 		bl	strlen
 4266              	.LVL632:
 4267 0066 1421     		movs	r1, #20
 4268 0068 0346     		mov	r3, r0
 4269 006a 2A46     		mov	r2, r5
 4270 006c 3846     		mov	r0, r7
 4271 006e CDF80080 		str	r8, [sp]
 4272 0072 FFF7FEFF 		bl	ripemd160_hmac
 4273              	.LVL633:
 4274              		.loc 1 630 0
 4275 0076 3146     		mov	r1, r6
 4276 0078 4046     		mov	r0, r8
 4277 007a 1422     		movs	r2, #20
 4278 007c FFF7FEFF 		bl	memcmp
 4279              	.LVL634:
 4280 0080 1437     		adds	r7, r7, #20
 4281 0082 0346     		mov	r3, r0
 4282 0084 A036     		adds	r6, r6, #160
 4283 0086 88BB     		cbnz	r0, .L117
 4284              		.loc 1 638 0
 4285 0088 DCB9     		cbnz	r4, .L145
 4286              	.L118:
 4287              	.LVL635:
 4288              		.loc 1 619 0 discriminator 2
 4289 008a B9F1020F 		cmp	r9, #2
 4290 008e 0ED1     		bne	.L123
 4291              		.loc 1 642 0
 4292 0090 34BB     		cbnz	r4, .L146
 4293              	.L120:
 4294              	.LVL636:
 4295 0092 039A     		ldr	r2, [sp, #12]
 4296 0094 0AF1010A 		add	r10, r10, #1
 4297              	.LVL637:
 4298 0098 1432     		adds	r2, r2, #20
 4299              		.loc 1 599 0 discriminator 2
 4300 009a BAF1090F 		cmp	r10, #9
 4301 009e 0392     		str	r2, [sp, #12]
 4302 00a0 0BF1140B 		add	fp, fp, #20
 4303 00a4 C0D1     		bne	.L121
 4304              	.LVL638:
 4305              	.L114:
 4306              		.loc 1 647 0
 4307 00a6 1846     		mov	r0, r3
 4308 00a8 0DB0     		add	sp, sp, #52
 4309              		.cfi_remember_state
 4310              		.cfi_def_cfa_offset 36
 4311              		@ sp needed
 4312 00aa BDE8F08F 		pop	{r4, r5, r6, r7, r8, r9, r10, fp, pc}
 4313              	.LVL639:
 4314              	.L123:
 4315              		.cfi_restore_state
 4316 00ae 4FF00209 		mov	r9, #2
 4317              	.LVL640:
ARM GAS  C:\Users\jo\AppData\Local\Temp\ccdgtuym.s 			page 77


 4318              		.loc 1 621 0
 4319 00b2 002C     		cmp	r4, #0
 4320 00b4 D4D0     		beq	.L116
 4321              	.LVL641:
 4322              	.L144:
 4323              		.loc 1 622 0
 4324 00b6 5146     		mov	r1, r10
 4325 00b8 4A46     		mov	r2, r9
 4326 00ba 1548     		ldr	r0, .L147+12
 4327 00bc FFF7FEFF 		bl	printf
 4328              	.LVL642:
 4329 00c0 CEE7     		b	.L116
 4330              	.L145:
 4331 00c2 0590     		str	r0, [sp, #20]
 4332              		.loc 1 639 0
 4333 00c4 1348     		ldr	r0, .L147+16
 4334 00c6 FFF7FEFF 		bl	puts
 4335              	.LVL643:
 4336 00ca 059B     		ldr	r3, [sp, #20]
 4337 00cc DDE7     		b	.L118
 4338              	.L142:
 4339              		.loc 1 602 0
 4340 00ce 5146     		mov	r1, r10
 4341 00d0 1148     		ldr	r0, .L147+20
 4342 00d2 FFF7FEFF 		bl	printf
 4343              	.LVL644:
 4344 00d6 A9E7     		b	.L112
 4345              	.L143:
 4346              		.loc 1 617 0
 4347 00d8 0E48     		ldr	r0, .L147+16
 4348 00da FFF7FEFF 		bl	puts
 4349              	.LVL645:
 4350 00de BAE7     		b	.L115
 4351              	.LVL646:
 4352              	.L146:
 4353              		.loc 1 643 0
 4354 00e0 0A20     		movs	r0, #10
 4355 00e2 0593     		str	r3, [sp, #20]
 4356 00e4 FFF7FEFF 		bl	putchar
 4357              	.LVL647:
 4358 00e8 059B     		ldr	r3, [sp, #20]
 4359 00ea D2E7     		b	.L120
 4360              	.LVL648:
 4361              	.L117:
 4362              		.loc 1 613 0
 4363 00ec 0123     		movs	r3, #1
 4364              		.loc 1 610 0
 4365 00ee 002C     		cmp	r4, #0
 4366 00f0 D9D0     		beq	.L114
 4367              		.loc 1 611 0
 4368 00f2 0A48     		ldr	r0, .L147+24
 4369 00f4 FFF7FEFF 		bl	puts
 4370              	.LVL649:
 4371              		.loc 1 613 0
 4372 00f8 0123     		movs	r3, #1
 4373              		.loc 1 647 0
 4374 00fa 1846     		mov	r0, r3
ARM GAS  C:\Users\jo\AppData\Local\Temp\ccdgtuym.s 			page 78


 4375 00fc 0DB0     		add	sp, sp, #52
 4376              		.cfi_def_cfa_offset 36
 4377              		@ sp needed
 4378 00fe BDE8F08F 		pop	{r4, r5, r6, r7, r8, r9, r10, fp, pc}
 4379              	.LVL650:
 4380              	.L148:
 4381 0102 00BF     		.align	2
 4382              	.L147:
 4383 0104 00000000 		.word	.LANCHOR1
 4384 0108 FCFFFFFF 		.word	.LANCHOR2-4
 4385 010c 00000000 		.word	.LANCHOR4
 4386 0110 2C000000 		.word	.LC4
 4387 0114 24000000 		.word	.LC3
 4388 0118 04000000 		.word	.LC1
 4389 011c 1C000000 		.word	.LC2
 4390 0120 00000000 		.word	.LANCHOR3
 4391              		.cfi_endproc
 4392              	.LFE14:
 4393              		.size	ripemd160_self_test, .-ripemd160_self_test
 4394 0124 AFF30080 		.section	.rodata.ripemd160_test_hmac,"a",%progbits
 4394      AFF30080 
 4394      AFF30080 
 4395              		.align	2
 4396              		.set	.LANCHOR1,. + 0
 4397              		.type	ripemd160_test_hmac, %object
 4398              		.size	ripemd160_test_hmac, 320
 4399              	ripemd160_test_hmac:
 4400 0000 CF       		.byte	-49
 4401 0001 38       		.byte	56
 4402 0002 76       		.byte	118
 4403 0003 77       		.byte	119
 4404 0004 BF       		.byte	-65
 4405 0005 DA       		.byte	-38
 4406 0006 84       		.byte	-124
 4407 0007 83       		.byte	-125
 4408 0008 E6       		.byte	-26
 4409 0009 3B       		.byte	59
 4410 000a 57       		.byte	87
 4411 000b E0       		.byte	-32
 4412 000c 6C       		.byte	108
 4413 000d 3B       		.byte	59
 4414 000e 5E       		.byte	94
 4415 000f CD       		.byte	-51
 4416 0010 8B       		.byte	-117
 4417 0011 7F       		.byte	127
 4418 0012 C0       		.byte	-64
 4419 0013 55       		.byte	85
 4420 0014 0D       		.byte	13
 4421 0015 35       		.byte	53
 4422 0016 1D       		.byte	29
 4423 0017 71       		.byte	113
 4424 0018 B7       		.byte	-73
 4425 0019 8E       		.byte	-114
 4426 001a 36       		.byte	54
 4427 001b DB       		.byte	-37
 4428 001c B7       		.byte	-73
 4429 001d 39       		.byte	57
ARM GAS  C:\Users\jo\AppData\Local\Temp\ccdgtuym.s 			page 79


 4430 001e 1C       		.byte	28
 4431 001f 81       		.byte	-127
 4432 0020 0A       		.byte	10
 4433 0021 0D       		.byte	13
 4434 0022 2B       		.byte	43
 4435 0023 62       		.byte	98
 4436 0024 40       		.byte	64
 4437 0025 DD       		.byte	-35
 4438 0026 BA       		.byte	-70
 4439 0027 FC       		.byte	-4
 4440 0028 F7       		.byte	-9
 4441 0029 EF       		.byte	-17
 4442 002a 28       		.byte	40
 4443 002b 8C       		.byte	-116
 4444 002c B1       		.byte	-79
 4445 002d BB       		.byte	-69
 4446 002e CC       		.byte	-52
 4447 002f 61       		.byte	97
 4448 0030 60       		.byte	96
 4449 0031 D7       		.byte	-41
 4450 0032 65       		.byte	101
 4451 0033 07       		.byte	7
 4452 0034 E0       		.byte	-32
 4453 0035 A3       		.byte	-93
 4454 0036 BB       		.byte	-69
 4455 0037 F7       		.byte	-9
 4456 0038 12       		.byte	18
 4457 0039 FB       		.byte	-5
 4458 003a 67       		.byte	103
 4459 003b D6       		.byte	-42
 4460 003c F8       		.byte	-8
 4461 003d 36       		.byte	54
 4462 003e 62       		.byte	98
 4463 003f CC       		.byte	-52
 4464 0040 8D       		.byte	-115
 4465 0041 33       		.byte	51
 4466 0042 9C       		.byte	-100
 4467 0043 22       		.byte	34
 4468 0044 7E       		.byte	126
 4469 0045 60       		.byte	96
 4470 0046 0F       		.byte	15
 4471 0047 CD       		.byte	-51
 4472 0048 63       		.byte	99
 4473 0049 6C       		.byte	108
 4474 004a 57       		.byte	87
 4475 004b D2       		.byte	-46
 4476 004c 57       		.byte	87
 4477 004d 1B       		.byte	27
 4478 004e 1C       		.byte	28
 4479 004f 34       		.byte	52
 4480 0050 84       		.byte	-124
 4481 0051 3D       		.byte	61
 4482 0052 1C       		.byte	28
 4483 0053 4E       		.byte	78
 4484 0054 B8       		.byte	-72
 4485 0055 80       		.byte	-128
 4486 0056 AC       		.byte	-84
ARM GAS  C:\Users\jo\AppData\Local\Temp\ccdgtuym.s 			page 80


 4487 0057 8A       		.byte	-118
 4488 0058 C0       		.byte	-64
 4489 0059 C9       		.byte	-55
 4490 005a C9       		.byte	-55
 4491 005b 56       		.byte	86
 4492 005c 96       		.byte	-106
 4493 005d 50       		.byte	80
 4494 005e 79       		.byte	121
 4495 005f 57       		.byte	87
 4496 0060 D0       		.byte	-48
 4497 0061 15       		.byte	21
 4498 0062 5D       		.byte	93
 4499 0063 DB       		.byte	-37
 4500 0064 60       		.byte	96
 4501 0065 F5       		.byte	-11
 4502 0066 EF       		.byte	-17
 4503 0067 19       		.byte	25
 4504 0068 8A       		.byte	-118
 4505 0069 2D       		.byte	45
 4506 006a D5       		.byte	-43
 4507 006b 74       		.byte	116
 4508 006c 55       		.byte	85
 4509 006d 45       		.byte	69
 4510 006e C1       		.byte	-63
 4511 006f F0       		.byte	-16
 4512 0070 C4       		.byte	-60
 4513 0071 7A       		.byte	122
 4514 0072 A3       		.byte	-93
 4515 0073 FB       		.byte	-5
 4516 0074 57       		.byte	87
 4517 0075 76       		.byte	118
 4518 0076 F8       		.byte	-8
 4519 0077 81       		.byte	-127
 4520 0078 E4       		.byte	-28
 4521 0079 9C       		.byte	-100
 4522 007a 13       		.byte	19
 4523 007b 6A       		.byte	106
 4524 007c 9E       		.byte	-98
 4525 007d 56       		.byte	86
 4526 007e 27       		.byte	39
 4527 007f E0       		.byte	-32
 4528 0080 68       		.byte	104
 4529 0081 1B       		.byte	27
 4530 0082 80       		.byte	-128
 4531 0083 8A       		.byte	-118
 4532 0084 3B       		.byte	59
 4533 0085 97       		.byte	-105
 4534 0086 E6       		.byte	-26
 4535 0087 A6       		.byte	-90
 4536 0088 E6       		.byte	-26
 4537 0089 61       		.byte	97
 4538 008a AE       		.byte	-82
 4539 008b 79       		.byte	121
 4540 008c 31       		.byte	49
 4541 008d BE       		.byte	-66
 4542 008e 3C       		.byte	60
 4543 008f C9       		.byte	-55
ARM GAS  C:\Users\jo\AppData\Local\Temp\ccdgtuym.s 			page 81


 4544 0090 8C       		.byte	-116
 4545 0091 EE       		.byte	-18
 4546 0092 37       		.byte	55
 4547 0093 B7       		.byte	-73
 4548 0094 9B       		.byte	-101
 4549 0095 06       		.byte	6
 4550 0096 19       		.byte	25
 4551 0097 E3       		.byte	-29
 4552 0098 E1       		.byte	-31
 4553 0099 C2       		.byte	-62
 4554 009a BE       		.byte	-66
 4555 009b 4F       		.byte	79
 4556 009c 1A       		.byte	26
 4557 009d A5       		.byte	-91
 4558 009e 6E       		.byte	110
 4559 009f 6C       		.byte	108
 4560 00a0 FE       		.byte	-2
 4561 00a1 69       		.byte	105
 4562 00a2 A6       		.byte	-90
 4563 00a3 6C       		.byte	108
 4564 00a4 74       		.byte	116
 4565 00a5 23       		.byte	35
 4566 00a6 EE       		.byte	-18
 4567 00a7 A9       		.byte	-87
 4568 00a8 C8       		.byte	-56
 4569 00a9 FA       		.byte	-6
 4570 00aa 2E       		.byte	46
 4571 00ab FF       		.byte	-1
 4572 00ac 8D       		.byte	-115
 4573 00ad 9D       		.byte	-99
 4574 00ae AF       		.byte	-81
 4575 00af B4       		.byte	-76
 4576 00b0 F1       		.byte	-15
 4577 00b1 7A       		.byte	122
 4578 00b2 62       		.byte	98
 4579 00b3 F5       		.byte	-11
 4580 00b4 85       		.byte	-123
 4581 00b5 74       		.byte	116
 4582 00b6 3E       		.byte	62
 4583 00b7 89       		.byte	-119
 4584 00b8 9B       		.byte	-101
 4585 00b9 C8       		.byte	-56
 4586 00ba 2D       		.byte	45
 4587 00bb BF       		.byte	-65
 4588 00bc A3       		.byte	-93
 4589 00bd 6F       		.byte	111
 4590 00be AA       		.byte	-86
 4591 00bf A7       		.byte	-89
 4592 00c0 A2       		.byte	-94
 4593 00c1 5B       		.byte	91
 4594 00c2 7C       		.byte	124
 4595 00c3 FD       		.byte	-3
 4596 00c4 37       		.byte	55
 4597 00c5 24       		.byte	36
 4598 00c6 32       		.byte	50
 4599 00c7 CD       		.byte	-51
 4600 00c8 6E       		.byte	110
ARM GAS  C:\Users\jo\AppData\Local\Temp\ccdgtuym.s 			page 82


 4601 00c9 4A       		.byte	74
 4602 00ca FD       		.byte	-3
 4603 00cb 50       		.byte	80
 4604 00cc 1F       		.byte	31
 4605 00cd A6       		.byte	-90
 4606 00ce B4       		.byte	-76
 4607 00cf A1       		.byte	-95
 4608 00d0 82       		.byte	-126
 4609 00d1 3C       		.byte	60
 4610 00d2 A3       		.byte	-93
 4611 00d3 B1       		.byte	-79
 4612 00d4 0B       		.byte	11
 4613 00d5 D9       		.byte	-39
 4614 00d6 AA       		.byte	-86
 4615 00d7 0B       		.byte	11
 4616 00d8 A9       		.byte	-87
 4617 00d9 7B       		.byte	123
 4618 00da A1       		.byte	-95
 4619 00db 82       		.byte	-126
 4620 00dc 2E       		.byte	46
 4621 00dd 06       		.byte	6
 4622 00de 6E       		.byte	110
 4623 00df 62       		.byte	98
 4624 00e0 4B       		.byte	75
 4625 00e1 AD       		.byte	-83
 4626 00e2 B7       		.byte	-73
 4627 00e3 6A       		.byte	106
 4628 00e4 18       		.byte	24
 4629 00e5 4C       		.byte	76
 4630 00e6 8F       		.byte	-113
 4631 00e7 90       		.byte	-112
 4632 00e8 FB       		.byte	-5
 4633 00e9 A0       		.byte	-96
 4634 00ea 53       		.byte	83
 4635 00eb 33       		.byte	51
 4636 00ec 0E       		.byte	14
 4637 00ed 65       		.byte	101
 4638 00ee 0E       		.byte	14
 4639 00ef 92       		.byte	-110
 4640 00f0 07       		.byte	7
 4641 00f1 E9       		.byte	-23
 4642 00f2 42       		.byte	66
 4643 00f3 AA       		.byte	-86
 4644 00f4 4E       		.byte	78
 4645 00f5 3C       		.byte	60
 4646 00f6 D7       		.byte	-41
 4647 00f7 C0       		.byte	-64
 4648 00f8 4D       		.byte	77
 4649 00f9 ED       		.byte	-19
 4650 00fa C1       		.byte	-63
 4651 00fb D4       		.byte	-44
 4652 00fc 6E       		.byte	110
 4653 00fd 2E       		.byte	46
 4654 00fe 8C       		.byte	-116
 4655 00ff C4       		.byte	-60
 4656 0100 C7       		.byte	-57
 4657 0101 41       		.byte	65
ARM GAS  C:\Users\jo\AppData\Local\Temp\ccdgtuym.s 			page 83


 4658 0102 B3       		.byte	-77
 4659 0103 D9       		.byte	-39
 4660 0104 B6       		.byte	-74
 4661 0105 58       		.byte	88
 4662 0106 23       		.byte	35
 4663 0107 18       		.byte	24
 4664 0108 DD       		.byte	-35
 4665 0109 CF       		.byte	-49
 4666 010a B6       		.byte	-74
 4667 010b 7A       		.byte	122
 4668 010c 53       		.byte	83
 4669 010d A6       		.byte	-90
 4670 010e 7D       		.byte	125
 4671 010f 67       		.byte	103
 4672 0110 6B       		.byte	107
 4673 0111 8A       		.byte	-118
 4674 0112 D8       		.byte	-40
 4675 0113 69       		.byte	105
 4676 0114 AD       		.byte	-83
 4677 0115 ED       		.byte	-19
 4678 0116 62       		.byte	98
 4679 0117 9A       		.byte	-102
 4680 0118 F1       		.byte	-15
 4681 0119 BE       		.byte	-66
 4682 011a 3E       		.byte	62
 4683 011b E8       		.byte	-24
 4684 011c 77       		.byte	119
 4685 011d 70       		.byte	112
 4686 011e 31       		.byte	49
 4687 011f 40       		.byte	64
 4688 0120 D3       		.byte	-45
 4689 0121 4F       		.byte	79
 4690 0122 97       		.byte	-105
 4691 0123 EA       		.byte	-22
 4692 0124 1A       		.byte	26
 4693 0125 B3       		.byte	-77
 4694 0126 A0       		.byte	-96
 4695 0127 7C       		.byte	124
 4696 0128 14       		.byte	20
 4697 0129 13       		.byte	19
 4698 012a 33       		.byte	51
 4699 012b E2       		.byte	-30
 4700 012c 85       		.byte	-123
 4701 012d F1       		.byte	-15
 4702 012e 64       		.byte	100
 4703 012f 70       		.byte	112
 4704 0130 3E       		.byte	62
 4705 0131 61       		.byte	97
 4706 0132 A6       		.byte	-90
 4707 0133 31       		.byte	49
 4708 0134 31       		.byte	49
 4709 0135 BE       		.byte	-66
 4710 0136 7E       		.byte	126
 4711 0137 45       		.byte	69
 4712 0138 95       		.byte	-107
 4713 0139 8E       		.byte	-114
 4714 013a 07       		.byte	7
ARM GAS  C:\Users\jo\AppData\Local\Temp\ccdgtuym.s 			page 84


 4715 013b 94       		.byte	-108
 4716 013c 12       		.byte	18
 4717 013d 39       		.byte	57
 4718 013e 04       		.byte	4
 4719 013f F9       		.byte	-7
 4720              		.section	.rodata.ripemd160_test_md,"a",%progbits
 4721              		.align	2
 4722              		.set	.LANCHOR3,. + 0
 4723              		.type	ripemd160_test_md, %object
 4724              		.size	ripemd160_test_md, 160
 4725              	ripemd160_test_md:
 4726 0000 9C       		.byte	-100
 4727 0001 11       		.byte	17
 4728 0002 85       		.byte	-123
 4729 0003 A5       		.byte	-91
 4730 0004 C5       		.byte	-59
 4731 0005 E9       		.byte	-23
 4732 0006 FC       		.byte	-4
 4733 0007 54       		.byte	84
 4734 0008 61       		.byte	97
 4735 0009 28       		.byte	40
 4736 000a 08       		.byte	8
 4737 000b 97       		.byte	-105
 4738 000c 7E       		.byte	126
 4739 000d E8       		.byte	-24
 4740 000e F5       		.byte	-11
 4741 000f 48       		.byte	72
 4742 0010 B2       		.byte	-78
 4743 0011 25       		.byte	37
 4744 0012 8D       		.byte	-115
 4745 0013 31       		.byte	49
 4746 0014 0B       		.byte	11
 4747 0015 DC       		.byte	-36
 4748 0016 9D       		.byte	-99
 4749 0017 2D       		.byte	45
 4750 0018 25       		.byte	37
 4751 0019 6B       		.byte	107
 4752 001a 3E       		.byte	62
 4753 001b E9       		.byte	-23
 4754 001c DA       		.byte	-38
 4755 001d AE       		.byte	-82
 4756 001e 34       		.byte	52
 4757 001f 7B       		.byte	123
 4758 0020 E6       		.byte	-26
 4759 0021 F4       		.byte	-12
 4760 0022 DC       		.byte	-36
 4761 0023 83       		.byte	-125
 4762 0024 5A       		.byte	90
 4763 0025 46       		.byte	70
 4764 0026 7F       		.byte	127
 4765 0027 FE       		.byte	-2
 4766 0028 8E       		.byte	-114
 4767 0029 B2       		.byte	-78
 4768 002a 08       		.byte	8
 4769 002b F7       		.byte	-9
 4770 002c E0       		.byte	-32
 4771 002d 5D       		.byte	93
ARM GAS  C:\Users\jo\AppData\Local\Temp\ccdgtuym.s 			page 85


 4772 002e 98       		.byte	-104
 4773 002f 7A       		.byte	122
 4774 0030 9B       		.byte	-101
 4775 0031 04       		.byte	4
 4776 0032 4A       		.byte	74
 4777 0033 8E       		.byte	-114
 4778 0034 98       		.byte	-104
 4779 0035 C6       		.byte	-58
 4780 0036 B0       		.byte	-80
 4781 0037 87       		.byte	-121
 4782 0038 F1       		.byte	-15
 4783 0039 5A       		.byte	90
 4784 003a 0B       		.byte	11
 4785 003b FC       		.byte	-4
 4786 003c 5D       		.byte	93
 4787 003d 06       		.byte	6
 4788 003e 89       		.byte	-119
 4789 003f EF       		.byte	-17
 4790 0040 49       		.byte	73
 4791 0041 D2       		.byte	-46
 4792 0042 FA       		.byte	-6
 4793 0043 E5       		.byte	-27
 4794 0044 72       		.byte	114
 4795 0045 B8       		.byte	-72
 4796 0046 81       		.byte	-127
 4797 0047 B1       		.byte	-79
 4798 0048 23       		.byte	35
 4799 0049 A8       		.byte	-88
 4800 004a 5F       		.byte	95
 4801 004b FA       		.byte	-6
 4802 004c 21       		.byte	33
 4803 004d 59       		.byte	89
 4804 004e 5F       		.byte	95
 4805 004f 36       		.byte	54
 4806 0050 F7       		.byte	-9
 4807 0051 1C       		.byte	28
 4808 0052 27       		.byte	39
 4809 0053 10       		.byte	16
 4810 0054 9C       		.byte	-100
 4811 0055 69       		.byte	105
 4812 0056 2C       		.byte	44
 4813 0057 1B       		.byte	27
 4814 0058 56       		.byte	86
 4815 0059 BB       		.byte	-69
 4816 005a DC       		.byte	-36
 4817 005b EB       		.byte	-21
 4818 005c 5B       		.byte	91
 4819 005d 9D       		.byte	-99
 4820 005e 28       		.byte	40
 4821 005f 65       		.byte	101
 4822 0060 B3       		.byte	-77
 4823 0061 70       		.byte	112
 4824 0062 8D       		.byte	-115
 4825 0063 BC       		.byte	-68
 4826 0064 12       		.byte	18
 4827 0065 A0       		.byte	-96
 4828 0066 53       		.byte	83
ARM GAS  C:\Users\jo\AppData\Local\Temp\ccdgtuym.s 			page 86


 4829 0067 38       		.byte	56
 4830 0068 4A       		.byte	74
 4831 0069 9C       		.byte	-100
 4832 006a 0C       		.byte	12
 4833 006b 88       		.byte	-120
 4834 006c E4       		.byte	-28
 4835 006d 05       		.byte	5
 4836 006e A0       		.byte	-96
 4837 006f 6C       		.byte	108
 4838 0070 27       		.byte	39
 4839 0071 DC       		.byte	-36
 4840 0072 F4       		.byte	-12
 4841 0073 9A       		.byte	-102
 4842 0074 DA       		.byte	-38
 4843 0075 62       		.byte	98
 4844 0076 EB       		.byte	-21
 4845 0077 2B       		.byte	43
 4846 0078 B0       		.byte	-80
 4847 0079 E2       		.byte	-30
 4848 007a 0B       		.byte	11
 4849 007b 6E       		.byte	110
 4850 007c 31       		.byte	49
 4851 007d 16       		.byte	22
 4852 007e 64       		.byte	100
 4853 007f 02       		.byte	2
 4854 0080 86       		.byte	-122
 4855 0081 ED       		.byte	-19
 4856 0082 3A       		.byte	58
 4857 0083 87       		.byte	-121
 4858 0084 A5       		.byte	-91
 4859 0085 71       		.byte	113
 4860 0086 30       		.byte	48
 4861 0087 79       		.byte	121
 4862 0088 B2       		.byte	-78
 4863 0089 1F       		.byte	31
 4864 008a 51       		.byte	81
 4865 008b 89       		.byte	-119
 4866 008c 9B       		.byte	-101
 4867 008d 75       		.byte	117
 4868 008e 2E       		.byte	46
 4869 008f 45       		.byte	69
 4870 0090 57       		.byte	87
 4871 0091 3D       		.byte	61
 4872 0092 4B       		.byte	75
 4873 0093 39       		.byte	57
 4874 0094 F4       		.byte	-12
 4875 0095 DB       		.byte	-37
 4876 0096 D3       		.byte	-45
 4877 0097 32       		.byte	50
 4878 0098 3C       		.byte	60
 4879 0099 AB       		.byte	-85
 4880 009a 82       		.byte	-126
 4881 009b BF       		.byte	-65
 4882 009c 63       		.byte	99
 4883 009d 32       		.byte	50
 4884 009e 6B       		.byte	107
 4885 009f FB       		.byte	-5
ARM GAS  C:\Users\jo\AppData\Local\Temp\ccdgtuym.s 			page 87


 4886              		.section	.rodata.ripemd160_padding,"a",%progbits
 4887              		.align	2
 4888              		.set	.LANCHOR0,. + 0
 4889              		.type	ripemd160_padding, %object
 4890              		.size	ripemd160_padding, 64
 4891              	ripemd160_padding:
 4892 0000 80       		.byte	-128
 4893 0001 00       		.byte	0
 4894 0002 00       		.byte	0
 4895 0003 00       		.byte	0
 4896 0004 00       		.byte	0
 4897 0005 00       		.byte	0
 4898 0006 00       		.byte	0
 4899 0007 00       		.byte	0
 4900 0008 00       		.byte	0
 4901 0009 00       		.byte	0
 4902 000a 00       		.byte	0
 4903 000b 00       		.byte	0
 4904 000c 00       		.byte	0
 4905 000d 00       		.byte	0
 4906 000e 00       		.byte	0
 4907 000f 00       		.byte	0
 4908 0010 00       		.byte	0
 4909 0011 00       		.byte	0
 4910 0012 00       		.byte	0
 4911 0013 00       		.byte	0
 4912 0014 00       		.byte	0
 4913 0015 00       		.byte	0
 4914 0016 00       		.byte	0
 4915 0017 00       		.byte	0
 4916 0018 00       		.byte	0
 4917 0019 00       		.byte	0
 4918 001a 00       		.byte	0
 4919 001b 00       		.byte	0
 4920 001c 00       		.byte	0
 4921 001d 00       		.byte	0
 4922 001e 00       		.byte	0
 4923 001f 00       		.byte	0
 4924 0020 00       		.byte	0
 4925 0021 00       		.byte	0
 4926 0022 00       		.byte	0
 4927 0023 00       		.byte	0
 4928 0024 00       		.byte	0
 4929 0025 00       		.byte	0
 4930 0026 00       		.byte	0
 4931 0027 00       		.byte	0
 4932 0028 00       		.byte	0
 4933 0029 00       		.byte	0
 4934 002a 00       		.byte	0
 4935 002b 00       		.byte	0
 4936 002c 00       		.byte	0
 4937 002d 00       		.byte	0
 4938 002e 00       		.byte	0
 4939 002f 00       		.byte	0
 4940 0030 00       		.byte	0
 4941 0031 00       		.byte	0
 4942 0032 00       		.byte	0
ARM GAS  C:\Users\jo\AppData\Local\Temp\ccdgtuym.s 			page 88


 4943 0033 00       		.byte	0
 4944 0034 00       		.byte	0
 4945 0035 00       		.byte	0
 4946 0036 00       		.byte	0
 4947 0037 00       		.byte	0
 4948 0038 00       		.byte	0
 4949 0039 00       		.byte	0
 4950 003a 00       		.byte	0
 4951 003b 00       		.byte	0
 4952 003c 00       		.byte	0
 4953 003d 00       		.byte	0
 4954 003e 00       		.byte	0
 4955 003f 00       		.byte	0
 4956              		.section	.rodata.str1.4,"aMS",%progbits,1
 4957              		.align	2
 4958              	.LC0:
 4959 0000 726200   		.ascii	"rb\000"
 4960 0003 00       		.space	1
 4961              	.LC1:
 4962 0004 20205249 		.ascii	"  RIPEMD-160 test #%d: \000"
 4962      50454D44 
 4962      2D313630 
 4962      20746573 
 4962      74202325 
 4963              	.LC2:
 4964 001c 6661696C 		.ascii	"failed\000"
 4964      656400
 4965 0023 00       		.space	1
 4966              	.LC3:
 4967 0024 70617373 		.ascii	"passed\000"
 4967      656400
 4968 002b 00       		.space	1
 4969              	.LC4:
 4970 002c 2020484D 		.ascii	"  HMAC-RIPEMD-160 test #%d, key #%d: \000"
 4970      41432D52 
 4970      4950454D 
 4970      442D3136 
 4970      30207465 
 4971 0052 0000     		.space	2
 4972              	.LC5:
 4973 0054 00       		.ascii	"\000"
 4974 0055 000000   		.space	3
 4975              	.LC6:
 4976 0058 6100     		.ascii	"a\000"
 4977 005a 0000     		.space	2
 4978              	.LC7:
 4979 005c 61626300 		.ascii	"abc\000"
 4980              	.LC8:
 4981 0060 6D657373 		.ascii	"message digest\000"
 4981      61676520 
 4981      64696765 
 4981      737400
 4982 006f 00       		.space	1
 4983              	.LC9:
 4984 0070 61626364 		.ascii	"abcdefghijklmnopqrstuvwxyz\000"
 4984      65666768 
 4984      696A6B6C 
ARM GAS  C:\Users\jo\AppData\Local\Temp\ccdgtuym.s 			page 89


 4984      6D6E6F70 
 4984      71727374 
 4985 008b 00       		.space	1
 4986              	.LC10:
 4987 008c 61626364 		.ascii	"abcdbcdecdefdefgefghfghighijhijkijkljklmklmnlmnomno"
 4987      62636465 
 4987      63646566 
 4987      64656667 
 4987      65666768 
 4988 00bf 706E6F70 		.ascii	"pnopq\000"
 4988      7100
 4989 00c5 000000   		.space	3
 4990              	.LC11:
 4991 00c8 41424344 		.ascii	"ABCDEFGHIJKLMNOPQRSTUVWXYZabcdefghijklmnopqrstuvwxy"
 4991      45464748 
 4991      494A4B4C 
 4991      4D4E4F50 
 4991      51525354 
 4992 00fb 7A303132 		.ascii	"z0123456789\000"
 4992      33343536 
 4992      37383900 
 4993 0107 00       		.space	1
 4994              	.LC12:
 4995 0108 31323334 		.ascii	"123456789012345678901234567890123456789012345678901"
 4995      35363738 
 4995      39303132 
 4995      33343536 
 4995      37383930 
 4996 013b 32333435 		.ascii	"23456789012345678901234567890\000"
 4996      36373839 
 4996      30313233 
 4996      34353637 
 4996      38393031 
 4997 0159 000000   		.section	.rodata.ripemd160_test_input,"a",%progbits
 4998              		.align	2
 4999              		.set	.LANCHOR2,. + 0
 5000              		.type	ripemd160_test_input, %object
 5001              		.size	ripemd160_test_input, 32
 5002              	ripemd160_test_input:
 5003 0000 54000000 		.word	.LC5
 5004 0004 58000000 		.word	.LC6
 5005 0008 5C000000 		.word	.LC7
 5006 000c 60000000 		.word	.LC8
 5007 0010 70000000 		.word	.LC9
 5008 0014 8C000000 		.word	.LC10
 5009 0018 C8000000 		.word	.LC11
 5010 001c 08010000 		.word	.LC12
 5011              		.section	.rodata.ripemd160_test_key,"a",%progbits
 5012              		.align	2
 5013              		.set	.LANCHOR4,. + 0
 5014              		.type	ripemd160_test_key, %object
 5015              		.size	ripemd160_test_key, 40
 5016              	ripemd160_test_key:
 5017 0000 00       		.byte	0
 5018 0001 11       		.byte	17
 5019 0002 22       		.byte	34
 5020 0003 33       		.byte	51
ARM GAS  C:\Users\jo\AppData\Local\Temp\ccdgtuym.s 			page 90


 5021 0004 44       		.byte	68
 5022 0005 55       		.byte	85
 5023 0006 66       		.byte	102
 5024 0007 77       		.byte	119
 5025 0008 88       		.byte	-120
 5026 0009 99       		.byte	-103
 5027 000a AA       		.byte	-86
 5028 000b BB       		.byte	-69
 5029 000c CC       		.byte	-52
 5030 000d DD       		.byte	-35
 5031 000e EE       		.byte	-18
 5032 000f FF       		.byte	-1
 5033 0010 01       		.byte	1
 5034 0011 23       		.byte	35
 5035 0012 45       		.byte	69
 5036 0013 67       		.byte	103
 5037 0014 01       		.byte	1
 5038 0015 23       		.byte	35
 5039 0016 45       		.byte	69
 5040 0017 67       		.byte	103
 5041 0018 89       		.byte	-119
 5042 0019 AB       		.byte	-85
 5043 001a CD       		.byte	-51
 5044 001b EF       		.byte	-17
 5045 001c FE       		.byte	-2
 5046 001d DC       		.byte	-36
 5047 001e BA       		.byte	-70
 5048 001f 98       		.byte	-104
 5049 0020 76       		.byte	118
 5050 0021 54       		.byte	84
 5051 0022 32       		.byte	50
 5052 0023 10       		.byte	16
 5053 0024 00       		.byte	0
 5054 0025 11       		.byte	17
 5055 0026 22       		.byte	34
 5056 0027 33       		.byte	51
 5057              		.text
 5058              	.Letext0:
 5059              		.file 2 "c:\\program files\\gnu tools arm embedded\\4.9 2014q4\\lib\\gcc\\arm-none-eabi\\4.9.3\\in
 5060              		.file 3 "c:\\program files\\gnu tools arm embedded\\4.9 2014q4\\arm-none-eabi\\include\\machine\\_
 5061              		.file 4 "c:\\program files\\gnu tools arm embedded\\4.9 2014q4\\arm-none-eabi\\include\\stdint.h"
 5062              		.file 5 "../../../ext/mbedtls-1.3.11/library/../include/polarssl/ripemd160.h"
 5063              		.file 6 "c:\\program files\\gnu tools arm embedded\\4.9 2014q4\\arm-none-eabi\\include\\sys\\lock.
 5064              		.file 7 "c:\\program files\\gnu tools arm embedded\\4.9 2014q4\\arm-none-eabi\\include\\sys\\_type
 5065              		.file 8 "c:\\program files\\gnu tools arm embedded\\4.9 2014q4\\arm-none-eabi\\include\\sys\\reent
 5066              		.file 9 "c:\\program files\\gnu tools arm embedded\\4.9 2014q4\\arm-none-eabi\\include\\stdio.h"
 5067              		.file 10 "c:\\program files\\gnu tools arm embedded\\4.9 2014q4\\arm-none-eabi\\include\\string.h"
 5068              		.file 11 "<built-in>"