ARM GAS  C:\Users\jo\AppData\Local\Temp\ccdgtuym.s 			page 1


   1              		.syntax unified
   2              		.cpu cortex-m4
   3              		.fpu softvfp
   4              		.eabi_attribute 20, 1
   5              		.eabi_attribute 21, 1
   6              		.eabi_attribute 23, 3
   7              		.eabi_attribute 24, 1
   8              		.eabi_attribute 25, 1
   9              		.eabi_attribute 26, 1
  10              		.eabi_attribute 30, 2
  11              		.eabi_attribute 34, 1
  12              		.eabi_attribute 18, 4
  13              		.thumb
  14              		.file	"ripemd160.c"
  15              		.text
  16              	.Ltext0:
  17              		.cfi_sections	.debug_frame
  18              		.section	.text.ripemd160_init,"ax",%progbits
  19              		.align	2
  20              		.p2align 4,,15
  21              		.global	ripemd160_init
  22              		.thumb
  23              		.thumb_func
  24              		.type	ripemd160_init, %function
  25              	ripemd160_init:
  26              	.LFB1:
  27              		.file 1 "../../../ext/mbedtls-1.3.11/library/ripemd160.c"
  28              		.loc 1 83 0
  29              		.cfi_startproc
  30              		@ args = 0, pretend = 0, frame = 0
  31              		@ frame_needed = 0, uses_anonymous_args = 0
  32              		@ link register save eliminated.
  33              	.LVL0:
  34              		.loc 1 84 0
  35 0000 0021     		movs	r1, #0
  36 0002 DC22     		movs	r2, #220
  37 0004 FFF7FEBF 		b	memset
  38              	.LVL1:
  39              		.cfi_endproc
  40              	.LFE1:
  41              		.size	ripemd160_init, .-ripemd160_init
  42 0008 AFF30080 		.section	.text.ripemd160_free,"ax",%progbits
  42      AFF30080 
  43              		.align	2
  44              		.p2align 4,,15
  45              		.global	ripemd160_free
  46              		.thumb
  47              		.thumb_func
  48              		.type	ripemd160_free, %function
  49              	ripemd160_free:
  50              	.LFB2:
  51              		.loc 1 88 0
  52              		.cfi_startproc
  53              		@ args = 0, pretend = 0, frame = 0
  54              		@ frame_needed = 0, uses_anonymous_args = 0
  55              		@ link register save eliminated.
  56              	.LVL2:
ARM GAS  C:\Users\jo\AppData\Local\Temp\ccdgtuym.s 			page 2


  57              		.loc 1 89 0
  58 0000 30B1     		cbz	r0, .L2
  59 0002 00F1DC02 		add	r2, r0, #220
  60              	.LBB58:
  61              	.LBB59:
  62              		.loc 1 79 0
  63 0006 0023     		movs	r3, #0
  64              	.LVL3:
  65              	.L4:
  66 0008 0370     		strb	r3, [r0]
  67              	.LVL4:
  68 000a 0130     		adds	r0, r0, #1
  69              	.LVL5:
  70 000c 9042     		cmp	r0, r2
  71 000e FBD1     		bne	.L4
  72              	.LVL6:
  73              	.L2:
  74 0010 7047     		bx	lr
  75              	.LBE59:
  76              	.LBE58:
  77              		.cfi_endproc
  78              	.LFE2:
  79              		.size	ripemd160_free, .-ripemd160_free
  80 0012 00BFAFF3 		.section	.text.ripemd160_starts,"ax",%progbits
  80      0080AFF3 
  80      0080AFF3 
  80      0080
  81              		.align	2
  82              		.p2align 4,,15
  83              		.global	ripemd160_starts
  84              		.thumb
  85              		.thumb_func
  86              		.type	ripemd160_starts, %function
  87              	ripemd160_starts:
  88              	.LFB3:
  89              		.loc 1 99 0
  90              		.cfi_startproc
  91              		@ args = 0, pretend = 0, frame = 0
  92              		@ frame_needed = 0, uses_anonymous_args = 0
  93              		@ link register save eliminated.
  94              	.LVL7:
  95 0000 30B4     		push	{r4, r5}
  96              		.cfi_def_cfa_offset 8
  97              		.cfi_offset 4, -8
  98              		.cfi_offset 5, -4
  99              		.loc 1 103 0
 100 0002 074B     		ldr	r3, .L10
 101              		.loc 1 104 0
 102 0004 074D     		ldr	r5, .L10+4
 103              		.loc 1 105 0
 104 0006 084C     		ldr	r4, .L10+8
 105              		.loc 1 106 0
 106 0008 0849     		ldr	r1, .L10+12
 107              		.loc 1 107 0
 108 000a 094A     		ldr	r2, .L10+16
 109              		.loc 1 103 0
 110 000c 8360     		str	r3, [r0, #8]
ARM GAS  C:\Users\jo\AppData\Local\Temp\ccdgtuym.s 			page 3


 111              		.loc 1 100 0
 112 000e 0023     		movs	r3, #0
 113              		.loc 1 104 0
 114 0010 C560     		str	r5, [r0, #12]
 115              		.loc 1 105 0
 116 0012 0461     		str	r4, [r0, #16]
 117              		.loc 1 106 0
 118 0014 4161     		str	r1, [r0, #20]
 119              		.loc 1 107 0
 120 0016 8261     		str	r2, [r0, #24]
 121              		.loc 1 100 0
 122 0018 0360     		str	r3, [r0]
 123              		.loc 1 101 0
 124 001a 4360     		str	r3, [r0, #4]
 125              		.loc 1 108 0
 126 001c 30BC     		pop	{r4, r5}
 127              		.cfi_restore 5
 128              		.cfi_restore 4
 129              		.cfi_def_cfa_offset 0
 130 001e 7047     		bx	lr
 131              	.L11:
 132              		.align	2
 133              	.L10:
 134 0020 01234567 		.word	1732584193
 135 0024 89ABCDEF 		.word	-271733879
 136 0028 FEDCBA98 		.word	-1732584194
 137 002c 76543210 		.word	271733878
 138 0030 F0E1D2C3 		.word	-1009589776
 139              		.cfi_endproc
 140              	.LFE3:
 141              		.size	ripemd160_starts, .-ripemd160_starts
 142 0034 AFF30080 		.section	.text.ripemd160_process,"ax",%progbits
 142      AFF30080 
 142      AFF30080 
 143              		.align	2
 144              		.p2align 4,,15
 145              		.global	ripemd160_process
 146              		.thumb
 147              		.thumb_func
 148              		.type	ripemd160_process, %function
 149              	ripemd160_process:
 150              	.LFB4:
 151              		.loc 1 114 0
 152              		.cfi_startproc
 153              		@ args = 0, pretend = 0, frame = 192
 154              		@ frame_needed = 0, uses_anonymous_args = 0
 155              	.LVL8:
 156 0000 2DE9F04F 		push	{r4, r5, r6, r7, r8, r9, r10, fp, lr}
 157              		.cfi_def_cfa_offset 36
 158              		.cfi_offset 4, -36
 159              		.cfi_offset 5, -32
 160              		.cfi_offset 6, -28
 161              		.cfi_offset 7, -24
 162              		.cfi_offset 8, -20
 163              		.cfi_offset 9, -16
 164              		.cfi_offset 10, -12
 165              		.cfi_offset 11, -8
ARM GAS  C:\Users\jo\AppData\Local\Temp\ccdgtuym.s 			page 4


 166              		.cfi_offset 14, -4
 167 0004 B1B0     		sub	sp, sp, #196
 168              		.cfi_def_cfa_offset 232
 169              		.loc 1 120 0
 170 0006 91F80EE0 		ldrb	lr, [r1, #14]	@ zero_extendqisi2
 171 000a CDF824E0 		str	lr, [sp, #36]
 172 000e 91F80CE0 		ldrb	lr, [r1, #12]	@ zero_extendqisi2
 173 0012 CDF828E0 		str	lr, [sp, #40]
 174 0016 91F80FE0 		ldrb	lr, [r1, #15]	@ zero_extendqisi2
 175 001a CDF82CE0 		str	lr, [sp, #44]
 176              		.loc 1 121 0
 177 001e 91F811E0 		ldrb	lr, [r1, #17]	@ zero_extendqisi2
 178              		.loc 1 118 0
 179 0022 CC79     		ldrb	r4, [r1, #7]	@ zero_extendqisi2
 180              		.loc 1 119 0
 181 0024 4E7A     		ldrb	r6, [r1, #9]	@ zero_extendqisi2
 182              		.loc 1 121 0
 183 0026 CDF830E0 		str	lr, [sp, #48]
 184 002a 91F812E0 		ldrb	lr, [r1, #18]	@ zero_extendqisi2
 185              		.loc 1 119 0
 186 002e 8F7A     		ldrb	r7, [r1, #10]	@ zero_extendqisi2
 187 0030 0B7A     		ldrb	r3, [r1, #8]	@ zero_extendqisi2
 188              		.loc 1 118 0
 189 0032 0294     		str	r4, [sp, #8]
 190              		.loc 1 119 0
 191 0034 0396     		str	r6, [sp, #12]
 192 0036 CC7A     		ldrb	r4, [r1, #11]	@ zero_extendqisi2
 193              		.loc 1 120 0
 194 0038 4E7B     		ldrb	r6, [r1, #13]	@ zero_extendqisi2
 195              		.loc 1 121 0
 196 003a CDF834E0 		str	lr, [sp, #52]
 197 003e 91F810E0 		ldrb	lr, [r1, #16]	@ zero_extendqisi2
 198              		.loc 1 117 0
 199 0042 91F801B0 		ldrb	fp, [r1, #1]	@ zero_extendqisi2
 200 0046 91F800A0 		ldrb	r10, [r1]	@ zero_extendqisi2
 201              		.loc 1 118 0
 202 004a 91F805C0 		ldrb	ip, [r1, #5]	@ zero_extendqisi2
 203 004e 0D79     		ldrb	r5, [r1, #4]	@ zero_extendqisi2
 204              		.loc 1 114 0
 205 0050 1390     		str	r0, [sp, #76]
 206              		.loc 1 117 0
 207 0052 8A78     		ldrb	r2, [r1, #2]	@ zero_extendqisi2
 208 0054 91F80380 		ldrb	r8, [r1, #3]	@ zero_extendqisi2
 209              		.loc 1 118 0
 210 0058 8879     		ldrb	r0, [r1, #6]	@ zero_extendqisi2
 211              	.LVL9:
 212              		.loc 1 119 0
 213 005a 0497     		str	r7, [sp, #16]
 214 005c 0593     		str	r3, [sp, #20]
 215 005e 0794     		str	r4, [sp, #28]
 216              		.loc 1 120 0
 217 0060 0896     		str	r6, [sp, #32]
 218              		.loc 1 121 0
 219 0062 CDF83CE0 		str	lr, [sp, #60]
 220 0066 91F813E0 		ldrb	lr, [r1, #19]	@ zero_extendqisi2
 221              		.loc 1 123 0
 222 006a 0B7E     		ldrb	r3, [r1, #24]	@ zero_extendqisi2
ARM GAS  C:\Users\jo\AppData\Local\Temp\ccdgtuym.s 			page 5


 223 006c 1993     		str	r3, [sp, #100]
 224              		.loc 1 124 0
 225 006e 8B7F     		ldrb	r3, [r1, #30]	@ zero_extendqisi2
 226 0070 0E93     		str	r3, [sp, #56]
 227 0072 0B7F     		ldrb	r3, [r1, #28]	@ zero_extendqisi2
 228 0074 1293     		str	r3, [sp, #72]
 229 0076 CB7F     		ldrb	r3, [r1, #31]	@ zero_extendqisi2
 230 0078 1593     		str	r3, [sp, #84]
 231              		.loc 1 125 0
 232 007a 91F82130 		ldrb	r3, [r1, #33]	@ zero_extendqisi2
 233 007e 1B93     		str	r3, [sp, #108]
 234 0080 91F82230 		ldrb	r3, [r1, #34]	@ zero_extendqisi2
 235 0084 1C93     		str	r3, [sp, #112]
 236 0086 91F82030 		ldrb	r3, [r1, #32]	@ zero_extendqisi2
 237 008a 1D93     		str	r3, [sp, #116]
 238 008c 91F82330 		ldrb	r3, [r1, #35]	@ zero_extendqisi2
 239 0090 1E93     		str	r3, [sp, #120]
 240              		.loc 1 134 0
 241 0092 139B     		ldr	r3, [sp, #76]
 242              		.loc 1 123 0
 243 0094 4F7E     		ldrb	r7, [r1, #25]	@ zero_extendqisi2
 244              		.loc 1 134 0
 245 0096 9B68     		ldr	r3, [r3, #8]
 246              		.loc 1 123 0
 247 0098 1797     		str	r7, [sp, #92]
 248              		.loc 1 134 0
 249 009a 1493     		str	r3, [sp, #80]
 250              		.loc 1 123 0
 251 009c 8F7E     		ldrb	r7, [r1, #26]	@ zero_extendqisi2
 252              		.loc 1 135 0
 253 009e 139B     		ldr	r3, [sp, #76]
 254              		.loc 1 123 0
 255 00a0 1897     		str	r7, [sp, #96]
 256              		.loc 1 118 0
 257 00a2 0004     		lsls	r0, r0, #16
 258              		.loc 1 123 0
 259 00a4 CF7E     		ldrb	r7, [r1, #27]	@ zero_extendqisi2
 260              		.loc 1 122 0
 261 00a6 91F81590 		ldrb	r9, [r1, #21]	@ zero_extendqisi2
 262 00aa 0E7D     		ldrb	r6, [r1, #20]	@ zero_extendqisi2
 263              		.loc 1 121 0
 264 00ac CDF840E0 		str	lr, [sp, #64]
 265 00b0 40EA0C20 		orr	r0, r0, ip, lsl #8
 266              		.loc 1 122 0
 267 00b4 8C7D     		ldrb	r4, [r1, #22]	@ zero_extendqisi2
 268 00b6 91F817E0 		ldrb	lr, [r1, #23]	@ zero_extendqisi2
 269              		.loc 1 123 0
 270 00ba 1A97     		str	r7, [sp, #104]
 271              		.loc 1 118 0
 272 00bc 2843     		orrs	r0, r0, r5
 273              		.loc 1 124 0
 274 00be 4F7F     		ldrb	r7, [r1, #29]	@ zero_extendqisi2
 275              		.loc 1 135 0
 276 00c0 DB68     		ldr	r3, [r3, #12]
 277              	.LVL10:
 278              		.loc 1 118 0
 279 00c2 029D     		ldr	r5, [sp, #8]
ARM GAS  C:\Users\jo\AppData\Local\Temp\ccdgtuym.s 			page 6


 280              		.loc 1 127 0
 281 00c4 91F828C0 		ldrb	ip, [r1, #40]	@ zero_extendqisi2
 282 00c8 CDF884C0 		str	ip, [sp, #132]
 283              		.loc 1 117 0
 284 00cc 1204     		lsls	r2, r2, #16
 285              		.loc 1 127 0
 286 00ce 91F82BC0 		ldrb	ip, [r1, #43]	@ zero_extendqisi2
 287 00d2 CDF888C0 		str	ip, [sp, #136]
 288 00d6 42EA0B22 		orr	r2, r2, fp, lsl #8
 289              		.loc 1 118 0
 290 00da 40EA056C 		orr	ip, r0, r5, lsl #24
 291              		.loc 1 122 0
 292 00de 2404     		lsls	r4, r4, #16
 293              		.loc 1 119 0
 294 00e0 049D     		ldr	r5, [sp, #16]
 295              		.loc 1 118 0
 296 00e2 CDF808C0 		str	ip, [sp, #8]
 297              	.LVL11:
 298              		.loc 1 117 0
 299 00e6 42EA0A02 		orr	r2, r2, r10
 300              		.loc 1 129 0
 301 00ea 91F831C0 		ldrb	ip, [r1, #49]	@ zero_extendqisi2
 302 00ee 0398     		ldr	r0, [sp, #12]
 303              		.loc 1 135 0
 304 00f0 1193     		str	r3, [sp, #68]
 305 00f2 44EA0924 		orr	r4, r4, r9, lsl #8
 306              		.loc 1 126 0
 307 00f6 91F82430 		ldrb	r3, [r1, #36]	@ zero_extendqisi2
 308              		.loc 1 127 0
 309 00fa 91F82990 		ldrb	r9, [r1, #41]	@ zero_extendqisi2
 310              		.loc 1 129 0
 311 00fe CDF894C0 		str	ip, [sp, #148]
 312              		.loc 1 117 0
 313 0102 42EA0868 		orr	r8, r2, r8, lsl #24
 314              		.loc 1 129 0
 315 0106 91F832C0 		ldrb	ip, [r1, #50]	@ zero_extendqisi2
 316              		.loc 1 128 0
 317 010a 91F82C20 		ldrb	r2, [r1, #44]	@ zero_extendqisi2
 318              		.loc 1 126 0
 319 010e 1693     		str	r3, [sp, #88]
 320              		.loc 1 122 0
 321 0110 3443     		orrs	r4, r4, r6
 322              		.loc 1 128 0
 323 0112 91F82D30 		ldrb	r3, [r1, #45]	@ zero_extendqisi2
 324              		.loc 1 127 0
 325 0116 CDF87C90 		str	r9, [sp, #124]
 326              		.loc 1 122 0
 327 011a 44EA0E6E 		orr	lr, r4, lr, lsl #24
 328              		.loc 1 127 0
 329 011e 91F82A90 		ldrb	r9, [r1, #42]	@ zero_extendqisi2
 330              		.loc 1 128 0
 331 0122 2492     		str	r2, [sp, #144]
 332              		.loc 1 129 0
 333 0124 CDF898C0 		str	ip, [sp, #152]
 334              		.loc 1 119 0
 335 0128 2A04     		lsls	r2, r5, #16
 336              		.loc 1 129 0
ARM GAS  C:\Users\jo\AppData\Local\Temp\ccdgtuym.s 			page 7


 337 012a 91F830C0 		ldrb	ip, [r1, #48]	@ zero_extendqisi2
 338              		.loc 1 126 0
 339 012e 91F825B0 		ldrb	fp, [r1, #37]	@ zero_extendqisi2
 340              		.loc 1 128 0
 341 0132 91F82E40 		ldrb	r4, [r1, #46]	@ zero_extendqisi2
 342              		.loc 1 126 0
 343 0136 91F826A0 		ldrb	r10, [r1, #38]	@ zero_extendqisi2
 344              		.loc 1 117 0
 345 013a CDF80480 		str	r8, [sp, #4]
 346              	.LVL12:
 347              		.loc 1 127 0
 348 013e CDF88090 		str	r9, [sp, #128]
 349              		.loc 1 126 0
 350 0142 91F82780 		ldrb	r8, [r1, #39]	@ zero_extendqisi2
 351              		.loc 1 128 0
 352 0146 2393     		str	r3, [sp, #140]
 353              		.loc 1 122 0
 354 0148 CDF818E0 		str	lr, [sp, #24]
 355 014c 42EA0022 		orr	r2, r2, r0, lsl #8
 356              		.loc 1 128 0
 357 0150 91F82FE0 		ldrb	lr, [r1, #47]	@ zero_extendqisi2
 358              		.loc 1 129 0
 359 0154 CDF89CC0 		str	ip, [sp, #156]
 360 0158 91F833C0 		ldrb	ip, [r1, #51]	@ zero_extendqisi2
 361              	.LVL13:
 362              		.loc 1 119 0
 363 015c 0598     		ldr	r0, [sp, #20]
 364              	.LVL14:
 365              		.loc 1 124 0
 366 015e 0E9E     		ldr	r6, [sp, #56]
 367              		.loc 1 129 0
 368 0160 CDF8A0C0 		str	ip, [sp, #160]
 369              		.loc 1 119 0
 370 0164 0243     		orrs	r2, r2, r0
 371              		.loc 1 130 0
 372 0166 91F835C0 		ldrb	ip, [r1, #53]	@ zero_extendqisi2
 373              		.loc 1 119 0
 374 016a 0798     		ldr	r0, [sp, #28]
 375              		.loc 1 130 0
 376 016c CDF8A4C0 		str	ip, [sp, #164]
 377 0170 91F834C0 		ldrb	ip, [r1, #52]	@ zero_extendqisi2
 378 0174 CDF8A8C0 		str	ip, [sp, #168]
 379              		.loc 1 124 0
 380 0178 3304     		lsls	r3, r6, #16
 381              		.loc 1 119 0
 382 017a 42EA006C 		orr	ip, r2, r0, lsl #24
 383              		.loc 1 131 0
 384 017e 91F83A20 		ldrb	r2, [r1, #58]	@ zero_extendqisi2
 385              		.loc 1 120 0
 386 0182 0998     		ldr	r0, [sp, #36]
 387              		.loc 1 124 0
 388 0184 129D     		ldr	r5, [sp, #72]
 389              		.loc 1 119 0
 390 0186 CDF80CC0 		str	ip, [sp, #12]
 391              	.LVL15:
 392 018a 43EA0723 		orr	r3, r3, r7, lsl #8
 393              		.loc 1 131 0
ARM GAS  C:\Users\jo\AppData\Local\Temp\ccdgtuym.s 			page 8


 394 018e 91F83970 		ldrb	r7, [r1, #57]	@ zero_extendqisi2
 395              		.loc 1 130 0
 396 0192 91F837C0 		ldrb	ip, [r1, #55]	@ zero_extendqisi2
 397 0196 CDF8ACC0 		str	ip, [sp, #172]
 398              		.loc 1 131 0
 399 019a 1204     		lsls	r2, r2, #16
 400 019c 42EA0722 		orr	r2, r2, r7, lsl #8
 401 01a0 089F     		ldr	r7, [sp, #32]
 402              		.loc 1 130 0
 403 01a2 91F83690 		ldrb	r9, [r1, #54]	@ zero_extendqisi2
 404              		.loc 1 120 0
 405 01a6 0004     		lsls	r0, r0, #16
 406 01a8 40EA0720 		orr	r0, r0, r7, lsl #8
 407              		.loc 1 131 0
 408 01ac 91F83870 		ldrb	r7, [r1, #56]	@ zero_extendqisi2
 409              		.loc 1 124 0
 410 01b0 2B43     		orrs	r3, r3, r5
 411 01b2 159D     		ldr	r5, [sp, #84]
 412              		.loc 1 131 0
 413 01b4 3A43     		orrs	r2, r2, r7
 414 01b6 91F83B70 		ldrb	r7, [r1, #59]	@ zero_extendqisi2
 415              		.loc 1 124 0
 416 01ba 43EA056C 		orr	ip, r3, r5, lsl #24
 417 01be CDF820C0 		str	ip, [sp, #32]
 418              		.loc 1 131 0
 419 01c2 42EA076C 		orr	ip, r2, r7, lsl #24
 420 01c6 CDF838C0 		str	ip, [sp, #56]
 421              		.loc 1 132 0
 422 01ca 91F83DC0 		ldrb	ip, [r1, #61]	@ zero_extendqisi2
 423              		.loc 1 136 0
 424 01ce 139B     		ldr	r3, [sp, #76]
 425              		.loc 1 132 0
 426 01d0 CDF8B0C0 		str	ip, [sp, #176]
 427 01d4 91F83EC0 		ldrb	ip, [r1, #62]	@ zero_extendqisi2
 428 01d8 CDF8B4C0 		str	ip, [sp, #180]
 429 01dc 91F83CC0 		ldrb	ip, [r1, #60]	@ zero_extendqisi2
 430 01e0 CDF8B8C0 		str	ip, [sp, #184]
 431 01e4 91F83FC0 		ldrb	ip, [r1, #63]	@ zero_extendqisi2
 432              		.loc 1 136 0
 433 01e8 1969     		ldr	r1, [r3, #16]
 434              	.LVL16:
 435              		.loc 1 132 0
 436 01ea CDF8BCC0 		str	ip, [sp, #188]
 437              		.loc 1 136 0
 438 01ee 0D46     		mov	r5, r1
 439              		.loc 1 120 0
 440 01f0 0A99     		ldr	r1, [sp, #40]
 441              	.LVL17:
 442 01f2 0C9A     		ldr	r2, [sp, #48]
 443              		.loc 1 161 0
 444 01f4 1595     		str	r5, [sp, #84]
 445              		.loc 1 120 0
 446 01f6 0843     		orrs	r0, r0, r1
 447 01f8 0B99     		ldr	r1, [sp, #44]
 448 01fa 149F     		ldr	r7, [sp, #80]
 449 01fc 40EA016C 		orr	ip, r0, r1, lsl #24
 450              		.loc 1 137 0
ARM GAS  C:\Users\jo\AppData\Local\Temp\ccdgtuym.s 			page 9


 451 0200 1846     		mov	r0, r3
 452 0202 5B69     		ldr	r3, [r3, #20]
 453              		.loc 1 161 0
 454 0204 1599     		ldr	r1, [sp, #84]
 455              		.loc 1 120 0
 456 0206 CDF810C0 		str	ip, [sp, #16]
 457              	.LVL18:
 458              		.loc 1 137 0
 459 020a 1E46     		mov	r6, r3
 460              		.loc 1 121 0
 461 020c 0D9B     		ldr	r3, [sp, #52]
 462              		.loc 1 161 0
 463 020e 1296     		str	r6, [sp, #72]
 464              		.loc 1 121 0
 465 0210 1B04     		lsls	r3, r3, #16
 466 0212 43EA0223 		orr	r3, r3, r2, lsl #8
 467              		.loc 1 161 0
 468 0216 AC46     		mov	ip, r5
 469              		.loc 1 121 0
 470 0218 0F9A     		ldr	r2, [sp, #60]
 471              		.loc 1 161 0
 472 021a 119D     		ldr	r5, [sp, #68]
 473              		.loc 1 121 0
 474 021c 1A43     		orrs	r2, r2, r3
 475              		.loc 1 161 0
 476 021e 8CEA0503 		eor	r3, ip, r5
 477 0222 8C46     		mov	ip, r1
 478 0224 6CEA0601 		orn	r1, ip, r6
 479 0228 7340     		eors	r3, r3, r6
 480              		.loc 1 121 0
 481 022a 109E     		ldr	r6, [sp, #64]
 482              		.loc 1 126 0
 483 022c 4FEA0A4A 		lsl	r10, r10, #16
 484              		.loc 1 121 0
 485 0230 42EA066C 		orr	ip, r2, r6, lsl #24
 486              		.loc 1 126 0
 487 0234 169A     		ldr	r2, [sp, #88]
 488              		.loc 1 121 0
 489 0236 CDF814C0 		str	ip, [sp, #20]
 490 023a 3B44     		add	r3, r3, r7
 491              	.LVL19:
 492 023c 4AEA0B2A 		orr	r10, r10, fp, lsl #8
 493              		.loc 1 161 0
 494 0240 019F     		ldr	r7, [sp, #4]
 495 0242 DFF808B4 		ldr	fp, .L14
 496              		.loc 1 123 0
 497 0246 189E     		ldr	r6, [sp, #96]
 498              		.loc 1 126 0
 499 0248 4AEA020A 		orr	r10, r10, r2
 500              		.loc 1 138 0
 501 024c 8269     		ldr	r2, [r0, #24]
 502              		.loc 1 161 0
 503 024e 3B44     		add	r3, r3, r7
 504              		.loc 1 138 0
 505 0250 1046     		mov	r0, r2
 506              		.loc 1 161 0
 507 0252 02EB7353 		add	r3, r2, r3, ror #21
ARM GAS  C:\Users\jo\AppData\Local\Temp\ccdgtuym.s 			page 10


 508 0256 149A     		ldr	r2, [sp, #80]
 509 0258 1690     		str	r0, [sp, #88]
 510 025a 6940     		eors	r1, r1, r5
 511 025c 9344     		add	fp, r2, fp
 512 025e 069A     		ldr	r2, [sp, #24]
 513 0260 8B44     		add	fp, fp, r1
 514 0262 9344     		add	fp, fp, r2
 515 0264 159A     		ldr	r2, [sp, #84]
 516 0266 4FEAB252 		ror	r2, r2, #22
 517              		.loc 1 126 0
 518 026a 4AEA086C 		orr	ip, r10, r8, lsl #24
 519              	.LVL20:
 520 026e 82EA0501 		eor	r1, r2, r5
 521              		.loc 1 128 0
 522 0272 4FEA0448 		lsl	r8, r4, #16
 523 0276 169D     		ldr	r5, [sp, #88]
 524 0278 029C     		ldr	r4, [sp, #8]
 525              		.loc 1 126 0
 526 027a CDF828C0 		str	ip, [sp, #40]
 527              		.loc 1 162 0
 528 027e 5940     		eors	r1, r1, r3
 529 0280 2C44     		add	r4, r4, r5
 530 0282 0C44     		add	r4, r4, r1
 531 0284 119D     		ldr	r5, [sp, #68]
 532 0286 1299     		ldr	r1, [sp, #72]
 533              		.loc 1 161 0
 534 0288 00EB3B6B 		add	fp, r0, fp, ror #24
 535              		.loc 1 162 0
 536 028c 01EBB444 		add	r4, r1, r4, ror #18
 537              		.loc 1 123 0
 538 0290 3004     		lsls	r0, r6, #16
 539              		.loc 1 162 0
 540 0292 65EA0201 		orn	r1, r5, r2
 541 0296 179E     		ldr	r6, [sp, #92]
 542 0298 239D     		ldr	r5, [sp, #140]
 543 029a 40EA0620 		orr	r0, r0, r6, lsl #8
 544 029e 48EA0526 		orr	r6, r8, r5, lsl #8
 545 02a2 169D     		ldr	r5, [sp, #88]
 546 02a4 05F1A14C 		add	ip, r5, #1350565888
 547 02a8 0CF50A1C 		add	ip, ip, #2260992
 548 02ac 0E9D     		ldr	r5, [sp, #56]
 549 02ae 0CF6E63C 		addw	ip, ip, #3046
 550 02b2 8BEA0101 		eor	r1, fp, r1
 551 02b6 AC44     		add	ip, ip, r5
 552 02b8 129D     		ldr	r5, [sp, #72]
 553 02ba 8C44     		add	ip, ip, r1
 554 02bc 05EBFC5C 		add	ip, r5, ip, ror #23
 555 02c0 119D     		ldr	r5, [sp, #68]
 556              		.loc 1 123 0
 557 02c2 1999     		ldr	r1, [sp, #100]
 558              		.loc 1 162 0
 559 02c4 4FEAB558 		ror	r8, r5, #22
 560              		.loc 1 123 0
 561 02c8 1A9D     		ldr	r5, [sp, #104]
 562 02ca 0143     		orrs	r1, r1, r0
 563              		.loc 1 128 0
 564 02cc 2498     		ldr	r0, [sp, #144]
ARM GAS  C:\Users\jo\AppData\Local\Temp\ccdgtuym.s 			page 11


 565              		.loc 1 123 0
 566 02ce 41EA056A 		orr	r10, r1, r5, lsl #24
 567 02d2 039D     		ldr	r5, [sp, #12]
 568 02d4 1299     		ldr	r1, [sp, #72]
 569 02d6 CDF81CA0 		str	r10, [sp, #28]
 570              		.loc 1 128 0
 571 02da 0643     		orrs	r6, r6, r0
 572 02dc 6918     		adds	r1, r5, r1
 573 02de 46EA0E6E 		orr	lr, r6, lr, lsl #24
 574 02e2 DA4D     		ldr	r5, .L14
 575 02e4 129E     		ldr	r6, [sp, #72]
 576 02e6 CDF830E0 		str	lr, [sp, #48]
 577 02ea 7519     		adds	r5, r6, r5
 578 02ec 089E     		ldr	r6, [sp, #32]
 579 02ee 3544     		add	r5, r5, r6
 580 02f0 049E     		ldr	r6, [sp, #16]
 581 02f2 06EB020A 		add	r10, r6, r2
 582 02f6 D54E     		ldr	r6, .L14
 583 02f8 83EA0800 		eor	r0, r3, r8
 584              		.loc 1 163 0
 585 02fc 6040     		eors	r0, r0, r4
 586              	.LVL21:
 587 02fe 9619     		adds	r6, r2, r6
 588 0300 0844     		add	r0, r0, r1
 589 0302 3E44     		add	r6, r6, r7
 590 0304 6BEA0801 		orn	r1, fp, r8
 591              		.loc 1 125 0
 592 0308 1C9F     		ldr	r7, [sp, #112]
 593              		.loc 1 163 0
 594 030a 4FEAB353 		ror	r3, r3, #22
 595 030e 8CEA0101 		eor	r1, ip, r1
 596 0312 02EB7040 		add	r0, r2, r0, ror #17
 597 0316 0D44     		add	r5, r5, r1
 598              		.loc 1 125 0
 599 0318 4FEA074E 		lsl	lr, r7, #16
 600 031c 84EA0301 		eor	r1, r4, r3
 601 0320 1B9F     		ldr	r7, [sp, #108]
 602              		.loc 1 163 0
 603 0322 4FEABB5B 		ror	fp, fp, #22
 604              		.loc 1 164 0
 605 0326 4140     		eors	r1, r1, r0
 606              		.loc 1 163 0
 607 0328 02EBF555 		add	r5, r2, r5, ror #23
 608              		.loc 1 164 0
 609 032c 8A44     		add	r10, r10, r1
 610 032e 4EEA072E 		orr	lr, lr, r7, lsl #8
 611 0332 6CEA0B01 		orn	r1, ip, fp
 612              		.loc 1 125 0
 613 0336 1D9F     		ldr	r7, [sp, #116]
 614              		.loc 1 164 0
 615 0338 6940     		eors	r1, r1, r5
 616 033a 0E44     		add	r6, r6, r1
 617              		.loc 1 125 0
 618 033c 4EEA070E 		orr	lr, lr, r7
 619 0340 2999     		ldr	r1, [sp, #164]
 620 0342 059F     		ldr	r7, [sp, #20]
 621              		.loc 1 164 0
ARM GAS  C:\Users\jo\AppData\Local\Temp\ccdgtuym.s 			page 12


 622 0344 4FEAB454 		ror	r4, r4, #22
 623              		.loc 1 130 0
 624 0348 4FEA0942 		lsl	r2, r9, #16
 625              		.loc 1 164 0
 626 034c 08EB3A5A 		add	r10, r8, r10, ror #20
 627 0350 42EA0122 		orr	r2, r2, r1, lsl #8
 628 0354 B946     		mov	r9, r7
 629 0356 80EA0401 		eor	r1, r0, r4
 630 035a 08EB7656 		add	r6, r8, r6, ror #21
 631              		.loc 1 165 0
 632 035e 81EA0A01 		eor	r1, r1, r10
 633 0362 C144     		add	r9, r9, r8
 634 0364 08F1A148 		add	r8, r8, #1350565888
 635 0368 8944     		add	r9, r9, r1
 636 036a 08F50A18 		add	r8, r8, #2260992
 637 036e 0A99     		ldr	r1, [sp, #40]
 638              		.loc 1 164 0
 639 0370 4FEABC5C 		ror	ip, ip, #22
 640 0374 08F6E638 		addw	r8, r8, #3046
 641 0378 08EB0107 		add	r7, r8, r1
 642 037c 0699     		ldr	r1, [sp, #24]
 643              		.loc 1 165 0
 644 037e 65EA0C08 		orn	r8, r5, ip
 645 0382 4FEAB050 		ror	r0, r0, #22
 646 0386 86EA0808 		eor	r8, r6, r8
 647 038a 03EBF969 		add	r9, r3, r9, ror #27
 648 038e B844     		add	r8, r8, r7
 649 0390 0B44     		add	r3, r3, r1
 650              		.loc 1 130 0
 651 0392 2A9F     		ldr	r7, [sp, #168]
 652 0394 8AEA0001 		eor	r1, r10, r0
 653              		.loc 1 166 0
 654 0398 81EA0901 		eor	r1, r1, r9
 655              		.loc 1 130 0
 656 039c 3A43     		orrs	r2, r2, r7
 657              		.loc 1 166 0
 658 039e 0B44     		add	r3, r3, r1
 659              		.loc 1 125 0
 660 03a0 1E9F     		ldr	r7, [sp, #120]
 661 03a2 0799     		ldr	r1, [sp, #28]
 662              		.loc 1 166 0
 663 03a4 04EB3363 		add	r3, r4, r3, ror #24
 664              		.loc 1 125 0
 665 03a8 4EEA076E 		orr	lr, lr, r7, lsl #24
 666 03ac 0C44     		add	r4, r4, r1
 667 03ae 039F     		ldr	r7, [sp, #12]
 668 03b0 A649     		ldr	r1, .L14
 669 03b2 CDF824E0 		str	lr, [sp, #36]
 670 03b6 7918     		adds	r1, r7, r1
 671              		.loc 1 130 0
 672 03b8 2B9F     		ldr	r7, [sp, #172]
 673              		.loc 1 166 0
 674 03ba 4FEABA5A 		ror	r10, r10, #22
 675              		.loc 1 130 0
 676 03be 42EA076E 		orr	lr, r2, r7, lsl #24
 677 03c2 89EA0A07 		eor	r7, r9, r10
 678 03c6 089A     		ldr	r2, [sp, #32]
ARM GAS  C:\Users\jo\AppData\Local\Temp\ccdgtuym.s 			page 13


 679 03c8 CDF834E0 		str	lr, [sp, #52]
 680              		.loc 1 167 0
 681 03cc 5F40     		eors	r7, r7, r3
 682              		.loc 1 165 0
 683 03ce 4FEAB555 		ror	r5, r5, #22
 684              		.loc 1 167 0
 685 03d2 2744     		add	r7, r7, r4
 686              		.loc 1 165 0
 687 03d4 0BEBF848 		add	r8, fp, r8, ror #19
 688              		.loc 1 167 0
 689 03d8 00EB7767 		add	r7, r0, r7, ror #25
 690 03dc 0C9C     		ldr	r4, [sp, #48]
 691 03de 8B44     		add	fp, fp, r1
 692 03e0 1044     		add	r0, r0, r2
 693              		.loc 1 166 0
 694 03e2 66EA0501 		orn	r1, r6, r5
 695 03e6 994A     		ldr	r2, .L14
 696 03e8 88EA0101 		eor	r1, r8, r1
 697 03ec 4FEAB656 		ror	r6, r6, #22
 698 03f0 A218     		adds	r2, r4, r2
 699 03f2 8B44     		add	fp, fp, r1
 700 03f4 0CEB7B4B 		add	fp, ip, fp, ror #17
 701 03f8 9444     		add	ip, ip, r2
 702              		.loc 1 167 0
 703 03fa 68EA0602 		orn	r2, r8, r6
 704 03fe 4FEAB959 		ror	r9, r9, #22
 705 0402 8BEA0202 		eor	r2, fp, r2
 706 0406 9444     		add	ip, ip, r2
 707 0408 83EA0902 		eor	r2, r3, r9
 708              		.loc 1 168 0
 709 040c 4FEAB353 		ror	r3, r3, #22
 710 0410 099C     		ldr	r4, [sp, #36]
 711 0412 7A40     		eors	r2, r2, r7
 712 0414 1946     		mov	r1, r3
 713              		.loc 1 127 0
 714 0416 209B     		ldr	r3, [sp, #128]
 715 0418 1091     		str	r1, [sp, #64]
 716              		.loc 1 168 0
 717 041a 1044     		add	r0, r0, r2
 718 041c 0AEBF050 		add	r0, r10, r0, ror #23
 719 0420 A244     		add	r10, r10, r4
 720              		.loc 1 127 0
 721 0422 1C04     		lsls	r4, r3, #16
 722              		.loc 1 132 0
 723 0424 2D9B     		ldr	r3, [sp, #180]
 724 0426 059A     		ldr	r2, [sp, #20]
 725 0428 4FEA034E 		lsl	lr, r3, #16
 726 042c 1F9B     		ldr	r3, [sp, #124]
 727 042e 44EA0324 		orr	r4, r4, r3, lsl #8
 728 0432 1346     		mov	r3, r2
 729 0434 854A     		ldr	r2, .L14
 730              		.loc 1 167 0
 731 0436 4FEAB858 		ror	r8, r8, #22
 732 043a 9A18     		adds	r2, r3, r2
 733 043c 05EB7C4C 		add	ip, r5, ip, ror #17
 734 0440 1544     		add	r5, r5, r2
 735              		.loc 1 168 0
ARM GAS  C:\Users\jo\AppData\Local\Temp\ccdgtuym.s 			page 14


 736 0442 6BEA0802 		orn	r2, fp, r8
 737 0446 8CEA0202 		eor	r2, ip, r2
 738 044a 7940     		eors	r1, r1, r7
 739 044c 2C9B     		ldr	r3, [sp, #176]
 740 044e 1544     		add	r5, r5, r2
 741              		.loc 1 169 0
 742 0450 4140     		eors	r1, r1, r0
 743 0452 0A9A     		ldr	r2, [sp, #40]
 744 0454 5144     		add	r1, r1, r10
 745 0456 09EB7151 		add	r1, r9, r1, ror #21
 746 045a 9144     		add	r9, r9, r2
 747 045c 0D9A     		ldr	r2, [sp, #52]
 748 045e 9246     		mov	r10, r2
 749 0460 7A4A     		ldr	r2, .L14
 750 0462 4EEA032E 		orr	lr, lr, r3, lsl #8
 751              		.loc 1 127 0
 752 0466 219B     		ldr	r3, [sp, #132]
 753              		.loc 1 168 0
 754 0468 4FEABB5B 		ror	fp, fp, #22
 755 046c 5244     		add	r2, r10, r2
 756 046e 06EBF565 		add	r5, r6, r5, ror #27
 757              		.loc 1 127 0
 758 0472 1C43     		orrs	r4, r4, r3
 759 0474 1644     		add	r6, r6, r2
 760              		.loc 1 132 0
 761 0476 2E9B     		ldr	r3, [sp, #184]
 762              		.loc 1 169 0
 763 0478 6CEA0B02 		orn	r2, ip, fp
 764 047c 4FEAB757 		ror	r7, r7, #22
 765 0480 6A40     		eors	r2, r2, r5
 766 0482 1644     		add	r6, r6, r2
 767              		.loc 1 132 0
 768 0484 4EEA030E 		orr	lr, lr, r3
 769 0488 80EA0702 		eor	r2, r0, r7
 770              		.loc 1 127 0
 771 048c 229B     		ldr	r3, [sp, #136]
 772              		.loc 1 170 0
 773 048e 4A40     		eors	r2, r2, r1
 774 0490 4A44     		add	r2, r2, r9
 775              		.loc 1 127 0
 776 0492 44EA0369 		orr	r9, r4, r3, lsl #24
 777 0496 079C     		ldr	r4, [sp, #28]
 778 0498 CDF82C90 		str	r9, [sp, #44]
 779 049c A146     		mov	r9, r4
 780 049e 6B4C     		ldr	r4, .L14
 781              		.loc 1 132 0
 782 04a0 2F9B     		ldr	r3, [sp, #188]
 783              		.loc 1 169 0
 784 04a2 4FEABC5C 		ror	ip, ip, #22
 785 04a6 4C44     		add	r4, r9, r4
 786 04a8 08EB7666 		add	r6, r8, r6, ror #25
 787 04ac A044     		add	r8, r8, r4
 788              		.loc 1 170 0
 789 04ae 65EA0C04 		orn	r4, r5, ip
 790 04b2 4FEAB555 		ror	r5, r5, #22
 791 04b6 1795     		str	r5, [sp, #92]
 792              		.loc 1 132 0
ARM GAS  C:\Users\jo\AppData\Local\Temp\ccdgtuym.s 			page 15


 793 04b8 4EEA036E 		orr	lr, lr, r3, lsl #24
 794 04bc 0B9D     		ldr	r5, [sp, #44]
 795              		.loc 1 170 0
 796 04be 109B     		ldr	r3, [sp, #64]
 797              		.loc 1 132 0
 798 04c0 CDF83CE0 		str	lr, [sp, #60]
 799              		.loc 1 170 0
 800 04c4 4FEAB050 		ror	r0, r0, #22
 801 04c8 7440     		eors	r4, r4, r6
 802 04ca 03EBF242 		add	r2, r3, r2, ror #19
 803 04ce A044     		add	r8, r8, r4
 804 04d0 2B44     		add	r3, r3, r5
 805 04d2 81EA0004 		eor	r4, r1, r0
 806 04d6 0F9D     		ldr	r5, [sp, #60]
 807              		.loc 1 171 0
 808 04d8 5440     		eors	r4, r4, r2
 809 04da 05F1A14E 		add	lr, r5, #1350565888
 810 04de 2344     		add	r3, r3, r4
 811 04e0 179C     		ldr	r4, [sp, #92]
 812              		.loc 1 129 0
 813 04e2 269D     		ldr	r5, [sp, #152]
 814 04e4 0EF50A1E 		add	lr, lr, #2260992
 815              		.loc 1 170 0
 816 04e8 0BEB7868 		add	r8, fp, r8, ror #25
 817              		.loc 1 171 0
 818 04ec 66EA0404 		orn	r4, r6, r4
 819 04f0 0EF6E63E 		addw	lr, lr, #3046
 820 04f4 88EA0404 		eor	r4, r8, r4
 821 04f8 DE44     		add	lr, lr, fp
 822 04fa A644     		add	lr, lr, r4
 823 04fc 259C     		ldr	r4, [sp, #148]
 824              		.loc 1 129 0
 825 04fe 4FEA054A 		lsl	r10, r5, #16
 826 0502 4AEA042A 		orr	r10, r10, r4, lsl #8
 827 0506 0C9C     		ldr	r4, [sp, #48]
 828 0508 099D     		ldr	r5, [sp, #36]
 829              		.loc 1 171 0
 830 050a 07EBB343 		add	r3, r7, r3, ror #18
 831 050e 3C19     		adds	r4, r7, r4
 832 0510 4E4F     		ldr	r7, .L14
 833 0512 EF19     		adds	r7, r5, r7
 834              		.loc 1 129 0
 835 0514 279D     		ldr	r5, [sp, #156]
 836              		.loc 1 171 0
 837 0516 4FEAB151 		ror	r1, r1, #22
 838 051a 4FEAB656 		ror	r6, r6, #22
 839              		.loc 1 129 0
 840 051e 4AEA050A 		orr	r10, r10, r5
 841 0522 289D     		ldr	r5, [sp, #160]
 842              		.loc 1 171 0
 843 0524 0CEB3E6E 		add	lr, ip, lr, ror #24
 844              		.loc 1 172 0
 845 0528 68EA0609 		orn	r9, r8, r6
 846 052c 82EA010B 		eor	fp, r2, r1
 847 0530 8BEA030B 		eor	fp, fp, r3
 848 0534 BC44     		add	ip, ip, r7
 849 0536 8EEA0907 		eor	r7, lr, r9
ARM GAS  C:\Users\jo\AppData\Local\Temp\ccdgtuym.s 			page 16


 850              		.loc 1 129 0
 851 053a 4AEA0569 		orr	r9, r10, r5, lsl #24
 852 053e 4D46     		mov	r5, r9
 853              		.loc 1 172 0
 854 0540 5C44     		add	r4, r4, fp
 855 0542 00EB7444 		add	r4, r0, r4, ror #17
 856 0546 1095     		str	r5, [sp, #64]
 857 0548 2844     		add	r0, r0, r5
 858 054a 179D     		ldr	r5, [sp, #92]
 859 054c DFF8FCA0 		ldr	r10, .L14
 860 0550 DFF8F8B0 		ldr	fp, .L14
 861 0554 4FEAB252 		ror	r2, r2, #22
 862              	.LVL22:
 863 0558 6744     		add	r7, r7, ip
 864              	.LVL23:
 865 055a 05EB7757 		add	r7, r5, r7, ror #21
 866              	.LVL24:
 867 055e 83EA0209 		eor	r9, r3, r2
 868 0562 029D     		ldr	r5, [sp, #8]
 869              	.LVL25:
 870              		.loc 1 173 0
 871 0564 89EA0409 		eor	r9, r9, r4
 872 0568 4FEAB353 		ror	r3, r3, #22
 873              	.LVL26:
 874 056c AA44     		add	r10, r5, r10
 875 056e 4844     		add	r0, r0, r9
 876 0570 179D     		ldr	r5, [sp, #92]
 877 0572 1793     		str	r3, [sp, #92]
 878              	.LVL27:
 879 0574 84EA0309 		eor	r9, r4, r3
 880 0578 0D9B     		ldr	r3, [sp, #52]
 881 057a 01EBB060 		add	r0, r1, r0, ror #26
 882              		.loc 1 172 0
 883 057e 4FEAB858 		ror	r8, r8, #22
 884              	.LVL28:
 885 0582 5544     		add	r5, r5, r10
 886              	.LVL29:
 887 0584 1944     		add	r1, r1, r3
 888              	.LVL30:
 889 0586 DFF8C4A0 		ldr	r10, .L14
 890 058a 0B9B     		ldr	r3, [sp, #44]
 891              		.loc 1 173 0
 892 058c 6EEA080C 		orn	ip, lr, r8
 893 0590 87EA0C0C 		eor	ip, r7, ip
 894              		.loc 1 174 0
 895 0594 89EA0009 		eor	r9, r9, r0
 896 0598 9A44     		add	r10, r3, r10
 897 059a 4FEAB453 		ror	r3, r4, #22
 898 059e 0E9C     		ldr	r4, [sp, #56]
 899              	.LVL31:
 900 05a0 1893     		str	r3, [sp, #96]
 901              		.loc 1 173 0
 902 05a2 4FEABE5E 		ror	lr, lr, #22
 903              	.LVL32:
 904 05a6 6544     		add	r5, r5, ip
 905              	.LVL33:
 906              		.loc 1 174 0
ARM GAS  C:\Users\jo\AppData\Local\Temp\ccdgtuym.s 			page 17


 907 05a8 4944     		add	r1, r1, r9
 908              		.loc 1 173 0
 909 05aa 06EBB545 		add	r5, r6, r5, ror #18
 910              	.LVL34:
 911              		.loc 1 174 0
 912 05ae 67EA0E0C 		orn	ip, r7, lr
 913 05b2 02EB7161 		add	r1, r2, r1, ror #25
 914              	.LVL35:
 915 05b6 2244     		add	r2, r2, r4
 916              	.LVL36:
 917 05b8 049C     		ldr	r4, [sp, #16]
 918 05ba 85EA0C09 		eor	r9, r5, ip
 919 05be 80EA030C 		eor	ip, r0, r3
 920              		.loc 1 175 0
 921 05c2 8CEA010C 		eor	ip, ip, r1
 922 05c6 0F9B     		ldr	r3, [sp, #60]
 923              	.LVL37:
 924 05c8 A344     		add	fp, r4, fp
 925 05ca 179C     		ldr	r4, [sp, #92]
 926 05cc 5644     		add	r6, r6, r10
 927              	.LVL38:
 928 05ce 6244     		add	r2, r2, ip
 929 05d0 04EBF252 		add	r2, r4, r2, ror #23
 930              		.loc 1 174 0
 931 05d4 4FEAB757 		ror	r7, r7, #22
 932              	.LVL39:
 933 05d8 4E44     		add	r6, r6, r9
 934              	.LVL40:
 935 05da 1C44     		add	r4, r4, r3
 936 05dc 08EBB646 		add	r6, r8, r6, ror #18
 937              	.LVL41:
 938              		.loc 1 175 0
 939 05e0 65EA0709 		orn	r9, r5, r7
 940 05e4 4FEAB050 		ror	r0, r0, #22
 941              	.LVL42:
 942 05e8 2346     		mov	r3, r4
 943 05ea DFF860A0 		ldr	r10, .L14
 944 05ee 109C     		ldr	r4, [sp, #64]
 945 05f0 D844     		add	r8, r8, fp
 946              	.LVL43:
 947 05f2 81EA000C 		eor	ip, r1, r0
 948 05f6 86EA090B 		eor	fp, r6, r9
 949 05fa 4FEAB555 		ror	r5, r5, #22
 950              	.LVL44:
 951              		.loc 1 176 0
 952 05fe 8CEA020C 		eor	ip, ip, r2
 953 0602 A244     		add	r10, r4, r10
 954              		.loc 1 175 0
 955 0604 C344     		add	fp, fp, r8
 956              	.LVL45:
 957              		.loc 1 176 0
 958 0606 189C     		ldr	r4, [sp, #96]
 959              		.loc 1 175 0
 960 0608 0EEB3B5B 		add	fp, lr, fp, ror #20
 961              	.LVL46:
 962              		.loc 1 176 0
 963 060c 66EA0508 		orn	r8, r6, r5
ARM GAS  C:\Users\jo\AppData\Local\Temp\ccdgtuym.s 			page 18


 964 0610 6344     		add	r3, r3, ip
 965              	.LVL47:
 966 0612 04EB336C 		add	ip, r4, r3, ror #24
 967              	.LVL48:
 968 0616 D644     		add	lr, lr, r10
 969              	.LVL49:
 970 0618 4FEAB151 		ror	r1, r1, #22
 971              	.LVL50:
 972 061c 8BEA080A 		eor	r10, fp, r8
 973              		.loc 1 186 0
 974 0620 CDF85CC0 		str	ip, [sp, #92]
 975              		.loc 1 176 0
 976 0624 F244     		add	r10, r10, lr
 977              	.LVL51:
 978              		.loc 1 186 0
 979 0626 21EA0C0E 		bic	lr, r1, ip
 980 062a 0CEA020C 		and	ip, ip, r2
 981              	.LVL52:
 982 062e 079B     		ldr	r3, [sp, #28]
 983 0630 089C     		ldr	r4, [sp, #32]
 984 0632 DFF81C80 		ldr	r8, .L14+4
 985 0636 4EEA0C09 		orr	r9, lr, ip
 986 063a DFF818C0 		ldr	ip, .L14+8
 987              		.loc 1 176 0
 988 063e 07EBBA6A 		add	r10, r7, r10, ror #26
 989              	.LVL53:
 990 0642 4FEAB656 		ror	r6, r6, #22
 991              	.LVL54:
 992 0646 9C44     		add	ip, r3, ip
 993 0648 06E0     		b	.L15
 994              	.L16:
 995 064a 00BF     		.align	2
 996              	.L14:
 997 064c E68BA250 		.word	1352829926
 998 0650 9979825A 		.word	1518500249
 999 0654 24D14D5C 		.word	1548603684
 1000              	.L15:
 1001 0658 A044     		add	r8, r4, r8
 1002              		.loc 1 186 0
 1003 065a 0AEA060E 		and	lr, r10, r6
 1004 065e 189C     		ldr	r4, [sp, #96]
 1005 0660 0C9B     		ldr	r3, [sp, #48]
 1006 0662 6744     		add	r7, r7, ip
 1007              	.LVL55:
 1008 0664 2BEA060C 		bic	ip, fp, r6
 1009 0668 4EEA0C0E 		orr	lr, lr, ip
 1010 066c 4444     		add	r4, r4, r8
 1011              	.LVL56:
 1012 066e 07EB0E0C 		add	ip, r7, lr
 1013 0672 DFF8D083 		ldr	r8, .L17
 1014 0676 059F     		ldr	r7, [sp, #20]
 1015 0678 A144     		add	r9, r9, r4
 1016              	.LVL57:
 1017 067a B844     		add	r8, r7, r8
 1018 067c 00EB7969 		add	r9, r0, r9, ror #25
 1019              	.LVL58:
 1020 0680 8044     		add	r8, r8, r0
ARM GAS  C:\Users\jo\AppData\Local\Temp\ccdgtuym.s 			page 19


 1021 0682 03F1B840 		add	r0, r3, #1543503872
 1022              	.LVL59:
 1023              		.loc 1 187 0
 1024 0686 179C     		ldr	r4, [sp, #92]
 1025 0688 179B     		ldr	r3, [sp, #92]
 1026 068a 00F59B00 		add	r0, r0, #5079040
 1027              		.loc 1 186 0
 1028 068e 4FEAB252 		ror	r2, r2, #22
 1029              	.LVL60:
 1030 0692 00F5A240 		add	r0, r0, #20736
 1031              		.loc 1 187 0
 1032 0696 22EA0907 		bic	r7, r2, r9
 1033              		.loc 1 186 0
 1034 069a 05EBFC5C 		add	ip, r5, ip, ror #23
 1035              	.LVL61:
 1036 069e 4FEABB5B 		ror	fp, fp, #22
 1037              	.LVL62:
 1038              		.loc 1 187 0
 1039 06a2 09EA0404 		and	r4, r9, r4
 1040 06a6 2430     		adds	r0, r0, #36
 1041 06a8 47EA040E 		orr	lr, r7, r4
 1042 06ac 2844     		add	r0, r0, r5
 1043 06ae 0CEA0B07 		and	r7, ip, fp
 1044 06b2 2AEA0B05 		bic	r5, r10, fp
 1045              	.LVL63:
 1046 06b6 2F43     		orrs	r7, r7, r5
 1047 06b8 C519     		adds	r5, r0, r7
 1048 06ba C644     		add	lr, lr, r8
 1049              	.LVL64:
 1050 06bc 0D98     		ldr	r0, [sp, #52]
 1051 06be E14F     		ldr	r7, .L17
 1052 06c0 01EBBE6E 		add	lr, r1, lr, ror #26
 1053              	.LVL65:
 1054 06c4 4FEAB353 		ror	r3, r3, #22
 1055              	.LVL66:
 1056              		.loc 1 188 0
 1057 06c8 23EA0E08 		bic	r8, r3, lr
 1058 06cc 0EEA0904 		and	r4, lr, r9
 1059 06d0 C719     		adds	r7, r0, r7
 1060 06d2 3944     		add	r1, r1, r7
 1061              	.LVL67:
 1062 06d4 48EA0400 		orr	r0, r8, r4
 1063 06d8 049F     		ldr	r7, [sp, #16]
 1064 06da DB4C     		ldr	r4, .L17+4
 1065              		.loc 1 187 0
 1066 06dc 06EBF545 		add	r5, r6, r5, ror #19
 1067              	.LVL68:
 1068 06e0 4FEABA5A 		ror	r10, r10, #22
 1069              	.LVL69:
 1070 06e4 3C19     		adds	r4, r7, r4
 1071              		.loc 1 188 0
 1072 06e6 05EA0A08 		and	r8, r5, r10
 1073 06ea 2644     		add	r6, r6, r4
 1074              	.LVL70:
 1075 06ec 2CEA0A04 		bic	r4, ip, r10
 1076 06f0 48EA0407 		orr	r7, r8, r4
 1077 06f4 F419     		adds	r4, r6, r7
ARM GAS  C:\Users\jo\AppData\Local\Temp\ccdgtuym.s 			page 20


 1078 06f6 0844     		add	r0, r0, r1
 1079              	.LVL71:
 1080 06f8 029E     		ldr	r6, [sp, #8]
 1081 06fa DFF84883 		ldr	r8, .L17
 1082 06fe 02EB3060 		add	r0, r2, r0, ror #24
 1083              	.LVL72:
 1084 0702 4FEAB959 		ror	r9, r9, #22
 1085              	.LVL73:
 1086              		.loc 1 189 0
 1087 0706 00EA0E01 		and	r1, r0, lr
 1088 070a B044     		add	r8, r6, r8
 1089 070c 29EA0006 		bic	r6, r9, r0
 1090 0710 46EA0107 		orr	r7, r6, r1
 1091 0714 089E     		ldr	r6, [sp, #32]
 1092 0716 CB49     		ldr	r1, .L17
 1093 0718 4244     		add	r2, r2, r8
 1094              	.LVL74:
 1095 071a 06F1B848 		add	r8, r6, #1543503872
 1096 071e 08F59B08 		add	r8, r8, #5079040
 1097 0722 08F5A248 		add	r8, r8, #20736
 1098              		.loc 1 188 0
 1099 0726 0BEB7444 		add	r4, fp, r4, ror #17
 1100              	.LVL75:
 1101 072a 4FEABC5C 		ror	ip, ip, #22
 1102              	.LVL76:
 1103 072e 08F12408 		add	r8, r8, #36
 1104              		.loc 1 189 0
 1105 0732 04EA0C06 		and	r6, r4, ip
 1106 0736 C344     		add	fp, fp, r8
 1107              	.LVL77:
 1108 0738 25EA0C08 		bic	r8, r5, ip
 1109 073c 46EA0806 		orr	r6, r6, r8
 1110 0740 0BEB0608 		add	r8, fp, r6
 1111 0744 0B9E     		ldr	r6, [sp, #44]
 1112 0746 1744     		add	r7, r7, r2
 1113              	.LVL78:
 1114 0748 7118     		adds	r1, r6, r1
 1115 074a 03EBF747 		add	r7, r3, r7, ror #19
 1116              	.LVL79:
 1117 074e 4FEABE5E 		ror	lr, lr, #22
 1118              	.LVL80:
 1119 0752 1944     		add	r1, r1, r3
 1120 0754 019B     		ldr	r3, [sp, #4]
 1121              	.LVL81:
 1122              		.loc 1 190 0
 1123 0756 2EEA070B 		bic	fp, lr, r7
 1124 075a 07EA0002 		and	r2, r7, r0
 1125 075e 4BEA0206 		orr	r6, fp, r2
 1126 0762 9B46     		mov	fp, r3
 1127 0764 B84B     		ldr	r3, .L17+4
 1128              		.loc 1 189 0
 1129 0766 4FEAB555 		ror	r5, r5, #22
 1130              	.LVL82:
 1131 076a 0AEB7868 		add	r8, r10, r8, ror #25
 1132              	.LVL83:
 1133 076e 5B44     		add	r3, fp, r3
 1134 0770 9A44     		add	r10, r10, r3
ARM GAS  C:\Users\jo\AppData\Local\Temp\ccdgtuym.s 			page 21


 1135              	.LVL84:
 1136              		.loc 1 190 0
 1137 0772 08EA050B 		and	fp, r8, r5
 1138 0776 24EA0503 		bic	r3, r4, r5
 1139 077a 0E44     		add	r6, r6, r1
 1140              	.LVL85:
 1141 077c 4BEA0301 		orr	r1, fp, r3
 1142 0780 09EB7656 		add	r6, r9, r6, ror #21
 1143              	.LVL86:
 1144 0784 4FEAB050 		ror	r0, r0, #22
 1145              	.LVL87:
 1146 0788 0AEB0103 		add	r3, r10, r1
 1147              	.LVL88:
 1148 078c DFF8B4B2 		ldr	fp, .L17
 1149 0790 0799     		ldr	r1, [sp, #28]
 1150              		.loc 1 191 0
 1151 0792 20EA060A 		bic	r10, r0, r6
 1152 0796 06EA0702 		and	r2, r6, r7
 1153 079a 8B44     		add	fp, r1, fp
 1154 079c 4AEA0201 		orr	r1, r10, r2
 1155 07a0 0D9A     		ldr	r2, [sp, #52]
 1156 07a2 9246     		mov	r10, r2
 1157 07a4 A84A     		ldr	r2, .L17+4
 1158              		.loc 1 190 0
 1159 07a6 0CEB3353 		add	r3, ip, r3, ror #20
 1160              	.LVL89:
 1161 07aa 4FEAB454 		ror	r4, r4, #22
 1162              	.LVL90:
 1163 07ae 5244     		add	r2, r10, r2
 1164              		.loc 1 191 0
 1165 07b0 1794     		str	r4, [sp, #92]
 1166 07b2 D944     		add	r9, r9, fp
 1167              	.LVL91:
 1168 07b4 03EA040A 		and	r10, r3, r4
 1169 07b8 9444     		add	ip, ip, r2
 1170              	.LVL92:
 1171 07ba DFF888B2 		ldr	fp, .L17
 1172 07be 28EA0402 		bic	r2, r8, r4
 1173 07c2 0F9C     		ldr	r4, [sp, #60]
 1174              	.LVL93:
 1175 07c4 A344     		add	fp, r4, fp
 1176 07c6 069C     		ldr	r4, [sp, #24]
 1177 07c8 4944     		add	r1, r1, r9
 1178              	.LVL94:
 1179 07ca 0EEBF151 		add	r1, lr, r1, ror #23
 1180              	.LVL95:
 1181 07ce 4FEAB757 		ror	r7, r7, #22
 1182              	.LVL96:
 1183 07d2 F344     		add	fp, fp, lr
 1184 07d4 4AEA020A 		orr	r10, r10, r2
 1185 07d8 04F1B84E 		add	lr, r4, #1543503872
 1186              	.LVL97:
 1187 07dc 0CEB0A02 		add	r2, ip, r10
 1188              	.LVL98:
 1189 07e0 0EF59B0E 		add	lr, lr, #5079040
 1190              		.loc 1 192 0
 1191 07e4 27EA010C 		bic	ip, r7, r1
ARM GAS  C:\Users\jo\AppData\Local\Temp\ccdgtuym.s 			page 22


 1192 07e8 01EA060A 		and	r10, r1, r6
 1193 07ec 049C     		ldr	r4, [sp, #16]
 1194 07ee 4CEA0A09 		orr	r9, ip, r10
 1195 07f2 0EF5A24E 		add	lr, lr, #20736
 1196 07f6 DFF84CA2 		ldr	r10, .L17
 1197              		.loc 1 191 0
 1198 07fa 05EB3262 		add	r2, r5, r2, ror #24
 1199              	.LVL99:
 1200 07fe 4FEAB858 		ror	r8, r8, #22
 1201              	.LVL100:
 1202 0802 0EF1240E 		add	lr, lr, #36
 1203              		.loc 1 192 0
 1204 0806 02EA080C 		and	ip, r2, r8
 1205 080a AE44     		add	lr, lr, r5
 1206 080c D944     		add	r9, r9, fp
 1207              	.LVL101:
 1208 080e 23EA0805 		bic	r5, r3, r8
 1209              	.LVL102:
 1210 0812 A244     		add	r10, r4, r10
 1211 0814 00EB7969 		add	r9, r0, r9, ror #25
 1212              	.LVL103:
 1213 0818 4FEAB656 		ror	r6, r6, #22
 1214              	.LVL104:
 1215 081c 8244     		add	r10, r10, r0
 1216 081e 4CEA050C 		orr	ip, ip, r5
 1217 0822 0B98     		ldr	r0, [sp, #44]
 1218              	.LVL105:
 1219 0824 179C     		ldr	r4, [sp, #92]
 1220              		.loc 1 193 0
 1221 0826 26EA090B 		bic	fp, r6, r9
 1222              		.loc 1 192 0
 1223 082a 0EEB0C05 		add	r5, lr, ip
 1224              	.LVL106:
 1225              		.loc 1 193 0
 1226 082e 09EA010E 		and	lr, r9, r1
 1227 0832 4BEA0E0C 		orr	ip, fp, lr
 1228 0836 8646     		mov	lr, r0
 1229 0838 8348     		ldr	r0, .L17+4
 1230              		.loc 1 192 0
 1231 083a 04EBF555 		add	r5, r4, r5, ror #23
 1232              	.LVL107:
 1233 083e 4FEAB353 		ror	r3, r3, #22
 1234              	.LVL108:
 1235 0842 7044     		add	r0, lr, r0
 1236              		.loc 1 193 0
 1237 0844 05EA030B 		and	fp, r5, r3
 1238 0848 0444     		add	r4, r4, r0
 1239 084a 22EA0300 		bic	r0, r2, r3
 1240 084e D444     		add	ip, ip, r10
 1241              	.LVL109:
 1242 0850 4BEA000A 		orr	r10, fp, r0
 1243 0854 04EB0A00 		add	r0, r4, r10
 1244 0858 DFF8E8B1 		ldr	fp, .L17
 1245 085c 109C     		ldr	r4, [sp, #64]
 1246 085e A344     		add	fp, r4, fp
 1247 0860 07EB7C4C 		add	ip, r7, ip, ror #17
 1248              	.LVL110:
ARM GAS  C:\Users\jo\AppData\Local\Temp\ccdgtuym.s 			page 23


 1249 0864 0E9C     		ldr	r4, [sp, #56]
 1250 0866 5F44     		add	r7, r7, fp
 1251              	.LVL111:
 1252 0868 DFF8DCB1 		ldr	fp, .L17+4
 1253 086c 4FEAB151 		ror	r1, r1, #22
 1254              	.LVL112:
 1255 0870 08EB7050 		add	r0, r8, r0, ror #21
 1256              	.LVL113:
 1257 0874 4FEAB252 		ror	r2, r2, #22
 1258              	.LVL114:
 1259 0878 A344     		add	fp, r4, fp
 1260              		.loc 1 194 0
 1261 087a 0CEA090A 		and	r10, ip, r9
 1262 087e 21EA0C0E 		bic	lr, r1, ip
 1263 0882 00EA0204 		and	r4, r0, r2
 1264 0886 D844     		add	r8, r8, fp
 1265              	.LVL115:
 1266 0888 25EA020B 		bic	fp, r5, r2
 1267 088c 4EEA0A0E 		orr	lr, lr, r10
 1268 0890 44EA0B04 		orr	r4, r4, fp
 1269 0894 08EB040B 		add	fp, r8, r4
 1270 0898 BE44     		add	lr, lr, r7
 1271              	.LVL116:
 1272 089a 019C     		ldr	r4, [sp, #4]
 1273 089c 694F     		ldr	r7, .L17
 1274 089e E719     		adds	r7, r4, r7
 1275 08a0 06EB7E6E 		add	lr, r6, lr, ror #25
 1276              	.LVL117:
 1277 08a4 3E44     		add	r6, r6, r7
 1278              	.LVL118:
 1279 08a6 0F9F     		ldr	r7, [sp, #60]
 1280 08a8 B846     		mov	r8, r7
 1281 08aa 674F     		ldr	r7, .L17+4
 1282 08ac 4FEAB555 		ror	r5, r5, #22
 1283              	.LVL119:
 1284 08b0 03EB7B6B 		add	fp, r3, fp, ror #25
 1285 08b4 4FEAB959 		ror	r9, r9, #22
 1286              	.LVL120:
 1287 08b8 4744     		add	r7, r8, r7
 1288              		.loc 1 195 0
 1289 08ba 0EEA0C04 		and	r4, lr, ip
 1290 08be 29EA0E0A 		bic	r10, r9, lr
 1291 08c2 0BEA0508 		and	r8, fp, r5
 1292 08c6 3B44     		add	r3, r3, r7
 1293              	.LVL121:
 1294 08c8 20EA0507 		bic	r7, r0, r5
 1295 08cc 4AEA040A 		orr	r10, r10, r4
 1296 08d0 48EA0708 		orr	r8, r8, r7
 1297 08d4 03EB0807 		add	r7, r3, r8
 1298 08d8 B244     		add	r10, r10, r6
 1299              	.LVL122:
 1300 08da 0A9B     		ldr	r3, [sp, #40]
 1301 08dc 594E     		ldr	r6, .L17
 1302 08de 9E19     		adds	r6, r3, r6
 1303 08e0 01EB3A5A 		add	r10, r1, r10, ror #20
 1304              	.LVL123:
 1305 08e4 4FEABC5C 		ror	ip, ip, #22
ARM GAS  C:\Users\jo\AppData\Local\Temp\ccdgtuym.s 			page 24


 1306              	.LVL124:
 1307 08e8 0E44     		add	r6, r6, r1
 1308 08ea 0999     		ldr	r1, [sp, #36]
 1309              	.LVL125:
 1310              		.loc 1 196 0
 1311 08ec 2CEA0A08 		bic	r8, ip, r10
 1312 08f0 0AEA0E04 		and	r4, r10, lr
 1313 08f4 48EA0403 		orr	r3, r8, r4
 1314 08f8 8846     		mov	r8, r1
 1315 08fa 5349     		ldr	r1, .L17+4
 1316              		.loc 1 195 0
 1317 08fc 02EB7767 		add	r7, r2, r7, ror #25
 1318              	.LVL126:
 1319 0900 4FEAB050 		ror	r0, r0, #22
 1320              	.LVL127:
 1321 0904 4144     		add	r1, r8, r1
 1322 0906 0A44     		add	r2, r2, r1
 1323              	.LVL128:
 1324              		.loc 1 196 0
 1325 0908 07EA0008 		and	r8, r7, r0
 1326 090c 2BEA0001 		bic	r1, fp, r0
 1327 0910 48EA0108 		orr	r8, r8, r1
 1328 0914 02EB0801 		add	r1, r2, r8
 1329 0918 3344     		add	r3, r3, r6
 1330              	.LVL129:
 1331 091a 069A     		ldr	r2, [sp, #24]
 1332 091c 494E     		ldr	r6, .L17
 1333 091e 9619     		adds	r6, r2, r6
 1334 0920 09EB7343 		add	r3, r9, r3, ror #17
 1335              	.LVL130:
 1336 0924 4FEABE5E 		ror	lr, lr, #22
 1337              	.LVL131:
 1338 0928 B144     		add	r9, r9, r6
 1339              	.LVL132:
 1340 092a 109E     		ldr	r6, [sp, #64]
 1341              		.loc 1 197 0
 1342 092c 2EEA0308 		bic	r8, lr, r3
 1343 0930 03EA0A04 		and	r4, r3, r10
 1344 0934 48EA0402 		orr	r2, r8, r4
 1345 0938 B046     		mov	r8, r6
 1346 093a 434E     		ldr	r6, .L17+4
 1347              		.loc 1 196 0
 1348 093c 05EB3151 		add	r1, r5, r1, ror #20
 1349              	.LVL133:
 1350 0940 4FEABB5B 		ror	fp, fp, #22
 1351              	.LVL134:
 1352 0944 4644     		add	r6, r8, r6
 1353 0946 7419     		adds	r4, r6, r5
 1354              		.loc 1 197 0
 1355 0948 01EA0B08 		and	r8, r1, fp
 1356 094c 27EA0B05 		bic	r5, r7, fp
 1357              	.LVL135:
 1358 0950 48EA0506 		orr	r6, r8, r5
 1359 0954 A519     		adds	r5, r4, r6
 1360 0956 039E     		ldr	r6, [sp, #12]
 1361 0958 4A44     		add	r2, r2, r9
 1362              	.LVL136:
ARM GAS  C:\Users\jo\AppData\Local\Temp\ccdgtuym.s 			page 25


 1363 095a B046     		mov	r8, r6
 1364 095c 394E     		ldr	r6, .L17
 1365 095e 0CEBF252 		add	r2, ip, r2, ror #23
 1366              	.LVL137:
 1367 0962 4FEABA5A 		ror	r10, r10, #22
 1368              	.LVL138:
 1369              		.loc 1 198 0
 1370 0966 02EA0304 		and	r4, r2, r3
 1371 096a 4644     		add	r6, r8, r6
 1372 096c 2AEA0208 		bic	r8, r10, r2
 1373 0970 B444     		add	ip, ip, r6
 1374              	.LVL139:
 1375 0972 48EA0409 		orr	r9, r8, r4
 1376 0976 059E     		ldr	r6, [sp, #20]
 1377 0978 334C     		ldr	r4, .L17+4
 1378              		.loc 1 197 0
 1379 097a 00EB7565 		add	r5, r0, r5, ror #25
 1380              	.LVL140:
 1381 097e 4FEAB757 		ror	r7, r7, #22
 1382              	.LVL141:
 1383 0982 3419     		adds	r4, r6, r4
 1384              		.loc 1 198 0
 1385 0984 05EA0708 		and	r8, r5, r7
 1386 0988 4FEAB356 		ror	r6, r3, #22
 1387 098c 2044     		add	r0, r0, r4
 1388              	.LVL142:
 1389 098e 0E9B     		ldr	r3, [sp, #56]
 1390              	.LVL143:
 1391 0990 21EA0704 		bic	r4, r1, r7
 1392 0994 E144     		add	r9, r9, ip
 1393              	.LVL144:
 1394 0996 0EEB7959 		add	r9, lr, r9, ror #21
 1395              	.LVL145:
 1396 099a 48EA0408 		orr	r8, r8, r4
 1397 099e 00EB0804 		add	r4, r0, r8
 1398              	.LVL146:
 1399 09a2 03F1B54C 		add	ip, r3, #1518338048
 1400              		.loc 1 199 0
 1401 09a6 26EA0908 		bic	r8, r6, r9
 1402 09aa 09EA0203 		and	r3, r9, r2
 1403 09ae 48EA0300 		orr	r0, r8, r3
 1404 09b2 0A9B     		ldr	r3, [sp, #40]
 1405 09b4 DFF89080 		ldr	r8, .L17+4
 1406 09b8 0CF51E3C 		add	ip, ip, #161792
 1407              		.loc 1 198 0
 1408 09bc 4FEAB151 		ror	r1, r1, #22
 1409              	.LVL147:
 1410 09c0 0BEBB464 		add	r4, fp, r4, ror #26
 1411              	.LVL148:
 1412 09c4 9844     		add	r8, r3, r8
 1413 09c6 0CF2991C 		addw	ip, ip, #409
 1414 09ca E644     		add	lr, lr, ip
 1415              	.LVL149:
 1416 09cc C344     		add	fp, fp, r8
 1417              	.LVL150:
 1418              		.loc 1 199 0
 1419 09ce 04EA010C 		and	ip, r4, r1
ARM GAS  C:\Users\jo\AppData\Local\Temp\ccdgtuym.s 			page 26


 1420 09d2 25EA0108 		bic	r8, r5, r1
 1421 09d6 4CEA080C 		orr	ip, ip, r8
 1422 09da 4FEAB253 		ror	r3, r2, #22
 1423 09de 0BEB0C08 		add	r8, fp, ip
 1424 09e2 0C9A     		ldr	r2, [sp, #48]
 1425              	.LVL151:
 1426 09e4 DFF85CC0 		ldr	ip, .L17
 1427              		.loc 1 200 0
 1428 09e8 1793     		str	r3, [sp, #92]
 1429              		.loc 1 199 0
 1430 09ea 7044     		add	r0, r0, lr
 1431              	.LVL152:
 1432 09ec 0AEB7060 		add	r0, r10, r0, ror #25
 1433              	.LVL153:
 1434 09f0 9444     		add	ip, r2, ip
 1435              		.loc 1 200 0
 1436 09f2 23EA0002 		bic	r2, r3, r0
 1437 09f6 00EA0903 		and	r3, r0, r9
 1438              	.LVL154:
 1439 09fa 1343     		orrs	r3, r3, r2
 1440 09fc 029A     		ldr	r2, [sp, #8]
 1441 09fe 02F1B84E 		add	lr, r2, #1543503872
 1442 0a02 0EF59B0E 		add	lr, lr, #5079040
 1443 0a06 D444     		add	ip, ip, r10
 1444 0a08 0EF5A24E 		add	lr, lr, #20736
 1445              		.loc 1 199 0
 1446 0a0c 07EB7848 		add	r8, r7, r8, ror #17
 1447              	.LVL155:
 1448 0a10 4FEAB555 		ror	r5, r5, #22
 1449              	.LVL156:
 1450 0a14 0EF1240E 		add	lr, lr, #36
 1451              		.loc 1 200 0
 1452 0a18 9C44     		add	ip, ip, r3
 1453              	.LVL157:
 1454 0a1a 08EA050B 		and	fp, r8, r5
 1455 0a1e 06EBFC4C 		add	ip, r6, ip, ror #19
 1456              	.LVL158:
 1457 0a22 7744     		add	r7, r7, lr
 1458              	.LVL159:
 1459 0a24 4FEAB959 		ror	r9, r9, #22
 1460              	.LVL160:
 1461 0a28 24EA050E 		bic	lr, r4, r5
 1462 0a2c 4A46     		mov	r2, r9
 1463              	.LVL161:
 1464 0a2e 4BEA0E0E 		orr	lr, fp, lr
 1465              		.loc 1 201 0
 1466 0a32 6FEA0C09 		mvn	r9, ip
 1467 0a36 1892     		str	r2, [sp, #96]
 1468 0a38 09EA020B 		and	fp, r9, r2
 1469              		.loc 1 200 0
 1470 0a3c BE44     		add	lr, lr, r7
 1471 0a3e 039A     		ldr	r2, [sp, #12]
 1472 0a40 04E0     		b	.L18
 1473              	.L19:
 1474 0a42 00BF     		.align	2
 1475              	.L17:
 1476 0a44 9979825A 		.word	1518500249
ARM GAS  C:\Users\jo\AppData\Local\Temp\ccdgtuym.s 			page 27


 1477 0a48 24D14D5C 		.word	1548603684
 1478              	.L18:
 1479              	.LVL162:
 1480 0a4c 099F     		ldr	r7, [sp, #36]
 1481              	.LVL163:
 1482 0a4e DE4B     		ldr	r3, .L20
 1483 0a50 9246     		mov	r10, r2
 1484 0a52 FB18     		adds	r3, r7, r3
 1485 0a54 DD4A     		ldr	r2, .L20+4
 1486              		.loc 1 201 0
 1487 0a56 0CEA0007 		and	r7, ip, r0
 1488              		.loc 1 200 0
 1489 0a5a 01EBFE4E 		add	lr, r1, lr, ror #19
 1490              	.LVL164:
 1491 0a5e 4FEAB454 		ror	r4, r4, #22
 1492              	.LVL165:
 1493              		.loc 1 201 0
 1494 0a62 4BEA0707 		orr	r7, fp, r7
 1495 0a66 3344     		add	r3, r3, r6
 1496              	.LVL166:
 1497 0a68 5244     		add	r2, r10, r2
 1498 0a6a 28EA0406 		bic	r6, r8, r4
 1499 0a6e 0EEA040A 		and	r10, lr, r4
 1500 0a72 3B44     		add	r3, r3, r7
 1501              	.LVL167:
 1502 0a74 179F     		ldr	r7, [sp, #92]
 1503 0a76 DFF85CB3 		ldr	fp, .L20+12
 1504 0a7a 4AEA0606 		orr	r6, r10, r6
 1505 0a7e 0A44     		add	r2, r2, r1
 1506 0a80 07EB3353 		add	r3, r7, r3, ror #20
 1507              	.LVL168:
 1508 0a84 9119     		adds	r1, r2, r6
 1509              	.LVL169:
 1510 0a86 049F     		ldr	r7, [sp, #16]
 1511 0a88 D14A     		ldr	r2, .L20+8
 1512 0a8a BA18     		adds	r2, r7, r2
 1513 0a8c 0F9F     		ldr	r7, [sp, #60]
 1514 0a8e 07EB0B06 		add	r6, r7, fp
 1515 0a92 179F     		ldr	r7, [sp, #92]
 1516 0a94 05EB7151 		add	r1, r5, r1, ror #21
 1517 0a98 4FEAB858 		ror	r8, r8, #22
 1518              	.LVL170:
 1519 0a9c 3A44     		add	r2, r2, r7
 1520              		.loc 1 211 0
 1521 0a9e 61EA0E07 		orn	r7, r1, lr
 1522              		.loc 1 201 0
 1523 0aa2 4FEAB050 		ror	r0, r0, #22
 1524              	.LVL171:
 1525              		.loc 1 211 0
 1526 0aa6 87EA0807 		eor	r7, r7, r8
 1527 0aaa 43EA0909 		orr	r9, r3, r9
 1528              	.LVL172:
 1529 0aae 3544     		add	r5, r5, r6
 1530              	.LVL173:
 1531 0ab0 89EA0009 		eor	r9, r9, r0
 1532 0ab4 3D44     		add	r5, r5, r7
 1533 0ab6 189F     		ldr	r7, [sp, #96]
ARM GAS  C:\Users\jo\AppData\Local\Temp\ccdgtuym.s 			page 28


 1534 0ab8 069E     		ldr	r6, [sp, #24]
 1535 0aba 9144     		add	r9, r9, r2
 1536 0abc 07EB7959 		add	r9, r7, r9, ror #21
 1537              	.LVL174:
 1538 0ac0 0B9F     		ldr	r7, [sp, #44]
 1539 0ac2 07F1DD4A 		add	r10, r7, #1853882368
 1540 0ac6 0AF5B30A 		add	r10, r10, #5865472
 1541 0aca 189F     		ldr	r7, [sp, #96]
 1542 0acc 0AF5D74A 		add	r10, r10, #27520
 1543 0ad0 04EBF555 		add	r5, r4, r5, ror #23
 1544 0ad4 0AF1210A 		add	r10, r10, #33
 1545 0ad8 4FEABE5E 		ror	lr, lr, #22
 1546              	.LVL175:
 1547 0adc 5E44     		add	r6, r6, fp
 1548 0ade BA44     		add	r10, r10, r7
 1549              		.loc 1 212 0
 1550 0ae0 65EA0107 		orn	r7, r5, r1
 1551 0ae4 87EA0E07 		eor	r7, r7, lr
 1552 0ae8 3444     		add	r4, r4, r6
 1553              	.LVL176:
 1554 0aea 3C44     		add	r4, r4, r7
 1555 0aec 0E9F     		ldr	r7, [sp, #56]
 1556 0aee 029E     		ldr	r6, [sp, #8]
 1557              		.loc 1 211 0
 1558 0af0 4FEABC5C 		ror	ip, ip, #22
 1559              	.LVL177:
 1560              		.loc 1 212 0
 1561 0af4 69EA0302 		orn	r2, r9, r3
 1562 0af8 82EA0C02 		eor	r2, r2, ip
 1563 0afc 07F1DD47 		add	r7, r7, #1853882368
 1564 0b00 9244     		add	r10, r10, r2
 1565              	.LVL178:
 1566 0b02 07F5B307 		add	r7, r7, #5865472
 1567 0b06 00EBFA4A 		add	r10, r0, r10, ror #19
 1568              	.LVL179:
 1569 0b0a 07F5D747 		add	r7, r7, #27520
 1570 0b0e 4FEAB353 		ror	r3, r3, #22
 1571              	.LVL180:
 1572              		.loc 1 213 0
 1573 0b12 6AEA0902 		orn	r2, r10, r9
 1574 0b16 2137     		adds	r7, r7, #33
 1575              		.loc 1 212 0
 1576 0b18 08EB7464 		add	r4, r8, r4, ror #25
 1577              	.LVL181:
 1578              		.loc 1 213 0
 1579 0b1c 5A40     		eors	r2, r2, r3
 1580 0b1e 3844     		add	r0, r0, r7
 1581              	.LVL182:
 1582              		.loc 1 212 0
 1583 0b20 4FEAB151 		ror	r1, r1, #22
 1584              	.LVL183:
 1585              		.loc 1 213 0
 1586 0b24 64EA0507 		orn	r7, r4, r5
 1587 0b28 5E44     		add	r6, r6, fp
 1588 0b2a 1044     		add	r0, r0, r2
 1589              	.LVL184:
 1590 0b2c B044     		add	r8, r8, r6
ARM GAS  C:\Users\jo\AppData\Local\Temp\ccdgtuym.s 			page 29


 1591              	.LVL185:
 1592 0b2e 87EA0106 		eor	r6, r7, r1
 1593 0b32 0CEBB067 		add	r7, ip, r0, ror #26
 1594              	.LVL186:
 1595 0b36 4FEAB550 		ror	r0, r5, #22
 1596 0b3a 049D     		ldr	r5, [sp, #16]
 1597              	.LVL187:
 1598 0b3c 059A     		ldr	r2, [sp, #20]
 1599 0b3e 1790     		str	r0, [sp, #92]
 1600 0b40 B044     		add	r8, r8, r6
 1601 0b42 A34E     		ldr	r6, .L20+8
 1602 0b44 05EB0B00 		add	r0, r5, fp
 1603 0b48 0EEB7848 		add	r8, lr, r8, ror #17
 1604 0b4c 9619     		adds	r6, r2, r6
 1605 0b4e 8644     		add	lr, lr, r0
 1606              	.LVL188:
 1607              		.loc 1 214 0
 1608 0b50 1798     		ldr	r0, [sp, #92]
 1609 0b52 0A9D     		ldr	r5, [sp, #40]
 1610 0b54 B444     		add	ip, ip, r6
 1611              	.LVL189:
 1612 0b56 68EA0406 		orn	r6, r8, r4
 1613 0b5a 7040     		eors	r0, r0, r6
 1614 0b5c 9C4E     		ldr	r6, .L20+8
 1615              		.loc 1 213 0
 1616 0b5e 4FEAB959 		ror	r9, r9, #22
 1617              	.LVL190:
 1618              		.loc 1 214 0
 1619 0b62 67EA0A02 		orn	r2, r7, r10
 1620 0b66 82EA0902 		eor	r2, r2, r9
 1621 0b6a AE19     		adds	r6, r5, r6
 1622 0b6c 089D     		ldr	r5, [sp, #32]
 1623 0b6e 9444     		add	ip, ip, r2
 1624              	.LVL191:
 1625 0b70 7044     		add	r0, r0, lr
 1626 0b72 03EB7C6C 		add	ip, r3, ip, ror #25
 1627              	.LVL192:
 1628 0b76 01EB7050 		add	r0, r1, r0, ror #21
 1629 0b7a AE46     		mov	lr, r5
 1630 0b7c 4FEABA5A 		ror	r10, r10, #22
 1631              	.LVL193:
 1632 0b80 0F9D     		ldr	r5, [sp, #60]
 1633              		.loc 1 215 0
 1634 0b82 6CEA0702 		orn	r2, ip, r7
 1635              		.loc 1 214 0
 1636 0b86 4FEAB454 		ror	r4, r4, #22
 1637              	.LVL194:
 1638 0b8a DE44     		add	lr, lr, fp
 1639 0b8c 3344     		add	r3, r3, r6
 1640              	.LVL195:
 1641              		.loc 1 215 0
 1642 0b8e 60EA0806 		orn	r6, r0, r8
 1643 0b92 82EA0A02 		eor	r2, r2, r10
 1644 0b96 7144     		add	r1, r1, lr
 1645              	.LVL196:
 1646 0b98 86EA040E 		eor	lr, r6, r4
 1647 0b9c 1344     		add	r3, r3, r2
ARM GAS  C:\Users\jo\AppData\Local\Temp\ccdgtuym.s 			page 30


 1648              	.LVL197:
 1649 0b9e 7144     		add	r1, r1, lr
 1650 0ba0 05F1DD4E 		add	lr, r5, #1853882368
 1651 0ba4 09EBB346 		add	r6, r9, r3, ror #18
 1652              	.LVL198:
 1653 0ba8 0EF5B30E 		add	lr, lr, #5865472
 1654 0bac 179B     		ldr	r3, [sp, #92]
 1655 0bae 0E9D     		ldr	r5, [sp, #56]
 1656 0bb0 0EF5D74E 		add	lr, lr, #27520
 1657 0bb4 03EB3161 		add	r1, r3, r1, ror #24
 1658 0bb8 4FEAB757 		ror	r7, r7, #22
 1659              	.LVL199:
 1660              		.loc 1 216 0
 1661 0bbc 66EA0C03 		orn	r3, r6, ip
 1662 0bc0 0EF1210E 		add	lr, lr, #33
 1663 0bc4 05EB0B02 		add	r2, r5, fp
 1664 0bc8 7B40     		eors	r3, r3, r7
 1665 0bca 179D     		ldr	r5, [sp, #92]
 1666 0bcc F144     		add	r9, r9, lr
 1667              	.LVL200:
 1668              		.loc 1 215 0
 1669 0bce 4FEAB858 		ror	r8, r8, #22
 1670              	.LVL201:
 1671              		.loc 1 216 0
 1672 0bd2 61EA000E 		orn	lr, r1, r0
 1673 0bd6 9944     		add	r9, r9, r3
 1674              	.LVL202:
 1675 0bd8 099B     		ldr	r3, [sp, #36]
 1676 0bda 8EEA080E 		eor	lr, lr, r8
 1677 0bde 2A44     		add	r2, r2, r5
 1678 0be0 7244     		add	r2, r2, lr
 1679 0be2 03F1DD4E 		add	lr, r3, #1853882368
 1680 0be6 0EF5B30E 		add	lr, lr, #5865472
 1681 0bea 0AEBF955 		add	r5, r10, r9, ror #23
 1682              	.LVL203:
 1683 0bee 079B     		ldr	r3, [sp, #28]
 1684 0bf0 0EF5D74E 		add	lr, lr, #27520
 1685 0bf4 04EBB262 		add	r2, r4, r2, ror #26
 1686 0bf8 4FEABC5C 		ror	ip, ip, #22
 1687              	.LVL204:
 1688              		.loc 1 217 0
 1689 0bfc 65EA0609 		orn	r9, r5, r6
 1690 0c00 0EF1210E 		add	lr, lr, #33
 1691              		.loc 1 216 0
 1692 0c04 4FEAB050 		ror	r0, r0, #22
 1693              	.LVL205:
 1694 0c08 5B44     		add	r3, r3, fp
 1695              		.loc 1 217 0
 1696 0c0a 89EA0C09 		eor	r9, r9, ip
 1697 0c0e F244     		add	r10, r10, lr
 1698              	.LVL206:
 1699 0c10 62EA010E 		orn	lr, r2, r1
 1700 0c14 1C44     		add	r4, r4, r3
 1701              	.LVL207:
 1702 0c16 CA44     		add	r10, r10, r9
 1703              	.LVL208:
 1704 0c18 8EEA0003 		eor	r3, lr, r0
ARM GAS  C:\Users\jo\AppData\Local\Temp\ccdgtuym.s 			page 31


 1705 0c1c 2344     		add	r3, r3, r4
 1706 0c1e 07EBFA4E 		add	lr, r7, r10, ror #19
 1707              	.LVL209:
 1708 0c22 029C     		ldr	r4, [sp, #8]
 1709 0c24 DFF8A8A1 		ldr	r10, .L20+8
 1710 0c28 4FEAB656 		ror	r6, r6, #22
 1711              	.LVL210:
 1712 0c2c A244     		add	r10, r4, r10
 1713              		.loc 1 218 0
 1714 0c2e 6EEA0509 		orn	r9, lr, r5
 1715 0c32 0A9C     		ldr	r4, [sp, #40]
 1716 0c34 89EA0609 		eor	r9, r9, r6
 1717 0c38 5744     		add	r7, r7, r10
 1718              	.LVL211:
 1719 0c3a 4FEAB555 		ror	r5, r5, #22
 1720              	.LVL212:
 1721              		.loc 1 217 0
 1722 0c3e 08EBB363 		add	r3, r8, r3, ror #26
 1723              	.LVL213:
 1724              		.loc 1 218 0
 1725 0c42 4F44     		add	r7, r7, r9
 1726 0c44 1795     		str	r5, [sp, #92]
 1727 0c46 DFF88891 		ldr	r9, .L20+8
 1728 0c4a 039D     		ldr	r5, [sp, #12]
 1729 0c4c 63EA020A 		orn	r10, r3, r2
 1730              		.loc 1 217 0
 1731 0c50 4FEAB151 		ror	r1, r1, #22
 1732              	.LVL214:
 1733 0c54 5C44     		add	r4, r4, fp
 1734 0c56 A044     		add	r8, r8, r4
 1735              	.LVL215:
 1736 0c58 A944     		add	r9, r5, r9
 1737              		.loc 1 218 0
 1738 0c5a 8AEA0104 		eor	r4, r10, r1
 1739 0c5e 0C9D     		ldr	r5, [sp, #48]
 1740 0c60 4444     		add	r4, r4, r8
 1741 0c62 0CEB7747 		add	r7, ip, r7, ror #17
 1742              	.LVL216:
 1743 0c66 00EBB444 		add	r4, r0, r4, ror #18
 1744              	.LVL217:
 1745 0c6a AA46     		mov	r10, r5
 1746              		.loc 1 219 0
 1747 0c6c 179D     		ldr	r5, [sp, #92]
 1748 0c6e 67EA0E08 		orn	r8, r7, lr
 1749              		.loc 1 218 0
 1750 0c72 4FEAB252 		ror	r2, r2, #22
 1751              	.LVL218:
 1752 0c76 DA44     		add	r10, r10, fp
 1753 0c78 CC44     		add	ip, ip, r9
 1754              	.LVL219:
 1755              		.loc 1 219 0
 1756 0c7a 64EA0309 		orn	r9, r4, r3
 1757 0c7e 88EA0508 		eor	r8, r8, r5
 1758 0c82 5044     		add	r0, r0, r10
 1759              	.LVL220:
 1760 0c84 089D     		ldr	r5, [sp, #32]
 1761              	.LVL221:
ARM GAS  C:\Users\jo\AppData\Local\Temp\ccdgtuym.s 			page 32


 1762 0c86 89EA020A 		eor	r10, r9, r2
 1763 0c8a DFF84491 		ldr	r9, .L20+8
 1764 0c8e C444     		add	ip, ip, r8
 1765              	.LVL222:
 1766 0c90 4FEAB353 		ror	r3, r3, #22
 1767              	.LVL223:
 1768 0c94 06EBBC4C 		add	ip, r6, ip, ror #18
 1769              	.LVL224:
 1770 0c98 A944     		add	r9, r5, r9
 1771 0c9a 1D46     		mov	r5, r3
 1772 0c9c 099B     		ldr	r3, [sp, #36]
 1773              		.loc 1 220 0
 1774 0c9e 1895     		str	r5, [sp, #96]
 1775              		.loc 1 219 0
 1776 0ca0 4FEABE5E 		ror	lr, lr, #22
 1777              	.LVL225:
 1778              		.loc 1 220 0
 1779 0ca4 6CEA0708 		orn	r8, ip, r7
 1780 0ca8 88EA0E08 		eor	r8, r8, lr
 1781              		.loc 1 219 0
 1782 0cac 5044     		add	r0, r0, r10
 1783 0cae 4E44     		add	r6, r6, r9
 1784              	.LVL226:
 1785 0cb0 9A46     		mov	r10, r3
 1786              		.loc 1 220 0
 1787 0cb2 179B     		ldr	r3, [sp, #92]
 1788              		.loc 1 219 0
 1789 0cb4 01EB3050 		add	r0, r1, r0, ror #20
 1790              	.LVL227:
 1791              		.loc 1 220 0
 1792 0cb8 4644     		add	r6, r6, r8
 1793              	.LVL228:
 1794 0cba 60EA0409 		orn	r9, r0, r4
 1795 0cbe 03EB3666 		add	r6, r3, r6, ror #24
 1796              	.LVL229:
 1797 0cc2 DA44     		add	r10, r10, fp
 1798 0cc4 109B     		ldr	r3, [sp, #64]
 1799 0cc6 5144     		add	r1, r1, r10
 1800              	.LVL230:
 1801 0cc8 89EA050A 		eor	r10, r9, r5
 1802 0ccc 019D     		ldr	r5, [sp, #4]
 1803              	.LVL231:
 1804 0cce DFF80091 		ldr	r9, .L20+8
 1805 0cd2 5144     		add	r1, r1, r10
 1806 0cd4 9A46     		mov	r10, r3
 1807 0cd6 179B     		ldr	r3, [sp, #92]
 1808 0cd8 02EBF141 		add	r1, r2, r1, ror #19
 1809 0cdc A944     		add	r9, r5, r9
 1810 0cde 4FEAB454 		ror	r4, r4, #22
 1811              	.LVL232:
 1812 0ce2 DA44     		add	r10, r10, fp
 1813 0ce4 4B44     		add	r3, r3, r9
 1814              		.loc 1 221 0
 1815 0ce6 61EA0009 		orn	r9, r1, r0
 1816 0cea 1D46     		mov	r5, r3
 1817 0cec 5244     		add	r2, r2, r10
 1818              	.LVL233:
ARM GAS  C:\Users\jo\AppData\Local\Temp\ccdgtuym.s 			page 33


 1819 0cee 189B     		ldr	r3, [sp, #96]
 1820 0cf0 89EA040A 		eor	r10, r9, r4
 1821 0cf4 5244     		add	r2, r2, r10
 1822 0cf6 03EBF262 		add	r2, r3, r2, ror #27
 1823 0cfa DFF8D490 		ldr	r9, .L20+8
 1824 0cfe 079B     		ldr	r3, [sp, #28]
 1825              		.loc 1 220 0
 1826 0d00 4FEAB757 		ror	r7, r7, #22
 1827              	.LVL234:
 1828              		.loc 1 221 0
 1829 0d04 66EA0C08 		orn	r8, r6, ip
 1830 0d08 88EA0708 		eor	r8, r8, r7
 1831 0d0c 9944     		add	r9, r3, r9
 1832 0d0e 039B     		ldr	r3, [sp, #12]
 1833 0d10 4544     		add	r5, r5, r8
 1834              	.LVL235:
 1835 0d12 0EEBF545 		add	r5, lr, r5, ror #19
 1836              	.LVL236:
 1837 0d16 9A46     		mov	r10, r3
 1838 0d18 189B     		ldr	r3, [sp, #96]
 1839              		.loc 1 222 0
 1840 0d1a 65EA0608 		orn	r8, r5, r6
 1841              		.loc 1 221 0
 1842 0d1e 4FEAB050 		ror	r0, r0, #22
 1843              	.LVL237:
 1844 0d22 DA44     		add	r10, r10, fp
 1845 0d24 CE44     		add	lr, lr, r9
 1846              	.LVL238:
 1847              		.loc 1 222 0
 1848 0d26 4FEAB656 		ror	r6, r6, #22
 1849              	.LVL239:
 1850 0d2a 62EA0109 		orn	r9, r2, r1
 1851 0d2e 1796     		str	r6, [sp, #92]
 1852 0d30 5344     		add	r3, r3, r10
 1853 0d32 0D9E     		ldr	r6, [sp, #52]
 1854 0d34 89EA000A 		eor	r10, r9, r0
 1855 0d38 DFF89490 		ldr	r9, .L20+8
 1856              		.loc 1 221 0
 1857 0d3c 4FEABC5C 		ror	ip, ip, #22
 1858              	.LVL240:
 1859              		.loc 1 222 0
 1860 0d40 88EA0C08 		eor	r8, r8, ip
 1861 0d44 B144     		add	r9, r6, r9
 1862 0d46 0B9E     		ldr	r6, [sp, #44]
 1863 0d48 C644     		add	lr, lr, r8
 1864 0d4a 5344     		add	r3, r3, r10
 1865 0d4c 07EBBE6E 		add	lr, r7, lr, ror #26
 1866              	.LVL241:
 1867 0d50 04EBB343 		add	r3, r4, r3, ror #18
 1868              	.LVL242:
 1869 0d54 B246     		mov	r10, r6
 1870              		.loc 1 223 0
 1871 0d56 179E     		ldr	r6, [sp, #92]
 1872 0d58 6EEA0508 		orn	r8, lr, r5
 1873              		.loc 1 222 0
 1874 0d5c 4FEAB151 		ror	r1, r1, #22
 1875              	.LVL243:
ARM GAS  C:\Users\jo\AppData\Local\Temp\ccdgtuym.s 			page 34


 1876 0d60 DA44     		add	r10, r10, fp
 1877 0d62 4F44     		add	r7, r7, r9
 1878              	.LVL244:
 1879              		.loc 1 223 0
 1880 0d64 63EA0209 		orn	r9, r3, r2
 1881 0d68 88EA0608 		eor	r8, r8, r6
 1882 0d6c 5444     		add	r4, r4, r10
 1883              	.LVL245:
 1884 0d6e 0C9E     		ldr	r6, [sp, #48]
 1885 0d70 89EA010A 		eor	r10, r9, r1
 1886 0d74 DFF85890 		ldr	r9, .L20+8
 1887 0d78 4744     		add	r7, r7, r8
 1888              	.LVL246:
 1889 0d7a B144     		add	r9, r6, r9
 1890 0d7c 019E     		ldr	r6, [sp, #4]
 1891 0d7e 0CEBF767 		add	r7, ip, r7, ror #27
 1892              	.LVL247:
 1893 0d82 5444     		add	r4, r4, r10
 1894 0d84 00EBF444 		add	r4, r0, r4, ror #19
 1895 0d88 4FEAB555 		ror	r5, r5, #22
 1896              	.LVL248:
 1897              		.loc 1 224 0
 1898 0d8c 67EA0E08 		orn	r8, r7, lr
 1899 0d90 B246     		mov	r10, r6
 1900              		.loc 1 223 0
 1901 0d92 4FEAB252 		ror	r2, r2, #22
 1902              	.LVL249:
 1903              		.loc 1 224 0
 1904 0d96 179E     		ldr	r6, [sp, #92]
 1905 0d98 DA44     		add	r10, r10, fp
 1906 0d9a 88EA0508 		eor	r8, r8, r5
 1907 0d9e CC44     		add	ip, ip, r9
 1908              	.LVL250:
 1909 0da0 64EA0309 		orn	r9, r4, r3
 1910 0da4 5044     		add	r0, r0, r10
 1911              	.LVL251:
 1912 0da6 C444     		add	ip, ip, r8
 1913              	.LVL252:
 1914 0da8 89EA020A 		eor	r10, r9, r2
 1915 0dac 06EB3C5C 		add	ip, r6, ip, ror #20
 1916              	.LVL253:
 1917 0db0 5044     		add	r0, r0, r10
 1918 0db2 069E     		ldr	r6, [sp, #24]
 1919 0db4 DFF818A0 		ldr	r10, .L20+8
 1920 0db8 4FEAB353 		ror	r3, r3, #22
 1921              	.LVL254:
 1922 0dbc 1893     		str	r3, [sp, #96]
 1923 0dbe 059B     		ldr	r3, [sp, #20]
 1924 0dc0 B244     		add	r10, r6, r10
 1925 0dc2 179E     		ldr	r6, [sp, #92]
 1926 0dc4 08E0     		b	.L21
 1927              	.L22:
 1928 0dc6 00BF     		.align	2
 1929              	.L20:
 1930 0dc8 9979825A 		.word	1518500249
 1931 0dcc 24D14D5C 		.word	1548603684
 1932 0dd0 A1EBD96E 		.word	1859775393
ARM GAS  C:\Users\jo\AppData\Local\Temp\ccdgtuym.s 			page 35


 1933 0dd4 F33E706D 		.word	1836072691
 1934              	.L21:
 1935 0dd8 01EBF040 		add	r0, r1, r0, ror #19
 1936 0ddc D846     		mov	r8, fp
 1937 0dde 9B46     		mov	fp, r3
 1938              		.loc 1 225 0
 1939 0de0 189B     		ldr	r3, [sp, #96]
 1940 0de2 C344     		add	fp, fp, r8
 1941 0de4 5644     		add	r6, r6, r10
 1942 0de6 60EA040A 		orn	r10, r0, r4
 1943              		.loc 1 224 0
 1944 0dea 4FEABE5E 		ror	lr, lr, #22
 1945              	.LVL255:
 1946              		.loc 1 225 0
 1947 0dee 6CEA0709 		orn	r9, ip, r7
 1948 0df2 5944     		add	r1, r1, fp
 1949              	.LVL256:
 1950 0df4 8AEA030B 		eor	fp, r10, r3
 1951 0df8 109B     		ldr	r3, [sp, #64]
 1952              	.LVL257:
 1953 0dfa 89EA0E09 		eor	r9, r9, lr
 1954 0dfe 4E44     		add	r6, r6, r9
 1955              	.LVL258:
 1956 0e00 5944     		add	r1, r1, fp
 1957 0e02 03F1DD49 		add	r9, r3, #1853882368
 1958 0e06 0D9B     		ldr	r3, [sp, #52]
 1959 0e08 02EB7161 		add	r1, r2, r1, ror #25
 1960 0e0c 9844     		add	r8, r8, r3
 1961 0e0e 4FEAB454 		ror	r4, r4, #22
 1962              	.LVL259:
 1963              		.loc 1 226 0
 1964 0e12 61EA000B 		orn	fp, r1, r0
 1965 0e16 189B     		ldr	r3, [sp, #96]
 1966 0e18 8BEA040B 		eor	fp, fp, r4
 1967 0e1c 4244     		add	r2, r2, r8
 1968              	.LVL260:
 1969 0e1e 5A44     		add	r2, r2, fp
 1970 0e20 03EBF262 		add	r2, r3, r2, ror #27
 1971 0e24 029B     		ldr	r3, [sp, #8]
 1972 0e26 09F5B309 		add	r9, r9, #5865472
 1973              		.loc 1 225 0
 1974 0e2a 05EB7666 		add	r6, r5, r6, ror #25
 1975              	.LVL261:
 1976 0e2e 03F10F48 		add	r8, r3, #-1895825408
 1977 0e32 09F5D749 		add	r9, r9, #27520
 1978 0e36 4FEAB757 		ror	r7, r7, #22
 1979              	.LVL262:
 1980              		.loc 1 226 0
 1981 0e3a 66EA0C0A 		orn	r10, r6, ip
 1982 0e3e 09F12109 		add	r9, r9, #33
 1983 0e42 08F5DD18 		add	r8, r8, #1810432
 1984 0e46 099B     		ldr	r3, [sp, #36]
 1985 0e48 8AEA070A 		eor	r10, r10, r7
 1986 0e4c 4D44     		add	r5, r5, r9
 1987              	.LVL263:
 1988 0e4e 08F5E658 		add	r8, r8, #7360
 1989 0e52 5544     		add	r5, r5, r10
ARM GAS  C:\Users\jo\AppData\Local\Temp\ccdgtuym.s 			page 36


 1990              	.LVL264:
 1991 0e54 08F11C08 		add	r8, r8, #28
 1992 0e58 DFF8ACA6 		ldr	r10, .L23+8
 1993 0e5c 0EEBF565 		add	r5, lr, r5, ror #27
 1994              	.LVL265:
 1995 0e60 C644     		add	lr, lr, r8
 1996              	.LVL266:
 1997 0e62 9846     		mov	r8, r3
 1998 0e64 189B     		ldr	r3, [sp, #96]
 1999 0e66 4FEABC5C 		ror	ip, ip, #22
 2000              	.LVL267:
 2001 0e6a D044     		add	r8, r8, r10
 2002              		.loc 1 236 0
 2003 0e6c 05EA0C0B 		and	fp, r5, ip
 2004              		.loc 1 226 0
 2005 0e70 4FEAB050 		ror	r0, r0, #22
 2006              	.LVL268:
 2007              		.loc 1 236 0
 2008 0e74 26EA0C09 		bic	r9, r6, ip
 2009 0e78 4344     		add	r3, r3, r8
 2010 0e7a 02EA0108 		and	r8, r2, r1
 2011 0e7e 4FEAB151 		ror	r1, r1, #22
 2012              	.LVL269:
 2013 0e82 4BEA0909 		orr	r9, fp, r9
 2014 0e86 1791     		str	r1, [sp, #92]
 2015 0e88 20EA020B 		bic	fp, r0, r2
 2016 0e8c 0A99     		ldr	r1, [sp, #40]
 2017 0e8e 4BEA0808 		orr	r8, fp, r8
 2018 0e92 4344     		add	r3, r3, r8
 2019 0e94 01F10F48 		add	r8, r1, #-1895825408
 2020 0e98 08F5DD18 		add	r8, r8, #1810432
 2021 0e9c 0799     		ldr	r1, [sp, #28]
 2022 0e9e 08F5E658 		add	r8, r8, #7360
 2023 0ea2 CE44     		add	lr, lr, r9
 2024              	.LVL270:
 2025 0ea4 08F11C08 		add	r8, r8, #28
 2026 0ea8 07EB7E5E 		add	lr, r7, lr, ror #21
 2027              	.LVL271:
 2028 0eac 4FEAB656 		ror	r6, r6, #22
 2029              	.LVL272:
 2030 0eb0 4744     		add	r7, r7, r8
 2031              	.LVL273:
 2032 0eb2 8846     		mov	r8, r1
 2033              		.loc 1 237 0
 2034 0eb4 1799     		ldr	r1, [sp, #92]
 2035              		.loc 1 236 0
 2036 0eb6 04EB7343 		add	r3, r4, r3, ror #17
 2037              	.LVL274:
 2038              		.loc 1 237 0
 2039 0eba 0EEA060B 		and	fp, lr, r6
 2040 0ebe 25EA0609 		bic	r9, r5, r6
 2041 0ec2 D044     		add	r8, r8, r10
 2042 0ec4 4BEA0909 		orr	r9, fp, r9
 2043 0ec8 4444     		add	r4, r4, r8
 2044              	.LVL275:
 2045 0eca 21EA030B 		bic	fp, r1, r3
 2046 0ece 03EA0208 		and	r8, r3, r2
ARM GAS  C:\Users\jo\AppData\Local\Temp\ccdgtuym.s 			page 37


 2047 0ed2 0C99     		ldr	r1, [sp, #48]
 2048 0ed4 4BEA0808 		orr	r8, fp, r8
 2049 0ed8 4444     		add	r4, r4, r8
 2050 0eda 01F10F48 		add	r8, r1, #-1895825408
 2051 0ede 08F5DD18 		add	r8, r8, #1810432
 2052 0ee2 0599     		ldr	r1, [sp, #20]
 2053 0ee4 08F5E658 		add	r8, r8, #7360
 2054 0ee8 4F44     		add	r7, r7, r9
 2055              	.LVL276:
 2056 0eea 08F11C08 		add	r8, r8, #28
 2057 0eee 0CEB3757 		add	r7, ip, r7, ror #20
 2058              	.LVL277:
 2059 0ef2 4FEAB555 		ror	r5, r5, #22
 2060              	.LVL278:
 2061 0ef6 C444     		add	ip, ip, r8
 2062              	.LVL279:
 2063 0ef8 8846     		mov	r8, r1
 2064 0efa 00EBF464 		add	r4, r0, r4, ror #27
 2065              	.LVL280:
 2066              		.loc 1 238 0
 2067 0efe 07EA050B 		and	fp, r7, r5
 2068              		.loc 1 237 0
 2069 0f02 4FEAB252 		ror	r2, r2, #22
 2070              	.LVL281:
 2071              		.loc 1 238 0
 2072 0f06 2EEA0509 		bic	r9, lr, r5
 2073 0f0a D044     		add	r8, r8, r10
 2074 0f0c 4BEA0909 		orr	r9, fp, r9
 2075 0f10 4044     		add	r0, r0, r8
 2076              	.LVL282:
 2077 0f12 22EA040B 		bic	fp, r2, r4
 2078 0f16 04EA0308 		and	r8, r4, r3
 2079 0f1a 1799     		ldr	r1, [sp, #92]
 2080 0f1c 4BEA0808 		orr	r8, fp, r8
 2081 0f20 4044     		add	r0, r0, r8
 2082 0f22 01EB3060 		add	r0, r1, r0, ror #24
 2083 0f26 0B99     		ldr	r1, [sp, #44]
 2084 0f28 01F10F48 		add	r8, r1, #-1895825408
 2085 0f2c 4FEAB353 		ror	r3, r3, #22
 2086              	.LVL283:
 2087 0f30 08F5DD18 		add	r8, r8, #1810432
 2088 0f34 1893     		str	r3, [sp, #96]
 2089 0f36 08F5E658 		add	r8, r8, #7360
 2090 0f3a 029B     		ldr	r3, [sp, #8]
 2091 0f3c 1799     		ldr	r1, [sp, #92]
 2092 0f3e CC44     		add	ip, ip, r9
 2093              	.LVL284:
 2094 0f40 08F11C08 		add	r8, r8, #28
 2095 0f44 06EBBC4C 		add	ip, r6, ip, ror #18
 2096              	.LVL285:
 2097 0f48 4FEABE5E 		ror	lr, lr, #22
 2098              	.LVL286:
 2099 0f4c 4644     		add	r6, r6, r8
 2100              	.LVL287:
 2101 0f4e 9846     		mov	r8, r3
 2102              		.loc 1 239 0
 2103 0f50 189B     		ldr	r3, [sp, #96]
ARM GAS  C:\Users\jo\AppData\Local\Temp\ccdgtuym.s 			page 38


 2104 0f52 0CEA0E0B 		and	fp, ip, lr
 2105 0f56 27EA0E09 		bic	r9, r7, lr
 2106 0f5a D044     		add	r8, r8, r10
 2107 0f5c 4BEA0909 		orr	r9, fp, r9
 2108 0f60 23EA000B 		bic	fp, r3, r0
 2109 0f64 4FEAB453 		ror	r3, r4, #22
 2110 0f68 4144     		add	r1, r1, r8
 2111 0f6a 00EA0408 		and	r8, r0, r4
 2112 0f6e 1C46     		mov	r4, r3
 2113              	.LVL288:
 2114 0f70 019B     		ldr	r3, [sp, #4]
 2115              		.loc 1 241 0
 2116 0f72 1794     		str	r4, [sp, #92]
 2117              		.loc 1 239 0
 2118 0f74 4BEA0808 		orr	r8, fp, r8
 2119 0f78 4144     		add	r1, r1, r8
 2120 0f7a 03F10F48 		add	r8, r3, #-1895825408
 2121 0f7e 08F5DD18 		add	r8, r8, #1810432
 2122 0f82 049B     		ldr	r3, [sp, #16]
 2123 0f84 08F5E658 		add	r8, r8, #7360
 2124 0f88 4E44     		add	r6, r6, r9
 2125              	.LVL289:
 2126 0f8a 08F11C08 		add	r8, r8, #28
 2127 0f8e 05EB7646 		add	r6, r5, r6, ror #17
 2128              	.LVL290:
 2129 0f92 4FEAB757 		ror	r7, r7, #22
 2130              	.LVL291:
 2131 0f96 4544     		add	r5, r5, r8
 2132              	.LVL292:
 2133 0f98 9846     		mov	r8, r3
 2134 0f9a 02EB7151 		add	r1, r2, r1, ror #21
 2135              	.LVL293:
 2136              		.loc 1 240 0
 2137 0f9e 06EA070B 		and	fp, r6, r7
 2138 0fa2 2CEA0709 		bic	r9, ip, r7
 2139 0fa6 D044     		add	r8, r8, r10
 2140 0fa8 4BEA0909 		orr	r9, fp, r9
 2141 0fac 4244     		add	r2, r2, r8
 2142              	.LVL294:
 2143 0fae 24EA010B 		bic	fp, r4, r1
 2144 0fb2 01EA0008 		and	r8, r1, r0
 2145 0fb6 189B     		ldr	r3, [sp, #96]
 2146 0fb8 4BEA0808 		orr	r8, fp, r8
 2147 0fbc 4244     		add	r2, r2, r8
 2148 0fbe 03EBB242 		add	r2, r3, r2, ror #18
 2149 0fc2 099B     		ldr	r3, [sp, #36]
 2150 0fc4 03F10F48 		add	r8, r3, #-1895825408
 2151 0fc8 08F5DD18 		add	r8, r8, #1810432
 2152 0fcc 0C9B     		ldr	r3, [sp, #48]
 2153 0fce 08F5E658 		add	r8, r8, #7360
 2154 0fd2 4D44     		add	r5, r5, r9
 2155              	.LVL295:
 2156 0fd4 08F11C08 		add	r8, r8, #28
 2157 0fd8 0EEBB545 		add	r5, lr, r5, ror #18
 2158              	.LVL296:
 2159 0fdc 4FEABC5C 		ror	ip, ip, #22
 2160              	.LVL297:
ARM GAS  C:\Users\jo\AppData\Local\Temp\ccdgtuym.s 			page 39


 2161 0fe0 C644     		add	lr, lr, r8
 2162              	.LVL298:
 2163 0fe2 9846     		mov	r8, r3
 2164 0fe4 189B     		ldr	r3, [sp, #96]
 2165              		.loc 1 241 0
 2166 0fe6 05EA0C0B 		and	fp, r5, ip
 2167              		.loc 1 240 0
 2168 0fea 4FEAB050 		ror	r0, r0, #22
 2169              	.LVL299:
 2170              		.loc 1 241 0
 2171 0fee 26EA0C09 		bic	r9, r6, ip
 2172 0ff2 D044     		add	r8, r8, r10
 2173 0ff4 4BEA0909 		orr	r9, fp, r9
 2174 0ff8 4344     		add	r3, r3, r8
 2175 0ffa 20EA020B 		bic	fp, r0, r2
 2176 0ffe 02EA0108 		and	r8, r2, r1
 2177 1002 4BEA0808 		orr	r8, fp, r8
 2178 1006 4344     		add	r3, r3, r8
 2179 1008 04EBB343 		add	r3, r4, r3, ror #18
 2180 100c DFF8F084 		ldr	r8, .L23
 2181 1010 109C     		ldr	r4, [sp, #64]
 2182              	.LVL300:
 2183 1012 CE44     		add	lr, lr, r9
 2184              	.LVL301:
 2185 1014 A044     		add	r8, r4, r8
 2186 1016 07EB7E4E 		add	lr, r7, lr, ror #17
 2187              	.LVL302:
 2188 101a 4744     		add	r7, r7, r8
 2189              	.LVL303:
 2190 101c 1897     		str	r7, [sp, #96]
 2191              	.LVL304:
 2192 101e 0F9F     		ldr	r7, [sp, #60]
 2193 1020 179C     		ldr	r4, [sp, #92]
 2194 1022 4FEAB656 		ror	r6, r6, #22
 2195              	.LVL305:
 2196 1026 07EB0A08 		add	r8, r7, r10
 2197              		.loc 1 242 0
 2198 102a 0EEA060B 		and	fp, lr, r6
 2199              		.loc 1 241 0
 2200 102e 4FEAB151 		ror	r1, r1, #22
 2201              	.LVL306:
 2202              		.loc 1 242 0
 2203 1032 25EA0609 		bic	r9, r5, r6
 2204 1036 4444     		add	r4, r4, r8
 2205 1038 03EA0208 		and	r8, r3, r2
 2206 103c 4FEAB252 		ror	r2, r2, #22
 2207              	.LVL307:
 2208 1040 1792     		str	r2, [sp, #92]
 2209              	.LVL308:
 2210 1042 4BEA0909 		orr	r9, fp, r9
 2211 1046 059A     		ldr	r2, [sp, #20]
 2212 1048 189F     		ldr	r7, [sp, #96]
 2213 104a 21EA030B 		bic	fp, r1, r3
 2214 104e 4BEA0808 		orr	r8, fp, r8
 2215 1052 4444     		add	r4, r4, r8
 2216 1054 02F10F48 		add	r8, r2, #-1895825408
 2217 1058 08F5DD18 		add	r8, r8, #1810432
ARM GAS  C:\Users\jo\AppData\Local\Temp\ccdgtuym.s 			page 40


 2218 105c 019A     		ldr	r2, [sp, #4]
 2219 105e 08F5E658 		add	r8, r8, #7360
 2220 1062 4F44     		add	r7, r7, r9
 2221              	.LVL309:
 2222 1064 08F11C08 		add	r8, r8, #28
 2223 1068 0CEBF757 		add	r7, ip, r7, ror #23
 2224              	.LVL310:
 2225 106c 4FEAB555 		ror	r5, r5, #22
 2226              	.LVL311:
 2227 1070 C444     		add	ip, ip, r8
 2228              	.LVL312:
 2229 1072 9046     		mov	r8, r2
 2230              		.loc 1 243 0
 2231 1074 179A     		ldr	r2, [sp, #92]
 2232              		.loc 1 242 0
 2233 1076 00EBB464 		add	r4, r0, r4, ror #26
 2234              	.LVL313:
 2235              		.loc 1 243 0
 2236 107a 07EA050B 		and	fp, r7, r5
 2237 107e 2EEA0509 		bic	r9, lr, r5
 2238 1082 D044     		add	r8, r8, r10
 2239 1084 4BEA0909 		orr	r9, fp, r9
 2240 1088 4044     		add	r0, r0, r8
 2241              	.LVL314:
 2242 108a 22EA040B 		bic	fp, r2, r4
 2243 108e 04EA0308 		and	r8, r4, r3
 2244 1092 0D9A     		ldr	r2, [sp, #52]
 2245              	.LVL315:
 2246 1094 4BEA0808 		orr	r8, fp, r8
 2247 1098 4044     		add	r0, r0, r8
 2248 109a 02F10F48 		add	r8, r2, #-1895825408
 2249 109e 08F5DD18 		add	r8, r8, #1810432
 2250 10a2 069A     		ldr	r2, [sp, #24]
 2251 10a4 08F5E658 		add	r8, r8, #7360
 2252 10a8 CC44     		add	ip, ip, r9
 2253              	.LVL316:
 2254 10aa 08F11C08 		add	r8, r8, #28
 2255 10ae 06EB3C6C 		add	ip, r6, ip, ror #24
 2256              	.LVL317:
 2257 10b2 4644     		add	r6, r6, r8
 2258              	.LVL318:
 2259 10b4 9046     		mov	r8, r2
 2260 10b6 01EBB040 		add	r0, r1, r0, ror #18
 2261 10ba 4FEABE5E 		ror	lr, lr, #22
 2262              	.LVL319:
 2263 10be D044     		add	r8, r8, r10
 2264              		.loc 1 244 0
 2265 10c0 0CEA0E0B 		and	fp, ip, lr
 2266              		.loc 1 243 0
 2267 10c4 4FEAB353 		ror	r3, r3, #22
 2268              	.LVL320:
 2269              		.loc 1 244 0
 2270 10c8 27EA0E09 		bic	r9, r7, lr
 2271 10cc 4144     		add	r1, r1, r8
 2272              	.LVL321:
 2273 10ce 00EA0408 		and	r8, r0, r4
 2274 10d2 4FEAB454 		ror	r4, r4, #22
ARM GAS  C:\Users\jo\AppData\Local\Temp\ccdgtuym.s 			page 41


 2275              	.LVL322:
 2276 10d6 4BEA0909 		orr	r9, fp, r9
 2277 10da 1894     		str	r4, [sp, #96]
 2278 10dc 23EA000B 		bic	fp, r3, r0
 2279 10e0 049C     		ldr	r4, [sp, #16]
 2280 10e2 179A     		ldr	r2, [sp, #92]
 2281 10e4 4BEA0808 		orr	r8, fp, r8
 2282 10e8 4144     		add	r1, r1, r8
 2283 10ea 04F10F48 		add	r8, r4, #-1895825408
 2284 10ee 08F5DD18 		add	r8, r8, #1810432
 2285 10f2 109C     		ldr	r4, [sp, #64]
 2286 10f4 08F5E658 		add	r8, r8, #7360
 2287 10f8 4E44     		add	r6, r6, r9
 2288              	.LVL323:
 2289 10fa 08F11C08 		add	r8, r8, #28
 2290 10fe 05EBF656 		add	r6, r5, r6, ror #23
 2291              	.LVL324:
 2292 1102 4FEAB757 		ror	r7, r7, #22
 2293              	.LVL325:
 2294 1106 4544     		add	r5, r5, r8
 2295              	.LVL326:
 2296 1108 A046     		mov	r8, r4
 2297              		.loc 1 245 0
 2298 110a 189C     		ldr	r4, [sp, #96]
 2299              		.loc 1 244 0
 2300 110c 02EBB161 		add	r1, r2, r1, ror #26
 2301              	.LVL327:
 2302              		.loc 1 245 0
 2303 1110 06EA070B 		and	fp, r6, r7
 2304 1114 2CEA0709 		bic	r9, ip, r7
 2305 1118 D044     		add	r8, r8, r10
 2306 111a 4BEA0909 		orr	r9, fp, r9
 2307 111e 4244     		add	r2, r2, r8
 2308 1120 24EA010B 		bic	fp, r4, r1
 2309 1124 01EA0008 		and	r8, r1, r0
 2310 1128 089C     		ldr	r4, [sp, #32]
 2311 112a 4BEA0808 		orr	r8, fp, r8
 2312 112e 4244     		add	r2, r2, r8
 2313 1130 04F10F48 		add	r8, r4, #-1895825408
 2314 1134 08F5DD18 		add	r8, r8, #1810432
 2315 1138 039C     		ldr	r4, [sp, #12]
 2316 113a 08F5E658 		add	r8, r8, #7360
 2317 113e 4D44     		add	r5, r5, r9
 2318              	.LVL328:
 2319 1140 08F11C08 		add	r8, r8, #28
 2320 1144 0EEBB545 		add	r5, lr, r5, ror #18
 2321              	.LVL329:
 2322 1148 4FEABC5C 		ror	ip, ip, #22
 2323              	.LVL330:
 2324 114c C644     		add	lr, lr, r8
 2325              	.LVL331:
 2326 114e A046     		mov	r8, r4
 2327 1150 03EBF252 		add	r2, r3, r2, ror #23
 2328              	.LVL332:
 2329              		.loc 1 246 0
 2330 1154 05EA0C09 		and	r9, r5, ip
 2331              		.loc 1 245 0
ARM GAS  C:\Users\jo\AppData\Local\Temp\ccdgtuym.s 			page 42


 2332 1158 4FEAB050 		ror	r0, r0, #22
 2333              	.LVL333:
 2334              		.loc 1 246 0
 2335 115c 26EA0C0B 		bic	fp, r6, ip
 2336 1160 D044     		add	r8, r8, r10
 2337 1162 49EA0B0B 		orr	fp, r9, fp
 2338 1166 4344     		add	r3, r3, r8
 2339              	.LVL334:
 2340 1168 02EA0109 		and	r9, r2, r1
 2341 116c 20EA0208 		bic	r8, r0, r2
 2342 1170 48EA0908 		orr	r8, r8, r9
 2343 1174 9844     		add	r8, r8, r3
 2344 1176 189B     		ldr	r3, [sp, #96]
 2345 1178 0F9C     		ldr	r4, [sp, #60]
 2346 117a 03EB3858 		add	r8, r3, r8, ror #20
 2347 117e E04B     		ldr	r3, .L23
 2348 1180 E318     		adds	r3, r4, r3
 2349 1182 0D9C     		ldr	r4, [sp, #52]
 2350 1184 DE44     		add	lr, lr, fp
 2351              	.LVL335:
 2352 1186 07EBFE6E 		add	lr, r7, lr, ror #27
 2353              	.LVL336:
 2354 118a 4FEAB656 		ror	r6, r6, #22
 2355              	.LVL337:
 2356 118e 1F44     		add	r7, r7, r3
 2357              	.LVL338:
 2358 1190 04EB0A03 		add	r3, r4, r10
 2359 1194 189C     		ldr	r4, [sp, #96]
 2360              		.loc 1 247 0
 2361 1196 0EEA060B 		and	fp, lr, r6
 2362              		.loc 1 246 0
 2363 119a 4FEAB151 		ror	r1, r1, #22
 2364              	.LVL339:
 2365              		.loc 1 247 0
 2366 119e 25EA0609 		bic	r9, r5, r6
 2367 11a2 4BEA0909 		orr	r9, fp, r9
 2368 11a6 1C44     		add	r4, r4, r3
 2369 11a8 21EA080B 		bic	fp, r1, r8
 2370 11ac 08EA0203 		and	r3, r8, r2
 2371 11b0 4BEA0303 		orr	r3, fp, r3
 2372 11b4 1C44     		add	r4, r4, r3
 2373 11b6 0E9B     		ldr	r3, [sp, #56]
 2374 11b8 4F44     		add	r7, r7, r9
 2375              	.LVL340:
 2376 11ba 9946     		mov	r9, r3
 2377 11bc D04B     		ldr	r3, .L23
 2378 11be 4B44     		add	r3, r9, r3
 2379 11c0 0CEBB767 		add	r7, ip, r7, ror #26
 2380              	.LVL341:
 2381 11c4 9C44     		add	ip, ip, r3
 2382              	.LVL342:
 2383 11c6 0A9B     		ldr	r3, [sp, #40]
 2384 11c8 4FEAB555 		ror	r5, r5, #22
 2385              	.LVL343:
 2386 11cc 00EBF454 		add	r4, r0, r4, ror #23
 2387              	.LVL344:
 2388              		.loc 1 248 0
ARM GAS  C:\Users\jo\AppData\Local\Temp\ccdgtuym.s 			page 43


 2389 11d0 07EA050B 		and	fp, r7, r5
 2390              		.loc 1 247 0
 2391 11d4 4FEAB252 		ror	r2, r2, #22
 2392              	.LVL345:
 2393              		.loc 1 248 0
 2394 11d8 2EEA0509 		bic	r9, lr, r5
 2395 11dc 5344     		add	r3, r3, r10
 2396 11de 4BEA0909 		orr	r9, fp, r9
 2397 11e2 1844     		add	r0, r0, r3
 2398              	.LVL346:
 2399 11e4 22EA040B 		bic	fp, r2, r4
 2400 11e8 04EA0803 		and	r3, r4, r8
 2401 11ec 4BEA0303 		orr	r3, fp, r3
 2402 11f0 1844     		add	r0, r0, r3
 2403 11f2 069B     		ldr	r3, [sp, #24]
 2404 11f4 4FEAB858 		ror	r8, r8, #22
 2405              	.LVL347:
 2406 11f8 CDF85C80 		str	r8, [sp, #92]
 2407 11fc 9846     		mov	r8, r3
 2408 11fe C04B     		ldr	r3, .L23
 2409 1200 CC44     		add	ip, ip, r9
 2410              	.LVL348:
 2411 1202 4344     		add	r3, r8, r3
 2412 1204 06EB3C6C 		add	ip, r6, ip, ror #24
 2413              	.LVL349:
 2414 1208 1E44     		add	r6, r6, r3
 2415              	.LVL350:
 2416 120a 089B     		ldr	r3, [sp, #32]
 2417 120c 5344     		add	r3, r3, r10
 2418 120e 4FEABE5E 		ror	lr, lr, #22
 2419              	.LVL351:
 2420 1212 01EB3050 		add	r0, r1, r0, ror #20
 2421              	.LVL352:
 2422 1216 1944     		add	r1, r1, r3
 2423              	.LVL353:
 2424              		.loc 1 249 0
 2425 1218 179B     		ldr	r3, [sp, #92]
 2426 121a 0CEA0E09 		and	r9, ip, lr
 2427 121e 27EA0E08 		bic	r8, r7, lr
 2428 1222 49EA0808 		orr	r8, r9, r8
 2429 1226 23EA0009 		bic	r9, r3, r0
 2430 122a 00EA0403 		and	r3, r0, r4
 2431 122e 49EA0303 		orr	r3, r9, r3
 2432 1232 4FEAB459 		ror	r9, r4, #22
 2433 1236 079C     		ldr	r4, [sp, #28]
 2434              	.LVL354:
 2435 1238 4644     		add	r6, r6, r8
 2436              	.LVL355:
 2437 123a 04F10F48 		add	r8, r4, #-1895825408
 2438 123e 08F5DD18 		add	r8, r8, #1810432
 2439 1242 1944     		add	r1, r1, r3
 2440 1244 08F5E658 		add	r8, r8, #7360
 2441 1248 05EBB663 		add	r3, r5, r6, ror #26
 2442              	.LVL356:
 2443 124c 0B9E     		ldr	r6, [sp, #44]
 2444              		.loc 1 250 0
 2445 124e 1893     		str	r3, [sp, #96]
ARM GAS  C:\Users\jo\AppData\Local\Temp\ccdgtuym.s 			page 44


 2446              		.loc 1 249 0
 2447 1250 4FEAB757 		ror	r7, r7, #22
 2448              	.LVL357:
 2449 1254 08F11C08 		add	r8, r8, #28
 2450              		.loc 1 250 0
 2451 1258 1C46     		mov	r4, r3
 2452              		.loc 1 249 0
 2453 125a 02EBF161 		add	r1, r2, r1, ror #27
 2454              	.LVL358:
 2455              		.loc 1 250 0
 2456 125e 3C40     		ands	r4, r4, r7
 2457 1260 2CEA0703 		bic	r3, ip, r7
 2458              	.LVL359:
 2459 1264 4544     		add	r5, r5, r8
 2460              	.LVL360:
 2461 1266 B046     		mov	r8, r6
 2462 1268 D044     		add	r8, r8, r10
 2463 126a 2343     		orrs	r3, r3, r4
 2464 126c 01EA000B 		and	fp, r1, r0
 2465 1270 29EA0104 		bic	r4, r9, r1
 2466 1274 179E     		ldr	r6, [sp, #92]
 2467 1276 44EA0B0B 		orr	fp, r4, fp
 2468 127a 1D44     		add	r5, r5, r3
 2469              	.LVL361:
 2470 127c 4244     		add	r2, r2, r8
 2471              	.LVL362:
 2472 127e 0EEBF564 		add	r4, lr, r5, ror #27
 2473 1282 5A44     		add	r2, r2, fp
 2474 1284 06EB7242 		add	r2, r6, r2, ror #17
 2475 1288 2546     		mov	r5, r4
 2476              	.LVL363:
 2477              		.loc 1 251 0
 2478 128a 189E     		ldr	r6, [sp, #96]
 2479 128c 039C     		ldr	r4, [sp, #12]
 2480              	.LVL364:
 2481 128e 9C4B     		ldr	r3, .L23
 2482 1290 1995     		str	r5, [sp, #100]
 2483              		.loc 1 250 0
 2484 1292 4FEABC5C 		ror	ip, ip, #22
 2485              	.LVL365:
 2486              		.loc 1 251 0
 2487 1296 05EA0C0B 		and	fp, r5, ip
 2488 129a E318     		adds	r3, r4, r3
 2489 129c 0E9D     		ldr	r5, [sp, #56]
 2490              	.LVL366:
 2491 129e 26EA0C04 		bic	r4, r6, ip
 2492 12a2 7344     		add	r3, r3, lr
 2493 12a4 4BEA0404 		orr	r4, fp, r4
 2494 12a8 179E     		ldr	r6, [sp, #92]
 2495              		.loc 1 250 0
 2496 12aa 4FEAB050 		ror	r0, r0, #22
 2497              	.LVL367:
 2498 12ae A846     		mov	r8, r5
 2499              		.loc 1 251 0
 2500 12b0 1C44     		add	r4, r4, r3
 2501              	.LVL368:
 2502 12b2 189B     		ldr	r3, [sp, #96]
ARM GAS  C:\Users\jo\AppData\Local\Temp\ccdgtuym.s 			page 45


 2503 12b4 059D     		ldr	r5, [sp, #20]
 2504 12b6 20EA020E 		bic	lr, r0, r2
 2505 12ba D044     		add	r8, r8, r10
 2506 12bc 02EA010A 		and	r10, r2, r1
 2507 12c0 4EEA0A0A 		orr	r10, lr, r10
 2508 12c4 B044     		add	r8, r8, r6
 2509 12c6 4FEAB356 		ror	r6, r3, #22
 2510              		.loc 1 261 0
 2511 12ca 199B     		ldr	r3, [sp, #100]
 2512              		.loc 1 251 0
 2513 12cc 4FEAB151 		ror	r1, r1, #22
 2514              	.LVL369:
 2515 12d0 D044     		add	r8, r8, r10
 2516 12d2 A5F1AD4E 		sub	lr, r5, #1451229184
 2517 12d6 109D     		ldr	r5, [sp, #64]
 2518 12d8 09EB3868 		add	r8, r9, r8, ror #24
 2519              		.loc 1 261 0
 2520 12dc 63EA060B 		orn	fp, r3, r6
 2521 12e0 82EA0103 		eor	r3, r2, r1
 2522 12e4 83EA0803 		eor	r3, r3, r8
 2523 12e8 A944     		add	r9, r9, r5
 2524              	.LVL370:
 2525 12ea 9944     		add	r9, r9, r3
 2526 12ec AEF5301E 		sub	lr, lr, #2883584
 2527 12f0 019B     		ldr	r3, [sp, #4]
 2528 12f2 199D     		ldr	r5, [sp, #100]
 2529 12f4 AEF2B22E 		subw	lr, lr, #690
 2530              		.loc 1 251 0
 2531 12f8 07EB3454 		add	r4, r7, r4, ror #20
 2532              	.LVL371:
 2533 12fc 7744     		add	r7, r7, lr
 2534              	.LVL372:
 2535 12fe 9E46     		mov	lr, r3
 2536 1300 804B     		ldr	r3, .L23+4
 2537              		.loc 1 261 0
 2538 1302 84EA0B0B 		eor	fp, r4, fp
 2539 1306 7344     		add	r3, lr, r3
 2540 1308 5F44     		add	r7, r7, fp
 2541              	.LVL373:
 2542 130a 0CEBF757 		add	r7, ip, r7, ror #23
 2543              	.LVL374:
 2544 130e 9C44     		add	ip, ip, r3
 2545              	.LVL375:
 2546 1310 0F9B     		ldr	r3, [sp, #60]
 2547 1312 4FEAB252 		ror	r2, r2, #22
 2548              	.LVL376:
 2549 1316 00EB3969 		add	r9, r0, r9, ror #24
 2550 131a 88EA020E 		eor	lr, r8, r2
 2551 131e 1844     		add	r0, r0, r3
 2552              	.LVL377:
 2553 1320 069B     		ldr	r3, [sp, #24]
 2554 1322 4FEAB555 		ror	r5, r5, #22
 2555              	.LVL378:
 2556              		.loc 1 262 0
 2557 1326 8EEA090E 		eor	lr, lr, r9
 2558 132a 64EA050A 		orn	r10, r4, r5
 2559 132e 7044     		add	r0, r0, lr
ARM GAS  C:\Users\jo\AppData\Local\Temp\ccdgtuym.s 			page 46


 2560 1330 A3F1AD4E 		sub	lr, r3, #1451229184
 2561 1334 87EA0A0A 		eor	r10, r7, r10
 2562 1338 AEF5301E 		sub	lr, lr, #2883584
 2563 133c 4FEAB454 		ror	r4, r4, #22
 2564              	.LVL379:
 2565 1340 D444     		add	ip, ip, r10
 2566              	.LVL380:
 2567 1342 AEF2B22E 		subw	lr, lr, #690
 2568 1346 06EB7C4C 		add	ip, r6, ip, ror #17
 2569              	.LVL381:
 2570 134a 4FEAB85A 		ror	r10, r8, #22
 2571              		.loc 1 263 0
 2572 134e 67EA0403 		orn	r3, r7, r4
 2573 1352 06EB0E08 		add	r8, r6, lr
 2574              	.LVL382:
 2575 1356 0B9E     		ldr	r6, [sp, #44]
 2576              	.LVL383:
 2577 1358 8CEA0303 		eor	r3, ip, r3
 2578              		.loc 1 262 0
 2579 135c 01EBF060 		add	r0, r1, r0, ror #27
 2580              	.LVL384:
 2581 1360 3144     		add	r1, r1, r6
 2582              	.LVL385:
 2583              		.loc 1 263 0
 2584 1362 08EB0306 		add	r6, r8, r3
 2585              	.LVL386:
 2586 1366 0A9B     		ldr	r3, [sp, #40]
 2587 1368 9E46     		mov	lr, r3
 2588 136a 664B     		ldr	r3, .L23+4
 2589 136c 89EA0A0B 		eor	fp, r9, r10
 2590 1370 8BEA000B 		eor	fp, fp, r0
 2591 1374 7344     		add	r3, lr, r3
 2592 1376 05EBF666 		add	r6, r5, r6, ror #27
 2593              	.LVL387:
 2594 137a 5944     		add	r1, r1, fp
 2595 137c 4FEAB959 		ror	r9, r9, #22
 2596              	.LVL388:
 2597 1380 1D44     		add	r5, r5, r3
 2598              	.LVL389:
 2599 1382 059B     		ldr	r3, [sp, #20]
 2600 1384 02EB3158 		add	r8, r2, r1, ror #20
 2601              	.LVL390:
 2602 1388 80EA0901 		eor	r1, r0, r9
 2603 138c 4FEAB757 		ror	r7, r7, #22
 2604              	.LVL391:
 2605              		.loc 1 264 0
 2606 1390 81EA0801 		eor	r1, r1, r8
 2607 1394 1A44     		add	r2, r2, r3
 2608              	.LVL392:
 2609 1396 4FEABC5B 		ror	fp, ip, #22
 2610 139a 6CEA070E 		orn	lr, ip, r7
 2611 139e 0A44     		add	r2, r2, r1
 2612 13a0 DFF860C1 		ldr	ip, .L23+4
 2613              	.LVL393:
 2614 13a4 0899     		ldr	r1, [sp, #32]
 2615 13a6 86EA0E0E 		eor	lr, r6, lr
 2616 13aa 4FEAB050 		ror	r0, r0, #22
ARM GAS  C:\Users\jo\AppData\Local\Temp\ccdgtuym.s 			page 47


 2617              	.LVL394:
 2618 13ae 8C44     		add	ip, r1, ip
 2619 13b0 0299     		ldr	r1, [sp, #8]
 2620 13b2 0AEBF252 		add	r2, r10, r2, ror #23
 2621 13b6 88EA0003 		eor	r3, r8, r0
 2622 13ba 7544     		add	r5, r5, lr
 2623              	.LVL395:
 2624 13bc 04EB7555 		add	r5, r4, r5, ror #21
 2625              	.LVL396:
 2626              		.loc 1 265 0
 2627 13c0 66EA0B0E 		orn	lr, r6, fp
 2628 13c4 8A44     		add	r10, r10, r1
 2629              	.LVL397:
 2630 13c6 83EA0201 		eor	r1, r3, r2
 2631 13ca 85EA0E0E 		eor	lr, r5, lr
 2632 13ce 4FEAB653 		ror	r3, r6, #22
 2633 13d2 6444     		add	r4, r4, ip
 2634              	.LVL398:
 2635 13d4 109E     		ldr	r6, [sp, #64]
 2636              	.LVL399:
 2637 13d6 5144     		add	r1, r1, r10
 2638 13d8 DFF828A1 		ldr	r10, .L23+4
 2639 13dc 7444     		add	r4, r4, lr
 2640              	.LVL400:
 2641 13de 07EBB46C 		add	ip, r7, r4, ror #26
 2642              	.LVL401:
 2643 13e2 4FEAB858 		ror	r8, r8, #22
 2644              	.LVL402:
 2645 13e6 B244     		add	r10, r6, r10
 2646              		.loc 1 266 0
 2647 13e8 65EA0304 		orn	r4, r5, r3
 2648 13ec 069E     		ldr	r6, [sp, #24]
 2649              		.loc 1 265 0
 2650 13ee 09EB3151 		add	r1, r9, r1, ror #20
 2651              	.LVL403:
 2652 13f2 82EA080E 		eor	lr, r2, r8
 2653              		.loc 1 266 0
 2654 13f6 8CEA0404 		eor	r4, ip, r4
 2655 13fa 5744     		add	r7, r7, r10
 2656              	.LVL404:
 2657 13fc 4FEAB555 		ror	r5, r5, #22
 2658              	.LVL405:
 2659 1400 8EEA010E 		eor	lr, lr, r1
 2660 1404 2744     		add	r7, r7, r4
 2661              	.LVL406:
 2662 1406 B144     		add	r9, r9, r6
 2663              	.LVL407:
 2664 1408 039E     		ldr	r6, [sp, #12]
 2665 140a 0BEB376A 		add	r10, fp, r7, ror #24
 2666 140e F144     		add	r9, r9, lr
 2667              	.LVL408:
 2668              		.loc 1 267 0
 2669 1410 6CEA0507 		orn	r7, ip, r5
 2670              		.loc 1 266 0
 2671 1414 4FEAB252 		ror	r2, r2, #22
 2672              	.LVL409:
 2673 1418 A6F1AD4E 		sub	lr, r6, #1451229184
ARM GAS  C:\Users\jo\AppData\Local\Temp\ccdgtuym.s 			page 48


 2674 141c 00EBF966 		add	r6, r0, r9, ror #27
 2675              	.LVL410:
 2676              		.loc 1 267 0
 2677 1420 8AEA0709 		eor	r9, r10, r7
 2678 1424 099F     		ldr	r7, [sp, #36]
 2679 1426 81EA0204 		eor	r4, r1, r2
 2680 142a 7440     		eors	r4, r4, r6
 2681 142c 3844     		add	r0, r0, r7
 2682              	.LVL411:
 2683 142e AEF5301E 		sub	lr, lr, #2883584
 2684 1432 0B9F     		ldr	r7, [sp, #44]
 2685 1434 2044     		add	r0, r0, r4
 2686 1436 AEF2B22E 		subw	lr, lr, #690
 2687 143a 324C     		ldr	r4, .L23+4
 2688 143c DE44     		add	lr, lr, fp
 2689              	.LVL412:
 2690 143e 4FEABC5C 		ror	ip, ip, #22
 2691              	.LVL413:
 2692 1442 CE44     		add	lr, lr, r9
 2693              	.LVL414:
 2694 1444 3C19     		adds	r4, r7, r4
 2695 1446 03EBFE4E 		add	lr, r3, lr, ror #19
 2696              	.LVL415:
 2697              		.loc 1 268 0
 2698 144a 6AEA0C09 		orn	r9, r10, ip
 2699 144e 1C44     		add	r4, r4, r3
 2700 1450 089B     		ldr	r3, [sp, #32]
 2701              	.LVL416:
 2702 1452 8EEA0909 		eor	r9, lr, r9
 2703              		.loc 1 267 0
 2704 1456 08EBB047 		add	r7, r8, r0, ror #18
 2705              	.LVL417:
 2706 145a 4FEAB151 		ror	r1, r1, #22
 2707              	.LVL418:
 2708              		.loc 1 268 0
 2709 145e A144     		add	r9, r9, r4
 2710              	.LVL419:
 2711 1460 9844     		add	r8, r8, r3
 2712              	.LVL420:
 2713 1462 4FEABA54 		ror	r4, r10, #22
 2714 1466 0E9B     		ldr	r3, [sp, #56]
 2715 1468 DFF898A0 		ldr	r10, .L23+4
 2716              	.LVL421:
 2717 146c 86EA0100 		eor	r0, r6, r1
 2718 1470 7840     		eors	r0, r0, r7
 2719 1472 9A44     		add	r10, r3, r10
 2720 1474 05EB395B 		add	fp, r5, r9, ror #20
 2721 1478 8044     		add	r8, r8, r0
 2722              	.LVL422:
 2723 147a AA44     		add	r10, r10, r5
 2724              		.loc 1 269 0
 2725 147c 6EEA0400 		orn	r0, lr, r4
 2726 1480 079D     		ldr	r5, [sp, #28]
 2727              	.LVL423:
 2728              		.loc 1 268 0
 2729 1482 4FEAB656 		ror	r6, r6, #22
 2730              	.LVL424:
ARM GAS  C:\Users\jo\AppData\Local\Temp\ccdgtuym.s 			page 49


 2731              		.loc 1 269 0
 2732 1486 8BEA0000 		eor	r0, fp, r0
 2733              		.loc 1 268 0
 2734 148a 02EBB863 		add	r3, r2, r8, ror #26
 2735              	.LVL425:
 2736 148e 87EA0609 		eor	r9, r7, r6
 2737 1492 2A44     		add	r2, r2, r5
 2738              	.LVL426:
 2739              		.loc 1 269 0
 2740 1494 0AEB0005 		add	r5, r10, r0
 2741              	.LVL427:
 2742 1498 0CEBF568 		add	r8, ip, r5, ror #27
 2743 149c 89EA0309 		eor	r9, r9, r3
 2744 14a0 029D     		ldr	r5, [sp, #8]
 2745              	.LVL428:
 2746 14a2 1848     		ldr	r0, .L23+4
 2747 14a4 4FEAB757 		ror	r7, r7, #22
 2748              	.LVL429:
 2749 14a8 9144     		add	r9, r9, r2
 2750 14aa 039A     		ldr	r2, [sp, #12]
 2751 14ac 01EB3969 		add	r9, r1, r9, ror #24
 2752 14b0 2818     		adds	r0, r5, r0
 2753 14b2 83EA0705 		eor	r5, r3, r7
 2754 14b6 4FEABE5E 		ror	lr, lr, #22
 2755              	.LVL430:
 2756              		.loc 1 270 0
 2757 14ba 85EA0905 		eor	r5, r5, r9
 2758 14be 1144     		add	r1, r1, r2
 2759              	.LVL431:
 2760 14c0 6BEA0E0A 		orn	r10, fp, lr
 2761 14c4 2944     		add	r1, r1, r5
 2762 14c6 049D     		ldr	r5, [sp, #16]
 2763 14c8 88EA0A0A 		eor	r10, r8, r10
 2764 14cc 8444     		add	ip, ip, r0
 2765              	.LVL432:
 2766 14ce D444     		add	ip, ip, r10
 2767              	.LVL433:
 2768 14d0 AA46     		mov	r10, r5
 2769 14d2 0C4D     		ldr	r5, .L23+4
 2770 14d4 5544     		add	r5, r10, r5
 2771 14d6 04EB3C5C 		add	ip, r4, ip, ror #20
 2772              	.LVL434:
 2773 14da 2544     		add	r5, r5, r4
 2774 14dc 0D9C     		ldr	r4, [sp, #52]
 2775              	.LVL435:
 2776 14de 06EBF14A 		add	r10, r6, r1, ror #19
 2777 14e2 2644     		add	r6, r6, r4
 2778              	.LVL436:
 2779 14e4 099C     		ldr	r4, [sp, #36]
 2780 14e6 4FEABB5B 		ror	fp, fp, #22
 2781              	.LVL437:
 2782 14ea 4FEAB353 		ror	r3, r3, #22
 2783              	.LVL438:
 2784              		.loc 1 271 0
 2785 14ee 68EA0B00 		orn	r0, r8, fp
 2786 14f2 A4F1AD44 		sub	r4, r4, #1451229184
 2787 14f6 89EA0302 		eor	r2, r9, r3
ARM GAS  C:\Users\jo\AppData\Local\Temp\ccdgtuym.s 			page 50


 2788 14fa 8CEA0000 		eor	r0, ip, r0
 2789 14fe 05E0     		b	.L24
 2790              	.L25:
 2791              		.align	2
 2792              	.L23:
 2793 1500 DCBC1B8F 		.word	-1894007588
 2794 1504 4EFD53A9 		.word	-1454113458
 2795 1508 E9766D7A 		.word	2053994217
 2796              	.L24:
 2797 150c A4F53014 		sub	r4, r4, #2883584
 2798 1510 82EA0A02 		eor	r2, r2, r10
 2799 1514 4FEAB858 		ror	r8, r8, #22
 2800              	.LVL439:
 2801 1518 0544     		add	r5, r5, r0
 2802              	.LVL440:
 2803 151a A4F2B224 		subw	r4, r4, #690
 2804 151e 0EEBF545 		add	r5, lr, r5, ror #19
 2805              	.LVL441:
 2806 1522 1644     		add	r6, r6, r2
 2807              	.LVL442:
 2808 1524 A644     		add	lr, lr, r4
 2809              	.LVL443:
 2810              		.loc 1 272 0
 2811 1526 6CEA0802 		orn	r2, ip, r8
 2812 152a 0E9C     		ldr	r4, [sp, #56]
 2813 152c 6A40     		eors	r2, r2, r5
 2814              		.loc 1 271 0
 2815 152e 07EBB666 		add	r6, r7, r6, ror #26
 2816              	.LVL444:
 2817 1532 2744     		add	r7, r7, r4
 2818              	.LVL445:
 2819              		.loc 1 272 0
 2820 1534 0EEB0204 		add	r4, lr, r2
 2821 1538 0C9A     		ldr	r2, [sp, #48]
 2822              		.loc 1 271 0
 2823 153a 4FEAB959 		ror	r9, r9, #22
 2824              	.LVL446:
 2825 153e 9646     		mov	lr, r2
 2826 1540 424A     		ldr	r2, .L26
 2827 1542 8AEA0901 		eor	r1, r10, r9
 2828              		.loc 1 272 0
 2829 1546 81EA0600 		eor	r0, r1, r6
 2830 154a 7244     		add	r2, lr, r2
 2831 154c 0BEBB444 		add	r4, fp, r4, ror #18
 2832              	.LVL447:
 2833 1550 4FEABA5A 		ror	r10, r10, #22
 2834              	.LVL448:
 2835 1554 0744     		add	r7, r7, r0
 2836 1556 9344     		add	fp, fp, r2
 2837              	.LVL449:
 2838 1558 019A     		ldr	r2, [sp, #4]
 2839 155a 03EBF767 		add	r7, r3, r7, ror #27
 2840 155e 86EA0A0E 		eor	lr, r6, r10
 2841 1562 4FEABC51 		ror	r1, ip, #22
 2842              	.LVL450:
 2843 1566 1344     		add	r3, r3, r2
 2844              	.LVL451:
ARM GAS  C:\Users\jo\AppData\Local\Temp\ccdgtuym.s 			page 51


 2845              		.loc 1 273 0
 2846 1568 8EEA070E 		eor	lr, lr, r7
 2847 156c 079A     		ldr	r2, [sp, #28]
 2848 156e 65EA0100 		orn	r0, r5, r1
 2849 1572 9E44     		add	lr, lr, r3
 2850 1574 354B     		ldr	r3, .L26
 2851 1576 6040     		eors	r0, r0, r4
 2852 1578 D318     		adds	r3, r2, r3
 2853 157a 8344     		add	fp, fp, r0
 2854              	.LVL452:
 2855 157c 08EB7B5B 		add	fp, r8, fp, ror #21
 2856              	.LVL453:
 2857 1580 4FEAB656 		ror	r6, r6, #22
 2858              	.LVL454:
 2859 1584 9844     		add	r8, r8, r3
 2860              	.LVL455:
 2861 1586 049B     		ldr	r3, [sp, #16]
 2862 1588 09EB7E4E 		add	lr, r9, lr, ror #17
 2863 158c 87EA0602 		eor	r2, r7, r6
 2864 1590 4FEAB555 		ror	r5, r5, #22
 2865              	.LVL456:
 2866              		.loc 1 274 0
 2867 1594 82EA0E02 		eor	r2, r2, lr
 2868 1598 9944     		add	r9, r9, r3
 2869              	.LVL457:
 2870 159a 64EA050C 		orn	ip, r4, r5
 2871 159e 9144     		add	r9, r9, r2
 2872 15a0 0F9A     		ldr	r2, [sp, #60]
 2873 15a2 8BEA0C0C 		eor	ip, fp, ip
 2874 15a6 E044     		add	r8, r8, ip
 2875              	.LVL458:
 2876 15a8 A2F1AD4C 		sub	ip, r2, #1451229184
 2877 15ac ACF5301C 		sub	ip, ip, #2883584
 2878 15b0 ACF2B22C 		subw	ip, ip, #690
 2879 15b4 01EB3868 		add	r8, r1, r8, ror #24
 2880              	.LVL459:
 2881 15b8 4FEAB454 		ror	r4, r4, #22
 2882              	.LVL460:
 2883 15bc 4FEAB757 		ror	r7, r7, #22
 2884              	.LVL461:
 2885 15c0 8C44     		add	ip, ip, r1
 2886 15c2 0A99     		ldr	r1, [sp, #40]
 2887              	.LVL462:
 2888 15c4 0AEBF949 		add	r9, r10, r9, ror #19
 2889              	.LVL463:
 2890              		.loc 1 275 0
 2891 15c8 6BEA0403 		orn	r3, fp, r4
 2892 15cc 8EEA0702 		eor	r2, lr, r7
 2893 15d0 88EA0303 		eor	r3, r8, r3
 2894 15d4 82EA0902 		eor	r2, r2, r9
 2895 15d8 8A44     		add	r10, r10, r1
 2896              	.LVL464:
 2897 15da 9C44     		add	ip, ip, r3
 2898              	.LVL465:
 2899 15dc 9244     		add	r10, r10, r2
 2900 15de 0D9B     		ldr	r3, [sp, #52]
 2901 15e0 1A4A     		ldr	r2, .L26
ARM GAS  C:\Users\jo\AppData\Local\Temp\ccdgtuym.s 			page 52


 2902 15e2 1499     		ldr	r1, [sp, #80]
 2903 15e4 9A18     		adds	r2, r3, r2
 2904 15e6 05EBFC6C 		add	ip, r5, ip, ror #27
 2905              	.LVL466:
 2906 15ea 1544     		add	r5, r5, r2
 2907              	.LVL467:
 2908 15ec 0C9A     		ldr	r2, [sp, #48]
 2909 15ee 06EB7A5A 		add	r10, r6, r10, ror #21
 2910 15f2 1644     		add	r6, r6, r2
 2911              	.LVL468:
 2912 15f4 159A     		ldr	r2, [sp, #84]
 2913 15f6 4FEABB5B 		ror	fp, fp, #22
 2914              	.LVL469:
 2915 15fa 4FEABE5E 		ror	lr, lr, #22
 2916              	.LVL470:
 2917 15fe 89EA0E00 		eor	r0, r9, lr
 2918              	.LVL471:
 2919              		.loc 1 276 0
 2920 1602 68EA0B03 		orn	r3, r8, fp
 2921              	.LVL472:
 2922 1606 9644     		add	lr, lr, r2
 2923              	.LVL473:
 2924 1608 119A     		ldr	r2, [sp, #68]
 2925 160a 8CEA0303 		eor	r3, ip, r3
 2926              	.LVL474:
 2927 160e 02EBB959 		add	r9, r2, r9, ror #22
 2928              	.LVL475:
 2929 1612 1D44     		add	r5, r5, r3
 2930              	.LVL476:
 2931 1614 169A     		ldr	r2, [sp, #88]
 2932 1616 129B     		ldr	r3, [sp, #72]
 2933 1618 6118     		adds	r1, r4, r1
 2934 161a 80EA0A00 		eor	r0, r0, r10
 2935              	.LVL477:
 2936 161e 3C44     		add	r4, r4, r7
 2937              	.LVL478:
 2938 1620 1444     		add	r4, r4, r2
 2939 1622 8A44     		add	r10, r10, r1
 2940              	.LVL479:
 2941 1624 0644     		add	r6, r6, r0
 2942 1626 1F44     		add	r7, r7, r3
 2943              	.LVL480:
 2944              		.loc 1 283 0
 2945 1628 1398     		ldr	r0, [sp, #76]
 2946 162a 0EEBB853 		add	r3, lr, r8, ror #22
 2947              		.loc 1 282 0
 2948 162e 09EB0C02 		add	r2, r9, ip
 2949              	.LVL481:
 2950              		.loc 1 286 0
 2951 1632 0AEBB565 		add	r5, r10, r5, ror #26
 2952              		.loc 1 285 0
 2953 1636 04EB7656 		add	r6, r4, r6, ror #21
 2954              		.loc 1 284 0
 2955 163a 5F44     		add	r7, r7, fp
 2956              		.loc 1 283 0
 2957 163c C360     		str	r3, [r0, #12]
 2958              	.LVL482:
ARM GAS  C:\Users\jo\AppData\Local\Temp\ccdgtuym.s 			page 53


 2959              		.loc 1 287 0
 2960 163e 8260     		str	r2, [r0, #8]
 2961              		.loc 1 286 0
 2962 1640 8561     		str	r5, [r0, #24]
 2963              		.loc 1 285 0
 2964 1642 4661     		str	r6, [r0, #20]
 2965              		.loc 1 284 0
 2966 1644 0761     		str	r7, [r0, #16]
 2967              		.loc 1 288 0
 2968 1646 31B0     		add	sp, sp, #196
 2969              		.cfi_def_cfa_offset 36
 2970              		@ sp needed
 2971 1648 BDE8F08F 		pop	{r4, r5, r6, r7, r8, r9, r10, fp, pc}
 2972              	.LVL483:
 2973              	.L27:
 2974              		.align	2
 2975              	.L26:
 2976 164c 4EFD53A9 		.word	-1454113458
 2977              		.cfi_endproc
 2978              	.LFE4:
 2979              		.size	ripemd160_process, .-ripemd160_process
 2980              		.section	.text.ripemd160_update.part.0,"ax",%progbits
 2981              		.align	2
 2982              		.p2align 4,,15
 2983              		.thumb
 2984              		.thumb_func
 2985              		.type	ripemd160_update.part.0, %function
 2986              	ripemd160_update.part.0:
 2987              	.LFB15:
 2988              		.loc 1 293 0
 2989              		.cfi_startproc
 2990              		@ args = 0, pretend = 0, frame = 0
 2991              		@ frame_needed = 0, uses_anonymous_args = 0
 2992              	.LVL484:
 2993 0000 2DE9F843 		push	{r3, r4, r5, r6, r7, r8, r9, lr}
 2994              		.cfi_def_cfa_offset 32
 2995              		.cfi_offset 3, -32
 2996              		.cfi_offset 4, -28
 2997              		.cfi_offset 5, -24
 2998              		.cfi_offset 6, -20
 2999              		.cfi_offset 7, -16
 3000              		.cfi_offset 8, -12
 3001              		.cfi_offset 9, -8
 3002              		.cfi_offset 14, -4
 3003              		.loc 1 293 0
 3004 0004 0646     		mov	r6, r0
 3005              		.loc 1 302 0
 3006 0006 0068     		ldr	r0, [r0]
 3007              	.LVL485:
 3008              		.loc 1 305 0
 3009 0008 1318     		adds	r3, r2, r0
 3010              		.loc 1 308 0
 3011 000a 9A42     		cmp	r2, r3
 3012              		.loc 1 293 0
 3013 000c 1746     		mov	r7, r2
 3014 000e 8946     		mov	r9, r1
 3015              		.loc 1 305 0
ARM GAS  C:\Users\jo\AppData\Local\Temp\ccdgtuym.s 			page 54


 3016 0010 3360     		str	r3, [r6]
 3017              		.loc 1 302 0
 3018 0012 00F03F08 		and	r8, r0, #63
 3019              	.LVL486:
 3020              		.loc 1 308 0
 3021 0016 02D9     		bls	.L29
 3022              		.loc 1 309 0
 3023 0018 7368     		ldr	r3, [r6, #4]
 3024 001a 0133     		adds	r3, r3, #1
 3025 001c 7360     		str	r3, [r6, #4]
 3026              	.L29:
 3027              		.loc 1 311 0
 3028 001e B8F1000F 		cmp	r8, #0
 3029 0022 16D0     		beq	.L30
 3030              		.loc 1 303 0
 3031 0024 C8F14004 		rsb	r4, r8, #64
 3032              		.loc 1 311 0
 3033 0028 BC42     		cmp	r4, r7
 3034 002a 02D9     		bls	.L40
 3035              	.LVL487:
 3036              	.L32:
 3037              		.loc 1 327 0
 3038 002c 47BB     		cbnz	r7, .L41
 3039              	.LVL488:
 3040              	.L28:
 3041 002e BDE8F883 		pop	{r3, r4, r5, r6, r7, r8, r9, pc}
 3042              	.LVL489:
 3043              	.L40:
 3044              		.loc 1 313 0
 3045 0032 06EB0800 		add	r0, r6, r8
 3046 0036 4946     		mov	r1, r9
 3047              	.LVL490:
 3048 0038 2246     		mov	r2, r4
 3049              	.LVL491:
 3050 003a 1C30     		adds	r0, r0, #28
 3051 003c FFF7FEFF 		bl	memcpy
 3052              	.LVL492:
 3053              		.loc 1 314 0
 3054 0040 3046     		mov	r0, r6
 3055 0042 06F11C01 		add	r1, r6, #28
 3056 0046 FFF7FEFF 		bl	ripemd160_process
 3057              	.LVL493:
 3058              		.loc 1 316 0
 3059 004a 3F1B     		subs	r7, r7, r4
 3060              	.LVL494:
 3061              		.loc 1 315 0
 3062 004c A144     		add	r9, r9, r4
 3063              	.LVL495:
 3064              		.loc 1 317 0
 3065 004e 4FF00008 		mov	r8, #0
 3066              	.LVL496:
 3067              	.L30:
 3068              		.loc 1 320 0
 3069 0052 3F2F     		cmp	r7, #63
 3070 0054 EAD9     		bls	.L32
 3071 0056 3D46     		mov	r5, r7
 3072 0058 4C46     		mov	r4, r9
ARM GAS  C:\Users\jo\AppData\Local\Temp\ccdgtuym.s 			page 55


 3073              	.LVL497:
 3074              	.L33:
 3075              		.loc 1 322 0
 3076 005a 2146     		mov	r1, r4
 3077              		.loc 1 324 0
 3078 005c 403D     		subs	r5, r5, #64
 3079              	.LVL498:
 3080              		.loc 1 322 0
 3081 005e 3046     		mov	r0, r6
 3082 0060 FFF7FEFF 		bl	ripemd160_process
 3083              	.LVL499:
 3084              		.loc 1 320 0
 3085 0064 3F2D     		cmp	r5, #63
 3086              		.loc 1 323 0
 3087 0066 04F14004 		add	r4, r4, #64
 3088              	.LVL500:
 3089              		.loc 1 320 0
 3090 006a F6D8     		bhi	.L33
 3091 006c A7F14003 		sub	r3, r7, #64
 3092 0070 23F03F03 		bic	r3, r3, #63
 3093 0074 4033     		adds	r3, r3, #64
 3094 0076 07F03F07 		and	r7, r7, #63
 3095 007a 9944     		add	r9, r9, r3
 3096              		.loc 1 327 0
 3097 007c 002F     		cmp	r7, #0
 3098 007e D6D0     		beq	.L28
 3099              	.LVL501:
 3100              	.L41:
 3101              		.loc 1 329 0
 3102 0080 06EB0800 		add	r0, r6, r8
 3103 0084 4946     		mov	r1, r9
 3104 0086 3A46     		mov	r2, r7
 3105 0088 1C30     		adds	r0, r0, #28
 3106              		.loc 1 331 0
 3107 008a BDE8F843 		pop	{r3, r4, r5, r6, r7, r8, r9, lr}
 3108              		.cfi_restore 14
 3109              		.cfi_restore 9
 3110              		.cfi_restore 8
 3111              		.cfi_restore 7
 3112              		.cfi_restore 6
 3113              		.cfi_restore 5
 3114              		.cfi_restore 4
 3115              		.cfi_restore 3
 3116              		.cfi_def_cfa_offset 0
 3117              	.LVL502:
 3118              		.loc 1 329 0
 3119 008e FFF7FEBF 		b	memcpy
 3120              	.LVL503:
 3121              		.cfi_endproc
 3122              	.LFE15:
 3123              		.size	ripemd160_update.part.0, .-ripemd160_update.part.0
 3124 0092 00BFAFF3 		.section	.text.ripemd160_update,"ax",%progbits
 3124      0080AFF3 
 3124      0080AFF3 
 3124      0080
 3125              		.align	2
 3126              		.p2align 4,,15
ARM GAS  C:\Users\jo\AppData\Local\Temp\ccdgtuym.s 			page 56


 3127              		.global	ripemd160_update
 3128              		.thumb
 3129              		.thumb_func
 3130              		.type	ripemd160_update, %function
 3131              	ripemd160_update:
 3132              	.LFB5:
 3133              		.loc 1 295 0
 3134              		.cfi_startproc
 3135              		@ args = 0, pretend = 0, frame = 0
 3136              		@ frame_needed = 0, uses_anonymous_args = 0
 3137              		@ link register save eliminated.
 3138              	.LVL504:
 3139              		.loc 1 299 0
 3140 0000 0AB1     		cbz	r2, .L42
 3141 0002 FFF7FEBF 		b	ripemd160_update.part.0
 3142              	.LVL505:
 3143              	.L42:
 3144 0006 7047     		bx	lr
 3145              		.cfi_endproc
 3146              	.LFE5:
 3147              		.size	ripemd160_update, .-ripemd160_update
 3148 0008 AFF30080 		.section	.text.ripemd160_finish,"ax",%progbits
 3148      AFF30080 
 3149              		.align	2
 3150              		.p2align 4,,15
 3151              		.global	ripemd160_finish
 3152              		.thumb
 3153              		.thumb_func
 3154              		.type	ripemd160_finish, %function
 3155              	ripemd160_finish:
 3156              	.LFB6:
 3157              		.loc 1 345 0
 3158              		.cfi_startproc
 3159              		@ args = 0, pretend = 0, frame = 8
 3160              		@ frame_needed = 0, uses_anonymous_args = 0
 3161              	.LVL506:
 3162 0000 2DE9F041 		push	{r4, r5, r6, r7, r8, lr}
 3163              		.cfi_def_cfa_offset 24
 3164              		.cfi_offset 4, -24
 3165              		.cfi_offset 5, -20
 3166              		.cfi_offset 6, -16
 3167              		.cfi_offset 7, -12
 3168              		.cfi_offset 8, -8
 3169              		.cfi_offset 14, -4
 3170              		.loc 1 350 0
 3171 0004 0268     		ldr	r2, [r0]
 3172              		.loc 1 345 0
 3173 0006 0D46     		mov	r5, r1
 3174              		.loc 1 351 0
 3175 0008 4168     		ldr	r1, [r0, #4]
 3176              	.LVL507:
 3177              		.loc 1 350 0
 3178 000a 530F     		lsrs	r3, r2, #29
 3179              		.loc 1 345 0
 3180 000c 82B0     		sub	sp, sp, #8
 3181              		.cfi_def_cfa_offset 32
 3182              		.loc 1 350 0
ARM GAS  C:\Users\jo\AppData\Local\Temp\ccdgtuym.s 			page 57


 3183 000e 43EAC103 		orr	r3, r3, r1, lsl #3
 3184              	.LVL508:
 3185              		.loc 1 352 0
 3186 0012 D100     		lsls	r1, r2, #3
 3187              	.LVL509:
 3188              		.loc 1 357 0
 3189 0014 02F03F02 		and	r2, r2, #63
 3190              	.LVL510:
 3191              		.loc 1 345 0
 3192 0018 0446     		mov	r4, r0
 3193              		.loc 1 358 0
 3194 001a 372A     		cmp	r2, #55
 3195              		.loc 1 354 0
 3196 001c 4FEA1160 		lsr	r0, r1, #24
 3197              	.LVL511:
 3198              		.loc 1 355 0
 3199 0020 4FEA1328 		lsr	r8, r3, #8
 3200 0024 4FEA134C 		lsr	ip, r3, #16
 3201 0028 4FEA136E 		lsr	lr, r3, #24
 3202              		.loc 1 358 0
 3203 002c 94BF     		ite	ls
 3204 002e C2F13802 		rsbls	r2, r2, #56
 3205              	.LVL512:
 3206 0032 C2F17802 		rsbhi	r2, r2, #120
 3207              	.LVL513:
 3208              		.loc 1 354 0
 3209 0036 0F0A     		lsrs	r7, r1, #8
 3210 0038 0E0C     		lsrs	r6, r1, #16
 3211 003a 8DF80010 		strb	r1, [sp]
 3212 003e 8DF80300 		strb	r0, [sp, #3]
 3213              	.LBB60:
 3214              	.LBB61:
 3215 0042 2249     		ldr	r1, .L48
 3216              	.LVL514:
 3217              	.LBE61:
 3218              	.LBE60:
 3219              		.loc 1 355 0
 3220 0044 8DF80430 		strb	r3, [sp, #4]
 3221              	.LBB64:
 3222              	.LBB62:
 3223 0048 2046     		mov	r0, r4
 3224              	.LBE62:
 3225              	.LBE64:
 3226 004a 8DF806C0 		strb	ip, [sp, #6]
 3227 004e 8DF807E0 		strb	lr, [sp, #7]
 3228 0052 8DF80580 		strb	r8, [sp, #5]
 3229              		.loc 1 354 0
 3230 0056 8DF80170 		strb	r7, [sp, #1]
 3231 005a 8DF80260 		strb	r6, [sp, #2]
 3232              	.LBB65:
 3233              	.LBB63:
 3234 005e FFF7FEFF 		bl	ripemd160_update.part.0
 3235              	.LVL515:
 3236              	.LBE63:
 3237              	.LBE65:
 3238              	.LBB66:
 3239              	.LBB67:
ARM GAS  C:\Users\jo\AppData\Local\Temp\ccdgtuym.s 			page 58


 3240 0062 2046     		mov	r0, r4
 3241 0064 6946     		mov	r1, sp
 3242 0066 0822     		movs	r2, #8
 3243 0068 FFF7FEFF 		bl	ripemd160_update.part.0
 3244              	.LVL516:
 3245              	.LBE67:
 3246              	.LBE66:
 3247              		.loc 1 363 0
 3248 006c A368     		ldr	r3, [r4, #8]
 3249 006e 2B70     		strb	r3, [r5]
 3250 0070 A368     		ldr	r3, [r4, #8]
 3251 0072 1B0A     		lsrs	r3, r3, #8
 3252 0074 6B70     		strb	r3, [r5, #1]
 3253 0076 6389     		ldrh	r3, [r4, #10]
 3254 0078 AB70     		strb	r3, [r5, #2]
 3255 007a E37A     		ldrb	r3, [r4, #11]	@ zero_extendqisi2
 3256 007c EB70     		strb	r3, [r5, #3]
 3257              		.loc 1 364 0
 3258 007e E368     		ldr	r3, [r4, #12]
 3259 0080 2B71     		strb	r3, [r5, #4]
 3260 0082 E368     		ldr	r3, [r4, #12]
 3261 0084 1B0A     		lsrs	r3, r3, #8
 3262 0086 6B71     		strb	r3, [r5, #5]
 3263 0088 E389     		ldrh	r3, [r4, #14]
 3264 008a AB71     		strb	r3, [r5, #6]
 3265 008c E37B     		ldrb	r3, [r4, #15]	@ zero_extendqisi2
 3266 008e EB71     		strb	r3, [r5, #7]
 3267              		.loc 1 365 0
 3268 0090 2369     		ldr	r3, [r4, #16]
 3269 0092 2B72     		strb	r3, [r5, #8]
 3270 0094 2369     		ldr	r3, [r4, #16]
 3271 0096 1B0A     		lsrs	r3, r3, #8
 3272 0098 6B72     		strb	r3, [r5, #9]
 3273 009a 638A     		ldrh	r3, [r4, #18]
 3274 009c AB72     		strb	r3, [r5, #10]
 3275 009e E37C     		ldrb	r3, [r4, #19]	@ zero_extendqisi2
 3276 00a0 EB72     		strb	r3, [r5, #11]
 3277              		.loc 1 366 0
 3278 00a2 6369     		ldr	r3, [r4, #20]
 3279 00a4 2B73     		strb	r3, [r5, #12]
 3280 00a6 6369     		ldr	r3, [r4, #20]
 3281 00a8 1B0A     		lsrs	r3, r3, #8
 3282 00aa 6B73     		strb	r3, [r5, #13]
 3283 00ac E38A     		ldrh	r3, [r4, #22]
 3284 00ae AB73     		strb	r3, [r5, #14]
 3285 00b0 E37D     		ldrb	r3, [r4, #23]	@ zero_extendqisi2
 3286 00b2 EB73     		strb	r3, [r5, #15]
 3287              		.loc 1 367 0
 3288 00b4 A369     		ldr	r3, [r4, #24]
 3289 00b6 2B74     		strb	r3, [r5, #16]
 3290 00b8 A369     		ldr	r3, [r4, #24]
 3291 00ba 1B0A     		lsrs	r3, r3, #8
 3292 00bc 6B74     		strb	r3, [r5, #17]
 3293 00be 638B     		ldrh	r3, [r4, #26]
 3294 00c0 AB74     		strb	r3, [r5, #18]
 3295 00c2 E37E     		ldrb	r3, [r4, #27]	@ zero_extendqisi2
 3296 00c4 EB74     		strb	r3, [r5, #19]
ARM GAS  C:\Users\jo\AppData\Local\Temp\ccdgtuym.s 			page 59


 3297              		.loc 1 368 0
 3298 00c6 02B0     		add	sp, sp, #8
 3299              		.cfi_def_cfa_offset 24
 3300              	.LVL517:
 3301              		@ sp needed
 3302 00c8 BDE8F081 		pop	{r4, r5, r6, r7, r8, pc}
 3303              	.LVL518:
 3304              	.L49:
 3305              		.align	2
 3306              	.L48:
 3307 00cc 00000000 		.word	.LANCHOR0
 3308              		.cfi_endproc
 3309              	.LFE6:
 3310              		.size	ripemd160_finish, .-ripemd160_finish
 3311              		.section	.text.ripemd160,"ax",%progbits
 3312              		.align	2
 3313              		.p2align 4,,15
 3314              		.global	ripemd160
 3315              		.thumb
 3316              		.thumb_func
 3317              		.type	ripemd160, %function
 3318              	ripemd160:
 3319              	.LFB7:
 3320              		.loc 1 375 0
 3321              		.cfi_startproc
 3322              		@ args = 0, pretend = 0, frame = 224
 3323              		@ frame_needed = 0, uses_anonymous_args = 0
 3324              	.LVL519:
 3325 0000 F0B5     		push	{r4, r5, r6, r7, lr}
 3326              		.cfi_def_cfa_offset 20
 3327              		.cfi_offset 4, -20
 3328              		.cfi_offset 5, -16
 3329              		.cfi_offset 6, -12
 3330              		.cfi_offset 7, -8
 3331              		.cfi_offset 14, -4
 3332 0002 B9B0     		sub	sp, sp, #228
 3333              		.cfi_def_cfa_offset 248
 3334              	.LVL520:
 3335              		.loc 1 375 0
 3336 0004 0746     		mov	r7, r0
 3337 0006 0C46     		mov	r4, r1
 3338 0008 1546     		mov	r5, r2
 3339              	.LBB68:
 3340              	.LBB69:
 3341              		.loc 1 84 0
 3342 000a 0021     		movs	r1, #0
 3343              	.LVL521:
 3344 000c DC22     		movs	r2, #220
 3345              	.LVL522:
 3346 000e 01A8     		add	r0, sp, #4
 3347              	.LVL523:
 3348 0010 FFF7FEFF 		bl	memset
 3349              	.LVL524:
 3350              	.LBE69:
 3351              	.LBE68:
 3352              	.LBB70:
 3353              	.LBB71:
ARM GAS  C:\Users\jo\AppData\Local\Temp\ccdgtuym.s 			page 60


 3354              		.loc 1 103 0
 3355 0014 0E4E     		ldr	r6, .L59
 3356              		.loc 1 104 0
 3357 0016 0F48     		ldr	r0, .L59+4
 3358              		.loc 1 105 0
 3359 0018 0F49     		ldr	r1, .L59+8
 3360              		.loc 1 106 0
 3361 001a 104A     		ldr	r2, .L59+12
 3362              		.loc 1 107 0
 3363 001c 104B     		ldr	r3, .L59+16
 3364              		.loc 1 103 0
 3365 001e 0396     		str	r6, [sp, #12]
 3366              		.loc 1 104 0
 3367 0020 0490     		str	r0, [sp, #16]
 3368              		.loc 1 105 0
 3369 0022 0591     		str	r1, [sp, #20]
 3370              		.loc 1 106 0
 3371 0024 0692     		str	r2, [sp, #24]
 3372              		.loc 1 107 0
 3373 0026 0793     		str	r3, [sp, #28]
 3374              	.LVL525:
 3375              	.LBE71:
 3376              	.LBE70:
 3377              	.LBB72:
 3378              	.LBB73:
 3379              		.loc 1 299 0
 3380 0028 64B9     		cbnz	r4, .L58
 3381              	.L51:
 3382              	.LBE73:
 3383              	.LBE72:
 3384              		.loc 1 381 0
 3385 002a 2946     		mov	r1, r5
 3386 002c 01A8     		add	r0, sp, #4
 3387              	.LVL526:
 3388 002e FFF7FEFF 		bl	ripemd160_finish
 3389              	.LVL527:
 3390 0032 01AB     		add	r3, sp, #4
 3391              	.LVL528:
 3392              	.LBB75:
 3393              	.LBB76:
 3394              	.LBB77:
 3395              		.loc 1 79 0
 3396 0034 0022     		movs	r2, #0
 3397              	.LVL529:
 3398              	.L52:
 3399 0036 1A70     		strb	r2, [r3]
 3400              	.LVL530:
 3401 0038 38A9     		add	r1, sp, #224
 3402 003a 0133     		adds	r3, r3, #1
 3403              	.LVL531:
 3404 003c 8B42     		cmp	r3, r1
 3405 003e FAD1     		bne	.L52
 3406              	.LBE77:
 3407              	.LBE76:
 3408              	.LBE75:
 3409              		.loc 1 383 0
 3410 0040 39B0     		add	sp, sp, #228
ARM GAS  C:\Users\jo\AppData\Local\Temp\ccdgtuym.s 			page 61


 3411              		.cfi_remember_state
 3412              		.cfi_def_cfa_offset 20
 3413              		@ sp needed
 3414 0042 F0BD     		pop	{r4, r5, r6, r7, pc}
 3415              	.LVL532:
 3416              	.L58:
 3417              		.cfi_restore_state
 3418              	.LBB78:
 3419              	.LBB74:
 3420 0044 3946     		mov	r1, r7
 3421 0046 2246     		mov	r2, r4
 3422 0048 01A8     		add	r0, sp, #4
 3423              	.LVL533:
 3424 004a FFF7FEFF 		bl	ripemd160_update.part.0
 3425              	.LVL534:
 3426 004e ECE7     		b	.L51
 3427              	.L60:
 3428              		.align	2
 3429              	.L59:
 3430 0050 01234567 		.word	1732584193
 3431 0054 89ABCDEF 		.word	-271733879
 3432 0058 FEDCBA98 		.word	-1732584194
 3433 005c 76543210 		.word	271733878
 3434 0060 F0E1D2C3 		.word	-1009589776
 3435              	.LBE74:
 3436              	.LBE78:
 3437              		.cfi_endproc
 3438              	.LFE7:
 3439              		.size	ripemd160, .-ripemd160
 3440 0064 AFF30080 		.section	.text.ripemd160_file,"ax",%progbits
 3440      AFF30080 
 3440      AFF30080 
 3441              		.align	2
 3442              		.p2align 4,,15
 3443              		.global	ripemd160_file
 3444              		.thumb
 3445              		.thumb_func
 3446              		.type	ripemd160_file, %function
 3447              	ripemd160_file:
 3448              	.LFB8:
 3449              		.loc 1 390 0
 3450              		.cfi_startproc
 3451              		@ args = 0, pretend = 0, frame = 1248
 3452              		@ frame_needed = 0, uses_anonymous_args = 0
 3453              	.LVL535:
 3454 0000 F0B5     		push	{r4, r5, r6, r7, lr}
 3455              		.cfi_def_cfa_offset 20
 3456              		.cfi_offset 4, -20
 3457              		.cfi_offset 5, -16
 3458              		.cfi_offset 6, -12
 3459              		.cfi_offset 7, -8
 3460              		.cfi_offset 14, -4
 3461 0002 0F46     		mov	r7, r1
 3462 0004 ADF2E44D 		subw	sp, sp, #1252
 3463              		.cfi_def_cfa_offset 1272
 3464              		.loc 1 396 0
 3465 0008 2149     		ldr	r1, .L72
ARM GAS  C:\Users\jo\AppData\Local\Temp\ccdgtuym.s 			page 62


 3466              	.LVL536:
 3467 000a FFF7FEFF 		bl	fopen
 3468              	.LVL537:
 3469 000e 0646     		mov	r6, r0
 3470 0010 0028     		cmp	r0, #0
 3471 0012 39D0     		beq	.L67
 3472              	.LVL538:
 3473              	.LBB79:
 3474              	.LBB80:
 3475              		.loc 1 84 0
 3476 0014 0021     		movs	r1, #0
 3477 0016 DC22     		movs	r2, #220
 3478 0018 01A8     		add	r0, sp, #4
 3479              	.LVL539:
 3480 001a FFF7FEFF 		bl	memset
 3481              	.LVL540:
 3482              	.LBE80:
 3483              	.LBE79:
 3484              	.LBB81:
 3485              	.LBB82:
 3486              		.loc 1 103 0
 3487 001e 1D4C     		ldr	r4, .L72+4
 3488              		.loc 1 104 0
 3489 0020 1D48     		ldr	r0, .L72+8
 3490              		.loc 1 105 0
 3491 0022 1E49     		ldr	r1, .L72+12
 3492              		.loc 1 106 0
 3493 0024 1E4A     		ldr	r2, .L72+16
 3494              		.loc 1 107 0
 3495 0026 1F4B     		ldr	r3, .L72+20
 3496              		.loc 1 103 0
 3497 0028 0394     		str	r4, [sp, #12]
 3498              		.loc 1 104 0
 3499 002a 0490     		str	r0, [sp, #16]
 3500              		.loc 1 105 0
 3501 002c 0591     		str	r1, [sp, #20]
 3502              		.loc 1 106 0
 3503 002e 0692     		str	r2, [sp, #24]
 3504              		.loc 1 107 0
 3505 0030 0793     		str	r3, [sp, #28]
 3506 0032 38AD     		add	r5, sp, #224
 3507              	.L63:
 3508              	.LBE82:
 3509              	.LBE81:
 3510              		.loc 1 402 0
 3511 0034 0121     		movs	r1, #1
 3512 0036 4FF48062 		mov	r2, #1024
 3513 003a 2846     		mov	r0, r5
 3514 003c 3346     		mov	r3, r6
 3515 003e FFF7FEFF 		bl	fread
 3516              	.LVL541:
 3517              	.LBB83:
 3518              	.LBB84:
 3519 0042 2946     		mov	r1, r5
 3520              	.LBE84:
 3521              	.LBE83:
 3522 0044 0446     		mov	r4, r0
ARM GAS  C:\Users\jo\AppData\Local\Temp\ccdgtuym.s 			page 63


 3523              	.LVL542:
 3524              	.LBB87:
 3525              	.LBB85:
 3526 0046 0246     		mov	r2, r0
 3527              	.LBE85:
 3528              	.LBE87:
 3529 0048 18B1     		cbz	r0, .L70
 3530              	.LVL543:
 3531              	.LBB88:
 3532              	.LBB86:
 3533 004a 01A8     		add	r0, sp, #4
 3534              	.LVL544:
 3535 004c FFF7FEFF 		bl	ripemd160_update.part.0
 3536              	.LVL545:
 3537 0050 F0E7     		b	.L63
 3538              	.LVL546:
 3539              	.L70:
 3540              	.LBE86:
 3541              	.LBE88:
 3542              		.loc 1 405 0
 3543 0052 01A8     		add	r0, sp, #4
 3544              	.LVL547:
 3545 0054 3946     		mov	r1, r7
 3546              	.LVL548:
 3547 0056 FFF7FEFF 		bl	ripemd160_finish
 3548              	.LVL549:
 3549 005a 01AB     		add	r3, sp, #4
 3550              	.LVL550:
 3551              	.LBB89:
 3552              	.LBB90:
 3553              	.LBB91:
 3554              		.loc 1 79 0
 3555 005c 2046     		mov	r0, r4
 3556              	.LVL551:
 3557              	.L65:
 3558 005e 1870     		strb	r0, [r3]
 3559              	.LVL552:
 3560 0060 0133     		adds	r3, r3, #1
 3561              	.LVL553:
 3562 0062 AB42     		cmp	r3, r5
 3563 0064 FBD1     		bne	.L65
 3564              	.LBE91:
 3565              	.LBE90:
 3566              	.LBE89:
 3567              		.loc 1 408 0
 3568 0066 B489     		ldrh	r4, [r6, #12]
 3569 0068 04F04004 		and	r4, r4, #64
 3570 006c A4B2     		uxth	r4, r4
 3571              		.loc 1 410 0
 3572 006e 3046     		mov	r0, r6
 3573              	.LVL554:
 3574              		.loc 1 408 0
 3575 0070 2CB9     		cbnz	r4, .L71
 3576              	.LVL555:
 3577              		.loc 1 414 0
 3578 0072 FFF7FEFF 		bl	fclose
 3579              	.LVL556:
ARM GAS  C:\Users\jo\AppData\Local\Temp\ccdgtuym.s 			page 64


 3580              		.loc 1 415 0
 3581 0076 2046     		mov	r0, r4
 3582              	.LVL557:
 3583              	.L62:
 3584              		.loc 1 416 0
 3585 0078 0DF2E44D 		addw	sp, sp, #1252
 3586              		.cfi_remember_state
 3587              		.cfi_def_cfa_offset 20
 3588              		@ sp needed
 3589 007c F0BD     		pop	{r4, r5, r6, r7, pc}
 3590              	.LVL558:
 3591              	.L71:
 3592              		.cfi_restore_state
 3593              		.loc 1 410 0
 3594 007e FFF7FEFF 		bl	fclose
 3595              	.LVL559:
 3596              		.loc 1 411 0
 3597 0082 6FF07D00 		mvn	r0, #125
 3598 0086 F7E7     		b	.L62
 3599              	.LVL560:
 3600              	.L67:
 3601              		.loc 1 397 0
 3602 0088 6FF07D00 		mvn	r0, #125
 3603              	.LVL561:
 3604 008c F4E7     		b	.L62
 3605              	.L73:
 3606 008e 00BF     		.align	2
 3607              	.L72:
 3608 0090 00000000 		.word	.LC0
 3609 0094 01234567 		.word	1732584193
 3610 0098 89ABCDEF 		.word	-271733879
 3611 009c FEDCBA98 		.word	-1732584194
 3612 00a0 76543210 		.word	271733878
 3613 00a4 F0E1D2C3 		.word	-1009589776
 3614              		.cfi_endproc
 3615              	.LFE8:
 3616              		.size	ripemd160_file, .-ripemd160_file
 3617 00a8 AFF30080 		.section	.text.ripemd160_hmac_starts,"ax",%progbits
 3617      AFF30080 
 3618              		.align	2
 3619              		.p2align 4,,15
 3620              		.global	ripemd160_hmac_starts
 3621              		.thumb
 3622              		.thumb_func
 3623              		.type	ripemd160_hmac_starts, %function
 3624              	ripemd160_hmac_starts:
 3625              	.LFB9:
 3626              		.loc 1 424 0
 3627              		.cfi_startproc
 3628              		@ args = 0, pretend = 0, frame = 24
 3629              		@ frame_needed = 0, uses_anonymous_args = 0
 3630              	.LVL562:
 3631 0000 2DE9F043 		push	{r4, r5, r6, r7, r8, r9, lr}
 3632              		.cfi_def_cfa_offset 28
 3633              		.cfi_offset 4, -28
 3634              		.cfi_offset 5, -24
 3635              		.cfi_offset 6, -20
ARM GAS  C:\Users\jo\AppData\Local\Temp\ccdgtuym.s 			page 65


 3636              		.cfi_offset 7, -16
 3637              		.cfi_offset 8, -12
 3638              		.cfi_offset 9, -8
 3639              		.cfi_offset 14, -4
 3640              		.loc 1 428 0
 3641 0004 402A     		cmp	r2, #64
 3642              		.loc 1 424 0
 3643 0006 87B0     		sub	sp, sp, #28
 3644              		.cfi_def_cfa_offset 56
 3645              		.loc 1 424 0
 3646 0008 1546     		mov	r5, r2
 3647 000a 0646     		mov	r6, r0
 3648 000c 8946     		mov	r9, r1
 3649              		.loc 1 428 0
 3650 000e 46D8     		bhi	.L86
 3651              		.loc 1 435 0
 3652 0010 00F15C07 		add	r7, r0, #92
 3653 0014 3621     		movs	r1, #54
 3654              	.LVL563:
 3655 0016 4022     		movs	r2, #64
 3656              	.LVL564:
 3657 0018 3846     		mov	r0, r7
 3658              	.LVL565:
 3659              		.loc 1 436 0
 3660 001a 06F19C08 		add	r8, r6, #156
 3661              		.loc 1 435 0
 3662 001e FFF7FEFF 		bl	memset
 3663              	.LVL566:
 3664              		.loc 1 436 0
 3665 0022 4046     		mov	r0, r8
 3666 0024 5C21     		movs	r1, #92
 3667 0026 4022     		movs	r2, #64
 3668 0028 FFF7FEFF 		bl	memset
 3669              	.LVL567:
 3670 002c 01AC     		add	r4, sp, #4
 3671              		.loc 1 438 0
 3672 002e BDB1     		cbz	r5, .L77
 3673              	.LVL568:
 3674              	.L76:
 3675 0030 06F15B0E 		add	lr, r6, #91
 3676 0034 4946     		mov	r1, r9
 3677 0036 4046     		mov	r0, r8
 3678              		.loc 1 432 0 discriminator 3
 3679 0038 F446     		mov	ip, lr
 3680 003a 0022     		movs	r2, #0
 3681              	.LVL569:
 3682              	.L78:
 3683              		.loc 1 440 0 discriminator 3
 3684 003c 91F80080 		ldrb	r8, [r1]	@ zero_extendqisi2
 3685 0040 1CF8013F 		ldrb	r3, [ip, #1]!	@ zero_extendqisi2
 3686 0044 88EA0303 		eor	r3, r8, r3
 3687 0048 0EF8013F 		strb	r3, [lr, #1]!
 3688              		.loc 1 441 0 discriminator 3
 3689 004c 11F8018B 		ldrb	r8, [r1], #1	@ zero_extendqisi2
 3690 0050 0378     		ldrb	r3, [r0]	@ zero_extendqisi2
 3691              		.loc 1 438 0 discriminator 3
 3692 0052 0132     		adds	r2, r2, #1
ARM GAS  C:\Users\jo\AppData\Local\Temp\ccdgtuym.s 			page 66


 3693              	.LVL570:
 3694              		.loc 1 441 0 discriminator 3
 3695 0054 88EA0303 		eor	r3, r8, r3
 3696              		.loc 1 438 0 discriminator 3
 3697 0058 AA42     		cmp	r2, r5
 3698              		.loc 1 441 0 discriminator 3
 3699 005a 00F8013B 		strb	r3, [r0], #1
 3700              		.loc 1 438 0 discriminator 3
 3701 005e EDD3     		bcc	.L78
 3702              	.LVL571:
 3703              	.L77:
 3704              	.LBB92:
 3705              	.LBB93:
 3706              		.loc 1 100 0
 3707 0060 0025     		movs	r5, #0
 3708              	.LVL572:
 3709              		.loc 1 107 0
 3710 0062 1A4B     		ldr	r3, .L87
 3711              		.loc 1 103 0
 3712 0064 DFF870C0 		ldr	ip, .L87+12
 3713              		.loc 1 104 0
 3714 0068 DFF870E0 		ldr	lr, .L87+16
 3715              		.loc 1 105 0
 3716 006c 1848     		ldr	r0, .L87+4
 3717              		.loc 1 106 0
 3718 006e 194A     		ldr	r2, .L87+8
 3719              		.loc 1 105 0
 3720 0070 3061     		str	r0, [r6, #16]
 3721              		.loc 1 106 0
 3722 0072 7261     		str	r2, [r6, #20]
 3723              		.loc 1 107 0
 3724 0074 B361     		str	r3, [r6, #24]
 3725              		.loc 1 100 0
 3726 0076 3560     		str	r5, [r6]
 3727              	.LVL573:
 3728              	.LBE93:
 3729              	.LBE92:
 3730              	.LBB95:
 3731              	.LBB96:
 3732 0078 3946     		mov	r1, r7
 3733              	.LBE96:
 3734              	.LBE95:
 3735              	.LBB98:
 3736              	.LBB94:
 3737              		.loc 1 101 0
 3738 007a 7560     		str	r5, [r6, #4]
 3739              		.loc 1 103 0
 3740 007c C6F808C0 		str	ip, [r6, #8]
 3741              		.loc 1 104 0
 3742 0080 C6F80CE0 		str	lr, [r6, #12]
 3743              	.LBE94:
 3744              	.LBE98:
 3745              	.LBB99:
 3746              	.LBB97:
 3747 0084 3046     		mov	r0, r6
 3748 0086 4022     		movs	r2, #64
 3749 0088 FFF7FEFF 		bl	ripemd160_update.part.0
ARM GAS  C:\Users\jo\AppData\Local\Temp\ccdgtuym.s 			page 67


 3750              	.LVL574:
 3751              	.LBE97:
 3752              	.LBE99:
 3753              	.LBB100:
 3754              	.LBB101:
 3755              		.loc 1 79 0
 3756 008c 2B46     		mov	r3, r5
 3757              	.LVL575:
 3758              	.L79:
 3759 008e 2370     		strb	r3, [r4]
 3760              	.LVL576:
 3761 0090 06AA     		add	r2, sp, #24
 3762 0092 0134     		adds	r4, r4, #1
 3763              	.LVL577:
 3764 0094 9442     		cmp	r4, r2
 3765 0096 FAD1     		bne	.L79
 3766              	.LBE101:
 3767              	.LBE100:
 3768              		.loc 1 448 0
 3769 0098 07B0     		add	sp, sp, #28
 3770              		.cfi_remember_state
 3771              		.cfi_def_cfa_offset 28
 3772              		@ sp needed
 3773 009a BDE8F083 		pop	{r4, r5, r6, r7, r8, r9, pc}
 3774              	.LVL578:
 3775              	.L86:
 3776              		.cfi_restore_state
 3777              		.loc 1 430 0
 3778 009e 01AC     		add	r4, sp, #4
 3779 00a0 0846     		mov	r0, r1
 3780              	.LVL579:
 3781              		.loc 1 435 0
 3782 00a2 06F15C07 		add	r7, r6, #92
 3783              		.loc 1 430 0
 3784 00a6 1146     		mov	r1, r2
 3785              	.LVL580:
 3786 00a8 2246     		mov	r2, r4
 3787              	.LVL581:
 3788 00aa FFF7FEFF 		bl	ripemd160
 3789              	.LVL582:
 3790              		.loc 1 436 0
 3791 00ae 06F19C08 		add	r8, r6, #156
 3792              		.loc 1 435 0
 3793 00b2 3621     		movs	r1, #54
 3794 00b4 4022     		movs	r2, #64
 3795 00b6 3846     		mov	r0, r7
 3796 00b8 FFF7FEFF 		bl	memset
 3797              	.LVL583:
 3798              		.loc 1 436 0
 3799 00bc 4046     		mov	r0, r8
 3800 00be 5C21     		movs	r1, #92
 3801 00c0 4022     		movs	r2, #64
 3802 00c2 FFF7FEFF 		bl	memset
 3803              	.LVL584:
 3804              		.loc 1 432 0
 3805 00c6 A146     		mov	r9, r4
 3806              		.loc 1 431 0
ARM GAS  C:\Users\jo\AppData\Local\Temp\ccdgtuym.s 			page 68


 3807 00c8 1425     		movs	r5, #20
 3808 00ca B1E7     		b	.L76
 3809              	.L88:
 3810              		.align	2
 3811              	.L87:
 3812 00cc F0E1D2C3 		.word	-1009589776
 3813 00d0 FEDCBA98 		.word	-1732584194
 3814 00d4 76543210 		.word	271733878
 3815 00d8 01234567 		.word	1732584193
 3816 00dc 89ABCDEF 		.word	-271733879
 3817              		.cfi_endproc
 3818              	.LFE9:
 3819              		.size	ripemd160_hmac_starts, .-ripemd160_hmac_starts
 3820              		.section	.text.ripemd160_hmac_update,"ax",%progbits
 3821              		.align	2
 3822              		.p2align 4,,15
 3823              		.global	ripemd160_hmac_update
 3824              		.thumb
 3825              		.thumb_func
 3826              		.type	ripemd160_hmac_update, %function
 3827              	ripemd160_hmac_update:
 3828              	.LFB10:
 3829              		.loc 1 455 0
 3830              		.cfi_startproc
 3831              		@ args = 0, pretend = 0, frame = 0
 3832              		@ frame_needed = 0, uses_anonymous_args = 0
 3833              		@ link register save eliminated.
 3834              	.LVL585:
 3835              	.LBB102:
 3836              	.LBB103:
 3837              		.loc 1 299 0
 3838 0000 02B9     		cbnz	r2, .L91
 3839 0002 7047     		bx	lr
 3840              	.L91:
 3841 0004 FFF7FEBF 		b	ripemd160_update.part.0
 3842              	.LVL586:
 3843              	.LBE103:
 3844              	.LBE102:
 3845              		.cfi_endproc
 3846              	.LFE10:
 3847              		.size	ripemd160_hmac_update, .-ripemd160_hmac_update
 3848 0008 AFF30080 		.section	.text.ripemd160_hmac_finish,"ax",%progbits
 3848      AFF30080 
 3849              		.align	2
 3850              		.p2align 4,,15
 3851              		.global	ripemd160_hmac_finish
 3852              		.thumb
 3853              		.thumb_func
 3854              		.type	ripemd160_hmac_finish, %function
 3855              	ripemd160_hmac_finish:
 3856              	.LFB11:
 3857              		.loc 1 463 0
 3858              		.cfi_startproc
 3859              		@ args = 0, pretend = 0, frame = 24
 3860              		@ frame_needed = 0, uses_anonymous_args = 0
 3861              	.LVL587:
 3862 0000 F0B5     		push	{r4, r5, r6, r7, lr}
ARM GAS  C:\Users\jo\AppData\Local\Temp\ccdgtuym.s 			page 69


 3863              		.cfi_def_cfa_offset 20
 3864              		.cfi_offset 4, -20
 3865              		.cfi_offset 5, -16
 3866              		.cfi_offset 6, -12
 3867              		.cfi_offset 7, -8
 3868              		.cfi_offset 14, -4
 3869 0002 87B0     		sub	sp, sp, #28
 3870              		.cfi_def_cfa_offset 48
 3871              		.loc 1 463 0
 3872 0004 0546     		mov	r5, r0
 3873 0006 0E46     		mov	r6, r1
 3874              		.loc 1 466 0
 3875 0008 01A9     		add	r1, sp, #4
 3876              	.LVL588:
 3877 000a FFF7FEFF 		bl	ripemd160_finish
 3878              	.LVL589:
 3879              	.LBB104:
 3880              	.LBB105:
 3881              		.loc 1 100 0
 3882 000e 0024     		movs	r4, #0
 3883              		.loc 1 107 0
 3884 0010 114B     		ldr	r3, .L96
 3885              		.loc 1 104 0
 3886 0012 1248     		ldr	r0, .L96+4
 3887              		.loc 1 105 0
 3888 0014 1249     		ldr	r1, .L96+8
 3889              		.loc 1 106 0
 3890 0016 134A     		ldr	r2, .L96+12
 3891              		.loc 1 103 0
 3892 0018 134F     		ldr	r7, .L96+16
 3893              		.loc 1 107 0
 3894 001a AB61     		str	r3, [r5, #24]
 3895              	.LVL590:
 3896              		.loc 1 104 0
 3897 001c E860     		str	r0, [r5, #12]
 3898              		.loc 1 105 0
 3899 001e 2961     		str	r1, [r5, #16]
 3900              		.loc 1 106 0
 3901 0020 6A61     		str	r2, [r5, #20]
 3902              	.LBE105:
 3903              	.LBE104:
 3904              	.LBB107:
 3905              	.LBB108:
 3906 0022 2846     		mov	r0, r5
 3907 0024 05F19C01 		add	r1, r5, #156
 3908              	.LVL591:
 3909 0028 4022     		movs	r2, #64
 3910              	.LBE108:
 3911              	.LBE107:
 3912              	.LBB110:
 3913              	.LBB106:
 3914              		.loc 1 103 0
 3915 002a AF60     		str	r7, [r5, #8]
 3916              		.loc 1 100 0
 3917 002c 2C60     		str	r4, [r5]
 3918              		.loc 1 101 0
 3919 002e 6C60     		str	r4, [r5, #4]
ARM GAS  C:\Users\jo\AppData\Local\Temp\ccdgtuym.s 			page 70


 3920              	.LBE106:
 3921              	.LBE110:
 3922              	.LBB111:
 3923              	.LBB109:
 3924 0030 FFF7FEFF 		bl	ripemd160_update.part.0
 3925              	.LVL592:
 3926              	.LBE109:
 3927              	.LBE111:
 3928              	.LBB112:
 3929              	.LBB113:
 3930 0034 1422     		movs	r2, #20
 3931 0036 2846     		mov	r0, r5
 3932 0038 01A9     		add	r1, sp, #4
 3933              	.LVL593:
 3934 003a FFF7FEFF 		bl	ripemd160_update.part.0
 3935              	.LVL594:
 3936              	.LBE113:
 3937              	.LBE112:
 3938              		.loc 1 470 0
 3939 003e 2846     		mov	r0, r5
 3940 0040 3146     		mov	r1, r6
 3941 0042 FFF7FEFF 		bl	ripemd160_finish
 3942              	.LVL595:
 3943              	.LBB114:
 3944              	.LBB115:
 3945              		.loc 1 79 0
 3946 0046 01AB     		add	r3, sp, #4
 3947              	.LVL596:
 3948 0048 2246     		mov	r2, r4
 3949              	.LVL597:
 3950              	.L93:
 3951 004a 1A70     		strb	r2, [r3]
 3952              	.LVL598:
 3953 004c 06A9     		add	r1, sp, #24
 3954 004e 0133     		adds	r3, r3, #1
 3955              	.LVL599:
 3956 0050 8B42     		cmp	r3, r1
 3957 0052 FAD1     		bne	.L93
 3958              	.LBE115:
 3959              	.LBE114:
 3960              		.loc 1 473 0
 3961 0054 07B0     		add	sp, sp, #28
 3962              		.cfi_def_cfa_offset 20
 3963              		@ sp needed
 3964 0056 F0BD     		pop	{r4, r5, r6, r7, pc}
 3965              	.LVL600:
 3966              	.L97:
 3967              		.align	2
 3968              	.L96:
 3969 0058 F0E1D2C3 		.word	-1009589776
 3970 005c 89ABCDEF 		.word	-271733879
 3971 0060 FEDCBA98 		.word	-1732584194
 3972 0064 76543210 		.word	271733878
 3973 0068 01234567 		.word	1732584193
 3974              		.cfi_endproc
 3975              	.LFE11:
 3976              		.size	ripemd160_hmac_finish, .-ripemd160_hmac_finish
ARM GAS  C:\Users\jo\AppData\Local\Temp\ccdgtuym.s 			page 71


 3977 006c AFF30080 		.section	.text.ripemd160_hmac_reset,"ax",%progbits
 3978              		.align	2
 3979              		.p2align 4,,15
 3980              		.global	ripemd160_hmac_reset
 3981              		.thumb
 3982              		.thumb_func
 3983              		.type	ripemd160_hmac_reset, %function
 3984              	ripemd160_hmac_reset:
 3985              	.LFB12:
 3986              		.loc 1 479 0
 3987              		.cfi_startproc
 3988              		@ args = 0, pretend = 0, frame = 0
 3989              		@ frame_needed = 0, uses_anonymous_args = 0
 3990              		@ link register save eliminated.
 3991              	.LVL601:
 3992 0000 70B4     		push	{r4, r5, r6}
 3993              		.cfi_def_cfa_offset 12
 3994              		.cfi_offset 4, -12
 3995              		.cfi_offset 5, -8
 3996              		.cfi_offset 6, -4
 3997              	.LBB116:
 3998              	.LBB117:
 3999              		.loc 1 103 0
 4000 0002 094B     		ldr	r3, .L100
 4001              		.loc 1 104 0
 4002 0004 094E     		ldr	r6, .L100+4
 4003              		.loc 1 105 0
 4004 0006 0A4D     		ldr	r5, .L100+8
 4005              		.loc 1 106 0
 4006 0008 0A4C     		ldr	r4, .L100+12
 4007              		.loc 1 107 0
 4008 000a 0B4A     		ldr	r2, .L100+16
 4009              		.loc 1 103 0
 4010 000c 8360     		str	r3, [r0, #8]
 4011              	.LBE117:
 4012              	.LBE116:
 4013              		.loc 1 479 0
 4014 000e 0146     		mov	r1, r0
 4015              	.LVL602:
 4016              	.LBB119:
 4017              	.LBB118:
 4018              		.loc 1 100 0
 4019 0010 0023     		movs	r3, #0
 4020              		.loc 1 104 0
 4021 0012 C660     		str	r6, [r0, #12]
 4022              		.loc 1 105 0
 4023 0014 0561     		str	r5, [r0, #16]
 4024              		.loc 1 106 0
 4025 0016 4461     		str	r4, [r0, #20]
 4026              		.loc 1 107 0
 4027 0018 8261     		str	r2, [r0, #24]
 4028              	.LVL603:
 4029              		.loc 1 100 0
 4030 001a 0360     		str	r3, [r0]
 4031              		.loc 1 101 0
 4032 001c 4360     		str	r3, [r0, #4]
 4033              	.LBE118:
ARM GAS  C:\Users\jo\AppData\Local\Temp\ccdgtuym.s 			page 72


 4034              	.LBE119:
 4035              	.LBB120:
 4036              	.LBB121:
 4037 001e 5C31     		adds	r1, r1, #92
 4038              	.LVL604:
 4039 0020 4022     		movs	r2, #64
 4040              	.LBE121:
 4041              	.LBE120:
 4042              		.loc 1 482 0
 4043 0022 70BC     		pop	{r4, r5, r6}
 4044              		.cfi_restore 6
 4045              		.cfi_restore 5
 4046              		.cfi_restore 4
 4047              		.cfi_def_cfa_offset 0
 4048              	.LBB123:
 4049              	.LBB122:
 4050 0024 FFF7FEBF 		b	ripemd160_update.part.0
 4051              	.LVL605:
 4052              	.L101:
 4053              		.align	2
 4054              	.L100:
 4055 0028 01234567 		.word	1732584193
 4056 002c 89ABCDEF 		.word	-271733879
 4057 0030 FEDCBA98 		.word	-1732584194
 4058 0034 76543210 		.word	271733878
 4059 0038 F0E1D2C3 		.word	-1009589776
 4060              	.LBE122:
 4061              	.LBE123:
 4062              		.cfi_endproc
 4063              	.LFE12:
 4064              		.size	ripemd160_hmac_reset, .-ripemd160_hmac_reset
 4065 003c AFF30080 		.section	.text.ripemd160_hmac,"ax",%progbits
 4066              		.align	2
 4067              		.p2align 4,,15
 4068              		.global	ripemd160_hmac
 4069              		.thumb
 4070              		.thumb_func
 4071              		.type	ripemd160_hmac, %function
 4072              	ripemd160_hmac:
 4073              	.LFB13:
 4074              		.loc 1 490 0
 4075              		.cfi_startproc
 4076              		@ args = 4, pretend = 0, frame = 224
 4077              		@ frame_needed = 0, uses_anonymous_args = 0
 4078              	.LVL606:
 4079 0000 F0B5     		push	{r4, r5, r6, r7, lr}
 4080              		.cfi_def_cfa_offset 20
 4081              		.cfi_offset 4, -20
 4082              		.cfi_offset 5, -16
 4083              		.cfi_offset 6, -12
 4084              		.cfi_offset 7, -8
 4085              		.cfi_offset 14, -4
 4086 0002 B9B0     		sub	sp, sp, #228
 4087              		.cfi_def_cfa_offset 248
 4088              	.LVL607:
 4089              		.loc 1 490 0
 4090 0004 0646     		mov	r6, r0
ARM GAS  C:\Users\jo\AppData\Local\Temp\ccdgtuym.s 			page 73


 4091 0006 0D46     		mov	r5, r1
 4092 0008 1746     		mov	r7, r2
 4093              	.LBB124:
 4094              	.LBB125:
 4095              		.loc 1 84 0
 4096 000a 0021     		movs	r1, #0
 4097              	.LVL608:
 4098 000c DC22     		movs	r2, #220
 4099              	.LVL609:
 4100 000e 01A8     		add	r0, sp, #4
 4101              	.LVL610:
 4102              	.LBE125:
 4103              	.LBE124:
 4104              		.loc 1 490 0
 4105 0010 1C46     		mov	r4, r3
 4106              	.LBB127:
 4107              	.LBB126:
 4108              		.loc 1 84 0
 4109 0012 FFF7FEFF 		bl	memset
 4110              	.LVL611:
 4111              	.LBE126:
 4112              	.LBE127:
 4113              		.loc 1 494 0
 4114 0016 01A8     		add	r0, sp, #4
 4115              	.LVL612:
 4116 0018 3146     		mov	r1, r6
 4117 001a 2A46     		mov	r2, r5
 4118 001c FFF7FEFF 		bl	ripemd160_hmac_starts
 4119              	.LVL613:
 4120              	.LBB128:
 4121              	.LBB129:
 4122              	.LBB130:
 4123              		.loc 1 299 0
 4124 0020 64B9     		cbnz	r4, .L110
 4125              	.L103:
 4126              	.LBE130:
 4127              	.LBE129:
 4128              	.LBE128:
 4129              		.loc 1 496 0
 4130 0022 01A8     		add	r0, sp, #4
 4131              	.LVL614:
 4132 0024 3E99     		ldr	r1, [sp, #248]
 4133 0026 FFF7FEFF 		bl	ripemd160_hmac_finish
 4134              	.LVL615:
 4135 002a 01AB     		add	r3, sp, #4
 4136              	.LVL616:
 4137              	.LBB133:
 4138              	.LBB134:
 4139              	.LBB135:
 4140              		.loc 1 79 0
 4141 002c 0022     		movs	r2, #0
 4142              	.LVL617:
 4143              	.L104:
 4144 002e 1A70     		strb	r2, [r3]
 4145              	.LVL618:
 4146 0030 38A9     		add	r1, sp, #224
 4147 0032 0133     		adds	r3, r3, #1
ARM GAS  C:\Users\jo\AppData\Local\Temp\ccdgtuym.s 			page 74


 4148              	.LVL619:
 4149 0034 8B42     		cmp	r3, r1
 4150 0036 FAD1     		bne	.L104
 4151              	.LBE135:
 4152              	.LBE134:
 4153              	.LBE133:
 4154              		.loc 1 498 0
 4155 0038 39B0     		add	sp, sp, #228
 4156              		.cfi_remember_state
 4157              		.cfi_def_cfa_offset 20
 4158              		@ sp needed
 4159 003a F0BD     		pop	{r4, r5, r6, r7, pc}
 4160              	.LVL620:
 4161              	.L110:
 4162              		.cfi_restore_state
 4163              	.LBB136:
 4164              	.LBB132:
 4165              	.LBB131:
 4166 003c 3946     		mov	r1, r7
 4167 003e 2246     		mov	r2, r4
 4168 0040 01A8     		add	r0, sp, #4
 4169              	.LVL621:
 4170 0042 FFF7FEFF 		bl	ripemd160_update.part.0
 4171              	.LVL622:
 4172 0046 ECE7     		b	.L103
 4173              	.LBE131:
 4174              	.LBE132:
 4175              	.LBE136:
 4176              		.cfi_endproc
 4177              	.LFE13:
 4178              		.size	ripemd160_hmac, .-ripemd160_hmac
 4179 0048 AFF30080 		.section	.text.ripemd160_self_test,"ax",%progbits
 4179      AFF30080 
 4180              		.align	2
 4181              		.p2align 4,,15
 4182              		.global	ripemd160_self_test
 4183              		.thumb
 4184              		.thumb_func
 4185              		.type	ripemd160_self_test, %function
 4186              	ripemd160_self_test:
 4187              	.LFB14:
 4188              		.loc 1 593 0
 4189              		.cfi_startproc
 4190              		@ args = 0, pretend = 0, frame = 40
 4191              		@ frame_needed = 0, uses_anonymous_args = 0
 4192              	.LVL623:
 4193 0000 2DE9F04F 		push	{r4, r5, r6, r7, r8, r9, r10, fp, lr}
 4194              		.cfi_def_cfa_offset 36
 4195              		.cfi_offset 4, -36
 4196              		.cfi_offset 5, -32
 4197              		.cfi_offset 6, -28
 4198              		.cfi_offset 7, -24
 4199              		.cfi_offset 8, -20
 4200              		.cfi_offset 9, -16
 4201              		.cfi_offset 10, -12
 4202              		.cfi_offset 11, -8
 4203              		.cfi_offset 14, -4
ARM GAS  C:\Users\jo\AppData\Local\Temp\ccdgtuym.s 			page 75


 4204 0004 8DB0     		sub	sp, sp, #52
 4205              		.cfi_def_cfa_offset 88
 4206 0006 3F4A     		ldr	r2, .L147
 4207 0008 0392     		str	r2, [sp, #12]
 4208              		.loc 1 597 0
 4209 000a 0023     		movs	r3, #0
 4210 000c 3E4A     		ldr	r2, .L147+4
 4211 000e DFF810B1 		ldr	fp, .L147+28
 4212 0012 0492     		str	r2, [sp, #16]
 4213 0014 0793     		str	r3, [sp, #28]
 4214              		.loc 1 593 0
 4215 0016 0446     		mov	r4, r0
 4216              		.loc 1 597 0
 4217 0018 0893     		str	r3, [sp, #32]
 4218 001a 0993     		str	r3, [sp, #36]
 4219 001c 0A93     		str	r3, [sp, #40]
 4220 001e 0B93     		str	r3, [sp, #44]
 4221              	.LVL624:
 4222 0020 4FF0010A 		mov	r10, #1
 4223 0024 0DF11C08 		add	r8, sp, #28
 4224              	.LVL625:
 4225              	.L121:
 4226              		.loc 1 601 0
 4227 0028 002C     		cmp	r4, #0
 4228 002a 50D1     		bne	.L142
 4229              	.L112:
 4230              		.loc 1 604 0
 4231 002c 049B     		ldr	r3, [sp, #16]
 4232 002e 53F8045F 		ldr	r5, [r3, #4]!
 4233 0032 0493     		str	r3, [sp, #16]
 4234 0034 2846     		mov	r0, r5
 4235 0036 FFF7FEFF 		bl	strlen
 4236              	.LVL626:
 4237 003a 4246     		mov	r2, r8
 4238 003c 0146     		mov	r1, r0
 4239 003e 2846     		mov	r0, r5
 4240 0040 FFF7FEFF 		bl	ripemd160
 4241              	.LVL627:
 4242              		.loc 1 608 0
 4243 0044 4046     		mov	r0, r8
 4244 0046 5946     		mov	r1, fp
 4245 0048 1422     		movs	r2, #20
 4246 004a FFF7FEFF 		bl	memcmp
 4247              	.LVL628:
 4248 004e 0028     		cmp	r0, #0
 4249 0050 4CD1     		bne	.L117
 4250              		.loc 1 616 0
 4251 0052 002C     		cmp	r4, #0
 4252 0054 40D1     		bne	.L143
 4253              	.L115:
 4254              	.LVL629:
 4255 0056 2D4F     		ldr	r7, .L147+8
 4256 0058 039E     		ldr	r6, [sp, #12]
 4257 005a 4FF00109 		mov	r9, #1
 4258              	.LVL630:
 4259              		.loc 1 621 0 discriminator 1
 4260 005e 54BB     		cbnz	r4, .L144
ARM GAS  C:\Users\jo\AppData\Local\Temp\ccdgtuym.s 			page 76


 4261              	.LVL631:
 4262              	.L116:
 4263              		.loc 1 625 0
 4264 0060 2846     		mov	r0, r5
 4265 0062 FFF7FEFF 		bl	strlen
 4266              	.LVL632:
 4267 0066 1421     		movs	r1, #20
 4268 0068 0346     		mov	r3, r0
 4269 006a 2A46     		mov	r2, r5
 4270 006c 3846     		mov	r0, r7
 4271 006e CDF80080 		str	r8, [sp]
 4272 0072 FFF7FEFF 		bl	ripemd160_hmac
 4273              	.LVL633:
 4274              		.loc 1 630 0
 4275 0076 3146     		mov	r1, r6
 4276 0078 4046     		mov	r0, r8
 4277 007a 1422     		movs	r2, #20
 4278 007c FFF7FEFF 		bl	memcmp
 4279              	.LVL634:
 4280 0080 1437     		adds	r7, r7, #20
 4281 0082 0346     		mov	r3, r0
 4282 0084 A036     		adds	r6, r6, #160
 4283 0086 88BB     		cbnz	r0, .L117
 4284              		.loc 1 638 0
 4285 0088 DCB9     		cbnz	r4, .L145
 4286              	.L118:
 4287              	.LVL635:
 4288              		.loc 1 619 0 discriminator 2
 4289 008a B9F1020F 		cmp	r9, #2
 4290 008e 0ED1     		bne	.L123
 4291              		.loc 1 642 0
 4292 0090 34BB     		cbnz	r4, .L146
 4293              	.L120:
 4294              	.LVL636:
 4295 0092 039A     		ldr	r2, [sp, #12]
 4296 0094 0AF1010A 		add	r10, r10, #1
 4297              	.LVL637:
 4298 0098 1432     		adds	r2, r2, #20
 4299              		.loc 1 599 0 discriminator 2
 4300 009a BAF1090F 		cmp	r10, #9
 4301 009e 0392     		str	r2, [sp, #12]
 4302 00a0 0BF1140B 		add	fp, fp, #20
 4303 00a4 C0D1     		bne	.L121
 4304              	.LVL638:
 4305              	.L114:
 4306              		.loc 1 647 0
 4307 00a6 1846     		mov	r0, r3
 4308 00a8 0DB0     		add	sp, sp, #52
 4309              		.cfi_remember_state
 4310              		.cfi_def_cfa_offset 36
 4311              		@ sp needed
 4312 00aa BDE8F08F 		pop	{r4, r5, r6, r7, r8, r9, r10, fp, pc}
 4313              	.LVL639:
 4314              	.L123:
 4315              		.cfi_restore_state
 4316 00ae 4FF00209 		mov	r9, #2
 4317              	.LVL640:
ARM GAS  C:\Users\jo\AppData\Local\Temp\ccdgtuym.s 			page 77


 4318              		.loc 1 621 0
 4319 00b2 002C     		cmp	r4, #0
 4320 00b4 D4D0     		beq	.L116
 4321              	.LVL641:
 4322              	.L144:
 4323              		.loc 1 622 0
 4324 00b6 5146     		mov	r1, r10
 4325 00b8 4A46     		mov	r2, r9
 4326 00ba 1548     		ldr	r0, .L147+12
 4327 00bc FFF7FEFF 		bl	printf
 4328              	.LVL642:
 4329 00c0 CEE7     		b	.L116
 4330              	.L145:
 4331 00c2 0590     		str	r0, [sp, #20]
 4332              		.loc 1 639 0
 4333 00c4 1348     		ldr	r0, .L147+16
 4334 00c6 FFF7FEFF 		bl	puts
 4335              	.LVL643:
 4336 00ca 059B     		ldr	r3, [sp, #20]
 4337 00cc DDE7     		b	.L118
 4338              	.L142:
 4339              		.loc 1 602 0
 4340 00ce 5146     		mov	r1, r10
 4341 00d0 1148     		ldr	r0, .L147+20
 4342 00d2 FFF7FEFF 		bl	printf
 4343              	.LVL644:
 4344 00d6 A9E7     		b	.L112
 4345              	.L143:
 4346              		.loc 1 617 0
 4347 00d8 0E48     		ldr	r0, .L147+16
 4348 00da FFF7FEFF 		bl	puts
 4349              	.LVL645:
 4350 00de BAE7     		b	.L115
 4351              	.LVL646:
 4352              	.L146:
 4353              		.loc 1 643 0
 4354 00e0 0A20     		movs	r0, #10
 4355 00e2 0593     		str	r3, [sp, #20]
 4356 00e4 FFF7FEFF 		bl	putchar
 4357              	.LVL647:
 4358 00e8 059B     		ldr	r3, [sp, #20]
 4359 00ea D2E7     		b	.L120
 4360              	.LVL648:
 4361              	.L117:
 4362              		.loc 1 613 0
 4363 00ec 0123     		movs	r3, #1
 4364              		.loc 1 610 0
 4365 00ee 002C     		cmp	r4, #0
 4366 00f0 D9D0     		beq	.L114
 4367              		.loc 1 611 0
 4368 00f2 0A48     		ldr	r0, .L147+24
 4369 00f4 FFF7FEFF 		bl	puts
 4370              	.LVL649:
 4371              		.loc 1 613 0
 4372 00f8 0123     		movs	r3, #1
 4373              		.loc 1 647 0
 4374 00fa 1846     		mov	r0, r3
ARM GAS  C:\Users\jo\AppData\Local\Temp\ccdgtuym.s 			page 78


 4375 00fc 0DB0     		add	sp, sp, #52
 4376              		.cfi_def_cfa_offset 36
 4377              		@ sp needed
 4378 00fe BDE8F08F 		pop	{r4, r5, r6, r7, r8, r9, r10, fp, pc}
 4379              	.LVL650:
 4380              	.L148:
 4381 0102 00BF     		.align	2
 4382              	.L147:
 4383 0104 00000000 		.word	.LANCHOR1
 4384 0108 FCFFFFFF 		.word	.LANCHOR2-4
 4385 010c 00000000 		.word	.LANCHOR4
 4386 0110 2C000000 		.word	.LC4
 4387 0114 24000000 		.word	.LC3
 4388 0118 04000000 		.word	.LC1
 4389 011c 1C000000 		.word	.LC2
 4390 0120 00000000 		.word	.LANCHOR3
 4391              		.cfi_endproc
 4392              	.LFE14:
 4393              		.size	ripemd160_self_test, .-ripemd160_self_test
 4394 0124 AFF30080 		.section	.rodata.ripemd160_test_hmac,"a",%progbits
 4394      AFF30080 
 4394      AFF30080 
 4395              		.align	2
 4396              		.set	.LANCHOR1,. + 0
 4397              		.type	ripemd160_test_hmac, %object
 4398              		.size	ripemd160_test_hmac, 320
 4399              	ripemd160_test_hmac:
 4400 0000 CF       		.byte	-49
 4401 0001 38       		.byte	56
 4402 0002 76       		.byte	118
 4403 0003 77       		.byte	119
 4404 0004 BF       		.byte	-65
 4405 0005 DA       		.byte	-38
 4406 0006 84       		.byte	-124
 4407 0007 83       		.byte	-125
 4408 0008 E6       		.byte	-26
 4409 0009 3B       		.byte	59
 4410 000a 57       		.byte	87
 4411 000b E0       		.byte	-32
 4412 000c 6C       		.byte	108
 4413 000d 3B       		.byte	59
 4414 000e 5E       		.byte	94
 4415 000f CD       		.byte	-51
 4416 0010 8B       		.byte	-117
 4417 0011 7F       		.byte	127
 4418 0012 C0       		.byte	-64
 4419 0013 55       		.byte	85
 4420 0014 0D       		.byte	13
 4421 0015 35       		.byte	53
 4422 0016 1D       		.byte	29
 4423 0017 71       		.byte	113
 4424 0018 B7       		.byte	-73
 4425 0019 8E       		.byte	-114
 4426 001a 36       		.byte	54
 4427 001b DB       		.byte	-37
 4428 001c B7       		.byte	-73
 4429 001d 39       		.byte	57
ARM GAS  C:\Users\jo\AppData\Local\Temp\ccdgtuym.s 			page 79


 4430 001e 1C       		.byte	28
 4431 001f 81       		.byte	-127
 4432 0020 0A       		.byte	10
 4433 0021 0D       		.byte	13
 4434 0022 2B       		.byte	43
 4435 0023 62       		.byte	98
 4436 0024 40       		.byte	64
 4437 0025 DD       		.byte	-35
 4438 0026 BA       		.byte	-70
 4439 0027 FC       		.byte	-4
 4440 0028 F7       		.byte	-9
 4441 0029 EF       		.byte	-17
 4442 002a 28       		.byte	40
 4443 002b 8C       		.byte	-116
 4444 002c B1       		.byte	-79
 4445 002d BB       		.byte	-69
 4446 002e CC       		.byte	-52
 4447 002f 61       		.byte	97
 4448 0030 60       		.byte	96
 4449 0031 D7       		.byte	-41
 4450 0032 65       		.byte	101
 4451 0033 07       		.byte	7
 4452 0034 E0       		.byte	-32
 4453 0035 A3       		.byte	-93
 4454 0036 BB       		.byte	-69
 4455 0037 F7       		.byte	-9
 4456 0038 12       		.byte	18
 4457 0039 FB       		.byte	-5
 4458 003a 67       		.byte	103
 4459 003b D6       		.byte	-42
 4460 003c F8       		.byte	-8
 4461 003d 36       		.byte	54
 4462 003e 62       		.byte	98
 4463 003f CC       		.byte	-52
 4464 0040 8D       		.byte	-115
 4465 0041 33       		.byte	51
 4466 0042 9C       		.byte	-100
 4467 0043 22       		.byte	34
 4468 0044 7E       		.byte	126
 4469 0045 60       		.byte	96
 4470 0046 0F       		.byte	15
 4471 0047 CD       		.byte	-51
 4472 0048 63       		.byte	99
 4473 0049 6C       		.byte	108
 4474 004a 57       		.byte	87
 4475 004b D2       		.byte	-46
 4476 004c 57       		.byte	87
 4477 004d 1B       		.byte	27
 4478 004e 1C       		.byte	28
 4479 004f 34       		.byte	52
 4480 0050 84       		.byte	-124
 4481 0051 3D       		.byte	61
 4482 0052 1C       		.byte	28
 4483 0053 4E       		.byte	78
 4484 0054 B8       		.byte	-72
 4485 0055 80       		.byte	-128
 4486 0056 AC       		.byte	-84
ARM GAS  C:\Users\jo\AppData\Local\Temp\ccdgtuym.s 			page 80


 4487 0057 8A       		.byte	-118
 4488 0058 C0       		.byte	-64
 4489 0059 C9       		.byte	-55
 4490 005a C9       		.byte	-55
 4491 005b 56       		.byte	86
 4492 005c 96       		.byte	-106
 4493 005d 50       		.byte	80
 4494 005e 79       		.byte	121
 4495 005f 57       		.byte	87
 4496 0060 D0       		.byte	-48
 4497 0061 15       		.byte	21
 4498 0062 5D       		.byte	93
 4499 0063 DB       		.byte	-37
 4500 0064 60       		.byte	96
 4501 0065 F5       		.byte	-11
 4502 0066 EF       		.byte	-17
 4503 0067 19       		.byte	25
 4504 0068 8A       		.byte	-118
 4505 0069 2D       		.byte	45
 4506 006a D5       		.byte	-43
 4507 006b 74       		.byte	116
 4508 006c 55       		.byte	85
 4509 006d 45       		.byte	69
 4510 006e C1       		.byte	-63
 4511 006f F0       		.byte	-16
 4512 0070 C4       		.byte	-60
 4513 0071 7A       		.byte	122
 4514 0072 A3       		.byte	-93
 4515 0073 FB       		.byte	-5
 4516 0074 57       		.byte	87
 4517 0075 76       		.byte	118
 4518 0076 F8       		.byte	-8
 4519 0077 81       		.byte	-127
 4520 0078 E4       		.byte	-28
 4521 0079 9C       		.byte	-100
 4522 007a 13       		.byte	19
 4523 007b 6A       		.byte	106
 4524 007c 9E       		.byte	-98
 4525 007d 56       		.byte	86
 4526 007e 27       		.byte	39
 4527 007f E0       		.byte	-32
 4528 0080 68       		.byte	104
 4529 0081 1B       		.byte	27
 4530 0082 80       		.byte	-128
 4531 0083 8A       		.byte	-118
 4532 0084 3B       		.byte	59
 4533 0085 97       		.byte	-105
 4534 0086 E6       		.byte	-26
 4535 0087 A6       		.byte	-90
 4536 0088 E6       		.byte	-26
 4537 0089 61       		.byte	97
 4538 008a AE       		.byte	-82
 4539 008b 79       		.byte	121
 4540 008c 31       		.byte	49
 4541 008d BE       		.byte	-66
 4542 008e 3C       		.byte	60
 4543 008f C9       		.byte	-55
ARM GAS  C:\Users\jo\AppData\Local\Temp\ccdgtuym.s 			page 81


 4544 0090 8C       		.byte	-116
 4545 0091 EE       		.byte	-18
 4546 0092 37       		.byte	55
 4547 0093 B7       		.byte	-73
 4548 0094 9B       		.byte	-101
 4549 0095 06       		.byte	6
 4550 0096 19       		.byte	25
 4551 0097 E3       		.byte	-29
 4552 0098 E1       		.byte	-31
 4553 0099 C2       		.byte	-62
 4554 009a BE       		.byte	-66
 4555 009b 4F       		.byte	79
 4556 009c 1A       		.byte	26
 4557 009d A5       		.byte	-91
 4558 009e 6E       		.byte	110
 4559 009f 6C       		.byte	108
 4560 00a0 FE       		.byte	-2
 4561 00a1 69       		.byte	105
 4562 00a2 A6       		.byte	-90
 4563 00a3 6C       		.byte	108
 4564 00a4 74       		.byte	116
 4565 00a5 23       		.byte	35
 4566 00a6 EE       		.byte	-18
 4567 00a7 A9       		.byte	-87
 4568 00a8 C8       		.byte	-56
 4569 00a9 FA       		.byte	-6
 4570 00aa 2E       		.byte	46
 4571 00ab FF       		.byte	-1
 4572 00ac 8D       		.byte	-115
 4573 00ad 9D       		.byte	-99
 4574 00ae AF       		.byte	-81
 4575 00af B4       		.byte	-76
 4576 00b0 F1       		.byte	-15
 4577 00b1 7A       		.byte	122
 4578 00b2 62       		.byte	98
 4579 00b3 F5       		.byte	-11
 4580 00b4 85       		.byte	-123
 4581 00b5 74       		.byte	116
 4582 00b6 3E       		.byte	62
 4583 00b7 89       		.byte	-119
 4584 00b8 9B       		.byte	-101
 4585 00b9 C8       		.byte	-56
 4586 00ba 2D       		.byte	45
 4587 00bb BF       		.byte	-65
 4588 00bc A3       		.byte	-93
 4589 00bd 6F       		.byte	111
 4590 00be AA       		.byte	-86
 4591 00bf A7       		.byte	-89
 4592 00c0 A2       		.byte	-94
 4593 00c1 5B       		.byte	91
 4594 00c2 7C       		.byte	124
 4595 00c3 FD       		.byte	-3
 4596 00c4 37       		.byte	55
 4597 00c5 24       		.byte	36
 4598 00c6 32       		.byte	50
 4599 00c7 CD       		.byte	-51
 4600 00c8 6E       		.byte	110
ARM GAS  C:\Users\jo\AppData\Local\Temp\ccdgtuym.s 			page 82


 4601 00c9 4A       		.byte	74
 4602 00ca FD       		.byte	-3
 4603 00cb 50       		.byte	80
 4604 00cc 1F       		.byte	31
 4605 00cd A6       		.byte	-90
 4606 00ce B4       		.byte	-76
 4607 00cf A1       		.byte	-95
 4608 00d0 82       		.byte	-126
 4609 00d1 3C       		.byte	60
 4610 00d2 A3       		.byte	-93
 4611 00d3 B1       		.byte	-79
 4612 00d4 0B       		.byte	11
 4613 00d5 D9       		.byte	-39
 4614 00d6 AA       		.byte	-86
 4615 00d7 0B       		.byte	11
 4616 00d8 A9       		.byte	-87
 4617 00d9 7B       		.byte	123
 4618 00da A1       		.byte	-95
 4619 00db 82       		.byte	-126
 4620 00dc 2E       		.byte	46
 4621 00dd 06       		.byte	6
 4622 00de 6E       		.byte	110
 4623 00df 62       		.byte	98
 4624 00e0 4B       		.byte	75
 4625 00e1 AD       		.byte	-83
 4626 00e2 B7       		.byte	-73
 4627 00e3 6A       		.byte	106
 4628 00e4 18       		.byte	24
 4629 00e5 4C       		.byte	76
 4630 00e6 8F       		.byte	-113
 4631 00e7 90       		.byte	-112
 4632 00e8 FB       		.byte	-5
 4633 00e9 A0       		.byte	-96
 4634 00ea 53       		.byte	83
 4635 00eb 33       		.byte	51
 4636 00ec 0E       		.byte	14
 4637 00ed 65       		.byte	101
 4638 00ee 0E       		.byte	14
 4639 00ef 92       		.byte	-110
 4640 00f0 07       		.byte	7
 4641 00f1 E9       		.byte	-23
 4642 00f2 42       		.byte	66
 4643 00f3 AA       		.byte	-86
 4644 00f4 4E       		.byte	78
 4645 00f5 3C       		.byte	60
 4646 00f6 D7       		.byte	-41
 4647 00f7 C0       		.byte	-64
 4648 00f8 4D       		.byte	77
 4649 00f9 ED       		.byte	-19
 4650 00fa C1       		.byte	-63
 4651 00fb D4       		.byte	-44
 4652 00fc 6E       		.byte	110
 4653 00fd 2E       		.byte	46
 4654 00fe 8C       		.byte	-116
 4655 00ff C4       		.byte	-60
 4656 0100 C7       		.byte	-57
 4657 0101 41       		.byte	65
ARM GAS  C:\Users\jo\AppData\Local\Temp\ccdgtuym.s 			page 83


 4658 0102 B3       		.byte	-77
 4659 0103 D9       		.byte	-39
 4660 0104 B6       		.byte	-74
 4661 0105 58       		.byte	88
 4662 0106 23       		.byte	35
 4663 0107 18       		.byte	24
 4664 0108 DD       		.byte	-35
 4665 0109 CF       		.byte	-49
 4666 010a B6       		.byte	-74
 4667 010b 7A       		.byte	122
 4668 010c 53       		.byte	83
 4669 010d A6       		.byte	-90
 4670 010e 7D       		.byte	125
 4671 010f 67       		.byte	103
 4672 0110 6B       		.byte	107
 4673 0111 8A       		.byte	-118
 4674 0112 D8       		.byte	-40
 4675 0113 69       		.byte	105
 4676 0114 AD       		.byte	-83
 4677 0115 ED       		.byte	-19
 4678 0116 62       		.byte	98
 4679 0117 9A       		.byte	-102
 4680 0118 F1       		.byte	-15
 4681 0119 BE       		.byte	-66
 4682 011a 3E       		.byte	62
 4683 011b E8       		.byte	-24
 4684 011c 77       		.byte	119
 4685 011d 70       		.byte	112
 4686 011e 31       		.byte	49
 4687 011f 40       		.byte	64
 4688 0120 D3       		.byte	-45
 4689 0121 4F       		.byte	79
 4690 0122 97       		.byte	-105
 4691 0123 EA       		.byte	-22
 4692 0124 1A       		.byte	26
 4693 0125 B3       		.byte	-77
 4694 0126 A0       		.byte	-96
 4695 0127 7C       		.byte	124
 4696 0128 14       		.byte	20
 4697 0129 13       		.byte	19
 4698 012a 33       		.byte	51
 4699 012b E2       		.byte	-30
 4700 012c 85       		.byte	-123
 4701 012d F1       		.byte	-15
 4702 012e 64       		.byte	100
 4703 012f 70       		.byte	112
 4704 0130 3E       		.byte	62
 4705 0131 61       		.byte	97
 4706 0132 A6       		.byte	-90
 4707 0133 31       		.byte	49
 4708 0134 31       		.byte	49
 4709 0135 BE       		.byte	-66
 4710 0136 7E       		.byte	126
 4711 0137 45       		.byte	69
 4712 0138 95       		.byte	-107
 4713 0139 8E       		.byte	-114
 4714 013a 07       		.byte	7
ARM GAS  C:\Users\jo\AppData\Local\Temp\ccdgtuym.s 			page 84


 4715 013b 94       		.byte	-108
 4716 013c 12       		.byte	18
 4717 013d 39       		.byte	57
 4718 013e 04       		.byte	4
 4719 013f F9       		.byte	-7
 4720              		.section	.rodata.ripemd160_test_md,"a",%progbits
 4721              		.align	2
 4722              		.set	.LANCHOR3,. + 0
 4723              		.type	ripemd160_test_md, %object
 4724              		.size	ripemd160_test_md, 160
 4725              	ripemd160_test_md:
 4726 0000 9C       		.byte	-100
 4727 0001 11       		.byte	17
 4728 0002 85       		.byte	-123
 4729 0003 A5       		.byte	-91
 4730 0004 C5       		.byte	-59
 4731 0005 E9       		.byte	-23
 4732 0006 FC       		.byte	-4
 4733 0007 54       		.byte	84
 4734 0008 61       		.byte	97
 4735 0009 28       		.byte	40
 4736 000a 08       		.byte	8
 4737 000b 97       		.byte	-105
 4738 000c 7E       		.byte	126
 4739 000d E8       		.byte	-24
 4740 000e F5       		.byte	-11
 4741 000f 48       		.byte	72
 4742 0010 B2       		.byte	-78
 4743 0011 25       		.byte	37
 4744 0012 8D       		.byte	-115
 4745 0013 31       		.byte	49
 4746 0014 0B       		.byte	11
 4747 0015 DC       		.byte	-36
 4748 0016 9D       		.byte	-99
 4749 0017 2D       		.byte	45
 4750 0018 25       		.byte	37
 4751 0019 6B       		.byte	107
 4752 001a 3E       		.byte	62
 4753 001b E9       		.byte	-23
 4754 001c DA       		.byte	-38
 4755 001d AE       		.byte	-82
 4756 001e 34       		.byte	52
 4757 001f 7B       		.byte	123
 4758 0020 E6       		.byte	-26
 4759 0021 F4       		.byte	-12
 4760 0022 DC       		.byte	-36
 4761 0023 83       		.byte	-125
 4762 0024 5A       		.byte	90
 4763 0025 46       		.byte	70
 4764 0026 7F       		.byte	127
 4765 0027 FE       		.byte	-2
 4766 0028 8E       		.byte	-114
 4767 0029 B2       		.byte	-78
 4768 002a 08       		.byte	8
 4769 002b F7       		.byte	-9
 4770 002c E0       		.byte	-32
 4771 002d 5D       		.byte	93
ARM GAS  C:\Users\jo\AppData\Local\Temp\ccdgtuym.s 			page 85


 4772 002e 98       		.byte	-104
 4773 002f 7A       		.byte	122
 4774 0030 9B       		.byte	-101
 4775 0031 04       		.byte	4
 4776 0032 4A       		.byte	74
 4777 0033 8E       		.byte	-114
 4778 0034 98       		.byte	-104
 4779 0035 C6       		.byte	-58
 4780 0036 B0       		.byte	-80
 4781 0037 87       		.byte	-121
 4782 0038 F1       		.byte	-15
 4783 0039 5A       		.byte	90
 4784 003a 0B       		.byte	11
 4785 003b FC       		.byte	-4
 4786 003c 5D       		.byte	93
 4787 003d 06       		.byte	6
 4788 003e 89       		.byte	-119
 4789 003f EF       		.byte	-17
 4790 0040 49       		.byte	73
 4791 0041 D2       		.byte	-46
 4792 0042 FA       		.byte	-6
 4793 0043 E5       		.byte	-27
 4794 0044 72       		.byte	114
 4795 0045 B8       		.byte	-72
 4796 0046 81       		.byte	-127
 4797 0047 B1       		.byte	-79
 4798 0048 23       		.byte	35
 4799 0049 A8       		.byte	-88
 4800 004a 5F       		.byte	95
 4801 004b FA       		.byte	-6
 4802 004c 21       		.byte	33
 4803 004d 59       		.byte	89
 4804 004e 5F       		.byte	95
 4805 004f 36       		.byte	54
 4806 0050 F7       		.byte	-9
 4807 0051 1C       		.byte	28
 4808 0052 27       		.byte	39
 4809 0053 10       		.byte	16
 4810 0054 9C       		.byte	-100
 4811 0055 69       		.byte	105
 4812 0056 2C       		.byte	44
 4813 0057 1B       		.byte	27
 4814 0058 56       		.byte	86
 4815 0059 BB       		.byte	-69
 4816 005a DC       		.byte	-36
 4817 005b EB       		.byte	-21
 4818 005c 5B       		.byte	91
 4819 005d 9D       		.byte	-99
 4820 005e 28       		.byte	40
 4821 005f 65       		.byte	101
 4822 0060 B3       		.byte	-77
 4823 0061 70       		.byte	112
 4824 0062 8D       		.byte	-115
 4825 0063 BC       		.byte	-68
 4826 0064 12       		.byte	18
 4827 0065 A0       		.byte	-96
 4828 0066 53       		.byte	83
ARM GAS  C:\Users\jo\AppData\Local\Temp\ccdgtuym.s 			page 86


 4829 0067 38       		.byte	56
 4830 0068 4A       		.byte	74
 4831 0069 9C       		.byte	-100
 4832 006a 0C       		.byte	12
 4833 006b 88       		.byte	-120
 4834 006c E4       		.byte	-28
 4835 006d 05       		.byte	5
 4836 006e A0       		.byte	-96
 4837 006f 6C       		.byte	108
 4838 0070 27       		.byte	39
 4839 0071 DC       		.byte	-36
 4840 0072 F4       		.byte	-12
 4841 0073 9A       		.byte	-102
 4842 0074 DA       		.byte	-38
 4843 0075 62       		.byte	98
 4844 0076 EB       		.byte	-21
 4845 0077 2B       		.byte	43
 4846 0078 B0       		.byte	-80
 4847 0079 E2       		.byte	-30
 4848 007a 0B       		.byte	11
 4849 007b 6E       		.byte	110
 4850 007c 31       		.byte	49
 4851 007d 16       		.byte	22
 4852 007e 64       		.byte	100
 4853 007f 02       		.byte	2
 4854 0080 86       		.byte	-122
 4855 0081 ED       		.byte	-19
 4856 0082 3A       		.byte	58
 4857 0083 87       		.byte	-121
 4858 0084 A5       		.byte	-91
 4859 0085 71       		.byte	113
 4860 0086 30       		.byte	48
 4861 0087 79       		.byte	121
 4862 0088 B2       		.byte	-78
 4863 0089 1F       		.byte	31
 4864 008a 51       		.byte	81
 4865 008b 89       		.byte	-119
 4866 008c 9B       		.byte	-101
 4867 008d 75       		.byte	117
 4868 008e 2E       		.byte	46
 4869 008f 45       		.byte	69
 4870 0090 57       		.byte	87
 4871 0091 3D       		.byte	61
 4872 0092 4B       		.byte	75
 4873 0093 39       		.byte	57
 4874 0094 F4       		.byte	-12
 4875 0095 DB       		.byte	-37
 4876 0096 D3       		.byte	-45
 4877 0097 32       		.byte	50
 4878 0098 3C       		.byte	60
 4879 0099 AB       		.byte	-85
 4880 009a 82       		.byte	-126
 4881 009b BF       		.byte	-65
 4882 009c 63       		.byte	99
 4883 009d 32       		.byte	50
 4884 009e 6B       		.byte	107
 4885 009f FB       		.byte	-5
ARM GAS  C:\Users\jo\AppData\Local\Temp\ccdgtuym.s 			page 87


 4886              		.section	.rodata.ripemd160_padding,"a",%progbits
 4887              		.align	2
 4888              		.set	.LANCHOR0,. + 0
 4889              		.type	ripemd160_padding, %object
 4890              		.size	ripemd160_padding, 64
 4891              	ripemd160_padding:
 4892 0000 80       		.byte	-128
 4893 0001 00       		.byte	0
 4894 0002 00       		.byte	0
 4895 0003 00       		.byte	0
 4896 0004 00       		.byte	0
 4897 0005 00       		.byte	0
 4898 0006 00       		.byte	0
 4899 0007 00       		.byte	0
 4900 0008 00       		.byte	0
 4901 0009 00       		.byte	0
 4902 000a 00       		.byte	0
 4903 000b 00       		.byte	0
 4904 000c 00       		.byte	0
 4905 000d 00       		.byte	0
 4906 000e 00       		.byte	0
 4907 000f 00       		.byte	0
 4908 0010 00       		.byte	0
 4909 0011 00       		.byte	0
 4910 0012 00       		.byte	0
 4911 0013 00       		.byte	0
 4912 0014 00       		.byte	0
 4913 0015 00       		.byte	0
 4914 0016 00       		.byte	0
 4915 0017 00       		.byte	0
 4916 0018 00       		.byte	0
 4917 0019 00       		.byte	0
 4918 001a 00       		.byte	0
 4919 001b 00       		.byte	0
 4920 001c 00       		.byte	0
 4921 001d 00       		.byte	0
 4922 001e 00       		.byte	0
 4923 001f 00       		.byte	0
 4924 0020 00       		.byte	0
 4925 0021 00       		.byte	0
 4926 0022 00       		.byte	0
 4927 0023 00       		.byte	0
 4928 0024 00       		.byte	0
 4929 0025 00       		.byte	0
 4930 0026 00       		.byte	0
 4931 0027 00       		.byte	0
 4932 0028 00       		.byte	0
 4933 0029 00       		.byte	0
 4934 002a 00       		.byte	0
 4935 002b 00       		.byte	0
 4936 002c 00       		.byte	0
 4937 002d 00       		.byte	0
 4938 002e 00       		.byte	0
 4939 002f 00       		.byte	0
 4940 0030 00       		.byte	0
 4941 0031 00       		.byte	0
 4942 0032 00       		.byte	0
ARM GAS  C:\Users\jo\AppData\Local\Temp\ccdgtuym.s 			page 88


 4943 0033 00       		.byte	0
 4944 0034 00       		.byte	0
 4945 0035 00       		.byte	0
 4946 0036 00       		.byte	0
 4947 0037 00       		.byte	0
 4948 0038 00       		.byte	0
 4949 0039 00       		.byte	0
 4950 003a 00       		.byte	0
 4951 003b 00       		.byte	0
 4952 003c 00       		.byte	0
 4953 003d 00       		.byte	0
 4954 003e 00       		.byte	0
 4955 003f 00       		.byte	0
 4956              		.section	.rodata.str1.4,"aMS",%progbits,1
 4957              		.align	2
 4958              	.LC0:
 4959 0000 726200   		.ascii	"rb\000"
 4960 0003 00       		.space	1
 4961              	.LC1:
 4962 0004 20205249 		.ascii	"  RIPEMD-160 test #%d: \000"
 4962      50454D44 
 4962      2D313630 
 4962      20746573 
 4962      74202325 
 4963              	.LC2:
 4964 001c 6661696C 		.ascii	"failed\000"
 4964      656400
 4965 0023 00       		.space	1
 4966              	.LC3:
 4967 0024 70617373 		.ascii	"passed\000"
 4967      656400
 4968 002b 00       		.space	1
 4969              	.LC4:
 4970 002c 2020484D 		.ascii	"  HMAC-RIPEMD-160 test #%d, key #%d: \000"
 4970      41432D52 
 4970      4950454D 
 4970      442D3136 
 4970      30207465 
 4971 0052 0000     		.space	2
 4972              	.LC5:
 4973 0054 00       		.ascii	"\000"
 4974 0055 000000   		.space	3
 4975              	.LC6:
 4976 0058 6100     		.ascii	"a\000"
 4977 005a 0000     		.space	2
 4978              	.LC7:
 4979 005c 61626300 		.ascii	"abc\000"
 4980              	.LC8:
 4981 0060 6D657373 		.ascii	"message digest\000"
 4981      61676520 
 4981      64696765 
 4981      737400
 4982 006f 00       		.space	1
 4983              	.LC9:
 4984 0070 61626364 		.ascii	"abcdefghijklmnopqrstuvwxyz\000"
 4984      65666768 
 4984      696A6B6C 
ARM GAS  C:\Users\jo\AppData\Local\Temp\ccdgtuym.s 			page 89


 4984      6D6E6F70 
 4984      71727374 
 4985 008b 00       		.space	1
 4986              	.LC10:
 4987 008c 61626364 		.ascii	"abcdbcdecdefdefgefghfghighijhijkijkljklmklmnlmnomno"
 4987      62636465 
 4987      63646566 
 4987      64656667 
 4987      65666768 
 4988 00bf 706E6F70 		.ascii	"pnopq\000"
 4988      7100
 4989 00c5 000000   		.space	3
 4990              	.LC11:
 4991 00c8 41424344 		.ascii	"ABCDEFGHIJKLMNOPQRSTUVWXYZabcdefghijklmnopqrstuvwxy"
 4991      45464748 
 4991      494A4B4C 
 4991      4D4E4F50 
 4991      51525354 
 4992 00fb 7A303132 		.ascii	"z0123456789\000"
 4992      33343536 
 4992      37383900 
 4993 0107 00       		.space	1
 4994              	.LC12:
 4995 0108 31323334 		.ascii	"123456789012345678901234567890123456789012345678901"
 4995      35363738 
 4995      39303132 
 4995      33343536 
 4995      37383930 
 4996 013b 32333435 		.ascii	"23456789012345678901234567890\000"
 4996      36373839 
 4996      30313233 
 4996      34353637 
 4996      38393031 
 4997 0159 000000   		.section	.rodata.ripemd160_test_input,"a",%progbits
 4998              		.align	2
 4999              		.set	.LANCHOR2,. + 0
 5000              		.type	ripemd160_test_input, %object
 5001              		.size	ripemd160_test_input, 32
 5002              	ripemd160_test_input:
 5003 0000 54000000 		.word	.LC5
 5004 0004 58000000 		.word	.LC6
 5005 0008 5C000000 		.word	.LC7
 5006 000c 60000000 		.word	.LC8
 5007 0010 70000000 		.word	.LC9
 5008 0014 8C000000 		.word	.LC10
 5009 0018 C8000000 		.word	.LC11
 5010 001c 08010000 		.word	.LC12
 5011              		.section	.rodata.ripemd160_test_key,"a",%progbits
 5012              		.align	2
 5013              		.set	.LANCHOR4,. + 0
 5014              		.type	ripemd160_test_key, %object
 5015              		.size	ripemd160_test_key, 40
 5016              	ripemd160_test_key:
 5017 0000 00       		.byte	0
 5018 0001 11       		.byte	17
 5019 0002 22       		.byte	34
 5020 0003 33       		.byte	51
ARM GAS  C:\Users\jo\AppData\Local\Temp\ccdgtuym.s 			page 90


 5021 0004 44       		.byte	68
 5022 0005 55       		.byte	85
 5023 0006 66       		.byte	102
 5024 0007 77       		.byte	119
 5025 0008 88       		.byte	-120
 5026 0009 99       		.byte	-103
 5027 000a AA       		.byte	-86
 5028 000b BB       		.byte	-69
 5029 000c CC       		.byte	-52
 5030 000d DD       		.byte	-35
 5031 000e EE       		.byte	-18
 5032 000f FF       		.byte	-1
 5033 0010 01       		.byte	1
 5034 0011 23       		.byte	35
 5035 0012 45       		.byte	69
 5036 0013 67       		.byte	103
 5037 0014 01       		.byte	1
 5038 0015 23       		.byte	35
 5039 0016 45       		.byte	69
 5040 0017 67       		.byte	103
 5041 0018 89       		.byte	-119
 5042 0019 AB       		.byte	-85
 5043 001a CD       		.byte	-51
 5044 001b EF       		.byte	-17
 5045 001c FE       		.byte	-2
 5046 001d DC       		.byte	-36
 5047 001e BA       		.byte	-70
 5048 001f 98       		.byte	-104
 5049 0020 76       		.byte	118
 5050 0021 54       		.byte	84
 5051 0022 32       		.byte	50
 5052 0023 10       		.byte	16
 5053 0024 00       		.byte	0
 5054 0025 11       		.byte	17
 5055 0026 22       		.byte	34
 5056 0027 33       		.byte	51
 5057              		.text
 5058              	.Letext0:
 5059              		.file 2 "c:\\program files\\gnu tools arm embedded\\4.9 2014q4\\lib\\gcc\\arm-none-eabi\\4.9.3\\in
 5060              		.file 3 "c:\\program files\\gnu tools arm embedded\\4.9 2014q4\\arm-none-eabi\\include\\machine\\_
 5061              		.file 4 "c:\\program files\\gnu tools arm embedded\\4.9 2014q4\\arm-none-eabi\\include\\stdint.h"
 5062              		.file 5 "../../../ext/mbedtls-1.3.11/library/../include/polarssl/ripemd160.h"
 5063              		.file 6 "c:\\program files\\gnu tools arm embedded\\4.9 2014q4\\arm-none-eabi\\include\\sys\\lock.
 5064              		.file 7 "c:\\program files\\gnu tools arm embedded\\4.9 2014q4\\arm-none-eabi\\include\\sys\\_type
 5065              		.file 8 "c:\\program files\\gnu tools arm embedded\\4.9 2014q4\\arm-none-eabi\\include\\sys\\reent
 5066              		.file 9 "c:\\program files\\gnu tools arm embedded\\4.9 2014q4\\arm-none-eabi\\include\\stdio.h"
 5067              		.file 10 "c:\\program files\\gnu tools arm embedded\\4.9 2014q4\\arm-none-eabi\\include\\string.h"
 5068              		.file 11 "<built-in>"
 5069              		.section	.debug_info,"",%progbits
 5070              	.Ldebug_info0:
 5071 0000 E71A0000 		.4byte	0x1ae7
 5072 0004 0400     		.2byte	0x4
 5073 0006 00000000 		.4byte	.Ldebug_abbrev0
 5074 000a 04       		.byte	0x4
 5075 000b 01       		.uleb128 0x1
 5076 000c E7030000 		.4byte	.LASF169
 5077 0010 01       		.byte	0x1
ARM GAS  C:\Users\jo\AppData\Local\Temp\ccdgtuym.s 			page 91


 5078 0011 1E020000 		.4byte	.LASF170
 5079 0015 FD000000 		.4byte	.LASF171
 5080 0019 18010000 		.4byte	.Ldebug_ranges0+0x118
 5081 001d 00000000 		.4byte	0
 5082 0021 00000000 		.4byte	.Ldebug_line0
 5083 0025 02       		.uleb128 0x2
 5084 0026 04       		.byte	0x4
 5085 0027 05       		.byte	0x5
 5086 0028 696E7400 		.ascii	"int\000"
 5087 002c 03       		.uleb128 0x3
 5088 002d 2D000000 		.4byte	.LASF6
 5089 0031 02       		.byte	0x2
 5090 0032 D4       		.byte	0xd4
 5091 0033 37000000 		.4byte	0x37
 5092 0037 04       		.uleb128 0x4
 5093 0038 04       		.byte	0x4
 5094 0039 07       		.byte	0x7
 5095 003a E6020000 		.4byte	.LASF0
 5096 003e 04       		.uleb128 0x4
 5097 003f 01       		.byte	0x1
 5098 0040 06       		.byte	0x6
 5099 0041 59010000 		.4byte	.LASF1
 5100 0045 04       		.uleb128 0x4
 5101 0046 01       		.byte	0x1
 5102 0047 08       		.byte	0x8
 5103 0048 AC050000 		.4byte	.LASF2
 5104 004c 04       		.uleb128 0x4
 5105 004d 02       		.byte	0x2
 5106 004e 05       		.byte	0x5
 5107 004f C8050000 		.4byte	.LASF3
 5108 0053 04       		.uleb128 0x4
 5109 0054 02       		.byte	0x2
 5110 0055 07       		.byte	0x7
 5111 0056 56030000 		.4byte	.LASF4
 5112 005a 04       		.uleb128 0x4
 5113 005b 04       		.byte	0x4
 5114 005c 05       		.byte	0x5
 5115 005d BE010000 		.4byte	.LASF5
 5116 0061 03       		.uleb128 0x3
 5117 0062 87020000 		.4byte	.LASF7
 5118 0066 03       		.byte	0x3
 5119 0067 41       		.byte	0x41
 5120 0068 6C000000 		.4byte	0x6c
 5121 006c 04       		.uleb128 0x4
 5122 006d 04       		.byte	0x4
 5123 006e 07       		.byte	0x7
 5124 006f 0A030000 		.4byte	.LASF8
 5125 0073 04       		.uleb128 0x4
 5126 0074 08       		.byte	0x8
 5127 0075 05       		.byte	0x5
 5128 0076 4B010000 		.4byte	.LASF9
 5129 007a 04       		.uleb128 0x4
 5130 007b 08       		.byte	0x8
 5131 007c 07       		.byte	0x7
 5132 007d AA000000 		.4byte	.LASF10
 5133 0081 03       		.uleb128 0x3
 5134 0082 87060000 		.4byte	.LASF11
ARM GAS  C:\Users\jo\AppData\Local\Temp\ccdgtuym.s 			page 92


 5135 0086 04       		.byte	0x4
 5136 0087 2D       		.byte	0x2d
 5137 0088 61000000 		.4byte	0x61
 5138 008c 05       		.uleb128 0x5
 5139 008d DC       		.byte	0xdc
 5140 008e 05       		.byte	0x5
 5141 008f 37       		.byte	0x37
 5142 0090 D1000000 		.4byte	0xd1
 5143 0094 06       		.uleb128 0x6
 5144 0095 D0030000 		.4byte	.LASF12
 5145 0099 05       		.byte	0x5
 5146 009a 39       		.byte	0x39
 5147 009b D1000000 		.4byte	0xd1
 5148 009f 00       		.byte	0
 5149 00a0 06       		.uleb128 0x6
 5150 00a1 B8010000 		.4byte	.LASF13
 5151 00a5 05       		.byte	0x5
 5152 00a6 3A       		.byte	0x3a
 5153 00a7 E8000000 		.4byte	0xe8
 5154 00ab 08       		.byte	0x8
 5155 00ac 06       		.uleb128 0x6
 5156 00ad BB060000 		.4byte	.LASF14
 5157 00b1 05       		.byte	0x5
 5158 00b2 3B       		.byte	0x3b
 5159 00b3 F8000000 		.4byte	0xf8
 5160 00b7 1C       		.byte	0x1c
 5161 00b8 06       		.uleb128 0x6
 5162 00b9 8C050000 		.4byte	.LASF15
 5163 00bd 05       		.byte	0x5
 5164 00be 3D       		.byte	0x3d
 5165 00bf F8000000 		.4byte	0xf8
 5166 00c3 5C       		.byte	0x5c
 5167 00c4 06       		.uleb128 0x6
 5168 00c5 EE070000 		.4byte	.LASF16
 5169 00c9 05       		.byte	0x5
 5170 00ca 3E       		.byte	0x3e
 5171 00cb F8000000 		.4byte	0xf8
 5172 00cf 9C       		.byte	0x9c
 5173 00d0 00       		.byte	0
 5174 00d1 07       		.uleb128 0x7
 5175 00d2 81000000 		.4byte	0x81
 5176 00d6 E1000000 		.4byte	0xe1
 5177 00da 08       		.uleb128 0x8
 5178 00db E1000000 		.4byte	0xe1
 5179 00df 01       		.byte	0x1
 5180 00e0 00       		.byte	0
 5181 00e1 04       		.uleb128 0x4
 5182 00e2 04       		.byte	0x4
 5183 00e3 07       		.byte	0x7
 5184 00e4 EE040000 		.4byte	.LASF17
 5185 00e8 07       		.uleb128 0x7
 5186 00e9 81000000 		.4byte	0x81
 5187 00ed F8000000 		.4byte	0xf8
 5188 00f1 08       		.uleb128 0x8
 5189 00f2 E1000000 		.4byte	0xe1
 5190 00f6 04       		.byte	0x4
 5191 00f7 00       		.byte	0
ARM GAS  C:\Users\jo\AppData\Local\Temp\ccdgtuym.s 			page 93


 5192 00f8 07       		.uleb128 0x7
 5193 00f9 45000000 		.4byte	0x45
 5194 00fd 08010000 		.4byte	0x108
 5195 0101 08       		.uleb128 0x8
 5196 0102 E1000000 		.4byte	0xe1
 5197 0106 3F       		.byte	0x3f
 5198 0107 00       		.byte	0
 5199 0108 03       		.uleb128 0x3
 5200 0109 1B000000 		.4byte	.LASF18
 5201 010d 05       		.byte	0x5
 5202 010e 40       		.byte	0x40
 5203 010f 8C000000 		.4byte	0x8c
 5204 0113 03       		.uleb128 0x3
 5205 0114 7A050000 		.4byte	.LASF19
 5206 0118 06       		.byte	0x6
 5207 0119 07       		.byte	0x7
 5208 011a 25000000 		.4byte	0x25
 5209 011e 03       		.uleb128 0x3
 5210 011f 4A050000 		.4byte	.LASF20
 5211 0123 07       		.byte	0x7
 5212 0124 10       		.byte	0x10
 5213 0125 5A000000 		.4byte	0x5a
 5214 0129 03       		.uleb128 0x3
 5215 012a 96060000 		.4byte	.LASF21
 5216 012e 07       		.byte	0x7
 5217 012f 27       		.byte	0x27
 5218 0130 5A000000 		.4byte	0x5a
 5219 0134 09       		.uleb128 0x9
 5220 0135 BB030000 		.4byte	.LASF22
 5221 0139 02       		.byte	0x2
 5222 013a 6101     		.2byte	0x161
 5223 013c 37000000 		.4byte	0x37
 5224 0140 0A       		.uleb128 0xa
 5225 0141 04       		.byte	0x4
 5226 0142 07       		.byte	0x7
 5227 0143 4A       		.byte	0x4a
 5228 0144 5F010000 		.4byte	0x15f
 5229 0148 0B       		.uleb128 0xb
 5230 0149 AE030000 		.4byte	.LASF23
 5231 014d 07       		.byte	0x7
 5232 014e 4C       		.byte	0x4c
 5233 014f 34010000 		.4byte	0x134
 5234 0153 0B       		.uleb128 0xb
 5235 0154 F3020000 		.4byte	.LASF24
 5236 0158 07       		.byte	0x7
 5237 0159 4D       		.byte	0x4d
 5238 015a 5F010000 		.4byte	0x15f
 5239 015e 00       		.byte	0
 5240 015f 07       		.uleb128 0x7
 5241 0160 45000000 		.4byte	0x45
 5242 0164 6F010000 		.4byte	0x16f
 5243 0168 08       		.uleb128 0x8
 5244 0169 E1000000 		.4byte	0xe1
 5245 016d 03       		.byte	0x3
 5246 016e 00       		.byte	0
 5247 016f 05       		.uleb128 0x5
 5248 0170 08       		.byte	0x8
ARM GAS  C:\Users\jo\AppData\Local\Temp\ccdgtuym.s 			page 94


 5249 0171 07       		.byte	0x7
 5250 0172 47       		.byte	0x47
 5251 0173 90010000 		.4byte	0x190
 5252 0177 06       		.uleb128 0x6
 5253 0178 7F060000 		.4byte	.LASF25
 5254 017c 07       		.byte	0x7
 5255 017d 49       		.byte	0x49
 5256 017e 25000000 		.4byte	0x25
 5257 0182 00       		.byte	0
 5258 0183 06       		.uleb128 0x6
 5259 0184 E2060000 		.4byte	.LASF26
 5260 0188 07       		.byte	0x7
 5261 0189 4E       		.byte	0x4e
 5262 018a 40010000 		.4byte	0x140
 5263 018e 04       		.byte	0x4
 5264 018f 00       		.byte	0
 5265 0190 03       		.uleb128 0x3
 5266 0191 FA050000 		.4byte	.LASF27
 5267 0195 07       		.byte	0x7
 5268 0196 4F       		.byte	0x4f
 5269 0197 6F010000 		.4byte	0x16f
 5270 019b 03       		.uleb128 0x3
 5271 019c 98020000 		.4byte	.LASF28
 5272 01a0 07       		.byte	0x7
 5273 01a1 53       		.byte	0x53
 5274 01a2 13010000 		.4byte	0x113
 5275 01a6 0C       		.uleb128 0xc
 5276 01a7 04       		.byte	0x4
 5277 01a8 03       		.uleb128 0x3
 5278 01a9 F8060000 		.4byte	.LASF29
 5279 01ad 08       		.byte	0x8
 5280 01ae 16       		.byte	0x16
 5281 01af 6C000000 		.4byte	0x6c
 5282 01b3 0D       		.uleb128 0xd
 5283 01b4 A9020000 		.4byte	.LASF34
 5284 01b8 18       		.byte	0x18
 5285 01b9 08       		.byte	0x8
 5286 01ba 2D       		.byte	0x2d
 5287 01bb 06020000 		.4byte	0x206
 5288 01bf 06       		.uleb128 0x6
 5289 01c0 CF060000 		.4byte	.LASF30
 5290 01c4 08       		.byte	0x8
 5291 01c5 2F       		.byte	0x2f
 5292 01c6 06020000 		.4byte	0x206
 5293 01ca 00       		.byte	0
 5294 01cb 0E       		.uleb128 0xe
 5295 01cc 5F6B00   		.ascii	"_k\000"
 5296 01cf 08       		.byte	0x8
 5297 01d0 30       		.byte	0x30
 5298 01d1 25000000 		.4byte	0x25
 5299 01d5 04       		.byte	0x4
 5300 01d6 06       		.uleb128 0x6
 5301 01d7 6A060000 		.4byte	.LASF31
 5302 01db 08       		.byte	0x8
 5303 01dc 30       		.byte	0x30
 5304 01dd 25000000 		.4byte	0x25
 5305 01e1 08       		.byte	0x8
ARM GAS  C:\Users\jo\AppData\Local\Temp\ccdgtuym.s 			page 95


 5306 01e2 06       		.uleb128 0x6
 5307 01e3 92020000 		.4byte	.LASF32
 5308 01e7 08       		.byte	0x8
 5309 01e8 30       		.byte	0x30
 5310 01e9 25000000 		.4byte	0x25
 5311 01ed 0C       		.byte	0xc
 5312 01ee 06       		.uleb128 0x6
 5313 01ef 3C070000 		.4byte	.LASF33
 5314 01f3 08       		.byte	0x8
 5315 01f4 30       		.byte	0x30
 5316 01f5 25000000 		.4byte	0x25
 5317 01f9 10       		.byte	0x10
 5318 01fa 0E       		.uleb128 0xe
 5319 01fb 5F7800   		.ascii	"_x\000"
 5320 01fe 08       		.byte	0x8
 5321 01ff 31       		.byte	0x31
 5322 0200 0C020000 		.4byte	0x20c
 5323 0204 14       		.byte	0x14
 5324 0205 00       		.byte	0
 5325 0206 0F       		.uleb128 0xf
 5326 0207 04       		.byte	0x4
 5327 0208 B3010000 		.4byte	0x1b3
 5328 020c 07       		.uleb128 0x7
 5329 020d A8010000 		.4byte	0x1a8
 5330 0211 1C020000 		.4byte	0x21c
 5331 0215 08       		.uleb128 0x8
 5332 0216 E1000000 		.4byte	0xe1
 5333 021a 00       		.byte	0
 5334 021b 00       		.byte	0
 5335 021c 0D       		.uleb128 0xd
 5336 021d E1020000 		.4byte	.LASF35
 5337 0221 24       		.byte	0x24
 5338 0222 08       		.byte	0x8
 5339 0223 35       		.byte	0x35
 5340 0224 95020000 		.4byte	0x295
 5341 0228 06       		.uleb128 0x6
 5342 0229 33070000 		.4byte	.LASF36
 5343 022d 08       		.byte	0x8
 5344 022e 37       		.byte	0x37
 5345 022f 25000000 		.4byte	0x25
 5346 0233 00       		.byte	0
 5347 0234 06       		.uleb128 0x6
 5348 0235 AA060000 		.4byte	.LASF37
 5349 0239 08       		.byte	0x8
 5350 023a 38       		.byte	0x38
 5351 023b 25000000 		.4byte	0x25
 5352 023f 04       		.byte	0x4
 5353 0240 06       		.uleb128 0x6
 5354 0241 84010000 		.4byte	.LASF38
 5355 0245 08       		.byte	0x8
 5356 0246 39       		.byte	0x39
 5357 0247 25000000 		.4byte	0x25
 5358 024b 08       		.byte	0x8
 5359 024c 06       		.uleb128 0x6
 5360 024d 02080000 		.4byte	.LASF39
 5361 0251 08       		.byte	0x8
 5362 0252 3A       		.byte	0x3a
ARM GAS  C:\Users\jo\AppData\Local\Temp\ccdgtuym.s 			page 96


 5363 0253 25000000 		.4byte	0x25
 5364 0257 0C       		.byte	0xc
 5365 0258 06       		.uleb128 0x6
 5366 0259 2E050000 		.4byte	.LASF40
 5367 025d 08       		.byte	0x8
 5368 025e 3B       		.byte	0x3b
 5369 025f 25000000 		.4byte	0x25
 5370 0263 10       		.byte	0x10
 5371 0264 06       		.uleb128 0x6
 5372 0265 DD040000 		.4byte	.LASF41
 5373 0269 08       		.byte	0x8
 5374 026a 3C       		.byte	0x3c
 5375 026b 25000000 		.4byte	0x25
 5376 026f 14       		.byte	0x14
 5377 0270 06       		.uleb128 0x6
 5378 0271 41070000 		.4byte	.LASF42
 5379 0275 08       		.byte	0x8
 5380 0276 3D       		.byte	0x3d
 5381 0277 25000000 		.4byte	0x25
 5382 027b 18       		.byte	0x18
 5383 027c 06       		.uleb128 0x6
 5384 027d D2050000 		.4byte	.LASF43
 5385 0281 08       		.byte	0x8
 5386 0282 3E       		.byte	0x3e
 5387 0283 25000000 		.4byte	0x25
 5388 0287 1C       		.byte	0x1c
 5389 0288 06       		.uleb128 0x6
 5390 0289 B5070000 		.4byte	.LASF44
 5391 028d 08       		.byte	0x8
 5392 028e 3F       		.byte	0x3f
 5393 028f 25000000 		.4byte	0x25
 5394 0293 20       		.byte	0x20
 5395 0294 00       		.byte	0
 5396 0295 10       		.uleb128 0x10
 5397 0296 93010000 		.4byte	.LASF45
 5398 029a 0801     		.2byte	0x108
 5399 029c 08       		.byte	0x8
 5400 029d 48       		.byte	0x48
 5401 029e D5020000 		.4byte	0x2d5
 5402 02a2 06       		.uleb128 0x6
 5403 02a3 74020000 		.4byte	.LASF46
 5404 02a7 08       		.byte	0x8
 5405 02a8 49       		.byte	0x49
 5406 02a9 D5020000 		.4byte	0x2d5
 5407 02ad 00       		.byte	0
 5408 02ae 06       		.uleb128 0x6
 5409 02af 00000000 		.4byte	.LASF47
 5410 02b3 08       		.byte	0x8
 5411 02b4 4A       		.byte	0x4a
 5412 02b5 D5020000 		.4byte	0x2d5
 5413 02b9 80       		.byte	0x80
 5414 02ba 11       		.uleb128 0x11
 5415 02bb EA060000 		.4byte	.LASF48
 5416 02bf 08       		.byte	0x8
 5417 02c0 4C       		.byte	0x4c
 5418 02c1 A8010000 		.4byte	0x1a8
 5419 02c5 0001     		.2byte	0x100
ARM GAS  C:\Users\jo\AppData\Local\Temp\ccdgtuym.s 			page 97


 5420 02c7 11       		.uleb128 0x11
 5421 02c8 CE010000 		.4byte	.LASF49
 5422 02cc 08       		.byte	0x8
 5423 02cd 4F       		.byte	0x4f
 5424 02ce A8010000 		.4byte	0x1a8
 5425 02d2 0401     		.2byte	0x104
 5426 02d4 00       		.byte	0
 5427 02d5 07       		.uleb128 0x7
 5428 02d6 A6010000 		.4byte	0x1a6
 5429 02da E5020000 		.4byte	0x2e5
 5430 02de 08       		.uleb128 0x8
 5431 02df E1000000 		.4byte	0xe1
 5432 02e3 1F       		.byte	0x1f
 5433 02e4 00       		.byte	0
 5434 02e5 10       		.uleb128 0x10
 5435 02e6 37050000 		.4byte	.LASF50
 5436 02ea 9001     		.2byte	0x190
 5437 02ec 08       		.byte	0x8
 5438 02ed 5B       		.byte	0x5b
 5439 02ee 23030000 		.4byte	0x323
 5440 02f2 06       		.uleb128 0x6
 5441 02f3 CF060000 		.4byte	.LASF30
 5442 02f7 08       		.byte	0x8
 5443 02f8 5C       		.byte	0x5c
 5444 02f9 23030000 		.4byte	0x323
 5445 02fd 00       		.byte	0
 5446 02fe 06       		.uleb128 0x6
 5447 02ff 33060000 		.4byte	.LASF51
 5448 0303 08       		.byte	0x8
 5449 0304 5D       		.byte	0x5d
 5450 0305 25000000 		.4byte	0x25
 5451 0309 04       		.byte	0x4
 5452 030a 06       		.uleb128 0x6
 5453 030b 82020000 		.4byte	.LASF52
 5454 030f 08       		.byte	0x8
 5455 0310 5F       		.byte	0x5f
 5456 0311 29030000 		.4byte	0x329
 5457 0315 08       		.byte	0x8
 5458 0316 06       		.uleb128 0x6
 5459 0317 93010000 		.4byte	.LASF45
 5460 031b 08       		.byte	0x8
 5461 031c 60       		.byte	0x60
 5462 031d 95020000 		.4byte	0x295
 5463 0321 88       		.byte	0x88
 5464 0322 00       		.byte	0
 5465 0323 0F       		.uleb128 0xf
 5466 0324 04       		.byte	0x4
 5467 0325 E5020000 		.4byte	0x2e5
 5468 0329 07       		.uleb128 0x7
 5469 032a 39030000 		.4byte	0x339
 5470 032e 39030000 		.4byte	0x339
 5471 0332 08       		.uleb128 0x8
 5472 0333 E1000000 		.4byte	0xe1
 5473 0337 1F       		.byte	0x1f
 5474 0338 00       		.byte	0
 5475 0339 0F       		.uleb128 0xf
 5476 033a 04       		.byte	0x4
ARM GAS  C:\Users\jo\AppData\Local\Temp\ccdgtuym.s 			page 98


 5477 033b 3F030000 		.4byte	0x33f
 5478 033f 12       		.uleb128 0x12
 5479 0340 0D       		.uleb128 0xd
 5480 0341 E6050000 		.4byte	.LASF53
 5481 0345 08       		.byte	0x8
 5482 0346 08       		.byte	0x8
 5483 0347 73       		.byte	0x73
 5484 0348 65030000 		.4byte	0x365
 5485 034c 06       		.uleb128 0x6
 5486 034d 7E010000 		.4byte	.LASF54
 5487 0351 08       		.byte	0x8
 5488 0352 74       		.byte	0x74
 5489 0353 65030000 		.4byte	0x365
 5490 0357 00       		.byte	0
 5491 0358 06       		.uleb128 0x6
 5492 0359 7C020000 		.4byte	.LASF55
 5493 035d 08       		.byte	0x8
 5494 035e 75       		.byte	0x75
 5495 035f 25000000 		.4byte	0x25
 5496 0363 04       		.byte	0x4
 5497 0364 00       		.byte	0
 5498 0365 0F       		.uleb128 0xf
 5499 0366 04       		.byte	0x4
 5500 0367 45000000 		.4byte	0x45
 5501 036b 0D       		.uleb128 0xd
 5502 036c 05060000 		.4byte	.LASF56
 5503 0370 68       		.byte	0x68
 5504 0371 08       		.byte	0x8
 5505 0372 B3       		.byte	0xb3
 5506 0373 95040000 		.4byte	0x495
 5507 0377 0E       		.uleb128 0xe
 5508 0378 5F7000   		.ascii	"_p\000"
 5509 037b 08       		.byte	0x8
 5510 037c B4       		.byte	0xb4
 5511 037d 65030000 		.4byte	0x365
 5512 0381 00       		.byte	0
 5513 0382 0E       		.uleb128 0xe
 5514 0383 5F7200   		.ascii	"_r\000"
 5515 0386 08       		.byte	0x8
 5516 0387 B5       		.byte	0xb5
 5517 0388 25000000 		.4byte	0x25
 5518 038c 04       		.byte	0x4
 5519 038d 0E       		.uleb128 0xe
 5520 038e 5F7700   		.ascii	"_w\000"
 5521 0391 08       		.byte	0x8
 5522 0392 B6       		.byte	0xb6
 5523 0393 25000000 		.4byte	0x25
 5524 0397 08       		.byte	0x8
 5525 0398 06       		.uleb128 0x6
 5526 0399 C7010000 		.4byte	.LASF57
 5527 039d 08       		.byte	0x8
 5528 039e B7       		.byte	0xb7
 5529 039f 4C000000 		.4byte	0x4c
 5530 03a3 0C       		.byte	0xc
 5531 03a4 06       		.uleb128 0x6
 5532 03a5 1C030000 		.4byte	.LASF58
 5533 03a9 08       		.byte	0x8
ARM GAS  C:\Users\jo\AppData\Local\Temp\ccdgtuym.s 			page 99


 5534 03aa B8       		.byte	0xb8
 5535 03ab 4C000000 		.4byte	0x4c
 5536 03af 0E       		.byte	0xe
 5537 03b0 0E       		.uleb128 0xe
 5538 03b1 5F626600 		.ascii	"_bf\000"
 5539 03b5 08       		.byte	0x8
 5540 03b6 B9       		.byte	0xb9
 5541 03b7 40030000 		.4byte	0x340
 5542 03bb 10       		.byte	0x10
 5543 03bc 06       		.uleb128 0x6
 5544 03bd C1000000 		.4byte	.LASF59
 5545 03c1 08       		.byte	0x8
 5546 03c2 BA       		.byte	0xba
 5547 03c3 25000000 		.4byte	0x25
 5548 03c7 18       		.byte	0x18
 5549 03c8 06       		.uleb128 0x6
 5550 03c9 A8010000 		.4byte	.LASF60
 5551 03cd 08       		.byte	0x8
 5552 03ce C1       		.byte	0xc1
 5553 03cf A6010000 		.4byte	0x1a6
 5554 03d3 1C       		.byte	0x1c
 5555 03d4 06       		.uleb128 0x6
 5556 03d5 D1020000 		.4byte	.LASF61
 5557 03d9 08       		.byte	0x8
 5558 03da C3       		.byte	0xc3
 5559 03db F8050000 		.4byte	0x5f8
 5560 03df 20       		.byte	0x20
 5561 03e0 06       		.uleb128 0x6
 5562 03e1 D6040000 		.4byte	.LASF62
 5563 03e5 08       		.byte	0x8
 5564 03e6 C5       		.byte	0xc5
 5565 03e7 27060000 		.4byte	0x627
 5566 03eb 24       		.byte	0x24
 5567 03ec 06       		.uleb128 0x6
 5568 03ed 90060000 		.4byte	.LASF63
 5569 03f1 08       		.byte	0x8
 5570 03f2 C8       		.byte	0xc8
 5571 03f3 4B060000 		.4byte	0x64b
 5572 03f7 28       		.byte	0x28
 5573 03f8 06       		.uleb128 0x6
 5574 03f9 CF070000 		.4byte	.LASF64
 5575 03fd 08       		.byte	0x8
 5576 03fe C9       		.byte	0xc9
 5577 03ff 65060000 		.4byte	0x665
 5578 0403 2C       		.byte	0x2c
 5579 0404 0E       		.uleb128 0xe
 5580 0405 5F756200 		.ascii	"_ub\000"
 5581 0409 08       		.byte	0x8
 5582 040a CC       		.byte	0xcc
 5583 040b 40030000 		.4byte	0x340
 5584 040f 30       		.byte	0x30
 5585 0410 0E       		.uleb128 0xe
 5586 0411 5F757000 		.ascii	"_up\000"
 5587 0415 08       		.byte	0x8
 5588 0416 CD       		.byte	0xcd
 5589 0417 65030000 		.4byte	0x365
 5590 041b 38       		.byte	0x38
ARM GAS  C:\Users\jo\AppData\Local\Temp\ccdgtuym.s 			page 100


 5591 041c 0E       		.uleb128 0xe
 5592 041d 5F757200 		.ascii	"_ur\000"
 5593 0421 08       		.byte	0x8
 5594 0422 CE       		.byte	0xce
 5595 0423 25000000 		.4byte	0x25
 5596 0427 3C       		.byte	0x3c
 5597 0428 06       		.uleb128 0x6
 5598 0429 78010000 		.4byte	.LASF65
 5599 042d 08       		.byte	0x8
 5600 042e D1       		.byte	0xd1
 5601 042f 6B060000 		.4byte	0x66b
 5602 0433 40       		.byte	0x40
 5603 0434 06       		.uleb128 0x6
 5604 0435 84070000 		.4byte	.LASF66
 5605 0439 08       		.byte	0x8
 5606 043a D2       		.byte	0xd2
 5607 043b 7B060000 		.4byte	0x67b
 5608 043f 43       		.byte	0x43
 5609 0440 0E       		.uleb128 0xe
 5610 0441 5F6C6200 		.ascii	"_lb\000"
 5611 0445 08       		.byte	0x8
 5612 0446 D5       		.byte	0xd5
 5613 0447 40030000 		.4byte	0x340
 5614 044b 44       		.byte	0x44
 5615 044c 06       		.uleb128 0x6
 5616 044d EC010000 		.4byte	.LASF67
 5617 0451 08       		.byte	0x8
 5618 0452 D8       		.byte	0xd8
 5619 0453 25000000 		.4byte	0x25
 5620 0457 4C       		.byte	0x4c
 5621 0458 06       		.uleb128 0x6
 5622 0459 16020000 		.4byte	.LASF68
 5623 045d 08       		.byte	0x8
 5624 045e D9       		.byte	0xd9
 5625 045f 1E010000 		.4byte	0x11e
 5626 0463 50       		.byte	0x50
 5627 0464 06       		.uleb128 0x6
 5628 0465 70000000 		.4byte	.LASF69
 5629 0469 08       		.byte	0x8
 5630 046a DC       		.byte	0xdc
 5631 046b B3040000 		.4byte	0x4b3
 5632 046f 54       		.byte	0x54
 5633 0470 06       		.uleb128 0x6
 5634 0471 C2030000 		.4byte	.LASF70
 5635 0475 08       		.byte	0x8
 5636 0476 E0       		.byte	0xe0
 5637 0477 9B010000 		.4byte	0x19b
 5638 047b 58       		.byte	0x58
 5639 047c 06       		.uleb128 0x6
 5640 047d 0D060000 		.4byte	.LASF71
 5641 0481 08       		.byte	0x8
 5642 0482 E2       		.byte	0xe2
 5643 0483 90010000 		.4byte	0x190
 5644 0487 5C       		.byte	0x5c
 5645 0488 06       		.uleb128 0x6
 5646 0489 C8030000 		.4byte	.LASF72
 5647 048d 08       		.byte	0x8
ARM GAS  C:\Users\jo\AppData\Local\Temp\ccdgtuym.s 			page 101


 5648 048e E3       		.byte	0xe3
 5649 048f 25000000 		.4byte	0x25
 5650 0493 64       		.byte	0x64
 5651 0494 00       		.byte	0
 5652 0495 13       		.uleb128 0x13
 5653 0496 25000000 		.4byte	0x25
 5654 049a B3040000 		.4byte	0x4b3
 5655 049e 14       		.uleb128 0x14
 5656 049f B3040000 		.4byte	0x4b3
 5657 04a3 14       		.uleb128 0x14
 5658 04a4 A6010000 		.4byte	0x1a6
 5659 04a8 14       		.uleb128 0x14
 5660 04a9 EB050000 		.4byte	0x5eb
 5661 04ad 14       		.uleb128 0x14
 5662 04ae 25000000 		.4byte	0x25
 5663 04b2 00       		.byte	0
 5664 04b3 0F       		.uleb128 0xf
 5665 04b4 04       		.byte	0x4
 5666 04b5 B9040000 		.4byte	0x4b9
 5667 04b9 15       		.uleb128 0x15
 5668 04ba 72060000 		.4byte	.LASF73
 5669 04be 2804     		.2byte	0x428
 5670 04c0 08       		.byte	0x8
 5671 04c1 3902     		.2byte	0x239
 5672 04c3 EB050000 		.4byte	0x5eb
 5673 04c7 16       		.uleb128 0x16
 5674 04c8 9E060000 		.4byte	.LASF74
 5675 04cc 08       		.byte	0x8
 5676 04cd 3B02     		.2byte	0x23b
 5677 04cf 25000000 		.4byte	0x25
 5678 04d3 00       		.byte	0
 5679 04d4 16       		.uleb128 0x16
 5680 04d5 D6010000 		.4byte	.LASF75
 5681 04d9 08       		.byte	0x8
 5682 04da 4002     		.2byte	0x240
 5683 04dc D2060000 		.4byte	0x6d2
 5684 04e0 04       		.byte	0x4
 5685 04e1 16       		.uleb128 0x16
 5686 04e2 FA020000 		.4byte	.LASF76
 5687 04e6 08       		.byte	0x8
 5688 04e7 4002     		.2byte	0x240
 5689 04e9 D2060000 		.4byte	0x6d2
 5690 04ed 08       		.byte	0x8
 5691 04ee 16       		.uleb128 0x16
 5692 04ef A1020000 		.4byte	.LASF77
 5693 04f3 08       		.byte	0x8
 5694 04f4 4002     		.2byte	0x240
 5695 04f6 D2060000 		.4byte	0x6d2
 5696 04fa 0C       		.byte	0xc
 5697 04fb 16       		.uleb128 0x16
 5698 04fc 2E060000 		.4byte	.LASF78
 5699 0500 08       		.byte	0x8
 5700 0501 4202     		.2byte	0x242
 5701 0503 25000000 		.4byte	0x25
 5702 0507 10       		.byte	0x10
 5703 0508 16       		.uleb128 0x16
 5704 0509 3C000000 		.4byte	.LASF79
ARM GAS  C:\Users\jo\AppData\Local\Temp\ccdgtuym.s 			page 102


 5705 050d 08       		.byte	0x8
 5706 050e 4302     		.2byte	0x243
 5707 0510 B4080000 		.4byte	0x8b4
 5708 0514 14       		.byte	0x14
 5709 0515 16       		.uleb128 0x16
 5710 0516 0D070000 		.4byte	.LASF80
 5711 051a 08       		.byte	0x8
 5712 051b 4502     		.2byte	0x245
 5713 051d 25000000 		.4byte	0x25
 5714 0521 30       		.byte	0x30
 5715 0522 16       		.uleb128 0x16
 5716 0523 38060000 		.4byte	.LASF81
 5717 0527 08       		.byte	0x8
 5718 0528 4602     		.2byte	0x246
 5719 052a 1C060000 		.4byte	0x61c
 5720 052e 34       		.byte	0x34
 5721 052f 16       		.uleb128 0x16
 5722 0530 3F050000 		.4byte	.LASF82
 5723 0534 08       		.byte	0x8
 5724 0535 4802     		.2byte	0x248
 5725 0537 25000000 		.4byte	0x25
 5726 053b 38       		.byte	0x38
 5727 053c 16       		.uleb128 0x16
 5728 053d 54060000 		.4byte	.LASF83
 5729 0541 08       		.byte	0x8
 5730 0542 4A02     		.2byte	0x24a
 5731 0544 CF080000 		.4byte	0x8cf
 5732 0548 3C       		.byte	0x3c
 5733 0549 16       		.uleb128 0x16
 5734 054a A6030000 		.4byte	.LASF84
 5735 054e 08       		.byte	0x8
 5736 054f 4D02     		.2byte	0x24d
 5737 0551 06020000 		.4byte	0x206
 5738 0555 40       		.byte	0x40
 5739 0556 16       		.uleb128 0x16
 5740 0557 D7020000 		.4byte	.LASF85
 5741 055b 08       		.byte	0x8
 5742 055c 4E02     		.2byte	0x24e
 5743 055e 25000000 		.4byte	0x25
 5744 0562 44       		.byte	0x44
 5745 0563 16       		.uleb128 0x16
 5746 0564 E9070000 		.4byte	.LASF86
 5747 0568 08       		.byte	0x8
 5748 0569 4F02     		.2byte	0x24f
 5749 056b 06020000 		.4byte	0x206
 5750 056f 48       		.byte	0x48
 5751 0570 16       		.uleb128 0x16
 5752 0571 70050000 		.4byte	.LASF87
 5753 0575 08       		.byte	0x8
 5754 0576 5002     		.2byte	0x250
 5755 0578 D5080000 		.4byte	0x8d5
 5756 057c 4C       		.byte	0x4c
 5757 057d 16       		.uleb128 0x16
 5758 057e 02030000 		.4byte	.LASF88
 5759 0582 08       		.byte	0x8
 5760 0583 5302     		.2byte	0x253
 5761 0585 25000000 		.4byte	0x25
ARM GAS  C:\Users\jo\AppData\Local\Temp\ccdgtuym.s 			page 103


 5762 0589 50       		.byte	0x50
 5763 058a 16       		.uleb128 0x16
 5764 058b 0E020000 		.4byte	.LASF89
 5765 058f 08       		.byte	0x8
 5766 0590 5402     		.2byte	0x254
 5767 0592 EB050000 		.4byte	0x5eb
 5768 0596 54       		.byte	0x54
 5769 0597 16       		.uleb128 0x16
 5770 0598 BA050000 		.4byte	.LASF90
 5771 059c 08       		.byte	0x8
 5772 059d 7702     		.2byte	0x277
 5773 059f 92080000 		.4byte	0x892
 5774 05a3 58       		.byte	0x58
 5775 05a4 17       		.uleb128 0x17
 5776 05a5 37050000 		.4byte	.LASF50
 5777 05a9 08       		.byte	0x8
 5778 05aa 7B02     		.2byte	0x27b
 5779 05ac 23030000 		.4byte	0x323
 5780 05b0 4801     		.2byte	0x148
 5781 05b2 17       		.uleb128 0x17
 5782 05b3 70030000 		.4byte	.LASF91
 5783 05b7 08       		.byte	0x8
 5784 05b8 7C02     		.2byte	0x27c
 5785 05ba E5020000 		.4byte	0x2e5
 5786 05be 4C01     		.2byte	0x14c
 5787 05c0 17       		.uleb128 0x17
 5788 05c1 7A070000 		.4byte	.LASF92
 5789 05c5 08       		.byte	0x8
 5790 05c6 8002     		.2byte	0x280
 5791 05c8 E6080000 		.4byte	0x8e6
 5792 05cc DC02     		.2byte	0x2dc
 5793 05ce 17       		.uleb128 0x17
 5794 05cf B0010000 		.4byte	.LASF93
 5795 05d3 08       		.byte	0x8
 5796 05d4 8502     		.2byte	0x285
 5797 05d6 97060000 		.4byte	0x697
 5798 05da E002     		.2byte	0x2e0
 5799 05dc 17       		.uleb128 0x17
 5800 05dd 8E010000 		.4byte	.LASF94
 5801 05e1 08       		.byte	0x8
 5802 05e2 8602     		.2byte	0x286
 5803 05e4 F2080000 		.4byte	0x8f2
 5804 05e8 EC02     		.2byte	0x2ec
 5805 05ea 00       		.byte	0
 5806 05eb 0F       		.uleb128 0xf
 5807 05ec 04       		.byte	0x4
 5808 05ed F1050000 		.4byte	0x5f1
 5809 05f1 04       		.uleb128 0x4
 5810 05f2 01       		.byte	0x1
 5811 05f3 08       		.byte	0x8
 5812 05f4 A5060000 		.4byte	.LASF95
 5813 05f8 0F       		.uleb128 0xf
 5814 05f9 04       		.byte	0x4
 5815 05fa 95040000 		.4byte	0x495
 5816 05fe 13       		.uleb128 0x13
 5817 05ff 25000000 		.4byte	0x25
 5818 0603 1C060000 		.4byte	0x61c
ARM GAS  C:\Users\jo\AppData\Local\Temp\ccdgtuym.s 			page 104


 5819 0607 14       		.uleb128 0x14
 5820 0608 B3040000 		.4byte	0x4b3
 5821 060c 14       		.uleb128 0x14
 5822 060d A6010000 		.4byte	0x1a6
 5823 0611 14       		.uleb128 0x14
 5824 0612 1C060000 		.4byte	0x61c
 5825 0616 14       		.uleb128 0x14
 5826 0617 25000000 		.4byte	0x25
 5827 061b 00       		.byte	0
 5828 061c 0F       		.uleb128 0xf
 5829 061d 04       		.byte	0x4
 5830 061e 22060000 		.4byte	0x622
 5831 0622 18       		.uleb128 0x18
 5832 0623 F1050000 		.4byte	0x5f1
 5833 0627 0F       		.uleb128 0xf
 5834 0628 04       		.byte	0x4
 5835 0629 FE050000 		.4byte	0x5fe
 5836 062d 13       		.uleb128 0x13
 5837 062e 29010000 		.4byte	0x129
 5838 0632 4B060000 		.4byte	0x64b
 5839 0636 14       		.uleb128 0x14
 5840 0637 B3040000 		.4byte	0x4b3
 5841 063b 14       		.uleb128 0x14
 5842 063c A6010000 		.4byte	0x1a6
 5843 0640 14       		.uleb128 0x14
 5844 0641 29010000 		.4byte	0x129
 5845 0645 14       		.uleb128 0x14
 5846 0646 25000000 		.4byte	0x25
 5847 064a 00       		.byte	0
 5848 064b 0F       		.uleb128 0xf
 5849 064c 04       		.byte	0x4
 5850 064d 2D060000 		.4byte	0x62d
 5851 0651 13       		.uleb128 0x13
 5852 0652 25000000 		.4byte	0x25
 5853 0656 65060000 		.4byte	0x665
 5854 065a 14       		.uleb128 0x14
 5855 065b B3040000 		.4byte	0x4b3
 5856 065f 14       		.uleb128 0x14
 5857 0660 A6010000 		.4byte	0x1a6
 5858 0664 00       		.byte	0
 5859 0665 0F       		.uleb128 0xf
 5860 0666 04       		.byte	0x4
 5861 0667 51060000 		.4byte	0x651
 5862 066b 07       		.uleb128 0x7
 5863 066c 45000000 		.4byte	0x45
 5864 0670 7B060000 		.4byte	0x67b
 5865 0674 08       		.uleb128 0x8
 5866 0675 E1000000 		.4byte	0xe1
 5867 0679 02       		.byte	0x2
 5868 067a 00       		.byte	0
 5869 067b 07       		.uleb128 0x7
 5870 067c 45000000 		.4byte	0x45
 5871 0680 8B060000 		.4byte	0x68b
 5872 0684 08       		.uleb128 0x8
 5873 0685 E1000000 		.4byte	0xe1
 5874 0689 00       		.byte	0
 5875 068a 00       		.byte	0
ARM GAS  C:\Users\jo\AppData\Local\Temp\ccdgtuym.s 			page 105


 5876 068b 09       		.uleb128 0x9
 5877 068c F3050000 		.4byte	.LASF96
 5878 0690 08       		.byte	0x8
 5879 0691 1D01     		.2byte	0x11d
 5880 0693 6B030000 		.4byte	0x36b
 5881 0697 19       		.uleb128 0x19
 5882 0698 4B070000 		.4byte	.LASF97
 5883 069c 0C       		.byte	0xc
 5884 069d 08       		.byte	0x8
 5885 069e 2101     		.2byte	0x121
 5886 06a0 CC060000 		.4byte	0x6cc
 5887 06a4 16       		.uleb128 0x16
 5888 06a5 CF060000 		.4byte	.LASF30
 5889 06a9 08       		.byte	0x8
 5890 06aa 2301     		.2byte	0x123
 5891 06ac CC060000 		.4byte	0x6cc
 5892 06b0 00       		.byte	0
 5893 06b1 16       		.uleb128 0x16
 5894 06b2 34030000 		.4byte	.LASF98
 5895 06b6 08       		.byte	0x8
 5896 06b7 2401     		.2byte	0x124
 5897 06b9 25000000 		.4byte	0x25
 5898 06bd 04       		.byte	0x4
 5899 06be 16       		.uleb128 0x16
 5900 06bf ED050000 		.4byte	.LASF99
 5901 06c3 08       		.byte	0x8
 5902 06c4 2501     		.2byte	0x125
 5903 06c6 D2060000 		.4byte	0x6d2
 5904 06ca 08       		.byte	0x8
 5905 06cb 00       		.byte	0
 5906 06cc 0F       		.uleb128 0xf
 5907 06cd 04       		.byte	0x4
 5908 06ce 97060000 		.4byte	0x697
 5909 06d2 0F       		.uleb128 0xf
 5910 06d3 04       		.byte	0x4
 5911 06d4 8B060000 		.4byte	0x68b
 5912 06d8 19       		.uleb128 0x19
 5913 06d9 34000000 		.4byte	.LASF100
 5914 06dd 0E       		.byte	0xe
 5915 06de 08       		.byte	0x8
 5916 06df 3D01     		.2byte	0x13d
 5917 06e1 0D070000 		.4byte	0x70d
 5918 06e5 16       		.uleb128 0x16
 5919 06e6 79060000 		.4byte	.LASF101
 5920 06ea 08       		.byte	0x8
 5921 06eb 3E01     		.2byte	0x13e
 5922 06ed 0D070000 		.4byte	0x70d
 5923 06f1 00       		.byte	0
 5924 06f2 16       		.uleb128 0x16
 5925 06f3 C2060000 		.4byte	.LASF102
 5926 06f7 08       		.byte	0x8
 5927 06f8 3F01     		.2byte	0x13f
 5928 06fa 0D070000 		.4byte	0x70d
 5929 06fe 06       		.byte	0x6
 5930 06ff 16       		.uleb128 0x16
 5931 0700 F3060000 		.4byte	.LASF103
 5932 0704 08       		.byte	0x8
ARM GAS  C:\Users\jo\AppData\Local\Temp\ccdgtuym.s 			page 106


 5933 0705 4001     		.2byte	0x140
 5934 0707 53000000 		.4byte	0x53
 5935 070b 0C       		.byte	0xc
 5936 070c 00       		.byte	0
 5937 070d 07       		.uleb128 0x7
 5938 070e 53000000 		.4byte	0x53
 5939 0712 1D070000 		.4byte	0x71d
 5940 0716 08       		.uleb128 0x8
 5941 0717 E1000000 		.4byte	0xe1
 5942 071b 02       		.byte	0x2
 5943 071c 00       		.byte	0
 5944 071d 1A       		.uleb128 0x1a
 5945 071e D0       		.byte	0xd0
 5946 071f 08       		.byte	0x8
 5947 0720 5802     		.2byte	0x258
 5948 0722 1E080000 		.4byte	0x81e
 5949 0726 16       		.uleb128 0x16
 5950 0727 26070000 		.4byte	.LASF104
 5951 072b 08       		.byte	0x8
 5952 072c 5A02     		.2byte	0x25a
 5953 072e 37000000 		.4byte	0x37
 5954 0732 00       		.byte	0
 5955 0733 16       		.uleb128 0x16
 5956 0734 D5060000 		.4byte	.LASF105
 5957 0738 08       		.byte	0x8
 5958 0739 5B02     		.2byte	0x25b
 5959 073b EB050000 		.4byte	0x5eb
 5960 073f 04       		.byte	0x4
 5961 0740 16       		.uleb128 0x16
 5962 0741 85030000 		.4byte	.LASF106
 5963 0745 08       		.byte	0x8
 5964 0746 5C02     		.2byte	0x25c
 5965 0748 1E080000 		.4byte	0x81e
 5966 074c 08       		.byte	0x8
 5967 074d 16       		.uleb128 0x16
 5968 074e C0070000 		.4byte	.LASF107
 5969 0752 08       		.byte	0x8
 5970 0753 5D02     		.2byte	0x25d
 5971 0755 1C020000 		.4byte	0x21c
 5972 0759 24       		.byte	0x24
 5973 075a 16       		.uleb128 0x16
 5974 075b B1020000 		.4byte	.LASF108
 5975 075f 08       		.byte	0x8
 5976 0760 5E02     		.2byte	0x25e
 5977 0762 25000000 		.4byte	0x25
 5978 0766 48       		.byte	0x48
 5979 0767 16       		.uleb128 0x16
 5980 0768 16060000 		.4byte	.LASF109
 5981 076c 08       		.byte	0x8
 5982 076d 5F02     		.2byte	0x25f
 5983 076f 7A000000 		.4byte	0x7a
 5984 0773 50       		.byte	0x50
 5985 0774 16       		.uleb128 0x16
 5986 0775 D6070000 		.4byte	.LASF110
 5987 0779 08       		.byte	0x8
 5988 077a 6002     		.2byte	0x260
 5989 077c D8060000 		.4byte	0x6d8
ARM GAS  C:\Users\jo\AppData\Local\Temp\ccdgtuym.s 			page 107


 5990 0780 58       		.byte	0x58
 5991 0781 16       		.uleb128 0x16
 5992 0782 21060000 		.4byte	.LASF111
 5993 0786 08       		.byte	0x8
 5994 0787 6102     		.2byte	0x261
 5995 0789 90010000 		.4byte	0x190
 5996 078d 68       		.byte	0x68
 5997 078e 16       		.uleb128 0x16
 5998 078f DB070000 		.4byte	.LASF112
 5999 0793 08       		.byte	0x8
 6000 0794 6202     		.2byte	0x262
 6001 0796 90010000 		.4byte	0x190
 6002 079a 70       		.byte	0x70
 6003 079b 16       		.uleb128 0x16
 6004 079c EF000000 		.4byte	.LASF113
 6005 07a0 08       		.byte	0x8
 6006 07a1 6302     		.2byte	0x263
 6007 07a3 90010000 		.4byte	0x190
 6008 07a7 78       		.byte	0x78
 6009 07a8 16       		.uleb128 0x16
 6010 07a9 5F070000 		.4byte	.LASF114
 6011 07ad 08       		.byte	0x8
 6012 07ae 6402     		.2byte	0x264
 6013 07b0 2E080000 		.4byte	0x82e
 6014 07b4 80       		.byte	0x80
 6015 07b5 16       		.uleb128 0x16
 6016 07b6 79030000 		.4byte	.LASF115
 6017 07ba 08       		.byte	0x8
 6018 07bb 6502     		.2byte	0x265
 6019 07bd 3E080000 		.4byte	0x83e
 6020 07c1 88       		.byte	0x88
 6021 07c2 16       		.uleb128 0x16
 6022 07c3 00070000 		.4byte	.LASF116
 6023 07c7 08       		.byte	0x8
 6024 07c8 6602     		.2byte	0x266
 6025 07ca 25000000 		.4byte	0x25
 6026 07ce A0       		.byte	0xa0
 6027 07cf 16       		.uleb128 0x16
 6028 07d0 66020000 		.4byte	.LASF117
 6029 07d4 08       		.byte	0x8
 6030 07d5 6702     		.2byte	0x267
 6031 07d7 90010000 		.4byte	0x190
 6032 07db A4       		.byte	0xa4
 6033 07dc 16       		.uleb128 0x16
 6034 07dd E0000000 		.4byte	.LASF118
 6035 07e1 08       		.byte	0x8
 6036 07e2 6802     		.2byte	0x268
 6037 07e4 90010000 		.4byte	0x190
 6038 07e8 AC       		.byte	0xac
 6039 07e9 16       		.uleb128 0x16
 6040 07ea 55020000 		.4byte	.LASF119
 6041 07ee 08       		.byte	0x8
 6042 07ef 6902     		.2byte	0x269
 6043 07f1 90010000 		.4byte	0x190
 6044 07f5 B4       		.byte	0xb4
 6045 07f6 16       		.uleb128 0x16
 6046 07f7 7B000000 		.4byte	.LASF120
ARM GAS  C:\Users\jo\AppData\Local\Temp\ccdgtuym.s 			page 108


 6047 07fb 08       		.byte	0x8
 6048 07fc 6A02     		.2byte	0x26a
 6049 07fe 90010000 		.4byte	0x190
 6050 0802 BC       		.byte	0xbc
 6051 0803 16       		.uleb128 0x16
 6052 0804 8A000000 		.4byte	.LASF121
 6053 0808 08       		.byte	0x8
 6054 0809 6B02     		.2byte	0x26b
 6055 080b 90010000 		.4byte	0x190
 6056 080f C4       		.byte	0xc4
 6057 0810 16       		.uleb128 0x16
 6058 0811 BF050000 		.4byte	.LASF122
 6059 0815 08       		.byte	0x8
 6060 0816 6C02     		.2byte	0x26c
 6061 0818 25000000 		.4byte	0x25
 6062 081c CC       		.byte	0xcc
 6063 081d 00       		.byte	0
 6064 081e 07       		.uleb128 0x7
 6065 081f F1050000 		.4byte	0x5f1
 6066 0823 2E080000 		.4byte	0x82e
 6067 0827 08       		.uleb128 0x8
 6068 0828 E1000000 		.4byte	0xe1
 6069 082c 19       		.byte	0x19
 6070 082d 00       		.byte	0
 6071 082e 07       		.uleb128 0x7
 6072 082f F1050000 		.4byte	0x5f1
 6073 0833 3E080000 		.4byte	0x83e
 6074 0837 08       		.uleb128 0x8
 6075 0838 E1000000 		.4byte	0xe1
 6076 083c 07       		.byte	0x7
 6077 083d 00       		.byte	0
 6078 083e 07       		.uleb128 0x7
 6079 083f F1050000 		.4byte	0x5f1
 6080 0843 4E080000 		.4byte	0x84e
 6081 0847 08       		.uleb128 0x8
 6082 0848 E1000000 		.4byte	0xe1
 6083 084c 17       		.byte	0x17
 6084 084d 00       		.byte	0
 6085 084e 1A       		.uleb128 0x1a
 6086 084f F0       		.byte	0xf0
 6087 0850 08       		.byte	0x8
 6088 0851 7102     		.2byte	0x271
 6089 0853 72080000 		.4byte	0x872
 6090 0857 16       		.uleb128 0x16
 6091 0858 20050000 		.4byte	.LASF123
 6092 085c 08       		.byte	0x8
 6093 085d 7402     		.2byte	0x274
 6094 085f 72080000 		.4byte	0x872
 6095 0863 00       		.byte	0
 6096 0864 16       		.uleb128 0x16
 6097 0865 56070000 		.4byte	.LASF124
 6098 0869 08       		.byte	0x8
 6099 086a 7502     		.2byte	0x275
 6100 086c 82080000 		.4byte	0x882
 6101 0870 78       		.byte	0x78
 6102 0871 00       		.byte	0
 6103 0872 07       		.uleb128 0x7
ARM GAS  C:\Users\jo\AppData\Local\Temp\ccdgtuym.s 			page 109


 6104 0873 65030000 		.4byte	0x365
 6105 0877 82080000 		.4byte	0x882
 6106 087b 08       		.uleb128 0x8
 6107 087c E1000000 		.4byte	0xe1
 6108 0880 1D       		.byte	0x1d
 6109 0881 00       		.byte	0
 6110 0882 07       		.uleb128 0x7
 6111 0883 37000000 		.4byte	0x37
 6112 0887 92080000 		.4byte	0x892
 6113 088b 08       		.uleb128 0x8
 6114 088c E1000000 		.4byte	0xe1
 6115 0890 1D       		.byte	0x1d
 6116 0891 00       		.byte	0
 6117 0892 1B       		.uleb128 0x1b
 6118 0893 F0       		.byte	0xf0
 6119 0894 08       		.byte	0x8
 6120 0895 5602     		.2byte	0x256
 6121 0897 B4080000 		.4byte	0x8b4
 6122 089b 1C       		.uleb128 0x1c
 6123 089c 72060000 		.4byte	.LASF73
 6124 08a0 08       		.byte	0x8
 6125 08a1 6D02     		.2byte	0x26d
 6126 08a3 1D070000 		.4byte	0x71d
 6127 08a7 1C       		.uleb128 0x1c
 6128 08a8 8A070000 		.4byte	.LASF125
 6129 08ac 08       		.byte	0x8
 6130 08ad 7602     		.2byte	0x276
 6131 08af 4E080000 		.4byte	0x84e
 6132 08b3 00       		.byte	0
 6133 08b4 07       		.uleb128 0x7
 6134 08b5 F1050000 		.4byte	0x5f1
 6135 08b9 C4080000 		.4byte	0x8c4
 6136 08bd 08       		.uleb128 0x8
 6137 08be E1000000 		.4byte	0xe1
 6138 08c2 18       		.byte	0x18
 6139 08c3 00       		.byte	0
 6140 08c4 1D       		.uleb128 0x1d
 6141 08c5 CF080000 		.4byte	0x8cf
 6142 08c9 14       		.uleb128 0x14
 6143 08ca B3040000 		.4byte	0x4b3
 6144 08ce 00       		.byte	0
 6145 08cf 0F       		.uleb128 0xf
 6146 08d0 04       		.byte	0x4
 6147 08d1 C4080000 		.4byte	0x8c4
 6148 08d5 0F       		.uleb128 0xf
 6149 08d6 04       		.byte	0x4
 6150 08d7 06020000 		.4byte	0x206
 6151 08db 1D       		.uleb128 0x1d
 6152 08dc E6080000 		.4byte	0x8e6
 6153 08e0 14       		.uleb128 0x14
 6154 08e1 25000000 		.4byte	0x25
 6155 08e5 00       		.byte	0
 6156 08e6 0F       		.uleb128 0xf
 6157 08e7 04       		.byte	0x4
 6158 08e8 EC080000 		.4byte	0x8ec
 6159 08ec 0F       		.uleb128 0xf
 6160 08ed 04       		.byte	0x4
ARM GAS  C:\Users\jo\AppData\Local\Temp\ccdgtuym.s 			page 110


 6161 08ee DB080000 		.4byte	0x8db
 6162 08f2 07       		.uleb128 0x7
 6163 08f3 8B060000 		.4byte	0x68b
 6164 08f7 02090000 		.4byte	0x902
 6165 08fb 08       		.uleb128 0x8
 6166 08fc E1000000 		.4byte	0xe1
 6167 0900 02       		.byte	0x2
 6168 0901 00       		.byte	0
 6169 0902 03       		.uleb128 0x3
 6170 0903 5E060000 		.4byte	.LASF126
 6171 0907 09       		.byte	0x9
 6172 0908 34       		.byte	0x34
 6173 0909 8B060000 		.4byte	0x68b
 6174 090d 0F       		.uleb128 0xf
 6175 090e 04       		.byte	0x4
 6176 090f 13090000 		.4byte	0x913
 6177 0913 1E       		.uleb128 0x1e
 6178 0914 1F       		.uleb128 0x1f
 6179 0915 C0020000 		.4byte	.LASF172
 6180 0919 01       		.byte	0x1
 6181 091a 4E       		.byte	0x4e
 6182 091b 01       		.byte	0x1
 6183 091c 3C090000 		.4byte	0x93c
 6184 0920 20       		.uleb128 0x20
 6185 0921 7600     		.ascii	"v\000"
 6186 0923 01       		.byte	0x1
 6187 0924 4E       		.byte	0x4e
 6188 0925 A6010000 		.4byte	0x1a6
 6189 0929 20       		.uleb128 0x20
 6190 092a 6E00     		.ascii	"n\000"
 6191 092c 01       		.byte	0x1
 6192 092d 4E       		.byte	0x4e
 6193 092e 2C000000 		.4byte	0x2c
 6194 0932 21       		.uleb128 0x21
 6195 0933 7000     		.ascii	"p\000"
 6196 0935 01       		.byte	0x1
 6197 0936 4F       		.byte	0x4f
 6198 0937 3C090000 		.4byte	0x93c
 6199 093b 00       		.byte	0
 6200 093c 0F       		.uleb128 0xf
 6201 093d 04       		.byte	0x4
 6202 093e 42090000 		.4byte	0x942
 6203 0942 22       		.uleb128 0x22
 6204 0943 45000000 		.4byte	0x45
 6205 0947 23       		.uleb128 0x23
 6206 0948 D6030000 		.4byte	.LASF131
 6207 094c 01       		.byte	0x1
 6208 094d 2501     		.2byte	0x125
 6209 094f 01       		.byte	0x1
 6210 0950 91090000 		.4byte	0x991
 6211 0954 24       		.uleb128 0x24
 6212 0955 63747800 		.ascii	"ctx\000"
 6213 0959 01       		.byte	0x1
 6214 095a 2501     		.2byte	0x125
 6215 095c 91090000 		.4byte	0x991
 6216 0960 25       		.uleb128 0x25
 6217 0961 4E060000 		.4byte	.LASF127
ARM GAS  C:\Users\jo\AppData\Local\Temp\ccdgtuym.s 			page 111


 6218 0965 01       		.byte	0x1
 6219 0966 2601     		.2byte	0x126
 6220 0968 97090000 		.4byte	0x997
 6221 096c 25       		.uleb128 0x25
 6222 096d 51070000 		.4byte	.LASF128
 6223 0971 01       		.byte	0x1
 6224 0972 2601     		.2byte	0x126
 6225 0974 2C000000 		.4byte	0x2c
 6226 0978 26       		.uleb128 0x26
 6227 0979 A7050000 		.4byte	.LASF129
 6228 097d 01       		.byte	0x1
 6229 097e 2801     		.2byte	0x128
 6230 0980 2C000000 		.4byte	0x2c
 6231 0984 26       		.uleb128 0x26
 6232 0985 F8070000 		.4byte	.LASF130
 6233 0989 01       		.byte	0x1
 6234 098a 2901     		.2byte	0x129
 6235 098c 81000000 		.4byte	0x81
 6236 0990 00       		.byte	0
 6237 0991 0F       		.uleb128 0xf
 6238 0992 04       		.byte	0x4
 6239 0993 08010000 		.4byte	0x108
 6240 0997 0F       		.uleb128 0xf
 6241 0998 04       		.byte	0x4
 6242 0999 9D090000 		.4byte	0x99d
 6243 099d 18       		.uleb128 0x18
 6244 099e 45000000 		.4byte	0x45
 6245 09a2 27       		.uleb128 0x27
 6246 09a3 92070000 		.4byte	.LASF132
 6247 09a7 01       		.byte	0x1
 6248 09a8 52       		.byte	0x52
 6249 09a9 01       		.byte	0x1
 6250 09aa BA090000 		.4byte	0x9ba
 6251 09ae 20       		.uleb128 0x20
 6252 09af 63747800 		.ascii	"ctx\000"
 6253 09b3 01       		.byte	0x1
 6254 09b4 52       		.byte	0x52
 6255 09b5 91090000 		.4byte	0x991
 6256 09b9 00       		.byte	0
 6257 09ba 27       		.uleb128 0x27
 6258 09bb 69070000 		.4byte	.LASF133
 6259 09bf 01       		.byte	0x1
 6260 09c0 62       		.byte	0x62
 6261 09c1 01       		.byte	0x1
 6262 09c2 D2090000 		.4byte	0x9d2
 6263 09c6 20       		.uleb128 0x20
 6264 09c7 63747800 		.ascii	"ctx\000"
 6265 09cb 01       		.byte	0x1
 6266 09cc 62       		.byte	0x62
 6267 09cd 91090000 		.4byte	0x991
 6268 09d1 00       		.byte	0
 6269 09d2 27       		.uleb128 0x27
 6270 09d3 9B000000 		.4byte	.LASF134
 6271 09d7 01       		.byte	0x1
 6272 09d8 57       		.byte	0x57
 6273 09d9 01       		.byte	0x1
 6274 09da EA090000 		.4byte	0x9ea
ARM GAS  C:\Users\jo\AppData\Local\Temp\ccdgtuym.s 			page 112


 6275 09de 20       		.uleb128 0x20
 6276 09df 63747800 		.ascii	"ctx\000"
 6277 09e3 01       		.byte	0x1
 6278 09e4 57       		.byte	0x57
 6279 09e5 91090000 		.4byte	0x991
 6280 09e9 00       		.byte	0
 6281 09ea 23       		.uleb128 0x23
 6282 09eb 3B030000 		.4byte	.LASF135
 6283 09ef 01       		.byte	0x1
 6284 09f0 C501     		.2byte	0x1c5
 6285 09f2 01       		.byte	0x1
 6286 09f3 1C0A0000 		.4byte	0xa1c
 6287 09f7 24       		.uleb128 0x24
 6288 09f8 63747800 		.ascii	"ctx\000"
 6289 09fc 01       		.byte	0x1
 6290 09fd C501     		.2byte	0x1c5
 6291 09ff 91090000 		.4byte	0x991
 6292 0a03 25       		.uleb128 0x25
 6293 0a04 4E060000 		.4byte	.LASF127
 6294 0a08 01       		.byte	0x1
 6295 0a09 C601     		.2byte	0x1c6
 6296 0a0b 97090000 		.4byte	0x997
 6297 0a0f 25       		.uleb128 0x25
 6298 0a10 51070000 		.4byte	.LASF128
 6299 0a14 01       		.byte	0x1
 6300 0a15 C601     		.2byte	0x1c6
 6301 0a17 2C000000 		.4byte	0x2c
 6302 0a1b 00       		.byte	0
 6303 0a1c 28       		.uleb128 0x28
 6304 0a1d A2090000 		.4byte	0x9a2
 6305 0a21 00000000 		.4byte	.LFB1
 6306 0a25 08000000 		.4byte	.LFE1-.LFB1
 6307 0a29 01       		.uleb128 0x1
 6308 0a2a 9C       		.byte	0x9c
 6309 0a2b 550A0000 		.4byte	0xa55
 6310 0a2f 29       		.uleb128 0x29
 6311 0a30 AE090000 		.4byte	0x9ae
 6312 0a34 00000000 		.4byte	.LLST0
 6313 0a38 2A       		.uleb128 0x2a
 6314 0a39 08000000 		.4byte	.LVL1
 6315 0a3d C6190000 		.4byte	0x19c6
 6316 0a41 2B       		.uleb128 0x2b
 6317 0a42 01       		.uleb128 0x1
 6318 0a43 52       		.byte	0x52
 6319 0a44 02       		.uleb128 0x2
 6320 0a45 08       		.byte	0x8
 6321 0a46 DC       		.byte	0xdc
 6322 0a47 2B       		.uleb128 0x2b
 6323 0a48 01       		.uleb128 0x1
 6324 0a49 51       		.byte	0x51
 6325 0a4a 01       		.uleb128 0x1
 6326 0a4b 30       		.byte	0x30
 6327 0a4c 2B       		.uleb128 0x2b
 6328 0a4d 01       		.uleb128 0x1
 6329 0a4e 50       		.byte	0x50
 6330 0a4f 03       		.uleb128 0x3
 6331 0a50 F3       		.byte	0xf3
ARM GAS  C:\Users\jo\AppData\Local\Temp\ccdgtuym.s 			page 113


 6332 0a51 01       		.uleb128 0x1
 6333 0a52 50       		.byte	0x50
 6334 0a53 00       		.byte	0
 6335 0a54 00       		.byte	0
 6336 0a55 28       		.uleb128 0x28
 6337 0a56 D2090000 		.4byte	0x9d2
 6338 0a5a 00000000 		.4byte	.LFB2
 6339 0a5e 12000000 		.4byte	.LFE2-.LFB2
 6340 0a62 01       		.uleb128 0x1
 6341 0a63 9C       		.byte	0x9c
 6342 0a64 A30A0000 		.4byte	0xaa3
 6343 0a68 29       		.uleb128 0x29
 6344 0a69 DE090000 		.4byte	0x9de
 6345 0a6d 21000000 		.4byte	.LLST1
 6346 0a71 2C       		.uleb128 0x2c
 6347 0a72 14090000 		.4byte	0x914
 6348 0a76 06000000 		.4byte	.LBB58
 6349 0a7a 0C000000 		.4byte	.LBE58-.LBB58
 6350 0a7e 01       		.byte	0x1
 6351 0a7f 5C       		.byte	0x5c
 6352 0a80 29       		.uleb128 0x29
 6353 0a81 29090000 		.4byte	0x929
 6354 0a85 50000000 		.4byte	.LLST2
 6355 0a89 2D       		.uleb128 0x2d
 6356 0a8a 20090000 		.4byte	0x920
 6357 0a8e 2E       		.uleb128 0x2e
 6358 0a8f 06000000 		.4byte	.LBB59
 6359 0a93 0C000000 		.4byte	.LBE59-.LBB59
 6360 0a97 2F       		.uleb128 0x2f
 6361 0a98 32090000 		.4byte	0x932
 6362 0a9c 65000000 		.4byte	.LLST3
 6363 0aa0 00       		.byte	0
 6364 0aa1 00       		.byte	0
 6365 0aa2 00       		.byte	0
 6366 0aa3 28       		.uleb128 0x28
 6367 0aa4 BA090000 		.4byte	0x9ba
 6368 0aa8 00000000 		.4byte	.LFB3
 6369 0aac 34000000 		.4byte	.LFE3-.LFB3
 6370 0ab0 01       		.uleb128 0x1
 6371 0ab1 9C       		.byte	0x9c
 6372 0ab2 BE0A0000 		.4byte	0xabe
 6373 0ab6 30       		.uleb128 0x30
 6374 0ab7 C6090000 		.4byte	0x9c6
 6375 0abb 01       		.uleb128 0x1
 6376 0abc 50       		.byte	0x50
 6377 0abd 00       		.byte	0
 6378 0abe 31       		.uleb128 0x31
 6379 0abf 09050000 		.4byte	.LASF137
 6380 0ac3 01       		.byte	0x1
 6381 0ac4 71       		.byte	0x71
 6382 0ac5 00000000 		.4byte	.LFB4
 6383 0ac9 50160000 		.4byte	.LFE4-.LFB4
 6384 0acd 01       		.uleb128 0x1
 6385 0ace 9C       		.byte	0x9c
 6386 0acf 860B0000 		.4byte	0xb86
 6387 0ad3 32       		.uleb128 0x32
 6388 0ad4 63747800 		.ascii	"ctx\000"
ARM GAS  C:\Users\jo\AppData\Local\Temp\ccdgtuym.s 			page 114


 6389 0ad8 01       		.byte	0x1
 6390 0ad9 71       		.byte	0x71
 6391 0ada 91090000 		.4byte	0x991
 6392 0ade 85000000 		.4byte	.LLST4
 6393 0ae2 33       		.uleb128 0x33
 6394 0ae3 51030000 		.4byte	.LASF136
 6395 0ae7 01       		.byte	0x1
 6396 0ae8 71       		.byte	0x71
 6397 0ae9 97090000 		.4byte	0x997
 6398 0aed B0000000 		.4byte	.LLST5
 6399 0af1 34       		.uleb128 0x34
 6400 0af2 4100     		.ascii	"A\000"
 6401 0af4 01       		.byte	0x1
 6402 0af5 73       		.byte	0x73
 6403 0af6 81000000 		.4byte	0x81
 6404 0afa D1000000 		.4byte	.LLST6
 6405 0afe 34       		.uleb128 0x34
 6406 0aff 4200     		.ascii	"B\000"
 6407 0b01 01       		.byte	0x1
 6408 0b02 73       		.byte	0x73
 6409 0b03 81000000 		.4byte	0x81
 6410 0b07 05030000 		.4byte	.LLST7
 6411 0b0b 34       		.uleb128 0x34
 6412 0b0c 4300     		.ascii	"C\000"
 6413 0b0e 01       		.byte	0x1
 6414 0b0f 73       		.byte	0x73
 6415 0b10 81000000 		.4byte	0x81
 6416 0b14 5B050000 		.4byte	.LLST8
 6417 0b18 34       		.uleb128 0x34
 6418 0b19 4400     		.ascii	"D\000"
 6419 0b1b 01       		.byte	0x1
 6420 0b1c 73       		.byte	0x73
 6421 0b1d 81000000 		.4byte	0x81
 6422 0b21 C7070000 		.4byte	.LLST9
 6423 0b25 34       		.uleb128 0x34
 6424 0b26 4500     		.ascii	"E\000"
 6425 0b28 01       		.byte	0x1
 6426 0b29 73       		.byte	0x73
 6427 0b2a 81000000 		.4byte	0x81
 6428 0b2e 840A0000 		.4byte	.LLST10
 6429 0b32 34       		.uleb128 0x34
 6430 0b33 417000   		.ascii	"Ap\000"
 6431 0b36 01       		.byte	0x1
 6432 0b37 73       		.byte	0x73
 6433 0b38 81000000 		.4byte	0x81
 6434 0b3c 5E0D0000 		.4byte	.LLST11
 6435 0b40 34       		.uleb128 0x34
 6436 0b41 427000   		.ascii	"Bp\000"
 6437 0b44 01       		.byte	0x1
 6438 0b45 73       		.byte	0x73
 6439 0b46 81000000 		.4byte	0x81
 6440 0b4a 8D0E0000 		.4byte	.LLST12
 6441 0b4e 34       		.uleb128 0x34
 6442 0b4f 437000   		.ascii	"Cp\000"
 6443 0b52 01       		.byte	0x1
 6444 0b53 73       		.byte	0x73
 6445 0b54 81000000 		.4byte	0x81
ARM GAS  C:\Users\jo\AppData\Local\Temp\ccdgtuym.s 			page 115


 6446 0b58 EE0F0000 		.4byte	.LLST13
 6447 0b5c 34       		.uleb128 0x34
 6448 0b5d 447000   		.ascii	"Dp\000"
 6449 0b60 01       		.byte	0x1
 6450 0b61 73       		.byte	0x73
 6451 0b62 81000000 		.4byte	0x81
 6452 0b66 39110000 		.4byte	.LLST14
 6453 0b6a 34       		.uleb128 0x34
 6454 0b6b 457000   		.ascii	"Ep\000"
 6455 0b6e 01       		.byte	0x1
 6456 0b6f 73       		.byte	0x73
 6457 0b70 81000000 		.4byte	0x81
 6458 0b74 A2120000 		.4byte	.LLST15
 6459 0b78 34       		.uleb128 0x34
 6460 0b79 5800     		.ascii	"X\000"
 6461 0b7b 01       		.byte	0x1
 6462 0b7c 73       		.byte	0x73
 6463 0b7d 860B0000 		.4byte	0xb86
 6464 0b81 A5130000 		.4byte	.LLST16
 6465 0b85 00       		.byte	0
 6466 0b86 07       		.uleb128 0x7
 6467 0b87 81000000 		.4byte	0x81
 6468 0b8b 960B0000 		.4byte	0xb96
 6469 0b8f 08       		.uleb128 0x8
 6470 0b90 E1000000 		.4byte	0xe1
 6471 0b94 0F       		.byte	0xf
 6472 0b95 00       		.byte	0
 6473 0b96 28       		.uleb128 0x28
 6474 0b97 47090000 		.4byte	0x947
 6475 0b9b 00000000 		.4byte	.LFB15
 6476 0b9f 92000000 		.4byte	.LFE15-.LFB15
 6477 0ba3 01       		.uleb128 0x1
 6478 0ba4 9C       		.byte	0x9c
 6479 0ba5 390C0000 		.4byte	0xc39
 6480 0ba9 29       		.uleb128 0x29
 6481 0baa 54090000 		.4byte	0x954
 6482 0bae 07140000 		.4byte	.LLST17
 6483 0bb2 29       		.uleb128 0x29
 6484 0bb3 60090000 		.4byte	0x960
 6485 0bb7 33140000 		.4byte	.LLST18
 6486 0bbb 29       		.uleb128 0x29
 6487 0bbc 6C090000 		.4byte	0x96c
 6488 0bc0 72140000 		.4byte	.LLST19
 6489 0bc4 2F       		.uleb128 0x2f
 6490 0bc5 78090000 		.4byte	0x978
 6491 0bc9 E3140000 		.4byte	.LLST20
 6492 0bcd 2F       		.uleb128 0x2f
 6493 0bce 84090000 		.4byte	0x984
 6494 0bd2 0B150000 		.4byte	.LLST21
 6495 0bd6 35       		.uleb128 0x35
 6496 0bd7 40000000 		.4byte	.LVL492
 6497 0bdb E3190000 		.4byte	0x19e3
 6498 0bdf FB0B0000 		.4byte	0xbfb
 6499 0be3 2B       		.uleb128 0x2b
 6500 0be4 01       		.uleb128 0x1
 6501 0be5 52       		.byte	0x52
 6502 0be6 02       		.uleb128 0x2
ARM GAS  C:\Users\jo\AppData\Local\Temp\ccdgtuym.s 			page 116


 6503 0be7 74       		.byte	0x74
 6504 0be8 00       		.sleb128 0
 6505 0be9 2B       		.uleb128 0x2b
 6506 0bea 01       		.uleb128 0x1
 6507 0beb 51       		.byte	0x51
 6508 0bec 02       		.uleb128 0x2
 6509 0bed 79       		.byte	0x79
 6510 0bee 00       		.sleb128 0
 6511 0bef 2B       		.uleb128 0x2b
 6512 0bf0 01       		.uleb128 0x1
 6513 0bf1 50       		.byte	0x50
 6514 0bf2 07       		.uleb128 0x7
 6515 0bf3 76       		.byte	0x76
 6516 0bf4 00       		.sleb128 0
 6517 0bf5 78       		.byte	0x78
 6518 0bf6 00       		.sleb128 0
 6519 0bf7 22       		.byte	0x22
 6520 0bf8 23       		.byte	0x23
 6521 0bf9 1C       		.uleb128 0x1c
 6522 0bfa 00       		.byte	0
 6523 0bfb 35       		.uleb128 0x35
 6524 0bfc 4A000000 		.4byte	.LVL493
 6525 0c00 BE0A0000 		.4byte	0xabe
 6526 0c04 150C0000 		.4byte	0xc15
 6527 0c08 2B       		.uleb128 0x2b
 6528 0c09 01       		.uleb128 0x1
 6529 0c0a 51       		.byte	0x51
 6530 0c0b 02       		.uleb128 0x2
 6531 0c0c 76       		.byte	0x76
 6532 0c0d 1C       		.sleb128 28
 6533 0c0e 2B       		.uleb128 0x2b
 6534 0c0f 01       		.uleb128 0x1
 6535 0c10 50       		.byte	0x50
 6536 0c11 02       		.uleb128 0x2
 6537 0c12 76       		.byte	0x76
 6538 0c13 00       		.sleb128 0
 6539 0c14 00       		.byte	0
 6540 0c15 35       		.uleb128 0x35
 6541 0c16 64000000 		.4byte	.LVL499
 6542 0c1a BE0A0000 		.4byte	0xabe
 6543 0c1e 2F0C0000 		.4byte	0xc2f
 6544 0c22 2B       		.uleb128 0x2b
 6545 0c23 01       		.uleb128 0x1
 6546 0c24 51       		.byte	0x51
 6547 0c25 02       		.uleb128 0x2
 6548 0c26 74       		.byte	0x74
 6549 0c27 00       		.sleb128 0
 6550 0c28 2B       		.uleb128 0x2b
 6551 0c29 01       		.uleb128 0x1
 6552 0c2a 50       		.byte	0x50
 6553 0c2b 02       		.uleb128 0x2
 6554 0c2c 76       		.byte	0x76
 6555 0c2d 00       		.sleb128 0
 6556 0c2e 00       		.byte	0
 6557 0c2f 36       		.uleb128 0x36
 6558 0c30 92000000 		.4byte	.LVL503
 6559 0c34 E3190000 		.4byte	0x19e3
ARM GAS  C:\Users\jo\AppData\Local\Temp\ccdgtuym.s 			page 117


 6560 0c38 00       		.byte	0
 6561 0c39 28       		.uleb128 0x28
 6562 0c3a 47090000 		.4byte	0x947
 6563 0c3e 00000000 		.4byte	.LFB5
 6564 0c42 08000000 		.4byte	.LFE5-.LFB5
 6565 0c46 01       		.uleb128 0x1
 6566 0c47 9C       		.byte	0x9c
 6567 0c48 910C0000 		.4byte	0xc91
 6568 0c4c 29       		.uleb128 0x29
 6569 0c4d 54090000 		.4byte	0x954
 6570 0c51 40150000 		.4byte	.LLST22
 6571 0c55 29       		.uleb128 0x29
 6572 0c56 60090000 		.4byte	0x960
 6573 0c5a 6C150000 		.4byte	.LLST23
 6574 0c5e 29       		.uleb128 0x29
 6575 0c5f 6C090000 		.4byte	0x96c
 6576 0c63 98150000 		.4byte	.LLST24
 6577 0c67 37       		.uleb128 0x37
 6578 0c68 78090000 		.4byte	0x978
 6579 0c6c 37       		.uleb128 0x37
 6580 0c6d 84090000 		.4byte	0x984
 6581 0c71 2A       		.uleb128 0x2a
 6582 0c72 06000000 		.4byte	.LVL505
 6583 0c76 960B0000 		.4byte	0xb96
 6584 0c7a 2B       		.uleb128 0x2b
 6585 0c7b 01       		.uleb128 0x1
 6586 0c7c 52       		.byte	0x52
 6587 0c7d 03       		.uleb128 0x3
 6588 0c7e F3       		.byte	0xf3
 6589 0c7f 01       		.uleb128 0x1
 6590 0c80 52       		.byte	0x52
 6591 0c81 2B       		.uleb128 0x2b
 6592 0c82 01       		.uleb128 0x1
 6593 0c83 51       		.byte	0x51
 6594 0c84 03       		.uleb128 0x3
 6595 0c85 F3       		.byte	0xf3
 6596 0c86 01       		.uleb128 0x1
 6597 0c87 51       		.byte	0x51
 6598 0c88 2B       		.uleb128 0x2b
 6599 0c89 01       		.uleb128 0x1
 6600 0c8a 50       		.byte	0x50
 6601 0c8b 03       		.uleb128 0x3
 6602 0c8c F3       		.byte	0xf3
 6603 0c8d 01       		.uleb128 0x1
 6604 0c8e 50       		.byte	0x50
 6605 0c8f 00       		.byte	0
 6606 0c90 00       		.byte	0
 6607 0c91 38       		.uleb128 0x38
 6608 0c92 FD010000 		.4byte	.LASF138
 6609 0c96 01       		.byte	0x1
 6610 0c97 5801     		.2byte	0x158
 6611 0c99 00000000 		.4byte	.LFB6
 6612 0c9d D0000000 		.4byte	.LFE6-.LFB6
 6613 0ca1 01       		.uleb128 0x1
 6614 0ca2 9C       		.byte	0x9c
 6615 0ca3 CB0D0000 		.4byte	0xdcb
 6616 0ca7 39       		.uleb128 0x39
ARM GAS  C:\Users\jo\AppData\Local\Temp\ccdgtuym.s 			page 118


 6617 0ca8 63747800 		.ascii	"ctx\000"
 6618 0cac 01       		.byte	0x1
 6619 0cad 5801     		.2byte	0x158
 6620 0caf 91090000 		.4byte	0x991
 6621 0cb3 C4150000 		.4byte	.LLST25
 6622 0cb7 3A       		.uleb128 0x3a
 6623 0cb8 E7040000 		.4byte	.LASF139
 6624 0cbc 01       		.byte	0x1
 6625 0cbd 5801     		.2byte	0x158
 6626 0cbf 65030000 		.4byte	0x365
 6627 0cc3 F0150000 		.4byte	.LLST26
 6628 0cc7 3B       		.uleb128 0x3b
 6629 0cc8 A1030000 		.4byte	.LASF140
 6630 0ccc 01       		.byte	0x1
 6631 0ccd 5A01     		.2byte	0x15a
 6632 0ccf 81000000 		.4byte	0x81
 6633 0cd3 1C160000 		.4byte	.LLST27
 6634 0cd7 3B       		.uleb128 0x3b
 6635 0cd8 FD070000 		.4byte	.LASF141
 6636 0cdc 01       		.byte	0x1
 6637 0cdd 5A01     		.2byte	0x15a
 6638 0cdf 81000000 		.4byte	0x81
 6639 0ce3 40160000 		.4byte	.LLST28
 6640 0ce7 3B       		.uleb128 0x3b
 6641 0ce8 1B050000 		.4byte	.LASF142
 6642 0cec 01       		.byte	0x1
 6643 0ced 5B01     		.2byte	0x15b
 6644 0cef 81000000 		.4byte	0x81
 6645 0cf3 53160000 		.4byte	.LLST29
 6646 0cf7 3C       		.uleb128 0x3c
 6647 0cf8 6C6F7700 		.ascii	"low\000"
 6648 0cfc 01       		.byte	0x1
 6649 0cfd 5B01     		.2byte	0x15b
 6650 0cff 81000000 		.4byte	0x81
 6651 0d03 66160000 		.4byte	.LLST30
 6652 0d07 3D       		.uleb128 0x3d
 6653 0d08 51050000 		.4byte	.LASF143
 6654 0d0c 01       		.byte	0x1
 6655 0d0d 5C01     		.2byte	0x15c
 6656 0d0f CB0D0000 		.4byte	0xdcb
 6657 0d13 02       		.uleb128 0x2
 6658 0d14 91       		.byte	0x91
 6659 0d15 60       		.sleb128 -32
 6660 0d16 3E       		.uleb128 0x3e
 6661 0d17 47090000 		.4byte	0x947
 6662 0d1b 42000000 		.4byte	.LBB60
 6663 0d1f 00000000 		.4byte	.Ldebug_ranges0+0
 6664 0d23 01       		.byte	0x1
 6665 0d24 6801     		.2byte	0x168
 6666 0d26 720D0000 		.4byte	0xd72
 6667 0d2a 29       		.uleb128 0x29
 6668 0d2b 6C090000 		.4byte	0x96c
 6669 0d2f 40160000 		.4byte	.LLST28
 6670 0d33 30       		.uleb128 0x30
 6671 0d34 60090000 		.4byte	0x960
 6672 0d38 06       		.uleb128 0x6
 6673 0d39 03       		.byte	0x3
ARM GAS  C:\Users\jo\AppData\Local\Temp\ccdgtuym.s 			page 119


 6674 0d3a 00000000 		.4byte	ripemd160_padding
 6675 0d3e 9F       		.byte	0x9f
 6676 0d3f 29       		.uleb128 0x29
 6677 0d40 54090000 		.4byte	0x954
 6678 0d44 89160000 		.4byte	.LLST32
 6679 0d48 3F       		.uleb128 0x3f
 6680 0d49 00000000 		.4byte	.Ldebug_ranges0+0
 6681 0d4d 37       		.uleb128 0x37
 6682 0d4e 78090000 		.4byte	0x978
 6683 0d52 37       		.uleb128 0x37
 6684 0d53 84090000 		.4byte	0x984
 6685 0d57 40       		.uleb128 0x40
 6686 0d58 62000000 		.4byte	.LVL515
 6687 0d5c 960B0000 		.4byte	0xb96
 6688 0d60 2B       		.uleb128 0x2b
 6689 0d61 01       		.uleb128 0x1
 6690 0d62 51       		.byte	0x51
 6691 0d63 05       		.uleb128 0x5
 6692 0d64 03       		.byte	0x3
 6693 0d65 00000000 		.4byte	.LANCHOR0
 6694 0d69 2B       		.uleb128 0x2b
 6695 0d6a 01       		.uleb128 0x1
 6696 0d6b 50       		.byte	0x50
 6697 0d6c 02       		.uleb128 0x2
 6698 0d6d 74       		.byte	0x74
 6699 0d6e 00       		.sleb128 0
 6700 0d6f 00       		.byte	0
 6701 0d70 00       		.byte	0
 6702 0d71 00       		.byte	0
 6703 0d72 41       		.uleb128 0x41
 6704 0d73 47090000 		.4byte	0x947
 6705 0d77 62000000 		.4byte	.LBB66
 6706 0d7b 0A000000 		.4byte	.LBE66-.LBB66
 6707 0d7f 01       		.byte	0x1
 6708 0d80 6901     		.2byte	0x169
 6709 0d82 42       		.uleb128 0x42
 6710 0d83 6C090000 		.4byte	0x96c
 6711 0d87 08       		.byte	0x8
 6712 0d88 29       		.uleb128 0x29
 6713 0d89 60090000 		.4byte	0x960
 6714 0d8d AA160000 		.4byte	.LLST33
 6715 0d91 29       		.uleb128 0x29
 6716 0d92 54090000 		.4byte	0x954
 6717 0d96 D7160000 		.4byte	.LLST34
 6718 0d9a 2E       		.uleb128 0x2e
 6719 0d9b 62000000 		.4byte	.LBB67
 6720 0d9f 0A000000 		.4byte	.LBE67-.LBB67
 6721 0da3 37       		.uleb128 0x37
 6722 0da4 78090000 		.4byte	0x978
 6723 0da8 37       		.uleb128 0x37
 6724 0da9 84090000 		.4byte	0x984
 6725 0dad 40       		.uleb128 0x40
 6726 0dae 6C000000 		.4byte	.LVL516
 6727 0db2 960B0000 		.4byte	0xb96
 6728 0db6 2B       		.uleb128 0x2b
 6729 0db7 01       		.uleb128 0x1
 6730 0db8 52       		.byte	0x52
ARM GAS  C:\Users\jo\AppData\Local\Temp\ccdgtuym.s 			page 120


 6731 0db9 01       		.uleb128 0x1
 6732 0dba 38       		.byte	0x38
 6733 0dbb 2B       		.uleb128 0x2b
 6734 0dbc 01       		.uleb128 0x1
 6735 0dbd 51       		.byte	0x51
 6736 0dbe 02       		.uleb128 0x2
 6737 0dbf 7D       		.byte	0x7d
 6738 0dc0 00       		.sleb128 0
 6739 0dc1 2B       		.uleb128 0x2b
 6740 0dc2 01       		.uleb128 0x1
 6741 0dc3 50       		.byte	0x50
 6742 0dc4 02       		.uleb128 0x2
 6743 0dc5 74       		.byte	0x74
 6744 0dc6 00       		.sleb128 0
 6745 0dc7 00       		.byte	0
 6746 0dc8 00       		.byte	0
 6747 0dc9 00       		.byte	0
 6748 0dca 00       		.byte	0
 6749 0dcb 07       		.uleb128 0x7
 6750 0dcc 45000000 		.4byte	0x45
 6751 0dd0 DB0D0000 		.4byte	0xddb
 6752 0dd4 08       		.uleb128 0x8
 6753 0dd5 E1000000 		.4byte	0xe1
 6754 0dd9 07       		.byte	0x7
 6755 0dda 00       		.byte	0
 6756 0ddb 38       		.uleb128 0x38
 6757 0ddc DC050000 		.4byte	.LASF144
 6758 0de0 01       		.byte	0x1
 6759 0de1 7501     		.2byte	0x175
 6760 0de3 00000000 		.4byte	.LFB7
 6761 0de7 64000000 		.4byte	.LFE7-.LFB7
 6762 0deb 01       		.uleb128 0x1
 6763 0dec 9C       		.byte	0x9c
 6764 0ded 490F0000 		.4byte	0xf49
 6765 0df1 3A       		.uleb128 0x3a
 6766 0df2 4E060000 		.4byte	.LASF127
 6767 0df6 01       		.byte	0x1
 6768 0df7 7501     		.2byte	0x175
 6769 0df9 97090000 		.4byte	0x997
 6770 0dfd F8160000 		.4byte	.LLST35
 6771 0e01 3A       		.uleb128 0x3a
 6772 0e02 51070000 		.4byte	.LASF128
 6773 0e06 01       		.byte	0x1
 6774 0e07 7501     		.2byte	0x175
 6775 0e09 2C000000 		.4byte	0x2c
 6776 0e0d 16170000 		.4byte	.LLST36
 6777 0e11 3A       		.uleb128 0x3a
 6778 0e12 E7040000 		.4byte	.LASF139
 6779 0e16 01       		.byte	0x1
 6780 0e17 7601     		.2byte	0x176
 6781 0e19 65030000 		.4byte	0x365
 6782 0e1d 34170000 		.4byte	.LLST37
 6783 0e21 43       		.uleb128 0x43
 6784 0e22 63747800 		.ascii	"ctx\000"
 6785 0e26 01       		.byte	0x1
 6786 0e27 7801     		.2byte	0x178
 6787 0e29 08010000 		.4byte	0x108
ARM GAS  C:\Users\jo\AppData\Local\Temp\ccdgtuym.s 			page 121


 6788 0e2d 03       		.uleb128 0x3
 6789 0e2e 91       		.byte	0x91
 6790 0e2f 8C7E     		.sleb128 -244
 6791 0e31 44       		.uleb128 0x44
 6792 0e32 A2090000 		.4byte	0x9a2
 6793 0e36 0A000000 		.4byte	.LBB68
 6794 0e3a 0A000000 		.4byte	.LBE68-.LBB68
 6795 0e3e 01       		.byte	0x1
 6796 0e3f 7A01     		.2byte	0x17a
 6797 0e41 6B0E0000 		.4byte	0xe6b
 6798 0e45 29       		.uleb128 0x29
 6799 0e46 AE090000 		.4byte	0x9ae
 6800 0e4a 52170000 		.4byte	.LLST38
 6801 0e4e 40       		.uleb128 0x40
 6802 0e4f 14000000 		.4byte	.LVL524
 6803 0e53 C6190000 		.4byte	0x19c6
 6804 0e57 2B       		.uleb128 0x2b
 6805 0e58 01       		.uleb128 0x1
 6806 0e59 52       		.byte	0x52
 6807 0e5a 02       		.uleb128 0x2
 6808 0e5b 08       		.byte	0x8
 6809 0e5c DC       		.byte	0xdc
 6810 0e5d 2B       		.uleb128 0x2b
 6811 0e5e 01       		.uleb128 0x1
 6812 0e5f 51       		.byte	0x51
 6813 0e60 01       		.uleb128 0x1
 6814 0e61 30       		.byte	0x30
 6815 0e62 2B       		.uleb128 0x2b
 6816 0e63 01       		.uleb128 0x1
 6817 0e64 50       		.byte	0x50
 6818 0e65 03       		.uleb128 0x3
 6819 0e66 91       		.byte	0x91
 6820 0e67 8C7E     		.sleb128 -244
 6821 0e69 00       		.byte	0
 6822 0e6a 00       		.byte	0
 6823 0e6b 44       		.uleb128 0x44
 6824 0e6c BA090000 		.4byte	0x9ba
 6825 0e70 14000000 		.4byte	.LBB70
 6826 0e74 14000000 		.4byte	.LBE70-.LBB70
 6827 0e78 01       		.byte	0x1
 6828 0e79 7B01     		.2byte	0x17b
 6829 0e7b 890E0000 		.4byte	0xe89
 6830 0e7f 29       		.uleb128 0x29
 6831 0e80 C6090000 		.4byte	0x9c6
 6832 0e84 CC170000 		.4byte	.LLST39
 6833 0e88 00       		.byte	0
 6834 0e89 3E       		.uleb128 0x3e
 6835 0e8a 47090000 		.4byte	0x947
 6836 0e8e 28000000 		.4byte	.LBB72
 6837 0e92 20000000 		.4byte	.Ldebug_ranges0+0x20
 6838 0e96 01       		.byte	0x1
 6839 0e97 7C01     		.2byte	0x17c
 6840 0e99 E20E0000 		.4byte	0xee2
 6841 0e9d 30       		.uleb128 0x30
 6842 0e9e 6C090000 		.4byte	0x96c
 6843 0ea2 01       		.uleb128 0x1
 6844 0ea3 54       		.byte	0x54
ARM GAS  C:\Users\jo\AppData\Local\Temp\ccdgtuym.s 			page 122


 6845 0ea4 30       		.uleb128 0x30
 6846 0ea5 60090000 		.4byte	0x960
 6847 0ea9 01       		.uleb128 0x1
 6848 0eaa 57       		.byte	0x57
 6849 0eab 29       		.uleb128 0x29
 6850 0eac 54090000 		.4byte	0x954
 6851 0eb0 2D180000 		.4byte	.LLST40
 6852 0eb4 3F       		.uleb128 0x3f
 6853 0eb5 20000000 		.4byte	.Ldebug_ranges0+0x20
 6854 0eb9 37       		.uleb128 0x37
 6855 0eba 78090000 		.4byte	0x978
 6856 0ebe 37       		.uleb128 0x37
 6857 0ebf 84090000 		.4byte	0x984
 6858 0ec3 40       		.uleb128 0x40
 6859 0ec4 4E000000 		.4byte	.LVL534
 6860 0ec8 960B0000 		.4byte	0xb96
 6861 0ecc 2B       		.uleb128 0x2b
 6862 0ecd 01       		.uleb128 0x1
 6863 0ece 52       		.byte	0x52
 6864 0ecf 02       		.uleb128 0x2
 6865 0ed0 74       		.byte	0x74
 6866 0ed1 00       		.sleb128 0
 6867 0ed2 2B       		.uleb128 0x2b
 6868 0ed3 01       		.uleb128 0x1
 6869 0ed4 51       		.byte	0x51
 6870 0ed5 02       		.uleb128 0x2
 6871 0ed6 77       		.byte	0x77
 6872 0ed7 00       		.sleb128 0
 6873 0ed8 2B       		.uleb128 0x2b
 6874 0ed9 01       		.uleb128 0x1
 6875 0eda 50       		.byte	0x50
 6876 0edb 03       		.uleb128 0x3
 6877 0edc 91       		.byte	0x91
 6878 0edd 8C7E     		.sleb128 -244
 6879 0edf 00       		.byte	0
 6880 0ee0 00       		.byte	0
 6881 0ee1 00       		.byte	0
 6882 0ee2 44       		.uleb128 0x44
 6883 0ee3 D2090000 		.4byte	0x9d2
 6884 0ee7 34000000 		.4byte	.LBB75
 6885 0eeb 0C000000 		.4byte	.LBE75-.LBB75
 6886 0eef 01       		.byte	0x1
 6887 0ef0 7E01     		.2byte	0x17e
 6888 0ef2 310F0000 		.4byte	0xf31
 6889 0ef6 29       		.uleb128 0x29
 6890 0ef7 DE090000 		.4byte	0x9de
 6891 0efb 8E180000 		.4byte	.LLST41
 6892 0eff 2C       		.uleb128 0x2c
 6893 0f00 14090000 		.4byte	0x914
 6894 0f04 34000000 		.4byte	.LBB76
 6895 0f08 0C000000 		.4byte	.LBE76-.LBB76
 6896 0f0c 01       		.byte	0x1
 6897 0f0d 5C       		.byte	0x5c
 6898 0f0e 29       		.uleb128 0x29
 6899 0f0f 29090000 		.4byte	0x929
 6900 0f13 BD180000 		.4byte	.LLST42
 6901 0f17 2D       		.uleb128 0x2d
ARM GAS  C:\Users\jo\AppData\Local\Temp\ccdgtuym.s 			page 123


 6902 0f18 20090000 		.4byte	0x920
 6903 0f1c 2E       		.uleb128 0x2e
 6904 0f1d 34000000 		.4byte	.LBB77
 6905 0f21 0C000000 		.4byte	.LBE77-.LBB77
 6906 0f25 2F       		.uleb128 0x2f
 6907 0f26 32090000 		.4byte	0x932
 6908 0f2a 08190000 		.4byte	.LLST43
 6909 0f2e 00       		.byte	0
 6910 0f2f 00       		.byte	0
 6911 0f30 00       		.byte	0
 6912 0f31 40       		.uleb128 0x40
 6913 0f32 32000000 		.4byte	.LVL527
 6914 0f36 910C0000 		.4byte	0xc91
 6915 0f3a 2B       		.uleb128 0x2b
 6916 0f3b 01       		.uleb128 0x1
 6917 0f3c 51       		.byte	0x51
 6918 0f3d 02       		.uleb128 0x2
 6919 0f3e 75       		.byte	0x75
 6920 0f3f 00       		.sleb128 0
 6921 0f40 2B       		.uleb128 0x2b
 6922 0f41 01       		.uleb128 0x1
 6923 0f42 50       		.byte	0x50
 6924 0f43 03       		.uleb128 0x3
 6925 0f44 91       		.byte	0x91
 6926 0f45 8C7E     		.sleb128 -244
 6927 0f47 00       		.byte	0
 6928 0f48 00       		.byte	0
 6929 0f49 45       		.uleb128 0x45
 6930 0f4a 92030000 		.4byte	.LASF152
 6931 0f4e 01       		.byte	0x1
 6932 0f4f 8501     		.2byte	0x185
 6933 0f51 25000000 		.4byte	0x25
 6934 0f55 00000000 		.4byte	.LFB8
 6935 0f59 A8000000 		.4byte	.LFE8-.LFB8
 6936 0f5d 01       		.uleb128 0x1
 6937 0f5e 9C       		.byte	0x9c
 6938 0f5f 40110000 		.4byte	0x1140
 6939 0f63 3A       		.uleb128 0x3a
 6940 0f64 76000000 		.4byte	.LASF145
 6941 0f68 01       		.byte	0x1
 6942 0f69 8501     		.2byte	0x185
 6943 0f6b 1C060000 		.4byte	0x61c
 6944 0f6f 41190000 		.4byte	.LLST44
 6945 0f73 3A       		.uleb128 0x3a
 6946 0f74 E7040000 		.4byte	.LASF139
 6947 0f78 01       		.byte	0x1
 6948 0f79 8501     		.2byte	0x185
 6949 0f7b 65030000 		.4byte	0x365
 6950 0f7f 62190000 		.4byte	.LLST45
 6951 0f83 3C       		.uleb128 0x3c
 6952 0f84 6600     		.ascii	"f\000"
 6953 0f86 01       		.byte	0x1
 6954 0f87 8701     		.2byte	0x187
 6955 0f89 40110000 		.4byte	0x1140
 6956 0f8d 80190000 		.4byte	.LLST46
 6957 0f91 3C       		.uleb128 0x3c
 6958 0f92 6E00     		.ascii	"n\000"
ARM GAS  C:\Users\jo\AppData\Local\Temp\ccdgtuym.s 			page 124


 6959 0f94 01       		.byte	0x1
 6960 0f95 8801     		.2byte	0x188
 6961 0f97 2C000000 		.4byte	0x2c
 6962 0f9b E0190000 		.4byte	.LLST47
 6963 0f9f 43       		.uleb128 0x43
 6964 0fa0 63747800 		.ascii	"ctx\000"
 6965 0fa4 01       		.byte	0x1
 6966 0fa5 8901     		.2byte	0x189
 6967 0fa7 08010000 		.4byte	0x108
 6968 0fab 03       		.uleb128 0x3
 6969 0fac 91       		.byte	0x91
 6970 0fad 8C76     		.sleb128 -1268
 6971 0faf 43       		.uleb128 0x43
 6972 0fb0 62756600 		.ascii	"buf\000"
 6973 0fb4 01       		.byte	0x1
 6974 0fb5 8A01     		.2byte	0x18a
 6975 0fb7 46110000 		.4byte	0x1146
 6976 0fbb 03       		.uleb128 0x3
 6977 0fbc 91       		.byte	0x91
 6978 0fbd E877     		.sleb128 -1048
 6979 0fbf 44       		.uleb128 0x44
 6980 0fc0 A2090000 		.4byte	0x9a2
 6981 0fc4 14000000 		.4byte	.LBB79
 6982 0fc8 0A000000 		.4byte	.LBE79-.LBB79
 6983 0fcc 01       		.byte	0x1
 6984 0fcd 8F01     		.2byte	0x18f
 6985 0fcf F90F0000 		.4byte	0xff9
 6986 0fd3 29       		.uleb128 0x29
 6987 0fd4 AE090000 		.4byte	0x9ae
 6988 0fd8 351A0000 		.4byte	.LLST48
 6989 0fdc 40       		.uleb128 0x40
 6990 0fdd 1E000000 		.4byte	.LVL540
 6991 0fe1 C6190000 		.4byte	0x19c6
 6992 0fe5 2B       		.uleb128 0x2b
 6993 0fe6 01       		.uleb128 0x1
 6994 0fe7 52       		.byte	0x52
 6995 0fe8 02       		.uleb128 0x2
 6996 0fe9 08       		.byte	0x8
 6997 0fea DC       		.byte	0xdc
 6998 0feb 2B       		.uleb128 0x2b
 6999 0fec 01       		.uleb128 0x1
 7000 0fed 51       		.byte	0x51
 7001 0fee 01       		.uleb128 0x1
 7002 0fef 30       		.byte	0x30
 7003 0ff0 2B       		.uleb128 0x2b
 7004 0ff1 01       		.uleb128 0x1
 7005 0ff2 50       		.byte	0x50
 7006 0ff3 03       		.uleb128 0x3
 7007 0ff4 91       		.byte	0x91
 7008 0ff5 8C76     		.sleb128 -1268
 7009 0ff7 00       		.byte	0
 7010 0ff8 00       		.byte	0
 7011 0ff9 44       		.uleb128 0x44
 7012 0ffa BA090000 		.4byte	0x9ba
 7013 0ffe 1E000000 		.4byte	.LBB81
 7014 1002 16000000 		.4byte	.LBE81-.LBB81
 7015 1006 01       		.byte	0x1
ARM GAS  C:\Users\jo\AppData\Local\Temp\ccdgtuym.s 			page 125


 7016 1007 9001     		.2byte	0x190
 7017 1009 17100000 		.4byte	0x1017
 7018 100d 29       		.uleb128 0x29
 7019 100e C6090000 		.4byte	0x9c6
 7020 1012 BD1A0000 		.4byte	.LLST49
 7021 1016 00       		.byte	0
 7022 1017 3E       		.uleb128 0x3e
 7023 1018 47090000 		.4byte	0x947
 7024 101c 42000000 		.4byte	.LBB83
 7025 1020 38000000 		.4byte	.Ldebug_ranges0+0x38
 7026 1024 01       		.byte	0x1
 7027 1025 9301     		.2byte	0x193
 7028 1027 74100000 		.4byte	0x1074
 7029 102b 29       		.uleb128 0x29
 7030 102c 6C090000 		.4byte	0x96c
 7031 1030 2C1B0000 		.4byte	.LLST50
 7032 1034 29       		.uleb128 0x29
 7033 1035 60090000 		.4byte	0x960
 7034 1039 811B0000 		.4byte	.LLST51
 7035 103d 29       		.uleb128 0x29
 7036 103e 54090000 		.4byte	0x954
 7037 1042 CB1B0000 		.4byte	.LLST52
 7038 1046 3F       		.uleb128 0x3f
 7039 1047 38000000 		.4byte	.Ldebug_ranges0+0x38
 7040 104b 37       		.uleb128 0x37
 7041 104c 78090000 		.4byte	0x978
 7042 1050 37       		.uleb128 0x37
 7043 1051 84090000 		.4byte	0x984
 7044 1055 40       		.uleb128 0x40
 7045 1056 50000000 		.4byte	.LVL545
 7046 105a 960B0000 		.4byte	0xb96
 7047 105e 2B       		.uleb128 0x2b
 7048 105f 01       		.uleb128 0x1
 7049 1060 52       		.byte	0x52
 7050 1061 02       		.uleb128 0x2
 7051 1062 74       		.byte	0x74
 7052 1063 00       		.sleb128 0
 7053 1064 2B       		.uleb128 0x2b
 7054 1065 01       		.uleb128 0x1
 7055 1066 51       		.byte	0x51
 7056 1067 02       		.uleb128 0x2
 7057 1068 75       		.byte	0x75
 7058 1069 00       		.sleb128 0
 7059 106a 2B       		.uleb128 0x2b
 7060 106b 01       		.uleb128 0x1
 7061 106c 50       		.byte	0x50
 7062 106d 03       		.uleb128 0x3
 7063 106e 91       		.byte	0x91
 7064 106f 8C76     		.sleb128 -1268
 7065 1071 00       		.byte	0
 7066 1072 00       		.byte	0
 7067 1073 00       		.byte	0
 7068 1074 44       		.uleb128 0x44
 7069 1075 D2090000 		.4byte	0x9d2
 7070 1079 5C000000 		.4byte	.LBB89
 7071 107d 0A000000 		.4byte	.LBE89-.LBB89
 7072 1081 01       		.byte	0x1
ARM GAS  C:\Users\jo\AppData\Local\Temp\ccdgtuym.s 			page 126


 7073 1082 9601     		.2byte	0x196
 7074 1084 C3100000 		.4byte	0x10c3
 7075 1088 29       		.uleb128 0x29
 7076 1089 DE090000 		.4byte	0x9de
 7077 108d 3A1C0000 		.4byte	.LLST53
 7078 1091 2C       		.uleb128 0x2c
 7079 1092 14090000 		.4byte	0x914
 7080 1096 5C000000 		.4byte	.LBB90
 7081 109a 0A000000 		.4byte	.LBE90-.LBB90
 7082 109e 01       		.byte	0x1
 7083 109f 5C       		.byte	0x5c
 7084 10a0 29       		.uleb128 0x29
 7085 10a1 29090000 		.4byte	0x929
 7086 10a5 771C0000 		.4byte	.LLST54
 7087 10a9 2D       		.uleb128 0x2d
 7088 10aa 20090000 		.4byte	0x920
 7089 10ae 2E       		.uleb128 0x2e
 7090 10af 5C000000 		.4byte	.LBB91
 7091 10b3 0A000000 		.4byte	.LBE91-.LBB91
 7092 10b7 2F       		.uleb128 0x2f
 7093 10b8 32090000 		.4byte	0x932
 7094 10bc DC1C0000 		.4byte	.LLST55
 7095 10c0 00       		.byte	0
 7096 10c1 00       		.byte	0
 7097 10c2 00       		.byte	0
 7098 10c3 35       		.uleb128 0x35
 7099 10c4 0E000000 		.4byte	.LVL537
 7100 10c8 001A0000 		.4byte	0x1a00
 7101 10cc E1100000 		.4byte	0x10e1
 7102 10d0 2B       		.uleb128 0x2b
 7103 10d1 01       		.uleb128 0x1
 7104 10d2 51       		.byte	0x51
 7105 10d3 05       		.uleb128 0x5
 7106 10d4 03       		.byte	0x3
 7107 10d5 00000000 		.4byte	.LC0
 7108 10d9 2B       		.uleb128 0x2b
 7109 10da 01       		.uleb128 0x1
 7110 10db 50       		.byte	0x50
 7111 10dc 03       		.uleb128 0x3
 7112 10dd F3       		.byte	0xf3
 7113 10de 01       		.uleb128 0x1
 7114 10df 50       		.byte	0x50
 7115 10e0 00       		.byte	0
 7116 10e1 35       		.uleb128 0x35
 7117 10e2 42000000 		.4byte	.LVL541
 7118 10e6 1A1A0000 		.4byte	0x1a1a
 7119 10ea 07110000 		.4byte	0x1107
 7120 10ee 2B       		.uleb128 0x2b
 7121 10ef 01       		.uleb128 0x1
 7122 10f0 53       		.byte	0x53
 7123 10f1 02       		.uleb128 0x2
 7124 10f2 76       		.byte	0x76
 7125 10f3 00       		.sleb128 0
 7126 10f4 2B       		.uleb128 0x2b
 7127 10f5 01       		.uleb128 0x1
 7128 10f6 52       		.byte	0x52
 7129 10f7 03       		.uleb128 0x3
ARM GAS  C:\Users\jo\AppData\Local\Temp\ccdgtuym.s 			page 127


 7130 10f8 0A       		.byte	0xa
 7131 10f9 0004     		.2byte	0x400
 7132 10fb 2B       		.uleb128 0x2b
 7133 10fc 01       		.uleb128 0x1
 7134 10fd 51       		.byte	0x51
 7135 10fe 01       		.uleb128 0x1
 7136 10ff 31       		.byte	0x31
 7137 1100 2B       		.uleb128 0x2b
 7138 1101 01       		.uleb128 0x1
 7139 1102 50       		.byte	0x50
 7140 1103 02       		.uleb128 0x2
 7141 1104 75       		.byte	0x75
 7142 1105 00       		.sleb128 0
 7143 1106 00       		.byte	0
 7144 1107 35       		.uleb128 0x35
 7145 1108 5A000000 		.4byte	.LVL549
 7146 110c 910C0000 		.4byte	0xc91
 7147 1110 22110000 		.4byte	0x1122
 7148 1114 2B       		.uleb128 0x2b
 7149 1115 01       		.uleb128 0x1
 7150 1116 51       		.byte	0x51
 7151 1117 02       		.uleb128 0x2
 7152 1118 77       		.byte	0x77
 7153 1119 00       		.sleb128 0
 7154 111a 2B       		.uleb128 0x2b
 7155 111b 01       		.uleb128 0x1
 7156 111c 50       		.byte	0x50
 7157 111d 03       		.uleb128 0x3
 7158 111e 91       		.byte	0x91
 7159 111f 8C76     		.sleb128 -1268
 7160 1121 00       		.byte	0
 7161 1122 35       		.uleb128 0x35
 7162 1123 76000000 		.4byte	.LVL556
 7163 1127 3E1A0000 		.4byte	0x1a3e
 7164 112b 36110000 		.4byte	0x1136
 7165 112f 2B       		.uleb128 0x2b
 7166 1130 01       		.uleb128 0x1
 7167 1131 50       		.byte	0x50
 7168 1132 02       		.uleb128 0x2
 7169 1133 76       		.byte	0x76
 7170 1134 00       		.sleb128 0
 7171 1135 00       		.byte	0
 7172 1136 46       		.uleb128 0x46
 7173 1137 82000000 		.4byte	.LVL559
 7174 113b 3E1A0000 		.4byte	0x1a3e
 7175 113f 00       		.byte	0
 7176 1140 0F       		.uleb128 0xf
 7177 1141 04       		.byte	0x4
 7178 1142 02090000 		.4byte	0x902
 7179 1146 07       		.uleb128 0x7
 7180 1147 45000000 		.4byte	0x45
 7181 114b 57110000 		.4byte	0x1157
 7182 114f 47       		.uleb128 0x47
 7183 1150 E1000000 		.4byte	0xe1
 7184 1154 FF03     		.2byte	0x3ff
 7185 1156 00       		.byte	0
 7186 1157 38       		.uleb128 0x38
ARM GAS  C:\Users\jo\AppData\Local\Temp\ccdgtuym.s 			page 128


 7187 1158 91050000 		.4byte	.LASF146
 7188 115c 01       		.byte	0x1
 7189 115d A601     		.2byte	0x1a6
 7190 115f 00000000 		.4byte	.LFB9
 7191 1163 E0000000 		.4byte	.LFE9-.LFB9
 7192 1167 01       		.uleb128 0x1
 7193 1168 9C       		.byte	0x9c
 7194 1169 07130000 		.4byte	0x1307
 7195 116d 39       		.uleb128 0x39
 7196 116e 63747800 		.ascii	"ctx\000"
 7197 1172 01       		.byte	0x1
 7198 1173 A601     		.2byte	0x1a6
 7199 1175 91090000 		.4byte	0x991
 7200 1179 201D0000 		.4byte	.LLST56
 7201 117d 39       		.uleb128 0x39
 7202 117e 6B657900 		.ascii	"key\000"
 7203 1182 01       		.byte	0x1
 7204 1183 A701     		.2byte	0x1a7
 7205 1185 97090000 		.4byte	0x997
 7206 1189 541D0000 		.4byte	.LLST57
 7207 118d 3A       		.uleb128 0x3a
 7208 118e 63060000 		.4byte	.LASF147
 7209 1192 01       		.byte	0x1
 7210 1193 A701     		.2byte	0x1a7
 7211 1195 2C000000 		.4byte	0x2c
 7212 1199 931D0000 		.4byte	.LLST58
 7213 119d 3C       		.uleb128 0x3c
 7214 119e 6900     		.ascii	"i\000"
 7215 11a0 01       		.byte	0x1
 7216 11a1 A901     		.2byte	0x1a9
 7217 11a3 2C000000 		.4byte	0x2c
 7218 11a7 D31D0000 		.4byte	.LLST59
 7219 11ab 43       		.uleb128 0x43
 7220 11ac 73756D00 		.ascii	"sum\000"
 7221 11b0 01       		.byte	0x1
 7222 11b1 AA01     		.2byte	0x1aa
 7223 11b3 07130000 		.4byte	0x1307
 7224 11b7 02       		.uleb128 0x2
 7225 11b8 91       		.byte	0x91
 7226 11b9 4C       		.sleb128 -52
 7227 11ba 3E       		.uleb128 0x3e
 7228 11bb BA090000 		.4byte	0x9ba
 7229 11bf 60000000 		.4byte	.LBB92
 7230 11c3 58000000 		.4byte	.Ldebug_ranges0+0x58
 7231 11c7 01       		.byte	0x1
 7232 11c8 BC01     		.2byte	0x1bc
 7233 11ca D8110000 		.4byte	0x11d8
 7234 11ce 29       		.uleb128 0x29
 7235 11cf C6090000 		.4byte	0x9c6
 7236 11d3 FE1D0000 		.4byte	.LLST60
 7237 11d7 00       		.byte	0
 7238 11d8 3E       		.uleb128 0x3e
 7239 11d9 47090000 		.4byte	0x947
 7240 11dd 78000000 		.4byte	.LBB95
 7241 11e1 70000000 		.4byte	.Ldebug_ranges0+0x70
 7242 11e5 01       		.byte	0x1
 7243 11e6 BD01     		.2byte	0x1bd
ARM GAS  C:\Users\jo\AppData\Local\Temp\ccdgtuym.s 			page 129


 7244 11e8 34120000 		.4byte	0x1234
 7245 11ec 29       		.uleb128 0x29
 7246 11ed 6C090000 		.4byte	0x96c
 7247 11f1 111E0000 		.4byte	.LLST61
 7248 11f5 29       		.uleb128 0x29
 7249 11f6 60090000 		.4byte	0x960
 7250 11fa 261E0000 		.4byte	.LLST62
 7251 11fe 29       		.uleb128 0x29
 7252 11ff 54090000 		.4byte	0x954
 7253 1203 391E0000 		.4byte	.LLST63
 7254 1207 3F       		.uleb128 0x3f
 7255 1208 70000000 		.4byte	.Ldebug_ranges0+0x70
 7256 120c 37       		.uleb128 0x37
 7257 120d 78090000 		.4byte	0x978
 7258 1211 37       		.uleb128 0x37
 7259 1212 84090000 		.4byte	0x984
 7260 1216 40       		.uleb128 0x40
 7261 1217 8C000000 		.4byte	.LVL574
 7262 121b 960B0000 		.4byte	0xb96
 7263 121f 2B       		.uleb128 0x2b
 7264 1220 01       		.uleb128 0x1
 7265 1221 52       		.byte	0x52
 7266 1222 02       		.uleb128 0x2
 7267 1223 08       		.byte	0x8
 7268 1224 40       		.byte	0x40
 7269 1225 2B       		.uleb128 0x2b
 7270 1226 01       		.uleb128 0x1
 7271 1227 51       		.byte	0x51
 7272 1228 02       		.uleb128 0x2
 7273 1229 77       		.byte	0x77
 7274 122a 00       		.sleb128 0
 7275 122b 2B       		.uleb128 0x2b
 7276 122c 01       		.uleb128 0x1
 7277 122d 50       		.byte	0x50
 7278 122e 02       		.uleb128 0x2
 7279 122f 76       		.byte	0x76
 7280 1230 00       		.sleb128 0
 7281 1231 00       		.byte	0
 7282 1232 00       		.byte	0
 7283 1233 00       		.byte	0
 7284 1234 44       		.uleb128 0x44
 7285 1235 14090000 		.4byte	0x914
 7286 1239 8C000000 		.4byte	.LBB100
 7287 123d 0C000000 		.4byte	.LBE100-.LBB100
 7288 1241 01       		.byte	0x1
 7289 1242 BF01     		.2byte	0x1bf
 7290 1244 6A120000 		.4byte	0x126a
 7291 1248 29       		.uleb128 0x29
 7292 1249 29090000 		.4byte	0x929
 7293 124d 4C1E0000 		.4byte	.LLST64
 7294 1251 2D       		.uleb128 0x2d
 7295 1252 20090000 		.4byte	0x920
 7296 1256 2E       		.uleb128 0x2e
 7297 1257 8C000000 		.4byte	.LBB101
 7298 125b 0C000000 		.4byte	.LBE101-.LBB101
 7299 125f 2F       		.uleb128 0x2f
 7300 1260 32090000 		.4byte	0x932
ARM GAS  C:\Users\jo\AppData\Local\Temp\ccdgtuym.s 			page 130


 7301 1264 991E0000 		.4byte	.LLST65
 7302 1268 00       		.byte	0
 7303 1269 00       		.byte	0
 7304 126a 35       		.uleb128 0x35
 7305 126b 22000000 		.4byte	.LVL566
 7306 126f 531A0000 		.4byte	0x1a53
 7307 1273 8A120000 		.4byte	0x128a
 7308 1277 2B       		.uleb128 0x2b
 7309 1278 01       		.uleb128 0x1
 7310 1279 52       		.byte	0x52
 7311 127a 02       		.uleb128 0x2
 7312 127b 08       		.byte	0x8
 7313 127c 40       		.byte	0x40
 7314 127d 2B       		.uleb128 0x2b
 7315 127e 01       		.uleb128 0x1
 7316 127f 51       		.byte	0x51
 7317 1280 02       		.uleb128 0x2
 7318 1281 08       		.byte	0x8
 7319 1282 36       		.byte	0x36
 7320 1283 2B       		.uleb128 0x2b
 7321 1284 01       		.uleb128 0x1
 7322 1285 50       		.byte	0x50
 7323 1286 02       		.uleb128 0x2
 7324 1287 77       		.byte	0x77
 7325 1288 00       		.sleb128 0
 7326 1289 00       		.byte	0
 7327 128a 35       		.uleb128 0x35
 7328 128b 2C000000 		.4byte	.LVL567
 7329 128f 531A0000 		.4byte	0x1a53
 7330 1293 AA120000 		.4byte	0x12aa
 7331 1297 2B       		.uleb128 0x2b
 7332 1298 01       		.uleb128 0x1
 7333 1299 52       		.byte	0x52
 7334 129a 02       		.uleb128 0x2
 7335 129b 08       		.byte	0x8
 7336 129c 40       		.byte	0x40
 7337 129d 2B       		.uleb128 0x2b
 7338 129e 01       		.uleb128 0x1
 7339 129f 51       		.byte	0x51
 7340 12a0 02       		.uleb128 0x2
 7341 12a1 08       		.byte	0x8
 7342 12a2 5C       		.byte	0x5c
 7343 12a3 2B       		.uleb128 0x2b
 7344 12a4 01       		.uleb128 0x1
 7345 12a5 50       		.byte	0x50
 7346 12a6 02       		.uleb128 0x2
 7347 12a7 78       		.byte	0x78
 7348 12a8 00       		.sleb128 0
 7349 12a9 00       		.byte	0
 7350 12aa 35       		.uleb128 0x35
 7351 12ab AE000000 		.4byte	.LVL582
 7352 12af DB0D0000 		.4byte	0xddb
 7353 12b3 CA120000 		.4byte	0x12ca
 7354 12b7 2B       		.uleb128 0x2b
 7355 12b8 01       		.uleb128 0x1
 7356 12b9 52       		.byte	0x52
 7357 12ba 02       		.uleb128 0x2
ARM GAS  C:\Users\jo\AppData\Local\Temp\ccdgtuym.s 			page 131


 7358 12bb 74       		.byte	0x74
 7359 12bc 00       		.sleb128 0
 7360 12bd 2B       		.uleb128 0x2b
 7361 12be 01       		.uleb128 0x1
 7362 12bf 51       		.byte	0x51
 7363 12c0 02       		.uleb128 0x2
 7364 12c1 75       		.byte	0x75
 7365 12c2 00       		.sleb128 0
 7366 12c3 2B       		.uleb128 0x2b
 7367 12c4 01       		.uleb128 0x1
 7368 12c5 50       		.byte	0x50
 7369 12c6 02       		.uleb128 0x2
 7370 12c7 79       		.byte	0x79
 7371 12c8 00       		.sleb128 0
 7372 12c9 00       		.byte	0
 7373 12ca 35       		.uleb128 0x35
 7374 12cb BC000000 		.4byte	.LVL583
 7375 12cf 531A0000 		.4byte	0x1a53
 7376 12d3 EA120000 		.4byte	0x12ea
 7377 12d7 2B       		.uleb128 0x2b
 7378 12d8 01       		.uleb128 0x1
 7379 12d9 52       		.byte	0x52
 7380 12da 02       		.uleb128 0x2
 7381 12db 08       		.byte	0x8
 7382 12dc 40       		.byte	0x40
 7383 12dd 2B       		.uleb128 0x2b
 7384 12de 01       		.uleb128 0x1
 7385 12df 51       		.byte	0x51
 7386 12e0 02       		.uleb128 0x2
 7387 12e1 08       		.byte	0x8
 7388 12e2 36       		.byte	0x36
 7389 12e3 2B       		.uleb128 0x2b
 7390 12e4 01       		.uleb128 0x1
 7391 12e5 50       		.byte	0x50
 7392 12e6 02       		.uleb128 0x2
 7393 12e7 77       		.byte	0x77
 7394 12e8 00       		.sleb128 0
 7395 12e9 00       		.byte	0
 7396 12ea 40       		.uleb128 0x40
 7397 12eb C6000000 		.4byte	.LVL584
 7398 12ef 531A0000 		.4byte	0x1a53
 7399 12f3 2B       		.uleb128 0x2b
 7400 12f4 01       		.uleb128 0x1
 7401 12f5 52       		.byte	0x52
 7402 12f6 02       		.uleb128 0x2
 7403 12f7 08       		.byte	0x8
 7404 12f8 40       		.byte	0x40
 7405 12f9 2B       		.uleb128 0x2b
 7406 12fa 01       		.uleb128 0x1
 7407 12fb 51       		.byte	0x51
 7408 12fc 02       		.uleb128 0x2
 7409 12fd 08       		.byte	0x8
 7410 12fe 5C       		.byte	0x5c
 7411 12ff 2B       		.uleb128 0x2b
 7412 1300 01       		.uleb128 0x1
 7413 1301 50       		.byte	0x50
 7414 1302 02       		.uleb128 0x2
ARM GAS  C:\Users\jo\AppData\Local\Temp\ccdgtuym.s 			page 132


 7415 1303 78       		.byte	0x78
 7416 1304 00       		.sleb128 0
 7417 1305 00       		.byte	0
 7418 1306 00       		.byte	0
 7419 1307 07       		.uleb128 0x7
 7420 1308 45000000 		.4byte	0x45
 7421 130c 17130000 		.4byte	0x1317
 7422 1310 08       		.uleb128 0x8
 7423 1311 E1000000 		.4byte	0xe1
 7424 1315 13       		.byte	0x13
 7425 1316 00       		.byte	0
 7426 1317 28       		.uleb128 0x28
 7427 1318 EA090000 		.4byte	0x9ea
 7428 131c 00000000 		.4byte	.LFB10
 7429 1320 08000000 		.4byte	.LFE10-.LFB10
 7430 1324 01       		.uleb128 0x1
 7431 1325 9C       		.byte	0x9c
 7432 1326 8F130000 		.4byte	0x138f
 7433 132a 29       		.uleb128 0x29
 7434 132b F7090000 		.4byte	0x9f7
 7435 132f C41E0000 		.4byte	.LLST66
 7436 1333 29       		.uleb128 0x29
 7437 1334 030A0000 		.4byte	0xa03
 7438 1338 E51E0000 		.4byte	.LLST67
 7439 133c 29       		.uleb128 0x29
 7440 133d 0F0A0000 		.4byte	0xa0f
 7441 1341 061F0000 		.4byte	.LLST68
 7442 1345 41       		.uleb128 0x41
 7443 1346 47090000 		.4byte	0x947
 7444 134a 00000000 		.4byte	.LBB102
 7445 134e 08000000 		.4byte	.LBE102-.LBB102
 7446 1352 01       		.byte	0x1
 7447 1353 C801     		.2byte	0x1c8
 7448 1355 29       		.uleb128 0x29
 7449 1356 6C090000 		.4byte	0x96c
 7450 135a 061F0000 		.4byte	.LLST68
 7451 135e 29       		.uleb128 0x29
 7452 135f 60090000 		.4byte	0x960
 7453 1363 E51E0000 		.4byte	.LLST67
 7454 1367 29       		.uleb128 0x29
 7455 1368 54090000 		.4byte	0x954
 7456 136c C41E0000 		.4byte	.LLST66
 7457 1370 2E       		.uleb128 0x2e
 7458 1371 00000000 		.4byte	.LBB103
 7459 1375 08000000 		.4byte	.LBE103-.LBB103
 7460 1379 37       		.uleb128 0x37
 7461 137a 78090000 		.4byte	0x978
 7462 137e 37       		.uleb128 0x37
 7463 137f 84090000 		.4byte	0x984
 7464 1383 36       		.uleb128 0x36
 7465 1384 08000000 		.4byte	.LVL586
 7466 1388 960B0000 		.4byte	0xb96
 7467 138c 00       		.byte	0
 7468 138d 00       		.byte	0
 7469 138e 00       		.byte	0
 7470 138f 38       		.uleb128 0x38
 7471 1390 CA000000 		.4byte	.LASF148
ARM GAS  C:\Users\jo\AppData\Local\Temp\ccdgtuym.s 			page 133


 7472 1394 01       		.byte	0x1
 7473 1395 CE01     		.2byte	0x1ce
 7474 1397 00000000 		.4byte	.LFB11
 7475 139b 6C000000 		.4byte	.LFE11-.LFB11
 7476 139f 01       		.uleb128 0x1
 7477 13a0 9C       		.byte	0x9c
 7478 13a1 13150000 		.4byte	0x1513
 7479 13a5 39       		.uleb128 0x39
 7480 13a6 63747800 		.ascii	"ctx\000"
 7481 13aa 01       		.byte	0x1
 7482 13ab CE01     		.2byte	0x1ce
 7483 13ad 91090000 		.4byte	0x991
 7484 13b1 271F0000 		.4byte	.LLST72
 7485 13b5 3A       		.uleb128 0x3a
 7486 13b6 E7040000 		.4byte	.LASF139
 7487 13ba 01       		.byte	0x1
 7488 13bb CE01     		.2byte	0x1ce
 7489 13bd 65030000 		.4byte	0x365
 7490 13c1 531F0000 		.4byte	.LLST73
 7491 13c5 3D       		.uleb128 0x3d
 7492 13c6 A1010000 		.4byte	.LASF149
 7493 13ca 01       		.byte	0x1
 7494 13cb D001     		.2byte	0x1d0
 7495 13cd 07130000 		.4byte	0x1307
 7496 13d1 02       		.uleb128 0x2
 7497 13d2 91       		.byte	0x91
 7498 13d3 54       		.sleb128 -44
 7499 13d4 3E       		.uleb128 0x3e
 7500 13d5 BA090000 		.4byte	0x9ba
 7501 13d9 0E000000 		.4byte	.LBB104
 7502 13dd 88000000 		.4byte	.Ldebug_ranges0+0x88
 7503 13e1 01       		.byte	0x1
 7504 13e2 D301     		.2byte	0x1d3
 7505 13e4 F2130000 		.4byte	0x13f2
 7506 13e8 29       		.uleb128 0x29
 7507 13e9 C6090000 		.4byte	0x9c6
 7508 13ed 7F1F0000 		.4byte	.LLST74
 7509 13f1 00       		.byte	0
 7510 13f2 3E       		.uleb128 0x3e
 7511 13f3 47090000 		.4byte	0x947
 7512 13f7 22000000 		.4byte	.LBB107
 7513 13fb A0000000 		.4byte	.Ldebug_ranges0+0xa0
 7514 13ff 01       		.byte	0x1
 7515 1400 D401     		.2byte	0x1d4
 7516 1402 4C140000 		.4byte	0x144c
 7517 1406 42       		.uleb128 0x42
 7518 1407 6C090000 		.4byte	0x96c
 7519 140b 40       		.byte	0x40
 7520 140c 29       		.uleb128 0x29
 7521 140d 60090000 		.4byte	0x960
 7522 1411 A01F0000 		.4byte	.LLST75
 7523 1415 29       		.uleb128 0x29
 7524 1416 54090000 		.4byte	0x954
 7525 141a E01F0000 		.4byte	.LLST76
 7526 141e 3F       		.uleb128 0x3f
 7527 141f A0000000 		.4byte	.Ldebug_ranges0+0xa0
 7528 1423 37       		.uleb128 0x37
ARM GAS  C:\Users\jo\AppData\Local\Temp\ccdgtuym.s 			page 134


 7529 1424 78090000 		.4byte	0x978
 7530 1428 37       		.uleb128 0x37
 7531 1429 84090000 		.4byte	0x984
 7532 142d 40       		.uleb128 0x40
 7533 142e 34000000 		.4byte	.LVL592
 7534 1432 960B0000 		.4byte	0xb96
 7535 1436 2B       		.uleb128 0x2b
 7536 1437 01       		.uleb128 0x1
 7537 1438 52       		.byte	0x52
 7538 1439 02       		.uleb128 0x2
 7539 143a 08       		.byte	0x8
 7540 143b 40       		.byte	0x40
 7541 143c 2B       		.uleb128 0x2b
 7542 143d 01       		.uleb128 0x1
 7543 143e 51       		.byte	0x51
 7544 143f 03       		.uleb128 0x3
 7545 1440 75       		.byte	0x75
 7546 1441 9C01     		.sleb128 156
 7547 1443 2B       		.uleb128 0x2b
 7548 1444 01       		.uleb128 0x1
 7549 1445 50       		.byte	0x50
 7550 1446 02       		.uleb128 0x2
 7551 1447 75       		.byte	0x75
 7552 1448 00       		.sleb128 0
 7553 1449 00       		.byte	0
 7554 144a 00       		.byte	0
 7555 144b 00       		.byte	0
 7556 144c 44       		.uleb128 0x44
 7557 144d 47090000 		.4byte	0x947
 7558 1451 34000000 		.4byte	.LBB112
 7559 1455 0A000000 		.4byte	.LBE112-.LBB112
 7560 1459 01       		.byte	0x1
 7561 145a D501     		.2byte	0x1d5
 7562 145c A8140000 		.4byte	0x14a8
 7563 1460 42       		.uleb128 0x42
 7564 1461 6C090000 		.4byte	0x96c
 7565 1465 14       		.byte	0x14
 7566 1466 29       		.uleb128 0x29
 7567 1467 60090000 		.4byte	0x960
 7568 146b 01200000 		.4byte	.LLST77
 7569 146f 29       		.uleb128 0x29
 7570 1470 54090000 		.4byte	0x954
 7571 1474 53200000 		.4byte	.LLST78
 7572 1478 2E       		.uleb128 0x2e
 7573 1479 34000000 		.4byte	.LBB113
 7574 147d 0A000000 		.4byte	.LBE113-.LBB113
 7575 1481 37       		.uleb128 0x37
 7576 1482 78090000 		.4byte	0x978
 7577 1486 37       		.uleb128 0x37
 7578 1487 84090000 		.4byte	0x984
 7579 148b 40       		.uleb128 0x40
 7580 148c 3E000000 		.4byte	.LVL594
 7581 1490 960B0000 		.4byte	0xb96
 7582 1494 2B       		.uleb128 0x2b
 7583 1495 01       		.uleb128 0x1
 7584 1496 52       		.byte	0x52
 7585 1497 01       		.uleb128 0x1
ARM GAS  C:\Users\jo\AppData\Local\Temp\ccdgtuym.s 			page 135


 7586 1498 44       		.byte	0x44
 7587 1499 2B       		.uleb128 0x2b
 7588 149a 01       		.uleb128 0x1
 7589 149b 51       		.byte	0x51
 7590 149c 02       		.uleb128 0x2
 7591 149d 91       		.byte	0x91
 7592 149e 54       		.sleb128 -44
 7593 149f 2B       		.uleb128 0x2b
 7594 14a0 01       		.uleb128 0x1
 7595 14a1 50       		.byte	0x50
 7596 14a2 02       		.uleb128 0x2
 7597 14a3 75       		.byte	0x75
 7598 14a4 00       		.sleb128 0
 7599 14a5 00       		.byte	0
 7600 14a6 00       		.byte	0
 7601 14a7 00       		.byte	0
 7602 14a8 44       		.uleb128 0x44
 7603 14a9 14090000 		.4byte	0x914
 7604 14ad 46000000 		.4byte	.LBB114
 7605 14b1 0E000000 		.4byte	.LBE114-.LBB114
 7606 14b5 01       		.byte	0x1
 7607 14b6 D801     		.2byte	0x1d8
 7608 14b8 E2140000 		.4byte	0x14e2
 7609 14bc 29       		.uleb128 0x29
 7610 14bd 29090000 		.4byte	0x929
 7611 14c1 74200000 		.4byte	.LLST79
 7612 14c5 29       		.uleb128 0x29
 7613 14c6 20090000 		.4byte	0x920
 7614 14ca D0200000 		.4byte	.LLST80
 7615 14ce 2E       		.uleb128 0x2e
 7616 14cf 46000000 		.4byte	.LBB115
 7617 14d3 0E000000 		.4byte	.LBE115-.LBB115
 7618 14d7 2F       		.uleb128 0x2f
 7619 14d8 32090000 		.4byte	0x932
 7620 14dc 0A210000 		.4byte	.LLST81
 7621 14e0 00       		.byte	0
 7622 14e1 00       		.byte	0
 7623 14e2 35       		.uleb128 0x35
 7624 14e3 0E000000 		.4byte	.LVL589
 7625 14e7 910C0000 		.4byte	0xc91
 7626 14eb FC140000 		.4byte	0x14fc
 7627 14ef 2B       		.uleb128 0x2b
 7628 14f0 01       		.uleb128 0x1
 7629 14f1 51       		.byte	0x51
 7630 14f2 02       		.uleb128 0x2
 7631 14f3 91       		.byte	0x91
 7632 14f4 54       		.sleb128 -44
 7633 14f5 2B       		.uleb128 0x2b
 7634 14f6 01       		.uleb128 0x1
 7635 14f7 50       		.byte	0x50
 7636 14f8 02       		.uleb128 0x2
 7637 14f9 75       		.byte	0x75
 7638 14fa 00       		.sleb128 0
 7639 14fb 00       		.byte	0
 7640 14fc 40       		.uleb128 0x40
 7641 14fd 46000000 		.4byte	.LVL595
 7642 1501 910C0000 		.4byte	0xc91
ARM GAS  C:\Users\jo\AppData\Local\Temp\ccdgtuym.s 			page 136


 7643 1505 2B       		.uleb128 0x2b
 7644 1506 01       		.uleb128 0x1
 7645 1507 51       		.byte	0x51
 7646 1508 02       		.uleb128 0x2
 7647 1509 76       		.byte	0x76
 7648 150a 00       		.sleb128 0
 7649 150b 2B       		.uleb128 0x2b
 7650 150c 01       		.uleb128 0x1
 7651 150d 50       		.byte	0x50
 7652 150e 02       		.uleb128 0x2
 7653 150f 75       		.byte	0x75
 7654 1510 00       		.sleb128 0
 7655 1511 00       		.byte	0
 7656 1512 00       		.byte	0
 7657 1513 38       		.uleb128 0x38
 7658 1514 47000000 		.4byte	.LASF150
 7659 1518 01       		.byte	0x1
 7660 1519 DE01     		.2byte	0x1de
 7661 151b 00000000 		.4byte	.LFB12
 7662 151f 3C000000 		.4byte	.LFE12-.LFB12
 7663 1523 01       		.uleb128 0x1
 7664 1524 9C       		.byte	0x9c
 7665 1525 B1150000 		.4byte	0x15b1
 7666 1529 39       		.uleb128 0x39
 7667 152a 63747800 		.ascii	"ctx\000"
 7668 152e 01       		.byte	0x1
 7669 152f DE01     		.2byte	0x1de
 7670 1531 91090000 		.4byte	0x991
 7671 1535 42210000 		.4byte	.LLST82
 7672 1539 3E       		.uleb128 0x3e
 7673 153a BA090000 		.4byte	0x9ba
 7674 153e 02000000 		.4byte	.LBB116
 7675 1542 B8000000 		.4byte	.Ldebug_ranges0+0xb8
 7676 1546 01       		.byte	0x1
 7677 1547 E001     		.2byte	0x1e0
 7678 1549 57150000 		.4byte	0x1557
 7679 154d 29       		.uleb128 0x29
 7680 154e C6090000 		.4byte	0x9c6
 7681 1552 63210000 		.4byte	.LLST83
 7682 1556 00       		.byte	0
 7683 1557 48       		.uleb128 0x48
 7684 1558 47090000 		.4byte	0x947
 7685 155c 1E000000 		.4byte	.LBB120
 7686 1560 D0000000 		.4byte	.Ldebug_ranges0+0xd0
 7687 1564 01       		.byte	0x1
 7688 1565 E101     		.2byte	0x1e1
 7689 1567 42       		.uleb128 0x42
 7690 1568 6C090000 		.4byte	0x96c
 7691 156c 40       		.byte	0x40
 7692 156d 29       		.uleb128 0x29
 7693 156e 60090000 		.4byte	0x960
 7694 1572 84210000 		.4byte	.LLST84
 7695 1576 29       		.uleb128 0x29
 7696 1577 54090000 		.4byte	0x954
 7697 157b B5210000 		.4byte	.LLST85
 7698 157f 3F       		.uleb128 0x3f
 7699 1580 D0000000 		.4byte	.Ldebug_ranges0+0xd0
ARM GAS  C:\Users\jo\AppData\Local\Temp\ccdgtuym.s 			page 137


 7700 1584 37       		.uleb128 0x37
 7701 1585 78090000 		.4byte	0x978
 7702 1589 37       		.uleb128 0x37
 7703 158a 84090000 		.4byte	0x984
 7704 158e 2A       		.uleb128 0x2a
 7705 158f 28000000 		.4byte	.LVL605
 7706 1593 960B0000 		.4byte	0xb96
 7707 1597 2B       		.uleb128 0x2b
 7708 1598 01       		.uleb128 0x1
 7709 1599 52       		.byte	0x52
 7710 159a 02       		.uleb128 0x2
 7711 159b 08       		.byte	0x8
 7712 159c 40       		.byte	0x40
 7713 159d 2B       		.uleb128 0x2b
 7714 159e 01       		.uleb128 0x1
 7715 159f 51       		.byte	0x51
 7716 15a0 05       		.uleb128 0x5
 7717 15a1 F3       		.byte	0xf3
 7718 15a2 01       		.uleb128 0x1
 7719 15a3 50       		.byte	0x50
 7720 15a4 23       		.byte	0x23
 7721 15a5 5C       		.uleb128 0x5c
 7722 15a6 2B       		.uleb128 0x2b
 7723 15a7 01       		.uleb128 0x1
 7724 15a8 50       		.byte	0x50
 7725 15a9 03       		.uleb128 0x3
 7726 15aa F3       		.byte	0xf3
 7727 15ab 01       		.uleb128 0x1
 7728 15ac 50       		.byte	0x50
 7729 15ad 00       		.byte	0
 7730 15ae 00       		.byte	0
 7731 15af 00       		.byte	0
 7732 15b0 00       		.byte	0
 7733 15b1 38       		.uleb128 0x38
 7734 15b2 0C000000 		.4byte	.LASF151
 7735 15b6 01       		.byte	0x1
 7736 15b7 E701     		.2byte	0x1e7
 7737 15b9 00000000 		.4byte	.LFB13
 7738 15bd 48000000 		.4byte	.LFE13-.LFB13
 7739 15c1 01       		.uleb128 0x1
 7740 15c2 9C       		.byte	0x9c
 7741 15c3 6B170000 		.4byte	0x176b
 7742 15c7 39       		.uleb128 0x39
 7743 15c8 6B657900 		.ascii	"key\000"
 7744 15cc 01       		.byte	0x1
 7745 15cd E701     		.2byte	0x1e7
 7746 15cf 97090000 		.4byte	0x997
 7747 15d3 D6210000 		.4byte	.LLST86
 7748 15d7 3A       		.uleb128 0x3a
 7749 15d8 63060000 		.4byte	.LASF147
 7750 15dc 01       		.byte	0x1
 7751 15dd E701     		.2byte	0x1e7
 7752 15df 2C000000 		.4byte	0x2c
 7753 15e3 F4210000 		.4byte	.LLST87
 7754 15e7 3A       		.uleb128 0x3a
 7755 15e8 4E060000 		.4byte	.LASF127
 7756 15ec 01       		.byte	0x1
ARM GAS  C:\Users\jo\AppData\Local\Temp\ccdgtuym.s 			page 138


 7757 15ed E801     		.2byte	0x1e8
 7758 15ef 97090000 		.4byte	0x997
 7759 15f3 12220000 		.4byte	.LLST88
 7760 15f7 3A       		.uleb128 0x3a
 7761 15f8 51070000 		.4byte	.LASF128
 7762 15fc 01       		.byte	0x1
 7763 15fd E801     		.2byte	0x1e8
 7764 15ff 2C000000 		.4byte	0x2c
 7765 1603 30220000 		.4byte	.LLST89
 7766 1607 3A       		.uleb128 0x3a
 7767 1608 E7040000 		.4byte	.LASF139
 7768 160c 01       		.byte	0x1
 7769 160d E901     		.2byte	0x1e9
 7770 160f 65030000 		.4byte	0x365
 7771 1613 4E220000 		.4byte	.LLST90
 7772 1617 43       		.uleb128 0x43
 7773 1618 63747800 		.ascii	"ctx\000"
 7774 161c 01       		.byte	0x1
 7775 161d EB01     		.2byte	0x1eb
 7776 161f 08010000 		.4byte	0x108
 7777 1623 03       		.uleb128 0x3
 7778 1624 91       		.byte	0x91
 7779 1625 8C7E     		.sleb128 -244
 7780 1627 3E       		.uleb128 0x3e
 7781 1628 A2090000 		.4byte	0x9a2
 7782 162c 0A000000 		.4byte	.LBB124
 7783 1630 E8000000 		.4byte	.Ldebug_ranges0+0xe8
 7784 1634 01       		.byte	0x1
 7785 1635 ED01     		.2byte	0x1ed
 7786 1637 61160000 		.4byte	0x1661
 7787 163b 29       		.uleb128 0x29
 7788 163c AE090000 		.4byte	0x9ae
 7789 1640 6E220000 		.4byte	.LLST91
 7790 1644 40       		.uleb128 0x40
 7791 1645 16000000 		.4byte	.LVL611
 7792 1649 C6190000 		.4byte	0x19c6
 7793 164d 2B       		.uleb128 0x2b
 7794 164e 01       		.uleb128 0x1
 7795 164f 52       		.byte	0x52
 7796 1650 02       		.uleb128 0x2
 7797 1651 08       		.byte	0x8
 7798 1652 DC       		.byte	0xdc
 7799 1653 2B       		.uleb128 0x2b
 7800 1654 01       		.uleb128 0x1
 7801 1655 51       		.byte	0x51
 7802 1656 01       		.uleb128 0x1
 7803 1657 30       		.byte	0x30
 7804 1658 2B       		.uleb128 0x2b
 7805 1659 01       		.uleb128 0x1
 7806 165a 50       		.byte	0x50
 7807 165b 03       		.uleb128 0x3
 7808 165c 91       		.byte	0x91
 7809 165d 8C7E     		.sleb128 -244
 7810 165f 00       		.byte	0
 7811 1660 00       		.byte	0
 7812 1661 3E       		.uleb128 0x3e
 7813 1662 EA090000 		.4byte	0x9ea
ARM GAS  C:\Users\jo\AppData\Local\Temp\ccdgtuym.s 			page 139


 7814 1666 20000000 		.4byte	.LBB128
 7815 166a 00010000 		.4byte	.Ldebug_ranges0+0x100
 7816 166e 01       		.byte	0x1
 7817 166f EF01     		.2byte	0x1ef
 7818 1671 E2160000 		.4byte	0x16e2
 7819 1675 30       		.uleb128 0x30
 7820 1676 0F0A0000 		.4byte	0xa0f
 7821 167a 01       		.uleb128 0x1
 7822 167b 54       		.byte	0x54
 7823 167c 30       		.uleb128 0x30
 7824 167d 030A0000 		.4byte	0xa03
 7825 1681 01       		.uleb128 0x1
 7826 1682 57       		.byte	0x57
 7827 1683 29       		.uleb128 0x29
 7828 1684 F7090000 		.4byte	0x9f7
 7829 1688 01230000 		.4byte	.LLST92
 7830 168c 48       		.uleb128 0x48
 7831 168d 47090000 		.4byte	0x947
 7832 1691 20000000 		.4byte	.LBB129
 7833 1695 00010000 		.4byte	.Ldebug_ranges0+0x100
 7834 1699 01       		.byte	0x1
 7835 169a C801     		.2byte	0x1c8
 7836 169c 30       		.uleb128 0x30
 7837 169d 6C090000 		.4byte	0x96c
 7838 16a1 01       		.uleb128 0x1
 7839 16a2 54       		.byte	0x54
 7840 16a3 30       		.uleb128 0x30
 7841 16a4 60090000 		.4byte	0x960
 7842 16a8 01       		.uleb128 0x1
 7843 16a9 57       		.byte	0x57
 7844 16aa 29       		.uleb128 0x29
 7845 16ab 54090000 		.4byte	0x954
 7846 16af 01230000 		.4byte	.LLST92
 7847 16b3 3F       		.uleb128 0x3f
 7848 16b4 00010000 		.4byte	.Ldebug_ranges0+0x100
 7849 16b8 37       		.uleb128 0x37
 7850 16b9 78090000 		.4byte	0x978
 7851 16bd 37       		.uleb128 0x37
 7852 16be 84090000 		.4byte	0x984
 7853 16c2 40       		.uleb128 0x40
 7854 16c3 46000000 		.4byte	.LVL622
 7855 16c7 960B0000 		.4byte	0xb96
 7856 16cb 2B       		.uleb128 0x2b
 7857 16cc 01       		.uleb128 0x1
 7858 16cd 52       		.byte	0x52
 7859 16ce 02       		.uleb128 0x2
 7860 16cf 74       		.byte	0x74
 7861 16d0 00       		.sleb128 0
 7862 16d1 2B       		.uleb128 0x2b
 7863 16d2 01       		.uleb128 0x1
 7864 16d3 51       		.byte	0x51
 7865 16d4 02       		.uleb128 0x2
 7866 16d5 77       		.byte	0x77
 7867 16d6 00       		.sleb128 0
 7868 16d7 2B       		.uleb128 0x2b
 7869 16d8 01       		.uleb128 0x1
 7870 16d9 50       		.byte	0x50
ARM GAS  C:\Users\jo\AppData\Local\Temp\ccdgtuym.s 			page 140


 7871 16da 03       		.uleb128 0x3
 7872 16db 91       		.byte	0x91
 7873 16dc 8C7E     		.sleb128 -244
 7874 16de 00       		.byte	0
 7875 16df 00       		.byte	0
 7876 16e0 00       		.byte	0
 7877 16e1 00       		.byte	0
 7878 16e2 44       		.uleb128 0x44
 7879 16e3 D2090000 		.4byte	0x9d2
 7880 16e7 2C000000 		.4byte	.LBB133
 7881 16eb 0C000000 		.4byte	.LBE133-.LBB133
 7882 16ef 01       		.byte	0x1
 7883 16f0 F101     		.2byte	0x1f1
 7884 16f2 31170000 		.4byte	0x1731
 7885 16f6 29       		.uleb128 0x29
 7886 16f7 DE090000 		.4byte	0x9de
 7887 16fb 62230000 		.4byte	.LLST94
 7888 16ff 2C       		.uleb128 0x2c
 7889 1700 14090000 		.4byte	0x914
 7890 1704 2C000000 		.4byte	.LBB134
 7891 1708 0C000000 		.4byte	.LBE134-.LBB134
 7892 170c 01       		.byte	0x1
 7893 170d 5C       		.byte	0x5c
 7894 170e 29       		.uleb128 0x29
 7895 170f 29090000 		.4byte	0x929
 7896 1713 91230000 		.4byte	.LLST95
 7897 1717 2D       		.uleb128 0x2d
 7898 1718 20090000 		.4byte	0x920
 7899 171c 2E       		.uleb128 0x2e
 7900 171d 2C000000 		.4byte	.LBB135
 7901 1721 0C000000 		.4byte	.LBE135-.LBB135
 7902 1725 2F       		.uleb128 0x2f
 7903 1726 32090000 		.4byte	0x932
 7904 172a DC230000 		.4byte	.LLST96
 7905 172e 00       		.byte	0
 7906 172f 00       		.byte	0
 7907 1730 00       		.byte	0
 7908 1731 35       		.uleb128 0x35
 7909 1732 20000000 		.4byte	.LVL613
 7910 1736 57110000 		.4byte	0x1157
 7911 173a 52170000 		.4byte	0x1752
 7912 173e 2B       		.uleb128 0x2b
 7913 173f 01       		.uleb128 0x1
 7914 1740 52       		.byte	0x52
 7915 1741 02       		.uleb128 0x2
 7916 1742 75       		.byte	0x75
 7917 1743 00       		.sleb128 0
 7918 1744 2B       		.uleb128 0x2b
 7919 1745 01       		.uleb128 0x1
 7920 1746 51       		.byte	0x51
 7921 1747 02       		.uleb128 0x2
 7922 1748 76       		.byte	0x76
 7923 1749 00       		.sleb128 0
 7924 174a 2B       		.uleb128 0x2b
 7925 174b 01       		.uleb128 0x1
 7926 174c 50       		.byte	0x50
 7927 174d 03       		.uleb128 0x3
ARM GAS  C:\Users\jo\AppData\Local\Temp\ccdgtuym.s 			page 141


 7928 174e 91       		.byte	0x91
 7929 174f 8C7E     		.sleb128 -244
 7930 1751 00       		.byte	0
 7931 1752 40       		.uleb128 0x40
 7932 1753 2A000000 		.4byte	.LVL615
 7933 1757 8F130000 		.4byte	0x138f
 7934 175b 2B       		.uleb128 0x2b
 7935 175c 01       		.uleb128 0x1
 7936 175d 51       		.byte	0x51
 7937 175e 03       		.uleb128 0x3
 7938 175f 91       		.byte	0x91
 7939 1760 00       		.sleb128 0
 7940 1761 06       		.byte	0x6
 7941 1762 2B       		.uleb128 0x2b
 7942 1763 01       		.uleb128 0x1
 7943 1764 50       		.byte	0x50
 7944 1765 03       		.uleb128 0x3
 7945 1766 91       		.byte	0x91
 7946 1767 8C7E     		.sleb128 -244
 7947 1769 00       		.byte	0
 7948 176a 00       		.byte	0
 7949 176b 45       		.uleb128 0x45
 7950 176c 5C000000 		.4byte	.LASF153
 7951 1770 01       		.byte	0x1
 7952 1771 5002     		.2byte	0x250
 7953 1773 25000000 		.4byte	0x25
 7954 1777 00000000 		.4byte	.LFB14
 7955 177b 24010000 		.4byte	.LFE14-.LFB14
 7956 177f 01       		.uleb128 0x1
 7957 1780 9C       		.byte	0x9c
 7958 1781 FB180000 		.4byte	0x18fb
 7959 1785 3A       		.uleb128 0x3a
 7960 1786 B3060000 		.4byte	.LASF154
 7961 178a 01       		.byte	0x1
 7962 178b 5002     		.2byte	0x250
 7963 178d 25000000 		.4byte	0x25
 7964 1791 15240000 		.4byte	.LLST97
 7965 1795 3C       		.uleb128 0x3c
 7966 1796 6900     		.ascii	"i\000"
 7967 1798 01       		.byte	0x1
 7968 1799 5202     		.2byte	0x252
 7969 179b 25000000 		.4byte	0x25
 7970 179f 41240000 		.4byte	.LLST98
 7971 17a3 3C       		.uleb128 0x3c
 7972 17a4 6A00     		.ascii	"j\000"
 7973 17a6 01       		.byte	0x1
 7974 17a7 5202     		.2byte	0x252
 7975 17a9 25000000 		.4byte	0x25
 7976 17ad 87240000 		.4byte	.LLST99
 7977 17b1 3D       		.uleb128 0x3d
 7978 17b2 E7040000 		.4byte	.LASF139
 7979 17b6 01       		.byte	0x1
 7980 17b7 5302     		.2byte	0x253
 7981 17b9 07130000 		.4byte	0x1307
 7982 17bd 02       		.uleb128 0x2
 7983 17be 91       		.byte	0x91
 7984 17bf 44       		.sleb128 -60
ARM GAS  C:\Users\jo\AppData\Local\Temp\ccdgtuym.s 			page 142


 7985 17c0 35       		.uleb128 0x35
 7986 17c1 3A000000 		.4byte	.LVL626
 7987 17c5 721A0000 		.4byte	0x1a72
 7988 17c9 D4170000 		.4byte	0x17d4
 7989 17cd 2B       		.uleb128 0x2b
 7990 17ce 01       		.uleb128 0x1
 7991 17cf 50       		.byte	0x50
 7992 17d0 02       		.uleb128 0x2
 7993 17d1 75       		.byte	0x75
 7994 17d2 00       		.sleb128 0
 7995 17d3 00       		.byte	0
 7996 17d4 35       		.uleb128 0x35
 7997 17d5 44000000 		.4byte	.LVL627
 7998 17d9 DB0D0000 		.4byte	0xddb
 7999 17dd EE170000 		.4byte	0x17ee
 8000 17e1 2B       		.uleb128 0x2b
 8001 17e2 01       		.uleb128 0x1
 8002 17e3 52       		.byte	0x52
 8003 17e4 02       		.uleb128 0x2
 8004 17e5 78       		.byte	0x78
 8005 17e6 00       		.sleb128 0
 8006 17e7 2B       		.uleb128 0x2b
 8007 17e8 01       		.uleb128 0x1
 8008 17e9 50       		.byte	0x50
 8009 17ea 02       		.uleb128 0x2
 8010 17eb 75       		.byte	0x75
 8011 17ec 00       		.sleb128 0
 8012 17ed 00       		.byte	0
 8013 17ee 35       		.uleb128 0x35
 8014 17ef 4E000000 		.4byte	.LVL628
 8015 17f3 871A0000 		.4byte	0x1a87
 8016 17f7 0D180000 		.4byte	0x180d
 8017 17fb 2B       		.uleb128 0x2b
 8018 17fc 01       		.uleb128 0x1
 8019 17fd 52       		.byte	0x52
 8020 17fe 01       		.uleb128 0x1
 8021 17ff 44       		.byte	0x44
 8022 1800 2B       		.uleb128 0x2b
 8023 1801 01       		.uleb128 0x1
 8024 1802 51       		.byte	0x51
 8025 1803 02       		.uleb128 0x2
 8026 1804 7B       		.byte	0x7b
 8027 1805 00       		.sleb128 0
 8028 1806 2B       		.uleb128 0x2b
 8029 1807 01       		.uleb128 0x1
 8030 1808 50       		.byte	0x50
 8031 1809 02       		.uleb128 0x2
 8032 180a 78       		.byte	0x78
 8033 180b 00       		.sleb128 0
 8034 180c 00       		.byte	0
 8035 180d 35       		.uleb128 0x35
 8036 180e 66000000 		.4byte	.LVL632
 8037 1812 721A0000 		.4byte	0x1a72
 8038 1816 21180000 		.4byte	0x1821
 8039 181a 2B       		.uleb128 0x2b
 8040 181b 01       		.uleb128 0x1
 8041 181c 50       		.byte	0x50
ARM GAS  C:\Users\jo\AppData\Local\Temp\ccdgtuym.s 			page 143


 8042 181d 02       		.uleb128 0x2
 8043 181e 75       		.byte	0x75
 8044 181f 00       		.sleb128 0
 8045 1820 00       		.byte	0
 8046 1821 35       		.uleb128 0x35
 8047 1822 76000000 		.4byte	.LVL633
 8048 1826 B1150000 		.4byte	0x15b1
 8049 182a 47180000 		.4byte	0x1847
 8050 182e 2B       		.uleb128 0x2b
 8051 182f 01       		.uleb128 0x1
 8052 1830 52       		.byte	0x52
 8053 1831 02       		.uleb128 0x2
 8054 1832 75       		.byte	0x75
 8055 1833 00       		.sleb128 0
 8056 1834 2B       		.uleb128 0x2b
 8057 1835 01       		.uleb128 0x1
 8058 1836 51       		.byte	0x51
 8059 1837 01       		.uleb128 0x1
 8060 1838 44       		.byte	0x44
 8061 1839 2B       		.uleb128 0x2b
 8062 183a 01       		.uleb128 0x1
 8063 183b 50       		.byte	0x50
 8064 183c 02       		.uleb128 0x2
 8065 183d 77       		.byte	0x77
 8066 183e 00       		.sleb128 0
 8067 183f 2B       		.uleb128 0x2b
 8068 1840 02       		.uleb128 0x2
 8069 1841 7D       		.byte	0x7d
 8070 1842 00       		.sleb128 0
 8071 1843 02       		.uleb128 0x2
 8072 1844 78       		.byte	0x78
 8073 1845 00       		.sleb128 0
 8074 1846 00       		.byte	0
 8075 1847 35       		.uleb128 0x35
 8076 1848 80000000 		.4byte	.LVL634
 8077 184c 871A0000 		.4byte	0x1a87
 8078 1850 66180000 		.4byte	0x1866
 8079 1854 2B       		.uleb128 0x2b
 8080 1855 01       		.uleb128 0x1
 8081 1856 52       		.byte	0x52
 8082 1857 01       		.uleb128 0x1
 8083 1858 44       		.byte	0x44
 8084 1859 2B       		.uleb128 0x2b
 8085 185a 01       		.uleb128 0x1
 8086 185b 51       		.byte	0x51
 8087 185c 02       		.uleb128 0x2
 8088 185d 76       		.byte	0x76
 8089 185e 00       		.sleb128 0
 8090 185f 2B       		.uleb128 0x2b
 8091 1860 01       		.uleb128 0x1
 8092 1861 50       		.byte	0x50
 8093 1862 02       		.uleb128 0x2
 8094 1863 78       		.byte	0x78
 8095 1864 00       		.sleb128 0
 8096 1865 00       		.byte	0
 8097 1866 35       		.uleb128 0x35
 8098 1867 C0000000 		.4byte	.LVL642
ARM GAS  C:\Users\jo\AppData\Local\Temp\ccdgtuym.s 			page 144


 8099 186b A61A0000 		.4byte	0x1aa6
 8100 186f 89180000 		.4byte	0x1889
 8101 1873 2B       		.uleb128 0x2b
 8102 1874 01       		.uleb128 0x1
 8103 1875 52       		.byte	0x52
 8104 1876 02       		.uleb128 0x2
 8105 1877 79       		.byte	0x79
 8106 1878 00       		.sleb128 0
 8107 1879 2B       		.uleb128 0x2b
 8108 187a 01       		.uleb128 0x1
 8109 187b 51       		.byte	0x51
 8110 187c 02       		.uleb128 0x2
 8111 187d 7A       		.byte	0x7a
 8112 187e 00       		.sleb128 0
 8113 187f 2B       		.uleb128 0x2b
 8114 1880 01       		.uleb128 0x1
 8115 1881 50       		.byte	0x50
 8116 1882 05       		.uleb128 0x5
 8117 1883 03       		.byte	0x3
 8118 1884 2C000000 		.4byte	.LC4
 8119 1888 00       		.byte	0
 8120 1889 35       		.uleb128 0x35
 8121 188a CA000000 		.4byte	.LVL643
 8122 188e BC1A0000 		.4byte	0x1abc
 8123 1892 A0180000 		.4byte	0x18a0
 8124 1896 2B       		.uleb128 0x2b
 8125 1897 01       		.uleb128 0x1
 8126 1898 50       		.byte	0x50
 8127 1899 05       		.uleb128 0x5
 8128 189a 03       		.byte	0x3
 8129 189b 24000000 		.4byte	.LC3
 8130 189f 00       		.byte	0
 8131 18a0 35       		.uleb128 0x35
 8132 18a1 D6000000 		.4byte	.LVL644
 8133 18a5 A61A0000 		.4byte	0x1aa6
 8134 18a9 BD180000 		.4byte	0x18bd
 8135 18ad 2B       		.uleb128 0x2b
 8136 18ae 01       		.uleb128 0x1
 8137 18af 51       		.byte	0x51
 8138 18b0 02       		.uleb128 0x2
 8139 18b1 7A       		.byte	0x7a
 8140 18b2 00       		.sleb128 0
 8141 18b3 2B       		.uleb128 0x2b
 8142 18b4 01       		.uleb128 0x1
 8143 18b5 50       		.byte	0x50
 8144 18b6 05       		.uleb128 0x5
 8145 18b7 03       		.byte	0x3
 8146 18b8 04000000 		.4byte	.LC1
 8147 18bc 00       		.byte	0
 8148 18bd 35       		.uleb128 0x35
 8149 18be DE000000 		.4byte	.LVL645
 8150 18c2 BC1A0000 		.4byte	0x1abc
 8151 18c6 D4180000 		.4byte	0x18d4
 8152 18ca 2B       		.uleb128 0x2b
 8153 18cb 01       		.uleb128 0x1
 8154 18cc 50       		.byte	0x50
 8155 18cd 05       		.uleb128 0x5
ARM GAS  C:\Users\jo\AppData\Local\Temp\ccdgtuym.s 			page 145


 8156 18ce 03       		.byte	0x3
 8157 18cf 24000000 		.4byte	.LC3
 8158 18d3 00       		.byte	0
 8159 18d4 35       		.uleb128 0x35
 8160 18d5 E8000000 		.4byte	.LVL647
 8161 18d9 D51A0000 		.4byte	0x1ad5
 8162 18dd E7180000 		.4byte	0x18e7
 8163 18e1 2B       		.uleb128 0x2b
 8164 18e2 01       		.uleb128 0x1
 8165 18e3 50       		.byte	0x50
 8166 18e4 01       		.uleb128 0x1
 8167 18e5 3A       		.byte	0x3a
 8168 18e6 00       		.byte	0
 8169 18e7 40       		.uleb128 0x40
 8170 18e8 F8000000 		.4byte	.LVL649
 8171 18ec BC1A0000 		.4byte	0x1abc
 8172 18f0 2B       		.uleb128 0x2b
 8173 18f1 01       		.uleb128 0x1
 8174 18f2 50       		.byte	0x50
 8175 18f3 05       		.uleb128 0x5
 8176 18f4 03       		.byte	0x3
 8177 18f5 1C000000 		.4byte	.LC2
 8178 18f9 00       		.byte	0
 8179 18fa 00       		.byte	0
 8180 18fb 3D       		.uleb128 0x3d
 8181 18fc F7040000 		.4byte	.LASF155
 8182 1900 01       		.byte	0x1
 8183 1901 4D01     		.2byte	0x14d
 8184 1903 0D190000 		.4byte	0x190d
 8185 1907 05       		.uleb128 0x5
 8186 1908 03       		.byte	0x3
 8187 1909 00000000 		.4byte	ripemd160_padding
 8188 190d 18       		.uleb128 0x18
 8189 190e F8000000 		.4byte	0xf8
 8190 1912 07       		.uleb128 0x7
 8191 1913 1C060000 		.4byte	0x61c
 8192 1917 22190000 		.4byte	0x1922
 8193 191b 08       		.uleb128 0x8
 8194 191c E1000000 		.4byte	0xe1
 8195 1920 07       		.byte	0x7
 8196 1921 00       		.byte	0
 8197 1922 3D       		.uleb128 0x3d
 8198 1923 C1040000 		.4byte	.LASF156
 8199 1927 01       		.byte	0x1
 8200 1928 FC01     		.2byte	0x1fc
 8201 192a 34190000 		.4byte	0x1934
 8202 192e 05       		.uleb128 0x5
 8203 192f 03       		.byte	0x3
 8204 1930 00000000 		.4byte	ripemd160_test_input
 8205 1934 18       		.uleb128 0x18
 8206 1935 12190000 		.4byte	0x1912
 8207 1939 07       		.uleb128 0x7
 8208 193a 45000000 		.4byte	0x45
 8209 193e 4F190000 		.4byte	0x194f
 8210 1942 08       		.uleb128 0x8
 8211 1943 E1000000 		.4byte	0xe1
 8212 1947 07       		.byte	0x7
ARM GAS  C:\Users\jo\AppData\Local\Temp\ccdgtuym.s 			page 146


 8213 1948 08       		.uleb128 0x8
 8214 1949 E1000000 		.4byte	0xe1
 8215 194d 13       		.byte	0x13
 8216 194e 00       		.byte	0
 8217 194f 3D       		.uleb128 0x3d
 8218 1950 58050000 		.4byte	.LASF157
 8219 1954 01       		.byte	0x1
 8220 1955 0902     		.2byte	0x209
 8221 1957 61190000 		.4byte	0x1961
 8222 195b 05       		.uleb128 0x5
 8223 195c 03       		.byte	0x3
 8224 195d 00000000 		.4byte	ripemd160_test_md
 8225 1961 18       		.uleb128 0x18
 8226 1962 39190000 		.4byte	0x1939
 8227 1966 07       		.uleb128 0x7
 8228 1967 45000000 		.4byte	0x45
 8229 196b 82190000 		.4byte	0x1982
 8230 196f 08       		.uleb128 0x8
 8231 1970 E1000000 		.4byte	0xe1
 8232 1974 01       		.byte	0x1
 8233 1975 08       		.uleb128 0x8
 8234 1976 E1000000 		.4byte	0xe1
 8235 197a 07       		.byte	0x7
 8236 197b 08       		.uleb128 0x8
 8237 197c E1000000 		.4byte	0xe1
 8238 1980 13       		.byte	0x13
 8239 1981 00       		.byte	0
 8240 1982 3D       		.uleb128 0x3d
 8241 1983 A1070000 		.4byte	.LASF158
 8242 1987 01       		.byte	0x1
 8243 1988 1D02     		.2byte	0x21d
 8244 198a 94190000 		.4byte	0x1994
 8245 198e 05       		.uleb128 0x5
 8246 198f 03       		.byte	0x3
 8247 1990 00000000 		.4byte	ripemd160_test_hmac
 8248 1994 18       		.uleb128 0x18
 8249 1995 66190000 		.4byte	0x1966
 8250 1999 07       		.uleb128 0x7
 8251 199a 45000000 		.4byte	0x45
 8252 199e AF190000 		.4byte	0x19af
 8253 19a2 08       		.uleb128 0x8
 8254 19a3 E1000000 		.4byte	0xe1
 8255 19a7 01       		.byte	0x1
 8256 19a8 08       		.uleb128 0x8
 8257 19a9 E1000000 		.4byte	0xe1
 8258 19ad 13       		.byte	0x13
 8259 19ae 00       		.byte	0
 8260 19af 3D       		.uleb128 0x3d
 8261 19b0 65010000 		.4byte	.LASF159
 8262 19b4 01       		.byte	0x1
 8263 19b5 4502     		.2byte	0x245
 8264 19b7 C1190000 		.4byte	0x19c1
 8265 19bb 05       		.uleb128 0x5
 8266 19bc 03       		.byte	0x3
 8267 19bd 00000000 		.4byte	ripemd160_test_key
 8268 19c1 18       		.uleb128 0x18
 8269 19c2 99190000 		.4byte	0x1999
ARM GAS  C:\Users\jo\AppData\Local\Temp\ccdgtuym.s 			page 147


 8270 19c6 49       		.uleb128 0x49
 8271 19c7 1F070000 		.4byte	.LASF160
 8272 19cb A6010000 		.4byte	0x1a6
 8273 19cf E3190000 		.4byte	0x19e3
 8274 19d3 14       		.uleb128 0x14
 8275 19d4 A6010000 		.4byte	0x1a6
 8276 19d8 14       		.uleb128 0x14
 8277 19d9 25000000 		.4byte	0x25
 8278 19dd 14       		.uleb128 0x14
 8279 19de E1000000 		.4byte	0xe1
 8280 19e2 00       		.byte	0
 8281 19e3 49       		.uleb128 0x49
 8282 19e4 B4030000 		.4byte	.LASF161
 8283 19e8 A6010000 		.4byte	0x1a6
 8284 19ec 001A0000 		.4byte	0x1a00
 8285 19f0 14       		.uleb128 0x14
 8286 19f1 A6010000 		.4byte	0x1a6
 8287 19f5 14       		.uleb128 0x14
 8288 19f6 0D090000 		.4byte	0x90d
 8289 19fa 14       		.uleb128 0x14
 8290 19fb E1000000 		.4byte	0xe1
 8291 19ff 00       		.byte	0
 8292 1a00 4A       		.uleb128 0x4a
 8293 1a01 6A050000 		.4byte	.LASF162
 8294 1a05 09       		.byte	0x9
 8295 1a06 DC       		.byte	0xdc
 8296 1a07 40110000 		.4byte	0x1140
 8297 1a0b 1A1A0000 		.4byte	0x1a1a
 8298 1a0f 14       		.uleb128 0x14
 8299 1a10 1C060000 		.4byte	0x61c
 8300 1a14 14       		.uleb128 0x14
 8301 1a15 1C060000 		.4byte	0x61c
 8302 1a19 00       		.byte	0
 8303 1a1a 4A       		.uleb128 0x4a
 8304 1a1b 48060000 		.4byte	.LASF163
 8305 1a1f 09       		.byte	0x9
 8306 1a20 C8       		.byte	0xc8
 8307 1a21 2C000000 		.4byte	0x2c
 8308 1a25 3E1A0000 		.4byte	0x1a3e
 8309 1a29 14       		.uleb128 0x14
 8310 1a2a A6010000 		.4byte	0x1a6
 8311 1a2e 14       		.uleb128 0x14
 8312 1a2f 2C000000 		.4byte	0x2c
 8313 1a33 14       		.uleb128 0x14
 8314 1a34 2C000000 		.4byte	0x2c
 8315 1a38 14       		.uleb128 0x14
 8316 1a39 40110000 		.4byte	0x1140
 8317 1a3d 00       		.byte	0
 8318 1a3e 4A       		.uleb128 0x4a
 8319 1a3f 69030000 		.4byte	.LASF164
 8320 1a43 09       		.byte	0x9
 8321 1a44 A8       		.byte	0xa8
 8322 1a45 25000000 		.4byte	0x25
 8323 1a49 531A0000 		.4byte	0x1a53
 8324 1a4d 14       		.uleb128 0x14
 8325 1a4e 40110000 		.4byte	0x1140
 8326 1a52 00       		.byte	0
ARM GAS  C:\Users\jo\AppData\Local\Temp\ccdgtuym.s 			page 148


 8327 1a53 4A       		.uleb128 0x4a
 8328 1a54 1F070000 		.4byte	.LASF160
 8329 1a58 0A       		.byte	0xa
 8330 1a59 19       		.byte	0x19
 8331 1a5a A6010000 		.4byte	0x1a6
 8332 1a5e 721A0000 		.4byte	0x1a72
 8333 1a62 14       		.uleb128 0x14
 8334 1a63 A6010000 		.4byte	0x1a6
 8335 1a67 14       		.uleb128 0x14
 8336 1a68 25000000 		.4byte	0x25
 8337 1a6c 14       		.uleb128 0x14
 8338 1a6d 2C000000 		.4byte	0x2c
 8339 1a71 00       		.byte	0
 8340 1a72 4A       		.uleb128 0x4a
 8341 1a73 27050000 		.4byte	.LASF165
 8342 1a77 0A       		.byte	0xa
 8343 1a78 21       		.byte	0x21
 8344 1a79 2C000000 		.4byte	0x2c
 8345 1a7d 871A0000 		.4byte	0x1a87
 8346 1a81 14       		.uleb128 0x14
 8347 1a82 1C060000 		.4byte	0x61c
 8348 1a86 00       		.byte	0
 8349 1a87 4A       		.uleb128 0x4a
 8350 1a88 C8060000 		.4byte	.LASF166
 8351 1a8c 0A       		.byte	0xa
 8352 1a8d 16       		.byte	0x16
 8353 1a8e 25000000 		.4byte	0x25
 8354 1a92 A61A0000 		.4byte	0x1aa6
 8355 1a96 14       		.uleb128 0x14
 8356 1a97 0D090000 		.4byte	0x90d
 8357 1a9b 14       		.uleb128 0x14
 8358 1a9c 0D090000 		.4byte	0x90d
 8359 1aa0 14       		.uleb128 0x14
 8360 1aa1 2C000000 		.4byte	0x2c
 8361 1aa5 00       		.byte	0
 8362 1aa6 4A       		.uleb128 0x4a
 8363 1aa7 4E020000 		.4byte	.LASF167
 8364 1aab 09       		.byte	0x9
 8365 1aac B1       		.byte	0xb1
 8366 1aad 25000000 		.4byte	0x25
 8367 1ab1 BC1A0000 		.4byte	0x1abc
 8368 1ab5 14       		.uleb128 0x14
 8369 1ab6 1C060000 		.4byte	0x61c
 8370 1aba 4B       		.uleb128 0x4b
 8371 1abb 00       		.byte	0
 8372 1abc 4C       		.uleb128 0x4c
 8373 1abd DD010000 		.4byte	.LASF173
 8374 1ac1 0B       		.byte	0xb
 8375 1ac2 00       		.byte	0
 8376 1ac3 F3070000 		.4byte	.LASF174
 8377 1ac7 25000000 		.4byte	0x25
 8378 1acb D51A0000 		.4byte	0x1ad5
 8379 1acf 14       		.uleb128 0x14
 8380 1ad0 1C060000 		.4byte	0x61c
 8381 1ad4 00       		.byte	0
 8382 1ad5 4D       		.uleb128 0x4d
 8383 1ad6 22030000 		.4byte	.LASF168
ARM GAS  C:\Users\jo\AppData\Local\Temp\ccdgtuym.s 			page 149


 8384 1ada 0B       		.byte	0xb
 8385 1adb 00       		.byte	0
 8386 1adc F5010000 		.4byte	.LASF175
 8387 1ae0 25000000 		.4byte	0x25
 8388 1ae4 14       		.uleb128 0x14
 8389 1ae5 25000000 		.4byte	0x25
 8390 1ae9 00       		.byte	0
 8391 1aea 00       		.byte	0
 8392              		.section	.debug_abbrev,"",%progbits
 8393              	.Ldebug_abbrev0:
 8394 0000 01       		.uleb128 0x1
 8395 0001 11       		.uleb128 0x11
 8396 0002 01       		.byte	0x1
 8397 0003 25       		.uleb128 0x25
 8398 0004 0E       		.uleb128 0xe
 8399 0005 13       		.uleb128 0x13
 8400 0006 0B       		.uleb128 0xb
 8401 0007 03       		.uleb128 0x3
 8402 0008 0E       		.uleb128 0xe
 8403 0009 1B       		.uleb128 0x1b
 8404 000a 0E       		.uleb128 0xe
 8405 000b 55       		.uleb128 0x55
 8406 000c 17       		.uleb128 0x17
 8407 000d 11       		.uleb128 0x11
 8408 000e 01       		.uleb128 0x1
 8409 000f 10       		.uleb128 0x10
 8410 0010 17       		.uleb128 0x17
 8411 0011 00       		.byte	0
 8412 0012 00       		.byte	0
 8413 0013 02       		.uleb128 0x2
 8414 0014 24       		.uleb128 0x24
 8415 0015 00       		.byte	0
 8416 0016 0B       		.uleb128 0xb
 8417 0017 0B       		.uleb128 0xb
 8418 0018 3E       		.uleb128 0x3e
 8419 0019 0B       		.uleb128 0xb
 8420 001a 03       		.uleb128 0x3
 8421 001b 08       		.uleb128 0x8
 8422 001c 00       		.byte	0
 8423 001d 00       		.byte	0
 8424 001e 03       		.uleb128 0x3
 8425 001f 16       		.uleb128 0x16
 8426 0020 00       		.byte	0
 8427 0021 03       		.uleb128 0x3
 8428 0022 0E       		.uleb128 0xe
 8429 0023 3A       		.uleb128 0x3a
 8430 0024 0B       		.uleb128 0xb
 8431 0025 3B       		.uleb128 0x3b
 8432 0026 0B       		.uleb128 0xb
 8433 0027 49       		.uleb128 0x49
 8434 0028 13       		.uleb128 0x13
 8435 0029 00       		.byte	0
 8436 002a 00       		.byte	0
 8437 002b 04       		.uleb128 0x4
 8438 002c 24       		.uleb128 0x24
 8439 002d 00       		.byte	0
 8440 002e 0B       		.uleb128 0xb
ARM GAS  C:\Users\jo\AppData\Local\Temp\ccdgtuym.s 			page 150


 8441 002f 0B       		.uleb128 0xb
 8442 0030 3E       		.uleb128 0x3e
 8443 0031 0B       		.uleb128 0xb
 8444 0032 03       		.uleb128 0x3
 8445 0033 0E       		.uleb128 0xe
 8446 0034 00       		.byte	0
 8447 0035 00       		.byte	0
 8448 0036 05       		.uleb128 0x5
 8449 0037 13       		.uleb128 0x13
 8450 0038 01       		.byte	0x1
 8451 0039 0B       		.uleb128 0xb
 8452 003a 0B       		.uleb128 0xb
 8453 003b 3A       		.uleb128 0x3a
 8454 003c 0B       		.uleb128 0xb
 8455 003d 3B       		.uleb128 0x3b
 8456 003e 0B       		.uleb128 0xb
 8457 003f 01       		.uleb128 0x1
 8458 0040 13       		.uleb128 0x13
 8459 0041 00       		.byte	0
 8460 0042 00       		.byte	0
 8461 0043 06       		.uleb128 0x6
 8462 0044 0D       		.uleb128 0xd
 8463 0045 00       		.byte	0
 8464 0046 03       		.uleb128 0x3
 8465 0047 0E       		.uleb128 0xe
 8466 0048 3A       		.uleb128 0x3a
 8467 0049 0B       		.uleb128 0xb
 8468 004a 3B       		.uleb128 0x3b
 8469 004b 0B       		.uleb128 0xb
 8470 004c 49       		.uleb128 0x49
 8471 004d 13       		.uleb128 0x13
 8472 004e 38       		.uleb128 0x38
 8473 004f 0B       		.uleb128 0xb
 8474 0050 00       		.byte	0
 8475 0051 00       		.byte	0
 8476 0052 07       		.uleb128 0x7
 8477 0053 01       		.uleb128 0x1
 8478 0054 01       		.byte	0x1
 8479 0055 49       		.uleb128 0x49
 8480 0056 13       		.uleb128 0x13
 8481 0057 01       		.uleb128 0x1
 8482 0058 13       		.uleb128 0x13
 8483 0059 00       		.byte	0
 8484 005a 00       		.byte	0
 8485 005b 08       		.uleb128 0x8
 8486 005c 21       		.uleb128 0x21
 8487 005d 00       		.byte	0
 8488 005e 49       		.uleb128 0x49
 8489 005f 13       		.uleb128 0x13
 8490 0060 2F       		.uleb128 0x2f
 8491 0061 0B       		.uleb128 0xb
 8492 0062 00       		.byte	0
 8493 0063 00       		.byte	0
 8494 0064 09       		.uleb128 0x9
 8495 0065 16       		.uleb128 0x16
 8496 0066 00       		.byte	0
 8497 0067 03       		.uleb128 0x3
ARM GAS  C:\Users\jo\AppData\Local\Temp\ccdgtuym.s 			page 151


 8498 0068 0E       		.uleb128 0xe
 8499 0069 3A       		.uleb128 0x3a
 8500 006a 0B       		.uleb128 0xb
 8501 006b 3B       		.uleb128 0x3b
 8502 006c 05       		.uleb128 0x5
 8503 006d 49       		.uleb128 0x49
 8504 006e 13       		.uleb128 0x13
 8505 006f 00       		.byte	0
 8506 0070 00       		.byte	0
 8507 0071 0A       		.uleb128 0xa
 8508 0072 17       		.uleb128 0x17
 8509 0073 01       		.byte	0x1
 8510 0074 0B       		.uleb128 0xb
 8511 0075 0B       		.uleb128 0xb
 8512 0076 3A       		.uleb128 0x3a
 8513 0077 0B       		.uleb128 0xb
 8514 0078 3B       		.uleb128 0x3b
 8515 0079 0B       		.uleb128 0xb
 8516 007a 01       		.uleb128 0x1
 8517 007b 13       		.uleb128 0x13
 8518 007c 00       		.byte	0
 8519 007d 00       		.byte	0
 8520 007e 0B       		.uleb128 0xb
 8521 007f 0D       		.uleb128 0xd
 8522 0080 00       		.byte	0
 8523 0081 03       		.uleb128 0x3
 8524 0082 0E       		.uleb128 0xe
 8525 0083 3A       		.uleb128 0x3a
 8526 0084 0B       		.uleb128 0xb
 8527 0085 3B       		.uleb128 0x3b
 8528 0086 0B       		.uleb128 0xb
 8529 0087 49       		.uleb128 0x49
 8530 0088 13       		.uleb128 0x13
 8531 0089 00       		.byte	0
 8532 008a 00       		.byte	0
 8533 008b 0C       		.uleb128 0xc
 8534 008c 0F       		.uleb128 0xf
 8535 008d 00       		.byte	0
 8536 008e 0B       		.uleb128 0xb
 8537 008f 0B       		.uleb128 0xb
 8538 0090 00       		.byte	0
 8539 0091 00       		.byte	0
 8540 0092 0D       		.uleb128 0xd
 8541 0093 13       		.uleb128 0x13
 8542 0094 01       		.byte	0x1
 8543 0095 03       		.uleb128 0x3
 8544 0096 0E       		.uleb128 0xe
 8545 0097 0B       		.uleb128 0xb
 8546 0098 0B       		.uleb128 0xb
 8547 0099 3A       		.uleb128 0x3a
 8548 009a 0B       		.uleb128 0xb
 8549 009b 3B       		.uleb128 0x3b
 8550 009c 0B       		.uleb128 0xb
 8551 009d 01       		.uleb128 0x1
 8552 009e 13       		.uleb128 0x13
 8553 009f 00       		.byte	0
 8554 00a0 00       		.byte	0
ARM GAS  C:\Users\jo\AppData\Local\Temp\ccdgtuym.s 			page 152


 8555 00a1 0E       		.uleb128 0xe
 8556 00a2 0D       		.uleb128 0xd
 8557 00a3 00       		.byte	0
 8558 00a4 03       		.uleb128 0x3
 8559 00a5 08       		.uleb128 0x8
 8560 00a6 3A       		.uleb128 0x3a
 8561 00a7 0B       		.uleb128 0xb
 8562 00a8 3B       		.uleb128 0x3b
 8563 00a9 0B       		.uleb128 0xb
 8564 00aa 49       		.uleb128 0x49
 8565 00ab 13       		.uleb128 0x13
 8566 00ac 38       		.uleb128 0x38
 8567 00ad 0B       		.uleb128 0xb
 8568 00ae 00       		.byte	0
 8569 00af 00       		.byte	0
 8570 00b0 0F       		.uleb128 0xf
 8571 00b1 0F       		.uleb128 0xf
 8572 00b2 00       		.byte	0
 8573 00b3 0B       		.uleb128 0xb
 8574 00b4 0B       		.uleb128 0xb
 8575 00b5 49       		.uleb128 0x49
 8576 00b6 13       		.uleb128 0x13
 8577 00b7 00       		.byte	0
 8578 00b8 00       		.byte	0
 8579 00b9 10       		.uleb128 0x10
 8580 00ba 13       		.uleb128 0x13
 8581 00bb 01       		.byte	0x1
 8582 00bc 03       		.uleb128 0x3
 8583 00bd 0E       		.uleb128 0xe
 8584 00be 0B       		.uleb128 0xb
 8585 00bf 05       		.uleb128 0x5
 8586 00c0 3A       		.uleb128 0x3a
 8587 00c1 0B       		.uleb128 0xb
 8588 00c2 3B       		.uleb128 0x3b
 8589 00c3 0B       		.uleb128 0xb
 8590 00c4 01       		.uleb128 0x1
 8591 00c5 13       		.uleb128 0x13
 8592 00c6 00       		.byte	0
 8593 00c7 00       		.byte	0
 8594 00c8 11       		.uleb128 0x11
 8595 00c9 0D       		.uleb128 0xd
 8596 00ca 00       		.byte	0
 8597 00cb 03       		.uleb128 0x3
 8598 00cc 0E       		.uleb128 0xe
 8599 00cd 3A       		.uleb128 0x3a
 8600 00ce 0B       		.uleb128 0xb
 8601 00cf 3B       		.uleb128 0x3b
 8602 00d0 0B       		.uleb128 0xb
 8603 00d1 49       		.uleb128 0x49
 8604 00d2 13       		.uleb128 0x13
 8605 00d3 38       		.uleb128 0x38
 8606 00d4 05       		.uleb128 0x5
 8607 00d5 00       		.byte	0
 8608 00d6 00       		.byte	0
 8609 00d7 12       		.uleb128 0x12
 8610 00d8 15       		.uleb128 0x15
 8611 00d9 00       		.byte	0
ARM GAS  C:\Users\jo\AppData\Local\Temp\ccdgtuym.s 			page 153


 8612 00da 27       		.uleb128 0x27
 8613 00db 19       		.uleb128 0x19
 8614 00dc 00       		.byte	0
 8615 00dd 00       		.byte	0
 8616 00de 13       		.uleb128 0x13
 8617 00df 15       		.uleb128 0x15
 8618 00e0 01       		.byte	0x1
 8619 00e1 27       		.uleb128 0x27
 8620 00e2 19       		.uleb128 0x19
 8621 00e3 49       		.uleb128 0x49
 8622 00e4 13       		.uleb128 0x13
 8623 00e5 01       		.uleb128 0x1
 8624 00e6 13       		.uleb128 0x13
 8625 00e7 00       		.byte	0
 8626 00e8 00       		.byte	0
 8627 00e9 14       		.uleb128 0x14
 8628 00ea 05       		.uleb128 0x5
 8629 00eb 00       		.byte	0
 8630 00ec 49       		.uleb128 0x49
 8631 00ed 13       		.uleb128 0x13
 8632 00ee 00       		.byte	0
 8633 00ef 00       		.byte	0
 8634 00f0 15       		.uleb128 0x15
 8635 00f1 13       		.uleb128 0x13
 8636 00f2 01       		.byte	0x1
 8637 00f3 03       		.uleb128 0x3
 8638 00f4 0E       		.uleb128 0xe
 8639 00f5 0B       		.uleb128 0xb
 8640 00f6 05       		.uleb128 0x5
 8641 00f7 3A       		.uleb128 0x3a
 8642 00f8 0B       		.uleb128 0xb
 8643 00f9 3B       		.uleb128 0x3b
 8644 00fa 05       		.uleb128 0x5
 8645 00fb 01       		.uleb128 0x1
 8646 00fc 13       		.uleb128 0x13
 8647 00fd 00       		.byte	0
 8648 00fe 00       		.byte	0
 8649 00ff 16       		.uleb128 0x16
 8650 0100 0D       		.uleb128 0xd
 8651 0101 00       		.byte	0
 8652 0102 03       		.uleb128 0x3
 8653 0103 0E       		.uleb128 0xe
 8654 0104 3A       		.uleb128 0x3a
 8655 0105 0B       		.uleb128 0xb
 8656 0106 3B       		.uleb128 0x3b
 8657 0107 05       		.uleb128 0x5
 8658 0108 49       		.uleb128 0x49
 8659 0109 13       		.uleb128 0x13
 8660 010a 38       		.uleb128 0x38
 8661 010b 0B       		.uleb128 0xb
 8662 010c 00       		.byte	0
 8663 010d 00       		.byte	0
 8664 010e 17       		.uleb128 0x17
 8665 010f 0D       		.uleb128 0xd
 8666 0110 00       		.byte	0
 8667 0111 03       		.uleb128 0x3
 8668 0112 0E       		.uleb128 0xe
ARM GAS  C:\Users\jo\AppData\Local\Temp\ccdgtuym.s 			page 154


 8669 0113 3A       		.uleb128 0x3a
 8670 0114 0B       		.uleb128 0xb
 8671 0115 3B       		.uleb128 0x3b
 8672 0116 05       		.uleb128 0x5
 8673 0117 49       		.uleb128 0x49
 8674 0118 13       		.uleb128 0x13
 8675 0119 38       		.uleb128 0x38
 8676 011a 05       		.uleb128 0x5
 8677 011b 00       		.byte	0
 8678 011c 00       		.byte	0
 8679 011d 18       		.uleb128 0x18
 8680 011e 26       		.uleb128 0x26
 8681 011f 00       		.byte	0
 8682 0120 49       		.uleb128 0x49
 8683 0121 13       		.uleb128 0x13
 8684 0122 00       		.byte	0
 8685 0123 00       		.byte	0
 8686 0124 19       		.uleb128 0x19
 8687 0125 13       		.uleb128 0x13
 8688 0126 01       		.byte	0x1
 8689 0127 03       		.uleb128 0x3
 8690 0128 0E       		.uleb128 0xe
 8691 0129 0B       		.uleb128 0xb
 8692 012a 0B       		.uleb128 0xb
 8693 012b 3A       		.uleb128 0x3a
 8694 012c 0B       		.uleb128 0xb
 8695 012d 3B       		.uleb128 0x3b
 8696 012e 05       		.uleb128 0x5
 8697 012f 01       		.uleb128 0x1
 8698 0130 13       		.uleb128 0x13
 8699 0131 00       		.byte	0
 8700 0132 00       		.byte	0
 8701 0133 1A       		.uleb128 0x1a
 8702 0134 13       		.uleb128 0x13
 8703 0135 01       		.byte	0x1
 8704 0136 0B       		.uleb128 0xb
 8705 0137 0B       		.uleb128 0xb
 8706 0138 3A       		.uleb128 0x3a
 8707 0139 0B       		.uleb128 0xb
 8708 013a 3B       		.uleb128 0x3b
 8709 013b 05       		.uleb128 0x5
 8710 013c 01       		.uleb128 0x1
 8711 013d 13       		.uleb128 0x13
 8712 013e 00       		.byte	0
 8713 013f 00       		.byte	0
 8714 0140 1B       		.uleb128 0x1b
 8715 0141 17       		.uleb128 0x17
 8716 0142 01       		.byte	0x1
 8717 0143 0B       		.uleb128 0xb
 8718 0144 0B       		.uleb128 0xb
 8719 0145 3A       		.uleb128 0x3a
 8720 0146 0B       		.uleb128 0xb
 8721 0147 3B       		.uleb128 0x3b
 8722 0148 05       		.uleb128 0x5
 8723 0149 01       		.uleb128 0x1
 8724 014a 13       		.uleb128 0x13
 8725 014b 00       		.byte	0
ARM GAS  C:\Users\jo\AppData\Local\Temp\ccdgtuym.s 			page 155


 8726 014c 00       		.byte	0
 8727 014d 1C       		.uleb128 0x1c
 8728 014e 0D       		.uleb128 0xd
 8729 014f 00       		.byte	0
 8730 0150 03       		.uleb128 0x3
 8731 0151 0E       		.uleb128 0xe
 8732 0152 3A       		.uleb128 0x3a
 8733 0153 0B       		.uleb128 0xb
 8734 0154 3B       		.uleb128 0x3b
 8735 0155 05       		.uleb128 0x5
 8736 0156 49       		.uleb128 0x49
 8737 0157 13       		.uleb128 0x13
 8738 0158 00       		.byte	0
 8739 0159 00       		.byte	0
 8740 015a 1D       		.uleb128 0x1d
 8741 015b 15       		.uleb128 0x15
 8742 015c 01       		.byte	0x1
 8743 015d 27       		.uleb128 0x27
 8744 015e 19       		.uleb128 0x19
 8745 015f 01       		.uleb128 0x1
 8746 0160 13       		.uleb128 0x13
 8747 0161 00       		.byte	0
 8748 0162 00       		.byte	0
 8749 0163 1E       		.uleb128 0x1e
 8750 0164 26       		.uleb128 0x26
 8751 0165 00       		.byte	0
 8752 0166 00       		.byte	0
 8753 0167 00       		.byte	0
 8754 0168 1F       		.uleb128 0x1f
 8755 0169 2E       		.uleb128 0x2e
 8756 016a 01       		.byte	0x1
 8757 016b 03       		.uleb128 0x3
 8758 016c 0E       		.uleb128 0xe
 8759 016d 3A       		.uleb128 0x3a
 8760 016e 0B       		.uleb128 0xb
 8761 016f 3B       		.uleb128 0x3b
 8762 0170 0B       		.uleb128 0xb
 8763 0171 27       		.uleb128 0x27
 8764 0172 19       		.uleb128 0x19
 8765 0173 20       		.uleb128 0x20
 8766 0174 0B       		.uleb128 0xb
 8767 0175 01       		.uleb128 0x1
 8768 0176 13       		.uleb128 0x13
 8769 0177 00       		.byte	0
 8770 0178 00       		.byte	0
 8771 0179 20       		.uleb128 0x20
 8772 017a 05       		.uleb128 0x5
 8773 017b 00       		.byte	0
 8774 017c 03       		.uleb128 0x3
 8775 017d 08       		.uleb128 0x8
 8776 017e 3A       		.uleb128 0x3a
 8777 017f 0B       		.uleb128 0xb
 8778 0180 3B       		.uleb128 0x3b
 8779 0181 0B       		.uleb128 0xb
 8780 0182 49       		.uleb128 0x49
 8781 0183 13       		.uleb128 0x13
 8782 0184 00       		.byte	0
ARM GAS  C:\Users\jo\AppData\Local\Temp\ccdgtuym.s 			page 156


 8783 0185 00       		.byte	0
 8784 0186 21       		.uleb128 0x21
 8785 0187 34       		.uleb128 0x34
 8786 0188 00       		.byte	0
 8787 0189 03       		.uleb128 0x3
 8788 018a 08       		.uleb128 0x8
 8789 018b 3A       		.uleb128 0x3a
 8790 018c 0B       		.uleb128 0xb
 8791 018d 3B       		.uleb128 0x3b
 8792 018e 0B       		.uleb128 0xb
 8793 018f 49       		.uleb128 0x49
 8794 0190 13       		.uleb128 0x13
 8795 0191 00       		.byte	0
 8796 0192 00       		.byte	0
 8797 0193 22       		.uleb128 0x22
 8798 0194 35       		.uleb128 0x35
 8799 0195 00       		.byte	0
 8800 0196 49       		.uleb128 0x49
 8801 0197 13       		.uleb128 0x13
 8802 0198 00       		.byte	0
 8803 0199 00       		.byte	0
 8804 019a 23       		.uleb128 0x23
 8805 019b 2E       		.uleb128 0x2e
 8806 019c 01       		.byte	0x1
 8807 019d 3F       		.uleb128 0x3f
 8808 019e 19       		.uleb128 0x19
 8809 019f 03       		.uleb128 0x3
 8810 01a0 0E       		.uleb128 0xe
 8811 01a1 3A       		.uleb128 0x3a
 8812 01a2 0B       		.uleb128 0xb
 8813 01a3 3B       		.uleb128 0x3b
 8814 01a4 05       		.uleb128 0x5
 8815 01a5 27       		.uleb128 0x27
 8816 01a6 19       		.uleb128 0x19
 8817 01a7 20       		.uleb128 0x20
 8818 01a8 0B       		.uleb128 0xb
 8819 01a9 01       		.uleb128 0x1
 8820 01aa 13       		.uleb128 0x13
 8821 01ab 00       		.byte	0
 8822 01ac 00       		.byte	0
 8823 01ad 24       		.uleb128 0x24
 8824 01ae 05       		.uleb128 0x5
 8825 01af 00       		.byte	0
 8826 01b0 03       		.uleb128 0x3
 8827 01b1 08       		.uleb128 0x8
 8828 01b2 3A       		.uleb128 0x3a
 8829 01b3 0B       		.uleb128 0xb
 8830 01b4 3B       		.uleb128 0x3b
 8831 01b5 05       		.uleb128 0x5
 8832 01b6 49       		.uleb128 0x49
 8833 01b7 13       		.uleb128 0x13
 8834 01b8 00       		.byte	0
 8835 01b9 00       		.byte	0
 8836 01ba 25       		.uleb128 0x25
 8837 01bb 05       		.uleb128 0x5
 8838 01bc 00       		.byte	0
 8839 01bd 03       		.uleb128 0x3
ARM GAS  C:\Users\jo\AppData\Local\Temp\ccdgtuym.s 			page 157


 8840 01be 0E       		.uleb128 0xe
 8841 01bf 3A       		.uleb128 0x3a
 8842 01c0 0B       		.uleb128 0xb
 8843 01c1 3B       		.uleb128 0x3b
 8844 01c2 05       		.uleb128 0x5
 8845 01c3 49       		.uleb128 0x49
 8846 01c4 13       		.uleb128 0x13
 8847 01c5 00       		.byte	0
 8848 01c6 00       		.byte	0
 8849 01c7 26       		.uleb128 0x26
 8850 01c8 34       		.uleb128 0x34
 8851 01c9 00       		.byte	0
 8852 01ca 03       		.uleb128 0x3
 8853 01cb 0E       		.uleb128 0xe
 8854 01cc 3A       		.uleb128 0x3a
 8855 01cd 0B       		.uleb128 0xb
 8856 01ce 3B       		.uleb128 0x3b
 8857 01cf 05       		.uleb128 0x5
 8858 01d0 49       		.uleb128 0x49
 8859 01d1 13       		.uleb128 0x13
 8860 01d2 00       		.byte	0
 8861 01d3 00       		.byte	0
 8862 01d4 27       		.uleb128 0x27
 8863 01d5 2E       		.uleb128 0x2e
 8864 01d6 01       		.byte	0x1
 8865 01d7 3F       		.uleb128 0x3f
 8866 01d8 19       		.uleb128 0x19
 8867 01d9 03       		.uleb128 0x3
 8868 01da 0E       		.uleb128 0xe
 8869 01db 3A       		.uleb128 0x3a
 8870 01dc 0B       		.uleb128 0xb
 8871 01dd 3B       		.uleb128 0x3b
 8872 01de 0B       		.uleb128 0xb
 8873 01df 27       		.uleb128 0x27
 8874 01e0 19       		.uleb128 0x19
 8875 01e1 20       		.uleb128 0x20
 8876 01e2 0B       		.uleb128 0xb
 8877 01e3 01       		.uleb128 0x1
 8878 01e4 13       		.uleb128 0x13
 8879 01e5 00       		.byte	0
 8880 01e6 00       		.byte	0
 8881 01e7 28       		.uleb128 0x28
 8882 01e8 2E       		.uleb128 0x2e
 8883 01e9 01       		.byte	0x1
 8884 01ea 31       		.uleb128 0x31
 8885 01eb 13       		.uleb128 0x13
 8886 01ec 11       		.uleb128 0x11
 8887 01ed 01       		.uleb128 0x1
 8888 01ee 12       		.uleb128 0x12
 8889 01ef 06       		.uleb128 0x6
 8890 01f0 40       		.uleb128 0x40
 8891 01f1 18       		.uleb128 0x18
 8892 01f2 9742     		.uleb128 0x2117
 8893 01f4 19       		.uleb128 0x19
 8894 01f5 01       		.uleb128 0x1
 8895 01f6 13       		.uleb128 0x13
 8896 01f7 00       		.byte	0
ARM GAS  C:\Users\jo\AppData\Local\Temp\ccdgtuym.s 			page 158


 8897 01f8 00       		.byte	0
 8898 01f9 29       		.uleb128 0x29
 8899 01fa 05       		.uleb128 0x5
 8900 01fb 00       		.byte	0
 8901 01fc 31       		.uleb128 0x31
 8902 01fd 13       		.uleb128 0x13
 8903 01fe 02       		.uleb128 0x2
 8904 01ff 17       		.uleb128 0x17
 8905 0200 00       		.byte	0
 8906 0201 00       		.byte	0
 8907 0202 2A       		.uleb128 0x2a
 8908 0203 898201   		.uleb128 0x4109
 8909 0206 01       		.byte	0x1
 8910 0207 11       		.uleb128 0x11
 8911 0208 01       		.uleb128 0x1
 8912 0209 9542     		.uleb128 0x2115
 8913 020b 19       		.uleb128 0x19
 8914 020c 31       		.uleb128 0x31
 8915 020d 13       		.uleb128 0x13
 8916 020e 00       		.byte	0
 8917 020f 00       		.byte	0
 8918 0210 2B       		.uleb128 0x2b
 8919 0211 8A8201   		.uleb128 0x410a
 8920 0214 00       		.byte	0
 8921 0215 02       		.uleb128 0x2
 8922 0216 18       		.uleb128 0x18
 8923 0217 9142     		.uleb128 0x2111
 8924 0219 18       		.uleb128 0x18
 8925 021a 00       		.byte	0
 8926 021b 00       		.byte	0
 8927 021c 2C       		.uleb128 0x2c
 8928 021d 1D       		.uleb128 0x1d
 8929 021e 01       		.byte	0x1
 8930 021f 31       		.uleb128 0x31
 8931 0220 13       		.uleb128 0x13
 8932 0221 11       		.uleb128 0x11
 8933 0222 01       		.uleb128 0x1
 8934 0223 12       		.uleb128 0x12
 8935 0224 06       		.uleb128 0x6
 8936 0225 58       		.uleb128 0x58
 8937 0226 0B       		.uleb128 0xb
 8938 0227 59       		.uleb128 0x59
 8939 0228 0B       		.uleb128 0xb
 8940 0229 00       		.byte	0
 8941 022a 00       		.byte	0
 8942 022b 2D       		.uleb128 0x2d
 8943 022c 05       		.uleb128 0x5
 8944 022d 00       		.byte	0
 8945 022e 31       		.uleb128 0x31
 8946 022f 13       		.uleb128 0x13
 8947 0230 00       		.byte	0
 8948 0231 00       		.byte	0
 8949 0232 2E       		.uleb128 0x2e
 8950 0233 0B       		.uleb128 0xb
 8951 0234 01       		.byte	0x1
 8952 0235 11       		.uleb128 0x11
 8953 0236 01       		.uleb128 0x1
ARM GAS  C:\Users\jo\AppData\Local\Temp\ccdgtuym.s 			page 159


 8954 0237 12       		.uleb128 0x12
 8955 0238 06       		.uleb128 0x6
 8956 0239 00       		.byte	0
 8957 023a 00       		.byte	0
 8958 023b 2F       		.uleb128 0x2f
 8959 023c 34       		.uleb128 0x34
 8960 023d 00       		.byte	0
 8961 023e 31       		.uleb128 0x31
 8962 023f 13       		.uleb128 0x13
 8963 0240 02       		.uleb128 0x2
 8964 0241 17       		.uleb128 0x17
 8965 0242 00       		.byte	0
 8966 0243 00       		.byte	0
 8967 0244 30       		.uleb128 0x30
 8968 0245 05       		.uleb128 0x5
 8969 0246 00       		.byte	0
 8970 0247 31       		.uleb128 0x31
 8971 0248 13       		.uleb128 0x13
 8972 0249 02       		.uleb128 0x2
 8973 024a 18       		.uleb128 0x18
 8974 024b 00       		.byte	0
 8975 024c 00       		.byte	0
 8976 024d 31       		.uleb128 0x31
 8977 024e 2E       		.uleb128 0x2e
 8978 024f 01       		.byte	0x1
 8979 0250 3F       		.uleb128 0x3f
 8980 0251 19       		.uleb128 0x19
 8981 0252 03       		.uleb128 0x3
 8982 0253 0E       		.uleb128 0xe
 8983 0254 3A       		.uleb128 0x3a
 8984 0255 0B       		.uleb128 0xb
 8985 0256 3B       		.uleb128 0x3b
 8986 0257 0B       		.uleb128 0xb
 8987 0258 27       		.uleb128 0x27
 8988 0259 19       		.uleb128 0x19
 8989 025a 11       		.uleb128 0x11
 8990 025b 01       		.uleb128 0x1
 8991 025c 12       		.uleb128 0x12
 8992 025d 06       		.uleb128 0x6
 8993 025e 40       		.uleb128 0x40
 8994 025f 18       		.uleb128 0x18
 8995 0260 9742     		.uleb128 0x2117
 8996 0262 19       		.uleb128 0x19
 8997 0263 01       		.uleb128 0x1
 8998 0264 13       		.uleb128 0x13
 8999 0265 00       		.byte	0
 9000 0266 00       		.byte	0
 9001 0267 32       		.uleb128 0x32
 9002 0268 05       		.uleb128 0x5
 9003 0269 00       		.byte	0
 9004 026a 03       		.uleb128 0x3
 9005 026b 08       		.uleb128 0x8
 9006 026c 3A       		.uleb128 0x3a
 9007 026d 0B       		.uleb128 0xb
 9008 026e 3B       		.uleb128 0x3b
 9009 026f 0B       		.uleb128 0xb
 9010 0270 49       		.uleb128 0x49
ARM GAS  C:\Users\jo\AppData\Local\Temp\ccdgtuym.s 			page 160


 9011 0271 13       		.uleb128 0x13
 9012 0272 02       		.uleb128 0x2
 9013 0273 17       		.uleb128 0x17
 9014 0274 00       		.byte	0
 9015 0275 00       		.byte	0
 9016 0276 33       		.uleb128 0x33
 9017 0277 05       		.uleb128 0x5
 9018 0278 00       		.byte	0
 9019 0279 03       		.uleb128 0x3
 9020 027a 0E       		.uleb128 0xe
 9021 027b 3A       		.uleb128 0x3a
 9022 027c 0B       		.uleb128 0xb
 9023 027d 3B       		.uleb128 0x3b
 9024 027e 0B       		.uleb128 0xb
 9025 027f 49       		.uleb128 0x49
 9026 0280 13       		.uleb128 0x13
 9027 0281 02       		.uleb128 0x2
 9028 0282 17       		.uleb128 0x17
 9029 0283 00       		.byte	0
 9030 0284 00       		.byte	0
 9031 0285 34       		.uleb128 0x34
 9032 0286 34       		.uleb128 0x34
 9033 0287 00       		.byte	0
 9034 0288 03       		.uleb128 0x3
 9035 0289 08       		.uleb128 0x8
 9036 028a 3A       		.uleb128 0x3a
 9037 028b 0B       		.uleb128 0xb
 9038 028c 3B       		.uleb128 0x3b
 9039 028d 0B       		.uleb128 0xb
 9040 028e 49       		.uleb128 0x49
 9041 028f 13       		.uleb128 0x13
 9042 0290 02       		.uleb128 0x2
 9043 0291 17       		.uleb128 0x17
 9044 0292 00       		.byte	0
 9045 0293 00       		.byte	0
 9046 0294 35       		.uleb128 0x35
 9047 0295 898201   		.uleb128 0x4109
 9048 0298 01       		.byte	0x1
 9049 0299 11       		.uleb128 0x11
 9050 029a 01       		.uleb128 0x1
 9051 029b 31       		.uleb128 0x31
 9052 029c 13       		.uleb128 0x13
 9053 029d 01       		.uleb128 0x1
 9054 029e 13       		.uleb128 0x13
 9055 029f 00       		.byte	0
 9056 02a0 00       		.byte	0
 9057 02a1 36       		.uleb128 0x36
 9058 02a2 898201   		.uleb128 0x4109
 9059 02a5 00       		.byte	0
 9060 02a6 11       		.uleb128 0x11
 9061 02a7 01       		.uleb128 0x1
 9062 02a8 9542     		.uleb128 0x2115
 9063 02aa 19       		.uleb128 0x19
 9064 02ab 31       		.uleb128 0x31
 9065 02ac 13       		.uleb128 0x13
 9066 02ad 00       		.byte	0
 9067 02ae 00       		.byte	0
ARM GAS  C:\Users\jo\AppData\Local\Temp\ccdgtuym.s 			page 161


 9068 02af 37       		.uleb128 0x37
 9069 02b0 34       		.uleb128 0x34
 9070 02b1 00       		.byte	0
 9071 02b2 31       		.uleb128 0x31
 9072 02b3 13       		.uleb128 0x13
 9073 02b4 00       		.byte	0
 9074 02b5 00       		.byte	0
 9075 02b6 38       		.uleb128 0x38
 9076 02b7 2E       		.uleb128 0x2e
 9077 02b8 01       		.byte	0x1
 9078 02b9 3F       		.uleb128 0x3f
 9079 02ba 19       		.uleb128 0x19
 9080 02bb 03       		.uleb128 0x3
 9081 02bc 0E       		.uleb128 0xe
 9082 02bd 3A       		.uleb128 0x3a
 9083 02be 0B       		.uleb128 0xb
 9084 02bf 3B       		.uleb128 0x3b
 9085 02c0 05       		.uleb128 0x5
 9086 02c1 27       		.uleb128 0x27
 9087 02c2 19       		.uleb128 0x19
 9088 02c3 11       		.uleb128 0x11
 9089 02c4 01       		.uleb128 0x1
 9090 02c5 12       		.uleb128 0x12
 9091 02c6 06       		.uleb128 0x6
 9092 02c7 40       		.uleb128 0x40
 9093 02c8 18       		.uleb128 0x18
 9094 02c9 9742     		.uleb128 0x2117
 9095 02cb 19       		.uleb128 0x19
 9096 02cc 01       		.uleb128 0x1
 9097 02cd 13       		.uleb128 0x13
 9098 02ce 00       		.byte	0
 9099 02cf 00       		.byte	0
 9100 02d0 39       		.uleb128 0x39
 9101 02d1 05       		.uleb128 0x5
 9102 02d2 00       		.byte	0
 9103 02d3 03       		.uleb128 0x3
 9104 02d4 08       		.uleb128 0x8
 9105 02d5 3A       		.uleb128 0x3a
 9106 02d6 0B       		.uleb128 0xb
 9107 02d7 3B       		.uleb128 0x3b
 9108 02d8 05       		.uleb128 0x5
 9109 02d9 49       		.uleb128 0x49
 9110 02da 13       		.uleb128 0x13
 9111 02db 02       		.uleb128 0x2
 9112 02dc 17       		.uleb128 0x17
 9113 02dd 00       		.byte	0
 9114 02de 00       		.byte	0
 9115 02df 3A       		.uleb128 0x3a
 9116 02e0 05       		.uleb128 0x5
 9117 02e1 00       		.byte	0
 9118 02e2 03       		.uleb128 0x3
 9119 02e3 0E       		.uleb128 0xe
 9120 02e4 3A       		.uleb128 0x3a
 9121 02e5 0B       		.uleb128 0xb
 9122 02e6 3B       		.uleb128 0x3b
 9123 02e7 05       		.uleb128 0x5
 9124 02e8 49       		.uleb128 0x49
ARM GAS  C:\Users\jo\AppData\Local\Temp\ccdgtuym.s 			page 162


 9125 02e9 13       		.uleb128 0x13
 9126 02ea 02       		.uleb128 0x2
 9127 02eb 17       		.uleb128 0x17
 9128 02ec 00       		.byte	0
 9129 02ed 00       		.byte	0
 9130 02ee 3B       		.uleb128 0x3b
 9131 02ef 34       		.uleb128 0x34
 9132 02f0 00       		.byte	0
 9133 02f1 03       		.uleb128 0x3
 9134 02f2 0E       		.uleb128 0xe
 9135 02f3 3A       		.uleb128 0x3a
 9136 02f4 0B       		.uleb128 0xb
 9137 02f5 3B       		.uleb128 0x3b
 9138 02f6 05       		.uleb128 0x5
 9139 02f7 49       		.uleb128 0x49
 9140 02f8 13       		.uleb128 0x13
 9141 02f9 02       		.uleb128 0x2
 9142 02fa 17       		.uleb128 0x17
 9143 02fb 00       		.byte	0
 9144 02fc 00       		.byte	0
 9145 02fd 3C       		.uleb128 0x3c
 9146 02fe 34       		.uleb128 0x34
 9147 02ff 00       		.byte	0
 9148 0300 03       		.uleb128 0x3
 9149 0301 08       		.uleb128 0x8
 9150 0302 3A       		.uleb128 0x3a
 9151 0303 0B       		.uleb128 0xb
 9152 0304 3B       		.uleb128 0x3b
 9153 0305 05       		.uleb128 0x5
 9154 0306 49       		.uleb128 0x49
 9155 0307 13       		.uleb128 0x13
 9156 0308 02       		.uleb128 0x2
 9157 0309 17       		.uleb128 0x17
 9158 030a 00       		.byte	0
 9159 030b 00       		.byte	0
 9160 030c 3D       		.uleb128 0x3d
 9161 030d 34       		.uleb128 0x34
 9162 030e 00       		.byte	0
 9163 030f 03       		.uleb128 0x3
 9164 0310 0E       		.uleb128 0xe
 9165 0311 3A       		.uleb128 0x3a
 9166 0312 0B       		.uleb128 0xb
 9167 0313 3B       		.uleb128 0x3b
 9168 0314 05       		.uleb128 0x5
 9169 0315 49       		.uleb128 0x49
 9170 0316 13       		.uleb128 0x13
 9171 0317 02       		.uleb128 0x2
 9172 0318 18       		.uleb128 0x18
 9173 0319 00       		.byte	0
 9174 031a 00       		.byte	0
 9175 031b 3E       		.uleb128 0x3e
 9176 031c 1D       		.uleb128 0x1d
 9177 031d 01       		.byte	0x1
 9178 031e 31       		.uleb128 0x31
 9179 031f 13       		.uleb128 0x13
 9180 0320 52       		.uleb128 0x52
 9181 0321 01       		.uleb128 0x1
ARM GAS  C:\Users\jo\AppData\Local\Temp\ccdgtuym.s 			page 163


 9182 0322 55       		.uleb128 0x55
 9183 0323 17       		.uleb128 0x17
 9184 0324 58       		.uleb128 0x58
 9185 0325 0B       		.uleb128 0xb
 9186 0326 59       		.uleb128 0x59
 9187 0327 05       		.uleb128 0x5
 9188 0328 01       		.uleb128 0x1
 9189 0329 13       		.uleb128 0x13
 9190 032a 00       		.byte	0
 9191 032b 00       		.byte	0
 9192 032c 3F       		.uleb128 0x3f
 9193 032d 0B       		.uleb128 0xb
 9194 032e 01       		.byte	0x1
 9195 032f 55       		.uleb128 0x55
 9196 0330 17       		.uleb128 0x17
 9197 0331 00       		.byte	0
 9198 0332 00       		.byte	0
 9199 0333 40       		.uleb128 0x40
 9200 0334 898201   		.uleb128 0x4109
 9201 0337 01       		.byte	0x1
 9202 0338 11       		.uleb128 0x11
 9203 0339 01       		.uleb128 0x1
 9204 033a 31       		.uleb128 0x31
 9205 033b 13       		.uleb128 0x13
 9206 033c 00       		.byte	0
 9207 033d 00       		.byte	0
 9208 033e 41       		.uleb128 0x41
 9209 033f 1D       		.uleb128 0x1d
 9210 0340 01       		.byte	0x1
 9211 0341 31       		.uleb128 0x31
 9212 0342 13       		.uleb128 0x13
 9213 0343 11       		.uleb128 0x11
 9214 0344 01       		.uleb128 0x1
 9215 0345 12       		.uleb128 0x12
 9216 0346 06       		.uleb128 0x6
 9217 0347 58       		.uleb128 0x58
 9218 0348 0B       		.uleb128 0xb
 9219 0349 59       		.uleb128 0x59
 9220 034a 05       		.uleb128 0x5
 9221 034b 00       		.byte	0
 9222 034c 00       		.byte	0
 9223 034d 42       		.uleb128 0x42
 9224 034e 05       		.uleb128 0x5
 9225 034f 00       		.byte	0
 9226 0350 31       		.uleb128 0x31
 9227 0351 13       		.uleb128 0x13
 9228 0352 1C       		.uleb128 0x1c
 9229 0353 0B       		.uleb128 0xb
 9230 0354 00       		.byte	0
 9231 0355 00       		.byte	0
 9232 0356 43       		.uleb128 0x43
 9233 0357 34       		.uleb128 0x34
 9234 0358 00       		.byte	0
 9235 0359 03       		.uleb128 0x3
 9236 035a 08       		.uleb128 0x8
 9237 035b 3A       		.uleb128 0x3a
 9238 035c 0B       		.uleb128 0xb
ARM GAS  C:\Users\jo\AppData\Local\Temp\ccdgtuym.s 			page 164


 9239 035d 3B       		.uleb128 0x3b
 9240 035e 05       		.uleb128 0x5
 9241 035f 49       		.uleb128 0x49
 9242 0360 13       		.uleb128 0x13
 9243 0361 02       		.uleb128 0x2
 9244 0362 18       		.uleb128 0x18
 9245 0363 00       		.byte	0
 9246 0364 00       		.byte	0
 9247 0365 44       		.uleb128 0x44
 9248 0366 1D       		.uleb128 0x1d
 9249 0367 01       		.byte	0x1
 9250 0368 31       		.uleb128 0x31
 9251 0369 13       		.uleb128 0x13
 9252 036a 11       		.uleb128 0x11
 9253 036b 01       		.uleb128 0x1
 9254 036c 12       		.uleb128 0x12
 9255 036d 06       		.uleb128 0x6
 9256 036e 58       		.uleb128 0x58
 9257 036f 0B       		.uleb128 0xb
 9258 0370 59       		.uleb128 0x59
 9259 0371 05       		.uleb128 0x5
 9260 0372 01       		.uleb128 0x1
 9261 0373 13       		.uleb128 0x13
 9262 0374 00       		.byte	0
 9263 0375 00       		.byte	0
 9264 0376 45       		.uleb128 0x45
 9265 0377 2E       		.uleb128 0x2e
 9266 0378 01       		.byte	0x1
 9267 0379 3F       		.uleb128 0x3f
 9268 037a 19       		.uleb128 0x19
 9269 037b 03       		.uleb128 0x3
 9270 037c 0E       		.uleb128 0xe
 9271 037d 3A       		.uleb128 0x3a
 9272 037e 0B       		.uleb128 0xb
 9273 037f 3B       		.uleb128 0x3b
 9274 0380 05       		.uleb128 0x5
 9275 0381 27       		.uleb128 0x27
 9276 0382 19       		.uleb128 0x19
 9277 0383 49       		.uleb128 0x49
 9278 0384 13       		.uleb128 0x13
 9279 0385 11       		.uleb128 0x11
 9280 0386 01       		.uleb128 0x1
 9281 0387 12       		.uleb128 0x12
 9282 0388 06       		.uleb128 0x6
 9283 0389 40       		.uleb128 0x40
 9284 038a 18       		.uleb128 0x18
 9285 038b 9742     		.uleb128 0x2117
 9286 038d 19       		.uleb128 0x19
 9287 038e 01       		.uleb128 0x1
 9288 038f 13       		.uleb128 0x13
 9289 0390 00       		.byte	0
 9290 0391 00       		.byte	0
 9291 0392 46       		.uleb128 0x46
 9292 0393 898201   		.uleb128 0x4109
 9293 0396 00       		.byte	0
 9294 0397 11       		.uleb128 0x11
 9295 0398 01       		.uleb128 0x1
ARM GAS  C:\Users\jo\AppData\Local\Temp\ccdgtuym.s 			page 165


 9296 0399 31       		.uleb128 0x31
 9297 039a 13       		.uleb128 0x13
 9298 039b 00       		.byte	0
 9299 039c 00       		.byte	0
 9300 039d 47       		.uleb128 0x47
 9301 039e 21       		.uleb128 0x21
 9302 039f 00       		.byte	0
 9303 03a0 49       		.uleb128 0x49
 9304 03a1 13       		.uleb128 0x13
 9305 03a2 2F       		.uleb128 0x2f
 9306 03a3 05       		.uleb128 0x5
 9307 03a4 00       		.byte	0
 9308 03a5 00       		.byte	0
 9309 03a6 48       		.uleb128 0x48
 9310 03a7 1D       		.uleb128 0x1d
 9311 03a8 01       		.byte	0x1
 9312 03a9 31       		.uleb128 0x31
 9313 03aa 13       		.uleb128 0x13
 9314 03ab 52       		.uleb128 0x52
 9315 03ac 01       		.uleb128 0x1
 9316 03ad 55       		.uleb128 0x55
 9317 03ae 17       		.uleb128 0x17
 9318 03af 58       		.uleb128 0x58
 9319 03b0 0B       		.uleb128 0xb
 9320 03b1 59       		.uleb128 0x59
 9321 03b2 05       		.uleb128 0x5
 9322 03b3 00       		.byte	0
 9323 03b4 00       		.byte	0
 9324 03b5 49       		.uleb128 0x49
 9325 03b6 2E       		.uleb128 0x2e
 9326 03b7 01       		.byte	0x1
 9327 03b8 3F       		.uleb128 0x3f
 9328 03b9 19       		.uleb128 0x19
 9329 03ba 03       		.uleb128 0x3
 9330 03bb 0E       		.uleb128 0xe
 9331 03bc 27       		.uleb128 0x27
 9332 03bd 19       		.uleb128 0x19
 9333 03be 49       		.uleb128 0x49
 9334 03bf 13       		.uleb128 0x13
 9335 03c0 34       		.uleb128 0x34
 9336 03c1 19       		.uleb128 0x19
 9337 03c2 3C       		.uleb128 0x3c
 9338 03c3 19       		.uleb128 0x19
 9339 03c4 01       		.uleb128 0x1
 9340 03c5 13       		.uleb128 0x13
 9341 03c6 00       		.byte	0
 9342 03c7 00       		.byte	0
 9343 03c8 4A       		.uleb128 0x4a
 9344 03c9 2E       		.uleb128 0x2e
 9345 03ca 01       		.byte	0x1
 9346 03cb 3F       		.uleb128 0x3f
 9347 03cc 19       		.uleb128 0x19
 9348 03cd 03       		.uleb128 0x3
 9349 03ce 0E       		.uleb128 0xe
 9350 03cf 3A       		.uleb128 0x3a
 9351 03d0 0B       		.uleb128 0xb
 9352 03d1 3B       		.uleb128 0x3b
ARM GAS  C:\Users\jo\AppData\Local\Temp\ccdgtuym.s 			page 166


 9353 03d2 0B       		.uleb128 0xb
 9354 03d3 27       		.uleb128 0x27
 9355 03d4 19       		.uleb128 0x19
 9356 03d5 49       		.uleb128 0x49
 9357 03d6 13       		.uleb128 0x13
 9358 03d7 3C       		.uleb128 0x3c
 9359 03d8 19       		.uleb128 0x19
 9360 03d9 01       		.uleb128 0x1
 9361 03da 13       		.uleb128 0x13
 9362 03db 00       		.byte	0
 9363 03dc 00       		.byte	0
 9364 03dd 4B       		.uleb128 0x4b
 9365 03de 18       		.uleb128 0x18
 9366 03df 00       		.byte	0
 9367 03e0 00       		.byte	0
 9368 03e1 00       		.byte	0
 9369 03e2 4C       		.uleb128 0x4c
 9370 03e3 2E       		.uleb128 0x2e
 9371 03e4 01       		.byte	0x1
 9372 03e5 3F       		.uleb128 0x3f
 9373 03e6 19       		.uleb128 0x19
 9374 03e7 03       		.uleb128 0x3
 9375 03e8 0E       		.uleb128 0xe
 9376 03e9 3A       		.uleb128 0x3a
 9377 03ea 0B       		.uleb128 0xb
 9378 03eb 3B       		.uleb128 0x3b
 9379 03ec 0B       		.uleb128 0xb
 9380 03ed 6E       		.uleb128 0x6e
 9381 03ee 0E       		.uleb128 0xe
 9382 03ef 27       		.uleb128 0x27
 9383 03f0 19       		.uleb128 0x19
 9384 03f1 49       		.uleb128 0x49
 9385 03f2 13       		.uleb128 0x13
 9386 03f3 3C       		.uleb128 0x3c
 9387 03f4 19       		.uleb128 0x19
 9388 03f5 01       		.uleb128 0x1
 9389 03f6 13       		.uleb128 0x13
 9390 03f7 00       		.byte	0
 9391 03f8 00       		.byte	0
 9392 03f9 4D       		.uleb128 0x4d
 9393 03fa 2E       		.uleb128 0x2e
 9394 03fb 01       		.byte	0x1
 9395 03fc 3F       		.uleb128 0x3f
 9396 03fd 19       		.uleb128 0x19
 9397 03fe 03       		.uleb128 0x3
 9398 03ff 0E       		.uleb128 0xe
 9399 0400 3A       		.uleb128 0x3a
 9400 0401 0B       		.uleb128 0xb
 9401 0402 3B       		.uleb128 0x3b
 9402 0403 0B       		.uleb128 0xb
 9403 0404 6E       		.uleb128 0x6e
 9404 0405 0E       		.uleb128 0xe
 9405 0406 27       		.uleb128 0x27
 9406 0407 19       		.uleb128 0x19
 9407 0408 49       		.uleb128 0x49
 9408 0409 13       		.uleb128 0x13
 9409 040a 3C       		.uleb128 0x3c
ARM GAS  C:\Users\jo\AppData\Local\Temp\ccdgtuym.s 			page 167


 9410 040b 19       		.uleb128 0x19
 9411 040c 00       		.byte	0
 9412 040d 00       		.byte	0
 9413 040e 00       		.byte	0
 9414              		.section	.debug_loc,"",%progbits
 9415              	.Ldebug_loc0:
 9416              	.LLST0:
 9417 0000 00000000 		.4byte	.LVL0
 9418 0004 07000000 		.4byte	.LVL1-1
 9419 0008 0100     		.2byte	0x1
 9420 000a 50       		.byte	0x50
 9421 000b 07000000 		.4byte	.LVL1-1
 9422 000f 08000000 		.4byte	.LFE1
 9423 0013 0400     		.2byte	0x4
 9424 0015 F3       		.byte	0xf3
 9425 0016 01       		.uleb128 0x1
 9426 0017 50       		.byte	0x50
 9427 0018 9F       		.byte	0x9f
 9428 0019 00000000 		.4byte	0
 9429 001d 00000000 		.4byte	0
 9430              	.LLST1:
 9431 0021 00000000 		.4byte	.LVL2
 9432 0025 08000000 		.4byte	.LVL3
 9433 0029 0100     		.2byte	0x1
 9434 002b 50       		.byte	0x50
 9435 002c 08000000 		.4byte	.LVL3
 9436 0030 10000000 		.4byte	.LVL6
 9437 0034 0400     		.2byte	0x4
 9438 0036 72       		.byte	0x72
 9439 0037 A47E     		.sleb128 -220
 9440 0039 9F       		.byte	0x9f
 9441 003a 10000000 		.4byte	.LVL6
 9442 003e 12000000 		.4byte	.LFE2
 9443 0042 0400     		.2byte	0x4
 9444 0044 F3       		.byte	0xf3
 9445 0045 01       		.uleb128 0x1
 9446 0046 50       		.byte	0x50
 9447 0047 9F       		.byte	0x9f
 9448 0048 00000000 		.4byte	0
 9449 004c 00000000 		.4byte	0
 9450              	.LLST2:
 9451 0050 08000000 		.4byte	.LVL3
 9452 0054 10000000 		.4byte	.LVL6
 9453 0058 0300     		.2byte	0x3
 9454 005a 08       		.byte	0x8
 9455 005b DB       		.byte	0xdb
 9456 005c 9F       		.byte	0x9f
 9457 005d 00000000 		.4byte	0
 9458 0061 00000000 		.4byte	0
 9459              	.LLST3:
 9460 0065 08000000 		.4byte	.LVL3
 9461 0069 0C000000 		.4byte	.LVL5
 9462 006d 0300     		.2byte	0x3
 9463 006f 70       		.byte	0x70
 9464 0070 01       		.sleb128 1
 9465 0071 9F       		.byte	0x9f
 9466 0072 0C000000 		.4byte	.LVL5
ARM GAS  C:\Users\jo\AppData\Local\Temp\ccdgtuym.s 			page 168


 9467 0076 10000000 		.4byte	.LVL6
 9468 007a 0100     		.2byte	0x1
 9469 007c 50       		.byte	0x50
 9470 007d 00000000 		.4byte	0
 9471 0081 00000000 		.4byte	0
 9472              	.LLST4:
 9473 0085 00000000 		.4byte	.LVL8
 9474 0089 5A000000 		.4byte	.LVL9
 9475 008d 0100     		.2byte	0x1
 9476 008f 50       		.byte	0x50
 9477 0090 5A000000 		.4byte	.LVL9
 9478 0094 4C160000 		.4byte	.LVL483
 9479 0098 0300     		.2byte	0x3
 9480 009a 91       		.byte	0x91
 9481 009b E47E     		.sleb128 -156
 9482 009d 4C160000 		.4byte	.LVL483
 9483 00a1 50160000 		.4byte	.LFE4
 9484 00a5 0100     		.2byte	0x1
 9485 00a7 50       		.byte	0x50
 9486 00a8 00000000 		.4byte	0
 9487 00ac 00000000 		.4byte	0
 9488              	.LLST5:
 9489 00b0 00000000 		.4byte	.LVL8
 9490 00b4 EA010000 		.4byte	.LVL16
 9491 00b8 0100     		.2byte	0x1
 9492 00ba 51       		.byte	0x51
 9493 00bb EA010000 		.4byte	.LVL16
 9494 00bf 50160000 		.4byte	.LFE4
 9495 00c3 0400     		.2byte	0x4
 9496 00c5 F3       		.byte	0xf3
 9497 00c6 01       		.uleb128 0x1
 9498 00c7 51       		.byte	0x51
 9499 00c8 9F       		.byte	0x9f
 9500 00c9 00000000 		.4byte	0
 9501 00cd 00000000 		.4byte	0
 9502              	.LLST6:
 9503 00d1 58050000 		.4byte	.LVL22
 9504 00d5 6C050000 		.4byte	.LVL26
 9505 00d9 0100     		.2byte	0x1
 9506 00db 53       		.byte	0x53
 9507 00dc 0C060000 		.4byte	.LVL46
 9508 00e0 12060000 		.4byte	.LVL47
 9509 00e4 0C00     		.2byte	0xc
 9510 00e6 71       		.byte	0x71
 9511 00e7 00       		.sleb128 0
 9512 00e8 70       		.byte	0x70
 9513 00e9 00       		.sleb128 0
 9514 00ea 27       		.byte	0x27
 9515 00eb 72       		.byte	0x72
 9516 00ec 00       		.sleb128 0
 9517 00ed 27       		.byte	0x27
 9518 00ee 73       		.byte	0x73
 9519 00ef 00       		.sleb128 0
 9520 00f0 22       		.byte	0x22
 9521 00f1 9F       		.byte	0x9f
 9522 00f2 12060000 		.4byte	.LVL47
 9523 00f6 16060000 		.4byte	.LVL48
ARM GAS  C:\Users\jo\AppData\Local\Temp\ccdgtuym.s 			page 169


 9524 00fa 0100     		.2byte	0x1
 9525 00fc 53       		.byte	0x53
 9526 00fd 16060000 		.4byte	.LVL48
 9527 0101 2E060000 		.4byte	.LVL52
 9528 0105 0100     		.2byte	0x1
 9529 0107 5C       		.byte	0x5c
 9530 0108 2E060000 		.4byte	.LVL52
 9531 010c C8060000 		.4byte	.LVL66
 9532 0110 0300     		.2byte	0x3
 9533 0112 91       		.byte	0x91
 9534 0113 F47E     		.sleb128 -140
 9535 0115 C8060000 		.4byte	.LVL66
 9536 0119 56070000 		.4byte	.LVL81
 9537 011d 0100     		.2byte	0x1
 9538 011f 53       		.byte	0x53
 9539 0120 56070000 		.4byte	.LVL81
 9540 0124 6E070000 		.4byte	.LVL83
 9541 0128 0F00     		.2byte	0xf
 9542 012a 91       		.byte	0x91
 9543 012b F47E     		.sleb128 -140
 9544 012d 06       		.byte	0x6
 9545 012e 3A       		.byte	0x3a
 9546 012f 14       		.byte	0x14
 9547 0130 14       		.byte	0x14
 9548 0131 24       		.byte	0x24
 9549 0132 17       		.byte	0x17
 9550 0133 1F       		.byte	0x1f
 9551 0134 23       		.byte	0x23
 9552 0135 20       		.uleb128 0x20
 9553 0136 25       		.byte	0x25
 9554 0137 21       		.byte	0x21
 9555 0138 9F       		.byte	0x9f
 9556 0139 6E070000 		.4byte	.LVL83
 9557 013d 7C070000 		.4byte	.LVL85
 9558 0141 1000     		.2byte	0x10
 9559 0143 77       		.byte	0x77
 9560 0144 00       		.sleb128 0
 9561 0145 20       		.byte	0x20
 9562 0146 7E       		.byte	0x7e
 9563 0147 00       		.sleb128 0
 9564 0148 1A       		.byte	0x1a
 9565 0149 77       		.byte	0x77
 9566 014a 00       		.sleb128 0
 9567 014b 70       		.byte	0x70
 9568 014c 00       		.sleb128 0
 9569 014d 1A       		.byte	0x1a
 9570 014e 21       		.byte	0x21
 9571 014f 71       		.byte	0x71
 9572 0150 00       		.sleb128 0
 9573 0151 22       		.byte	0x22
 9574 0152 9F       		.byte	0x9f
 9575 0153 7C070000 		.4byte	.LVL85
 9576 0157 A6080000 		.4byte	.LVL118
 9577 015b 0100     		.2byte	0x1
 9578 015d 56       		.byte	0x56
 9579 015e B8080000 		.4byte	.LVL120
 9580 0162 DA080000 		.4byte	.LVL122
ARM GAS  C:\Users\jo\AppData\Local\Temp\ccdgtuym.s 			page 170


 9581 0166 1000     		.2byte	0x10
 9582 0168 7E       		.byte	0x7e
 9583 0169 00       		.sleb128 0
 9584 016a 20       		.byte	0x20
 9585 016b 79       		.byte	0x79
 9586 016c 00       		.sleb128 0
 9587 016d 1A       		.byte	0x1a
 9588 016e 7E       		.byte	0x7e
 9589 016f 00       		.sleb128 0
 9590 0170 7C       		.byte	0x7c
 9591 0171 00       		.sleb128 0
 9592 0172 1A       		.byte	0x1a
 9593 0173 21       		.byte	0x21
 9594 0174 76       		.byte	0x76
 9595 0175 00       		.sleb128 0
 9596 0176 22       		.byte	0x22
 9597 0177 9F       		.byte	0x9f
 9598 0178 DA080000 		.4byte	.LVL122
 9599 017c 140A0000 		.4byte	.LVL156
 9600 0180 0100     		.2byte	0x1
 9601 0182 5A       		.byte	0x5a
 9602 0183 140A0000 		.4byte	.LVL156
 9603 0187 1A0A0000 		.4byte	.LVL157
 9604 018b 1200     		.2byte	0x12
 9605 018d 70       		.byte	0x70
 9606 018e 00       		.sleb128 0
 9607 018f 20       		.byte	0x20
 9608 0190 91       		.byte	0x91
 9609 0191 F47E     		.sleb128 -140
 9610 0193 06       		.byte	0x6
 9611 0194 1A       		.byte	0x1a
 9612 0195 70       		.byte	0x70
 9613 0196 00       		.sleb128 0
 9614 0197 79       		.byte	0x79
 9615 0198 00       		.sleb128 0
 9616 0199 1A       		.byte	0x1a
 9617 019a 21       		.byte	0x21
 9618 019b 7C       		.byte	0x7c
 9619 019c 00       		.sleb128 0
 9620 019d 22       		.byte	0x22
 9621 019e 9F       		.byte	0x9f
 9622 019f 1A0A0000 		.4byte	.LVL157
 9623 01a3 560B0000 		.4byte	.LVL189
 9624 01a7 0100     		.2byte	0x1
 9625 01a9 5C       		.byte	0x5c
 9626 01aa 620B0000 		.4byte	.LVL190
 9627 01ae 700B0000 		.4byte	.LVL191
 9628 01b2 0D00     		.2byte	0xd
 9629 01b4 7A       		.byte	0x7a
 9630 01b5 00       		.sleb128 0
 9631 01b6 20       		.byte	0x20
 9632 01b7 77       		.byte	0x77
 9633 01b8 00       		.sleb128 0
 9634 01b9 21       		.byte	0x21
 9635 01ba 79       		.byte	0x79
 9636 01bb 00       		.sleb128 0
 9637 01bc 27       		.byte	0x27
ARM GAS  C:\Users\jo\AppData\Local\Temp\ccdgtuym.s 			page 171


 9638 01bd 7C       		.byte	0x7c
 9639 01be 00       		.sleb128 0
 9640 01bf 22       		.byte	0x22
 9641 01c0 9F       		.byte	0x9f
 9642 01c1 700B0000 		.4byte	.LVL191
 9643 01c5 7A0C0000 		.4byte	.LVL219
 9644 01c9 0100     		.2byte	0x1
 9645 01cb 5C       		.byte	0x5c
 9646 01cc 7A0C0000 		.4byte	.LVL219
 9647 01d0 860C0000 		.4byte	.LVL221
 9648 01d4 0D00     		.2byte	0xd
 9649 01d6 7E       		.byte	0x7e
 9650 01d7 00       		.sleb128 0
 9651 01d8 20       		.byte	0x20
 9652 01d9 77       		.byte	0x77
 9653 01da 00       		.sleb128 0
 9654 01db 21       		.byte	0x21
 9655 01dc 75       		.byte	0x75
 9656 01dd 00       		.sleb128 0
 9657 01de 27       		.byte	0x27
 9658 01df 7C       		.byte	0x7c
 9659 01e0 00       		.sleb128 0
 9660 01e1 22       		.byte	0x22
 9661 01e2 9F       		.byte	0x9f
 9662 01e3 860C0000 		.4byte	.LVL221
 9663 01e7 900C0000 		.4byte	.LVL222
 9664 01eb 0F00     		.2byte	0xf
 9665 01ed 7E       		.byte	0x7e
 9666 01ee 00       		.sleb128 0
 9667 01ef 20       		.byte	0x20
 9668 01f0 77       		.byte	0x77
 9669 01f1 00       		.sleb128 0
 9670 01f2 21       		.byte	0x21
 9671 01f3 91       		.byte	0x91
 9672 01f4 F47E     		.sleb128 -140
 9673 01f6 06       		.byte	0x6
 9674 01f7 27       		.byte	0x27
 9675 01f8 7C       		.byte	0x7c
 9676 01f9 00       		.sleb128 0
 9677 01fa 22       		.byte	0x22
 9678 01fb 9F       		.byte	0x9f
 9679 01fc 900C0000 		.4byte	.LVL222
 9680 0200 A00D0000 		.4byte	.LVL250
 9681 0204 0100     		.2byte	0x1
 9682 0206 5C       		.byte	0x5c
 9683 0207 A00D0000 		.4byte	.LVL250
 9684 020b A80D0000 		.4byte	.LVL252
 9685 020f 0D00     		.2byte	0xd
 9686 0211 7E       		.byte	0x7e
 9687 0212 00       		.sleb128 0
 9688 0213 20       		.byte	0x20
 9689 0214 77       		.byte	0x77
 9690 0215 00       		.sleb128 0
 9691 0216 21       		.byte	0x21
 9692 0217 75       		.byte	0x75
 9693 0218 00       		.sleb128 0
 9694 0219 27       		.byte	0x27
ARM GAS  C:\Users\jo\AppData\Local\Temp\ccdgtuym.s 			page 172


 9695 021a 7C       		.byte	0x7c
 9696 021b 00       		.sleb128 0
 9697 021c 22       		.byte	0x22
 9698 021d 9F       		.byte	0x9f
 9699 021e A80D0000 		.4byte	.LVL252
 9700 0222 F80E0000 		.4byte	.LVL279
 9701 0226 0100     		.2byte	0x1
 9702 0228 5C       		.byte	0x5c
 9703 0229 060F0000 		.4byte	.LVL281
 9704 022d 400F0000 		.4byte	.LVL284
 9705 0231 1000     		.2byte	0x10
 9706 0233 77       		.byte	0x77
 9707 0234 00       		.sleb128 0
 9708 0235 75       		.byte	0x75
 9709 0236 00       		.sleb128 0
 9710 0237 1A       		.byte	0x1a
 9711 0238 75       		.byte	0x75
 9712 0239 00       		.sleb128 0
 9713 023a 20       		.byte	0x20
 9714 023b 7E       		.byte	0x7e
 9715 023c 00       		.sleb128 0
 9716 023d 1A       		.byte	0x1a
 9717 023e 21       		.byte	0x21
 9718 023f 7C       		.byte	0x7c
 9719 0240 00       		.sleb128 0
 9720 0241 22       		.byte	0x22
 9721 0242 9F       		.byte	0x9f
 9722 0243 400F0000 		.4byte	.LVL284
 9723 0247 72100000 		.4byte	.LVL312
 9724 024b 0100     		.2byte	0x1
 9725 024d 5C       		.byte	0x5c
 9726 024e 7A100000 		.4byte	.LVL313
 9727 0252 AA100000 		.4byte	.LVL316
 9728 0256 1000     		.2byte	0x10
 9729 0258 77       		.byte	0x77
 9730 0259 00       		.sleb128 0
 9731 025a 75       		.byte	0x75
 9732 025b 00       		.sleb128 0
 9733 025c 1A       		.byte	0x1a
 9734 025d 75       		.byte	0x75
 9735 025e 00       		.sleb128 0
 9736 025f 20       		.byte	0x20
 9737 0260 7E       		.byte	0x7e
 9738 0261 00       		.sleb128 0
 9739 0262 1A       		.byte	0x1a
 9740 0263 21       		.byte	0x21
 9741 0264 7C       		.byte	0x7c
 9742 0265 00       		.sleb128 0
 9743 0266 22       		.byte	0x22
 9744 0267 9F       		.byte	0x9f
 9745 0268 AA100000 		.4byte	.LVL316
 9746 026c C6110000 		.4byte	.LVL342
 9747 0270 0100     		.2byte	0x1
 9748 0272 5C       		.byte	0x5c
 9749 0273 D8110000 		.4byte	.LVL345
 9750 0277 02120000 		.4byte	.LVL348
 9751 027b 1000     		.2byte	0x10
ARM GAS  C:\Users\jo\AppData\Local\Temp\ccdgtuym.s 			page 173


 9752 027d 77       		.byte	0x77
 9753 027e 00       		.sleb128 0
 9754 027f 75       		.byte	0x75
 9755 0280 00       		.sleb128 0
 9756 0281 1A       		.byte	0x1a
 9757 0282 75       		.byte	0x75
 9758 0283 00       		.sleb128 0
 9759 0284 20       		.byte	0x20
 9760 0285 7E       		.byte	0x7e
 9761 0286 00       		.sleb128 0
 9762 0287 1A       		.byte	0x1a
 9763 0288 21       		.byte	0x21
 9764 0289 7C       		.byte	0x7c
 9765 028a 00       		.sleb128 0
 9766 028b 22       		.byte	0x22
 9767 028c 9F       		.byte	0x9f
 9768 028d 02120000 		.4byte	.LVL348
 9769 0291 10130000 		.4byte	.LVL375
 9770 0295 0100     		.2byte	0x1
 9771 0297 5C       		.byte	0x5c
 9772 0298 26130000 		.4byte	.LVL378
 9773 029c 40130000 		.4byte	.LVL379
 9774 02a0 0D00     		.2byte	0xd
 9775 02a2 75       		.byte	0x75
 9776 02a3 00       		.sleb128 0
 9777 02a4 20       		.byte	0x20
 9778 02a5 74       		.byte	0x74
 9779 02a6 00       		.sleb128 0
 9780 02a7 21       		.byte	0x21
 9781 02a8 77       		.byte	0x77
 9782 02a9 00       		.sleb128 0
 9783 02aa 27       		.byte	0x27
 9784 02ab 7C       		.byte	0x7c
 9785 02ac 00       		.sleb128 0
 9786 02ad 22       		.byte	0x22
 9787 02ae 9F       		.byte	0x9f
 9788 02af 42130000 		.4byte	.LVL380
 9789 02b3 A4130000 		.4byte	.LVL393
 9790 02b7 0100     		.2byte	0x1
 9791 02b9 5C       		.byte	0x5c
 9792 02ba C0130000 		.4byte	.LVL396
 9793 02be 3E140000 		.4byte	.LVL412
 9794 02c2 0100     		.2byte	0x1
 9795 02c4 5B       		.byte	0x5b
 9796 02c5 3E140000 		.4byte	.LVL412
 9797 02c9 42140000 		.4byte	.LVL413
 9798 02cd 0D00     		.2byte	0xd
 9799 02cf 75       		.byte	0x75
 9800 02d0 00       		.sleb128 0
 9801 02d1 20       		.byte	0x20
 9802 02d2 7C       		.byte	0x7c
 9803 02d3 00       		.sleb128 0
 9804 02d4 21       		.byte	0x21
 9805 02d5 7A       		.byte	0x7a
 9806 02d6 00       		.sleb128 0
 9807 02d7 27       		.byte	0x27
 9808 02d8 7E       		.byte	0x7e
ARM GAS  C:\Users\jo\AppData\Local\Temp\ccdgtuym.s 			page 174


 9809 02d9 00       		.sleb128 0
 9810 02da 22       		.byte	0x22
 9811 02db 9F       		.byte	0x9f
 9812 02dc 44140000 		.4byte	.LVL414
 9813 02e0 26150000 		.4byte	.LVL443
 9814 02e4 0100     		.2byte	0x1
 9815 02e6 5E       		.byte	0x5e
 9816 02e7 3E150000 		.4byte	.LVL446
 9817 02eb 50150000 		.4byte	.LVL447
 9818 02ef 0100     		.2byte	0x1
 9819 02f1 54       		.byte	0x54
 9820 02f2 66150000 		.4byte	.LVL450
 9821 02f6 20160000 		.4byte	.LVL478
 9822 02fa 0100     		.2byte	0x1
 9823 02fc 54       		.byte	0x54
 9824 02fd 00000000 		.4byte	0
 9825 0301 00000000 		.4byte	0
 9826              	.LLST7:
 9827 0305 58050000 		.4byte	.LVL22
 9828 0309 B8050000 		.4byte	.LVL36
 9829 030d 0100     		.2byte	0x1
 9830 030f 52       		.byte	0x52
 9831 0310 E0050000 		.4byte	.LVL41
 9832 0314 1A070000 		.4byte	.LVL74
 9833 0318 0100     		.2byte	0x1
 9834 031a 52       		.byte	0x52
 9835 031b 2E070000 		.4byte	.LVL76
 9836 031f 48070000 		.4byte	.LVL78
 9837 0323 1000     		.2byte	0x10
 9838 0325 70       		.byte	0x70
 9839 0326 00       		.sleb128 0
 9840 0327 20       		.byte	0x20
 9841 0328 79       		.byte	0x79
 9842 0329 00       		.sleb128 0
 9843 032a 1A       		.byte	0x1a
 9844 032b 70       		.byte	0x70
 9845 032c 00       		.sleb128 0
 9846 032d 7E       		.byte	0x7e
 9847 032e 00       		.sleb128 0
 9848 032f 1A       		.byte	0x1a
 9849 0330 21       		.byte	0x21
 9850 0331 72       		.byte	0x72
 9851 0332 00       		.sleb128 0
 9852 0333 22       		.byte	0x22
 9853 0334 9F       		.byte	0x9f
 9854 0335 48070000 		.4byte	.LVL78
 9855 0339 68080000 		.4byte	.LVL111
 9856 033d 0100     		.2byte	0x1
 9857 033f 57       		.byte	0x57
 9858 0340 78080000 		.4byte	.LVL114
 9859 0344 9A080000 		.4byte	.LVL116
 9860 0348 1000     		.2byte	0x10
 9861 034a 7C       		.byte	0x7c
 9862 034b 00       		.sleb128 0
 9863 034c 20       		.byte	0x20
 9864 034d 71       		.byte	0x71
 9865 034e 00       		.sleb128 0
ARM GAS  C:\Users\jo\AppData\Local\Temp\ccdgtuym.s 			page 175


 9866 034f 1A       		.byte	0x1a
 9867 0350 7C       		.byte	0x7c
 9868 0351 00       		.sleb128 0
 9869 0352 79       		.byte	0x79
 9870 0353 00       		.sleb128 0
 9871 0354 1A       		.byte	0x1a
 9872 0355 21       		.byte	0x21
 9873 0356 77       		.byte	0x77
 9874 0357 00       		.sleb128 0
 9875 0358 22       		.byte	0x22
 9876 0359 9F       		.byte	0x9f
 9877 035a 9A080000 		.4byte	.LVL116
 9878 035e CC090000 		.4byte	.LVL149
 9879 0362 0100     		.2byte	0x1
 9880 0364 5E       		.byte	0x5e
 9881 0365 CC090000 		.4byte	.LVL149
 9882 0369 E4090000 		.4byte	.LVL151
 9883 036d 1000     		.2byte	0x10
 9884 036f 79       		.byte	0x79
 9885 0370 00       		.sleb128 0
 9886 0371 20       		.byte	0x20
 9887 0372 76       		.byte	0x76
 9888 0373 00       		.sleb128 0
 9889 0374 1A       		.byte	0x1a
 9890 0375 79       		.byte	0x79
 9891 0376 00       		.sleb128 0
 9892 0377 72       		.byte	0x72
 9893 0378 00       		.sleb128 0
 9894 0379 1A       		.byte	0x1a
 9895 037a 21       		.byte	0x21
 9896 037b 7E       		.byte	0x7e
 9897 037c 00       		.sleb128 0
 9898 037d 22       		.byte	0x22
 9899 037e 9F       		.byte	0x9f
 9900 037f EC090000 		.4byte	.LVL152
 9901 0383 200B0000 		.4byte	.LVL182
 9902 0387 0100     		.2byte	0x1
 9903 0389 50       		.byte	0x50
 9904 038a 240B0000 		.4byte	.LVL183
 9905 038e 2C0B0000 		.4byte	.LVL184
 9906 0392 0D00     		.2byte	0xd
 9907 0394 79       		.byte	0x79
 9908 0395 00       		.sleb128 0
 9909 0396 20       		.byte	0x20
 9910 0397 7A       		.byte	0x7a
 9911 0398 00       		.sleb128 0
 9912 0399 21       		.byte	0x21
 9913 039a 73       		.byte	0x73
 9914 039b 00       		.sleb128 0
 9915 039c 27       		.byte	0x27
 9916 039d 70       		.byte	0x70
 9917 039e 00       		.sleb128 0
 9918 039f 22       		.byte	0x22
 9919 03a0 9F       		.byte	0x9f
 9920 03a1 2C0B0000 		.4byte	.LVL184
 9921 03a5 360B0000 		.4byte	.LVL186
 9922 03a9 0100     		.2byte	0x1
ARM GAS  C:\Users\jo\AppData\Local\Temp\ccdgtuym.s 			page 176


 9923 03ab 50       		.byte	0x50
 9924 03ac 360B0000 		.4byte	.LVL186
 9925 03b0 3A0C0000 		.4byte	.LVL211
 9926 03b4 0100     		.2byte	0x1
 9927 03b6 57       		.byte	0x57
 9928 03b7 660C0000 		.4byte	.LVL216
 9929 03bb 640D0000 		.4byte	.LVL244
 9930 03bf 0100     		.2byte	0x1
 9931 03c1 57       		.byte	0x57
 9932 03c2 640D0000 		.4byte	.LVL244
 9933 03c6 7A0D0000 		.4byte	.LVL246
 9934 03ca 0F00     		.2byte	0xf
 9935 03cc 75       		.byte	0x75
 9936 03cd 00       		.sleb128 0
 9937 03ce 20       		.byte	0x20
 9938 03cf 7E       		.byte	0x7e
 9939 03d0 00       		.sleb128 0
 9940 03d1 21       		.byte	0x21
 9941 03d2 91       		.byte	0x91
 9942 03d3 F47E     		.sleb128 -140
 9943 03d5 06       		.byte	0x6
 9944 03d6 27       		.byte	0x27
 9945 03d7 77       		.byte	0x77
 9946 03d8 00       		.sleb128 0
 9947 03d9 22       		.byte	0x22
 9948 03da 9F       		.byte	0x9f
 9949 03db 7A0D0000 		.4byte	.LVL246
 9950 03df B20E0000 		.4byte	.LVL273
 9951 03e3 0100     		.2byte	0x1
 9952 03e5 57       		.byte	0x57
 9953 03e6 BA0E0000 		.4byte	.LVL274
 9954 03ea EA0E0000 		.4byte	.LVL276
 9955 03ee 1000     		.2byte	0x10
 9956 03f0 7E       		.byte	0x7e
 9957 03f1 00       		.sleb128 0
 9958 03f2 76       		.byte	0x76
 9959 03f3 00       		.sleb128 0
 9960 03f4 1A       		.byte	0x1a
 9961 03f5 76       		.byte	0x76
 9962 03f6 00       		.sleb128 0
 9963 03f7 20       		.byte	0x20
 9964 03f8 75       		.byte	0x75
 9965 03f9 00       		.sleb128 0
 9966 03fa 1A       		.byte	0x1a
 9967 03fb 21       		.byte	0x21
 9968 03fc 77       		.byte	0x77
 9969 03fd 00       		.sleb128 0
 9970 03fe 22       		.byte	0x22
 9971 03ff 9F       		.byte	0x9f
 9972 0400 EA0E0000 		.4byte	.LVL276
 9973 0404 1C100000 		.4byte	.LVL303
 9974 0408 0100     		.2byte	0x1
 9975 040a 57       		.byte	0x57
 9976 040b 32100000 		.4byte	.LVL306
 9977 040f 64100000 		.4byte	.LVL309
 9978 0413 1200     		.2byte	0x12
 9979 0415 7E       		.byte	0x7e
ARM GAS  C:\Users\jo\AppData\Local\Temp\ccdgtuym.s 			page 177


 9980 0416 00       		.sleb128 0
 9981 0417 76       		.byte	0x76
 9982 0418 00       		.sleb128 0
 9983 0419 1A       		.byte	0x1a
 9984 041a 76       		.byte	0x76
 9985 041b 00       		.sleb128 0
 9986 041c 20       		.byte	0x20
 9987 041d 75       		.byte	0x75
 9988 041e 00       		.sleb128 0
 9989 041f 1A       		.byte	0x1a
 9990 0420 21       		.byte	0x21
 9991 0421 91       		.byte	0x91
 9992 0422 F87E     		.sleb128 -136
 9993 0424 06       		.byte	0x6
 9994 0425 22       		.byte	0x22
 9995 0426 9F       		.byte	0x9f
 9996 0427 64100000 		.4byte	.LVL309
 9997 042b 90110000 		.4byte	.LVL338
 9998 042f 0100     		.2byte	0x1
 9999 0431 57       		.byte	0x57
 10000 0432 9E110000 		.4byte	.LVL339
 10001 0436 BA110000 		.4byte	.LVL340
 10002 043a 1000     		.2byte	0x10
 10003 043c 7E       		.byte	0x7e
 10004 043d 00       		.sleb128 0
 10005 043e 76       		.byte	0x76
 10006 043f 00       		.sleb128 0
 10007 0440 1A       		.byte	0x1a
 10008 0441 76       		.byte	0x76
 10009 0442 00       		.sleb128 0
 10010 0443 20       		.byte	0x20
 10011 0444 75       		.byte	0x75
 10012 0445 00       		.sleb128 0
 10013 0446 1A       		.byte	0x1a
 10014 0447 21       		.byte	0x21
 10015 0448 77       		.byte	0x77
 10016 0449 00       		.sleb128 0
 10017 044a 22       		.byte	0x22
 10018 044b 9F       		.byte	0x9f
 10019 044c BA110000 		.4byte	.LVL340
 10020 0450 FE120000 		.4byte	.LVL372
 10021 0454 0100     		.2byte	0x1
 10022 0456 57       		.byte	0x57
 10023 0457 FE120000 		.4byte	.LVL372
 10024 045b 0A130000 		.4byte	.LVL373
 10025 045f 0F00     		.2byte	0xf
 10026 0461 76       		.byte	0x76
 10027 0462 00       		.sleb128 0
 10028 0463 20       		.byte	0x20
 10029 0464 91       		.byte	0x91
 10030 0465 FC7E     		.sleb128 -132
 10031 0467 06       		.byte	0x6
 10032 0468 21       		.byte	0x21
 10033 0469 74       		.byte	0x74
 10034 046a 00       		.sleb128 0
 10035 046b 27       		.byte	0x27
 10036 046c 77       		.byte	0x77
ARM GAS  C:\Users\jo\AppData\Local\Temp\ccdgtuym.s 			page 178


 10037 046d 00       		.sleb128 0
 10038 046e 22       		.byte	0x22
 10039 046f 9F       		.byte	0x9f
 10040 0470 0A130000 		.4byte	.LVL373
 10041 0474 0E130000 		.4byte	.LVL374
 10042 0478 0100     		.2byte	0x1
 10043 047a 57       		.byte	0x57
 10044 047b 26130000 		.4byte	.LVL378
 10045 047f FC130000 		.4byte	.LVL404
 10046 0483 0100     		.2byte	0x1
 10047 0485 57       		.byte	0x57
 10048 0486 FC130000 		.4byte	.LVL404
 10049 048a 00140000 		.4byte	.LVL405
 10050 048e 0D00     		.2byte	0xd
 10051 0490 73       		.byte	0x73
 10052 0491 00       		.sleb128 0
 10053 0492 20       		.byte	0x20
 10054 0493 75       		.byte	0x75
 10055 0494 00       		.sleb128 0
 10056 0495 21       		.byte	0x21
 10057 0496 7C       		.byte	0x7c
 10058 0497 00       		.sleb128 0
 10059 0498 27       		.byte	0x27
 10060 0499 77       		.byte	0x77
 10061 049a 00       		.sleb128 0
 10062 049b 22       		.byte	0x22
 10063 049c 9F       		.byte	0x9f
 10064 049d 06140000 		.4byte	.LVL406
 10065 04a1 10140000 		.4byte	.LVL408
 10066 04a5 0100     		.2byte	0x1
 10067 04a7 57       		.byte	0x57
 10068 04a8 10140000 		.4byte	.LVL408
 10069 04ac 6C140000 		.4byte	.LVL421
 10070 04b0 0100     		.2byte	0x1
 10071 04b2 5A       		.byte	0x5a
 10072 04b3 7A140000 		.4byte	.LVL422
 10073 04b7 DE140000 		.4byte	.LVL435
 10074 04bb 0100     		.2byte	0x1
 10075 04bd 54       		.byte	0x54
 10076 04be EE140000 		.4byte	.LVL438
 10077 04c2 18150000 		.4byte	.LVL439
 10078 04c6 0D00     		.2byte	0xd
 10079 04c8 7B       		.byte	0x7b
 10080 04c9 00       		.sleb128 0
 10081 04ca 20       		.byte	0x20
 10082 04cb 78       		.byte	0x78
 10083 04cc 00       		.sleb128 0
 10084 04cd 21       		.byte	0x21
 10085 04ce 7C       		.byte	0x7c
 10086 04cf 00       		.sleb128 0
 10087 04d0 27       		.byte	0x27
 10088 04d1 75       		.byte	0x75
 10089 04d2 00       		.sleb128 0
 10090 04d3 22       		.byte	0x22
 10091 04d4 9F       		.byte	0x9f
 10092 04d5 1A150000 		.4byte	.LVL440
 10093 04d9 22150000 		.4byte	.LVL441
ARM GAS  C:\Users\jo\AppData\Local\Temp\ccdgtuym.s 			page 179


 10094 04dd 0100     		.2byte	0x1
 10095 04df 55       		.byte	0x55
 10096 04e0 24150000 		.4byte	.LVL442
 10097 04e4 EC150000 		.4byte	.LVL467
 10098 04e8 0100     		.2byte	0x1
 10099 04ea 55       		.byte	0x55
 10100 04eb FE150000 		.4byte	.LVL470
 10101 04ef 06160000 		.4byte	.LVL472
 10102 04f3 1A00     		.2byte	0x1a
 10103 04f5 7B       		.byte	0x7b
 10104 04f6 00       		.sleb128 0
 10105 04f7 20       		.byte	0x20
 10106 04f8 78       		.byte	0x78
 10107 04f9 00       		.sleb128 0
 10108 04fa 21       		.byte	0x21
 10109 04fb 7C       		.byte	0x7c
 10110 04fc 00       		.sleb128 0
 10111 04fd 27       		.byte	0x27
 10112 04fe 75       		.byte	0x75
 10113 04ff 00       		.sleb128 0
 10114 0500 22       		.byte	0x22
 10115 0501 36       		.byte	0x36
 10116 0502 14       		.byte	0x14
 10117 0503 14       		.byte	0x14
 10118 0504 24       		.byte	0x24
 10119 0505 17       		.byte	0x17
 10120 0506 1F       		.byte	0x1f
 10121 0507 23       		.byte	0x23
 10122 0508 20       		.uleb128 0x20
 10123 0509 25       		.byte	0x25
 10124 050a 21       		.byte	0x21
 10125 050b 74       		.byte	0x74
 10126 050c 00       		.sleb128 0
 10127 050d 22       		.byte	0x22
 10128 050e 9F       		.byte	0x9f
 10129 050f 06160000 		.4byte	.LVL472
 10130 0513 0E160000 		.4byte	.LVL474
 10131 0517 1600     		.2byte	0x16
 10132 0519 73       		.byte	0x73
 10133 051a 00       		.sleb128 0
 10134 051b 7C       		.byte	0x7c
 10135 051c 00       		.sleb128 0
 10136 051d 27       		.byte	0x27
 10137 051e 75       		.byte	0x75
 10138 051f 00       		.sleb128 0
 10139 0520 22       		.byte	0x22
 10140 0521 36       		.byte	0x36
 10141 0522 14       		.byte	0x14
 10142 0523 14       		.byte	0x14
 10143 0524 24       		.byte	0x24
 10144 0525 17       		.byte	0x17
 10145 0526 1F       		.byte	0x1f
 10146 0527 23       		.byte	0x23
 10147 0528 20       		.uleb128 0x20
 10148 0529 25       		.byte	0x25
 10149 052a 21       		.byte	0x21
 10150 052b 74       		.byte	0x74
ARM GAS  C:\Users\jo\AppData\Local\Temp\ccdgtuym.s 			page 180


 10151 052c 00       		.sleb128 0
 10152 052d 22       		.byte	0x22
 10153 052e 9F       		.byte	0x9f
 10154 052f 0E160000 		.4byte	.LVL474
 10155 0533 14160000 		.4byte	.LVL476
 10156 0537 1A00     		.2byte	0x1a
 10157 0539 7B       		.byte	0x7b
 10158 053a 00       		.sleb128 0
 10159 053b 20       		.byte	0x20
 10160 053c 78       		.byte	0x78
 10161 053d 00       		.sleb128 0
 10162 053e 21       		.byte	0x21
 10163 053f 7C       		.byte	0x7c
 10164 0540 00       		.sleb128 0
 10165 0541 27       		.byte	0x27
 10166 0542 75       		.byte	0x75
 10167 0543 00       		.sleb128 0
 10168 0544 22       		.byte	0x22
 10169 0545 36       		.byte	0x36
 10170 0546 14       		.byte	0x14
 10171 0547 14       		.byte	0x14
 10172 0548 24       		.byte	0x24
 10173 0549 17       		.byte	0x17
 10174 054a 1F       		.byte	0x1f
 10175 054b 23       		.byte	0x23
 10176 054c 20       		.uleb128 0x20
 10177 054d 25       		.byte	0x25
 10178 054e 21       		.byte	0x21
 10179 054f 74       		.byte	0x74
 10180 0550 00       		.sleb128 0
 10181 0551 22       		.byte	0x22
 10182 0552 9F       		.byte	0x9f
 10183 0553 00000000 		.4byte	0
 10184 0557 00000000 		.4byte	0
 10185              	.LLST8:
 10186 055b 58050000 		.4byte	.LVL22
 10187 055f 86050000 		.4byte	.LVL30
 10188 0563 0100     		.2byte	0x1
 10189 0565 51       		.byte	0x51
 10190 0566 B6050000 		.4byte	.LVL35
 10191 056a D4060000 		.4byte	.LVL67
 10192 056e 0100     		.2byte	0x1
 10193 0570 51       		.byte	0x51
 10194 0571 E4060000 		.4byte	.LVL69
 10195 0575 F8060000 		.4byte	.LVL71
 10196 0579 1000     		.2byte	0x10
 10197 057b 7E       		.byte	0x7e
 10198 057c 00       		.sleb128 0
 10199 057d 20       		.byte	0x20
 10200 057e 73       		.byte	0x73
 10201 057f 00       		.sleb128 0
 10202 0580 1A       		.byte	0x1a
 10203 0581 7E       		.byte	0x7e
 10204 0582 00       		.sleb128 0
 10205 0583 79       		.byte	0x79
 10206 0584 00       		.sleb128 0
 10207 0585 1A       		.byte	0x1a
ARM GAS  C:\Users\jo\AppData\Local\Temp\ccdgtuym.s 			page 181


 10208 0586 21       		.byte	0x21
 10209 0587 71       		.byte	0x71
 10210 0588 00       		.sleb128 0
 10211 0589 22       		.byte	0x22
 10212 058a 9F       		.byte	0x9f
 10213 058b F8060000 		.4byte	.LVL71
 10214 058f 24080000 		.4byte	.LVL105
 10215 0593 0100     		.2byte	0x1
 10216 0595 50       		.byte	0x50
 10217 0596 42080000 		.4byte	.LVL108
 10218 059a 50080000 		.4byte	.LVL109
 10219 059e 1000     		.2byte	0x10
 10220 05a0 79       		.byte	0x79
 10221 05a1 00       		.sleb128 0
 10222 05a2 20       		.byte	0x20
 10223 05a3 76       		.byte	0x76
 10224 05a4 00       		.sleb128 0
 10225 05a5 1A       		.byte	0x1a
 10226 05a6 79       		.byte	0x79
 10227 05a7 00       		.sleb128 0
 10228 05a8 71       		.byte	0x71
 10229 05a9 00       		.sleb128 0
 10230 05aa 1A       		.byte	0x1a
 10231 05ab 21       		.byte	0x21
 10232 05ac 7A       		.byte	0x7a
 10233 05ad 00       		.sleb128 0
 10234 05ae 22       		.byte	0x22
 10235 05af 9F       		.byte	0x9f
 10236 05b0 50080000 		.4byte	.LVL109
 10237 05b4 72090000 		.4byte	.LVL139
 10238 05b8 0100     		.2byte	0x1
 10239 05ba 5C       		.byte	0x5c
 10240 05bb 82090000 		.4byte	.LVL141
 10241 05bf 90090000 		.4byte	.LVL143
 10242 05c3 1000     		.2byte	0x10
 10243 05c5 72       		.byte	0x72
 10244 05c6 00       		.sleb128 0
 10245 05c7 20       		.byte	0x20
 10246 05c8 7A       		.byte	0x7a
 10247 05c9 00       		.sleb128 0
 10248 05ca 1A       		.byte	0x1a
 10249 05cb 72       		.byte	0x72
 10250 05cc 00       		.sleb128 0
 10251 05cd 73       		.byte	0x73
 10252 05ce 00       		.sleb128 0
 10253 05cf 1A       		.byte	0x1a
 10254 05d0 21       		.byte	0x21
 10255 05d1 7C       		.byte	0x7c
 10256 05d2 00       		.sleb128 0
 10257 05d3 22       		.byte	0x22
 10258 05d4 9F       		.byte	0x9f
 10259 05d5 96090000 		.4byte	.LVL144
 10260 05d9 280A0000 		.4byte	.LVL160
 10261 05dd 0100     		.2byte	0x1
 10262 05df 59       		.byte	0x59
 10263 05e0 2E0A0000 		.4byte	.LVL161
 10264 05e4 4C0A0000 		.4byte	.LVL162
ARM GAS  C:\Users\jo\AppData\Local\Temp\ccdgtuym.s 			page 182


 10265 05e8 0100     		.2byte	0x1
 10266 05ea 52       		.byte	0x52
 10267 05eb 4C0A0000 		.4byte	.LVL162
 10268 05ef F40A0000 		.4byte	.LVL177
 10269 05f3 0300     		.2byte	0x3
 10270 05f5 91       		.byte	0x91
 10271 05f6 F87E     		.sleb128 -136
 10272 05f8 F40A0000 		.4byte	.LVL177
 10273 05fc 020B0000 		.4byte	.LVL178
 10274 0600 0D00     		.2byte	0xd
 10275 0602 73       		.byte	0x73
 10276 0603 00       		.sleb128 0
 10277 0604 20       		.byte	0x20
 10278 0605 79       		.byte	0x79
 10279 0606 00       		.sleb128 0
 10280 0607 21       		.byte	0x21
 10281 0608 7C       		.byte	0x7c
 10282 0609 00       		.sleb128 0
 10283 060a 27       		.byte	0x27
 10284 060b 7A       		.byte	0x7a
 10285 060c 00       		.sleb128 0
 10286 060d 22       		.byte	0x22
 10287 060e 9F       		.byte	0x9f
 10288 060f 020B0000 		.4byte	.LVL178
 10289 0613 100C0000 		.4byte	.LVL206
 10290 0617 0100     		.2byte	0x1
 10291 0619 5A       		.byte	0x5a
 10292 061a 100C0000 		.4byte	.LVL206
 10293 061e 180C0000 		.4byte	.LVL208
 10294 0622 0D00     		.2byte	0xd
 10295 0624 76       		.byte	0x76
 10296 0625 00       		.sleb128 0
 10297 0626 20       		.byte	0x20
 10298 0627 75       		.byte	0x75
 10299 0628 00       		.sleb128 0
 10300 0629 21       		.byte	0x21
 10301 062a 7C       		.byte	0x7c
 10302 062b 00       		.sleb128 0
 10303 062c 27       		.byte	0x27
 10304 062d 7A       		.byte	0x7a
 10305 062e 00       		.sleb128 0
 10306 062f 22       		.byte	0x22
 10307 0630 9F       		.byte	0x9f
 10308 0631 180C0000 		.4byte	.LVL208
 10309 0635 220C0000 		.4byte	.LVL209
 10310 0639 0100     		.2byte	0x1
 10311 063b 5A       		.byte	0x5a
 10312 063c 220C0000 		.4byte	.LVL209
 10313 0640 260D0000 		.4byte	.LVL238
 10314 0644 0100     		.2byte	0x1
 10315 0646 5E       		.byte	0x5e
 10316 0647 500D0000 		.4byte	.LVL241
 10317 064b 620E0000 		.4byte	.LVL266
 10318 064f 0100     		.2byte	0x1
 10319 0651 5E       		.byte	0x5e
 10320 0652 740E0000 		.4byte	.LVL268
 10321 0656 A40E0000 		.4byte	.LVL270
ARM GAS  C:\Users\jo\AppData\Local\Temp\ccdgtuym.s 			page 183


 10322 065a 1000     		.2byte	0x10
 10323 065c 75       		.byte	0x75
 10324 065d 00       		.sleb128 0
 10325 065e 7C       		.byte	0x7c
 10326 065f 00       		.sleb128 0
 10327 0660 1A       		.byte	0x1a
 10328 0661 7C       		.byte	0x7c
 10329 0662 00       		.sleb128 0
 10330 0663 20       		.byte	0x20
 10331 0664 76       		.byte	0x76
 10332 0665 00       		.sleb128 0
 10333 0666 1A       		.byte	0x1a
 10334 0667 21       		.byte	0x21
 10335 0668 7E       		.byte	0x7e
 10336 0669 00       		.sleb128 0
 10337 066a 22       		.byte	0x22
 10338 066b 9F       		.byte	0x9f
 10339 066c A40E0000 		.4byte	.LVL270
 10340 0670 E20F0000 		.4byte	.LVL298
 10341 0674 0100     		.2byte	0x1
 10342 0676 5E       		.byte	0x5e
 10343 0677 EE0F0000 		.4byte	.LVL299
 10344 067b 14100000 		.4byte	.LVL301
 10345 067f 1000     		.2byte	0x10
 10346 0681 75       		.byte	0x75
 10347 0682 00       		.sleb128 0
 10348 0683 7C       		.byte	0x7c
 10349 0684 00       		.sleb128 0
 10350 0685 1A       		.byte	0x1a
 10351 0686 7C       		.byte	0x7c
 10352 0687 00       		.sleb128 0
 10353 0688 20       		.byte	0x20
 10354 0689 76       		.byte	0x76
 10355 068a 00       		.sleb128 0
 10356 068b 1A       		.byte	0x1a
 10357 068c 21       		.byte	0x21
 10358 068d 7E       		.byte	0x7e
 10359 068e 00       		.sleb128 0
 10360 068f 22       		.byte	0x22
 10361 0690 9F       		.byte	0x9f
 10362 0691 14100000 		.4byte	.LVL301
 10363 0695 4E110000 		.4byte	.LVL331
 10364 0699 0100     		.2byte	0x1
 10365 069b 5E       		.byte	0x5e
 10366 069c 5C110000 		.4byte	.LVL333
 10367 06a0 86110000 		.4byte	.LVL335
 10368 06a4 1000     		.2byte	0x10
 10369 06a6 75       		.byte	0x75
 10370 06a7 00       		.sleb128 0
 10371 06a8 7C       		.byte	0x7c
 10372 06a9 00       		.sleb128 0
 10373 06aa 1A       		.byte	0x1a
 10374 06ab 7C       		.byte	0x7c
 10375 06ac 00       		.sleb128 0
 10376 06ad 20       		.byte	0x20
 10377 06ae 76       		.byte	0x76
 10378 06af 00       		.sleb128 0
ARM GAS  C:\Users\jo\AppData\Local\Temp\ccdgtuym.s 			page 184


 10379 06b0 1A       		.byte	0x1a
 10380 06b1 21       		.byte	0x21
 10381 06b2 7E       		.byte	0x7e
 10382 06b3 00       		.sleb128 0
 10383 06b4 22       		.byte	0x22
 10384 06b5 9F       		.byte	0x9f
 10385 06b6 86110000 		.4byte	.LVL335
 10386 06ba AE120000 		.4byte	.LVL367
 10387 06be 0100     		.2byte	0x1
 10388 06c0 5E       		.byte	0x5e
 10389 06c1 AE120000 		.4byte	.LVL367
 10390 06c5 B2120000 		.4byte	.LVL368
 10391 06c9 1400     		.2byte	0x14
 10392 06cb 91       		.byte	0x91
 10393 06cc FC7E     		.sleb128 -132
 10394 06ce 06       		.byte	0x6
 10395 06cf 7C       		.byte	0x7c
 10396 06d0 00       		.sleb128 0
 10397 06d1 1A       		.byte	0x1a
 10398 06d2 7C       		.byte	0x7c
 10399 06d3 00       		.sleb128 0
 10400 06d4 20       		.byte	0x20
 10401 06d5 91       		.byte	0x91
 10402 06d6 F87E     		.sleb128 -136
 10403 06d8 06       		.byte	0x6
 10404 06d9 1A       		.byte	0x1a
 10405 06da 21       		.byte	0x21
 10406 06db 73       		.byte	0x73
 10407 06dc 00       		.sleb128 0
 10408 06dd 22       		.byte	0x22
 10409 06de 9F       		.byte	0x9f
 10410 06df B2120000 		.4byte	.LVL368
 10411 06e3 40130000 		.4byte	.LVL379
 10412 06e7 0100     		.2byte	0x1
 10413 06e9 54       		.byte	0x54
 10414 06ea 4A130000 		.4byte	.LVL381
 10415 06ee D4130000 		.4byte	.LVL398
 10416 06f2 0100     		.2byte	0x1
 10417 06f4 54       		.byte	0x54
 10418 06f5 D4130000 		.4byte	.LVL398
 10419 06f9 D6130000 		.4byte	.LVL399
 10420 06fd 0D00     		.2byte	0xd
 10421 06ff 7B       		.byte	0x7b
 10422 0700 00       		.sleb128 0
 10423 0701 20       		.byte	0x20
 10424 0702 76       		.byte	0x76
 10425 0703 00       		.sleb128 0
 10426 0704 21       		.byte	0x21
 10427 0705 75       		.byte	0x75
 10428 0706 00       		.sleb128 0
 10429 0707 27       		.byte	0x27
 10430 0708 74       		.byte	0x74
 10431 0709 00       		.sleb128 0
 10432 070a 22       		.byte	0x22
 10433 070b 9F       		.byte	0x9f
 10434 070c DE130000 		.4byte	.LVL400
 10435 0710 E2130000 		.4byte	.LVL401
ARM GAS  C:\Users\jo\AppData\Local\Temp\ccdgtuym.s 			page 185


 10436 0714 0100     		.2byte	0x1
 10437 0716 54       		.byte	0x54
 10438 0717 E2130000 		.4byte	.LVL401
 10439 071b 42140000 		.4byte	.LVL413
 10440 071f 0100     		.2byte	0x1
 10441 0721 5C       		.byte	0x5c
 10442 0722 4A140000 		.4byte	.LVL415
 10443 0726 CE140000 		.4byte	.LVL432
 10444 072a 0100     		.2byte	0x1
 10445 072c 5C       		.byte	0x5c
 10446 072d CE140000 		.4byte	.LVL432
 10447 0731 D0140000 		.4byte	.LVL433
 10448 0735 0D00     		.2byte	0xd
 10449 0737 7E       		.byte	0x7e
 10450 0738 00       		.sleb128 0
 10451 0739 20       		.byte	0x20
 10452 073a 7B       		.byte	0x7b
 10453 073b 00       		.sleb128 0
 10454 073c 21       		.byte	0x21
 10455 073d 78       		.byte	0x78
 10456 073e 00       		.sleb128 0
 10457 073f 27       		.byte	0x27
 10458 0740 7C       		.byte	0x7c
 10459 0741 00       		.sleb128 0
 10460 0742 22       		.byte	0x22
 10461 0743 9F       		.byte	0x9f
 10462 0744 D0140000 		.4byte	.LVL433
 10463 0748 DA140000 		.4byte	.LVL434
 10464 074c 0100     		.2byte	0x1
 10465 074e 5C       		.byte	0x5c
 10466 074f EA140000 		.4byte	.LVL437
 10467 0753 66150000 		.4byte	.LVL450
 10468 0757 0100     		.2byte	0x1
 10469 0759 5C       		.byte	0x5c
 10470 075a 66150000 		.4byte	.LVL450
 10471 075e C4150000 		.4byte	.LVL462
 10472 0762 0100     		.2byte	0x1
 10473 0764 51       		.byte	0x51
 10474 0765 C8150000 		.4byte	.LVL463
 10475 0769 DC150000 		.4byte	.LVL465
 10476 076d 0D00     		.2byte	0xd
 10477 076f 74       		.byte	0x74
 10478 0770 00       		.sleb128 0
 10479 0771 20       		.byte	0x20
 10480 0772 7B       		.byte	0x7b
 10481 0773 00       		.sleb128 0
 10482 0774 21       		.byte	0x21
 10483 0775 78       		.byte	0x78
 10484 0776 00       		.sleb128 0
 10485 0777 27       		.byte	0x27
 10486 0778 7C       		.byte	0x7c
 10487 0779 00       		.sleb128 0
 10488 077a 22       		.byte	0x22
 10489 077b 9F       		.byte	0x9f
 10490 077c DC150000 		.4byte	.LVL465
 10491 0780 EA150000 		.4byte	.LVL466
 10492 0784 0100     		.2byte	0x1
ARM GAS  C:\Users\jo\AppData\Local\Temp\ccdgtuym.s 			page 186


 10493 0786 5C       		.byte	0x5c
 10494 0787 FA150000 		.4byte	.LVL469
 10495 078b FE150000 		.4byte	.LVL470
 10496 078f 0100     		.2byte	0x1
 10497 0791 5C       		.byte	0x5c
 10498 0792 FE150000 		.4byte	.LVL470
 10499 0796 12160000 		.4byte	.LVL475
 10500 079a 1800     		.2byte	0x18
 10501 079c 79       		.byte	0x79
 10502 079d 00       		.sleb128 0
 10503 079e 3A       		.byte	0x3a
 10504 079f 14       		.byte	0x14
 10505 07a0 14       		.byte	0x14
 10506 07a1 24       		.byte	0x24
 10507 07a2 17       		.byte	0x17
 10508 07a3 1F       		.byte	0x1f
 10509 07a4 23       		.byte	0x23
 10510 07a5 20       		.uleb128 0x20
 10511 07a6 25       		.byte	0x25
 10512 07a7 21       		.byte	0x21
 10513 07a8 91       		.byte	0x91
 10514 07a9 E47E     		.sleb128 -156
 10515 07ab 06       		.byte	0x6
 10516 07ac 23       		.byte	0x23
 10517 07ad 0C       		.uleb128 0xc
 10518 07ae 06       		.byte	0x6
 10519 07af 22       		.byte	0x22
 10520 07b0 7C       		.byte	0x7c
 10521 07b1 00       		.sleb128 0
 10522 07b2 22       		.byte	0x22
 10523 07b3 9F       		.byte	0x9f
 10524 07b4 32160000 		.4byte	.LVL481
 10525 07b8 50160000 		.4byte	.LFE4
 10526 07bc 0100     		.2byte	0x1
 10527 07be 52       		.byte	0x52
 10528 07bf 00000000 		.4byte	0
 10529 07c3 00000000 		.4byte	0
 10530              	.LLST9:
 10531 07c7 82050000 		.4byte	.LVL28
 10532 07cb 86060000 		.4byte	.LVL59
 10533 07cf 0100     		.2byte	0x1
 10534 07d1 50       		.byte	0x50
 10535 07d2 A2060000 		.4byte	.LVL62
 10536 07d6 BC060000 		.4byte	.LVL64
 10537 07da 1200     		.2byte	0x12
 10538 07dc 79       		.byte	0x79
 10539 07dd 00       		.sleb128 0
 10540 07de 20       		.byte	0x20
 10541 07df 72       		.byte	0x72
 10542 07e0 00       		.sleb128 0
 10543 07e1 1A       		.byte	0x1a
 10544 07e2 79       		.byte	0x79
 10545 07e3 00       		.sleb128 0
 10546 07e4 91       		.byte	0x91
 10547 07e5 F47E     		.sleb128 -140
 10548 07e7 06       		.byte	0x6
 10549 07e8 1A       		.byte	0x1a
ARM GAS  C:\Users\jo\AppData\Local\Temp\ccdgtuym.s 			page 187


 10550 07e9 21       		.byte	0x21
 10551 07ea 78       		.byte	0x78
 10552 07eb 00       		.sleb128 0
 10553 07ec 22       		.byte	0x22
 10554 07ed 9F       		.byte	0x9f
 10555 07ee BC060000 		.4byte	.LVL64
 10556 07f2 DC070000 		.4byte	.LVL97
 10557 07f6 0100     		.2byte	0x1
 10558 07f8 5E       		.byte	0x5e
 10559 07f9 02080000 		.4byte	.LVL100
 10560 07fd 0E080000 		.4byte	.LVL101
 10561 0801 1000     		.2byte	0x10
 10562 0803 71       		.byte	0x71
 10563 0804 00       		.sleb128 0
 10564 0805 20       		.byte	0x20
 10565 0806 77       		.byte	0x77
 10566 0807 00       		.sleb128 0
 10567 0808 1A       		.byte	0x1a
 10568 0809 71       		.byte	0x71
 10569 080a 00       		.sleb128 0
 10570 080b 76       		.byte	0x76
 10571 080c 00       		.sleb128 0
 10572 080d 1A       		.byte	0x1a
 10573 080e 21       		.byte	0x21
 10574 080f 7B       		.byte	0x7b
 10575 0810 00       		.sleb128 0
 10576 0811 22       		.byte	0x22
 10577 0812 9F       		.byte	0x9f
 10578 0813 0E080000 		.4byte	.LVL101
 10579 0817 2A090000 		.4byte	.LVL132
 10580 081b 0100     		.2byte	0x1
 10581 081d 59       		.byte	0x59
 10582 081e 44090000 		.4byte	.LVL134
 10583 0822 5A090000 		.4byte	.LVL136
 10584 0826 1000     		.2byte	0x10
 10585 0828 73       		.byte	0x73
 10586 0829 00       		.sleb128 0
 10587 082a 20       		.byte	0x20
 10588 082b 7E       		.byte	0x7e
 10589 082c 00       		.sleb128 0
 10590 082d 1A       		.byte	0x1a
 10591 082e 73       		.byte	0x73
 10592 082f 00       		.sleb128 0
 10593 0830 7A       		.byte	0x7a
 10594 0831 00       		.sleb128 0
 10595 0832 1A       		.byte	0x1a
 10596 0833 21       		.byte	0x21
 10597 0834 79       		.byte	0x79
 10598 0835 00       		.sleb128 0
 10599 0836 22       		.byte	0x22
 10600 0837 9F       		.byte	0x9f
 10601 0838 5A090000 		.4byte	.LVL136
 10602 083c E4090000 		.4byte	.LVL151
 10603 0840 0100     		.2byte	0x1
 10604 0842 52       		.byte	0x52
 10605 0843 F0090000 		.4byte	.LVL153
 10606 0847 FA090000 		.4byte	.LVL154
ARM GAS  C:\Users\jo\AppData\Local\Temp\ccdgtuym.s 			page 188


 10607 084b 0100     		.2byte	0x1
 10608 084d 53       		.byte	0x53
 10609 084e FA090000 		.4byte	.LVL154
 10610 0852 A60A0000 		.4byte	.LVL171
 10611 0856 0300     		.2byte	0x3
 10612 0858 91       		.byte	0x91
 10613 0859 F47E     		.sleb128 -140
 10614 085b A60A0000 		.4byte	.LVL171
 10615 085f AE0A0000 		.4byte	.LVL172
 10616 0863 0C00     		.2byte	0xc
 10617 0865 73       		.byte	0x73
 10618 0866 00       		.sleb128 0
 10619 0867 79       		.byte	0x79
 10620 0868 00       		.sleb128 0
 10621 0869 21       		.byte	0x21
 10622 086a 70       		.byte	0x70
 10623 086b 00       		.sleb128 0
 10624 086c 27       		.byte	0x27
 10625 086d 72       		.byte	0x72
 10626 086e 00       		.sleb128 0
 10627 086f 22       		.byte	0x22
 10628 0870 9F       		.byte	0x9f
 10629 0871 AE0A0000 		.4byte	.LVL172
 10630 0875 C00A0000 		.4byte	.LVL174
 10631 0879 0D00     		.2byte	0xd
 10632 087b 7C       		.byte	0x7c
 10633 087c 00       		.sleb128 0
 10634 087d 20       		.byte	0x20
 10635 087e 73       		.byte	0x73
 10636 087f 00       		.sleb128 0
 10637 0880 21       		.byte	0x21
 10638 0881 70       		.byte	0x70
 10639 0882 00       		.sleb128 0
 10640 0883 27       		.byte	0x27
 10641 0884 72       		.byte	0x72
 10642 0885 00       		.sleb128 0
 10643 0886 22       		.byte	0x22
 10644 0887 9F       		.byte	0x9f
 10645 0888 C00A0000 		.4byte	.LVL174
 10646 088c CE0B0000 		.4byte	.LVL200
 10647 0890 0100     		.2byte	0x1
 10648 0892 59       		.byte	0x59
 10649 0893 D20B0000 		.4byte	.LVL201
 10650 0897 D80B0000 		.4byte	.LVL202
 10651 089b 0D00     		.2byte	0xd
 10652 089d 7C       		.byte	0x7c
 10653 089e 00       		.sleb128 0
 10654 089f 20       		.byte	0x20
 10655 08a0 76       		.byte	0x76
 10656 08a1 00       		.sleb128 0
 10657 08a2 21       		.byte	0x21
 10658 08a3 77       		.byte	0x77
 10659 08a4 00       		.sleb128 0
 10660 08a5 27       		.byte	0x27
 10661 08a6 79       		.byte	0x79
 10662 08a7 00       		.sleb128 0
 10663 08a8 22       		.byte	0x22
ARM GAS  C:\Users\jo\AppData\Local\Temp\ccdgtuym.s 			page 189


 10664 08a9 9F       		.byte	0x9f
 10665 08aa D80B0000 		.4byte	.LVL202
 10666 08ae EE0B0000 		.4byte	.LVL203
 10667 08b2 0100     		.2byte	0x1
 10668 08b4 59       		.byte	0x59
 10669 08b5 EE0B0000 		.4byte	.LVL203
 10670 08b9 3E0C0000 		.4byte	.LVL212
 10671 08bd 0100     		.2byte	0x1
 10672 08bf 55       		.byte	0x55
 10673 08c0 040D0000 		.4byte	.LVL234
 10674 08c4 120D0000 		.4byte	.LVL235
 10675 08c8 0D00     		.2byte	0xd
 10676 08ca 7C       		.byte	0x7c
 10677 08cb 00       		.sleb128 0
 10678 08cc 20       		.byte	0x20
 10679 08cd 76       		.byte	0x76
 10680 08ce 00       		.sleb128 0
 10681 08cf 21       		.byte	0x21
 10682 08d0 77       		.byte	0x77
 10683 08d1 00       		.sleb128 0
 10684 08d2 27       		.byte	0x27
 10685 08d3 75       		.byte	0x75
 10686 08d4 00       		.sleb128 0
 10687 08d5 22       		.byte	0x22
 10688 08d6 9F       		.byte	0x9f
 10689 08d7 120D0000 		.4byte	.LVL235
 10690 08db 4E0E0000 		.4byte	.LVL263
 10691 08df 0100     		.2byte	0x1
 10692 08e1 55       		.byte	0x55
 10693 08e2 4E0E0000 		.4byte	.LVL263
 10694 08e6 540E0000 		.4byte	.LVL264
 10695 08ea 0D00     		.2byte	0xd
 10696 08ec 7C       		.byte	0x7c
 10697 08ed 00       		.sleb128 0
 10698 08ee 20       		.byte	0x20
 10699 08ef 76       		.byte	0x76
 10700 08f0 00       		.sleb128 0
 10701 08f1 21       		.byte	0x21
 10702 08f2 77       		.byte	0x77
 10703 08f3 00       		.sleb128 0
 10704 08f4 27       		.byte	0x27
 10705 08f5 75       		.byte	0x75
 10706 08f6 00       		.sleb128 0
 10707 08f7 22       		.byte	0x22
 10708 08f8 9F       		.byte	0x9f
 10709 08f9 540E0000 		.4byte	.LVL264
 10710 08fd 980F0000 		.4byte	.LVL292
 10711 0901 0100     		.2byte	0x1
 10712 0903 55       		.byte	0x55
 10713 0904 9E0F0000 		.4byte	.LVL293
 10714 0908 D40F0000 		.4byte	.LVL295
 10715 090c 1000     		.2byte	0x10
 10716 090e 76       		.byte	0x76
 10717 090f 00       		.sleb128 0
 10718 0910 77       		.byte	0x77
 10719 0911 00       		.sleb128 0
 10720 0912 1A       		.byte	0x1a
ARM GAS  C:\Users\jo\AppData\Local\Temp\ccdgtuym.s 			page 190


 10721 0913 77       		.byte	0x77
 10722 0914 00       		.sleb128 0
 10723 0915 20       		.byte	0x20
 10724 0916 7C       		.byte	0x7c
 10725 0917 00       		.sleb128 0
 10726 0918 1A       		.byte	0x1a
 10727 0919 21       		.byte	0x21
 10728 091a 75       		.byte	0x75
 10729 091b 00       		.sleb128 0
 10730 091c 22       		.byte	0x22
 10731 091d 9F       		.byte	0x9f
 10732 091e D40F0000 		.4byte	.LVL295
 10733 0922 08110000 		.4byte	.LVL326
 10734 0926 0100     		.2byte	0x1
 10735 0928 55       		.byte	0x55
 10736 0929 10110000 		.4byte	.LVL327
 10737 092d 40110000 		.4byte	.LVL328
 10738 0931 1000     		.2byte	0x10
 10739 0933 76       		.byte	0x76
 10740 0934 00       		.sleb128 0
 10741 0935 77       		.byte	0x77
 10742 0936 00       		.sleb128 0
 10743 0937 1A       		.byte	0x1a
 10744 0938 77       		.byte	0x77
 10745 0939 00       		.sleb128 0
 10746 093a 20       		.byte	0x20
 10747 093b 7C       		.byte	0x7c
 10748 093c 00       		.sleb128 0
 10749 093d 1A       		.byte	0x1a
 10750 093e 21       		.byte	0x21
 10751 093f 75       		.byte	0x75
 10752 0940 00       		.sleb128 0
 10753 0941 22       		.byte	0x22
 10754 0942 9F       		.byte	0x9f
 10755 0943 40110000 		.4byte	.LVL328
 10756 0947 66120000 		.4byte	.LVL360
 10757 094b 0100     		.2byte	0x1
 10758 094d 55       		.byte	0x55
 10759 094e 66120000 		.4byte	.LVL360
 10760 0952 7C120000 		.4byte	.LVL361
 10761 0956 1200     		.2byte	0x12
 10762 0958 91       		.byte	0x91
 10763 0959 F87E     		.sleb128 -136
 10764 095b 06       		.byte	0x6
 10765 095c 77       		.byte	0x77
 10766 095d 00       		.sleb128 0
 10767 095e 1A       		.byte	0x1a
 10768 095f 77       		.byte	0x77
 10769 0960 00       		.sleb128 0
 10770 0961 20       		.byte	0x20
 10771 0962 7C       		.byte	0x7c
 10772 0963 00       		.sleb128 0
 10773 0964 1A       		.byte	0x1a
 10774 0965 21       		.byte	0x21
 10775 0966 75       		.byte	0x75
 10776 0967 00       		.sleb128 0
 10777 0968 22       		.byte	0x22
ARM GAS  C:\Users\jo\AppData\Local\Temp\ccdgtuym.s 			page 191


 10778 0969 9F       		.byte	0x9f
 10779 096a 7C120000 		.4byte	.LVL361
 10780 096e 8A120000 		.4byte	.LVL363
 10781 0972 0100     		.2byte	0x1
 10782 0974 55       		.byte	0x55
 10783 0975 8A120000 		.4byte	.LVL363
 10784 0979 8E120000 		.4byte	.LVL364
 10785 097d 0100     		.2byte	0x1
 10786 097f 54       		.byte	0x54
 10787 0980 8E120000 		.4byte	.LVL364
 10788 0984 9E120000 		.4byte	.LVL366
 10789 0988 0100     		.2byte	0x1
 10790 098a 55       		.byte	0x55
 10791 098b 9E120000 		.4byte	.LVL366
 10792 098f 26130000 		.4byte	.LVL378
 10793 0993 0300     		.2byte	0x3
 10794 0995 91       		.byte	0x91
 10795 0996 FC7E     		.sleb128 -132
 10796 0998 26130000 		.4byte	.LVL378
 10797 099c 82130000 		.4byte	.LVL389
 10798 09a0 0100     		.2byte	0x1
 10799 09a2 55       		.byte	0x55
 10800 09a3 82130000 		.4byte	.LVL389
 10801 09a7 90130000 		.4byte	.LVL391
 10802 09ab 0F00     		.2byte	0xf
 10803 09ad 91       		.byte	0x91
 10804 09ae FC7E     		.sleb128 -132
 10805 09b0 06       		.byte	0x6
 10806 09b1 3A       		.byte	0x3a
 10807 09b2 14       		.byte	0x14
 10808 09b3 14       		.byte	0x14
 10809 09b4 24       		.byte	0x24
 10810 09b5 17       		.byte	0x17
 10811 09b6 1F       		.byte	0x1f
 10812 09b7 23       		.byte	0x23
 10813 09b8 20       		.uleb128 0x20
 10814 09b9 25       		.byte	0x25
 10815 09ba 21       		.byte	0x21
 10816 09bb 9F       		.byte	0x9f
 10817 09bc 90130000 		.4byte	.LVL391
 10818 09c0 A4130000 		.4byte	.LVL393
 10819 09c4 0D00     		.2byte	0xd
 10820 09c6 77       		.byte	0x77
 10821 09c7 00       		.sleb128 0
 10822 09c8 20       		.byte	0x20
 10823 09c9 7C       		.byte	0x7c
 10824 09ca 00       		.sleb128 0
 10825 09cb 21       		.byte	0x21
 10826 09cc 76       		.byte	0x76
 10827 09cd 00       		.sleb128 0
 10828 09ce 27       		.byte	0x27
 10829 09cf 75       		.byte	0x75
 10830 09d0 00       		.sleb128 0
 10831 09d1 22       		.byte	0x22
 10832 09d2 9F       		.byte	0x9f
 10833 09d3 BC130000 		.4byte	.LVL395
 10834 09d7 00140000 		.4byte	.LVL405
ARM GAS  C:\Users\jo\AppData\Local\Temp\ccdgtuym.s 			page 192


 10835 09db 0100     		.2byte	0x1
 10836 09dd 55       		.byte	0x55
 10837 09de 10140000 		.4byte	.LVL408
 10838 09e2 82140000 		.4byte	.LVL423
 10839 09e6 0100     		.2byte	0x1
 10840 09e8 55       		.byte	0x55
 10841 09e9 8E140000 		.4byte	.LVL425
 10842 09ed 98140000 		.4byte	.LVL427
 10843 09f1 0D00     		.2byte	0xd
 10844 09f3 74       		.byte	0x74
 10845 09f4 00       		.sleb128 0
 10846 09f5 20       		.byte	0x20
 10847 09f6 7E       		.byte	0x7e
 10848 09f7 00       		.sleb128 0
 10849 09f8 21       		.byte	0x21
 10850 09f9 7B       		.byte	0x7b
 10851 09fa 00       		.sleb128 0
 10852 09fb 27       		.byte	0x27
 10853 09fc 7A       		.byte	0x7a
 10854 09fd 00       		.sleb128 0
 10855 09fe 22       		.byte	0x22
 10856 09ff 9F       		.byte	0x9f
 10857 0a00 98140000 		.4byte	.LVL427
 10858 0a04 A2140000 		.4byte	.LVL428
 10859 0a08 0100     		.2byte	0x1
 10860 0a0a 55       		.byte	0x55
 10861 0a0b A2140000 		.4byte	.LVL428
 10862 0a0f BA140000 		.4byte	.LVL430
 10863 0a13 0D00     		.2byte	0xd
 10864 0a15 74       		.byte	0x74
 10865 0a16 00       		.sleb128 0
 10866 0a17 20       		.byte	0x20
 10867 0a18 7E       		.byte	0x7e
 10868 0a19 00       		.sleb128 0
 10869 0a1a 21       		.byte	0x21
 10870 0a1b 7B       		.byte	0x7b
 10871 0a1c 00       		.sleb128 0
 10872 0a1d 27       		.byte	0x27
 10873 0a1e 7A       		.byte	0x7a
 10874 0a1f 00       		.sleb128 0
 10875 0a20 22       		.byte	0x22
 10876 0a21 9F       		.byte	0x9f
 10877 0a22 BA140000 		.4byte	.LVL430
 10878 0a26 18150000 		.4byte	.LVL439
 10879 0a2a 0100     		.2byte	0x1
 10880 0a2c 58       		.byte	0x58
 10881 0a2d 24150000 		.4byte	.LVL442
 10882 0a31 86150000 		.4byte	.LVL455
 10883 0a35 0100     		.2byte	0x1
 10884 0a37 58       		.byte	0x58
 10885 0a38 94150000 		.4byte	.LVL456
 10886 0a3c A8150000 		.4byte	.LVL458
 10887 0a40 0D00     		.2byte	0xd
 10888 0a42 75       		.byte	0x75
 10889 0a43 00       		.sleb128 0
 10890 0a44 20       		.byte	0x20
 10891 0a45 74       		.byte	0x74
ARM GAS  C:\Users\jo\AppData\Local\Temp\ccdgtuym.s 			page 193


 10892 0a46 00       		.sleb128 0
 10893 0a47 21       		.byte	0x21
 10894 0a48 7B       		.byte	0x7b
 10895 0a49 00       		.sleb128 0
 10896 0a4a 27       		.byte	0x27
 10897 0a4b 78       		.byte	0x78
 10898 0a4c 00       		.sleb128 0
 10899 0a4d 22       		.byte	0x22
 10900 0a4e 9F       		.byte	0x9f
 10901 0a4f A8150000 		.4byte	.LVL458
 10902 0a53 B8150000 		.4byte	.LVL459
 10903 0a57 0100     		.2byte	0x1
 10904 0a59 58       		.byte	0x58
 10905 0a5a BC150000 		.4byte	.LVL460
 10906 0a5e FE150000 		.4byte	.LVL470
 10907 0a62 0100     		.2byte	0x1
 10908 0a64 58       		.byte	0x58
 10909 0a65 FE150000 		.4byte	.LVL470
 10910 0a69 4C160000 		.4byte	.LVL483
 10911 0a6d 0D00     		.2byte	0xd
 10912 0a6f 78       		.byte	0x78
 10913 0a70 00       		.sleb128 0
 10914 0a71 3A       		.byte	0x3a
 10915 0a72 14       		.byte	0x14
 10916 0a73 14       		.byte	0x14
 10917 0a74 24       		.byte	0x24
 10918 0a75 17       		.byte	0x17
 10919 0a76 1F       		.byte	0x1f
 10920 0a77 23       		.byte	0x23
 10921 0a78 20       		.uleb128 0x20
 10922 0a79 25       		.byte	0x25
 10923 0a7a 21       		.byte	0x21
 10924 0a7b 9F       		.byte	0x9f
 10925 0a7c 00000000 		.4byte	0
 10926 0a80 00000000 		.4byte	0
 10927              	.LLST10:
 10928 0a84 58050000 		.4byte	.LVL22
 10929 0a88 A0050000 		.4byte	.LVL31
 10930 0a8c 0100     		.2byte	0x1
 10931 0a8e 54       		.byte	0x54
 10932 0a8f B6050000 		.4byte	.LVL35
 10933 0a93 C8050000 		.4byte	.LVL37
 10934 0a97 0100     		.2byte	0x1
 10935 0a99 53       		.byte	0x53
 10936 0a9a C8050000 		.4byte	.LVL37
 10937 0a9e 6E060000 		.4byte	.LVL56
 10938 0aa2 0300     		.2byte	0x3
 10939 0aa4 91       		.byte	0x91
 10940 0aa5 F87E     		.sleb128 -136
 10941 0aa7 6E060000 		.4byte	.LVL56
 10942 0aab 7A060000 		.4byte	.LVL57
 10943 0aaf 1400     		.2byte	0x14
 10944 0ab1 91       		.byte	0x91
 10945 0ab2 F47E     		.sleb128 -140
 10946 0ab4 06       		.byte	0x6
 10947 0ab5 20       		.byte	0x20
 10948 0ab6 71       		.byte	0x71
ARM GAS  C:\Users\jo\AppData\Local\Temp\ccdgtuym.s 			page 194


 10949 0ab7 00       		.sleb128 0
 10950 0ab8 1A       		.byte	0x1a
 10951 0ab9 91       		.byte	0x91
 10952 0aba F47E     		.sleb128 -140
 10953 0abc 06       		.byte	0x6
 10954 0abd 72       		.byte	0x72
 10955 0abe 00       		.sleb128 0
 10956 0abf 1A       		.byte	0x1a
 10957 0ac0 21       		.byte	0x21
 10958 0ac1 74       		.byte	0x74
 10959 0ac2 00       		.sleb128 0
 10960 0ac3 22       		.byte	0x22
 10961 0ac4 9F       		.byte	0x9f
 10962 0ac5 7A060000 		.4byte	.LVL57
 10963 0ac9 B4070000 		.4byte	.LVL91
 10964 0acd 0100     		.2byte	0x1
 10965 0acf 59       		.byte	0x59
 10966 0ad0 B4070000 		.4byte	.LVL91
 10967 0ad4 CA070000 		.4byte	.LVL94
 10968 0ad8 1000     		.2byte	0x10
 10969 0ada 76       		.byte	0x76
 10970 0adb 00       		.sleb128 0
 10971 0adc 20       		.byte	0x20
 10972 0add 70       		.byte	0x70
 10973 0ade 00       		.sleb128 0
 10974 0adf 1A       		.byte	0x1a
 10975 0ae0 76       		.byte	0x76
 10976 0ae1 00       		.sleb128 0
 10977 0ae2 77       		.byte	0x77
 10978 0ae3 00       		.sleb128 0
 10979 0ae4 1A       		.byte	0x1a
 10980 0ae5 21       		.byte	0x21
 10981 0ae6 79       		.byte	0x79
 10982 0ae7 00       		.sleb128 0
 10983 0ae8 22       		.byte	0x22
 10984 0ae9 9F       		.byte	0x9f
 10985 0aea CA070000 		.4byte	.LVL94
 10986 0aee EC080000 		.4byte	.LVL125
 10987 0af2 0100     		.2byte	0x1
 10988 0af4 51       		.byte	0x51
 10989 0af5 04090000 		.4byte	.LVL127
 10990 0af9 1A090000 		.4byte	.LVL129
 10991 0afd 1000     		.2byte	0x10
 10992 0aff 7A       		.byte	0x7a
 10993 0b00 00       		.sleb128 0
 10994 0b01 20       		.byte	0x20
 10995 0b02 7C       		.byte	0x7c
 10996 0b03 00       		.sleb128 0
 10997 0b04 1A       		.byte	0x1a
 10998 0b05 7A       		.byte	0x7a
 10999 0b06 00       		.sleb128 0
 11000 0b07 7E       		.byte	0x7e
 11001 0b08 00       		.sleb128 0
 11002 0b09 1A       		.byte	0x1a
 11003 0b0a 21       		.byte	0x21
 11004 0b0b 76       		.byte	0x76
 11005 0b0c 00       		.sleb128 0
ARM GAS  C:\Users\jo\AppData\Local\Temp\ccdgtuym.s 			page 195


 11006 0b0d 22       		.byte	0x22
 11007 0b0e 9F       		.byte	0x9f
 11008 0b0f 1A090000 		.4byte	.LVL129
 11009 0b13 90090000 		.4byte	.LVL143
 11010 0b17 0100     		.2byte	0x1
 11011 0b19 53       		.byte	0x53
 11012 0b1a 9A090000 		.4byte	.LVL145
 11013 0b1e 680A0000 		.4byte	.LVL166
 11014 0b22 0100     		.2byte	0x1
 11015 0b24 56       		.byte	0x56
 11016 0b25 680A0000 		.4byte	.LVL166
 11017 0b29 740A0000 		.4byte	.LVL167
 11018 0b2d 1100     		.2byte	0x11
 11019 0b2f 79       		.byte	0x79
 11020 0b30 00       		.sleb128 0
 11021 0b31 91       		.byte	0x91
 11022 0b32 F87E     		.sleb128 -136
 11023 0b34 06       		.byte	0x6
 11024 0b35 1A       		.byte	0x1a
 11025 0b36 7C       		.byte	0x7c
 11026 0b37 00       		.sleb128 0
 11027 0b38 70       		.byte	0x70
 11028 0b39 00       		.sleb128 0
 11029 0b3a 1A       		.byte	0x1a
 11030 0b3b 21       		.byte	0x21
 11031 0b3c 73       		.byte	0x73
 11032 0b3d 00       		.sleb128 0
 11033 0b3e 22       		.byte	0x22
 11034 0b3f 9F       		.byte	0x9f
 11035 0b40 740A0000 		.4byte	.LVL167
 11036 0b44 8E0B0000 		.4byte	.LVL195
 11037 0b48 0100     		.2byte	0x1
 11038 0b4a 53       		.byte	0x53
 11039 0b4b 8E0B0000 		.4byte	.LVL195
 11040 0b4f 9E0B0000 		.4byte	.LVL197
 11041 0b53 0D00     		.2byte	0xd
 11042 0b55 77       		.byte	0x77
 11043 0b56 00       		.sleb128 0
 11044 0b57 20       		.byte	0x20
 11045 0b58 7C       		.byte	0x7c
 11046 0b59 00       		.sleb128 0
 11047 0b5a 21       		.byte	0x21
 11048 0b5b 7A       		.byte	0x7a
 11049 0b5c 00       		.sleb128 0
 11050 0b5d 27       		.byte	0x27
 11051 0b5e 73       		.byte	0x73
 11052 0b5f 00       		.sleb128 0
 11053 0b60 22       		.byte	0x22
 11054 0b61 9F       		.byte	0x9f
 11055 0b62 9E0B0000 		.4byte	.LVL197
 11056 0b66 A80B0000 		.4byte	.LVL198
 11057 0b6a 0100     		.2byte	0x1
 11058 0b6c 53       		.byte	0x53
 11059 0b6d A80B0000 		.4byte	.LVL198
 11060 0b71 B00C0000 		.4byte	.LVL226
 11061 0b75 0100     		.2byte	0x1
 11062 0b77 56       		.byte	0x56
ARM GAS  C:\Users\jo\AppData\Local\Temp\ccdgtuym.s 			page 196


 11063 0b78 B80C0000 		.4byte	.LVL227
 11064 0b7c BA0C0000 		.4byte	.LVL228
 11065 0b80 0D00     		.2byte	0xd
 11066 0b82 77       		.byte	0x77
 11067 0b83 00       		.sleb128 0
 11068 0b84 20       		.byte	0x20
 11069 0b85 7C       		.byte	0x7c
 11070 0b86 00       		.sleb128 0
 11071 0b87 21       		.byte	0x21
 11072 0b88 7E       		.byte	0x7e
 11073 0b89 00       		.sleb128 0
 11074 0b8a 27       		.byte	0x27
 11075 0b8b 76       		.byte	0x76
 11076 0b8c 00       		.sleb128 0
 11077 0b8d 22       		.byte	0x22
 11078 0b8e 9F       		.byte	0x9f
 11079 0b8f BA0C0000 		.4byte	.LVL228
 11080 0b93 C20C0000 		.4byte	.LVL229
 11081 0b97 0100     		.2byte	0x1
 11082 0b99 56       		.byte	0x56
 11083 0b9a C80C0000 		.4byte	.LVL230
 11084 0b9e 2A0D0000 		.4byte	.LVL239
 11085 0ba2 0100     		.2byte	0x1
 11086 0ba4 56       		.byte	0x56
 11087 0ba5 500D0000 		.4byte	.LVL241
 11088 0ba9 EE0D0000 		.4byte	.LVL255
 11089 0bad 0300     		.2byte	0x3
 11090 0baf 91       		.byte	0x91
 11091 0bb0 F47E     		.sleb128 -140
 11092 0bb2 EE0D0000 		.4byte	.LVL255
 11093 0bb6 000E0000 		.4byte	.LVL258
 11094 0bba 0D00     		.2byte	0xd
 11095 0bbc 77       		.byte	0x77
 11096 0bbd 00       		.sleb128 0
 11097 0bbe 20       		.byte	0x20
 11098 0bbf 7C       		.byte	0x7c
 11099 0bc0 00       		.sleb128 0
 11100 0bc1 21       		.byte	0x21
 11101 0bc2 7E       		.byte	0x7e
 11102 0bc3 00       		.sleb128 0
 11103 0bc4 27       		.byte	0x27
 11104 0bc5 76       		.byte	0x76
 11105 0bc6 00       		.sleb128 0
 11106 0bc7 22       		.byte	0x22
 11107 0bc8 9F       		.byte	0x9f
 11108 0bc9 000E0000 		.4byte	.LVL258
 11109 0bcd 4E0F0000 		.4byte	.LVL287
 11110 0bd1 0100     		.2byte	0x1
 11111 0bd3 56       		.byte	0x56
 11112 0bd4 4E0F0000 		.4byte	.LVL287
 11113 0bd8 8A0F0000 		.4byte	.LVL289
 11114 0bdc 1000     		.2byte	0x10
 11115 0bde 7C       		.byte	0x7c
 11116 0bdf 00       		.sleb128 0
 11117 0be0 7E       		.byte	0x7e
 11118 0be1 00       		.sleb128 0
 11119 0be2 1A       		.byte	0x1a
ARM GAS  C:\Users\jo\AppData\Local\Temp\ccdgtuym.s 			page 197


 11120 0be3 7E       		.byte	0x7e
 11121 0be4 00       		.sleb128 0
 11122 0be5 20       		.byte	0x20
 11123 0be6 77       		.byte	0x77
 11124 0be7 00       		.sleb128 0
 11125 0be8 1A       		.byte	0x1a
 11126 0be9 21       		.byte	0x21
 11127 0bea 76       		.byte	0x76
 11128 0beb 00       		.sleb128 0
 11129 0bec 22       		.byte	0x22
 11130 0bed 9F       		.byte	0x9f
 11131 0bee 8A0F0000 		.4byte	.LVL289
 11132 0bf2 B4100000 		.4byte	.LVL318
 11133 0bf6 0100     		.2byte	0x1
 11134 0bf8 56       		.byte	0x56
 11135 0bf9 C8100000 		.4byte	.LVL320
 11136 0bfd FA100000 		.4byte	.LVL323
 11137 0c01 1000     		.2byte	0x10
 11138 0c03 7C       		.byte	0x7c
 11139 0c04 00       		.sleb128 0
 11140 0c05 7E       		.byte	0x7e
 11141 0c06 00       		.sleb128 0
 11142 0c07 1A       		.byte	0x1a
 11143 0c08 7E       		.byte	0x7e
 11144 0c09 00       		.sleb128 0
 11145 0c0a 20       		.byte	0x20
 11146 0c0b 77       		.byte	0x77
 11147 0c0c 00       		.sleb128 0
 11148 0c0d 1A       		.byte	0x1a
 11149 0c0e 21       		.byte	0x21
 11150 0c0f 76       		.byte	0x76
 11151 0c10 00       		.sleb128 0
 11152 0c11 22       		.byte	0x22
 11153 0c12 9F       		.byte	0x9f
 11154 0c13 FA100000 		.4byte	.LVL323
 11155 0c17 0A120000 		.4byte	.LVL350
 11156 0c1b 0100     		.2byte	0x1
 11157 0c1d 56       		.byte	0x56
 11158 0c1e 16120000 		.4byte	.LVL352
 11159 0c22 3A120000 		.4byte	.LVL355
 11160 0c26 1000     		.2byte	0x10
 11161 0c28 7C       		.byte	0x7c
 11162 0c29 00       		.sleb128 0
 11163 0c2a 7E       		.byte	0x7e
 11164 0c2b 00       		.sleb128 0
 11165 0c2c 1A       		.byte	0x1a
 11166 0c2d 7E       		.byte	0x7e
 11167 0c2e 00       		.sleb128 0
 11168 0c2f 20       		.byte	0x20
 11169 0c30 77       		.byte	0x77
 11170 0c31 00       		.sleb128 0
 11171 0c32 1A       		.byte	0x1a
 11172 0c33 21       		.byte	0x21
 11173 0c34 76       		.byte	0x76
 11174 0c35 00       		.sleb128 0
 11175 0c36 22       		.byte	0x22
 11176 0c37 9F       		.byte	0x9f
ARM GAS  C:\Users\jo\AppData\Local\Temp\ccdgtuym.s 			page 198


 11177 0c38 3A120000 		.4byte	.LVL355
 11178 0c3c 4C120000 		.4byte	.LVL356
 11179 0c40 0100     		.2byte	0x1
 11180 0c42 56       		.byte	0x56
 11181 0c43 4C120000 		.4byte	.LVL356
 11182 0c47 64120000 		.4byte	.LVL359
 11183 0c4b 0100     		.2byte	0x1
 11184 0c4d 53       		.byte	0x53
 11185 0c4e 64120000 		.4byte	.LVL359
 11186 0c52 FC120000 		.4byte	.LVL371
 11187 0c56 0300     		.2byte	0x3
 11188 0c58 91       		.byte	0x91
 11189 0c59 F87E     		.sleb128 -136
 11190 0c5b FC120000 		.4byte	.LVL371
 11191 0c5f 58130000 		.4byte	.LVL383
 11192 0c63 0100     		.2byte	0x1
 11193 0c65 56       		.byte	0x56
 11194 0c66 58130000 		.4byte	.LVL383
 11195 0c6a 60130000 		.4byte	.LVL384
 11196 0c6e 0F00     		.2byte	0xf
 11197 0c70 91       		.byte	0x91
 11198 0c71 F87E     		.sleb128 -136
 11199 0c73 06       		.byte	0x6
 11200 0c74 3A       		.byte	0x3a
 11201 0c75 14       		.byte	0x14
 11202 0c76 14       		.byte	0x14
 11203 0c77 24       		.byte	0x24
 11204 0c78 17       		.byte	0x17
 11205 0c79 1F       		.byte	0x1f
 11206 0c7a 23       		.byte	0x23
 11207 0c7b 20       		.uleb128 0x20
 11208 0c7c 25       		.byte	0x25
 11209 0c7d 21       		.byte	0x21
 11210 0c7e 9F       		.byte	0x9f
 11211 0c7f 60130000 		.4byte	.LVL384
 11212 0c83 66130000 		.4byte	.LVL386
 11213 0c87 0D00     		.2byte	0xd
 11214 0c89 74       		.byte	0x74
 11215 0c8a 00       		.sleb128 0
 11216 0c8b 20       		.byte	0x20
 11217 0c8c 77       		.byte	0x77
 11218 0c8d 00       		.sleb128 0
 11219 0c8e 21       		.byte	0x21
 11220 0c8f 7C       		.byte	0x7c
 11221 0c90 00       		.sleb128 0
 11222 0c91 27       		.byte	0x27
 11223 0c92 78       		.byte	0x78
 11224 0c93 00       		.sleb128 0
 11225 0c94 22       		.byte	0x22
 11226 0c95 9F       		.byte	0x9f
 11227 0c96 66130000 		.4byte	.LVL386
 11228 0c9a 7A130000 		.4byte	.LVL387
 11229 0c9e 0100     		.2byte	0x1
 11230 0ca0 56       		.byte	0x56
 11231 0ca1 7A130000 		.4byte	.LVL387
 11232 0ca5 88130000 		.4byte	.LVL390
 11233 0ca9 0D00     		.2byte	0xd
ARM GAS  C:\Users\jo\AppData\Local\Temp\ccdgtuym.s 			page 199


 11234 0cab 74       		.byte	0x74
 11235 0cac 00       		.sleb128 0
 11236 0cad 20       		.byte	0x20
 11237 0cae 77       		.byte	0x77
 11238 0caf 00       		.sleb128 0
 11239 0cb0 21       		.byte	0x21
 11240 0cb1 7C       		.byte	0x7c
 11241 0cb2 00       		.sleb128 0
 11242 0cb3 27       		.byte	0x27
 11243 0cb4 78       		.byte	0x78
 11244 0cb5 00       		.sleb128 0
 11245 0cb6 22       		.byte	0x22
 11246 0cb7 9F       		.byte	0x9f
 11247 0cb8 88130000 		.4byte	.LVL390
 11248 0cbc 90130000 		.4byte	.LVL391
 11249 0cc0 2400     		.2byte	0x24
 11250 0cc2 74       		.byte	0x74
 11251 0cc3 00       		.sleb128 0
 11252 0cc4 20       		.byte	0x20
 11253 0cc5 77       		.byte	0x77
 11254 0cc6 00       		.sleb128 0
 11255 0cc7 21       		.byte	0x21
 11256 0cc8 7C       		.byte	0x7c
 11257 0cc9 00       		.sleb128 0
 11258 0cca 27       		.byte	0x27
 11259 0ccb 91       		.byte	0x91
 11260 0ccc F87E     		.sleb128 -136
 11261 0cce 06       		.byte	0x6
 11262 0ccf 3A       		.byte	0x3a
 11263 0cd0 14       		.byte	0x14
 11264 0cd1 14       		.byte	0x14
 11265 0cd2 24       		.byte	0x24
 11266 0cd3 17       		.byte	0x17
 11267 0cd4 1F       		.byte	0x1f
 11268 0cd5 23       		.byte	0x23
 11269 0cd6 20       		.uleb128 0x20
 11270 0cd7 25       		.byte	0x25
 11271 0cd8 21       		.byte	0x21
 11272 0cd9 22       		.byte	0x22
 11273 0cda 91       		.byte	0x91
 11274 0cdb B07E     		.sleb128 -208
 11275 0cdd 06       		.byte	0x6
 11276 0cde 22       		.byte	0x22
 11277 0cdf 0C       		.byte	0xc
 11278 0ce0 B202AC56 		.4byte	0x56ac02b2
 11279 0ce4 1C       		.byte	0x1c
 11280 0ce5 9F       		.byte	0x9f
 11281 0ce6 90130000 		.4byte	.LVL391
 11282 0cea D6130000 		.4byte	.LVL399
 11283 0cee 0100     		.2byte	0x1
 11284 0cf0 56       		.byte	0x56
 11285 0cf1 E2130000 		.4byte	.LVL401
 11286 0cf5 52140000 		.4byte	.LVL416
 11287 0cf9 0100     		.2byte	0x1
 11288 0cfb 53       		.byte	0x53
 11289 0cfc 5E140000 		.4byte	.LVL418
 11290 0d00 60140000 		.4byte	.LVL419
ARM GAS  C:\Users\jo\AppData\Local\Temp\ccdgtuym.s 			page 200


 11291 0d04 0D00     		.2byte	0xd
 11292 0d06 7C       		.byte	0x7c
 11293 0d07 00       		.sleb128 0
 11294 0d08 20       		.byte	0x20
 11295 0d09 7A       		.byte	0x7a
 11296 0d0a 00       		.sleb128 0
 11297 0d0b 21       		.byte	0x21
 11298 0d0c 7E       		.byte	0x7e
 11299 0d0d 00       		.sleb128 0
 11300 0d0e 27       		.byte	0x27
 11301 0d0f 74       		.byte	0x74
 11302 0d10 00       		.sleb128 0
 11303 0d11 22       		.byte	0x22
 11304 0d12 9F       		.byte	0x9f
 11305 0d13 60140000 		.4byte	.LVL419
 11306 0d17 7A140000 		.4byte	.LVL422
 11307 0d1b 0100     		.2byte	0x1
 11308 0d1d 59       		.byte	0x59
 11309 0d1e 7A140000 		.4byte	.LVL422
 11310 0d22 58150000 		.4byte	.LVL449
 11311 0d26 0100     		.2byte	0x1
 11312 0d28 5B       		.byte	0x5b
 11313 0d29 66150000 		.4byte	.LVL450
 11314 0d2d 7C150000 		.4byte	.LVL452
 11315 0d31 0D00     		.2byte	0xd
 11316 0d33 71       		.byte	0x71
 11317 0d34 00       		.sleb128 0
 11318 0d35 20       		.byte	0x20
 11319 0d36 75       		.byte	0x75
 11320 0d37 00       		.sleb128 0
 11321 0d38 21       		.byte	0x21
 11322 0d39 74       		.byte	0x74
 11323 0d3a 00       		.sleb128 0
 11324 0d3b 27       		.byte	0x27
 11325 0d3c 7B       		.byte	0x7b
 11326 0d3d 00       		.sleb128 0
 11327 0d3e 22       		.byte	0x22
 11328 0d3f 9F       		.byte	0x9f
 11329 0d40 7C150000 		.4byte	.LVL452
 11330 0d44 80150000 		.4byte	.LVL453
 11331 0d48 0100     		.2byte	0x1
 11332 0d4a 5B       		.byte	0x5b
 11333 0d4b 94150000 		.4byte	.LVL456
 11334 0d4f 4C160000 		.4byte	.LVL483
 11335 0d53 0100     		.2byte	0x1
 11336 0d55 5B       		.byte	0x5b
 11337 0d56 00000000 		.4byte	0
 11338 0d5a 00000000 		.4byte	0
 11339              	.LLST11:
 11340 0d5e 58050000 		.4byte	.LVL22
 11341 0d62 A6050000 		.4byte	.LVL32
 11342 0d66 0100     		.2byte	0x1
 11343 0d68 5E       		.byte	0x5e
 11344 0d69 AE050000 		.4byte	.LVL34
 11345 0d6d 18060000 		.4byte	.LVL49
 11346 0d71 0100     		.2byte	0x1
 11347 0d73 5E       		.byte	0x5e
ARM GAS  C:\Users\jo\AppData\Local\Temp\ccdgtuym.s 			page 201


 11348 0d74 1C060000 		.4byte	.LVL50
 11349 0d78 26060000 		.4byte	.LVL51
 11350 0d7c 0D00     		.2byte	0xd
 11351 0d7e 75       		.byte	0x75
 11352 0d7f 00       		.sleb128 0
 11353 0d80 20       		.byte	0x20
 11354 0d81 76       		.byte	0x76
 11355 0d82 00       		.sleb128 0
 11356 0d83 21       		.byte	0x21
 11357 0d84 7B       		.byte	0x7b
 11358 0d85 00       		.sleb128 0
 11359 0d86 27       		.byte	0x27
 11360 0d87 7E       		.byte	0x7e
 11361 0d88 00       		.sleb128 0
 11362 0d89 22       		.byte	0x22
 11363 0d8a 9F       		.byte	0x9f
 11364 0d8b 26060000 		.4byte	.LVL51
 11365 0d8f 72070000 		.4byte	.LVL84
 11366 0d93 0100     		.2byte	0x1
 11367 0d95 5A       		.byte	0x5a
 11368 0d96 88070000 		.4byte	.LVL87
 11369 0d9a 8C070000 		.4byte	.LVL88
 11370 0d9e 1000     		.2byte	0x10
 11371 0da0 78       		.byte	0x78
 11372 0da1 00       		.sleb128 0
 11373 0da2 75       		.byte	0x75
 11374 0da3 00       		.sleb128 0
 11375 0da4 1A       		.byte	0x1a
 11376 0da5 75       		.byte	0x75
 11377 0da6 00       		.sleb128 0
 11378 0da7 20       		.byte	0x20
 11379 0da8 74       		.byte	0x74
 11380 0da9 00       		.sleb128 0
 11381 0daa 1A       		.byte	0x1a
 11382 0dab 21       		.byte	0x21
 11383 0dac 7A       		.byte	0x7a
 11384 0dad 00       		.sleb128 0
 11385 0dae 22       		.byte	0x22
 11386 0daf 9F       		.byte	0x9f
 11387 0db0 8C070000 		.4byte	.LVL88
 11388 0db4 C8080000 		.4byte	.LVL121
 11389 0db8 0100     		.2byte	0x1
 11390 0dba 53       		.byte	0x53
 11391 0dbb 00090000 		.4byte	.LVL126
 11392 0dbf 240A0000 		.4byte	.LVL159
 11393 0dc3 0100     		.2byte	0x1
 11394 0dc5 57       		.byte	0x57
 11395 0dc6 2E0A0000 		.4byte	.LVL161
 11396 0dca 4E0A0000 		.4byte	.LVL163
 11397 0dce 1000     		.2byte	0x10
 11398 0dd0 78       		.byte	0x78
 11399 0dd1 00       		.sleb128 0
 11400 0dd2 75       		.byte	0x75
 11401 0dd3 00       		.sleb128 0
 11402 0dd4 1A       		.byte	0x1a
 11403 0dd5 75       		.byte	0x75
 11404 0dd6 00       		.sleb128 0
ARM GAS  C:\Users\jo\AppData\Local\Temp\ccdgtuym.s 			page 202


 11405 0dd7 20       		.byte	0x20
 11406 0dd8 74       		.byte	0x74
 11407 0dd9 00       		.sleb128 0
 11408 0dda 1A       		.byte	0x1a
 11409 0ddb 21       		.byte	0x21
 11410 0ddc 77       		.byte	0x77
 11411 0ddd 00       		.sleb128 0
 11412 0dde 22       		.byte	0x22
 11413 0ddf 9F       		.byte	0x9f
 11414 0de0 5E0A0000 		.4byte	.LVL164
 11415 0de4 DC0A0000 		.4byte	.LVL175
 11416 0de8 0100     		.2byte	0x1
 11417 0dea 5E       		.byte	0x5e
 11418 0deb F40A0000 		.4byte	.LVL177
 11419 0def 500B0000 		.4byte	.LVL188
 11420 0df3 0100     		.2byte	0x1
 11421 0df5 5E       		.byte	0x5e
 11422 0df6 800B0000 		.4byte	.LVL193
 11423 0dfa 840C0000 		.4byte	.LVL220
 11424 0dfe 0100     		.2byte	0x1
 11425 0e00 50       		.byte	0x50
 11426 0e01 B80C0000 		.4byte	.LVL227
 11427 0e05 220D0000 		.4byte	.LVL237
 11428 0e09 0100     		.2byte	0x1
 11429 0e0b 50       		.byte	0x50
 11430 0e0c 400D0000 		.4byte	.LVL240
 11431 0e10 A60D0000 		.4byte	.LVL251
 11432 0e14 0100     		.2byte	0x1
 11433 0e16 50       		.byte	0x50
 11434 0e17 EE0D0000 		.4byte	.LVL255
 11435 0e1b 120F0000 		.4byte	.LVL282
 11436 0e1f 0100     		.2byte	0x1
 11437 0e21 50       		.byte	0x50
 11438 0e22 4C0F0000 		.4byte	.LVL286
 11439 0e26 8A100000 		.4byte	.LVL314
 11440 0e2a 0100     		.2byte	0x1
 11441 0e2c 50       		.byte	0x50
 11442 0e2d BE100000 		.4byte	.LVL319
 11443 0e31 E4110000 		.4byte	.LVL346
 11444 0e35 0100     		.2byte	0x1
 11445 0e37 50       		.byte	0x50
 11446 0e38 16120000 		.4byte	.LVL352
 11447 0e3c 20130000 		.4byte	.LVL377
 11448 0e40 0100     		.2byte	0x1
 11449 0e42 50       		.byte	0x50
 11450 0e43 60130000 		.4byte	.LVL384
 11451 0e47 AE130000 		.4byte	.LVL394
 11452 0e4b 0100     		.2byte	0x1
 11453 0e4d 50       		.byte	0x50
 11454 0e4e C0130000 		.4byte	.LVL396
 11455 0e52 2E140000 		.4byte	.LVL411
 11456 0e56 0100     		.2byte	0x1
 11457 0e58 50       		.byte	0x50
 11458 0e59 5A140000 		.4byte	.LVL417
 11459 0e5d A8140000 		.4byte	.LVL429
 11460 0e61 0100     		.2byte	0x1
 11461 0e63 57       		.byte	0x57
ARM GAS  C:\Users\jo\AppData\Local\Temp\ccdgtuym.s 			page 203


 11462 0e64 BA140000 		.4byte	.LVL430
 11463 0e68 34150000 		.4byte	.LVL445
 11464 0e6c 0100     		.2byte	0x1
 11465 0e6e 57       		.byte	0x57
 11466 0e6f 66150000 		.4byte	.LVL450
 11467 0e73 C0150000 		.4byte	.LVL461
 11468 0e77 0100     		.2byte	0x1
 11469 0e79 57       		.byte	0x57
 11470 0e7a C8150000 		.4byte	.LVL463
 11471 0e7e 28160000 		.4byte	.LVL480
 11472 0e82 0100     		.2byte	0x1
 11473 0e84 57       		.byte	0x57
 11474 0e85 00000000 		.4byte	0
 11475 0e89 00000000 		.4byte	0
 11476              	.LLST12:
 11477 0e8d 58050000 		.4byte	.LVL22
 11478 0e91 F2050000 		.4byte	.LVL43
 11479 0e95 0100     		.2byte	0x1
 11480 0e97 58       		.byte	0x58
 11481 0e98 F2050000 		.4byte	.LVL43
 11482 0e9c FE050000 		.4byte	.LVL44
 11483 0ea0 0D00     		.2byte	0xd
 11484 0ea2 77       		.byte	0x77
 11485 0ea3 00       		.sleb128 0
 11486 0ea4 20       		.byte	0x20
 11487 0ea5 75       		.byte	0x75
 11488 0ea6 00       		.sleb128 0
 11489 0ea7 21       		.byte	0x21
 11490 0ea8 76       		.byte	0x76
 11491 0ea9 00       		.sleb128 0
 11492 0eaa 27       		.byte	0x27
 11493 0eab 78       		.byte	0x78
 11494 0eac 00       		.sleb128 0
 11495 0ead 22       		.byte	0x22
 11496 0eae 9F       		.byte	0x9f
 11497 0eaf 06060000 		.4byte	.LVL45
 11498 0eb3 38070000 		.4byte	.LVL77
 11499 0eb7 0100     		.2byte	0x1
 11500 0eb9 5B       		.byte	0x5b
 11501 0eba 52070000 		.4byte	.LVL80
 11502 0ebe 88080000 		.4byte	.LVL115
 11503 0ec2 0100     		.2byte	0x1
 11504 0ec4 58       		.byte	0x58
 11505 0ec5 B8080000 		.4byte	.LVL120
 11506 0ec9 CE090000 		.4byte	.LVL150
 11507 0ecd 0100     		.2byte	0x1
 11508 0ecf 5B       		.byte	0x5b
 11509 0ed0 F0090000 		.4byte	.LVL153
 11510 0ed4 9C0A0000 		.4byte	.LVL170
 11511 0ed8 0100     		.2byte	0x1
 11512 0eda 58       		.byte	0x58
 11513 0edb A60A0000 		.4byte	.LVL171
 11514 0edf 2E0B0000 		.4byte	.LVL185
 11515 0ee3 0100     		.2byte	0x1
 11516 0ee5 58       		.byte	0x58
 11517 0ee6 620B0000 		.4byte	.LVL190
 11518 0eea 580C0000 		.4byte	.LVL215
ARM GAS  C:\Users\jo\AppData\Local\Temp\ccdgtuym.s 			page 204


 11519 0eee 0100     		.2byte	0x1
 11520 0ef0 58       		.byte	0x58
 11521 0ef1 6A0C0000 		.4byte	.LVL217
 11522 0ef5 E20C0000 		.4byte	.LVL232
 11523 0ef9 0100     		.2byte	0x1
 11524 0efb 54       		.byte	0x54
 11525 0efc 040D0000 		.4byte	.LVL234
 11526 0f00 6E0D0000 		.4byte	.LVL245
 11527 0f04 0100     		.2byte	0x1
 11528 0f06 54       		.byte	0x54
 11529 0f07 8C0D0000 		.4byte	.LVL248
 11530 0f0b 120E0000 		.4byte	.LVL259
 11531 0f0f 0100     		.2byte	0x1
 11532 0f11 54       		.byte	0x54
 11533 0f12 3A0E0000 		.4byte	.LVL262
 11534 0f16 CA0E0000 		.4byte	.LVL275
 11535 0f1a 0100     		.2byte	0x1
 11536 0f1c 54       		.byte	0x54
 11537 0f1d FE0E0000 		.4byte	.LVL280
 11538 0f21 700F0000 		.4byte	.LVL288
 11539 0f25 0100     		.2byte	0x1
 11540 0f27 54       		.byte	0x54
 11541 0f28 9E0F0000 		.4byte	.LVL293
 11542 0f2c 12100000 		.4byte	.LVL300
 11543 0f30 0100     		.2byte	0x1
 11544 0f32 54       		.byte	0x54
 11545 0f33 12100000 		.4byte	.LVL300
 11546 0f37 42100000 		.4byte	.LVL308
 11547 0f3b 0300     		.2byte	0x3
 11548 0f3d 91       		.byte	0x91
 11549 0f3e F47E     		.sleb128 -140
 11550 0f40 7A100000 		.4byte	.LVL313
 11551 0f44 D6100000 		.4byte	.LVL322
 11552 0f48 0100     		.2byte	0x1
 11553 0f4a 54       		.byte	0x54
 11554 0f4b D0110000 		.4byte	.LVL344
 11555 0f4f 38120000 		.4byte	.LVL354
 11556 0f53 0100     		.2byte	0x1
 11557 0f55 54       		.byte	0x54
 11558 0f56 5E120000 		.4byte	.LVL358
 11559 0f5a EA120000 		.4byte	.LVL370
 11560 0f5e 0100     		.2byte	0x1
 11561 0f60 59       		.byte	0x59
 11562 0f61 26130000 		.4byte	.LVL378
 11563 0f65 80130000 		.4byte	.LVL388
 11564 0f69 0100     		.2byte	0x1
 11565 0f6b 59       		.byte	0x59
 11566 0f6c 90130000 		.4byte	.LVL391
 11567 0f70 08140000 		.4byte	.LVL407
 11568 0f74 0100     		.2byte	0x1
 11569 0f76 59       		.byte	0x59
 11570 0f77 20140000 		.4byte	.LVL410
 11571 0f7b 86140000 		.4byte	.LVL424
 11572 0f7f 0100     		.2byte	0x1
 11573 0f81 56       		.byte	0x56
 11574 0f82 8E140000 		.4byte	.LVL425
 11575 0f86 E4140000 		.4byte	.LVL436
ARM GAS  C:\Users\jo\AppData\Local\Temp\ccdgtuym.s 			page 205


 11576 0f8a 0100     		.2byte	0x1
 11577 0f8c 56       		.byte	0x56
 11578 0f8d 32150000 		.4byte	.LVL444
 11579 0f91 84150000 		.4byte	.LVL454
 11580 0f95 0100     		.2byte	0x1
 11581 0f97 56       		.byte	0x56
 11582 0f98 94150000 		.4byte	.LVL456
 11583 0f9c F4150000 		.4byte	.LVL468
 11584 0fa0 0100     		.2byte	0x1
 11585 0fa2 56       		.byte	0x56
 11586 0fa3 FE150000 		.4byte	.LVL470
 11587 0fa7 02160000 		.4byte	.LVL471
 11588 0fab 1900     		.2byte	0x19
 11589 0fad 79       		.byte	0x79
 11590 0fae 00       		.sleb128 0
 11591 0faf 7E       		.byte	0x7e
 11592 0fb0 00       		.sleb128 0
 11593 0fb1 27       		.byte	0x27
 11594 0fb2 7A       		.byte	0x7a
 11595 0fb3 00       		.sleb128 0
 11596 0fb4 27       		.byte	0x27
 11597 0fb5 76       		.byte	0x76
 11598 0fb6 00       		.sleb128 0
 11599 0fb7 22       		.byte	0x22
 11600 0fb8 3B       		.byte	0x3b
 11601 0fb9 14       		.byte	0x14
 11602 0fba 14       		.byte	0x14
 11603 0fbb 24       		.byte	0x24
 11604 0fbc 17       		.byte	0x17
 11605 0fbd 1F       		.byte	0x1f
 11606 0fbe 23       		.byte	0x23
 11607 0fbf 20       		.uleb128 0x20
 11608 0fc0 25       		.byte	0x25
 11609 0fc1 21       		.byte	0x21
 11610 0fc2 77       		.byte	0x77
 11611 0fc3 00       		.sleb128 0
 11612 0fc4 22       		.byte	0x22
 11613 0fc5 9F       		.byte	0x9f
 11614 0fc6 02160000 		.4byte	.LVL471
 11615 0fca 1E160000 		.4byte	.LVL477
 11616 0fce 1600     		.2byte	0x16
 11617 0fd0 70       		.byte	0x70
 11618 0fd1 00       		.sleb128 0
 11619 0fd2 7A       		.byte	0x7a
 11620 0fd3 00       		.sleb128 0
 11621 0fd4 27       		.byte	0x27
 11622 0fd5 76       		.byte	0x76
 11623 0fd6 00       		.sleb128 0
 11624 0fd7 22       		.byte	0x22
 11625 0fd8 3B       		.byte	0x3b
 11626 0fd9 14       		.byte	0x14
 11627 0fda 14       		.byte	0x14
 11628 0fdb 24       		.byte	0x24
 11629 0fdc 17       		.byte	0x17
 11630 0fdd 1F       		.byte	0x1f
 11631 0fde 23       		.byte	0x23
 11632 0fdf 20       		.uleb128 0x20
ARM GAS  C:\Users\jo\AppData\Local\Temp\ccdgtuym.s 			page 206


 11633 0fe0 25       		.byte	0x25
 11634 0fe1 21       		.byte	0x21
 11635 0fe2 77       		.byte	0x77
 11636 0fe3 00       		.sleb128 0
 11637 0fe4 22       		.byte	0x22
 11638 0fe5 9F       		.byte	0x9f
 11639 0fe6 00000000 		.4byte	0
 11640 0fea 00000000 		.4byte	0
 11641              	.LLST13:
 11642 0fee 58050000 		.4byte	.LVL22
 11643 0ff2 CE050000 		.4byte	.LVL38
 11644 0ff6 0100     		.2byte	0x1
 11645 0ff8 56       		.byte	0x56
 11646 0ff9 CE050000 		.4byte	.LVL38
 11647 0ffd D8050000 		.4byte	.LVL39
 11648 1001 0D00     		.2byte	0xd
 11649 1003 7E       		.byte	0x7e
 11650 1004 00       		.sleb128 0
 11651 1005 20       		.byte	0x20
 11652 1006 77       		.byte	0x77
 11653 1007 00       		.sleb128 0
 11654 1008 21       		.byte	0x21
 11655 1009 75       		.byte	0x75
 11656 100a 00       		.sleb128 0
 11657 100b 27       		.byte	0x27
 11658 100c 76       		.byte	0x76
 11659 100d 00       		.sleb128 0
 11660 100e 22       		.byte	0x22
 11661 100f 9F       		.byte	0x9f
 11662 1010 DA050000 		.4byte	.LVL40
 11663 1014 EC060000 		.4byte	.LVL70
 11664 1018 0100     		.2byte	0x1
 11665 101a 56       		.byte	0x56
 11666 101b 2A070000 		.4byte	.LVL75
 11667 101f C4070000 		.4byte	.LVL93
 11668 1023 0100     		.2byte	0x1
 11669 1025 54       		.byte	0x54
 11670 1026 C4070000 		.4byte	.LVL93
 11671 102a 70080000 		.4byte	.LVL112
 11672 102e 0300     		.2byte	0x3
 11673 1030 91       		.byte	0x91
 11674 1031 F47E     		.sleb128 -140
 11675 1033 74080000 		.4byte	.LVL113
 11676 1037 8E090000 		.4byte	.LVL142
 11677 103b 0100     		.2byte	0x1
 11678 103d 50       		.byte	0x50
 11679 103e 9A090000 		.4byte	.LVL145
 11680 1042 A2090000 		.4byte	.LVL146
 11681 1046 1000     		.2byte	0x10
 11682 1048 75       		.byte	0x75
 11683 1049 00       		.sleb128 0
 11684 104a 77       		.byte	0x77
 11685 104b 00       		.sleb128 0
 11686 104c 1A       		.byte	0x1a
 11687 104d 77       		.byte	0x77
 11688 104e 00       		.sleb128 0
 11689 104f 20       		.byte	0x20
ARM GAS  C:\Users\jo\AppData\Local\Temp\ccdgtuym.s 			page 207


 11690 1050 71       		.byte	0x71
 11691 1051 00       		.sleb128 0
 11692 1052 1A       		.byte	0x1a
 11693 1053 21       		.byte	0x21
 11694 1054 70       		.byte	0x70
 11695 1055 00       		.sleb128 0
 11696 1056 22       		.byte	0x22
 11697 1057 9F       		.byte	0x9f
 11698 1058 A2090000 		.4byte	.LVL146
 11699 105c EA0A0000 		.4byte	.LVL176
 11700 1060 0100     		.2byte	0x1
 11701 1062 54       		.byte	0x54
 11702 1063 1C0B0000 		.4byte	.LVL181
 11703 1067 160C0000 		.4byte	.LVL207
 11704 106b 0100     		.2byte	0x1
 11705 106d 54       		.byte	0x54
 11706 106e 420C0000 		.4byte	.LVL213
 11707 1072 940C0000 		.4byte	.LVL223
 11708 1076 0100     		.2byte	0x1
 11709 1078 53       		.byte	0x53
 11710 1079 B80C0000 		.4byte	.LVL227
 11711 107d CE0C0000 		.4byte	.LVL231
 11712 1081 0100     		.2byte	0x1
 11713 1083 55       		.byte	0x55
 11714 1084 CE0C0000 		.4byte	.LVL231
 11715 1088 540D0000 		.4byte	.LVL242
 11716 108c 0300     		.2byte	0x3
 11717 108e 91       		.byte	0x91
 11718 108f F87E     		.sleb128 -136
 11719 1091 540D0000 		.4byte	.LVL242
 11720 1095 BC0D0000 		.4byte	.LVL254
 11721 1099 0100     		.2byte	0x1
 11722 109b 53       		.byte	0x53
 11723 109c EE0D0000 		.4byte	.LVL255
 11724 10a0 FA0D0000 		.4byte	.LVL257
 11725 10a4 0100     		.2byte	0x1
 11726 10a6 53       		.byte	0x53
 11727 10a7 FA0D0000 		.4byte	.LVL257
 11728 10ab B00E0000 		.4byte	.LVL272
 11729 10af 0300     		.2byte	0x3
 11730 10b1 91       		.byte	0x91
 11731 10b2 F87E     		.sleb128 -136
 11732 10b4 BA0E0000 		.4byte	.LVL274
 11733 10b8 300F0000 		.4byte	.LVL283
 11734 10bc 0100     		.2byte	0x1
 11735 10be 53       		.byte	0x53
 11736 10bf 4C0F0000 		.4byte	.LVL286
 11737 10c3 1E100000 		.4byte	.LVL304
 11738 10c7 0300     		.2byte	0x3
 11739 10c9 91       		.byte	0x91
 11740 10ca F87E     		.sleb128 -136
 11741 10cc 26100000 		.4byte	.LVL305
 11742 10d0 68110000 		.4byte	.LVL334
 11743 10d4 0100     		.2byte	0x1
 11744 10d6 53       		.byte	0x53
 11745 10d7 8E110000 		.4byte	.LVL337
 11746 10db F8110000 		.4byte	.LVL347
ARM GAS  C:\Users\jo\AppData\Local\Temp\ccdgtuym.s 			page 208


 11747 10df 0100     		.2byte	0x1
 11748 10e1 58       		.byte	0x58
 11749 10e2 16120000 		.4byte	.LVL352
 11750 10e6 FC120000 		.4byte	.LVL371
 11751 10ea 0300     		.2byte	0x3
 11752 10ec 91       		.byte	0x91
 11753 10ed F47E     		.sleb128 -140
 11754 10ef FC120000 		.4byte	.LVL371
 11755 10f3 56130000 		.4byte	.LVL382
 11756 10f7 0100     		.2byte	0x1
 11757 10f9 58       		.byte	0x58
 11758 10fa 60130000 		.4byte	.LVL384
 11759 10fe C6130000 		.4byte	.LVL397
 11760 1102 0100     		.2byte	0x1
 11761 1104 5A       		.byte	0x5a
 11762 1105 F2130000 		.4byte	.LVL403
 11763 1109 C0140000 		.4byte	.LVL431
 11764 110d 0100     		.2byte	0x1
 11765 110f 51       		.byte	0x51
 11766 1110 EA140000 		.4byte	.LVL437
 11767 1114 54150000 		.4byte	.LVL448
 11768 1118 0100     		.2byte	0x1
 11769 111a 5A       		.byte	0x5a
 11770 111b 66150000 		.4byte	.LVL450
 11771 111f DA150000 		.4byte	.LVL464
 11772 1123 0100     		.2byte	0x1
 11773 1125 5A       		.byte	0x5a
 11774 1126 FA150000 		.4byte	.LVL469
 11775 112a 24160000 		.4byte	.LVL479
 11776 112e 0100     		.2byte	0x1
 11777 1130 5A       		.byte	0x5a
 11778 1131 00000000 		.4byte	0
 11779 1135 00000000 		.4byte	0
 11780              	.LLST14:
 11781 1139 58050000 		.4byte	.LVL22
 11782 113d 64050000 		.4byte	.LVL25
 11783 1141 0100     		.2byte	0x1
 11784 1143 55       		.byte	0x55
 11785 1144 64050000 		.4byte	.LVL25
 11786 1148 74050000 		.4byte	.LVL27
 11787 114c 0300     		.2byte	0x3
 11788 114e 91       		.byte	0x91
 11789 114f F47E     		.sleb128 -140
 11790 1151 74050000 		.4byte	.LVL27
 11791 1155 84050000 		.4byte	.LVL29
 11792 1159 0100     		.2byte	0x1
 11793 115b 55       		.byte	0x55
 11794 115c 84050000 		.4byte	.LVL29
 11795 1160 A6050000 		.4byte	.LVL32
 11796 1164 0D00     		.2byte	0xd
 11797 1166 78       		.byte	0x78
 11798 1167 00       		.sleb128 0
 11799 1168 20       		.byte	0x20
 11800 1169 7E       		.byte	0x7e
 11801 116a 00       		.sleb128 0
 11802 116b 21       		.byte	0x21
 11803 116c 77       		.byte	0x77
ARM GAS  C:\Users\jo\AppData\Local\Temp\ccdgtuym.s 			page 209


 11804 116d 00       		.sleb128 0
 11805 116e 27       		.byte	0x27
 11806 116f 75       		.byte	0x75
 11807 1170 00       		.sleb128 0
 11808 1171 22       		.byte	0x22
 11809 1172 9F       		.byte	0x9f
 11810 1173 A8050000 		.4byte	.LVL33
 11811 1177 FE050000 		.4byte	.LVL44
 11812 117b 0100     		.2byte	0x1
 11813 117d 55       		.byte	0x55
 11814 117e 0C060000 		.4byte	.LVL46
 11815 1182 B6060000 		.4byte	.LVL63
 11816 1186 0100     		.2byte	0x1
 11817 1188 55       		.byte	0x55
 11818 1189 E0060000 		.4byte	.LVL68
 11819 118d 6A070000 		.4byte	.LVL82
 11820 1191 0100     		.2byte	0x1
 11821 1193 55       		.byte	0x55
 11822 1194 6E070000 		.4byte	.LVL83
 11823 1198 12080000 		.4byte	.LVL102
 11824 119c 0100     		.2byte	0x1
 11825 119e 55       		.byte	0x55
 11826 119f 1C080000 		.4byte	.LVL104
 11827 11a3 2E080000 		.4byte	.LVL106
 11828 11a7 1000     		.2byte	0x10
 11829 11a9 72       		.byte	0x72
 11830 11aa 00       		.sleb128 0
 11831 11ab 78       		.byte	0x78
 11832 11ac 00       		.sleb128 0
 11833 11ad 1A       		.byte	0x1a
 11834 11ae 78       		.byte	0x78
 11835 11af 00       		.sleb128 0
 11836 11b0 20       		.byte	0x20
 11837 11b1 73       		.byte	0x73
 11838 11b2 00       		.sleb128 0
 11839 11b3 1A       		.byte	0x1a
 11840 11b4 21       		.byte	0x21
 11841 11b5 7E       		.byte	0x7e
 11842 11b6 00       		.sleb128 0
 11843 11b7 22       		.byte	0x22
 11844 11b8 9F       		.byte	0x9f
 11845 11b9 2E080000 		.4byte	.LVL106
 11846 11bd B0080000 		.4byte	.LVL119
 11847 11c1 0100     		.2byte	0x1
 11848 11c3 55       		.byte	0x55
 11849 11c4 B8080000 		.4byte	.LVL120
 11850 11c8 50090000 		.4byte	.LVL135
 11851 11cc 0100     		.2byte	0x1
 11852 11ce 55       		.byte	0x55
 11853 11cf 66090000 		.4byte	.LVL138
 11854 11d3 B00A0000 		.4byte	.LVL173
 11855 11d7 0100     		.2byte	0x1
 11856 11d9 55       		.byte	0x55
 11857 11da F40A0000 		.4byte	.LVL177
 11858 11de 3C0B0000 		.4byte	.LVL187
 11859 11e2 0100     		.2byte	0x1
 11860 11e4 55       		.byte	0x55
ARM GAS  C:\Users\jo\AppData\Local\Temp\ccdgtuym.s 			page 210


 11861 11e5 620B0000 		.4byte	.LVL190
 11862 11e9 FC0B0000 		.4byte	.LVL204
 11863 11ed 0300     		.2byte	0x3
 11864 11ef 91       		.byte	0x91
 11865 11f0 F47E     		.sleb128 -140
 11866 11f2 FC0B0000 		.4byte	.LVL204
 11867 11f6 EE0C0000 		.4byte	.LVL233
 11868 11fa 0100     		.2byte	0x1
 11869 11fc 52       		.byte	0x52
 11870 11fd 400D0000 		.4byte	.LVL240
 11871 1201 1E0E0000 		.4byte	.LVL260
 11872 1205 0100     		.2byte	0x1
 11873 1207 52       		.byte	0x52
 11874 1208 6A0E0000 		.4byte	.LVL267
 11875 120c AE0F0000 		.4byte	.LVL294
 11876 1210 0100     		.2byte	0x1
 11877 1212 52       		.byte	0x52
 11878 1213 E00F0000 		.4byte	.LVL297
 11879 1217 40100000 		.4byte	.LVL307
 11880 121b 0100     		.2byte	0x1
 11881 121d 52       		.byte	0x52
 11882 121e 7A100000 		.4byte	.LVL313
 11883 1222 94100000 		.4byte	.LVL315
 11884 1226 0100     		.2byte	0x1
 11885 1228 52       		.byte	0x52
 11886 1229 94100000 		.4byte	.LVL315
 11887 122d 4C110000 		.4byte	.LVL330
 11888 1231 0300     		.2byte	0x3
 11889 1233 91       		.byte	0x91
 11890 1234 F47E     		.sleb128 -140
 11891 1236 54110000 		.4byte	.LVL332
 11892 123a 7E120000 		.4byte	.LVL362
 11893 123e 0100     		.2byte	0x1
 11894 1240 52       		.byte	0x52
 11895 1241 96120000 		.4byte	.LVL365
 11896 1245 16130000 		.4byte	.LVL376
 11897 1249 0100     		.2byte	0x1
 11898 124b 52       		.byte	0x52
 11899 124c 26130000 		.4byte	.LVL378
 11900 1250 96130000 		.4byte	.LVL392
 11901 1254 0100     		.2byte	0x1
 11902 1256 52       		.byte	0x52
 11903 1257 C0130000 		.4byte	.LVL396
 11904 125b 18140000 		.4byte	.LVL409
 11905 125f 0100     		.2byte	0x1
 11906 1261 52       		.byte	0x52
 11907 1262 20140000 		.4byte	.LVL410
 11908 1266 94140000 		.4byte	.LVL426
 11909 126a 0100     		.2byte	0x1
 11910 126c 52       		.byte	0x52
 11911 126d BA140000 		.4byte	.LVL430
 11912 1271 9A150000 		.4byte	.LVL457
 11913 1275 0100     		.2byte	0x1
 11914 1277 59       		.byte	0x59
 11915 1278 C8150000 		.4byte	.LVL463
 11916 127c FE150000 		.4byte	.LVL470
 11917 1280 0100     		.2byte	0x1
ARM GAS  C:\Users\jo\AppData\Local\Temp\ccdgtuym.s 			page 211


 11918 1282 59       		.byte	0x59
 11919 1283 FE150000 		.4byte	.LVL470
 11920 1287 12160000 		.4byte	.LVL475
 11921 128b 0D00     		.2byte	0xd
 11922 128d 79       		.byte	0x79
 11923 128e 00       		.sleb128 0
 11924 128f 3A       		.byte	0x3a
 11925 1290 14       		.byte	0x14
 11926 1291 14       		.byte	0x14
 11927 1292 24       		.byte	0x24
 11928 1293 17       		.byte	0x17
 11929 1294 1F       		.byte	0x1f
 11930 1295 23       		.byte	0x23
 11931 1296 20       		.uleb128 0x20
 11932 1297 25       		.byte	0x25
 11933 1298 21       		.byte	0x21
 11934 1299 9F       		.byte	0x9f
 11935 129a 00000000 		.4byte	0
 11936 129e 00000000 		.4byte	0
 11937              	.LLST15:
 11938 12a2 58050000 		.4byte	.LVL22
 11939 12a6 5A050000 		.4byte	.LVL23
 11940 12aa 0D00     		.2byte	0xd
 11941 12ac 76       		.byte	0x76
 11942 12ad 00       		.sleb128 0
 11943 12ae 20       		.byte	0x20
 11944 12af 78       		.byte	0x78
 11945 12b0 00       		.sleb128 0
 11946 12b1 21       		.byte	0x21
 11947 12b2 7E       		.byte	0x7e
 11948 12b3 00       		.sleb128 0
 11949 12b4 27       		.byte	0x27
 11950 12b5 7C       		.byte	0x7c
 11951 12b6 00       		.sleb128 0
 11952 12b7 22       		.byte	0x22
 11953 12b8 9F       		.byte	0x9f
 11954 12b9 5A050000 		.4byte	.LVL23
 11955 12bd D8050000 		.4byte	.LVL39
 11956 12c1 0100     		.2byte	0x1
 11957 12c3 57       		.byte	0x57
 11958 12c4 E0050000 		.4byte	.LVL41
 11959 12c8 64060000 		.4byte	.LVL55
 11960 12cc 0100     		.2byte	0x1
 11961 12ce 57       		.byte	0x57
 11962 12cf 9E060000 		.4byte	.LVL61
 11963 12d3 BA070000 		.4byte	.LVL92
 11964 12d7 0100     		.2byte	0x1
 11965 12d9 5C       		.byte	0x5c
 11966 12da D2070000 		.4byte	.LVL96
 11967 12de E0070000 		.4byte	.LVL98
 11968 12e2 1400     		.2byte	0x14
 11969 12e4 73       		.byte	0x73
 11970 12e5 00       		.sleb128 0
 11971 12e6 91       		.byte	0x91
 11972 12e7 F47E     		.sleb128 -140
 11973 12e9 06       		.byte	0x6
 11974 12ea 1A       		.byte	0x1a
ARM GAS  C:\Users\jo\AppData\Local\Temp\ccdgtuym.s 			page 212


 11975 12eb 91       		.byte	0x91
 11976 12ec F47E     		.sleb128 -140
 11977 12ee 06       		.byte	0x6
 11978 12ef 20       		.byte	0x20
 11979 12f0 78       		.byte	0x78
 11980 12f1 00       		.sleb128 0
 11981 12f2 1A       		.byte	0x1a
 11982 12f3 21       		.byte	0x21
 11983 12f4 7C       		.byte	0x7c
 11984 12f5 00       		.sleb128 0
 11985 12f6 22       		.byte	0x22
 11986 12f7 9F       		.byte	0x9f
 11987 12f8 E0070000 		.4byte	.LVL98
 11988 12fc 08090000 		.4byte	.LVL128
 11989 1300 0100     		.2byte	0x1
 11990 1302 52       		.byte	0x52
 11991 1303 40090000 		.4byte	.LVL133
 11992 1307 C0090000 		.4byte	.LVL147
 11993 130b 0100     		.2byte	0x1
 11994 130d 51       		.byte	0x51
 11995 130e C4090000 		.4byte	.LVL148
 11996 1312 860A0000 		.4byte	.LVL169
 11997 1316 0100     		.2byte	0x1
 11998 1318 51       		.byte	0x51
 11999 1319 A60A0000 		.4byte	.LVL171
 12000 131d 980B0000 		.4byte	.LVL196
 12001 1321 0100     		.2byte	0x1
 12002 1323 51       		.byte	0x51
 12003 1324 BC0B0000 		.4byte	.LVL199
 12004 1328 C80C0000 		.4byte	.LVL230
 12005 132c 0100     		.2byte	0x1
 12006 132e 51       		.byte	0x51
 12007 132f 040D0000 		.4byte	.LVL234
 12008 1333 F40D0000 		.4byte	.LVL256
 12009 1337 0100     		.2byte	0x1
 12010 1339 51       		.byte	0x51
 12011 133a 3A0E0000 		.4byte	.LVL262
 12012 133e 820E0000 		.4byte	.LVL269
 12013 1342 0100     		.2byte	0x1
 12014 1344 51       		.byte	0x51
 12015 1345 9E0F0000 		.4byte	.LVL293
 12016 1349 CE100000 		.4byte	.LVL321
 12017 134d 0100     		.2byte	0x1
 12018 134f 51       		.byte	0x51
 12019 1350 10110000 		.4byte	.LVL327
 12020 1354 18120000 		.4byte	.LVL353
 12021 1358 0100     		.2byte	0x1
 12022 135a 51       		.byte	0x51
 12023 135b 5E120000 		.4byte	.LVL358
 12024 135f D0120000 		.4byte	.LVL369
 12025 1363 0100     		.2byte	0x1
 12026 1365 51       		.byte	0x51
 12027 1366 FC120000 		.4byte	.LVL371
 12028 136a 62130000 		.4byte	.LVL385
 12029 136e 0100     		.2byte	0x1
 12030 1370 51       		.byte	0x51
 12031 1371 90130000 		.4byte	.LVL391
ARM GAS  C:\Users\jo\AppData\Local\Temp\ccdgtuym.s 			page 213


 12032 1375 E6130000 		.4byte	.LVL402
 12033 1379 0100     		.2byte	0x1
 12034 137b 58       		.byte	0x58
 12035 137c F2130000 		.4byte	.LVL403
 12036 1380 62140000 		.4byte	.LVL420
 12037 1384 0100     		.2byte	0x1
 12038 1386 58       		.byte	0x58
 12039 1387 8E140000 		.4byte	.LVL425
 12040 138b 68150000 		.4byte	.LVL451
 12041 138f 0100     		.2byte	0x1
 12042 1391 53       		.byte	0x53
 12043 1392 94150000 		.4byte	.LVL456
 12044 1396 08160000 		.4byte	.LVL473
 12045 139a 0100     		.2byte	0x1
 12046 139c 5E       		.byte	0x5e
 12047 139d 00000000 		.4byte	0
 12048 13a1 00000000 		.4byte	0
 12049              	.LLST16:
 12050 13a5 C2000000 		.4byte	.LVL10
 12051 13a9 E6000000 		.4byte	.LVL11
 12052 13ad 0C00     		.2byte	0xc
 12053 13af 91       		.byte	0x91
 12054 13b0 9C7E     		.sleb128 -228
 12055 13b2 93       		.byte	0x93
 12056 13b3 04       		.uleb128 0x4
 12057 13b4 91       		.byte	0x91
 12058 13b5 A07E     		.sleb128 -224
 12059 13b7 93       		.byte	0x93
 12060 13b8 04       		.uleb128 0x4
 12061 13b9 93       		.byte	0x93
 12062 13ba 38       		.uleb128 0x38
 12063 13bb 3E160000 		.4byte	.LVL482
 12064 13bf 4C160000 		.4byte	.LVL483
 12065 13c3 1800     		.2byte	0x18
 12066 13c5 93       		.byte	0x93
 12067 13c6 10       		.uleb128 0x10
 12068 13c7 91       		.byte	0x91
 12069 13c8 AC7E     		.sleb128 -212
 12070 13ca 93       		.byte	0x93
 12071 13cb 04       		.uleb128 0x4
 12072 13cc 91       		.byte	0x91
 12073 13cd B07E     		.sleb128 -208
 12074 13cf 93       		.byte	0x93
 12075 13d0 04       		.uleb128 0x4
 12076 13d1 91       		.byte	0x91
 12077 13d2 B47E     		.sleb128 -204
 12078 13d4 93       		.byte	0x93
 12079 13d5 04       		.uleb128 0x4
 12080 13d6 91       		.byte	0x91
 12081 13d7 B87E     		.sleb128 -200
 12082 13d9 93       		.byte	0x93
 12083 13da 04       		.uleb128 0x4
 12084 13db 93       		.byte	0x93
 12085 13dc 20       		.uleb128 0x20
 12086 13dd 4C160000 		.4byte	.LVL483
 12087 13e1 50160000 		.4byte	.LFE4
 12088 13e5 1800     		.2byte	0x18
ARM GAS  C:\Users\jo\AppData\Local\Temp\ccdgtuym.s 			page 214


 12089 13e7 93       		.byte	0x93
 12090 13e8 10       		.uleb128 0x10
 12091 13e9 7D       		.byte	0x7d
 12092 13ea AC7E     		.sleb128 -212
 12093 13ec 93       		.byte	0x93
 12094 13ed 04       		.uleb128 0x4
 12095 13ee 7D       		.byte	0x7d
 12096 13ef B07E     		.sleb128 -208
 12097 13f1 93       		.byte	0x93
 12098 13f2 04       		.uleb128 0x4
 12099 13f3 7D       		.byte	0x7d
 12100 13f4 B47E     		.sleb128 -204
 12101 13f6 93       		.byte	0x93
 12102 13f7 04       		.uleb128 0x4
 12103 13f8 7D       		.byte	0x7d
 12104 13f9 B87E     		.sleb128 -200
 12105 13fb 93       		.byte	0x93
 12106 13fc 04       		.uleb128 0x4
 12107 13fd 93       		.byte	0x93
 12108 13fe 20       		.uleb128 0x20
 12109 13ff 00000000 		.4byte	0
 12110 1403 00000000 		.4byte	0
 12111              	.LLST17:
 12112 1407 00000000 		.4byte	.LVL484
 12113 140b 08000000 		.4byte	.LVL485
 12114 140f 0100     		.2byte	0x1
 12115 1411 50       		.byte	0x50
 12116 1412 08000000 		.4byte	.LVL485
 12117 1416 8E000000 		.4byte	.LVL502
 12118 141a 0100     		.2byte	0x1
 12119 141c 56       		.byte	0x56
 12120 141d 8E000000 		.4byte	.LVL502
 12121 1421 92000000 		.4byte	.LFE15
 12122 1425 0400     		.2byte	0x4
 12123 1427 F3       		.byte	0xf3
 12124 1428 01       		.uleb128 0x1
 12125 1429 50       		.byte	0x50
 12126 142a 9F       		.byte	0x9f
 12127 142b 00000000 		.4byte	0
 12128 142f 00000000 		.4byte	0
 12129              	.LLST18:
 12130 1433 00000000 		.4byte	.LVL484
 12131 1437 2C000000 		.4byte	.LVL487
 12132 143b 0100     		.2byte	0x1
 12133 143d 51       		.byte	0x51
 12134 143e 2C000000 		.4byte	.LVL487
 12135 1442 2E000000 		.4byte	.LVL488
 12136 1446 0100     		.2byte	0x1
 12137 1448 59       		.byte	0x59
 12138 1449 32000000 		.4byte	.LVL489
 12139 144d 38000000 		.4byte	.LVL490
 12140 1451 0100     		.2byte	0x1
 12141 1453 51       		.byte	0x51
 12142 1454 38000000 		.4byte	.LVL490
 12143 1458 5A000000 		.4byte	.LVL497
 12144 145c 0100     		.2byte	0x1
 12145 145e 59       		.byte	0x59
ARM GAS  C:\Users\jo\AppData\Local\Temp\ccdgtuym.s 			page 215


 12146 145f 5A000000 		.4byte	.LVL497
 12147 1463 80000000 		.4byte	.LVL501
 12148 1467 0100     		.2byte	0x1
 12149 1469 54       		.byte	0x54
 12150 146a 00000000 		.4byte	0
 12151 146e 00000000 		.4byte	0
 12152              	.LLST19:
 12153 1472 00000000 		.4byte	.LVL484
 12154 1476 2C000000 		.4byte	.LVL487
 12155 147a 0100     		.2byte	0x1
 12156 147c 52       		.byte	0x52
 12157 147d 2C000000 		.4byte	.LVL487
 12158 1481 2E000000 		.4byte	.LVL488
 12159 1485 0100     		.2byte	0x1
 12160 1487 57       		.byte	0x57
 12161 1488 32000000 		.4byte	.LVL489
 12162 148c 3A000000 		.4byte	.LVL491
 12163 1490 0100     		.2byte	0x1
 12164 1492 52       		.byte	0x52
 12165 1493 3A000000 		.4byte	.LVL491
 12166 1497 4C000000 		.4byte	.LVL494
 12167 149b 0100     		.2byte	0x1
 12168 149d 57       		.byte	0x57
 12169 149e 4C000000 		.4byte	.LVL494
 12170 14a2 4E000000 		.4byte	.LVL495
 12171 14a6 0400     		.2byte	0x4
 12172 14a8 F3       		.byte	0xf3
 12173 14a9 01       		.uleb128 0x1
 12174 14aa 52       		.byte	0x52
 12175 14ab 9F       		.byte	0x9f
 12176 14ac 4E000000 		.4byte	.LVL495
 12177 14b0 5A000000 		.4byte	.LVL497
 12178 14b4 0100     		.2byte	0x1
 12179 14b6 57       		.byte	0x57
 12180 14b7 5A000000 		.4byte	.LVL497
 12181 14bb 5E000000 		.4byte	.LVL498
 12182 14bf 0100     		.2byte	0x1
 12183 14c1 55       		.byte	0x55
 12184 14c2 5E000000 		.4byte	.LVL498
 12185 14c6 6A000000 		.4byte	.LVL500
 12186 14ca 0400     		.2byte	0x4
 12187 14cc 75       		.byte	0x75
 12188 14cd C000     		.sleb128 64
 12189 14cf 9F       		.byte	0x9f
 12190 14d0 6A000000 		.4byte	.LVL500
 12191 14d4 80000000 		.4byte	.LVL501
 12192 14d8 0100     		.2byte	0x1
 12193 14da 55       		.byte	0x55
 12194 14db 00000000 		.4byte	0
 12195 14df 00000000 		.4byte	0
 12196              	.LLST20:
 12197 14e3 16000000 		.4byte	.LVL486
 12198 14e7 2C000000 		.4byte	.LVL487
 12199 14eb 0600     		.2byte	0x6
 12200 14ed 08       		.byte	0x8
 12201 14ee 40       		.byte	0x40
 12202 14ef 78       		.byte	0x78
ARM GAS  C:\Users\jo\AppData\Local\Temp\ccdgtuym.s 			page 216


 12203 14f0 00       		.sleb128 0
 12204 14f1 1C       		.byte	0x1c
 12205 14f2 9F       		.byte	0x9f
 12206 14f3 32000000 		.4byte	.LVL489
 12207 14f7 52000000 		.4byte	.LVL496
 12208 14fb 0600     		.2byte	0x6
 12209 14fd 08       		.byte	0x8
 12210 14fe 40       		.byte	0x40
 12211 14ff 78       		.byte	0x78
 12212 1500 00       		.sleb128 0
 12213 1501 1C       		.byte	0x1c
 12214 1502 9F       		.byte	0x9f
 12215 1503 00000000 		.4byte	0
 12216 1507 00000000 		.4byte	0
 12217              	.LLST21:
 12218 150b 16000000 		.4byte	.LVL486
 12219 150f 2E000000 		.4byte	.LVL488
 12220 1513 0100     		.2byte	0x1
 12221 1515 58       		.byte	0x58
 12222 1516 32000000 		.4byte	.LVL489
 12223 151a 4E000000 		.4byte	.LVL495
 12224 151e 0100     		.2byte	0x1
 12225 1520 58       		.byte	0x58
 12226 1521 4E000000 		.4byte	.LVL495
 12227 1525 52000000 		.4byte	.LVL496
 12228 1529 0200     		.2byte	0x2
 12229 152b 30       		.byte	0x30
 12230 152c 9F       		.byte	0x9f
 12231 152d 52000000 		.4byte	.LVL496
 12232 1531 5A000000 		.4byte	.LVL497
 12233 1535 0100     		.2byte	0x1
 12234 1537 58       		.byte	0x58
 12235 1538 00000000 		.4byte	0
 12236 153c 00000000 		.4byte	0
 12237              	.LLST22:
 12238 1540 00000000 		.4byte	.LVL504
 12239 1544 05000000 		.4byte	.LVL505-1
 12240 1548 0100     		.2byte	0x1
 12241 154a 50       		.byte	0x50
 12242 154b 05000000 		.4byte	.LVL505-1
 12243 154f 06000000 		.4byte	.LVL505
 12244 1553 0400     		.2byte	0x4
 12245 1555 F3       		.byte	0xf3
 12246 1556 01       		.uleb128 0x1
 12247 1557 50       		.byte	0x50
 12248 1558 9F       		.byte	0x9f
 12249 1559 06000000 		.4byte	.LVL505
 12250 155d 08000000 		.4byte	.LFE5
 12251 1561 0100     		.2byte	0x1
 12252 1563 50       		.byte	0x50
 12253 1564 00000000 		.4byte	0
 12254 1568 00000000 		.4byte	0
 12255              	.LLST23:
 12256 156c 00000000 		.4byte	.LVL504
 12257 1570 05000000 		.4byte	.LVL505-1
 12258 1574 0100     		.2byte	0x1
 12259 1576 51       		.byte	0x51
ARM GAS  C:\Users\jo\AppData\Local\Temp\ccdgtuym.s 			page 217


 12260 1577 05000000 		.4byte	.LVL505-1
 12261 157b 06000000 		.4byte	.LVL505
 12262 157f 0400     		.2byte	0x4
 12263 1581 F3       		.byte	0xf3
 12264 1582 01       		.uleb128 0x1
 12265 1583 51       		.byte	0x51
 12266 1584 9F       		.byte	0x9f
 12267 1585 06000000 		.4byte	.LVL505
 12268 1589 08000000 		.4byte	.LFE5
 12269 158d 0100     		.2byte	0x1
 12270 158f 51       		.byte	0x51
 12271 1590 00000000 		.4byte	0
 12272 1594 00000000 		.4byte	0
 12273              	.LLST24:
 12274 1598 00000000 		.4byte	.LVL504
 12275 159c 05000000 		.4byte	.LVL505-1
 12276 15a0 0100     		.2byte	0x1
 12277 15a2 52       		.byte	0x52
 12278 15a3 05000000 		.4byte	.LVL505-1
 12279 15a7 06000000 		.4byte	.LVL505
 12280 15ab 0400     		.2byte	0x4
 12281 15ad F3       		.byte	0xf3
 12282 15ae 01       		.uleb128 0x1
 12283 15af 52       		.byte	0x52
 12284 15b0 9F       		.byte	0x9f
 12285 15b1 06000000 		.4byte	.LVL505
 12286 15b5 08000000 		.4byte	.LFE5
 12287 15b9 0100     		.2byte	0x1
 12288 15bb 52       		.byte	0x52
 12289 15bc 00000000 		.4byte	0
 12290 15c0 00000000 		.4byte	0
 12291              	.LLST25:
 12292 15c4 00000000 		.4byte	.LVL506
 12293 15c8 20000000 		.4byte	.LVL511
 12294 15cc 0100     		.2byte	0x1
 12295 15ce 50       		.byte	0x50
 12296 15cf 20000000 		.4byte	.LVL511
 12297 15d3 CC000000 		.4byte	.LVL518
 12298 15d7 0100     		.2byte	0x1
 12299 15d9 54       		.byte	0x54
 12300 15da CC000000 		.4byte	.LVL518
 12301 15de D0000000 		.4byte	.LFE6
 12302 15e2 0400     		.2byte	0x4
 12303 15e4 F3       		.byte	0xf3
 12304 15e5 01       		.uleb128 0x1
 12305 15e6 50       		.byte	0x50
 12306 15e7 9F       		.byte	0x9f
 12307 15e8 00000000 		.4byte	0
 12308 15ec 00000000 		.4byte	0
 12309              	.LLST26:
 12310 15f0 00000000 		.4byte	.LVL506
 12311 15f4 0A000000 		.4byte	.LVL507
 12312 15f8 0100     		.2byte	0x1
 12313 15fa 51       		.byte	0x51
 12314 15fb 0A000000 		.4byte	.LVL507
 12315 15ff CC000000 		.4byte	.LVL518
 12316 1603 0100     		.2byte	0x1
ARM GAS  C:\Users\jo\AppData\Local\Temp\ccdgtuym.s 			page 218


 12317 1605 55       		.byte	0x55
 12318 1606 CC000000 		.4byte	.LVL518
 12319 160a D0000000 		.4byte	.LFE6
 12320 160e 0400     		.2byte	0x4
 12321 1610 F3       		.byte	0xf3
 12322 1611 01       		.uleb128 0x1
 12323 1612 51       		.byte	0x51
 12324 1613 9F       		.byte	0x9f
 12325 1614 00000000 		.4byte	0
 12326 1618 00000000 		.4byte	0
 12327              	.LLST27:
 12328 161c 18000000 		.4byte	.LVL510
 12329 1620 32000000 		.4byte	.LVL512
 12330 1624 0100     		.2byte	0x1
 12331 1626 52       		.byte	0x52
 12332 1627 32000000 		.4byte	.LVL512
 12333 162b 61000000 		.4byte	.LVL515-1
 12334 162f 0700     		.2byte	0x7
 12335 1631 74       		.byte	0x74
 12336 1632 00       		.sleb128 0
 12337 1633 06       		.byte	0x6
 12338 1634 08       		.byte	0x8
 12339 1635 3F       		.byte	0x3f
 12340 1636 1A       		.byte	0x1a
 12341 1637 9F       		.byte	0x9f
 12342 1638 00000000 		.4byte	0
 12343 163c 00000000 		.4byte	0
 12344              	.LLST28:
 12345 1640 36000000 		.4byte	.LVL513
 12346 1644 61000000 		.4byte	.LVL515-1
 12347 1648 0100     		.2byte	0x1
 12348 164a 52       		.byte	0x52
 12349 164b 00000000 		.4byte	0
 12350 164f 00000000 		.4byte	0
 12351              	.LLST29:
 12352 1653 12000000 		.4byte	.LVL508
 12353 1657 61000000 		.4byte	.LVL515-1
 12354 165b 0100     		.2byte	0x1
 12355 165d 53       		.byte	0x53
 12356 165e 00000000 		.4byte	0
 12357 1662 00000000 		.4byte	0
 12358              	.LLST30:
 12359 1666 14000000 		.4byte	.LVL509
 12360 166a 44000000 		.4byte	.LVL514
 12361 166e 0100     		.2byte	0x1
 12362 1670 51       		.byte	0x51
 12363 1671 44000000 		.4byte	.LVL514
 12364 1675 61000000 		.4byte	.LVL515-1
 12365 1679 0600     		.2byte	0x6
 12366 167b 74       		.byte	0x74
 12367 167c 00       		.sleb128 0
 12368 167d 06       		.byte	0x6
 12369 167e 33       		.byte	0x33
 12370 167f 24       		.byte	0x24
 12371 1680 9F       		.byte	0x9f
 12372 1681 00000000 		.4byte	0
 12373 1685 00000000 		.4byte	0
ARM GAS  C:\Users\jo\AppData\Local\Temp\ccdgtuym.s 			page 219


 12374              	.LLST32:
 12375 1689 36000000 		.4byte	.LVL513
 12376 168d CC000000 		.4byte	.LVL518
 12377 1691 0100     		.2byte	0x1
 12378 1693 54       		.byte	0x54
 12379 1694 CC000000 		.4byte	.LVL518
 12380 1698 D0000000 		.4byte	.LFE6
 12381 169c 0400     		.2byte	0x4
 12382 169e F3       		.byte	0xf3
 12383 169f 01       		.uleb128 0x1
 12384 16a0 50       		.byte	0x50
 12385 16a1 9F       		.byte	0x9f
 12386 16a2 00000000 		.4byte	0
 12387 16a6 00000000 		.4byte	0
 12388              	.LLST33:
 12389 16aa 62000000 		.4byte	.LVL515
 12390 16ae C8000000 		.4byte	.LVL517
 12391 16b2 0100     		.2byte	0x1
 12392 16b4 5D       		.byte	0x5d
 12393 16b5 C8000000 		.4byte	.LVL517
 12394 16b9 CC000000 		.4byte	.LVL518
 12395 16bd 0300     		.2byte	0x3
 12396 16bf 91       		.byte	0x91
 12397 16c0 60       		.sleb128 -32
 12398 16c1 9F       		.byte	0x9f
 12399 16c2 CC000000 		.4byte	.LVL518
 12400 16c6 D0000000 		.4byte	.LFE6
 12401 16ca 0300     		.2byte	0x3
 12402 16cc 7D       		.byte	0x7d
 12403 16cd 60       		.sleb128 -32
 12404 16ce 9F       		.byte	0x9f
 12405 16cf 00000000 		.4byte	0
 12406 16d3 00000000 		.4byte	0
 12407              	.LLST34:
 12408 16d7 62000000 		.4byte	.LVL515
 12409 16db CC000000 		.4byte	.LVL518
 12410 16df 0100     		.2byte	0x1
 12411 16e1 54       		.byte	0x54
 12412 16e2 CC000000 		.4byte	.LVL518
 12413 16e6 D0000000 		.4byte	.LFE6
 12414 16ea 0400     		.2byte	0x4
 12415 16ec F3       		.byte	0xf3
 12416 16ed 01       		.uleb128 0x1
 12417 16ee 50       		.byte	0x50
 12418 16ef 9F       		.byte	0x9f
 12419 16f0 00000000 		.4byte	0
 12420 16f4 00000000 		.4byte	0
 12421              	.LLST35:
 12422 16f8 00000000 		.4byte	.LVL519
 12423 16fc 10000000 		.4byte	.LVL523
 12424 1700 0100     		.2byte	0x1
 12425 1702 50       		.byte	0x50
 12426 1703 10000000 		.4byte	.LVL523
 12427 1707 64000000 		.4byte	.LFE7
 12428 170b 0100     		.2byte	0x1
 12429 170d 57       		.byte	0x57
 12430 170e 00000000 		.4byte	0
ARM GAS  C:\Users\jo\AppData\Local\Temp\ccdgtuym.s 			page 220


 12431 1712 00000000 		.4byte	0
 12432              	.LLST36:
 12433 1716 00000000 		.4byte	.LVL519
 12434 171a 0C000000 		.4byte	.LVL521
 12435 171e 0100     		.2byte	0x1
 12436 1720 51       		.byte	0x51
 12437 1721 0C000000 		.4byte	.LVL521
 12438 1725 64000000 		.4byte	.LFE7
 12439 1729 0100     		.2byte	0x1
 12440 172b 54       		.byte	0x54
 12441 172c 00000000 		.4byte	0
 12442 1730 00000000 		.4byte	0
 12443              	.LLST37:
 12444 1734 00000000 		.4byte	.LVL519
 12445 1738 0E000000 		.4byte	.LVL522
 12446 173c 0100     		.2byte	0x1
 12447 173e 52       		.byte	0x52
 12448 173f 0E000000 		.4byte	.LVL522
 12449 1743 64000000 		.4byte	.LFE7
 12450 1747 0100     		.2byte	0x1
 12451 1749 55       		.byte	0x55
 12452 174a 00000000 		.4byte	0
 12453 174e 00000000 		.4byte	0
 12454              	.LLST38:
 12455 1752 04000000 		.4byte	.LVL520
 12456 1756 10000000 		.4byte	.LVL523
 12457 175a 0400     		.2byte	0x4
 12458 175c 91       		.byte	0x91
 12459 175d 8C7E     		.sleb128 -244
 12460 175f 9F       		.byte	0x9f
 12461 1760 10000000 		.4byte	.LVL523
 12462 1764 13000000 		.4byte	.LVL524-1
 12463 1768 0100     		.2byte	0x1
 12464 176a 50       		.byte	0x50
 12465 176b 13000000 		.4byte	.LVL524-1
 12466 176f 2E000000 		.4byte	.LVL526
 12467 1773 0400     		.2byte	0x4
 12468 1775 91       		.byte	0x91
 12469 1776 8C7E     		.sleb128 -244
 12470 1778 9F       		.byte	0x9f
 12471 1779 2E000000 		.4byte	.LVL526
 12472 177d 31000000 		.4byte	.LVL527-1
 12473 1781 0100     		.2byte	0x1
 12474 1783 50       		.byte	0x50
 12475 1784 31000000 		.4byte	.LVL527-1
 12476 1788 34000000 		.4byte	.LVL528
 12477 178c 0400     		.2byte	0x4
 12478 178e 91       		.byte	0x91
 12479 178f 8C7E     		.sleb128 -244
 12480 1791 9F       		.byte	0x9f
 12481 1792 34000000 		.4byte	.LVL528
 12482 1796 36000000 		.4byte	.LVL529
 12483 179a 0100     		.2byte	0x1
 12484 179c 53       		.byte	0x53
 12485 179d 36000000 		.4byte	.LVL529
 12486 17a1 4A000000 		.4byte	.LVL533
 12487 17a5 0400     		.2byte	0x4
ARM GAS  C:\Users\jo\AppData\Local\Temp\ccdgtuym.s 			page 221


 12488 17a7 91       		.byte	0x91
 12489 17a8 8C7E     		.sleb128 -244
 12490 17aa 9F       		.byte	0x9f
 12491 17ab 4A000000 		.4byte	.LVL533
 12492 17af 4D000000 		.4byte	.LVL534-1
 12493 17b3 0100     		.2byte	0x1
 12494 17b5 50       		.byte	0x50
 12495 17b6 4D000000 		.4byte	.LVL534-1
 12496 17ba 64000000 		.4byte	.LFE7
 12497 17be 0400     		.2byte	0x4
 12498 17c0 91       		.byte	0x91
 12499 17c1 8C7E     		.sleb128 -244
 12500 17c3 9F       		.byte	0x9f
 12501 17c4 00000000 		.4byte	0
 12502 17c8 00000000 		.4byte	0
 12503              	.LLST39:
 12504 17cc 14000000 		.4byte	.LVL524
 12505 17d0 2E000000 		.4byte	.LVL526
 12506 17d4 0400     		.2byte	0x4
 12507 17d6 91       		.byte	0x91
 12508 17d7 8C7E     		.sleb128 -244
 12509 17d9 9F       		.byte	0x9f
 12510 17da 2E000000 		.4byte	.LVL526
 12511 17de 31000000 		.4byte	.LVL527-1
 12512 17e2 0100     		.2byte	0x1
 12513 17e4 50       		.byte	0x50
 12514 17e5 31000000 		.4byte	.LVL527-1
 12515 17e9 34000000 		.4byte	.LVL528
 12516 17ed 0400     		.2byte	0x4
 12517 17ef 91       		.byte	0x91
 12518 17f0 8C7E     		.sleb128 -244
 12519 17f2 9F       		.byte	0x9f
 12520 17f3 34000000 		.4byte	.LVL528
 12521 17f7 36000000 		.4byte	.LVL529
 12522 17fb 0100     		.2byte	0x1
 12523 17fd 53       		.byte	0x53
 12524 17fe 36000000 		.4byte	.LVL529
 12525 1802 4A000000 		.4byte	.LVL533
 12526 1806 0400     		.2byte	0x4
 12527 1808 91       		.byte	0x91
 12528 1809 8C7E     		.sleb128 -244
 12529 180b 9F       		.byte	0x9f
 12530 180c 4A000000 		.4byte	.LVL533
 12531 1810 4D000000 		.4byte	.LVL534-1
 12532 1814 0100     		.2byte	0x1
 12533 1816 50       		.byte	0x50
 12534 1817 4D000000 		.4byte	.LVL534-1
 12535 181b 64000000 		.4byte	.LFE7
 12536 181f 0400     		.2byte	0x4
 12537 1821 91       		.byte	0x91
 12538 1822 8C7E     		.sleb128 -244
 12539 1824 9F       		.byte	0x9f
 12540 1825 00000000 		.4byte	0
 12541 1829 00000000 		.4byte	0
 12542              	.LLST40:
 12543 182d 28000000 		.4byte	.LVL525
 12544 1831 2E000000 		.4byte	.LVL526
ARM GAS  C:\Users\jo\AppData\Local\Temp\ccdgtuym.s 			page 222


 12545 1835 0400     		.2byte	0x4
 12546 1837 91       		.byte	0x91
 12547 1838 8C7E     		.sleb128 -244
 12548 183a 9F       		.byte	0x9f
 12549 183b 2E000000 		.4byte	.LVL526
 12550 183f 31000000 		.4byte	.LVL527-1
 12551 1843 0100     		.2byte	0x1
 12552 1845 50       		.byte	0x50
 12553 1846 31000000 		.4byte	.LVL527-1
 12554 184a 34000000 		.4byte	.LVL528
 12555 184e 0400     		.2byte	0x4
 12556 1850 91       		.byte	0x91
 12557 1851 8C7E     		.sleb128 -244
 12558 1853 9F       		.byte	0x9f
 12559 1854 34000000 		.4byte	.LVL528
 12560 1858 36000000 		.4byte	.LVL529
 12561 185c 0100     		.2byte	0x1
 12562 185e 53       		.byte	0x53
 12563 185f 36000000 		.4byte	.LVL529
 12564 1863 4A000000 		.4byte	.LVL533
 12565 1867 0400     		.2byte	0x4
 12566 1869 91       		.byte	0x91
 12567 186a 8C7E     		.sleb128 -244
 12568 186c 9F       		.byte	0x9f
 12569 186d 4A000000 		.4byte	.LVL533
 12570 1871 4D000000 		.4byte	.LVL534-1
 12571 1875 0100     		.2byte	0x1
 12572 1877 50       		.byte	0x50
 12573 1878 4D000000 		.4byte	.LVL534-1
 12574 187c 64000000 		.4byte	.LFE7
 12575 1880 0400     		.2byte	0x4
 12576 1882 91       		.byte	0x91
 12577 1883 8C7E     		.sleb128 -244
 12578 1885 9F       		.byte	0x9f
 12579 1886 00000000 		.4byte	0
 12580 188a 00000000 		.4byte	0
 12581              	.LLST41:
 12582 188e 32000000 		.4byte	.LVL527
 12583 1892 34000000 		.4byte	.LVL528
 12584 1896 0400     		.2byte	0x4
 12585 1898 91       		.byte	0x91
 12586 1899 8C7E     		.sleb128 -244
 12587 189b 9F       		.byte	0x9f
 12588 189c 34000000 		.4byte	.LVL528
 12589 18a0 36000000 		.4byte	.LVL529
 12590 18a4 0100     		.2byte	0x1
 12591 18a6 53       		.byte	0x53
 12592 18a7 36000000 		.4byte	.LVL529
 12593 18ab 44000000 		.4byte	.LVL532
 12594 18af 0400     		.2byte	0x4
 12595 18b1 91       		.byte	0x91
 12596 18b2 8C7E     		.sleb128 -244
 12597 18b4 9F       		.byte	0x9f
 12598 18b5 00000000 		.4byte	0
 12599 18b9 00000000 		.4byte	0
 12600              	.LLST42:
 12601 18bd 32000000 		.4byte	.LVL527
ARM GAS  C:\Users\jo\AppData\Local\Temp\ccdgtuym.s 			page 223


 12602 18c1 36000000 		.4byte	.LVL529
 12603 18c5 0300     		.2byte	0x3
 12604 18c7 08       		.byte	0x8
 12605 18c8 DB       		.byte	0xdb
 12606 18c9 9F       		.byte	0x9f
 12607 18ca 36000000 		.4byte	.LVL529
 12608 18ce 38000000 		.4byte	.LVL530
 12609 18d2 0800     		.2byte	0x8
 12610 18d4 91       		.byte	0x91
 12611 18d5 00       		.sleb128 0
 12612 18d6 73       		.byte	0x73
 12613 18d7 00       		.sleb128 0
 12614 18d8 1C       		.byte	0x1c
 12615 18d9 49       		.byte	0x49
 12616 18da 1C       		.byte	0x1c
 12617 18db 9F       		.byte	0x9f
 12618 18dc 38000000 		.4byte	.LVL530
 12619 18e0 3C000000 		.4byte	.LVL531
 12620 18e4 0800     		.2byte	0x8
 12621 18e6 91       		.byte	0x91
 12622 18e7 00       		.sleb128 0
 12623 18e8 73       		.byte	0x73
 12624 18e9 00       		.sleb128 0
 12625 18ea 1C       		.byte	0x1c
 12626 18eb 4A       		.byte	0x4a
 12627 18ec 1C       		.byte	0x1c
 12628 18ed 9F       		.byte	0x9f
 12629 18ee 3C000000 		.4byte	.LVL531
 12630 18f2 44000000 		.4byte	.LVL532
 12631 18f6 0800     		.2byte	0x8
 12632 18f8 91       		.byte	0x91
 12633 18f9 00       		.sleb128 0
 12634 18fa 73       		.byte	0x73
 12635 18fb 00       		.sleb128 0
 12636 18fc 1C       		.byte	0x1c
 12637 18fd 49       		.byte	0x49
 12638 18fe 1C       		.byte	0x1c
 12639 18ff 9F       		.byte	0x9f
 12640 1900 00000000 		.4byte	0
 12641 1904 00000000 		.4byte	0
 12642              	.LLST43:
 12643 1908 32000000 		.4byte	.LVL527
 12644 190c 34000000 		.4byte	.LVL528
 12645 1910 0400     		.2byte	0x4
 12646 1912 91       		.byte	0x91
 12647 1913 8C7E     		.sleb128 -244
 12648 1915 9F       		.byte	0x9f
 12649 1916 34000000 		.4byte	.LVL528
 12650 191a 36000000 		.4byte	.LVL529
 12651 191e 0100     		.2byte	0x1
 12652 1920 53       		.byte	0x53
 12653 1921 36000000 		.4byte	.LVL529
 12654 1925 3C000000 		.4byte	.LVL531
 12655 1929 0300     		.2byte	0x3
 12656 192b 73       		.byte	0x73
 12657 192c 01       		.sleb128 1
 12658 192d 9F       		.byte	0x9f
ARM GAS  C:\Users\jo\AppData\Local\Temp\ccdgtuym.s 			page 224


 12659 192e 3C000000 		.4byte	.LVL531
 12660 1932 44000000 		.4byte	.LVL532
 12661 1936 0100     		.2byte	0x1
 12662 1938 53       		.byte	0x53
 12663 1939 00000000 		.4byte	0
 12664 193d 00000000 		.4byte	0
 12665              	.LLST44:
 12666 1941 00000000 		.4byte	.LVL535
 12667 1945 0D000000 		.4byte	.LVL537-1
 12668 1949 0100     		.2byte	0x1
 12669 194b 50       		.byte	0x50
 12670 194c 0D000000 		.4byte	.LVL537-1
 12671 1950 A8000000 		.4byte	.LFE8
 12672 1954 0400     		.2byte	0x4
 12673 1956 F3       		.byte	0xf3
 12674 1957 01       		.uleb128 0x1
 12675 1958 50       		.byte	0x50
 12676 1959 9F       		.byte	0x9f
 12677 195a 00000000 		.4byte	0
 12678 195e 00000000 		.4byte	0
 12679              	.LLST45:
 12680 1962 00000000 		.4byte	.LVL535
 12681 1966 0A000000 		.4byte	.LVL536
 12682 196a 0100     		.2byte	0x1
 12683 196c 51       		.byte	0x51
 12684 196d 0A000000 		.4byte	.LVL536
 12685 1971 A8000000 		.4byte	.LFE8
 12686 1975 0100     		.2byte	0x1
 12687 1977 57       		.byte	0x57
 12688 1978 00000000 		.4byte	0
 12689 197c 00000000 		.4byte	0
 12690              	.LLST46:
 12691 1980 0E000000 		.4byte	.LVL537
 12692 1984 1A000000 		.4byte	.LVL539
 12693 1988 0100     		.2byte	0x1
 12694 198a 50       		.byte	0x50
 12695 198b 1A000000 		.4byte	.LVL539
 12696 198f 72000000 		.4byte	.LVL555
 12697 1993 0100     		.2byte	0x1
 12698 1995 56       		.byte	0x56
 12699 1996 72000000 		.4byte	.LVL555
 12700 199a 75000000 		.4byte	.LVL556-1
 12701 199e 0100     		.2byte	0x1
 12702 19a0 50       		.byte	0x50
 12703 19a1 75000000 		.4byte	.LVL556-1
 12704 19a5 7E000000 		.4byte	.LVL558
 12705 19a9 0100     		.2byte	0x1
 12706 19ab 56       		.byte	0x56
 12707 19ac 7E000000 		.4byte	.LVL558
 12708 19b0 81000000 		.4byte	.LVL559-1
 12709 19b4 0100     		.2byte	0x1
 12710 19b6 50       		.byte	0x50
 12711 19b7 81000000 		.4byte	.LVL559-1
 12712 19bb 88000000 		.4byte	.LVL560
 12713 19bf 0100     		.2byte	0x1
 12714 19c1 56       		.byte	0x56
 12715 19c2 88000000 		.4byte	.LVL560
ARM GAS  C:\Users\jo\AppData\Local\Temp\ccdgtuym.s 			page 225


 12716 19c6 8C000000 		.4byte	.LVL561
 12717 19ca 0100     		.2byte	0x1
 12718 19cc 50       		.byte	0x50
 12719 19cd 8C000000 		.4byte	.LVL561
 12720 19d1 A8000000 		.4byte	.LFE8
 12721 19d5 0100     		.2byte	0x1
 12722 19d7 56       		.byte	0x56
 12723 19d8 00000000 		.4byte	0
 12724 19dc 00000000 		.4byte	0
 12725              	.LLST47:
 12726 19e0 42000000 		.4byte	.LVL541
 12727 19e4 4C000000 		.4byte	.LVL544
 12728 19e8 0100     		.2byte	0x1
 12729 19ea 50       		.byte	0x50
 12730 19eb 4C000000 		.4byte	.LVL544
 12731 19ef 4F000000 		.4byte	.LVL545-1
 12732 19f3 0100     		.2byte	0x1
 12733 19f5 52       		.byte	0x52
 12734 19f6 4F000000 		.4byte	.LVL545-1
 12735 19fa 52000000 		.4byte	.LVL546
 12736 19fe 0100     		.2byte	0x1
 12737 1a00 54       		.byte	0x54
 12738 1a01 52000000 		.4byte	.LVL546
 12739 1a05 54000000 		.4byte	.LVL547
 12740 1a09 0100     		.2byte	0x1
 12741 1a0b 50       		.byte	0x50
 12742 1a0c 54000000 		.4byte	.LVL547
 12743 1a10 59000000 		.4byte	.LVL549-1
 12744 1a14 0100     		.2byte	0x1
 12745 1a16 52       		.byte	0x52
 12746 1a17 59000000 		.4byte	.LVL549-1
 12747 1a1b 5E000000 		.4byte	.LVL551
 12748 1a1f 0100     		.2byte	0x1
 12749 1a21 54       		.byte	0x54
 12750 1a22 5E000000 		.4byte	.LVL551
 12751 1a26 70000000 		.4byte	.LVL554
 12752 1a2a 0100     		.2byte	0x1
 12753 1a2c 50       		.byte	0x50
 12754 1a2d 00000000 		.4byte	0
 12755 1a31 00000000 		.4byte	0
 12756              	.LLST48:
 12757 1a35 14000000 		.4byte	.LVL538
 12758 1a39 1A000000 		.4byte	.LVL539
 12759 1a3d 0400     		.2byte	0x4
 12760 1a3f 91       		.byte	0x91
 12761 1a40 8C76     		.sleb128 -1268
 12762 1a42 9F       		.byte	0x9f
 12763 1a43 1A000000 		.4byte	.LVL539
 12764 1a47 1D000000 		.4byte	.LVL540-1
 12765 1a4b 0100     		.2byte	0x1
 12766 1a4d 50       		.byte	0x50
 12767 1a4e 1D000000 		.4byte	.LVL540-1
 12768 1a52 4C000000 		.4byte	.LVL544
 12769 1a56 0400     		.2byte	0x4
 12770 1a58 91       		.byte	0x91
 12771 1a59 8C76     		.sleb128 -1268
 12772 1a5b 9F       		.byte	0x9f
ARM GAS  C:\Users\jo\AppData\Local\Temp\ccdgtuym.s 			page 226


 12773 1a5c 4C000000 		.4byte	.LVL544
 12774 1a60 4F000000 		.4byte	.LVL545-1
 12775 1a64 0100     		.2byte	0x1
 12776 1a66 50       		.byte	0x50
 12777 1a67 4F000000 		.4byte	.LVL545-1
 12778 1a6b 54000000 		.4byte	.LVL547
 12779 1a6f 0400     		.2byte	0x4
 12780 1a71 91       		.byte	0x91
 12781 1a72 8C76     		.sleb128 -1268
 12782 1a74 9F       		.byte	0x9f
 12783 1a75 54000000 		.4byte	.LVL547
 12784 1a79 59000000 		.4byte	.LVL549-1
 12785 1a7d 0100     		.2byte	0x1
 12786 1a7f 50       		.byte	0x50
 12787 1a80 59000000 		.4byte	.LVL549-1
 12788 1a84 5C000000 		.4byte	.LVL550
 12789 1a88 0400     		.2byte	0x4
 12790 1a8a 91       		.byte	0x91
 12791 1a8b 8C76     		.sleb128 -1268
 12792 1a8d 9F       		.byte	0x9f
 12793 1a8e 5C000000 		.4byte	.LVL550
 12794 1a92 5E000000 		.4byte	.LVL551
 12795 1a96 0100     		.2byte	0x1
 12796 1a98 53       		.byte	0x53
 12797 1a99 5E000000 		.4byte	.LVL551
 12798 1a9d 78000000 		.4byte	.LVL557
 12799 1aa1 0400     		.2byte	0x4
 12800 1aa3 91       		.byte	0x91
 12801 1aa4 8C76     		.sleb128 -1268
 12802 1aa6 9F       		.byte	0x9f
 12803 1aa7 7E000000 		.4byte	.LVL558
 12804 1aab 88000000 		.4byte	.LVL560
 12805 1aaf 0400     		.2byte	0x4
 12806 1ab1 91       		.byte	0x91
 12807 1ab2 8C76     		.sleb128 -1268
 12808 1ab4 9F       		.byte	0x9f
 12809 1ab5 00000000 		.4byte	0
 12810 1ab9 00000000 		.4byte	0
 12811              	.LLST49:
 12812 1abd 1E000000 		.4byte	.LVL540
 12813 1ac1 4C000000 		.4byte	.LVL544
 12814 1ac5 0400     		.2byte	0x4
 12815 1ac7 91       		.byte	0x91
 12816 1ac8 8C76     		.sleb128 -1268
 12817 1aca 9F       		.byte	0x9f
 12818 1acb 4C000000 		.4byte	.LVL544
 12819 1acf 4F000000 		.4byte	.LVL545-1
 12820 1ad3 0100     		.2byte	0x1
 12821 1ad5 50       		.byte	0x50
 12822 1ad6 4F000000 		.4byte	.LVL545-1
 12823 1ada 54000000 		.4byte	.LVL547
 12824 1ade 0400     		.2byte	0x4
 12825 1ae0 91       		.byte	0x91
 12826 1ae1 8C76     		.sleb128 -1268
 12827 1ae3 9F       		.byte	0x9f
 12828 1ae4 54000000 		.4byte	.LVL547
 12829 1ae8 59000000 		.4byte	.LVL549-1
ARM GAS  C:\Users\jo\AppData\Local\Temp\ccdgtuym.s 			page 227


 12830 1aec 0100     		.2byte	0x1
 12831 1aee 50       		.byte	0x50
 12832 1aef 59000000 		.4byte	.LVL549-1
 12833 1af3 5C000000 		.4byte	.LVL550
 12834 1af7 0400     		.2byte	0x4
 12835 1af9 91       		.byte	0x91
 12836 1afa 8C76     		.sleb128 -1268
 12837 1afc 9F       		.byte	0x9f
 12838 1afd 5C000000 		.4byte	.LVL550
 12839 1b01 5E000000 		.4byte	.LVL551
 12840 1b05 0100     		.2byte	0x1
 12841 1b07 53       		.byte	0x53
 12842 1b08 5E000000 		.4byte	.LVL551
 12843 1b0c 78000000 		.4byte	.LVL557
 12844 1b10 0400     		.2byte	0x4
 12845 1b12 91       		.byte	0x91
 12846 1b13 8C76     		.sleb128 -1268
 12847 1b15 9F       		.byte	0x9f
 12848 1b16 7E000000 		.4byte	.LVL558
 12849 1b1a 88000000 		.4byte	.LVL560
 12850 1b1e 0400     		.2byte	0x4
 12851 1b20 91       		.byte	0x91
 12852 1b21 8C76     		.sleb128 -1268
 12853 1b23 9F       		.byte	0x9f
 12854 1b24 00000000 		.4byte	0
 12855 1b28 00000000 		.4byte	0
 12856              	.LLST50:
 12857 1b2c 46000000 		.4byte	.LVL542
 12858 1b30 4C000000 		.4byte	.LVL544
 12859 1b34 0100     		.2byte	0x1
 12860 1b36 50       		.byte	0x50
 12861 1b37 4C000000 		.4byte	.LVL544
 12862 1b3b 4F000000 		.4byte	.LVL545-1
 12863 1b3f 0100     		.2byte	0x1
 12864 1b41 52       		.byte	0x52
 12865 1b42 4F000000 		.4byte	.LVL545-1
 12866 1b46 52000000 		.4byte	.LVL546
 12867 1b4a 0100     		.2byte	0x1
 12868 1b4c 54       		.byte	0x54
 12869 1b4d 52000000 		.4byte	.LVL546
 12870 1b51 54000000 		.4byte	.LVL547
 12871 1b55 0100     		.2byte	0x1
 12872 1b57 50       		.byte	0x50
 12873 1b58 54000000 		.4byte	.LVL547
 12874 1b5c 59000000 		.4byte	.LVL549-1
 12875 1b60 0100     		.2byte	0x1
 12876 1b62 52       		.byte	0x52
 12877 1b63 59000000 		.4byte	.LVL549-1
 12878 1b67 5E000000 		.4byte	.LVL551
 12879 1b6b 0100     		.2byte	0x1
 12880 1b6d 54       		.byte	0x54
 12881 1b6e 5E000000 		.4byte	.LVL551
 12882 1b72 70000000 		.4byte	.LVL554
 12883 1b76 0100     		.2byte	0x1
 12884 1b78 50       		.byte	0x50
 12885 1b79 00000000 		.4byte	0
 12886 1b7d 00000000 		.4byte	0
ARM GAS  C:\Users\jo\AppData\Local\Temp\ccdgtuym.s 			page 228


 12887              	.LLST51:
 12888 1b81 42000000 		.4byte	.LVL541
 12889 1b85 4A000000 		.4byte	.LVL543
 12890 1b89 0100     		.2byte	0x1
 12891 1b8b 55       		.byte	0x55
 12892 1b8c 4A000000 		.4byte	.LVL543
 12893 1b90 4F000000 		.4byte	.LVL545-1
 12894 1b94 0100     		.2byte	0x1
 12895 1b96 51       		.byte	0x51
 12896 1b97 4F000000 		.4byte	.LVL545-1
 12897 1b9b 52000000 		.4byte	.LVL546
 12898 1b9f 0100     		.2byte	0x1
 12899 1ba1 55       		.byte	0x55
 12900 1ba2 52000000 		.4byte	.LVL546
 12901 1ba6 56000000 		.4byte	.LVL548
 12902 1baa 0100     		.2byte	0x1
 12903 1bac 51       		.byte	0x51
 12904 1bad 56000000 		.4byte	.LVL548
 12905 1bb1 78000000 		.4byte	.LVL557
 12906 1bb5 0100     		.2byte	0x1
 12907 1bb7 55       		.byte	0x55
 12908 1bb8 7E000000 		.4byte	.LVL558
 12909 1bbc 88000000 		.4byte	.LVL560
 12910 1bc0 0100     		.2byte	0x1
 12911 1bc2 55       		.byte	0x55
 12912 1bc3 00000000 		.4byte	0
 12913 1bc7 00000000 		.4byte	0
 12914              	.LLST52:
 12915 1bcb 42000000 		.4byte	.LVL541
 12916 1bcf 4C000000 		.4byte	.LVL544
 12917 1bd3 0400     		.2byte	0x4
 12918 1bd5 91       		.byte	0x91
 12919 1bd6 8C76     		.sleb128 -1268
 12920 1bd8 9F       		.byte	0x9f
 12921 1bd9 4C000000 		.4byte	.LVL544
 12922 1bdd 4F000000 		.4byte	.LVL545-1
 12923 1be1 0100     		.2byte	0x1
 12924 1be3 50       		.byte	0x50
 12925 1be4 4F000000 		.4byte	.LVL545-1
 12926 1be8 54000000 		.4byte	.LVL547
 12927 1bec 0400     		.2byte	0x4
 12928 1bee 91       		.byte	0x91
 12929 1bef 8C76     		.sleb128 -1268
 12930 1bf1 9F       		.byte	0x9f
 12931 1bf2 54000000 		.4byte	.LVL547
 12932 1bf6 59000000 		.4byte	.LVL549-1
 12933 1bfa 0100     		.2byte	0x1
 12934 1bfc 50       		.byte	0x50
 12935 1bfd 59000000 		.4byte	.LVL549-1
 12936 1c01 5C000000 		.4byte	.LVL550
 12937 1c05 0400     		.2byte	0x4
 12938 1c07 91       		.byte	0x91
 12939 1c08 8C76     		.sleb128 -1268
 12940 1c0a 9F       		.byte	0x9f
 12941 1c0b 5C000000 		.4byte	.LVL550
 12942 1c0f 5E000000 		.4byte	.LVL551
 12943 1c13 0100     		.2byte	0x1
ARM GAS  C:\Users\jo\AppData\Local\Temp\ccdgtuym.s 			page 229


 12944 1c15 53       		.byte	0x53
 12945 1c16 5E000000 		.4byte	.LVL551
 12946 1c1a 78000000 		.4byte	.LVL557
 12947 1c1e 0400     		.2byte	0x4
 12948 1c20 91       		.byte	0x91
 12949 1c21 8C76     		.sleb128 -1268
 12950 1c23 9F       		.byte	0x9f
 12951 1c24 7E000000 		.4byte	.LVL558
 12952 1c28 88000000 		.4byte	.LVL560
 12953 1c2c 0400     		.2byte	0x4
 12954 1c2e 91       		.byte	0x91
 12955 1c2f 8C76     		.sleb128 -1268
 12956 1c31 9F       		.byte	0x9f
 12957 1c32 00000000 		.4byte	0
 12958 1c36 00000000 		.4byte	0
 12959              	.LLST53:
 12960 1c3a 5A000000 		.4byte	.LVL549
 12961 1c3e 5C000000 		.4byte	.LVL550
 12962 1c42 0400     		.2byte	0x4
 12963 1c44 91       		.byte	0x91
 12964 1c45 8C76     		.sleb128 -1268
 12965 1c47 9F       		.byte	0x9f
 12966 1c48 5C000000 		.4byte	.LVL550
 12967 1c4c 5E000000 		.4byte	.LVL551
 12968 1c50 0100     		.2byte	0x1
 12969 1c52 53       		.byte	0x53
 12970 1c53 5E000000 		.4byte	.LVL551
 12971 1c57 78000000 		.4byte	.LVL557
 12972 1c5b 0400     		.2byte	0x4
 12973 1c5d 91       		.byte	0x91
 12974 1c5e 8C76     		.sleb128 -1268
 12975 1c60 9F       		.byte	0x9f
 12976 1c61 7E000000 		.4byte	.LVL558
 12977 1c65 88000000 		.4byte	.LVL560
 12978 1c69 0400     		.2byte	0x4
 12979 1c6b 91       		.byte	0x91
 12980 1c6c 8C76     		.sleb128 -1268
 12981 1c6e 9F       		.byte	0x9f
 12982 1c6f 00000000 		.4byte	0
 12983 1c73 00000000 		.4byte	0
 12984              	.LLST54:
 12985 1c77 5A000000 		.4byte	.LVL549
 12986 1c7b 5E000000 		.4byte	.LVL551
 12987 1c7f 0300     		.2byte	0x3
 12988 1c81 08       		.byte	0x8
 12989 1c82 DB       		.byte	0xdb
 12990 1c83 9F       		.byte	0x9f
 12991 1c84 5E000000 		.4byte	.LVL551
 12992 1c88 60000000 		.4byte	.LVL552
 12993 1c8c 0A00     		.2byte	0xa
 12994 1c8e 91       		.byte	0x91
 12995 1c8f 00       		.sleb128 0
 12996 1c90 73       		.byte	0x73
 12997 1c91 00       		.sleb128 0
 12998 1c92 1C       		.byte	0x1c
 12999 1c93 0A       		.byte	0xa
 13000 1c94 1904     		.2byte	0x419
ARM GAS  C:\Users\jo\AppData\Local\Temp\ccdgtuym.s 			page 230


 13001 1c96 1C       		.byte	0x1c
 13002 1c97 9F       		.byte	0x9f
 13003 1c98 60000000 		.4byte	.LVL552
 13004 1c9c 62000000 		.4byte	.LVL553
 13005 1ca0 0A00     		.2byte	0xa
 13006 1ca2 91       		.byte	0x91
 13007 1ca3 00       		.sleb128 0
 13008 1ca4 73       		.byte	0x73
 13009 1ca5 00       		.sleb128 0
 13010 1ca6 1C       		.byte	0x1c
 13011 1ca7 0A       		.byte	0xa
 13012 1ca8 1A04     		.2byte	0x41a
 13013 1caa 1C       		.byte	0x1c
 13014 1cab 9F       		.byte	0x9f
 13015 1cac 62000000 		.4byte	.LVL553
 13016 1cb0 75000000 		.4byte	.LVL556-1
 13017 1cb4 0A00     		.2byte	0xa
 13018 1cb6 91       		.byte	0x91
 13019 1cb7 00       		.sleb128 0
 13020 1cb8 73       		.byte	0x73
 13021 1cb9 00       		.sleb128 0
 13022 1cba 1C       		.byte	0x1c
 13023 1cbb 0A       		.byte	0xa
 13024 1cbc 1904     		.2byte	0x419
 13025 1cbe 1C       		.byte	0x1c
 13026 1cbf 9F       		.byte	0x9f
 13027 1cc0 7E000000 		.4byte	.LVL558
 13028 1cc4 81000000 		.4byte	.LVL559-1
 13029 1cc8 0A00     		.2byte	0xa
 13030 1cca 91       		.byte	0x91
 13031 1ccb 00       		.sleb128 0
 13032 1ccc 73       		.byte	0x73
 13033 1ccd 00       		.sleb128 0
 13034 1cce 1C       		.byte	0x1c
 13035 1ccf 0A       		.byte	0xa
 13036 1cd0 1904     		.2byte	0x419
 13037 1cd2 1C       		.byte	0x1c
 13038 1cd3 9F       		.byte	0x9f
 13039 1cd4 00000000 		.4byte	0
 13040 1cd8 00000000 		.4byte	0
 13041              	.LLST55:
 13042 1cdc 5A000000 		.4byte	.LVL549
 13043 1ce0 5C000000 		.4byte	.LVL550
 13044 1ce4 0400     		.2byte	0x4
 13045 1ce6 91       		.byte	0x91
 13046 1ce7 8C76     		.sleb128 -1268
 13047 1ce9 9F       		.byte	0x9f
 13048 1cea 5C000000 		.4byte	.LVL550
 13049 1cee 5E000000 		.4byte	.LVL551
 13050 1cf2 0100     		.2byte	0x1
 13051 1cf4 53       		.byte	0x53
 13052 1cf5 5E000000 		.4byte	.LVL551
 13053 1cf9 62000000 		.4byte	.LVL553
 13054 1cfd 0300     		.2byte	0x3
 13055 1cff 73       		.byte	0x73
 13056 1d00 01       		.sleb128 1
 13057 1d01 9F       		.byte	0x9f
ARM GAS  C:\Users\jo\AppData\Local\Temp\ccdgtuym.s 			page 231


 13058 1d02 62000000 		.4byte	.LVL553
 13059 1d06 75000000 		.4byte	.LVL556-1
 13060 1d0a 0100     		.2byte	0x1
 13061 1d0c 53       		.byte	0x53
 13062 1d0d 7E000000 		.4byte	.LVL558
 13063 1d11 81000000 		.4byte	.LVL559-1
 13064 1d15 0100     		.2byte	0x1
 13065 1d17 53       		.byte	0x53
 13066 1d18 00000000 		.4byte	0
 13067 1d1c 00000000 		.4byte	0
 13068              	.LLST56:
 13069 1d20 00000000 		.4byte	.LVL562
 13070 1d24 1A000000 		.4byte	.LVL565
 13071 1d28 0100     		.2byte	0x1
 13072 1d2a 50       		.byte	0x50
 13073 1d2b 1A000000 		.4byte	.LVL565
 13074 1d2f 9E000000 		.4byte	.LVL578
 13075 1d33 0100     		.2byte	0x1
 13076 1d35 56       		.byte	0x56
 13077 1d36 9E000000 		.4byte	.LVL578
 13078 1d3a A2000000 		.4byte	.LVL579
 13079 1d3e 0100     		.2byte	0x1
 13080 1d40 50       		.byte	0x50
 13081 1d41 A2000000 		.4byte	.LVL579
 13082 1d45 E0000000 		.4byte	.LFE9
 13083 1d49 0100     		.2byte	0x1
 13084 1d4b 56       		.byte	0x56
 13085 1d4c 00000000 		.4byte	0
 13086 1d50 00000000 		.4byte	0
 13087              	.LLST57:
 13088 1d54 00000000 		.4byte	.LVL562
 13089 1d58 16000000 		.4byte	.LVL563
 13090 1d5c 0100     		.2byte	0x1
 13091 1d5e 51       		.byte	0x51
 13092 1d5f 16000000 		.4byte	.LVL563
 13093 1d63 9E000000 		.4byte	.LVL578
 13094 1d67 0100     		.2byte	0x1
 13095 1d69 59       		.byte	0x59
 13096 1d6a 9E000000 		.4byte	.LVL578
 13097 1d6e A8000000 		.4byte	.LVL580
 13098 1d72 0100     		.2byte	0x1
 13099 1d74 51       		.byte	0x51
 13100 1d75 A8000000 		.4byte	.LVL580
 13101 1d79 AE000000 		.4byte	.LVL582
 13102 1d7d 0100     		.2byte	0x1
 13103 1d7f 59       		.byte	0x59
 13104 1d80 AE000000 		.4byte	.LVL582
 13105 1d84 E0000000 		.4byte	.LFE9
 13106 1d88 0100     		.2byte	0x1
 13107 1d8a 54       		.byte	0x54
 13108 1d8b 00000000 		.4byte	0
 13109 1d8f 00000000 		.4byte	0
 13110              	.LLST58:
 13111 1d93 00000000 		.4byte	.LVL562
 13112 1d97 18000000 		.4byte	.LVL564
 13113 1d9b 0100     		.2byte	0x1
 13114 1d9d 52       		.byte	0x52
ARM GAS  C:\Users\jo\AppData\Local\Temp\ccdgtuym.s 			page 232


 13115 1d9e 18000000 		.4byte	.LVL564
 13116 1da2 62000000 		.4byte	.LVL572
 13117 1da6 0100     		.2byte	0x1
 13118 1da8 55       		.byte	0x55
 13119 1da9 9E000000 		.4byte	.LVL578
 13120 1dad AA000000 		.4byte	.LVL581
 13121 1db1 0100     		.2byte	0x1
 13122 1db3 52       		.byte	0x52
 13123 1db4 AA000000 		.4byte	.LVL581
 13124 1db8 AE000000 		.4byte	.LVL582
 13125 1dbc 0100     		.2byte	0x1
 13126 1dbe 55       		.byte	0x55
 13127 1dbf AE000000 		.4byte	.LVL582
 13128 1dc3 E0000000 		.4byte	.LFE9
 13129 1dc7 0200     		.2byte	0x2
 13130 1dc9 44       		.byte	0x44
 13131 1dca 9F       		.byte	0x9f
 13132 1dcb 00000000 		.4byte	0
 13133 1dcf 00000000 		.4byte	0
 13134              	.LLST59:
 13135 1dd3 2C000000 		.4byte	.LVL567
 13136 1dd7 3C000000 		.4byte	.LVL569
 13137 1ddb 0200     		.2byte	0x2
 13138 1ddd 30       		.byte	0x30
 13139 1dde 9F       		.byte	0x9f
 13140 1ddf 3C000000 		.4byte	.LVL569
 13141 1de3 60000000 		.4byte	.LVL571
 13142 1de7 0100     		.2byte	0x1
 13143 1de9 52       		.byte	0x52
 13144 1dea C6000000 		.4byte	.LVL584
 13145 1dee E0000000 		.4byte	.LFE9
 13146 1df2 0200     		.2byte	0x2
 13147 1df4 30       		.byte	0x30
 13148 1df5 9F       		.byte	0x9f
 13149 1df6 00000000 		.4byte	0
 13150 1dfa 00000000 		.4byte	0
 13151              	.LLST60:
 13152 1dfe 60000000 		.4byte	.LVL571
 13153 1e02 9E000000 		.4byte	.LVL578
 13154 1e06 0100     		.2byte	0x1
 13155 1e08 56       		.byte	0x56
 13156 1e09 00000000 		.4byte	0
 13157 1e0d 00000000 		.4byte	0
 13158              	.LLST61:
 13159 1e11 78000000 		.4byte	.LVL573
 13160 1e15 9E000000 		.4byte	.LVL578
 13161 1e19 0300     		.2byte	0x3
 13162 1e1b 08       		.byte	0x8
 13163 1e1c 40       		.byte	0x40
 13164 1e1d 9F       		.byte	0x9f
 13165 1e1e 00000000 		.4byte	0
 13166 1e22 00000000 		.4byte	0
 13167              	.LLST62:
 13168 1e26 78000000 		.4byte	.LVL573
 13169 1e2a 9E000000 		.4byte	.LVL578
 13170 1e2e 0100     		.2byte	0x1
 13171 1e30 57       		.byte	0x57
ARM GAS  C:\Users\jo\AppData\Local\Temp\ccdgtuym.s 			page 233


 13172 1e31 00000000 		.4byte	0
 13173 1e35 00000000 		.4byte	0
 13174              	.LLST63:
 13175 1e39 78000000 		.4byte	.LVL573
 13176 1e3d 9E000000 		.4byte	.LVL578
 13177 1e41 0100     		.2byte	0x1
 13178 1e43 56       		.byte	0x56
 13179 1e44 00000000 		.4byte	0
 13180 1e48 00000000 		.4byte	0
 13181              	.LLST64:
 13182 1e4c 8C000000 		.4byte	.LVL574
 13183 1e50 8E000000 		.4byte	.LVL575
 13184 1e54 0200     		.2byte	0x2
 13185 1e56 43       		.byte	0x43
 13186 1e57 9F       		.byte	0x9f
 13187 1e58 8E000000 		.4byte	.LVL575
 13188 1e5c 90000000 		.4byte	.LVL576
 13189 1e60 0900     		.2byte	0x9
 13190 1e62 91       		.byte	0x91
 13191 1e63 00       		.sleb128 0
 13192 1e64 74       		.byte	0x74
 13193 1e65 00       		.sleb128 0
 13194 1e66 1C       		.byte	0x1c
 13195 1e67 08       		.byte	0x8
 13196 1e68 21       		.byte	0x21
 13197 1e69 1C       		.byte	0x1c
 13198 1e6a 9F       		.byte	0x9f
 13199 1e6b 90000000 		.4byte	.LVL576
 13200 1e6f 94000000 		.4byte	.LVL577
 13201 1e73 0900     		.2byte	0x9
 13202 1e75 91       		.byte	0x91
 13203 1e76 00       		.sleb128 0
 13204 1e77 74       		.byte	0x74
 13205 1e78 00       		.sleb128 0
 13206 1e79 1C       		.byte	0x1c
 13207 1e7a 08       		.byte	0x8
 13208 1e7b 22       		.byte	0x22
 13209 1e7c 1C       		.byte	0x1c
 13210 1e7d 9F       		.byte	0x9f
 13211 1e7e 94000000 		.4byte	.LVL577
 13212 1e82 9E000000 		.4byte	.LVL578
 13213 1e86 0900     		.2byte	0x9
 13214 1e88 91       		.byte	0x91
 13215 1e89 00       		.sleb128 0
 13216 1e8a 74       		.byte	0x74
 13217 1e8b 00       		.sleb128 0
 13218 1e8c 1C       		.byte	0x1c
 13219 1e8d 08       		.byte	0x8
 13220 1e8e 21       		.byte	0x21
 13221 1e8f 1C       		.byte	0x1c
 13222 1e90 9F       		.byte	0x9f
 13223 1e91 00000000 		.4byte	0
 13224 1e95 00000000 		.4byte	0
 13225              	.LLST65:
 13226 1e99 8C000000 		.4byte	.LVL574
 13227 1e9d 8E000000 		.4byte	.LVL575
 13228 1ea1 0100     		.2byte	0x1
ARM GAS  C:\Users\jo\AppData\Local\Temp\ccdgtuym.s 			page 234


 13229 1ea3 54       		.byte	0x54
 13230 1ea4 8E000000 		.4byte	.LVL575
 13231 1ea8 94000000 		.4byte	.LVL577
 13232 1eac 0300     		.2byte	0x3
 13233 1eae 74       		.byte	0x74
 13234 1eaf 01       		.sleb128 1
 13235 1eb0 9F       		.byte	0x9f
 13236 1eb1 94000000 		.4byte	.LVL577
 13237 1eb5 9E000000 		.4byte	.LVL578
 13238 1eb9 0100     		.2byte	0x1
 13239 1ebb 54       		.byte	0x54
 13240 1ebc 00000000 		.4byte	0
 13241 1ec0 00000000 		.4byte	0
 13242              	.LLST66:
 13243 1ec4 00000000 		.4byte	.LVL585
 13244 1ec8 07000000 		.4byte	.LVL586-1
 13245 1ecc 0100     		.2byte	0x1
 13246 1ece 50       		.byte	0x50
 13247 1ecf 07000000 		.4byte	.LVL586-1
 13248 1ed3 08000000 		.4byte	.LFE10
 13249 1ed7 0400     		.2byte	0x4
 13250 1ed9 F3       		.byte	0xf3
 13251 1eda 01       		.uleb128 0x1
 13252 1edb 50       		.byte	0x50
 13253 1edc 9F       		.byte	0x9f
 13254 1edd 00000000 		.4byte	0
 13255 1ee1 00000000 		.4byte	0
 13256              	.LLST67:
 13257 1ee5 00000000 		.4byte	.LVL585
 13258 1ee9 07000000 		.4byte	.LVL586-1
 13259 1eed 0100     		.2byte	0x1
 13260 1eef 51       		.byte	0x51
 13261 1ef0 07000000 		.4byte	.LVL586-1
 13262 1ef4 08000000 		.4byte	.LFE10
 13263 1ef8 0400     		.2byte	0x4
 13264 1efa F3       		.byte	0xf3
 13265 1efb 01       		.uleb128 0x1
 13266 1efc 51       		.byte	0x51
 13267 1efd 9F       		.byte	0x9f
 13268 1efe 00000000 		.4byte	0
 13269 1f02 00000000 		.4byte	0
 13270              	.LLST68:
 13271 1f06 00000000 		.4byte	.LVL585
 13272 1f0a 07000000 		.4byte	.LVL586-1
 13273 1f0e 0100     		.2byte	0x1
 13274 1f10 52       		.byte	0x52
 13275 1f11 07000000 		.4byte	.LVL586-1
 13276 1f15 08000000 		.4byte	.LFE10
 13277 1f19 0400     		.2byte	0x4
 13278 1f1b F3       		.byte	0xf3
 13279 1f1c 01       		.uleb128 0x1
 13280 1f1d 52       		.byte	0x52
 13281 1f1e 9F       		.byte	0x9f
 13282 1f1f 00000000 		.4byte	0
 13283 1f23 00000000 		.4byte	0
 13284              	.LLST72:
 13285 1f27 00000000 		.4byte	.LVL587
ARM GAS  C:\Users\jo\AppData\Local\Temp\ccdgtuym.s 			page 235


 13286 1f2b 0D000000 		.4byte	.LVL589-1
 13287 1f2f 0100     		.2byte	0x1
 13288 1f31 50       		.byte	0x50
 13289 1f32 0D000000 		.4byte	.LVL589-1
 13290 1f36 58000000 		.4byte	.LVL600
 13291 1f3a 0100     		.2byte	0x1
 13292 1f3c 55       		.byte	0x55
 13293 1f3d 58000000 		.4byte	.LVL600
 13294 1f41 6C000000 		.4byte	.LFE11
 13295 1f45 0400     		.2byte	0x4
 13296 1f47 F3       		.byte	0xf3
 13297 1f48 01       		.uleb128 0x1
 13298 1f49 50       		.byte	0x50
 13299 1f4a 9F       		.byte	0x9f
 13300 1f4b 00000000 		.4byte	0
 13301 1f4f 00000000 		.4byte	0
 13302              	.LLST73:
 13303 1f53 00000000 		.4byte	.LVL587
 13304 1f57 0A000000 		.4byte	.LVL588
 13305 1f5b 0100     		.2byte	0x1
 13306 1f5d 51       		.byte	0x51
 13307 1f5e 0A000000 		.4byte	.LVL588
 13308 1f62 58000000 		.4byte	.LVL600
 13309 1f66 0100     		.2byte	0x1
 13310 1f68 56       		.byte	0x56
 13311 1f69 58000000 		.4byte	.LVL600
 13312 1f6d 6C000000 		.4byte	.LFE11
 13313 1f71 0400     		.2byte	0x4
 13314 1f73 F3       		.byte	0xf3
 13315 1f74 01       		.uleb128 0x1
 13316 1f75 51       		.byte	0x51
 13317 1f76 9F       		.byte	0x9f
 13318 1f77 00000000 		.4byte	0
 13319 1f7b 00000000 		.4byte	0
 13320              	.LLST74:
 13321 1f7f 0E000000 		.4byte	.LVL589
 13322 1f83 58000000 		.4byte	.LVL600
 13323 1f87 0100     		.2byte	0x1
 13324 1f89 55       		.byte	0x55
 13325 1f8a 58000000 		.4byte	.LVL600
 13326 1f8e 6C000000 		.4byte	.LFE11
 13327 1f92 0400     		.2byte	0x4
 13328 1f94 F3       		.byte	0xf3
 13329 1f95 01       		.uleb128 0x1
 13330 1f96 50       		.byte	0x50
 13331 1f97 9F       		.byte	0x9f
 13332 1f98 00000000 		.4byte	0
 13333 1f9c 00000000 		.4byte	0
 13334              	.LLST75:
 13335 1fa0 1C000000 		.4byte	.LVL590
 13336 1fa4 28000000 		.4byte	.LVL591
 13337 1fa8 0400     		.2byte	0x4
 13338 1faa 75       		.byte	0x75
 13339 1fab 9C01     		.sleb128 156
 13340 1fad 9F       		.byte	0x9f
 13341 1fae 28000000 		.4byte	.LVL591
 13342 1fb2 33000000 		.4byte	.LVL592-1
ARM GAS  C:\Users\jo\AppData\Local\Temp\ccdgtuym.s 			page 236


 13343 1fb6 0100     		.2byte	0x1
 13344 1fb8 51       		.byte	0x51
 13345 1fb9 33000000 		.4byte	.LVL592-1
 13346 1fbd 58000000 		.4byte	.LVL600
 13347 1fc1 0400     		.2byte	0x4
 13348 1fc3 75       		.byte	0x75
 13349 1fc4 9C01     		.sleb128 156
 13350 1fc6 9F       		.byte	0x9f
 13351 1fc7 58000000 		.4byte	.LVL600
 13352 1fcb 6C000000 		.4byte	.LFE11
 13353 1fcf 0700     		.2byte	0x7
 13354 1fd1 F3       		.byte	0xf3
 13355 1fd2 01       		.uleb128 0x1
 13356 1fd3 50       		.byte	0x50
 13357 1fd4 23       		.byte	0x23
 13358 1fd5 9C01     		.uleb128 0x9c
 13359 1fd7 9F       		.byte	0x9f
 13360 1fd8 00000000 		.4byte	0
 13361 1fdc 00000000 		.4byte	0
 13362              	.LLST76:
 13363 1fe0 1C000000 		.4byte	.LVL590
 13364 1fe4 58000000 		.4byte	.LVL600
 13365 1fe8 0100     		.2byte	0x1
 13366 1fea 55       		.byte	0x55
 13367 1feb 58000000 		.4byte	.LVL600
 13368 1fef 6C000000 		.4byte	.LFE11
 13369 1ff3 0400     		.2byte	0x4
 13370 1ff5 F3       		.byte	0xf3
 13371 1ff6 01       		.uleb128 0x1
 13372 1ff7 50       		.byte	0x50
 13373 1ff8 9F       		.byte	0x9f
 13374 1ff9 00000000 		.4byte	0
 13375 1ffd 00000000 		.4byte	0
 13376              	.LLST77:
 13377 2001 34000000 		.4byte	.LVL592
 13378 2005 3A000000 		.4byte	.LVL593
 13379 2009 0300     		.2byte	0x3
 13380 200b 91       		.byte	0x91
 13381 200c 54       		.sleb128 -44
 13382 200d 9F       		.byte	0x9f
 13383 200e 3A000000 		.4byte	.LVL593
 13384 2012 3D000000 		.4byte	.LVL594-1
 13385 2016 0100     		.2byte	0x1
 13386 2018 51       		.byte	0x51
 13387 2019 3D000000 		.4byte	.LVL594-1
 13388 201d 48000000 		.4byte	.LVL596
 13389 2021 0300     		.2byte	0x3
 13390 2023 91       		.byte	0x91
 13391 2024 54       		.sleb128 -44
 13392 2025 9F       		.byte	0x9f
 13393 2026 48000000 		.4byte	.LVL596
 13394 202a 4A000000 		.4byte	.LVL597
 13395 202e 0100     		.2byte	0x1
 13396 2030 53       		.byte	0x53
 13397 2031 4A000000 		.4byte	.LVL597
 13398 2035 58000000 		.4byte	.LVL600
 13399 2039 0300     		.2byte	0x3
ARM GAS  C:\Users\jo\AppData\Local\Temp\ccdgtuym.s 			page 237


 13400 203b 91       		.byte	0x91
 13401 203c 54       		.sleb128 -44
 13402 203d 9F       		.byte	0x9f
 13403 203e 58000000 		.4byte	.LVL600
 13404 2042 6C000000 		.4byte	.LFE11
 13405 2046 0300     		.2byte	0x3
 13406 2048 7D       		.byte	0x7d
 13407 2049 54       		.sleb128 -44
 13408 204a 9F       		.byte	0x9f
 13409 204b 00000000 		.4byte	0
 13410 204f 00000000 		.4byte	0
 13411              	.LLST78:
 13412 2053 34000000 		.4byte	.LVL592
 13413 2057 58000000 		.4byte	.LVL600
 13414 205b 0100     		.2byte	0x1
 13415 205d 55       		.byte	0x55
 13416 205e 58000000 		.4byte	.LVL600
 13417 2062 6C000000 		.4byte	.LFE11
 13418 2066 0400     		.2byte	0x4
 13419 2068 F3       		.byte	0xf3
 13420 2069 01       		.uleb128 0x1
 13421 206a 50       		.byte	0x50
 13422 206b 9F       		.byte	0x9f
 13423 206c 00000000 		.4byte	0
 13424 2070 00000000 		.4byte	0
 13425              	.LLST79:
 13426 2074 46000000 		.4byte	.LVL595
 13427 2078 4A000000 		.4byte	.LVL597
 13428 207c 0200     		.2byte	0x2
 13429 207e 43       		.byte	0x43
 13430 207f 9F       		.byte	0x9f
 13431 2080 4A000000 		.4byte	.LVL597
 13432 2084 4C000000 		.4byte	.LVL598
 13433 2088 0800     		.2byte	0x8
 13434 208a 91       		.byte	0x91
 13435 208b 00       		.sleb128 0
 13436 208c 73       		.byte	0x73
 13437 208d 00       		.sleb128 0
 13438 208e 1C       		.byte	0x1c
 13439 208f 49       		.byte	0x49
 13440 2090 1C       		.byte	0x1c
 13441 2091 9F       		.byte	0x9f
 13442 2092 4C000000 		.4byte	.LVL598
 13443 2096 50000000 		.4byte	.LVL599
 13444 209a 0800     		.2byte	0x8
 13445 209c 91       		.byte	0x91
 13446 209d 00       		.sleb128 0
 13447 209e 73       		.byte	0x73
 13448 209f 00       		.sleb128 0
 13449 20a0 1C       		.byte	0x1c
 13450 20a1 4A       		.byte	0x4a
 13451 20a2 1C       		.byte	0x1c
 13452 20a3 9F       		.byte	0x9f
 13453 20a4 50000000 		.4byte	.LVL599
 13454 20a8 58000000 		.4byte	.LVL600
 13455 20ac 0800     		.2byte	0x8
 13456 20ae 91       		.byte	0x91
ARM GAS  C:\Users\jo\AppData\Local\Temp\ccdgtuym.s 			page 238


 13457 20af 00       		.sleb128 0
 13458 20b0 73       		.byte	0x73
 13459 20b1 00       		.sleb128 0
 13460 20b2 1C       		.byte	0x1c
 13461 20b3 49       		.byte	0x49
 13462 20b4 1C       		.byte	0x1c
 13463 20b5 9F       		.byte	0x9f
 13464 20b6 58000000 		.4byte	.LVL600
 13465 20ba 6C000000 		.4byte	.LFE11
 13466 20be 0800     		.2byte	0x8
 13467 20c0 7D       		.byte	0x7d
 13468 20c1 00       		.sleb128 0
 13469 20c2 73       		.byte	0x73
 13470 20c3 00       		.sleb128 0
 13471 20c4 1C       		.byte	0x1c
 13472 20c5 49       		.byte	0x49
 13473 20c6 1C       		.byte	0x1c
 13474 20c7 9F       		.byte	0x9f
 13475 20c8 00000000 		.4byte	0
 13476 20cc 00000000 		.4byte	0
 13477              	.LLST80:
 13478 20d0 46000000 		.4byte	.LVL595
 13479 20d4 48000000 		.4byte	.LVL596
 13480 20d8 0300     		.2byte	0x3
 13481 20da 91       		.byte	0x91
 13482 20db 54       		.sleb128 -44
 13483 20dc 9F       		.byte	0x9f
 13484 20dd 48000000 		.4byte	.LVL596
 13485 20e1 4A000000 		.4byte	.LVL597
 13486 20e5 0100     		.2byte	0x1
 13487 20e7 53       		.byte	0x53
 13488 20e8 4A000000 		.4byte	.LVL597
 13489 20ec 58000000 		.4byte	.LVL600
 13490 20f0 0300     		.2byte	0x3
 13491 20f2 91       		.byte	0x91
 13492 20f3 54       		.sleb128 -44
 13493 20f4 9F       		.byte	0x9f
 13494 20f5 58000000 		.4byte	.LVL600
 13495 20f9 6C000000 		.4byte	.LFE11
 13496 20fd 0300     		.2byte	0x3
 13497 20ff 7D       		.byte	0x7d
 13498 2100 54       		.sleb128 -44
 13499 2101 9F       		.byte	0x9f
 13500 2102 00000000 		.4byte	0
 13501 2106 00000000 		.4byte	0
 13502              	.LLST81:
 13503 210a 46000000 		.4byte	.LVL595
 13504 210e 48000000 		.4byte	.LVL596
 13505 2112 0300     		.2byte	0x3
 13506 2114 91       		.byte	0x91
 13507 2115 54       		.sleb128 -44
 13508 2116 9F       		.byte	0x9f
 13509 2117 48000000 		.4byte	.LVL596
 13510 211b 4A000000 		.4byte	.LVL597
 13511 211f 0100     		.2byte	0x1
 13512 2121 53       		.byte	0x53
 13513 2122 4A000000 		.4byte	.LVL597
ARM GAS  C:\Users\jo\AppData\Local\Temp\ccdgtuym.s 			page 239


 13514 2126 50000000 		.4byte	.LVL599
 13515 212a 0300     		.2byte	0x3
 13516 212c 73       		.byte	0x73
 13517 212d 01       		.sleb128 1
 13518 212e 9F       		.byte	0x9f
 13519 212f 50000000 		.4byte	.LVL599
 13520 2133 6C000000 		.4byte	.LFE11
 13521 2137 0100     		.2byte	0x1
 13522 2139 53       		.byte	0x53
 13523 213a 00000000 		.4byte	0
 13524 213e 00000000 		.4byte	0
 13525              	.LLST82:
 13526 2142 00000000 		.4byte	.LVL601
 13527 2146 27000000 		.4byte	.LVL605-1
 13528 214a 0100     		.2byte	0x1
 13529 214c 50       		.byte	0x50
 13530 214d 27000000 		.4byte	.LVL605-1
 13531 2151 3C000000 		.4byte	.LFE12
 13532 2155 0400     		.2byte	0x4
 13533 2157 F3       		.byte	0xf3
 13534 2158 01       		.uleb128 0x1
 13535 2159 50       		.byte	0x50
 13536 215a 9F       		.byte	0x9f
 13537 215b 00000000 		.4byte	0
 13538 215f 00000000 		.4byte	0
 13539              	.LLST83:
 13540 2163 10000000 		.4byte	.LVL602
 13541 2167 27000000 		.4byte	.LVL605-1
 13542 216b 0100     		.2byte	0x1
 13543 216d 50       		.byte	0x50
 13544 216e 27000000 		.4byte	.LVL605-1
 13545 2172 3C000000 		.4byte	.LFE12
 13546 2176 0400     		.2byte	0x4
 13547 2178 F3       		.byte	0xf3
 13548 2179 01       		.uleb128 0x1
 13549 217a 50       		.byte	0x50
 13550 217b 9F       		.byte	0x9f
 13551 217c 00000000 		.4byte	0
 13552 2180 00000000 		.4byte	0
 13553              	.LLST84:
 13554 2184 1A000000 		.4byte	.LVL603
 13555 2188 20000000 		.4byte	.LVL604
 13556 218c 0400     		.2byte	0x4
 13557 218e 70       		.byte	0x70
 13558 218f DC00     		.sleb128 92
 13559 2191 9F       		.byte	0x9f
 13560 2192 20000000 		.4byte	.LVL604
 13561 2196 27000000 		.4byte	.LVL605-1
 13562 219a 0100     		.2byte	0x1
 13563 219c 51       		.byte	0x51
 13564 219d 27000000 		.4byte	.LVL605-1
 13565 21a1 3C000000 		.4byte	.LFE12
 13566 21a5 0600     		.2byte	0x6
 13567 21a7 F3       		.byte	0xf3
 13568 21a8 01       		.uleb128 0x1
 13569 21a9 50       		.byte	0x50
 13570 21aa 23       		.byte	0x23
ARM GAS  C:\Users\jo\AppData\Local\Temp\ccdgtuym.s 			page 240


 13571 21ab 5C       		.uleb128 0x5c
 13572 21ac 9F       		.byte	0x9f
 13573 21ad 00000000 		.4byte	0
 13574 21b1 00000000 		.4byte	0
 13575              	.LLST85:
 13576 21b5 1A000000 		.4byte	.LVL603
 13577 21b9 27000000 		.4byte	.LVL605-1
 13578 21bd 0100     		.2byte	0x1
 13579 21bf 50       		.byte	0x50
 13580 21c0 27000000 		.4byte	.LVL605-1
 13581 21c4 3C000000 		.4byte	.LFE12
 13582 21c8 0400     		.2byte	0x4
 13583 21ca F3       		.byte	0xf3
 13584 21cb 01       		.uleb128 0x1
 13585 21cc 50       		.byte	0x50
 13586 21cd 9F       		.byte	0x9f
 13587 21ce 00000000 		.4byte	0
 13588 21d2 00000000 		.4byte	0
 13589              	.LLST86:
 13590 21d6 00000000 		.4byte	.LVL606
 13591 21da 10000000 		.4byte	.LVL610
 13592 21de 0100     		.2byte	0x1
 13593 21e0 50       		.byte	0x50
 13594 21e1 10000000 		.4byte	.LVL610
 13595 21e5 48000000 		.4byte	.LFE13
 13596 21e9 0100     		.2byte	0x1
 13597 21eb 56       		.byte	0x56
 13598 21ec 00000000 		.4byte	0
 13599 21f0 00000000 		.4byte	0
 13600              	.LLST87:
 13601 21f4 00000000 		.4byte	.LVL606
 13602 21f8 0C000000 		.4byte	.LVL608
 13603 21fc 0100     		.2byte	0x1
 13604 21fe 51       		.byte	0x51
 13605 21ff 0C000000 		.4byte	.LVL608
 13606 2203 48000000 		.4byte	.LFE13
 13607 2207 0100     		.2byte	0x1
 13608 2209 55       		.byte	0x55
 13609 220a 00000000 		.4byte	0
 13610 220e 00000000 		.4byte	0
 13611              	.LLST88:
 13612 2212 00000000 		.4byte	.LVL606
 13613 2216 0E000000 		.4byte	.LVL609
 13614 221a 0100     		.2byte	0x1
 13615 221c 52       		.byte	0x52
 13616 221d 0E000000 		.4byte	.LVL609
 13617 2221 48000000 		.4byte	.LFE13
 13618 2225 0100     		.2byte	0x1
 13619 2227 57       		.byte	0x57
 13620 2228 00000000 		.4byte	0
 13621 222c 00000000 		.4byte	0
 13622              	.LLST89:
 13623 2230 00000000 		.4byte	.LVL606
 13624 2234 15000000 		.4byte	.LVL611-1
 13625 2238 0100     		.2byte	0x1
 13626 223a 53       		.byte	0x53
 13627 223b 15000000 		.4byte	.LVL611-1
ARM GAS  C:\Users\jo\AppData\Local\Temp\ccdgtuym.s 			page 241


 13628 223f 48000000 		.4byte	.LFE13
 13629 2243 0100     		.2byte	0x1
 13630 2245 54       		.byte	0x54
 13631 2246 00000000 		.4byte	0
 13632 224a 00000000 		.4byte	0
 13633              	.LLST90:
 13634 224e 00000000 		.4byte	.LVL606
 13635 2252 3C000000 		.4byte	.LVL620
 13636 2256 0200     		.2byte	0x2
 13637 2258 91       		.byte	0x91
 13638 2259 00       		.sleb128 0
 13639 225a 3C000000 		.4byte	.LVL620
 13640 225e 48000000 		.4byte	.LFE13
 13641 2262 0200     		.2byte	0x2
 13642 2264 91       		.byte	0x91
 13643 2265 00       		.sleb128 0
 13644 2266 00000000 		.4byte	0
 13645 226a 00000000 		.4byte	0
 13646              	.LLST91:
 13647 226e 04000000 		.4byte	.LVL607
 13648 2272 10000000 		.4byte	.LVL610
 13649 2276 0400     		.2byte	0x4
 13650 2278 91       		.byte	0x91
 13651 2279 8C7E     		.sleb128 -244
 13652 227b 9F       		.byte	0x9f
 13653 227c 10000000 		.4byte	.LVL610
 13654 2280 15000000 		.4byte	.LVL611-1
 13655 2284 0100     		.2byte	0x1
 13656 2286 50       		.byte	0x50
 13657 2287 15000000 		.4byte	.LVL611-1
 13658 228b 18000000 		.4byte	.LVL612
 13659 228f 0400     		.2byte	0x4
 13660 2291 91       		.byte	0x91
 13661 2292 8C7E     		.sleb128 -244
 13662 2294 9F       		.byte	0x9f
 13663 2295 18000000 		.4byte	.LVL612
 13664 2299 1F000000 		.4byte	.LVL613-1
 13665 229d 0100     		.2byte	0x1
 13666 229f 50       		.byte	0x50
 13667 22a0 1F000000 		.4byte	.LVL613-1
 13668 22a4 24000000 		.4byte	.LVL614
 13669 22a8 0400     		.2byte	0x4
 13670 22aa 91       		.byte	0x91
 13671 22ab 8C7E     		.sleb128 -244
 13672 22ad 9F       		.byte	0x9f
 13673 22ae 24000000 		.4byte	.LVL614
 13674 22b2 29000000 		.4byte	.LVL615-1
 13675 22b6 0100     		.2byte	0x1
 13676 22b8 50       		.byte	0x50
 13677 22b9 29000000 		.4byte	.LVL615-1
 13678 22bd 2C000000 		.4byte	.LVL616
 13679 22c1 0400     		.2byte	0x4
 13680 22c3 91       		.byte	0x91
 13681 22c4 8C7E     		.sleb128 -244
 13682 22c6 9F       		.byte	0x9f
 13683 22c7 2C000000 		.4byte	.LVL616
 13684 22cb 2E000000 		.4byte	.LVL617
ARM GAS  C:\Users\jo\AppData\Local\Temp\ccdgtuym.s 			page 242


 13685 22cf 0100     		.2byte	0x1
 13686 22d1 53       		.byte	0x53
 13687 22d2 2E000000 		.4byte	.LVL617
 13688 22d6 42000000 		.4byte	.LVL621
 13689 22da 0400     		.2byte	0x4
 13690 22dc 91       		.byte	0x91
 13691 22dd 8C7E     		.sleb128 -244
 13692 22df 9F       		.byte	0x9f
 13693 22e0 42000000 		.4byte	.LVL621
 13694 22e4 45000000 		.4byte	.LVL622-1
 13695 22e8 0100     		.2byte	0x1
 13696 22ea 50       		.byte	0x50
 13697 22eb 45000000 		.4byte	.LVL622-1
 13698 22ef 48000000 		.4byte	.LFE13
 13699 22f3 0400     		.2byte	0x4
 13700 22f5 91       		.byte	0x91
 13701 22f6 8C7E     		.sleb128 -244
 13702 22f8 9F       		.byte	0x9f
 13703 22f9 00000000 		.4byte	0
 13704 22fd 00000000 		.4byte	0
 13705              	.LLST92:
 13706 2301 20000000 		.4byte	.LVL613
 13707 2305 24000000 		.4byte	.LVL614
 13708 2309 0400     		.2byte	0x4
 13709 230b 91       		.byte	0x91
 13710 230c 8C7E     		.sleb128 -244
 13711 230e 9F       		.byte	0x9f
 13712 230f 24000000 		.4byte	.LVL614
 13713 2313 29000000 		.4byte	.LVL615-1
 13714 2317 0100     		.2byte	0x1
 13715 2319 50       		.byte	0x50
 13716 231a 29000000 		.4byte	.LVL615-1
 13717 231e 2C000000 		.4byte	.LVL616
 13718 2322 0400     		.2byte	0x4
 13719 2324 91       		.byte	0x91
 13720 2325 8C7E     		.sleb128 -244
 13721 2327 9F       		.byte	0x9f
 13722 2328 2C000000 		.4byte	.LVL616
 13723 232c 2E000000 		.4byte	.LVL617
 13724 2330 0100     		.2byte	0x1
 13725 2332 53       		.byte	0x53
 13726 2333 2E000000 		.4byte	.LVL617
 13727 2337 42000000 		.4byte	.LVL621
 13728 233b 0400     		.2byte	0x4
 13729 233d 91       		.byte	0x91
 13730 233e 8C7E     		.sleb128 -244
 13731 2340 9F       		.byte	0x9f
 13732 2341 42000000 		.4byte	.LVL621
 13733 2345 45000000 		.4byte	.LVL622-1
 13734 2349 0100     		.2byte	0x1
 13735 234b 50       		.byte	0x50
 13736 234c 45000000 		.4byte	.LVL622-1
 13737 2350 48000000 		.4byte	.LFE13
 13738 2354 0400     		.2byte	0x4
 13739 2356 91       		.byte	0x91
 13740 2357 8C7E     		.sleb128 -244
 13741 2359 9F       		.byte	0x9f
ARM GAS  C:\Users\jo\AppData\Local\Temp\ccdgtuym.s 			page 243


 13742 235a 00000000 		.4byte	0
 13743 235e 00000000 		.4byte	0
 13744              	.LLST94:
 13745 2362 2A000000 		.4byte	.LVL615
 13746 2366 2C000000 		.4byte	.LVL616
 13747 236a 0400     		.2byte	0x4
 13748 236c 91       		.byte	0x91
 13749 236d 8C7E     		.sleb128 -244
 13750 236f 9F       		.byte	0x9f
 13751 2370 2C000000 		.4byte	.LVL616
 13752 2374 2E000000 		.4byte	.LVL617
 13753 2378 0100     		.2byte	0x1
 13754 237a 53       		.byte	0x53
 13755 237b 2E000000 		.4byte	.LVL617
 13756 237f 3C000000 		.4byte	.LVL620
 13757 2383 0400     		.2byte	0x4
 13758 2385 91       		.byte	0x91
 13759 2386 8C7E     		.sleb128 -244
 13760 2388 9F       		.byte	0x9f
 13761 2389 00000000 		.4byte	0
 13762 238d 00000000 		.4byte	0
 13763              	.LLST95:
 13764 2391 2A000000 		.4byte	.LVL615
 13765 2395 2E000000 		.4byte	.LVL617
 13766 2399 0300     		.2byte	0x3
 13767 239b 08       		.byte	0x8
 13768 239c DB       		.byte	0xdb
 13769 239d 9F       		.byte	0x9f
 13770 239e 2E000000 		.4byte	.LVL617
 13771 23a2 30000000 		.4byte	.LVL618
 13772 23a6 0800     		.2byte	0x8
 13773 23a8 91       		.byte	0x91
 13774 23a9 00       		.sleb128 0
 13775 23aa 73       		.byte	0x73
 13776 23ab 00       		.sleb128 0
 13777 23ac 1C       		.byte	0x1c
 13778 23ad 49       		.byte	0x49
 13779 23ae 1C       		.byte	0x1c
 13780 23af 9F       		.byte	0x9f
 13781 23b0 30000000 		.4byte	.LVL618
 13782 23b4 34000000 		.4byte	.LVL619
 13783 23b8 0800     		.2byte	0x8
 13784 23ba 91       		.byte	0x91
 13785 23bb 00       		.sleb128 0
 13786 23bc 73       		.byte	0x73
 13787 23bd 00       		.sleb128 0
 13788 23be 1C       		.byte	0x1c
 13789 23bf 4A       		.byte	0x4a
 13790 23c0 1C       		.byte	0x1c
 13791 23c1 9F       		.byte	0x9f
 13792 23c2 34000000 		.4byte	.LVL619
 13793 23c6 3C000000 		.4byte	.LVL620
 13794 23ca 0800     		.2byte	0x8
 13795 23cc 91       		.byte	0x91
 13796 23cd 00       		.sleb128 0
 13797 23ce 73       		.byte	0x73
 13798 23cf 00       		.sleb128 0
ARM GAS  C:\Users\jo\AppData\Local\Temp\ccdgtuym.s 			page 244


 13799 23d0 1C       		.byte	0x1c
 13800 23d1 49       		.byte	0x49
 13801 23d2 1C       		.byte	0x1c
 13802 23d3 9F       		.byte	0x9f
 13803 23d4 00000000 		.4byte	0
 13804 23d8 00000000 		.4byte	0
 13805              	.LLST96:
 13806 23dc 2A000000 		.4byte	.LVL615
 13807 23e0 2C000000 		.4byte	.LVL616
 13808 23e4 0400     		.2byte	0x4
 13809 23e6 91       		.byte	0x91
 13810 23e7 8C7E     		.sleb128 -244
 13811 23e9 9F       		.byte	0x9f
 13812 23ea 2C000000 		.4byte	.LVL616
 13813 23ee 2E000000 		.4byte	.LVL617
 13814 23f2 0100     		.2byte	0x1
 13815 23f4 53       		.byte	0x53
 13816 23f5 2E000000 		.4byte	.LVL617
 13817 23f9 34000000 		.4byte	.LVL619
 13818 23fd 0300     		.2byte	0x3
 13819 23ff 73       		.byte	0x73
 13820 2400 01       		.sleb128 1
 13821 2401 9F       		.byte	0x9f
 13822 2402 34000000 		.4byte	.LVL619
 13823 2406 3C000000 		.4byte	.LVL620
 13824 240a 0100     		.2byte	0x1
 13825 240c 53       		.byte	0x53
 13826 240d 00000000 		.4byte	0
 13827 2411 00000000 		.4byte	0
 13828              	.LLST97:
 13829 2415 00000000 		.4byte	.LVL623
 13830 2419 28000000 		.4byte	.LVL625
 13831 241d 0100     		.2byte	0x1
 13832 241f 50       		.byte	0x50
 13833 2420 28000000 		.4byte	.LVL625
 13834 2424 02010000 		.4byte	.LVL650
 13835 2428 0100     		.2byte	0x1
 13836 242a 54       		.byte	0x54
 13837 242b 02010000 		.4byte	.LVL650
 13838 242f 24010000 		.4byte	.LFE14
 13839 2433 0400     		.2byte	0x4
 13840 2435 F3       		.byte	0xf3
 13841 2436 01       		.uleb128 0x1
 13842 2437 50       		.byte	0x50
 13843 2438 9F       		.byte	0x9f
 13844 2439 00000000 		.4byte	0
 13845 243d 00000000 		.4byte	0
 13846              	.LLST98:
 13847 2441 20000000 		.4byte	.LVL624
 13848 2445 28000000 		.4byte	.LVL625
 13849 2449 0200     		.2byte	0x2
 13850 244b 30       		.byte	0x30
 13851 244c 9F       		.byte	0x9f
 13852 244d 28000000 		.4byte	.LVL625
 13853 2451 92000000 		.4byte	.LVL636
 13854 2455 0300     		.2byte	0x3
 13855 2457 7A       		.byte	0x7a
ARM GAS  C:\Users\jo\AppData\Local\Temp\ccdgtuym.s 			page 245


 13856 2458 7F       		.sleb128 -1
 13857 2459 9F       		.byte	0x9f
 13858 245a 92000000 		.4byte	.LVL636
 13859 245e 98000000 		.4byte	.LVL637
 13860 2462 0100     		.2byte	0x1
 13861 2464 5A       		.byte	0x5a
 13862 2465 98000000 		.4byte	.LVL637
 13863 2469 A6000000 		.4byte	.LVL638
 13864 246d 0300     		.2byte	0x3
 13865 246f 7A       		.byte	0x7a
 13866 2470 7F       		.sleb128 -1
 13867 2471 9F       		.byte	0x9f
 13868 2472 AE000000 		.4byte	.LVL639
 13869 2476 02010000 		.4byte	.LVL650
 13870 247a 0300     		.2byte	0x3
 13871 247c 7A       		.byte	0x7a
 13872 247d 7F       		.sleb128 -1
 13873 247e 9F       		.byte	0x9f
 13874 247f 00000000 		.4byte	0
 13875 2483 00000000 		.4byte	0
 13876              	.LLST99:
 13877 2487 56000000 		.4byte	.LVL629
 13878 248b 5E000000 		.4byte	.LVL630
 13879 248f 0200     		.2byte	0x2
 13880 2491 30       		.byte	0x30
 13881 2492 9F       		.byte	0x9f
 13882 2493 5E000000 		.4byte	.LVL630
 13883 2497 60000000 		.4byte	.LVL631
 13884 249b 0300     		.2byte	0x3
 13885 249d 79       		.byte	0x79
 13886 249e 7F       		.sleb128 -1
 13887 249f 9F       		.byte	0x9f
 13888 24a0 8A000000 		.4byte	.LVL635
 13889 24a4 A6000000 		.4byte	.LVL638
 13890 24a8 0100     		.2byte	0x1
 13891 24aa 59       		.byte	0x59
 13892 24ab AE000000 		.4byte	.LVL639
 13893 24af B2000000 		.4byte	.LVL640
 13894 24b3 0100     		.2byte	0x1
 13895 24b5 59       		.byte	0x59
 13896 24b6 B2000000 		.4byte	.LVL640
 13897 24ba B6000000 		.4byte	.LVL641
 13898 24be 0300     		.2byte	0x3
 13899 24c0 79       		.byte	0x79
 13900 24c1 7F       		.sleb128 -1
 13901 24c2 9F       		.byte	0x9f
 13902 24c3 E0000000 		.4byte	.LVL646
 13903 24c7 EC000000 		.4byte	.LVL648
 13904 24cb 0100     		.2byte	0x1
 13905 24cd 59       		.byte	0x59
 13906 24ce 00000000 		.4byte	0
 13907 24d2 00000000 		.4byte	0
 13908              		.section	.debug_aranges,"",%progbits
 13909 0000 8C000000 		.4byte	0x8c
 13910 0004 0200     		.2byte	0x2
 13911 0006 00000000 		.4byte	.Ldebug_info0
 13912 000a 04       		.byte	0x4
ARM GAS  C:\Users\jo\AppData\Local\Temp\ccdgtuym.s 			page 246


 13913 000b 00       		.byte	0
 13914 000c 0000     		.2byte	0
 13915 000e 0000     		.2byte	0
 13916 0010 00000000 		.4byte	.LFB1
 13917 0014 08000000 		.4byte	.LFE1-.LFB1
 13918 0018 00000000 		.4byte	.LFB2
 13919 001c 12000000 		.4byte	.LFE2-.LFB2
 13920 0020 00000000 		.4byte	.LFB3
 13921 0024 34000000 		.4byte	.LFE3-.LFB3
 13922 0028 00000000 		.4byte	.LFB4
 13923 002c 50160000 		.4byte	.LFE4-.LFB4
 13924 0030 00000000 		.4byte	.LFB15
 13925 0034 92000000 		.4byte	.LFE15-.LFB15
 13926 0038 00000000 		.4byte	.LFB5
 13927 003c 08000000 		.4byte	.LFE5-.LFB5
 13928 0040 00000000 		.4byte	.LFB6
 13929 0044 D0000000 		.4byte	.LFE6-.LFB6
 13930 0048 00000000 		.4byte	.LFB7
 13931 004c 64000000 		.4byte	.LFE7-.LFB7
 13932 0050 00000000 		.4byte	.LFB8
 13933 0054 A8000000 		.4byte	.LFE8-.LFB8
 13934 0058 00000000 		.4byte	.LFB9
 13935 005c E0000000 		.4byte	.LFE9-.LFB9
 13936 0060 00000000 		.4byte	.LFB10
 13937 0064 08000000 		.4byte	.LFE10-.LFB10
 13938 0068 00000000 		.4byte	.LFB11
 13939 006c 6C000000 		.4byte	.LFE11-.LFB11
 13940 0070 00000000 		.4byte	.LFB12
 13941 0074 3C000000 		.4byte	.LFE12-.LFB12
 13942 0078 00000000 		.4byte	.LFB13
 13943 007c 48000000 		.4byte	.LFE13-.LFB13
 13944 0080 00000000 		.4byte	.LFB14
 13945 0084 24010000 		.4byte	.LFE14-.LFB14
 13946 0088 00000000 		.4byte	0
 13947 008c 00000000 		.4byte	0
 13948              		.section	.debug_ranges,"",%progbits
 13949              	.Ldebug_ranges0:
 13950 0000 42000000 		.4byte	.LBB60
 13951 0004 44000000 		.4byte	.LBE60
 13952 0008 48000000 		.4byte	.LBB64
 13953 000c 4A000000 		.4byte	.LBE64
 13954 0010 5E000000 		.4byte	.LBB65
 13955 0014 62000000 		.4byte	.LBE65
 13956 0018 00000000 		.4byte	0
 13957 001c 00000000 		.4byte	0
 13958 0020 28000000 		.4byte	.LBB72
 13959 0024 2A000000 		.4byte	.LBE72
 13960 0028 44000000 		.4byte	.LBB78
 13961 002c 64000000 		.4byte	.LBE78
 13962 0030 00000000 		.4byte	0
 13963 0034 00000000 		.4byte	0
 13964 0038 42000000 		.4byte	.LBB83
 13965 003c 44000000 		.4byte	.LBE83
 13966 0040 46000000 		.4byte	.LBB87
 13967 0044 48000000 		.4byte	.LBE87
 13968 0048 4A000000 		.4byte	.LBB88
 13969 004c 52000000 		.4byte	.LBE88
ARM GAS  C:\Users\jo\AppData\Local\Temp\ccdgtuym.s 			page 247


 13970 0050 00000000 		.4byte	0
 13971 0054 00000000 		.4byte	0
 13972 0058 60000000 		.4byte	.LBB92
 13973 005c 78000000 		.4byte	.LBE92
 13974 0060 7A000000 		.4byte	.LBB98
 13975 0064 84000000 		.4byte	.LBE98
 13976 0068 00000000 		.4byte	0
 13977 006c 00000000 		.4byte	0
 13978 0070 78000000 		.4byte	.LBB95
 13979 0074 7A000000 		.4byte	.LBE95
 13980 0078 84000000 		.4byte	.LBB99
 13981 007c 8C000000 		.4byte	.LBE99
 13982 0080 00000000 		.4byte	0
 13983 0084 00000000 		.4byte	0
 13984 0088 0E000000 		.4byte	.LBB104
 13985 008c 22000000 		.4byte	.LBE104
 13986 0090 2A000000 		.4byte	.LBB110
 13987 0094 30000000 		.4byte	.LBE110
 13988 0098 00000000 		.4byte	0
 13989 009c 00000000 		.4byte	0
 13990 00a0 22000000 		.4byte	.LBB107
 13991 00a4 2A000000 		.4byte	.LBE107
 13992 00a8 30000000 		.4byte	.LBB111
 13993 00ac 34000000 		.4byte	.LBE111
 13994 00b0 00000000 		.4byte	0
 13995 00b4 00000000 		.4byte	0
 13996 00b8 02000000 		.4byte	.LBB116
 13997 00bc 0E000000 		.4byte	.LBE116
 13998 00c0 10000000 		.4byte	.LBB119
 13999 00c4 1E000000 		.4byte	.LBE119
 14000 00c8 00000000 		.4byte	0
 14001 00cc 00000000 		.4byte	0
 14002 00d0 1E000000 		.4byte	.LBB120
 14003 00d4 22000000 		.4byte	.LBE120
 14004 00d8 24000000 		.4byte	.LBB123
 14005 00dc 3C000000 		.4byte	.LBE123
 14006 00e0 00000000 		.4byte	0
 14007 00e4 00000000 		.4byte	0
 14008 00e8 0A000000 		.4byte	.LBB124
 14009 00ec 10000000 		.4byte	.LBE124
 14010 00f0 12000000 		.4byte	.LBB127
 14011 00f4 16000000 		.4byte	.LBE127
 14012 00f8 00000000 		.4byte	0
 14013 00fc 00000000 		.4byte	0
 14014 0100 20000000 		.4byte	.LBB128
 14015 0104 22000000 		.4byte	.LBE128
 14016 0108 3C000000 		.4byte	.LBB136
 14017 010c 48000000 		.4byte	.LBE136
 14018 0110 00000000 		.4byte	0
 14019 0114 00000000 		.4byte	0
 14020 0118 00000000 		.4byte	.LFB1
 14021 011c 08000000 		.4byte	.LFE1
 14022 0120 00000000 		.4byte	.LFB2
 14023 0124 12000000 		.4byte	.LFE2
 14024 0128 00000000 		.4byte	.LFB3
 14025 012c 34000000 		.4byte	.LFE3
 14026 0130 00000000 		.4byte	.LFB4
ARM GAS  C:\Users\jo\AppData\Local\Temp\ccdgtuym.s 			page 248


 14027 0134 50160000 		.4byte	.LFE4
 14028 0138 00000000 		.4byte	.LFB15
 14029 013c 92000000 		.4byte	.LFE15
 14030 0140 00000000 		.4byte	.LFB5
 14031 0144 08000000 		.4byte	.LFE5
 14032 0148 00000000 		.4byte	.LFB6
 14033 014c D0000000 		.4byte	.LFE6
 14034 0150 00000000 		.4byte	.LFB7
 14035 0154 64000000 		.4byte	.LFE7
 14036 0158 00000000 		.4byte	.LFB8
 14037 015c A8000000 		.4byte	.LFE8
 14038 0160 00000000 		.4byte	.LFB9
 14039 0164 E0000000 		.4byte	.LFE9
 14040 0168 00000000 		.4byte	.LFB10
 14041 016c 08000000 		.4byte	.LFE10
 14042 0170 00000000 		.4byte	.LFB11
 14043 0174 6C000000 		.4byte	.LFE11
 14044 0178 00000000 		.4byte	.LFB12
 14045 017c 3C000000 		.4byte	.LFE12
 14046 0180 00000000 		.4byte	.LFB13
 14047 0184 48000000 		.4byte	.LFE13
 14048 0188 00000000 		.4byte	.LFB14
 14049 018c 24010000 		.4byte	.LFE14
 14050 0190 00000000 		.4byte	0
 14051 0194 00000000 		.4byte	0
 14052              		.section	.debug_line,"",%progbits
 14053              	.Ldebug_line0:
 14054 0000 BE070000 		.section	.debug_str,"MS",%progbits,1
 14054      02003D02 
 14054      00000201 
 14054      FB0E0D00 
 14054      01010101 
 14055              	.LASF47:
 14056 0000 5F64736F 		.ascii	"_dso_handle\000"
 14056      5F68616E 
 14056      646C6500 
 14057              	.LASF151:
 14058 000c 72697065 		.ascii	"ripemd160_hmac\000"
 14058      6D643136 
 14058      305F686D 
 14058      616300
 14059              	.LASF18:
 14060 001b 72697065 		.ascii	"ripemd160_context\000"
 14060      6D643136 
 14060      305F636F 
 14060      6E746578 
 14060      7400
 14061              	.LASF6:
 14062 002d 73697A65 		.ascii	"size_t\000"
 14062      5F7400
 14063              	.LASF100:
 14064 0034 5F72616E 		.ascii	"_rand48\000"
 14064      64343800 
 14065              	.LASF79:
 14066 003c 5F656D65 		.ascii	"_emergency\000"
 14066      7267656E 
 14066      637900
ARM GAS  C:\Users\jo\AppData\Local\Temp\ccdgtuym.s 			page 249


 14067              	.LASF150:
 14068 0047 72697065 		.ascii	"ripemd160_hmac_reset\000"
 14068      6D643136 
 14068      305F686D 
 14068      61635F72 
 14068      65736574 
 14069              	.LASF153:
 14070 005c 72697065 		.ascii	"ripemd160_self_test\000"
 14070      6D643136 
 14070      305F7365 
 14070      6C665F74 
 14070      65737400 
 14071              	.LASF69:
 14072 0070 5F646174 		.ascii	"_data\000"
 14072      6100
 14073              	.LASF145:
 14074 0076 70617468 		.ascii	"path\000"
 14074      00
 14075              	.LASF120:
 14076 007b 5F776372 		.ascii	"_wcrtomb_state\000"
 14076      746F6D62 
 14076      5F737461 
 14076      746500
 14077              	.LASF121:
 14078 008a 5F776373 		.ascii	"_wcsrtombs_state\000"
 14078      72746F6D 
 14078      62735F73 
 14078      74617465 
 14078      00
 14079              	.LASF134:
 14080 009b 72697065 		.ascii	"ripemd160_free\000"
 14080      6D643136 
 14080      305F6672 
 14080      656500
 14081              	.LASF10:
 14082 00aa 6C6F6E67 		.ascii	"long long unsigned int\000"
 14082      206C6F6E 
 14082      6720756E 
 14082      7369676E 
 14082      65642069 
 14083              	.LASF59:
 14084 00c1 5F6C6266 		.ascii	"_lbfsize\000"
 14084      73697A65 
 14084      00
 14085              	.LASF148:
 14086 00ca 72697065 		.ascii	"ripemd160_hmac_finish\000"
 14086      6D643136 
 14086      305F686D 
 14086      61635F66 
 14086      696E6973 
 14087              	.LASF118:
 14088 00e0 5F6D6272 		.ascii	"_mbrtowc_state\000"
 14088      746F7763 
 14088      5F737461 
 14088      746500
 14089              	.LASF113:
 14090 00ef 5F776374 		.ascii	"_wctomb_state\000"
ARM GAS  C:\Users\jo\AppData\Local\Temp\ccdgtuym.s 			page 250


 14090      6F6D625F 
 14090      73746174 
 14090      6500
 14091              	.LASF171:
 14092 00fd 433A5C55 		.ascii	"C:\\Users\\jo\\Documents\\GitHub\\ChibiOS\\demos\\S"
 14092      73657273 
 14092      5C6A6F5C 
 14092      446F6375 
 14092      6D656E74 
 14093 0129 544D3332 		.ascii	"TM32\\RT-STM32F407-DISCOVERY-uHttp\000"
 14093      5C52542D 
 14093      53544D33 
 14093      32463430 
 14093      372D4449 
 14094              	.LASF9:
 14095 014b 6C6F6E67 		.ascii	"long long int\000"
 14095      206C6F6E 
 14095      6720696E 
 14095      7400
 14096              	.LASF1:
 14097 0159 7369676E 		.ascii	"signed char\000"
 14097      65642063 
 14097      68617200 
 14098              	.LASF159:
 14099 0165 72697065 		.ascii	"ripemd160_test_key\000"
 14099      6D643136 
 14099      305F7465 
 14099      73745F6B 
 14099      657900
 14100              	.LASF65:
 14101 0178 5F756275 		.ascii	"_ubuf\000"
 14101      6600
 14102              	.LASF54:
 14103 017e 5F626173 		.ascii	"_base\000"
 14103      6500
 14104              	.LASF38:
 14105 0184 5F5F746D 		.ascii	"__tm_hour\000"
 14105      5F686F75 
 14105      7200
 14106              	.LASF94:
 14107 018e 5F5F7366 		.ascii	"__sf\000"
 14107      00
 14108              	.LASF45:
 14109 0193 5F6F6E5F 		.ascii	"_on_exit_args\000"
 14109      65786974 
 14109      5F617267 
 14109      7300
 14110              	.LASF149:
 14111 01a1 746D7062 		.ascii	"tmpbuf\000"
 14111      756600
 14112              	.LASF60:
 14113 01a8 5F636F6F 		.ascii	"_cookie\000"
 14113      6B696500 
 14114              	.LASF93:
 14115 01b0 5F5F7367 		.ascii	"__sglue\000"
 14115      6C756500 
 14116              	.LASF13:
ARM GAS  C:\Users\jo\AppData\Local\Temp\ccdgtuym.s 			page 251


 14117 01b8 73746174 		.ascii	"state\000"
 14117      6500
 14118              	.LASF5:
 14119 01be 6C6F6E67 		.ascii	"long int\000"
 14119      20696E74 
 14119      00
 14120              	.LASF57:
 14121 01c7 5F666C61 		.ascii	"_flags\000"
 14121      677300
 14122              	.LASF49:
 14123 01ce 5F69735F 		.ascii	"_is_cxa\000"
 14123      63786100 
 14124              	.LASF75:
 14125 01d6 5F737464 		.ascii	"_stdin\000"
 14125      696E00
 14126              	.LASF173:
 14127 01dd 5F5F6275 		.ascii	"__builtin_puts\000"
 14127      696C7469 
 14127      6E5F7075 
 14127      747300
 14128              	.LASF67:
 14129 01ec 5F626C6B 		.ascii	"_blksize\000"
 14129      73697A65 
 14129      00
 14130              	.LASF175:
 14131 01f5 70757463 		.ascii	"putchar\000"
 14131      68617200 
 14132              	.LASF138:
 14133 01fd 72697065 		.ascii	"ripemd160_finish\000"
 14133      6D643136 
 14133      305F6669 
 14133      6E697368 
 14133      00
 14134              	.LASF89:
 14135 020e 5F637674 		.ascii	"_cvtbuf\000"
 14135      62756600 
 14136              	.LASF68:
 14137 0216 5F6F6666 		.ascii	"_offset\000"
 14137      73657400 
 14138              	.LASF170:
 14139 021e 2E2E2F2E 		.ascii	"../../../ext/mbedtls-1.3.11/library/ripemd160.c\000"
 14139      2E2F2E2E 
 14139      2F657874 
 14139      2F6D6265 
 14139      64746C73 
 14140              	.LASF167:
 14141 024e 7072696E 		.ascii	"printf\000"
 14141      746600
 14142              	.LASF119:
 14143 0255 5F6D6273 		.ascii	"_mbsrtowcs_state\000"
 14143      72746F77 
 14143      63735F73 
 14143      74617465 
 14143      00
 14144              	.LASF117:
 14145 0266 5F6D6272 		.ascii	"_mbrlen_state\000"
 14145      6C656E5F 
ARM GAS  C:\Users\jo\AppData\Local\Temp\ccdgtuym.s 			page 252


 14145      73746174 
 14145      6500
 14146              	.LASF46:
 14147 0274 5F666E61 		.ascii	"_fnargs\000"
 14147      72677300 
 14148              	.LASF55:
 14149 027c 5F73697A 		.ascii	"_size\000"
 14149      6500
 14150              	.LASF52:
 14151 0282 5F666E73 		.ascii	"_fns\000"
 14151      00
 14152              	.LASF7:
 14153 0287 5F5F7569 		.ascii	"__uint32_t\000"
 14153      6E743332 
 14153      5F7400
 14154              	.LASF32:
 14155 0292 5F736967 		.ascii	"_sign\000"
 14155      6E00
 14156              	.LASF28:
 14157 0298 5F666C6F 		.ascii	"_flock_t\000"
 14157      636B5F74 
 14157      00
 14158              	.LASF77:
 14159 02a1 5F737464 		.ascii	"_stderr\000"
 14159      65727200 
 14160              	.LASF34:
 14161 02a9 5F426967 		.ascii	"_Bigint\000"
 14161      696E7400 
 14162              	.LASF108:
 14163 02b1 5F67616D 		.ascii	"_gamma_signgam\000"
 14163      6D615F73 
 14163      69676E67 
 14163      616D00
 14164              	.LASF172:
 14165 02c0 706F6C61 		.ascii	"polarssl_zeroize\000"
 14165      7273736C 
 14165      5F7A6572 
 14165      6F697A65 
 14165      00
 14166              	.LASF61:
 14167 02d1 5F726561 		.ascii	"_read\000"
 14167      6400
 14168              	.LASF85:
 14169 02d7 5F726573 		.ascii	"_result_k\000"
 14169      756C745F 
 14169      6B00
 14170              	.LASF35:
 14171 02e1 5F5F746D 		.ascii	"__tm\000"
 14171      00
 14172              	.LASF0:
 14173 02e6 756E7369 		.ascii	"unsigned int\000"
 14173      676E6564 
 14173      20696E74 
 14173      00
 14174              	.LASF24:
 14175 02f3 5F5F7763 		.ascii	"__wchb\000"
 14175      686200
ARM GAS  C:\Users\jo\AppData\Local\Temp\ccdgtuym.s 			page 253


 14176              	.LASF76:
 14177 02fa 5F737464 		.ascii	"_stdout\000"
 14177      6F757400 
 14178              	.LASF88:
 14179 0302 5F637674 		.ascii	"_cvtlen\000"
 14179      6C656E00 
 14180              	.LASF8:
 14181 030a 6C6F6E67 		.ascii	"long unsigned int\000"
 14181      20756E73 
 14181      69676E65 
 14181      6420696E 
 14181      7400
 14182              	.LASF58:
 14183 031c 5F66696C 		.ascii	"_file\000"
 14183      6500
 14184              	.LASF168:
 14185 0322 5F5F6275 		.ascii	"__builtin_putchar\000"
 14185      696C7469 
 14185      6E5F7075 
 14185      74636861 
 14185      7200
 14186              	.LASF98:
 14187 0334 5F6E696F 		.ascii	"_niobs\000"
 14187      627300
 14188              	.LASF135:
 14189 033b 72697065 		.ascii	"ripemd160_hmac_update\000"
 14189      6D643136 
 14189      305F686D 
 14189      61635F75 
 14189      70646174 
 14190              	.LASF136:
 14191 0351 64617461 		.ascii	"data\000"
 14191      00
 14192              	.LASF4:
 14193 0356 73686F72 		.ascii	"short unsigned int\000"
 14193      7420756E 
 14193      7369676E 
 14193      65642069 
 14193      6E7400
 14194              	.LASF164:
 14195 0369 66636C6F 		.ascii	"fclose\000"
 14195      736500
 14196              	.LASF91:
 14197 0370 5F617465 		.ascii	"_atexit0\000"
 14197      78697430 
 14197      00
 14198              	.LASF115:
 14199 0379 5F736967 		.ascii	"_signal_buf\000"
 14199      6E616C5F 
 14199      62756600 
 14200              	.LASF106:
 14201 0385 5F617363 		.ascii	"_asctime_buf\000"
 14201      74696D65 
 14201      5F627566 
 14201      00
 14202              	.LASF152:
 14203 0392 72697065 		.ascii	"ripemd160_file\000"
ARM GAS  C:\Users\jo\AppData\Local\Temp\ccdgtuym.s 			page 254


 14203      6D643136 
 14203      305F6669 
 14203      6C6500
 14204              	.LASF140:
 14205 03a1 6C617374 		.ascii	"last\000"
 14205      00
 14206              	.LASF84:
 14207 03a6 5F726573 		.ascii	"_result\000"
 14207      756C7400 
 14208              	.LASF23:
 14209 03ae 5F5F7763 		.ascii	"__wch\000"
 14209      6800
 14210              	.LASF161:
 14211 03b4 6D656D63 		.ascii	"memcpy\000"
 14211      707900
 14212              	.LASF22:
 14213 03bb 77696E74 		.ascii	"wint_t\000"
 14213      5F7400
 14214              	.LASF70:
 14215 03c2 5F6C6F63 		.ascii	"_lock\000"
 14215      6B00
 14216              	.LASF72:
 14217 03c8 5F666C61 		.ascii	"_flags2\000"
 14217      67733200 
 14218              	.LASF12:
 14219 03d0 746F7461 		.ascii	"total\000"
 14219      6C00
 14220              	.LASF131:
 14221 03d6 72697065 		.ascii	"ripemd160_update\000"
 14221      6D643136 
 14221      305F7570 
 14221      64617465 
 14221      00
 14222              	.LASF169:
 14223 03e7 474E5520 		.ascii	"GNU C 4.9.3 20141119 (release) [ARM/embedded-4_9-br"
 14223      4320342E 
 14223      392E3320 
 14223      32303134 
 14223      31313139 
 14224 041a 616E6368 		.ascii	"anch revision 218278] -mcpu=cortex-m4 -mno-thumb-in"
 14224      20726576 
 14224      6973696F 
 14224      6E203231 
 14224      38323738 
 14225 044d 74657277 		.ascii	"terwork -mthumb -ggdb -O2 -fomit-frame-pointer -fal"
 14225      6F726B20 
 14225      2D6D7468 
 14225      756D6220 
 14225      2D676764 
 14226 0480 69676E2D 		.ascii	"ign-functions=16 -ffunction-sections -fdata-section"
 14226      66756E63 
 14226      74696F6E 
 14226      733D3136 
 14226      202D6666 
 14227 04b3 73202D66 		.ascii	"s -fno-common\000"
 14227      6E6F2D63 
 14227      6F6D6D6F 
ARM GAS  C:\Users\jo\AppData\Local\Temp\ccdgtuym.s 			page 255


 14227      6E00
 14228              	.LASF156:
 14229 04c1 72697065 		.ascii	"ripemd160_test_input\000"
 14229      6D643136 
 14229      305F7465 
 14229      73745F69 
 14229      6E707574 
 14230              	.LASF62:
 14231 04d6 5F777269 		.ascii	"_write\000"
 14231      746500
 14232              	.LASF41:
 14233 04dd 5F5F746D 		.ascii	"__tm_year\000"
 14233      5F796561 
 14233      7200
 14234              	.LASF139:
 14235 04e7 6F757470 		.ascii	"output\000"
 14235      757400
 14236              	.LASF17:
 14237 04ee 73697A65 		.ascii	"sizetype\000"
 14237      74797065 
 14237      00
 14238              	.LASF155:
 14239 04f7 72697065 		.ascii	"ripemd160_padding\000"
 14239      6D643136 
 14239      305F7061 
 14239      6464696E 
 14239      6700
 14240              	.LASF137:
 14241 0509 72697065 		.ascii	"ripemd160_process\000"
 14241      6D643136 
 14241      305F7072 
 14241      6F636573 
 14241      7300
 14242              	.LASF142:
 14243 051b 68696768 		.ascii	"high\000"
 14243      00
 14244              	.LASF123:
 14245 0520 5F6E6578 		.ascii	"_nextf\000"
 14245      746600
 14246              	.LASF165:
 14247 0527 7374726C 		.ascii	"strlen\000"
 14247      656E00
 14248              	.LASF40:
 14249 052e 5F5F746D 		.ascii	"__tm_mon\000"
 14249      5F6D6F6E 
 14249      00
 14250              	.LASF50:
 14251 0537 5F617465 		.ascii	"_atexit\000"
 14251      78697400 
 14252              	.LASF82:
 14253 053f 5F5F7364 		.ascii	"__sdidinit\000"
 14253      6964696E 
 14253      697400
 14254              	.LASF20:
 14255 054a 5F6F6666 		.ascii	"_off_t\000"
 14255      5F7400
 14256              	.LASF143:
ARM GAS  C:\Users\jo\AppData\Local\Temp\ccdgtuym.s 			page 256


 14257 0551 6D73676C 		.ascii	"msglen\000"
 14257      656E00
 14258              	.LASF157:
 14259 0558 72697065 		.ascii	"ripemd160_test_md\000"
 14259      6D643136 
 14259      305F7465 
 14259      73745F6D 
 14259      6400
 14260              	.LASF162:
 14261 056a 666F7065 		.ascii	"fopen\000"
 14261      6E00
 14262              	.LASF87:
 14263 0570 5F667265 		.ascii	"_freelist\000"
 14263      656C6973 
 14263      7400
 14264              	.LASF19:
 14265 057a 5F4C4F43 		.ascii	"_LOCK_RECURSIVE_T\000"
 14265      4B5F5245 
 14265      43555253 
 14265      4956455F 
 14265      5400
 14266              	.LASF15:
 14267 058c 69706164 		.ascii	"ipad\000"
 14267      00
 14268              	.LASF146:
 14269 0591 72697065 		.ascii	"ripemd160_hmac_starts\000"
 14269      6D643136 
 14269      305F686D 
 14269      61635F73 
 14269      74617274 
 14270              	.LASF129:
 14271 05a7 66696C6C 		.ascii	"fill\000"
 14271      00
 14272              	.LASF2:
 14273 05ac 756E7369 		.ascii	"unsigned char\000"
 14273      676E6564 
 14273      20636861 
 14273      7200
 14274              	.LASF90:
 14275 05ba 5F6E6577 		.ascii	"_new\000"
 14275      00
 14276              	.LASF122:
 14277 05bf 5F685F65 		.ascii	"_h_errno\000"
 14277      72726E6F 
 14277      00
 14278              	.LASF3:
 14279 05c8 73686F72 		.ascii	"short int\000"
 14279      7420696E 
 14279      7400
 14280              	.LASF43:
 14281 05d2 5F5F746D 		.ascii	"__tm_yday\000"
 14281      5F796461 
 14281      7900
 14282              	.LASF144:
 14283 05dc 72697065 		.ascii	"ripemd160\000"
 14283      6D643136 
 14283      3000
ARM GAS  C:\Users\jo\AppData\Local\Temp\ccdgtuym.s 			page 257


 14284              	.LASF53:
 14285 05e6 5F5F7362 		.ascii	"__sbuf\000"
 14285      756600
 14286              	.LASF99:
 14287 05ed 5F696F62 		.ascii	"_iobs\000"
 14287      7300
 14288              	.LASF96:
 14289 05f3 5F5F4649 		.ascii	"__FILE\000"
 14289      4C4500
 14290              	.LASF27:
 14291 05fa 5F6D6273 		.ascii	"_mbstate_t\000"
 14291      74617465 
 14291      5F7400
 14292              	.LASF56:
 14293 0605 5F5F7346 		.ascii	"__sFILE\000"
 14293      494C4500 
 14294              	.LASF71:
 14295 060d 5F6D6273 		.ascii	"_mbstate\000"
 14295      74617465 
 14295      00
 14296              	.LASF109:
 14297 0616 5F72616E 		.ascii	"_rand_next\000"
 14297      645F6E65 
 14297      787400
 14298              	.LASF111:
 14299 0621 5F6D626C 		.ascii	"_mblen_state\000"
 14299      656E5F73 
 14299      74617465 
 14299      00
 14300              	.LASF78:
 14301 062e 5F696E63 		.ascii	"_inc\000"
 14301      00
 14302              	.LASF51:
 14303 0633 5F696E64 		.ascii	"_ind\000"
 14303      00
 14304              	.LASF81:
 14305 0638 5F637572 		.ascii	"_current_locale\000"
 14305      72656E74 
 14305      5F6C6F63 
 14305      616C6500 
 14306              	.LASF163:
 14307 0648 66726561 		.ascii	"fread\000"
 14307      6400
 14308              	.LASF127:
 14309 064e 696E7075 		.ascii	"input\000"
 14309      7400
 14310              	.LASF83:
 14311 0654 5F5F636C 		.ascii	"__cleanup\000"
 14311      65616E75 
 14311      7000
 14312              	.LASF126:
 14313 065e 46494C45 		.ascii	"FILE\000"
 14313      00
 14314              	.LASF147:
 14315 0663 6B65796C 		.ascii	"keylen\000"
 14315      656E00
 14316              	.LASF31:
ARM GAS  C:\Users\jo\AppData\Local\Temp\ccdgtuym.s 			page 258


 14317 066a 5F6D6178 		.ascii	"_maxwds\000"
 14317      77647300 
 14318              	.LASF73:
 14319 0672 5F726565 		.ascii	"_reent\000"
 14319      6E7400
 14320              	.LASF101:
 14321 0679 5F736565 		.ascii	"_seed\000"
 14321      6400
 14322              	.LASF25:
 14323 067f 5F5F636F 		.ascii	"__count\000"
 14323      756E7400 
 14324              	.LASF11:
 14325 0687 75696E74 		.ascii	"uint32_t\000"
 14325      33325F74 
 14325      00
 14326              	.LASF63:
 14327 0690 5F736565 		.ascii	"_seek\000"
 14327      6B00
 14328              	.LASF21:
 14329 0696 5F66706F 		.ascii	"_fpos_t\000"
 14329      735F7400 
 14330              	.LASF74:
 14331 069e 5F657272 		.ascii	"_errno\000"
 14331      6E6F00
 14332              	.LASF95:
 14333 06a5 63686172 		.ascii	"char\000"
 14333      00
 14334              	.LASF37:
 14335 06aa 5F5F746D 		.ascii	"__tm_min\000"
 14335      5F6D696E 
 14335      00
 14336              	.LASF154:
 14337 06b3 76657262 		.ascii	"verbose\000"
 14337      6F736500 
 14338              	.LASF14:
 14339 06bb 62756666 		.ascii	"buffer\000"
 14339      657200
 14340              	.LASF102:
 14341 06c2 5F6D756C 		.ascii	"_mult\000"
 14341      7400
 14342              	.LASF166:
 14343 06c8 6D656D63 		.ascii	"memcmp\000"
 14343      6D7000
 14344              	.LASF30:
 14345 06cf 5F6E6578 		.ascii	"_next\000"
 14345      7400
 14346              	.LASF105:
 14347 06d5 5F737472 		.ascii	"_strtok_last\000"
 14347      746F6B5F 
 14347      6C617374 
 14347      00
 14348              	.LASF26:
 14349 06e2 5F5F7661 		.ascii	"__value\000"
 14349      6C756500 
 14350              	.LASF48:
 14351 06ea 5F666E74 		.ascii	"_fntypes\000"
 14351      79706573 
ARM GAS  C:\Users\jo\AppData\Local\Temp\ccdgtuym.s 			page 259


 14351      00
 14352              	.LASF103:
 14353 06f3 5F616464 		.ascii	"_add\000"
 14353      00
 14354              	.LASF29:
 14355 06f8 5F5F554C 		.ascii	"__ULong\000"
 14355      6F6E6700 
 14356              	.LASF116:
 14357 0700 5F676574 		.ascii	"_getdate_err\000"
 14357      64617465 
 14357      5F657272 
 14357      00
 14358              	.LASF80:
 14359 070d 5F637572 		.ascii	"_current_category\000"
 14359      72656E74 
 14359      5F636174 
 14359      65676F72 
 14359      7900
 14360              	.LASF160:
 14361 071f 6D656D73 		.ascii	"memset\000"
 14361      657400
 14362              	.LASF104:
 14363 0726 5F756E75 		.ascii	"_unused_rand\000"
 14363      7365645F 
 14363      72616E64 
 14363      00
 14364              	.LASF36:
 14365 0733 5F5F746D 		.ascii	"__tm_sec\000"
 14365      5F736563 
 14365      00
 14366              	.LASF33:
 14367 073c 5F776473 		.ascii	"_wds\000"
 14367      00
 14368              	.LASF42:
 14369 0741 5F5F746D 		.ascii	"__tm_wday\000"
 14369      5F776461 
 14369      7900
 14370              	.LASF97:
 14371 074b 5F676C75 		.ascii	"_glue\000"
 14371      6500
 14372              	.LASF128:
 14373 0751 696C656E 		.ascii	"ilen\000"
 14373      00
 14374              	.LASF124:
 14375 0756 5F6E6D61 		.ascii	"_nmalloc\000"
 14375      6C6C6F63 
 14375      00
 14376              	.LASF114:
 14377 075f 5F6C3634 		.ascii	"_l64a_buf\000"
 14377      615F6275 
 14377      6600
 14378              	.LASF133:
 14379 0769 72697065 		.ascii	"ripemd160_starts\000"
 14379      6D643136 
 14379      305F7374 
 14379      61727473 
 14379      00
ARM GAS  C:\Users\jo\AppData\Local\Temp\ccdgtuym.s 			page 260


 14380              	.LASF92:
 14381 077a 5F736967 		.ascii	"_sig_func\000"
 14381      5F66756E 
 14381      6300
 14382              	.LASF66:
 14383 0784 5F6E6275 		.ascii	"_nbuf\000"
 14383      6600
 14384              	.LASF125:
 14385 078a 5F756E75 		.ascii	"_unused\000"
 14385      73656400 
 14386              	.LASF132:
 14387 0792 72697065 		.ascii	"ripemd160_init\000"
 14387      6D643136 
 14387      305F696E 
 14387      697400
 14388              	.LASF158:
 14389 07a1 72697065 		.ascii	"ripemd160_test_hmac\000"
 14389      6D643136 
 14389      305F7465 
 14389      73745F68 
 14389      6D616300 
 14390              	.LASF44:
 14391 07b5 5F5F746D 		.ascii	"__tm_isdst\000"
 14391      5F697364 
 14391      737400
 14392              	.LASF107:
 14393 07c0 5F6C6F63 		.ascii	"_localtime_buf\000"
 14393      616C7469 
 14393      6D655F62 
 14393      756600
 14394              	.LASF64:
 14395 07cf 5F636C6F 		.ascii	"_close\000"
 14395      736500
 14396              	.LASF110:
 14397 07d6 5F723438 		.ascii	"_r48\000"
 14397      00
 14398              	.LASF112:
 14399 07db 5F6D6274 		.ascii	"_mbtowc_state\000"
 14399      6F77635F 
 14399      73746174 
 14399      6500
 14400              	.LASF86:
 14401 07e9 5F703573 		.ascii	"_p5s\000"
 14401      00
 14402              	.LASF16:
 14403 07ee 6F706164 		.ascii	"opad\000"
 14403      00
 14404              	.LASF174:
 14405 07f3 70757473 		.ascii	"puts\000"
 14405      00
 14406              	.LASF130:
 14407 07f8 6C656674 		.ascii	"left\000"
 14407      00
 14408              	.LASF141:
 14409 07fd 7061646E 		.ascii	"padn\000"
 14409      00
 14410              	.LASF39:
ARM GAS  C:\Users\jo\AppData\Local\Temp\ccdgtuym.s 			page 261


 14411 0802 5F5F746D 		.ascii	"__tm_mday\000"
 14411      5F6D6461 
 14411      7900
 14412              		.ident	"GCC: (GNU Tools for ARM Embedded Processors) 4.9.3 20141119 (release) [ARM/embedded-4_9-br
ARM GAS  C:\Users\jo\AppData\Local\Temp\ccdgtuym.s 			page 262


DEFINED SYMBOLS
                            *ABS*:00000000 ripemd160.c
C:\Users\jo\AppData\Local\Temp\ccdgtuym.s:19     .text.ripemd160_init:00000000 $t
C:\Users\jo\AppData\Local\Temp\ccdgtuym.s:25     .text.ripemd160_init:00000000 ripemd160_init
C:\Users\jo\AppData\Local\Temp\ccdgtuym.s:43     .text.ripemd160_free:00000000 $t
C:\Users\jo\AppData\Local\Temp\ccdgtuym.s:49     .text.ripemd160_free:00000000 ripemd160_free
C:\Users\jo\AppData\Local\Temp\ccdgtuym.s:81     .text.ripemd160_starts:00000000 $t
C:\Users\jo\AppData\Local\Temp\ccdgtuym.s:87     .text.ripemd160_starts:00000000 ripemd160_starts
C:\Users\jo\AppData\Local\Temp\ccdgtuym.s:134    .text.ripemd160_starts:00000020 $d
C:\Users\jo\AppData\Local\Temp\ccdgtuym.s:143    .text.ripemd160_process:00000000 $t
C:\Users\jo\AppData\Local\Temp\ccdgtuym.s:149    .text.ripemd160_process:00000000 ripemd160_process
C:\Users\jo\AppData\Local\Temp\ccdgtuym.s:997    .text.ripemd160_process:0000064c $d
C:\Users\jo\AppData\Local\Temp\ccdgtuym.s:1001   .text.ripemd160_process:00000658 $t
C:\Users\jo\AppData\Local\Temp\ccdgtuym.s:1476   .text.ripemd160_process:00000a44 $d
C:\Users\jo\AppData\Local\Temp\ccdgtuym.s:1480   .text.ripemd160_process:00000a4c $t
C:\Users\jo\AppData\Local\Temp\ccdgtuym.s:1930   .text.ripemd160_process:00000dc8 $d
C:\Users\jo\AppData\Local\Temp\ccdgtuym.s:1935   .text.ripemd160_process:00000dd8 $t
C:\Users\jo\AppData\Local\Temp\ccdgtuym.s:2793   .text.ripemd160_process:00001500 $d
C:\Users\jo\AppData\Local\Temp\ccdgtuym.s:2797   .text.ripemd160_process:0000150c $t
C:\Users\jo\AppData\Local\Temp\ccdgtuym.s:2976   .text.ripemd160_process:0000164c $d
C:\Users\jo\AppData\Local\Temp\ccdgtuym.s:2981   .text.ripemd160_update.part.0:00000000 $t
C:\Users\jo\AppData\Local\Temp\ccdgtuym.s:2986   .text.ripemd160_update.part.0:00000000 ripemd160_update.part.0
C:\Users\jo\AppData\Local\Temp\ccdgtuym.s:3125   .text.ripemd160_update:00000000 $t
C:\Users\jo\AppData\Local\Temp\ccdgtuym.s:3131   .text.ripemd160_update:00000000 ripemd160_update
C:\Users\jo\AppData\Local\Temp\ccdgtuym.s:3149   .text.ripemd160_finish:00000000 $t
C:\Users\jo\AppData\Local\Temp\ccdgtuym.s:3155   .text.ripemd160_finish:00000000 ripemd160_finish
C:\Users\jo\AppData\Local\Temp\ccdgtuym.s:3307   .text.ripemd160_finish:000000cc $d
C:\Users\jo\AppData\Local\Temp\ccdgtuym.s:3312   .text.ripemd160:00000000 $t
C:\Users\jo\AppData\Local\Temp\ccdgtuym.s:3318   .text.ripemd160:00000000 ripemd160
C:\Users\jo\AppData\Local\Temp\ccdgtuym.s:3430   .text.ripemd160:00000050 $d
C:\Users\jo\AppData\Local\Temp\ccdgtuym.s:3441   .text.ripemd160_file:00000000 $t
C:\Users\jo\AppData\Local\Temp\ccdgtuym.s:3447   .text.ripemd160_file:00000000 ripemd160_file
C:\Users\jo\AppData\Local\Temp\ccdgtuym.s:3608   .text.ripemd160_file:00000090 $d
C:\Users\jo\AppData\Local\Temp\ccdgtuym.s:3618   .text.ripemd160_hmac_starts:00000000 $t
C:\Users\jo\AppData\Local\Temp\ccdgtuym.s:3624   .text.ripemd160_hmac_starts:00000000 ripemd160_hmac_starts
C:\Users\jo\AppData\Local\Temp\ccdgtuym.s:3812   .text.ripemd160_hmac_starts:000000cc $d
C:\Users\jo\AppData\Local\Temp\ccdgtuym.s:3821   .text.ripemd160_hmac_update:00000000 $t
C:\Users\jo\AppData\Local\Temp\ccdgtuym.s:3827   .text.ripemd160_hmac_update:00000000 ripemd160_hmac_update
C:\Users\jo\AppData\Local\Temp\ccdgtuym.s:3849   .text.ripemd160_hmac_finish:00000000 $t
C:\Users\jo\AppData\Local\Temp\ccdgtuym.s:3855   .text.ripemd160_hmac_finish:00000000 ripemd160_hmac_finish
C:\Users\jo\AppData\Local\Temp\ccdgtuym.s:3969   .text.ripemd160_hmac_finish:00000058 $d
C:\Users\jo\AppData\Local\Temp\ccdgtuym.s:3978   .text.ripemd160_hmac_reset:00000000 $t
C:\Users\jo\AppData\Local\Temp\ccdgtuym.s:3984   .text.ripemd160_hmac_reset:00000000 ripemd160_hmac_reset
C:\Users\jo\AppData\Local\Temp\ccdgtuym.s:4055   .text.ripemd160_hmac_reset:00000028 $d
C:\Users\jo\AppData\Local\Temp\ccdgtuym.s:4066   .text.ripemd160_hmac:00000000 $t
C:\Users\jo\AppData\Local\Temp\ccdgtuym.s:4072   .text.ripemd160_hmac:00000000 ripemd160_hmac
C:\Users\jo\AppData\Local\Temp\ccdgtuym.s:4180   .text.ripemd160_self_test:00000000 $t
C:\Users\jo\AppData\Local\Temp\ccdgtuym.s:4186   .text.ripemd160_self_test:00000000 ripemd160_self_test
C:\Users\jo\AppData\Local\Temp\ccdgtuym.s:4383   .text.ripemd160_self_test:00000104 $d
C:\Users\jo\AppData\Local\Temp\ccdgtuym.s:4395   .rodata.ripemd160_test_hmac:00000000 $d
C:\Users\jo\AppData\Local\Temp\ccdgtuym.s:4399   .rodata.ripemd160_test_hmac:00000000 ripemd160_test_hmac
C:\Users\jo\AppData\Local\Temp\ccdgtuym.s:4721   .rodata.ripemd160_test_md:00000000 $d
C:\Users\jo\AppData\Local\Temp\ccdgtuym.s:4725   .rodata.ripemd160_test_md:00000000 ripemd160_test_md
C:\Users\jo\AppData\Local\Temp\ccdgtuym.s:4887   .rodata.ripemd160_padding:00000000 $d
C:\Users\jo\AppData\Local\Temp\ccdgtuym.s:4891   .rodata.ripemd160_padding:00000000 ripemd160_padding
C:\Users\jo\AppData\Local\Temp\ccdgtuym.s:4957   .rodata.str1.4:00000000 $d
C:\Users\jo\AppData\Local\Temp\ccdgtuym.s:4998   .rodata.ripemd160_test_input:00000000 $d
ARM GAS  C:\Users\jo\AppData\Local\Temp\ccdgtuym.s 			page 263


C:\Users\jo\AppData\Local\Temp\ccdgtuym.s:5002   .rodata.ripemd160_test_input:00000000 ripemd160_test_input
C:\Users\jo\AppData\Local\Temp\ccdgtuym.s:5012   .rodata.ripemd160_test_key:00000000 $d
C:\Users\jo\AppData\Local\Temp\ccdgtuym.s:5016   .rodata.ripemd160_test_key:00000000 ripemd160_test_key
                     .debug_frame:00000010 $d
C:\Users\jo\AppData\Local\Temp\ccdgtuym.s:142    .text.ripemd160_starts:00000034 $t
C:\Users\jo\AppData\Local\Temp\ccdgtuym.s:3440   .text.ripemd160:00000064 $t
C:\Users\jo\AppData\Local\Temp\ccdgtuym.s:3617   .text.ripemd160_file:000000a8 $t
C:\Users\jo\AppData\Local\Temp\ccdgtuym.s:3977   .text.ripemd160_hmac_finish:0000006c $t
C:\Users\jo\AppData\Local\Temp\ccdgtuym.s:4065   .text.ripemd160_hmac_reset:0000003c $t
C:\Users\jo\AppData\Local\Temp\ccdgtuym.s:4394   .text.ripemd160_self_test:00000124 $t

UNDEFINED SYMBOLS
memset
memcpy
fopen
fread
fclose
strlen
memcmp
printf
puts
putchar
