ARM GAS  C:\Users\jo\AppData\Local\Temp\ccEwiVcU.s 			page 1


   1              		.syntax unified
   2              		.cpu cortex-m4
   3              		.fpu softvfp
   4              		.eabi_attribute 20, 1
   5              		.eabi_attribute 21, 1
   6              		.eabi_attribute 23, 3
   7              		.eabi_attribute 24, 1
   8              		.eabi_attribute 25, 1
   9              		.eabi_attribute 26, 1
  10              		.eabi_attribute 30, 2
  11              		.eabi_attribute 34, 1
  12              		.eabi_attribute 18, 4
  13              		.thumb
  14              		.file	"rtc.c"
  15              		.text
  16              	.Ltext0:
  17              		.cfi_sections	.debug_frame
  18              		.section	.text.rtcInit,"ax",%progbits
  19              		.align	2
  20              		.p2align 4,,15
  21              		.global	rtcInit
  22              		.thumb
  23              		.thumb_func
  24              		.type	rtcInit, %function
  25              	rtcInit:
  26              	.LFB259:
  27              		.file 1 "../../../os/hal/src/rtc.c"
  28              		.loc 1 67 0
  29              		.cfi_startproc
  30              		@ args = 0, pretend = 0, frame = 0
  31              		@ frame_needed = 0, uses_anonymous_args = 0
  32              		@ link register save eliminated.
  33              		.loc 1 69 0
  34 0000 FFF7FEBF 		b	rtc_lld_init
  35              	.LVL0:
  36              		.cfi_endproc
  37              	.LFE259:
  38              		.size	rtcInit, .-rtcInit
  39 0004 AFF30080 		.section	.text.rtcObjectInit,"ax",%progbits
  39      AFF30080 
  39      AFF30080 
  40              		.align	2
  41              		.p2align 4,,15
  42              		.global	rtcObjectInit
  43              		.thumb
  44              		.thumb_func
  45              		.type	rtcObjectInit, %function
  46              	rtcObjectInit:
  47              	.LFB260:
  48              		.loc 1 81 0
  49              		.cfi_startproc
  50              		@ args = 0, pretend = 0, frame = 0
  51              		@ frame_needed = 0, uses_anonymous_args = 0
  52              		@ link register save eliminated.
  53              	.LVL1:
  54 0000 7047     		bx	lr
  55              		.cfi_endproc
ARM GAS  C:\Users\jo\AppData\Local\Temp\ccEwiVcU.s 			page 2


  56              	.LFE260:
  57              		.size	rtcObjectInit, .-rtcObjectInit
  58 0002 00BFAFF3 		.section	.text.rtcSetTime,"ax",%progbits
  58      0080AFF3 
  58      0080AFF3 
  58      0080
  59              		.align	2
  60              		.p2align 4,,15
  61              		.global	rtcSetTime
  62              		.thumb
  63              		.thumb_func
  64              		.type	rtcSetTime, %function
  65              	rtcSetTime:
  66              	.LFB261:
  67              		.loc 1 104 0
  68              		.cfi_startproc
  69              		@ args = 0, pretend = 0, frame = 8
  70              		@ frame_needed = 0, uses_anonymous_args = 0
  71              	.LVL2:
  72              		.loc 1 104 0
  73 0000 10B5     		push	{r4, lr}
  74              		.cfi_def_cfa_offset 8
  75              		.cfi_offset 4, -8
  76              		.cfi_offset 14, -4
  77              		.loc 1 106 0
  78 0002 0446     		mov	r4, r0
  79              		.loc 1 104 0
  80 0004 82B0     		sub	sp, sp, #8
  81              		.cfi_def_cfa_offset 16
  82              		.loc 1 106 0
  83 0006 30B1     		cbz	r0, .L4
  84              		.loc 1 106 0 is_stmt 0 discriminator 3
  85 0008 29B1     		cbz	r1, .L4
  86              		.loc 1 108 0 is_stmt 1
  87 000a 2046     		mov	r0, r4
  88              		.loc 1 109 0
  89 000c 02B0     		add	sp, sp, #8
  90              		.cfi_remember_state
  91              		.cfi_def_cfa_offset 8
  92              		@ sp needed
  93 000e BDE81040 		pop	{r4, lr}
  94              		.cfi_restore 14
  95              		.cfi_restore 4
  96              		.cfi_def_cfa_offset 0
  97              		.loc 1 108 0
  98 0012 FFF7FEBF 		b	rtc_lld_set_time
  99              	.LVL3:
 100              	.L4:
 101              		.cfi_restore_state
 102              		.loc 1 106 0 discriminator 4
 103 0016 0548     		ldr	r0, .L11
 104              	.LVL4:
 105 0018 0191     		str	r1, [sp, #4]
 106 001a FFF7FEFF 		bl	chSysHalt
 107              	.LVL5:
 108 001e 0199     		ldr	r1, [sp, #4]
 109              		.loc 1 108 0 discriminator 4
ARM GAS  C:\Users\jo\AppData\Local\Temp\ccEwiVcU.s 			page 3


 110 0020 2046     		mov	r0, r4
 111              		.loc 1 109 0 discriminator 4
 112 0022 02B0     		add	sp, sp, #8
 113              		.cfi_def_cfa_offset 8
 114              		@ sp needed
 115 0024 BDE81040 		pop	{r4, lr}
 116              		.cfi_restore 4
 117              		.cfi_restore 14
 118              		.cfi_def_cfa_offset 0
 119              	.LVL6:
 120              		.loc 1 108 0 discriminator 4
 121 0028 FFF7FEBF 		b	rtc_lld_set_time
 122              	.LVL7:
 123              	.L12:
 124              		.align	2
 125              	.L11:
 126 002c 00000000 		.word	.LANCHOR0
 127              		.cfi_endproc
 128              	.LFE261:
 129              		.size	rtcSetTime, .-rtcSetTime
 130              		.section	.text.rtcGetTime,"ax",%progbits
 131              		.align	2
 132              		.p2align 4,,15
 133              		.global	rtcGetTime
 134              		.thumb
 135              		.thumb_func
 136              		.type	rtcGetTime, %function
 137              	rtcGetTime:
 138              	.LFB262:
 139              		.loc 1 125 0
 140              		.cfi_startproc
 141              		@ args = 0, pretend = 0, frame = 8
 142              		@ frame_needed = 0, uses_anonymous_args = 0
 143              	.LVL8:
 144 0000 10B5     		push	{r4, lr}
 145              		.cfi_def_cfa_offset 8
 146              		.cfi_offset 4, -8
 147              		.cfi_offset 14, -4
 148              		.loc 1 127 0
 149 0002 0446     		mov	r4, r0
 150              		.loc 1 125 0
 151 0004 82B0     		sub	sp, sp, #8
 152              		.cfi_def_cfa_offset 16
 153              		.loc 1 127 0
 154 0006 30B1     		cbz	r0, .L14
 155              		.loc 1 127 0 is_stmt 0 discriminator 3
 156 0008 29B1     		cbz	r1, .L14
 157              		.loc 1 129 0 is_stmt 1
 158 000a 2046     		mov	r0, r4
 159              		.loc 1 130 0
 160 000c 02B0     		add	sp, sp, #8
 161              		.cfi_remember_state
 162              		.cfi_def_cfa_offset 8
 163              		@ sp needed
 164 000e BDE81040 		pop	{r4, lr}
 165              		.cfi_restore 14
 166              		.cfi_restore 4
ARM GAS  C:\Users\jo\AppData\Local\Temp\ccEwiVcU.s 			page 4


 167              		.cfi_def_cfa_offset 0
 168              		.loc 1 129 0
 169 0012 FFF7FEBF 		b	rtc_lld_get_time
 170              	.LVL9:
 171              	.L14:
 172              		.cfi_restore_state
 173              		.loc 1 127 0 discriminator 4
 174 0016 0548     		ldr	r0, .L20
 175              	.LVL10:
 176 0018 0191     		str	r1, [sp, #4]
 177 001a FFF7FEFF 		bl	chSysHalt
 178              	.LVL11:
 179 001e 0199     		ldr	r1, [sp, #4]
 180              		.loc 1 129 0 discriminator 4
 181 0020 2046     		mov	r0, r4
 182              		.loc 1 130 0 discriminator 4
 183 0022 02B0     		add	sp, sp, #8
 184              		.cfi_def_cfa_offset 8
 185              		@ sp needed
 186 0024 BDE81040 		pop	{r4, lr}
 187              		.cfi_restore 4
 188              		.cfi_restore 14
 189              		.cfi_def_cfa_offset 0
 190              	.LVL12:
 191              		.loc 1 129 0 discriminator 4
 192 0028 FFF7FEBF 		b	rtc_lld_get_time
 193              	.LVL13:
 194              	.L21:
 195              		.align	2
 196              	.L20:
 197 002c 00000000 		.word	.LANCHOR1
 198              		.cfi_endproc
 199              	.LFE262:
 200              		.size	rtcGetTime, .-rtcGetTime
 201              		.section	.text.rtcSetAlarm,"ax",%progbits
 202              		.align	2
 203              		.p2align 4,,15
 204              		.global	rtcSetAlarm
 205              		.thumb
 206              		.thumb_func
 207              		.type	rtcSetAlarm, %function
 208              	rtcSetAlarm:
 209              	.LFB263:
 210              		.loc 1 150 0
 211              		.cfi_startproc
 212              		@ args = 0, pretend = 0, frame = 0
 213              		@ frame_needed = 0, uses_anonymous_args = 0
 214              	.LVL14:
 215 0000 70B5     		push	{r4, r5, r6, lr}
 216              		.cfi_def_cfa_offset 16
 217              		.cfi_offset 4, -16
 218              		.cfi_offset 5, -12
 219              		.cfi_offset 6, -8
 220              		.cfi_offset 14, -4
 221              		.loc 1 150 0
 222 0002 0D46     		mov	r5, r1
 223 0004 1646     		mov	r6, r2
ARM GAS  C:\Users\jo\AppData\Local\Temp\ccEwiVcU.s 			page 5


 224              		.loc 1 152 0
 225 0006 0446     		mov	r4, r0
 226 0008 08B1     		cbz	r0, .L23
 227              		.loc 1 152 0 is_stmt 0 discriminator 3
 228 000a 0129     		cmp	r1, #1
 229 000c 02D9     		bls	.L24
 230              	.L23:
 231              		.loc 1 152 0 discriminator 4
 232 000e 0548     		ldr	r0, .L29
 233              	.LVL15:
 234 0010 FFF7FEFF 		bl	chSysHalt
 235              	.LVL16:
 236              	.L24:
 237              		.loc 1 154 0 is_stmt 1
 238 0014 2046     		mov	r0, r4
 239 0016 2946     		mov	r1, r5
 240 0018 3246     		mov	r2, r6
 241              		.loc 1 155 0
 242 001a BDE87040 		pop	{r4, r5, r6, lr}
 243              		.cfi_restore 14
 244              		.cfi_restore 6
 245              		.cfi_restore 5
 246              		.cfi_restore 4
 247              		.cfi_def_cfa_offset 0
 248              	.LVL17:
 249              		.loc 1 154 0
 250 001e FFF7FEBF 		b	rtc_lld_set_alarm
 251              	.LVL18:
 252              	.L30:
 253 0022 00BF     		.align	2
 254              	.L29:
 255 0024 00000000 		.word	.LANCHOR2
 256              		.cfi_endproc
 257              	.LFE263:
 258              		.size	rtcSetAlarm, .-rtcSetAlarm
 259 0028 AFF30080 		.section	.text.rtcGetAlarm,"ax",%progbits
 259      AFF30080 
 260              		.align	2
 261              		.p2align 4,,15
 262              		.global	rtcGetAlarm
 263              		.thumb
 264              		.thumb_func
 265              		.type	rtcGetAlarm, %function
 266              	rtcGetAlarm:
 267              	.LFB264:
 268              		.loc 1 176 0
 269              		.cfi_startproc
 270              		@ args = 0, pretend = 0, frame = 0
 271              		@ frame_needed = 0, uses_anonymous_args = 0
 272              	.LVL19:
 273 0000 70B5     		push	{r4, r5, r6, lr}
 274              		.cfi_def_cfa_offset 16
 275              		.cfi_offset 4, -16
 276              		.cfi_offset 5, -12
 277              		.cfi_offset 6, -8
 278              		.cfi_offset 14, -4
 279              		.loc 1 176 0
ARM GAS  C:\Users\jo\AppData\Local\Temp\ccEwiVcU.s 			page 6


 280 0002 0D46     		mov	r5, r1
 281 0004 1646     		mov	r6, r2
 282              		.loc 1 178 0
 283 0006 0446     		mov	r4, r0
 284 0008 08B1     		cbz	r0, .L32
 285              		.loc 1 178 0 is_stmt 0 discriminator 3
 286 000a 0129     		cmp	r1, #1
 287 000c 09D9     		bls	.L39
 288              	.L32:
 289              		.loc 1 178 0 discriminator 6
 290 000e 0948     		ldr	r0, .L40
 291              	.LVL20:
 292 0010 FFF7FEFF 		bl	chSysHalt
 293              	.LVL21:
 294              		.loc 1 182 0 is_stmt 1 discriminator 6
 295 0014 2046     		mov	r0, r4
 296 0016 2946     		mov	r1, r5
 297 0018 3246     		mov	r2, r6
 298              		.loc 1 183 0 discriminator 6
 299 001a BDE87040 		pop	{r4, r5, r6, lr}
 300              		.cfi_remember_state
 301              		.cfi_restore 14
 302              		.cfi_restore 6
 303              		.cfi_restore 5
 304              		.cfi_restore 4
 305              		.cfi_def_cfa_offset 0
 306              	.LVL22:
 307              		.loc 1 182 0 discriminator 6
 308 001e FFF7FEBF 		b	rtc_lld_get_alarm
 309              	.LVL23:
 310              	.L39:
 311              		.cfi_restore_state
 312              		.loc 1 178 0 discriminator 5
 313 0022 002A     		cmp	r2, #0
 314 0024 F3D0     		beq	.L32
 315              		.loc 1 182 0
 316 0026 2046     		mov	r0, r4
 317              	.LVL24:
 318 0028 2946     		mov	r1, r5
 319              	.LVL25:
 320 002a 3246     		mov	r2, r6
 321              	.LVL26:
 322              		.loc 1 183 0
 323 002c BDE87040 		pop	{r4, r5, r6, lr}
 324              		.cfi_restore 4
 325              		.cfi_restore 5
 326              		.cfi_restore 6
 327              		.cfi_restore 14
 328              		.cfi_def_cfa_offset 0
 329              	.LVL27:
 330              		.loc 1 182 0
 331 0030 FFF7FEBF 		b	rtc_lld_get_alarm
 332              	.LVL28:
 333              	.L41:
 334              		.align	2
 335              	.L40:
 336 0034 00000000 		.word	.LANCHOR3
ARM GAS  C:\Users\jo\AppData\Local\Temp\ccEwiVcU.s 			page 7


 337              		.cfi_endproc
 338              	.LFE264:
 339              		.size	rtcGetAlarm, .-rtcGetAlarm
 340 0038 AFF30080 		.section	.text.rtcConvertDateTimeToStructTm,"ax",%progbits
 340      AFF30080 
 341              		.align	2
 342              		.p2align 4,,15
 343              		.global	rtcConvertDateTimeToStructTm
 344              		.thumb
 345              		.thumb_func
 346              		.type	rtcConvertDateTimeToStructTm, %function
 347              	rtcConvertDateTimeToStructTm:
 348              	.LFB265:
 349              		.loc 1 222 0
 350              		.cfi_startproc
 351              		@ args = 0, pretend = 0, frame = 0
 352              		@ frame_needed = 0, uses_anonymous_args = 0
 353              	.LVL29:
 354 0000 2DE9F04F 		push	{r4, r5, r6, r7, r8, r9, r10, fp, lr}
 355              		.cfi_def_cfa_offset 36
 356              		.cfi_offset 4, -36
 357              		.cfi_offset 5, -32
 358              		.cfi_offset 6, -28
 359              		.cfi_offset 7, -24
 360              		.cfi_offset 8, -20
 361              		.cfi_offset 9, -16
 362              		.cfi_offset 10, -12
 363              		.cfi_offset 11, -8
 364              		.cfi_offset 14, -4
 365              		.loc 1 230 0
 366 0004 D0F80480 		ldr	r8, [r0, #4]
 367 0008 2A4B     		ldr	r3, .L48
 368              		.loc 1 226 0
 369 000a 4678     		ldrb	r6, [r0, #1]	@ zero_extendqisi2
 370              		.loc 1 225 0
 371 000c 90F800C0 		ldrb	ip, [r0]	@ zero_extendqisi2
 372              		.loc 1 227 0
 373 0010 90F802E0 		ldrb	lr, [r0, #2]	@ zero_extendqisi2
 374              		.loc 1 231 0
 375 0014 284D     		ldr	r5, .L48+4
 376              		.loc 1 233 0
 377 0016 294C     		ldr	r4, .L48+8
 378              		.loc 1 230 0
 379 0018 C8F31A00 		ubfx	r0, r8, #0, #27
 380              	.LVL30:
 381 001c 83FB008A 		smull	r8, r10, r3, r0
 382 0020 4FEA9A1A 		lsr	r10, r10, #6
 383              	.LVL31:
 384              		.loc 1 231 0
 385 0024 8AFB0589 		smull	r8, r9, r10, r5
 386 0028 0AEB090B 		add	fp, r10, r9
 387 002c 4FEA6B1B 		asr	fp, fp, #5
 388 0030 CBEB0B1B 		rsb	fp, fp, fp, lsl #4
 389 0034 AAEB8B0B 		sub	fp, r10, fp, lsl #2
 390              		.loc 1 232 0
 391 0038 CBEB0A0A 		rsb	r10, fp, r10
 392              	.LVL32:
ARM GAS  C:\Users\jo\AppData\Local\Temp\ccEwiVcU.s 			page 8


 393              		.loc 1 233 0
 394 003c 8AFB0489 		smull	r8, r9, r10, r4
 395 0040 D144     		add	r9, r9, r10
 396 0042 4FEAEA78 		asr	r8, r10, #31
 397 0046 C8EBE928 		rsb	r8, r8, r9, asr #11
 398 004a 4FF46169 		mov	r9, #3600
 399 004e 09FB18A8 		mls	r8, r9, r8, r10
 400 0052 85FB0895 		smull	r9, r5, r5, r8
 401 0056 4544     		add	r5, r5, r8
 402 0058 4FEAE878 		asr	r8, r8, #31
 403 005c C8EB6515 		rsb	r5, r8, r5, asr #5
 404              		.loc 1 234 0
 405 0060 A5EB0518 		sub	r8, r5, r5, lsl #4
 406 0064 0AEB880A 		add	r10, r10, r8, lsl #2
 407              	.LVL33:
 408              		.loc 1 235 0
 409 0068 84FB0A84 		smull	r8, r4, r4, r10
 410              		.loc 1 228 0
 411 006c 3746     		mov	r7, r6
 412              		.loc 1 235 0
 413 006e 5444     		add	r4, r4, r10
 414              		.loc 1 226 0
 415 0070 06F00F06 		and	r6, r6, #15
 416              		.loc 1 235 0
 417 0074 4FEAEA7A 		asr	r10, r10, #31
 418              		.loc 1 225 0
 419 0078 0CF1500C 		add	ip, ip, #80
 420              		.loc 1 226 0
 421 007c 013E     		subs	r6, r6, #1
 422              		.loc 1 227 0
 423 007e 0EF01F0E 		and	lr, lr, #31
 424              		.loc 1 228 0
 425 0082 C7F30017 		ubfx	r7, r7, #4, #1
 426              		.loc 1 235 0
 427 0086 CAEBE424 		rsb	r4, r10, r4, asr #11
 428              		.loc 1 225 0
 429 008a C1F814C0 		str	ip, [r1, #20]
 430              		.loc 1 226 0
 431 008e 0E61     		str	r6, [r1, #16]
 432              		.loc 1 227 0
 433 0090 C1F80CE0 		str	lr, [r1, #12]
 434              		.loc 1 228 0
 435 0094 0F62     		str	r7, [r1, #32]
 436              		.loc 1 231 0
 437 0096 C1F800B0 		str	fp, [r1]
 438              		.loc 1 233 0
 439 009a 4D60     		str	r5, [r1, #4]
 440              	.LVL34:
 441              		.loc 1 235 0
 442 009c 8C60     		str	r4, [r1, #8]
 443              		.loc 1 237 0
 444 009e 3AB1     		cbz	r2, .L42
 445              		.loc 1 238 0
 446 00a0 A3FB0013 		umull	r1, r3, r3, r0
 447              	.LVL35:
 448 00a4 9B09     		lsrs	r3, r3, #6
 449 00a6 4FF47A71 		mov	r1, #1000
ARM GAS  C:\Users\jo\AppData\Local\Temp\ccEwiVcU.s 			page 9


 450 00aa 01FB1300 		mls	r0, r1, r3, r0
 451              	.LVL36:
 452 00ae 1060     		str	r0, [r2]
 453              	.L42:
 454 00b0 BDE8F08F 		pop	{r4, r5, r6, r7, r8, r9, r10, fp, pc}
 455              	.LVL37:
 456              	.L49:
 457              		.align	2
 458              	.L48:
 459 00b4 D34D6210 		.word	274877907
 460 00b8 89888888 		.word	-2004318071
 461 00bc C5B3A291 		.word	-1851608123
 462              		.cfi_endproc
 463              	.LFE265:
 464              		.size	rtcConvertDateTimeToStructTm, .-rtcConvertDateTimeToStructTm
 465              		.section	.text.rtcConvertStructTmToDateTime,"ax",%progbits
 466              		.align	2
 467              		.p2align 4,,15
 468              		.global	rtcConvertStructTmToDateTime
 469              		.thumb
 470              		.thumb_func
 471              		.type	rtcConvertStructTmToDateTime, %function
 472              	rtcConvertStructTmToDateTime:
 473              	.LFB266:
 474              		.loc 1 253 0
 475              		.cfi_startproc
 476              		@ args = 0, pretend = 0, frame = 0
 477              		@ frame_needed = 0, uses_anonymous_args = 0
 478              	.LVL38:
 479 0000 F0B5     		push	{r4, r5, r6, r7, lr}
 480              		.cfi_def_cfa_offset 20
 481              		.cfi_offset 4, -20
 482              		.cfi_offset 5, -16
 483              		.cfi_offset 6, -12
 484              		.cfi_offset 7, -8
 485              		.cfi_offset 14, -4
 486              		.loc 1 257 0
 487 0002 0769     		ldr	r7, [r0, #16]
 488              		.loc 1 259 0
 489 0004 8669     		ldr	r6, [r0, #24]
 490              		.loc 1 257 0
 491 0006 5478     		ldrb	r4, [r2, #1]	@ zero_extendqisi2
 492              		.loc 1 256 0
 493 0008 4369     		ldr	r3, [r0, #20]
 494              		.loc 1 260 0
 495 000a 056A     		ldr	r5, [r0, #32]
 496              		.loc 1 258 0
 497 000c 92F802E0 		ldrb	lr, [r2, #2]	@ zero_extendqisi2
 498              		.loc 1 257 0
 499 0010 0137     		adds	r7, r7, #1
 500 0012 67F30304 		bfi	r4, r7, #0, #4
 501              		.loc 1 259 0
 502 0016 0136     		adds	r6, r6, #1
 503 0018 66F34714 		bfi	r4, r6, #5, #3
 504              		.loc 1 256 0
 505 001c 503B     		subs	r3, r3, #80
 506              		.loc 1 258 0
ARM GAS  C:\Users\jo\AppData\Local\Temp\ccEwiVcU.s 			page 10


 507 001e C768     		ldr	r7, [r0, #12]
 508              		.loc 1 259 0
 509 0020 5470     		strb	r4, [r2, #1]
 510              		.loc 1 256 0
 511 0022 1370     		strb	r3, [r2]
 512              		.loc 1 260 0
 513 0024 6B1C     		adds	r3, r5, #1
 514              		.loc 1 264 0
 515 0026 15BF     		itete	ne
 516 0028 5378     		ldrbne	r3, [r2, #1]	@ zero_extendqisi2
 517              		.loc 1 261 0
 518 002a E3B2     		uxtbeq	r3, r4
 519              		.loc 1 264 0
 520 002c 65F30413 		bfine	r3, r5, #4, #1
 521              		.loc 1 261 0
 522 0030 6FF30413 		bfceq	r3, #4, #1
 523              		.loc 1 264 0
 524 0034 5370     		strb	r3, [r2, #1]
 525              		.loc 1 269 0
 526 0036 19C8     		ldmia	r0, {r0, r3, r4}
 527              	.LVL39:
 528 0038 C3EB0313 		rsb	r3, r3, r3, lsl #4
 529 003c 9B00     		lsls	r3, r3, #2
 530              		.loc 1 268 0
 531 003e 4FF46166 		mov	r6, #3600
 532 0042 06FB0433 		mla	r3, r6, r4, r3
 533 0046 5568     		ldr	r5, [r2, #4]
 534              		.loc 1 269 0
 535 0048 0344     		add	r3, r3, r0
 536              		.loc 1 270 0
 537 004a 4FF47A70 		mov	r0, #1000
 538              		.loc 1 268 0
 539 004e 00FB0311 		mla	r1, r0, r3, r1
 540              	.LVL40:
 541              		.loc 1 258 0
 542 0052 67F3040E 		bfi	lr, r7, #0, #5
 543              		.loc 1 268 0
 544 0056 61F31A05 		bfi	r5, r1, #0, #27
 545              		.loc 1 258 0
 546 005a 82F802E0 		strb	lr, [r2, #2]
 547              		.loc 1 268 0
 548 005e 5560     		str	r5, [r2, #4]
 549 0060 F0BD     		pop	{r4, r5, r6, r7, pc}
 550              		.cfi_endproc
 551              	.LFE266:
 552              		.size	rtcConvertStructTmToDateTime, .-rtcConvertStructTmToDateTime
 553 0062 00BFAFF3 		.section	.text.rtcConvertDateTimeToFAT,"ax",%progbits
 553      0080AFF3 
 553      0080AFF3 
 553      0080
 554              		.align	2
 555              		.p2align 4,,15
 556              		.global	rtcConvertDateTimeToFAT
 557              		.thumb
 558              		.thumb_func
 559              		.type	rtcConvertDateTimeToFAT, %function
 560              	rtcConvertDateTimeToFAT:
ARM GAS  C:\Users\jo\AppData\Local\Temp\ccEwiVcU.s 			page 11


 561              	.LFB267:
 562              		.loc 1 284 0
 563              		.cfi_startproc
 564              		@ args = 0, pretend = 0, frame = 0
 565              		@ frame_needed = 0, uses_anonymous_args = 0
 566              		@ link register save eliminated.
 567              	.LVL41:
 568              		.loc 1 288 0
 569 0000 4268     		ldr	r2, [r0, #4]
 570 0002 234B     		ldr	r3, .L61
 571 0004 C2F31A01 		ubfx	r1, r2, #0, #27
 572              		.loc 1 284 0
 573 0008 F0B4     		push	{r4, r5, r6, r7}
 574              		.cfi_def_cfa_offset 16
 575              		.cfi_offset 4, -16
 576              		.cfi_offset 5, -12
 577              		.cfi_offset 6, -8
 578              		.cfi_offset 7, -4
 579              		.loc 1 288 0
 580 000a A3FB0123 		umull	r2, r3, r3, r1
 581              		.loc 1 289 0
 582 000e 214D     		ldr	r5, .L61+4
 583              		.loc 1 290 0
 584 0010 214F     		ldr	r7, .L61+8
 585              		.loc 1 293 0
 586 0012 4678     		ldrb	r6, [r0, #1]	@ zero_extendqisi2
 587              		.loc 1 292 0
 588 0014 8478     		ldrb	r4, [r0, #2]	@ zero_extendqisi2
 589              		.loc 1 288 0
 590 0016 9B09     		lsrs	r3, r3, #6
 591              	.LVL42:
 592              		.loc 1 289 0
 593 0018 A5FB0321 		umull	r2, r1, r5, r3
 594 001c 4909     		lsrs	r1, r1, #5
 595 001e C1EB0111 		rsb	r1, r1, r1, lsl #4
 596 0022 A3EB8101 		sub	r1, r3, r1, lsl #2
 597              	.LVL43:
 598              		.loc 1 290 0
 599 0026 5B1A     		subs	r3, r3, r1
 600              	.LVL44:
 601 0028 A7FB0325 		umull	r2, r5, r7, r3
 602 002c ED0A     		lsrs	r5, r5, #11
 603 002e 4FF46162 		mov	r2, #3600
 604 0032 02FB1535 		mls	r5, r2, r5, r3
 605              	.LVL45:
 606              		.loc 1 291 0
 607 0036 C5EB0512 		rsb	r2, r5, r5, lsl #4
 608 003a A3EB8203 		sub	r3, r3, r2, lsl #2
 609 003e A7FB0332 		umull	r3, r2, r7, r3
 610              		.loc 1 296 0
 611 0042 F306     		lsls	r3, r6, #27
 612              		.loc 1 291 0
 613 0044 4FEAD222 		lsr	r2, r2, #11
 614              	.LVL46:
 615              		.loc 1 292 0
 616 0048 04F01F04 		and	r4, r4, #31
 617              	.LVL47:
ARM GAS  C:\Users\jo\AppData\Local\Temp\ccEwiVcU.s 			page 12


 618              		.loc 1 293 0
 619 004c 06F00F07 		and	r7, r6, #15
 620              	.LVL48:
 621              		.loc 1 296 0
 622 0050 02D5     		bpl	.L60
 623              		.loc 1 297 0
 624 0052 0132     		adds	r2, r2, #1
 625              	.LVL49:
 626              		.loc 1 298 0
 627 0054 182A     		cmp	r2, #24
 628 0056 0ED0     		beq	.L57
 629              	.L60:
 630 0058 D202     		lsls	r2, r2, #11
 631              	.LVL50:
 632 005a 2404     		lsls	r4, r4, #16
 633              	.LVL51:
 634              	.L56:
 635              		.loc 1 313 0
 636 005c 0378     		ldrb	r3, [r0]	@ zero_extendqisi2
 637 005e 5B06     		lsls	r3, r3, #25
 638 0060 43EA5103 		orr	r3, r3, r1, lsr #1
 639 0064 43EA4513 		orr	r3, r3, r5, lsl #5
 640 0068 1343     		orrs	r3, r3, r2
 641 006a 43EA0400 		orr	r0, r3, r4
 642              	.LVL52:
 643              		.loc 1 316 0
 644 006e 40EA4750 		orr	r0, r0, r7, lsl #21
 645              	.LVL53:
 646 0072 F0BC     		pop	{r4, r5, r6, r7}
 647              		.cfi_remember_state
 648              		.cfi_restore 7
 649              		.cfi_restore 6
 650              		.cfi_restore 5
 651              		.cfi_restore 4
 652              		.cfi_def_cfa_offset 0
 653              	.LVL54:
 654 0074 7047     		bx	lr
 655              	.LVL55:
 656              	.L57:
 657              		.cfi_restore_state
 658              		.loc 1 301 0
 659 0076 094B     		ldr	r3, .L61+12
 660 0078 3B44     		add	r3, r3, r7
 661              		.loc 1 300 0
 662 007a 0134     		adds	r4, r4, #1
 663              	.LVL56:
 664              		.loc 1 301 0
 665 007c 13F8013C 		ldrb	r3, [r3, #-1]	@ zero_extendqisi2
 666 0080 9C42     		cmp	r4, r3
 667 0082 92BF     		itee	ls
 668 0084 2404     		lslls	r4, r4, #16
 669              	.LVL57:
 670              		.loc 1 303 0
 671 0086 0137     		addhi	r7, r7, #1
 672              	.LVL58:
 673 0088 4FF48034 		movhi	r4, #65536
 674 008c 0022     		movs	r2, #0
ARM GAS  C:\Users\jo\AppData\Local\Temp\ccEwiVcU.s 			page 13


 675 008e E5E7     		b	.L56
 676              	.L62:
 677              		.align	2
 678              	.L61:
 679 0090 D34D6210 		.word	274877907
 680 0094 89888888 		.word	-2004318071
 681 0098 C5B3A291 		.word	-1851608123
 682 009c 00000000 		.word	.LANCHOR4
 683              		.cfi_endproc
 684              	.LFE267:
 685              		.size	rtcConvertDateTimeToFAT, .-rtcConvertDateTimeToFAT
 686              		.section	.rodata.month_len,"a",%progbits
 687              		.align	2
 688              		.set	.LANCHOR4,. + 0
 689              		.type	month_len, %object
 690              		.size	month_len, 12
 691              	month_len:
 692 0000 1F       		.byte	31
 693 0001 1E       		.byte	30
 694 0002 1F       		.byte	31
 695 0003 1E       		.byte	30
 696 0004 1F       		.byte	31
 697 0005 1E       		.byte	30
 698 0006 1F       		.byte	31
 699 0007 1F       		.byte	31
 700 0008 1E       		.byte	30
 701 0009 1F       		.byte	31
 702 000a 1E       		.byte	30
 703 000b 1F       		.byte	31
 704              		.section	.rodata.__func__.7512,"a",%progbits
 705              		.align	2
 706              		.set	.LANCHOR0,. + 0
 707              		.type	__func__.7512, %object
 708              		.size	__func__.7512, 11
 709              	__func__.7512:
 710 0000 72746353 		.ascii	"rtcSetTime\000"
 710      65745469 
 710      6D6500
 711 000b 00       		.section	.rodata.__func__.7517,"a",%progbits
 712              		.align	2
 713              		.set	.LANCHOR1,. + 0
 714              		.type	__func__.7517, %object
 715              		.size	__func__.7517, 11
 716              	__func__.7517:
 717 0000 72746347 		.ascii	"rtcGetTime\000"
 717      65745469 
 717      6D6500
 718 000b 00       		.section	.rodata.__func__.7523,"a",%progbits
 719              		.align	2
 720              		.set	.LANCHOR2,. + 0
 721              		.type	__func__.7523, %object
 722              		.size	__func__.7523, 12
 723              	__func__.7523:
 724 0000 72746353 		.ascii	"rtcSetAlarm\000"
 724      6574416C 
 724      61726D00 
 725              		.section	.rodata.__func__.7529,"a",%progbits
ARM GAS  C:\Users\jo\AppData\Local\Temp\ccEwiVcU.s 			page 14


 726              		.align	2
 727              		.set	.LANCHOR3,. + 0
 728              		.type	__func__.7529, %object
 729              		.size	__func__.7529, 12
 730              	__func__.7529:
 731 0000 72746347 		.ascii	"rtcGetAlarm\000"
 731      6574416C 
 731      61726D00 
 732              		.text
 733              	.Letext0:
 734              		.file 2 "c:\\program files\\gnu tools arm embedded\\4.9 2014q4\\lib\\gcc\\arm-none-eabi\\4.9.3\\in
 735              		.file 3 "c:\\program files\\gnu tools arm embedded\\4.9 2014q4\\arm-none-eabi\\include\\machine\\_
 736              		.file 4 "c:\\program files\\gnu tools arm embedded\\4.9 2014q4\\arm-none-eabi\\include\\stdint.h"
 737              		.file 5 "../../../os/rt/ports/ARMCMx/compilers/GCC/chtypes.h"
 738              		.file 6 "../../../os/rt/include/chsystypes.h"
 739              		.file 7 "../../../os/rt/include/chschd.h"
 740              		.file 8 "../../../os/ext/CMSIS/ST/stm32f407xx.h"
 741              		.file 9 "../../../os/rt/ports/ARMCMx/chcore.h"
 742              		.file 10 "../../../os/rt/ports/ARMCMx/chcore_v7m.h"
 743              		.file 11 "../../../os/rt/include/chdebug.h"
 744              		.file 12 "../../../os/rt/include/chtm.h"
 745              		.file 13 "../../../os/rt/include/chsem.h"
 746              		.file 14 "../../../os/rt/include/chmtx.h"
 747              		.file 15 "c:\\program files\\gnu tools arm embedded\\4.9 2014q4\\arm-none-eabi\\include\\time.h"
 748              		.file 16 "../../../os/hal/include/rtc.h"
 749              		.file 17 "../../../os/hal/ports/STM32/LLD/RTCv2/rtc_lld.h"
 750              		.file 18 "../../../os/rt/include/chsys.h"
 751              		.file 19 "../../../os/ext/CMSIS/include/core_cm4.h"