ARM GAS  C:\Users\jo\AppData\Local\Temp\ccEwiVcU.s 			page 1


   1              		.syntax unified
   2              		.cpu cortex-m4
   3              		.fpu softvfp
   4              		.eabi_attribute 20, 1
   5              		.eabi_attribute 21, 1
   6              		.eabi_attribute 23, 3
   7              		.eabi_attribute 24, 1
   8              		.eabi_attribute 25, 1
   9              		.eabi_attribute 26, 1
  10              		.eabi_attribute 30, 2
  11              		.eabi_attribute 34, 1
  12              		.eabi_attribute 18, 4
  13              		.thumb
  14              		.file	"rtc.c"
  15              		.text
  16              	.Ltext0:
  17              		.cfi_sections	.debug_frame
  18              		.section	.text.rtcInit,"ax",%progbits
  19              		.align	2
  20              		.p2align 4,,15
  21              		.global	rtcInit
  22              		.thumb
  23              		.thumb_func
  24              		.type	rtcInit, %function
  25              	rtcInit:
  26              	.LFB259:
  27              		.file 1 "../../../os/hal/src/rtc.c"
  28              		.loc 1 67 0
  29              		.cfi_startproc
  30              		@ args = 0, pretend = 0, frame = 0
  31              		@ frame_needed = 0, uses_anonymous_args = 0
  32              		@ link register save eliminated.
  33              		.loc 1 69 0
  34 0000 FFF7FEBF 		b	rtc_lld_init
  35              	.LVL0:
  36              		.cfi_endproc
  37              	.LFE259:
  38              		.size	rtcInit, .-rtcInit
  39 0004 AFF30080 		.section	.text.rtcObjectInit,"ax",%progbits
  39      AFF30080 
  39      AFF30080 
  40              		.align	2
  41              		.p2align 4,,15
  42              		.global	rtcObjectInit
  43              		.thumb
  44              		.thumb_func
  45              		.type	rtcObjectInit, %function
  46              	rtcObjectInit:
  47              	.LFB260:
  48              		.loc 1 81 0
  49              		.cfi_startproc
  50              		@ args = 0, pretend = 0, frame = 0
  51              		@ frame_needed = 0, uses_anonymous_args = 0
  52              		@ link register save eliminated.
  53              	.LVL1:
  54 0000 7047     		bx	lr
  55              		.cfi_endproc
ARM GAS  C:\Users\jo\AppData\Local\Temp\ccEwiVcU.s 			page 2


  56              	.LFE260:
  57              		.size	rtcObjectInit, .-rtcObjectInit
  58 0002 00BFAFF3 		.section	.text.rtcSetTime,"ax",%progbits
  58      0080AFF3 
  58      0080AFF3 
  58      0080
  59              		.align	2
  60              		.p2align 4,,15
  61              		.global	rtcSetTime
  62              		.thumb
  63              		.thumb_func
  64              		.type	rtcSetTime, %function
  65              	rtcSetTime:
  66              	.LFB261:
  67              		.loc 1 104 0
  68              		.cfi_startproc
  69              		@ args = 0, pretend = 0, frame = 8
  70              		@ frame_needed = 0, uses_anonymous_args = 0
  71              	.LVL2:
  72              		.loc 1 104 0
  73 0000 10B5     		push	{r4, lr}
  74              		.cfi_def_cfa_offset 8
  75              		.cfi_offset 4, -8
  76              		.cfi_offset 14, -4
  77              		.loc 1 106 0
  78 0002 0446     		mov	r4, r0
  79              		.loc 1 104 0
  80 0004 82B0     		sub	sp, sp, #8
  81              		.cfi_def_cfa_offset 16
  82              		.loc 1 106 0
  83 0006 30B1     		cbz	r0, .L4
  84              		.loc 1 106 0 is_stmt 0 discriminator 3
  85 0008 29B1     		cbz	r1, .L4
  86              		.loc 1 108 0 is_stmt 1
  87 000a 2046     		mov	r0, r4
  88              		.loc 1 109 0
  89 000c 02B0     		add	sp, sp, #8
  90              		.cfi_remember_state
  91              		.cfi_def_cfa_offset 8
  92              		@ sp needed
  93 000e BDE81040 		pop	{r4, lr}
  94              		.cfi_restore 14
  95              		.cfi_restore 4
  96              		.cfi_def_cfa_offset 0
  97              		.loc 1 108 0
  98 0012 FFF7FEBF 		b	rtc_lld_set_time
  99              	.LVL3:
 100              	.L4:
 101              		.cfi_restore_state
 102              		.loc 1 106 0 discriminator 4
 103 0016 0548     		ldr	r0, .L11
 104              	.LVL4:
 105 0018 0191     		str	r1, [sp, #4]
 106 001a FFF7FEFF 		bl	chSysHalt
 107              	.LVL5:
 108 001e 0199     		ldr	r1, [sp, #4]
 109              		.loc 1 108 0 discriminator 4
ARM GAS  C:\Users\jo\AppData\Local\Temp\ccEwiVcU.s 			page 3


 110 0020 2046     		mov	r0, r4
 111              		.loc 1 109 0 discriminator 4
 112 0022 02B0     		add	sp, sp, #8
 113              		.cfi_def_cfa_offset 8
 114              		@ sp needed
 115 0024 BDE81040 		pop	{r4, lr}
 116              		.cfi_restore 4
 117              		.cfi_restore 14
 118              		.cfi_def_cfa_offset 0
 119              	.LVL6:
 120              		.loc 1 108 0 discriminator 4
 121 0028 FFF7FEBF 		b	rtc_lld_set_time
 122              	.LVL7:
 123              	.L12:
 124              		.align	2
 125              	.L11:
 126 002c 00000000 		.word	.LANCHOR0
 127              		.cfi_endproc
 128              	.LFE261:
 129              		.size	rtcSetTime, .-rtcSetTime
 130              		.section	.text.rtcGetTime,"ax",%progbits
 131              		.align	2
 132              		.p2align 4,,15
 133              		.global	rtcGetTime
 134              		.thumb
 135              		.thumb_func
 136              		.type	rtcGetTime, %function
 137              	rtcGetTime:
 138              	.LFB262:
 139              		.loc 1 125 0
 140              		.cfi_startproc
 141              		@ args = 0, pretend = 0, frame = 8
 142              		@ frame_needed = 0, uses_anonymous_args = 0
 143              	.LVL8:
 144 0000 10B5     		push	{r4, lr}
 145              		.cfi_def_cfa_offset 8
 146              		.cfi_offset 4, -8
 147              		.cfi_offset 14, -4
 148              		.loc 1 127 0
 149 0002 0446     		mov	r4, r0
 150              		.loc 1 125 0
 151 0004 82B0     		sub	sp, sp, #8
 152              		.cfi_def_cfa_offset 16
 153              		.loc 1 127 0
 154 0006 30B1     		cbz	r0, .L14
 155              		.loc 1 127 0 is_stmt 0 discriminator 3
 156 0008 29B1     		cbz	r1, .L14
 157              		.loc 1 129 0 is_stmt 1
 158 000a 2046     		mov	r0, r4
 159              		.loc 1 130 0
 160 000c 02B0     		add	sp, sp, #8
 161              		.cfi_remember_state
 162              		.cfi_def_cfa_offset 8
 163              		@ sp needed
 164 000e BDE81040 		pop	{r4, lr}
 165              		.cfi_restore 14
 166              		.cfi_restore 4
ARM GAS  C:\Users\jo\AppData\Local\Temp\ccEwiVcU.s 			page 4


 167              		.cfi_def_cfa_offset 0
 168              		.loc 1 129 0
 169 0012 FFF7FEBF 		b	rtc_lld_get_time
 170              	.LVL9:
 171              	.L14:
 172              		.cfi_restore_state
 173              		.loc 1 127 0 discriminator 4
 174 0016 0548     		ldr	r0, .L20
 175              	.LVL10:
 176 0018 0191     		str	r1, [sp, #4]
 177 001a FFF7FEFF 		bl	chSysHalt
 178              	.LVL11:
 179 001e 0199     		ldr	r1, [sp, #4]
 180              		.loc 1 129 0 discriminator 4
 181 0020 2046     		mov	r0, r4
 182              		.loc 1 130 0 discriminator 4
 183 0022 02B0     		add	sp, sp, #8
 184              		.cfi_def_cfa_offset 8
 185              		@ sp needed
 186 0024 BDE81040 		pop	{r4, lr}
 187              		.cfi_restore 4
 188              		.cfi_restore 14
 189              		.cfi_def_cfa_offset 0
 190              	.LVL12:
 191              		.loc 1 129 0 discriminator 4
 192 0028 FFF7FEBF 		b	rtc_lld_get_time
 193              	.LVL13:
 194              	.L21:
 195              		.align	2
 196              	.L20:
 197 002c 00000000 		.word	.LANCHOR1
 198              		.cfi_endproc
 199              	.LFE262:
 200              		.size	rtcGetTime, .-rtcGetTime
 201              		.section	.text.rtcSetAlarm,"ax",%progbits
 202              		.align	2
 203              		.p2align 4,,15
 204              		.global	rtcSetAlarm
 205              		.thumb
 206              		.thumb_func
 207              		.type	rtcSetAlarm, %function
 208              	rtcSetAlarm:
 209              	.LFB263:
 210              		.loc 1 150 0
 211              		.cfi_startproc
 212              		@ args = 0, pretend = 0, frame = 0
 213              		@ frame_needed = 0, uses_anonymous_args = 0
 214              	.LVL14:
 215 0000 70B5     		push	{r4, r5, r6, lr}
 216              		.cfi_def_cfa_offset 16
 217              		.cfi_offset 4, -16
 218              		.cfi_offset 5, -12
 219              		.cfi_offset 6, -8
 220              		.cfi_offset 14, -4
 221              		.loc 1 150 0
 222 0002 0D46     		mov	r5, r1
 223 0004 1646     		mov	r6, r2
ARM GAS  C:\Users\jo\AppData\Local\Temp\ccEwiVcU.s 			page 5


 224              		.loc 1 152 0
 225 0006 0446     		mov	r4, r0
 226 0008 08B1     		cbz	r0, .L23
 227              		.loc 1 152 0 is_stmt 0 discriminator 3
 228 000a 0129     		cmp	r1, #1
 229 000c 02D9     		bls	.L24
 230              	.L23:
 231              		.loc 1 152 0 discriminator 4
 232 000e 0548     		ldr	r0, .L29
 233              	.LVL15:
 234 0010 FFF7FEFF 		bl	chSysHalt
 235              	.LVL16:
 236              	.L24:
 237              		.loc 1 154 0 is_stmt 1
 238 0014 2046     		mov	r0, r4
 239 0016 2946     		mov	r1, r5
 240 0018 3246     		mov	r2, r6
 241              		.loc 1 155 0
 242 001a BDE87040 		pop	{r4, r5, r6, lr}
 243              		.cfi_restore 14
 244              		.cfi_restore 6
 245              		.cfi_restore 5
 246              		.cfi_restore 4
 247              		.cfi_def_cfa_offset 0
 248              	.LVL17:
 249              		.loc 1 154 0
 250 001e FFF7FEBF 		b	rtc_lld_set_alarm
 251              	.LVL18:
 252              	.L30:
 253 0022 00BF     		.align	2
 254              	.L29:
 255 0024 00000000 		.word	.LANCHOR2
 256              		.cfi_endproc
 257              	.LFE263:
 258              		.size	rtcSetAlarm, .-rtcSetAlarm
 259 0028 AFF30080 		.section	.text.rtcGetAlarm,"ax",%progbits
 259      AFF30080 
 260              		.align	2
 261              		.p2align 4,,15
 262              		.global	rtcGetAlarm
 263              		.thumb
 264              		.thumb_func
 265              		.type	rtcGetAlarm, %function
 266              	rtcGetAlarm:
 267              	.LFB264:
 268              		.loc 1 176 0
 269              		.cfi_startproc
 270              		@ args = 0, pretend = 0, frame = 0
 271              		@ frame_needed = 0, uses_anonymous_args = 0
 272              	.LVL19:
 273 0000 70B5     		push	{r4, r5, r6, lr}
 274              		.cfi_def_cfa_offset 16
 275              		.cfi_offset 4, -16
 276              		.cfi_offset 5, -12
 277              		.cfi_offset 6, -8
 278              		.cfi_offset 14, -4
 279              		.loc 1 176 0
ARM GAS  C:\Users\jo\AppData\Local\Temp\ccEwiVcU.s 			page 6


 280 0002 0D46     		mov	r5, r1
 281 0004 1646     		mov	r6, r2
 282              		.loc 1 178 0
 283 0006 0446     		mov	r4, r0
 284 0008 08B1     		cbz	r0, .L32
 285              		.loc 1 178 0 is_stmt 0 discriminator 3
 286 000a 0129     		cmp	r1, #1
 287 000c 09D9     		bls	.L39
 288              	.L32:
 289              		.loc 1 178 0 discriminator 6
 290 000e 0948     		ldr	r0, .L40
 291              	.LVL20:
 292 0010 FFF7FEFF 		bl	chSysHalt
 293              	.LVL21:
 294              		.loc 1 182 0 is_stmt 1 discriminator 6
 295 0014 2046     		mov	r0, r4
 296 0016 2946     		mov	r1, r5
 297 0018 3246     		mov	r2, r6
 298              		.loc 1 183 0 discriminator 6
 299 001a BDE87040 		pop	{r4, r5, r6, lr}
 300              		.cfi_remember_state
 301              		.cfi_restore 14
 302              		.cfi_restore 6
 303              		.cfi_restore 5
 304              		.cfi_restore 4
 305              		.cfi_def_cfa_offset 0
 306              	.LVL22:
 307              		.loc 1 182 0 discriminator 6
 308 001e FFF7FEBF 		b	rtc_lld_get_alarm
 309              	.LVL23:
 310              	.L39:
 311              		.cfi_restore_state
 312              		.loc 1 178 0 discriminator 5
 313 0022 002A     		cmp	r2, #0
 314 0024 F3D0     		beq	.L32
 315              		.loc 1 182 0
 316 0026 2046     		mov	r0, r4
 317              	.LVL24:
 318 0028 2946     		mov	r1, r5
 319              	.LVL25:
 320 002a 3246     		mov	r2, r6
 321              	.LVL26:
 322              		.loc 1 183 0
 323 002c BDE87040 		pop	{r4, r5, r6, lr}
 324              		.cfi_restore 4
 325              		.cfi_restore 5
 326              		.cfi_restore 6
 327              		.cfi_restore 14
 328              		.cfi_def_cfa_offset 0
 329              	.LVL27:
 330              		.loc 1 182 0
 331 0030 FFF7FEBF 		b	rtc_lld_get_alarm
 332              	.LVL28:
 333              	.L41:
 334              		.align	2
 335              	.L40:
 336 0034 00000000 		.word	.LANCHOR3
ARM GAS  C:\Users\jo\AppData\Local\Temp\ccEwiVcU.s 			page 7


 337              		.cfi_endproc
 338              	.LFE264:
 339              		.size	rtcGetAlarm, .-rtcGetAlarm
 340 0038 AFF30080 		.section	.text.rtcConvertDateTimeToStructTm,"ax",%progbits
 340      AFF30080 
 341              		.align	2
 342              		.p2align 4,,15
 343              		.global	rtcConvertDateTimeToStructTm
 344              		.thumb
 345              		.thumb_func
 346              		.type	rtcConvertDateTimeToStructTm, %function
 347              	rtcConvertDateTimeToStructTm:
 348              	.LFB265:
 349              		.loc 1 222 0
 350              		.cfi_startproc
 351              		@ args = 0, pretend = 0, frame = 0
 352              		@ frame_needed = 0, uses_anonymous_args = 0
 353              	.LVL29:
 354 0000 2DE9F04F 		push	{r4, r5, r6, r7, r8, r9, r10, fp, lr}
 355              		.cfi_def_cfa_offset 36
 356              		.cfi_offset 4, -36
 357              		.cfi_offset 5, -32
 358              		.cfi_offset 6, -28
 359              		.cfi_offset 7, -24
 360              		.cfi_offset 8, -20
 361              		.cfi_offset 9, -16
 362              		.cfi_offset 10, -12
 363              		.cfi_offset 11, -8
 364              		.cfi_offset 14, -4
 365              		.loc 1 230 0
 366 0004 D0F80480 		ldr	r8, [r0, #4]
 367 0008 2A4B     		ldr	r3, .L48
 368              		.loc 1 226 0
 369 000a 4678     		ldrb	r6, [r0, #1]	@ zero_extendqisi2
 370              		.loc 1 225 0
 371 000c 90F800C0 		ldrb	ip, [r0]	@ zero_extendqisi2
 372              		.loc 1 227 0
 373 0010 90F802E0 		ldrb	lr, [r0, #2]	@ zero_extendqisi2
 374              		.loc 1 231 0
 375 0014 284D     		ldr	r5, .L48+4
 376              		.loc 1 233 0
 377 0016 294C     		ldr	r4, .L48+8
 378              		.loc 1 230 0
 379 0018 C8F31A00 		ubfx	r0, r8, #0, #27
 380              	.LVL30:
 381 001c 83FB008A 		smull	r8, r10, r3, r0
 382 0020 4FEA9A1A 		lsr	r10, r10, #6
 383              	.LVL31:
 384              		.loc 1 231 0
 385 0024 8AFB0589 		smull	r8, r9, r10, r5
 386 0028 0AEB090B 		add	fp, r10, r9
 387 002c 4FEA6B1B 		asr	fp, fp, #5
 388 0030 CBEB0B1B 		rsb	fp, fp, fp, lsl #4
 389 0034 AAEB8B0B 		sub	fp, r10, fp, lsl #2
 390              		.loc 1 232 0
 391 0038 CBEB0A0A 		rsb	r10, fp, r10
 392              	.LVL32:
ARM GAS  C:\Users\jo\AppData\Local\Temp\ccEwiVcU.s 			page 8


 393              		.loc 1 233 0
 394 003c 8AFB0489 		smull	r8, r9, r10, r4
 395 0040 D144     		add	r9, r9, r10
 396 0042 4FEAEA78 		asr	r8, r10, #31
 397 0046 C8EBE928 		rsb	r8, r8, r9, asr #11
 398 004a 4FF46169 		mov	r9, #3600
 399 004e 09FB18A8 		mls	r8, r9, r8, r10
 400 0052 85FB0895 		smull	r9, r5, r5, r8
 401 0056 4544     		add	r5, r5, r8
 402 0058 4FEAE878 		asr	r8, r8, #31
 403 005c C8EB6515 		rsb	r5, r8, r5, asr #5
 404              		.loc 1 234 0
 405 0060 A5EB0518 		sub	r8, r5, r5, lsl #4
 406 0064 0AEB880A 		add	r10, r10, r8, lsl #2
 407              	.LVL33:
 408              		.loc 1 235 0
 409 0068 84FB0A84 		smull	r8, r4, r4, r10
 410              		.loc 1 228 0
 411 006c 3746     		mov	r7, r6
 412              		.loc 1 235 0
 413 006e 5444     		add	r4, r4, r10
 414              		.loc 1 226 0
 415 0070 06F00F06 		and	r6, r6, #15
 416              		.loc 1 235 0
 417 0074 4FEAEA7A 		asr	r10, r10, #31
 418              		.loc 1 225 0
 419 0078 0CF1500C 		add	ip, ip, #80
 420              		.loc 1 226 0
 421 007c 013E     		subs	r6, r6, #1
 422              		.loc 1 227 0
 423 007e 0EF01F0E 		and	lr, lr, #31
 424              		.loc 1 228 0
 425 0082 C7F30017 		ubfx	r7, r7, #4, #1
 426              		.loc 1 235 0
 427 0086 CAEBE424 		rsb	r4, r10, r4, asr #11
 428              		.loc 1 225 0
 429 008a C1F814C0 		str	ip, [r1, #20]
 430              		.loc 1 226 0
 431 008e 0E61     		str	r6, [r1, #16]
 432              		.loc 1 227 0
 433 0090 C1F80CE0 		str	lr, [r1, #12]
 434              		.loc 1 228 0
 435 0094 0F62     		str	r7, [r1, #32]
 436              		.loc 1 231 0
 437 0096 C1F800B0 		str	fp, [r1]
 438              		.loc 1 233 0
 439 009a 4D60     		str	r5, [r1, #4]
 440              	.LVL34:
 441              		.loc 1 235 0
 442 009c 8C60     		str	r4, [r1, #8]
 443              		.loc 1 237 0
 444 009e 3AB1     		cbz	r2, .L42
 445              		.loc 1 238 0
 446 00a0 A3FB0013 		umull	r1, r3, r3, r0
 447              	.LVL35:
 448 00a4 9B09     		lsrs	r3, r3, #6
 449 00a6 4FF47A71 		mov	r1, #1000
ARM GAS  C:\Users\jo\AppData\Local\Temp\ccEwiVcU.s 			page 9


 450 00aa 01FB1300 		mls	r0, r1, r3, r0
 451              	.LVL36:
 452 00ae 1060     		str	r0, [r2]
 453              	.L42:
 454 00b0 BDE8F08F 		pop	{r4, r5, r6, r7, r8, r9, r10, fp, pc}
 455              	.LVL37:
 456              	.L49:
 457              		.align	2
 458              	.L48:
 459 00b4 D34D6210 		.word	274877907
 460 00b8 89888888 		.word	-2004318071
 461 00bc C5B3A291 		.word	-1851608123
 462              		.cfi_endproc
 463              	.LFE265:
 464              		.size	rtcConvertDateTimeToStructTm, .-rtcConvertDateTimeToStructTm
 465              		.section	.text.rtcConvertStructTmToDateTime,"ax",%progbits
 466              		.align	2
 467              		.p2align 4,,15
 468              		.global	rtcConvertStructTmToDateTime
 469              		.thumb
 470              		.thumb_func
 471              		.type	rtcConvertStructTmToDateTime, %function
 472              	rtcConvertStructTmToDateTime:
 473              	.LFB266:
 474              		.loc 1 253 0
 475              		.cfi_startproc
 476              		@ args = 0, pretend = 0, frame = 0
 477              		@ frame_needed = 0, uses_anonymous_args = 0
 478              	.LVL38:
 479 0000 F0B5     		push	{r4, r5, r6, r7, lr}
 480              		.cfi_def_cfa_offset 20
 481              		.cfi_offset 4, -20
 482              		.cfi_offset 5, -16
 483              		.cfi_offset 6, -12
 484              		.cfi_offset 7, -8
 485              		.cfi_offset 14, -4
 486              		.loc 1 257 0
 487 0002 0769     		ldr	r7, [r0, #16]
 488              		.loc 1 259 0
 489 0004 8669     		ldr	r6, [r0, #24]
 490              		.loc 1 257 0
 491 0006 5478     		ldrb	r4, [r2, #1]	@ zero_extendqisi2
 492              		.loc 1 256 0
 493 0008 4369     		ldr	r3, [r0, #20]
 494              		.loc 1 260 0
 495 000a 056A     		ldr	r5, [r0, #32]
 496              		.loc 1 258 0
 497 000c 92F802E0 		ldrb	lr, [r2, #2]	@ zero_extendqisi2
 498              		.loc 1 257 0
 499 0010 0137     		adds	r7, r7, #1
 500 0012 67F30304 		bfi	r4, r7, #0, #4
 501              		.loc 1 259 0
 502 0016 0136     		adds	r6, r6, #1
 503 0018 66F34714 		bfi	r4, r6, #5, #3
 504              		.loc 1 256 0
 505 001c 503B     		subs	r3, r3, #80
 506              		.loc 1 258 0
ARM GAS  C:\Users\jo\AppData\Local\Temp\ccEwiVcU.s 			page 10


 507 001e C768     		ldr	r7, [r0, #12]
 508              		.loc 1 259 0
 509 0020 5470     		strb	r4, [r2, #1]
 510              		.loc 1 256 0
 511 0022 1370     		strb	r3, [r2]
 512              		.loc 1 260 0
 513 0024 6B1C     		adds	r3, r5, #1
 514              		.loc 1 264 0
 515 0026 15BF     		itete	ne
 516 0028 5378     		ldrbne	r3, [r2, #1]	@ zero_extendqisi2
 517              		.loc 1 261 0
 518 002a E3B2     		uxtbeq	r3, r4
 519              		.loc 1 264 0
 520 002c 65F30413 		bfine	r3, r5, #4, #1
 521              		.loc 1 261 0
 522 0030 6FF30413 		bfceq	r3, #4, #1
 523              		.loc 1 264 0
 524 0034 5370     		strb	r3, [r2, #1]
 525              		.loc 1 269 0
 526 0036 19C8     		ldmia	r0, {r0, r3, r4}
 527              	.LVL39:
 528 0038 C3EB0313 		rsb	r3, r3, r3, lsl #4
 529 003c 9B00     		lsls	r3, r3, #2
 530              		.loc 1 268 0
 531 003e 4FF46166 		mov	r6, #3600
 532 0042 06FB0433 		mla	r3, r6, r4, r3
 533 0046 5568     		ldr	r5, [r2, #4]
 534              		.loc 1 269 0
 535 0048 0344     		add	r3, r3, r0
 536              		.loc 1 270 0
 537 004a 4FF47A70 		mov	r0, #1000
 538              		.loc 1 268 0
 539 004e 00FB0311 		mla	r1, r0, r3, r1
 540              	.LVL40:
 541              		.loc 1 258 0
 542 0052 67F3040E 		bfi	lr, r7, #0, #5
 543              		.loc 1 268 0
 544 0056 61F31A05 		bfi	r5, r1, #0, #27
 545              		.loc 1 258 0
 546 005a 82F802E0 		strb	lr, [r2, #2]
 547              		.loc 1 268 0
 548 005e 5560     		str	r5, [r2, #4]
 549 0060 F0BD     		pop	{r4, r5, r6, r7, pc}
 550              		.cfi_endproc
 551              	.LFE266:
 552              		.size	rtcConvertStructTmToDateTime, .-rtcConvertStructTmToDateTime
 553 0062 00BFAFF3 		.section	.text.rtcConvertDateTimeToFAT,"ax",%progbits
 553      0080AFF3 
 553      0080AFF3 
 553      0080
 554              		.align	2
 555              		.p2align 4,,15
 556              		.global	rtcConvertDateTimeToFAT
 557              		.thumb
 558              		.thumb_func
 559              		.type	rtcConvertDateTimeToFAT, %function
 560              	rtcConvertDateTimeToFAT:
ARM GAS  C:\Users\jo\AppData\Local\Temp\ccEwiVcU.s 			page 11


 561              	.LFB267:
 562              		.loc 1 284 0
 563              		.cfi_startproc
 564              		@ args = 0, pretend = 0, frame = 0
 565              		@ frame_needed = 0, uses_anonymous_args = 0
 566              		@ link register save eliminated.
 567              	.LVL41:
 568              		.loc 1 288 0
 569 0000 4268     		ldr	r2, [r0, #4]
 570 0002 234B     		ldr	r3, .L61
 571 0004 C2F31A01 		ubfx	r1, r2, #0, #27
 572              		.loc 1 284 0
 573 0008 F0B4     		push	{r4, r5, r6, r7}
 574              		.cfi_def_cfa_offset 16
 575              		.cfi_offset 4, -16
 576              		.cfi_offset 5, -12
 577              		.cfi_offset 6, -8
 578              		.cfi_offset 7, -4
 579              		.loc 1 288 0
 580 000a A3FB0123 		umull	r2, r3, r3, r1
 581              		.loc 1 289 0
 582 000e 214D     		ldr	r5, .L61+4
 583              		.loc 1 290 0
 584 0010 214F     		ldr	r7, .L61+8
 585              		.loc 1 293 0
 586 0012 4678     		ldrb	r6, [r0, #1]	@ zero_extendqisi2
 587              		.loc 1 292 0
 588 0014 8478     		ldrb	r4, [r0, #2]	@ zero_extendqisi2
 589              		.loc 1 288 0
 590 0016 9B09     		lsrs	r3, r3, #6
 591              	.LVL42:
 592              		.loc 1 289 0
 593 0018 A5FB0321 		umull	r2, r1, r5, r3
 594 001c 4909     		lsrs	r1, r1, #5
 595 001e C1EB0111 		rsb	r1, r1, r1, lsl #4
 596 0022 A3EB8101 		sub	r1, r3, r1, lsl #2
 597              	.LVL43:
 598              		.loc 1 290 0
 599 0026 5B1A     		subs	r3, r3, r1
 600              	.LVL44:
 601 0028 A7FB0325 		umull	r2, r5, r7, r3
 602 002c ED0A     		lsrs	r5, r5, #11
 603 002e 4FF46162 		mov	r2, #3600
 604 0032 02FB1535 		mls	r5, r2, r5, r3
 605              	.LVL45:
 606              		.loc 1 291 0
 607 0036 C5EB0512 		rsb	r2, r5, r5, lsl #4
 608 003a A3EB8203 		sub	r3, r3, r2, lsl #2
 609 003e A7FB0332 		umull	r3, r2, r7, r3
 610              		.loc 1 296 0
 611 0042 F306     		lsls	r3, r6, #27
 612              		.loc 1 291 0
 613 0044 4FEAD222 		lsr	r2, r2, #11
 614              	.LVL46:
 615              		.loc 1 292 0
 616 0048 04F01F04 		and	r4, r4, #31
 617              	.LVL47:
ARM GAS  C:\Users\jo\AppData\Local\Temp\ccEwiVcU.s 			page 12


 618              		.loc 1 293 0
 619 004c 06F00F07 		and	r7, r6, #15
 620              	.LVL48:
 621              		.loc 1 296 0
 622 0050 02D5     		bpl	.L60
 623              		.loc 1 297 0
 624 0052 0132     		adds	r2, r2, #1
 625              	.LVL49:
 626              		.loc 1 298 0
 627 0054 182A     		cmp	r2, #24
 628 0056 0ED0     		beq	.L57
 629              	.L60:
 630 0058 D202     		lsls	r2, r2, #11
 631              	.LVL50:
 632 005a 2404     		lsls	r4, r4, #16
 633              	.LVL51:
 634              	.L56:
 635              		.loc 1 313 0
 636 005c 0378     		ldrb	r3, [r0]	@ zero_extendqisi2
 637 005e 5B06     		lsls	r3, r3, #25
 638 0060 43EA5103 		orr	r3, r3, r1, lsr #1
 639 0064 43EA4513 		orr	r3, r3, r5, lsl #5
 640 0068 1343     		orrs	r3, r3, r2
 641 006a 43EA0400 		orr	r0, r3, r4
 642              	.LVL52:
 643              		.loc 1 316 0
 644 006e 40EA4750 		orr	r0, r0, r7, lsl #21
 645              	.LVL53:
 646 0072 F0BC     		pop	{r4, r5, r6, r7}
 647              		.cfi_remember_state
 648              		.cfi_restore 7
 649              		.cfi_restore 6
 650              		.cfi_restore 5
 651              		.cfi_restore 4
 652              		.cfi_def_cfa_offset 0
 653              	.LVL54:
 654 0074 7047     		bx	lr
 655              	.LVL55:
 656              	.L57:
 657              		.cfi_restore_state
 658              		.loc 1 301 0
 659 0076 094B     		ldr	r3, .L61+12
 660 0078 3B44     		add	r3, r3, r7
 661              		.loc 1 300 0
 662 007a 0134     		adds	r4, r4, #1
 663              	.LVL56:
 664              		.loc 1 301 0
 665 007c 13F8013C 		ldrb	r3, [r3, #-1]	@ zero_extendqisi2
 666 0080 9C42     		cmp	r4, r3
 667 0082 92BF     		itee	ls
 668 0084 2404     		lslls	r4, r4, #16
 669              	.LVL57:
 670              		.loc 1 303 0
 671 0086 0137     		addhi	r7, r7, #1
 672              	.LVL58:
 673 0088 4FF48034 		movhi	r4, #65536
 674 008c 0022     		movs	r2, #0
ARM GAS  C:\Users\jo\AppData\Local\Temp\ccEwiVcU.s 			page 13


 675 008e E5E7     		b	.L56
 676              	.L62:
 677              		.align	2
 678              	.L61:
 679 0090 D34D6210 		.word	274877907
 680 0094 89888888 		.word	-2004318071
 681 0098 C5B3A291 		.word	-1851608123
 682 009c 00000000 		.word	.LANCHOR4
 683              		.cfi_endproc
 684              	.LFE267:
 685              		.size	rtcConvertDateTimeToFAT, .-rtcConvertDateTimeToFAT
 686              		.section	.rodata.month_len,"a",%progbits
 687              		.align	2
 688              		.set	.LANCHOR4,. + 0
 689              		.type	month_len, %object
 690              		.size	month_len, 12
 691              	month_len:
 692 0000 1F       		.byte	31
 693 0001 1E       		.byte	30
 694 0002 1F       		.byte	31
 695 0003 1E       		.byte	30
 696 0004 1F       		.byte	31
 697 0005 1E       		.byte	30
 698 0006 1F       		.byte	31
 699 0007 1F       		.byte	31
 700 0008 1E       		.byte	30
 701 0009 1F       		.byte	31
 702 000a 1E       		.byte	30
 703 000b 1F       		.byte	31
 704              		.section	.rodata.__func__.7512,"a",%progbits
 705              		.align	2
 706              		.set	.LANCHOR0,. + 0
 707              		.type	__func__.7512, %object
 708              		.size	__func__.7512, 11
 709              	__func__.7512:
 710 0000 72746353 		.ascii	"rtcSetTime\000"
 710      65745469 
 710      6D6500
 711 000b 00       		.section	.rodata.__func__.7517,"a",%progbits
 712              		.align	2
 713              		.set	.LANCHOR1,. + 0
 714              		.type	__func__.7517, %object
 715              		.size	__func__.7517, 11
 716              	__func__.7517:
 717 0000 72746347 		.ascii	"rtcGetTime\000"
 717      65745469 
 717      6D6500
 718 000b 00       		.section	.rodata.__func__.7523,"a",%progbits
 719              		.align	2
 720              		.set	.LANCHOR2,. + 0
 721              		.type	__func__.7523, %object
 722              		.size	__func__.7523, 12
 723              	__func__.7523:
 724 0000 72746353 		.ascii	"rtcSetAlarm\000"
 724      6574416C 
 724      61726D00 
 725              		.section	.rodata.__func__.7529,"a",%progbits
ARM GAS  C:\Users\jo\AppData\Local\Temp\ccEwiVcU.s 			page 14


 726              		.align	2
 727              		.set	.LANCHOR3,. + 0
 728              		.type	__func__.7529, %object
 729              		.size	__func__.7529, 12
 730              	__func__.7529:
 731 0000 72746347 		.ascii	"rtcGetAlarm\000"
 731      6574416C 
 731      61726D00 
 732              		.text
 733              	.Letext0:
 734              		.file 2 "c:\\program files\\gnu tools arm embedded\\4.9 2014q4\\lib\\gcc\\arm-none-eabi\\4.9.3\\in
 735              		.file 3 "c:\\program files\\gnu tools arm embedded\\4.9 2014q4\\arm-none-eabi\\include\\machine\\_
 736              		.file 4 "c:\\program files\\gnu tools arm embedded\\4.9 2014q4\\arm-none-eabi\\include\\stdint.h"
 737              		.file 5 "../../../os/rt/ports/ARMCMx/compilers/GCC/chtypes.h"
 738              		.file 6 "../../../os/rt/include/chsystypes.h"
 739              		.file 7 "../../../os/rt/include/chschd.h"
 740              		.file 8 "../../../os/ext/CMSIS/ST/stm32f407xx.h"
 741              		.file 9 "../../../os/rt/ports/ARMCMx/chcore.h"
 742              		.file 10 "../../../os/rt/ports/ARMCMx/chcore_v7m.h"
 743              		.file 11 "../../../os/rt/include/chdebug.h"
 744              		.file 12 "../../../os/rt/include/chtm.h"
 745              		.file 13 "../../../os/rt/include/chsem.h"
 746              		.file 14 "../../../os/rt/include/chmtx.h"
 747              		.file 15 "c:\\program files\\gnu tools arm embedded\\4.9 2014q4\\arm-none-eabi\\include\\time.h"
 748              		.file 16 "../../../os/hal/include/rtc.h"
 749              		.file 17 "../../../os/hal/ports/STM32/LLD/RTCv2/rtc_lld.h"
 750              		.file 18 "../../../os/rt/include/chsys.h"
 751              		.file 19 "../../../os/ext/CMSIS/include/core_cm4.h"
 752              		.section	.debug_info,"",%progbits
 753              	.Ldebug_info0:
 754 0000 370F0000 		.4byte	0xf37
 755 0004 0400     		.2byte	0x4
 756 0006 00000000 		.4byte	.Ldebug_abbrev0
 757 000a 04       		.byte	0x4
 758 000b 01       		.uleb128 0x1
 759 000c E4030000 		.4byte	.LASF193
 760 0010 01       		.byte	0x1
 761 0011 76000000 		.4byte	.LASF194
 762 0015 70010000 		.4byte	.LASF195
 763 0019 00000000 		.4byte	.Ldebug_ranges0+0
 764 001d 00000000 		.4byte	0
 765 0021 00000000 		.4byte	.Ldebug_line0
 766 0025 02       		.uleb128 0x2
 767 0026 08       		.byte	0x8
 768 0027 07       		.byte	0x7
 769 0028 AC000000 		.4byte	.LASF0
 770 002c 02       		.uleb128 0x2
 771 002d 04       		.byte	0x4
 772 002e 07       		.byte	0x7
 773 002f 26070000 		.4byte	.LASF1
 774 0033 03       		.uleb128 0x3
 775 0034 04       		.byte	0x4
 776 0035 05       		.byte	0x5
 777 0036 696E7400 		.ascii	"int\000"
 778 003a 04       		.uleb128 0x4
 779 003b 24000000 		.4byte	.LASF3
 780 003f 02       		.byte	0x2
ARM GAS  C:\Users\jo\AppData\Local\Temp\ccEwiVcU.s 			page 15


 781 0040 D4       		.byte	0xd4
 782 0041 2C000000 		.4byte	0x2c
 783 0045 02       		.uleb128 0x2
 784 0046 01       		.byte	0x1
 785 0047 06       		.byte	0x6
 786 0048 D8010000 		.4byte	.LASF2
 787 004c 04       		.uleb128 0x4
 788 004d 3B000000 		.4byte	.LASF4
 789 0051 03       		.byte	0x3
 790 0052 1D       		.byte	0x1d
 791 0053 57000000 		.4byte	0x57
 792 0057 02       		.uleb128 0x2
 793 0058 01       		.byte	0x1
 794 0059 08       		.byte	0x8
 795 005a 5C060000 		.4byte	.LASF5
 796 005e 02       		.uleb128 0x2
 797 005f 02       		.byte	0x2
 798 0060 05       		.byte	0x5
 799 0061 7E060000 		.4byte	.LASF6
 800 0065 02       		.uleb128 0x2
 801 0066 02       		.byte	0x2
 802 0067 07       		.byte	0x7
 803 0068 5E030000 		.4byte	.LASF7
 804 006c 04       		.uleb128 0x4
 805 006d DA030000 		.4byte	.LASF8
 806 0071 03       		.byte	0x3
 807 0072 3F       		.byte	0x3f
 808 0073 77000000 		.4byte	0x77
 809 0077 02       		.uleb128 0x2
 810 0078 04       		.byte	0x4
 811 0079 05       		.byte	0x5
 812 007a 2B020000 		.4byte	.LASF9
 813 007e 04       		.uleb128 0x4
 814 007f 6F070000 		.4byte	.LASF10
 815 0083 03       		.byte	0x3
 816 0084 41       		.byte	0x41
 817 0085 89000000 		.4byte	0x89
 818 0089 02       		.uleb128 0x2
 819 008a 04       		.byte	0x4
 820 008b 07       		.byte	0x7
 821 008c 0F070000 		.4byte	.LASF11
 822 0090 02       		.uleb128 0x2
 823 0091 08       		.byte	0x8
 824 0092 05       		.byte	0x5
 825 0093 CA010000 		.4byte	.LASF12
 826 0097 04       		.uleb128 0x4
 827 0098 BE050000 		.4byte	.LASF13
 828 009c 03       		.byte	0x3
 829 009d 5B       		.byte	0x5b
 830 009e 25000000 		.4byte	0x25
 831 00a2 04       		.uleb128 0x4
 832 00a3 43080000 		.4byte	.LASF14
 833 00a7 04       		.byte	0x4
 834 00a8 15       		.byte	0x15
 835 00a9 4C000000 		.4byte	0x4c
 836 00ad 04       		.uleb128 0x4
 837 00ae 54060000 		.4byte	.LASF15
ARM GAS  C:\Users\jo\AppData\Local\Temp\ccEwiVcU.s 			page 16


 838 00b2 04       		.byte	0x4
 839 00b3 2C       		.byte	0x2c
 840 00b4 6C000000 		.4byte	0x6c
 841 00b8 04       		.uleb128 0x4
 842 00b9 50020000 		.4byte	.LASF16
 843 00bd 04       		.byte	0x4
 844 00be 2D       		.byte	0x2d
 845 00bf 7E000000 		.4byte	0x7e
 846 00c3 04       		.uleb128 0x4
 847 00c4 32000000 		.4byte	.LASF17
 848 00c8 04       		.byte	0x4
 849 00c9 39       		.byte	0x39
 850 00ca 97000000 		.4byte	0x97
 851 00ce 05       		.uleb128 0x5
 852 00cf AD000000 		.4byte	0xad
 853 00d3 05       		.uleb128 0x5
 854 00d4 B8000000 		.4byte	0xb8
 855 00d8 04       		.uleb128 0x4
 856 00d9 CE070000 		.4byte	.LASF18
 857 00dd 05       		.byte	0x5
 858 00de 45       		.byte	0x45
 859 00df B8000000 		.4byte	0xb8
 860 00e3 04       		.uleb128 0x4
 861 00e4 B3030000 		.4byte	.LASF19
 862 00e8 05       		.byte	0x5
 863 00e9 48       		.byte	0x48
 864 00ea A2000000 		.4byte	0xa2
 865 00ee 04       		.uleb128 0x4
 866 00ef 3A020000 		.4byte	.LASF20
 867 00f3 05       		.byte	0x5
 868 00f4 49       		.byte	0x49
 869 00f5 A2000000 		.4byte	0xa2
 870 00f9 04       		.uleb128 0x4
 871 00fa EE050000 		.4byte	.LASF21
 872 00fe 05       		.byte	0x5
 873 00ff 4A       		.byte	0x4a
 874 0100 A2000000 		.4byte	0xa2
 875 0104 04       		.uleb128 0x4
 876 0105 30060000 		.4byte	.LASF22
 877 0109 05       		.byte	0x5
 878 010a 4C       		.byte	0x4c
 879 010b B8000000 		.4byte	0xb8
 880 010f 04       		.uleb128 0x4
 881 0110 A1030000 		.4byte	.LASF23
 882 0114 05       		.byte	0x5
 883 0115 4D       		.byte	0x4d
 884 0116 AD000000 		.4byte	0xad
 885 011a 04       		.uleb128 0x4
 886 011b CE030000 		.4byte	.LASF24
 887 011f 05       		.byte	0x5
 888 0120 4F       		.byte	0x4f
 889 0121 B8000000 		.4byte	0xb8
 890 0125 04       		.uleb128 0x4
 891 0126 F0020000 		.4byte	.LASF25
 892 012a 05       		.byte	0x5
 893 012b 51       		.byte	0x51
 894 012c AD000000 		.4byte	0xad
ARM GAS  C:\Users\jo\AppData\Local\Temp\ccEwiVcU.s 			page 17


 895 0130 04       		.uleb128 0x4
 896 0131 51070000 		.4byte	.LASF26
 897 0135 06       		.byte	0x6
 898 0136 33       		.byte	0x33
 899 0137 B8000000 		.4byte	0xb8
 900 013b 04       		.uleb128 0x4
 901 013c 39070000 		.4byte	.LASF27
 902 0140 06       		.byte	0x6
 903 0141 3F       		.byte	0x3f
 904 0142 46010000 		.4byte	0x146
 905 0146 06       		.uleb128 0x6
 906 0147 7A030000 		.4byte	.LASF48
 907 014b 48       		.byte	0x48
 908 014c 07       		.byte	0x7
 909 014d C2       		.byte	0xc2
 910 014e 3F020000 		.4byte	0x23f
 911 0152 07       		.uleb128 0x7
 912 0153 9E060000 		.4byte	.LASF28
 913 0157 07       		.byte	0x7
 914 0158 C3       		.byte	0xc3
 915 0159 4A020000 		.4byte	0x24a
 916 015d 00       		.byte	0
 917 015e 07       		.uleb128 0x7
 918 015f 1F060000 		.4byte	.LASF29
 919 0163 07       		.byte	0x7
 920 0164 C5       		.byte	0xc5
 921 0165 4A020000 		.4byte	0x24a
 922 0169 04       		.byte	0x4
 923 016a 07       		.uleb128 0x7
 924 016b 69010000 		.4byte	.LASF30
 925 016f 07       		.byte	0x7
 926 0170 C7       		.byte	0xc7
 927 0171 04010000 		.4byte	0x104
 928 0175 08       		.byte	0x8
 929 0176 07       		.uleb128 0x7
 930 0177 A5080000 		.4byte	.LASF31
 931 017b 07       		.byte	0x7
 932 017c C8       		.byte	0xc8
 933 017d D0060000 		.4byte	0x6d0
 934 0181 0C       		.byte	0xc
 935 0182 07       		.uleb128 0x7
 936 0183 6F020000 		.4byte	.LASF32
 937 0187 07       		.byte	0x7
 938 0188 CA       		.byte	0xca
 939 0189 4A020000 		.4byte	0x24a
 940 018d 10       		.byte	0x10
 941 018e 07       		.uleb128 0x7
 942 018f 7A050000 		.4byte	.LASF33
 943 0193 07       		.byte	0x7
 944 0194 CB       		.byte	0xcb
 945 0195 4A020000 		.4byte	0x24a
 946 0199 14       		.byte	0x14
 947 019a 07       		.uleb128 0x7
 948 019b 62080000 		.4byte	.LASF34
 949 019f 07       		.byte	0x7
 950 01a0 D2       		.byte	0xd2
 951 01a1 E2080000 		.4byte	0x8e2
ARM GAS  C:\Users\jo\AppData\Local\Temp\ccEwiVcU.s 			page 18


 952 01a5 18       		.byte	0x18
 953 01a6 07       		.uleb128 0x7
 954 01a7 FC020000 		.4byte	.LASF35
 955 01ab 07       		.byte	0x7
 956 01ac D8       		.byte	0xd8
 957 01ad F4080000 		.4byte	0x8f4
 958 01b1 1C       		.byte	0x1c
 959 01b2 07       		.uleb128 0x7
 960 01b3 88060000 		.4byte	.LASF36
 961 01b7 07       		.byte	0x7
 962 01b8 DD       		.byte	0xdd
 963 01b9 EE000000 		.4byte	0xee
 964 01bd 20       		.byte	0x20
 965 01be 07       		.uleb128 0x7
 966 01bf 7C080000 		.4byte	.LASF37
 967 01c3 07       		.byte	0x7
 968 01c4 E1       		.byte	0xe1
 969 01c5 E3000000 		.4byte	0xe3
 970 01c9 21       		.byte	0x21
 971 01ca 07       		.uleb128 0x7
 972 01cb 20080000 		.4byte	.LASF38
 973 01cf 07       		.byte	0x7
 974 01d0 E6       		.byte	0xe6
 975 01d1 F9000000 		.4byte	0xf9
 976 01d5 22       		.byte	0x22
 977 01d6 08       		.uleb128 0x8
 978 01d7 705F7500 		.ascii	"p_u\000"
 979 01db 07       		.byte	0x7
 980 01dc 3101     		.2byte	0x131
 981 01de 1D080000 		.4byte	0x81d
 982 01e2 24       		.byte	0x24
 983 01e3 09       		.uleb128 0x9
 984 01e4 01050000 		.4byte	.LASF39
 985 01e8 07       		.byte	0x7
 986 01e9 3601     		.2byte	0x136
 987 01eb 50020000 		.4byte	0x250
 988 01ef 28       		.byte	0x28
 989 01f0 09       		.uleb128 0x9
 990 01f1 2A030000 		.4byte	.LASF40
 991 01f5 07       		.byte	0x7
 992 01f6 3C01     		.2byte	0x13c
 993 01f8 74020000 		.4byte	0x274
 994 01fc 2C       		.byte	0x2c
 995 01fd 09       		.uleb128 0x9
 996 01fe 33070000 		.4byte	.LASF41
 997 0202 07       		.byte	0x7
 998 0203 4001     		.2byte	0x140
 999 0205 0F010000 		.4byte	0x10f
 1000 0209 34       		.byte	0x34
 1001 020a 09       		.uleb128 0x9
 1002 020b CF060000 		.4byte	.LASF42
 1003 020f 07       		.byte	0x7
 1004 0210 4601     		.2byte	0x146
 1005 0212 1A010000 		.4byte	0x11a
 1006 0216 38       		.byte	0x38
 1007 0217 09       		.uleb128 0x9
 1008 0218 74060000 		.4byte	.LASF43
ARM GAS  C:\Users\jo\AppData\Local\Temp\ccEwiVcU.s 			page 19


 1009 021c 07       		.byte	0x7
 1010 021d 4D01     		.2byte	0x14d
 1011 021f DC080000 		.4byte	0x8dc
 1012 0223 3C       		.byte	0x3c
 1013 0224 09       		.uleb128 0x9
 1014 0225 5B070000 		.4byte	.LASF44
 1015 0229 07       		.byte	0x7
 1016 022a 5101     		.2byte	0x151
 1017 022c 04010000 		.4byte	0x104
 1018 0230 40       		.byte	0x40
 1019 0231 09       		.uleb128 0x9
 1020 0232 EC010000 		.4byte	.LASF45
 1021 0236 07       		.byte	0x7
 1022 0237 5801     		.2byte	0x158
 1023 0239 27030000 		.4byte	0x327
 1024 023d 44       		.byte	0x44
 1025 023e 00       		.byte	0
 1026 023f 04       		.uleb128 0x4
 1027 0240 1B050000 		.4byte	.LASF46
 1028 0244 06       		.byte	0x6
 1029 0245 44       		.byte	0x44
 1030 0246 4A020000 		.4byte	0x24a
 1031 024a 0A       		.uleb128 0xa
 1032 024b 04       		.byte	0x4
 1033 024c 3B010000 		.4byte	0x13b
 1034 0250 04       		.uleb128 0x4
 1035 0251 D9040000 		.4byte	.LASF47
 1036 0255 06       		.byte	0x6
 1037 0256 49       		.byte	0x49
 1038 0257 5B020000 		.4byte	0x25b
 1039 025b 06       		.uleb128 0x6
 1040 025c FF060000 		.4byte	.LASF49
 1041 0260 04       		.byte	0x4
 1042 0261 07       		.byte	0x7
 1043 0262 B0       		.byte	0xb0
 1044 0263 74020000 		.4byte	0x274
 1045 0267 07       		.uleb128 0x7
 1046 0268 9E060000 		.4byte	.LASF28
 1047 026c 07       		.byte	0x7
 1048 026d B1       		.byte	0xb1
 1049 026e 4A020000 		.4byte	0x24a
 1050 0272 00       		.byte	0
 1051 0273 00       		.byte	0
 1052 0274 04       		.uleb128 0x4
 1053 0275 07080000 		.4byte	.LASF50
 1054 0279 06       		.byte	0x6
 1055 027a 50       		.byte	0x50
 1056 027b 7F020000 		.4byte	0x27f
 1057 027f 06       		.uleb128 0x6
 1058 0280 51000000 		.4byte	.LASF51
 1059 0284 08       		.byte	0x8
 1060 0285 07       		.byte	0x7
 1061 0286 B7       		.byte	0xb7
 1062 0287 A4020000 		.4byte	0x2a4
 1063 028b 07       		.uleb128 0x7
 1064 028c 9E060000 		.4byte	.LASF28
 1065 0290 07       		.byte	0x7
ARM GAS  C:\Users\jo\AppData\Local\Temp\ccEwiVcU.s 			page 20


 1066 0291 B8       		.byte	0xb8
 1067 0292 4A020000 		.4byte	0x24a
 1068 0296 00       		.byte	0
 1069 0297 07       		.uleb128 0x7
 1070 0298 1F060000 		.4byte	.LASF29
 1071 029c 07       		.byte	0x7
 1072 029d B9       		.byte	0xb9
 1073 029e 4A020000 		.4byte	0x24a
 1074 02a2 04       		.byte	0x4
 1075 02a3 00       		.byte	0
 1076 02a4 04       		.uleb128 0x4
 1077 02a5 0F000000 		.4byte	.LASF52
 1078 02a9 06       		.byte	0x6
 1079 02aa 57       		.byte	0x57
 1080 02ab AF020000 		.4byte	0x2af
 1081 02af 0B       		.uleb128 0xb
 1082 02b0 C0030000 		.4byte	.LASF53
 1083 02b4 1C       		.byte	0x1c
 1084 02b5 07       		.byte	0x7
 1085 02b6 9001     		.2byte	0x190
 1086 02b8 0B030000 		.4byte	0x30b
 1087 02bc 09       		.uleb128 0x9
 1088 02bd EE060000 		.4byte	.LASF54
 1089 02c1 07       		.byte	0x7
 1090 02c2 9101     		.2byte	0x191
 1091 02c4 74020000 		.4byte	0x274
 1092 02c8 00       		.byte	0
 1093 02c9 09       		.uleb128 0x9
 1094 02ca 90060000 		.4byte	.LASF55
 1095 02ce 07       		.byte	0x7
 1096 02cf 9201     		.2byte	0x192
 1097 02d1 04010000 		.4byte	0x104
 1098 02d5 08       		.byte	0x8
 1099 02d6 09       		.uleb128 0x9
 1100 02d7 82050000 		.4byte	.LASF56
 1101 02db 07       		.byte	0x7
 1102 02dc 9401     		.2byte	0x194
 1103 02de D0060000 		.4byte	0x6d0
 1104 02e2 0C       		.byte	0xc
 1105 02e3 09       		.uleb128 0x9
 1106 02e4 87020000 		.4byte	.LASF57
 1107 02e8 07       		.byte	0x7
 1108 02e9 9701     		.2byte	0x197
 1109 02eb 4A020000 		.4byte	0x24a
 1110 02ef 10       		.byte	0x10
 1111 02f0 09       		.uleb128 0x9
 1112 02f1 B1050000 		.4byte	.LASF58
 1113 02f5 07       		.byte	0x7
 1114 02f6 9801     		.2byte	0x198
 1115 02f8 4A020000 		.4byte	0x24a
 1116 02fc 14       		.byte	0x14
 1117 02fd 09       		.uleb128 0x9
 1118 02fe A7050000 		.4byte	.LASF59
 1119 0302 07       		.byte	0x7
 1120 0303 9B01     		.2byte	0x19b
 1121 0305 4A020000 		.4byte	0x24a
 1122 0309 18       		.byte	0x18
ARM GAS  C:\Users\jo\AppData\Local\Temp\ccEwiVcU.s 			page 21


 1123 030a 00       		.byte	0
 1124 030b 04       		.uleb128 0x4
 1125 030c 66070000 		.4byte	.LASF60
 1126 0310 06       		.byte	0x6
 1127 0311 5C       		.byte	0x5c
 1128 0312 16030000 		.4byte	0x316
 1129 0316 0A       		.uleb128 0xa
 1130 0317 04       		.byte	0x4
 1131 0318 1C030000 		.4byte	0x31c
 1132 031c 0C       		.uleb128 0xc
 1133 031d 27030000 		.4byte	0x327
 1134 0321 0D       		.uleb128 0xd
 1135 0322 27030000 		.4byte	0x327
 1136 0326 00       		.byte	0
 1137 0327 0E       		.uleb128 0xe
 1138 0328 04       		.byte	0x4
 1139 0329 04       		.uleb128 0x4
 1140 032a 0F060000 		.4byte	.LASF61
 1141 032e 06       		.byte	0x6
 1142 032f 61       		.byte	0x61
 1143 0330 34030000 		.4byte	0x334
 1144 0334 0B       		.uleb128 0xb
 1145 0335 B5070000 		.4byte	.LASF62
 1146 0339 14       		.byte	0x14
 1147 033a 07       		.byte	0x7
 1148 033b 6B01     		.2byte	0x16b
 1149 033d 83030000 		.4byte	0x383
 1150 0341 09       		.uleb128 0x9
 1151 0342 0C030000 		.4byte	.LASF63
 1152 0346 07       		.byte	0x7
 1153 0347 6C01     		.2byte	0x16c
 1154 0349 FA080000 		.4byte	0x8fa
 1155 034d 00       		.byte	0
 1156 034e 09       		.uleb128 0x9
 1157 034f 98020000 		.4byte	.LASF64
 1158 0353 07       		.byte	0x7
 1159 0354 6D01     		.2byte	0x16d
 1160 0356 FA080000 		.4byte	0x8fa
 1161 035a 04       		.byte	0x4
 1162 035b 09       		.uleb128 0x9
 1163 035c F6060000 		.4byte	.LASF65
 1164 0360 07       		.byte	0x7
 1165 0361 6E01     		.2byte	0x16e
 1166 0363 30010000 		.4byte	0x130
 1167 0367 08       		.byte	0x8
 1168 0368 09       		.uleb128 0x9
 1169 0369 AB080000 		.4byte	.LASF66
 1170 036d 07       		.byte	0x7
 1171 036e 6F01     		.2byte	0x16f
 1172 0370 0B030000 		.4byte	0x30b
 1173 0374 0C       		.byte	0xc
 1174 0375 09       		.uleb128 0x9
 1175 0376 D6070000 		.4byte	.LASF67
 1176 037a 07       		.byte	0x7
 1177 037b 7101     		.2byte	0x171
 1178 037d 27030000 		.4byte	0x327
 1179 0381 10       		.byte	0x10
ARM GAS  C:\Users\jo\AppData\Local\Temp\ccEwiVcU.s 			page 22


 1180 0382 00       		.byte	0
 1181 0383 04       		.uleb128 0x4
 1182 0384 1A010000 		.4byte	.LASF68
 1183 0388 06       		.byte	0x6
 1184 0389 66       		.byte	0x66
 1185 038a 8E030000 		.4byte	0x38e
 1186 038e 0B       		.uleb128 0xb
 1187 038f 2E050000 		.4byte	.LASF69
 1188 0393 10       		.byte	0x10
 1189 0394 07       		.byte	0x7
 1190 0395 7B01     		.2byte	0x17b
 1191 0397 D0030000 		.4byte	0x3d0
 1192 039b 09       		.uleb128 0x9
 1193 039c 0C030000 		.4byte	.LASF63
 1194 03a0 07       		.byte	0x7
 1195 03a1 7C01     		.2byte	0x17c
 1196 03a3 FA080000 		.4byte	0x8fa
 1197 03a7 00       		.byte	0
 1198 03a8 09       		.uleb128 0x9
 1199 03a9 98020000 		.4byte	.LASF64
 1200 03ad 07       		.byte	0x7
 1201 03ae 7E01     		.2byte	0x17e
 1202 03b0 FA080000 		.4byte	0x8fa
 1203 03b4 04       		.byte	0x4
 1204 03b5 09       		.uleb128 0x9
 1205 03b6 F6060000 		.4byte	.LASF65
 1206 03ba 07       		.byte	0x7
 1207 03bb 8001     		.2byte	0x180
 1208 03bd 30010000 		.4byte	0x130
 1209 03c1 08       		.byte	0x8
 1210 03c2 09       		.uleb128 0x9
 1211 03c3 6E050000 		.4byte	.LASF70
 1212 03c7 07       		.byte	0x7
 1213 03c8 8801     		.2byte	0x188
 1214 03ca 30010000 		.4byte	0x130
 1215 03ce 0C       		.byte	0xc
 1216 03cf 00       		.byte	0
 1217 03d0 04       		.uleb128 0x4
 1218 03d1 62000000 		.4byte	.LASF71
 1219 03d5 06       		.byte	0x6
 1220 03d6 6B       		.byte	0x6b
 1221 03d7 DB030000 		.4byte	0x3db
 1222 03db 0F       		.uleb128 0xf
 1223 03dc 3E060000 		.4byte	.LASF72
 1224 03e0 1404     		.2byte	0x414
 1225 03e2 07       		.byte	0x7
 1226 03e3 A201     		.2byte	0x1a2
 1227 03e5 1E040000 		.4byte	0x41e
 1228 03e9 09       		.uleb128 0x9
 1229 03ea 7A070000 		.4byte	.LASF73
 1230 03ee 07       		.byte	0x7
 1231 03ef AA01     		.2byte	0x1aa
 1232 03f1 00090000 		.4byte	0x900
 1233 03f5 00       		.byte	0
 1234 03f6 09       		.uleb128 0x9
 1235 03f7 27080000 		.4byte	.LASF74
 1236 03fb 07       		.byte	0x7
ARM GAS  C:\Users\jo\AppData\Local\Temp\ccEwiVcU.s 			page 23


 1237 03fc AF01     		.2byte	0x1af
 1238 03fe 25010000 		.4byte	0x125
 1239 0402 04       		.byte	0x4
 1240 0403 09       		.uleb128 0x9
 1241 0404 D8020000 		.4byte	.LASF75
 1242 0408 07       		.byte	0x7
 1243 0409 B301     		.2byte	0x1b3
 1244 040b 25010000 		.4byte	0x125
 1245 040f 08       		.byte	0x8
 1246 0410 09       		.uleb128 0x9
 1247 0411 6F080000 		.4byte	.LASF76
 1248 0415 07       		.byte	0x7
 1249 0416 B901     		.2byte	0x1b9
 1250 0418 F2070000 		.4byte	0x7f2
 1251 041c 0C       		.byte	0xc
 1252 041d 00       		.byte	0
 1253 041e 04       		.uleb128 0x4
 1254 041f A9070000 		.4byte	.LASF77
 1255 0423 06       		.byte	0x6
 1256 0424 70       		.byte	0x70
 1257 0425 29040000 		.4byte	0x429
 1258 0429 0F       		.uleb128 0xf
 1259 042a 21020000 		.4byte	.LASF78
 1260 042e 7005     		.2byte	0x570
 1261 0430 07       		.byte	0x7
 1262 0431 C201     		.2byte	0x1c2
 1263 0433 88040000 		.4byte	0x488
 1264 0437 09       		.uleb128 0x9
 1265 0438 3D080000 		.4byte	.LASF79
 1266 043c 07       		.byte	0x7
 1267 043d C601     		.2byte	0x1c6
 1268 043f A4020000 		.4byte	0x2a4
 1269 0443 00       		.byte	0
 1270 0444 09       		.uleb128 0x9
 1271 0445 09020000 		.4byte	.LASF80
 1272 0449 07       		.byte	0x7
 1273 044a CA01     		.2byte	0x1ca
 1274 044c 83030000 		.4byte	0x383
 1275 0450 1C       		.byte	0x1c
 1276 0451 08       		.uleb128 0x8
 1277 0452 64626700 		.ascii	"dbg\000"
 1278 0456 07       		.byte	0x7
 1279 0457 CE01     		.2byte	0x1ce
 1280 0459 D0030000 		.4byte	0x3d0
 1281 045d 2C       		.byte	0x2c
 1282 045e 10       		.uleb128 0x10
 1283 045f F2000000 		.4byte	.LASF81
 1284 0463 07       		.byte	0x7
 1285 0464 D201     		.2byte	0x1d2
 1286 0466 3B010000 		.4byte	0x13b
 1287 046a 4004     		.2byte	0x440
 1288 046c 11       		.uleb128 0x11
 1289 046d 746D00   		.ascii	"tm\000"
 1290 0470 07       		.byte	0x7
 1291 0471 D701     		.2byte	0x1d7
 1292 0473 12080000 		.4byte	0x812
 1293 0477 8804     		.2byte	0x488
ARM GAS  C:\Users\jo\AppData\Local\Temp\ccEwiVcU.s 			page 24


 1294 0479 10       		.uleb128 0x10
 1295 047a E1020000 		.4byte	.LASF82
 1296 047e 07       		.byte	0x7
 1297 047f E301     		.2byte	0x1e3
 1298 0481 05090000 		.4byte	0x905
 1299 0485 9004     		.2byte	0x490
 1300 0487 00       		.byte	0
 1301 0488 02       		.uleb128 0x2
 1302 0489 04       		.byte	0x4
 1303 048a 07       		.byte	0x7
 1304 048b 12050000 		.4byte	.LASF83
 1305 048f 12       		.uleb128 0x12
 1306 0490 A2000000 		.4byte	0xa2
 1307 0494 9F040000 		.4byte	0x49f
 1308 0498 13       		.uleb128 0x13
 1309 0499 88040000 		.4byte	0x488
 1310 049d 0B       		.byte	0xb
 1311 049e 00       		.byte	0
 1312 049f 14       		.uleb128 0x14
 1313 04a0 A0       		.byte	0xa0
 1314 04a1 08       		.byte	0x8
 1315 04a2 8E02     		.2byte	0x28e
 1316 04a4 AE060000 		.4byte	0x6ae
 1317 04a8 08       		.uleb128 0x8
 1318 04a9 545200   		.ascii	"TR\000"
 1319 04ac 08       		.byte	0x8
 1320 04ad 9002     		.2byte	0x290
 1321 04af D3000000 		.4byte	0xd3
 1322 04b3 00       		.byte	0
 1323 04b4 08       		.uleb128 0x8
 1324 04b5 445200   		.ascii	"DR\000"
 1325 04b8 08       		.byte	0x8
 1326 04b9 9102     		.2byte	0x291
 1327 04bb D3000000 		.4byte	0xd3
 1328 04bf 04       		.byte	0x4
 1329 04c0 08       		.uleb128 0x8
 1330 04c1 435200   		.ascii	"CR\000"
 1331 04c4 08       		.byte	0x8
 1332 04c5 9202     		.2byte	0x292
 1333 04c7 D3000000 		.4byte	0xd3
 1334 04cb 08       		.byte	0x8
 1335 04cc 08       		.uleb128 0x8
 1336 04cd 49535200 		.ascii	"ISR\000"
 1337 04d1 08       		.byte	0x8
 1338 04d2 9302     		.2byte	0x293
 1339 04d4 D3000000 		.4byte	0xd3
 1340 04d8 0C       		.byte	0xc
 1341 04d9 09       		.uleb128 0x9
 1342 04da 96000000 		.4byte	.LASF84
 1343 04de 08       		.byte	0x8
 1344 04df 9402     		.2byte	0x294
 1345 04e1 D3000000 		.4byte	0xd3
 1346 04e5 10       		.byte	0x10
 1347 04e6 09       		.uleb128 0x9
 1348 04e7 A7030000 		.4byte	.LASF85
 1349 04eb 08       		.byte	0x8
 1350 04ec 9502     		.2byte	0x295
ARM GAS  C:\Users\jo\AppData\Local\Temp\ccEwiVcU.s 			page 25


 1351 04ee D3000000 		.4byte	0xd3
 1352 04f2 14       		.byte	0x14
 1353 04f3 09       		.uleb128 0x9
 1354 04f4 00000000 		.4byte	.LASF86
 1355 04f8 08       		.byte	0x8
 1356 04f9 9602     		.2byte	0x296
 1357 04fb D3000000 		.4byte	0xd3
 1358 04ff 18       		.byte	0x18
 1359 0500 09       		.uleb128 0x9
 1360 0501 C9050000 		.4byte	.LASF87
 1361 0505 08       		.byte	0x8
 1362 0506 9702     		.2byte	0x297
 1363 0508 D3000000 		.4byte	0xd3
 1364 050c 1C       		.byte	0x1c
 1365 050d 09       		.uleb128 0x9
 1366 050e C8060000 		.4byte	.LASF88
 1367 0512 08       		.byte	0x8
 1368 0513 9802     		.2byte	0x298
 1369 0515 D3000000 		.4byte	0xd3
 1370 0519 20       		.byte	0x20
 1371 051a 08       		.uleb128 0x8
 1372 051b 57505200 		.ascii	"WPR\000"
 1373 051f 08       		.byte	0x8
 1374 0520 9902     		.2byte	0x299
 1375 0522 D3000000 		.4byte	0xd3
 1376 0526 24       		.byte	0x24
 1377 0527 08       		.uleb128 0x8
 1378 0528 53535200 		.ascii	"SSR\000"
 1379 052c 08       		.byte	0x8
 1380 052d 9A02     		.2byte	0x29a
 1381 052f D3000000 		.4byte	0xd3
 1382 0533 28       		.byte	0x28
 1383 0534 09       		.uleb128 0x9
 1384 0535 F6070000 		.4byte	.LASF89
 1385 0539 08       		.byte	0x8
 1386 053a 9B02     		.2byte	0x29b
 1387 053c D3000000 		.4byte	0xd3
 1388 0540 2C       		.byte	0x2c
 1389 0541 09       		.uleb128 0x9
 1390 0542 BB030000 		.4byte	.LASF90
 1391 0546 08       		.byte	0x8
 1392 0547 9C02     		.2byte	0x29c
 1393 0549 D3000000 		.4byte	0xd3
 1394 054d 30       		.byte	0x30
 1395 054e 09       		.uleb128 0x9
 1396 054f 07030000 		.4byte	.LASF91
 1397 0553 08       		.byte	0x8
 1398 0554 9D02     		.2byte	0x29d
 1399 0556 D3000000 		.4byte	0xd3
 1400 055a 34       		.byte	0x34
 1401 055b 09       		.uleb128 0x9
 1402 055c 10020000 		.4byte	.LASF92
 1403 0560 08       		.byte	0x8
 1404 0561 9E02     		.2byte	0x29e
 1405 0563 D3000000 		.4byte	0xd3
 1406 0567 38       		.byte	0x38
 1407 0568 09       		.uleb128 0x9
ARM GAS  C:\Users\jo\AppData\Local\Temp\ccEwiVcU.s 			page 26


 1408 0569 71000000 		.4byte	.LASF93
 1409 056d 08       		.byte	0x8
 1410 056e 9F02     		.2byte	0x29f
 1411 0570 D3000000 		.4byte	0xd3
 1412 0574 3C       		.byte	0x3c
 1413 0575 09       		.uleb128 0x9
 1414 0576 E8050000 		.4byte	.LASF94
 1415 057a 08       		.byte	0x8
 1416 057b A002     		.2byte	0x2a0
 1417 057d D3000000 		.4byte	0xd3
 1418 0581 40       		.byte	0x40
 1419 0582 09       		.uleb128 0x9
 1420 0583 4B080000 		.4byte	.LASF95
 1421 0587 08       		.byte	0x8
 1422 0588 A102     		.2byte	0x2a1
 1423 058a D3000000 		.4byte	0xd3
 1424 058e 44       		.byte	0x44
 1425 058f 09       		.uleb128 0x9
 1426 0590 91070000 		.4byte	.LASF96
 1427 0594 08       		.byte	0x8
 1428 0595 A202     		.2byte	0x2a2
 1429 0597 D3000000 		.4byte	0xd3
 1430 059b 48       		.byte	0x48
 1431 059c 09       		.uleb128 0x9
 1432 059d 26060000 		.4byte	.LASF97
 1433 05a1 08       		.byte	0x8
 1434 05a2 A302     		.2byte	0x2a3
 1435 05a4 B8000000 		.4byte	0xb8
 1436 05a8 4C       		.byte	0x4c
 1437 05a9 09       		.uleb128 0x9
 1438 05aa B5060000 		.4byte	.LASF98
 1439 05ae 08       		.byte	0x8
 1440 05af A402     		.2byte	0x2a4
 1441 05b1 D3000000 		.4byte	0xd3
 1442 05b5 50       		.byte	0x50
 1443 05b6 09       		.uleb128 0x9
 1444 05b7 84070000 		.4byte	.LASF99
 1445 05bb 08       		.byte	0x8
 1446 05bc A502     		.2byte	0x2a5
 1447 05be D3000000 		.4byte	0xd3
 1448 05c2 54       		.byte	0x54
 1449 05c3 09       		.uleb128 0x9
 1450 05c4 69080000 		.4byte	.LASF100
 1451 05c8 08       		.byte	0x8
 1452 05c9 A602     		.2byte	0x2a6
 1453 05cb D3000000 		.4byte	0xd3
 1454 05cf 58       		.byte	0x58
 1455 05d0 09       		.uleb128 0x9
 1456 05d1 90000000 		.4byte	.LASF101
 1457 05d5 08       		.byte	0x8
 1458 05d6 A702     		.2byte	0x2a7
 1459 05d8 D3000000 		.4byte	0xd3
 1460 05dc 5C       		.byte	0x5c
 1461 05dd 09       		.uleb128 0x9
 1462 05de 34020000 		.4byte	.LASF102
 1463 05e2 08       		.byte	0x8
 1464 05e3 A802     		.2byte	0x2a8
ARM GAS  C:\Users\jo\AppData\Local\Temp\ccEwiVcU.s 			page 27


 1465 05e5 D3000000 		.4byte	0xd3
 1466 05e9 60       		.byte	0x60
 1467 05ea 09       		.uleb128 0x9
 1468 05eb 14030000 		.4byte	.LASF103
 1469 05ef 08       		.byte	0x8
 1470 05f0 A902     		.2byte	0x2a9
 1471 05f2 D3000000 		.4byte	0xd3
 1472 05f6 64       		.byte	0x64
 1473 05f7 09       		.uleb128 0x9
 1474 05f8 C9040000 		.4byte	.LASF104
 1475 05fc 08       		.byte	0x8
 1476 05fd AA02     		.2byte	0x2aa
 1477 05ff D3000000 		.4byte	0xd3
 1478 0603 68       		.byte	0x68
 1479 0604 09       		.uleb128 0x9
 1480 0605 E2050000 		.4byte	.LASF105
 1481 0609 08       		.byte	0x8
 1482 060a AB02     		.2byte	0x2ab
 1483 060c D3000000 		.4byte	0xd3
 1484 0610 6C       		.byte	0x6c
 1485 0611 09       		.uleb128 0x9
 1486 0612 DA060000 		.4byte	.LASF106
 1487 0616 08       		.byte	0x8
 1488 0617 AC02     		.2byte	0x2ac
 1489 0619 D3000000 		.4byte	0xd3
 1490 061d 70       		.byte	0x70
 1491 061e 09       		.uleb128 0x9
 1492 061f F0070000 		.4byte	.LASF107
 1493 0623 08       		.byte	0x8
 1494 0624 AD02     		.2byte	0x2ad
 1495 0626 D3000000 		.4byte	0xd3
 1496 062a 74       		.byte	0x74
 1497 062b 09       		.uleb128 0x9
 1498 062c AC030000 		.4byte	.LASF108
 1499 0630 08       		.byte	0x8
 1500 0631 AE02     		.2byte	0x2ae
 1501 0633 D3000000 		.4byte	0xd3
 1502 0637 78       		.byte	0x78
 1503 0638 09       		.uleb128 0x9
 1504 0639 99050000 		.4byte	.LASF109
 1505 063d 08       		.byte	0x8
 1506 063e AF02     		.2byte	0x2af
 1507 0640 D3000000 		.4byte	0xd3
 1508 0644 7C       		.byte	0x7c
 1509 0645 09       		.uleb128 0x9
 1510 0646 A5060000 		.4byte	.LASF110
 1511 064a 08       		.byte	0x8
 1512 064b B002     		.2byte	0x2b0
 1513 064d D3000000 		.4byte	0xd3
 1514 0651 80       		.byte	0x80
 1515 0652 09       		.uleb128 0x9
 1516 0653 9A070000 		.4byte	.LASF111
 1517 0657 08       		.byte	0x8
 1518 0658 B102     		.2byte	0x2b1
 1519 065a D3000000 		.4byte	0xd3
 1520 065e 84       		.byte	0x84
 1521 065f 09       		.uleb128 0x9
ARM GAS  C:\Users\jo\AppData\Local\Temp\ccEwiVcU.s 			page 28


 1522 0660 84080000 		.4byte	.LASF112
 1523 0664 08       		.byte	0x8
 1524 0665 B202     		.2byte	0x2b2
 1525 0667 D3000000 		.4byte	0xd3
 1526 066b 88       		.byte	0x88
 1527 066c 09       		.uleb128 0x9
 1528 066d A5000000 		.4byte	.LASF113
 1529 0671 08       		.byte	0x8
 1530 0672 B302     		.2byte	0x2b3
 1531 0674 D3000000 		.4byte	0xd3
 1532 0678 8C       		.byte	0x8c
 1533 0679 09       		.uleb128 0x9
 1534 067a 43020000 		.4byte	.LASF114
 1535 067e 08       		.byte	0x8
 1536 067f B402     		.2byte	0x2b4
 1537 0681 D3000000 		.4byte	0xd3
 1538 0685 90       		.byte	0x90
 1539 0686 09       		.uleb128 0x9
 1540 0687 54080000 		.4byte	.LASF115
 1541 068b 08       		.byte	0x8
 1542 068c B502     		.2byte	0x2b5
 1543 068e D3000000 		.4byte	0xd3
 1544 0692 94       		.byte	0x94
 1545 0693 09       		.uleb128 0x9
 1546 0694 E8040000 		.4byte	.LASF116
 1547 0698 08       		.byte	0x8
 1548 0699 B602     		.2byte	0x2b6
 1549 069b D3000000 		.4byte	0xd3
 1550 069f 98       		.byte	0x98
 1551 06a0 09       		.uleb128 0x9
 1552 06a1 08060000 		.4byte	.LASF117
 1553 06a5 08       		.byte	0x8
 1554 06a6 B702     		.2byte	0x2b7
 1555 06a8 D3000000 		.4byte	0xd3
 1556 06ac 9C       		.byte	0x9c
 1557 06ad 00       		.byte	0
 1558 06ae 15       		.uleb128 0x15
 1559 06af 45010000 		.4byte	.LASF118
 1560 06b3 08       		.byte	0x8
 1561 06b4 B802     		.2byte	0x2b8
 1562 06b6 9F040000 		.4byte	0x49f
 1563 06ba 04       		.uleb128 0x4
 1564 06bb 8F020000 		.4byte	.LASF119
 1565 06bf 09       		.byte	0x9
 1566 06c0 65       		.byte	0x65
 1567 06c1 27030000 		.4byte	0x327
 1568 06c5 04       		.uleb128 0x4
 1569 06c6 BE040000 		.4byte	.LASF120
 1570 06ca 09       		.byte	0x9
 1571 06cb 6D       		.byte	0x6d
 1572 06cc C3000000 		.4byte	0xc3
 1573 06d0 06       		.uleb128 0x6
 1574 06d1 A1070000 		.4byte	.LASF121
 1575 06d5 04       		.byte	0x4
 1576 06d6 09       		.byte	0x9
 1577 06d7 89       		.byte	0x89
 1578 06d8 E9060000 		.4byte	0x6e9
ARM GAS  C:\Users\jo\AppData\Local\Temp\ccEwiVcU.s 			page 29


 1579 06dc 16       		.uleb128 0x16
 1580 06dd 72313300 		.ascii	"r13\000"
 1581 06e1 09       		.byte	0x9
 1582 06e2 8A       		.byte	0x8a
 1583 06e3 64070000 		.4byte	0x764
 1584 06e7 00       		.byte	0
 1585 06e8 00       		.byte	0
 1586 06e9 06       		.uleb128 0x6
 1587 06ea 45000000 		.4byte	.LASF122
 1588 06ee 24       		.byte	0x24
 1589 06ef 0A       		.byte	0xa
 1590 06f0 F4       		.byte	0xf4
 1591 06f1 64070000 		.4byte	0x764
 1592 06f5 08       		.uleb128 0x8
 1593 06f6 723400   		.ascii	"r4\000"
 1594 06f9 0A       		.byte	0xa
 1595 06fa 0701     		.2byte	0x107
 1596 06fc BA060000 		.4byte	0x6ba
 1597 0700 00       		.byte	0
 1598 0701 08       		.uleb128 0x8
 1599 0702 723500   		.ascii	"r5\000"
 1600 0705 0A       		.byte	0xa
 1601 0706 0801     		.2byte	0x108
 1602 0708 BA060000 		.4byte	0x6ba
 1603 070c 04       		.byte	0x4
 1604 070d 08       		.uleb128 0x8
 1605 070e 723600   		.ascii	"r6\000"
 1606 0711 0A       		.byte	0xa
 1607 0712 0901     		.2byte	0x109
 1608 0714 BA060000 		.4byte	0x6ba
 1609 0718 08       		.byte	0x8
 1610 0719 08       		.uleb128 0x8
 1611 071a 723700   		.ascii	"r7\000"
 1612 071d 0A       		.byte	0xa
 1613 071e 0A01     		.2byte	0x10a
 1614 0720 BA060000 		.4byte	0x6ba
 1615 0724 0C       		.byte	0xc
 1616 0725 08       		.uleb128 0x8
 1617 0726 723800   		.ascii	"r8\000"
 1618 0729 0A       		.byte	0xa
 1619 072a 0B01     		.2byte	0x10b
 1620 072c BA060000 		.4byte	0x6ba
 1621 0730 10       		.byte	0x10
 1622 0731 08       		.uleb128 0x8
 1623 0732 723900   		.ascii	"r9\000"
 1624 0735 0A       		.byte	0xa
 1625 0736 0C01     		.2byte	0x10c
 1626 0738 BA060000 		.4byte	0x6ba
 1627 073c 14       		.byte	0x14
 1628 073d 08       		.uleb128 0x8
 1629 073e 72313000 		.ascii	"r10\000"
 1630 0742 0A       		.byte	0xa
 1631 0743 0D01     		.2byte	0x10d
 1632 0745 BA060000 		.4byte	0x6ba
 1633 0749 18       		.byte	0x18
 1634 074a 08       		.uleb128 0x8
 1635 074b 72313100 		.ascii	"r11\000"
ARM GAS  C:\Users\jo\AppData\Local\Temp\ccEwiVcU.s 			page 30


 1636 074f 0A       		.byte	0xa
 1637 0750 0E01     		.2byte	0x10e
 1638 0752 BA060000 		.4byte	0x6ba
 1639 0756 1C       		.byte	0x1c
 1640 0757 08       		.uleb128 0x8
 1641 0758 6C7200   		.ascii	"lr\000"
 1642 075b 0A       		.byte	0xa
 1643 075c 0F01     		.2byte	0x10f
 1644 075e BA060000 		.4byte	0x6ba
 1645 0762 20       		.byte	0x20
 1646 0763 00       		.byte	0
 1647 0764 0A       		.uleb128 0xa
 1648 0765 04       		.byte	0x4
 1649 0766 E9060000 		.4byte	0x6e9
 1650 076a 17       		.uleb128 0x17
 1651 076b 10       		.byte	0x10
 1652 076c 0B       		.byte	0xb
 1653 076d 51       		.byte	0x51
 1654 076e A3070000 		.4byte	0x7a3
 1655 0772 07       		.uleb128 0x7
 1656 0773 E4010000 		.4byte	.LASF123
 1657 0777 0B       		.byte	0xb
 1658 0778 55       		.byte	0x55
 1659 0779 30010000 		.4byte	0x130
 1660 077d 00       		.byte	0
 1661 077e 07       		.uleb128 0x7
 1662 077f 4A020000 		.4byte	.LASF124
 1663 0783 0B       		.byte	0xb
 1664 0784 59       		.byte	0x59
 1665 0785 4A020000 		.4byte	0x24a
 1666 0789 04       		.byte	0x4
 1667 078a 07       		.uleb128 0x7
 1668 078b 9B080000 		.4byte	.LASF125
 1669 078f 0B       		.byte	0xb
 1670 0790 5D       		.byte	0x5d
 1671 0791 27030000 		.4byte	0x327
 1672 0795 08       		.byte	0x8
 1673 0796 07       		.uleb128 0x7
 1674 0797 E0000000 		.4byte	.LASF126
 1675 079b 0B       		.byte	0xb
 1676 079c 61       		.byte	0x61
 1677 079d A2000000 		.4byte	0xa2
 1678 07a1 0C       		.byte	0xc
 1679 07a2 00       		.byte	0
 1680 07a3 04       		.uleb128 0x4
 1681 07a4 5F050000 		.4byte	.LASF127
 1682 07a8 0B       		.byte	0xb
 1683 07a9 62       		.byte	0x62
 1684 07aa 6A070000 		.4byte	0x76a
 1685 07ae 18       		.uleb128 0x18
 1686 07af 0804     		.2byte	0x408
 1687 07b1 0B       		.byte	0xb
 1688 07b2 67       		.byte	0x67
 1689 07b3 DC070000 		.4byte	0x7dc
 1690 07b7 07       		.uleb128 0x7
 1691 07b8 7F020000 		.4byte	.LASF128
 1692 07bc 0B       		.byte	0xb
ARM GAS  C:\Users\jo\AppData\Local\Temp\ccEwiVcU.s 			page 31


 1693 07bd 6B       		.byte	0x6b
 1694 07be 2C000000 		.4byte	0x2c
 1695 07c2 00       		.byte	0
 1696 07c3 07       		.uleb128 0x7
 1697 07c4 58050000 		.4byte	.LASF129
 1698 07c8 0B       		.byte	0xb
 1699 07c9 6F       		.byte	0x6f
 1700 07ca DC070000 		.4byte	0x7dc
 1701 07ce 04       		.byte	0x4
 1702 07cf 07       		.uleb128 0x7
 1703 07d0 F6050000 		.4byte	.LASF130
 1704 07d4 0B       		.byte	0xb
 1705 07d5 73       		.byte	0x73
 1706 07d6 E2070000 		.4byte	0x7e2
 1707 07da 08       		.byte	0x8
 1708 07db 00       		.byte	0
 1709 07dc 0A       		.uleb128 0xa
 1710 07dd 04       		.byte	0x4
 1711 07de A3070000 		.4byte	0x7a3
 1712 07e2 12       		.uleb128 0x12
 1713 07e3 A3070000 		.4byte	0x7a3
 1714 07e7 F2070000 		.4byte	0x7f2
 1715 07eb 13       		.uleb128 0x13
 1716 07ec 88040000 		.4byte	0x488
 1717 07f0 3F       		.byte	0x3f
 1718 07f1 00       		.byte	0
 1719 07f2 04       		.uleb128 0x4
 1720 07f3 C3000000 		.4byte	.LASF131
 1721 07f7 0B       		.byte	0xb
 1722 07f8 74       		.byte	0x74
 1723 07f9 AE070000 		.4byte	0x7ae
 1724 07fd 17       		.uleb128 0x17
 1725 07fe 04       		.byte	0x4
 1726 07ff 0C       		.byte	0xc
 1727 0800 38       		.byte	0x38
 1728 0801 12080000 		.4byte	0x812
 1729 0805 07       		.uleb128 0x7
 1730 0806 8A070000 		.4byte	.LASF132
 1731 080a 0C       		.byte	0xc
 1732 080b 3C       		.byte	0x3c
 1733 080c D8000000 		.4byte	0xd8
 1734 0810 00       		.byte	0
 1735 0811 00       		.byte	0
 1736 0812 04       		.uleb128 0x4
 1737 0813 88050000 		.4byte	.LASF133
 1738 0817 0C       		.byte	0xc
 1739 0818 3D       		.byte	0x3d
 1740 0819 FD070000 		.4byte	0x7fd
 1741 081d 19       		.uleb128 0x19
 1742 081e 04       		.byte	0x4
 1743 081f 07       		.byte	0x7
 1744 0820 FA       		.byte	0xfa
 1745 0821 7A080000 		.4byte	0x87a
 1746 0825 1A       		.uleb128 0x1a
 1747 0826 2B000000 		.4byte	.LASF134
 1748 082a 07       		.byte	0x7
 1749 082b 0101     		.2byte	0x101
ARM GAS  C:\Users\jo\AppData\Local\Temp\ccEwiVcU.s 			page 32


 1750 082d 0F010000 		.4byte	0x10f
 1751 0831 1A       		.uleb128 0x1a
 1752 0832 E9000000 		.4byte	.LASF135
 1753 0836 07       		.byte	0x7
 1754 0837 0801     		.2byte	0x108
 1755 0839 0F010000 		.4byte	0x10f
 1756 083d 1A       		.uleb128 0x1a
 1757 083e 5B080000 		.4byte	.LASF136
 1758 0842 07       		.byte	0x7
 1759 0843 0F01     		.2byte	0x10f
 1760 0845 27030000 		.4byte	0x327
 1761 0849 1A       		.uleb128 0x1a
 1762 084a 1B020000 		.4byte	.LASF137
 1763 084e 07       		.byte	0x7
 1764 084f 1601     		.2byte	0x116
 1765 0851 7A080000 		.4byte	0x87a
 1766 0855 1A       		.uleb128 0x1a
 1767 0856 1A030000 		.4byte	.LASF138
 1768 085a 07       		.byte	0x7
 1769 085b 1E01     		.2byte	0x11e
 1770 085d A5080000 		.4byte	0x8a5
 1771 0861 1A       		.uleb128 0x1a
 1772 0862 E7060000 		.4byte	.LASF139
 1773 0866 07       		.byte	0x7
 1774 0867 2701     		.2byte	0x127
 1775 0869 DC080000 		.4byte	0x8dc
 1776 086d 1A       		.uleb128 0x1a
 1777 086e 97060000 		.4byte	.LASF140
 1778 0872 07       		.byte	0x7
 1779 0873 2F01     		.2byte	0x12f
 1780 0875 1A010000 		.4byte	0x11a
 1781 0879 00       		.byte	0
 1782 087a 0A       		.uleb128 0xa
 1783 087b 04       		.byte	0x4
 1784 087c 3F020000 		.4byte	0x23f
 1785 0880 06       		.uleb128 0x6
 1786 0881 BB060000 		.4byte	.LASF141
 1787 0885 0C       		.byte	0xc
 1788 0886 0D       		.byte	0xd
 1789 0887 34       		.byte	0x34
 1790 0888 A5080000 		.4byte	0x8a5
 1791 088c 07       		.uleb128 0x7
 1792 088d 77020000 		.4byte	.LASF142
 1793 0891 0D       		.byte	0xd
 1794 0892 35       		.byte	0x35
 1795 0893 74020000 		.4byte	0x274
 1796 0897 00       		.byte	0
 1797 0898 07       		.uleb128 0x7
 1798 0899 46030000 		.4byte	.LASF143
 1799 089d 0D       		.byte	0xd
 1800 089e 37       		.byte	0x37
 1801 089f 25010000 		.4byte	0x125
 1802 08a3 08       		.byte	0x8
 1803 08a4 00       		.byte	0
 1804 08a5 0A       		.uleb128 0xa
 1805 08a6 04       		.byte	0x4
 1806 08a7 80080000 		.4byte	0x880
ARM GAS  C:\Users\jo\AppData\Local\Temp\ccEwiVcU.s 			page 33


 1807 08ab 06       		.uleb128 0x6
 1808 08ac 17080000 		.4byte	.LASF144
 1809 08b0 10       		.byte	0x10
 1810 08b1 0E       		.byte	0xe
 1811 08b2 39       		.byte	0x39
 1812 08b3 DC080000 		.4byte	0x8dc
 1813 08b7 07       		.uleb128 0x7
 1814 08b8 F4010000 		.4byte	.LASF145
 1815 08bc 0E       		.byte	0xe
 1816 08bd 3A       		.byte	0x3a
 1817 08be 74020000 		.4byte	0x274
 1818 08c2 00       		.byte	0
 1819 08c3 07       		.uleb128 0x7
 1820 08c4 93080000 		.4byte	.LASF146
 1821 08c8 0E       		.byte	0xe
 1822 08c9 3C       		.byte	0x3c
 1823 08ca 4A020000 		.4byte	0x24a
 1824 08ce 08       		.byte	0x8
 1825 08cf 07       		.uleb128 0x7
 1826 08d0 4A070000 		.4byte	.LASF147
 1827 08d4 0E       		.byte	0xe
 1828 08d5 3E       		.byte	0x3e
 1829 08d6 20090000 		.4byte	0x920
 1830 08da 0C       		.byte	0xc
 1831 08db 00       		.byte	0
 1832 08dc 0A       		.uleb128 0xa
 1833 08dd 04       		.byte	0x4
 1834 08de AB080000 		.4byte	0x8ab
 1835 08e2 0A       		.uleb128 0xa
 1836 08e3 04       		.byte	0x4
 1837 08e4 E8080000 		.4byte	0x8e8
 1838 08e8 1B       		.uleb128 0x1b
 1839 08e9 ED080000 		.4byte	0x8ed
 1840 08ed 02       		.uleb128 0x2
 1841 08ee 01       		.byte	0x1
 1842 08ef 08       		.byte	0x8
 1843 08f0 21070000 		.4byte	.LASF148
 1844 08f4 0A       		.uleb128 0xa
 1845 08f5 04       		.byte	0x4
 1846 08f6 C5060000 		.4byte	0x6c5
 1847 08fa 0A       		.uleb128 0xa
 1848 08fb 04       		.byte	0x4
 1849 08fc 29030000 		.4byte	0x329
 1850 0900 05       		.uleb128 0x5
 1851 0901 E2080000 		.4byte	0x8e2
 1852 0905 12       		.uleb128 0x12
 1853 0906 C5060000 		.4byte	0x6c5
 1854 090a 15090000 		.4byte	0x915
 1855 090e 13       		.uleb128 0x13
 1856 090f 88040000 		.4byte	0x488
 1857 0913 1B       		.byte	0x1b
 1858 0914 00       		.byte	0
 1859 0915 04       		.uleb128 0x4
 1860 0916 D0020000 		.4byte	.LASF149
 1861 091a 0E       		.byte	0xe
 1862 091b 34       		.byte	0x34
 1863 091c AB080000 		.4byte	0x8ab
ARM GAS  C:\Users\jo\AppData\Local\Temp\ccEwiVcU.s 			page 34


 1864 0920 0A       		.uleb128 0xa
 1865 0921 04       		.byte	0x4
 1866 0922 15090000 		.4byte	0x915
 1867 0926 02       		.uleb128 0x2
 1868 0927 01       		.byte	0x1
 1869 0928 02       		.byte	0x2
 1870 0929 4E060000 		.4byte	.LASF150
 1871 092d 1C       		.uleb128 0x1c
 1872 092e 746D00   		.ascii	"tm\000"
 1873 0931 24       		.byte	0x24
 1874 0932 0F       		.byte	0xf
 1875 0933 1F       		.byte	0x1f
 1876 0934 A5090000 		.4byte	0x9a5
 1877 0938 07       		.uleb128 0x7
 1878 0939 E0060000 		.4byte	.LASF151
 1879 093d 0F       		.byte	0xf
 1880 093e 21       		.byte	0x21
 1881 093f 33000000 		.4byte	0x33
 1882 0943 00       		.byte	0
 1883 0944 07       		.uleb128 0x7
 1884 0945 0B050000 		.4byte	.LASF152
 1885 0949 0F       		.byte	0xf
 1886 094a 22       		.byte	0x22
 1887 094b 33000000 		.4byte	0x33
 1888 094f 04       		.byte	0x4
 1889 0950 07       		.uleb128 0x7
 1890 0951 42070000 		.4byte	.LASF153
 1891 0955 0F       		.byte	0xf
 1892 0956 23       		.byte	0x23
 1893 0957 33000000 		.4byte	0x33
 1894 095b 08       		.byte	0x8
 1895 095c 07       		.uleb128 0x7
 1896 095d C6070000 		.4byte	.LASF154
 1897 0961 0F       		.byte	0xf
 1898 0962 24       		.byte	0x24
 1899 0963 33000000 		.4byte	0x33
 1900 0967 0C       		.byte	0xc
 1901 0968 07       		.uleb128 0x7
 1902 0969 A0050000 		.4byte	.LASF155
 1903 096d 0F       		.byte	0xf
 1904 096e 25       		.byte	0x25
 1905 096f 33000000 		.4byte	0x33
 1906 0973 10       		.byte	0x10
 1907 0974 07       		.uleb128 0x7
 1908 0975 07000000 		.4byte	.LASF156
 1909 0979 0F       		.byte	0xf
 1910 097a 26       		.byte	0x26
 1911 097b 33000000 		.4byte	0x33
 1912 097f 14       		.byte	0x14
 1913 0980 07       		.uleb128 0x7
 1914 0981 E8070000 		.4byte	.LASF157
 1915 0985 0F       		.byte	0xf
 1916 0986 27       		.byte	0x27
 1917 0987 33000000 		.4byte	0x33
 1918 098b 18       		.byte	0x18
 1919 098c 07       		.uleb128 0x7
 1920 098d 45050000 		.4byte	.LASF158
ARM GAS  C:\Users\jo\AppData\Local\Temp\ccEwiVcU.s 			page 35


 1921 0991 0F       		.byte	0xf
 1922 0992 28       		.byte	0x28
 1923 0993 33000000 		.4byte	0x33
 1924 0997 1C       		.byte	0x1c
 1925 0998 07       		.uleb128 0x7
 1926 0999 71030000 		.4byte	.LASF159
 1927 099d 0F       		.byte	0xf
 1928 099e 29       		.byte	0x29
 1929 099f 33000000 		.4byte	0x33
 1930 09a3 20       		.byte	0x20
 1931 09a4 00       		.byte	0
 1932 09a5 04       		.uleb128 0x4
 1933 09a6 6A060000 		.4byte	.LASF160
 1934 09aa 10       		.byte	0x10
 1935 09ab 58       		.byte	0x58
 1936 09ac B0090000 		.4byte	0x9b0
 1937 09b0 06       		.uleb128 0x6
 1938 09b1 6A060000 		.4byte	.LASF160
 1939 09b5 04       		.byte	0x4
 1940 09b6 11       		.byte	0x11
 1941 09b7 B6       		.byte	0xb6
 1942 09b8 C9090000 		.4byte	0x9c9
 1943 09bc 16       		.uleb128 0x16
 1944 09bd 72746300 		.ascii	"rtc\000"
 1945 09c1 11       		.byte	0x11
 1946 09c2 C1       		.byte	0xc1
 1947 09c3 620A0000 		.4byte	0xa62
 1948 09c7 00       		.byte	0
 1949 09c8 00       		.byte	0
 1950 09c9 17       		.uleb128 0x17
 1951 09ca 08       		.byte	0x8
 1952 09cb 10       		.byte	0x10
 1953 09cc 5D       		.byte	0x5d
 1954 09cd 2C0A0000 		.4byte	0xa2c
 1955 09d1 1D       		.uleb128 0x1d
 1956 09d2 16020000 		.4byte	.LASF161
 1957 09d6 10       		.byte	0x10
 1958 09d7 5F       		.byte	0x5f
 1959 09d8 B8000000 		.4byte	0xb8
 1960 09dc 04       		.byte	0x4
 1961 09dd 08       		.byte	0x8
 1962 09de 18       		.byte	0x18
 1963 09df 00       		.byte	0
 1964 09e0 1D       		.uleb128 0x1d
 1965 09e1 F6020000 		.4byte	.LASF162
 1966 09e5 10       		.byte	0x10
 1967 09e6 60       		.byte	0x60
 1968 09e7 B8000000 		.4byte	0xb8
 1969 09eb 04       		.byte	0x4
 1970 09ec 04       		.byte	0x4
 1971 09ed 14       		.byte	0x14
 1972 09ee 00       		.byte	0
 1973 09ef 1D       		.uleb128 0x1d
 1974 09f0 3D010000 		.4byte	.LASF163
 1975 09f4 10       		.byte	0x10
 1976 09f5 61       		.byte	0x61
 1977 09f6 B8000000 		.4byte	0xb8
ARM GAS  C:\Users\jo\AppData\Local\Temp\ccEwiVcU.s 			page 36


 1978 09fa 04       		.byte	0x4
 1979 09fb 01       		.byte	0x1
 1980 09fc 13       		.byte	0x13
 1981 09fd 00       		.byte	0
 1982 09fe 1D       		.uleb128 0x1d
 1983 09ff FD070000 		.4byte	.LASF164
 1984 0a03 10       		.byte	0x10
 1985 0a04 62       		.byte	0x62
 1986 0a05 B8000000 		.4byte	0xb8
 1987 0a09 04       		.byte	0x4
 1988 0a0a 03       		.byte	0x3
 1989 0a0b 10       		.byte	0x10
 1990 0a0c 00       		.byte	0
 1991 0a0d 1E       		.uleb128 0x1e
 1992 0a0e 64617900 		.ascii	"day\000"
 1993 0a12 10       		.byte	0x10
 1994 0a13 63       		.byte	0x63
 1995 0a14 B8000000 		.4byte	0xb8
 1996 0a18 04       		.byte	0x4
 1997 0a19 05       		.byte	0x5
 1998 0a1a 0B       		.byte	0xb
 1999 0a1b 00       		.byte	0
 2000 0a1c 1D       		.uleb128 0x1d
 2001 0a1d 84030000 		.4byte	.LASF165
 2002 0a21 10       		.byte	0x10
 2003 0a22 64       		.byte	0x64
 2004 0a23 B8000000 		.4byte	0xb8
 2005 0a27 04       		.byte	0x4
 2006 0a28 1B       		.byte	0x1b
 2007 0a29 05       		.byte	0x5
 2008 0a2a 04       		.byte	0x4
 2009 0a2b 00       		.byte	0
 2010 0a2c 04       		.uleb128 0x4
 2011 0a2d F5040000 		.4byte	.LASF166
 2012 0a31 10       		.byte	0x10
 2013 0a32 66       		.byte	0x66
 2014 0a33 C9090000 		.4byte	0x9c9
 2015 0a37 04       		.uleb128 0x4
 2016 0a38 4D050000 		.4byte	.LASF167
 2017 0a3c 11       		.byte	0x11
 2018 0a3d 8F       		.byte	0x8f
 2019 0a3e B8000000 		.4byte	0xb8
 2020 0a42 17       		.uleb128 0x17
 2021 0a43 04       		.byte	0x4
 2022 0a44 11       		.byte	0x11
 2023 0a45 94       		.byte	0x94
 2024 0a46 570A0000 		.4byte	0xa57
 2025 0a4a 07       		.uleb128 0x7
 2026 0a4b EF040000 		.4byte	.LASF168
 2027 0a4f 11       		.byte	0x11
 2028 0a50 98       		.byte	0x98
 2029 0a51 B8000000 		.4byte	0xb8
 2030 0a55 00       		.byte	0
 2031 0a56 00       		.byte	0
 2032 0a57 04       		.uleb128 0x4
 2033 0a58 2F080000 		.4byte	.LASF169
 2034 0a5c 11       		.byte	0x11
ARM GAS  C:\Users\jo\AppData\Local\Temp\ccEwiVcU.s 			page 37


 2035 0a5d 99       		.byte	0x99
 2036 0a5e 420A0000 		.4byte	0xa42
 2037 0a62 0A       		.uleb128 0xa
 2038 0a63 04       		.byte	0x4
 2039 0a64 AE060000 		.4byte	0x6ae
 2040 0a68 1F       		.uleb128 0x1f
 2041 0a69 8B080000 		.4byte	.LASF170
 2042 0a6d 01       		.byte	0x1
 2043 0a6e 43       		.byte	0x43
 2044 0a6f 00000000 		.4byte	.LFB259
 2045 0a73 04000000 		.4byte	.LFE259-.LFB259
 2046 0a77 01       		.uleb128 0x1
 2047 0a78 9C       		.byte	0x9c
 2048 0a79 870A0000 		.4byte	0xa87
 2049 0a7d 20       		.uleb128 0x20
 2050 0a7e 04000000 		.4byte	.LVL0
 2051 0a82 C30E0000 		.4byte	0xec3
 2052 0a86 00       		.byte	0
 2053 0a87 1F       		.uleb128 0x1f
 2054 0a88 A5020000 		.4byte	.LASF171
 2055 0a8c 01       		.byte	0x1
 2056 0a8d 51       		.byte	0x51
 2057 0a8e 00000000 		.4byte	.LFB260
 2058 0a92 02000000 		.4byte	.LFE260-.LFB260
 2059 0a96 01       		.uleb128 0x1
 2060 0a97 9C       		.byte	0x9c
 2061 0a98 AA0A0000 		.4byte	0xaaa
 2062 0a9c 21       		.uleb128 0x21
 2063 0a9d A0020000 		.4byte	.LASF173
 2064 0aa1 01       		.byte	0x1
 2065 0aa2 51       		.byte	0x51
 2066 0aa3 AA0A0000 		.4byte	0xaaa
 2067 0aa7 01       		.uleb128 0x1
 2068 0aa8 50       		.byte	0x50
 2069 0aa9 00       		.byte	0
 2070 0aaa 0A       		.uleb128 0xa
 2071 0aab 04       		.byte	0x4
 2072 0aac A5090000 		.4byte	0x9a5
 2073 0ab0 1F       		.uleb128 0x1f
 2074 0ab1 D5000000 		.4byte	.LASF172
 2075 0ab5 01       		.byte	0x1
 2076 0ab6 68       		.byte	0x68
 2077 0ab7 00000000 		.4byte	.LFB261
 2078 0abb 30000000 		.4byte	.LFE261-.LFB261
 2079 0abf 01       		.uleb128 0x1
 2080 0ac0 9C       		.byte	0x9c
 2081 0ac1 3E0B0000 		.4byte	0xb3e
 2082 0ac5 22       		.uleb128 0x22
 2083 0ac6 A0020000 		.4byte	.LASF173
 2084 0aca 01       		.byte	0x1
 2085 0acb 68       		.byte	0x68
 2086 0acc AA0A0000 		.4byte	0xaaa
 2087 0ad0 00000000 		.4byte	.LLST0
 2088 0ad4 22       		.uleb128 0x22
 2089 0ad5 21030000 		.4byte	.LASF174
 2090 0ad9 01       		.byte	0x1
 2091 0ada 68       		.byte	0x68
ARM GAS  C:\Users\jo\AppData\Local\Temp\ccEwiVcU.s 			page 38


 2092 0adb 3E0B0000 		.4byte	0xb3e
 2093 0adf 50000000 		.4byte	.LLST1
 2094 0ae3 23       		.uleb128 0x23
 2095 0ae4 AC060000 		.4byte	.LASF176
 2096 0ae8 590B0000 		.4byte	0xb59
 2097 0aec 05       		.uleb128 0x5
 2098 0aed 03       		.byte	0x3
 2099 0aee 00000000 		.4byte	__func__.7512
 2100 0af2 24       		.uleb128 0x24
 2101 0af3 16000000 		.4byte	.LVL3
 2102 0af7 CA0E0000 		.4byte	0xeca
 2103 0afb 0E0B0000 		.4byte	0xb0e
 2104 0aff 25       		.uleb128 0x25
 2105 0b00 01       		.uleb128 0x1
 2106 0b01 51       		.byte	0x51
 2107 0b02 03       		.uleb128 0x3
 2108 0b03 F3       		.byte	0xf3
 2109 0b04 01       		.uleb128 0x1
 2110 0b05 51       		.byte	0x51
 2111 0b06 25       		.uleb128 0x25
 2112 0b07 01       		.uleb128 0x1
 2113 0b08 50       		.byte	0x50
 2114 0b09 03       		.uleb128 0x3
 2115 0b0a F3       		.byte	0xf3
 2116 0b0b 01       		.uleb128 0x1
 2117 0b0c 50       		.byte	0x50
 2118 0b0d 00       		.byte	0
 2119 0b0e 26       		.uleb128 0x26
 2120 0b0f 1E000000 		.4byte	.LVL5
 2121 0b13 E00E0000 		.4byte	0xee0
 2122 0b17 250B0000 		.4byte	0xb25
 2123 0b1b 25       		.uleb128 0x25
 2124 0b1c 01       		.uleb128 0x1
 2125 0b1d 50       		.byte	0x50
 2126 0b1e 05       		.uleb128 0x5
 2127 0b1f 03       		.byte	0x3
 2128 0b20 00000000 		.4byte	.LANCHOR0
 2129 0b24 00       		.byte	0
 2130 0b25 27       		.uleb128 0x27
 2131 0b26 2C000000 		.4byte	.LVL7
 2132 0b2a CA0E0000 		.4byte	0xeca
 2133 0b2e 25       		.uleb128 0x25
 2134 0b2f 01       		.uleb128 0x1
 2135 0b30 51       		.byte	0x51
 2136 0b31 03       		.uleb128 0x3
 2137 0b32 7D       		.byte	0x7d
 2138 0b33 74       		.sleb128 -12
 2139 0b34 06       		.byte	0x6
 2140 0b35 25       		.uleb128 0x25
 2141 0b36 01       		.uleb128 0x1
 2142 0b37 50       		.byte	0x50
 2143 0b38 03       		.uleb128 0x3
 2144 0b39 F3       		.byte	0xf3
 2145 0b3a 01       		.uleb128 0x1
 2146 0b3b 50       		.byte	0x50
 2147 0b3c 00       		.byte	0
 2148 0b3d 00       		.byte	0
ARM GAS  C:\Users\jo\AppData\Local\Temp\ccEwiVcU.s 			page 39


 2149 0b3e 0A       		.uleb128 0xa
 2150 0b3f 04       		.byte	0x4
 2151 0b40 440B0000 		.4byte	0xb44
 2152 0b44 1B       		.uleb128 0x1b
 2153 0b45 2C0A0000 		.4byte	0xa2c
 2154 0b49 12       		.uleb128 0x12
 2155 0b4a ED080000 		.4byte	0x8ed
 2156 0b4e 590B0000 		.4byte	0xb59
 2157 0b52 13       		.uleb128 0x13
 2158 0b53 88040000 		.4byte	0x488
 2159 0b57 0A       		.byte	0xa
 2160 0b58 00       		.byte	0
 2161 0b59 1B       		.uleb128 0x1b
 2162 0b5a 490B0000 		.4byte	0xb49
 2163 0b5e 1F       		.uleb128 0x1f
 2164 0b5f DD070000 		.4byte	.LASF175
 2165 0b63 01       		.byte	0x1
 2166 0b64 7D       		.byte	0x7d
 2167 0b65 00000000 		.4byte	.LFB262
 2168 0b69 30000000 		.4byte	.LFE262-.LFB262
 2169 0b6d 01       		.uleb128 0x1
 2170 0b6e 9C       		.byte	0x9c
 2171 0b6f EC0B0000 		.4byte	0xbec
 2172 0b73 22       		.uleb128 0x22
 2173 0b74 A0020000 		.4byte	.LASF173
 2174 0b78 01       		.byte	0x1
 2175 0b79 7D       		.byte	0x7d
 2176 0b7a AA0A0000 		.4byte	0xaaa
 2177 0b7e 94000000 		.4byte	.LLST2
 2178 0b82 22       		.uleb128 0x22
 2179 0b83 21030000 		.4byte	.LASF174
 2180 0b87 01       		.byte	0x1
 2181 0b88 7D       		.byte	0x7d
 2182 0b89 EC0B0000 		.4byte	0xbec
 2183 0b8d E4000000 		.4byte	.LLST3
 2184 0b91 23       		.uleb128 0x23
 2185 0b92 AC060000 		.4byte	.LASF176
 2186 0b96 F20B0000 		.4byte	0xbf2
 2187 0b9a 05       		.uleb128 0x5
 2188 0b9b 03       		.byte	0x3
 2189 0b9c 00000000 		.4byte	__func__.7517
 2190 0ba0 24       		.uleb128 0x24
 2191 0ba1 16000000 		.4byte	.LVL9
 2192 0ba5 F20E0000 		.4byte	0xef2
 2193 0ba9 BC0B0000 		.4byte	0xbbc
 2194 0bad 25       		.uleb128 0x25
 2195 0bae 01       		.uleb128 0x1
 2196 0baf 51       		.byte	0x51
 2197 0bb0 03       		.uleb128 0x3
 2198 0bb1 F3       		.byte	0xf3
 2199 0bb2 01       		.uleb128 0x1
 2200 0bb3 51       		.byte	0x51
 2201 0bb4 25       		.uleb128 0x25
 2202 0bb5 01       		.uleb128 0x1
 2203 0bb6 50       		.byte	0x50
 2204 0bb7 03       		.uleb128 0x3
 2205 0bb8 F3       		.byte	0xf3
ARM GAS  C:\Users\jo\AppData\Local\Temp\ccEwiVcU.s 			page 40


 2206 0bb9 01       		.uleb128 0x1
 2207 0bba 50       		.byte	0x50
 2208 0bbb 00       		.byte	0
 2209 0bbc 26       		.uleb128 0x26
 2210 0bbd 1E000000 		.4byte	.LVL11
 2211 0bc1 E00E0000 		.4byte	0xee0
 2212 0bc5 D30B0000 		.4byte	0xbd3
 2213 0bc9 25       		.uleb128 0x25
 2214 0bca 01       		.uleb128 0x1
 2215 0bcb 50       		.byte	0x50
 2216 0bcc 05       		.uleb128 0x5
 2217 0bcd 03       		.byte	0x3
 2218 0bce 00000000 		.4byte	.LANCHOR1
 2219 0bd2 00       		.byte	0
 2220 0bd3 27       		.uleb128 0x27
 2221 0bd4 2C000000 		.4byte	.LVL13
 2222 0bd8 F20E0000 		.4byte	0xef2
 2223 0bdc 25       		.uleb128 0x25
 2224 0bdd 01       		.uleb128 0x1
 2225 0bde 51       		.byte	0x51
 2226 0bdf 03       		.uleb128 0x3
 2227 0be0 7D       		.byte	0x7d
 2228 0be1 74       		.sleb128 -12
 2229 0be2 06       		.byte	0x6
 2230 0be3 25       		.uleb128 0x25
 2231 0be4 01       		.uleb128 0x1
 2232 0be5 50       		.byte	0x50
 2233 0be6 03       		.uleb128 0x3
 2234 0be7 F3       		.byte	0xf3
 2235 0be8 01       		.uleb128 0x1
 2236 0be9 50       		.byte	0x50
 2237 0bea 00       		.byte	0
 2238 0beb 00       		.byte	0
 2239 0bec 0A       		.uleb128 0xa
 2240 0bed 04       		.byte	0x4
 2241 0bee 2C0A0000 		.4byte	0xa2c
 2242 0bf2 1B       		.uleb128 0x1b
 2243 0bf3 490B0000 		.4byte	0xb49
 2244 0bf7 1F       		.uleb128 0x1f
 2245 0bf8 59020000 		.4byte	.LASF177
 2246 0bfc 01       		.byte	0x1
 2247 0bfd 94       		.byte	0x94
 2248 0bfe 00000000 		.4byte	.LFB263
 2249 0c02 28000000 		.4byte	.LFE263-.LFB263
 2250 0c06 01       		.uleb128 0x1
 2251 0c07 9C       		.byte	0x9c
 2252 0c08 7F0C0000 		.4byte	0xc7f
 2253 0c0c 22       		.uleb128 0x22
 2254 0c0d A0020000 		.4byte	.LASF173
 2255 0c11 01       		.byte	0x1
 2256 0c12 94       		.byte	0x94
 2257 0c13 AA0A0000 		.4byte	0xaaa
 2258 0c17 28010000 		.4byte	.LLST4
 2259 0c1b 22       		.uleb128 0x22
 2260 0c1c 38060000 		.4byte	.LASF178
 2261 0c20 01       		.byte	0x1
 2262 0c21 95       		.byte	0x95
ARM GAS  C:\Users\jo\AppData\Local\Temp\ccEwiVcU.s 			page 41


 2263 0c22 370A0000 		.4byte	0xa37
 2264 0c26 5F010000 		.4byte	.LLST5
 2265 0c2a 22       		.uleb128 0x22
 2266 0c2b 65020000 		.4byte	.LASF179
 2267 0c2f 01       		.byte	0x1
 2268 0c30 96       		.byte	0x96
 2269 0c31 7F0C0000 		.4byte	0xc7f
 2270 0c35 96010000 		.4byte	.LLST6
 2271 0c39 23       		.uleb128 0x23
 2272 0c3a AC060000 		.4byte	.LASF176
 2273 0c3e 9A0C0000 		.4byte	0xc9a
 2274 0c42 05       		.uleb128 0x5
 2275 0c43 03       		.byte	0x3
 2276 0c44 00000000 		.4byte	__func__.7523
 2277 0c48 26       		.uleb128 0x26
 2278 0c49 14000000 		.4byte	.LVL16
 2279 0c4d E00E0000 		.4byte	0xee0
 2280 0c51 5F0C0000 		.4byte	0xc5f
 2281 0c55 25       		.uleb128 0x25
 2282 0c56 01       		.uleb128 0x1
 2283 0c57 50       		.byte	0x50
 2284 0c58 05       		.uleb128 0x5
 2285 0c59 03       		.byte	0x3
 2286 0c5a 00000000 		.4byte	.LANCHOR2
 2287 0c5e 00       		.byte	0
 2288 0c5f 27       		.uleb128 0x27
 2289 0c60 22000000 		.4byte	.LVL18
 2290 0c64 080F0000 		.4byte	0xf08
 2291 0c68 25       		.uleb128 0x25
 2292 0c69 01       		.uleb128 0x1
 2293 0c6a 52       		.byte	0x52
 2294 0c6b 03       		.uleb128 0x3
 2295 0c6c F3       		.byte	0xf3
 2296 0c6d 01       		.uleb128 0x1
 2297 0c6e 52       		.byte	0x52
 2298 0c6f 25       		.uleb128 0x25
 2299 0c70 01       		.uleb128 0x1
 2300 0c71 51       		.byte	0x51
 2301 0c72 03       		.uleb128 0x3
 2302 0c73 F3       		.byte	0xf3
 2303 0c74 01       		.uleb128 0x1
 2304 0c75 51       		.byte	0x51
 2305 0c76 25       		.uleb128 0x25
 2306 0c77 01       		.uleb128 0x1
 2307 0c78 50       		.byte	0x50
 2308 0c79 03       		.uleb128 0x3
 2309 0c7a F3       		.byte	0xf3
 2310 0c7b 01       		.uleb128 0x1
 2311 0c7c 50       		.byte	0x50
 2312 0c7d 00       		.byte	0
 2313 0c7e 00       		.byte	0
 2314 0c7f 0A       		.uleb128 0xa
 2315 0c80 04       		.byte	0x4
 2316 0c81 850C0000 		.4byte	0xc85
 2317 0c85 1B       		.uleb128 0x1b
 2318 0c86 570A0000 		.4byte	0xa57
 2319 0c8a 12       		.uleb128 0x12
ARM GAS  C:\Users\jo\AppData\Local\Temp\ccEwiVcU.s 			page 42


 2320 0c8b ED080000 		.4byte	0x8ed
 2321 0c8f 9A0C0000 		.4byte	0xc9a
 2322 0c93 13       		.uleb128 0x13
 2323 0c94 88040000 		.4byte	0x488
 2324 0c98 0B       		.byte	0xb
 2325 0c99 00       		.byte	0
 2326 0c9a 1B       		.uleb128 0x1b
 2327 0c9b 8A0C0000 		.4byte	0xc8a
 2328 0c9f 1F       		.uleb128 0x1f
 2329 0ca0 BE010000 		.4byte	.LASF180
 2330 0ca4 01       		.byte	0x1
 2331 0ca5 AE       		.byte	0xae
 2332 0ca6 00000000 		.4byte	.LFB264
 2333 0caa 38000000 		.4byte	.LFE264-.LFB264
 2334 0cae 01       		.uleb128 0x1
 2335 0caf 9C       		.byte	0x9c
 2336 0cb0 4A0D0000 		.4byte	0xd4a
 2337 0cb4 22       		.uleb128 0x22
 2338 0cb5 A0020000 		.4byte	.LASF173
 2339 0cb9 01       		.byte	0x1
 2340 0cba AE       		.byte	0xae
 2341 0cbb AA0A0000 		.4byte	0xaaa
 2342 0cbf CD010000 		.4byte	.LLST7
 2343 0cc3 22       		.uleb128 0x22
 2344 0cc4 38060000 		.4byte	.LASF178
 2345 0cc8 01       		.byte	0x1
 2346 0cc9 AF       		.byte	0xaf
 2347 0cca 370A0000 		.4byte	0xa37
 2348 0cce 33020000 		.4byte	.LLST8
 2349 0cd2 22       		.uleb128 0x22
 2350 0cd3 65020000 		.4byte	.LASF179
 2351 0cd7 01       		.byte	0x1
 2352 0cd8 B0       		.byte	0xb0
 2353 0cd9 4A0D0000 		.4byte	0xd4a
 2354 0cdd 99020000 		.4byte	.LLST9
 2355 0ce1 23       		.uleb128 0x23
 2356 0ce2 AC060000 		.4byte	.LASF176
 2357 0ce6 500D0000 		.4byte	0xd50
 2358 0cea 05       		.uleb128 0x5
 2359 0ceb 03       		.byte	0x3
 2360 0cec 00000000 		.4byte	__func__.7529
 2361 0cf0 26       		.uleb128 0x26
 2362 0cf1 14000000 		.4byte	.LVL21
 2363 0cf5 E00E0000 		.4byte	0xee0
 2364 0cf9 070D0000 		.4byte	0xd07
 2365 0cfd 25       		.uleb128 0x25
 2366 0cfe 01       		.uleb128 0x1
 2367 0cff 50       		.byte	0x50
 2368 0d00 05       		.uleb128 0x5
 2369 0d01 03       		.byte	0x3
 2370 0d02 00000000 		.4byte	.LANCHOR3
 2371 0d06 00       		.byte	0
 2372 0d07 24       		.uleb128 0x24
 2373 0d08 22000000 		.4byte	.LVL23
 2374 0d0c 230F0000 		.4byte	0xf23
 2375 0d10 2A0D0000 		.4byte	0xd2a
 2376 0d14 25       		.uleb128 0x25
ARM GAS  C:\Users\jo\AppData\Local\Temp\ccEwiVcU.s 			page 43


 2377 0d15 01       		.uleb128 0x1
 2378 0d16 52       		.byte	0x52
 2379 0d17 03       		.uleb128 0x3
 2380 0d18 F3       		.byte	0xf3
 2381 0d19 01       		.uleb128 0x1
 2382 0d1a 52       		.byte	0x52
 2383 0d1b 25       		.uleb128 0x25
 2384 0d1c 01       		.uleb128 0x1
 2385 0d1d 51       		.byte	0x51
 2386 0d1e 03       		.uleb128 0x3
 2387 0d1f F3       		.byte	0xf3
 2388 0d20 01       		.uleb128 0x1
 2389 0d21 51       		.byte	0x51
 2390 0d22 25       		.uleb128 0x25
 2391 0d23 01       		.uleb128 0x1
 2392 0d24 50       		.byte	0x50
 2393 0d25 03       		.uleb128 0x3
 2394 0d26 F3       		.byte	0xf3
 2395 0d27 01       		.uleb128 0x1
 2396 0d28 50       		.byte	0x50
 2397 0d29 00       		.byte	0
 2398 0d2a 27       		.uleb128 0x27
 2399 0d2b 34000000 		.4byte	.LVL28
 2400 0d2f 230F0000 		.4byte	0xf23
 2401 0d33 25       		.uleb128 0x25
 2402 0d34 01       		.uleb128 0x1
 2403 0d35 52       		.byte	0x52
 2404 0d36 03       		.uleb128 0x3
 2405 0d37 F3       		.byte	0xf3
 2406 0d38 01       		.uleb128 0x1
 2407 0d39 52       		.byte	0x52
 2408 0d3a 25       		.uleb128 0x25
 2409 0d3b 01       		.uleb128 0x1
 2410 0d3c 51       		.byte	0x51
 2411 0d3d 03       		.uleb128 0x3
 2412 0d3e F3       		.byte	0xf3
 2413 0d3f 01       		.uleb128 0x1
 2414 0d40 51       		.byte	0x51
 2415 0d41 25       		.uleb128 0x25
 2416 0d42 01       		.uleb128 0x1
 2417 0d43 50       		.byte	0x50
 2418 0d44 03       		.uleb128 0x3
 2419 0d45 F3       		.byte	0xf3
 2420 0d46 01       		.uleb128 0x1
 2421 0d47 50       		.byte	0x50
 2422 0d48 00       		.byte	0
 2423 0d49 00       		.byte	0
 2424 0d4a 0A       		.uleb128 0xa
 2425 0d4b 04       		.byte	0x4
 2426 0d4c 570A0000 		.4byte	0xa57
 2427 0d50 1B       		.uleb128 0x1b
 2428 0d51 8A0C0000 		.4byte	0xc8a
 2429 0d55 1F       		.uleb128 0x1f
 2430 0d56 FD000000 		.4byte	.LASF181
 2431 0d5a 01       		.byte	0x1
 2432 0d5b DC       		.byte	0xdc
 2433 0d5c 00000000 		.4byte	.LFB265
ARM GAS  C:\Users\jo\AppData\Local\Temp\ccEwiVcU.s 			page 44


 2434 0d60 C0000000 		.4byte	.LFE265-.LFB265
 2435 0d64 01       		.uleb128 0x1
 2436 0d65 9C       		.byte	0x9c
 2437 0d66 A50D0000 		.4byte	0xda5
 2438 0d6a 22       		.uleb128 0x22
 2439 0d6b 21030000 		.4byte	.LASF174
 2440 0d6f 01       		.byte	0x1
 2441 0d70 DC       		.byte	0xdc
 2442 0d71 3E0B0000 		.4byte	0xb3e
 2443 0d75 FF020000 		.4byte	.LLST10
 2444 0d79 22       		.uleb128 0x22
 2445 0d7a 38080000 		.4byte	.LASF182
 2446 0d7e 01       		.byte	0x1
 2447 0d7f DD       		.byte	0xdd
 2448 0d80 A50D0000 		.4byte	0xda5
 2449 0d84 20030000 		.4byte	.LLST11
 2450 0d88 21       		.uleb128 0x21
 2451 0d89 00060000 		.4byte	.LASF183
 2452 0d8d 01       		.byte	0x1
 2453 0d8e DE       		.byte	0xde
 2454 0d8f AB0D0000 		.4byte	0xdab
 2455 0d93 01       		.uleb128 0x1
 2456 0d94 52       		.byte	0x52
 2457 0d95 28       		.uleb128 0x28
 2458 0d96 746D7000 		.ascii	"tmp\000"
 2459 0d9a 01       		.byte	0x1
 2460 0d9b DF       		.byte	0xdf
 2461 0d9c 33000000 		.4byte	0x33
 2462 0da0 41030000 		.4byte	.LLST12
 2463 0da4 00       		.byte	0
 2464 0da5 0A       		.uleb128 0xa
 2465 0da6 04       		.byte	0x4
 2466 0da7 2D090000 		.4byte	0x92d
 2467 0dab 0A       		.uleb128 0xa
 2468 0dac 04       		.byte	0x4
 2469 0dad B8000000 		.4byte	0xb8
 2470 0db1 1F       		.uleb128 0x1f
 2471 0db2 B3020000 		.4byte	.LASF184
 2472 0db6 01       		.byte	0x1
 2473 0db7 FB       		.byte	0xfb
 2474 0db8 00000000 		.4byte	.LFB266
 2475 0dbc 62000000 		.4byte	.LFE266-.LFB266
 2476 0dc0 01       		.uleb128 0x1
 2477 0dc1 9C       		.byte	0x9c
 2478 0dc2 F20D0000 		.4byte	0xdf2
 2479 0dc6 22       		.uleb128 0x22
 2480 0dc7 38080000 		.4byte	.LASF182
 2481 0dcb 01       		.byte	0x1
 2482 0dcc FB       		.byte	0xfb
 2483 0dcd F20D0000 		.4byte	0xdf2
 2484 0dd1 3D040000 		.4byte	.LLST13
 2485 0dd5 22       		.uleb128 0x22
 2486 0dd6 00060000 		.4byte	.LASF183
 2487 0dda 01       		.byte	0x1
 2488 0ddb FC       		.byte	0xfc
 2489 0ddc B8000000 		.4byte	0xb8
 2490 0de0 5E040000 		.4byte	.LLST14
ARM GAS  C:\Users\jo\AppData\Local\Temp\ccEwiVcU.s 			page 45


 2491 0de4 21       		.uleb128 0x21
 2492 0de5 21030000 		.4byte	.LASF174
 2493 0de9 01       		.byte	0x1
 2494 0dea FD       		.byte	0xfd
 2495 0deb EC0B0000 		.4byte	0xbec
 2496 0def 01       		.uleb128 0x1
 2497 0df0 52       		.byte	0x52
 2498 0df1 00       		.byte	0
 2499 0df2 0A       		.uleb128 0xa
 2500 0df3 04       		.byte	0x4
 2501 0df4 F80D0000 		.4byte	0xdf8
 2502 0df8 1B       		.uleb128 0x1b
 2503 0df9 2D090000 		.4byte	0x92d
 2504 0dfd 29       		.uleb128 0x29
 2505 0dfe 51010000 		.4byte	.LASF196
 2506 0e02 01       		.byte	0x1
 2507 0e03 1C01     		.2byte	0x11c
 2508 0e05 B8000000 		.4byte	0xb8
 2509 0e09 00000000 		.4byte	.LFB267
 2510 0e0d A0000000 		.4byte	.LFE267-.LFB267
 2511 0e11 01       		.uleb128 0x1
 2512 0e12 9C       		.byte	0x9c
 2513 0e13 960E0000 		.4byte	0xe96
 2514 0e17 2A       		.uleb128 0x2a
 2515 0e18 21030000 		.4byte	.LASF174
 2516 0e1c 01       		.byte	0x1
 2517 0e1d 1C01     		.2byte	0x11c
 2518 0e1f 3E0B0000 		.4byte	0xb3e
 2519 0e23 7F040000 		.4byte	.LLST15
 2520 0e27 2B       		.uleb128 0x2b
 2521 0e28 1C000000 		.4byte	.LASF185
 2522 0e2c 01       		.byte	0x1
 2523 0e2d 1D01     		.2byte	0x11d
 2524 0e2f B8000000 		.4byte	0xb8
 2525 0e33 AB040000 		.4byte	.LLST16
 2526 0e37 2C       		.uleb128 0x2c
 2527 0e38 73656300 		.ascii	"sec\000"
 2528 0e3c 01       		.byte	0x1
 2529 0e3d 1E01     		.2byte	0x11e
 2530 0e3f B8000000 		.4byte	0xb8
 2531 0e43 01       		.uleb128 0x1
 2532 0e44 51       		.byte	0x51
 2533 0e45 2D       		.uleb128 0x2d
 2534 0e46 6D696E00 		.ascii	"min\000"
 2535 0e4a 01       		.byte	0x1
 2536 0e4b 1E01     		.2byte	0x11e
 2537 0e4d B8000000 		.4byte	0xb8
 2538 0e51 EF040000 		.4byte	.LLST17
 2539 0e55 2B       		.uleb128 0x2b
 2540 0e56 B9050000 		.4byte	.LASF186
 2541 0e5a 01       		.byte	0x1
 2542 0e5b 1E01     		.2byte	0x11e
 2543 0e5d B8000000 		.4byte	0xb8
 2544 0e61 7E050000 		.4byte	.LLST18
 2545 0e65 2D       		.uleb128 0x2d
 2546 0e66 64617900 		.ascii	"day\000"
 2547 0e6a 01       		.byte	0x1
ARM GAS  C:\Users\jo\AppData\Local\Temp\ccEwiVcU.s 			page 46


 2548 0e6b 1E01     		.2byte	0x11e
 2549 0e6d B8000000 		.4byte	0xb8
 2550 0e71 9D050000 		.4byte	.LLST19
 2551 0e75 2B       		.uleb128 0x2b
 2552 0e76 F6020000 		.4byte	.LASF162
 2553 0e7a 01       		.byte	0x1
 2554 0e7b 1E01     		.2byte	0x11e
 2555 0e7d B8000000 		.4byte	0xb8
 2556 0e81 C7050000 		.4byte	.LLST20
 2557 0e85 2D       		.uleb128 0x2d
 2558 0e86 746D7000 		.ascii	"tmp\000"
 2559 0e8a 01       		.byte	0x1
 2560 0e8b 1E01     		.2byte	0x11e
 2561 0e8d B8000000 		.4byte	0xb8
 2562 0e91 E5050000 		.4byte	.LLST21
 2563 0e95 00       		.byte	0
 2564 0e96 2E       		.uleb128 0x2e
 2565 0e97 CF040000 		.4byte	.LASF187
 2566 0e9b 01       		.byte	0x1
 2567 0e9c 30       		.byte	0x30
 2568 0e9d A70E0000 		.4byte	0xea7
 2569 0ea1 05       		.uleb128 0x5
 2570 0ea2 03       		.byte	0x3
 2571 0ea3 00000000 		.4byte	month_len
 2572 0ea7 1B       		.uleb128 0x1b
 2573 0ea8 8F040000 		.4byte	0x48f
 2574 0eac 2F       		.uleb128 0x2f
 2575 0ead 30010000 		.4byte	.LASF188
 2576 0eb1 13       		.byte	0x13
 2577 0eb2 A706     		.2byte	0x6a7
 2578 0eb4 CE000000 		.4byte	0xce
 2579 0eb8 30       		.uleb128 0x30
 2580 0eb9 636800   		.ascii	"ch\000"
 2581 0ebc 07       		.byte	0x7
 2582 0ebd 0902     		.2byte	0x209
 2583 0ebf 1E040000 		.4byte	0x41e
 2584 0ec3 31       		.uleb128 0x31
 2585 0ec4 FC010000 		.4byte	.LASF197
 2586 0ec8 11       		.byte	0x11
 2587 0ec9 D6       		.byte	0xd6
 2588 0eca 32       		.uleb128 0x32
 2589 0ecb 35030000 		.4byte	.LASF189
 2590 0ecf 11       		.byte	0x11
 2591 0ed0 D7       		.byte	0xd7
 2592 0ed1 E00E0000 		.4byte	0xee0
 2593 0ed5 0D       		.uleb128 0xd
 2594 0ed6 AA0A0000 		.4byte	0xaaa
 2595 0eda 0D       		.uleb128 0xd
 2596 0edb 3E0B0000 		.4byte	0xb3e
 2597 0edf 00       		.byte	0
 2598 0ee0 33       		.uleb128 0x33
 2599 0ee1 9B000000 		.4byte	.LASF190
 2600 0ee5 12       		.byte	0x12
 2601 0ee6 1601     		.2byte	0x116
 2602 0ee8 F20E0000 		.4byte	0xef2
 2603 0eec 0D       		.uleb128 0xd
 2604 0eed E2080000 		.4byte	0x8e2
ARM GAS  C:\Users\jo\AppData\Local\Temp\ccEwiVcU.s 			page 47


 2605 0ef1 00       		.byte	0
 2606 0ef2 32       		.uleb128 0x32
 2607 0ef3 90030000 		.4byte	.LASF191
 2608 0ef7 11       		.byte	0x11
 2609 0ef8 D8       		.byte	0xd8
 2610 0ef9 080F0000 		.4byte	0xf08
 2611 0efd 0D       		.uleb128 0xd
 2612 0efe AA0A0000 		.4byte	0xaaa
 2613 0f02 0D       		.uleb128 0xd
 2614 0f03 EC0B0000 		.4byte	0xbec
 2615 0f07 00       		.byte	0
 2616 0f08 32       		.uleb128 0x32
 2617 0f09 4C030000 		.4byte	.LASF192
 2618 0f0d 11       		.byte	0x11
 2619 0f0e DA       		.byte	0xda
 2620 0f0f 230F0000 		.4byte	0xf23
 2621 0f13 0D       		.uleb128 0xd
 2622 0f14 AA0A0000 		.4byte	0xaaa
 2623 0f18 0D       		.uleb128 0xd
 2624 0f19 370A0000 		.4byte	0xa37
 2625 0f1d 0D       		.uleb128 0xd
 2626 0f1e 7F0C0000 		.4byte	0xc7f
 2627 0f22 00       		.byte	0
 2628 0f23 34       		.uleb128 0x34
 2629 0f24 D0050000 		.4byte	.LASF198
 2630 0f28 11       		.byte	0x11
 2631 0f29 DD       		.byte	0xdd
 2632 0f2a 0D       		.uleb128 0xd
 2633 0f2b AA0A0000 		.4byte	0xaaa
 2634 0f2f 0D       		.uleb128 0xd
 2635 0f30 370A0000 		.4byte	0xa37
 2636 0f34 0D       		.uleb128 0xd
 2637 0f35 4A0D0000 		.4byte	0xd4a
 2638 0f39 00       		.byte	0
 2639 0f3a 00       		.byte	0
 2640              		.section	.debug_abbrev,"",%progbits
 2641              	.Ldebug_abbrev0:
 2642 0000 01       		.uleb128 0x1
 2643 0001 11       		.uleb128 0x11
 2644 0002 01       		.byte	0x1
 2645 0003 25       		.uleb128 0x25
 2646 0004 0E       		.uleb128 0xe
 2647 0005 13       		.uleb128 0x13
 2648 0006 0B       		.uleb128 0xb
 2649 0007 03       		.uleb128 0x3
 2650 0008 0E       		.uleb128 0xe
 2651 0009 1B       		.uleb128 0x1b
 2652 000a 0E       		.uleb128 0xe
 2653 000b 55       		.uleb128 0x55
 2654 000c 17       		.uleb128 0x17
 2655 000d 11       		.uleb128 0x11
 2656 000e 01       		.uleb128 0x1
 2657 000f 10       		.uleb128 0x10
 2658 0010 17       		.uleb128 0x17
 2659 0011 00       		.byte	0
 2660 0012 00       		.byte	0
 2661 0013 02       		.uleb128 0x2
ARM GAS  C:\Users\jo\AppData\Local\Temp\ccEwiVcU.s 			page 48


 2662 0014 24       		.uleb128 0x24
 2663 0015 00       		.byte	0
 2664 0016 0B       		.uleb128 0xb
 2665 0017 0B       		.uleb128 0xb
 2666 0018 3E       		.uleb128 0x3e
 2667 0019 0B       		.uleb128 0xb
 2668 001a 03       		.uleb128 0x3
 2669 001b 0E       		.uleb128 0xe
 2670 001c 00       		.byte	0
 2671 001d 00       		.byte	0
 2672 001e 03       		.uleb128 0x3
 2673 001f 24       		.uleb128 0x24
 2674 0020 00       		.byte	0
 2675 0021 0B       		.uleb128 0xb
 2676 0022 0B       		.uleb128 0xb
 2677 0023 3E       		.uleb128 0x3e
 2678 0024 0B       		.uleb128 0xb
 2679 0025 03       		.uleb128 0x3
 2680 0026 08       		.uleb128 0x8
 2681 0027 00       		.byte	0
 2682 0028 00       		.byte	0
 2683 0029 04       		.uleb128 0x4
 2684 002a 16       		.uleb128 0x16
 2685 002b 00       		.byte	0
 2686 002c 03       		.uleb128 0x3
 2687 002d 0E       		.uleb128 0xe
 2688 002e 3A       		.uleb128 0x3a
 2689 002f 0B       		.uleb128 0xb
 2690 0030 3B       		.uleb128 0x3b
 2691 0031 0B       		.uleb128 0xb
 2692 0032 49       		.uleb128 0x49
 2693 0033 13       		.uleb128 0x13
 2694 0034 00       		.byte	0
 2695 0035 00       		.byte	0
 2696 0036 05       		.uleb128 0x5
 2697 0037 35       		.uleb128 0x35
 2698 0038 00       		.byte	0
 2699 0039 49       		.uleb128 0x49
 2700 003a 13       		.uleb128 0x13
 2701 003b 00       		.byte	0
 2702 003c 00       		.byte	0
 2703 003d 06       		.uleb128 0x6
 2704 003e 13       		.uleb128 0x13
 2705 003f 01       		.byte	0x1
 2706 0040 03       		.uleb128 0x3
 2707 0041 0E       		.uleb128 0xe
 2708 0042 0B       		.uleb128 0xb
 2709 0043 0B       		.uleb128 0xb
 2710 0044 3A       		.uleb128 0x3a
 2711 0045 0B       		.uleb128 0xb
 2712 0046 3B       		.uleb128 0x3b
 2713 0047 0B       		.uleb128 0xb
 2714 0048 01       		.uleb128 0x1
 2715 0049 13       		.uleb128 0x13
 2716 004a 00       		.byte	0
 2717 004b 00       		.byte	0
 2718 004c 07       		.uleb128 0x7
ARM GAS  C:\Users\jo\AppData\Local\Temp\ccEwiVcU.s 			page 49


 2719 004d 0D       		.uleb128 0xd
 2720 004e 00       		.byte	0
 2721 004f 03       		.uleb128 0x3
 2722 0050 0E       		.uleb128 0xe
 2723 0051 3A       		.uleb128 0x3a
 2724 0052 0B       		.uleb128 0xb
 2725 0053 3B       		.uleb128 0x3b
 2726 0054 0B       		.uleb128 0xb
 2727 0055 49       		.uleb128 0x49
 2728 0056 13       		.uleb128 0x13
 2729 0057 38       		.uleb128 0x38
 2730 0058 0B       		.uleb128 0xb
 2731 0059 00       		.byte	0
 2732 005a 00       		.byte	0
 2733 005b 08       		.uleb128 0x8
 2734 005c 0D       		.uleb128 0xd
 2735 005d 00       		.byte	0
 2736 005e 03       		.uleb128 0x3
 2737 005f 08       		.uleb128 0x8
 2738 0060 3A       		.uleb128 0x3a
 2739 0061 0B       		.uleb128 0xb
 2740 0062 3B       		.uleb128 0x3b
 2741 0063 05       		.uleb128 0x5
 2742 0064 49       		.uleb128 0x49
 2743 0065 13       		.uleb128 0x13
 2744 0066 38       		.uleb128 0x38
 2745 0067 0B       		.uleb128 0xb
 2746 0068 00       		.byte	0
 2747 0069 00       		.byte	0
 2748 006a 09       		.uleb128 0x9
 2749 006b 0D       		.uleb128 0xd
 2750 006c 00       		.byte	0
 2751 006d 03       		.uleb128 0x3
 2752 006e 0E       		.uleb128 0xe
 2753 006f 3A       		.uleb128 0x3a
 2754 0070 0B       		.uleb128 0xb
 2755 0071 3B       		.uleb128 0x3b
 2756 0072 05       		.uleb128 0x5
 2757 0073 49       		.uleb128 0x49
 2758 0074 13       		.uleb128 0x13
 2759 0075 38       		.uleb128 0x38
 2760 0076 0B       		.uleb128 0xb
 2761 0077 00       		.byte	0
 2762 0078 00       		.byte	0
 2763 0079 0A       		.uleb128 0xa
 2764 007a 0F       		.uleb128 0xf
 2765 007b 00       		.byte	0
 2766 007c 0B       		.uleb128 0xb
 2767 007d 0B       		.uleb128 0xb
 2768 007e 49       		.uleb128 0x49
 2769 007f 13       		.uleb128 0x13
 2770 0080 00       		.byte	0
 2771 0081 00       		.byte	0
 2772 0082 0B       		.uleb128 0xb
 2773 0083 13       		.uleb128 0x13
 2774 0084 01       		.byte	0x1
 2775 0085 03       		.uleb128 0x3
ARM GAS  C:\Users\jo\AppData\Local\Temp\ccEwiVcU.s 			page 50


 2776 0086 0E       		.uleb128 0xe
 2777 0087 0B       		.uleb128 0xb
 2778 0088 0B       		.uleb128 0xb
 2779 0089 3A       		.uleb128 0x3a
 2780 008a 0B       		.uleb128 0xb
 2781 008b 3B       		.uleb128 0x3b
 2782 008c 05       		.uleb128 0x5
 2783 008d 01       		.uleb128 0x1
 2784 008e 13       		.uleb128 0x13
 2785 008f 00       		.byte	0
 2786 0090 00       		.byte	0
 2787 0091 0C       		.uleb128 0xc
 2788 0092 15       		.uleb128 0x15
 2789 0093 01       		.byte	0x1
 2790 0094 27       		.uleb128 0x27
 2791 0095 19       		.uleb128 0x19
 2792 0096 01       		.uleb128 0x1
 2793 0097 13       		.uleb128 0x13
 2794 0098 00       		.byte	0
 2795 0099 00       		.byte	0
 2796 009a 0D       		.uleb128 0xd
 2797 009b 05       		.uleb128 0x5
 2798 009c 00       		.byte	0
 2799 009d 49       		.uleb128 0x49
 2800 009e 13       		.uleb128 0x13
 2801 009f 00       		.byte	0
 2802 00a0 00       		.byte	0
 2803 00a1 0E       		.uleb128 0xe
 2804 00a2 0F       		.uleb128 0xf
 2805 00a3 00       		.byte	0
 2806 00a4 0B       		.uleb128 0xb
 2807 00a5 0B       		.uleb128 0xb
 2808 00a6 00       		.byte	0
 2809 00a7 00       		.byte	0
 2810 00a8 0F       		.uleb128 0xf
 2811 00a9 13       		.uleb128 0x13
 2812 00aa 01       		.byte	0x1
 2813 00ab 03       		.uleb128 0x3
 2814 00ac 0E       		.uleb128 0xe
 2815 00ad 0B       		.uleb128 0xb
 2816 00ae 05       		.uleb128 0x5
 2817 00af 3A       		.uleb128 0x3a
 2818 00b0 0B       		.uleb128 0xb
 2819 00b1 3B       		.uleb128 0x3b
 2820 00b2 05       		.uleb128 0x5
 2821 00b3 01       		.uleb128 0x1
 2822 00b4 13       		.uleb128 0x13
 2823 00b5 00       		.byte	0
 2824 00b6 00       		.byte	0
 2825 00b7 10       		.uleb128 0x10
 2826 00b8 0D       		.uleb128 0xd
 2827 00b9 00       		.byte	0
 2828 00ba 03       		.uleb128 0x3
 2829 00bb 0E       		.uleb128 0xe
 2830 00bc 3A       		.uleb128 0x3a
 2831 00bd 0B       		.uleb128 0xb
 2832 00be 3B       		.uleb128 0x3b
ARM GAS  C:\Users\jo\AppData\Local\Temp\ccEwiVcU.s 			page 51


 2833 00bf 05       		.uleb128 0x5
 2834 00c0 49       		.uleb128 0x49
 2835 00c1 13       		.uleb128 0x13
 2836 00c2 38       		.uleb128 0x38
 2837 00c3 05       		.uleb128 0x5
 2838 00c4 00       		.byte	0
 2839 00c5 00       		.byte	0
 2840 00c6 11       		.uleb128 0x11
 2841 00c7 0D       		.uleb128 0xd
 2842 00c8 00       		.byte	0
 2843 00c9 03       		.uleb128 0x3
 2844 00ca 08       		.uleb128 0x8
 2845 00cb 3A       		.uleb128 0x3a
 2846 00cc 0B       		.uleb128 0xb
 2847 00cd 3B       		.uleb128 0x3b
 2848 00ce 05       		.uleb128 0x5
 2849 00cf 49       		.uleb128 0x49
 2850 00d0 13       		.uleb128 0x13
 2851 00d1 38       		.uleb128 0x38
 2852 00d2 05       		.uleb128 0x5
 2853 00d3 00       		.byte	0
 2854 00d4 00       		.byte	0
 2855 00d5 12       		.uleb128 0x12
 2856 00d6 01       		.uleb128 0x1
 2857 00d7 01       		.byte	0x1
 2858 00d8 49       		.uleb128 0x49
 2859 00d9 13       		.uleb128 0x13
 2860 00da 01       		.uleb128 0x1
 2861 00db 13       		.uleb128 0x13
 2862 00dc 00       		.byte	0
 2863 00dd 00       		.byte	0
 2864 00de 13       		.uleb128 0x13
 2865 00df 21       		.uleb128 0x21
 2866 00e0 00       		.byte	0
 2867 00e1 49       		.uleb128 0x49
 2868 00e2 13       		.uleb128 0x13
 2869 00e3 2F       		.uleb128 0x2f
 2870 00e4 0B       		.uleb128 0xb
 2871 00e5 00       		.byte	0
 2872 00e6 00       		.byte	0
 2873 00e7 14       		.uleb128 0x14
 2874 00e8 13       		.uleb128 0x13
 2875 00e9 01       		.byte	0x1
 2876 00ea 0B       		.uleb128 0xb
 2877 00eb 0B       		.uleb128 0xb
 2878 00ec 3A       		.uleb128 0x3a
 2879 00ed 0B       		.uleb128 0xb
 2880 00ee 3B       		.uleb128 0x3b
 2881 00ef 05       		.uleb128 0x5
 2882 00f0 01       		.uleb128 0x1
 2883 00f1 13       		.uleb128 0x13
 2884 00f2 00       		.byte	0
 2885 00f3 00       		.byte	0
 2886 00f4 15       		.uleb128 0x15
 2887 00f5 16       		.uleb128 0x16
 2888 00f6 00       		.byte	0
 2889 00f7 03       		.uleb128 0x3
ARM GAS  C:\Users\jo\AppData\Local\Temp\ccEwiVcU.s 			page 52


 2890 00f8 0E       		.uleb128 0xe
 2891 00f9 3A       		.uleb128 0x3a
 2892 00fa 0B       		.uleb128 0xb
 2893 00fb 3B       		.uleb128 0x3b
 2894 00fc 05       		.uleb128 0x5
 2895 00fd 49       		.uleb128 0x49
 2896 00fe 13       		.uleb128 0x13
 2897 00ff 00       		.byte	0
 2898 0100 00       		.byte	0
 2899 0101 16       		.uleb128 0x16
 2900 0102 0D       		.uleb128 0xd
 2901 0103 00       		.byte	0
 2902 0104 03       		.uleb128 0x3
 2903 0105 08       		.uleb128 0x8
 2904 0106 3A       		.uleb128 0x3a
 2905 0107 0B       		.uleb128 0xb
 2906 0108 3B       		.uleb128 0x3b
 2907 0109 0B       		.uleb128 0xb
 2908 010a 49       		.uleb128 0x49
 2909 010b 13       		.uleb128 0x13
 2910 010c 38       		.uleb128 0x38
 2911 010d 0B       		.uleb128 0xb
 2912 010e 00       		.byte	0
 2913 010f 00       		.byte	0
 2914 0110 17       		.uleb128 0x17
 2915 0111 13       		.uleb128 0x13
 2916 0112 01       		.byte	0x1
 2917 0113 0B       		.uleb128 0xb
 2918 0114 0B       		.uleb128 0xb
 2919 0115 3A       		.uleb128 0x3a
 2920 0116 0B       		.uleb128 0xb
 2921 0117 3B       		.uleb128 0x3b
 2922 0118 0B       		.uleb128 0xb
 2923 0119 01       		.uleb128 0x1
 2924 011a 13       		.uleb128 0x13
 2925 011b 00       		.byte	0
 2926 011c 00       		.byte	0
 2927 011d 18       		.uleb128 0x18
 2928 011e 13       		.uleb128 0x13
 2929 011f 01       		.byte	0x1
 2930 0120 0B       		.uleb128 0xb
 2931 0121 05       		.uleb128 0x5
 2932 0122 3A       		.uleb128 0x3a
 2933 0123 0B       		.uleb128 0xb
 2934 0124 3B       		.uleb128 0x3b
 2935 0125 0B       		.uleb128 0xb
 2936 0126 01       		.uleb128 0x1
 2937 0127 13       		.uleb128 0x13
 2938 0128 00       		.byte	0
 2939 0129 00       		.byte	0
 2940 012a 19       		.uleb128 0x19
 2941 012b 17       		.uleb128 0x17
 2942 012c 01       		.byte	0x1
 2943 012d 0B       		.uleb128 0xb
 2944 012e 0B       		.uleb128 0xb
 2945 012f 3A       		.uleb128 0x3a
 2946 0130 0B       		.uleb128 0xb
ARM GAS  C:\Users\jo\AppData\Local\Temp\ccEwiVcU.s 			page 53


 2947 0131 3B       		.uleb128 0x3b
 2948 0132 0B       		.uleb128 0xb
 2949 0133 01       		.uleb128 0x1
 2950 0134 13       		.uleb128 0x13
 2951 0135 00       		.byte	0
 2952 0136 00       		.byte	0
 2953 0137 1A       		.uleb128 0x1a
 2954 0138 0D       		.uleb128 0xd
 2955 0139 00       		.byte	0
 2956 013a 03       		.uleb128 0x3
 2957 013b 0E       		.uleb128 0xe
 2958 013c 3A       		.uleb128 0x3a
 2959 013d 0B       		.uleb128 0xb
 2960 013e 3B       		.uleb128 0x3b
 2961 013f 05       		.uleb128 0x5
 2962 0140 49       		.uleb128 0x49
 2963 0141 13       		.uleb128 0x13
 2964 0142 00       		.byte	0
 2965 0143 00       		.byte	0
 2966 0144 1B       		.uleb128 0x1b
 2967 0145 26       		.uleb128 0x26
 2968 0146 00       		.byte	0
 2969 0147 49       		.uleb128 0x49
 2970 0148 13       		.uleb128 0x13
 2971 0149 00       		.byte	0
 2972 014a 00       		.byte	0
 2973 014b 1C       		.uleb128 0x1c
 2974 014c 13       		.uleb128 0x13
 2975 014d 01       		.byte	0x1
 2976 014e 03       		.uleb128 0x3
 2977 014f 08       		.uleb128 0x8
 2978 0150 0B       		.uleb128 0xb
 2979 0151 0B       		.uleb128 0xb
 2980 0152 3A       		.uleb128 0x3a
 2981 0153 0B       		.uleb128 0xb
 2982 0154 3B       		.uleb128 0x3b
 2983 0155 0B       		.uleb128 0xb
 2984 0156 01       		.uleb128 0x1
 2985 0157 13       		.uleb128 0x13
 2986 0158 00       		.byte	0
 2987 0159 00       		.byte	0
 2988 015a 1D       		.uleb128 0x1d
 2989 015b 0D       		.uleb128 0xd
 2990 015c 00       		.byte	0
 2991 015d 03       		.uleb128 0x3
 2992 015e 0E       		.uleb128 0xe
 2993 015f 3A       		.uleb128 0x3a
 2994 0160 0B       		.uleb128 0xb
 2995 0161 3B       		.uleb128 0x3b
 2996 0162 0B       		.uleb128 0xb
 2997 0163 49       		.uleb128 0x49
 2998 0164 13       		.uleb128 0x13
 2999 0165 0B       		.uleb128 0xb
 3000 0166 0B       		.uleb128 0xb
 3001 0167 0D       		.uleb128 0xd
 3002 0168 0B       		.uleb128 0xb
 3003 0169 0C       		.uleb128 0xc
ARM GAS  C:\Users\jo\AppData\Local\Temp\ccEwiVcU.s 			page 54


 3004 016a 0B       		.uleb128 0xb
 3005 016b 38       		.uleb128 0x38
 3006 016c 0B       		.uleb128 0xb
 3007 016d 00       		.byte	0
 3008 016e 00       		.byte	0
 3009 016f 1E       		.uleb128 0x1e
 3010 0170 0D       		.uleb128 0xd
 3011 0171 00       		.byte	0
 3012 0172 03       		.uleb128 0x3
 3013 0173 08       		.uleb128 0x8
 3014 0174 3A       		.uleb128 0x3a
 3015 0175 0B       		.uleb128 0xb
 3016 0176 3B       		.uleb128 0x3b
 3017 0177 0B       		.uleb128 0xb
 3018 0178 49       		.uleb128 0x49
 3019 0179 13       		.uleb128 0x13
 3020 017a 0B       		.uleb128 0xb
 3021 017b 0B       		.uleb128 0xb
 3022 017c 0D       		.uleb128 0xd
 3023 017d 0B       		.uleb128 0xb
 3024 017e 0C       		.uleb128 0xc
 3025 017f 0B       		.uleb128 0xb
 3026 0180 38       		.uleb128 0x38
 3027 0181 0B       		.uleb128 0xb
 3028 0182 00       		.byte	0
 3029 0183 00       		.byte	0
 3030 0184 1F       		.uleb128 0x1f
 3031 0185 2E       		.uleb128 0x2e
 3032 0186 01       		.byte	0x1
 3033 0187 3F       		.uleb128 0x3f
 3034 0188 19       		.uleb128 0x19
 3035 0189 03       		.uleb128 0x3
 3036 018a 0E       		.uleb128 0xe
 3037 018b 3A       		.uleb128 0x3a
 3038 018c 0B       		.uleb128 0xb
 3039 018d 3B       		.uleb128 0x3b
 3040 018e 0B       		.uleb128 0xb
 3041 018f 27       		.uleb128 0x27
 3042 0190 19       		.uleb128 0x19
 3043 0191 11       		.uleb128 0x11
 3044 0192 01       		.uleb128 0x1
 3045 0193 12       		.uleb128 0x12
 3046 0194 06       		.uleb128 0x6
 3047 0195 40       		.uleb128 0x40
 3048 0196 18       		.uleb128 0x18
 3049 0197 9742     		.uleb128 0x2117
 3050 0199 19       		.uleb128 0x19
 3051 019a 01       		.uleb128 0x1
 3052 019b 13       		.uleb128 0x13
 3053 019c 00       		.byte	0
 3054 019d 00       		.byte	0
 3055 019e 20       		.uleb128 0x20
 3056 019f 898201   		.uleb128 0x4109
 3057 01a2 00       		.byte	0
 3058 01a3 11       		.uleb128 0x11
 3059 01a4 01       		.uleb128 0x1
 3060 01a5 9542     		.uleb128 0x2115
ARM GAS  C:\Users\jo\AppData\Local\Temp\ccEwiVcU.s 			page 55


 3061 01a7 19       		.uleb128 0x19
 3062 01a8 31       		.uleb128 0x31
 3063 01a9 13       		.uleb128 0x13
 3064 01aa 00       		.byte	0
 3065 01ab 00       		.byte	0
 3066 01ac 21       		.uleb128 0x21
 3067 01ad 05       		.uleb128 0x5
 3068 01ae 00       		.byte	0
 3069 01af 03       		.uleb128 0x3
 3070 01b0 0E       		.uleb128 0xe
 3071 01b1 3A       		.uleb128 0x3a
 3072 01b2 0B       		.uleb128 0xb
 3073 01b3 3B       		.uleb128 0x3b
 3074 01b4 0B       		.uleb128 0xb
 3075 01b5 49       		.uleb128 0x49
 3076 01b6 13       		.uleb128 0x13
 3077 01b7 02       		.uleb128 0x2
 3078 01b8 18       		.uleb128 0x18
 3079 01b9 00       		.byte	0
 3080 01ba 00       		.byte	0
 3081 01bb 22       		.uleb128 0x22
 3082 01bc 05       		.uleb128 0x5
 3083 01bd 00       		.byte	0
 3084 01be 03       		.uleb128 0x3
 3085 01bf 0E       		.uleb128 0xe
 3086 01c0 3A       		.uleb128 0x3a
 3087 01c1 0B       		.uleb128 0xb
 3088 01c2 3B       		.uleb128 0x3b
 3089 01c3 0B       		.uleb128 0xb
 3090 01c4 49       		.uleb128 0x49
 3091 01c5 13       		.uleb128 0x13
 3092 01c6 02       		.uleb128 0x2
 3093 01c7 17       		.uleb128 0x17
 3094 01c8 00       		.byte	0
 3095 01c9 00       		.byte	0
 3096 01ca 23       		.uleb128 0x23
 3097 01cb 34       		.uleb128 0x34
 3098 01cc 00       		.byte	0
 3099 01cd 03       		.uleb128 0x3
 3100 01ce 0E       		.uleb128 0xe
 3101 01cf 49       		.uleb128 0x49
 3102 01d0 13       		.uleb128 0x13
 3103 01d1 34       		.uleb128 0x34
 3104 01d2 19       		.uleb128 0x19
 3105 01d3 02       		.uleb128 0x2
 3106 01d4 18       		.uleb128 0x18
 3107 01d5 00       		.byte	0
 3108 01d6 00       		.byte	0
 3109 01d7 24       		.uleb128 0x24
 3110 01d8 898201   		.uleb128 0x4109
 3111 01db 01       		.byte	0x1
 3112 01dc 11       		.uleb128 0x11
 3113 01dd 01       		.uleb128 0x1
 3114 01de 9542     		.uleb128 0x2115
 3115 01e0 19       		.uleb128 0x19
 3116 01e1 31       		.uleb128 0x31
 3117 01e2 13       		.uleb128 0x13
ARM GAS  C:\Users\jo\AppData\Local\Temp\ccEwiVcU.s 			page 56


 3118 01e3 01       		.uleb128 0x1
 3119 01e4 13       		.uleb128 0x13
 3120 01e5 00       		.byte	0
 3121 01e6 00       		.byte	0
 3122 01e7 25       		.uleb128 0x25
 3123 01e8 8A8201   		.uleb128 0x410a
 3124 01eb 00       		.byte	0
 3125 01ec 02       		.uleb128 0x2
 3126 01ed 18       		.uleb128 0x18
 3127 01ee 9142     		.uleb128 0x2111
 3128 01f0 18       		.uleb128 0x18
 3129 01f1 00       		.byte	0
 3130 01f2 00       		.byte	0
 3131 01f3 26       		.uleb128 0x26
 3132 01f4 898201   		.uleb128 0x4109
 3133 01f7 01       		.byte	0x1
 3134 01f8 11       		.uleb128 0x11
 3135 01f9 01       		.uleb128 0x1
 3136 01fa 31       		.uleb128 0x31
 3137 01fb 13       		.uleb128 0x13
 3138 01fc 01       		.uleb128 0x1
 3139 01fd 13       		.uleb128 0x13
 3140 01fe 00       		.byte	0
 3141 01ff 00       		.byte	0
 3142 0200 27       		.uleb128 0x27
 3143 0201 898201   		.uleb128 0x4109
 3144 0204 01       		.byte	0x1
 3145 0205 11       		.uleb128 0x11
 3146 0206 01       		.uleb128 0x1
 3147 0207 9542     		.uleb128 0x2115
 3148 0209 19       		.uleb128 0x19
 3149 020a 31       		.uleb128 0x31
 3150 020b 13       		.uleb128 0x13
 3151 020c 00       		.byte	0
 3152 020d 00       		.byte	0
 3153 020e 28       		.uleb128 0x28
 3154 020f 34       		.uleb128 0x34
 3155 0210 00       		.byte	0
 3156 0211 03       		.uleb128 0x3
 3157 0212 08       		.uleb128 0x8
 3158 0213 3A       		.uleb128 0x3a
 3159 0214 0B       		.uleb128 0xb
 3160 0215 3B       		.uleb128 0x3b
 3161 0216 0B       		.uleb128 0xb
 3162 0217 49       		.uleb128 0x49
 3163 0218 13       		.uleb128 0x13
 3164 0219 02       		.uleb128 0x2
 3165 021a 17       		.uleb128 0x17
 3166 021b 00       		.byte	0
 3167 021c 00       		.byte	0
 3168 021d 29       		.uleb128 0x29
 3169 021e 2E       		.uleb128 0x2e
 3170 021f 01       		.byte	0x1
 3171 0220 3F       		.uleb128 0x3f
 3172 0221 19       		.uleb128 0x19
 3173 0222 03       		.uleb128 0x3
 3174 0223 0E       		.uleb128 0xe
ARM GAS  C:\Users\jo\AppData\Local\Temp\ccEwiVcU.s 			page 57


 3175 0224 3A       		.uleb128 0x3a
 3176 0225 0B       		.uleb128 0xb
 3177 0226 3B       		.uleb128 0x3b
 3178 0227 05       		.uleb128 0x5
 3179 0228 27       		.uleb128 0x27
 3180 0229 19       		.uleb128 0x19
 3181 022a 49       		.uleb128 0x49
 3182 022b 13       		.uleb128 0x13
 3183 022c 11       		.uleb128 0x11
 3184 022d 01       		.uleb128 0x1
 3185 022e 12       		.uleb128 0x12
 3186 022f 06       		.uleb128 0x6
 3187 0230 40       		.uleb128 0x40
 3188 0231 18       		.uleb128 0x18
 3189 0232 9742     		.uleb128 0x2117
 3190 0234 19       		.uleb128 0x19
 3191 0235 01       		.uleb128 0x1
 3192 0236 13       		.uleb128 0x13
 3193 0237 00       		.byte	0
 3194 0238 00       		.byte	0
 3195 0239 2A       		.uleb128 0x2a
 3196 023a 05       		.uleb128 0x5
 3197 023b 00       		.byte	0
 3198 023c 03       		.uleb128 0x3
 3199 023d 0E       		.uleb128 0xe
 3200 023e 3A       		.uleb128 0x3a
 3201 023f 0B       		.uleb128 0xb
 3202 0240 3B       		.uleb128 0x3b
 3203 0241 05       		.uleb128 0x5
 3204 0242 49       		.uleb128 0x49
 3205 0243 13       		.uleb128 0x13
 3206 0244 02       		.uleb128 0x2
 3207 0245 17       		.uleb128 0x17
 3208 0246 00       		.byte	0
 3209 0247 00       		.byte	0
 3210 0248 2B       		.uleb128 0x2b
 3211 0249 34       		.uleb128 0x34
 3212 024a 00       		.byte	0
 3213 024b 03       		.uleb128 0x3
 3214 024c 0E       		.uleb128 0xe
 3215 024d 3A       		.uleb128 0x3a
 3216 024e 0B       		.uleb128 0xb
 3217 024f 3B       		.uleb128 0x3b
 3218 0250 05       		.uleb128 0x5
 3219 0251 49       		.uleb128 0x49
 3220 0252 13       		.uleb128 0x13
 3221 0253 02       		.uleb128 0x2
 3222 0254 17       		.uleb128 0x17
 3223 0255 00       		.byte	0
 3224 0256 00       		.byte	0
 3225 0257 2C       		.uleb128 0x2c
 3226 0258 34       		.uleb128 0x34
 3227 0259 00       		.byte	0
 3228 025a 03       		.uleb128 0x3
 3229 025b 08       		.uleb128 0x8
 3230 025c 3A       		.uleb128 0x3a
 3231 025d 0B       		.uleb128 0xb
ARM GAS  C:\Users\jo\AppData\Local\Temp\ccEwiVcU.s 			page 58


 3232 025e 3B       		.uleb128 0x3b
 3233 025f 05       		.uleb128 0x5
 3234 0260 49       		.uleb128 0x49
 3235 0261 13       		.uleb128 0x13
 3236 0262 02       		.uleb128 0x2
 3237 0263 18       		.uleb128 0x18
 3238 0264 00       		.byte	0
 3239 0265 00       		.byte	0
 3240 0266 2D       		.uleb128 0x2d
 3241 0267 34       		.uleb128 0x34
 3242 0268 00       		.byte	0
 3243 0269 03       		.uleb128 0x3
 3244 026a 08       		.uleb128 0x8
 3245 026b 3A       		.uleb128 0x3a
 3246 026c 0B       		.uleb128 0xb
 3247 026d 3B       		.uleb128 0x3b
 3248 026e 05       		.uleb128 0x5
 3249 026f 49       		.uleb128 0x49
 3250 0270 13       		.uleb128 0x13
 3251 0271 02       		.uleb128 0x2
 3252 0272 17       		.uleb128 0x17
 3253 0273 00       		.byte	0
 3254 0274 00       		.byte	0
 3255 0275 2E       		.uleb128 0x2e
 3256 0276 34       		.uleb128 0x34
 3257 0277 00       		.byte	0
 3258 0278 03       		.uleb128 0x3
 3259 0279 0E       		.uleb128 0xe
 3260 027a 3A       		.uleb128 0x3a
 3261 027b 0B       		.uleb128 0xb
 3262 027c 3B       		.uleb128 0x3b
 3263 027d 0B       		.uleb128 0xb
 3264 027e 49       		.uleb128 0x49
 3265 027f 13       		.uleb128 0x13
 3266 0280 02       		.uleb128 0x2
 3267 0281 18       		.uleb128 0x18
 3268 0282 00       		.byte	0
 3269 0283 00       		.byte	0
 3270 0284 2F       		.uleb128 0x2f
 3271 0285 34       		.uleb128 0x34
 3272 0286 00       		.byte	0
 3273 0287 03       		.uleb128 0x3
 3274 0288 0E       		.uleb128 0xe
 3275 0289 3A       		.uleb128 0x3a
 3276 028a 0B       		.uleb128 0xb
 3277 028b 3B       		.uleb128 0x3b
 3278 028c 05       		.uleb128 0x5
 3279 028d 49       		.uleb128 0x49
 3280 028e 13       		.uleb128 0x13
 3281 028f 3F       		.uleb128 0x3f
 3282 0290 19       		.uleb128 0x19
 3283 0291 3C       		.uleb128 0x3c
 3284 0292 19       		.uleb128 0x19
 3285 0293 00       		.byte	0
 3286 0294 00       		.byte	0
 3287 0295 30       		.uleb128 0x30
 3288 0296 34       		.uleb128 0x34
ARM GAS  C:\Users\jo\AppData\Local\Temp\ccEwiVcU.s 			page 59


 3289 0297 00       		.byte	0
 3290 0298 03       		.uleb128 0x3
 3291 0299 08       		.uleb128 0x8
 3292 029a 3A       		.uleb128 0x3a
 3293 029b 0B       		.uleb128 0xb
 3294 029c 3B       		.uleb128 0x3b
 3295 029d 05       		.uleb128 0x5
 3296 029e 49       		.uleb128 0x49
 3297 029f 13       		.uleb128 0x13
 3298 02a0 3F       		.uleb128 0x3f
 3299 02a1 19       		.uleb128 0x19
 3300 02a2 3C       		.uleb128 0x3c
 3301 02a3 19       		.uleb128 0x19
 3302 02a4 00       		.byte	0
 3303 02a5 00       		.byte	0
 3304 02a6 31       		.uleb128 0x31
 3305 02a7 2E       		.uleb128 0x2e
 3306 02a8 00       		.byte	0
 3307 02a9 3F       		.uleb128 0x3f
 3308 02aa 19       		.uleb128 0x19
 3309 02ab 03       		.uleb128 0x3
 3310 02ac 0E       		.uleb128 0xe
 3311 02ad 3A       		.uleb128 0x3a
 3312 02ae 0B       		.uleb128 0xb
 3313 02af 3B       		.uleb128 0x3b
 3314 02b0 0B       		.uleb128 0xb
 3315 02b1 27       		.uleb128 0x27
 3316 02b2 19       		.uleb128 0x19
 3317 02b3 3C       		.uleb128 0x3c
 3318 02b4 19       		.uleb128 0x19
 3319 02b5 00       		.byte	0
 3320 02b6 00       		.byte	0
 3321 02b7 32       		.uleb128 0x32
 3322 02b8 2E       		.uleb128 0x2e
 3323 02b9 01       		.byte	0x1
 3324 02ba 3F       		.uleb128 0x3f
 3325 02bb 19       		.uleb128 0x19
 3326 02bc 03       		.uleb128 0x3
 3327 02bd 0E       		.uleb128 0xe
 3328 02be 3A       		.uleb128 0x3a
 3329 02bf 0B       		.uleb128 0xb
 3330 02c0 3B       		.uleb128 0x3b
 3331 02c1 0B       		.uleb128 0xb
 3332 02c2 27       		.uleb128 0x27
 3333 02c3 19       		.uleb128 0x19
 3334 02c4 3C       		.uleb128 0x3c
 3335 02c5 19       		.uleb128 0x19
 3336 02c6 01       		.uleb128 0x1
 3337 02c7 13       		.uleb128 0x13
 3338 02c8 00       		.byte	0
 3339 02c9 00       		.byte	0
 3340 02ca 33       		.uleb128 0x33
 3341 02cb 2E       		.uleb128 0x2e
 3342 02cc 01       		.byte	0x1
 3343 02cd 3F       		.uleb128 0x3f
 3344 02ce 19       		.uleb128 0x19
 3345 02cf 03       		.uleb128 0x3
ARM GAS  C:\Users\jo\AppData\Local\Temp\ccEwiVcU.s 			page 60


 3346 02d0 0E       		.uleb128 0xe
 3347 02d1 3A       		.uleb128 0x3a
 3348 02d2 0B       		.uleb128 0xb
 3349 02d3 3B       		.uleb128 0x3b
 3350 02d4 05       		.uleb128 0x5
 3351 02d5 27       		.uleb128 0x27
 3352 02d6 19       		.uleb128 0x19
 3353 02d7 3C       		.uleb128 0x3c
 3354 02d8 19       		.uleb128 0x19
 3355 02d9 01       		.uleb128 0x1
 3356 02da 13       		.uleb128 0x13
 3357 02db 00       		.byte	0
 3358 02dc 00       		.byte	0
 3359 02dd 34       		.uleb128 0x34
 3360 02de 2E       		.uleb128 0x2e
 3361 02df 01       		.byte	0x1
 3362 02e0 3F       		.uleb128 0x3f
 3363 02e1 19       		.uleb128 0x19
 3364 02e2 03       		.uleb128 0x3
 3365 02e3 0E       		.uleb128 0xe
 3366 02e4 3A       		.uleb128 0x3a
 3367 02e5 0B       		.uleb128 0xb
 3368 02e6 3B       		.uleb128 0x3b
 3369 02e7 0B       		.uleb128 0xb
 3370 02e8 27       		.uleb128 0x27
 3371 02e9 19       		.uleb128 0x19
 3372 02ea 3C       		.uleb128 0x3c
 3373 02eb 19       		.uleb128 0x19
 3374 02ec 00       		.byte	0
 3375 02ed 00       		.byte	0
 3376 02ee 00       		.byte	0
 3377              		.section	.debug_loc,"",%progbits
 3378              	.Ldebug_loc0:
 3379              	.LLST0:
 3380 0000 00000000 		.4byte	.LVL2
 3381 0004 15000000 		.4byte	.LVL3-1
 3382 0008 0100     		.2byte	0x1
 3383 000a 50       		.byte	0x50
 3384 000b 15000000 		.4byte	.LVL3-1
 3385 000f 16000000 		.4byte	.LVL3
 3386 0013 0400     		.2byte	0x4
 3387 0015 F3       		.byte	0xf3
 3388 0016 01       		.uleb128 0x1
 3389 0017 50       		.byte	0x50
 3390 0018 9F       		.byte	0x9f
 3391 0019 16000000 		.4byte	.LVL3
 3392 001d 18000000 		.4byte	.LVL4
 3393 0021 0100     		.2byte	0x1
 3394 0023 50       		.byte	0x50
 3395 0024 18000000 		.4byte	.LVL4
 3396 0028 28000000 		.4byte	.LVL6
 3397 002c 0100     		.2byte	0x1
 3398 002e 54       		.byte	0x54
 3399 002f 28000000 		.4byte	.LVL6
 3400 0033 2B000000 		.4byte	.LVL7-1
 3401 0037 0100     		.2byte	0x1
 3402 0039 50       		.byte	0x50
ARM GAS  C:\Users\jo\AppData\Local\Temp\ccEwiVcU.s 			page 61


 3403 003a 2B000000 		.4byte	.LVL7-1
 3404 003e 30000000 		.4byte	.LFE261
 3405 0042 0400     		.2byte	0x4
 3406 0044 F3       		.byte	0xf3
 3407 0045 01       		.uleb128 0x1
 3408 0046 50       		.byte	0x50
 3409 0047 9F       		.byte	0x9f
 3410 0048 00000000 		.4byte	0
 3411 004c 00000000 		.4byte	0
 3412              	.LLST1:
 3413 0050 00000000 		.4byte	.LVL2
 3414 0054 15000000 		.4byte	.LVL3-1
 3415 0058 0100     		.2byte	0x1
 3416 005a 51       		.byte	0x51
 3417 005b 15000000 		.4byte	.LVL3-1
 3418 005f 16000000 		.4byte	.LVL3
 3419 0063 0400     		.2byte	0x4
 3420 0065 F3       		.byte	0xf3
 3421 0066 01       		.uleb128 0x1
 3422 0067 51       		.byte	0x51
 3423 0068 9F       		.byte	0x9f
 3424 0069 16000000 		.4byte	.LVL3
 3425 006d 1D000000 		.4byte	.LVL5-1
 3426 0071 0100     		.2byte	0x1
 3427 0073 51       		.byte	0x51
 3428 0074 1D000000 		.4byte	.LVL5-1
 3429 0078 28000000 		.4byte	.LVL6
 3430 007c 0200     		.2byte	0x2
 3431 007e 91       		.byte	0x91
 3432 007f 74       		.sleb128 -12
 3433 0080 28000000 		.4byte	.LVL6
 3434 0084 30000000 		.4byte	.LFE261
 3435 0088 0200     		.2byte	0x2
 3436 008a 7D       		.byte	0x7d
 3437 008b 74       		.sleb128 -12
 3438 008c 00000000 		.4byte	0
 3439 0090 00000000 		.4byte	0
 3440              	.LLST2:
 3441 0094 00000000 		.4byte	.LVL8
 3442 0098 15000000 		.4byte	.LVL9-1
 3443 009c 0100     		.2byte	0x1
 3444 009e 50       		.byte	0x50
 3445 009f 15000000 		.4byte	.LVL9-1
 3446 00a3 16000000 		.4byte	.LVL9
 3447 00a7 0400     		.2byte	0x4
 3448 00a9 F3       		.byte	0xf3
 3449 00aa 01       		.uleb128 0x1
 3450 00ab 50       		.byte	0x50
 3451 00ac 9F       		.byte	0x9f
 3452 00ad 16000000 		.4byte	.LVL9
 3453 00b1 18000000 		.4byte	.LVL10
 3454 00b5 0100     		.2byte	0x1
 3455 00b7 50       		.byte	0x50
 3456 00b8 18000000 		.4byte	.LVL10
 3457 00bc 28000000 		.4byte	.LVL12
 3458 00c0 0100     		.2byte	0x1
 3459 00c2 54       		.byte	0x54
ARM GAS  C:\Users\jo\AppData\Local\Temp\ccEwiVcU.s 			page 62


 3460 00c3 28000000 		.4byte	.LVL12
 3461 00c7 2B000000 		.4byte	.LVL13-1
 3462 00cb 0100     		.2byte	0x1
 3463 00cd 50       		.byte	0x50
 3464 00ce 2B000000 		.4byte	.LVL13-1
 3465 00d2 30000000 		.4byte	.LFE262
 3466 00d6 0400     		.2byte	0x4
 3467 00d8 F3       		.byte	0xf3
 3468 00d9 01       		.uleb128 0x1
 3469 00da 50       		.byte	0x50
 3470 00db 9F       		.byte	0x9f
 3471 00dc 00000000 		.4byte	0
 3472 00e0 00000000 		.4byte	0
 3473              	.LLST3:
 3474 00e4 00000000 		.4byte	.LVL8
 3475 00e8 15000000 		.4byte	.LVL9-1
 3476 00ec 0100     		.2byte	0x1
 3477 00ee 51       		.byte	0x51
 3478 00ef 15000000 		.4byte	.LVL9-1
 3479 00f3 16000000 		.4byte	.LVL9
 3480 00f7 0400     		.2byte	0x4
 3481 00f9 F3       		.byte	0xf3
 3482 00fa 01       		.uleb128 0x1
 3483 00fb 51       		.byte	0x51
 3484 00fc 9F       		.byte	0x9f
 3485 00fd 16000000 		.4byte	.LVL9
 3486 0101 1D000000 		.4byte	.LVL11-1
 3487 0105 0100     		.2byte	0x1
 3488 0107 51       		.byte	0x51
 3489 0108 1D000000 		.4byte	.LVL11-1
 3490 010c 28000000 		.4byte	.LVL12
 3491 0110 0200     		.2byte	0x2
 3492 0112 91       		.byte	0x91
 3493 0113 74       		.sleb128 -12
 3494 0114 28000000 		.4byte	.LVL12
 3495 0118 30000000 		.4byte	.LFE262
 3496 011c 0200     		.2byte	0x2
 3497 011e 7D       		.byte	0x7d
 3498 011f 74       		.sleb128 -12
 3499 0120 00000000 		.4byte	0
 3500 0124 00000000 		.4byte	0
 3501              	.LLST4:
 3502 0128 00000000 		.4byte	.LVL14
 3503 012c 10000000 		.4byte	.LVL15
 3504 0130 0100     		.2byte	0x1
 3505 0132 50       		.byte	0x50
 3506 0133 10000000 		.4byte	.LVL15
 3507 0137 1E000000 		.4byte	.LVL17
 3508 013b 0100     		.2byte	0x1
 3509 013d 54       		.byte	0x54
 3510 013e 1E000000 		.4byte	.LVL17
 3511 0142 21000000 		.4byte	.LVL18-1
 3512 0146 0100     		.2byte	0x1
 3513 0148 50       		.byte	0x50
 3514 0149 21000000 		.4byte	.LVL18-1
 3515 014d 28000000 		.4byte	.LFE263
 3516 0151 0400     		.2byte	0x4
ARM GAS  C:\Users\jo\AppData\Local\Temp\ccEwiVcU.s 			page 63


 3517 0153 F3       		.byte	0xf3
 3518 0154 01       		.uleb128 0x1
 3519 0155 50       		.byte	0x50
 3520 0156 9F       		.byte	0x9f
 3521 0157 00000000 		.4byte	0
 3522 015b 00000000 		.4byte	0
 3523              	.LLST5:
 3524 015f 00000000 		.4byte	.LVL14
 3525 0163 13000000 		.4byte	.LVL16-1
 3526 0167 0100     		.2byte	0x1
 3527 0169 51       		.byte	0x51
 3528 016a 13000000 		.4byte	.LVL16-1
 3529 016e 1E000000 		.4byte	.LVL17
 3530 0172 0100     		.2byte	0x1
 3531 0174 55       		.byte	0x55
 3532 0175 1E000000 		.4byte	.LVL17
 3533 0179 21000000 		.4byte	.LVL18-1
 3534 017d 0100     		.2byte	0x1
 3535 017f 51       		.byte	0x51
 3536 0180 21000000 		.4byte	.LVL18-1
 3537 0184 28000000 		.4byte	.LFE263
 3538 0188 0400     		.2byte	0x4
 3539 018a F3       		.byte	0xf3
 3540 018b 01       		.uleb128 0x1
 3541 018c 51       		.byte	0x51
 3542 018d 9F       		.byte	0x9f
 3543 018e 00000000 		.4byte	0
 3544 0192 00000000 		.4byte	0
 3545              	.LLST6:
 3546 0196 00000000 		.4byte	.LVL14
 3547 019a 13000000 		.4byte	.LVL16-1
 3548 019e 0100     		.2byte	0x1
 3549 01a0 52       		.byte	0x52
 3550 01a1 13000000 		.4byte	.LVL16-1
 3551 01a5 1E000000 		.4byte	.LVL17
 3552 01a9 0100     		.2byte	0x1
 3553 01ab 56       		.byte	0x56
 3554 01ac 1E000000 		.4byte	.LVL17
 3555 01b0 21000000 		.4byte	.LVL18-1
 3556 01b4 0100     		.2byte	0x1
 3557 01b6 52       		.byte	0x52
 3558 01b7 21000000 		.4byte	.LVL18-1
 3559 01bb 28000000 		.4byte	.LFE263
 3560 01bf 0400     		.2byte	0x4
 3561 01c1 F3       		.byte	0xf3
 3562 01c2 01       		.uleb128 0x1
 3563 01c3 52       		.byte	0x52
 3564 01c4 9F       		.byte	0x9f
 3565 01c5 00000000 		.4byte	0
 3566 01c9 00000000 		.4byte	0
 3567              	.LLST7:
 3568 01cd 00000000 		.4byte	.LVL19
 3569 01d1 10000000 		.4byte	.LVL20
 3570 01d5 0100     		.2byte	0x1
 3571 01d7 50       		.byte	0x50
 3572 01d8 10000000 		.4byte	.LVL20
 3573 01dc 1E000000 		.4byte	.LVL22
ARM GAS  C:\Users\jo\AppData\Local\Temp\ccEwiVcU.s 			page 64


 3574 01e0 0100     		.2byte	0x1
 3575 01e2 54       		.byte	0x54
 3576 01e3 1E000000 		.4byte	.LVL22
 3577 01e7 21000000 		.4byte	.LVL23-1
 3578 01eb 0100     		.2byte	0x1
 3579 01ed 50       		.byte	0x50
 3580 01ee 21000000 		.4byte	.LVL23-1
 3581 01f2 22000000 		.4byte	.LVL23
 3582 01f6 0400     		.2byte	0x4
 3583 01f8 F3       		.byte	0xf3
 3584 01f9 01       		.uleb128 0x1
 3585 01fa 50       		.byte	0x50
 3586 01fb 9F       		.byte	0x9f
 3587 01fc 22000000 		.4byte	.LVL23
 3588 0200 28000000 		.4byte	.LVL24
 3589 0204 0100     		.2byte	0x1
 3590 0206 50       		.byte	0x50
 3591 0207 28000000 		.4byte	.LVL24
 3592 020b 30000000 		.4byte	.LVL27
 3593 020f 0100     		.2byte	0x1
 3594 0211 54       		.byte	0x54
 3595 0212 30000000 		.4byte	.LVL27
 3596 0216 33000000 		.4byte	.LVL28-1
 3597 021a 0100     		.2byte	0x1
 3598 021c 50       		.byte	0x50
 3599 021d 33000000 		.4byte	.LVL28-1
 3600 0221 38000000 		.4byte	.LFE264
 3601 0225 0400     		.2byte	0x4
 3602 0227 F3       		.byte	0xf3
 3603 0228 01       		.uleb128 0x1
 3604 0229 50       		.byte	0x50
 3605 022a 9F       		.byte	0x9f
 3606 022b 00000000 		.4byte	0
 3607 022f 00000000 		.4byte	0
 3608              	.LLST8:
 3609 0233 00000000 		.4byte	.LVL19
 3610 0237 13000000 		.4byte	.LVL21-1
 3611 023b 0100     		.2byte	0x1
 3612 023d 51       		.byte	0x51
 3613 023e 13000000 		.4byte	.LVL21-1
 3614 0242 1E000000 		.4byte	.LVL22
 3615 0246 0100     		.2byte	0x1
 3616 0248 55       		.byte	0x55
 3617 0249 1E000000 		.4byte	.LVL22
 3618 024d 21000000 		.4byte	.LVL23-1
 3619 0251 0100     		.2byte	0x1
 3620 0253 51       		.byte	0x51
 3621 0254 21000000 		.4byte	.LVL23-1
 3622 0258 22000000 		.4byte	.LVL23
 3623 025c 0400     		.2byte	0x4
 3624 025e F3       		.byte	0xf3
 3625 025f 01       		.uleb128 0x1
 3626 0260 51       		.byte	0x51
 3627 0261 9F       		.byte	0x9f
 3628 0262 22000000 		.4byte	.LVL23
 3629 0266 2A000000 		.4byte	.LVL25
 3630 026a 0100     		.2byte	0x1
ARM GAS  C:\Users\jo\AppData\Local\Temp\ccEwiVcU.s 			page 65


 3631 026c 51       		.byte	0x51
 3632 026d 2A000000 		.4byte	.LVL25
 3633 0271 30000000 		.4byte	.LVL27
 3634 0275 0100     		.2byte	0x1
 3635 0277 55       		.byte	0x55
 3636 0278 30000000 		.4byte	.LVL27
 3637 027c 33000000 		.4byte	.LVL28-1
 3638 0280 0100     		.2byte	0x1
 3639 0282 51       		.byte	0x51
 3640 0283 33000000 		.4byte	.LVL28-1
 3641 0287 38000000 		.4byte	.LFE264
 3642 028b 0400     		.2byte	0x4
 3643 028d F3       		.byte	0xf3
 3644 028e 01       		.uleb128 0x1
 3645 028f 51       		.byte	0x51
 3646 0290 9F       		.byte	0x9f
 3647 0291 00000000 		.4byte	0
 3648 0295 00000000 		.4byte	0
 3649              	.LLST9:
 3650 0299 00000000 		.4byte	.LVL19
 3651 029d 13000000 		.4byte	.LVL21-1
 3652 02a1 0100     		.2byte	0x1
 3653 02a3 52       		.byte	0x52
 3654 02a4 13000000 		.4byte	.LVL21-1
 3655 02a8 1E000000 		.4byte	.LVL22
 3656 02ac 0100     		.2byte	0x1
 3657 02ae 56       		.byte	0x56
 3658 02af 1E000000 		.4byte	.LVL22
 3659 02b3 21000000 		.4byte	.LVL23-1
 3660 02b7 0100     		.2byte	0x1
 3661 02b9 52       		.byte	0x52
 3662 02ba 21000000 		.4byte	.LVL23-1
 3663 02be 22000000 		.4byte	.LVL23
 3664 02c2 0400     		.2byte	0x4
 3665 02c4 F3       		.byte	0xf3
 3666 02c5 01       		.uleb128 0x1
 3667 02c6 52       		.byte	0x52
 3668 02c7 9F       		.byte	0x9f
 3669 02c8 22000000 		.4byte	.LVL23
 3670 02cc 2C000000 		.4byte	.LVL26
 3671 02d0 0100     		.2byte	0x1
 3672 02d2 52       		.byte	0x52
 3673 02d3 2C000000 		.4byte	.LVL26
 3674 02d7 30000000 		.4byte	.LVL27
 3675 02db 0100     		.2byte	0x1
 3676 02dd 56       		.byte	0x56
 3677 02de 30000000 		.4byte	.LVL27
 3678 02e2 33000000 		.4byte	.LVL28-1
 3679 02e6 0100     		.2byte	0x1
 3680 02e8 52       		.byte	0x52
 3681 02e9 33000000 		.4byte	.LVL28-1
 3682 02ed 38000000 		.4byte	.LFE264
 3683 02f1 0400     		.2byte	0x4
 3684 02f3 F3       		.byte	0xf3
 3685 02f4 01       		.uleb128 0x1
 3686 02f5 52       		.byte	0x52
 3687 02f6 9F       		.byte	0x9f
ARM GAS  C:\Users\jo\AppData\Local\Temp\ccEwiVcU.s 			page 66


 3688 02f7 00000000 		.4byte	0
 3689 02fb 00000000 		.4byte	0
 3690              	.LLST10:
 3691 02ff 00000000 		.4byte	.LVL29
 3692 0303 1C000000 		.4byte	.LVL30
 3693 0307 0100     		.2byte	0x1
 3694 0309 50       		.byte	0x50
 3695 030a 1C000000 		.4byte	.LVL30
 3696 030e C0000000 		.4byte	.LFE265
 3697 0312 0400     		.2byte	0x4
 3698 0314 F3       		.byte	0xf3
 3699 0315 01       		.uleb128 0x1
 3700 0316 50       		.byte	0x50
 3701 0317 9F       		.byte	0x9f
 3702 0318 00000000 		.4byte	0
 3703 031c 00000000 		.4byte	0
 3704              	.LLST11:
 3705 0320 00000000 		.4byte	.LVL29
 3706 0324 A4000000 		.4byte	.LVL35
 3707 0328 0100     		.2byte	0x1
 3708 032a 51       		.byte	0x51
 3709 032b A4000000 		.4byte	.LVL35
 3710 032f C0000000 		.4byte	.LFE265
 3711 0333 0400     		.2byte	0x4
 3712 0335 F3       		.byte	0xf3
 3713 0336 01       		.uleb128 0x1
 3714 0337 51       		.byte	0x51
 3715 0338 9F       		.byte	0x9f
 3716 0339 00000000 		.4byte	0
 3717 033d 00000000 		.4byte	0
 3718              	.LLST12:
 3719 0341 24000000 		.4byte	.LVL31
 3720 0345 68000000 		.4byte	.LVL33
 3721 0349 0100     		.2byte	0x1
 3722 034b 5A       		.byte	0x5a
 3723 034c 68000000 		.4byte	.LVL33
 3724 0350 9C000000 		.4byte	.LVL34
 3725 0354 1A00     		.2byte	0x1a
 3726 0356 70       		.byte	0x70
 3727 0357 00       		.sleb128 0
 3728 0358 F7       		.byte	0xf7
 3729 0359 33       		.uleb128 0x33
 3730 035a F7       		.byte	0xf7
 3731 035b 25       		.uleb128 0x25
 3732 035c 73       		.byte	0x73
 3733 035d 00       		.sleb128 0
 3734 035e F7       		.byte	0xf7
 3735 035f 33       		.uleb128 0x33
 3736 0360 F7       		.byte	0xf7
 3737 0361 25       		.uleb128 0x25
 3738 0362 1E       		.byte	0x1e
 3739 0363 08       		.byte	0x8
 3740 0364 20       		.byte	0x20
 3741 0365 F7       		.byte	0xf7
 3742 0366 25       		.uleb128 0x25
 3743 0367 25       		.byte	0x25
 3744 0368 F7       		.byte	0xf7
ARM GAS  C:\Users\jo\AppData\Local\Temp\ccEwiVcU.s 			page 67


 3745 0369 2C       		.uleb128 0x2c
 3746 036a 36       		.byte	0x36
 3747 036b 25       		.byte	0x25
 3748 036c 7B       		.byte	0x7b
 3749 036d 00       		.sleb128 0
 3750 036e 1C       		.byte	0x1c
 3751 036f 9F       		.byte	0x9f
 3752 0370 9C000000 		.4byte	.LVL34
 3753 0374 A4000000 		.4byte	.LVL35
 3754 0378 2000     		.2byte	0x20
 3755 037a 75       		.byte	0x75
 3756 037b 00       		.sleb128 0
 3757 037c 09       		.byte	0x9
 3758 037d C4       		.byte	0xc4
 3759 037e 1E       		.byte	0x1e
 3760 037f 70       		.byte	0x70
 3761 0380 00       		.sleb128 0
 3762 0381 F7       		.byte	0xf7
 3763 0382 33       		.uleb128 0x33
 3764 0383 F7       		.byte	0xf7
 3765 0384 25       		.uleb128 0x25
 3766 0385 73       		.byte	0x73
 3767 0386 00       		.sleb128 0
 3768 0387 F7       		.byte	0xf7
 3769 0388 33       		.uleb128 0x33
 3770 0389 F7       		.byte	0xf7
 3771 038a 25       		.uleb128 0x25
 3772 038b 1E       		.byte	0x1e
 3773 038c 08       		.byte	0x8
 3774 038d 20       		.byte	0x20
 3775 038e F7       		.byte	0xf7
 3776 038f 25       		.uleb128 0x25
 3777 0390 25       		.byte	0x25
 3778 0391 F7       		.byte	0xf7
 3779 0392 2C       		.uleb128 0x2c
 3780 0393 36       		.byte	0x36
 3781 0394 25       		.byte	0x25
 3782 0395 7B       		.byte	0x7b
 3783 0396 00       		.sleb128 0
 3784 0397 1C       		.byte	0x1c
 3785 0398 22       		.byte	0x22
 3786 0399 9F       		.byte	0x9f
 3787 039a A4000000 		.4byte	.LVL35
 3788 039e AE000000 		.4byte	.LVL36
 3789 03a2 2100     		.2byte	0x21
 3790 03a4 75       		.byte	0x75
 3791 03a5 00       		.sleb128 0
 3792 03a6 09       		.byte	0x9
 3793 03a7 C4       		.byte	0xc4
 3794 03a8 1E       		.byte	0x1e
 3795 03a9 70       		.byte	0x70
 3796 03aa 00       		.sleb128 0
 3797 03ab F7       		.byte	0xf7
 3798 03ac 33       		.uleb128 0x33
 3799 03ad F7       		.byte	0xf7
 3800 03ae 25       		.uleb128 0x25
 3801 03af 0C       		.byte	0xc
ARM GAS  C:\Users\jo\AppData\Local\Temp\ccEwiVcU.s 			page 68


 3802 03b0 D34D6210 		.4byte	0x10624dd3
 3803 03b4 F7       		.byte	0xf7
 3804 03b5 25       		.uleb128 0x25
 3805 03b6 1E       		.byte	0x1e
 3806 03b7 08       		.byte	0x8
 3807 03b8 20       		.byte	0x20
 3808 03b9 F7       		.byte	0xf7
 3809 03ba 25       		.uleb128 0x25
 3810 03bb 25       		.byte	0x25
 3811 03bc F7       		.byte	0xf7
 3812 03bd 2C       		.uleb128 0x2c
 3813 03be 36       		.byte	0x36
 3814 03bf 25       		.byte	0x25
 3815 03c0 7B       		.byte	0x7b
 3816 03c1 00       		.sleb128 0
 3817 03c2 1C       		.byte	0x1c
 3818 03c3 22       		.byte	0x22
 3819 03c4 9F       		.byte	0x9f
 3820 03c5 AE000000 		.4byte	.LVL36
 3821 03c9 B4000000 		.4byte	.LVL37
 3822 03cd 2B00     		.2byte	0x2b
 3823 03cf 75       		.byte	0x75
 3824 03d0 00       		.sleb128 0
 3825 03d1 09       		.byte	0x9
 3826 03d2 C4       		.byte	0xc4
 3827 03d3 1E       		.byte	0x1e
 3828 03d4 F3       		.byte	0xf3
 3829 03d5 01       		.uleb128 0x1
 3830 03d6 50       		.byte	0x50
 3831 03d7 23       		.byte	0x23
 3832 03d8 04       		.uleb128 0x4
 3833 03d9 06       		.byte	0x6
 3834 03da 09       		.byte	0x9
 3835 03db E9       		.byte	0xe9
 3836 03dc 24       		.byte	0x24
 3837 03dd 09       		.byte	0x9
 3838 03de E9       		.byte	0xe9
 3839 03df 25       		.byte	0x25
 3840 03e0 F7       		.byte	0xf7
 3841 03e1 33       		.uleb128 0x33
 3842 03e2 F7       		.byte	0xf7
 3843 03e3 25       		.uleb128 0x25
 3844 03e4 0C       		.byte	0xc
 3845 03e5 D34D6210 		.4byte	0x10624dd3
 3846 03e9 F7       		.byte	0xf7
 3847 03ea 25       		.uleb128 0x25
 3848 03eb 1E       		.byte	0x1e
 3849 03ec 08       		.byte	0x8
 3850 03ed 20       		.byte	0x20
 3851 03ee F7       		.byte	0xf7
 3852 03ef 25       		.uleb128 0x25
 3853 03f0 25       		.byte	0x25
 3854 03f1 F7       		.byte	0xf7
 3855 03f2 2C       		.uleb128 0x2c
 3856 03f3 36       		.byte	0x36
 3857 03f4 25       		.byte	0x25
 3858 03f5 7B       		.byte	0x7b
ARM GAS  C:\Users\jo\AppData\Local\Temp\ccEwiVcU.s 			page 69


 3859 03f6 00       		.sleb128 0
 3860 03f7 1C       		.byte	0x1c
 3861 03f8 22       		.byte	0x22
 3862 03f9 9F       		.byte	0x9f
 3863 03fa B4000000 		.4byte	.LVL37
 3864 03fe C0000000 		.4byte	.LFE265
 3865 0402 3100     		.2byte	0x31
 3866 0404 F3       		.byte	0xf3
 3867 0405 01       		.uleb128 0x1
 3868 0406 51       		.byte	0x51
 3869 0407 23       		.byte	0x23
 3870 0408 04       		.uleb128 0x4
 3871 0409 06       		.byte	0x6
 3872 040a 09       		.byte	0x9
 3873 040b C4       		.byte	0xc4
 3874 040c 1E       		.byte	0x1e
 3875 040d F3       		.byte	0xf3
 3876 040e 01       		.uleb128 0x1
 3877 040f 50       		.byte	0x50
 3878 0410 23       		.byte	0x23
 3879 0411 04       		.uleb128 0x4
 3880 0412 06       		.byte	0x6
 3881 0413 09       		.byte	0x9
 3882 0414 E9       		.byte	0xe9
 3883 0415 24       		.byte	0x24
 3884 0416 09       		.byte	0x9
 3885 0417 E9       		.byte	0xe9
 3886 0418 25       		.byte	0x25
 3887 0419 F7       		.byte	0xf7
 3888 041a 33       		.uleb128 0x33
 3889 041b F7       		.byte	0xf7
 3890 041c 25       		.uleb128 0x25
 3891 041d 0C       		.byte	0xc
 3892 041e D34D6210 		.4byte	0x10624dd3
 3893 0422 F7       		.byte	0xf7
 3894 0423 25       		.uleb128 0x25
 3895 0424 1E       		.byte	0x1e
 3896 0425 08       		.byte	0x8
 3897 0426 20       		.byte	0x20
 3898 0427 F7       		.byte	0xf7
 3899 0428 25       		.uleb128 0x25
 3900 0429 25       		.byte	0x25
 3901 042a F7       		.byte	0xf7
 3902 042b 2C       		.uleb128 0x2c
 3903 042c 36       		.byte	0x36
 3904 042d 25       		.byte	0x25
 3905 042e F3       		.byte	0xf3
 3906 042f 01       		.uleb128 0x1
 3907 0430 51       		.byte	0x51
 3908 0431 06       		.byte	0x6
 3909 0432 1C       		.byte	0x1c
 3910 0433 22       		.byte	0x22
 3911 0434 9F       		.byte	0x9f
 3912 0435 00000000 		.4byte	0
 3913 0439 00000000 		.4byte	0
 3914              	.LLST13:
 3915 043d 00000000 		.4byte	.LVL38
ARM GAS  C:\Users\jo\AppData\Local\Temp\ccEwiVcU.s 			page 70


 3916 0441 38000000 		.4byte	.LVL39
 3917 0445 0100     		.2byte	0x1
 3918 0447 50       		.byte	0x50
 3919 0448 38000000 		.4byte	.LVL39
 3920 044c 62000000 		.4byte	.LFE266
 3921 0450 0400     		.2byte	0x4
 3922 0452 F3       		.byte	0xf3
 3923 0453 01       		.uleb128 0x1
 3924 0454 50       		.byte	0x50
 3925 0455 9F       		.byte	0x9f
 3926 0456 00000000 		.4byte	0
 3927 045a 00000000 		.4byte	0
 3928              	.LLST14:
 3929 045e 00000000 		.4byte	.LVL38
 3930 0462 52000000 		.4byte	.LVL40
 3931 0466 0100     		.2byte	0x1
 3932 0468 51       		.byte	0x51
 3933 0469 52000000 		.4byte	.LVL40
 3934 046d 62000000 		.4byte	.LFE266
 3935 0471 0400     		.2byte	0x4
 3936 0473 F3       		.byte	0xf3
 3937 0474 01       		.uleb128 0x1
 3938 0475 51       		.byte	0x51
 3939 0476 9F       		.byte	0x9f
 3940 0477 00000000 		.4byte	0
 3941 047b 00000000 		.4byte	0
 3942              	.LLST15:
 3943 047f 00000000 		.4byte	.LVL41
 3944 0483 6E000000 		.4byte	.LVL52
 3945 0487 0100     		.2byte	0x1
 3946 0489 50       		.byte	0x50
 3947 048a 6E000000 		.4byte	.LVL52
 3948 048e 76000000 		.4byte	.LVL55
 3949 0492 0400     		.2byte	0x4
 3950 0494 F3       		.byte	0xf3
 3951 0495 01       		.uleb128 0x1
 3952 0496 50       		.byte	0x50
 3953 0497 9F       		.byte	0x9f
 3954 0498 76000000 		.4byte	.LVL55
 3955 049c A0000000 		.4byte	.LFE267
 3956 04a0 0100     		.2byte	0x1
 3957 04a2 50       		.byte	0x50
 3958 04a3 00000000 		.4byte	0
 3959 04a7 00000000 		.4byte	0
 3960              	.LLST16:
 3961 04ab 5C000000 		.4byte	.LVL51
 3962 04af 6E000000 		.4byte	.LVL52
 3963 04b3 1500     		.2byte	0x15
 3964 04b5 75       		.byte	0x75
 3965 04b6 00       		.sleb128 0
 3966 04b7 35       		.byte	0x35
 3967 04b8 24       		.byte	0x24
 3968 04b9 71       		.byte	0x71
 3969 04ba 00       		.sleb128 0
 3970 04bb 31       		.byte	0x31
 3971 04bc 25       		.byte	0x25
 3972 04bd 21       		.byte	0x21
ARM GAS  C:\Users\jo\AppData\Local\Temp\ccEwiVcU.s 			page 71


 3973 04be 77       		.byte	0x77
 3974 04bf 00       		.sleb128 0
 3975 04c0 45       		.byte	0x45
 3976 04c1 24       		.byte	0x24
 3977 04c2 21       		.byte	0x21
 3978 04c3 72       		.byte	0x72
 3979 04c4 00       		.sleb128 0
 3980 04c5 21       		.byte	0x21
 3981 04c6 74       		.byte	0x74
 3982 04c7 00       		.sleb128 0
 3983 04c8 21       		.byte	0x21
 3984 04c9 9F       		.byte	0x9f
 3985 04ca 6E000000 		.4byte	.LVL52
 3986 04ce 72000000 		.4byte	.LVL53
 3987 04d2 0800     		.2byte	0x8
 3988 04d4 77       		.byte	0x77
 3989 04d5 00       		.sleb128 0
 3990 04d6 45       		.byte	0x45
 3991 04d7 24       		.byte	0x24
 3992 04d8 70       		.byte	0x70
 3993 04d9 00       		.sleb128 0
 3994 04da 21       		.byte	0x21
 3995 04db 9F       		.byte	0x9f
 3996 04dc 72000000 		.4byte	.LVL53
 3997 04e0 76000000 		.4byte	.LVL55
 3998 04e4 0100     		.2byte	0x1
 3999 04e6 50       		.byte	0x50
 4000 04e7 00000000 		.4byte	0
 4001 04eb 00000000 		.4byte	0
 4002              	.LLST17:
 4003 04ef 36000000 		.4byte	.LVL45
 4004 04f3 74000000 		.4byte	.LVL54
 4005 04f7 0100     		.2byte	0x1
 4006 04f9 55       		.byte	0x55
 4007 04fa 74000000 		.4byte	.LVL54
 4008 04fe 76000000 		.4byte	.LVL55
 4009 0502 6700     		.2byte	0x67
 4010 0504 F3       		.byte	0xf3
 4011 0505 01       		.uleb128 0x1
 4012 0506 50       		.byte	0x50
 4013 0507 23       		.byte	0x23
 4014 0508 04       		.uleb128 0x4
 4015 0509 06       		.byte	0x6
 4016 050a 09       		.byte	0x9
 4017 050b E9       		.byte	0xe9
 4018 050c 24       		.byte	0x24
 4019 050d 09       		.byte	0x9
 4020 050e E9       		.byte	0xe9
 4021 050f 25       		.byte	0x25
 4022 0510 F7       		.byte	0xf7
 4023 0511 2C       		.uleb128 0x2c
 4024 0512 F7       		.byte	0xf7
 4025 0513 25       		.uleb128 0x25
 4026 0514 0C       		.byte	0xc
 4027 0515 D34D6210 		.4byte	0x10624dd3
 4028 0519 F7       		.byte	0xf7
 4029 051a 25       		.uleb128 0x25
ARM GAS  C:\Users\jo\AppData\Local\Temp\ccEwiVcU.s 			page 72


 4030 051b 1E       		.byte	0x1e
 4031 051c 08       		.byte	0x8
 4032 051d 20       		.byte	0x20
 4033 051e F7       		.byte	0xf7
 4034 051f 25       		.uleb128 0x25
 4035 0520 25       		.byte	0x25
 4036 0521 F7       		.byte	0xf7
 4037 0522 2C       		.uleb128 0x2c
 4038 0523 36       		.byte	0x36
 4039 0524 25       		.byte	0x25
 4040 0525 F3       		.byte	0xf3
 4041 0526 01       		.uleb128 0x1
 4042 0527 50       		.byte	0x50
 4043 0528 23       		.byte	0x23
 4044 0529 04       		.uleb128 0x4
 4045 052a 06       		.byte	0x6
 4046 052b 09       		.byte	0x9
 4047 052c E9       		.byte	0xe9
 4048 052d 24       		.byte	0x24
 4049 052e 09       		.byte	0x9
 4050 052f E9       		.byte	0xe9
 4051 0530 25       		.byte	0x25
 4052 0531 F7       		.byte	0xf7
 4053 0532 2C       		.uleb128 0x2c
 4054 0533 F7       		.byte	0xf7
 4055 0534 25       		.uleb128 0x25
 4056 0535 0C       		.byte	0xc
 4057 0536 D34D6210 		.4byte	0x10624dd3
 4058 053a F7       		.byte	0xf7
 4059 053b 25       		.uleb128 0x25
 4060 053c 1E       		.byte	0x1e
 4061 053d 08       		.byte	0x8
 4062 053e 20       		.byte	0x20
 4063 053f F7       		.byte	0xf7
 4064 0540 25       		.uleb128 0x25
 4065 0541 25       		.byte	0x25
 4066 0542 F7       		.byte	0xf7
 4067 0543 2C       		.uleb128 0x2c
 4068 0544 36       		.byte	0x36
 4069 0545 25       		.byte	0x25
 4070 0546 71       		.byte	0x71
 4071 0547 00       		.sleb128 0
 4072 0548 1C       		.byte	0x1c
 4073 0549 F7       		.byte	0xf7
 4074 054a 2C       		.uleb128 0x2c
 4075 054b F7       		.byte	0xf7
 4076 054c 25       		.uleb128 0x25
 4077 054d F4       		.byte	0xf4
 4078 054e 25       		.uleb128 0x25
 4079 054f 08       		.byte	0x8
 4080 0550 C5B3A291 		.8byte	0x91a2b3c5
 4080      00000000 
 4081 0558 1E       		.byte	0x1e
 4082 0559 08       		.byte	0x8
 4083 055a 20       		.byte	0x20
 4084 055b F7       		.byte	0xf7
 4085 055c 25       		.uleb128 0x25
ARM GAS  C:\Users\jo\AppData\Local\Temp\ccEwiVcU.s 			page 73


 4086 055d 25       		.byte	0x25
 4087 055e F7       		.byte	0xf7
 4088 055f 2C       		.uleb128 0x2c
 4089 0560 3B       		.byte	0x3b
 4090 0561 25       		.byte	0x25
 4091 0562 0A       		.byte	0xa
 4092 0563 100E     		.2byte	0xe10
 4093 0565 1E       		.byte	0x1e
 4094 0566 1C       		.byte	0x1c
 4095 0567 71       		.byte	0x71
 4096 0568 00       		.sleb128 0
 4097 0569 1C       		.byte	0x1c
 4098 056a 9F       		.byte	0x9f
 4099 056b 76000000 		.4byte	.LVL55
 4100 056f A0000000 		.4byte	.LFE267
 4101 0573 0100     		.2byte	0x1
 4102 0575 55       		.byte	0x55
 4103 0576 00000000 		.4byte	0
 4104 057a 00000000 		.4byte	0
 4105              	.LLST18:
 4106 057e 48000000 		.4byte	.LVL46
 4107 0582 5A000000 		.4byte	.LVL50
 4108 0586 0100     		.2byte	0x1
 4109 0588 52       		.byte	0x52
 4110 0589 76000000 		.4byte	.LVL55
 4111 058d A0000000 		.4byte	.LFE267
 4112 0591 0200     		.2byte	0x2
 4113 0593 30       		.byte	0x30
 4114 0594 9F       		.byte	0x9f
 4115 0595 00000000 		.4byte	0
 4116 0599 00000000 		.4byte	0
 4117              	.LLST19:
 4118 059d 4C000000 		.4byte	.LVL47
 4119 05a1 5C000000 		.4byte	.LVL51
 4120 05a5 0100     		.2byte	0x1
 4121 05a7 54       		.byte	0x54
 4122 05a8 76000000 		.4byte	.LVL55
 4123 05ac 86000000 		.4byte	.LVL57
 4124 05b0 0100     		.2byte	0x1
 4125 05b2 54       		.byte	0x54
 4126 05b3 86000000 		.4byte	.LVL57
 4127 05b7 A0000000 		.4byte	.LFE267
 4128 05bb 0200     		.2byte	0x2
 4129 05bd 31       		.byte	0x31
 4130 05be 9F       		.byte	0x9f
 4131 05bf 00000000 		.4byte	0
 4132 05c3 00000000 		.4byte	0
 4133              	.LLST20:
 4134 05c7 50000000 		.4byte	.LVL48
 4135 05cb 74000000 		.4byte	.LVL54
 4136 05cf 0100     		.2byte	0x1
 4137 05d1 57       		.byte	0x57
 4138 05d2 76000000 		.4byte	.LVL55
 4139 05d6 A0000000 		.4byte	.LFE267
 4140 05da 0100     		.2byte	0x1
 4141 05dc 57       		.byte	0x57
 4142 05dd 00000000 		.4byte	0
ARM GAS  C:\Users\jo\AppData\Local\Temp\ccEwiVcU.s 			page 74


 4143 05e1 00000000 		.4byte	0
 4144              	.LLST21:
 4145 05e5 18000000 		.4byte	.LVL42
 4146 05e9 28000000 		.4byte	.LVL44
 4147 05ed 0100     		.2byte	0x1
 4148 05ef 53       		.byte	0x53
 4149 05f0 28000000 		.4byte	.LVL44
 4150 05f4 6E000000 		.4byte	.LVL52
 4151 05f8 1F00     		.2byte	0x1f
 4152 05fa 70       		.byte	0x70
 4153 05fb 04       		.sleb128 4
 4154 05fc 06       		.byte	0x6
 4155 05fd 09       		.byte	0x9
 4156 05fe E9       		.byte	0xe9
 4157 05ff 24       		.byte	0x24
 4158 0600 09       		.byte	0x9
 4159 0601 E9       		.byte	0xe9
 4160 0602 25       		.byte	0x25
 4161 0603 F7       		.byte	0xf7
 4162 0604 2C       		.uleb128 0x2c
 4163 0605 F7       		.byte	0xf7
 4164 0606 25       		.uleb128 0x25
 4165 0607 0C       		.byte	0xc
 4166 0608 D34D6210 		.4byte	0x10624dd3
 4167 060c F7       		.byte	0xf7
 4168 060d 25       		.uleb128 0x25
 4169 060e 1E       		.byte	0x1e
 4170 060f 08       		.byte	0x8
 4171 0610 20       		.byte	0x20
 4172 0611 F7       		.byte	0xf7
 4173 0612 25       		.uleb128 0x25
 4174 0613 25       		.byte	0x25
 4175 0614 F7       		.byte	0xf7
 4176 0615 2C       		.uleb128 0x2c
 4177 0616 36       		.byte	0x36
 4178 0617 25       		.byte	0x25
 4179 0618 9F       		.byte	0x9f
 4180 0619 6E000000 		.4byte	.LVL52
 4181 061d 76000000 		.4byte	.LVL55
 4182 0621 2200     		.2byte	0x22
 4183 0623 F3       		.byte	0xf3
 4184 0624 01       		.uleb128 0x1
 4185 0625 50       		.byte	0x50
 4186 0626 23       		.byte	0x23
 4187 0627 04       		.uleb128 0x4
 4188 0628 06       		.byte	0x6
 4189 0629 09       		.byte	0x9
 4190 062a E9       		.byte	0xe9
 4191 062b 24       		.byte	0x24
 4192 062c 09       		.byte	0x9
 4193 062d E9       		.byte	0xe9
 4194 062e 25       		.byte	0x25
 4195 062f F7       		.byte	0xf7
 4196 0630 2C       		.uleb128 0x2c
 4197 0631 F7       		.byte	0xf7
 4198 0632 25       		.uleb128 0x25
 4199 0633 0C       		.byte	0xc
ARM GAS  C:\Users\jo\AppData\Local\Temp\ccEwiVcU.s 			page 75


 4200 0634 D34D6210 		.4byte	0x10624dd3
 4201 0638 F7       		.byte	0xf7
 4202 0639 25       		.uleb128 0x25
 4203 063a 1E       		.byte	0x1e
 4204 063b 08       		.byte	0x8
 4205 063c 20       		.byte	0x20
 4206 063d F7       		.byte	0xf7
 4207 063e 25       		.uleb128 0x25
 4208 063f 25       		.byte	0x25
 4209 0640 F7       		.byte	0xf7
 4210 0641 2C       		.uleb128 0x2c
 4211 0642 36       		.byte	0x36
 4212 0643 25       		.byte	0x25
 4213 0644 9F       		.byte	0x9f
 4214 0645 76000000 		.4byte	.LVL55
 4215 0649 A0000000 		.4byte	.LFE267
 4216 064d 1F00     		.2byte	0x1f
 4217 064f 70       		.byte	0x70
 4218 0650 04       		.sleb128 4
 4219 0651 06       		.byte	0x6
 4220 0652 09       		.byte	0x9
 4221 0653 E9       		.byte	0xe9
 4222 0654 24       		.byte	0x24
 4223 0655 09       		.byte	0x9
 4224 0656 E9       		.byte	0xe9
 4225 0657 25       		.byte	0x25
 4226 0658 F7       		.byte	0xf7
 4227 0659 2C       		.uleb128 0x2c
 4228 065a F7       		.byte	0xf7
 4229 065b 25       		.uleb128 0x25
 4230 065c 0C       		.byte	0xc
 4231 065d D34D6210 		.4byte	0x10624dd3
 4232 0661 F7       		.byte	0xf7
 4233 0662 25       		.uleb128 0x25
 4234 0663 1E       		.byte	0x1e
 4235 0664 08       		.byte	0x8
 4236 0665 20       		.byte	0x20
 4237 0666 F7       		.byte	0xf7
 4238 0667 25       		.uleb128 0x25
 4239 0668 25       		.byte	0x25
 4240 0669 F7       		.byte	0xf7
 4241 066a 2C       		.uleb128 0x2c
 4242 066b 36       		.byte	0x36
 4243 066c 25       		.byte	0x25
 4244 066d 9F       		.byte	0x9f
 4245 066e 00000000 		.4byte	0
 4246 0672 00000000 		.4byte	0
 4247              		.section	.debug_aranges,"",%progbits
 4248 0000 5C000000 		.4byte	0x5c
 4249 0004 0200     		.2byte	0x2
 4250 0006 00000000 		.4byte	.Ldebug_info0
 4251 000a 04       		.byte	0x4
 4252 000b 00       		.byte	0
 4253 000c 0000     		.2byte	0
 4254 000e 0000     		.2byte	0
 4255 0010 00000000 		.4byte	.LFB259
 4256 0014 04000000 		.4byte	.LFE259-.LFB259
ARM GAS  C:\Users\jo\AppData\Local\Temp\ccEwiVcU.s 			page 76


 4257 0018 00000000 		.4byte	.LFB260
 4258 001c 02000000 		.4byte	.LFE260-.LFB260
 4259 0020 00000000 		.4byte	.LFB261
 4260 0024 30000000 		.4byte	.LFE261-.LFB261
 4261 0028 00000000 		.4byte	.LFB262
 4262 002c 30000000 		.4byte	.LFE262-.LFB262
 4263 0030 00000000 		.4byte	.LFB263
 4264 0034 28000000 		.4byte	.LFE263-.LFB263
 4265 0038 00000000 		.4byte	.LFB264
 4266 003c 38000000 		.4byte	.LFE264-.LFB264
 4267 0040 00000000 		.4byte	.LFB265
 4268 0044 C0000000 		.4byte	.LFE265-.LFB265
 4269 0048 00000000 		.4byte	.LFB266
 4270 004c 62000000 		.4byte	.LFE266-.LFB266
 4271 0050 00000000 		.4byte	.LFB267
 4272 0054 A0000000 		.4byte	.LFE267-.LFB267
 4273 0058 00000000 		.4byte	0
 4274 005c 00000000 		.4byte	0
 4275              		.section	.debug_ranges,"",%progbits
 4276              	.Ldebug_ranges0:
 4277 0000 00000000 		.4byte	.LFB259
 4278 0004 04000000 		.4byte	.LFE259
 4279 0008 00000000 		.4byte	.LFB260
 4280 000c 02000000 		.4byte	.LFE260
 4281 0010 00000000 		.4byte	.LFB261
 4282 0014 30000000 		.4byte	.LFE261
 4283 0018 00000000 		.4byte	.LFB262
 4284 001c 30000000 		.4byte	.LFE262
 4285 0020 00000000 		.4byte	.LFB263
 4286 0024 28000000 		.4byte	.LFE263
 4287 0028 00000000 		.4byte	.LFB264
 4288 002c 38000000 		.4byte	.LFE264
 4289 0030 00000000 		.4byte	.LFB265
 4290 0034 C0000000 		.4byte	.LFE265
 4291 0038 00000000 		.4byte	.LFB266
 4292 003c 62000000 		.4byte	.LFE266
 4293 0040 00000000 		.4byte	.LFB267
 4294 0044 A0000000 		.4byte	.LFE267
 4295 0048 00000000 		.4byte	0
 4296 004c 00000000 		.4byte	0
 4297              		.section	.debug_line,"",%progbits
 4298              	.Ldebug_line0:
 4299 0000 53040000 		.section	.debug_str,"MS",%progbits,1
 4299      0200DB02 
 4299      00000201 
 4299      FB0E0D00 
 4299      01010101 
 4300              	.LASF86:
 4301 0000 43414C49 		.ascii	"CALIBR\000"
 4301      425200
 4302              	.LASF156:
 4303 0007 746D5F79 		.ascii	"tm_year\000"
 4303      65617200 
 4304              	.LASF52:
 4305 000f 72656164 		.ascii	"ready_list_t\000"
 4305      795F6C69 
 4305      73745F74 
ARM GAS  C:\Users\jo\AppData\Local\Temp\ccEwiVcU.s 			page 77


 4305      00
 4306              	.LASF185:
 4307 001c 66617474 		.ascii	"fattime\000"
 4307      696D6500 
 4308              	.LASF3:
 4309 0024 73697A65 		.ascii	"size_t\000"
 4309      5F7400
 4310              	.LASF134:
 4311 002b 7264796D 		.ascii	"rdymsg\000"
 4311      736700
 4312              	.LASF17:
 4313 0032 75696E74 		.ascii	"uint64_t\000"
 4313      36345F74 
 4313      00
 4314              	.LASF4:
 4315 003b 5F5F7569 		.ascii	"__uint8_t\000"
 4315      6E74385F 
 4315      7400
 4316              	.LASF122:
 4317 0045 706F7274 		.ascii	"port_intctx\000"
 4317      5F696E74 
 4317      63747800 
 4318              	.LASF51:
 4319 0051 63685F74 		.ascii	"ch_threads_queue\000"
 4319      68726561 
 4319      64735F71 
 4319      75657565 
 4319      00
 4320              	.LASF71:
 4321 0062 73797374 		.ascii	"system_debug_t\000"
 4321      656D5F64 
 4321      65627567 
 4321      5F7400
 4322              	.LASF93:
 4323 0071 43414C52 		.ascii	"CALR\000"
 4323      00
 4324              	.LASF194:
 4325 0076 2E2E2F2E 		.ascii	"../../../os/hal/src/rtc.c\000"
 4325      2E2F2E2E 
 4325      2F6F732F 
 4325      68616C2F 
 4325      7372632F 
 4326              	.LASF101:
 4327 0090 424B5033 		.ascii	"BKP3R\000"
 4327      5200
 4328              	.LASF84:
 4329 0096 50524552 		.ascii	"PRER\000"
 4329      00
 4330              	.LASF190:
 4331 009b 63685379 		.ascii	"chSysHalt\000"
 4331      7348616C 
 4331      7400
 4332              	.LASF113:
 4333 00a5 424B5031 		.ascii	"BKP15R\000"
 4333      355200
 4334              	.LASF0:
 4335 00ac 6C6F6E67 		.ascii	"long long unsigned int\000"
ARM GAS  C:\Users\jo\AppData\Local\Temp\ccEwiVcU.s 			page 78


 4335      206C6F6E 
 4335      6720756E 
 4335      7369676E 
 4335      65642069 
 4336              	.LASF131:
 4337 00c3 63685F74 		.ascii	"ch_trace_buffer_t\000"
 4337      72616365 
 4337      5F627566 
 4337      6665725F 
 4337      7400
 4338              	.LASF172:
 4339 00d5 72746353 		.ascii	"rtcSetTime\000"
 4339      65745469 
 4339      6D6500
 4340              	.LASF126:
 4341 00e0 73655F73 		.ascii	"se_state\000"
 4341      74617465 
 4341      00
 4342              	.LASF135:
 4343 00e9 65786974 		.ascii	"exitcode\000"
 4343      636F6465 
 4343      00
 4344              	.LASF81:
 4345 00f2 6D61696E 		.ascii	"mainthread\000"
 4345      74687265 
 4345      616400
 4346              	.LASF181:
 4347 00fd 72746343 		.ascii	"rtcConvertDateTimeToStructTm\000"
 4347      6F6E7665 
 4347      72744461 
 4347      74655469 
 4347      6D65546F 
 4348              	.LASF68:
 4349 011a 76697274 		.ascii	"virtual_timers_list_t\000"
 4349      75616C5F 
 4349      74696D65 
 4349      72735F6C 
 4349      6973745F 
 4350              	.LASF188:
 4351 0130 49544D5F 		.ascii	"ITM_RxBuffer\000"
 4351      52784275 
 4351      66666572 
 4351      00
 4352              	.LASF163:
 4353 013d 64737466 		.ascii	"dstflag\000"
 4353      6C616700 
 4354              	.LASF118:
 4355 0145 5254435F 		.ascii	"RTC_TypeDef\000"
 4355      54797065 
 4355      44656600 
 4356              	.LASF196:
 4357 0151 72746343 		.ascii	"rtcConvertDateTimeToFAT\000"
 4357      6F6E7665 
 4357      72744461 
 4357      74655469 
 4357      6D65546F 
 4358              	.LASF30:
ARM GAS  C:\Users\jo\AppData\Local\Temp\ccEwiVcU.s 			page 79


 4359 0169 705F7072 		.ascii	"p_prio\000"
 4359      696F00
 4360              	.LASF195:
 4361 0170 433A5C55 		.ascii	"C:\\Users\\jo\\Documents\\GitHub\\ChibiOS\\demos\\S"
 4361      73657273 
 4361      5C6A6F5C 
 4361      446F6375 
 4361      6D656E74 
 4362 019c 544D3332 		.ascii	"TM32\\RT-STM32F407-DISCOVERY-uHttp\000"
 4362      5C52542D 
 4362      53544D33 
 4362      32463430 
 4362      372D4449 
 4363              	.LASF180:
 4364 01be 72746347 		.ascii	"rtcGetAlarm\000"
 4364      6574416C 
 4364      61726D00 
 4365              	.LASF12:
 4366 01ca 6C6F6E67 		.ascii	"long long int\000"
 4366      206C6F6E 
 4366      6720696E 
 4366      7400
 4367              	.LASF2:
 4368 01d8 7369676E 		.ascii	"signed char\000"
 4368      65642063 
 4368      68617200 
 4369              	.LASF123:
 4370 01e4 73655F74 		.ascii	"se_time\000"
 4370      696D6500 
 4371              	.LASF45:
 4372 01ec 705F6D70 		.ascii	"p_mpool\000"
 4372      6F6F6C00 
 4373              	.LASF145:
 4374 01f4 6D5F7175 		.ascii	"m_queue\000"
 4374      65756500 
 4375              	.LASF197:
 4376 01fc 7274635F 		.ascii	"rtc_lld_init\000"
 4376      6C6C645F 
 4376      696E6974 
 4376      00
 4377              	.LASF80:
 4378 0209 76746C69 		.ascii	"vtlist\000"
 4378      737400
 4379              	.LASF92:
 4380 0210 54535353 		.ascii	"TSSSR\000"
 4380      5200
 4381              	.LASF161:
 4382 0216 79656172 		.ascii	"year\000"
 4382      00
 4383              	.LASF137:
 4384 021b 77747472 		.ascii	"wttrp\000"
 4384      7000
 4385              	.LASF78:
 4386 0221 63685F73 		.ascii	"ch_system\000"
 4386      79737465 
 4386      6D00
 4387              	.LASF9:
ARM GAS  C:\Users\jo\AppData\Local\Temp\ccEwiVcU.s 			page 80


 4388 022b 6C6F6E67 		.ascii	"long int\000"
 4388      20696E74 
 4388      00
 4389              	.LASF102:
 4390 0234 424B5034 		.ascii	"BKP4R\000"
 4390      5200
 4391              	.LASF20:
 4392 023a 74737461 		.ascii	"tstate_t\000"
 4392      74655F74 
 4392      00
 4393              	.LASF114:
 4394 0243 424B5031 		.ascii	"BKP16R\000"
 4394      365200
 4395              	.LASF124:
 4396 024a 73655F74 		.ascii	"se_tp\000"
 4396      7000
 4397              	.LASF16:
 4398 0250 75696E74 		.ascii	"uint32_t\000"
 4398      33325F74 
 4398      00
 4399              	.LASF177:
 4400 0259 72746353 		.ascii	"rtcSetAlarm\000"
 4400      6574416C 
 4400      61726D00 
 4401              	.LASF179:
 4402 0265 616C6172 		.ascii	"alarmspec\000"
 4402      6D737065 
 4402      6300
 4403              	.LASF32:
 4404 026f 705F6E65 		.ascii	"p_newer\000"
 4404      77657200 
 4405              	.LASF142:
 4406 0277 735F7175 		.ascii	"s_queue\000"
 4406      65756500 
 4407              	.LASF128:
 4408 027f 74625F73 		.ascii	"tb_size\000"
 4408      697A6500 
 4409              	.LASF57:
 4410 0287 725F6E65 		.ascii	"r_newer\000"
 4410      77657200 
 4411              	.LASF119:
 4412 028f 72656761 		.ascii	"regarm_t\000"
 4412      726D5F74 
 4412      00
 4413              	.LASF64:
 4414 0298 76745F70 		.ascii	"vt_prev\000"
 4414      72657600 
 4415              	.LASF173:
 4416 02a0 72746370 		.ascii	"rtcp\000"
 4416      00
 4417              	.LASF171:
 4418 02a5 7274634F 		.ascii	"rtcObjectInit\000"
 4418      626A6563 
 4418      74496E69 
 4418      7400
 4419              	.LASF184:
 4420 02b3 72746343 		.ascii	"rtcConvertStructTmToDateTime\000"
ARM GAS  C:\Users\jo\AppData\Local\Temp\ccEwiVcU.s 			page 81


 4420      6F6E7665 
 4420      72745374 
 4420      72756374 
 4420      546D546F 
 4421              	.LASF149:
 4422 02d0 6D757465 		.ascii	"mutex_t\000"
 4422      785F7400 
 4423              	.LASF75:
 4424 02d8 6C6F636B 		.ascii	"lock_cnt\000"
 4424      5F636E74 
 4424      00
 4425              	.LASF82:
 4426 02e1 69646C65 		.ascii	"idle_thread_wa\000"
 4426      5F746872 
 4426      6561645F 
 4426      776100
 4427              	.LASF25:
 4428 02f0 636E745F 		.ascii	"cnt_t\000"
 4428      7400
 4429              	.LASF162:
 4430 02f6 6D6F6E74 		.ascii	"month\000"
 4430      6800
 4431              	.LASF35:
 4432 02fc 705F7374 		.ascii	"p_stklimit\000"
 4432      6B6C696D 
 4432      697400
 4433              	.LASF91:
 4434 0307 54534452 		.ascii	"TSDR\000"
 4434      00
 4435              	.LASF63:
 4436 030c 76745F6E 		.ascii	"vt_next\000"
 4436      65787400 
 4437              	.LASF103:
 4438 0314 424B5035 		.ascii	"BKP5R\000"
 4438      5200
 4439              	.LASF138:
 4440 031a 77747365 		.ascii	"wtsemp\000"
 4440      6D7000
 4441              	.LASF174:
 4442 0321 74696D65 		.ascii	"timespec\000"
 4442      73706563 
 4442      00
 4443              	.LASF40:
 4444 032a 705F6D73 		.ascii	"p_msgqueue\000"
 4444      67717565 
 4444      756500
 4445              	.LASF189:
 4446 0335 7274635F 		.ascii	"rtc_lld_set_time\000"
 4446      6C6C645F 
 4446      7365745F 
 4446      74696D65 
 4446      00
 4447              	.LASF143:
 4448 0346 735F636E 		.ascii	"s_cnt\000"
 4448      7400
 4449              	.LASF192:
 4450 034c 7274635F 		.ascii	"rtc_lld_set_alarm\000"
ARM GAS  C:\Users\jo\AppData\Local\Temp\ccEwiVcU.s 			page 82


 4450      6C6C645F 
 4450      7365745F 
 4450      616C6172 
 4450      6D00
 4451              	.LASF7:
 4452 035e 73686F72 		.ascii	"short unsigned int\000"
 4452      7420756E 
 4452      7369676E 
 4452      65642069 
 4452      6E7400
 4453              	.LASF159:
 4454 0371 746D5F69 		.ascii	"tm_isdst\000"
 4454      73647374 
 4454      00
 4455              	.LASF48:
 4456 037a 63685F74 		.ascii	"ch_thread\000"
 4456      68726561 
 4456      6400
 4457              	.LASF165:
 4458 0384 6D696C6C 		.ascii	"millisecond\000"
 4458      69736563 
 4458      6F6E6400 
 4459              	.LASF191:
 4460 0390 7274635F 		.ascii	"rtc_lld_get_time\000"
 4460      6C6C645F 
 4460      6765745F 
 4460      74696D65 
 4460      00
 4461              	.LASF23:
 4462 03a1 6D73675F 		.ascii	"msg_t\000"
 4462      7400
 4463              	.LASF85:
 4464 03a7 57555452 		.ascii	"WUTR\000"
 4464      00
 4465              	.LASF108:
 4466 03ac 424B5031 		.ascii	"BKP10R\000"
 4466      305200
 4467              	.LASF19:
 4468 03b3 746D6F64 		.ascii	"tmode_t\000"
 4468      655F7400 
 4469              	.LASF90:
 4470 03bb 54535452 		.ascii	"TSTR\000"
 4470      00
 4471              	.LASF53:
 4472 03c0 63685F72 		.ascii	"ch_ready_list\000"
 4472      65616479 
 4472      5F6C6973 
 4472      7400
 4473              	.LASF24:
 4474 03ce 6576656E 		.ascii	"eventmask_t\000"
 4474      746D6173 
 4474      6B5F7400 
 4475              	.LASF8:
 4476 03da 5F5F696E 		.ascii	"__int32_t\000"
 4476      7433325F 
 4476      7400
 4477              	.LASF193:
ARM GAS  C:\Users\jo\AppData\Local\Temp\ccEwiVcU.s 			page 83


 4478 03e4 474E5520 		.ascii	"GNU C 4.9.3 20141119 (release) [ARM/embedded-4_9-br"
 4478      4320342E 
 4478      392E3320 
 4478      32303134 
 4478      31313139 
 4479 0417 616E6368 		.ascii	"anch revision 218278] -mcpu=cortex-m4 -mno-thumb-in"
 4479      20726576 
 4479      6973696F 
 4479      6E203231 
 4479      38323738 
 4480 044a 74657277 		.ascii	"terwork -mthumb -ggdb -O2 -fomit-frame-pointer -fal"
 4480      6F726B20 
 4480      2D6D7468 
 4480      756D6220 
 4480      2D676764 
 4481 047d 69676E2D 		.ascii	"ign-functions=16 -ffunction-sections -fdata-section"
 4481      66756E63 
 4481      74696F6E 
 4481      733D3136 
 4481      202D6666 
 4482 04b0 73202D66 		.ascii	"s -fno-common\000"
 4482      6E6F2D63 
 4482      6F6D6D6F 
 4482      6E00
 4483              	.LASF120:
 4484 04be 73746B61 		.ascii	"stkalign_t\000"
 4484      6C69676E 
 4484      5F7400
 4485              	.LASF104:
 4486 04c9 424B5036 		.ascii	"BKP6R\000"
 4486      5200
 4487              	.LASF187:
 4488 04cf 6D6F6E74 		.ascii	"month_len\000"
 4488      685F6C65 
 4488      6E00
 4489              	.LASF47:
 4490 04d9 74687265 		.ascii	"threads_list_t\000"
 4490      6164735F 
 4490      6C697374 
 4490      5F7400
 4491              	.LASF116:
 4492 04e8 424B5031 		.ascii	"BKP18R\000"
 4492      385200
 4493              	.LASF168:
 4494 04ef 616C726D 		.ascii	"alrmr\000"
 4494      7200
 4495              	.LASF166:
 4496 04f5 52544344 		.ascii	"RTCDateTime\000"
 4496      61746554 
 4496      696D6500 
 4497              	.LASF39:
 4498 0501 705F7761 		.ascii	"p_waiting\000"
 4498      6974696E 
 4498      6700
 4499              	.LASF152:
 4500 050b 746D5F6D 		.ascii	"tm_min\000"
 4500      696E00
ARM GAS  C:\Users\jo\AppData\Local\Temp\ccEwiVcU.s 			page 84


 4501              	.LASF83:
 4502 0512 73697A65 		.ascii	"sizetype\000"
 4502      74797065 
 4502      00
 4503              	.LASF46:
 4504 051b 74687265 		.ascii	"thread_reference_t\000"
 4504      61645F72 
 4504      65666572 
 4504      656E6365 
 4504      5F7400
 4505              	.LASF69:
 4506 052e 63685F76 		.ascii	"ch_virtual_timers_list\000"
 4506      69727475 
 4506      616C5F74 
 4506      696D6572 
 4506      735F6C69 
 4507              	.LASF158:
 4508 0545 746D5F79 		.ascii	"tm_yday\000"
 4508      64617900 
 4509              	.LASF167:
 4510 054d 72746361 		.ascii	"rtcalarm_t\000"
 4510      6C61726D 
 4510      5F7400
 4511              	.LASF129:
 4512 0558 74625F70 		.ascii	"tb_ptr\000"
 4512      747200
 4513              	.LASF127:
 4514 055f 63685F73 		.ascii	"ch_swc_event_t\000"
 4514      77635F65 
 4514      76656E74 
 4514      5F7400
 4515              	.LASF70:
 4516 056e 76745F6C 		.ascii	"vt_lasttime\000"
 4516      61737474 
 4516      696D6500 
 4517              	.LASF33:
 4518 057a 705F6F6C 		.ascii	"p_older\000"
 4518      64657200 
 4519              	.LASF56:
 4520 0582 725F6374 		.ascii	"r_ctx\000"
 4520      7800
 4521              	.LASF133:
 4522 0588 746D5F63 		.ascii	"tm_calibration_t\000"
 4522      616C6962 
 4522      72617469 
 4522      6F6E5F74 
 4522      00
 4523              	.LASF109:
 4524 0599 424B5031 		.ascii	"BKP11R\000"
 4524      315200
 4525              	.LASF155:
 4526 05a0 746D5F6D 		.ascii	"tm_mon\000"
 4526      6F6E00
 4527              	.LASF59:
 4528 05a7 725F6375 		.ascii	"r_current\000"
 4528      7272656E 
 4528      7400
ARM GAS  C:\Users\jo\AppData\Local\Temp\ccEwiVcU.s 			page 85


 4529              	.LASF58:
 4530 05b1 725F6F6C 		.ascii	"r_older\000"
 4530      64657200 
 4531              	.LASF186:
 4532 05b9 686F7572 		.ascii	"hour\000"
 4532      00
 4533              	.LASF13:
 4534 05be 5F5F7569 		.ascii	"__uint64_t\000"
 4534      6E743634 
 4534      5F7400
 4535              	.LASF87:
 4536 05c9 414C524D 		.ascii	"ALRMAR\000"
 4536      415200
 4537              	.LASF198:
 4538 05d0 7274635F 		.ascii	"rtc_lld_get_alarm\000"
 4538      6C6C645F 
 4538      6765745F 
 4538      616C6172 
 4538      6D00
 4539              	.LASF105:
 4540 05e2 424B5037 		.ascii	"BKP7R\000"
 4540      5200
 4541              	.LASF94:
 4542 05e8 54414643 		.ascii	"TAFCR\000"
 4542      5200
 4543              	.LASF21:
 4544 05ee 74726566 		.ascii	"trefs_t\000"
 4544      735F7400 
 4545              	.LASF130:
 4546 05f6 74625F62 		.ascii	"tb_buffer\000"
 4546      75666665 
 4546      7200
 4547              	.LASF183:
 4548 0600 74765F6D 		.ascii	"tv_msec\000"
 4548      73656300 
 4549              	.LASF117:
 4550 0608 424B5031 		.ascii	"BKP19R\000"
 4550      395200
 4551              	.LASF61:
 4552 060f 76697274 		.ascii	"virtual_timer_t\000"
 4552      75616C5F 
 4552      74696D65 
 4552      725F7400 
 4553              	.LASF29:
 4554 061f 705F7072 		.ascii	"p_prev\000"
 4554      657600
 4555              	.LASF97:
 4556 0626 52455345 		.ascii	"RESERVED7\000"
 4556      52564544 
 4556      3700
 4557              	.LASF22:
 4558 0630 74707269 		.ascii	"tprio_t\000"
 4558      6F5F7400 
 4559              	.LASF178:
 4560 0638 616C6172 		.ascii	"alarm\000"
 4560      6D00
 4561              	.LASF72:
ARM GAS  C:\Users\jo\AppData\Local\Temp\ccEwiVcU.s 			page 86


 4562 063e 63685F73 		.ascii	"ch_system_debug\000"
 4562      79737465 
 4562      6D5F6465 
 4562      62756700 
 4563              	.LASF150:
 4564 064e 5F426F6F 		.ascii	"_Bool\000"
 4564      6C00
 4565              	.LASF15:
 4566 0654 696E7433 		.ascii	"int32_t\000"
 4566      325F7400 
 4567              	.LASF5:
 4568 065c 756E7369 		.ascii	"unsigned char\000"
 4568      676E6564 
 4568      20636861 
 4568      7200
 4569              	.LASF160:
 4570 066a 52544344 		.ascii	"RTCDriver\000"
 4570      72697665 
 4570      7200
 4571              	.LASF43:
 4572 0674 705F6D74 		.ascii	"p_mtxlist\000"
 4572      786C6973 
 4572      7400
 4573              	.LASF6:
 4574 067e 73686F72 		.ascii	"short int\000"
 4574      7420696E 
 4574      7400
 4575              	.LASF36:
 4576 0688 705F7374 		.ascii	"p_state\000"
 4576      61746500 
 4577              	.LASF55:
 4578 0690 725F7072 		.ascii	"r_prio\000"
 4578      696F00
 4579              	.LASF140:
 4580 0697 65776D61 		.ascii	"ewmask\000"
 4580      736B00
 4581              	.LASF28:
 4582 069e 705F6E65 		.ascii	"p_next\000"
 4582      787400
 4583              	.LASF110:
 4584 06a5 424B5031 		.ascii	"BKP12R\000"
 4584      325200
 4585              	.LASF176:
 4586 06ac 5F5F6675 		.ascii	"__func__\000"
 4586      6E635F5F 
 4586      00
 4587              	.LASF98:
 4588 06b5 424B5030 		.ascii	"BKP0R\000"
 4588      5200
 4589              	.LASF141:
 4590 06bb 63685F73 		.ascii	"ch_semaphore\000"
 4590      656D6170 
 4590      686F7265 
 4590      00
 4591              	.LASF88:
 4592 06c8 414C524D 		.ascii	"ALRMBR\000"
 4592      425200
ARM GAS  C:\Users\jo\AppData\Local\Temp\ccEwiVcU.s 			page 87


 4593              	.LASF42:
 4594 06cf 705F6570 		.ascii	"p_epending\000"
 4594      656E6469 
 4594      6E6700
 4595              	.LASF106:
 4596 06da 424B5038 		.ascii	"BKP8R\000"
 4596      5200
 4597              	.LASF151:
 4598 06e0 746D5F73 		.ascii	"tm_sec\000"
 4598      656300
 4599              	.LASF139:
 4600 06e7 77746D74 		.ascii	"wtmtxp\000"
 4600      787000
 4601              	.LASF54:
 4602 06ee 725F7175 		.ascii	"r_queue\000"
 4602      65756500 
 4603              	.LASF65:
 4604 06f6 76745F64 		.ascii	"vt_delta\000"
 4604      656C7461 
 4604      00
 4605              	.LASF49:
 4606 06ff 63685F74 		.ascii	"ch_threads_list\000"
 4606      68726561 
 4606      64735F6C 
 4606      69737400 
 4607              	.LASF11:
 4608 070f 6C6F6E67 		.ascii	"long unsigned int\000"
 4608      20756E73 
 4608      69676E65 
 4608      6420696E 
 4608      7400
 4609              	.LASF148:
 4610 0721 63686172 		.ascii	"char\000"
 4610      00
 4611              	.LASF1:
 4612 0726 756E7369 		.ascii	"unsigned int\000"
 4612      676E6564 
 4612      20696E74 
 4612      00
 4613              	.LASF41:
 4614 0733 705F6D73 		.ascii	"p_msg\000"
 4614      6700
 4615              	.LASF27:
 4616 0739 74687265 		.ascii	"thread_t\000"
 4616      61645F74 
 4616      00
 4617              	.LASF153:
 4618 0742 746D5F68 		.ascii	"tm_hour\000"
 4618      6F757200 
 4619              	.LASF147:
 4620 074a 6D5F6E65 		.ascii	"m_next\000"
 4620      787400
 4621              	.LASF26:
 4622 0751 73797374 		.ascii	"systime_t\000"
 4622      696D655F 
 4622      7400
 4623              	.LASF44:
ARM GAS  C:\Users\jo\AppData\Local\Temp\ccEwiVcU.s 			page 88


 4624 075b 705F7265 		.ascii	"p_realprio\000"
 4624      616C7072 
 4624      696F00
 4625              	.LASF60:
 4626 0766 76746675 		.ascii	"vtfunc_t\000"
 4626      6E635F74 
 4626      00
 4627              	.LASF10:
 4628 076f 5F5F7569 		.ascii	"__uint32_t\000"
 4628      6E743332 
 4628      5F7400
 4629              	.LASF73:
 4630 077a 70616E69 		.ascii	"panic_msg\000"
 4630      635F6D73 
 4630      6700
 4631              	.LASF99:
 4632 0784 424B5031 		.ascii	"BKP1R\000"
 4632      5200
 4633              	.LASF132:
 4634 078a 6F666673 		.ascii	"offset\000"
 4634      657400
 4635              	.LASF96:
 4636 0791 414C524D 		.ascii	"ALRMBSSR\000"
 4636      42535352 
 4636      00
 4637              	.LASF111:
 4638 079a 424B5031 		.ascii	"BKP13R\000"
 4638      335200
 4639              	.LASF121:
 4640 07a1 636F6E74 		.ascii	"context\000"
 4640      65787400 
 4641              	.LASF77:
 4642 07a9 63685F73 		.ascii	"ch_system_t\000"
 4642      79737465 
 4642      6D5F7400 
 4643              	.LASF62:
 4644 07b5 63685F76 		.ascii	"ch_virtual_timer\000"
 4644      69727475 
 4644      616C5F74 
 4644      696D6572 
 4644      00
 4645              	.LASF154:
 4646 07c6 746D5F6D 		.ascii	"tm_mday\000"
 4646      64617900 
 4647              	.LASF18:
 4648 07ce 7274636E 		.ascii	"rtcnt_t\000"
 4648      745F7400 
 4649              	.LASF67:
 4650 07d6 76745F70 		.ascii	"vt_par\000"
 4650      617200
 4651              	.LASF175:
 4652 07dd 72746347 		.ascii	"rtcGetTime\000"
 4652      65745469 
 4652      6D6500
 4653              	.LASF157:
 4654 07e8 746D5F77 		.ascii	"tm_wday\000"
 4654      64617900 
ARM GAS  C:\Users\jo\AppData\Local\Temp\ccEwiVcU.s 			page 89


 4655              	.LASF107:
 4656 07f0 424B5039 		.ascii	"BKP9R\000"
 4656      5200
 4657              	.LASF89:
 4658 07f6 53484946 		.ascii	"SHIFTR\000"
 4658      545200
 4659              	.LASF164:
 4660 07fd 6461796F 		.ascii	"dayofweek\000"
 4660      66776565 
 4660      6B00
 4661              	.LASF50:
 4662 0807 74687265 		.ascii	"threads_queue_t\000"
 4662      6164735F 
 4662      71756575 
 4662      655F7400 
 4663              	.LASF144:
 4664 0817 63685F6D 		.ascii	"ch_mutex\000"
 4664      75746578 
 4664      00
 4665              	.LASF38:
 4666 0820 705F7265 		.ascii	"p_refs\000"
 4666      667300
 4667              	.LASF74:
 4668 0827 6973725F 		.ascii	"isr_cnt\000"
 4668      636E7400 
 4669              	.LASF169:
 4670 082f 52544341 		.ascii	"RTCAlarm\000"
 4670      6C61726D 
 4670      00
 4671              	.LASF182:
 4672 0838 74696D70 		.ascii	"timp\000"
 4672      00
 4673              	.LASF79:
 4674 083d 726C6973 		.ascii	"rlist\000"
 4674      7400
 4675              	.LASF14:
 4676 0843 75696E74 		.ascii	"uint8_t\000"
 4676      385F7400 
 4677              	.LASF95:
 4678 084b 414C524D 		.ascii	"ALRMASSR\000"
 4678      41535352 
 4678      00
 4679              	.LASF115:
 4680 0854 424B5031 		.ascii	"BKP17R\000"
 4680      375200
 4681              	.LASF136:
 4682 085b 77746F62 		.ascii	"wtobjp\000"
 4682      6A7000
 4683              	.LASF34:
 4684 0862 705F6E61 		.ascii	"p_name\000"
 4684      6D6500
 4685              	.LASF100:
 4686 0869 424B5032 		.ascii	"BKP2R\000"
 4686      5200
 4687              	.LASF76:
 4688 086f 74726163 		.ascii	"trace_buffer\000"
 4688      655F6275 
ARM GAS  C:\Users\jo\AppData\Local\Temp\ccEwiVcU.s 			page 90


 4688      66666572 
 4688      00
 4689              	.LASF37:
 4690 087c 705F666C 		.ascii	"p_flags\000"
 4690      61677300 
 4691              	.LASF112:
 4692 0884 424B5031 		.ascii	"BKP14R\000"
 4692      345200
 4693              	.LASF170:
 4694 088b 72746349 		.ascii	"rtcInit\000"
 4694      6E697400 
 4695              	.LASF146:
 4696 0893 6D5F6F77 		.ascii	"m_owner\000"
 4696      6E657200 
 4697              	.LASF125:
 4698 089b 73655F77 		.ascii	"se_wtobjp\000"
 4698      746F626A 
 4698      7000
 4699              	.LASF31:
 4700 08a5 705F6374 		.ascii	"p_ctx\000"
 4700      7800
 4701              	.LASF66:
 4702 08ab 76745F66 		.ascii	"vt_func\000"
 4702      756E6300 
 4703              		.ident	"GCC: (GNU Tools for ARM Embedded Processors) 4.9.3 20141119 (release) [ARM/embedded-4_9-br
ARM GAS  C:\Users\jo\AppData\Local\Temp\ccEwiVcU.s 			page 91


DEFINED SYMBOLS
                            *ABS*:00000000 rtc.c
C:\Users\jo\AppData\Local\Temp\ccEwiVcU.s:19     .text.rtcInit:00000000 $t
C:\Users\jo\AppData\Local\Temp\ccEwiVcU.s:25     .text.rtcInit:00000000 rtcInit
C:\Users\jo\AppData\Local\Temp\ccEwiVcU.s:40     .text.rtcObjectInit:00000000 $t
C:\Users\jo\AppData\Local\Temp\ccEwiVcU.s:46     .text.rtcObjectInit:00000000 rtcObjectInit
C:\Users\jo\AppData\Local\Temp\ccEwiVcU.s:59     .text.rtcSetTime:00000000 $t
C:\Users\jo\AppData\Local\Temp\ccEwiVcU.s:65     .text.rtcSetTime:00000000 rtcSetTime
C:\Users\jo\AppData\Local\Temp\ccEwiVcU.s:126    .text.rtcSetTime:0000002c $d
C:\Users\jo\AppData\Local\Temp\ccEwiVcU.s:131    .text.rtcGetTime:00000000 $t
C:\Users\jo\AppData\Local\Temp\ccEwiVcU.s:137    .text.rtcGetTime:00000000 rtcGetTime
C:\Users\jo\AppData\Local\Temp\ccEwiVcU.s:197    .text.rtcGetTime:0000002c $d
C:\Users\jo\AppData\Local\Temp\ccEwiVcU.s:202    .text.rtcSetAlarm:00000000 $t
C:\Users\jo\AppData\Local\Temp\ccEwiVcU.s:208    .text.rtcSetAlarm:00000000 rtcSetAlarm
C:\Users\jo\AppData\Local\Temp\ccEwiVcU.s:255    .text.rtcSetAlarm:00000024 $d
C:\Users\jo\AppData\Local\Temp\ccEwiVcU.s:260    .text.rtcGetAlarm:00000000 $t
C:\Users\jo\AppData\Local\Temp\ccEwiVcU.s:266    .text.rtcGetAlarm:00000000 rtcGetAlarm
C:\Users\jo\AppData\Local\Temp\ccEwiVcU.s:336    .text.rtcGetAlarm:00000034 $d
C:\Users\jo\AppData\Local\Temp\ccEwiVcU.s:341    .text.rtcConvertDateTimeToStructTm:00000000 $t
C:\Users\jo\AppData\Local\Temp\ccEwiVcU.s:347    .text.rtcConvertDateTimeToStructTm:00000000 rtcConvertDateTimeToStructTm
C:\Users\jo\AppData\Local\Temp\ccEwiVcU.s:459    .text.rtcConvertDateTimeToStructTm:000000b4 $d
C:\Users\jo\AppData\Local\Temp\ccEwiVcU.s:466    .text.rtcConvertStructTmToDateTime:00000000 $t
C:\Users\jo\AppData\Local\Temp\ccEwiVcU.s:472    .text.rtcConvertStructTmToDateTime:00000000 rtcConvertStructTmToDateTime
C:\Users\jo\AppData\Local\Temp\ccEwiVcU.s:554    .text.rtcConvertDateTimeToFAT:00000000 $t
C:\Users\jo\AppData\Local\Temp\ccEwiVcU.s:560    .text.rtcConvertDateTimeToFAT:00000000 rtcConvertDateTimeToFAT
C:\Users\jo\AppData\Local\Temp\ccEwiVcU.s:679    .text.rtcConvertDateTimeToFAT:00000090 $d
C:\Users\jo\AppData\Local\Temp\ccEwiVcU.s:687    .rodata.month_len:00000000 $d
C:\Users\jo\AppData\Local\Temp\ccEwiVcU.s:691    .rodata.month_len:00000000 month_len
C:\Users\jo\AppData\Local\Temp\ccEwiVcU.s:705    .rodata.__func__.7512:00000000 $d
C:\Users\jo\AppData\Local\Temp\ccEwiVcU.s:709    .rodata.__func__.7512:00000000 __func__.7512
C:\Users\jo\AppData\Local\Temp\ccEwiVcU.s:712    .rodata.__func__.7517:00000000 $d
C:\Users\jo\AppData\Local\Temp\ccEwiVcU.s:716    .rodata.__func__.7517:00000000 __func__.7517
C:\Users\jo\AppData\Local\Temp\ccEwiVcU.s:719    .rodata.__func__.7523:00000000 $d
C:\Users\jo\AppData\Local\Temp\ccEwiVcU.s:723    .rodata.__func__.7523:00000000 __func__.7523
C:\Users\jo\AppData\Local\Temp\ccEwiVcU.s:726    .rodata.__func__.7529:00000000 $d
C:\Users\jo\AppData\Local\Temp\ccEwiVcU.s:730    .rodata.__func__.7529:00000000 __func__.7529
                     .debug_frame:00000010 $d
C:\Users\jo\AppData\Local\Temp\ccEwiVcU.s:259    .text.rtcSetAlarm:00000028 $t
C:\Users\jo\AppData\Local\Temp\ccEwiVcU.s:340    .text.rtcGetAlarm:00000038 $t

UNDEFINED SYMBOLS
rtc_lld_init
rtc_lld_set_time
chSysHalt
rtc_lld_get_time
rtc_lld_set_alarm
rtc_lld_get_alarm
