ARM GAS  C:\Users\jo\AppData\Local\Temp\ccTY1OUW.s 			page 1


   1              		.syntax unified
   2              		.cpu cortex-m4
   3              		.fpu softvfp
   4              		.eabi_attribute 20, 1
   5              		.eabi_attribute 21, 1
   6              		.eabi_attribute 23, 3
   7              		.eabi_attribute 24, 1
   8              		.eabi_attribute 25, 1
   9              		.eabi_attribute 26, 1
  10              		.eabi_attribute 30, 2
  11              		.eabi_attribute 34, 1
  12              		.eabi_attribute 18, 4
  13              		.thumb
  14              		.file	"rtc_lld.c"
  15              		.text
  16              	.Ltext0:
  17              		.cfi_sections	.debug_frame
  18              		.section	.text.rtc_lld_init,"ax",%progbits
  19              		.align	2
  20              		.p2align 4,,15
  21              		.global	rtc_lld_init
  22              		.thumb
  23              		.thumb_func
  24              		.type	rtc_lld_init, %function
  25              	rtc_lld_init:
  26              	.LFB265:
  27              		.file 1 "../../../os/hal/ports/STM32/LLD/RTCv2/rtc_lld.c"
  28              		.loc 1 294 0
  29              		.cfi_startproc
  30              		@ args = 0, pretend = 0, frame = 0
  31              		@ frame_needed = 0, uses_anonymous_args = 0
  32 0000 10B5     		push	{r4, lr}
  33              		.cfi_def_cfa_offset 8
  34              		.cfi_offset 4, -8
  35              		.cfi_offset 14, -4
  36              		.loc 1 297 0
  37 0002 134C     		ldr	r4, .L9
  38 0004 2046     		mov	r0, r4
  39 0006 FFF7FEFF 		bl	rtcObjectInit
  40              	.LVL0:
  41              		.loc 1 300 0
  42 000a 124B     		ldr	r3, .L9+4
  43 000c 2360     		str	r3, [r4]
  44              		.loc 1 304 0
  45 000e 5322     		movs	r2, #83
  46              		.loc 1 303 0
  47 0010 CA21     		movs	r1, #202
  48 0012 5962     		str	r1, [r3, #36]
  49              		.loc 1 304 0
  50 0014 5A62     		str	r2, [r3, #36]
  51              		.loc 1 308 0
  52 0016 DA68     		ldr	r2, [r3, #12]
  53 0018 12F0100F 		tst	r2, #16
  54              	.LBB10:
  55              	.LBB11:
  56              		.loc 1 77 0
  57 001c DA68     		ldr	r2, [r3, #12]
ARM GAS  C:\Users\jo\AppData\Local\Temp\ccTY1OUW.s 			page 2


  58              	.LBE11:
  59              	.LBE10:
  60              		.loc 1 308 0
  61 001e 12D1     		bne	.L2
  62              	.LBB13:
  63              	.LBB12:
  64              		.loc 1 77 0
  65 0020 42F08002 		orr	r2, r2, #128
  66 0024 DA60     		str	r2, [r3, #12]
  67              	.L3:
  68              		.loc 1 78 0
  69 0026 DA68     		ldr	r2, [r3, #12]
  70 0028 0A49     		ldr	r1, .L9+4
  71 002a 5206     		lsls	r2, r2, #25
  72 002c FBD5     		bpl	.L3
  73              	.LBE12:
  74              	.LBE13:
  75              		.loc 1 314 0
  76 002e 0A4B     		ldr	r3, .L9+8
  77              		.loc 1 312 0
  78 0030 0020     		movs	r0, #0
  79              		.loc 1 313 0
  80 0032 8022     		movs	r2, #128
  81              		.loc 1 312 0
  82 0034 8860     		str	r0, [r1, #8]
  83              		.loc 1 313 0
  84 0036 CA60     		str	r2, [r1, #12]
  85              		.loc 1 314 0
  86 0038 0B61     		str	r3, [r1, #16]
  87              		.loc 1 315 0
  88 003a 0B61     		str	r3, [r1, #16]
  89              	.LBB14:
  90              	.LBB15:
  91              		.loc 1 89 0
  92 003c CB68     		ldr	r3, [r1, #12]
  93 003e 23F08003 		bic	r3, r3, #128
  94 0042 CB60     		str	r3, [r1, #12]
  95 0044 10BD     		pop	{r4, pc}
  96              	.L2:
  97              	.LBE15:
  98              	.LBE14:
  99              		.loc 1 320 0
 100 0046 22F02002 		bic	r2, r2, #32
 101 004a DA60     		str	r2, [r3, #12]
 102 004c 10BD     		pop	{r4, pc}
 103              	.L10:
 104 004e 00BF     		.align	2
 105              	.L9:
 106 0050 00000000 		.word	.LANCHOR0
 107 0054 00280040 		.word	1073752064
 108 0058 FF031F00 		.word	2032639
 109              		.cfi_endproc
 110              	.LFE265:
 111              		.size	rtc_lld_init, .-rtc_lld_init
 112 005c AFF30080 		.section	.text.rtc_lld_set_time,"ax",%progbits
 113              		.align	2
 114              		.p2align 4,,15
ARM GAS  C:\Users\jo\AppData\Local\Temp\ccTY1OUW.s 			page 3


 115              		.global	rtc_lld_set_time
 116              		.thumb
 117              		.thumb_func
 118              		.type	rtc_lld_set_time, %function
 119              	rtc_lld_set_time:
 120              	.LFB266:
 121              		.loc 1 334 0
 122              		.cfi_startproc
 123              		@ args = 0, pretend = 0, frame = 8
 124              		@ frame_needed = 0, uses_anonymous_args = 0
 125              	.LVL1:
 126 0000 2DE9F04F 		push	{r4, r5, r6, r7, r8, r9, r10, fp, lr}
 127              		.cfi_def_cfa_offset 36
 128              		.cfi_offset 4, -36
 129              		.cfi_offset 5, -32
 130              		.cfi_offset 6, -28
 131              		.cfi_offset 7, -24
 132              		.cfi_offset 8, -20
 133              		.cfi_offset 9, -16
 134              		.cfi_offset 10, -12
 135              		.cfi_offset 11, -8
 136              		.cfi_offset 14, -4
 137              	.LBB24:
 138              	.LBB25:
 139              		.loc 1 143 0
 140 0004 4C68     		ldr	r4, [r1, #4]
 141 0006 454D     		ldr	r5, .L16
 142              	.LBE25:
 143              	.LBE24:
 144              	.LBB42:
 145              	.LBB43:
 146              		.loc 1 183 0
 147 0008 4A78     		ldrb	r2, [r1, #1]	@ zero_extendqisi2
 148              		.loc 1 177 0
 149 000a 0E78     		ldrb	r6, [r1]	@ zero_extendqisi2
 150              		.loc 1 189 0
 151 000c 91F802A0 		ldrb	r10, [r1, #2]	@ zero_extendqisi2
 152              	.LBE43:
 153              	.LBE42:
 154              	.LBB60:
 155              	.LBB26:
 156              		.loc 1 147 0
 157 0010 434B     		ldr	r3, .L16+4
 158              		.loc 1 143 0
 159 0012 C4F31A01 		ubfx	r1, r4, #0, #27
 160              	.LVL2:
 161 0016 85FB0141 		smull	r4, r1, r5, r1
 162 001a 8909     		lsrs	r1, r1, #6
 163              	.LVL3:
 164              	.LBE26:
 165              	.LBE60:
 166              		.loc 1 334 0
 167 001c 83B0     		sub	sp, sp, #12
 168              		.cfi_def_cfa_offset 48
 169              	.LBB61:
 170              	.LBB44:
 171              		.loc 1 183 0
ARM GAS  C:\Users\jo\AppData\Local\Temp\ccTY1OUW.s 			page 4


 172 001e 1746     		mov	r7, r2
 173              	.LBE44:
 174              	.LBE61:
 175              	.LBB62:
 176              	.LBB27:
 177              		.loc 1 147 0
 178 0020 A3FB014C 		umull	r4, ip, r3, r1
 179              		.loc 1 148 0
 180 0024 3F4A     		ldr	r2, .L16+8
 181              	.LBE27:
 182              	.LBE62:
 183              	.LBB63:
 184              	.LBB45:
 185              		.loc 1 183 0
 186 0026 0197     		str	r7, [sp, #4]
 187 0028 07F00F0B 		and	fp, r7, #15
 188              	.LBE45:
 189              	.LBE63:
 190              	.LBB64:
 191              	.LBB28:
 192              		.loc 1 147 0
 193 002c 4FEADC0C 		lsr	ip, ip, #3
 194              	.LVL4:
 195              	.LBE28:
 196              	.LBE64:
 197              	.LBB65:
 198              	.LBB46:
 199              		.loc 1 184 0
 200 0030 A3FB0B59 		umull	r5, r9, r3, fp
 201              	.LBE46:
 202              	.LBE65:
 203              	.LBB66:
 204              	.LBB29:
 205              		.loc 1 148 0
 206 0034 A2FB0C57 		umull	r5, r7, r2, ip
 207 0038 BF08     		lsrs	r7, r7, #2
 208              	.LBE29:
 209              	.LBE66:
 210              	.LBB67:
 211              	.LBB47:
 212              		.loc 1 184 0
 213 003a 4FEAD909 		lsr	r9, r9, #3
 214              	.LBE47:
 215              	.LBE67:
 216              	.LBB68:
 217              	.LBB30:
 218              		.loc 1 152 0
 219 003e A3FB07E5 		umull	lr, r5, r3, r7
 220              	.LBE30:
 221              	.LBE68:
 222              	.LBB69:
 223              	.LBB48:
 224              		.loc 1 184 0
 225 0042 4FEA890E 		lsl	lr, r9, #2
 226              	.LBE48:
 227              	.LBE69:
 228              	.LBB70:
ARM GAS  C:\Users\jo\AppData\Local\Temp\ccTY1OUW.s 			page 5


 229              	.LBB31:
 230              		.loc 1 152 0
 231 0046 ED08     		lsrs	r5, r5, #3
 232              	.LBE31:
 233              	.LBE70:
 234              	.LBB71:
 235              	.LBB49:
 236              		.loc 1 189 0
 237 0048 0AF01F0A 		and	r10, r10, #31
 238              		.loc 1 184 0
 239 004c CE44     		add	lr, lr, r9
 240              		.loc 1 178 0
 241 004e A3FB0684 		umull	r8, r4, r3, r6
 242              	.LBE49:
 243              	.LBE71:
 244              	.LBB72:
 245              	.LBB32:
 246              		.loc 1 154 0
 247 0052 A2FB0582 		umull	r8, r2, r2, r5
 248              	.LBE32:
 249              	.LBE72:
 250              	.LBB73:
 251              	.LBB50:
 252              		.loc 1 184 0
 253 0056 ABEB4E0E 		sub	lr, fp, lr, lsl #1
 254              		.loc 1 190 0
 255 005a A3FB0AB8 		umull	fp, r8, r3, r10
 256              	.LBE50:
 257              	.LBE73:
 258              	.LBB74:
 259              	.LBB33:
 260              		.loc 1 146 0
 261 005e 0CEB8C0B 		add	fp, ip, ip, lsl #2
 262 0062 A1EB4B01 		sub	r1, r1, fp, lsl #1
 263              	.LVL5:
 264              		.loc 1 148 0
 265 0066 07EB470B 		add	fp, r7, r7, lsl #1
 266              	.LBE33:
 267              	.LBE74:
 268              	.LBB75:
 269              	.LBB51:
 270              		.loc 1 178 0
 271 006a E408     		lsrs	r4, r4, #3
 272              	.LBE51:
 273              	.LBE75:
 274              	.LBB76:
 275              	.LBB34:
 276              		.loc 1 148 0
 277 006c ACEB4B0C 		sub	ip, ip, fp, lsl #1
 278              	.LVL6:
 279 0070 41EA0C11 		orr	r1, r1, ip, lsl #4
 280              	.LBE34:
 281              	.LBE76:
 282              	.LBB77:
 283              	.LBB52:
 284              		.loc 1 178 0
 285 0074 04EB840B 		add	fp, r4, r4, lsl #2
ARM GAS  C:\Users\jo\AppData\Local\Temp\ccTY1OUW.s 			page 6


 286 0078 A6EB4B06 		sub	r6, r6, fp, lsl #1
 287              	.LBE52:
 288              	.LBE77:
 289              	.LBB78:
 290              	.LBB35:
 291              		.loc 1 148 0
 292 007c 0091     		str	r1, [sp]
 293              	.LBE35:
 294              	.LBE78:
 295              	.LBB79:
 296              	.LBB53:
 297              		.loc 1 190 0
 298 007e 4FEAD808 		lsr	r8, r8, #3
 299              		.loc 1 195 0
 300 0082 0199     		ldr	r1, [sp, #4]
 301              		.loc 1 184 0
 302 0084 4FEA0E2E 		lsl	lr, lr, #8
 303              	.LBE53:
 304              	.LBE79:
 305              	.LBB80:
 306              	.LBB36:
 307              		.loc 1 154 0
 308 0088 9208     		lsrs	r2, r2, #2
 309 008a 4EEA064E 		orr	lr, lr, r6, lsl #16
 310              	.LBE36:
 311              	.LBE80:
 312              	.LBB81:
 313              	.LBB54:
 314              		.loc 1 190 0
 315 008e 08EB8806 		add	r6, r8, r8, lsl #2
 316              	.LVL7:
 317              	.LBE54:
 318              	.LBE81:
 319              	.LBB82:
 320              	.LBB37:
 321              		.loc 1 152 0
 322 0092 05EB850C 		add	ip, r5, r5, lsl #2
 323              	.LBE37:
 324              	.LBE82:
 325              	.LBB83:
 326              	.LBB55:
 327              		.loc 1 190 0
 328 0096 AAEB460A 		sub	r10, r10, r6, lsl #1
 329              		.loc 1 180 0
 330 009a A3FB04B6 		umull	fp, r6, r3, r4
 331              	.LBE55:
 332              	.LBE83:
 333              	.LBB84:
 334              	.LBB38:
 335              		.loc 1 158 0
 336 009e A3FB02B3 		umull	fp, r3, r3, r2
 337              	.LBE38:
 338              	.LBE84:
 339              	.LBB85:
 340              	.LBB56:
 341              		.loc 1 195 0
 342 00a2 4FEA511B 		lsr	fp, r1, #5
ARM GAS  C:\Users\jo\AppData\Local\Temp\ccTY1OUW.s 			page 7


 343              	.LBE56:
 344              	.LBE85:
 345              	.LBB86:
 346              	.LBB39:
 347              		.loc 1 152 0
 348 00a6 0099     		ldr	r1, [sp]
 349              		.loc 1 158 0
 350 00a8 DB08     		lsrs	r3, r3, #3
 351              		.loc 1 152 0
 352 00aa A7EB4C07 		sub	r7, r7, ip, lsl #1
 353              	.LVL8:
 354 00ae 4EEA0A0A 		orr	r10, lr, r10
 355              		.loc 1 154 0
 356 00b2 02EB420E 		add	lr, r2, r2, lsl #1
 357 00b6 A5EB4E05 		sub	r5, r5, lr, lsl #1
 358              		.loc 1 152 0
 359 00ba 41EA0721 		orr	r1, r1, r7, lsl #8
 360              	.LVL9:
 361              		.loc 1 158 0
 362 00be 03EB830E 		add	lr, r3, r3, lsl #2
 363              		.loc 1 154 0
 364 00c2 41EA0531 		orr	r1, r1, r5, lsl #12
 365              	.LVL10:
 366              		.loc 1 158 0
 367 00c6 A2EB4E02 		sub	r2, r2, lr, lsl #1
 368              	.LVL11:
 369              	.LBE39:
 370              	.LBE86:
 371              	.LBB87:
 372              	.LBB57:
 373              		.loc 1 180 0
 374 00ca F608     		lsrs	r6, r6, #3
 375 00cc 06EB8606 		add	r6, r6, r6, lsl #2
 376              	.LBE57:
 377              	.LBE87:
 378              	.LBB88:
 379              	.LBB40:
 380              		.loc 1 158 0
 381 00d0 41EA0242 		orr	r2, r1, r2, lsl #16
 382              	.LBE40:
 383              	.LBE88:
 384              	.LBB89:
 385              	.LBB58:
 386              		.loc 1 180 0
 387 00d4 A4EB4604 		sub	r4, r4, r6, lsl #1
 388              	.LBE58:
 389              	.LBE89:
 390              		.loc 1 334 0
 391 00d8 0746     		mov	r7, r0
 392              	.LBB90:
 393              	.LBB41:
 394              		.loc 1 160 0
 395 00da 42EA0356 		orr	r6, r2, r3, lsl #20
 396              	.LVL12:
 397              	.LBE41:
 398              	.LBE90:
 399              		.loc 1 342 0
ARM GAS  C:\Users\jo\AppData\Local\Temp\ccTY1OUW.s 			page 8


 400 00de FFF7FEFF 		bl	chSysGetStatusAndLockX
 401              	.LVL13:
 402              	.LBB91:
 403              	.LBB92:
 404              		.loc 1 77 0
 405 00e2 114B     		ldr	r3, .L16+12
 406 00e4 4AEA4B3A 		orr	r10, r10, fp, lsl #13
 407 00e8 4AEA0455 		orr	r5, r10, r4, lsl #20
 408 00ec 1C68     		ldr	r4, [r3]
 409 00ee E368     		ldr	r3, [r4, #12]
 410 00f0 45EA0939 		orr	r9, r5, r9, lsl #12
 411 00f4 43F08003 		orr	r3, r3, #128
 412              	.LBE92:
 413              	.LBE91:
 414              	.LBB94:
 415              	.LBB59:
 416              		.loc 1 195 0
 417 00f8 49EA0815 		orr	r5, r9, r8, lsl #4
 418              	.LVL14:
 419              	.LBE59:
 420              	.LBE94:
 421              	.LBB95:
 422              	.LBB93:
 423              		.loc 1 77 0
 424 00fc E360     		str	r3, [r4, #12]
 425              	.L12:
 426              		.loc 1 78 0
 427 00fe E368     		ldr	r3, [r4, #12]
 428 0100 5B06     		lsls	r3, r3, #25
 429 0102 FCD5     		bpl	.L12
 430              	.LBE93:
 431              	.LBE95:
 432              		.loc 1 346 0
 433 0104 3B68     		ldr	r3, [r7]
 434 0106 1E60     		str	r6, [r3]
 435              		.loc 1 347 0
 436 0108 5D60     		str	r5, [r3, #4]
 437              	.LBB96:
 438              	.LBB97:
 439              		.loc 1 89 0
 440 010a E368     		ldr	r3, [r4, #12]
 441 010c 23F08003 		bic	r3, r3, #128
 442 0110 E360     		str	r3, [r4, #12]
 443              	.LBE97:
 444              	.LBE96:
 445              		.loc 1 352 0
 446 0112 03B0     		add	sp, sp, #12
 447              		.cfi_def_cfa_offset 36
 448              		@ sp needed
 449 0114 BDE8F04F 		pop	{r4, r5, r6, r7, r8, r9, r10, fp, lr}
 450              		.cfi_restore 14
 451              		.cfi_restore 11
 452              		.cfi_restore 10
 453              		.cfi_restore 9
 454              		.cfi_restore 8
 455              		.cfi_restore 7
 456              		.cfi_restore 6
ARM GAS  C:\Users\jo\AppData\Local\Temp\ccTY1OUW.s 			page 9


 457              		.cfi_restore 5
 458              		.cfi_restore 4
 459              		.cfi_def_cfa_offset 0
 460              	.LVL15:
 461              		.loc 1 351 0
 462 0118 FFF7FEBF 		b	chSysRestoreStatusX
 463              	.LVL16:
 464              	.L17:
 465              		.align	2
 466              	.L16:
 467 011c D34D6210 		.word	274877907
 468 0120 CDCCCCCC 		.word	-858993459
 469 0124 ABAAAAAA 		.word	-1431655765
 470 0128 00000000 		.word	.LANCHOR0
 471              		.cfi_endproc
 472              	.LFE266:
 473              		.size	rtc_lld_set_time, .-rtc_lld_set_time
 474 012c AFF30080 		.section	.text.rtc_lld_get_time,"ax",%progbits
 475              		.align	2
 476              		.p2align 4,,15
 477              		.global	rtc_lld_get_time
 478              		.thumb
 479              		.thumb_func
 480              		.type	rtc_lld_get_time, %function
 481              	rtc_lld_get_time:
 482              	.LFB267:
 483              		.loc 1 363 0
 484              		.cfi_startproc
 485              		@ args = 0, pretend = 0, frame = 0
 486              		@ frame_needed = 0, uses_anonymous_args = 0
 487              	.LVL17:
 488 0000 2DE9F84F 		push	{r3, r4, r5, r6, r7, r8, r9, r10, fp, lr}
 489              		.cfi_def_cfa_offset 40
 490              		.cfi_offset 3, -40
 491              		.cfi_offset 4, -36
 492              		.cfi_offset 5, -32
 493              		.cfi_offset 6, -28
 494              		.cfi_offset 7, -24
 495              		.cfi_offset 8, -20
 496              		.cfi_offset 9, -16
 497              		.cfi_offset 10, -12
 498              		.cfi_offset 11, -8
 499              		.cfi_offset 14, -4
 500              		.loc 1 363 0
 501 0004 0446     		mov	r4, r0
 502 0006 0E46     		mov	r6, r1
 503              		.loc 1 372 0
 504 0008 FFF7FEFF 		bl	chSysGetStatusAndLockX
 505              	.LVL18:
 506 000c 2268     		ldr	r2, [r4]
 507              	.L19:
 508              		.loc 1 376 0 discriminator 1
 509 000e D368     		ldr	r3, [r2, #12]
 510 0010 9B06     		lsls	r3, r3, #26
 511 0012 FCD5     		bpl	.L19
 512              		.loc 1 379 0
 513 0014 D2F828A0 		ldr	r10, [r2, #40]
ARM GAS  C:\Users\jo\AppData\Local\Temp\ccTY1OUW.s 			page 10


 514              	.LVL19:
 515              		.loc 1 381 0
 516 0018 1468     		ldr	r4, [r2]
 517              	.LVL20:
 518              		.loc 1 382 0
 519 001a 5568     		ldr	r5, [r2, #4]
 520              	.LVL21:
 521              		.loc 1 383 0
 522 001c D368     		ldr	r3, [r2, #12]
 523              	.LBB102:
 524              	.LBB103:
 525              		.loc 1 103 0
 526 001e DFF8C890 		ldr	r9, .L23+8
 527              		.loc 1 105 0
 528 0022 DFF8C880 		ldr	r8, .L23+12
 529              	.LBE103:
 530              	.LBE102:
 531              		.loc 1 383 0
 532 0026 23F02003 		bic	r3, r3, #32
 533 002a D360     		str	r3, [r2, #12]
 534              		.loc 1 386 0
 535 002c FFF7FEFF 		bl	chSysRestoreStatusX
 536              	.LVL22:
 537              	.LBB110:
 538              	.LBB104:
 539              		.loc 1 104 0
 540 0030 2B48     		ldr	r0, .L23
 541              	.LBE104:
 542              	.LBE110:
 543              		.loc 1 395 0
 544 0032 2C4A     		ldr	r2, .L23+4
 545              	.LBB111:
 546              	.LBB112:
 547              		.loc 1 124 0
 548 0034 7178     		ldrb	r1, [r6, #1]	@ zero_extendqisi2
 549              	.LBE112:
 550              	.LBE111:
 551              		.loc 1 399 0
 552 0036 D6F804E0 		ldr	lr, [r6, #4]
 553              	.LBB123:
 554              	.LBB113:
 555              		.loc 1 126 0
 556 003a B778     		ldrb	r7, [r6, #2]	@ zero_extendqisi2
 557              	.LBE113:
 558              	.LBE123:
 559              	.LBB124:
 560              	.LBB105:
 561              		.loc 1 104 0
 562 003c C4F30343 		ubfx	r3, r4, #16, #4
 563 0040 00FB03F3 		mul	r3, r0, r3
 564              		.loc 1 103 0
 565 0044 C4F30150 		ubfx	r0, r4, #20, #2
 566              	.LVL23:
 567              		.loc 1 104 0
 568 0048 09FB0033 		mla	r3, r9, r0, r3
 569              		.loc 1 108 0
 570 004c 04F00F00 		and	r0, r4, #15
ARM GAS  C:\Users\jo\AppData\Local\Temp\ccTY1OUW.s 			page 11


 571              	.LVL24:
 572 0050 4FF47A79 		mov	r9, #1000
 573              	.LVL25:
 574 0054 09FB0033 		mla	r3, r9, r0, r3
 575              	.LBE105:
 576              	.LBE124:
 577              	.LBB125:
 578              	.LBB114:
 579              		.loc 1 124 0
 580 0058 C5F3003C 		ubfx	ip, r5, #12, #1
 581              	.LBE114:
 582              	.LBE125:
 583              	.LBB126:
 584              	.LBB106:
 585              		.loc 1 105 0
 586 005c C4F30239 		ubfx	r9, r4, #12, #3
 587 0060 08FB0939 		mla	r9, r8, r9, r3
 588              		.loc 1 106 0
 589 0064 4EF6602B 		movw	fp, #60000
 590 0068 C4F30328 		ubfx	r8, r4, #8, #4
 591              	.LBE106:
 592              	.LBE126:
 593              	.LBB127:
 594              	.LBB115:
 595              		.loc 1 124 0
 596 006c 4FEA8C03 		lsl	r3, ip, #2
 597              	.LBE115:
 598              	.LBE127:
 599              	.LBB128:
 600              	.LBB107:
 601              		.loc 1 107 0
 602 0070 C4F30210 		ubfx	r0, r4, #4, #3
 603              	.LBE107:
 604              	.LBE128:
 605              	.LBB129:
 606              	.LBB116:
 607              		.loc 1 124 0
 608 0074 9C44     		add	ip, ip, r3
 609 0076 0BFB0894 		mla	r4, fp, r8, r9
 610              	.LVL26:
 611 007a C5F30323 		ubfx	r3, r5, #8, #4
 612              	.LBE116:
 613              	.LBE129:
 614              	.LBB130:
 615              	.LBB108:
 616              		.loc 1 107 0
 617 007e 42F21078 		movw	r8, #10000
 618              	.LBE108:
 619              	.LBE130:
 620              		.loc 1 395 0
 621 0082 02FB0AF2 		mul	r2, r2, r10
 622              	.LVL27:
 623              	.LBB131:
 624              	.LBB109:
 625              		.loc 1 108 0
 626 0086 08FB0044 		mla	r4, r8, r0, r4
 627              	.LBE109:
ARM GAS  C:\Users\jo\AppData\Local\Temp\ccTY1OUW.s 			page 12


 628              	.LBE131:
 629              		.loc 1 395 0
 630 008a 02F57922 		add	r2, r2, #1019904
 631              	.LBB132:
 632              	.LBB117:
 633              		.loc 1 124 0
 634 008e 03EB4C00 		add	r0, r3, ip, lsl #1
 635              		.loc 1 126 0
 636 0092 C5F30113 		ubfx	r3, r5, #4, #2
 637              	.LBE117:
 638              	.LBE132:
 639              		.loc 1 399 0
 640 0096 24F07844 		bic	r4, r4, #-134217728
 641              	.LBB133:
 642              	.LBB118:
 643              		.loc 1 124 0
 644 009a 60F30301 		bfi	r1, r0, #0, #4
 645              	.LBE118:
 646              	.LBE133:
 647              		.loc 1 395 0
 648 009e 02F61842 		addw	r2, r2, #3096
 649              	.LBB134:
 650              	.LBB119:
 651              		.loc 1 126 0
 652 00a2 03EB8300 		add	r0, r3, r3, lsl #2
 653 00a6 05F00F0C 		and	ip, r5, #15
 654              		.loc 1 122 0
 655 00aa C5F30353 		ubfx	r3, r5, #20, #4
 656              	.LBE119:
 657              	.LBE134:
 658              		.loc 1 399 0
 659 00ae 04EB9222 		add	r2, r4, r2, lsr #10
 660              	.LBB135:
 661              	.LBB120:
 662              		.loc 1 128 0
 663 00b2 4FEA5538 		lsr	r8, r5, #13
 664              		.loc 1 126 0
 665 00b6 0CEB4004 		add	r4, ip, r0, lsl #1
 666              		.loc 1 122 0
 667 00ba 03EB8300 		add	r0, r3, r3, lsl #2
 668 00be C5F30343 		ubfx	r3, r5, #16, #4
 669              	.LBE120:
 670              	.LBE135:
 671              		.loc 1 399 0
 672 00c2 62F31A0E 		bfi	lr, r2, #0, #27
 673              	.LBB136:
 674              	.LBB121:
 675              		.loc 1 128 0
 676 00c6 68F34711 		bfi	r1, r8, #5, #3
 677              		.loc 1 126 0
 678 00ca 64F30407 		bfi	r7, r4, #0, #5
 679              		.loc 1 122 0
 680 00ce 03EB4003 		add	r3, r3, r0, lsl #1
 681              	.LBE121:
 682              	.LBE136:
 683              		.loc 1 399 0
 684 00d2 C6F804E0 		str	lr, [r6, #4]
ARM GAS  C:\Users\jo\AppData\Local\Temp\ccTY1OUW.s 			page 13


 685              	.LVL28:
 686              	.LBB137:
 687              	.LBB122:
 688              		.loc 1 128 0
 689 00d6 7170     		strb	r1, [r6, #1]
 690              		.loc 1 126 0
 691 00d8 B770     		strb	r7, [r6, #2]
 692              		.loc 1 122 0
 693 00da 3370     		strb	r3, [r6]
 694 00dc BDE8F88F 		pop	{r3, r4, r5, r6, r7, r8, r9, r10, fp, pc}
 695              	.LVL29:
 696              	.L24:
 697              		.align	2
 698              	.L23:
 699 00e0 80EE3600 		.word	3600000
 700 00e4 18FCFFFF 		.word	-1000
 701 00e8 00512502 		.word	36000000
 702 00ec C0270900 		.word	600000
 703              	.LBE122:
 704              	.LBE137:
 705              		.cfi_endproc
 706              	.LFE267:
 707              		.size	rtc_lld_get_time, .-rtc_lld_get_time
 708              		.section	.text.rtc_lld_set_alarm,"ax",%progbits
 709              		.align	2
 710              		.p2align 4,,15
 711              		.global	rtc_lld_set_alarm
 712              		.thumb
 713              		.thumb_func
 714              		.type	rtc_lld_set_alarm, %function
 715              	rtc_lld_set_alarm:
 716              	.LFB268:
 717              		.loc 1 420 0
 718              		.cfi_startproc
 719              		@ args = 0, pretend = 0, frame = 0
 720              		@ frame_needed = 0, uses_anonymous_args = 0
 721              	.LVL30:
 722 0000 70B5     		push	{r4, r5, r6, lr}
 723              		.cfi_def_cfa_offset 16
 724              		.cfi_offset 4, -16
 725              		.cfi_offset 5, -12
 726              		.cfi_offset 6, -8
 727              		.cfi_offset 14, -4
 728              		.loc 1 420 0
 729 0002 0E46     		mov	r6, r1
 730 0004 0546     		mov	r5, r0
 731 0006 1446     		mov	r4, r2
 732              		.loc 1 424 0
 733 0008 FFF7FEFF 		bl	chSysGetStatusAndLockX
 734              	.LVL31:
 735              		.loc 1 426 0
 736 000c BEB9     		cbnz	r6, .L26
 737              		.loc 1 427 0
 738 000e 002C     		cmp	r4, #0
 739 0010 36D0     		beq	.L27
 740              		.loc 1 428 0
 741 0012 2968     		ldr	r1, [r5]
ARM GAS  C:\Users\jo\AppData\Local\Temp\ccTY1OUW.s 			page 14


 742 0014 8B68     		ldr	r3, [r1, #8]
 743 0016 23F48073 		bic	r3, r3, #256
 744 001a 8B60     		str	r3, [r1, #8]
 745              	.L28:
 746              		.loc 1 429 0 discriminator 1
 747 001c CB68     		ldr	r3, [r1, #12]
 748 001e DA07     		lsls	r2, r3, #31
 749 0020 FCD5     		bpl	.L28
 750              		.loc 1 431 0
 751 0022 2368     		ldr	r3, [r4]
 752 0024 CB61     		str	r3, [r1, #28]
 753              		.loc 1 432 0
 754 0026 8B68     		ldr	r3, [r1, #8]
 755 0028 43F48073 		orr	r3, r3, #256
 756 002c 8B60     		str	r3, [r1, #8]
 757              		.loc 1 433 0
 758 002e 8B68     		ldr	r3, [r1, #8]
 759 0030 43F48053 		orr	r3, r3, #4096
 760 0034 8B60     		str	r3, [r1, #8]
 761              	.L29:
 762              		.loc 1 459 0
 763 0036 BDE87040 		pop	{r4, r5, r6, lr}
 764              		.cfi_remember_state
 765              		.cfi_restore 14
 766              		.cfi_restore 6
 767              		.cfi_restore 5
 768              		.cfi_restore 4
 769              		.cfi_def_cfa_offset 0
 770              	.LVL32:
 771              		.loc 1 458 0
 772 003a FFF7FEBF 		b	chSysRestoreStatusX
 773              	.LVL33:
 774              	.L26:
 775              		.cfi_restore_state
 776              		.loc 1 442 0
 777 003e ACB1     		cbz	r4, .L30
 778              		.loc 1 443 0
 779 0040 2968     		ldr	r1, [r5]
 780 0042 8B68     		ldr	r3, [r1, #8]
 781 0044 23F40073 		bic	r3, r3, #512
 782 0048 8B60     		str	r3, [r1, #8]
 783              	.L31:
 784              		.loc 1 444 0 discriminator 1
 785 004a CB68     		ldr	r3, [r1, #12]
 786 004c 9B07     		lsls	r3, r3, #30
 787 004e FCD5     		bpl	.L31
 788              		.loc 1 446 0
 789 0050 2368     		ldr	r3, [r4]
 790 0052 0B62     		str	r3, [r1, #32]
 791              		.loc 1 447 0
 792 0054 8B68     		ldr	r3, [r1, #8]
 793 0056 43F40073 		orr	r3, r3, #512
 794 005a 8B60     		str	r3, [r1, #8]
 795              		.loc 1 448 0
 796 005c 8B68     		ldr	r3, [r1, #8]
 797 005e 43F40053 		orr	r3, r3, #8192
 798 0062 8B60     		str	r3, [r1, #8]
ARM GAS  C:\Users\jo\AppData\Local\Temp\ccTY1OUW.s 			page 15


 799              		.loc 1 459 0
 800 0064 BDE87040 		pop	{r4, r5, r6, lr}
 801              		.cfi_remember_state
 802              		.cfi_restore 4
 803              		.cfi_restore 5
 804              		.cfi_restore 6
 805              		.cfi_restore 14
 806              		.cfi_def_cfa_offset 0
 807              	.LVL34:
 808              		.loc 1 458 0
 809 0068 FFF7FEBF 		b	chSysRestoreStatusX
 810              	.LVL35:
 811              	.L30:
 812              		.cfi_restore_state
 813              		.loc 1 451 0
 814 006c 2B68     		ldr	r3, [r5]
 815 006e 9A68     		ldr	r2, [r3, #8]
 816 0070 22F40052 		bic	r2, r2, #8192
 817 0074 9A60     		str	r2, [r3, #8]
 818              		.loc 1 452 0
 819 0076 9A68     		ldr	r2, [r3, #8]
 820 0078 22F40072 		bic	r2, r2, #512
 821 007c 9A60     		str	r2, [r3, #8]
 822 007e DAE7     		b	.L29
 823              	.L27:
 824              		.loc 1 436 0
 825 0080 2B68     		ldr	r3, [r5]
 826 0082 9A68     		ldr	r2, [r3, #8]
 827 0084 22F48052 		bic	r2, r2, #4096
 828 0088 9A60     		str	r2, [r3, #8]
 829              		.loc 1 437 0
 830 008a 9A68     		ldr	r2, [r3, #8]
 831 008c 22F48072 		bic	r2, r2, #256
 832 0090 9A60     		str	r2, [r3, #8]
 833 0092 D0E7     		b	.L29
 834              		.cfi_endproc
 835              	.LFE268:
 836              		.size	rtc_lld_set_alarm, .-rtc_lld_set_alarm
 837 0094 AFF30080 		.section	.text.rtc_lld_get_alarm,"ax",%progbits
 837      AFF30080 
 837      AFF30080 
 838              		.align	2
 839              		.p2align 4,,15
 840              		.global	rtc_lld_get_alarm
 841              		.thumb
 842              		.thumb_func
 843              		.type	rtc_lld_get_alarm, %function
 844              	rtc_lld_get_alarm:
 845              	.LFB269:
 846              		.loc 1 473 0
 847              		.cfi_startproc
 848              		@ args = 0, pretend = 0, frame = 0
 849              		@ frame_needed = 0, uses_anonymous_args = 0
 850              		@ link register save eliminated.
 851              	.LVL36:
 852              		.loc 1 476 0
 853 0000 0368     		ldr	r3, [r0]
ARM GAS  C:\Users\jo\AppData\Local\Temp\ccTY1OUW.s 			page 16


 854              		.loc 1 475 0
 855 0002 11B1     		cbz	r1, .L40
 856              		.loc 1 479 0
 857 0004 1B6A     		ldr	r3, [r3, #32]
 858 0006 1360     		str	r3, [r2]
 859 0008 7047     		bx	lr
 860              	.L40:
 861              		.loc 1 476 0
 862 000a DB69     		ldr	r3, [r3, #28]
 863 000c 1360     		str	r3, [r2]
 864 000e 7047     		bx	lr
 865              		.cfi_endproc
 866              	.LFE269:
 867              		.size	rtc_lld_get_alarm, .-rtc_lld_get_alarm
 868              		.section	.text.rtcSTM32SetPeriodicWakeup,"ax",%progbits
 869              		.align	2
 870              		.p2align 4,,15
 871              		.global	rtcSTM32SetPeriodicWakeup
 872              		.thumb
 873              		.thumb_func
 874              		.type	rtcSTM32SetPeriodicWakeup, %function
 875              	rtcSTM32SetPeriodicWakeup:
 876              	.LFB270:
 877              		.loc 1 495 0
 878              		.cfi_startproc
 879              		@ args = 0, pretend = 0, frame = 0
 880              		@ frame_needed = 0, uses_anonymous_args = 0
 881              	.LVL37:
 882 0000 70B5     		push	{r4, r5, r6, lr}
 883              		.cfi_def_cfa_offset 16
 884              		.cfi_offset 4, -16
 885              		.cfi_offset 5, -12
 886              		.cfi_offset 6, -8
 887              		.cfi_offset 14, -4
 888              		.loc 1 495 0
 889 0002 0D46     		mov	r5, r1
 890 0004 0646     		mov	r6, r0
 891              		.loc 1 499 0
 892 0006 FFF7FEFF 		bl	chSysGetStatusAndLockX
 893              	.LVL38:
 894 000a 0446     		mov	r4, r0
 895              	.LVL39:
 896              		.loc 1 501 0
 897 000c F5B1     		cbz	r5, .L42
 898              		.loc 1 502 0 discriminator 1
 899 000e 2B68     		ldr	r3, [r5]
 900 0010 B3F5403F 		cmp	r3, #196608
 901 0014 28D0     		beq	.L50
 902 0016 1946     		mov	r1, r3
 903              	.LVL40:
 904              	.L43:
 905              		.loc 1 504 0
 906 0018 3268     		ldr	r2, [r6]
 907 001a 9368     		ldr	r3, [r2, #8]
 908 001c 23F48063 		bic	r3, r3, #1024
 909 0020 9360     		str	r3, [r2, #8]
 910              	.L44:
ARM GAS  C:\Users\jo\AppData\Local\Temp\ccTY1OUW.s 			page 17


 911              		.loc 1 505 0 discriminator 1
 912 0022 D368     		ldr	r3, [r2, #12]
 913 0024 5B07     		lsls	r3, r3, #29
 914 0026 FCD5     		bpl	.L44
 915              		.loc 1 507 0
 916 0028 8BB2     		uxth	r3, r1
 917              		.loc 1 508 0
 918 002a C1F30241 		ubfx	r1, r1, #16, #3
 919              		.loc 1 507 0
 920 002e 5361     		str	r3, [r2, #20]
 921              		.loc 1 508 0
 922 0030 9160     		str	r1, [r2, #8]
 923              		.loc 1 509 0
 924 0032 9368     		ldr	r3, [r2, #8]
 925 0034 43F48043 		orr	r3, r3, #16384
 926 0038 9360     		str	r3, [r2, #8]
 927              		.loc 1 510 0
 928 003a 9368     		ldr	r3, [r2, #8]
 929 003c 43F48063 		orr	r3, r3, #1024
 930              		.loc 1 518 0
 931 0040 2046     		mov	r0, r4
 932              		.loc 1 510 0
 933 0042 9360     		str	r3, [r2, #8]
 934              		.loc 1 519 0
 935 0044 BDE87040 		pop	{r4, r5, r6, lr}
 936              		.cfi_remember_state
 937              		.cfi_restore 14
 938              		.cfi_restore 6
 939              		.cfi_restore 5
 940              		.cfi_restore 4
 941              		.cfi_def_cfa_offset 0
 942              	.LVL41:
 943              		.loc 1 518 0
 944 0048 FFF7FEBF 		b	chSysRestoreStatusX
 945              	.LVL42:
 946              	.L42:
 947              		.cfi_restore_state
 948              		.loc 1 513 0
 949 004c 3368     		ldr	r3, [r6]
 950 004e 9A68     		ldr	r2, [r3, #8]
 951 0050 22F48042 		bic	r2, r2, #16384
 952 0054 9A60     		str	r2, [r3, #8]
 953              		.loc 1 514 0
 954 0056 9A68     		ldr	r2, [r3, #8]
 955 0058 22F48062 		bic	r2, r2, #1024
 956              		.loc 1 518 0
 957 005c 2046     		mov	r0, r4
 958              	.LVL43:
 959              		.loc 1 514 0
 960 005e 9A60     		str	r2, [r3, #8]
 961              		.loc 1 519 0
 962 0060 BDE87040 		pop	{r4, r5, r6, lr}
 963              		.cfi_remember_state
 964              		.cfi_restore 4
 965              		.cfi_restore 5
 966              		.cfi_restore 6
 967              		.cfi_restore 14
ARM GAS  C:\Users\jo\AppData\Local\Temp\ccTY1OUW.s 			page 18


 968              		.cfi_def_cfa_offset 0
 969              	.LVL44:
 970              		.loc 1 518 0
 971 0064 FFF7FEBF 		b	chSysRestoreStatusX
 972              	.LVL45:
 973              	.L50:
 974              		.cfi_restore_state
 975              		.loc 1 502 0 discriminator 2
 976 0068 0248     		ldr	r0, .L51
 977              	.LVL46:
 978 006a FFF7FEFF 		bl	chSysHalt
 979              	.LVL47:
 980 006e 2968     		ldr	r1, [r5]
 981 0070 D2E7     		b	.L43
 982              	.L52:
 983 0072 00BF     		.align	2
 984              	.L51:
 985 0074 00000000 		.word	.LANCHOR1
 986              		.cfi_endproc
 987              	.LFE270:
 988              		.size	rtcSTM32SetPeriodicWakeup, .-rtcSTM32SetPeriodicWakeup
 989 0078 AFF30080 		.section	.text.rtcSTM32GetPeriodicWakeup,"ax",%progbits
 989      AFF30080 
 990              		.align	2
 991              		.p2align 4,,15
 992              		.global	rtcSTM32GetPeriodicWakeup
 993              		.thumb
 994              		.thumb_func
 995              		.type	rtcSTM32GetPeriodicWakeup, %function
 996              	rtcSTM32GetPeriodicWakeup:
 997              	.LFB271:
 998              		.loc 1 531 0
 999              		.cfi_startproc
 1000              		@ args = 0, pretend = 0, frame = 0
 1001              		@ frame_needed = 0, uses_anonymous_args = 0
 1002              	.LVL48:
 1003 0000 38B5     		push	{r3, r4, r5, lr}
 1004              		.cfi_def_cfa_offset 16
 1005              		.cfi_offset 3, -16
 1006              		.cfi_offset 4, -12
 1007              		.cfi_offset 5, -8
 1008              		.cfi_offset 14, -4
 1009              		.loc 1 531 0
 1010 0002 0546     		mov	r5, r0
 1011 0004 0C46     		mov	r4, r1
 1012              		.loc 1 535 0
 1013 0006 FFF7FEFF 		bl	chSysGetStatusAndLockX
 1014              	.LVL49:
 1015              		.loc 1 538 0
 1016 000a 2B68     		ldr	r3, [r5]
 1017 000c 5A69     		ldr	r2, [r3, #20]
 1018              		.loc 1 539 0
 1019 000e 9B68     		ldr	r3, [r3, #8]
 1020 0010 03F00703 		and	r3, r3, #7
 1021 0014 42EA0343 		orr	r3, r2, r3, lsl #16
 1022 0018 2360     		str	r3, [r4]
 1023              		.loc 1 543 0
ARM GAS  C:\Users\jo\AppData\Local\Temp\ccTY1OUW.s 			page 19


 1024 001a BDE83840 		pop	{r3, r4, r5, lr}
 1025              		.cfi_restore 14
 1026              		.cfi_restore 5
 1027              		.cfi_restore 4
 1028              		.cfi_restore 3
 1029              		.cfi_def_cfa_offset 0
 1030              	.LVL50:
 1031              		.loc 1 542 0
 1032 001e FFF7FEBF 		b	chSysRestoreStatusX
 1033              	.LVL51:
 1034              		.cfi_endproc
 1035              	.LFE271:
 1036              		.size	rtcSTM32GetPeriodicWakeup, .-rtcSTM32GetPeriodicWakeup
 1037              		.global	RTCD1
 1038 0022 00BFAFF3 		.section	.bss.RTCD1,"aw",%nobits
 1038      0080AFF3 
 1038      0080AFF3 
 1038      0080
 1039              		.align	2
 1040              		.set	.LANCHOR0,. + 0
 1041              		.type	RTCD1, %object
 1042              		.size	RTCD1, 4
 1043              	RTCD1:
 1044 0000 00000000 		.space	4
 1045              		.section	.rodata.__func__.7574,"a",%progbits
 1046              		.align	2
 1047              		.set	.LANCHOR1,. + 0
 1048              		.type	__func__.7574, %object
 1049              		.size	__func__.7574, 26
 1050              	__func__.7574:
 1051 0000 72746353 		.ascii	"rtcSTM32SetPeriodicWakeup\000"
 1051      544D3332 
 1051      53657450 
 1051      6572696F 
 1051      64696357 
 1052 001a 0000     		.text
 1053              	.Letext0:
 1054              		.file 2 "c:\\program files\\gnu tools arm embedded\\4.9 2014q4\\lib\\gcc\\arm-none-eabi\\4.9.3\\in
 1055              		.file 3 "c:\\program files\\gnu tools arm embedded\\4.9 2014q4\\arm-none-eabi\\include\\machine\\_
 1056              		.file 4 "c:\\program files\\gnu tools arm embedded\\4.9 2014q4\\arm-none-eabi\\include\\stdint.h"
 1057              		.file 5 "../../../os/rt/ports/ARMCMx/compilers/GCC/chtypes.h"
 1058              		.file 6 "../../../os/rt/include/chsystypes.h"
 1059              		.file 7 "../../../os/rt/include/chschd.h"
 1060              		.file 8 "../../../os/ext/CMSIS/ST/stm32f407xx.h"
 1061              		.file 9 "../../../os/rt/ports/ARMCMx/chcore.h"
 1062              		.file 10 "../../../os/rt/ports/ARMCMx/chcore_v7m.h"
 1063              		.file 11 "../../../os/rt/include/chdebug.h"
 1064              		.file 12 "../../../os/rt/include/chtm.h"
 1065              		.file 13 "../../../os/rt/include/chsem.h"
 1066              		.file 14 "../../../os/rt/include/chmtx.h"
 1067              		.file 15 "../../../os/hal/include/rtc.h"
 1068              		.file 16 "../../../os/hal/ports/STM32/LLD/RTCv2/rtc_lld.h"
 1069              		.file 17 "../../../os/ext/CMSIS/include/core_cm4.h"
 1070              		.file 18 "../../../os/rt/include/chsys.h"