ARM GAS  C:\Users\jo\AppData\Local\Temp\ccDsJqTW.s 			page 1


   1              		.syntax unified
   2              		.cpu cortex-m4
   3              		.fpu softvfp
   4              		.eabi_attribute 20, 1
   5              		.eabi_attribute 21, 1
   6              		.eabi_attribute 23, 3
   7              		.eabi_attribute 24, 1
   8              		.eabi_attribute 25, 1
   9              		.eabi_attribute 26, 1
  10              		.eabi_attribute 30, 2
  11              		.eabi_attribute 34, 1
  12              		.eabi_attribute 18, 4
  13              		.thumb
  14              		.file	"sha256.c"
  15              		.text
  16              	.Ltext0:
  17              		.cfi_sections	.debug_frame
  18              		.section	.text.sha256_init,"ax",%progbits
  19              		.align	2
  20              		.p2align 4,,15
  21              		.global	sha256_init
  22              		.thumb
  23              		.thumb_func
  24              		.type	sha256_init, %function
  25              	sha256_init:
  26              	.LFB1:
  27              		.file 1 "../../../ext/mbedtls-1.3.11/library/sha256.c"
  28              		.loc 1 84 0
  29              		.cfi_startproc
  30              		@ args = 0, pretend = 0, frame = 0
  31              		@ frame_needed = 0, uses_anonymous_args = 0
  32              		@ link register save eliminated.
  33              	.LVL0:
  34              		.loc 1 85 0
  35 0000 0021     		movs	r1, #0
  36 0002 EC22     		movs	r2, #236
  37 0004 FFF7FEBF 		b	memset
  38              	.LVL1:
  39              		.cfi_endproc
  40              	.LFE1:
  41              		.size	sha256_init, .-sha256_init
  42 0008 AFF30080 		.section	.text.sha256_free,"ax",%progbits
  42      AFF30080 
  43              		.align	2
  44              		.p2align 4,,15
  45              		.global	sha256_free
  46              		.thumb
  47              		.thumb_func
  48              		.type	sha256_free, %function
  49              	sha256_free:
  50              	.LFB2:
  51              		.loc 1 89 0
  52              		.cfi_startproc
  53              		@ args = 0, pretend = 0, frame = 0
  54              		@ frame_needed = 0, uses_anonymous_args = 0
  55              		@ link register save eliminated.
  56              	.LVL2:
ARM GAS  C:\Users\jo\AppData\Local\Temp\ccDsJqTW.s 			page 2


  57              		.loc 1 90 0
  58 0000 30B1     		cbz	r0, .L2
  59 0002 00F1EC02 		add	r2, r0, #236
  60              	.LBB74:
  61              	.LBB75:
  62              		.loc 1 55 0
  63 0006 0023     		movs	r3, #0
  64              	.LVL3:
  65              	.L4:
  66 0008 0370     		strb	r3, [r0]
  67              	.LVL4:
  68 000a 0130     		adds	r0, r0, #1
  69              	.LVL5:
  70 000c 9042     		cmp	r0, r2
  71 000e FBD1     		bne	.L4
  72              	.LVL6:
  73              	.L2:
  74 0010 7047     		bx	lr
  75              	.LBE75:
  76              	.LBE74:
  77              		.cfi_endproc
  78              	.LFE2:
  79              		.size	sha256_free, .-sha256_free
  80 0012 00BFAFF3 		.section	.text.sha256_starts,"ax",%progbits
  80      0080AFF3 
  80      0080AFF3 
  80      0080
  81              		.align	2
  82              		.p2align 4,,15
  83              		.global	sha256_starts
  84              		.thumb
  85              		.thumb_func
  86              		.type	sha256_starts, %function
  87              	sha256_starts:
  88              	.LFB3:
  89              		.loc 1 100 0
  90              		.cfi_startproc
  91              		@ args = 0, pretend = 0, frame = 0
  92              		@ frame_needed = 0, uses_anonymous_args = 0
  93              	.LVL7:
  94              		.loc 1 101 0
  95 0000 0023     		movs	r3, #0
  96              		.loc 1 100 0
  97 0002 F0B5     		push	{r4, r5, r6, r7, lr}
  98              		.cfi_def_cfa_offset 20
  99              		.cfi_offset 4, -20
 100              		.cfi_offset 5, -16
 101              		.cfi_offset 6, -12
 102              		.cfi_offset 7, -8
 103              		.cfi_offset 14, -4
 104              		.loc 1 101 0
 105 0004 0360     		str	r3, [r0]
 106              		.loc 1 102 0
 107 0006 4360     		str	r3, [r0, #4]
 108              		.loc 1 104 0
 109 0008 B1B1     		cbz	r1, .L13
 110              		.loc 1 119 0
ARM GAS  C:\Users\jo\AppData\Local\Temp\ccDsJqTW.s 			page 3


 111 000a DFF874C0 		ldr	ip, .L14+48
 112              		.loc 1 120 0
 113 000e DFF874E0 		ldr	lr, .L14+52
 114              		.loc 1 121 0
 115 0012 0F4F     		ldr	r7, .L14
 116              		.loc 1 122 0
 117 0014 0F4E     		ldr	r6, .L14+4
 118              		.loc 1 123 0
 119 0016 104D     		ldr	r5, .L14+8
 120              		.loc 1 124 0
 121 0018 104C     		ldr	r4, .L14+12
 122              		.loc 1 125 0
 123 001a 114A     		ldr	r2, .L14+16
 124              		.loc 1 126 0
 125 001c 114B     		ldr	r3, .L14+20
 126              	.L12:
 127              		.loc 1 119 0
 128 001e C0F808C0 		str	ip, [r0, #8]
 129              		.loc 1 120 0
 130 0022 C0F80CE0 		str	lr, [r0, #12]
 131              		.loc 1 121 0
 132 0026 0761     		str	r7, [r0, #16]
 133              		.loc 1 122 0
 134 0028 4661     		str	r6, [r0, #20]
 135              		.loc 1 123 0
 136 002a 8561     		str	r5, [r0, #24]
 137              		.loc 1 124 0
 138 002c C461     		str	r4, [r0, #28]
 139              		.loc 1 125 0
 140 002e 0262     		str	r2, [r0, #32]
 141              		.loc 1 126 0
 142 0030 4362     		str	r3, [r0, #36]
 143              		.loc 1 129 0
 144 0032 C0F8E810 		str	r1, [r0, #232]
 145 0036 F0BD     		pop	{r4, r5, r6, r7, pc}
 146              	.L13:
 147              		.loc 1 107 0
 148 0038 DFF84CC0 		ldr	ip, .L14+56
 149              		.loc 1 108 0
 150 003c DFF84CE0 		ldr	lr, .L14+60
 151              		.loc 1 109 0
 152 0040 094F     		ldr	r7, .L14+24
 153              		.loc 1 110 0
 154 0042 0A4E     		ldr	r6, .L14+28
 155              		.loc 1 111 0
 156 0044 0A4D     		ldr	r5, .L14+32
 157              		.loc 1 112 0
 158 0046 0B4C     		ldr	r4, .L14+36
 159              		.loc 1 113 0
 160 0048 0B4A     		ldr	r2, .L14+40
 161              		.loc 1 114 0
 162 004a 0C4B     		ldr	r3, .L14+44
 163 004c E7E7     		b	.L12
 164              	.L15:
 165 004e 00BF     		.align	2
 166              	.L14:
 167 0050 17DD7030 		.word	812702999
ARM GAS  C:\Users\jo\AppData\Local\Temp\ccDsJqTW.s 			page 4


 168 0054 39590EF7 		.word	-150054599
 169 0058 310BC0FF 		.word	-4191439
 170 005c 11155868 		.word	1750603025
 171 0060 A78FF964 		.word	1694076839
 172 0064 A44FFABE 		.word	-1090891868
 173 0068 72F36E3C 		.word	1013904242
 174 006c 3AF54FA5 		.word	-1521486534
 175 0070 7F520E51 		.word	1359893119
 176 0074 8C68059B 		.word	-1694144372
 177 0078 ABD9831F 		.word	528734635
 178 007c 19CDE05B 		.word	1541459225
 179 0080 D89E05C1 		.word	-1056596264
 180 0084 07D57C36 		.word	914150663
 181 0088 67E6096A 		.word	1779033703
 182 008c 85AE67BB 		.word	-1150833019
 183              		.cfi_endproc
 184              	.LFE3:
 185              		.size	sha256_starts, .-sha256_starts
 186              		.section	.text.sha256_process,"ax",%progbits
 187              		.align	2
 188              		.p2align 4,,15
 189              		.global	sha256_process
 190              		.thumb
 191              		.thumb_func
 192              		.type	sha256_process, %function
 193              	sha256_process:
 194              	.LFB4:
 195              		.loc 1 133 0
 196              		.cfi_startproc
 197              		@ args = 0, pretend = 0, frame = 256
 198              		@ frame_needed = 0, uses_anonymous_args = 0
 199              	.LVL8:
 200 0000 2DE9F04F 		push	{r4, r5, r6, r7, r8, r9, r10, fp, lr}
 201              		.cfi_def_cfa_offset 36
 202              		.cfi_offset 4, -36
 203              		.cfi_offset 5, -32
 204              		.cfi_offset 6, -28
 205              		.cfi_offset 7, -24
 206              		.cfi_offset 8, -20
 207              		.cfi_offset 9, -16
 208              		.cfi_offset 10, -12
 209              		.cfi_offset 11, -8
 210              		.cfi_offset 14, -4
 211 0004 C1B0     		sub	sp, sp, #260
 212              		.cfi_def_cfa_offset 296
 213              		.loc 1 137 0
 214 0006 4C78     		ldrb	r4, [r1, #1]	@ zero_extendqisi2
 215 0008 0194     		str	r4, [sp, #4]
 216              		.loc 1 140 0
 217 000a CC7B     		ldrb	r4, [r1, #15]	@ zero_extendqisi2
 218 000c 0394     		str	r4, [sp, #12]
 219 000e 8C7B     		ldrb	r4, [r1, #14]	@ zero_extendqisi2
 220 0010 0494     		str	r4, [sp, #16]
 221              		.loc 1 141 0
 222 0012 0C7C     		ldrb	r4, [r1, #16]	@ zero_extendqisi2
 223 0014 0594     		str	r4, [sp, #20]
 224 0016 4C7C     		ldrb	r4, [r1, #17]	@ zero_extendqisi2
ARM GAS  C:\Users\jo\AppData\Local\Temp\ccDsJqTW.s 			page 5


 225 0018 0694     		str	r4, [sp, #24]
 226 001a CC7C     		ldrb	r4, [r1, #19]	@ zero_extendqisi2
 227 001c 0794     		str	r4, [sp, #28]
 228 001e 8C7C     		ldrb	r4, [r1, #18]	@ zero_extendqisi2
 229 0020 0894     		str	r4, [sp, #32]
 230              		.loc 1 142 0
 231 0022 0C7D     		ldrb	r4, [r1, #20]	@ zero_extendqisi2
 232              		.loc 1 140 0
 233 0024 0B7B     		ldrb	r3, [r1, #12]	@ zero_extendqisi2
 234              		.loc 1 142 0
 235 0026 0994     		str	r4, [sp, #36]
 236 0028 4C7D     		ldrb	r4, [r1, #21]	@ zero_extendqisi2
 237              		.loc 1 137 0
 238 002a 91F800B0 		ldrb	fp, [r1]	@ zero_extendqisi2
 239 002e CF78     		ldrb	r7, [r1, #3]	@ zero_extendqisi2
 240              		.loc 1 138 0
 241 0030 91F80490 		ldrb	r9, [r1, #4]	@ zero_extendqisi2
 242 0034 CE79     		ldrb	r6, [r1, #7]	@ zero_extendqisi2
 243              		.loc 1 139 0
 244 0036 91F808C0 		ldrb	ip, [r1, #8]	@ zero_extendqisi2
 245 003a CD7A     		ldrb	r5, [r1, #11]	@ zero_extendqisi2
 246              		.loc 1 133 0
 247 003c 1A90     		str	r0, [sp, #104]
 248              		.loc 1 137 0
 249 003e 91F802A0 		ldrb	r10, [r1, #2]	@ zero_extendqisi2
 250              		.loc 1 138 0
 251 0042 4879     		ldrb	r0, [r1, #5]	@ zero_extendqisi2
 252              	.LVL9:
 253 0044 91F80680 		ldrb	r8, [r1, #6]	@ zero_extendqisi2
 254              		.loc 1 139 0
 255 0048 4A7A     		ldrb	r2, [r1, #9]	@ zero_extendqisi2
 256 004a 91F80AE0 		ldrb	lr, [r1, #10]	@ zero_extendqisi2
 257              		.loc 1 140 0
 258 004e 0293     		str	r3, [sp, #8]
 259 0050 4B7B     		ldrb	r3, [r1, #13]	@ zero_extendqisi2
 260              		.loc 1 142 0
 261 0052 0A94     		str	r4, [sp, #40]
 262 0054 CC7D     		ldrb	r4, [r1, #23]	@ zero_extendqisi2
 263 0056 0B94     		str	r4, [sp, #44]
 264 0058 8C7D     		ldrb	r4, [r1, #22]	@ zero_extendqisi2
 265 005a 0E94     		str	r4, [sp, #56]
 266              		.loc 1 143 0
 267 005c 0C7E     		ldrb	r4, [r1, #24]	@ zero_extendqisi2
 268 005e 1094     		str	r4, [sp, #64]
 269 0060 4C7E     		ldrb	r4, [r1, #25]	@ zero_extendqisi2
 270 0062 1194     		str	r4, [sp, #68]
 271 0064 CC7E     		ldrb	r4, [r1, #27]	@ zero_extendqisi2
 272 0066 1294     		str	r4, [sp, #72]
 273 0068 8C7E     		ldrb	r4, [r1, #26]	@ zero_extendqisi2
 274 006a 1394     		str	r4, [sp, #76]
 275              		.loc 1 144 0
 276 006c 0C7F     		ldrb	r4, [r1, #28]	@ zero_extendqisi2
 277 006e 1494     		str	r4, [sp, #80]
 278 0070 4C7F     		ldrb	r4, [r1, #29]	@ zero_extendqisi2
 279 0072 1B94     		str	r4, [sp, #108]
 280 0074 CC7F     		ldrb	r4, [r1, #31]	@ zero_extendqisi2
 281 0076 1E94     		str	r4, [sp, #120]
ARM GAS  C:\Users\jo\AppData\Local\Temp\ccDsJqTW.s 			page 6


 282 0078 8C7F     		ldrb	r4, [r1, #30]	@ zero_extendqisi2
 283 007a 1F94     		str	r4, [sp, #124]
 284              		.loc 1 145 0
 285 007c 91F82040 		ldrb	r4, [r1, #32]	@ zero_extendqisi2
 286 0080 2094     		str	r4, [sp, #128]
 287 0082 91F82140 		ldrb	r4, [r1, #33]	@ zero_extendqisi2
 288 0086 2194     		str	r4, [sp, #132]
 289 0088 91F82340 		ldrb	r4, [r1, #35]	@ zero_extendqisi2
 290 008c 2294     		str	r4, [sp, #136]
 291 008e 91F82240 		ldrb	r4, [r1, #34]	@ zero_extendqisi2
 292 0092 2394     		str	r4, [sp, #140]
 293              		.loc 1 146 0
 294 0094 91F82440 		ldrb	r4, [r1, #36]	@ zero_extendqisi2
 295 0098 2494     		str	r4, [sp, #144]
 296              		.loc 1 138 0
 297 009a 0004     		lsls	r0, r0, #16
 298              		.loc 1 146 0
 299 009c 91F82540 		ldrb	r4, [r1, #37]	@ zero_extendqisi2
 300 00a0 2594     		str	r4, [sp, #148]
 301              		.loc 1 138 0
 302 00a2 40EA0960 		orr	r0, r0, r9, lsl #24
 303              		.loc 1 137 0
 304 00a6 019C     		ldr	r4, [sp, #4]
 305 00a8 3043     		orrs	r0, r0, r6
 306              		.loc 1 138 0
 307 00aa 40EA0828 		orr	r8, r0, r8, lsl #8
 308              		.loc 1 137 0
 309 00ae 2404     		lsls	r4, r4, #16
 310 00b0 44EA0B64 		orr	r4, r4, fp, lsl #24
 311              		.loc 1 146 0
 312 00b4 91F827B0 		ldrb	fp, [r1, #39]	@ zero_extendqisi2
 313              	.LVL10:
 314              		.loc 1 138 0
 315 00b8 CDF80480 		str	r8, [sp, #4]
 316              	.LVL11:
 317              		.loc 1 148 0
 318 00bc 91F82E80 		ldrb	r8, [r1, #46]	@ zero_extendqisi2
 319              		.loc 1 147 0
 320 00c0 91F82B90 		ldrb	r9, [r1, #43]	@ zero_extendqisi2
 321              		.loc 1 148 0
 322 00c4 CDF8BC80 		str	r8, [sp, #188]
 323              		.loc 1 139 0
 324 00c8 1204     		lsls	r2, r2, #16
 325              		.loc 1 149 0
 326 00ca 91F83080 		ldrb	r8, [r1, #48]	@ zero_extendqisi2
 327              		.loc 1 146 0
 328 00ce CDF898B0 		str	fp, [sp, #152]
 329              		.loc 1 147 0
 330 00d2 CDF8A890 		str	r9, [sp, #168]
 331              		.loc 1 146 0
 332 00d6 91F826B0 		ldrb	fp, [r1, #38]	@ zero_extendqisi2
 333              		.loc 1 147 0
 334 00da 91F82A90 		ldrb	r9, [r1, #42]	@ zero_extendqisi2
 335              		.loc 1 149 0
 336 00de CDF8C080 		str	r8, [sp, #192]
 337              		.loc 1 139 0
 338 00e2 42EA0C62 		orr	r2, r2, ip, lsl #24
ARM GAS  C:\Users\jo\AppData\Local\Temp\ccDsJqTW.s 			page 7


 339              		.loc 1 149 0
 340 00e6 91F83180 		ldrb	r8, [r1, #49]	@ zero_extendqisi2
 341              		.loc 1 150 0
 342 00ea 91F834C0 		ldrb	ip, [r1, #52]	@ zero_extendqisi2
 343              		.loc 1 146 0
 344 00ee CDF89CB0 		str	fp, [sp, #156]
 345 00f2 3C43     		orrs	r4, r4, r7
 346              		.loc 1 147 0
 347 00f4 91F828B0 		ldrb	fp, [r1, #40]	@ zero_extendqisi2
 348 00f8 CDF8AC90 		str	r9, [sp, #172]
 349              		.loc 1 149 0
 350 00fc CDF8C480 		str	r8, [sp, #196]
 351              		.loc 1 148 0
 352 0100 91F82C90 		ldrb	r9, [r1, #44]	@ zero_extendqisi2
 353              		.loc 1 149 0
 354 0104 91F83380 		ldrb	r8, [r1, #51]	@ zero_extendqisi2
 355              		.loc 1 148 0
 356 0108 91F82F00 		ldrb	r0, [r1, #47]	@ zero_extendqisi2
 357              		.loc 1 147 0
 358 010c CDF8A0B0 		str	fp, [sp, #160]
 359 0110 2A43     		orrs	r2, r2, r5
 360 0112 91F829B0 		ldrb	fp, [r1, #41]	@ zero_extendqisi2
 361              		.loc 1 148 0
 362 0116 CDF8B090 		str	r9, [sp, #176]
 363              		.loc 1 137 0
 364 011a 44EA0A2A 		orr	r10, r4, r10, lsl #8
 365              		.loc 1 148 0
 366 011e 91F82D90 		ldrb	r9, [r1, #45]	@ zero_extendqisi2
 367              		.loc 1 149 0
 368 0122 CDF8C880 		str	r8, [sp, #200]
 369              		.loc 1 150 0
 370 0126 CDF8D0C0 		str	ip, [sp, #208]
 371              		.loc 1 149 0
 372 012a 91F83280 		ldrb	r8, [r1, #50]	@ zero_extendqisi2
 373              		.loc 1 150 0
 374 012e 91F835C0 		ldrb	ip, [r1, #53]	@ zero_extendqisi2
 375              		.loc 1 147 0
 376 0132 CDF8A4B0 		str	fp, [sp, #164]
 377              		.loc 1 139 0
 378 0136 42EA0E2E 		orr	lr, r2, lr, lsl #8
 379              		.loc 1 137 0
 380 013a CDF834A0 		str	r10, [sp, #52]
 381              	.LVL12:
 382              		.loc 1 148 0
 383 013e CDF8B490 		str	r9, [sp, #180]
 384 0142 2E90     		str	r0, [sp, #184]
 385              		.loc 1 149 0
 386 0144 CDF8CC80 		str	r8, [sp, #204]
 387              		.loc 1 150 0
 388 0148 CDF8D4C0 		str	ip, [sp, #212]
 389              	.LVL13:
 390              		.loc 1 139 0
 391 014c CDF830E0 		str	lr, [sp, #48]
 392              	.LVL14:
 393              		.loc 1 151 0
 394 0150 91F838E0 		ldrb	lr, [r1, #56]	@ zero_extendqisi2
 395 0154 CDF8E0E0 		str	lr, [sp, #224]
ARM GAS  C:\Users\jo\AppData\Local\Temp\ccDsJqTW.s 			page 8


 396 0158 91F839E0 		ldrb	lr, [r1, #57]	@ zero_extendqisi2
 397 015c CDF8E4E0 		str	lr, [sp, #228]
 398 0160 91F83BE0 		ldrb	lr, [r1, #59]	@ zero_extendqisi2
 399 0164 CDF8E8E0 		str	lr, [sp, #232]
 400 0168 91F83AE0 		ldrb	lr, [r1, #58]	@ zero_extendqisi2
 401 016c CDF8ECE0 		str	lr, [sp, #236]
 402              		.loc 1 152 0
 403 0170 91F83CE0 		ldrb	lr, [r1, #60]	@ zero_extendqisi2
 404 0174 CDF8F0E0 		str	lr, [sp, #240]
 405 0178 91F83DE0 		ldrb	lr, [r1, #61]	@ zero_extendqisi2
 406              		.loc 1 150 0
 407 017c 91F837C0 		ldrb	ip, [r1, #55]	@ zero_extendqisi2
 408              		.loc 1 152 0
 409 0180 CDF8F4E0 		str	lr, [sp, #244]
 410 0184 91F83FE0 		ldrb	lr, [r1, #63]	@ zero_extendqisi2
 411              		.loc 1 150 0
 412 0188 CDF8D8C0 		str	ip, [sp, #216]
 413              		.loc 1 152 0
 414 018c CDF8F8E0 		str	lr, [sp, #248]
 415              		.loc 1 150 0
 416 0190 91F836C0 		ldrb	ip, [r1, #54]	@ zero_extendqisi2
 417              		.loc 1 152 0
 418 0194 91F83EE0 		ldrb	lr, [r1, #62]	@ zero_extendqisi2
 419              		.loc 1 179 0
 420 0198 1A99     		ldr	r1, [sp, #104]
 421              	.LVL15:
 422              		.loc 1 140 0
 423 019a 029E     		ldr	r6, [sp, #8]
 424              		.loc 1 179 0
 425 019c 8A68     		ldr	r2, [r1, #8]
 426              		.loc 1 152 0
 427 019e CDF8FCE0 		str	lr, [sp, #252]
 428              		.loc 1 140 0
 429 01a2 1B04     		lsls	r3, r3, #16
 430 01a4 43EA0663 		orr	r3, r3, r6, lsl #24
 431 01a8 039E     		ldr	r6, [sp, #12]
 432              		.loc 1 141 0
 433 01aa 059F     		ldr	r7, [sp, #20]
 434              		.loc 1 150 0
 435 01ac CDF8DCC0 		str	ip, [sp, #220]
 436              		.loc 1 179 0
 437 01b0 1046     		mov	r0, r2
 438              		.loc 1 180 0
 439 01b2 0A46     		mov	r2, r1
 440 01b4 C968     		ldr	r1, [r1, #12]
 441 01b6 3343     		orrs	r3, r3, r6
 442              		.loc 1 140 0
 443 01b8 049E     		ldr	r6, [sp, #16]
 444              		.loc 1 180 0
 445 01ba 0D46     		mov	r5, r1
 446              		.loc 1 181 0
 447 01bc 1169     		ldr	r1, [r2, #16]
 448 01be 1991     		str	r1, [sp, #100]
 449              		.loc 1 140 0
 450 01c0 43EA062E 		orr	lr, r3, r6, lsl #8
 451              		.loc 1 183 0
 452 01c4 1146     		mov	r1, r2
ARM GAS  C:\Users\jo\AppData\Local\Temp\ccDsJqTW.s 			page 9


 453 01c6 9369     		ldr	r3, [r2, #24]
 454              		.loc 1 141 0
 455 01c8 069A     		ldr	r2, [sp, #24]
 456              		.loc 1 140 0
 457 01ca CDF83CE0 		str	lr, [sp, #60]
 458              	.LVL16:
 459              		.loc 1 141 0
 460 01ce 1404     		lsls	r4, r2, #16
 461              		.loc 1 185 0
 462 01d0 0A46     		mov	r2, r1
 463              		.loc 1 141 0
 464 01d2 44EA0764 		orr	r4, r4, r7, lsl #24
 465 01d6 079F     		ldr	r7, [sp, #28]
 466              	.LVL17:
 467              		.loc 1 185 0
 468 01d8 096A     		ldr	r1, [r1, #32]
 469 01da 1791     		str	r1, [sp, #92]
 470              		.loc 1 184 0
 471 01dc D169     		ldr	r1, [r2, #28]
 472              		.loc 1 188 0
 473 01de 1895     		str	r5, [sp, #96]
 474 01e0 3C43     		orrs	r4, r4, r7
 475              		.loc 1 184 0
 476 01e2 0F46     		mov	r7, r1
 477              	.LVL18:
 478              		.loc 1 141 0
 479 01e4 0899     		ldr	r1, [sp, #32]
 480              		.loc 1 188 0
 481 01e6 1697     		str	r7, [sp, #88]
 482              		.loc 1 141 0
 483 01e8 44EA012E 		orr	lr, r4, r1, lsl #8
 484              		.loc 1 186 0
 485 01ec 1146     		mov	r1, r2
 486 01ee 526A     		ldr	r2, [r2, #36]
 487              		.loc 1 141 0
 488 01f0 CDF818E0 		str	lr, [sp, #24]
 489              	.LVL19:
 490              		.loc 1 183 0
 491 01f4 1E46     		mov	r6, r3
 492              		.loc 1 186 0
 493 01f6 1446     		mov	r4, r2
 494              		.loc 1 188 0
 495 01f8 4FEAB613 		ror	r3, r6, #6
 496 01fc DB4A     		ldr	r2, .L18
 497 01fe 1D94     		str	r4, [sp, #116]
 498 0200 83EAF623 		eor	r3, r3, r6, ror #11
 499 0204 2244     		add	r2, r2, r4
 500 0206 83EA7663 		eor	r3, r3, r6, ror #25
 501 020a 1344     		add	r3, r3, r2
 502              		.loc 1 142 0
 503 020c 0A9A     		ldr	r2, [sp, #40]
 504 020e 0E9C     		ldr	r4, [sp, #56]
 505              		.loc 1 189 0
 506 0210 1596     		str	r6, [sp, #84]
 507              		.loc 1 142 0
 508 0212 4FEA024A 		lsl	r10, r2, #16
 509 0216 099A     		ldr	r2, [sp, #36]
ARM GAS  C:\Users\jo\AppData\Local\Temp\ccDsJqTW.s 			page 10


 510 0218 4AEA026A 		orr	r10, r10, r2, lsl #24
 511              		.loc 1 188 0
 512 021c 179A     		ldr	r2, [sp, #92]
 513 021e 5740     		eors	r7, r7, r2
 514 0220 3740     		ands	r7, r7, r6
 515 0222 5740     		eors	r7, r7, r2
 516 0224 1F44     		add	r7, r7, r3
 517 0226 0D9B     		ldr	r3, [sp, #52]
 518 0228 1F44     		add	r7, r7, r3
 519              	.LVL20:
 520 022a 0B9B     		ldr	r3, [sp, #44]
 521 022c 4AEA030A 		orr	r10, r10, r3
 522 0230 199B     		ldr	r3, [sp, #100]
 523 0232 45EA0002 		orr	r2, r5, r0
 524              		.loc 1 142 0
 525 0236 4AEA042E 		orr	lr, r10, r4, lsl #8
 526              		.loc 1 188 0
 527 023a 1A40     		ands	r2, r2, r3
 528 023c 4FEAB003 		ror	r3, r0, #2
 529              		.loc 1 142 0
 530 0240 CDF81CE0 		str	lr, [sp, #28]
 531              	.LVL21:
 532              		.loc 1 188 0
 533 0244 83EA7033 		eor	r3, r3, r0, ror #13
 534 0248 AE46     		mov	lr, r5
 535 024a 0446     		mov	r4, r0
 536 024c 83EAB053 		eor	r3, r3, r0, ror #22
 537 0250 0EEA0000 		and	r0, lr, r0
 538 0254 1043     		orrs	r0, r0, r2
 539              		.loc 1 182 0
 540 0256 4A69     		ldr	r2, [r1, #20]
 541              		.loc 1 188 0
 542 0258 1C92     		str	r2, [sp, #112]
 543 025a 1844     		add	r0, r0, r3
 544 025c 3844     		add	r0, r0, r7
 545 025e C44B     		ldr	r3, .L18+4
 546              		.loc 1 143 0
 547 0260 119D     		ldr	r5, [sp, #68]
 548              		.loc 1 188 0
 549 0262 1744     		add	r7, r7, r2
 550 0264 179A     		ldr	r2, [sp, #92]
 551 0266 1344     		add	r3, r3, r2
 552 0268 019A     		ldr	r2, [sp, #4]
 553 026a 9918     		adds	r1, r3, r2
 554              		.loc 1 143 0
 555 026c 109B     		ldr	r3, [sp, #64]
 556 026e 2A04     		lsls	r2, r5, #16
 557 0270 42EA0362 		orr	r2, r2, r3, lsl #24
 558              		.loc 1 189 0
 559 0274 169B     		ldr	r3, [sp, #88]
 560 0276 83EA060E 		eor	lr, r3, r6
 561 027a 07EA0E0E 		and	lr, r7, lr
 562 027e 129E     		ldr	r6, [sp, #72]
 563 0280 8EEA030E 		eor	lr, lr, r3
 564 0284 1D46     		mov	r5, r3
 565 0286 3243     		orrs	r2, r2, r6
 566 0288 01EB0E03 		add	r3, r1, lr
ARM GAS  C:\Users\jo\AppData\Local\Temp\ccDsJqTW.s 			page 11


 567 028c 189E     		ldr	r6, [sp, #96]
 568 028e 4FEAB71E 		ror	lr, r7, #6
 569 0292 40EA0401 		orr	r1, r0, r4
 570 0296 8EEAF72E 		eor	lr, lr, r7, ror #11
 571 029a 3140     		ands	r1, r1, r6
 572 029c 8EEA776E 		eor	lr, lr, r7, ror #25
 573              		.loc 1 143 0
 574 02a0 139E     		ldr	r6, [sp, #76]
 575              		.loc 1 189 0
 576 02a2 9E44     		add	lr, lr, r3
 577 02a4 4FEAB003 		ror	r3, r0, #2
 578              		.loc 1 143 0
 579 02a8 42EA062C 		orr	ip, r2, r6, lsl #8
 580              		.loc 1 189 0
 581 02ac 83EA7033 		eor	r3, r3, r0, ror #13
 582 02b0 00EA0406 		and	r6, r0, r4
 583 02b4 83EAB053 		eor	r3, r3, r0, ror #22
 584 02b8 0E43     		orrs	r6, r6, r1
 585 02ba 1E44     		add	r6, r6, r3
 586 02bc 199B     		ldr	r3, [sp, #100]
 587 02be 0C9A     		ldr	r2, [sp, #48]
 588              		.loc 1 144 0
 589 02c0 1B99     		ldr	r1, [sp, #108]
 590              		.loc 1 143 0
 591 02c2 CDF84CC0 		str	ip, [sp, #76]
 592              	.LVL22:
 593              		.loc 1 189 0
 594 02c6 06EB0E0A 		add	r10, r6, lr
 595 02ca 9E44     		add	lr, lr, r3
 596 02cc A94B     		ldr	r3, .L18+8
 597 02ce 2B44     		add	r3, r3, r5
 598 02d0 1344     		add	r3, r3, r2
 599              		.loc 1 144 0
 600 02d2 0A04     		lsls	r2, r1, #16
 601 02d4 1499     		ldr	r1, [sp, #80]
 602              	.LVL23:
 603              		.loc 1 190 0
 604 02d6 159E     		ldr	r6, [sp, #84]
 605              		.loc 1 144 0
 606 02d8 1F9D     		ldr	r5, [sp, #124]
 607 02da 42EA0162 		orr	r2, r2, r1, lsl #24
 608              		.loc 1 190 0
 609 02de 87EA0601 		eor	r1, r7, r6
 610 02e2 0EEA0101 		and	r1, lr, r1
 611 02e6 7140     		eors	r1, r1, r6
 612 02e8 0B44     		add	r3, r3, r1
 613 02ea 4FEABE11 		ror	r1, lr, #6
 614 02ee 81EAFE21 		eor	r1, r1, lr, ror #11
 615 02f2 81EA7E61 		eor	r1, r1, lr, ror #25
 616 02f6 1944     		add	r1, r1, r3
 617 02f8 4AEA0003 		orr	r3, r10, r0
 618 02fc 2646     		mov	r6, r4
 619 02fe 2340     		ands	r3, r3, r4
 620 0300 1E9C     		ldr	r4, [sp, #120]
 621              		.loc 1 191 0
 622 0302 1B96     		str	r6, [sp, #108]
 623 0304 2243     		orrs	r2, r2, r4
ARM GAS  C:\Users\jo\AppData\Local\Temp\ccDsJqTW.s 			page 12


 624              		.loc 1 190 0
 625 0306 4FEABA04 		ror	r4, r10, #2
 626              		.loc 1 144 0
 627 030a 42EA052C 		orr	ip, r2, r5, lsl #8
 628              		.loc 1 190 0
 629 030e 84EA7A34 		eor	r4, r4, r10, ror #13
 630 0312 0AEA0005 		and	r5, r10, r0
 631 0316 84EABA54 		eor	r4, r4, r10, ror #22
 632 031a 1D43     		orrs	r5, r5, r3
 633 031c 189B     		ldr	r3, [sp, #96]
 634 031e 159A     		ldr	r2, [sp, #84]
 635              		.loc 1 144 0
 636 0320 CDF820C0 		str	ip, [sp, #32]
 637              	.LVL24:
 638              		.loc 1 190 0
 639 0324 2544     		add	r5, r5, r4
 640 0326 0D44     		add	r5, r5, r1
 641 0328 1944     		add	r1, r1, r3
 642 032a 934B     		ldr	r3, .L18+12
 643 032c 0F9C     		ldr	r4, [sp, #60]
 644              		.loc 1 191 0
 645 032e 8EEA070C 		eor	ip, lr, r7
 646 0332 1344     		add	r3, r3, r2
 647 0334 01EA0C0C 		and	ip, r1, ip
 648 0338 1A19     		adds	r2, r3, r4
 649 033a 8CEA070C 		eor	ip, ip, r7
 650 033e 02EB0C03 		add	r3, r2, ip
 651              		.loc 1 145 0
 652 0342 219C     		ldr	r4, [sp, #132]
 653              		.loc 1 191 0
 654 0344 4FEAB11C 		ror	ip, r1, #6
 655 0348 8CEAF12C 		eor	ip, ip, r1, ror #11
 656              		.loc 1 145 0
 657 034c 4FEA0448 		lsl	r8, r4, #16
 658              		.loc 1 191 0
 659 0350 8CEA716C 		eor	ip, ip, r1, ror #25
 660              		.loc 1 145 0
 661 0354 209C     		ldr	r4, [sp, #128]
 662              		.loc 1 191 0
 663 0356 9C44     		add	ip, ip, r3
 664 0358 229B     		ldr	r3, [sp, #136]
 665              		.loc 1 145 0
 666 035a 48EA0468 		orr	r8, r8, r4, lsl #24
 667              		.loc 1 191 0
 668 035e 45EA0A04 		orr	r4, r5, r10
 669 0362 0440     		ands	r4, r4, r0
 670 0364 4FEAB502 		ror	r2, r5, #2
 671 0368 48EA0308 		orr	r8, r8, r3
 672 036c 05EA0A03 		and	r3, r5, r10
 673 0370 82EA7532 		eor	r2, r2, r5, ror #13
 674 0374 2343     		orrs	r3, r3, r4
 675              		.loc 1 145 0
 676 0376 239C     		ldr	r4, [sp, #140]
 677              		.loc 1 191 0
 678 0378 82EAB552 		eor	r2, r2, r5, ror #22
 679              		.loc 1 145 0
 680 037c 48EA0428 		orr	r8, r8, r4, lsl #8
ARM GAS  C:\Users\jo\AppData\Local\Temp\ccDsJqTW.s 			page 13


 681              		.loc 1 191 0
 682 0380 1344     		add	r3, r3, r2
 683 0382 069C     		ldr	r4, [sp, #24]
 684 0384 7D4A     		ldr	r2, .L18+16
 685              		.loc 1 145 0
 686 0386 CDF85080 		str	r8, [sp, #80]
 687 038a 2244     		add	r2, r2, r4
 688              		.loc 1 191 0
 689 038c 6344     		add	r3, r3, ip
 690 038e 1744     		add	r7, r7, r2
 691 0390 B444     		add	ip, ip, r6
 692              		.loc 1 192 0
 693 0392 81EA0E02 		eor	r2, r1, lr
 694 0396 0CEA0202 		and	r2, ip, r2
 695 039a 82EA0E04 		eor	r4, r2, lr
 696 039e 3A19     		adds	r2, r7, r4
 697 03a0 43EA0509 		orr	r9, r3, r5
 698 03a4 4FEABC1B 		ror	fp, ip, #6
 699 03a8 4FEAB304 		ror	r4, r3, #2
 700 03ac 09EA0A09 		and	r9, r9, r10
 701 03b0 03EA0508 		and	r8, r3, r5
 702 03b4 8BEAFC2B 		eor	fp, fp, ip, ror #11
 703 03b8 84EA7334 		eor	r4, r4, r3, ror #13
 704              		.loc 1 146 0
 705 03bc 259E     		ldr	r6, [sp, #148]
 706              		.loc 1 192 0
 707 03be 8BEA7C6B 		eor	fp, fp, ip, ror #25
 708 03c2 84EAB354 		eor	r4, r4, r3, ror #22
 709 03c6 49EA0808 		orr	r8, r9, r8
 710 03ca 02EB0B07 		add	r7, r2, fp
 711 03ce 08EB040B 		add	fp, r8, r4
 712 03d2 BB44     		add	fp, fp, r7
 713 03d4 3844     		add	r0, r0, r7
 714              		.loc 1 146 0
 715 03d6 3204     		lsls	r2, r6, #16
 716 03d8 079F     		ldr	r7, [sp, #28]
 717 03da 249E     		ldr	r6, [sp, #144]
 718 03dc 684C     		ldr	r4, .L18+20
 719 03de 42EA0662 		orr	r2, r2, r6, lsl #24
 720 03e2 3C44     		add	r4, r4, r7
 721 03e4 269E     		ldr	r6, [sp, #152]
 722 03e6 A644     		add	lr, lr, r4
 723              		.loc 1 193 0
 724 03e8 8CEA0104 		eor	r4, ip, r1
 725 03ec 42EA0608 		orr	r8, r2, r6
 726 03f0 0440     		ands	r4, r4, r0
 727 03f2 4FEAB012 		ror	r2, r0, #6
 728 03f6 4C40     		eors	r4, r4, r1
 729 03f8 82EAF022 		eor	r2, r2, r0, ror #11
 730 03fc 82EA7062 		eor	r2, r2, r0, ror #25
 731 0400 7444     		add	r4, r4, lr
 732 0402 04EB020E 		add	lr, r4, r2
 733              		.loc 1 146 0
 734 0406 279C     		ldr	r4, [sp, #156]
 735              		.loc 1 193 0
 736 0408 0AEB0E07 		add	r7, r10, lr
 737 040c 3E46     		mov	r6, r7
ARM GAS  C:\Users\jo\AppData\Local\Temp\ccDsJqTW.s 			page 14


 738              		.loc 1 146 0
 739 040e 48EA0428 		orr	r8, r8, r4, lsl #8
 740              		.loc 1 193 0
 741 0412 4BEA0307 		orr	r7, fp, r3
 742 0416 4FEABB04 		ror	r4, fp, #2
 743 041a 2F40     		ands	r7, r7, r5
 744 041c 0BEA0302 		and	r2, fp, r3
 745 0420 84EA7B34 		eor	r4, r4, fp, ror #13
 746 0424 84EABB54 		eor	r4, r4, fp, ror #22
 747 0428 3A43     		orrs	r2, r2, r7
 748 042a 2244     		add	r2, r2, r4
 749 042c 139F     		ldr	r7, [sp, #76]
 750 042e 554C     		ldr	r4, .L18+24
 751              		.loc 1 146 0
 752 0430 CDF80C80 		str	r8, [sp, #12]
 753 0434 3C44     		add	r4, r4, r7
 754 0436 2144     		add	r1, r1, r4
 755              		.loc 1 194 0
 756 0438 80EA0C04 		eor	r4, r0, ip
 757 043c 3440     		ands	r4, r4, r6
 758 043e 84EA0C04 		eor	r4, r4, ip
 759 0442 0C44     		add	r4, r4, r1
 760              		.loc 1 147 0
 761 0444 2999     		ldr	r1, [sp, #164]
 762              		.loc 1 194 0
 763 0446 0296     		str	r6, [sp, #8]
 764 0448 4FEAB618 		ror	r8, r6, #6
 765              		.loc 1 193 0
 766 044c 7244     		add	r2, r2, lr
 767              		.loc 1 194 0
 768 044e 88EAF628 		eor	r8, r8, r6, ror #11
 769              		.loc 1 147 0
 770 0452 4FEA014E 		lsl	lr, r1, #16
 771 0456 2899     		ldr	r1, [sp, #160]
 772              		.loc 1 194 0
 773 0458 88EA7668 		eor	r8, r8, r6, ror #25
 774 045c 42EA0B07 		orr	r7, r2, fp
 775              		.loc 1 147 0
 776 0460 4EEA016E 		orr	lr, lr, r1, lsl #24
 777              		.loc 1 194 0
 778 0464 04EB0801 		add	r1, r4, r8
 779 0468 4FEAB204 		ror	r4, r2, #2
 780 046c 1F40     		ands	r7, r7, r3
 781 046e 02EA0B08 		and	r8, r2, fp
 782 0472 84EA7234 		eor	r4, r4, r2, ror #13
 783 0476 84EAB254 		eor	r4, r4, r2, ror #22
 784 047a 47EA0808 		orr	r8, r7, r8
 785 047e A044     		add	r8, r8, r4
 786 0480 8844     		add	r8, r8, r1
 787 0482 0D44     		add	r5, r5, r1
 788 0484 089C     		ldr	r4, [sp, #32]
 789 0486 4049     		ldr	r1, .L18+28
 790 0488 2A9E     		ldr	r6, [sp, #168]
 791 048a 2144     		add	r1, r1, r4
 792              		.loc 1 195 0
 793 048c 029C     		ldr	r4, [sp, #8]
 794 048e 8C44     		add	ip, ip, r1
ARM GAS  C:\Users\jo\AppData\Local\Temp\ccDsJqTW.s 			page 15


 795 0490 84EA0001 		eor	r1, r4, r0
 796 0494 4EEA060E 		orr	lr, lr, r6
 797 0498 2940     		ands	r1, r1, r5
 798              		.loc 1 147 0
 799 049a 2B9E     		ldr	r6, [sp, #172]
 800              		.loc 1 195 0
 801 049c 4FEAB51A 		ror	r10, r5, #6
 802 04a0 4140     		eors	r1, r1, r0
 803 04a2 8AEAF52A 		eor	r10, r10, r5, ror #11
 804              		.loc 1 147 0
 805 04a6 4EEA062E 		orr	lr, lr, r6, lsl #8
 806              		.loc 1 195 0
 807 04aa 8AEA756A 		eor	r10, r10, r5, ror #25
 808 04ae 6144     		add	r1, r1, ip
 809 04b0 01EB0A0C 		add	ip, r1, r10
 810              		.loc 1 147 0
 811 04b4 CDF828E0 		str	lr, [sp, #40]
 812              		.loc 1 195 0
 813 04b8 4FEAB801 		ror	r1, r8, #2
 814 04bc 48EA020E 		orr	lr, r8, r2
 815 04c0 0EEA0B0E 		and	lr, lr, fp
 816 04c4 08EA0204 		and	r4, r8, r2
 817 04c8 81EA7831 		eor	r1, r1, r8, ror #13
 818 04cc 81EAB851 		eor	r1, r1, r8, ror #22
 819 04d0 4EEA0404 		orr	r4, lr, r4
 820              		.loc 1 148 0
 821 04d4 2D9E     		ldr	r6, [sp, #180]
 822              		.loc 1 195 0
 823 04d6 04EB010A 		add	r10, r4, r1
 824 04da 149C     		ldr	r4, [sp, #80]
 825 04dc 2B49     		ldr	r1, .L18+32
 826              		.loc 1 148 0
 827 04de 3704     		lsls	r7, r6, #16
 828 04e0 2144     		add	r1, r1, r4
 829 04e2 2C9E     		ldr	r6, [sp, #176]
 830              		.loc 1 196 0
 831 04e4 029C     		ldr	r4, [sp, #8]
 832              		.loc 1 195 0
 833 04e6 6344     		add	r3, r3, ip
 834 04e8 0844     		add	r0, r0, r1
 835              		.loc 1 196 0
 836 04ea 85EA0401 		eor	r1, r5, r4
 837 04ee 1940     		ands	r1, r1, r3
 838              		.loc 1 195 0
 839 04f0 E244     		add	r10, r10, ip
 840              		.loc 1 196 0
 841 04f2 6140     		eors	r1, r1, r4
 842 04f4 4AEA080E 		orr	lr, r10, r8
 843 04f8 0844     		add	r0, r0, r1
 844 04fa 4FEAB319 		ror	r9, r3, #6
 845 04fe 4FEABA01 		ror	r1, r10, #2
 846 0502 0EEA020E 		and	lr, lr, r2
 847 0506 0AEA0804 		and	r4, r10, r8
 848 050a 89EAF329 		eor	r9, r9, r3, ror #11
 849 050e 81EA7A31 		eor	r1, r1, r10, ror #13
 850 0512 89EA7369 		eor	r9, r9, r3, ror #25
 851 0516 81EABA51 		eor	r1, r1, r10, ror #22
ARM GAS  C:\Users\jo\AppData\Local\Temp\ccDsJqTW.s 			page 16


 852 051a 4EEA0404 		orr	r4, lr, r4
 853              		.loc 1 148 0
 854 051e 47EA0667 		orr	r7, r7, r6, lsl #24
 855 0522 2E9E     		ldr	r6, [sp, #184]
 856              		.loc 1 196 0
 857 0524 4844     		add	r0, r0, r9
 858 0526 04EB0109 		add	r9, r4, r1
 859 052a 8144     		add	r9, r9, r0
 860 052c 8344     		add	fp, fp, r0
 861 052e 3743     		orrs	r7, r7, r6
 862 0530 0398     		ldr	r0, [sp, #12]
 863              		.loc 1 148 0
 864 0532 2F9E     		ldr	r6, [sp, #188]
 865 0534 1649     		ldr	r1, .L18+36
 866 0536 329C     		ldr	r4, [sp, #200]
 867 0538 47EA062C 		orr	ip, r7, r6, lsl #8
 868 053c 0144     		add	r1, r1, r0
 869              		.loc 1 197 0
 870 053e 83EA0506 		eor	r6, r3, r5
 871 0542 0298     		ldr	r0, [sp, #8]
 872              		.loc 1 148 0
 873 0544 CDF82CC0 		str	ip, [sp, #44]
 874              		.loc 1 197 0
 875 0548 0BEA0606 		and	r6, fp, r6
 876 054c 4FEABB1E 		ror	lr, fp, #6
 877 0550 0144     		add	r1, r1, r0
 878 0552 8EEAFB2E 		eor	lr, lr, fp, ror #11
 879 0556 86EA0500 		eor	r0, r6, r5
 880 055a 0E18     		adds	r6, r1, r0
 881 055c 8EEA7B6E 		eor	lr, lr, fp, ror #25
 882 0560 06EB0E01 		add	r1, r6, lr
 883              		.loc 1 149 0
 884 0564 319E     		ldr	r6, [sp, #196]
 885 0566 3098     		ldr	r0, [sp, #192]
 886 0568 3604     		lsls	r6, r6, #16
 887 056a 13E0     		b	.L19
 888              	.L20:
 889              		.align	2
 890              	.L18:
 891 056c 982F8A42 		.word	1116352408
 892 0570 91443771 		.word	1899447441
 893 0574 CFFBC0B5 		.word	-1245643825
 894 0578 A5DBB5E9 		.word	-373957723
 895 057c 5BC25639 		.word	961987163
 896 0580 F111F159 		.word	1508970993
 897 0584 A4823F92 		.word	-1841331548
 898 0588 D55E1CAB 		.word	-1424204075
 899 058c 98AA07D8 		.word	-670586216
 900 0590 015B8312 		.word	310598401
 901              	.L19:
 902              		.loc 1 197 0
 903 0594 49EA0A07 		orr	r7, r9, r10
 904              		.loc 1 149 0
 905 0598 46EA0066 		orr	r6, r6, r0, lsl #24
 906              		.loc 1 197 0
 907 059c 4FEAB900 		ror	r0, r9, #2
 908 05a0 07EA0807 		and	r7, r7, r8
ARM GAS  C:\Users\jo\AppData\Local\Temp\ccDsJqTW.s 			page 17


 909 05a4 2643     		orrs	r6, r6, r4
 910 05a6 80EA7930 		eor	r0, r0, r9, ror #13
 911 05aa 09EA0A04 		and	r4, r9, r10
 912 05ae 80EAB950 		eor	r0, r0, r9, ror #22
 913 05b2 3C43     		orrs	r4, r4, r7
 914 05b4 04EB000E 		add	lr, r4, r0
 915 05b8 8E44     		add	lr, lr, r1
 916 05ba 0A44     		add	r2, r2, r1
 917 05bc 0A9C     		ldr	r4, [sp, #40]
 918 05be E249     		ldr	r1, .L21
 919              		.loc 1 149 0
 920 05c0 3398     		ldr	r0, [sp, #204]
 921 05c2 2144     		add	r1, r1, r4
 922 05c4 0D44     		add	r5, r5, r1
 923              		.loc 1 198 0
 924 05c6 8BEA0301 		eor	r1, fp, r3
 925 05ca 1140     		ands	r1, r1, r2
 926 05cc 5940     		eors	r1, r1, r3
 927              		.loc 1 149 0
 928 05ce 46EA002C 		orr	ip, r6, r0, lsl #8
 929 05d2 0D44     		add	r5, r5, r1
 930              		.loc 1 198 0
 931 05d4 4EEA0906 		orr	r6, lr, r9
 932 05d8 4FEAB211 		ror	r1, r2, #6
 933 05dc 4FEABE00 		ror	r0, lr, #2
 934 05e0 06EA0A06 		and	r6, r6, r10
 935 05e4 0EEA0904 		and	r4, lr, r9
 936 05e8 81EAF221 		eor	r1, r1, r2, ror #11
 937 05ec 80EA7E30 		eor	r0, r0, lr, ror #13
 938 05f0 80EABE50 		eor	r0, r0, lr, ror #22
 939 05f4 3443     		orrs	r4, r4, r6
 940 05f6 81EA7261 		eor	r1, r1, r2, ror #25
 941 05fa 2944     		add	r1, r1, r5
 942 05fc 2518     		adds	r5, r4, r0
 943 05fe 0D44     		add	r5, r5, r1
 944 0600 8844     		add	r8, r8, r1
 945 0602 0B9E     		ldr	r6, [sp, #44]
 946 0604 D149     		ldr	r1, .L21+4
 947              		.loc 1 150 0
 948 0606 3598     		ldr	r0, [sp, #212]
 949              		.loc 1 149 0
 950 0608 CDF844C0 		str	ip, [sp, #68]
 951 060c 3144     		add	r1, r1, r6
 952 060e 0B44     		add	r3, r3, r1
 953              		.loc 1 199 0
 954 0610 82EA0B01 		eor	r1, r2, fp
 955 0614 08EA0101 		and	r1, r8, r1
 956 0618 81EA0B01 		eor	r1, r1, fp
 957 061c 1944     		add	r1, r1, r3
 958 061e 4FEAB813 		ror	r3, r8, #6
 959              		.loc 1 150 0
 960 0622 0704     		lsls	r7, r0, #16
 961              		.loc 1 199 0
 962 0624 83EAF823 		eor	r3, r3, r8, ror #11
 963              		.loc 1 150 0
 964 0628 3498     		ldr	r0, [sp, #208]
 965 062a 369E     		ldr	r6, [sp, #216]
ARM GAS  C:\Users\jo\AppData\Local\Temp\ccDsJqTW.s 			page 18


 966              		.loc 1 199 0
 967 062c 83EA7863 		eor	r3, r3, r8, ror #25
 968 0630 CC18     		adds	r4, r1, r3
 969              		.loc 1 150 0
 970 0632 47EA0067 		orr	r7, r7, r0, lsl #24
 971              		.loc 1 199 0
 972 0636 4FEAB501 		ror	r1, r5, #2
 973 063a 45EA0E00 		orr	r0, r5, lr
 974 063e 00EA0900 		and	r0, r0, r9
 975 0642 05EA0E03 		and	r3, r5, lr
 976 0646 81EA7531 		eor	r1, r1, r5, ror #13
 977 064a 81EAB551 		eor	r1, r1, r5, ror #22
 978 064e 0343     		orrs	r3, r3, r0
 979 0650 0B44     		add	r3, r3, r1
 980 0652 1198     		ldr	r0, [sp, #68]
 981 0654 BE49     		ldr	r1, .L21+8
 982 0656 0144     		add	r1, r1, r0
 983 0658 A244     		add	r10, r10, r4
 984 065a 8B44     		add	fp, fp, r1
 985              		.loc 1 200 0
 986 065c 88EA0201 		eor	r1, r8, r2
 987 0660 0AEA0101 		and	r1, r10, r1
 988 0664 3743     		orrs	r7, r7, r6
 989 0666 5140     		eors	r1, r1, r2
 990              		.loc 1 150 0
 991 0668 379E     		ldr	r6, [sp, #220]
 992              		.loc 1 151 0
 993 066a 3898     		ldr	r0, [sp, #224]
 994 066c 5944     		add	r1, r1, fp
 995              		.loc 1 200 0
 996 066e 4FEABA1B 		ror	fp, r10, #6
 997              		.loc 1 150 0
 998 0672 47EA062C 		orr	ip, r7, r6, lsl #8
 999              		.loc 1 200 0
 1000 0676 8BEAFA2B 		eor	fp, fp, r10, ror #11
 1001              		.loc 1 151 0
 1002 067a 399E     		ldr	r6, [sp, #228]
 1003              		.loc 1 150 0
 1004 067c CDF848C0 		str	ip, [sp, #72]
 1005              		.loc 1 199 0
 1006 0680 2344     		add	r3, r3, r4
 1007              		.loc 1 200 0
 1008 0682 8BEA7A6B 		eor	fp, fp, r10, ror #25
 1009 0686 01EB0B04 		add	r4, r1, fp
 1010 068a 43EA0507 		orr	r7, r3, r5
 1011 068e 4FEAB301 		ror	r1, r3, #2
 1012              		.loc 1 151 0
 1013 0692 3604     		lsls	r6, r6, #16
 1014              		.loc 1 200 0
 1015 0694 07EA0E07 		and	r7, r7, lr
 1016 0698 81EA7331 		eor	r1, r1, r3, ror #13
 1017              		.loc 1 151 0
 1018 069c 46EA0066 		orr	r6, r6, r0, lsl #24
 1019              		.loc 1 200 0
 1020 06a0 03EA0500 		and	r0, r3, r5
 1021 06a4 81EAB351 		eor	r1, r1, r3, ror #22
 1022 06a8 3843     		orrs	r0, r0, r7
ARM GAS  C:\Users\jo\AppData\Local\Temp\ccDsJqTW.s 			page 19


 1023 06aa 00EB010B 		add	fp, r0, r1
 1024 06ae 129F     		ldr	r7, [sp, #72]
 1025 06b0 A849     		ldr	r1, .L21+12
 1026 06b2 3A98     		ldr	r0, [sp, #232]
 1027 06b4 3944     		add	r1, r1, r7
 1028 06b6 A144     		add	r9, r9, r4
 1029 06b8 0A44     		add	r2, r2, r1
 1030              		.loc 1 201 0
 1031 06ba 8AEA0801 		eor	r1, r10, r8
 1032 06be 09EA0101 		and	r1, r9, r1
 1033 06c2 81EA0801 		eor	r1, r1, r8
 1034 06c6 0643     		orrs	r6, r6, r0
 1035 06c8 0A44     		add	r2, r2, r1
 1036              		.loc 1 151 0
 1037 06ca 3B98     		ldr	r0, [sp, #236]
 1038              		.loc 1 201 0
 1039 06cc 4FEAB911 		ror	r1, r9, #6
 1040              		.loc 1 200 0
 1041 06d0 A344     		add	fp, fp, r4
 1042              		.loc 1 201 0
 1043 06d2 81EAF921 		eor	r1, r1, r9, ror #11
 1044              		.loc 1 151 0
 1045 06d6 46EA002C 		orr	ip, r6, r0, lsl #8
 1046              		.loc 1 201 0
 1047 06da 4BEA0304 		orr	r4, fp, r3
 1048 06de 81EA7961 		eor	r1, r1, r9, ror #25
 1049 06e2 4FEABB00 		ror	r0, fp, #2
 1050 06e6 1144     		add	r1, r1, r2
 1051 06e8 2C40     		ands	r4, r4, r5
 1052 06ea 0BEA0302 		and	r2, fp, r3
 1053 06ee 80EA7B30 		eor	r0, r0, fp, ror #13
 1054 06f2 80EABB50 		eor	r0, r0, fp, ror #22
 1055 06f6 2243     		orrs	r2, r2, r4
 1056 06f8 0244     		add	r2, r2, r0
 1057 06fa 0A44     		add	r2, r2, r1
 1058 06fc 8E44     		add	lr, lr, r1
 1059 06fe 9649     		ldr	r1, .L21+16
 1060              		.loc 1 152 0
 1061 0700 3D98     		ldr	r0, [sp, #244]
 1062 0702 CDF810C0 		str	ip, [sp, #16]
 1063 0706 6144     		add	r1, r1, ip
 1064 0708 8844     		add	r8, r8, r1
 1065              		.loc 1 202 0
 1066 070a 89EA0A01 		eor	r1, r9, r10
 1067 070e 0EEA0101 		and	r1, lr, r1
 1068 0712 81EA0A06 		eor	r6, r1, r10
 1069              		.loc 1 152 0
 1070 0716 3C99     		ldr	r1, [sp, #240]
 1071 0718 0004     		lsls	r0, r0, #16
 1072 071a 40EA0160 		orr	r0, r0, r1, lsl #24
 1073 071e 08EB0601 		add	r1, r8, r6
 1074 0722 3E9E     		ldr	r6, [sp, #248]
 1075              		.loc 1 202 0
 1076 0724 4FEAB208 		ror	r8, r2, #2
 1077 0728 42EA0B07 		orr	r7, r2, fp
 1078 072c 88EA7238 		eor	r8, r8, r2, ror #13
 1079 0730 1F40     		ands	r7, r7, r3
ARM GAS  C:\Users\jo\AppData\Local\Temp\ccDsJqTW.s 			page 20


 1080 0732 3043     		orrs	r0, r0, r6
 1081 0734 4FEABE14 		ror	r4, lr, #6
 1082 0738 88EAB256 		eor	r6, r8, r2, ror #22
 1083 073c 02EA0B08 		and	r8, r2, fp
 1084 0740 84EAFE24 		eor	r4, r4, lr, ror #11
 1085 0744 47EA0808 		orr	r8, r7, r8
 1086 0748 84EA7E64 		eor	r4, r4, lr, ror #25
 1087 074c B044     		add	r8, r8, r6
 1088              		.loc 1 152 0
 1089 074e 3F9E     		ldr	r6, [sp, #252]
 1090              		.loc 1 202 0
 1091 0750 0C44     		add	r4, r4, r1
 1092 0752 8249     		ldr	r1, .L21+20
 1093 0754 2544     		add	r5, r5, r4
 1094              		.loc 1 152 0
 1095 0756 40EA062C 		orr	ip, r0, r6, lsl #8
 1096              	.LVL25:
 1097              		.loc 1 203 0
 1098 075a 8EEA0906 		eor	r6, lr, r9
 1099              		.loc 1 202 0
 1100 075e A044     		add	r8, r8, r4
 1101              	.LVL26:
 1102 0760 6144     		add	r1, r1, ip
 1103              		.loc 1 204 0
 1104 0762 049C     		ldr	r4, [sp, #16]
 1105              	.LVL27:
 1106 0764 CDF814C0 		str	ip, [sp, #20]
 1107              		.loc 1 203 0
 1108 0768 2E40     		ands	r6, r6, r5
 1109 076a 4FEAB510 		ror	r0, r5, #6
 1110 076e 8A44     		add	r10, r10, r1
 1111              	.LVL28:
 1112 0770 0995     		str	r5, [sp, #36]
 1113 0772 86EA0901 		eor	r1, r6, r9
 1114 0776 80EAF520 		eor	r0, r0, r5, ror #11
 1115 077a 039E     		ldr	r6, [sp, #12]
 1116 077c 0D9D     		ldr	r5, [sp, #52]
 1117              	.LVL29:
 1118              		.loc 1 204 0
 1119 077e 4FEA7447 		ror	r7, r4, #17
 1120              	.LVL30:
 1121 0782 A446     		mov	ip, r4
 1122 0784 87EAF447 		eor	r7, r7, r4, ror #19
 1123 0788 7419     		adds	r4, r6, r5
 1124              		.loc 1 203 0
 1125 078a 099D     		ldr	r5, [sp, #36]
 1126 078c 80EA7560 		eor	r0, r0, r5, ror #25
 1127              		.loc 1 204 0
 1128 0790 019D     		ldr	r5, [sp, #4]
 1129 0792 87EA9C27 		eor	r7, r7, ip, lsr #10
 1130 0796 3C44     		add	r4, r4, r7
 1131 0798 4FEAF517 		ror	r7, r5, #7
 1132 079c 87EAB547 		eor	r7, r7, r5, ror #18
 1133 07a0 5144     		add	r1, r1, r10
 1134 07a2 87EAD507 		eor	r7, r7, r5, lsr #3
 1135              		.loc 1 203 0
 1136 07a6 4FEAB80C 		ror	ip, r8, #2
ARM GAS  C:\Users\jo\AppData\Local\Temp\ccDsJqTW.s 			page 21


 1137 07aa 0844     		add	r0, r0, r1
 1138              	.LVL31:
 1139 07ac 48EA0206 		orr	r6, r8, r2
 1140              		.loc 1 204 0
 1141 07b0 E119     		adds	r1, r4, r7
 1142              		.loc 1 203 0
 1143 07b2 8CEA783C 		eor	ip, ip, r8, ror #13
 1144 07b6 8CEAB85A 		eor	r10, ip, r8, ror #22
 1145              		.loc 1 204 0
 1146 07ba 0D46     		mov	r5, r1
 1147              		.loc 1 203 0
 1148 07bc 06EA0B06 		and	r6, r6, fp
 1149 07c0 08EA020C 		and	ip, r8, r2
 1150              		.loc 1 204 0
 1151 07c4 0999     		ldr	r1, [sp, #36]
 1152              		.loc 1 205 0
 1153 07c6 059C     		ldr	r4, [sp, #20]
 1154 07c8 0D95     		str	r5, [sp, #52]
 1155              		.loc 1 203 0
 1156 07ca 46EA0C0C 		orr	ip, r6, ip
 1157 07ce 644E     		ldr	r6, .L21+24
 1158 07d0 0344     		add	r3, r3, r0
 1159              	.LVL32:
 1160              		.loc 1 204 0
 1161 07d2 81EA0E01 		eor	r1, r1, lr
 1162 07d6 2E44     		add	r6, r6, r5
 1163              		.loc 1 203 0
 1164 07d8 D444     		add	ip, ip, r10
 1165              	.LVL33:
 1166              		.loc 1 204 0
 1167 07da 1940     		ands	r1, r1, r3
 1168              		.loc 1 203 0
 1169 07dc 8444     		add	ip, ip, r0
 1170              	.LVL34:
 1171 07de 019D     		ldr	r5, [sp, #4]
 1172 07e0 0A98     		ldr	r0, [sp, #40]
 1173              	.LVL35:
 1174              		.loc 1 204 0
 1175 07e2 81EA0E01 		eor	r1, r1, lr
 1176              		.loc 1 205 0
 1177 07e6 4FEA7447 		ror	r7, r4, #17
 1178 07ea B144     		add	r9, r9, r6
 1179              	.LVL36:
 1180 07ec A246     		mov	r10, r4
 1181 07ee 87EAF447 		eor	r7, r7, r4, ror #19
 1182 07f2 8944     		add	r9, r9, r1
 1183 07f4 0C99     		ldr	r1, [sp, #48]
 1184 07f6 87EA9A27 		eor	r7, r7, r10, lsr #10
 1185 07fa 2844     		add	r0, r0, r5
 1186 07fc 3844     		add	r0, r0, r7
 1187 07fe 4FEAF117 		ror	r7, r1, #7
 1188              		.loc 1 204 0
 1189 0802 4CEA0806 		orr	r6, ip, r8
 1190 0806 4FEAB314 		ror	r4, r3, #6
 1191 080a 4FEABC0A 		ror	r10, ip, #2
 1192              		.loc 1 205 0
 1193 080e 87EAB147 		eor	r7, r7, r1, ror #18
ARM GAS  C:\Users\jo\AppData\Local\Temp\ccDsJqTW.s 			page 22


 1194              		.loc 1 204 0
 1195 0812 1640     		ands	r6, r6, r2
 1196              		.loc 1 205 0
 1197 0814 87EAD107 		eor	r7, r7, r1, lsr #3
 1198              		.loc 1 204 0
 1199 0818 84EAF324 		eor	r4, r4, r3, ror #11
 1200 081c 0CEA0801 		and	r1, ip, r8
 1201 0820 8AEA7C3A 		eor	r10, r10, ip, ror #13
 1202 0824 84EA7364 		eor	r4, r4, r3, ror #25
 1203 0828 3143     		orrs	r1, r1, r6
 1204 082a 8AEABC5A 		eor	r10, r10, ip, ror #22
 1205 082e A144     		add	r9, r9, r4
 1206              	.LVL37:
 1207 0830 8A44     		add	r10, r10, r1
 1208              	.LVL38:
 1209 0832 0AEB0905 		add	r5, r10, r9
 1210 0836 0295     		str	r5, [sp, #8]
 1211              		.loc 1 205 0
 1212 0838 099D     		ldr	r5, [sp, #36]
 1213 083a 4A4E     		ldr	r6, .L21+28
 1214              		.loc 1 206 0
 1215 083c 0F99     		ldr	r1, [sp, #60]
 1216              		.loc 1 205 0
 1217 083e C419     		adds	r4, r0, r7
 1218              		.loc 1 204 0
 1219 0840 CB44     		add	fp, fp, r9
 1220              	.LVL39:
 1221              		.loc 1 205 0
 1222 0842 2046     		mov	r0, r4
 1223 0844 83EA0507 		eor	r7, r3, r5
 1224 0848 0644     		add	r6, r6, r0
 1225 084a 0BEA0707 		and	r7, fp, r7
 1226 084e 0E90     		str	r0, [sp, #56]
 1227 0850 6F40     		eors	r7, r7, r5
 1228 0852 B644     		add	lr, lr, r6
 1229              	.LVL40:
 1230 0854 4FEABB10 		ror	r0, fp, #6
 1231 0858 0B9E     		ldr	r6, [sp, #44]
 1232 085a 0C9D     		ldr	r5, [sp, #48]
 1233              		.loc 1 206 0
 1234 085c 4FEAF114 		ror	r4, r1, #7
 1235              		.loc 1 205 0
 1236 0860 80EAFB20 		eor	r0, r0, fp, ror #11
 1237 0864 BE44     		add	lr, lr, r7
 1238 0866 029F     		ldr	r7, [sp, #8]
 1239 0868 80EA7B60 		eor	r0, r0, fp, ror #25
 1240              		.loc 1 206 0
 1241 086c 84EAB144 		eor	r4, r4, r1, ror #18
 1242 0870 0F99     		ldr	r1, [sp, #60]
 1243 0872 06EB050A 		add	r10, r6, r5
 1244              	.LVL41:
 1245              		.loc 1 205 0
 1246 0876 8644     		add	lr, lr, r0
 1247              	.LVL42:
 1248              		.loc 1 206 0
 1249 0878 0D9D     		ldr	r5, [sp, #52]
 1250              		.loc 1 205 0
ARM GAS  C:\Users\jo\AppData\Local\Temp\ccDsJqTW.s 			page 23


 1251 087a 0298     		ldr	r0, [sp, #8]
 1252 087c 4FEAB706 		ror	r6, r7, #2
 1253 0880 47EA0C09 		orr	r9, r7, ip
 1254              		.loc 1 206 0
 1255 0884 84EAD104 		eor	r4, r4, r1, lsr #3
 1256              		.loc 1 205 0
 1257 0888 86EA7736 		eor	r6, r6, r7, ror #13
 1258 088c 09EA0809 		and	r9, r9, r8
 1259 0890 86EAB756 		eor	r6, r6, r7, ror #22
 1260 0894 5444     		add	r4, r4, r10
 1261 0896 00EA0C07 		and	r7, r0, ip
 1262              		.loc 1 206 0
 1263 089a 4FEA754A 		ror	r10, r5, #17
 1264 089e 8AEAF54A 		eor	r10, r10, r5, ror #19
 1265              		.loc 1 205 0
 1266 08a2 49EA0707 		orr	r7, r9, r7
 1267              		.loc 1 206 0
 1268 08a6 8AEA952A 		eor	r10, r10, r5, lsr #10
 1269              		.loc 1 205 0
 1270 08aa 3744     		add	r7, r7, r6
 1271              	.LVL43:
 1272 08ac 2E4E     		ldr	r6, .L21+32
 1273 08ae 099D     		ldr	r5, [sp, #36]
 1274              		.loc 1 206 0
 1275 08b0 04EB0A09 		add	r9, r4, r10
 1276 08b4 4E44     		add	r6, r6, r9
 1277 08b6 3544     		add	r5, r5, r6
 1278 08b8 029E     		ldr	r6, [sp, #8]
 1279 08ba CDF83C90 		str	r9, [sp, #60]
 1280              		.loc 1 205 0
 1281 08be 7744     		add	r7, r7, lr
 1282              	.LVL44:
 1283              		.loc 1 206 0
 1284 08c0 47EA0609 		orr	r9, r7, r6
 1285 08c4 119E     		ldr	r6, [sp, #68]
 1286              		.loc 1 205 0
 1287 08c6 7244     		add	r2, r2, lr
 1288              	.LVL45:
 1289              		.loc 1 206 0
 1290 08c8 8BEA0304 		eor	r4, fp, r3
 1291 08cc 06EB010A 		add	r10, r6, r1
 1292 08d0 1440     		ands	r4, r4, r2
 1293              		.loc 1 207 0
 1294 08d2 0699     		ldr	r1, [sp, #24]
 1295              		.loc 1 206 0
 1296 08d4 4FEAB210 		ror	r0, r2, #6
 1297 08d8 5C40     		eors	r4, r4, r3
 1298 08da 80EAF220 		eor	r0, r0, r2, ror #11
 1299 08de 2544     		add	r5, r5, r4
 1300 08e0 80EA7260 		eor	r0, r0, r2, ror #25
 1301              		.loc 1 207 0
 1302 08e4 4FEAF114 		ror	r4, r1, #7
 1303              		.loc 1 206 0
 1304 08e8 2844     		add	r0, r0, r5
 1305              	.LVL46:
 1306 08ea 4FEAB706 		ror	r6, r7, #2
 1307 08ee 029D     		ldr	r5, [sp, #8]
ARM GAS  C:\Users\jo\AppData\Local\Temp\ccDsJqTW.s 			page 24


 1308              		.loc 1 207 0
 1309 08f0 84EAB144 		eor	r4, r4, r1, ror #18
 1310              		.loc 1 206 0
 1311 08f4 86EA7736 		eor	r6, r6, r7, ror #13
 1312              		.loc 1 207 0
 1313 08f8 84EAD104 		eor	r4, r4, r1, lsr #3
 1314 08fc 0E99     		ldr	r1, [sp, #56]
 1315              		.loc 1 206 0
 1316 08fe 86EAB75E 		eor	lr, r6, r7, ror #22
 1317 0902 09EA0C09 		and	r9, r9, ip
 1318 0906 07EA0506 		and	r6, r7, r5
 1319 090a 49EA0606 		orr	r6, r9, r6
 1320              		.loc 1 207 0
 1321 090e 4FEA7149 		ror	r9, r1, #17
 1322 0912 89EAF149 		eor	r9, r9, r1, ror #19
 1323 0916 5444     		add	r4, r4, r10
 1324 0918 89EA9129 		eor	r9, r9, r1, lsr #10
 1325 091c 134D     		ldr	r5, .L21+36
 1326 091e 0299     		ldr	r1, [sp, #8]
 1327 0920 A144     		add	r9, r9, r4
 1328              		.loc 1 206 0
 1329 0922 7644     		add	r6, r6, lr
 1330              	.LVL47:
 1331 0924 0644     		add	r6, r6, r0
 1332              	.LVL48:
 1333 0926 4D44     		add	r5, r5, r9
 1334 0928 2B44     		add	r3, r3, r5
 1335              	.LVL49:
 1336              		.loc 1 207 0
 1337 092a 46EA0705 		orr	r5, r6, r7
 1338 092e 0D40     		ands	r5, r5, r1
 1339 0930 1299     		ldr	r1, [sp, #72]
 1340 0932 8E46     		mov	lr, r1
 1341 0934 0699     		ldr	r1, [sp, #24]
 1342              		.loc 1 206 0
 1343 0936 8044     		add	r8, r8, r0
 1344              	.LVL50:
 1345              		.loc 1 207 0
 1346 0938 82EA0B04 		eor	r4, r2, fp
 1347 093c 0EEB010A 		add	r10, lr, r1
 1348 0940 08EA0404 		and	r4, r8, r4
 1349 0944 14E0     		b	.L22
 1350              	.L23:
 1351 0946 00BF     		.align	2
 1352              	.L21:
 1353 0948 BE853124 		.word	607225278
 1354 094c C37D0C55 		.word	1426881987
 1355 0950 745DBE72 		.word	1925078388
 1356 0954 FEB1DE80 		.word	-2132889090
 1357 0958 A706DC9B 		.word	-1680079193
 1358 095c 74F19BC1 		.word	-1046744716
 1359 0960 C1699BE4 		.word	-459576895
 1360 0964 8647BEEF 		.word	-272742522
 1361 0968 C69DC10F 		.word	264347078
 1362 096c CCA10C24 		.word	604807628
 1363              	.L22:
 1364              		.loc 1 208 0
ARM GAS  C:\Users\jo\AppData\Local\Temp\ccDsJqTW.s 			page 25


 1365 0970 0799     		ldr	r1, [sp, #28]
 1366              		.loc 1 207 0
 1367 0972 84EA0B04 		eor	r4, r4, fp
 1368 0976 4FEAB810 		ror	r0, r8, #6
 1369              	.LVL51:
 1370 097a 2344     		add	r3, r3, r4
 1371 097c 80EAF820 		eor	r0, r0, r8, ror #11
 1372              		.loc 1 208 0
 1373 0980 4FEAF114 		ror	r4, r1, #7
 1374              		.loc 1 207 0
 1375 0984 4FEAB60E 		ror	lr, r6, #2
 1376              		.loc 1 208 0
 1377 0988 84EAB144 		eor	r4, r4, r1, ror #18
 1378              		.loc 1 207 0
 1379 098c 80EA7860 		eor	r0, r0, r8, ror #25
 1380 0990 1844     		add	r0, r0, r3
 1381              	.LVL52:
 1382 0992 8EEA763E 		eor	lr, lr, r6, ror #13
 1383 0996 06EA0703 		and	r3, r6, r7
 1384              		.loc 1 208 0
 1385 099a 84EAD104 		eor	r4, r4, r1, lsr #3
 1386 099e 0F99     		ldr	r1, [sp, #60]
 1387              		.loc 1 207 0
 1388 09a0 8EEAB65E 		eor	lr, lr, r6, ror #22
 1389 09a4 1D43     		orrs	r5, r5, r3
 1390 09a6 7544     		add	r5, r5, lr
 1391              	.LVL53:
 1392              		.loc 1 208 0
 1393 09a8 4FEA714E 		ror	lr, r1, #17
 1394 09ac 8EEAF14E 		eor	lr, lr, r1, ror #19
 1395 09b0 5444     		add	r4, r4, r10
 1396 09b2 8EEA912E 		eor	lr, lr, r1, lsr #10
 1397 09b6 E14B     		ldr	r3, .L24
 1398 09b8 A644     		add	lr, r4, lr
 1399              		.loc 1 207 0
 1400 09ba 2918     		adds	r1, r5, r0
 1401 09bc 7344     		add	r3, r3, lr
 1402 09be CDF818E0 		str	lr, [sp, #24]
 1403 09c2 9B44     		add	fp, fp, r3
 1404              	.LVL54:
 1405              		.loc 1 208 0
 1406 09c4 0191     		str	r1, [sp, #4]
 1407 09c6 0B46     		mov	r3, r1
 1408 09c8 049D     		ldr	r5, [sp, #16]
 1409              	.LVL55:
 1410 09ca 0799     		ldr	r1, [sp, #28]
 1411              		.loc 1 207 0
 1412 09cc 8444     		add	ip, ip, r0
 1413              	.LVL56:
 1414              		.loc 1 208 0
 1415 09ce 88EA0200 		eor	r0, r8, r2
 1416              	.LVL57:
 1417 09d2 05EB010A 		add	r10, r5, r1
 1418 09d6 0CEA0000 		and	r0, ip, r0
 1419 09da 019D     		ldr	r5, [sp, #4]
 1420 09dc 0199     		ldr	r1, [sp, #4]
 1421 09de 5040     		eors	r0, r0, r2
ARM GAS  C:\Users\jo\AppData\Local\Temp\ccDsJqTW.s 			page 26


 1422 09e0 5844     		add	r0, r0, fp
 1423 09e2 4FEAB50B 		ror	fp, r5, #2
 1424 09e6 8BEA753B 		eor	fp, fp, r5, ror #13
 1425              		.loc 1 209 0
 1426 09ea 139D     		ldr	r5, [sp, #76]
 1427 09ec 4FEAF51E 		ror	lr, r5, #7
 1428              		.loc 1 208 0
 1429 09f0 4FEABC14 		ror	r4, ip, #6
 1430              		.loc 1 209 0
 1431 09f4 8EEAB54E 		eor	lr, lr, r5, ror #18
 1432 09f8 8EEAD50E 		eor	lr, lr, r5, lsr #3
 1433              		.loc 1 208 0
 1434 09fc 84EAFC24 		eor	r4, r4, ip, ror #11
 1435 0a00 019D     		ldr	r5, [sp, #4]
 1436 0a02 84EA7C64 		eor	r4, r4, ip, ror #25
 1437 0a06 0444     		add	r4, r4, r0
 1438              	.LVL58:
 1439 0a08 3343     		orrs	r3, r3, r6
 1440 0a0a 2846     		mov	r0, r5
 1441 0a0c 3040     		ands	r0, r0, r6
 1442 0a0e 3B40     		ands	r3, r3, r7
 1443 0a10 8BEAB15B 		eor	fp, fp, r1, ror #22
 1444 0a14 0343     		orrs	r3, r3, r0
 1445 0a16 5B44     		add	r3, r3, fp
 1446              	.LVL59:
 1447              		.loc 1 209 0
 1448 0a18 4FEA794B 		ror	fp, r9, #17
 1449 0a1c 8BEAF94B 		eor	fp, fp, r9, ror #19
 1450 0a20 8BEA992B 		eor	fp, fp, r9, lsr #10
 1451              		.loc 1 208 0
 1452 0a24 0299     		ldr	r1, [sp, #8]
 1453 0a26 C648     		ldr	r0, .L24+4
 1454 0a28 F244     		add	r10, r10, lr
 1455              		.loc 1 209 0
 1456 0a2a DA44     		add	r10, r10, fp
 1457              		.loc 1 208 0
 1458 0a2c 2344     		add	r3, r3, r4
 1459              	.LVL60:
 1460 0a2e 2144     		add	r1, r1, r4
 1461 0a30 5044     		add	r0, r0, r10
 1462 0a32 8E46     		mov	lr, r1
 1463              	.LVL61:
 1464              		.loc 1 209 0
 1465 0a34 8CEA0804 		eor	r4, ip, r8
 1466              	.LVL62:
 1467 0a38 8118     		adds	r1, r0, r2
 1468              	.LVL63:
 1469 0a3a 43EA050B 		orr	fp, r3, r5
 1470 0a3e 139A     		ldr	r2, [sp, #76]
 1471              	.LVL64:
 1472 0a40 059D     		ldr	r5, [sp, #20]
 1473              	.LVL65:
 1474 0a42 CDF840A0 		str	r10, [sp, #64]
 1475 0a46 0EEA0404 		and	r4, lr, r4
 1476 0a4a 4FEABE1A 		ror	r10, lr, #6
 1477 0a4e 84EA0804 		eor	r4, r4, r8
 1478 0a52 8AEAFE20 		eor	r0, r10, lr, ror #11
ARM GAS  C:\Users\jo\AppData\Local\Temp\ccDsJqTW.s 			page 27


 1479 0a56 AA18     		adds	r2, r5, r2
 1480              		.loc 1 210 0
 1481 0a58 089D     		ldr	r5, [sp, #32]
 1482 0a5a 2144     		add	r1, r1, r4
 1483              		.loc 1 209 0
 1484 0a5c 80EA7E60 		eor	r0, r0, lr, ror #25
 1485 0a60 0844     		add	r0, r0, r1
 1486              	.LVL66:
 1487              		.loc 1 210 0
 1488 0a62 4FEAF514 		ror	r4, r5, #7
 1489              		.loc 1 209 0
 1490 0a66 0199     		ldr	r1, [sp, #4]
 1491 0a68 4FEAB30A 		ror	r10, r3, #2
 1492              		.loc 1 210 0
 1493 0a6c 84EAB544 		eor	r4, r4, r5, ror #18
 1494              		.loc 1 209 0
 1495 0a70 0BEA060B 		and	fp, fp, r6
 1496 0a74 8AEA733A 		eor	r10, r10, r3, ror #13
 1497              		.loc 1 210 0
 1498 0a78 84EAD504 		eor	r4, r4, r5, lsr #3
 1499              		.loc 1 209 0
 1500 0a7c 1940     		ands	r1, r1, r3
 1501              		.loc 1 210 0
 1502 0a7e 069D     		ldr	r5, [sp, #24]
 1503              		.loc 1 209 0
 1504 0a80 4BEA0101 		orr	r1, fp, r1
 1505 0a84 8AEAB35A 		eor	r10, r10, r3, ror #22
 1506 0a88 8A44     		add	r10, r10, r1
 1507              	.LVL67:
 1508              		.loc 1 210 0
 1509 0a8a 4FEA7541 		ror	r1, r5, #17
 1510 0a8e 81EAF541 		eor	r1, r1, r5, ror #19
 1511 0a92 81EA952B 		eor	fp, r1, r5, lsr #10
 1512 0a96 1444     		add	r4, r4, r2
 1513              		.loc 1 209 0
 1514 0a98 0744     		add	r7, r7, r0
 1515              	.LVL68:
 1516 0a9a AA4A     		ldr	r2, .L24+8
 1517              		.loc 1 211 0
 1518 0a9c 149D     		ldr	r5, [sp, #80]
 1519              		.loc 1 209 0
 1520 0a9e 5044     		add	r0, r0, r10
 1521              	.LVL69:
 1522              		.loc 1 210 0
 1523 0aa0 04EB0B0A 		add	r10, r4, fp
 1524              	.LVL70:
 1525 0aa4 5446     		mov	r4, r10
 1526 0aa6 8EEA0C0A 		eor	r10, lr, ip
 1527 0aaa 2244     		add	r2, r2, r4
 1528 0aac 07EA0A0A 		and	r10, r7, r10
 1529 0ab0 0794     		str	r4, [sp, #28]
 1530 0ab2 8AEA0C0A 		eor	r10, r10, ip
 1531 0ab6 019C     		ldr	r4, [sp, #4]
 1532 0ab8 4244     		add	r2, r2, r8
 1533 0aba 5244     		add	r2, r2, r10
 1534              		.loc 1 211 0
 1535 0abc 4FEAF511 		ror	r1, r5, #7
ARM GAS  C:\Users\jo\AppData\Local\Temp\ccDsJqTW.s 			page 28


 1536              		.loc 1 210 0
 1537 0ac0 40EA030A 		orr	r10, r0, r3
 1538 0ac4 0AEA040A 		and	r10, r10, r4
 1539              		.loc 1 211 0
 1540 0ac8 81EAB541 		eor	r1, r1, r5, ror #18
 1541 0acc 089C     		ldr	r4, [sp, #32]
 1542 0ace 81EAD501 		eor	r1, r1, r5, lsr #3
 1543              		.loc 1 210 0
 1544 0ad2 4FEAB718 		ror	r8, r7, #6
 1545              	.LVL71:
 1546 0ad6 2144     		add	r1, r1, r4
 1547 0ad8 4FEAB004 		ror	r4, r0, #2
 1548              		.loc 1 211 0
 1549 0adc 109D     		ldr	r5, [sp, #64]
 1550              		.loc 1 210 0
 1551 0ade 88EAF72B 		eor	fp, r8, r7, ror #11
 1552 0ae2 84EA7034 		eor	r4, r4, r0, ror #13
 1553 0ae6 8BEA7768 		eor	r8, fp, r7, ror #25
 1554 0aea 84EAB05B 		eor	fp, r4, r0, ror #22
 1555 0aee 00EA0304 		and	r4, r0, r3
 1556 0af2 4AEA0404 		orr	r4, r10, r4
 1557              		.loc 1 211 0
 1558 0af6 4FEA754A 		ror	r10, r5, #17
 1559              		.loc 1 210 0
 1560 0afa 9044     		add	r8, r8, r2
 1561              	.LVL72:
 1562              		.loc 1 211 0
 1563 0afc 8AEAF542 		eor	r2, r10, r5, ror #19
 1564 0b00 82EA952A 		eor	r10, r2, r5, lsr #10
 1565 0b04 0D9A     		ldr	r2, [sp, #52]
 1566              		.loc 1 212 0
 1567 0b06 039D     		ldr	r5, [sp, #12]
 1568              		.loc 1 210 0
 1569 0b08 5C44     		add	r4, r4, fp
 1570              	.LVL73:
 1571 0b0a 4644     		add	r6, r6, r8
 1572              	.LVL74:
 1573 0b0c 1144     		add	r1, r1, r2
 1574 0b0e A044     		add	r8, r4, r8
 1575              	.LVL75:
 1576 0b10 CDF83080 		str	r8, [sp, #48]
 1577              	.LVL76:
 1578 0b14 8C4A     		ldr	r2, .L24+12
 1579              		.loc 1 211 0
 1580 0b16 01EB0A08 		add	r8, r1, r10
 1581 0b1a 4446     		mov	r4, r8
 1582              	.LVL77:
 1583 0b1c 87EA0E01 		eor	r1, r7, lr
 1584 0b20 2244     		add	r2, r2, r4
 1585 0b22 0894     		str	r4, [sp, #32]
 1586 0b24 3140     		ands	r1, r1, r6
 1587 0b26 0C9C     		ldr	r4, [sp, #48]
 1588 0b28 6244     		add	r2, r2, ip
 1589 0b2a 4FEAB61C 		ror	ip, r6, #6
 1590              	.LVL78:
 1591 0b2e 81EA0E01 		eor	r1, r1, lr
 1592 0b32 8CEAF62A 		eor	r10, ip, r6, ror #11
ARM GAS  C:\Users\jo\AppData\Local\Temp\ccDsJqTW.s 			page 29


 1593              		.loc 1 212 0
 1594 0b36 4FEAF518 		ror	r8, r5, #7
 1595 0b3a 0A44     		add	r2, r2, r1
 1596              		.loc 1 211 0
 1597 0b3c 8AEA766C 		eor	ip, r10, r6, ror #25
 1598 0b40 1499     		ldr	r1, [sp, #80]
 1599              		.loc 1 212 0
 1600 0b42 88EAB548 		eor	r8, r8, r5, ror #18
 1601              		.loc 1 211 0
 1602 0b46 4FEAB40A 		ror	r10, r4, #2
 1603 0b4a 44EA000B 		orr	fp, r4, r0
 1604 0b4e 8AEA743A 		eor	r10, r10, r4, ror #13
 1605              		.loc 1 212 0
 1606 0b52 88EAD508 		eor	r8, r8, r5, lsr #3
 1607 0b56 079D     		ldr	r5, [sp, #28]
 1608              		.loc 1 211 0
 1609 0b58 0BEA030B 		and	fp, fp, r3
 1610 0b5c 8844     		add	r8, r8, r1
 1611 0b5e 8AEAB451 		eor	r1, r10, r4, ror #22
 1612 0b62 04EA000A 		and	r10, r4, r0
 1613 0b66 4BEA0A0A 		orr	r10, fp, r10
 1614              		.loc 1 212 0
 1615 0b6a 4FEA754B 		ror	fp, r5, #17
 1616              		.loc 1 211 0
 1617 0b6e 9444     		add	ip, ip, r2
 1618              	.LVL79:
 1619 0b70 8A44     		add	r10, r10, r1
 1620              	.LVL80:
 1621              		.loc 1 212 0
 1622 0b72 8BEAF542 		eor	r2, fp, r5, ror #19
 1623 0b76 0E99     		ldr	r1, [sp, #56]
 1624              		.loc 1 213 0
 1625 0b78 0A9C     		ldr	r4, [sp, #40]
 1626              		.loc 1 212 0
 1627 0b7a 82EA952B 		eor	fp, r2, r5, lsr #10
 1628              		.loc 1 211 0
 1629 0b7e 019D     		ldr	r5, [sp, #4]
 1630              		.loc 1 213 0
 1631 0b80 0A9A     		ldr	r2, [sp, #40]
 1632 0b82 8844     		add	r8, r8, r1
 1633 0b84 7149     		ldr	r1, .L24+16
 1634              		.loc 1 211 0
 1635 0b86 6544     		add	r5, r5, ip
 1636              	.LVL81:
 1637              		.loc 1 212 0
 1638 0b88 D844     		add	r8, r8, fp
 1639              		.loc 1 211 0
 1640 0b8a D444     		add	ip, ip, r10
 1641              	.LVL82:
 1642              		.loc 1 212 0
 1643 0b8c 86EA070A 		eor	r10, r6, r7
 1644              	.LVL83:
 1645 0b90 4144     		add	r1, r1, r8
 1646 0b92 05EA0A0A 		and	r10, r5, r10
 1647              		.loc 1 213 0
 1648 0b96 4FEAF212 		ror	r2, r2, #7
 1649              		.loc 1 212 0
ARM GAS  C:\Users\jo\AppData\Local\Temp\ccDsJqTW.s 			page 30


 1650 0b9a 8AEA070A 		eor	r10, r10, r7
 1651              		.loc 1 213 0
 1652 0b9e 82EAB442 		eor	r2, r2, r4, ror #18
 1653 0ba2 7144     		add	r1, r1, lr
 1654 0ba4 01EB0A0E 		add	lr, r1, r10
 1655              	.LVL84:
 1656 0ba8 CDF80480 		str	r8, [sp, #4]
 1657              		.loc 1 212 0
 1658 0bac 0C99     		ldr	r1, [sp, #48]
 1659 0bae 4FEAB518 		ror	r8, r5, #6
 1660              		.loc 1 213 0
 1661 0bb2 82EAD402 		eor	r2, r2, r4, lsr #3
 1662 0bb6 039C     		ldr	r4, [sp, #12]
 1663              		.loc 1 212 0
 1664 0bb8 88EAF528 		eor	r8, r8, r5, ror #11
 1665 0bbc 4CEA010B 		orr	fp, ip, r1
 1666 0bc0 2244     		add	r2, r2, r4
 1667 0bc2 88EA7561 		eor	r1, r8, r5, ror #25
 1668 0bc6 0C9C     		ldr	r4, [sp, #48]
 1669 0bc8 4FEABC08 		ror	r8, ip, #2
 1670 0bcc 88EA7C38 		eor	r8, r8, ip, ror #13
 1671 0bd0 88EABC5A 		eor	r10, r8, ip, ror #22
 1672 0bd4 0CEA0408 		and	r8, ip, r4
 1673              		.loc 1 213 0
 1674 0bd8 089C     		ldr	r4, [sp, #32]
 1675              		.loc 1 212 0
 1676 0bda 0BEA000B 		and	fp, fp, r0
 1677 0bde 4BEA0808 		orr	r8, fp, r8
 1678              		.loc 1 213 0
 1679 0be2 4FEA744B 		ror	fp, r4, #17
 1680              		.loc 1 212 0
 1681 0be6 7144     		add	r1, r1, lr
 1682              	.LVL85:
 1683              		.loc 1 213 0
 1684 0be8 8BEAF44E 		eor	lr, fp, r4, ror #19
 1685 0bec 8EEA942B 		eor	fp, lr, r4, lsr #10
 1686 0bf0 0F9C     		ldr	r4, [sp, #60]
 1687 0bf2 2244     		add	r2, r2, r4
 1688              		.loc 1 212 0
 1689 0bf4 D044     		add	r8, r8, r10
 1690              		.loc 1 213 0
 1691 0bf6 02EB0B0E 		add	lr, r2, fp
 1692 0bfa DFF854A1 		ldr	r10, .L24+20
 1693              		.loc 1 214 0
 1694 0bfe 0B9C     		ldr	r4, [sp, #44]
 1695              		.loc 1 213 0
 1696 0c00 7246     		mov	r2, lr
 1697              		.loc 1 212 0
 1698 0c02 0B44     		add	r3, r3, r1
 1699              	.LVL86:
 1700 0c04 0992     		str	r2, [sp, #36]
 1701 0c06 4144     		add	r1, r1, r8
 1702              	.LVL87:
 1703 0c08 9244     		add	r10, r10, r2
 1704              		.loc 1 213 0
 1705 0c0a 0C9A     		ldr	r2, [sp, #48]
 1706 0c0c 41EA0C0B 		orr	fp, r1, ip
ARM GAS  C:\Users\jo\AppData\Local\Temp\ccDsJqTW.s 			page 31


 1707              		.loc 1 214 0
 1708 0c10 4FEAF41E 		ror	lr, r4, #7
 1709              		.loc 1 213 0
 1710 0c14 0BEA020B 		and	fp, fp, r2
 1711              		.loc 1 214 0
 1712 0c18 8EEAB44E 		eor	lr, lr, r4, ror #18
 1713 0c1c 0A9A     		ldr	r2, [sp, #40]
 1714              		.loc 1 213 0
 1715 0c1e 85EA0608 		eor	r8, r5, r6
 1716              		.loc 1 214 0
 1717 0c22 8EEAD40E 		eor	lr, lr, r4, lsr #3
 1718              		.loc 1 213 0
 1719 0c26 03EA0808 		and	r8, r3, r8
 1720 0c2a 9644     		add	lr, lr, r2
 1721 0c2c 4FEAB102 		ror	r2, r1, #2
 1722              		.loc 1 214 0
 1723 0c30 019C     		ldr	r4, [sp, #4]
 1724              		.loc 1 213 0
 1725 0c32 88EA0608 		eor	r8, r8, r6
 1726 0c36 82EA7132 		eor	r2, r2, r1, ror #13
 1727 0c3a 5744     		add	r7, r7, r10
 1728              	.LVL88:
 1729 0c3c 4FEAB31A 		ror	r10, r3, #6
 1730 0c40 8AEAF32A 		eor	r10, r10, r3, ror #11
 1731 0c44 4744     		add	r7, r7, r8
 1732 0c46 82EAB158 		eor	r8, r2, r1, ror #22
 1733 0c4a 01EA0C02 		and	r2, r1, ip
 1734 0c4e 8AEA736A 		eor	r10, r10, r3, ror #25
 1735 0c52 4BEA0202 		orr	r2, fp, r2
 1736              		.loc 1 214 0
 1737 0c56 4FEA744B 		ror	fp, r4, #17
 1738              		.loc 1 213 0
 1739 0c5a 5744     		add	r7, r7, r10
 1740              	.LVL89:
 1741              		.loc 1 214 0
 1742 0c5c 8BEAF44A 		eor	r10, fp, r4, ror #19
 1743 0c60 8AEA942B 		eor	fp, r10, r4, lsr #10
 1744              		.loc 1 213 0
 1745 0c64 C419     		adds	r4, r0, r7
 1746 0c66 0294     		str	r4, [sp, #8]
 1747              	.LVL90:
 1748              		.loc 1 214 0
 1749 0c68 0298     		ldr	r0, [sp, #8]
 1750              		.loc 1 215 0
 1751 0c6a 119C     		ldr	r4, [sp, #68]
 1752              		.loc 1 214 0
 1753 0c6c 83EA050A 		eor	r10, r3, r5
 1754              		.loc 1 213 0
 1755 0c70 4244     		add	r2, r2, r8
 1756              	.LVL91:
 1757 0c72 CE44     		add	lr, lr, r9
 1758 0c74 DFF8DC80 		ldr	r8, .L24+24
 1759              		.loc 1 214 0
 1760 0c78 DE44     		add	lr, lr, fp
 1761 0c7a 00EA0A0A 		and	r10, r0, r10
 1762 0c7e 0298     		ldr	r0, [sp, #8]
 1763 0c80 CDF80CE0 		str	lr, [sp, #12]
ARM GAS  C:\Users\jo\AppData\Local\Temp\ccDsJqTW.s 			page 32


 1764 0c84 F044     		add	r8, r8, lr
 1765              		.loc 1 213 0
 1766 0c86 3A44     		add	r2, r2, r7
 1767              	.LVL92:
 1768 0c88 4644     		add	r6, r6, r8
 1769              	.LVL93:
 1770              		.loc 1 215 0
 1771 0c8a 4FEAF417 		ror	r7, r4, #7
 1772              	.LVL94:
 1773              		.loc 1 214 0
 1774 0c8e 4FEAB018 		ror	r8, r0, #6
 1775              		.loc 1 215 0
 1776 0c92 87EAB447 		eor	r7, r7, r4, ror #18
 1777              		.loc 1 214 0
 1778 0c96 88EAF028 		eor	r8, r8, r0, ror #11
 1779 0c9a 0B98     		ldr	r0, [sp, #44]
 1780              		.loc 1 215 0
 1781 0c9c 87EAD407 		eor	r7, r7, r4, lsr #3
 1782              		.loc 1 214 0
 1783 0ca0 029C     		ldr	r4, [sp, #8]
 1784 0ca2 0744     		add	r7, r7, r0
 1785 0ca4 4FEAB20E 		ror	lr, r2, #2
 1786 0ca8 0698     		ldr	r0, [sp, #24]
 1787 0caa 8AEA050A 		eor	r10, r10, r5
 1788 0cae 42EA010B 		orr	fp, r2, r1
 1789 0cb2 88EA7468 		eor	r8, r8, r4, ror #25
 1790 0cb6 8EEA723E 		eor	lr, lr, r2, ror #13
 1791              		.loc 1 215 0
 1792 0cba 099C     		ldr	r4, [sp, #36]
 1793              		.loc 1 214 0
 1794 0cbc 0BEA0C0B 		and	fp, fp, ip
 1795 0cc0 0744     		add	r7, r7, r0
 1796 0cc2 5644     		add	r6, r6, r10
 1797 0cc4 0C98     		ldr	r0, [sp, #48]
 1798 0cc6 8EEAB25A 		eor	r10, lr, r2, ror #22
 1799 0cca 02EA010E 		and	lr, r2, r1
 1800 0cce 4644     		add	r6, r6, r8
 1801              	.LVL95:
 1802 0cd0 4BEA0E0E 		orr	lr, fp, lr
 1803              		.loc 1 215 0
 1804 0cd4 4FEA744B 		ror	fp, r4, #17
 1805 0cd8 8BEAF448 		eor	r8, fp, r4, ror #19
 1806              		.loc 1 214 0
 1807 0cdc 3044     		add	r0, r0, r6
 1808 0cde D644     		add	lr, lr, r10
 1809              	.LVL96:
 1810 0ce0 B644     		add	lr, lr, r6
 1811              	.LVL97:
 1812              		.loc 1 215 0
 1813 0ce2 88EA942B 		eor	fp, r8, r4, lsr #10
 1814 0ce6 029E     		ldr	r6, [sp, #8]
 1815              	.LVL98:
 1816 0ce8 DFF86CA0 		ldr	r10, .L24+28
 1817              		.loc 1 214 0
 1818 0cec 0446     		mov	r4, r0
 1819              	.LVL99:
 1820              		.loc 1 216 0
ARM GAS  C:\Users\jo\AppData\Local\Temp\ccDsJqTW.s 			page 33


 1821 0cee 1298     		ldr	r0, [sp, #72]
 1822              	.LVL100:
 1823              		.loc 1 215 0
 1824 0cf0 07EB0B08 		add	r8, r7, fp
 1825 0cf4 4746     		mov	r7, r8
 1826 0cf6 86EA0308 		eor	r8, r6, r3
 1827              		.loc 1 216 0
 1828 0cfa 4FEAF016 		ror	r6, r0, #7
 1829 0cfe 0A97     		str	r7, [sp, #40]
 1830 0d00 BA44     		add	r10, r10, r7
 1831 0d02 86EAB046 		eor	r6, r6, r0, ror #18
 1832 0d06 119F     		ldr	r7, [sp, #68]
 1833 0d08 86EAD006 		eor	r6, r6, r0, lsr #3
 1834              		.loc 1 215 0
 1835 0d0c 04EA0808 		and	r8, r4, r8
 1836 0d10 3E44     		add	r6, r6, r7
 1837 0d12 4FEABE07 		ror	r7, lr, #2
 1838              		.loc 1 216 0
 1839 0d16 0398     		ldr	r0, [sp, #12]
 1840              		.loc 1 215 0
 1841 0d18 88EA0308 		eor	r8, r8, r3
 1842 0d1c 4EEA020B 		orr	fp, lr, r2
 1843 0d20 87EA7E37 		eor	r7, r7, lr, ror #13
 1844 0d24 5544     		add	r5, r5, r10
 1845              	.LVL101:
 1846 0d26 4FEAB41A 		ror	r10, r4, #6
 1847 0d2a 0BEA010B 		and	fp, fp, r1
 1848 0d2e 8AEAF42A 		eor	r10, r10, r4, ror #11
 1849 0d32 4544     		add	r5, r5, r8
 1850 0d34 87EABE58 		eor	r8, r7, lr, ror #22
 1851 0d38 10E0     		b	.L25
 1852              	.L26:
 1853 0d3a 00BF     		.align	2
 1854              	.L24:
 1855 0d3c 6F2CE92D 		.word	770255983
 1856 0d40 AA84744A 		.word	1249150122
 1857 0d44 DCA9B05C 		.word	1555081692
 1858 0d48 DA88F976 		.word	1996064986
 1859 0d4c 52513E98 		.word	-1740746414
 1860 0d50 6DC631A8 		.word	-1473132947
 1861 0d54 C82703B0 		.word	-1341970488
 1862 0d58 C77F59BF 		.word	-1084653625
 1863              	.L25:
 1864 0d5c 0EEA0207 		and	r7, lr, r2
 1865 0d60 8AEA746A 		eor	r10, r10, r4, ror #25
 1866 0d64 4BEA0707 		orr	r7, fp, r7
 1867              		.loc 1 216 0
 1868 0d68 4FEA704B 		ror	fp, r0, #17
 1869              		.loc 1 215 0
 1870 0d6c 5544     		add	r5, r5, r10
 1871              	.LVL102:
 1872              		.loc 1 216 0
 1873 0d6e 8BEAF04A 		eor	r10, fp, r0, ror #19
 1874 0d72 8AEA902B 		eor	fp, r10, r0, lsr #10
 1875 0d76 1098     		ldr	r0, [sp, #64]
 1876              		.loc 1 215 0
 1877 0d78 4744     		add	r7, r7, r8
ARM GAS  C:\Users\jo\AppData\Local\Temp\ccDsJqTW.s 			page 34


 1878              	.LVL103:
 1879 0d7a 0644     		add	r6, r6, r0
 1880 0d7c AC44     		add	ip, ip, r5
 1881              	.LVL104:
 1882              		.loc 1 216 0
 1883 0d7e 06EB0B0A 		add	r10, r6, fp
 1884              		.loc 1 215 0
 1885 0d82 3D44     		add	r5, r5, r7
 1886              	.LVL105:
 1887              		.loc 1 217 0
 1888 0d84 049E     		ldr	r6, [sp, #16]
 1889              		.loc 1 216 0
 1890 0d86 029F     		ldr	r7, [sp, #8]
 1891              	.LVL106:
 1892 0d88 DFF88084 		ldr	r8, .L27+32
 1893 0d8c 1395     		str	r5, [sp, #76]
 1894 0d8e 5046     		mov	r0, r10
 1895 0d90 84EA070A 		eor	r10, r4, r7
 1896              		.loc 1 217 0
 1897 0d94 4FEAF617 		ror	r7, r6, #7
 1898 0d98 0B90     		str	r0, [sp, #44]
 1899 0d9a 8044     		add	r8, r8, r0
 1900 0d9c 87EAB647 		eor	r7, r7, r6, ror #18
 1901 0da0 3046     		mov	r0, r6
 1902              		.loc 1 216 0
 1903 0da2 029E     		ldr	r6, [sp, #8]
 1904 0da4 0CEA0A0A 		and	r10, ip, r10
 1905 0da8 8AEA060A 		eor	r10, r10, r6
 1906 0dac 129E     		ldr	r6, [sp, #72]
 1907              		.loc 1 217 0
 1908 0dae 87EAD007 		eor	r7, r7, r0, lsr #3
 1909 0db2 3744     		add	r7, r7, r6
 1910              		.loc 1 216 0
 1911 0db4 4FEAB506 		ror	r6, r5, #2
 1912 0db8 86EA7536 		eor	r6, r6, r5, ror #13
 1913 0dbc 4344     		add	r3, r3, r8
 1914              	.LVL107:
 1915 0dbe 45EA0E0B 		orr	fp, r5, lr
 1916 0dc2 4FEABC18 		ror	r8, ip, #6
 1917 0dc6 5344     		add	r3, r3, r10
 1918 0dc8 86EAB55A 		eor	r10, r6, r5, ror #22
 1919 0dcc 05EA0E06 		and	r6, r5, lr
 1920              		.loc 1 217 0
 1921 0dd0 0A9D     		ldr	r5, [sp, #40]
 1922              	.LVL108:
 1923 0dd2 0798     		ldr	r0, [sp, #28]
 1924              		.loc 1 216 0
 1925 0dd4 0BEA020B 		and	fp, fp, r2
 1926 0dd8 88EAFC28 		eor	r8, r8, ip, ror #11
 1927 0ddc 88EA7C68 		eor	r8, r8, ip, ror #25
 1928 0de0 4BEA0606 		orr	r6, fp, r6
 1929              		.loc 1 217 0
 1930 0de4 4FEA754B 		ror	fp, r5, #17
 1931              		.loc 1 216 0
 1932 0de8 4344     		add	r3, r3, r8
 1933              	.LVL109:
 1934              		.loc 1 217 0
ARM GAS  C:\Users\jo\AppData\Local\Temp\ccDsJqTW.s 			page 35


 1935 0dea 8BEAF548 		eor	r8, fp, r5, ror #19
 1936 0dee 88EA952B 		eor	fp, r8, r5, lsr #10
 1937 0df2 0744     		add	r7, r7, r0
 1938 0df4 07EB0B08 		add	r8, r7, fp
 1939              		.loc 1 216 0
 1940 0df8 5644     		add	r6, r6, r10
 1941 0dfa DFF814A4 		ldr	r10, .L27+36
 1942              		.loc 1 218 0
 1943 0dfe 059D     		ldr	r5, [sp, #20]
 1944 0e00 CDF83080 		str	r8, [sp, #48]
 1945              		.loc 1 216 0
 1946 0e04 1944     		add	r1, r1, r3
 1947              	.LVL110:
 1948 0e06 0298     		ldr	r0, [sp, #8]
 1949              		.loc 1 217 0
 1950 0e08 8CEA0407 		eor	r7, ip, r4
 1951 0e0c C244     		add	r10, r10, r8
 1952 0e0e 0F40     		ands	r7, r7, r1
 1953 0e10 6740     		eors	r7, r7, r4
 1954 0e12 5044     		add	r0, r0, r10
 1955 0e14 3844     		add	r0, r0, r7
 1956 0e16 4FEAB11A 		ror	r10, r1, #6
 1957 0e1a 139F     		ldr	r7, [sp, #76]
 1958              		.loc 1 216 0
 1959 0e1c 3344     		add	r3, r3, r6
 1960              	.LVL111:
 1961              		.loc 1 217 0
 1962 0e1e 8AEAF12B 		eor	fp, r10, r1, ror #11
 1963              		.loc 1 218 0
 1964 0e22 4FEAF516 		ror	r6, r5, #7
 1965              		.loc 1 217 0
 1966 0e26 8BEA716A 		eor	r10, fp, r1, ror #25
 1967 0e2a 43EA0708 		orr	r8, r3, r7
 1968              		.loc 1 218 0
 1969 0e2e 86EAB546 		eor	r6, r6, r5, ror #18
 1970 0e32 049F     		ldr	r7, [sp, #16]
 1971              		.loc 1 217 0
 1972 0e34 0493     		str	r3, [sp, #16]
 1973 0e36 4FEAB30B 		ror	fp, r3, #2
 1974 0e3a 8BEA733B 		eor	fp, fp, r3, ror #13
 1975              		.loc 1 218 0
 1976 0e3e 86EAD506 		eor	r6, r6, r5, lsr #3
 1977 0e42 3E44     		add	r6, r6, r7
 1978              		.loc 1 217 0
 1979 0e44 1D46     		mov	r5, r3
 1980 0e46 8BEAB357 		eor	r7, fp, r3, ror #22
 1981 0e4a 139B     		ldr	r3, [sp, #76]
 1982              	.LVL112:
 1983 0e4c 08EA0E08 		and	r8, r8, lr
 1984 0e50 05EA030B 		and	fp, r5, r3
 1985              		.loc 1 218 0
 1986 0e54 0B9B     		ldr	r3, [sp, #44]
 1987              		.loc 1 219 0
 1988 0e56 0D9D     		ldr	r5, [sp, #52]
 1989              	.LVL113:
 1990              		.loc 1 217 0
 1991 0e58 48EA0B0B 		orr	fp, r8, fp
ARM GAS  C:\Users\jo\AppData\Local\Temp\ccDsJqTW.s 			page 36


 1992 0e5c BB44     		add	fp, fp, r7
 1993              		.loc 1 218 0
 1994 0e5e 4FEA7348 		ror	r8, r3, #17
 1995 0e62 089F     		ldr	r7, [sp, #32]
 1996 0e64 88EAF348 		eor	r8, r8, r3, ror #19
 1997              		.loc 1 217 0
 1998 0e68 5044     		add	r0, r0, r10
 1999              	.LVL114:
 2000 0e6a 3E44     		add	r6, r6, r7
 2001              		.loc 1 218 0
 2002 0e6c 88EA9328 		eor	r8, r8, r3, lsr #10
 2003 0e70 DE4F     		ldr	r7, .L27
 2004 0e72 049B     		ldr	r3, [sp, #16]
 2005              		.loc 1 217 0
 2006 0e74 0244     		add	r2, r2, r0
 2007              	.LVL115:
 2008              		.loc 1 218 0
 2009 0e76 B044     		add	r8, r6, r8
 2010 0e78 81EA0C06 		eor	r6, r1, ip
 2011              		.loc 1 217 0
 2012 0e7c 8344     		add	fp, fp, r0
 2013              	.LVL116:
 2014 0e7e 4744     		add	r7, r7, r8
 2015              		.loc 1 219 0
 2016 0e80 4FEAF510 		ror	r0, r5, #7
 2017              	.LVL117:
 2018              		.loc 1 218 0
 2019 0e84 1640     		ands	r6, r6, r2
 2020 0e86 86EA0C06 		eor	r6, r6, ip
 2021              		.loc 1 219 0
 2022 0e8a 80EAB540 		eor	r0, r0, r5, ror #18
 2023 0e8e 3C44     		add	r4, r4, r7
 2024              	.LVL118:
 2025 0e90 CDF84480 		str	r8, [sp, #68]
 2026 0e94 80EAD500 		eor	r0, r0, r5, lsr #3
 2027 0e98 3444     		add	r4, r4, r6
 2028 0e9a 059D     		ldr	r5, [sp, #20]
 2029              		.loc 1 218 0
 2030 0e9c 139E     		ldr	r6, [sp, #76]
 2031 0e9e 4FEABB08 		ror	r8, fp, #2
 2032 0ea2 4BEA030A 		orr	r10, fp, r3
 2033 0ea6 88EA7B38 		eor	r8, r8, fp, ror #13
 2034 0eaa 0AEA060A 		and	r10, r10, r6
 2035 0eae 4FEAB217 		ror	r7, r2, #6
 2036 0eb2 88EABB56 		eor	r6, r8, fp, ror #22
 2037 0eb6 2844     		add	r0, r0, r5
 2038 0eb8 0BEA0308 		and	r8, fp, r3
 2039              		.loc 1 219 0
 2040 0ebc 0C9D     		ldr	r5, [sp, #48]
 2041              		.loc 1 218 0
 2042 0ebe 87EAF227 		eor	r7, r7, r2, ror #11
 2043 0ec2 4AEA0808 		orr	r8, r10, r8
 2044 0ec6 87EA7267 		eor	r7, r7, r2, ror #25
 2045              		.loc 1 219 0
 2046 0eca 4FEA754A 		ror	r10, r5, #17
 2047              		.loc 1 218 0
 2048 0ece B044     		add	r8, r8, r6
ARM GAS  C:\Users\jo\AppData\Local\Temp\ccDsJqTW.s 			page 37


 2049 0ed0 019E     		ldr	r6, [sp, #4]
 2050 0ed2 3C44     		add	r4, r4, r7
 2051              	.LVL119:
 2052              		.loc 1 219 0
 2053 0ed4 8AEAF547 		eor	r7, r10, r5, ror #19
 2054 0ed8 87EA952A 		eor	r10, r7, r5, lsr #10
 2055 0edc 3044     		add	r0, r0, r6
 2056              		.loc 1 218 0
 2057 0ede A644     		add	lr, lr, r4
 2058              	.LVL120:
 2059              		.loc 1 220 0
 2060 0ee0 0E9D     		ldr	r5, [sp, #56]
 2061 0ee2 C34F     		ldr	r7, .L27+4
 2062              		.loc 1 218 0
 2063 0ee4 4444     		add	r4, r4, r8
 2064              	.LVL121:
 2065              		.loc 1 219 0
 2066 0ee6 00EB0A08 		add	r8, r0, r10
 2067              	.LVL122:
 2068 0eea 4346     		mov	r3, r8
 2069 0eec 82EA0108 		eor	r8, r2, r1
 2070 0ef0 1F44     		add	r7, r7, r3
 2071              		.loc 1 220 0
 2072 0ef2 4FEAF516 		ror	r6, r5, #7
 2073              		.loc 1 219 0
 2074 0ef6 0EEA0808 		and	r8, lr, r8
 2075 0efa 0498     		ldr	r0, [sp, #16]
 2076 0efc 1293     		str	r3, [sp, #72]
 2077 0efe 88EA0108 		eor	r8, r8, r1
 2078              		.loc 1 220 0
 2079 0f02 86EAB546 		eor	r6, r6, r5, ror #18
 2080 0f06 BC44     		add	ip, ip, r7
 2081              	.LVL123:
 2082 0f08 86EAD506 		eor	r6, r6, r5, lsr #3
 2083 0f0c C444     		add	ip, ip, r8
 2084 0f0e 0D9D     		ldr	r5, [sp, #52]
 2085              		.loc 1 219 0
 2086 0f10 44EA0B08 		orr	r8, r4, fp
 2087 0f14 08EA0008 		and	r8, r8, r0
 2088 0f18 4FEAB400 		ror	r0, r4, #2
 2089 0f1c 80EA7430 		eor	r0, r0, r4, ror #13
 2090 0f20 4FEABE17 		ror	r7, lr, #6
 2091 0f24 2E44     		add	r6, r6, r5
 2092              		.loc 1 220 0
 2093 0f26 119D     		ldr	r5, [sp, #68]
 2094              		.loc 1 219 0
 2095 0f28 80EAB45A 		eor	r10, r0, r4, ror #22
 2096 0f2c 87EAFE27 		eor	r7, r7, lr, ror #11
 2097 0f30 04EA0B00 		and	r0, r4, fp
 2098 0f34 87EA7E67 		eor	r7, r7, lr, ror #25
 2099 0f38 48EA0000 		orr	r0, r8, r0
 2100              		.loc 1 220 0
 2101 0f3c 4FEA7548 		ror	r8, r5, #17
 2102              		.loc 1 219 0
 2103 0f40 BC44     		add	ip, ip, r7
 2104              	.LVL124:
 2105              		.loc 1 220 0
ARM GAS  C:\Users\jo\AppData\Local\Temp\ccDsJqTW.s 			page 38


 2106 0f42 88EAF547 		eor	r7, r8, r5, ror #19
 2107 0f46 87EA9528 		eor	r8, r7, r5, lsr #10
 2108              		.loc 1 219 0
 2109 0f4a 139D     		ldr	r5, [sp, #76]
 2110 0f4c 099F     		ldr	r7, [sp, #36]
 2111 0f4e 6544     		add	r5, r5, ip
 2112 0f50 0295     		str	r5, [sp, #8]
 2113              	.LVL125:
 2114              		.loc 1 221 0
 2115 0f52 0F9D     		ldr	r5, [sp, #60]
 2116              		.loc 1 220 0
 2117 0f54 029B     		ldr	r3, [sp, #8]
 2118              		.loc 1 219 0
 2119 0f56 5044     		add	r0, r0, r10
 2120              	.LVL126:
 2121 0f58 3E44     		add	r6, r6, r7
 2122 0f5a A64F     		ldr	r7, .L27+8
 2123 0f5c 8444     		add	ip, ip, r0
 2124              	.LVL127:
 2125              		.loc 1 220 0
 2126 0f5e B044     		add	r8, r6, r8
 2127              		.loc 1 221 0
 2128 0f60 4FEAF510 		ror	r0, r5, #7
 2129              	.LVL128:
 2130              		.loc 1 220 0
 2131 0f64 8EEA0206 		eor	r6, lr, r2
 2132 0f68 4744     		add	r7, r7, r8
 2133 0f6a 1E40     		ands	r6, r6, r3
 2134              		.loc 1 221 0
 2135 0f6c 80EAB540 		eor	r0, r0, r5, ror #18
 2136 0f70 2B46     		mov	r3, r5
 2137              		.loc 1 220 0
 2138 0f72 029D     		ldr	r5, [sp, #8]
 2139 0f74 CDF84C80 		str	r8, [sp, #76]
 2140 0f78 5640     		eors	r6, r6, r2
 2141 0f7a 3944     		add	r1, r1, r7
 2142              	.LVL129:
 2143 0f7c 3144     		add	r1, r1, r6
 2144 0f7e 4FEAB517 		ror	r7, r5, #6
 2145 0f82 029E     		ldr	r6, [sp, #8]
 2146 0f84 87EAF527 		eor	r7, r7, r5, ror #11
 2147 0f88 87EA7667 		eor	r7, r7, r6, ror #25
 2148 0f8c 4FEABC0A 		ror	r10, ip, #2
 2149 0f90 0E9E     		ldr	r6, [sp, #56]
 2150              		.loc 1 221 0
 2151 0f92 129D     		ldr	r5, [sp, #72]
 2152              		.loc 1 220 0
 2153 0f94 4CEA0408 		orr	r8, ip, r4
 2154 0f98 8AEA7C3A 		eor	r10, r10, ip, ror #13
 2155              		.loc 1 221 0
 2156 0f9c 80EAD300 		eor	r0, r0, r3, lsr #3
 2157              		.loc 1 220 0
 2158 0fa0 08EA0B08 		and	r8, r8, fp
 2159 0fa4 3044     		add	r0, r0, r6
 2160 0fa6 8AEABC56 		eor	r6, r10, ip, ror #22
 2161 0faa 0CEA040A 		and	r10, ip, r4
 2162 0fae 48EA0A0A 		orr	r10, r8, r10
ARM GAS  C:\Users\jo\AppData\Local\Temp\ccDsJqTW.s 			page 39


 2163 0fb2 B244     		add	r10, r10, r6
 2164              		.loc 1 221 0
 2165 0fb4 4FEA7548 		ror	r8, r5, #17
 2166 0fb8 039E     		ldr	r6, [sp, #12]
 2167              		.loc 1 220 0
 2168 0fba 049B     		ldr	r3, [sp, #16]
 2169 0fbc 3944     		add	r1, r1, r7
 2170              	.LVL130:
 2171              		.loc 1 221 0
 2172 0fbe 88EAF547 		eor	r7, r8, r5, ror #19
 2173 0fc2 87EA9528 		eor	r8, r7, r5, lsr #10
 2174 0fc6 3044     		add	r0, r0, r6
 2175 0fc8 8B4F     		ldr	r7, .L27+12
 2176 0fca 029D     		ldr	r5, [sp, #8]
 2177 0fcc 8044     		add	r8, r0, r8
 2178              		.loc 1 220 0
 2179 0fce 0B44     		add	r3, r3, r1
 2180              	.LVL131:
 2181 0fd0 4744     		add	r7, r7, r8
 2182 0fd2 5144     		add	r1, r1, r10
 2183              	.LVL132:
 2184 0fd4 3A44     		add	r2, r2, r7
 2185              	.LVL133:
 2186              		.loc 1 222 0
 2187 0fd6 4FEAF91A 		ror	r10, r9, #7
 2188              	.LVL134:
 2189              		.loc 1 221 0
 2190 0fda 4FEAB317 		ror	r7, r3, #6
 2191 0fde 85EA0E00 		eor	r0, r5, lr
 2192 0fe2 CDF83480 		str	r8, [sp, #52]
 2193              		.loc 1 222 0
 2194 0fe6 8AEAB94A 		eor	r10, r10, r9, ror #18
 2195 0fea 0F9D     		ldr	r5, [sp, #60]
 2196              		.loc 1 221 0
 2197 0fec 87EAF328 		eor	r8, r7, r3, ror #11
 2198 0ff0 88EA7367 		eor	r7, r8, r3, ror #25
 2199 0ff4 1840     		ands	r0, r0, r3
 2200              		.loc 1 222 0
 2201 0ff6 8AEAD90A 		eor	r10, r10, r9, lsr #3
 2202              		.loc 1 221 0
 2203 0ffa 4FEAB108 		ror	r8, r1, #2
 2204 0ffe 80EA0E00 		eor	r0, r0, lr
 2205 1002 41EA0C06 		orr	r6, r1, ip
 2206 1006 88EA7138 		eor	r8, r8, r1, ror #13
 2207 100a AA44     		add	r10, r10, r5
 2208              		.loc 1 222 0
 2209 100c 139D     		ldr	r5, [sp, #76]
 2210              		.loc 1 221 0
 2211 100e 2640     		ands	r6, r6, r4
 2212 1010 0244     		add	r2, r2, r0
 2213 1012 88EAB150 		eor	r0, r8, r1, ror #22
 2214 1016 01EA0C08 		and	r8, r1, ip
 2215 101a 3A44     		add	r2, r2, r7
 2216              	.LVL135:
 2217 101c 46EA0808 		orr	r8, r6, r8
 2218              		.loc 1 222 0
 2219 1020 4FEA7547 		ror	r7, r5, #17
ARM GAS  C:\Users\jo\AppData\Local\Temp\ccDsJqTW.s 			page 40


 2220 1024 0A9E     		ldr	r6, [sp, #40]
 2221 1026 87EAF547 		eor	r7, r7, r5, ror #19
 2222              		.loc 1 221 0
 2223 102a 8044     		add	r8, r8, r0
 2224              	.LVL136:
 2225              		.loc 1 222 0
 2226 102c 87EA9527 		eor	r7, r7, r5, lsr #10
 2227 1030 0298     		ldr	r0, [sp, #8]
 2228 1032 B244     		add	r10, r10, r6
 2229              		.loc 1 221 0
 2230 1034 9344     		add	fp, fp, r2
 2231              	.LVL137:
 2232 1036 4244     		add	r2, r2, r8
 2233              	.LVL138:
 2234              		.loc 1 222 0
 2235 1038 0AEB0708 		add	r8, r10, r7
 2236              	.LVL139:
 2237 103c 4546     		mov	r5, r8
 2238 103e 6F4E     		ldr	r6, .L27+16
 2239 1040 0495     		str	r5, [sp, #16]
 2240 1042 83EA0008 		eor	r8, r3, r0
 2241              		.loc 1 223 0
 2242 1046 0698     		ldr	r0, [sp, #24]
 2243 1048 2E44     		add	r6, r6, r5
 2244 104a 4FEAF017 		ror	r7, r0, #7
 2245 104e 87EAB047 		eor	r7, r7, r0, ror #18
 2246 1052 B644     		add	lr, lr, r6
 2247              	.LVL140:
 2248              		.loc 1 222 0
 2249 1054 029E     		ldr	r6, [sp, #8]
 2250 1056 0B9D     		ldr	r5, [sp, #44]
 2251 1058 0BEA0808 		and	r8, fp, r8
 2252              		.loc 1 223 0
 2253 105c 87EAD007 		eor	r7, r7, r0, lsr #3
 2254              		.loc 1 222 0
 2255 1060 4FEAB200 		ror	r0, r2, #2
 2256 1064 88EA0608 		eor	r8, r8, r6
 2257 1068 80EA7230 		eor	r0, r0, r2, ror #13
 2258 106c 42EA0106 		orr	r6, r2, r1
 2259 1070 06EA0C06 		and	r6, r6, ip
 2260 1074 4F44     		add	r7, r7, r9
 2261 1076 80EAB259 		eor	r9, r0, r2, ror #22
 2262 107a 02EA0100 		and	r0, r2, r1
 2263 107e 4FEABB1A 		ror	r10, fp, #6
 2264 1082 3043     		orrs	r0, r0, r6
 2265              		.loc 1 223 0
 2266 1084 0D9E     		ldr	r6, [sp, #52]
 2267              		.loc 1 222 0
 2268 1086 8AEAFB2A 		eor	r10, r10, fp, ror #11
 2269 108a 8AEA7B6A 		eor	r10, r10, fp, ror #25
 2270 108e C644     		add	lr, lr, r8
 2271              		.loc 1 223 0
 2272 1090 4FEA7648 		ror	r8, r6, #17
 2273              		.loc 1 222 0
 2274 1094 D644     		add	lr, lr, r10
 2275              	.LVL141:
 2276              		.loc 1 223 0
ARM GAS  C:\Users\jo\AppData\Local\Temp\ccDsJqTW.s 			page 41


 2277 1096 88EAF648 		eor	r8, r8, r6, ror #19
 2278              		.loc 1 222 0
 2279 109a 4844     		add	r0, r0, r9
 2280              	.LVL142:
 2281 109c 2F44     		add	r7, r7, r5
 2282              		.loc 1 223 0
 2283 109e 88EA9629 		eor	r9, r8, r6, lsr #10
 2284              		.loc 1 222 0
 2285 10a2 7444     		add	r4, r4, lr
 2286 10a4 0594     		str	r4, [sp, #20]
 2287              	.LVL143:
 2288              		.loc 1 223 0
 2289 10a6 07EB0908 		add	r8, r7, r9
 2290 10aa 554E     		ldr	r6, .L27+20
 2291              		.loc 1 224 0
 2292 10ac 109F     		ldr	r7, [sp, #64]
 2293              		.loc 1 223 0
 2294 10ae 059C     		ldr	r4, [sp, #20]
 2295 10b0 029D     		ldr	r5, [sp, #8]
 2296 10b2 CDF83880 		str	r8, [sp, #56]
 2297              		.loc 1 222 0
 2298 10b6 8644     		add	lr, lr, r0
 2299              	.LVL144:
 2300 10b8 4644     		add	r6, r6, r8
 2301              		.loc 1 224 0
 2302 10ba 4FEAF710 		ror	r0, r7, #7
 2303              	.LVL145:
 2304 10be 80EAB740 		eor	r0, r0, r7, ror #18
 2305 10c2 3544     		add	r5, r5, r6
 2306              		.loc 1 223 0
 2307 10c4 4FEAB41A 		ror	r10, r4, #6
 2308 10c8 069E     		ldr	r6, [sp, #24]
 2309 10ca 4FEABE08 		ror	r8, lr, #2
 2310 10ce 8BEA0309 		eor	r9, fp, r3
 2311 10d2 88EA7E38 		eor	r8, r8, lr, ror #13
 2312 10d6 8AEAF42A 		eor	r10, r10, r4, ror #11
 2313              		.loc 1 224 0
 2314 10da 80EAD700 		eor	r0, r0, r7, lsr #3
 2315              		.loc 1 223 0
 2316 10de 4EEA0207 		orr	r7, lr, r2
 2317 10e2 0F40     		ands	r7, r7, r1
 2318 10e4 8AEA746A 		eor	r10, r10, r4, ror #25
 2319 10e8 04EA0909 		and	r9, r4, r9
 2320 10ec 3044     		add	r0, r0, r6
 2321              		.loc 1 224 0
 2322 10ee 049C     		ldr	r4, [sp, #16]
 2323              		.loc 1 223 0
 2324 10f0 88EABE56 		eor	r6, r8, lr, ror #22
 2325 10f4 0EEA0208 		and	r8, lr, r2
 2326 10f8 47EA0808 		orr	r8, r7, r8
 2327 10fc B044     		add	r8, r8, r6
 2328              		.loc 1 224 0
 2329 10fe 4FEA7447 		ror	r7, r4, #17
 2330 1102 0C9E     		ldr	r6, [sp, #48]
 2331 1104 87EAF447 		eor	r7, r7, r4, ror #19
 2332              		.loc 1 223 0
 2333 1108 89EA0309 		eor	r9, r9, r3
ARM GAS  C:\Users\jo\AppData\Local\Temp\ccDsJqTW.s 			page 42


 2334 110c 3044     		add	r0, r0, r6
 2335              		.loc 1 224 0
 2336 110e 87EA9427 		eor	r7, r7, r4, lsr #10
 2337 1112 C719     		adds	r7, r0, r7
 2338 1114 4D44     		add	r5, r5, r9
 2339 1116 0598     		ldr	r0, [sp, #20]
 2340 1118 3A4E     		ldr	r6, .L27+24
 2341 111a 3C46     		mov	r4, r7
 2342              		.loc 1 223 0
 2343 111c 5544     		add	r5, r5, r10
 2344              	.LVL146:
 2345              		.loc 1 225 0
 2346 111e 079F     		ldr	r7, [sp, #28]
 2347 1120 0F94     		str	r4, [sp, #60]
 2348              		.loc 1 223 0
 2349 1122 AC44     		add	ip, ip, r5
 2350              	.LVL147:
 2351              		.loc 1 224 0
 2352 1124 80EA0B00 		eor	r0, r0, fp
 2353              		.loc 1 223 0
 2354 1128 4544     		add	r5, r5, r8
 2355              	.LVL148:
 2356 112a 2644     		add	r6, r6, r4
 2357              		.loc 1 225 0
 2358 112c 4FEAF71A 		ror	r10, r7, #7
 2359              	.LVL149:
 2360              		.loc 1 224 0
 2361 1130 0CEA0000 		and	r0, ip, r0
 2362              		.loc 1 225 0
 2363 1134 3C46     		mov	r4, r7
 2364              		.loc 1 224 0
 2365 1136 80EA0B00 		eor	r0, r0, fp
 2366              		.loc 1 225 0
 2367 113a 8AEAB74A 		eor	r10, r10, r7, ror #18
 2368 113e 3344     		add	r3, r3, r6
 2369              	.LVL150:
 2370              		.loc 1 224 0
 2371 1140 4FEAB509 		ror	r9, r5, #2
 2372              	.LVL151:
 2373 1144 109E     		ldr	r6, [sp, #64]
 2374 1146 45EA0E08 		orr	r8, r5, lr
 2375              	.LVL152:
 2376 114a 89EA7539 		eor	r9, r9, r5, ror #13
 2377 114e 4FEABC17 		ror	r7, ip, #6
 2378              		.loc 1 225 0
 2379 1152 8AEAD40A 		eor	r10, r10, r4, lsr #3
 2380 1156 0344     		add	r3, r3, r0
 2381 1158 0E98     		ldr	r0, [sp, #56]
 2382              		.loc 1 224 0
 2383 115a 08EA0208 		and	r8, r8, r2
 2384 115e 87EAFC27 		eor	r7, r7, ip, ror #11
 2385 1162 B244     		add	r10, r10, r6
 2386 1164 89EAB556 		eor	r6, r9, r5, ror #22
 2387 1168 05EA0E09 		and	r9, r5, lr
 2388 116c 87EA7C67 		eor	r7, r7, ip, ror #25
 2389 1170 48EA0909 		orr	r9, r8, r9
 2390              		.loc 1 225 0
ARM GAS  C:\Users\jo\AppData\Local\Temp\ccDsJqTW.s 			page 43


 2391 1174 4FEA7048 		ror	r8, r0, #17
 2392              		.loc 1 224 0
 2393 1178 3B44     		add	r3, r3, r7
 2394              	.LVL153:
 2395              		.loc 1 225 0
 2396 117a 88EAF047 		eor	r7, r8, r0, ror #19
 2397 117e 87EA9028 		eor	r8, r7, r0, lsr #10
 2398 1182 1198     		ldr	r0, [sp, #68]
 2399 1184 059F     		ldr	r7, [sp, #20]
 2400 1186 8244     		add	r10, r10, r0
 2401              		.loc 1 226 0
 2402 1188 0898     		ldr	r0, [sp, #32]
 2403              		.loc 1 224 0
 2404 118a B144     		add	r9, r9, r6
 2405              	.LVL154:
 2406              		.loc 1 225 0
 2407 118c D044     		add	r8, r10, r8
 2408 118e 1E4E     		ldr	r6, .L27+28
 2409 1190 4446     		mov	r4, r8
 2410 1192 8CEA0708 		eor	r8, ip, r7
 2411              		.loc 1 226 0
 2412 1196 4FEAF017 		ror	r7, r0, #7
 2413              		.loc 1 224 0
 2414 119a 1944     		add	r1, r1, r3
 2415              	.LVL155:
 2416 119c 1094     		str	r4, [sp, #64]
 2417 119e 4B44     		add	r3, r3, r9
 2418              	.LVL156:
 2419 11a0 2644     		add	r6, r6, r4
 2420              		.loc 1 226 0
 2421 11a2 87EAB047 		eor	r7, r7, r0, ror #18
 2422 11a6 0446     		mov	r4, r0
 2423              		.loc 1 225 0
 2424 11a8 0598     		ldr	r0, [sp, #20]
 2425 11aa B344     		add	fp, fp, r6
 2426              	.LVL157:
 2427 11ac 01EA0808 		and	r8, r1, r8
 2428 11b0 079E     		ldr	r6, [sp, #28]
 2429 11b2 4FEAB309 		ror	r9, r3, #2
 2430              	.LVL158:
 2431 11b6 89EA7339 		eor	r9, r9, r3, ror #13
 2432 11ba 88EA0008 		eor	r8, r8, r0
 2433              		.loc 1 226 0
 2434 11be 87EAD407 		eor	r7, r7, r4, lsr #3
 2435              		.loc 1 225 0
 2436 11c2 43EA0500 		orr	r0, r3, r5
 2437 11c6 00EA0E00 		and	r0, r0, lr
 2438 11ca 4FEAB11A 		ror	r10, r1, #6
 2439 11ce 3744     		add	r7, r7, r6
 2440 11d0 89EAB356 		eor	r6, r9, r3, ror #22
 2441 11d4 03EA0509 		and	r9, r3, r5
 2442 11d8 8AEAF12A 		eor	r10, r10, r1, ror #11
 2443 11dc 40EA0909 		orr	r9, r0, r9
 2444              		.loc 1 226 0
 2445 11e0 0F98     		ldr	r0, [sp, #60]
 2446 11e2 D844     		add	r8, r8, fp
 2447              		.loc 1 225 0
ARM GAS  C:\Users\jo\AppData\Local\Temp\ccDsJqTW.s 			page 44


 2448 11e4 8AEA716A 		eor	r10, r10, r1, ror #25
 2449 11e8 C244     		add	r10, r10, r8
 2450 11ea 13E0     		b	.L28
 2451              	.L29:
 2452              		.align	2
 2453              	.L27:
 2454 11ec 5163CA06 		.word	113926993
 2455 11f0 67292914 		.word	338241895
 2456 11f4 850AB727 		.word	666307205
 2457 11f8 38211B2E 		.word	773529912
 2458 11fc FC6D2C4D 		.word	1294757372
 2459 1200 130D3853 		.word	1396182291
 2460 1204 54730A65 		.word	1695183700
 2461 1208 BB0A6A76 		.word	1986661051
 2462 120c F30BE0C6 		.word	-958395405
 2463 1210 4791A7D5 		.word	-710438585
 2464              	.L28:
 2465              	.LVL159:
 2466              		.loc 1 226 0
 2467 1214 4FEA7048 		ror	r8, r0, #17
 2468 1218 88EAF048 		eor	r8, r8, r0, ror #19
 2469              		.loc 1 225 0
 2470 121c B144     		add	r9, r9, r6
 2471              	.LVL160:
 2472              		.loc 1 226 0
 2473 121e 88EA9026 		eor	r6, r8, r0, lsr #10
 2474 1222 1298     		ldr	r0, [sp, #72]
 2475 1224 0744     		add	r7, r7, r0
 2476 1226 3744     		add	r7, r7, r6
 2477 1228 3C46     		mov	r4, r7
 2478 122a DB48     		ldr	r0, .L30
 2479              		.loc 1 227 0
 2480 122c 019F     		ldr	r7, [sp, #4]
 2481 122e 0694     		str	r4, [sp, #24]
 2482              		.loc 1 225 0
 2483 1230 D144     		add	r9, r9, r10
 2484              	.LVL161:
 2485 1232 5244     		add	r2, r2, r10
 2486              	.LVL162:
 2487              		.loc 1 226 0
 2488 1234 81EA0C06 		eor	r6, r1, ip
 2489 1238 2044     		add	r0, r0, r4
 2490              		.loc 1 227 0
 2491 123a 4FEAF71A 		ror	r10, r7, #7
 2492              	.LVL163:
 2493 123e 019F     		ldr	r7, [sp, #4]
 2494 1240 059C     		ldr	r4, [sp, #20]
 2495              		.loc 1 226 0
 2496 1242 1640     		ands	r6, r6, r2
 2497              		.loc 1 227 0
 2498 1244 B846     		mov	r8, r7
 2499              		.loc 1 226 0
 2500 1246 86EA0C06 		eor	r6, r6, ip
 2501              		.loc 1 227 0
 2502 124a 8AEAB74A 		eor	r10, r10, r7, ror #18
 2503 124e 0444     		add	r4, r4, r0
 2504              		.loc 1 226 0
ARM GAS  C:\Users\jo\AppData\Local\Temp\ccDsJqTW.s 			page 45


 2505 1250 4FEAB90B 		ror	fp, r9, #2
 2506              	.LVL164:
 2507 1254 0898     		ldr	r0, [sp, #32]
 2508 1256 8BEA793B 		eor	fp, fp, r9, ror #13
 2509 125a 4FEAB217 		ror	r7, r2, #6
 2510              		.loc 1 227 0
 2511 125e 8AEAD80A 		eor	r10, r10, r8, lsr #3
 2512 1262 3444     		add	r4, r4, r6
 2513              		.loc 1 226 0
 2514 1264 49EA0308 		orr	r8, r9, r3
 2515              		.loc 1 227 0
 2516 1268 109E     		ldr	r6, [sp, #64]
 2517              		.loc 1 226 0
 2518 126a 08EA0508 		and	r8, r8, r5
 2519 126e 87EAF227 		eor	r7, r7, r2, ror #11
 2520 1272 8244     		add	r10, r10, r0
 2521 1274 8BEAB950 		eor	r0, fp, r9, ror #22
 2522 1278 09EA030B 		and	fp, r9, r3
 2523 127c 87EA7267 		eor	r7, r7, r2, ror #25
 2524 1280 48EA0B0B 		orr	fp, r8, fp
 2525              		.loc 1 227 0
 2526 1284 4FEA7648 		ror	r8, r6, #17
 2527              		.loc 1 226 0
 2528 1288 3C44     		add	r4, r4, r7
 2529              	.LVL165:
 2530              		.loc 1 227 0
 2531 128a 88EAF647 		eor	r7, r8, r6, ror #19
 2532 128e 87EA9628 		eor	r8, r7, r6, lsr #10
 2533 1292 139F     		ldr	r7, [sp, #76]
 2534 1294 C14E     		ldr	r6, .L30+4
 2535              		.loc 1 226 0
 2536 1296 8344     		add	fp, fp, r0
 2537              	.LVL166:
 2538 1298 BA44     		add	r10, r10, r7
 2539 129a 04EB0E00 		add	r0, r4, lr
 2540              	.LVL167:
 2541 129e 04EB0B07 		add	r7, r4, fp
 2542              		.loc 1 227 0
 2543 12a2 0AEB080E 		add	lr, r10, r8
 2544              		.loc 1 226 0
 2545 12a6 0597     		str	r7, [sp, #20]
 2546              	.LVL168:
 2547              		.loc 1 227 0
 2548 12a8 7446     		mov	r4, lr
 2549              	.LVL169:
 2550              		.loc 1 228 0
 2551 12aa 099F     		ldr	r7, [sp, #36]
 2552 12ac 0794     		str	r4, [sp, #28]
 2553 12ae 2644     		add	r6, r6, r4
 2554 12b0 099C     		ldr	r4, [sp, #36]
 2555 12b2 4FEAF71B 		ror	fp, r7, #7
 2556              	.LVL170:
 2557 12b6 8BEAB44B 		eor	fp, fp, r4, ror #18
 2558 12ba 8BEAD40B 		eor	fp, fp, r4, lsr #3
 2559              		.loc 1 227 0
 2560 12be 059C     		ldr	r4, [sp, #20]
 2561 12c0 B444     		add	ip, ip, r6
ARM GAS  C:\Users\jo\AppData\Local\Temp\ccDsJqTW.s 			page 46


 2562              	.LVL171:
 2563 12c2 4FEAB407 		ror	r7, r4, #2
 2564 12c6 019E     		ldr	r6, [sp, #4]
 2565 12c8 82EA010E 		eor	lr, r2, r1
 2566 12cc 87EA7437 		eor	r7, r7, r4, ror #13
 2567 12d0 44EA090A 		orr	r10, r4, r9
 2568 12d4 00EA0E0E 		and	lr, r0, lr
 2569 12d8 B344     		add	fp, fp, r6
 2570 12da 87EAB456 		eor	r6, r7, r4, ror #22
 2571 12de 04EA0907 		and	r7, r4, r9
 2572              		.loc 1 228 0
 2573 12e2 069C     		ldr	r4, [sp, #24]
 2574              		.loc 1 227 0
 2575 12e4 8EEA010E 		eor	lr, lr, r1
 2576 12e8 F444     		add	ip, ip, lr
 2577              		.loc 1 228 0
 2578 12ea 4FEA744E 		ror	lr, r4, #17
 2579 12ee 8EEAF44E 		eor	lr, lr, r4, ror #19
 2580 12f2 8EEA942E 		eor	lr, lr, r4, lsr #10
 2581 12f6 0D9C     		ldr	r4, [sp, #52]
 2582              		.loc 1 227 0
 2583 12f8 4FEAB018 		ror	r8, r0, #6
 2584 12fc A344     		add	fp, fp, r4
 2585 12fe 0AEA030A 		and	r10, r10, r3
 2586              		.loc 1 229 0
 2587 1302 039C     		ldr	r4, [sp, #12]
 2588              		.loc 1 228 0
 2589 1304 DE44     		add	lr, fp, lr
 2590              		.loc 1 227 0
 2591 1306 88EAF028 		eor	r8, r8, r0, ror #11
 2592              		.loc 1 228 0
 2593 130a CDF820E0 		str	lr, [sp, #32]
 2594              		.loc 1 227 0
 2595 130e 88EA7068 		eor	r8, r8, r0, ror #25
 2596 1312 4AEA0707 		orr	r7, r10, r7
 2597 1316 C444     		add	ip, ip, r8
 2598              	.LVL172:
 2599 1318 3744     		add	r7, r7, r6
 2600              	.LVL173:
 2601              		.loc 1 229 0
 2602 131a 4FEAF41B 		ror	fp, r4, #7
 2603 131e A04E     		ldr	r6, .L30+8
 2604 1320 089C     		ldr	r4, [sp, #32]
 2605              		.loc 1 227 0
 2606 1322 6544     		add	r5, r5, ip
 2607              	.LVL174:
 2608 1324 BC44     		add	ip, ip, r7
 2609              	.LVL175:
 2610              		.loc 1 228 0
 2611 1326 80EA0207 		eor	r7, r0, r2
 2612              	.LVL176:
 2613 132a 2644     		add	r6, r6, r4
 2614 132c 2F40     		ands	r7, r7, r5
 2615              		.loc 1 229 0
 2616 132e 039C     		ldr	r4, [sp, #12]
 2617              		.loc 1 228 0
 2618 1330 5740     		eors	r7, r7, r2
ARM GAS  C:\Users\jo\AppData\Local\Temp\ccDsJqTW.s 			page 47


 2619 1332 3144     		add	r1, r1, r6
 2620              	.LVL177:
 2621 1334 3944     		add	r1, r1, r7
 2622 1336 059F     		ldr	r7, [sp, #20]
 2623 1338 099E     		ldr	r6, [sp, #36]
 2624              		.loc 1 229 0
 2625 133a 8BEAB44B 		eor	fp, fp, r4, ror #18
 2626              		.loc 1 228 0
 2627 133e 4FEABC0A 		ror	r10, ip, #2
 2628 1342 4CEA0708 		orr	r8, ip, r7
 2629 1346 8AEA7C3A 		eor	r10, r10, ip, ror #13
 2630              		.loc 1 229 0
 2631 134a 8BEAD40B 		eor	fp, fp, r4, lsr #3
 2632              		.loc 1 228 0
 2633 134e 08EA0908 		and	r8, r8, r9
 2634              		.loc 1 229 0
 2635 1352 079C     		ldr	r4, [sp, #28]
 2636              		.loc 1 228 0
 2637 1354 4FEAB51E 		ror	lr, r5, #6
 2638 1358 B344     		add	fp, fp, r6
 2639 135a 8AEABC56 		eor	r6, r10, ip, ror #22
 2640 135e 0CEA070A 		and	r10, ip, r7
 2641 1362 8EEAF52E 		eor	lr, lr, r5, ror #11
 2642 1366 48EA0A0A 		orr	r10, r8, r10
 2643 136a 8EEA756E 		eor	lr, lr, r5, ror #25
 2644              		.loc 1 229 0
 2645 136e 4FEA7448 		ror	r8, r4, #17
 2646              		.loc 1 228 0
 2647 1372 B244     		add	r10, r10, r6
 2648 1374 049E     		ldr	r6, [sp, #16]
 2649 1376 7144     		add	r1, r1, lr
 2650              	.LVL178:
 2651              		.loc 1 229 0
 2652 1378 88EAF44E 		eor	lr, r8, r4, ror #19
 2653 137c 8EEA9428 		eor	r8, lr, r4, lsr #10
 2654 1380 B344     		add	fp, fp, r6
 2655 1382 0BEB080E 		add	lr, fp, r8
 2656              		.loc 1 230 0
 2657 1386 0A9C     		ldr	r4, [sp, #40]
 2658              		.loc 1 229 0
 2659 1388 CDF804E0 		str	lr, [sp, #4]
 2660              		.loc 1 230 0
 2661 138c 4FEAF41B 		ror	fp, r4, #7
 2662 1390 844E     		ldr	r6, .L30+12
 2663 1392 019C     		ldr	r4, [sp, #4]
 2664 1394 2644     		add	r6, r6, r4
 2665 1396 0A9C     		ldr	r4, [sp, #40]
 2666 1398 8BEAB44B 		eor	fp, fp, r4, ror #18
 2667              		.loc 1 228 0
 2668 139c 0B44     		add	r3, r3, r1
 2669              	.LVL179:
 2670              		.loc 1 229 0
 2671 139e 85EA0007 		eor	r7, r5, r0
 2672              		.loc 1 228 0
 2673 13a2 5144     		add	r1, r1, r10
 2674              	.LVL180:
 2675 13a4 3244     		add	r2, r2, r6
ARM GAS  C:\Users\jo\AppData\Local\Temp\ccDsJqTW.s 			page 48


 2676              	.LVL181:
 2677              		.loc 1 230 0
 2678 13a6 8BEAD40B 		eor	fp, fp, r4, lsr #3
 2679              		.loc 1 229 0
 2680 13aa 059E     		ldr	r6, [sp, #20]
 2681 13ac 039C     		ldr	r4, [sp, #12]
 2682 13ae 41EA0C0A 		orr	r10, r1, ip
 2683              	.LVL182:
 2684 13b2 1F40     		ands	r7, r7, r3
 2685 13b4 4FEAB31E 		ror	lr, r3, #6
 2686 13b8 4740     		eors	r7, r7, r0
 2687 13ba 0AEA060A 		and	r10, r10, r6
 2688 13be 8EEAF32E 		eor	lr, lr, r3, ror #11
 2689 13c2 A344     		add	fp, fp, r4
 2690 13c4 4FEAB106 		ror	r6, r1, #2
 2691              		.loc 1 230 0
 2692 13c8 089C     		ldr	r4, [sp, #32]
 2693              		.loc 1 229 0
 2694 13ca 8EEA736E 		eor	lr, lr, r3, ror #25
 2695 13ce 86EA7136 		eor	r6, r6, r1, ror #13
 2696 13d2 3A44     		add	r2, r2, r7
 2697 13d4 86EAB158 		eor	r8, r6, r1, ror #22
 2698 13d8 0E9F     		ldr	r7, [sp, #56]
 2699 13da 7244     		add	r2, r2, lr
 2700              	.LVL183:
 2701 13dc 01EA0C06 		and	r6, r1, ip
 2702              		.loc 1 230 0
 2703 13e0 4FEA744E 		ror	lr, r4, #17
 2704 13e4 8EEAF44E 		eor	lr, lr, r4, ror #19
 2705              		.loc 1 229 0
 2706 13e8 4AEA0606 		orr	r6, r10, r6
 2707 13ec 4644     		add	r6, r6, r8
 2708              	.LVL184:
 2709 13ee BB44     		add	fp, fp, r7
 2710              		.loc 1 230 0
 2711 13f0 8EEA9428 		eor	r8, lr, r4, lsr #10
 2712 13f4 0BEB080E 		add	lr, fp, r8
 2713              		.loc 1 231 0
 2714 13f8 0B9C     		ldr	r4, [sp, #44]
 2715              		.loc 1 230 0
 2716 13fa CDF808E0 		str	lr, [sp, #8]
 2717              		.loc 1 231 0
 2718 13fe 4FEAF41B 		ror	fp, r4, #7
 2719 1402 694F     		ldr	r7, .L30+16
 2720 1404 029C     		ldr	r4, [sp, #8]
 2721 1406 2744     		add	r7, r7, r4
 2722 1408 0B9C     		ldr	r4, [sp, #44]
 2723 140a 8BEAB44B 		eor	fp, fp, r4, ror #18
 2724 140e 8BEAD40B 		eor	fp, fp, r4, lsr #3
 2725 1412 0A9C     		ldr	r4, [sp, #40]
 2726              		.loc 1 229 0
 2727 1414 9144     		add	r9, r9, r2
 2728              	.LVL185:
 2729 1416 3244     		add	r2, r2, r6
 2730              	.LVL186:
 2731              		.loc 1 230 0
 2732 1418 83EA0506 		eor	r6, r3, r5
ARM GAS  C:\Users\jo\AppData\Local\Temp\ccDsJqTW.s 			page 49


 2733              	.LVL187:
 2734 141c 09EA0606 		and	r6, r9, r6
 2735 1420 A344     		add	fp, fp, r4
 2736              		.loc 1 231 0
 2737 1422 019C     		ldr	r4, [sp, #4]
 2738 1424 07EB000E 		add	lr, r7, r0
 2739              		.loc 1 230 0
 2740 1428 6E40     		eors	r6, r6, r5
 2741 142a 4FEAB20A 		ror	r10, r2, #2
 2742 142e 42EA0100 		orr	r0, r2, r1
 2743              	.LVL188:
 2744 1432 8AEA723A 		eor	r10, r10, r2, ror #13
 2745 1436 4FEAB918 		ror	r8, r9, #6
 2746 143a 7644     		add	r6, r6, lr
 2747              		.loc 1 231 0
 2748 143c 4FEA744E 		ror	lr, r4, #17
 2749              		.loc 1 230 0
 2750 1440 8AEAB257 		eor	r7, r10, r2, ror #22
 2751 1444 00EA0C00 		and	r0, r0, ip
 2752 1448 02EA010A 		and	r10, r2, r1
 2753 144c 88EAF928 		eor	r8, r8, r9, ror #11
 2754              		.loc 1 231 0
 2755 1450 8EEAF44E 		eor	lr, lr, r4, ror #19
 2756              		.loc 1 230 0
 2757 1454 88EA7968 		eor	r8, r8, r9, ror #25
 2758 1458 40EA0A0A 		orr	r10, r0, r10
 2759              		.loc 1 231 0
 2760 145c 8EEA942E 		eor	lr, lr, r4, lsr #10
 2761              		.loc 1 230 0
 2762 1460 059C     		ldr	r4, [sp, #20]
 2763 1462 5248     		ldr	r0, .L30+20
 2764 1464 4644     		add	r6, r6, r8
 2765              	.LVL189:
 2766 1466 BA44     		add	r10, r10, r7
 2767              	.LVL190:
 2768 1468 0F9F     		ldr	r7, [sp, #60]
 2769 146a 0AEB0608 		add	r8, r10, r6
 2770              	.LVL191:
 2771 146e 3444     		add	r4, r4, r6
 2772              		.loc 1 232 0
 2773 1470 0C9E     		ldr	r6, [sp, #48]
 2774              	.LVL192:
 2775              		.loc 1 230 0
 2776 1472 0394     		str	r4, [sp, #12]
 2777              	.LVL193:
 2778 1474 BB44     		add	fp, fp, r7
 2779              		.loc 1 231 0
 2780 1476 DE44     		add	lr, fp, lr
 2781              		.loc 1 232 0
 2782 1478 4FEAF61B 		ror	fp, r6, #7
 2783              		.loc 1 231 0
 2784 147c 039E     		ldr	r6, [sp, #12]
 2785 147e 89EA0307 		eor	r7, r9, r3
 2786 1482 7446     		mov	r4, lr
 2787 1484 3740     		ands	r7, r7, r6
 2788 1486 039E     		ldr	r6, [sp, #12]
 2789 1488 0994     		str	r4, [sp, #36]
ARM GAS  C:\Users\jo\AppData\Local\Temp\ccDsJqTW.s 			page 50


 2790 148a 2044     		add	r0, r0, r4
 2791 148c 0544     		add	r5, r5, r0
 2792              	.LVL194:
 2793              		.loc 1 232 0
 2794 148e 0C9C     		ldr	r4, [sp, #48]
 2795              		.loc 1 231 0
 2796 1490 4FEAB610 		ror	r0, r6, #6
 2797 1494 80EAF62A 		eor	r10, r0, r6, ror #11
 2798              	.LVL195:
 2799 1498 8AEA7660 		eor	r0, r10, r6, ror #25
 2800              		.loc 1 232 0
 2801 149c 8BEAB44B 		eor	fp, fp, r4, ror #18
 2802 14a0 0B9E     		ldr	r6, [sp, #44]
 2803 14a2 8BEAD40B 		eor	fp, fp, r4, lsr #3
 2804 14a6 B344     		add	fp, fp, r6
 2805              		.loc 1 231 0
 2806 14a8 4FEAB806 		ror	r6, r8, #2
 2807              		.loc 1 232 0
 2808 14ac 029C     		ldr	r4, [sp, #8]
 2809              		.loc 1 231 0
 2810 14ae 5F40     		eors	r7, r7, r3
 2811 14b0 48EA020E 		orr	lr, r8, r2
 2812 14b4 86EA7836 		eor	r6, r6, r8, ror #13
 2813 14b8 0EEA010E 		and	lr, lr, r1
 2814 14bc 3D44     		add	r5, r5, r7
 2815 14be 86EAB857 		eor	r7, r6, r8, ror #22
 2816 14c2 08EA0206 		and	r6, r8, r2
 2817 14c6 4EEA0606 		orr	r6, lr, r6
 2818              		.loc 1 232 0
 2819 14ca 4FEA744E 		ror	lr, r4, #17
 2820              		.loc 1 231 0
 2821 14ce 0544     		add	r5, r5, r0
 2822              	.LVL196:
 2823 14d0 3E44     		add	r6, r6, r7
 2824              	.LVL197:
 2825              		.loc 1 232 0
 2826 14d2 8EEAF440 		eor	r0, lr, r4, ror #19
 2827 14d6 109F     		ldr	r7, [sp, #64]
 2828 14d8 80EA942E 		eor	lr, r0, r4, lsr #10
 2829 14dc 0398     		ldr	r0, [sp, #12]
 2830 14de BB44     		add	fp, fp, r7
 2831              		.loc 1 231 0
 2832 14e0 2E44     		add	r6, r6, r5
 2833              	.LVL198:
 2834 14e2 AC44     		add	ip, ip, r5
 2835              	.LVL199:
 2836              		.loc 1 232 0
 2837 14e4 0BEB0E05 		add	r5, fp, lr
 2838              	.LVL200:
 2839 14e8 80EA090E 		eor	lr, r0, r9
 2840              		.loc 1 233 0
 2841 14ec 1198     		ldr	r0, [sp, #68]
 2842 14ee 304F     		ldr	r7, .L30+24
 2843              		.loc 1 232 0
 2844 14f0 2C46     		mov	r4, r5
 2845              		.loc 1 233 0
 2846 14f2 4FEAF01B 		ror	fp, r0, #7
ARM GAS  C:\Users\jo\AppData\Local\Temp\ccDsJqTW.s 			page 51


 2847 14f6 2744     		add	r7, r7, r4
 2848              		.loc 1 232 0
 2849 14f8 0CEA0E0E 		and	lr, ip, lr
 2850              		.loc 1 233 0
 2851 14fc 8BEAB04B 		eor	fp, fp, r0, ror #18
 2852              		.loc 1 232 0
 2853 1500 8EEA090E 		eor	lr, lr, r9
 2854 1504 3B44     		add	r3, r3, r7
 2855              	.LVL201:
 2856              		.loc 1 233 0
 2857 1506 8BEAD00B 		eor	fp, fp, r0, lsr #3
 2858              		.loc 1 232 0
 2859 150a 4FEAB605 		ror	r5, r6, #2
 2860 150e 0C98     		ldr	r0, [sp, #48]
 2861 1510 0B94     		str	r4, [sp, #44]
 2862 1512 85EA7635 		eor	r5, r5, r6, ror #13
 2863 1516 7344     		add	r3, r3, lr
 2864 1518 46EA080E 		orr	lr, r6, r8
 2865              		.loc 1 233 0
 2866 151c 099C     		ldr	r4, [sp, #36]
 2867              		.loc 1 232 0
 2868 151e 0EEA020E 		and	lr, lr, r2
 2869 1522 8344     		add	fp, fp, r0
 2870 1524 85EAB650 		eor	r0, r5, r6, ror #22
 2871 1528 06EA0805 		and	r5, r6, r8
 2872 152c 4FEABC1A 		ror	r10, ip, #6
 2873 1530 4EEA0505 		orr	r5, lr, r5
 2874 1534 8AEAFC2A 		eor	r10, r10, ip, ror #11
 2875              		.loc 1 233 0
 2876 1538 4FEA744E 		ror	lr, r4, #17
 2877              		.loc 1 232 0
 2878 153c 0544     		add	r5, r5, r0
 2879 153e 0698     		ldr	r0, [sp, #24]
 2880 1540 8AEA7C6A 		eor	r10, r10, ip, ror #25
 2881              		.loc 1 233 0
 2882 1544 8EEAF447 		eor	r7, lr, r4, ror #19
 2883              		.loc 1 232 0
 2884 1548 5344     		add	r3, r3, r10
 2885              	.LVL202:
 2886              		.loc 1 233 0
 2887 154a 87EA942E 		eor	lr, r7, r4, lsr #10
 2888 154e 8344     		add	fp, fp, r0
 2889 1550 1848     		ldr	r0, .L30+28
 2890              		.loc 1 234 0
 2891 1552 129C     		ldr	r4, [sp, #72]
 2892              		.loc 1 233 0
 2893 1554 DE44     		add	lr, fp, lr
 2894              		.loc 1 232 0
 2895 1556 1944     		add	r1, r1, r3
 2896 1558 0591     		str	r1, [sp, #20]
 2897              	.LVL203:
 2898 155a 7044     		add	r0, r0, lr
 2899 155c 8144     		add	r9, r9, r0
 2900              	.LVL204:
 2901              		.loc 1 233 0
 2902 155e 0598     		ldr	r0, [sp, #20]
 2903 1560 0599     		ldr	r1, [sp, #20]
ARM GAS  C:\Users\jo\AppData\Local\Temp\ccDsJqTW.s 			page 52


 2904 1562 CDF828E0 		str	lr, [sp, #40]
 2905              		.loc 1 232 0
 2906 1566 1D44     		add	r5, r5, r3
 2907              	.LVL205:
 2908              		.loc 1 233 0
 2909 1568 039B     		ldr	r3, [sp, #12]
 2910              	.LVL206:
 2911 156a 4FEAB01E 		ror	lr, r0, #6
 2912 156e 8CEA0307 		eor	r7, ip, r3
 2913 1572 8EEAF02E 		eor	lr, lr, r0, ror #11
 2914              		.loc 1 234 0
 2915 1576 4FEAF413 		ror	r3, r4, #7
 2916              		.loc 1 233 0
 2917 157a 0F40     		ands	r7, r7, r1
 2918              		.loc 1 234 0
 2919 157c 83EAB443 		eor	r3, r3, r4, ror #18
 2920 1580 2146     		mov	r1, r4
 2921              		.loc 1 233 0
 2922 1582 8EEA706E 		eor	lr, lr, r0, ror #25
 2923 1586 1198     		ldr	r0, [sp, #68]
 2924 1588 039C     		ldr	r4, [sp, #12]
 2925              		.loc 1 234 0
 2926 158a 83EAD103 		eor	r3, r3, r1, lsr #3
 2927 158e 0344     		add	r3, r3, r0
 2928              		.loc 1 233 0
 2929 1590 4FEAB500 		ror	r0, r5, #2
 2930 1594 6740     		eors	r7, r7, r4
 2931 1596 0FE0     		b	.L31
 2932              	.L32:
 2933              		.align	2
 2934              	.L30:
 2935 1598 2EC9C281 		.word	-2117940946
 2936 159c 852C7292 		.word	-1838011259
 2937 15a0 A1E8BFA2 		.word	-1564481375
 2938 15a4 4B661AA8 		.word	-1474664885
 2939 15a8 708B4BC2 		.word	-1035236496
 2940 15ac A3516CC7 		.word	-949202525
 2941 15b0 19E892D1 		.word	-778901479
 2942 15b4 240699D6 		.word	-694614492
 2943              	.L31:
 2944 15b8 45EA060A 		orr	r10, r5, r6
 2945 15bc 80EA7530 		eor	r0, r0, r5, ror #13
 2946              		.loc 1 234 0
 2947 15c0 0B99     		ldr	r1, [sp, #44]
 2948              		.loc 1 235 0
 2949 15c2 139C     		ldr	r4, [sp, #76]
 2950 15c4 B944     		add	r9, r9, r7
 2951              		.loc 1 233 0
 2952 15c6 0AEA080A 		and	r10, r10, r8
 2953 15ca 80EAB557 		eor	r7, r0, r5, ror #22
 2954 15ce 05EA0600 		and	r0, r5, r6
 2955 15d2 4AEA0000 		orr	r0, r10, r0
 2956 15d6 3844     		add	r0, r0, r7
 2957              		.loc 1 234 0
 2958 15d8 4FEA714A 		ror	r10, r1, #17
 2959 15dc 079F     		ldr	r7, [sp, #28]
 2960              		.loc 1 233 0
ARM GAS  C:\Users\jo\AppData\Local\Temp\ccDsJqTW.s 			page 53


 2961 15de CE44     		add	lr, lr, r9
 2962              	.LVL207:
 2963              		.loc 1 234 0
 2964 15e0 8AEAF149 		eor	r9, r10, r1, ror #19
 2965 15e4 89EA912A 		eor	r10, r9, r1, lsr #10
 2966 15e8 3B44     		add	r3, r3, r7
 2967              		.loc 1 233 0
 2968 15ea 0EEB0209 		add	r9, lr, r2
 2969              	.LVL208:
 2970 15ee 7044     		add	r0, r0, lr
 2971              	.LVL209:
 2972              		.loc 1 234 0
 2973 15f0 03EB0A0E 		add	lr, r3, r10
 2974              	.LVL210:
 2975 15f4 059B     		ldr	r3, [sp, #20]
 2976 15f6 E34F     		ldr	r7, .L33
 2977 15f8 CDF830E0 		str	lr, [sp, #48]
 2978              		.loc 1 235 0
 2979 15fc 4FEAF412 		ror	r2, r4, #7
 2980 1600 2146     		mov	r1, r4
 2981              		.loc 1 234 0
 2982 1602 83EA0C03 		eor	r3, r3, ip
 2983              		.loc 1 235 0
 2984 1606 82EAB442 		eor	r2, r2, r4, ror #18
 2985 160a 039C     		ldr	r4, [sp, #12]
 2986 160c 7744     		add	r7, r7, lr
 2987              		.loc 1 234 0
 2988 160e 09EA0303 		and	r3, r9, r3
 2989 1612 83EA0C03 		eor	r3, r3, ip
 2990 1616 3C44     		add	r4, r4, r7
 2991 1618 4FEAB91B 		ror	fp, r9, #6
 2992 161c E718     		adds	r7, r4, r3
 2993 161e 8BEAF92B 		eor	fp, fp, r9, ror #11
 2994 1622 129B     		ldr	r3, [sp, #72]
 2995 1624 4FEAB00A 		ror	r10, r0, #2
 2996 1628 40EA050E 		orr	lr, r0, r5
 2997 162c 8BEA7964 		eor	r4, fp, r9, ror #25
 2998 1630 8AEA703A 		eor	r10, r10, r0, ror #13
 2999              		.loc 1 235 0
 3000 1634 82EAD102 		eor	r2, r2, r1, lsr #3
 3001              		.loc 1 234 0
 3002 1638 3C44     		add	r4, r4, r7
 3003              	.LVL211:
 3004 163a 0EEA060E 		and	lr, lr, r6
 3005              		.loc 1 235 0
 3006 163e 0A9F     		ldr	r7, [sp, #40]
 3007 1640 1A44     		add	r2, r2, r3
 3008              		.loc 1 234 0
 3009 1642 8AEAB053 		eor	r3, r10, r0, ror #22
 3010 1646 00EA050A 		and	r10, r0, r5
 3011 164a 4EEA0A0A 		orr	r10, lr, r10
 3012 164e 9A44     		add	r10, r10, r3
 3013              	.LVL212:
 3014              		.loc 1 235 0
 3015 1650 4FEA774E 		ror	lr, r7, #17
 3016 1654 089B     		ldr	r3, [sp, #32]
 3017 1656 3946     		mov	r1, r7
ARM GAS  C:\Users\jo\AppData\Local\Temp\ccDsJqTW.s 			page 54


 3018 1658 8EEAF747 		eor	r7, lr, r7, ror #19
 3019              		.loc 1 234 0
 3020 165c A244     		add	r10, r10, r4
 3021              	.LVL213:
 3022              		.loc 1 235 0
 3023 165e 87EA912E 		eor	lr, r7, r1, lsr #10
 3024 1662 1A44     		add	r2, r2, r3
 3025              		.loc 1 234 0
 3026 1664 04EB0803 		add	r3, r4, r8
 3027              	.LVL214:
 3028              		.loc 1 236 0
 3029 1668 0D9C     		ldr	r4, [sp, #52]
 3030              	.LVL215:
 3031 166a C74F     		ldr	r7, .L33+4
 3032              		.loc 1 235 0
 3033 166c 9644     		add	lr, r2, lr
 3034 166e 059A     		ldr	r2, [sp, #20]
 3035 1670 7146     		mov	r1, lr
 3036              		.loc 1 236 0
 3037 1672 4FEAF418 		ror	r8, r4, #7
 3038 1676 0391     		str	r1, [sp, #12]
 3039              	.LVL216:
 3040 1678 0F44     		add	r7, r7, r1
 3041              		.loc 1 235 0
 3042 167a 89EA0202 		eor	r2, r9, r2
 3043              		.loc 1 236 0
 3044 167e 2146     		mov	r1, r4
 3045 1680 88EAB448 		eor	r8, r8, r4, ror #18
 3046              		.loc 1 235 0
 3047 1684 059C     		ldr	r4, [sp, #20]
 3048 1686 1A40     		ands	r2, r2, r3
 3049 1688 BC44     		add	ip, ip, r7
 3050              	.LVL217:
 3051 168a 4FEAB317 		ror	r7, r3, #6
 3052 168e 6240     		eors	r2, r2, r4
 3053 1690 4FEABA0E 		ror	lr, r10, #2
 3054 1694 87EAF324 		eor	r4, r7, r3, ror #11
 3055 1698 84EA7367 		eor	r7, r4, r3, ror #25
 3056 169c 4AEA000B 		orr	fp, r10, r0
 3057 16a0 8EEA7A3E 		eor	lr, lr, r10, ror #13
 3058 16a4 9444     		add	ip, ip, r2
 3059 16a6 139C     		ldr	r4, [sp, #76]
 3060 16a8 8EEABA52 		eor	r2, lr, r10, ror #22
 3061 16ac BC44     		add	ip, ip, r7
 3062              	.LVL218:
 3063 16ae 0BEA050B 		and	fp, fp, r5
 3064              		.loc 1 236 0
 3065 16b2 0C9F     		ldr	r7, [sp, #48]
 3066              		.loc 1 235 0
 3067 16b4 0AEA000E 		and	lr, r10, r0
 3068              		.loc 1 236 0
 3069 16b8 88EAD108 		eor	r8, r8, r1, lsr #3
 3070              		.loc 1 235 0
 3071 16bc 4BEA0E0E 		orr	lr, fp, lr
 3072 16c0 A044     		add	r8, r8, r4
 3073 16c2 9644     		add	lr, lr, r2
 3074              	.LVL219:
ARM GAS  C:\Users\jo\AppData\Local\Temp\ccDsJqTW.s 			page 55


 3075              		.loc 1 236 0
 3076 16c4 4FEA7744 		ror	r4, r7, #17
 3077 16c8 019A     		ldr	r2, [sp, #4]
 3078 16ca 84EAF744 		eor	r4, r4, r7, ror #19
 3079 16ce 84EA9724 		eor	r4, r4, r7, lsr #10
 3080 16d2 9044     		add	r8, r8, r2
 3081              		.loc 1 235 0
 3082 16d4 E644     		add	lr, lr, ip
 3083              	.LVL220:
 3084 16d6 6644     		add	r6, r6, ip
 3085              	.LVL221:
 3086              		.loc 1 237 0
 3087 16d8 049F     		ldr	r7, [sp, #16]
 3088 16da AC4A     		ldr	r2, .L33+8
 3089              		.loc 1 236 0
 3090 16dc 08EB040C 		add	ip, r8, r4
 3091              	.LVL222:
 3092 16e0 6146     		mov	r1, ip
 3093 16e2 1191     		str	r1, [sp, #68]
 3094 16e4 83EA090C 		eor	ip, r3, r9
 3095 16e8 0A44     		add	r2, r2, r1
 3096              		.loc 1 237 0
 3097 16ea 4FEAF718 		ror	r8, r7, #7
 3098 16ee 0599     		ldr	r1, [sp, #20]
 3099 16f0 3C46     		mov	r4, r7
 3100              		.loc 1 236 0
 3101 16f2 06EA0C0C 		and	ip, r6, ip
 3102              		.loc 1 237 0
 3103 16f6 88EAB748 		eor	r8, r8, r7, ror #18
 3104              		.loc 1 236 0
 3105 16fa 4FEAB617 		ror	r7, r6, #6
 3106 16fe 8CEA090C 		eor	ip, ip, r9
 3107 1702 1144     		add	r1, r1, r2
 3108 1704 87EAF627 		eor	r7, r7, r6, ror #11
 3109 1708 01EB0C02 		add	r2, r1, ip
 3110 170c 87EA7667 		eor	r7, r7, r6, ror #25
 3111 1710 1744     		add	r7, r7, r2
 3112              	.LVL223:
 3113              		.loc 1 237 0
 3114 1712 88EAD408 		eor	r8, r8, r4, lsr #3
 3115 1716 039A     		ldr	r2, [sp, #12]
 3116 1718 0D9C     		ldr	r4, [sp, #52]
 3117              		.loc 1 236 0
 3118 171a 4FEABE01 		ror	r1, lr, #2
 3119 171e 4EEA0A0B 		orr	fp, lr, r10
 3120 1722 81EA7E31 		eor	r1, r1, lr, ror #13
 3121 1726 A044     		add	r8, r8, r4
 3122              		.loc 1 237 0
 3123 1728 4FEA7244 		ror	r4, r2, #17
 3124              		.loc 1 236 0
 3125 172c 81EABE5C 		eor	ip, r1, lr, ror #22
 3126 1730 0BEA000B 		and	fp, fp, r0
 3127 1734 0EEA0A01 		and	r1, lr, r10
 3128              		.loc 1 237 0
 3129 1738 84EAF244 		eor	r4, r4, r2, ror #19
 3130              		.loc 1 236 0
 3131 173c 4BEA0101 		orr	r1, fp, r1
ARM GAS  C:\Users\jo\AppData\Local\Temp\ccDsJqTW.s 			page 56


 3132              		.loc 1 237 0
 3133 1740 84EA922B 		eor	fp, r4, r2, lsr #10
 3134 1744 029A     		ldr	r2, [sp, #8]
 3135              		.loc 1 238 0
 3136 1746 0E9C     		ldr	r4, [sp, #56]
 3137 1748 9044     		add	r8, r8, r2
 3138              		.loc 1 236 0
 3139 174a 7A19     		adds	r2, r7, r5
 3140              	.LVL224:
 3141              		.loc 1 237 0
 3142 174c 08EB0B05 		add	r5, r8, fp
 3143 1750 0595     		str	r5, [sp, #20]
 3144 1752 059D     		ldr	r5, [sp, #20]
 3145              		.loc 1 236 0
 3146 1754 6144     		add	r1, r1, ip
 3147              	.LVL225:
 3148 1756 DFF84CC2 		ldr	ip, .L33+32
 3149 175a 3944     		add	r1, r1, r7
 3150              	.LVL226:
 3151              		.loc 1 237 0
 3152 175c 86EA0308 		eor	r8, r6, r3
 3153              		.loc 1 238 0
 3154 1760 4FEAF417 		ror	r7, r4, #7
 3155              	.LVL227:
 3156              		.loc 1 237 0
 3157 1764 02EA0808 		and	r8, r2, r8
 3158 1768 AC44     		add	ip, ip, r5
 3159              		.loc 1 238 0
 3160 176a 87EAB447 		eor	r7, r7, r4, ror #18
 3161 176e CC44     		add	ip, ip, r9
 3162              		.loc 1 237 0
 3163 1770 88EA030B 		eor	fp, r8, r3
 3164              		.loc 1 238 0
 3165 1774 87EAD407 		eor	r7, r7, r4, lsr #3
 3166 1778 049C     		ldr	r4, [sp, #16]
 3167 177a 0CEB0B08 		add	r8, ip, fp
 3168              		.loc 1 237 0
 3169 177e 4FEAB219 		ror	r9, r2, #6
 3170              	.LVL228:
 3171 1782 4FEAB10C 		ror	ip, r1, #2
 3172 1786 41EA0E05 		orr	r5, r1, lr
 3173 178a 2744     		add	r7, r7, r4
 3174 178c 8CEA713C 		eor	ip, ip, r1, ror #13
 3175              		.loc 1 238 0
 3176 1790 119C     		ldr	r4, [sp, #68]
 3177              		.loc 1 237 0
 3178 1792 89EAF229 		eor	r9, r9, r2, ror #11
 3179 1796 8CEAB15B 		eor	fp, ip, r1, ror #22
 3180 179a 05EA0A05 		and	r5, r5, r10
 3181 179e 01EA0E0C 		and	ip, r1, lr
 3182 17a2 89EA7269 		eor	r9, r9, r2, ror #25
 3183 17a6 C144     		add	r9, r9, r8
 3184              	.LVL229:
 3185 17a8 45EA0C0C 		orr	ip, r5, ip
 3186              		.loc 1 238 0
 3187 17ac 4FEA7448 		ror	r8, r4, #17
 3188 17b0 099D     		ldr	r5, [sp, #36]
ARM GAS  C:\Users\jo\AppData\Local\Temp\ccDsJqTW.s 			page 57


 3189 17b2 88EAF448 		eor	r8, r8, r4, ror #19
 3190 17b6 7D19     		adds	r5, r7, r5
 3191 17b8 88EA9428 		eor	r8, r8, r4, lsr #10
 3192 17bc 05EB0804 		add	r4, r5, r8
 3193 17c0 0D94     		str	r4, [sp, #52]
 3194              		.loc 1 239 0
 3195 17c2 0F9D     		ldr	r5, [sp, #60]
 3196 17c4 0D9C     		ldr	r4, [sp, #52]
 3197 17c6 724F     		ldr	r7, .L33+12
 3198              		.loc 1 237 0
 3199 17c8 DC44     		add	ip, ip, fp
 3200              	.LVL230:
 3201 17ca 4844     		add	r0, r0, r9
 3202              	.LVL231:
 3203 17cc CC44     		add	ip, ip, r9
 3204              	.LVL232:
 3205              		.loc 1 239 0
 3206 17ce 4FEAF51B 		ror	fp, r5, #7
 3207              		.loc 1 238 0
 3208 17d2 82EA0609 		eor	r9, r2, r6
 3209              	.LVL233:
 3210 17d6 2744     		add	r7, r7, r4
 3211              		.loc 1 239 0
 3212 17d8 8BEAB54B 		eor	fp, fp, r5, ror #18
 3213 17dc 0E9C     		ldr	r4, [sp, #56]
 3214              		.loc 1 238 0
 3215 17de 00EA0909 		and	r9, r0, r9
 3216 17e2 4FEAB018 		ror	r8, r0, #6
 3217 17e6 89EA0609 		eor	r9, r9, r6
 3218 17ea 3B44     		add	r3, r3, r7
 3219              	.LVL234:
 3220 17ec 88EAF028 		eor	r8, r8, r0, ror #11
 3221              		.loc 1 239 0
 3222 17f0 8BEAD507 		eor	r7, fp, r5, lsr #3
 3223 17f4 4B44     		add	r3, r3, r9
 3224              		.loc 1 238 0
 3225 17f6 4CEA010B 		orr	fp, ip, r1
 3226 17fa 88EA7068 		eor	r8, r8, r0, ror #25
 3227 17fe 2744     		add	r7, r7, r4
 3228              		.loc 1 239 0
 3229 1800 059C     		ldr	r4, [sp, #20]
 3230 1802 0B9D     		ldr	r5, [sp, #44]
 3231              		.loc 1 238 0
 3232 1804 9844     		add	r8, r8, r3
 3233              	.LVL235:
 3234 1806 0BEA0E0B 		and	fp, fp, lr
 3235 180a 0CEA0103 		and	r3, ip, r1
 3236 180e 4FEABC09 		ror	r9, ip, #2
 3237 1812 89EA7C39 		eor	r9, r9, ip, ror #13
 3238 1816 4BEA030B 		orr	fp, fp, r3
 3239              		.loc 1 239 0
 3240 181a 4FEA7443 		ror	r3, r4, #17
 3241              		.loc 1 238 0
 3242 181e 89EABC59 		eor	r9, r9, ip, ror #22
 3243              		.loc 1 239 0
 3244 1822 83EAF443 		eor	r3, r3, r4, ror #19
 3245              		.loc 1 238 0
ARM GAS  C:\Users\jo\AppData\Local\Temp\ccDsJqTW.s 			page 58


 3246 1826 CB44     		add	fp, fp, r9
 3247              	.LVL236:
 3248              		.loc 1 239 0
 3249 1828 83EA9429 		eor	r9, r3, r4, lsr #10
 3250              		.loc 1 240 0
 3251 182c 109C     		ldr	r4, [sp, #64]
 3252 182e 594B     		ldr	r3, .L33+16
 3253 1830 2F44     		add	r7, r7, r5
 3254              		.loc 1 238 0
 3255 1832 C244     		add	r10, r10, r8
 3256              	.LVL237:
 3257 1834 C344     		add	fp, fp, r8
 3258              	.LVL238:
 3259              		.loc 1 239 0
 3260 1836 07EB0908 		add	r8, r7, r9
 3261              	.LVL239:
 3262              		.loc 1 240 0
 3263 183a 4FEAF417 		ror	r7, r4, #7
 3264              		.loc 1 239 0
 3265 183e 80EA0209 		eor	r9, r0, r2
 3266              		.loc 1 240 0
 3267 1842 87EAB447 		eor	r7, r7, r4, ror #18
 3268 1846 CDF83880 		str	r8, [sp, #56]
 3269 184a 4344     		add	r3, r3, r8
 3270              		.loc 1 239 0
 3271 184c 0AEA0909 		and	r9, r10, r9
 3272 1850 4FEABA18 		ror	r8, r10, #6
 3273              		.loc 1 240 0
 3274 1854 87EAD407 		eor	r7, r7, r4, lsr #3
 3275 1858 0F9C     		ldr	r4, [sp, #60]
 3276 185a 0A9D     		ldr	r5, [sp, #40]
 3277 185c 1E44     		add	r6, r6, r3
 3278              	.LVL240:
 3279              		.loc 1 239 0
 3280 185e 89EA0203 		eor	r3, r9, r2
 3281 1862 88EAFA29 		eor	r9, r8, r10, ror #11
 3282 1866 3344     		add	r3, r3, r6
 3283 1868 89EA7A68 		eor	r8, r9, r10, ror #25
 3284 186c 4BEA0C06 		orr	r6, fp, ip
 3285 1870 2744     		add	r7, r7, r4
 3286              		.loc 1 240 0
 3287 1872 0D9C     		ldr	r4, [sp, #52]
 3288              		.loc 1 239 0
 3289 1874 9844     		add	r8, r8, r3
 3290              	.LVL241:
 3291 1876 0E40     		ands	r6, r6, r1
 3292 1878 0BEA0C03 		and	r3, fp, ip
 3293 187c 4FEABB09 		ror	r9, fp, #2
 3294 1880 89EA7B39 		eor	r9, r9, fp, ror #13
 3295 1884 1E43     		orrs	r6, r6, r3
 3296              		.loc 1 240 0
 3297 1886 4FEA7443 		ror	r3, r4, #17
 3298              		.loc 1 239 0
 3299 188a 89EABB59 		eor	r9, r9, fp, ror #22
 3300              		.loc 1 240 0
 3301 188e 83EAF443 		eor	r3, r3, r4, ror #19
 3302 1892 2F44     		add	r7, r7, r5
ARM GAS  C:\Users\jo\AppData\Local\Temp\ccDsJqTW.s 			page 59


 3303              		.loc 1 239 0
 3304 1894 4E44     		add	r6, r6, r9
 3305              	.LVL242:
 3306              		.loc 1 240 0
 3307 1896 83EA9429 		eor	r9, r3, r4, lsr #10
 3308              		.loc 1 239 0
 3309 189a 4644     		add	r6, r6, r8
 3310              	.LVL243:
 3311 189c C644     		add	lr, lr, r8
 3312              	.LVL244:
 3313 189e 3E4B     		ldr	r3, .L33+20
 3314              		.loc 1 241 0
 3315 18a0 069C     		ldr	r4, [sp, #24]
 3316              		.loc 1 240 0
 3317 18a2 07EB0908 		add	r8, r7, r9
 3318              	.LVL245:
 3319 18a6 4546     		mov	r5, r8
 3320 18a8 8AEA0008 		eor	r8, r10, r0
 3321 18ac 2B44     		add	r3, r3, r5
 3322 18ae 0EEA0808 		and	r8, lr, r8
 3323 18b2 4FEABE19 		ror	r9, lr, #6
 3324 18b6 88EA0008 		eor	r8, r8, r0
 3325 18ba 1344     		add	r3, r3, r2
 3326 18bc 89EAFE29 		eor	r9, r9, lr, ror #11
 3327 18c0 0F95     		str	r5, [sp, #60]
 3328 18c2 03EB0802 		add	r2, r3, r8
 3329              	.LVL246:
 3330              		.loc 1 241 0
 3331 18c6 0E9D     		ldr	r5, [sp, #56]
 3332              		.loc 1 240 0
 3333 18c8 46EA0B03 		orr	r3, r6, fp
 3334 18cc 89EA7E69 		eor	r9, r9, lr, ror #25
 3335 18d0 9144     		add	r9, r9, r2
 3336              	.LVL247:
 3337              		.loc 1 241 0
 3338 18d2 4FEAF417 		ror	r7, r4, #7
 3339              		.loc 1 240 0
 3340 18d6 06EA0B02 		and	r2, r6, fp
 3341 18da 03EA0C03 		and	r3, r3, ip
 3342 18de 4FEAB608 		ror	r8, r6, #2
 3343              		.loc 1 241 0
 3344 18e2 87EAB447 		eor	r7, r7, r4, ror #18
 3345              		.loc 1 240 0
 3346 18e6 88EA7638 		eor	r8, r8, r6, ror #13
 3347 18ea 1343     		orrs	r3, r3, r2
 3348              		.loc 1 241 0
 3349 18ec 4FEA7542 		ror	r2, r5, #17
 3350              		.loc 1 240 0
 3351 18f0 88EAB658 		eor	r8, r8, r6, ror #22
 3352              		.loc 1 241 0
 3353 18f4 82EAF542 		eor	r2, r2, r5, ror #19
 3354 18f8 87EAD407 		eor	r7, r7, r4, lsr #3
 3355 18fc 109C     		ldr	r4, [sp, #64]
 3356              		.loc 1 240 0
 3357 18fe 4344     		add	r3, r3, r8
 3358              	.LVL248:
 3359              		.loc 1 241 0
ARM GAS  C:\Users\jo\AppData\Local\Temp\ccDsJqTW.s 			page 60


 3360 1900 82EA9528 		eor	r8, r2, r5, lsr #10
 3361 1904 0C9D     		ldr	r5, [sp, #48]
 3362 1906 254A     		ldr	r2, .L33+24
 3363 1908 2744     		add	r7, r7, r4
 3364 190a 2F44     		add	r7, r7, r5
 3365 190c B844     		add	r8, r7, r8
 3366              		.loc 1 242 0
 3367 190e 079C     		ldr	r4, [sp, #28]
 3368              		.loc 1 241 0
 3369 1910 4546     		mov	r5, r8
 3370              		.loc 1 240 0
 3371 1912 4944     		add	r1, r1, r9
 3372              	.LVL249:
 3373 1914 1095     		str	r5, [sp, #64]
 3374              		.loc 1 241 0
 3375 1916 8EEA0A07 		eor	r7, lr, r10
 3376 191a 2A44     		add	r2, r2, r5
 3377              		.loc 1 242 0
 3378 191c 079D     		ldr	r5, [sp, #28]
 3379              		.loc 1 240 0
 3380 191e 4B44     		add	r3, r3, r9
 3381              	.LVL250:
 3382              		.loc 1 242 0
 3383 1920 4FEAF418 		ror	r8, r4, #7
 3384              		.loc 1 241 0
 3385 1924 0F40     		ands	r7, r7, r1
 3386 1926 4FEAB119 		ror	r9, r1, #6
 3387              	.LVL251:
 3388 192a 87EA0A07 		eor	r7, r7, r10
 3389              		.loc 1 242 0
 3390 192e 88EAB548 		eor	r8, r8, r5, ror #18
 3391 1932 0244     		add	r2, r2, r0
 3392              		.loc 1 241 0
 3393 1934 89EAF129 		eor	r9, r9, r1, ror #11
 3394 1938 D019     		adds	r0, r2, r7
 3395              	.LVL252:
 3396              		.loc 1 242 0
 3397 193a 88EAD508 		eor	r8, r8, r5, lsr #3
 3398              		.loc 1 241 0
 3399 193e 43EA0602 		orr	r2, r3, r6
 3400              		.loc 1 242 0
 3401 1942 0F9D     		ldr	r5, [sp, #60]
 3402 1944 069C     		ldr	r4, [sp, #24]
 3403              		.loc 1 241 0
 3404 1946 89EA7169 		eor	r9, r9, r1, ror #25
 3405 194a 8144     		add	r9, r9, r0
 3406              	.LVL253:
 3407 194c 02EA0B02 		and	r2, r2, fp
 3408 1950 03EA0600 		and	r0, r3, r6
 3409 1954 4FEAB307 		ror	r7, r3, #2
 3410 1958 87EA7337 		eor	r7, r7, r3, ror #13
 3411 195c 0243     		orrs	r2, r2, r0
 3412              		.loc 1 242 0
 3413 195e 4FEA7540 		ror	r0, r5, #17
 3414              		.loc 1 241 0
 3415 1962 87EAB357 		eor	r7, r7, r3, ror #22
 3416              		.loc 1 242 0
ARM GAS  C:\Users\jo\AppData\Local\Temp\ccDsJqTW.s 			page 61


 3417 1966 80EAF540 		eor	r0, r0, r5, ror #19
 3418              		.loc 1 241 0
 3419 196a 3A44     		add	r2, r2, r7
 3420              	.LVL254:
 3421              		.loc 1 242 0
 3422 196c 80EA9527 		eor	r7, r0, r5, lsr #10
 3423 1970 0398     		ldr	r0, [sp, #12]
 3424 1972 A044     		add	r8, r8, r4
 3425 1974 8044     		add	r8, r8, r0
 3426 1976 B844     		add	r8, r8, r7
 3427 1978 0948     		ldr	r0, .L33+28
 3428              		.loc 1 243 0
 3429 197a 089C     		ldr	r4, [sp, #32]
 3430              		.loc 1 241 0
 3431 197c CC44     		add	ip, ip, r9
 3432              	.LVL255:
 3433              		.loc 1 242 0
 3434 197e 4546     		mov	r5, r8
 3435 1980 12E0     		b	.L34
 3436              	.L35:
 3437 1982 00BF     		.align	2
 3438              	.L33:
 3439 1984 85350EF4 		.word	-200395387
 3440 1988 70A06A10 		.word	275423344
 3441 198c 16C1A419 		.word	430227734
 3442 1990 4C774827 		.word	659060556
 3443 1994 B5BCB034 		.word	883997877
 3444 1998 B30C1C39 		.word	958139571
 3445 199c 4AAAD84E 		.word	1322822218
 3446 19a0 4FCA9C5B 		.word	1537002063
 3447 19a4 086C371E 		.word	506948616
 3448              	.L34:
 3449 19a8 81EA0E08 		eor	r8, r1, lr
 3450              		.loc 1 241 0
 3451 19ac 4A44     		add	r2, r2, r9
 3452              	.LVL256:
 3453 19ae 2844     		add	r0, r0, r5
 3454              		.loc 1 242 0
 3455 19b0 0CEA0808 		and	r8, ip, r8
 3456 19b4 4FEABC19 		ror	r9, ip, #6
 3457              	.LVL257:
 3458 19b8 88EA0E08 		eor	r8, r8, lr
 3459 19bc 5044     		add	r0, r0, r10
 3460 19be 89EAFC29 		eor	r9, r9, ip, ror #11
 3461 19c2 1295     		str	r5, [sp, #72]
 3462 19c4 00EB080A 		add	r10, r0, r8
 3463              	.LVL258:
 3464              		.loc 1 243 0
 3465 19c8 109D     		ldr	r5, [sp, #64]
 3466              		.loc 1 242 0
 3467 19ca 42EA0300 		orr	r0, r2, r3
 3468 19ce 89EA7C69 		eor	r9, r9, ip, ror #25
 3469 19d2 D144     		add	r9, r9, r10
 3470              	.LVL259:
 3471              		.loc 1 243 0
 3472 19d4 4FEAF417 		ror	r7, r4, #7
 3473              		.loc 1 242 0
ARM GAS  C:\Users\jo\AppData\Local\Temp\ccDsJqTW.s 			page 62


 3474 19d8 02EA030A 		and	r10, r2, r3
 3475 19dc 3040     		ands	r0, r0, r6
 3476 19de 4FEAB208 		ror	r8, r2, #2
 3477              		.loc 1 243 0
 3478 19e2 87EAB447 		eor	r7, r7, r4, ror #18
 3479              		.loc 1 242 0
 3480 19e6 88EA7238 		eor	r8, r8, r2, ror #13
 3481 19ea 40EA0A00 		orr	r0, r0, r10
 3482              		.loc 1 243 0
 3483 19ee 4FEA754A 		ror	r10, r5, #17
 3484              		.loc 1 242 0
 3485 19f2 88EAB258 		eor	r8, r8, r2, ror #22
 3486              		.loc 1 243 0
 3487 19f6 8AEAF54A 		eor	r10, r10, r5, ror #19
 3488 19fa 87EAD407 		eor	r7, r7, r4, lsr #3
 3489 19fe 079C     		ldr	r4, [sp, #28]
 3490              		.loc 1 242 0
 3491 1a00 4044     		add	r0, r0, r8
 3492              	.LVL260:
 3493              		.loc 1 243 0
 3494 1a02 8AEA9528 		eor	r8, r10, r5, lsr #10
 3495 1a06 119D     		ldr	r5, [sp, #68]
 3496 1a08 DFF8E4A3 		ldr	r10, .L36+24
 3497 1a0c 2744     		add	r7, r7, r4
 3498 1a0e 2F44     		add	r7, r7, r5
 3499 1a10 B844     		add	r8, r7, r8
 3500              		.loc 1 242 0
 3501 1a12 CB44     		add	fp, fp, r9
 3502              	.LVL261:
 3503              		.loc 1 243 0
 3504 1a14 4546     		mov	r5, r8
 3505              		.loc 1 244 0
 3506 1a16 019C     		ldr	r4, [sp, #4]
 3507 1a18 0795     		str	r5, [sp, #28]
 3508              		.loc 1 243 0
 3509 1a1a 8CEA0107 		eor	r7, ip, r1
 3510              		.loc 1 242 0
 3511 1a1e 4844     		add	r0, r0, r9
 3512              	.LVL262:
 3513 1a20 AA44     		add	r10, r10, r5
 3514              		.loc 1 243 0
 3515 1a22 0BEA0707 		and	r7, fp, r7
 3516              		.loc 1 244 0
 3517 1a26 019D     		ldr	r5, [sp, #4]
 3518              		.loc 1 243 0
 3519 1a28 4FEABB19 		ror	r9, fp, #6
 3520              	.LVL263:
 3521 1a2c 4F40     		eors	r7, r7, r1
 3522              		.loc 1 244 0
 3523 1a2e 4FEAF418 		ror	r8, r4, #7
 3524 1a32 D644     		add	lr, lr, r10
 3525              	.LVL264:
 3526              		.loc 1 243 0
 3527 1a34 89EAFB29 		eor	r9, r9, fp, ror #11
 3528 1a38 0EEB070A 		add	r10, lr, r7
 3529              		.loc 1 244 0
 3530 1a3c 88EAB548 		eor	r8, r8, r5, ror #18
ARM GAS  C:\Users\jo\AppData\Local\Temp\ccDsJqTW.s 			page 63


 3531              		.loc 1 243 0
 3532 1a40 40EA020E 		orr	lr, r0, r2
 3533 1a44 89EA7B69 		eor	r9, r9, fp, ror #25
 3534 1a48 4FEAB007 		ror	r7, r0, #2
 3535 1a4c D144     		add	r9, r9, r10
 3536              	.LVL265:
 3537              		.loc 1 244 0
 3538 1a4e 88EAD508 		eor	r8, r8, r5, lsr #3
 3539              		.loc 1 243 0
 3540 1a52 00EA020A 		and	r10, r0, r2
 3541              		.loc 1 244 0
 3542 1a56 129D     		ldr	r5, [sp, #72]
 3543 1a58 089C     		ldr	r4, [sp, #32]
 3544              		.loc 1 243 0
 3545 1a5a 0EEA030E 		and	lr, lr, r3
 3546 1a5e 87EA7037 		eor	r7, r7, r0, ror #13
 3547 1a62 87EAB057 		eor	r7, r7, r0, ror #22
 3548 1a66 4EEA0A0E 		orr	lr, lr, r10
 3549 1a6a BE44     		add	lr, lr, r7
 3550              	.LVL266:
 3551              		.loc 1 244 0
 3552 1a6c 4FEA754A 		ror	r10, r5, #17
 3553 1a70 059F     		ldr	r7, [sp, #20]
 3554 1a72 A044     		add	r8, r8, r4
 3555 1a74 8AEAF54A 		eor	r10, r10, r5, ror #19
 3556 1a78 B844     		add	r8, r8, r7
 3557 1a7a 8AEA952A 		eor	r10, r10, r5, lsr #10
 3558              		.loc 1 243 0
 3559 1a7e 4E44     		add	r6, r6, r9
 3560 1a80 CE44     		add	lr, lr, r9
 3561              	.LVL267:
 3562 1a82 0496     		str	r6, [sp, #16]
 3563              	.LVL268:
 3564              		.loc 1 245 0
 3565 1a84 029D     		ldr	r5, [sp, #8]
 3566 1a86 D44F     		ldr	r7, .L36
 3567 1a88 D44C     		ldr	r4, .L36+4
 3568              		.loc 1 243 0
 3569 1a8a 7646     		mov	r6, lr
 3570              	.LVL269:
 3571              		.loc 1 244 0
 3572 1a8c 08EB0A0E 		add	lr, r8, r10
 3573 1a90 CDF818E0 		str	lr, [sp, #24]
 3574              		.loc 1 245 0
 3575 1a94 4FEAF51E 		ror	lr, r5, #7
 3576 1a98 069D     		ldr	r5, [sp, #24]
 3577              		.loc 1 244 0
 3578 1a9a 0896     		str	r6, [sp, #32]
 3579 1a9c 2F44     		add	r7, r7, r5
 3580 1a9e 049D     		ldr	r5, [sp, #16]
 3581 1aa0 8BEA0C08 		eor	r8, fp, ip
 3582 1aa4 05EA0808 		and	r8, r5, r8
 3583              		.loc 1 245 0
 3584 1aa8 029D     		ldr	r5, [sp, #8]
 3585 1aaa A946     		mov	r9, r5
 3586              	.LVL270:
 3587 1aac 8EEAB54E 		eor	lr, lr, r5, ror #18
ARM GAS  C:\Users\jo\AppData\Local\Temp\ccDsJqTW.s 			page 64


 3588              		.loc 1 244 0
 3589 1ab0 049D     		ldr	r5, [sp, #16]
 3590 1ab2 4FEAB51A 		ror	r10, r5, #6
 3591 1ab6 3944     		add	r1, r1, r7
 3592              	.LVL271:
 3593 1ab8 8AEAF52A 		eor	r10, r10, r5, ror #11
 3594 1abc 2F46     		mov	r7, r5
 3595 1abe 8AEA776A 		eor	r10, r10, r7, ror #25
 3596 1ac2 019F     		ldr	r7, [sp, #4]
 3597              		.loc 1 245 0
 3598 1ac4 079D     		ldr	r5, [sp, #28]
 3599 1ac6 8EEAD90E 		eor	lr, lr, r9, lsr #3
 3600              		.loc 1 244 0
 3601 1aca 88EA0C08 		eor	r8, r8, ip
 3602 1ace BE44     		add	lr, lr, r7
 3603 1ad0 4FEAB607 		ror	r7, r6, #2
 3604 1ad4 87EA7637 		eor	r7, r7, r6, ror #13
 3605 1ad8 4144     		add	r1, r1, r8
 3606 1ada 46EA0008 		orr	r8, r6, r0
 3607 1ade 87EAB659 		eor	r9, r7, r6, ror #22
 3608 1ae2 08EA0208 		and	r8, r8, r2
 3609 1ae6 06EA0007 		and	r7, r6, r0
 3610 1aea 48EA0707 		orr	r7, r8, r7
 3611              		.loc 1 245 0
 3612 1aee 4FEA7548 		ror	r8, r5, #17
 3613              		.loc 1 244 0
 3614 1af2 5144     		add	r1, r1, r10
 3615              	.LVL272:
 3616              		.loc 1 245 0
 3617 1af4 2E46     		mov	r6, r5
 3618              	.LVL273:
 3619              		.loc 1 244 0
 3620 1af6 4F44     		add	r7, r7, r9
 3621              	.LVL274:
 3622              		.loc 1 245 0
 3623 1af8 88EAF548 		eor	r8, r8, r5, ror #19
 3624 1afc 0D9D     		ldr	r5, [sp, #52]
 3625              		.loc 1 244 0
 3626 1afe 0B44     		add	r3, r3, r1
 3627              	.LVL275:
 3628 1b00 7918     		adds	r1, r7, r1
 3629              	.LVL276:
 3630              		.loc 1 245 0
 3631 1b02 88EA9628 		eor	r8, r8, r6, lsr #10
 3632 1b06 7544     		add	r5, r5, lr
 3633              		.loc 1 244 0
 3634 1b08 0E46     		mov	r6, r1
 3635              	.LVL277:
 3636              		.loc 1 245 0
 3637 1b0a 0499     		ldr	r1, [sp, #16]
 3638              	.LVL278:
 3639              		.loc 1 246 0
 3640 1b0c 099F     		ldr	r7, [sp, #36]
 3641              	.LVL279:
 3642              		.loc 1 245 0
 3643 1b0e 0596     		str	r6, [sp, #20]
 3644 1b10 4544     		add	r5, r5, r8
ARM GAS  C:\Users\jo\AppData\Local\Temp\ccDsJqTW.s 			page 65


 3645 1b12 B046     		mov	r8, r6
 3646 1b14 089E     		ldr	r6, [sp, #32]
 3647              	.LVL280:
 3648 1b16 81EA0B01 		eor	r1, r1, fp
 3649 1b1a 2C44     		add	r4, r4, r5
 3650 1b1c 1940     		ands	r1, r1, r3
 3651 1b1e 48EA0609 		orr	r9, r8, r6
 3652              		.loc 1 246 0
 3653 1b22 4FEAF71E 		ror	lr, r7, #7
 3654              		.loc 1 245 0
 3655 1b26 4646     		mov	r6, r8
 3656 1b28 4FEAB808 		ror	r8, r8, #2
 3657              	.LVL281:
 3658              		.loc 1 246 0
 3659 1b2c 8EEAB74E 		eor	lr, lr, r7, ror #18
 3660              		.loc 1 245 0
 3661 1b30 88EA7638 		eor	r8, r8, r6, ror #13
 3662 1b34 04EB0C07 		add	r7, r4, ip
 3663 1b38 81EA0B04 		eor	r4, r1, fp
 3664 1b3c B446     		mov	ip, r6
 3665              	.LVL282:
 3666              		.loc 1 246 0
 3667 1b3e 0999     		ldr	r1, [sp, #36]
 3668              		.loc 1 245 0
 3669 1b40 089E     		ldr	r6, [sp, #32]
 3670              	.LVL283:
 3671 1b42 09EA0009 		and	r9, r9, r0
 3672              		.loc 1 246 0
 3673 1b46 8EEAD10E 		eor	lr, lr, r1, lsr #3
 3674              		.loc 1 245 0
 3675 1b4a 0CEA0601 		and	r1, ip, r6
 3676 1b4e 059E     		ldr	r6, [sp, #20]
 3677 1b50 49EA0109 		orr	r9, r9, r1
 3678              		.loc 1 246 0
 3679 1b54 0699     		ldr	r1, [sp, #24]
 3680              		.loc 1 245 0
 3681 1b56 88EAB658 		eor	r8, r8, r6, ror #22
 3682              		.loc 1 246 0
 3683 1b5a 069E     		ldr	r6, [sp, #24]
 3684 1b5c 3C44     		add	r4, r4, r7
 3685 1b5e 4FEA7147 		ror	r7, r1, #17
 3686 1b62 87EAF647 		eor	r7, r7, r6, ror #19
 3687              		.loc 1 245 0
 3688 1b66 4FEAB31A 		ror	r10, r3, #6
 3689              		.loc 1 246 0
 3690 1b6a 87EA9627 		eor	r7, r7, r6, lsr #10
 3691 1b6e 9C4E     		ldr	r6, .L36+8
 3692 1b70 0D96     		str	r6, [sp, #52]
 3693              		.loc 1 245 0
 3694 1b72 8AEAF32A 		eor	r10, r10, r3, ror #11
 3695 1b76 9B4E     		ldr	r6, .L36+12
 3696 1b78 0299     		ldr	r1, [sp, #8]
 3697 1b7a 8AEA736C 		eor	ip, r10, r3, ror #25
 3698              	.LVL284:
 3699 1b7e A444     		add	ip, ip, r4
 3700              	.LVL285:
 3701 1b80 0E9C     		ldr	r4, [sp, #56]
ARM GAS  C:\Users\jo\AppData\Local\Temp\ccDsJqTW.s 			page 66


 3702 1b82 0E96     		str	r6, [sp, #56]
 3703 1b84 06F19C56 		add	r6, r6, #327155712
 3704 1b88 8E44     		add	lr, lr, r1
 3705 1b8a 06F58B16 		add	r6, r6, #1138688
 3706 1b8e 09EB0801 		add	r1, r9, r8
 3707              	.LVL286:
 3708 1b92 A644     		add	lr, lr, r4
 3709 1b94 6144     		add	r1, r1, ip
 3710              	.LVL287:
 3711 1b96 06F6F146 		addw	r6, r6, #3313
 3712 1b9a 934C     		ldr	r4, .L36+16
 3713 1b9c 0191     		str	r1, [sp, #4]
 3714              		.loc 1 246 0
 3715 1b9e 7744     		add	r7, r7, lr
 3716              		.loc 1 247 0
 3717 1ba0 0B99     		ldr	r1, [sp, #44]
 3718 1ba2 1396     		str	r6, [sp, #76]
 3719              		.loc 1 246 0
 3720 1ba4 049E     		ldr	r6, [sp, #16]
 3721 1ba6 3C44     		add	r4, r4, r7
 3722              		.loc 1 245 0
 3723 1ba8 6244     		add	r2, r2, ip
 3724              	.LVL288:
 3725              		.loc 1 246 0
 3726 1baa 83EA0609 		eor	r9, r3, r6
 3727 1bae 04EB0B08 		add	r8, r4, fp
 3728              		.loc 1 247 0
 3729 1bb2 4FEAF11E 		ror	lr, r1, #7
 3730              		.loc 1 246 0
 3731 1bb6 049C     		ldr	r4, [sp, #16]
 3732 1bb8 089E     		ldr	r6, [sp, #32]
 3733 1bba 02EA090A 		and	r10, r2, r9
 3734              		.loc 1 247 0
 3735 1bbe 8EEAB14E 		eor	lr, lr, r1, ror #18
 3736              		.loc 1 246 0
 3737 1bc2 8AEA0409 		eor	r9, r10, r4
 3738              		.loc 1 247 0
 3739 1bc6 8EEAD10E 		eor	lr, lr, r1, lsr #3
 3740              		.loc 1 246 0
 3741 1bca 019C     		ldr	r4, [sp, #4]
 3742 1bcc 0599     		ldr	r1, [sp, #20]
 3743 1bce 44EA010B 		orr	fp, r4, r1
 3744              	.LVL289:
 3745 1bd2 099C     		ldr	r4, [sp, #36]
 3746 1bd4 A644     		add	lr, lr, r4
 3747 1bd6 019C     		ldr	r4, [sp, #4]
 3748 1bd8 4FEAB21C 		ror	ip, r2, #6
 3749              	.LVL290:
 3750 1bdc C144     		add	r9, r9, r8
 3751 1bde 4FEAB408 		ror	r8, r4, #2
 3752 1be2 8CEAF22A 		eor	r10, ip, r2, ror #11
 3753 1be6 88EA7438 		eor	r8, r8, r4, ror #13
 3754 1bea 8AEA726C 		eor	ip, r10, r2, ror #25
 3755 1bee 88EAB45A 		eor	r10, r8, r4, ror #22
 3756 1bf2 0C46     		mov	r4, r1
 3757 1bf4 0199     		ldr	r1, [sp, #4]
 3758 1bf6 0BEA060B 		and	fp, fp, r6
ARM GAS  C:\Users\jo\AppData\Local\Temp\ccDsJqTW.s 			page 67


 3759 1bfa 0F9E     		ldr	r6, [sp, #60]
 3760 1bfc CC44     		add	ip, ip, r9
 3761              	.LVL291:
 3762 1bfe 01EA0408 		and	r8, r1, r4
 3763              		.loc 1 247 0
 3764 1c02 4FEA7544 		ror	r4, r5, #17
 3765 1c06 B644     		add	lr, lr, r6
 3766 1c08 84EAF544 		eor	r4, r4, r5, ror #19
 3767              		.loc 1 246 0
 3768 1c0c 00EB0C06 		add	r6, r0, ip
 3769 1c10 0296     		str	r6, [sp, #8]
 3770              	.LVL292:
 3771              		.loc 1 247 0
 3772 1c12 84EA9524 		eor	r4, r4, r5, lsr #10
 3773 1c16 0D9E     		ldr	r6, [sp, #52]
 3774 1c18 0198     		ldr	r0, [sp, #4]
 3775 1c1a 04EB0E01 		add	r1, r4, lr
 3776              		.loc 1 246 0
 3777 1c1e 4BEA0808 		orr	r8, fp, r8
 3778 1c22 D044     		add	r8, r8, r10
 3779 1c24 0E44     		add	r6, r6, r1
 3780 1c26 C444     		add	ip, r8, ip
 3781              	.LVL293:
 3782 1c28 0D96     		str	r6, [sp, #52]
 3783              		.loc 1 247 0
 3784 1c2a 4CEA000A 		orr	r10, ip, r0
 3785 1c2e 0D98     		ldr	r0, [sp, #52]
 3786 1c30 029E     		ldr	r6, [sp, #8]
 3787              		.loc 1 248 0
 3788 1c32 0A9C     		ldr	r4, [sp, #40]
 3789 1c34 0F91     		str	r1, [sp, #60]
 3790 1c36 8146     		mov	r9, r0
 3791              	.LVL294:
 3792 1c38 0498     		ldr	r0, [sp, #16]
 3793              		.loc 1 247 0
 3794 1c3a 82EA0305 		eor	r5, r2, r3
 3795 1c3e 4844     		add	r0, r0, r9
 3796 1c40 3540     		ands	r5, r5, r6
 3797 1c42 4FEAB61E 		ror	lr, r6, #6
 3798 1c46 0646     		mov	r6, r0
 3799 1c48 0298     		ldr	r0, [sp, #8]
 3800 1c4a 8EEAF02E 		eor	lr, lr, r0, ror #11
 3801 1c4e 0598     		ldr	r0, [sp, #20]
 3802 1c50 5D40     		eors	r5, r5, r3
 3803              		.loc 1 248 0
 3804 1c52 4FEAF418 		ror	r8, r4, #7
 3805              		.loc 1 247 0
 3806 1c56 0AEA000A 		and	r10, r10, r0
 3807              		.loc 1 248 0
 3808 1c5a 88EAB448 		eor	r8, r8, r4, ror #18
 3809              		.loc 1 247 0
 3810 1c5e 0198     		ldr	r0, [sp, #4]
 3811 1c60 2E44     		add	r6, r6, r5
 3812 1c62 0B9D     		ldr	r5, [sp, #44]
 3813 1c64 6146     		mov	r1, ip
 3814              		.loc 1 248 0
 3815 1c66 88EAD408 		eor	r8, r8, r4, lsr #3
ARM GAS  C:\Users\jo\AppData\Local\Temp\ccDsJqTW.s 			page 68


 3816              		.loc 1 247 0
 3817 1c6a 4FEAB10C 		ror	ip, r1, #2
 3818              	.LVL295:
 3819 1c6e 029C     		ldr	r4, [sp, #8]
 3820              		.loc 1 248 0
 3821 1c70 0991     		str	r1, [sp, #36]
 3822 1c72 A844     		add	r8, r8, r5
 3823 1c74 109D     		ldr	r5, [sp, #64]
 3824              		.loc 1 247 0
 3825 1c76 01EA0009 		and	r9, r1, r0
 3826 1c7a 8CEA713C 		eor	ip, ip, r1, ror #13
 3827              		.loc 1 248 0
 3828 1c7e 4FEA774B 		ror	fp, r7, #17
 3829              		.loc 1 247 0
 3830 1c82 8EEA746E 		eor	lr, lr, r4, ror #25
 3831 1c86 8CEAB15C 		eor	ip, ip, r1, ror #22
 3832 1c8a A844     		add	r8, r8, r5
 3833 1c8c 4AEA0909 		orr	r9, r10, r9
 3834 1c90 089D     		ldr	r5, [sp, #32]
 3835              		.loc 1 248 0
 3836 1c92 8BEAF74B 		eor	fp, fp, r7, ror #19
 3837              		.loc 1 247 0
 3838 1c96 7644     		add	r6, r6, lr
 3839              	.LVL296:
 3840 1c98 E144     		add	r9, r9, ip
 3841              	.LVL297:
 3842              		.loc 1 248 0
 3843 1c9a 8BEA972B 		eor	fp, fp, r7, lsr #10
 3844              		.loc 1 247 0
 3845 1c9e 06EB050E 		add	lr, r6, r5
 3846              	.LVL298:
 3847              		.loc 1 248 0
 3848 1ca2 08EB0B0C 		add	ip, r8, fp
 3849              		.loc 1 247 0
 3850 1ca6 09EB0605 		add	r5, r9, r6
 3851              	.LVL299:
 3852 1caa 0E9E     		ldr	r6, [sp, #56]
 3853              	.LVL300:
 3854              		.loc 1 248 0
 3855 1cac 0495     		str	r5, [sp, #16]
 3856              	.LVL301:
 3857 1cae 6046     		mov	r0, ip
 3858 1cb0 8619     		adds	r6, r0, r6
 3859 1cb2 0E96     		str	r6, [sp, #56]
 3860 1cb4 0B90     		str	r0, [sp, #44]
 3861 1cb6 0E98     		ldr	r0, [sp, #56]
 3862 1cb8 84EA0208 		eor	r8, r4, r2
 3863 1cbc 0344     		add	r3, r3, r0
 3864              	.LVL302:
 3865              		.loc 1 249 0
 3866 1cbe 0C9C     		ldr	r4, [sp, #48]
 3867              		.loc 1 248 0
 3868 1cc0 0498     		ldr	r0, [sp, #16]
 3869 1cc2 0EEA0808 		and	r8, lr, r8
 3870 1cc6 4FEABE16 		ror	r6, lr, #6
 3871 1cca 00EA010B 		and	fp, r0, r1
 3872 1cce 45EA010A 		orr	r10, r5, r1
ARM GAS  C:\Users\jo\AppData\Local\Temp\ccDsJqTW.s 			page 69


 3873              		.loc 1 249 0
 3874 1cd2 4FEAF41C 		ror	ip, r4, #7
 3875              		.loc 1 248 0
 3876 1cd6 0199     		ldr	r1, [sp, #4]
 3877              	.LVL303:
 3878 1cd8 88EA0208 		eor	r8, r8, r2
 3879 1cdc 86EAFE26 		eor	r6, r6, lr, ror #11
 3880 1ce0 86EA7E66 		eor	r6, r6, lr, ror #25
 3881 1ce4 4FEAB507 		ror	r7, r5, #2
 3882              		.loc 1 249 0
 3883 1ce8 8CEAB44C 		eor	ip, ip, r4, ror #18
 3884 1cec 2546     		mov	r5, r4
 3885              	.LVL304:
 3886 1cee 9844     		add	r8, r8, r3
 3887 1cf0 0A9C     		ldr	r4, [sp, #40]
 3888              		.loc 1 248 0
 3889 1cf2 B044     		add	r8, r8, r6
 3890              	.LVL305:
 3891 1cf4 0AEA010A 		and	r10, r10, r1
 3892 1cf8 129E     		ldr	r6, [sp, #72]
 3893              		.loc 1 249 0
 3894 1cfa 0F99     		ldr	r1, [sp, #60]
 3895 1cfc 8CEAD50C 		eor	ip, ip, r5, lsr #3
 3896 1d00 A444     		add	ip, ip, r4
 3897 1d02 4FEA7149 		ror	r9, r1, #17
 3898              	.LVL306:
 3899 1d06 B444     		add	ip, ip, r6
 3900              		.loc 1 248 0
 3901 1d08 059E     		ldr	r6, [sp, #20]
 3902 1d0a 87EA7037 		eor	r7, r7, r0, ror #13
 3903              		.loc 1 249 0
 3904 1d0e 89EAF149 		eor	r9, r9, r1, ror #19
 3905              		.loc 1 248 0
 3906 1d12 08EB0604 		add	r4, r8, r6
 3907 1d16 87EAB057 		eor	r7, r7, r0, ror #22
 3908              		.loc 1 249 0
 3909 1d1a 89EA9129 		eor	r9, r9, r1, lsr #10
 3910              		.loc 1 248 0
 3911 1d1e 4AEA0B0A 		orr	r10, r10, fp
 3912              		.loc 1 249 0
 3913 1d22 CC44     		add	ip, ip, r9
 3914              		.loc 1 248 0
 3915 1d24 BA44     		add	r10, r10, r7
 3916 1d26 2746     		mov	r7, r4
 3917 1d28 139C     		ldr	r4, [sp, #76]
 3918 1d2a CDF820C0 		str	ip, [sp, #32]
 3919 1d2e 0546     		mov	r5, r0
 3920              	.LVL307:
 3921              		.loc 1 249 0
 3922 1d30 6646     		mov	r6, ip
 3923 1d32 0298     		ldr	r0, [sp, #8]
 3924              	.LVL308:
 3925 1d34 3419     		adds	r4, r6, r4
 3926              		.loc 1 248 0
 3927 1d36 0AEB0803 		add	r3, r10, r8
 3928              	.LVL309:
 3929              		.loc 1 249 0
ARM GAS  C:\Users\jo\AppData\Local\Temp\ccDsJqTW.s 			page 70


 3930 1d3a 8EEA0008 		eor	r8, lr, r0
 3931              	.LVL310:
 3932 1d3e 2046     		mov	r0, r4
 3933 1d40 0244     		add	r2, r2, r0
 3934              	.LVL311:
 3935 1d42 0298     		ldr	r0, [sp, #8]
 3936 1d44 294E     		ldr	r6, .L36+20
 3937 1d46 DFF8ACA0 		ldr	r10, .L36+28
 3938              	.LVL312:
 3939 1d4a 07EA0808 		and	r8, r7, r8
 3940 1d4e 88EA0008 		eor	r8, r8, r0
 3941 1d52 0498     		ldr	r0, [sp, #16]
 3942 1d54 3946     		mov	r1, r7
 3943 1d56 4FEAB71C 		ror	ip, r7, #6
 3944              		.loc 1 250 0
 3945 1d5a 039F     		ldr	r7, [sp, #12]
 3946              	.LVL313:
 3947              		.loc 1 249 0
 3948 1d5c 0591     		str	r1, [sp, #20]
 3949 1d5e 03EA000B 		and	fp, r3, r0
 3950              	.LVL314:
 3951 1d62 0998     		ldr	r0, [sp, #36]
 3952 1d64 43EA0509 		orr	r9, r3, r5
 3953 1d68 3546     		mov	r5, r6
 3954              	.LVL315:
 3955              		.loc 1 250 0
 3956 1d6a 4FEAF716 		ror	r6, r7, #7
 3957              		.loc 1 249 0
 3958 1d6e 4FEAB304 		ror	r4, r3, #2
 3959 1d72 09EA0009 		and	r9, r9, r0
 3960              		.loc 1 250 0
 3961 1d76 86EAB746 		eor	r6, r6, r7, ror #18
 3962 1d7a 3846     		mov	r0, r7
 3963 1d7c 0C9F     		ldr	r7, [sp, #48]
 3964              		.loc 1 249 0
 3965 1d7e 8CEAF12C 		eor	ip, ip, r1, ror #11
 3966 1d82 84EA7334 		eor	r4, r4, r3, ror #13
 3967 1d86 8CEA716C 		eor	ip, ip, r1, ror #25
 3968 1d8a 49EA0B09 		orr	r9, r9, fp
 3969 1d8e BA44     		add	r10, r10, r7
 3970 1d90 0199     		ldr	r1, [sp, #4]
 3971              	.LVL316:
 3972              		.loc 1 250 0
 3973 1d92 0B9F     		ldr	r7, [sp, #44]
 3974 1d94 4244     		add	r2, r2, r8
 3975              		.loc 1 249 0
 3976 1d96 84EAB354 		eor	r4, r4, r3, ror #22
 3977 1d9a 6244     		add	r2, r2, ip
 3978              	.LVL317:
 3979 1d9c 4C44     		add	r4, r4, r9
 3980              	.LVL318:
 3981 1d9e 1144     		add	r1, r1, r2
 3982              	.LVL319:
 3983              		.loc 1 250 0
 3984 1da0 4FEA7748 		ror	r8, r7, #17
 3985              		.loc 1 249 0
 3986 1da4 2244     		add	r2, r2, r4
ARM GAS  C:\Users\jo\AppData\Local\Temp\ccDsJqTW.s 			page 71


 3987              	.LVL320:
 3988              		.loc 1 250 0
 3989 1da6 86EAD006 		eor	r6, r6, r0, lsr #3
 3990 1daa 079C     		ldr	r4, [sp, #28]
 3991              	.LVL321:
 3992 1dac 0498     		ldr	r0, [sp, #16]
 3993 1dae 88EAF74B 		eor	fp, r8, r7, ror #19
 3994 1db2 5644     		add	r6, r6, r10
 3995 1db4 06EB040A 		add	r10, r6, r4
 3996 1db8 8BEA9728 		eor	r8, fp, r7, lsr #10
 3997 1dbc 4FEAB204 		ror	r4, r2, #2
 3998 1dc0 059E     		ldr	r6, [sp, #20]
 3999 1dc2 D044     		add	r8, r8, r10
 4000 1dc4 84EA723A 		eor	r10, r4, r2, ror #13
 4001 1dc8 029C     		ldr	r4, [sp, #8]
 4002              		.loc 1 251 0
 4003 1dca 119F     		ldr	r7, [sp, #68]
 4004              		.loc 1 250 0
 4005 1dcc 42EA0309 		orr	r9, r2, r3
 4006 1dd0 4444     		add	r4, r4, r8
 4007 1dd2 86EA0E06 		eor	r6, r6, lr
 4008 1dd6 0FE0     		b	.L37
 4009              	.L38:
 4010              		.align	2
 4011              	.L36:
 4012 1dd8 EE828F74 		.word	1955562222
 4013 1ddc 6F63A578 		.word	2024104815
 4014 1de0 0802C78C 		.word	-1933114872
 4015 1de4 FAFFBE90 		.word	-1866530822
 4016 1de8 1478C884 		.word	-2067236844
 4017 1dec F27871C6 		.word	-965641998
 4018 1df0 F36F2E68 		.word	1747873779
 4019 1df4 F7A3F9BE 		.word	-1090935817
 4020              	.L37:
 4021 1df8 09EA000B 		and	fp, r9, r0
 4022 1dfc 0E40     		ands	r6, r6, r1
 4023 1dfe 2046     		mov	r0, r4
 4024              		.loc 1 251 0
 4025 1e00 4FEAF714 		ror	r4, r7, #7
 4026              		.loc 1 250 0
 4027 1e04 86EA0E06 		eor	r6, r6, lr
 4028 1e08 4FEAB11C 		ror	ip, r1, #6
 4029              		.loc 1 251 0
 4030 1e0c 84EAB744 		eor	r4, r4, r7, ror #18
 4031 1e10 84EAD704 		eor	r4, r4, r7, lsr #3
 4032              		.loc 1 250 0
 4033 1e14 8CEAF12C 		eor	ip, ip, r1, ror #11
 4034              		.loc 1 251 0
 4035 1e18 089F     		ldr	r7, [sp, #32]
 4036 1e1a 3044     		add	r0, r0, r6
 4037 1e1c 039E     		ldr	r6, [sp, #12]
 4038              		.loc 1 250 0
 4039 1e1e 8CEA716C 		eor	ip, ip, r1, ror #25
 4040 1e22 02EA0309 		and	r9, r2, r3
 4041 1e26 6044     		add	r0, r0, ip
 4042              	.LVL322:
 4043 1e28 7519     		adds	r5, r6, r5
ARM GAS  C:\Users\jo\AppData\Local\Temp\ccDsJqTW.s 			page 72


 4044              		.loc 1 251 0
 4045 1e2a 4FEA774C 		ror	ip, r7, #17
 4046              		.loc 1 250 0
 4047 1e2e 8AEAB25A 		eor	r10, r10, r2, ror #22
 4048 1e32 05EB0408 		add	r8, r5, r4
 4049 1e36 4BEA0909 		orr	r9, fp, r9
 4050 1e3a 099C     		ldr	r4, [sp, #36]
 4051              		.loc 1 251 0
 4052 1e3c 059D     		ldr	r5, [sp, #20]
 4053 1e3e 8CEAF74C 		eor	ip, ip, r7, ror #19
 4054 1e42 069F     		ldr	r7, [sp, #24]
 4055              		.loc 1 250 0
 4056 1e44 D144     		add	r9, r9, r10
 4057              	.LVL323:
 4058 1e46 09EB000B 		add	fp, r9, r0
 4059 1e4a B844     		add	r8, r8, r7
 4060 1e4c 2044     		add	r0, r0, r4
 4061              	.LVL324:
 4062              		.loc 1 251 0
 4063 1e4e 089F     		ldr	r7, [sp, #32]
 4064 1e50 059C     		ldr	r4, [sp, #20]
 4065 1e52 8CEA972C 		eor	ip, ip, r7, lsr #10
 4066 1e56 81EA0406 		eor	r6, r1, r4
 4067              	.LVL325:
 4068 1e5a 159F     		ldr	r7, [sp, #84]
 4069 1e5c 0640     		ands	r6, r6, r0
 4070 1e5e 4BEA0204 		orr	r4, fp, r2
 4071 1e62 4FEABB0A 		ror	r10, fp, #2
 4072 1e66 6E40     		eors	r6, r6, r5
 4073 1e68 3D46     		mov	r5, r7
 4074 1e6a 049F     		ldr	r7, [sp, #16]
 4075 1e6c 0BEA0209 		and	r9, fp, r2
 4076              	.LVL326:
 4077 1e70 1C40     		ands	r4, r4, r3
 4078 1e72 8AEA7B3A 		eor	r10, r10, fp, ror #13
 4079 1e76 E044     		add	r8, r8, ip
 4080 1e78 F044     		add	r8, r8, lr
 4081 1e7a 44EA0904 		orr	r4, r4, r9
 4082 1e7e 8AEABB5A 		eor	r10, r10, fp, ror #22
 4083 1e82 BE46     		mov	lr, r7
 4084              	.LVL327:
 4085 1e84 1B9F     		ldr	r7, [sp, #108]
 4086 1e86 5444     		add	r4, r4, r10
 4087 1e88 3C44     		add	r4, r4, r7
 4088              		.loc 1 260 0
 4089 1e8a 1D9F     		ldr	r7, [sp, #116]
 4090 1e8c AE44     		add	lr, lr, r5
 4091 1e8e 7546     		mov	r5, lr
 4092              		.loc 1 251 0
 4093 1e90 4FEAB01C 		ror	ip, r0, #6
 4094              		.loc 1 260 0
 4095 1e94 BE46     		mov	lr, r7
 4096 1e96 059F     		ldr	r7, [sp, #20]
 4097              		.loc 1 251 0
 4098 1e98 8CEAF02C 		eor	ip, ip, r0, ror #11
 4099 1e9c 8CEA706C 		eor	ip, ip, r0, ror #25
 4100              		.loc 1 260 0
ARM GAS  C:\Users\jo\AppData\Local\Temp\ccDsJqTW.s 			page 73


 4101 1ea0 7744     		add	r7, r7, lr
 4102 1ea2 4644     		add	r6, r6, r8
 4103              		.loc 1 251 0
 4104 1ea4 6644     		add	r6, r6, ip
 4105              	.LVL328:
 4106              		.loc 1 260 0
 4107 1ea6 BC46     		mov	ip, r7
 4108              		.loc 1 256 0
 4109 1ea8 1C9F     		ldr	r7, [sp, #112]
 4110 1eaa 3B44     		add	r3, r3, r7
 4111              	.LVL329:
 4112              		.loc 1 259 0
 4113 1eac 179F     		ldr	r7, [sp, #92]
 4114 1eae 3944     		add	r1, r1, r7
 4115              	.LVL330:
 4116 1eb0 BE46     		mov	lr, r7
 4117              		.loc 1 255 0
 4118 1eb2 199F     		ldr	r7, [sp, #100]
 4119 1eb4 02EB0709 		add	r9, r2, r7
 4120              		.loc 1 258 0
 4121 1eb8 169F     		ldr	r7, [sp, #88]
 4122              		.loc 1 254 0
 4123 1eba 189A     		ldr	r2, [sp, #96]
 4124              	.LVL331:
 4125              		.loc 1 258 0
 4126 1ebc 3844     		add	r0, r0, r7
 4127              	.LVL332:
 4128              		.loc 1 260 0
 4129 1ebe 1A9F     		ldr	r7, [sp, #104]
 4130              		.loc 1 253 0
 4131 1ec0 3444     		add	r4, r4, r6
 4132              		.loc 1 254 0
 4133 1ec2 5A44     		add	r2, fp, r2
 4134              		.loc 1 257 0
 4135 1ec4 2E44     		add	r6, r6, r5
 4136              	.LVL333:
 4137              		.loc 1 260 0
 4138 1ec6 C7F824C0 		str	ip, [r7, #36]
 4139              	.LVL334:
 4140              		.loc 1 256 0
 4141 1eca 7B61     		str	r3, [r7, #20]
 4142              		.loc 1 259 0
 4143 1ecc 3962     		str	r1, [r7, #32]
 4144              		.loc 1 255 0
 4145 1ece C7F81090 		str	r9, [r7, #16]
 4146              		.loc 1 254 0
 4147 1ed2 FA60     		str	r2, [r7, #12]
 4148              		.loc 1 258 0
 4149 1ed4 F861     		str	r0, [r7, #28]
 4150              		.loc 1 253 0
 4151 1ed6 BC60     		str	r4, [r7, #8]
 4152              		.loc 1 257 0
 4153 1ed8 BE61     		str	r6, [r7, #24]
 4154              		.loc 1 261 0
 4155 1eda 41B0     		add	sp, sp, #260
 4156              		.cfi_def_cfa_offset 36
 4157              		@ sp needed
ARM GAS  C:\Users\jo\AppData\Local\Temp\ccDsJqTW.s 			page 74


 4158 1edc BDE8F08F 		pop	{r4, r5, r6, r7, r8, r9, r10, fp, pc}
 4159              		.cfi_endproc
 4160              	.LFE4:
 4161              		.size	sha256_process, .-sha256_process
 4162              		.section	.text.sha256_update.part.0,"ax",%progbits
 4163              		.align	2
 4164              		.p2align 4,,15
 4165              		.thumb
 4166              		.thumb_func
 4167              		.type	sha256_update.part.0, %function
 4168              	sha256_update.part.0:
 4169              	.LFB15:
 4170              		.loc 1 266 0
 4171              		.cfi_startproc
 4172              		@ args = 0, pretend = 0, frame = 0
 4173              		@ frame_needed = 0, uses_anonymous_args = 0
 4174              	.LVL335:
 4175 0000 2DE9F843 		push	{r3, r4, r5, r6, r7, r8, r9, lr}
 4176              		.cfi_def_cfa_offset 32
 4177              		.cfi_offset 3, -32
 4178              		.cfi_offset 4, -28
 4179              		.cfi_offset 5, -24
 4180              		.cfi_offset 6, -20
 4181              		.cfi_offset 7, -16
 4182              		.cfi_offset 8, -12
 4183              		.cfi_offset 9, -8
 4184              		.cfi_offset 14, -4
 4185              		.loc 1 266 0
 4186 0004 0646     		mov	r6, r0
 4187              		.loc 1 275 0
 4188 0006 0068     		ldr	r0, [r0]
 4189              	.LVL336:
 4190              		.loc 1 278 0
 4191 0008 1318     		adds	r3, r2, r0
 4192              		.loc 1 281 0
 4193 000a 9A42     		cmp	r2, r3
 4194              		.loc 1 266 0
 4195 000c 1746     		mov	r7, r2
 4196 000e 8946     		mov	r9, r1
 4197              		.loc 1 278 0
 4198 0010 3360     		str	r3, [r6]
 4199              		.loc 1 275 0
 4200 0012 00F03F08 		and	r8, r0, #63
 4201              	.LVL337:
 4202              		.loc 1 281 0
 4203 0016 02D9     		bls	.L40
 4204              		.loc 1 282 0
 4205 0018 7368     		ldr	r3, [r6, #4]
 4206 001a 0133     		adds	r3, r3, #1
 4207 001c 7360     		str	r3, [r6, #4]
 4208              	.L40:
 4209              		.loc 1 284 0
 4210 001e B8F1000F 		cmp	r8, #0
 4211 0022 16D0     		beq	.L41
 4212              		.loc 1 276 0
 4213 0024 C8F14004 		rsb	r4, r8, #64
 4214              		.loc 1 284 0
ARM GAS  C:\Users\jo\AppData\Local\Temp\ccDsJqTW.s 			page 75


 4215 0028 BC42     		cmp	r4, r7
 4216 002a 02D9     		bls	.L51
 4217              	.LVL338:
 4218              	.L43:
 4219              		.loc 1 300 0
 4220 002c 47BB     		cbnz	r7, .L52
 4221              	.LVL339:
 4222              	.L39:
 4223 002e BDE8F883 		pop	{r3, r4, r5, r6, r7, r8, r9, pc}
 4224              	.LVL340:
 4225              	.L51:
 4226              		.loc 1 286 0
 4227 0032 08F12800 		add	r0, r8, #40
 4228 0036 4946     		mov	r1, r9
 4229              	.LVL341:
 4230 0038 2246     		mov	r2, r4
 4231              	.LVL342:
 4232 003a 3044     		add	r0, r0, r6
 4233 003c FFF7FEFF 		bl	memcpy
 4234              	.LVL343:
 4235              		.loc 1 287 0
 4236 0040 3046     		mov	r0, r6
 4237 0042 06F12801 		add	r1, r6, #40
 4238 0046 FFF7FEFF 		bl	sha256_process
 4239              	.LVL344:
 4240              		.loc 1 289 0
 4241 004a 3F1B     		subs	r7, r7, r4
 4242              	.LVL345:
 4243              		.loc 1 288 0
 4244 004c A144     		add	r9, r9, r4
 4245              	.LVL346:
 4246              		.loc 1 290 0
 4247 004e 4FF00008 		mov	r8, #0
 4248              	.LVL347:
 4249              	.L41:
 4250              		.loc 1 293 0
 4251 0052 3F2F     		cmp	r7, #63
 4252 0054 EAD9     		bls	.L43
 4253 0056 3D46     		mov	r5, r7
 4254 0058 4C46     		mov	r4, r9
 4255              	.LVL348:
 4256              	.L44:
 4257              		.loc 1 295 0
 4258 005a 2146     		mov	r1, r4
 4259              		.loc 1 297 0
 4260 005c 403D     		subs	r5, r5, #64
 4261              	.LVL349:
 4262              		.loc 1 295 0
 4263 005e 3046     		mov	r0, r6
 4264 0060 FFF7FEFF 		bl	sha256_process
 4265              	.LVL350:
 4266              		.loc 1 293 0
 4267 0064 3F2D     		cmp	r5, #63
 4268              		.loc 1 296 0
 4269 0066 04F14004 		add	r4, r4, #64
 4270              	.LVL351:
 4271              		.loc 1 293 0
ARM GAS  C:\Users\jo\AppData\Local\Temp\ccDsJqTW.s 			page 76


 4272 006a F6D8     		bhi	.L44
 4273 006c A7F14003 		sub	r3, r7, #64
 4274 0070 23F03F03 		bic	r3, r3, #63
 4275 0074 4033     		adds	r3, r3, #64
 4276 0076 07F03F07 		and	r7, r7, #63
 4277 007a 9944     		add	r9, r9, r3
 4278              		.loc 1 300 0
 4279 007c 002F     		cmp	r7, #0
 4280 007e D6D0     		beq	.L39
 4281              	.LVL352:
 4282              	.L52:
 4283              		.loc 1 301 0
 4284 0080 08F12800 		add	r0, r8, #40
 4285 0084 3044     		add	r0, r0, r6
 4286 0086 4946     		mov	r1, r9
 4287 0088 3A46     		mov	r2, r7
 4288              		.loc 1 302 0
 4289 008a BDE8F843 		pop	{r3, r4, r5, r6, r7, r8, r9, lr}
 4290              		.cfi_restore 14
 4291              		.cfi_restore 9
 4292              		.cfi_restore 8
 4293              		.cfi_restore 7
 4294              		.cfi_restore 6
 4295              		.cfi_restore 5
 4296              		.cfi_restore 4
 4297              		.cfi_restore 3
 4298              		.cfi_def_cfa_offset 0
 4299              	.LVL353:
 4300              		.loc 1 301 0
 4301 008e FFF7FEBF 		b	memcpy
 4302              	.LVL354:
 4303              		.cfi_endproc
 4304              	.LFE15:
 4305              		.size	sha256_update.part.0, .-sha256_update.part.0
 4306 0092 00BFAFF3 		.section	.text.sha256_update,"ax",%progbits
 4306      0080AFF3 
 4306      0080AFF3 
 4306      0080
 4307              		.align	2
 4308              		.p2align 4,,15
 4309              		.global	sha256_update
 4310              		.thumb
 4311              		.thumb_func
 4312              		.type	sha256_update, %function
 4313              	sha256_update:
 4314              	.LFB5:
 4315              		.loc 1 268 0
 4316              		.cfi_startproc
 4317              		@ args = 0, pretend = 0, frame = 0
 4318              		@ frame_needed = 0, uses_anonymous_args = 0
 4319              		@ link register save eliminated.
 4320              	.LVL355:
 4321              		.loc 1 272 0
 4322 0000 0AB1     		cbz	r2, .L53
 4323 0002 FFF7FEBF 		b	sha256_update.part.0
 4324              	.LVL356:
 4325              	.L53:
ARM GAS  C:\Users\jo\AppData\Local\Temp\ccDsJqTW.s 			page 77


 4326 0006 7047     		bx	lr
 4327              		.cfi_endproc
 4328              	.LFE5:
 4329              		.size	sha256_update, .-sha256_update
 4330 0008 AFF30080 		.section	.text.sha256_finish,"ax",%progbits
 4330      AFF30080 
 4331              		.align	2
 4332              		.p2align 4,,15
 4333              		.global	sha256_finish
 4334              		.thumb
 4335              		.thumb_func
 4336              		.type	sha256_finish, %function
 4337              	sha256_finish:
 4338              	.LFB6:
 4339              		.loc 1 316 0
 4340              		.cfi_startproc
 4341              		@ args = 0, pretend = 0, frame = 8
 4342              		@ frame_needed = 0, uses_anonymous_args = 0
 4343              	.LVL357:
 4344 0000 2DE9F041 		push	{r4, r5, r6, r7, r8, lr}
 4345              		.cfi_def_cfa_offset 24
 4346              		.cfi_offset 4, -24
 4347              		.cfi_offset 5, -20
 4348              		.cfi_offset 6, -16
 4349              		.cfi_offset 7, -12
 4350              		.cfi_offset 8, -8
 4351              		.cfi_offset 14, -4
 4352              		.loc 1 321 0
 4353 0004 0268     		ldr	r2, [r0]
 4354              		.loc 1 316 0
 4355 0006 0D46     		mov	r5, r1
 4356              		.loc 1 322 0
 4357 0008 4168     		ldr	r1, [r0, #4]
 4358              	.LVL358:
 4359              		.loc 1 321 0
 4360 000a 530F     		lsrs	r3, r2, #29
 4361              		.loc 1 316 0
 4362 000c 82B0     		sub	sp, sp, #8
 4363              		.cfi_def_cfa_offset 32
 4364              		.loc 1 321 0
 4365 000e 43EAC103 		orr	r3, r3, r1, lsl #3
 4366              	.LVL359:
 4367              		.loc 1 323 0
 4368 0012 D100     		lsls	r1, r2, #3
 4369              	.LVL360:
 4370              		.loc 1 328 0
 4371 0014 02F03F02 		and	r2, r2, #63
 4372              	.LVL361:
 4373              		.loc 1 316 0
 4374 0018 0446     		mov	r4, r0
 4375              		.loc 1 329 0
 4376 001a 372A     		cmp	r2, #55
 4377              		.loc 1 326 0
 4378 001c 4FEA1120 		lsr	r0, r1, #8
 4379              	.LVL362:
 4380              		.loc 1 325 0
 4381 0020 4FEA1368 		lsr	r8, r3, #24
ARM GAS  C:\Users\jo\AppData\Local\Temp\ccDsJqTW.s 			page 78


 4382 0024 4FEA134C 		lsr	ip, r3, #16
 4383 0028 4FEA132E 		lsr	lr, r3, #8
 4384              		.loc 1 329 0
 4385 002c 94BF     		ite	ls
 4386 002e C2F13802 		rsbls	r2, r2, #56
 4387              	.LVL363:
 4388 0032 C2F17802 		rsbhi	r2, r2, #120
 4389              	.LVL364:
 4390              		.loc 1 326 0
 4391 0036 0F0E     		lsrs	r7, r1, #24
 4392 0038 0E0C     		lsrs	r6, r1, #16
 4393 003a 8DF80710 		strb	r1, [sp, #7]
 4394 003e 8DF80600 		strb	r0, [sp, #6]
 4395              	.LBB76:
 4396              	.LBB77:
 4397 0042 3249     		ldr	r1, .L60
 4398              	.LVL365:
 4399              	.LBE77:
 4400              	.LBE76:
 4401              		.loc 1 325 0
 4402 0044 8DF80330 		strb	r3, [sp, #3]
 4403              	.LBB80:
 4404              	.LBB78:
 4405 0048 2046     		mov	r0, r4
 4406              	.LBE78:
 4407              	.LBE80:
 4408 004a 8DF801C0 		strb	ip, [sp, #1]
 4409 004e 8DF802E0 		strb	lr, [sp, #2]
 4410 0052 8DF80080 		strb	r8, [sp]
 4411              		.loc 1 326 0
 4412 0056 8DF80470 		strb	r7, [sp, #4]
 4413 005a 8DF80560 		strb	r6, [sp, #5]
 4414              	.LBB81:
 4415              	.LBB79:
 4416 005e FFF7FEFF 		bl	sha256_update.part.0
 4417              	.LVL366:
 4418              	.LBE79:
 4419              	.LBE81:
 4420              	.LBB82:
 4421              	.LBB83:
 4422 0062 2046     		mov	r0, r4
 4423 0064 6946     		mov	r1, sp
 4424 0066 0822     		movs	r2, #8
 4425 0068 FFF7FEFF 		bl	sha256_update.part.0
 4426              	.LVL367:
 4427              	.LBE83:
 4428              	.LBE82:
 4429              		.loc 1 334 0
 4430 006c E37A     		ldrb	r3, [r4, #11]	@ zero_extendqisi2
 4431 006e 2B70     		strb	r3, [r5]
 4432 0070 6389     		ldrh	r3, [r4, #10]
 4433 0072 6B70     		strb	r3, [r5, #1]
 4434 0074 A368     		ldr	r3, [r4, #8]
 4435 0076 1B0A     		lsrs	r3, r3, #8
 4436 0078 AB70     		strb	r3, [r5, #2]
 4437 007a A368     		ldr	r3, [r4, #8]
 4438 007c EB70     		strb	r3, [r5, #3]
ARM GAS  C:\Users\jo\AppData\Local\Temp\ccDsJqTW.s 			page 79


 4439              		.loc 1 335 0
 4440 007e E37B     		ldrb	r3, [r4, #15]	@ zero_extendqisi2
 4441 0080 2B71     		strb	r3, [r5, #4]
 4442 0082 E389     		ldrh	r3, [r4, #14]
 4443 0084 6B71     		strb	r3, [r5, #5]
 4444 0086 E368     		ldr	r3, [r4, #12]
 4445 0088 1B0A     		lsrs	r3, r3, #8
 4446 008a AB71     		strb	r3, [r5, #6]
 4447 008c E368     		ldr	r3, [r4, #12]
 4448 008e EB71     		strb	r3, [r5, #7]
 4449              		.loc 1 336 0
 4450 0090 E37C     		ldrb	r3, [r4, #19]	@ zero_extendqisi2
 4451 0092 2B72     		strb	r3, [r5, #8]
 4452 0094 638A     		ldrh	r3, [r4, #18]
 4453 0096 6B72     		strb	r3, [r5, #9]
 4454 0098 2369     		ldr	r3, [r4, #16]
 4455 009a 1B0A     		lsrs	r3, r3, #8
 4456 009c AB72     		strb	r3, [r5, #10]
 4457 009e 2369     		ldr	r3, [r4, #16]
 4458 00a0 EB72     		strb	r3, [r5, #11]
 4459              		.loc 1 337 0
 4460 00a2 E37D     		ldrb	r3, [r4, #23]	@ zero_extendqisi2
 4461 00a4 2B73     		strb	r3, [r5, #12]
 4462 00a6 E38A     		ldrh	r3, [r4, #22]
 4463 00a8 6B73     		strb	r3, [r5, #13]
 4464 00aa 6369     		ldr	r3, [r4, #20]
 4465 00ac 1B0A     		lsrs	r3, r3, #8
 4466 00ae AB73     		strb	r3, [r5, #14]
 4467 00b0 6369     		ldr	r3, [r4, #20]
 4468 00b2 EB73     		strb	r3, [r5, #15]
 4469              		.loc 1 338 0
 4470 00b4 E37E     		ldrb	r3, [r4, #27]	@ zero_extendqisi2
 4471 00b6 2B74     		strb	r3, [r5, #16]
 4472 00b8 638B     		ldrh	r3, [r4, #26]
 4473 00ba 6B74     		strb	r3, [r5, #17]
 4474 00bc A369     		ldr	r3, [r4, #24]
 4475 00be 1B0A     		lsrs	r3, r3, #8
 4476 00c0 AB74     		strb	r3, [r5, #18]
 4477 00c2 A369     		ldr	r3, [r4, #24]
 4478 00c4 EB74     		strb	r3, [r5, #19]
 4479              		.loc 1 339 0
 4480 00c6 E37F     		ldrb	r3, [r4, #31]	@ zero_extendqisi2
 4481 00c8 2B75     		strb	r3, [r5, #20]
 4482 00ca E38B     		ldrh	r3, [r4, #30]
 4483 00cc 6B75     		strb	r3, [r5, #21]
 4484 00ce E369     		ldr	r3, [r4, #28]
 4485 00d0 1B0A     		lsrs	r3, r3, #8
 4486 00d2 AB75     		strb	r3, [r5, #22]
 4487 00d4 E369     		ldr	r3, [r4, #28]
 4488 00d6 EB75     		strb	r3, [r5, #23]
 4489              		.loc 1 340 0
 4490 00d8 94F82330 		ldrb	r3, [r4, #35]	@ zero_extendqisi2
 4491 00dc 2B76     		strb	r3, [r5, #24]
 4492 00de 638C     		ldrh	r3, [r4, #34]
 4493 00e0 6B76     		strb	r3, [r5, #25]
 4494 00e2 236A     		ldr	r3, [r4, #32]
 4495 00e4 1B0A     		lsrs	r3, r3, #8
ARM GAS  C:\Users\jo\AppData\Local\Temp\ccDsJqTW.s 			page 80


 4496 00e6 AB76     		strb	r3, [r5, #26]
 4497 00e8 236A     		ldr	r3, [r4, #32]
 4498 00ea EB76     		strb	r3, [r5, #27]
 4499              		.loc 1 342 0
 4500 00ec D4F8E830 		ldr	r3, [r4, #232]
 4501 00f0 4BB9     		cbnz	r3, .L55
 4502              		.loc 1 343 0
 4503 00f2 94F82730 		ldrb	r3, [r4, #39]	@ zero_extendqisi2
 4504 00f6 2B77     		strb	r3, [r5, #28]
 4505 00f8 E38C     		ldrh	r3, [r4, #38]
 4506 00fa 6B77     		strb	r3, [r5, #29]
 4507 00fc 636A     		ldr	r3, [r4, #36]
 4508 00fe 1B0A     		lsrs	r3, r3, #8
 4509 0100 AB77     		strb	r3, [r5, #30]
 4510 0102 636A     		ldr	r3, [r4, #36]
 4511 0104 EB77     		strb	r3, [r5, #31]
 4512              	.L55:
 4513              		.loc 1 344 0
 4514 0106 02B0     		add	sp, sp, #8
 4515              		.cfi_def_cfa_offset 24
 4516              	.LVL368:
 4517              		@ sp needed
 4518 0108 BDE8F081 		pop	{r4, r5, r6, r7, r8, pc}
 4519              	.LVL369:
 4520              	.L61:
 4521              		.align	2
 4522              	.L60:
 4523 010c 00000000 		.word	.LANCHOR0
 4524              		.cfi_endproc
 4525              	.LFE6:
 4526              		.size	sha256_finish, .-sha256_finish
 4527              		.section	.text.sha256,"ax",%progbits
 4528              		.align	2
 4529              		.p2align 4,,15
 4530              		.global	sha256
 4531              		.thumb
 4532              		.thumb_func
 4533              		.type	sha256, %function
 4534              	sha256:
 4535              	.LFB7:
 4536              		.loc 1 353 0
 4537              		.cfi_startproc
 4538              		@ args = 0, pretend = 0, frame = 240
 4539              		@ frame_needed = 0, uses_anonymous_args = 0
 4540              	.LVL370:
 4541 0000 2DE9F043 		push	{r4, r5, r6, r7, r8, r9, lr}
 4542              		.cfi_def_cfa_offset 28
 4543              		.cfi_offset 4, -28
 4544              		.cfi_offset 5, -24
 4545              		.cfi_offset 6, -20
 4546              		.cfi_offset 7, -16
 4547              		.cfi_offset 8, -12
 4548              		.cfi_offset 9, -8
 4549              		.cfi_offset 14, -4
 4550 0004 BDB0     		sub	sp, sp, #244
 4551              		.cfi_def_cfa_offset 272
 4552              	.LVL371:
ARM GAS  C:\Users\jo\AppData\Local\Temp\ccDsJqTW.s 			page 81


 4553              		.loc 1 353 0
 4554 0006 0746     		mov	r7, r0
 4555 0008 0D46     		mov	r5, r1
 4556 000a 1646     		mov	r6, r2
 4557 000c 1C46     		mov	r4, r3
 4558              	.LBB84:
 4559              	.LBB85:
 4560              		.loc 1 85 0
 4561 000e 01A8     		add	r0, sp, #4
 4562              	.LVL372:
 4563 0010 0021     		movs	r1, #0
 4564              	.LVL373:
 4565 0012 EC22     		movs	r2, #236
 4566              	.LVL374:
 4567 0014 FFF7FEFF 		bl	memset
 4568              	.LVL375:
 4569              	.LBE85:
 4570              	.LBE84:
 4571              	.LBB86:
 4572              	.LBB87:
 4573              		.loc 1 104 0
 4574 0018 3CBB     		cbnz	r4, .L63
 4575              		.loc 1 107 0
 4576 001a DFF89490 		ldr	r9, .L74+32
 4577              		.loc 1 108 0
 4578 001e DFF89480 		ldr	r8, .L74+36
 4579              		.loc 1 109 0
 4580 0022 DFF894C0 		ldr	ip, .L74+40
 4581              		.loc 1 110 0
 4582 0026 DFF894E0 		ldr	lr, .L74+44
 4583              		.loc 1 111 0
 4584 002a 1948     		ldr	r0, .L74
 4585              		.loc 1 112 0
 4586 002c 1949     		ldr	r1, .L74+4
 4587              		.loc 1 113 0
 4588 002e 1A4A     		ldr	r2, .L74+8
 4589              		.loc 1 114 0
 4590 0030 1A4B     		ldr	r3, .L74+12
 4591              	.L72:
 4592              		.loc 1 119 0
 4593 0032 CDF80C90 		str	r9, [sp, #12]
 4594              		.loc 1 120 0
 4595 0036 CDF81080 		str	r8, [sp, #16]
 4596              		.loc 1 121 0
 4597 003a CDF814C0 		str	ip, [sp, #20]
 4598              		.loc 1 122 0
 4599 003e CDF818E0 		str	lr, [sp, #24]
 4600              		.loc 1 123 0
 4601 0042 0790     		str	r0, [sp, #28]
 4602              		.loc 1 124 0
 4603 0044 0891     		str	r1, [sp, #32]
 4604              		.loc 1 125 0
 4605 0046 0992     		str	r2, [sp, #36]
 4606              		.loc 1 126 0
 4607 0048 0A93     		str	r3, [sp, #40]
 4608              		.loc 1 129 0
 4609 004a 3B94     		str	r4, [sp, #236]
ARM GAS  C:\Users\jo\AppData\Local\Temp\ccDsJqTW.s 			page 82


 4610              	.LVL376:
 4611              	.LBE87:
 4612              	.LBE86:
 4613              	.LBB89:
 4614              	.LBB90:
 4615              		.loc 1 272 0
 4616 004c D5B9     		cbnz	r5, .L73
 4617              	.L65:
 4618              	.LBE90:
 4619              	.LBE89:
 4620              		.loc 1 359 0
 4621 004e 3146     		mov	r1, r6
 4622 0050 01A8     		add	r0, sp, #4
 4623              	.LVL377:
 4624 0052 FFF7FEFF 		bl	sha256_finish
 4625              	.LVL378:
 4626 0056 01AB     		add	r3, sp, #4
 4627              	.LVL379:
 4628              	.LBB92:
 4629              	.LBB93:
 4630              	.LBB94:
 4631              		.loc 1 55 0
 4632 0058 0022     		movs	r2, #0
 4633              	.LVL380:
 4634              	.L66:
 4635 005a 1A70     		strb	r2, [r3]
 4636              	.LVL381:
 4637 005c 3CA9     		add	r1, sp, #240
 4638 005e 0133     		adds	r3, r3, #1
 4639              	.LVL382:
 4640 0060 8B42     		cmp	r3, r1
 4641 0062 FAD1     		bne	.L66
 4642              	.LBE94:
 4643              	.LBE93:
 4644              	.LBE92:
 4645              		.loc 1 361 0
 4646 0064 3DB0     		add	sp, sp, #244
 4647              		.cfi_remember_state
 4648              		.cfi_def_cfa_offset 28
 4649              		@ sp needed
 4650 0066 BDE8F083 		pop	{r4, r5, r6, r7, r8, r9, pc}
 4651              	.LVL383:
 4652              	.L63:
 4653              		.cfi_restore_state
 4654              	.LBB95:
 4655              	.LBB88:
 4656              		.loc 1 119 0
 4657 006a DFF85490 		ldr	r9, .L74+48
 4658              		.loc 1 120 0
 4659 006e DFF85480 		ldr	r8, .L74+52
 4660              		.loc 1 121 0
 4661 0072 DFF854C0 		ldr	ip, .L74+56
 4662              		.loc 1 122 0
 4663 0076 DFF854E0 		ldr	lr, .L74+60
 4664              		.loc 1 123 0
 4665 007a 0948     		ldr	r0, .L74+16
 4666              		.loc 1 124 0
ARM GAS  C:\Users\jo\AppData\Local\Temp\ccDsJqTW.s 			page 83


 4667 007c 0949     		ldr	r1, .L74+20
 4668              		.loc 1 125 0
 4669 007e 0A4A     		ldr	r2, .L74+24
 4670              		.loc 1 126 0
 4671 0080 0A4B     		ldr	r3, .L74+28
 4672 0082 D6E7     		b	.L72
 4673              	.LVL384:
 4674              	.L73:
 4675              	.LBE88:
 4676              	.LBE95:
 4677              	.LBB96:
 4678              	.LBB91:
 4679 0084 3946     		mov	r1, r7
 4680 0086 2A46     		mov	r2, r5
 4681 0088 01A8     		add	r0, sp, #4
 4682              	.LVL385:
 4683 008a FFF7FEFF 		bl	sha256_update.part.0
 4684              	.LVL386:
 4685 008e DEE7     		b	.L65
 4686              	.L75:
 4687              		.align	2
 4688              	.L74:
 4689 0090 7F520E51 		.word	1359893119
 4690 0094 8C68059B 		.word	-1694144372
 4691 0098 ABD9831F 		.word	528734635
 4692 009c 19CDE05B 		.word	1541459225
 4693 00a0 310BC0FF 		.word	-4191439
 4694 00a4 11155868 		.word	1750603025
 4695 00a8 A78FF964 		.word	1694076839
 4696 00ac A44FFABE 		.word	-1090891868
 4697 00b0 67E6096A 		.word	1779033703
 4698 00b4 85AE67BB 		.word	-1150833019
 4699 00b8 72F36E3C 		.word	1013904242
 4700 00bc 3AF54FA5 		.word	-1521486534
 4701 00c0 D89E05C1 		.word	-1056596264
 4702 00c4 07D57C36 		.word	914150663
 4703 00c8 17DD7030 		.word	812702999
 4704 00cc 39590EF7 		.word	-150054599
 4705              	.LBE91:
 4706              	.LBE96:
 4707              		.cfi_endproc
 4708              	.LFE7:
 4709              		.size	sha256, .-sha256
 4710              		.section	.text.sha256_file,"ax",%progbits
 4711              		.align	2
 4712              		.p2align 4,,15
 4713              		.global	sha256_file
 4714              		.thumb
 4715              		.thumb_func
 4716              		.type	sha256_file, %function
 4717              	sha256_file:
 4718              	.LFB8:
 4719              		.loc 1 368 0
 4720              		.cfi_startproc
 4721              		@ args = 0, pretend = 0, frame = 1264
 4722              		@ frame_needed = 0, uses_anonymous_args = 0
 4723              	.LVL387:
ARM GAS  C:\Users\jo\AppData\Local\Temp\ccDsJqTW.s 			page 84


 4724 0000 2DE9F041 		push	{r4, r5, r6, r7, r8, lr}
 4725              		.cfi_def_cfa_offset 24
 4726              		.cfi_offset 4, -24
 4727              		.cfi_offset 5, -20
 4728              		.cfi_offset 6, -16
 4729              		.cfi_offset 7, -12
 4730              		.cfi_offset 8, -8
 4731              		.cfi_offset 14, -4
 4732 0004 0F46     		mov	r7, r1
 4733 0006 ADF59E6D 		sub	sp, sp, #1264
 4734              		.cfi_def_cfa_offset 1288
 4735              		.loc 1 374 0
 4736 000a 2F49     		ldr	r1, .L91
 4737              	.LVL388:
 4738              		.loc 1 368 0
 4739 000c 1446     		mov	r4, r2
 4740              		.loc 1 374 0
 4741 000e FFF7FEFF 		bl	fopen
 4742              	.LVL389:
 4743 0012 0646     		mov	r6, r0
 4744 0014 0028     		cmp	r0, #0
 4745 0016 54D0     		beq	.L84
 4746              	.LVL390:
 4747              	.LBB97:
 4748              	.LBB98:
 4749              		.loc 1 85 0
 4750 0018 01A8     		add	r0, sp, #4
 4751              	.LVL391:
 4752 001a 0021     		movs	r1, #0
 4753 001c EC22     		movs	r2, #236
 4754 001e FFF7FEFF 		bl	memset
 4755              	.LVL392:
 4756              	.LBE98:
 4757              	.LBE97:
 4758              	.LBB99:
 4759              	.LBB100:
 4760              		.loc 1 104 0
 4761 0022 34B3     		cbz	r4, .L88
 4762              		.loc 1 119 0
 4763 0024 DFF8CC80 		ldr	r8, .L91+44
 4764              		.loc 1 120 0
 4765 0028 DFF8CCC0 		ldr	ip, .L91+48
 4766              		.loc 1 121 0
 4767 002c DFF8CCE0 		ldr	lr, .L91+52
 4768              		.loc 1 122 0
 4769 0030 264D     		ldr	r5, .L91+4
 4770              		.loc 1 123 0
 4771 0032 2748     		ldr	r0, .L91+8
 4772              		.loc 1 124 0
 4773 0034 2749     		ldr	r1, .L91+12
 4774              		.loc 1 125 0
 4775 0036 284A     		ldr	r2, .L91+16
 4776              		.loc 1 126 0
 4777 0038 284B     		ldr	r3, .L91+20
 4778              	.L87:
 4779              		.loc 1 122 0
 4780 003a 0695     		str	r5, [sp, #24]
ARM GAS  C:\Users\jo\AppData\Local\Temp\ccDsJqTW.s 			page 85


 4781              		.loc 1 119 0
 4782 003c CDF80C80 		str	r8, [sp, #12]
 4783              		.loc 1 120 0
 4784 0040 CDF810C0 		str	ip, [sp, #16]
 4785              		.loc 1 121 0
 4786 0044 CDF814E0 		str	lr, [sp, #20]
 4787              		.loc 1 123 0
 4788 0048 0790     		str	r0, [sp, #28]
 4789              		.loc 1 124 0
 4790 004a 0891     		str	r1, [sp, #32]
 4791              		.loc 1 125 0
 4792 004c 0992     		str	r2, [sp, #36]
 4793              		.loc 1 126 0
 4794 004e 0A93     		str	r3, [sp, #40]
 4795              		.loc 1 129 0
 4796 0050 3B94     		str	r4, [sp, #236]
 4797 0052 3CAD     		add	r5, sp, #240
 4798              	.LVL393:
 4799              	.L80:
 4800              	.LBE100:
 4801              	.LBE99:
 4802              		.loc 1 380 0
 4803 0054 0121     		movs	r1, #1
 4804 0056 4FF48062 		mov	r2, #1024
 4805 005a 2846     		mov	r0, r5
 4806 005c 3346     		mov	r3, r6
 4807 005e FFF7FEFF 		bl	fread
 4808              	.LVL394:
 4809              	.LBB102:
 4810              	.LBB103:
 4811 0062 2946     		mov	r1, r5
 4812              	.LBE103:
 4813              	.LBE102:
 4814 0064 0446     		mov	r4, r0
 4815              	.LVL395:
 4816              	.LBB106:
 4817              	.LBB104:
 4818 0066 0246     		mov	r2, r0
 4819              	.LBE104:
 4820              	.LBE106:
 4821 0068 78B1     		cbz	r0, .L89
 4822              	.LVL396:
 4823              	.LBB107:
 4824              	.LBB105:
 4825 006a 01A8     		add	r0, sp, #4
 4826              	.LVL397:
 4827 006c FFF7FEFF 		bl	sha256_update.part.0
 4828              	.LVL398:
 4829 0070 F0E7     		b	.L80
 4830              	.LVL399:
 4831              	.L88:
 4832              	.LBE105:
 4833              	.LBE107:
 4834              	.LBB108:
 4835              	.LBB101:
 4836              		.loc 1 107 0
 4837 0072 DFF88C80 		ldr	r8, .L91+56
ARM GAS  C:\Users\jo\AppData\Local\Temp\ccDsJqTW.s 			page 86


 4838              		.loc 1 108 0
 4839 0076 DFF88CC0 		ldr	ip, .L91+60
 4840              		.loc 1 109 0
 4841 007a DFF88CE0 		ldr	lr, .L91+64
 4842              		.loc 1 110 0
 4843 007e 184D     		ldr	r5, .L91+24
 4844              		.loc 1 111 0
 4845 0080 1848     		ldr	r0, .L91+28
 4846              		.loc 1 112 0
 4847 0082 1949     		ldr	r1, .L91+32
 4848              		.loc 1 113 0
 4849 0084 194A     		ldr	r2, .L91+36
 4850              		.loc 1 114 0
 4851 0086 1A4B     		ldr	r3, .L91+40
 4852 0088 D7E7     		b	.L87
 4853              	.LVL400:
 4854              	.L89:
 4855              	.LBE101:
 4856              	.LBE108:
 4857              		.loc 1 383 0
 4858 008a 01A8     		add	r0, sp, #4
 4859              	.LVL401:
 4860 008c 3946     		mov	r1, r7
 4861              	.LVL402:
 4862 008e FFF7FEFF 		bl	sha256_finish
 4863              	.LVL403:
 4864 0092 01AB     		add	r3, sp, #4
 4865              	.LVL404:
 4866              	.LBB109:
 4867              	.LBB110:
 4868              	.LBB111:
 4869              		.loc 1 55 0
 4870 0094 2046     		mov	r0, r4
 4871              	.LVL405:
 4872              	.L82:
 4873 0096 1870     		strb	r0, [r3]
 4874              	.LVL406:
 4875 0098 0133     		adds	r3, r3, #1
 4876              	.LVL407:
 4877 009a AB42     		cmp	r3, r5
 4878 009c FBD1     		bne	.L82
 4879              	.LBE111:
 4880              	.LBE110:
 4881              	.LBE109:
 4882              		.loc 1 386 0
 4883 009e B489     		ldrh	r4, [r6, #12]
 4884 00a0 04F04004 		and	r4, r4, #64
 4885 00a4 A4B2     		uxth	r4, r4
 4886              		.loc 1 388 0
 4887 00a6 3046     		mov	r0, r6
 4888              	.LVL408:
 4889              		.loc 1 386 0
 4890 00a8 34B9     		cbnz	r4, .L90
 4891              	.LVL409:
 4892              		.loc 1 392 0
 4893 00aa FFF7FEFF 		bl	fclose
 4894              	.LVL410:
ARM GAS  C:\Users\jo\AppData\Local\Temp\ccDsJqTW.s 			page 87


 4895              		.loc 1 393 0
 4896 00ae 2046     		mov	r0, r4
 4897              	.LVL411:
 4898              	.L77:
 4899              		.loc 1 394 0
 4900 00b0 0DF59E6D 		add	sp, sp, #1264
 4901              		.cfi_remember_state
 4902              		.cfi_def_cfa_offset 24
 4903              		@ sp needed
 4904 00b4 BDE8F081 		pop	{r4, r5, r6, r7, r8, pc}
 4905              	.LVL412:
 4906              	.L90:
 4907              		.cfi_restore_state
 4908              		.loc 1 388 0
 4909 00b8 FFF7FEFF 		bl	fclose
 4910              	.LVL413:
 4911              		.loc 1 389 0
 4912 00bc 6FF07700 		mvn	r0, #119
 4913 00c0 F6E7     		b	.L77
 4914              	.LVL414:
 4915              	.L84:
 4916              		.loc 1 375 0
 4917 00c2 6FF07700 		mvn	r0, #119
 4918              	.LVL415:
 4919 00c6 F3E7     		b	.L77
 4920              	.L92:
 4921              		.align	2
 4922              	.L91:
 4923 00c8 00000000 		.word	.LC0
 4924 00cc 39590EF7 		.word	-150054599
 4925 00d0 310BC0FF 		.word	-4191439
 4926 00d4 11155868 		.word	1750603025
 4927 00d8 A78FF964 		.word	1694076839
 4928 00dc A44FFABE 		.word	-1090891868
 4929 00e0 3AF54FA5 		.word	-1521486534
 4930 00e4 7F520E51 		.word	1359893119
 4931 00e8 8C68059B 		.word	-1694144372
 4932 00ec ABD9831F 		.word	528734635
 4933 00f0 19CDE05B 		.word	1541459225
 4934 00f4 D89E05C1 		.word	-1056596264
 4935 00f8 07D57C36 		.word	914150663
 4936 00fc 17DD7030 		.word	812702999
 4937 0100 67E6096A 		.word	1779033703
 4938 0104 85AE67BB 		.word	-1150833019
 4939 0108 72F36E3C 		.word	1013904242
 4940              		.cfi_endproc
 4941              	.LFE8:
 4942              		.size	sha256_file, .-sha256_file
 4943 010c AFF30080 		.section	.text.sha256_hmac_starts,"ax",%progbits
 4944              		.align	2
 4945              		.p2align 4,,15
 4946              		.global	sha256_hmac_starts
 4947              		.thumb
 4948              		.thumb_func
 4949              		.type	sha256_hmac_starts, %function
 4950              	sha256_hmac_starts:
 4951              	.LFB9:
ARM GAS  C:\Users\jo\AppData\Local\Temp\ccDsJqTW.s 			page 88


 4952              		.loc 1 402 0
 4953              		.cfi_startproc
 4954              		@ args = 0, pretend = 0, frame = 32
 4955              		@ frame_needed = 0, uses_anonymous_args = 0
 4956              	.LVL416:
 4957 0000 2DE9F047 		push	{r4, r5, r6, r7, r8, r9, r10, lr}
 4958              		.cfi_def_cfa_offset 32
 4959              		.cfi_offset 4, -32
 4960              		.cfi_offset 5, -28
 4961              		.cfi_offset 6, -24
 4962              		.cfi_offset 7, -20
 4963              		.cfi_offset 8, -16
 4964              		.cfi_offset 9, -12
 4965              		.cfi_offset 10, -8
 4966              		.cfi_offset 14, -4
 4967              		.loc 1 406 0
 4968 0004 402A     		cmp	r2, #64
 4969              		.loc 1 402 0
 4970 0006 88B0     		sub	sp, sp, #32
 4971              		.cfi_def_cfa_offset 64
 4972              		.loc 1 402 0
 4973 0008 1546     		mov	r5, r2
 4974 000a 0646     		mov	r6, r0
 4975 000c 8A46     		mov	r10, r1
 4976 000e 1F46     		mov	r7, r3
 4977              		.loc 1 406 0
 4978 0010 5DD8     		bhi	.L111
 4979              		.loc 1 413 0
 4980 0012 00F16808 		add	r8, r0, #104
 4981 0016 3621     		movs	r1, #54
 4982              	.LVL417:
 4983 0018 4022     		movs	r2, #64
 4984              	.LVL418:
 4985 001a 4046     		mov	r0, r8
 4986              	.LVL419:
 4987              		.loc 1 414 0
 4988 001c 06F1A809 		add	r9, r6, #168
 4989              		.loc 1 413 0
 4990 0020 FFF7FEFF 		bl	memset
 4991              	.LVL420:
 4992              		.loc 1 414 0
 4993 0024 4846     		mov	r0, r9
 4994 0026 5C21     		movs	r1, #92
 4995 0028 4022     		movs	r2, #64
 4996 002a FFF7FEFF 		bl	memset
 4997              	.LVL421:
 4998 002e 6C46     		mov	r4, sp
 4999              		.loc 1 416 0
 5000 0030 BDB1     		cbz	r5, .L97
 5001              	.L102:
 5002 0032 06F1670E 		add	lr, r6, #103
 5003 0036 5146     		mov	r1, r10
 5004 0038 4846     		mov	r0, r9
 5005              		.loc 1 414 0 discriminator 3
 5006 003a F446     		mov	ip, lr
 5007 003c 0022     		movs	r2, #0
 5008              	.LVL422:
ARM GAS  C:\Users\jo\AppData\Local\Temp\ccDsJqTW.s 			page 89


 5009              	.L98:
 5010              		.loc 1 418 0 discriminator 3
 5011 003e 91F80090 		ldrb	r9, [r1]	@ zero_extendqisi2
 5012 0042 1CF8013F 		ldrb	r3, [ip, #1]!	@ zero_extendqisi2
 5013 0046 89EA0303 		eor	r3, r9, r3
 5014 004a 0EF8013F 		strb	r3, [lr, #1]!
 5015              		.loc 1 419 0 discriminator 3
 5016 004e 11F8019B 		ldrb	r9, [r1], #1	@ zero_extendqisi2
 5017 0052 0378     		ldrb	r3, [r0]	@ zero_extendqisi2
 5018              		.loc 1 416 0 discriminator 3
 5019 0054 0132     		adds	r2, r2, #1
 5020              	.LVL423:
 5021              		.loc 1 419 0 discriminator 3
 5022 0056 89EA0303 		eor	r3, r9, r3
 5023              		.loc 1 416 0 discriminator 3
 5024 005a AA42     		cmp	r2, r5
 5025              		.loc 1 419 0 discriminator 3
 5026 005c 00F8013B 		strb	r3, [r0], #1
 5027              		.loc 1 416 0 discriminator 3
 5028 0060 EDD3     		bcc	.L98
 5029              	.LVL424:
 5030              	.L97:
 5031              	.LBB112:
 5032              	.LBB113:
 5033              		.loc 1 101 0
 5034 0062 0023     		movs	r3, #0
 5035 0064 3360     		str	r3, [r6]
 5036              		.loc 1 102 0
 5037 0066 7360     		str	r3, [r6, #4]
 5038              		.loc 1 104 0
 5039 0068 2FBB     		cbnz	r7, .L99
 5040              		.loc 1 107 0
 5041 006a DFF8C490 		ldr	r9, .L112+40
 5042              		.loc 1 108 0
 5043 006e DFF8C4C0 		ldr	ip, .L112+44
 5044              		.loc 1 109 0
 5045 0072 DFF8C4E0 		ldr	lr, .L112+48
 5046              		.loc 1 110 0
 5047 0076 244D     		ldr	r5, .L112
 5048              	.LVL425:
 5049              		.loc 1 111 0
 5050 0078 2448     		ldr	r0, .L112+4
 5051              		.loc 1 112 0
 5052 007a 2549     		ldr	r1, .L112+8
 5053              		.loc 1 113 0
 5054 007c 254A     		ldr	r2, .L112+12
 5055              		.loc 1 114 0
 5056 007e 264B     		ldr	r3, .L112+16
 5057              	.L110:
 5058              		.loc 1 123 0
 5059 0080 B061     		str	r0, [r6, #24]
 5060              		.loc 1 124 0
 5061 0082 F161     		str	r1, [r6, #28]
 5062              		.loc 1 125 0
 5063 0084 3262     		str	r2, [r6, #32]
 5064              		.loc 1 126 0
 5065 0086 7362     		str	r3, [r6, #36]
ARM GAS  C:\Users\jo\AppData\Local\Temp\ccDsJqTW.s 			page 90


 5066              		.loc 1 119 0
 5067 0088 C6F80890 		str	r9, [r6, #8]
 5068              		.loc 1 120 0
 5069 008c C6F80CC0 		str	ip, [r6, #12]
 5070              		.loc 1 121 0
 5071 0090 C6F810E0 		str	lr, [r6, #16]
 5072              		.loc 1 122 0
 5073 0094 7561     		str	r5, [r6, #20]
 5074              		.loc 1 129 0
 5075 0096 C6F8E870 		str	r7, [r6, #232]
 5076              	.LVL426:
 5077              	.LBE113:
 5078              	.LBE112:
 5079              	.LBB115:
 5080              	.LBB116:
 5081 009a 3046     		mov	r0, r6
 5082 009c 4146     		mov	r1, r8
 5083 009e 4022     		movs	r2, #64
 5084 00a0 FFF7FEFF 		bl	sha256_update.part.0
 5085              	.LVL427:
 5086              	.LBE116:
 5087              	.LBE115:
 5088              	.LBB117:
 5089              	.LBB118:
 5090              		.loc 1 55 0
 5091 00a4 0023     		movs	r3, #0
 5092              	.LVL428:
 5093              	.L101:
 5094 00a6 2370     		strb	r3, [r4]
 5095              	.LVL429:
 5096 00a8 08AA     		add	r2, sp, #32
 5097 00aa 0134     		adds	r4, r4, #1
 5098              	.LVL430:
 5099 00ac 9442     		cmp	r4, r2
 5100 00ae FAD1     		bne	.L101
 5101              	.LBE118:
 5102              	.LBE117:
 5103              		.loc 1 426 0
 5104 00b0 08B0     		add	sp, sp, #32
 5105              		.cfi_remember_state
 5106              		.cfi_def_cfa_offset 32
 5107              		@ sp needed
 5108 00b2 BDE8F087 		pop	{r4, r5, r6, r7, r8, r9, r10, pc}
 5109              	.LVL431:
 5110              	.L99:
 5111              		.cfi_restore_state
 5112              	.LBB119:
 5113              	.LBB114:
 5114              		.loc 1 119 0
 5115 00b6 DFF88490 		ldr	r9, .L112+52
 5116              		.loc 1 120 0
 5117 00ba DFF884C0 		ldr	ip, .L112+56
 5118              		.loc 1 121 0
 5119 00be DFF884E0 		ldr	lr, .L112+60
 5120              		.loc 1 122 0
 5121 00c2 164D     		ldr	r5, .L112+20
 5122              	.LVL432:
ARM GAS  C:\Users\jo\AppData\Local\Temp\ccDsJqTW.s 			page 91


 5123              		.loc 1 123 0
 5124 00c4 1648     		ldr	r0, .L112+24
 5125              		.loc 1 124 0
 5126 00c6 1749     		ldr	r1, .L112+28
 5127              		.loc 1 125 0
 5128 00c8 174A     		ldr	r2, .L112+32
 5129              		.loc 1 126 0
 5130 00ca 184B     		ldr	r3, .L112+36
 5131 00cc D8E7     		b	.L110
 5132              	.LVL433:
 5133              	.L111:
 5134              	.LBE114:
 5135              	.LBE119:
 5136              		.loc 1 408 0
 5137 00ce 0846     		mov	r0, r1
 5138              	.LVL434:
 5139              		.loc 1 413 0
 5140 00d0 06F16808 		add	r8, r6, #104
 5141              		.loc 1 408 0
 5142 00d4 1146     		mov	r1, r2
 5143              	.LVL435:
 5144 00d6 6A46     		mov	r2, sp
 5145              	.LVL436:
 5146 00d8 FFF7FEFF 		bl	sha256
 5147              	.LVL437:
 5148              		.loc 1 414 0
 5149 00dc 06F1A809 		add	r9, r6, #168
 5150              		.loc 1 409 0
 5151 00e0 002F     		cmp	r7, #0
 5152              		.loc 1 413 0
 5153 00e2 4FF03601 		mov	r1, #54
 5154 00e6 4FF04002 		mov	r2, #64
 5155 00ea 4046     		mov	r0, r8
 5156              		.loc 1 409 0
 5157 00ec 14BF     		ite	ne
 5158 00ee 1C25     		movne	r5, #28
 5159              	.LVL438:
 5160 00f0 2025     		moveq	r5, #32
 5161              	.LVL439:
 5162              		.loc 1 413 0
 5163 00f2 FFF7FEFF 		bl	memset
 5164              	.LVL440:
 5165              		.loc 1 414 0
 5166 00f6 4846     		mov	r0, r9
 5167 00f8 5C21     		movs	r1, #92
 5168 00fa 4022     		movs	r2, #64
 5169              		.loc 1 408 0
 5170 00fc 6C46     		mov	r4, sp
 5171              		.loc 1 414 0
 5172 00fe FFF7FEFF 		bl	memset
 5173              	.LVL441:
 5174 0102 EA46     		mov	r10, sp
 5175 0104 95E7     		b	.L102
 5176              	.L113:
 5177 0106 00BF     		.align	2
 5178              	.L112:
 5179 0108 3AF54FA5 		.word	-1521486534
ARM GAS  C:\Users\jo\AppData\Local\Temp\ccDsJqTW.s 			page 92


 5180 010c 7F520E51 		.word	1359893119
 5181 0110 8C68059B 		.word	-1694144372
 5182 0114 ABD9831F 		.word	528734635
 5183 0118 19CDE05B 		.word	1541459225
 5184 011c 39590EF7 		.word	-150054599
 5185 0120 310BC0FF 		.word	-4191439
 5186 0124 11155868 		.word	1750603025
 5187 0128 A78FF964 		.word	1694076839
 5188 012c A44FFABE 		.word	-1090891868
 5189 0130 67E6096A 		.word	1779033703
 5190 0134 85AE67BB 		.word	-1150833019
 5191 0138 72F36E3C 		.word	1013904242
 5192 013c D89E05C1 		.word	-1056596264
 5193 0140 07D57C36 		.word	914150663
 5194 0144 17DD7030 		.word	812702999
 5195              		.cfi_endproc
 5196              	.LFE9:
 5197              		.size	sha256_hmac_starts, .-sha256_hmac_starts
 5198 0148 AFF30080 		.section	.text.sha256_hmac_update,"ax",%progbits
 5198      AFF30080 
 5199              		.align	2
 5200              		.p2align 4,,15
 5201              		.global	sha256_hmac_update
 5202              		.thumb
 5203              		.thumb_func
 5204              		.type	sha256_hmac_update, %function
 5205              	sha256_hmac_update:
 5206              	.LFB10:
 5207              		.loc 1 433 0
 5208              		.cfi_startproc
 5209              		@ args = 0, pretend = 0, frame = 0
 5210              		@ frame_needed = 0, uses_anonymous_args = 0
 5211              		@ link register save eliminated.
 5212              	.LVL442:
 5213              	.LBB120:
 5214              	.LBB121:
 5215              		.loc 1 272 0
 5216 0000 02B9     		cbnz	r2, .L116
 5217 0002 7047     		bx	lr
 5218              	.L116:
 5219 0004 FFF7FEBF 		b	sha256_update.part.0
 5220              	.LVL443:
 5221              	.LBE121:
 5222              	.LBE120:
 5223              		.cfi_endproc
 5224              	.LFE10:
 5225              		.size	sha256_hmac_update, .-sha256_hmac_update
 5226 0008 AFF30080 		.section	.text.sha256_hmac_finish,"ax",%progbits
 5226      AFF30080 
 5227              		.align	2
 5228              		.p2align 4,,15
 5229              		.global	sha256_hmac_finish
 5230              		.thumb
 5231              		.thumb_func
 5232              		.type	sha256_hmac_finish, %function
 5233              	sha256_hmac_finish:
 5234              	.LFB11:
ARM GAS  C:\Users\jo\AppData\Local\Temp\ccDsJqTW.s 			page 93


 5235              		.loc 1 441 0
 5236              		.cfi_startproc
 5237              		@ args = 0, pretend = 0, frame = 32
 5238              		@ frame_needed = 0, uses_anonymous_args = 0
 5239              	.LVL444:
 5240 0000 2DE9F047 		push	{r4, r5, r6, r7, r8, r9, r10, lr}
 5241              		.cfi_def_cfa_offset 32
 5242              		.cfi_offset 4, -32
 5243              		.cfi_offset 5, -28
 5244              		.cfi_offset 6, -24
 5245              		.cfi_offset 7, -20
 5246              		.cfi_offset 8, -16
 5247              		.cfi_offset 9, -12
 5248              		.cfi_offset 10, -8
 5249              		.cfi_offset 14, -4
 5250              		.loc 1 445 0
 5251 0004 D0F8E860 		ldr	r6, [r0, #232]
 5252              	.LVL445:
 5253              		.loc 1 441 0
 5254 0008 88B0     		sub	sp, sp, #32
 5255              		.cfi_def_cfa_offset 64
 5256              		.loc 1 441 0
 5257 000a 0546     		mov	r5, r0
 5258 000c 8846     		mov	r8, r1
 5259              		.loc 1 446 0
 5260 000e 002E     		cmp	r6, #0
 5261 0010 37D1     		bne	.L128
 5262              	.LVL446:
 5263              		.loc 1 448 0
 5264 0012 6946     		mov	r1, sp
 5265              	.LVL447:
 5266 0014 FFF7FEFF 		bl	sha256_finish
 5267              	.LVL448:
 5268              	.LBB122:
 5269              	.LBB123:
 5270              		.loc 1 110 0
 5271 0018 2A4F     		ldr	r7, .L129
 5272              		.loc 1 107 0
 5273 001a DFF8CC90 		ldr	r9, .L129+36
 5274              		.loc 1 108 0
 5275 001e DFF8CCC0 		ldr	ip, .L129+40
 5276              		.loc 1 109 0
 5277 0022 DFF8CCE0 		ldr	lr, .L129+44
 5278              		.loc 1 111 0
 5279 0026 2848     		ldr	r0, .L129+4
 5280              		.loc 1 112 0
 5281 0028 2849     		ldr	r1, .L129+8
 5282              		.loc 1 113 0
 5283 002a 294A     		ldr	r2, .L129+12
 5284              		.loc 1 114 0
 5285 002c 294B     		ldr	r3, .L129+16
 5286              		.loc 1 110 0
 5287 002e 6F61     		str	r7, [r5, #20]
 5288              	.LBE123:
 5289              	.LBE122:
 5290              		.loc 1 448 0
 5291 0030 6C46     		mov	r4, sp
ARM GAS  C:\Users\jo\AppData\Local\Temp\ccDsJqTW.s 			page 94


 5292              	.LBB128:
 5293              	.LBB124:
 5294              		.loc 1 101 0
 5295 0032 2E60     		str	r6, [r5]
 5296              		.loc 1 102 0
 5297 0034 6E60     		str	r6, [r5, #4]
 5298              		.loc 1 107 0
 5299 0036 C5F80890 		str	r9, [r5, #8]
 5300              		.loc 1 108 0
 5301 003a C5F80CC0 		str	ip, [r5, #12]
 5302              		.loc 1 109 0
 5303 003e C5F810E0 		str	lr, [r5, #16]
 5304              		.loc 1 111 0
 5305 0042 A861     		str	r0, [r5, #24]
 5306              		.loc 1 112 0
 5307 0044 E961     		str	r1, [r5, #28]
 5308              		.loc 1 113 0
 5309 0046 2A62     		str	r2, [r5, #32]
 5310              		.loc 1 114 0
 5311 0048 6B62     		str	r3, [r5, #36]
 5312 004a 2027     		movs	r7, #32
 5313              	.LVL449:
 5314              	.L121:
 5315              	.LBE124:
 5316              	.LBE128:
 5317              	.LBB129:
 5318              	.LBB130:
 5319 004c 2846     		mov	r0, r5
 5320 004e 05F1A801 		add	r1, r5, #168
 5321 0052 4022     		movs	r2, #64
 5322              	.LBE130:
 5323              	.LBE129:
 5324              	.LBB132:
 5325              	.LBB125:
 5326              		.loc 1 129 0
 5327 0054 C5F8E860 		str	r6, [r5, #232]
 5328              	.LVL450:
 5329              	.LBE125:
 5330              	.LBE132:
 5331              	.LBB133:
 5332              	.LBB131:
 5333 0058 FFF7FEFF 		bl	sha256_update.part.0
 5334              	.LVL451:
 5335              	.LBE131:
 5336              	.LBE133:
 5337              	.LBB134:
 5338              	.LBB135:
 5339 005c 2846     		mov	r0, r5
 5340 005e 2146     		mov	r1, r4
 5341 0060 3A46     		mov	r2, r7
 5342 0062 FFF7FEFF 		bl	sha256_update.part.0
 5343              	.LVL452:
 5344              	.LBE135:
 5345              	.LBE134:
 5346              		.loc 1 452 0
 5347 0066 4146     		mov	r1, r8
 5348 0068 2846     		mov	r0, r5
ARM GAS  C:\Users\jo\AppData\Local\Temp\ccDsJqTW.s 			page 95


 5349 006a FFF7FEFF 		bl	sha256_finish
 5350              	.LVL453:
 5351              	.LBB136:
 5352              	.LBB137:
 5353              		.loc 1 55 0
 5354 006e 2146     		mov	r1, r4
 5355 0070 0023     		movs	r3, #0
 5356              	.LVL454:
 5357              	.L120:
 5358 0072 0B70     		strb	r3, [r1]
 5359              	.LVL455:
 5360 0074 08AA     		add	r2, sp, #32
 5361 0076 0131     		adds	r1, r1, #1
 5362              	.LVL456:
 5363 0078 9142     		cmp	r1, r2
 5364 007a FAD1     		bne	.L120
 5365              	.LBE137:
 5366              	.LBE136:
 5367              		.loc 1 455 0
 5368 007c 08B0     		add	sp, sp, #32
 5369              		.cfi_remember_state
 5370              		.cfi_def_cfa_offset 32
 5371              	.LVL457:
 5372              		@ sp needed
 5373 007e BDE8F087 		pop	{r4, r5, r6, r7, r8, r9, r10, pc}
 5374              	.LVL458:
 5375              	.L128:
 5376              		.cfi_restore_state
 5377              		.loc 1 448 0
 5378 0082 6946     		mov	r1, sp
 5379              	.LVL459:
 5380 0084 FFF7FEFF 		bl	sha256_finish
 5381              	.LVL460:
 5382              	.LBB138:
 5383              	.LBB126:
 5384              		.loc 1 123 0
 5385 0088 134F     		ldr	r7, .L129+20
 5386              		.loc 1 119 0
 5387 008a DFF868A0 		ldr	r10, .L129+48
 5388              		.loc 1 120 0
 5389 008e DFF86890 		ldr	r9, .L129+52
 5390              		.loc 1 121 0
 5391 0092 DFF868C0 		ldr	ip, .L129+56
 5392              		.loc 1 122 0
 5393 0096 DFF868E0 		ldr	lr, .L129+60
 5394              		.loc 1 124 0
 5395 009a 1048     		ldr	r0, .L129+24
 5396              		.loc 1 125 0
 5397 009c 1049     		ldr	r1, .L129+28
 5398              		.loc 1 126 0
 5399 009e 114A     		ldr	r2, .L129+32
 5400              		.loc 1 123 0
 5401 00a0 AF61     		str	r7, [r5, #24]
 5402              		.loc 1 101 0
 5403 00a2 0023     		movs	r3, #0
 5404              	.LBE126:
 5405              	.LBE138:
ARM GAS  C:\Users\jo\AppData\Local\Temp\ccDsJqTW.s 			page 96


 5406              		.loc 1 448 0
 5407 00a4 6C46     		mov	r4, sp
 5408              	.LBB139:
 5409              	.LBB127:
 5410              		.loc 1 101 0
 5411 00a6 2B60     		str	r3, [r5]
 5412              		.loc 1 102 0
 5413 00a8 6B60     		str	r3, [r5, #4]
 5414              		.loc 1 119 0
 5415 00aa C5F808A0 		str	r10, [r5, #8]
 5416              		.loc 1 120 0
 5417 00ae C5F80C90 		str	r9, [r5, #12]
 5418              		.loc 1 121 0
 5419 00b2 C5F810C0 		str	ip, [r5, #16]
 5420              		.loc 1 122 0
 5421 00b6 C5F814E0 		str	lr, [r5, #20]
 5422              		.loc 1 124 0
 5423 00ba E861     		str	r0, [r5, #28]
 5424              		.loc 1 125 0
 5425 00bc 2962     		str	r1, [r5, #32]
 5426              		.loc 1 126 0
 5427 00be 6A62     		str	r2, [r5, #36]
 5428 00c0 1C27     		movs	r7, #28
 5429 00c2 C3E7     		b	.L121
 5430              	.L130:
 5431              		.align	2
 5432              	.L129:
 5433 00c4 3AF54FA5 		.word	-1521486534
 5434 00c8 7F520E51 		.word	1359893119
 5435 00cc 8C68059B 		.word	-1694144372
 5436 00d0 ABD9831F 		.word	528734635
 5437 00d4 19CDE05B 		.word	1541459225
 5438 00d8 310BC0FF 		.word	-4191439
 5439 00dc 11155868 		.word	1750603025
 5440 00e0 A78FF964 		.word	1694076839
 5441 00e4 A44FFABE 		.word	-1090891868
 5442 00e8 67E6096A 		.word	1779033703
 5443 00ec 85AE67BB 		.word	-1150833019
 5444 00f0 72F36E3C 		.word	1013904242
 5445 00f4 D89E05C1 		.word	-1056596264
 5446 00f8 07D57C36 		.word	914150663
 5447 00fc 17DD7030 		.word	812702999
 5448 0100 39590EF7 		.word	-150054599
 5449              	.LBE127:
 5450              	.LBE139:
 5451              		.cfi_endproc
 5452              	.LFE11:
 5453              		.size	sha256_hmac_finish, .-sha256_hmac_finish
 5454 0104 AFF30080 		.section	.text.sha256_hmac_reset,"ax",%progbits
 5454      AFF30080 
 5454      AFF30080 
 5455              		.align	2
 5456              		.p2align 4,,15
 5457              		.global	sha256_hmac_reset
 5458              		.thumb
 5459              		.thumb_func
 5460              		.type	sha256_hmac_reset, %function
ARM GAS  C:\Users\jo\AppData\Local\Temp\ccDsJqTW.s 			page 97


 5461              	sha256_hmac_reset:
 5462              	.LFB12:
 5463              		.loc 1 461 0
 5464              		.cfi_startproc
 5465              		@ args = 0, pretend = 0, frame = 0
 5466              		@ frame_needed = 0, uses_anonymous_args = 0
 5467              	.LVL461:
 5468              		.loc 1 462 0
 5469 0000 D0F8E830 		ldr	r3, [r0, #232]
 5470              	.LVL462:
 5471              	.LBB140:
 5472              	.LBB141:
 5473              		.loc 1 101 0
 5474 0004 0022     		movs	r2, #0
 5475              	.LBE141:
 5476              	.LBE140:
 5477              		.loc 1 461 0
 5478 0006 F0B5     		push	{r4, r5, r6, r7, lr}
 5479              		.cfi_def_cfa_offset 20
 5480              		.cfi_offset 4, -20
 5481              		.cfi_offset 5, -16
 5482              		.cfi_offset 6, -12
 5483              		.cfi_offset 7, -8
 5484              		.cfi_offset 14, -4
 5485              	.LBB144:
 5486              	.LBB142:
 5487              		.loc 1 101 0
 5488 0008 0260     		str	r2, [r0]
 5489              		.loc 1 102 0
 5490 000a 4260     		str	r2, [r0, #4]
 5491              		.loc 1 104 0
 5492 000c E3B1     		cbz	r3, .L136
 5493              		.loc 1 119 0
 5494 000e DFF880C0 		ldr	ip, .L137+48
 5495              		.loc 1 120 0
 5496 0012 DFF880E0 		ldr	lr, .L137+52
 5497              		.loc 1 121 0
 5498 0016 124F     		ldr	r7, .L137
 5499              		.loc 1 122 0
 5500 0018 124E     		ldr	r6, .L137+4
 5501              		.loc 1 123 0
 5502 001a 134D     		ldr	r5, .L137+8
 5503              		.loc 1 124 0
 5504 001c 134C     		ldr	r4, .L137+12
 5505              		.loc 1 125 0
 5506 001e 1449     		ldr	r1, .L137+16
 5507              		.loc 1 126 0
 5508 0020 144A     		ldr	r2, .L137+20
 5509              	.L135:
 5510              		.loc 1 120 0
 5511 0022 C0F80CE0 		str	lr, [r0, #12]
 5512              		.loc 1 121 0
 5513 0026 0761     		str	r7, [r0, #16]
 5514              		.loc 1 122 0
 5515 0028 4661     		str	r6, [r0, #20]
 5516              		.loc 1 123 0
 5517 002a 8561     		str	r5, [r0, #24]
ARM GAS  C:\Users\jo\AppData\Local\Temp\ccDsJqTW.s 			page 98


 5518              		.loc 1 124 0
 5519 002c C461     		str	r4, [r0, #28]
 5520              		.loc 1 125 0
 5521 002e 0162     		str	r1, [r0, #32]
 5522              		.loc 1 126 0
 5523 0030 4262     		str	r2, [r0, #36]
 5524              		.loc 1 119 0
 5525 0032 C0F808C0 		str	ip, [r0, #8]
 5526              		.loc 1 129 0
 5527 0036 C0F8E830 		str	r3, [r0, #232]
 5528              	.LVL463:
 5529              	.LBE142:
 5530              	.LBE144:
 5531              	.LBB145:
 5532              	.LBB146:
 5533 003a 00F16801 		add	r1, r0, #104
 5534              	.LVL464:
 5535 003e 4022     		movs	r2, #64
 5536              	.LBE146:
 5537              	.LBE145:
 5538              		.loc 1 464 0
 5539 0040 BDE8F040 		pop	{r4, r5, r6, r7, lr}
 5540              		.cfi_remember_state
 5541              		.cfi_restore 14
 5542              		.cfi_restore 7
 5543              		.cfi_restore 6
 5544              		.cfi_restore 5
 5545              		.cfi_restore 4
 5546              		.cfi_def_cfa_offset 0
 5547              	.LBB148:
 5548              	.LBB147:
 5549 0044 FFF7FEBF 		b	sha256_update.part.0
 5550              	.LVL465:
 5551              	.L136:
 5552              		.cfi_restore_state
 5553              	.LBE147:
 5554              	.LBE148:
 5555              	.LBB149:
 5556              	.LBB143:
 5557              		.loc 1 107 0
 5558 0048 DFF84CC0 		ldr	ip, .L137+56
 5559              		.loc 1 108 0
 5560 004c DFF84CE0 		ldr	lr, .L137+60
 5561              		.loc 1 109 0
 5562 0050 094F     		ldr	r7, .L137+24
 5563              		.loc 1 110 0
 5564 0052 0A4E     		ldr	r6, .L137+28
 5565              		.loc 1 111 0
 5566 0054 0A4D     		ldr	r5, .L137+32
 5567              		.loc 1 112 0
 5568 0056 0B4C     		ldr	r4, .L137+36
 5569              		.loc 1 113 0
 5570 0058 0B49     		ldr	r1, .L137+40
 5571              		.loc 1 114 0
 5572 005a 0C4A     		ldr	r2, .L137+44
 5573 005c E1E7     		b	.L135
 5574              	.L138:
ARM GAS  C:\Users\jo\AppData\Local\Temp\ccDsJqTW.s 			page 99


 5575 005e 00BF     		.align	2
 5576              	.L137:
 5577 0060 17DD7030 		.word	812702999
 5578 0064 39590EF7 		.word	-150054599
 5579 0068 310BC0FF 		.word	-4191439
 5580 006c 11155868 		.word	1750603025
 5581 0070 A78FF964 		.word	1694076839
 5582 0074 A44FFABE 		.word	-1090891868
 5583 0078 72F36E3C 		.word	1013904242
 5584 007c 3AF54FA5 		.word	-1521486534
 5585 0080 7F520E51 		.word	1359893119
 5586 0084 8C68059B 		.word	-1694144372
 5587 0088 ABD9831F 		.word	528734635
 5588 008c 19CDE05B 		.word	1541459225
 5589 0090 D89E05C1 		.word	-1056596264
 5590 0094 07D57C36 		.word	914150663
 5591 0098 67E6096A 		.word	1779033703
 5592 009c 85AE67BB 		.word	-1150833019
 5593              	.LBE143:
 5594              	.LBE149:
 5595              		.cfi_endproc
 5596              	.LFE12:
 5597              		.size	sha256_hmac_reset, .-sha256_hmac_reset
 5598              		.section	.text.sha256_hmac,"ax",%progbits
 5599              		.align	2
 5600              		.p2align 4,,15
 5601              		.global	sha256_hmac
 5602              		.thumb
 5603              		.thumb_func
 5604              		.type	sha256_hmac, %function
 5605              	sha256_hmac:
 5606              	.LFB13:
 5607              		.loc 1 472 0
 5608              		.cfi_startproc
 5609              		@ args = 8, pretend = 0, frame = 240
 5610              		@ frame_needed = 0, uses_anonymous_args = 0
 5611              	.LVL466:
 5612 0000 F0B5     		push	{r4, r5, r6, r7, lr}
 5613              		.cfi_def_cfa_offset 20
 5614              		.cfi_offset 4, -20
 5615              		.cfi_offset 5, -16
 5616              		.cfi_offset 6, -12
 5617              		.cfi_offset 7, -8
 5618              		.cfi_offset 14, -4
 5619 0002 BDB0     		sub	sp, sp, #244
 5620              		.cfi_def_cfa_offset 264
 5621              	.LVL467:
 5622              		.loc 1 472 0
 5623 0004 0646     		mov	r6, r0
 5624 0006 0D46     		mov	r5, r1
 5625 0008 1746     		mov	r7, r2
 5626              	.LBB150:
 5627              	.LBB151:
 5628              		.loc 1 85 0
 5629 000a 0021     		movs	r1, #0
 5630              	.LVL468:
 5631 000c EC22     		movs	r2, #236
ARM GAS  C:\Users\jo\AppData\Local\Temp\ccDsJqTW.s 			page 100


 5632              	.LVL469:
 5633 000e 01A8     		add	r0, sp, #4
 5634              	.LVL470:
 5635              	.LBE151:
 5636              	.LBE150:
 5637              		.loc 1 472 0
 5638 0010 1C46     		mov	r4, r3
 5639              	.LBB153:
 5640              	.LBB152:
 5641              		.loc 1 85 0
 5642 0012 FFF7FEFF 		bl	memset
 5643              	.LVL471:
 5644              	.LBE152:
 5645              	.LBE153:
 5646              		.loc 1 476 0
 5647 0016 01A8     		add	r0, sp, #4
 5648              	.LVL472:
 5649 0018 3146     		mov	r1, r6
 5650 001a 2A46     		mov	r2, r5
 5651 001c 439B     		ldr	r3, [sp, #268]
 5652 001e FFF7FEFF 		bl	sha256_hmac_starts
 5653              	.LVL473:
 5654              	.LBB154:
 5655              	.LBB155:
 5656              	.LBB156:
 5657              		.loc 1 272 0
 5658 0022 64B9     		cbnz	r4, .L147
 5659              	.L140:
 5660              	.LBE156:
 5661              	.LBE155:
 5662              	.LBE154:
 5663              		.loc 1 478 0
 5664 0024 01A8     		add	r0, sp, #4
 5665              	.LVL474:
 5666 0026 4299     		ldr	r1, [sp, #264]
 5667 0028 FFF7FEFF 		bl	sha256_hmac_finish
 5668              	.LVL475:
 5669 002c 01AB     		add	r3, sp, #4
 5670              	.LVL476:
 5671              	.LBB159:
 5672              	.LBB160:
 5673              	.LBB161:
 5674              		.loc 1 55 0
 5675 002e 0022     		movs	r2, #0
 5676              	.LVL477:
 5677              	.L141:
 5678 0030 1A70     		strb	r2, [r3]
 5679              	.LVL478:
 5680 0032 3CA9     		add	r1, sp, #240
 5681 0034 0133     		adds	r3, r3, #1
 5682              	.LVL479:
 5683 0036 8B42     		cmp	r3, r1
 5684 0038 FAD1     		bne	.L141
 5685              	.LBE161:
 5686              	.LBE160:
 5687              	.LBE159:
 5688              		.loc 1 480 0
ARM GAS  C:\Users\jo\AppData\Local\Temp\ccDsJqTW.s 			page 101


 5689 003a 3DB0     		add	sp, sp, #244
 5690              		.cfi_remember_state
 5691              		.cfi_def_cfa_offset 20
 5692              		@ sp needed
 5693 003c F0BD     		pop	{r4, r5, r6, r7, pc}
 5694              	.LVL480:
 5695              	.L147:
 5696              		.cfi_restore_state
 5697              	.LBB162:
 5698              	.LBB158:
 5699              	.LBB157:
 5700 003e 3946     		mov	r1, r7
 5701 0040 2246     		mov	r2, r4
 5702 0042 01A8     		add	r0, sp, #4
 5703              	.LVL481:
 5704 0044 FFF7FEFF 		bl	sha256_update.part.0
 5705              	.LVL482:
 5706 0048 ECE7     		b	.L140
 5707              	.LBE157:
 5708              	.LBE158:
 5709              	.LBE162:
 5710              		.cfi_endproc
 5711              	.LFE13:
 5712              		.size	sha256_hmac, .-sha256_hmac
 5713 004a 00BFAFF3 		.section	.text.sha256_self_test,"ax",%progbits
 5713      0080
 5714              		.align	2
 5715              		.p2align 4,,15
 5716              		.global	sha256_self_test
 5717              		.thumb
 5718              		.thumb_func
 5719              		.type	sha256_self_test, %function
 5720              	sha256_self_test:
 5721              	.LFB14:
 5722              		.loc 1 649 0
 5723              		.cfi_startproc
 5724              		@ args = 0, pretend = 0, frame = 1304
 5725              		@ frame_needed = 0, uses_anonymous_args = 0
 5726              	.LVL483:
 5727 0000 2DE9F04F 		push	{r4, r5, r6, r7, r8, r9, r10, fp, lr}
 5728              		.cfi_def_cfa_offset 36
 5729              		.cfi_offset 4, -36
 5730              		.cfi_offset 5, -32
 5731              		.cfi_offset 6, -28
 5732              		.cfi_offset 7, -24
 5733              		.cfi_offset 8, -20
 5734              		.cfi_offset 9, -16
 5735              		.cfi_offset 10, -12
 5736              		.cfi_offset 11, -8
 5737              		.cfi_offset 14, -4
 5738 0004 ADF21C5D 		subw	sp, sp, #1308
 5739              		.cfi_def_cfa_offset 1344
 5740              	.LVL484:
 5741              		.loc 1 649 0
 5742 0008 0646     		mov	r6, r0
 5743              	.LBB163:
 5744              	.LBB164:
ARM GAS  C:\Users\jo\AppData\Local\Temp\ccDsJqTW.s 			page 102


 5745              		.loc 1 85 0
 5746 000a 0021     		movs	r1, #0
 5747 000c 0BA8     		add	r0, sp, #44
 5748              	.LVL485:
 5749 000e EC22     		movs	r2, #236
 5750 0010 FFF7FEFF 		bl	memset
 5751              	.LVL486:
 5752 0014 954F     		ldr	r7, .L209
 5753              	.LBE164:
 5754              	.LBE163:
 5755              		.loc 1 659 0
 5756 0016 DFF8B092 		ldr	r9, .L209+92
 5757              	.LBB165:
 5758              	.LBB166:
 5759              		.loc 1 120 0
 5760 001a DFF8B0B2 		ldr	fp, .L209+96
 5761              	.LBE166:
 5762              	.LBE165:
 5763              		.loc 1 657 0
 5764 001e 0025     		movs	r5, #0
 5765 0020 46AC     		add	r4, sp, #280
 5766              	.LVL487:
 5767              	.L160:
 5768              		.loc 1 659 0
 5769 0022 89FB0538 		smull	r3, r8, r9, r5
 5770              		.loc 1 660 0
 5771 0026 022D     		cmp	r5, #2
 5772              		.loc 1 659 0
 5773 0028 A8EBE578 		sub	r8, r8, r5, asr #31
 5774 002c 08EB4808 		add	r8, r8, r8, lsl #1
 5775              		.loc 1 660 0
 5776 0030 CCBF     		ite	gt
 5777 0032 0023     		movgt	r3, #0
 5778 0034 0123     		movle	r3, #1
 5779              		.loc 1 659 0
 5780 0036 C8EB0508 		rsb	r8, r8, r5
 5781              	.LVL488:
 5782              		.loc 1 663 0
 5783 003a C3F1080A 		rsb	r10, r3, #8
 5784              		.loc 1 662 0
 5785 003e 002E     		cmp	r6, #0
 5786 0040 40F0E180 		bne	.L198
 5787              	.LVL489:
 5788              	.L150:
 5789              	.LBB171:
 5790              	.LBB167:
 5791              		.loc 1 101 0
 5792 0044 0022     		movs	r2, #0
 5793 0046 0B92     		str	r2, [sp, #44]
 5794              		.loc 1 102 0
 5795 0048 0C92     		str	r2, [sp, #48]
 5796              		.loc 1 104 0
 5797 004a 002B     		cmp	r3, #0
 5798 004c 40F0A380 		bne	.L151
 5799              		.loc 1 108 0
 5800 0050 8748     		ldr	r0, .L209+4
 5801              		.loc 1 107 0
ARM GAS  C:\Users\jo\AppData\Local\Temp\ccDsJqTW.s 			page 103


 5802 0052 8849     		ldr	r1, .L209+8
 5803              		.loc 1 109 0
 5804 0054 884A     		ldr	r2, .L209+12
 5805              		.loc 1 108 0
 5806 0056 0E90     		str	r0, [sp, #56]
 5807              		.loc 1 114 0
 5808 0058 A0F1BF40 		sub	r0, r0, #1602224128
 5809 005c A0F5DC20 		sub	r0, r0, #450560
 5810              		.loc 1 107 0
 5811 0060 0D91     		str	r1, [sp, #52]
 5812              		.loc 1 109 0
 5813 0062 0F92     		str	r2, [sp, #60]
 5814              		.loc 1 110 0
 5815 0064 8549     		ldr	r1, .L209+16
 5816              		.loc 1 111 0
 5817 0066 864A     		ldr	r2, .L209+20
 5818              		.loc 1 110 0
 5819 0068 1091     		str	r1, [sp, #64]
 5820              		.loc 1 114 0
 5821 006a A0F5B670 		sub	r0, r0, #364
 5822              		.loc 1 112 0
 5823 006e 8549     		ldr	r1, .L209+24
 5824              		.loc 1 111 0
 5825 0070 1192     		str	r2, [sp, #68]
 5826              	.LBE167:
 5827              	.LBE171:
 5828              		.loc 1 667 0
 5829 0072 B8F1020F 		cmp	r8, #2
 5830              	.LBB172:
 5831              	.LBB168:
 5832              		.loc 1 113 0
 5833 0076 844A     		ldr	r2, .L209+28
 5834              		.loc 1 114 0
 5835 0078 1490     		str	r0, [sp, #80]
 5836              		.loc 1 112 0
 5837 007a 1291     		str	r1, [sp, #72]
 5838              		.loc 1 113 0
 5839 007c 1392     		str	r2, [sp, #76]
 5840              		.loc 1 129 0
 5841 007e 4593     		str	r3, [sp, #276]
 5842              	.LBE168:
 5843              	.LBE172:
 5844              		.loc 1 667 0
 5845 0080 00F0A280 		beq	.L199
 5846              	.L153:
 5847              		.loc 1 676 0
 5848 0084 814B     		ldr	r3, .L209+32
 5849              	.LVL490:
 5850              		.loc 1 675 0
 5851 0086 53F82820 		ldr	r2, [r3, r8, lsl #2]
 5852              	.LVL491:
 5853              	.LBB173:
 5854              	.LBB174:
 5855              		.loc 1 272 0
 5856 008a 002A     		cmp	r2, #0
 5857 008c 40F0C980 		bne	.L200
 5858              	.LVL492:
ARM GAS  C:\Users\jo\AppData\Local\Temp\ccDsJqTW.s 			page 104


 5859              	.L155:
 5860              	.LBE174:
 5861              	.LBE173:
 5862              		.loc 1 678 0
 5863 0090 0BA8     		add	r0, sp, #44
 5864              	.LVL493:
 5865 0092 03A9     		add	r1, sp, #12
 5866 0094 FFF7FEFF 		bl	sha256_finish
 5867              	.LVL494:
 5868              		.loc 1 680 0
 5869 0098 03A8     		add	r0, sp, #12
 5870 009a 3946     		mov	r1, r7
 5871 009c 4FEA8A02 		lsl	r2, r10, #2
 5872 00a0 FFF7FEFF 		bl	memcmp
 5873              	.LVL495:
 5874 00a4 0028     		cmp	r0, #0
 5875 00a6 40F0C680 		bne	.L167
 5876              		.loc 1 689 0
 5877 00aa 002E     		cmp	r6, #0
 5878 00ac 40F0B580 		bne	.L201
 5879              	.L159:
 5880              		.loc 1 657 0 discriminator 2
 5881 00b0 0135     		adds	r5, r5, #1
 5882              	.LVL496:
 5883 00b2 062D     		cmp	r5, #6
 5884 00b4 07F12007 		add	r7, r7, #32
 5885 00b8 B3D1     		bne	.L160
 5886              		.loc 1 693 0
 5887 00ba 002E     		cmp	r6, #0
 5888 00bc 40F0C780 		bne	.L202
 5889              	.L161:
 5890              	.LVL497:
 5891 00c0 DFF80C82 		ldr	r8, .L209+100
 5892 00c4 DFF80CA2 		ldr	r10, .L209+104
 5893              		.loc 1 698 0 discriminator 1
 5894 00c8 DFF80C92 		ldr	r9, .L209+108
 5895              		.loc 1 669 0 discriminator 1
 5896 00cc 4FF0000B 		mov	fp, #0
 5897 00d0 2BE0     		b	.L169
 5898              	.LVL498:
 5899              	.L162:
 5900              		.loc 1 704 0
 5901 00d2 6B1F     		subs	r3, r5, #5
 5902 00d4 012B     		cmp	r3, #1
 5903 00d6 45D9     		bls	.L203
 5904              	.L163:
 5905              		.loc 1 711 0
 5906 00d8 6D4B     		ldr	r3, .L209+36
 5907              		.loc 1 710 0
 5908 00da 53F82520 		ldr	r2, [r3, r5, lsl #2]
 5909 00de 6D4B     		ldr	r3, .L209+40
 5910 00e0 1A21     		movs	r1, #26
 5911 00e2 01FB0531 		mla	r1, r1, r5, r3
 5912 00e6 0BA8     		add	r0, sp, #44
 5913              	.LVL499:
 5914 00e8 3B46     		mov	r3, r7
 5915 00ea FFF7FEFF 		bl	sha256_hmac_starts
ARM GAS  C:\Users\jo\AppData\Local\Temp\ccDsJqTW.s 			page 105


 5916              	.LVL500:
 5917              		.loc 1 713 0
 5918 00ee 5AF82520 		ldr	r2, [r10, r5, lsl #2]
 5919              	.LVL501:
 5920              	.LBB176:
 5921              	.LBB177:
 5922              	.LBB178:
 5923              		.loc 1 272 0
 5924 00f2 002A     		cmp	r2, #0
 5925 00f4 45D1     		bne	.L204
 5926              	.LVL502:
 5927              	.L165:
 5928              	.LBE178:
 5929              	.LBE177:
 5930              	.LBE176:
 5931              		.loc 1 716 0
 5932 00f6 0BA8     		add	r0, sp, #44
 5933              	.LVL503:
 5934 00f8 03A9     		add	r1, sp, #12
 5935 00fa FFF7FEFF 		bl	sha256_hmac_finish
 5936              	.LVL504:
 5937              		.loc 1 718 0
 5938 00fe 042D     		cmp	r5, #4
 5939 0100 1ABF     		itte	ne
 5940 0102 C7F10802 		rsbne	r2, r7, #8
 5941 0106 9200     		lslne	r2, r2, #2
 5942 0108 1022     		moveq	r2, #16
 5943              		.loc 1 720 0
 5944 010a 03A8     		add	r0, sp, #12
 5945 010c 4146     		mov	r1, r8
 5946 010e FFF7FEFF 		bl	memcmp
 5947              	.LVL505:
 5948 0112 0028     		cmp	r0, #0
 5949 0114 40F08F80 		bne	.L167
 5950              		.loc 1 729 0
 5951 0118 002E     		cmp	r6, #0
 5952 011a 67D1     		bne	.L205
 5953              		.loc 1 696 0 discriminator 2
 5954 011c 0BF1010B 		add	fp, fp, #1
 5955              	.LVL506:
 5956 0120 BBF10E0F 		cmp	fp, #14
 5957 0124 08F12008 		add	r8, r8, #32
 5958 0128 6AD0     		beq	.L206
 5959              	.LVL507:
 5960              	.L169:
 5961              		.loc 1 698 0
 5962 012a 8BFB0923 		smull	r2, r3, fp, r9
 5963 012e 0BEB0305 		add	r5, fp, r3
 5964 0132 4FEAEB73 		asr	r3, fp, #31
 5965 0136 C3EBA505 		rsb	r5, r3, r5, asr #2
 5966              		.loc 1 699 0
 5967 013a BBF1060F 		cmp	fp, #6
 5968              		.loc 1 698 0
 5969 013e C5EBC505 		rsb	r5, r5, r5, lsl #3
 5970 0142 C5EB0B05 		rsb	r5, r5, fp
 5971              	.LVL508:
 5972              		.loc 1 699 0
ARM GAS  C:\Users\jo\AppData\Local\Temp\ccDsJqTW.s 			page 106


 5973 0146 CCBF     		ite	gt
 5974 0148 0027     		movgt	r7, #0
 5975 014a 0127     		movle	r7, #1
 5976              	.LVL509:
 5977              		.loc 1 701 0
 5978 014c 002E     		cmp	r6, #0
 5979 014e C0D0     		beq	.L162
 5980              		.loc 1 702 0
 5981 0150 C7F10801 		rsb	r1, r7, #8
 5982 0154 4901     		lsls	r1, r1, #5
 5983 0156 5048     		ldr	r0, .L209+44
 5984 0158 6A1C     		adds	r2, r5, #1
 5985 015a FFF7FEFF 		bl	printf
 5986              	.LVL510:
 5987              		.loc 1 704 0
 5988 015e 6B1F     		subs	r3, r5, #5
 5989 0160 012B     		cmp	r3, #1
 5990 0162 B9D8     		bhi	.L163
 5991              	.L203:
 5992              	.LVL511:
 5993              		.loc 1 706 0
 5994 0164 AA21     		movs	r1, #170
 5995 0166 8322     		movs	r2, #131
 5996 0168 2046     		mov	r0, r4
 5997 016a FFF7FEFF 		bl	memset
 5998              	.LVL512:
 5999              		.loc 1 707 0
 6000 016e 8322     		movs	r2, #131
 6001 0170 0BA8     		add	r0, sp, #44
 6002              	.LVL513:
 6003 0172 2146     		mov	r1, r4
 6004 0174 3B46     		mov	r3, r7
 6005 0176 FFF7FEFF 		bl	sha256_hmac_starts
 6006              	.LVL514:
 6007              		.loc 1 713 0
 6008 017a 5AF82520 		ldr	r2, [r10, r5, lsl #2]
 6009              	.LVL515:
 6010              	.LBB183:
 6011              	.LBB181:
 6012              	.LBB179:
 6013              		.loc 1 272 0
 6014 017e 002A     		cmp	r2, #0
 6015 0180 B9D0     		beq	.L165
 6016              	.LVL516:
 6017              	.L204:
 6018              	.LBE179:
 6019              	.LBE181:
 6020              	.LBE183:
 6021              		.loc 1 713 0
 6022 0182 05EBC503 		add	r3, r5, r5, lsl #3
 6023 0186 4549     		ldr	r1, .L209+48
 6024 0188 03EB0313 		add	r3, r3, r3, lsl #4
 6025              	.LBB184:
 6026              	.LBB182:
 6027              	.LBB180:
 6028 018c 1944     		add	r1, r1, r3
 6029 018e 0BA8     		add	r0, sp, #44
ARM GAS  C:\Users\jo\AppData\Local\Temp\ccDsJqTW.s 			page 107


 6030              	.LVL517:
 6031 0190 FFF7FEFF 		bl	sha256_update.part.0
 6032              	.LVL518:
 6033 0194 AFE7     		b	.L165
 6034              	.LVL519:
 6035              	.L151:
 6036              	.LBE180:
 6037              	.LBE182:
 6038              	.LBE184:
 6039              	.LBB185:
 6040              	.LBB169:
 6041              		.loc 1 121 0
 6042 0196 4248     		ldr	r0, .L209+52
 6043              		.loc 1 119 0
 6044 0198 424A     		ldr	r2, .L209+56
 6045              		.loc 1 121 0
 6046 019a 0F90     		str	r0, [sp, #60]
 6047              		.loc 1 124 0
 6048 019c 00F13720 		add	r0, r0, #922760960
 6049              		.loc 1 122 0
 6050 01a0 4149     		ldr	r1, .L209+60
 6051              		.loc 1 119 0
 6052 01a2 0D92     		str	r2, [sp, #52]
 6053              		.loc 1 124 0
 6054 01a4 00F56700 		add	r0, r0, #15138816
 6055              		.loc 1 123 0
 6056 01a8 404A     		ldr	r2, .L209+64
 6057              		.loc 1 122 0
 6058 01aa 1091     		str	r1, [sp, #64]
 6059              		.loc 1 124 0
 6060 01ac FA30     		adds	r0, r0, #250
 6061              		.loc 1 125 0
 6062 01ae 4049     		ldr	r1, .L209+68
 6063              		.loc 1 123 0
 6064 01b0 1192     		str	r2, [sp, #68]
 6065              	.LBE169:
 6066              	.LBE185:
 6067              		.loc 1 667 0
 6068 01b2 B8F1020F 		cmp	r8, #2
 6069              	.LBB186:
 6070              	.LBB170:
 6071              		.loc 1 126 0
 6072 01b6 3F4A     		ldr	r2, .L209+72
 6073              		.loc 1 120 0
 6074 01b8 CDF838B0 		str	fp, [sp, #56]
 6075              		.loc 1 124 0
 6076 01bc 1290     		str	r0, [sp, #72]
 6077              		.loc 1 125 0
 6078 01be 1391     		str	r1, [sp, #76]
 6079              		.loc 1 126 0
 6080 01c0 1492     		str	r2, [sp, #80]
 6081              		.loc 1 129 0
 6082 01c2 4593     		str	r3, [sp, #276]
 6083              	.LBE170:
 6084              	.LBE186:
 6085              		.loc 1 667 0
 6086 01c4 7FF45EAF 		bne	.L153
ARM GAS  C:\Users\jo\AppData\Local\Temp\ccDsJqTW.s 			page 108


 6087              	.L199:
 6088              	.LVL520:
 6089              		.loc 1 669 0
 6090 01c8 2046     		mov	r0, r4
 6091 01ca 6121     		movs	r1, #97
 6092 01cc 4FF47A72 		mov	r2, #1000
 6093 01d0 FFF7FEFF 		bl	memset
 6094              	.LVL521:
 6095 01d4 4FF47A78 		mov	r8, #1000
 6096              	.LVL522:
 6097              	.L154:
 6098              	.LBB187:
 6099              	.LBB188:
 6100 01d8 0BA8     		add	r0, sp, #44
 6101              	.LVL523:
 6102 01da 2146     		mov	r1, r4
 6103 01dc 4FF47A72 		mov	r2, #1000
 6104 01e0 FFF7FEFF 		bl	sha256_update.part.0
 6105              	.LVL524:
 6106              	.LBE188:
 6107              	.LBE187:
 6108              		.loc 1 671 0 discriminator 3
 6109 01e4 B8F10108 		subs	r8, r8, #1
 6110              	.LVL525:
 6111 01e8 F6D1     		bne	.L154
 6112 01ea 51E7     		b	.L155
 6113              	.LVL526:
 6114              	.L205:
 6115              		.loc 1 730 0
 6116 01ec 3248     		ldr	r0, .L209+76
 6117              		.loc 1 696 0
 6118 01ee 0BF1010B 		add	fp, fp, #1
 6119              	.LVL527:
 6120              		.loc 1 730 0
 6121 01f2 FFF7FEFF 		bl	puts
 6122              	.LVL528:
 6123              		.loc 1 696 0
 6124 01f6 BBF10E0F 		cmp	fp, #14
 6125 01fa 08F12008 		add	r8, r8, #32
 6126 01fe 94D1     		bne	.L169
 6127              	.L206:
 6128              		.loc 1 733 0
 6129 0200 76BB     		cbnz	r6, .L207
 6130              		.loc 1 650 0
 6131 0202 3046     		mov	r0, r6
 6132 0204 19E0     		b	.L158
 6133              	.LVL529:
 6134              	.L198:
 6135              		.loc 1 663 0
 6136 0206 4FEA4A11 		lsl	r1, r10, #5
 6137 020a 2C48     		ldr	r0, .L209+80
 6138 020c 0193     		str	r3, [sp, #4]
 6139 020e 08F10102 		add	r2, r8, #1
 6140 0212 FFF7FEFF 		bl	printf
 6141              	.LVL530:
 6142 0216 019B     		ldr	r3, [sp, #4]
 6143 0218 14E7     		b	.L150
ARM GAS  C:\Users\jo\AppData\Local\Temp\ccDsJqTW.s 			page 109


 6144              	.LVL531:
 6145              	.L201:
 6146              		.loc 1 690 0
 6147 021a 2748     		ldr	r0, .L209+76
 6148 021c FFF7FEFF 		bl	puts
 6149              	.LVL532:
 6150 0220 46E7     		b	.L159
 6151              	.LVL533:
 6152              	.L200:
 6153              		.loc 1 675 0
 6154 0222 C8EBC803 		rsb	r3, r8, r8, lsl #3
 6155 0226 2649     		ldr	r1, .L209+84
 6156 0228 08EBC308 		add	r8, r8, r3, lsl #3
 6157              	.LVL534:
 6158              	.LBB189:
 6159              	.LBB175:
 6160 022c 4144     		add	r1, r1, r8
 6161 022e 0BA8     		add	r0, sp, #44
 6162              	.LVL535:
 6163 0230 FFF7FEFF 		bl	sha256_update.part.0
 6164              	.LVL536:
 6165 0234 2CE7     		b	.L155
 6166              	.LVL537:
 6167              	.L167:
 6168              	.LBE175:
 6169              	.LBE189:
 6170              		.loc 1 685 0
 6171 0236 0120     		movs	r0, #1
 6172              		.loc 1 682 0
 6173 0238 6EB9     		cbnz	r6, .L208
 6174              	.L158:
 6175              	.LVL538:
 6176 023a 0BAB     		add	r3, sp, #44
 6177              	.LVL539:
 6178              	.LBB190:
 6179              	.LBB191:
 6180              	.LBB192:
 6181              		.loc 1 55 0
 6182 023c 0022     		movs	r2, #0
 6183              	.LVL540:
 6184              	.L170:
 6185 023e 1A70     		strb	r2, [r3]
 6186              	.LVL541:
 6187 0240 0133     		adds	r3, r3, #1
 6188              	.LVL542:
 6189 0242 A342     		cmp	r3, r4
 6190 0244 FBD1     		bne	.L170
 6191              	.LBE192:
 6192              	.LBE191:
 6193              	.LBE190:
 6194              		.loc 1 740 0
 6195 0246 0DF21C5D 		addw	sp, sp, #1308
 6196              		.cfi_remember_state
 6197              		.cfi_def_cfa_offset 36
 6198              		@ sp needed
 6199 024a BDE8F08F 		pop	{r4, r5, r6, r7, r8, r9, r10, fp, pc}
 6200              	.LVL543:
ARM GAS  C:\Users\jo\AppData\Local\Temp\ccDsJqTW.s 			page 110


 6201              	.L202:
 6202              		.cfi_restore_state
 6203              		.loc 1 694 0
 6204 024e 0A20     		movs	r0, #10
 6205 0250 FFF7FEFF 		bl	putchar
 6206              	.LVL544:
 6207 0254 34E7     		b	.L161
 6208              	.LVL545:
 6209              	.L208:
 6210              		.loc 1 683 0
 6211 0256 1B48     		ldr	r0, .L209+88
 6212 0258 FFF7FEFF 		bl	puts
 6213              	.LVL546:
 6214              		.loc 1 685 0
 6215 025c 0120     		movs	r0, #1
 6216 025e ECE7     		b	.L158
 6217              	.LVL547:
 6218              	.L207:
 6219              		.loc 1 734 0
 6220 0260 0A20     		movs	r0, #10
 6221 0262 FFF7FEFF 		bl	putchar
 6222              	.LVL548:
 6223              		.loc 1 650 0
 6224 0266 0020     		movs	r0, #0
 6225 0268 E7E7     		b	.L158
 6226              	.L210:
 6227 026a 00BF     		.align	2
 6228              	.L209:
 6229 026c 00000000 		.word	.LANCHOR1
 6230 0270 85AE67BB 		.word	-1150833019
 6231 0274 67E6096A 		.word	1779033703
 6232 0278 72F36E3C 		.word	1013904242
 6233 027c 3AF54FA5 		.word	-1521486534
 6234 0280 7F520E51 		.word	1359893119
 6235 0284 8C68059B 		.word	-1694144372
 6236 0288 ABD9831F 		.word	528734635
 6237 028c 00000000 		.word	.LANCHOR2
 6238 0290 00000000 		.word	.LANCHOR6
 6239 0294 00000000 		.word	.LANCHOR5
 6240 0298 28000000 		.word	.LC4
 6241 029c 00000000 		.word	.LANCHOR8
 6242 02a0 17DD7030 		.word	812702999
 6243 02a4 D89E05C1 		.word	-1056596264
 6244 02a8 39590EF7 		.word	-150054599
 6245 02ac 310BC0FF 		.word	-4191439
 6246 02b0 A78FF964 		.word	1694076839
 6247 02b4 A44FFABE 		.word	-1090891868
 6248 02b8 20000000 		.word	.LC3
 6249 02bc 04000000 		.word	.LC1
 6250 02c0 00000000 		.word	.LANCHOR3
 6251 02c4 18000000 		.word	.LC2
 6252 02c8 56555555 		.word	1431655766
 6253 02cc 07D57C36 		.word	914150663
 6254 02d0 00000000 		.word	.LANCHOR4
 6255 02d4 00000000 		.word	.LANCHOR7
 6256 02d8 93244992 		.word	-1840700269
 6257              		.cfi_endproc
ARM GAS  C:\Users\jo\AppData\Local\Temp\ccDsJqTW.s 			page 111


 6258              	.LFE14:
 6259              		.size	sha256_self_test, .-sha256_self_test
 6260 02dc AFF30080 		.section	.rodata.sha256_padding,"a",%progbits
 6261              		.align	2
 6262              		.set	.LANCHOR0,. + 0
 6263              		.type	sha256_padding, %object
 6264              		.size	sha256_padding, 64
 6265              	sha256_padding:
 6266 0000 80       		.byte	-128
 6267 0001 00       		.byte	0
 6268 0002 00       		.byte	0
 6269 0003 00       		.byte	0
 6270 0004 00       		.byte	0
 6271 0005 00       		.byte	0
 6272 0006 00       		.byte	0
 6273 0007 00       		.byte	0
 6274 0008 00       		.byte	0
 6275 0009 00       		.byte	0
 6276 000a 00       		.byte	0
 6277 000b 00       		.byte	0
 6278 000c 00       		.byte	0
 6279 000d 00       		.byte	0
 6280 000e 00       		.byte	0
 6281 000f 00       		.byte	0
 6282 0010 00       		.byte	0
 6283 0011 00       		.byte	0
 6284 0012 00       		.byte	0
 6285 0013 00       		.byte	0
 6286 0014 00       		.byte	0
 6287 0015 00       		.byte	0
 6288 0016 00       		.byte	0
 6289 0017 00       		.byte	0
 6290 0018 00       		.byte	0
 6291 0019 00       		.byte	0
 6292 001a 00       		.byte	0
 6293 001b 00       		.byte	0
 6294 001c 00       		.byte	0
 6295 001d 00       		.byte	0
 6296 001e 00       		.byte	0
 6297 001f 00       		.byte	0
 6298 0020 00       		.byte	0
 6299 0021 00       		.byte	0
 6300 0022 00       		.byte	0
 6301 0023 00       		.byte	0
 6302 0024 00       		.byte	0
 6303 0025 00       		.byte	0
 6304 0026 00       		.byte	0
 6305 0027 00       		.byte	0
 6306 0028 00       		.byte	0
 6307 0029 00       		.byte	0
 6308 002a 00       		.byte	0
 6309 002b 00       		.byte	0
 6310 002c 00       		.byte	0
 6311 002d 00       		.byte	0
 6312 002e 00       		.byte	0
 6313 002f 00       		.byte	0
 6314 0030 00       		.byte	0
ARM GAS  C:\Users\jo\AppData\Local\Temp\ccDsJqTW.s 			page 112


 6315 0031 00       		.byte	0
 6316 0032 00       		.byte	0
 6317 0033 00       		.byte	0
 6318 0034 00       		.byte	0
 6319 0035 00       		.byte	0
 6320 0036 00       		.byte	0
 6321 0037 00       		.byte	0
 6322 0038 00       		.byte	0
 6323 0039 00       		.byte	0
 6324 003a 00       		.byte	0
 6325 003b 00       		.byte	0
 6326 003c 00       		.byte	0
 6327 003d 00       		.byte	0
 6328 003e 00       		.byte	0
 6329 003f 00       		.byte	0
 6330              		.section	.rodata.sha256_test_sum,"a",%progbits
 6331              		.align	2
 6332              		.set	.LANCHOR1,. + 0
 6333              		.type	sha256_test_sum, %object
 6334              		.size	sha256_test_sum, 192
 6335              	sha256_test_sum:
 6336 0000 23       		.byte	35
 6337 0001 09       		.byte	9
 6338 0002 7D       		.byte	125
 6339 0003 22       		.byte	34
 6340 0004 34       		.byte	52
 6341 0005 05       		.byte	5
 6342 0006 D8       		.byte	-40
 6343 0007 22       		.byte	34
 6344 0008 86       		.byte	-122
 6345 0009 42       		.byte	66
 6346 000a A4       		.byte	-92
 6347 000b 77       		.byte	119
 6348 000c BD       		.byte	-67
 6349 000d A2       		.byte	-94
 6350 000e 55       		.byte	85
 6351 000f B3       		.byte	-77
 6352 0010 2A       		.byte	42
 6353 0011 AD       		.byte	-83
 6354 0012 BC       		.byte	-68
 6355 0013 E4       		.byte	-28
 6356 0014 BD       		.byte	-67
 6357 0015 A0       		.byte	-96
 6358 0016 B3       		.byte	-77
 6359 0017 F7       		.byte	-9
 6360 0018 E3       		.byte	-29
 6361 0019 6C       		.byte	108
 6362 001a 9D       		.byte	-99
 6363 001b A7       		.byte	-89
 6364 001c 00000000 		.space	4
 6365 0020 75       		.byte	117
 6366 0021 38       		.byte	56
 6367 0022 8B       		.byte	-117
 6368 0023 16       		.byte	22
 6369 0024 51       		.byte	81
 6370 0025 27       		.byte	39
 6371 0026 76       		.byte	118
ARM GAS  C:\Users\jo\AppData\Local\Temp\ccDsJqTW.s 			page 113


 6372 0027 CC       		.byte	-52
 6373 0028 5D       		.byte	93
 6374 0029 BA       		.byte	-70
 6375 002a 5D       		.byte	93
 6376 002b A1       		.byte	-95
 6377 002c FD       		.byte	-3
 6378 002d 89       		.byte	-119
 6379 002e 01       		.byte	1
 6380 002f 50       		.byte	80
 6381 0030 B0       		.byte	-80
 6382 0031 C6       		.byte	-58
 6383 0032 45       		.byte	69
 6384 0033 5C       		.byte	92
 6385 0034 B4       		.byte	-76
 6386 0035 F5       		.byte	-11
 6387 0036 8B       		.byte	-117
 6388 0037 19       		.byte	25
 6389 0038 52       		.byte	82
 6390 0039 52       		.byte	82
 6391 003a 25       		.byte	37
 6392 003b 25       		.byte	37
 6393 003c 00000000 		.space	4
 6394 0040 20       		.byte	32
 6395 0041 79       		.byte	121
 6396 0042 46       		.byte	70
 6397 0043 55       		.byte	85
 6398 0044 98       		.byte	-104
 6399 0045 0C       		.byte	12
 6400 0046 91       		.byte	-111
 6401 0047 D8       		.byte	-40
 6402 0048 BB       		.byte	-69
 6403 0049 B4       		.byte	-76
 6404 004a C1       		.byte	-63
 6405 004b EA       		.byte	-22
 6406 004c 97       		.byte	-105
 6407 004d 61       		.byte	97
 6408 004e 8A       		.byte	-118
 6409 004f 4B       		.byte	75
 6410 0050 F0       		.byte	-16
 6411 0051 3F       		.byte	63
 6412 0052 42       		.byte	66
 6413 0053 58       		.byte	88
 6414 0054 19       		.byte	25
 6415 0055 48       		.byte	72
 6416 0056 B2       		.byte	-78
 6417 0057 EE       		.byte	-18
 6418 0058 4E       		.byte	78
 6419 0059 E7       		.byte	-25
 6420 005a AD       		.byte	-83
 6421 005b 67       		.byte	103
 6422 005c 00000000 		.space	4
 6423 0060 BA       		.byte	-70
 6424 0061 78       		.byte	120
 6425 0062 16       		.byte	22
 6426 0063 BF       		.byte	-65
 6427 0064 8F       		.byte	-113
 6428 0065 01       		.byte	1
ARM GAS  C:\Users\jo\AppData\Local\Temp\ccDsJqTW.s 			page 114


 6429 0066 CF       		.byte	-49
 6430 0067 EA       		.byte	-22
 6431 0068 41       		.byte	65
 6432 0069 41       		.byte	65
 6433 006a 40       		.byte	64
 6434 006b DE       		.byte	-34
 6435 006c 5D       		.byte	93
 6436 006d AE       		.byte	-82
 6437 006e 22       		.byte	34
 6438 006f 23       		.byte	35
 6439 0070 B0       		.byte	-80
 6440 0071 03       		.byte	3
 6441 0072 61       		.byte	97
 6442 0073 A3       		.byte	-93
 6443 0074 96       		.byte	-106
 6444 0075 17       		.byte	23
 6445 0076 7A       		.byte	122
 6446 0077 9C       		.byte	-100
 6447 0078 B4       		.byte	-76
 6448 0079 10       		.byte	16
 6449 007a FF       		.byte	-1
 6450 007b 61       		.byte	97
 6451 007c F2       		.byte	-14
 6452 007d 00       		.byte	0
 6453 007e 15       		.byte	21
 6454 007f AD       		.byte	-83
 6455 0080 24       		.byte	36
 6456 0081 8D       		.byte	-115
 6457 0082 6A       		.byte	106
 6458 0083 61       		.byte	97
 6459 0084 D2       		.byte	-46
 6460 0085 06       		.byte	6
 6461 0086 38       		.byte	56
 6462 0087 B8       		.byte	-72
 6463 0088 E5       		.byte	-27
 6464 0089 C0       		.byte	-64
 6465 008a 26       		.byte	38
 6466 008b 93       		.byte	-109
 6467 008c 0C       		.byte	12
 6468 008d 3E       		.byte	62
 6469 008e 60       		.byte	96
 6470 008f 39       		.byte	57
 6471 0090 A3       		.byte	-93
 6472 0091 3C       		.byte	60
 6473 0092 E4       		.byte	-28
 6474 0093 59       		.byte	89
 6475 0094 64       		.byte	100
 6476 0095 FF       		.byte	-1
 6477 0096 21       		.byte	33
 6478 0097 67       		.byte	103
 6479 0098 F6       		.byte	-10
 6480 0099 EC       		.byte	-20
 6481 009a ED       		.byte	-19
 6482 009b D4       		.byte	-44
 6483 009c 19       		.byte	25
 6484 009d DB       		.byte	-37
 6485 009e 06       		.byte	6
ARM GAS  C:\Users\jo\AppData\Local\Temp\ccDsJqTW.s 			page 115


 6486 009f C1       		.byte	-63
 6487 00a0 CD       		.byte	-51
 6488 00a1 C7       		.byte	-57
 6489 00a2 6E       		.byte	110
 6490 00a3 5C       		.byte	92
 6491 00a4 99       		.byte	-103
 6492 00a5 14       		.byte	20
 6493 00a6 FB       		.byte	-5
 6494 00a7 92       		.byte	-110
 6495 00a8 81       		.byte	-127
 6496 00a9 A1       		.byte	-95
 6497 00aa C7       		.byte	-57
 6498 00ab E2       		.byte	-30
 6499 00ac 84       		.byte	-124
 6500 00ad D7       		.byte	-41
 6501 00ae 3E       		.byte	62
 6502 00af 67       		.byte	103
 6503 00b0 F1       		.byte	-15
 6504 00b1 80       		.byte	-128
 6505 00b2 9A       		.byte	-102
 6506 00b3 48       		.byte	72
 6507 00b4 A4       		.byte	-92
 6508 00b5 97       		.byte	-105
 6509 00b6 20       		.byte	32
 6510 00b7 0E       		.byte	14
 6511 00b8 04       		.byte	4
 6512 00b9 6D       		.byte	109
 6513 00ba 39       		.byte	57
 6514 00bb CC       		.byte	-52
 6515 00bc C7       		.byte	-57
 6516 00bd 11       		.byte	17
 6517 00be 2C       		.byte	44
 6518 00bf D0       		.byte	-48
 6519              		.section	.rodata.sha256_test_buf,"a",%progbits
 6520              		.align	2
 6521              		.set	.LANCHOR3,. + 0
 6522              		.type	sha256_test_buf, %object
 6523              		.size	sha256_test_buf, 171
 6524              	sha256_test_buf:
 6525 0000 61626300 		.ascii	"abc\000"
 6526 0004 00000000 		.space	53
 6526      00000000 
 6526      00000000 
 6526      00000000 
 6526      00000000 
 6527 0039 61626364 		.ascii	"abcdbcdecdefdefgefghfghighijhijkijkljklmklmnlmnomno"
 6527      62636465 
 6527      63646566 
 6527      64656667 
 6527      65666768 
 6528 006c 706E6F70 		.ascii	"pnopq\000"
 6528      7100
 6529 0072 00       		.ascii	"\000"
 6530 0073 00000000 		.space	56
 6530      00000000 
 6530      00000000 
 6530      00000000 
ARM GAS  C:\Users\jo\AppData\Local\Temp\ccDsJqTW.s 			page 116


 6530      00000000 
 6531 00ab 00       		.section	.rodata.sha256_hmac_test_sum,"a",%progbits
 6532              		.align	2
 6533              		.set	.LANCHOR4,. + 0
 6534              		.type	sha256_hmac_test_sum, %object
 6535              		.size	sha256_hmac_test_sum, 448
 6536              	sha256_hmac_test_sum:
 6537 0000 89       		.byte	-119
 6538 0001 6F       		.byte	111
 6539 0002 B1       		.byte	-79
 6540 0003 12       		.byte	18
 6541 0004 8A       		.byte	-118
 6542 0005 BB       		.byte	-69
 6543 0006 DF       		.byte	-33
 6544 0007 19       		.byte	25
 6545 0008 68       		.byte	104
 6546 0009 32       		.byte	50
 6547 000a 10       		.byte	16
 6548 000b 7C       		.byte	124
 6549 000c D4       		.byte	-44
 6550 000d 9D       		.byte	-99
 6551 000e F3       		.byte	-13
 6552 000f 3F       		.byte	63
 6553 0010 47       		.byte	71
 6554 0011 B4       		.byte	-76
 6555 0012 B1       		.byte	-79
 6556 0013 16       		.byte	22
 6557 0014 99       		.byte	-103
 6558 0015 12       		.byte	18
 6559 0016 BA       		.byte	-70
 6560 0017 4F       		.byte	79
 6561 0018 53       		.byte	83
 6562 0019 68       		.byte	104
 6563 001a 4B       		.byte	75
 6564 001b 22       		.byte	34
 6565 001c 00000000 		.space	4
 6566 0020 A3       		.byte	-93
 6567 0021 0E       		.byte	14
 6568 0022 01       		.byte	1
 6569 0023 09       		.byte	9
 6570 0024 8B       		.byte	-117
 6571 0025 C6       		.byte	-58
 6572 0026 DB       		.byte	-37
 6573 0027 BF       		.byte	-65
 6574 0028 45       		.byte	69
 6575 0029 69       		.byte	105
 6576 002a 0F       		.byte	15
 6577 002b 3A       		.byte	58
 6578 002c 7E       		.byte	126
 6579 002d 9E       		.byte	-98
 6580 002e 6D       		.byte	109
 6581 002f 0F       		.byte	15
 6582 0030 8B       		.byte	-117
 6583 0031 BE       		.byte	-66
 6584 0032 A2       		.byte	-94
 6585 0033 A3       		.byte	-93
 6586 0034 9E       		.byte	-98
ARM GAS  C:\Users\jo\AppData\Local\Temp\ccDsJqTW.s 			page 117


 6587 0035 61       		.byte	97
 6588 0036 48       		.byte	72
 6589 0037 00       		.byte	0
 6590 0038 8F       		.byte	-113
 6591 0039 D0       		.byte	-48
 6592 003a 5E       		.byte	94
 6593 003b 44       		.byte	68
 6594 003c 00000000 		.space	4
 6595 0040 7F       		.byte	127
 6596 0041 B3       		.byte	-77
 6597 0042 CB       		.byte	-53
 6598 0043 35       		.byte	53
 6599 0044 88       		.byte	-120
 6600 0045 C6       		.byte	-58
 6601 0046 C1       		.byte	-63
 6602 0047 F6       		.byte	-10
 6603 0048 FF       		.byte	-1
 6604 0049 A9       		.byte	-87
 6605 004a 69       		.byte	105
 6606 004b 4D       		.byte	77
 6607 004c 7D       		.byte	125
 6608 004d 6A       		.byte	106
 6609 004e D2       		.byte	-46
 6610 004f 64       		.byte	100
 6611 0050 93       		.byte	-109
 6612 0051 65       		.byte	101
 6613 0052 B0       		.byte	-80
 6614 0053 C1       		.byte	-63
 6615 0054 F6       		.byte	-10
 6616 0055 5D       		.byte	93
 6617 0056 69       		.byte	105
 6618 0057 D1       		.byte	-47
 6619 0058 EC       		.byte	-20
 6620 0059 83       		.byte	-125
 6621 005a 33       		.byte	51
 6622 005b EA       		.byte	-22
 6623 005c 00000000 		.space	4
 6624 0060 6C       		.byte	108
 6625 0061 11       		.byte	17
 6626 0062 50       		.byte	80
 6627 0063 68       		.byte	104
 6628 0064 74       		.byte	116
 6629 0065 01       		.byte	1
 6630 0066 3C       		.byte	60
 6631 0067 AC       		.byte	-84
 6632 0068 6A       		.byte	106
 6633 0069 2A       		.byte	42
 6634 006a BC       		.byte	-68
 6635 006b 1B       		.byte	27
 6636 006c B3       		.byte	-77
 6637 006d 82       		.byte	-126
 6638 006e 62       		.byte	98
 6639 006f 7C       		.byte	124
 6640 0070 EC       		.byte	-20
 6641 0071 6A       		.byte	106
 6642 0072 90       		.byte	-112
 6643 0073 D8       		.byte	-40
ARM GAS  C:\Users\jo\AppData\Local\Temp\ccDsJqTW.s 			page 118


 6644 0074 6E       		.byte	110
 6645 0075 FC       		.byte	-4
 6646 0076 01       		.byte	1
 6647 0077 2D       		.byte	45
 6648 0078 E7       		.byte	-25
 6649 0079 AF       		.byte	-81
 6650 007a EC       		.byte	-20
 6651 007b 5A       		.byte	90
 6652 007c 00000000 		.space	4
 6653 0080 0E       		.byte	14
 6654 0081 2A       		.byte	42
 6655 0082 EA       		.byte	-22
 6656 0083 68       		.byte	104
 6657 0084 A9       		.byte	-87
 6658 0085 0C       		.byte	12
 6659 0086 8D       		.byte	-115
 6660 0087 37       		.byte	55
 6661 0088 C9       		.byte	-55
 6662 0089 88       		.byte	-120
 6663 008a BC       		.byte	-68
 6664 008b DB       		.byte	-37
 6665 008c 9F       		.byte	-97
 6666 008d CA       		.byte	-54
 6667 008e 6F       		.byte	111
 6668 008f A8       		.byte	-88
 6669 0090 00000000 		.space	16
 6669      00000000 
 6669      00000000 
 6669      00000000 
 6670 00a0 95       		.byte	-107
 6671 00a1 E9       		.byte	-23
 6672 00a2 A0       		.byte	-96
 6673 00a3 DB       		.byte	-37
 6674 00a4 96       		.byte	-106
 6675 00a5 20       		.byte	32
 6676 00a6 95       		.byte	-107
 6677 00a7 AD       		.byte	-83
 6678 00a8 AE       		.byte	-82
 6679 00a9 BE       		.byte	-66
 6680 00aa 9B       		.byte	-101
 6681 00ab 2D       		.byte	45
 6682 00ac 6F       		.byte	111
 6683 00ad 0D       		.byte	13
 6684 00ae BC       		.byte	-68
 6685 00af E2       		.byte	-30
 6686 00b0 D4       		.byte	-44
 6687 00b1 99       		.byte	-103
 6688 00b2 F1       		.byte	-15
 6689 00b3 12       		.byte	18
 6690 00b4 F2       		.byte	-14
 6691 00b5 D2       		.byte	-46
 6692 00b6 B7       		.byte	-73
 6693 00b7 27       		.byte	39
 6694 00b8 3F       		.byte	63
 6695 00b9 A6       		.byte	-90
 6696 00ba 87       		.byte	-121
 6697 00bb 0E       		.byte	14
ARM GAS  C:\Users\jo\AppData\Local\Temp\ccDsJqTW.s 			page 119


 6698 00bc 00000000 		.space	4
 6699 00c0 3A       		.byte	58
 6700 00c1 85       		.byte	-123
 6701 00c2 41       		.byte	65
 6702 00c3 66       		.byte	102
 6703 00c4 AC       		.byte	-84
 6704 00c5 5D       		.byte	93
 6705 00c6 9F       		.byte	-97
 6706 00c7 02       		.byte	2
 6707 00c8 3F       		.byte	63
 6708 00c9 54       		.byte	84
 6709 00ca D5       		.byte	-43
 6710 00cb 17       		.byte	23
 6711 00cc D0       		.byte	-48
 6712 00cd B3       		.byte	-77
 6713 00ce 9D       		.byte	-99
 6714 00cf BD       		.byte	-67
 6715 00d0 94       		.byte	-108
 6716 00d1 67       		.byte	103
 6717 00d2 70       		.byte	112
 6718 00d3 DB       		.byte	-37
 6719 00d4 9C       		.byte	-100
 6720 00d5 2B       		.byte	43
 6721 00d6 95       		.byte	-107
 6722 00d7 C9       		.byte	-55
 6723 00d8 F6       		.byte	-10
 6724 00d9 F5       		.byte	-11
 6725 00da 65       		.byte	101
 6726 00db D1       		.byte	-47
 6727 00dc 00000000 		.space	4
 6728 00e0 B0       		.byte	-80
 6729 00e1 34       		.byte	52
 6730 00e2 4C       		.byte	76
 6731 00e3 61       		.byte	97
 6732 00e4 D8       		.byte	-40
 6733 00e5 DB       		.byte	-37
 6734 00e6 38       		.byte	56
 6735 00e7 53       		.byte	83
 6736 00e8 5C       		.byte	92
 6737 00e9 A8       		.byte	-88
 6738 00ea AF       		.byte	-81
 6739 00eb CE       		.byte	-50
 6740 00ec AF       		.byte	-81
 6741 00ed 0B       		.byte	11
 6742 00ee F1       		.byte	-15
 6743 00ef 2B       		.byte	43
 6744 00f0 88       		.byte	-120
 6745 00f1 1D       		.byte	29
 6746 00f2 C2       		.byte	-62
 6747 00f3 00       		.byte	0
 6748 00f4 C9       		.byte	-55
 6749 00f5 83       		.byte	-125
 6750 00f6 3D       		.byte	61
 6751 00f7 A7       		.byte	-89
 6752 00f8 26       		.byte	38
 6753 00f9 E9       		.byte	-23
 6754 00fa 37       		.byte	55
ARM GAS  C:\Users\jo\AppData\Local\Temp\ccDsJqTW.s 			page 120


 6755 00fb 6C       		.byte	108
 6756 00fc 2E       		.byte	46
 6757 00fd 32       		.byte	50
 6758 00fe CF       		.byte	-49
 6759 00ff F7       		.byte	-9
 6760 0100 5B       		.byte	91
 6761 0101 DC       		.byte	-36
 6762 0102 C1       		.byte	-63
 6763 0103 46       		.byte	70
 6764 0104 BF       		.byte	-65
 6765 0105 60       		.byte	96
 6766 0106 75       		.byte	117
 6767 0107 4E       		.byte	78
 6768 0108 6A       		.byte	106
 6769 0109 04       		.byte	4
 6770 010a 24       		.byte	36
 6771 010b 26       		.byte	38
 6772 010c 08       		.byte	8
 6773 010d 95       		.byte	-107
 6774 010e 75       		.byte	117
 6775 010f C7       		.byte	-57
 6776 0110 5A       		.byte	90
 6777 0111 00       		.byte	0
 6778 0112 3F       		.byte	63
 6779 0113 08       		.byte	8
 6780 0114 9D       		.byte	-99
 6781 0115 27       		.byte	39
 6782 0116 39       		.byte	57
 6783 0117 83       		.byte	-125
 6784 0118 9D       		.byte	-99
 6785 0119 EC       		.byte	-20
 6786 011a 58       		.byte	88
 6787 011b B9       		.byte	-71
 6788 011c 64       		.byte	100
 6789 011d EC       		.byte	-20
 6790 011e 38       		.byte	56
 6791 011f 43       		.byte	67
 6792 0120 77       		.byte	119
 6793 0121 3E       		.byte	62
 6794 0122 A9       		.byte	-87
 6795 0123 1E       		.byte	30
 6796 0124 36       		.byte	54
 6797 0125 80       		.byte	-128
 6798 0126 0E       		.byte	14
 6799 0127 46       		.byte	70
 6800 0128 85       		.byte	-123
 6801 0129 4D       		.byte	77
 6802 012a B8       		.byte	-72
 6803 012b EB       		.byte	-21
 6804 012c D0       		.byte	-48
 6805 012d 91       		.byte	-111
 6806 012e 81       		.byte	-127
 6807 012f A7       		.byte	-89
 6808 0130 29       		.byte	41
 6809 0131 59       		.byte	89
 6810 0132 09       		.byte	9
 6811 0133 8B       		.byte	-117
ARM GAS  C:\Users\jo\AppData\Local\Temp\ccDsJqTW.s 			page 121


 6812 0134 3E       		.byte	62
 6813 0135 F8       		.byte	-8
 6814 0136 C1       		.byte	-63
 6815 0137 22       		.byte	34
 6816 0138 D9       		.byte	-39
 6817 0139 63       		.byte	99
 6818 013a 55       		.byte	85
 6819 013b 14       		.byte	20
 6820 013c CE       		.byte	-50
 6821 013d D5       		.byte	-43
 6822 013e 65       		.byte	101
 6823 013f FE       		.byte	-2
 6824 0140 82       		.byte	-126
 6825 0141 55       		.byte	85
 6826 0142 8A       		.byte	-118
 6827 0143 38       		.byte	56
 6828 0144 9A       		.byte	-102
 6829 0145 44       		.byte	68
 6830 0146 3C       		.byte	60
 6831 0147 0E       		.byte	14
 6832 0148 A4       		.byte	-92
 6833 0149 CC       		.byte	-52
 6834 014a 81       		.byte	-127
 6835 014b 98       		.byte	-104
 6836 014c 99       		.byte	-103
 6837 014d F2       		.byte	-14
 6838 014e 08       		.byte	8
 6839 014f 3A       		.byte	58
 6840 0150 85       		.byte	-123
 6841 0151 F0       		.byte	-16
 6842 0152 FA       		.byte	-6
 6843 0153 A3       		.byte	-93
 6844 0154 E5       		.byte	-27
 6845 0155 78       		.byte	120
 6846 0156 F8       		.byte	-8
 6847 0157 07       		.byte	7
 6848 0158 7A       		.byte	122
 6849 0159 2E       		.byte	46
 6850 015a 3F       		.byte	63
 6851 015b F4       		.byte	-12
 6852 015c 67       		.byte	103
 6853 015d 29       		.byte	41
 6854 015e 66       		.byte	102
 6855 015f 5B       		.byte	91
 6856 0160 A3       		.byte	-93
 6857 0161 B6       		.byte	-74
 6858 0162 16       		.byte	22
 6859 0163 74       		.byte	116
 6860 0164 73       		.byte	115
 6861 0165 10       		.byte	16
 6862 0166 0E       		.byte	14
 6863 0167 E0       		.byte	-32
 6864 0168 6E       		.byte	110
 6865 0169 0C       		.byte	12
 6866 016a 79       		.byte	121
 6867 016b 6C       		.byte	108
 6868 016c 29       		.byte	41
ARM GAS  C:\Users\jo\AppData\Local\Temp\ccDsJqTW.s 			page 122


 6869 016d 55       		.byte	85
 6870 016e 55       		.byte	85
 6871 016f 2B       		.byte	43
 6872 0170 00000000 		.space	16
 6872      00000000 
 6872      00000000 
 6872      00000000 
 6873 0180 60       		.byte	96
 6874 0181 E4       		.byte	-28
 6875 0182 31       		.byte	49
 6876 0183 59       		.byte	89
 6877 0184 1E       		.byte	30
 6878 0185 E0       		.byte	-32
 6879 0186 B6       		.byte	-74
 6880 0187 7F       		.byte	127
 6881 0188 0D       		.byte	13
 6882 0189 8A       		.byte	-118
 6883 018a 26       		.byte	38
 6884 018b AA       		.byte	-86
 6885 018c CB       		.byte	-53
 6886 018d F5       		.byte	-11
 6887 018e B7       		.byte	-73
 6888 018f 7F       		.byte	127
 6889 0190 8E       		.byte	-114
 6890 0191 0B       		.byte	11
 6891 0192 C6       		.byte	-58
 6892 0193 21       		.byte	33
 6893 0194 37       		.byte	55
 6894 0195 28       		.byte	40
 6895 0196 C5       		.byte	-59
 6896 0197 14       		.byte	20
 6897 0198 05       		.byte	5
 6898 0199 46       		.byte	70
 6899 019a 04       		.byte	4
 6900 019b 0F       		.byte	15
 6901 019c 0E       		.byte	14
 6902 019d E3       		.byte	-29
 6903 019e 7F       		.byte	127
 6904 019f 54       		.byte	84
 6905 01a0 9B       		.byte	-101
 6906 01a1 09       		.byte	9
 6907 01a2 FF       		.byte	-1
 6908 01a3 A7       		.byte	-89
 6909 01a4 1B       		.byte	27
 6910 01a5 94       		.byte	-108
 6911 01a6 2F       		.byte	47
 6912 01a7 CB       		.byte	-53
 6913 01a8 27       		.byte	39
 6914 01a9 63       		.byte	99
 6915 01aa 5F       		.byte	95
 6916 01ab BC       		.byte	-68
 6917 01ac D5       		.byte	-43
 6918 01ad B0       		.byte	-80
 6919 01ae E9       		.byte	-23
 6920 01af 44       		.byte	68
 6921 01b0 BF       		.byte	-65
 6922 01b1 DC       		.byte	-36
ARM GAS  C:\Users\jo\AppData\Local\Temp\ccDsJqTW.s 			page 123


 6923 01b2 63       		.byte	99
 6924 01b3 64       		.byte	100
 6925 01b4 4F       		.byte	79
 6926 01b5 07       		.byte	7
 6927 01b6 13       		.byte	19
 6928 01b7 93       		.byte	-109
 6929 01b8 8A       		.byte	-118
 6930 01b9 7F       		.byte	127
 6931 01ba 51       		.byte	81
 6932 01bb 53       		.byte	83
 6933 01bc 5C       		.byte	92
 6934 01bd 3A       		.byte	58
 6935 01be 35       		.byte	53
 6936 01bf E2       		.byte	-30
 6937              		.section	.rodata.sha256_test_buflen,"a",%progbits
 6938              		.align	2
 6939              		.set	.LANCHOR2,. + 0
 6940              		.type	sha256_test_buflen, %object
 6941              		.size	sha256_test_buflen, 12
 6942              	sha256_test_buflen:
 6943 0000 03000000 		.word	3
 6944 0004 38000000 		.word	56
 6945 0008 E8030000 		.word	1000
 6946              		.section	.rodata.sha256_hmac_test_buf,"a",%progbits
 6947              		.align	2
 6948              		.set	.LANCHOR8,. + 0
 6949              		.type	sha256_hmac_test_buf, %object
 6950              		.size	sha256_hmac_test_buf, 1071
 6951              	sha256_hmac_test_buf:
 6952 0000 48692054 		.ascii	"Hi There\000"
 6952      68657265 
 6952      00
 6953 0009 00000000 		.space	144
 6953      00000000 
 6953      00000000 
 6953      00000000 
 6953      00000000 
 6954 0099 77686174 		.ascii	"what do ya want for nothing?\000"
 6954      20646F20 
 6954      79612077 
 6954      616E7420 
 6954      666F7220 
 6955 00b6 00000000 		.space	124
 6955      00000000 
 6955      00000000 
 6955      00000000 
 6955      00000000 
 6956 0132 DDDDDDDD 		.ascii	"\335\335\335\335\335\335\335\335\335\335\335\335\335"
 6956      DDDDDDDD 
 6956      DDDDDDDD 
 6956      DD
 6957 013f DDDDDDDD 		.ascii	"\335\335\335\335\335\335\335\335\335\335\335\335\335"
 6957      DDDDDDDD 
 6957      DDDDDDDD 
 6957      DD
 6958 014c DDDDDDDD 		.ascii	"\335\335\335\335\335\335\335\335\335\335\335\335\335"
 6958      DDDDDDDD 
ARM GAS  C:\Users\jo\AppData\Local\Temp\ccDsJqTW.s 			page 124


 6958      DDDDDDDD 
 6958      DD
 6959 0159 DDDDDDDD 		.ascii	"\335\335\335\335\335\335\335\335\335\335\335\000"
 6959      DDDDDDDD 
 6959      DDDDDD00 
 6960 0165 00000000 		.space	102
 6960      00000000 
 6960      00000000 
 6960      00000000 
 6960      00000000 
 6961 01cb CDCDCDCD 		.ascii	"\315\315\315\315\315\315\315\315\315\315\315\315\315"
 6961      CDCDCDCD 
 6961      CDCDCDCD 
 6961      CD
 6962 01d8 CDCDCDCD 		.ascii	"\315\315\315\315\315\315\315\315\315\315\315\315\315"
 6962      CDCDCDCD 
 6962      CDCDCDCD 
 6962      CD
 6963 01e5 CDCDCDCD 		.ascii	"\315\315\315\315\315\315\315\315\315\315\315\315\315"
 6963      CDCDCDCD 
 6963      CDCDCDCD 
 6963      CD
 6964 01f2 CDCDCDCD 		.ascii	"\315\315\315\315\315\315\315\315\315\315\315\000"
 6964      CDCDCDCD 
 6964      CDCDCD00 
 6965 01fe 00000000 		.space	102
 6965      00000000 
 6965      00000000 
 6965      00000000 
 6965      00000000 
 6966 0264 54657374 		.ascii	"Test With Truncation\000"
 6966      20576974 
 6966      68205472 
 6966      756E6361 
 6966      74696F6E 
 6967 0279 00000000 		.space	132
 6967      00000000 
 6967      00000000 
 6967      00000000 
 6967      00000000 
 6968 02fd 54657374 		.ascii	"Test Using Larger Than Block-Size Key - Hash Key Fi"
 6968      20557369 
 6968      6E67204C 
 6968      61726765 
 6968      72205468 
 6969 0330 72737400 		.ascii	"rst\000"
 6970 0334 00000000 		.space	98
 6970      00000000 
 6970      00000000 
 6970      00000000 
 6970      00000000 
 6971 0396 54686973 		.ascii	"This is a test using a larger than block-size key a"
 6971      20697320 
 6971      61207465 
 6971      73742075 
 6971      73696E67 
 6972 03c9 6E642061 		.ascii	"nd a larger than block-size data. The key needs to "
ARM GAS  C:\Users\jo\AppData\Local\Temp\ccDsJqTW.s 			page 125


 6972      206C6172 
 6972      67657220 
 6972      7468616E 
 6972      20626C6F 
 6973 03fc 62652068 		.ascii	"be hashed before being used by the HMAC algorithm.\000"
 6973      61736865 
 6973      64206265 
 6973      666F7265 
 6973      20626569 
 6974 042f 00       		.section	.rodata.str1.4,"aMS",%progbits,1
 6975              		.align	2
 6976              	.LC0:
 6977 0000 726200   		.ascii	"rb\000"
 6978 0003 00       		.space	1
 6979              	.LC1:
 6980 0004 20205348 		.ascii	"  SHA-%d test #%d: \000"
 6980      412D2564 
 6980      20746573 
 6980      74202325 
 6980      643A2000 
 6981              	.LC2:
 6982 0018 6661696C 		.ascii	"failed\000"
 6982      656400
 6983 001f 00       		.space	1
 6984              	.LC3:
 6985 0020 70617373 		.ascii	"passed\000"
 6985      656400
 6986 0027 00       		.space	1
 6987              	.LC4:
 6988 0028 2020484D 		.ascii	"  HMAC-SHA-%d test #%d: \000"
 6988      41432D53 
 6988      48412D25 
 6988      64207465 
 6988      73742023 
 6989 0041 000000   		.section	.rodata.sha256_hmac_test_key,"a",%progbits
 6990              		.align	2
 6991              		.set	.LANCHOR5,. + 0
 6992              		.type	sha256_hmac_test_key, %object
 6993              		.size	sha256_hmac_test_key, 182
 6994              	sha256_hmac_test_key:
 6995 0000 0B0B0B0B 		.ascii	"\013\013\013\013\013\013\013\013\013\013\013\013\013"
 6995      0B0B0B0B 
 6995      0B0B0B0B 
 6995      0B
 6996 000d 0B0B0B0B 		.ascii	"\013\013\013\013\013\013\013\000"
 6996      0B0B0B00 
 6997 0015 00000000 		.space	5
 6997      00
 6998 001a 4A656665 		.ascii	"Jefe\000"
 6998      00
 6999 001f 00000000 		.space	21
 6999      00000000 
 6999      00000000 
 6999      00000000 
 6999      00000000 
 7000 0034 AAAAAAAA 		.ascii	"\252\252\252\252\252\252\252\252\252\252\252\252\252"
 7000      AAAAAAAA 
ARM GAS  C:\Users\jo\AppData\Local\Temp\ccDsJqTW.s 			page 126


 7000      AAAAAAAA 
 7000      AA
 7001 0041 AAAAAAAA 		.ascii	"\252\252\252\252\252\252\252\000"
 7001      AAAAAA00 
 7002 0049 00000000 		.space	5
 7002      00
 7003 004e 01020304 		.ascii	"\001\002\003\004\005\006\007\010\011\012\013\014\015"
 7003      05060708 
 7003      090A0B0C 
 7003      0D
 7004 005b 0E0F1011 		.ascii	"\016\017\020\021\022\023\024\025\026\027\030\031\000"
 7004      12131415 
 7004      16171819 
 7004      00
 7005 0068 0C0C0C0C 		.ascii	"\014\014\014\014\014\014\014\014\014\014\014\014\014"
 7005      0C0C0C0C 
 7005      0C0C0C0C 
 7005      0C
 7006 0075 0C0C0C0C 		.ascii	"\014\014\014\014\014\014\014\000"
 7006      0C0C0C00 
 7007 007d 00000000 		.space	5
 7007      00
 7008 0082 00       		.ascii	"\000"
 7009 0083 00000000 		.space	25
 7009      00000000 
 7009      00000000 
 7009      00000000 
 7009      00000000 
 7010 009c 00       		.ascii	"\000"
 7011 009d 00000000 		.space	25
 7011      00000000 
 7011      00000000 
 7011      00000000 
 7011      00000000 
 7012 00b6 0000     		.section	.rodata.sha256_hmac_test_keylen,"a",%progbits
 7013              		.align	2
 7014              		.set	.LANCHOR6,. + 0
 7015              		.type	sha256_hmac_test_keylen, %object
 7016              		.size	sha256_hmac_test_keylen, 28
 7017              	sha256_hmac_test_keylen:
 7018 0000 14000000 		.word	20
 7019 0004 04000000 		.word	4
 7020 0008 14000000 		.word	20
 7021 000c 19000000 		.word	25
 7022 0010 14000000 		.word	20
 7023 0014 83000000 		.word	131
 7024 0018 83000000 		.word	131
 7025              		.section	.rodata.sha256_hmac_test_buflen,"a",%progbits
 7026              		.align	2
 7027              		.set	.LANCHOR7,. + 0
 7028              		.type	sha256_hmac_test_buflen, %object
 7029              		.size	sha256_hmac_test_buflen, 28
 7030              	sha256_hmac_test_buflen:
 7031 0000 08000000 		.word	8
 7032 0004 1C000000 		.word	28
 7033 0008 32000000 		.word	50
 7034 000c 32000000 		.word	50
ARM GAS  C:\Users\jo\AppData\Local\Temp\ccDsJqTW.s 			page 127


 7035 0010 14000000 		.word	20
 7036 0014 36000000 		.word	54
 7037 0018 98000000 		.word	152
 7038              		.text
 7039              	.Letext0:
 7040              		.file 2 "c:\\program files\\gnu tools arm embedded\\4.9 2014q4\\lib\\gcc\\arm-none-eabi\\4.9.3\\in
 7041              		.file 3 "c:\\program files\\gnu tools arm embedded\\4.9 2014q4\\arm-none-eabi\\include\\machine\\_
 7042              		.file 4 "c:\\program files\\gnu tools arm embedded\\4.9 2014q4\\arm-none-eabi\\include\\stdint.h"
 7043              		.file 5 "../../../ext/mbedtls-1.3.11/library/../include/polarssl/sha256.h"
 7044              		.file 6 "c:\\program files\\gnu tools arm embedded\\4.9 2014q4\\arm-none-eabi\\include\\sys\\lock.
 7045              		.file 7 "c:\\program files\\gnu tools arm embedded\\4.9 2014q4\\arm-none-eabi\\include\\sys\\_type
 7046              		.file 8 "c:\\program files\\gnu tools arm embedded\\4.9 2014q4\\arm-none-eabi\\include\\sys\\reent
 7047              		.file 9 "c:\\program files\\gnu tools arm embedded\\4.9 2014q4\\arm-none-eabi\\include\\stdio.h"
 7048              		.file 10 "c:\\program files\\gnu tools arm embedded\\4.9 2014q4\\arm-none-eabi\\include\\string.h"
 7049              		.file 11 "<built-in>"
 7050              		.section	.debug_info,"",%progbits
 7051              	.Ldebug_info0:
 7052 0000 201F0000 		.4byte	0x1f20
 7053 0004 0400     		.2byte	0x4
 7054 0006 00000000 		.4byte	.Ldebug_abbrev0
 7055 000a 04       		.byte	0x4
 7056 000b 01       		.uleb128 0x1
 7057 000c A6030000 		.4byte	.LASF178
 7058 0010 01       		.byte	0x1
 7059 0011 F1070000 		.4byte	.LASF179
 7060 0015 F3000000 		.4byte	.LASF180
 7061 0019 B8010000 		.4byte	.Ldebug_ranges0+0x1b8
 7062 001d 00000000 		.4byte	0
 7063 0021 00000000 		.4byte	.Ldebug_line0
 7064 0025 02       		.uleb128 0x2
 7065 0026 08       		.byte	0x8
 7066 0027 07       		.byte	0x7
 7067 0028 A3000000 		.4byte	.LASF0
 7068 002c 03       		.uleb128 0x3
 7069 002d 04       		.byte	0x4
 7070 002e 05       		.byte	0x5
 7071 002f 696E7400 		.ascii	"int\000"
 7072 0033 02       		.uleb128 0x2
 7073 0034 04       		.byte	0x4
 7074 0035 07       		.byte	0x7
 7075 0036 B3020000 		.4byte	.LASF1
 7076 003a 04       		.uleb128 0x4
 7077 003b 4D000000 		.4byte	.LASF7
 7078 003f 02       		.byte	0x2
 7079 0040 D4       		.byte	0xd4
 7080 0041 33000000 		.4byte	0x33
 7081 0045 02       		.uleb128 0x2
 7082 0046 01       		.byte	0x1
 7083 0047 06       		.byte	0x6
 7084 0048 4F010000 		.4byte	.LASF2
 7085 004c 02       		.uleb128 0x2
 7086 004d 01       		.byte	0x1
 7087 004e 08       		.byte	0x8
 7088 004f 84050000 		.4byte	.LASF3
 7089 0053 02       		.uleb128 0x2
 7090 0054 02       		.byte	0x2
 7091 0055 05       		.byte	0x5
ARM GAS  C:\Users\jo\AppData\Local\Temp\ccDsJqTW.s 			page 128


 7092 0056 A0050000 		.4byte	.LASF4
 7093 005a 02       		.uleb128 0x2
 7094 005b 02       		.byte	0x2
 7095 005c 07       		.byte	0x7
 7096 005d 1B030000 		.4byte	.LASF5
 7097 0061 02       		.uleb128 0x2
 7098 0062 04       		.byte	0x4
 7099 0063 05       		.byte	0x5
 7100 0064 AF010000 		.4byte	.LASF6
 7101 0068 04       		.uleb128 0x4
 7102 0069 44020000 		.4byte	.LASF8
 7103 006d 03       		.byte	0x3
 7104 006e 41       		.byte	0x41
 7105 006f 73000000 		.4byte	0x73
 7106 0073 02       		.uleb128 0x2
 7107 0074 04       		.byte	0x4
 7108 0075 07       		.byte	0x7
 7109 0076 E5020000 		.4byte	.LASF9
 7110 007a 02       		.uleb128 0x2
 7111 007b 08       		.byte	0x8
 7112 007c 05       		.byte	0x5
 7113 007d 41010000 		.4byte	.LASF10
 7114 0081 04       		.uleb128 0x4
 7115 0082 5B060000 		.4byte	.LASF11
 7116 0086 04       		.byte	0x4
 7117 0087 2D       		.byte	0x2d
 7118 0088 68000000 		.4byte	0x68
 7119 008c 05       		.uleb128 0x5
 7120 008d EC       		.byte	0xec
 7121 008e 05       		.byte	0x5
 7122 008f 37       		.byte	0x37
 7123 0090 DD000000 		.4byte	0xdd
 7124 0094 06       		.uleb128 0x6
 7125 0095 A0030000 		.4byte	.LASF12
 7126 0099 05       		.byte	0x5
 7127 009a 39       		.byte	0x39
 7128 009b DD000000 		.4byte	0xdd
 7129 009f 00       		.byte	0
 7130 00a0 06       		.uleb128 0x6
 7131 00a1 A9010000 		.4byte	.LASF13
 7132 00a5 05       		.byte	0x5
 7133 00a6 3A       		.byte	0x3a
 7134 00a7 F4000000 		.4byte	0xf4
 7135 00ab 08       		.byte	0x8
 7136 00ac 06       		.uleb128 0x6
 7137 00ad A1060000 		.4byte	.LASF14
 7138 00b1 05       		.byte	0x5
 7139 00b2 3B       		.byte	0x3b
 7140 00b3 04010000 		.4byte	0x104
 7141 00b7 28       		.byte	0x28
 7142 00b8 06       		.uleb128 0x6
 7143 00b9 7A050000 		.4byte	.LASF15
 7144 00bd 05       		.byte	0x5
 7145 00be 3D       		.byte	0x3d
 7146 00bf 04010000 		.4byte	0x104
 7147 00c3 68       		.byte	0x68
 7148 00c4 06       		.uleb128 0x6
ARM GAS  C:\Users\jo\AppData\Local\Temp\ccDsJqTW.s 			page 129


 7149 00c5 79030000 		.4byte	.LASF16
 7150 00c9 05       		.byte	0x5
 7151 00ca 3E       		.byte	0x3e
 7152 00cb 04010000 		.4byte	0x104
 7153 00cf A8       		.byte	0xa8
 7154 00d0 06       		.uleb128 0x6
 7155 00d1 7E030000 		.4byte	.LASF17
 7156 00d5 05       		.byte	0x5
 7157 00d6 3F       		.byte	0x3f
 7158 00d7 2C000000 		.4byte	0x2c
 7159 00db E8       		.byte	0xe8
 7160 00dc 00       		.byte	0
 7161 00dd 07       		.uleb128 0x7
 7162 00de 81000000 		.4byte	0x81
 7163 00e2 ED000000 		.4byte	0xed
 7164 00e6 08       		.uleb128 0x8
 7165 00e7 ED000000 		.4byte	0xed
 7166 00eb 01       		.byte	0x1
 7167 00ec 00       		.byte	0
 7168 00ed 02       		.uleb128 0x2
 7169 00ee 04       		.byte	0x4
 7170 00ef 07       		.byte	0x7
 7171 00f0 D1040000 		.4byte	.LASF18
 7172 00f4 07       		.uleb128 0x7
 7173 00f5 81000000 		.4byte	0x81
 7174 00f9 04010000 		.4byte	0x104
 7175 00fd 08       		.uleb128 0x8
 7176 00fe ED000000 		.4byte	0xed
 7177 0102 07       		.byte	0x7
 7178 0103 00       		.byte	0
 7179 0104 07       		.uleb128 0x7
 7180 0105 4C000000 		.4byte	0x4c
 7181 0109 14010000 		.4byte	0x114
 7182 010d 08       		.uleb128 0x8
 7183 010e ED000000 		.4byte	0xed
 7184 0112 3F       		.byte	0x3f
 7185 0113 00       		.byte	0
 7186 0114 04       		.uleb128 0x4
 7187 0115 91040000 		.4byte	.LASF19
 7188 0119 05       		.byte	0x5
 7189 011a 41       		.byte	0x41
 7190 011b 8C000000 		.4byte	0x8c
 7191 011f 04       		.uleb128 0x4
 7192 0120 68050000 		.4byte	.LASF20
 7193 0124 06       		.byte	0x6
 7194 0125 07       		.byte	0x7
 7195 0126 2C000000 		.4byte	0x2c
 7196 012a 04       		.uleb128 0x4
 7197 012b 37050000 		.4byte	.LASF21
 7198 012f 07       		.byte	0x7
 7199 0130 10       		.byte	0x10
 7200 0131 61000000 		.4byte	0x61
 7201 0135 04       		.uleb128 0x4
 7202 0136 76060000 		.4byte	.LASF22
 7203 013a 07       		.byte	0x7
 7204 013b 27       		.byte	0x27
 7205 013c 61000000 		.4byte	0x61
ARM GAS  C:\Users\jo\AppData\Local\Temp\ccDsJqTW.s 			page 130


 7206 0140 09       		.uleb128 0x9
 7207 0141 84030000 		.4byte	.LASF23
 7208 0145 02       		.byte	0x2
 7209 0146 6101     		.2byte	0x161
 7210 0148 33000000 		.4byte	0x33
 7211 014c 0A       		.uleb128 0xa
 7212 014d 04       		.byte	0x4
 7213 014e 07       		.byte	0x7
 7214 014f 4A       		.byte	0x4a
 7215 0150 6B010000 		.4byte	0x16b
 7216 0154 0B       		.uleb128 0xb
 7217 0155 73030000 		.4byte	.LASF24
 7218 0159 07       		.byte	0x7
 7219 015a 4C       		.byte	0x4c
 7220 015b 40010000 		.4byte	0x140
 7221 015f 0B       		.uleb128 0xb
 7222 0160 C0020000 		.4byte	.LASF25
 7223 0164 07       		.byte	0x7
 7224 0165 4D       		.byte	0x4d
 7225 0166 6B010000 		.4byte	0x16b
 7226 016a 00       		.byte	0
 7227 016b 07       		.uleb128 0x7
 7228 016c 4C000000 		.4byte	0x4c
 7229 0170 7B010000 		.4byte	0x17b
 7230 0174 08       		.uleb128 0x8
 7231 0175 ED000000 		.4byte	0xed
 7232 0179 03       		.byte	0x3
 7233 017a 00       		.byte	0
 7234 017b 05       		.uleb128 0x5
 7235 017c 08       		.byte	0x8
 7236 017d 07       		.byte	0x7
 7237 017e 47       		.byte	0x47
 7238 017f 9C010000 		.4byte	0x19c
 7239 0183 06       		.uleb128 0x6
 7240 0184 53060000 		.4byte	.LASF26
 7241 0188 07       		.byte	0x7
 7242 0189 49       		.byte	0x49
 7243 018a 2C000000 		.4byte	0x2c
 7244 018e 00       		.byte	0
 7245 018f 06       		.uleb128 0x6
 7246 0190 D4060000 		.4byte	.LASF27
 7247 0194 07       		.byte	0x7
 7248 0195 4E       		.byte	0x4e
 7249 0196 4C010000 		.4byte	0x14c
 7250 019a 04       		.byte	0x4
 7251 019b 00       		.byte	0
 7252 019c 04       		.uleb128 0x4
 7253 019d CE050000 		.4byte	.LASF28
 7254 01a1 07       		.byte	0x7
 7255 01a2 4F       		.byte	0x4f
 7256 01a3 7B010000 		.4byte	0x17b
 7257 01a7 04       		.uleb128 0x4
 7258 01a8 65020000 		.4byte	.LASF29
 7259 01ac 07       		.byte	0x7
 7260 01ad 53       		.byte	0x53
 7261 01ae 1F010000 		.4byte	0x11f
 7262 01b2 0C       		.uleb128 0xc
ARM GAS  C:\Users\jo\AppData\Local\Temp\ccDsJqTW.s 			page 131


 7263 01b3 04       		.byte	0x4
 7264 01b4 04       		.uleb128 0x4
 7265 01b5 EA060000 		.4byte	.LASF30
 7266 01b9 08       		.byte	0x8
 7267 01ba 16       		.byte	0x16
 7268 01bb 73000000 		.4byte	0x73
 7269 01bf 0D       		.uleb128 0xd
 7270 01c0 76020000 		.4byte	.LASF35
 7271 01c4 18       		.byte	0x18
 7272 01c5 08       		.byte	0x8
 7273 01c6 2D       		.byte	0x2d
 7274 01c7 12020000 		.4byte	0x212
 7275 01cb 06       		.uleb128 0x6
 7276 01cc C1060000 		.4byte	.LASF31
 7277 01d0 08       		.byte	0x8
 7278 01d1 2F       		.byte	0x2f
 7279 01d2 12020000 		.4byte	0x212
 7280 01d6 00       		.byte	0
 7281 01d7 0E       		.uleb128 0xe
 7282 01d8 5F6B00   		.ascii	"_k\000"
 7283 01db 08       		.byte	0x8
 7284 01dc 30       		.byte	0x30
 7285 01dd 2C000000 		.4byte	0x2c
 7286 01e1 04       		.byte	0x4
 7287 01e2 06       		.uleb128 0x6
 7288 01e3 3E060000 		.4byte	.LASF32
 7289 01e7 08       		.byte	0x8
 7290 01e8 30       		.byte	0x30
 7291 01e9 2C000000 		.4byte	0x2c
 7292 01ed 08       		.byte	0x8
 7293 01ee 06       		.uleb128 0x6
 7294 01ef 4F020000 		.4byte	.LASF33
 7295 01f3 08       		.byte	0x8
 7296 01f4 30       		.byte	0x30
 7297 01f5 2C000000 		.4byte	0x2c
 7298 01f9 0C       		.byte	0xc
 7299 01fa 06       		.uleb128 0x6
 7300 01fb 52070000 		.4byte	.LASF34
 7301 01ff 08       		.byte	0x8
 7302 0200 30       		.byte	0x30
 7303 0201 2C000000 		.4byte	0x2c
 7304 0205 10       		.byte	0x10
 7305 0206 0E       		.uleb128 0xe
 7306 0207 5F7800   		.ascii	"_x\000"
 7307 020a 08       		.byte	0x8
 7308 020b 31       		.byte	0x31
 7309 020c 18020000 		.4byte	0x218
 7310 0210 14       		.byte	0x14
 7311 0211 00       		.byte	0
 7312 0212 0F       		.uleb128 0xf
 7313 0213 04       		.byte	0x4
 7314 0214 BF010000 		.4byte	0x1bf
 7315 0218 07       		.uleb128 0x7
 7316 0219 B4010000 		.4byte	0x1b4
 7317 021d 28020000 		.4byte	0x228
 7318 0221 08       		.uleb128 0x8
 7319 0222 ED000000 		.4byte	0xed
ARM GAS  C:\Users\jo\AppData\Local\Temp\ccDsJqTW.s 			page 132


 7320 0226 00       		.byte	0
 7321 0227 00       		.byte	0
 7322 0228 0D       		.uleb128 0xd
 7323 0229 AE020000 		.4byte	.LASF36
 7324 022d 24       		.byte	0x24
 7325 022e 08       		.byte	0x8
 7326 022f 35       		.byte	0x35
 7327 0230 A1020000 		.4byte	0x2a1
 7328 0234 06       		.uleb128 0x6
 7329 0235 49070000 		.4byte	.LASF37
 7330 0239 08       		.byte	0x8
 7331 023a 37       		.byte	0x37
 7332 023b 2C000000 		.4byte	0x2c
 7333 023f 00       		.byte	0
 7334 0240 06       		.uleb128 0x6
 7335 0241 90060000 		.4byte	.LASF38
 7336 0245 08       		.byte	0x8
 7337 0246 38       		.byte	0x38
 7338 0247 2C000000 		.4byte	0x2c
 7339 024b 04       		.byte	0x4
 7340 024c 06       		.uleb128 0x6
 7341 024d 75010000 		.4byte	.LASF39
 7342 0251 08       		.byte	0x8
 7343 0252 39       		.byte	0x39
 7344 0253 2C000000 		.4byte	0x2c
 7345 0257 08       		.byte	0x8
 7346 0258 06       		.uleb128 0x6
 7347 0259 49080000 		.4byte	.LASF40
 7348 025d 08       		.byte	0x8
 7349 025e 3A       		.byte	0x3a
 7350 025f 2C000000 		.4byte	0x2c
 7351 0263 0C       		.byte	0xc
 7352 0264 06       		.uleb128 0x6
 7353 0265 03050000 		.4byte	.LASF41
 7354 0269 08       		.byte	0x8
 7355 026a 3B       		.byte	0x3b
 7356 026b 2C000000 		.4byte	0x2c
 7357 026f 10       		.byte	0x10
 7358 0270 06       		.uleb128 0x6
 7359 0271 87040000 		.4byte	.LASF42
 7360 0275 08       		.byte	0x8
 7361 0276 3C       		.byte	0x3c
 7362 0277 2C000000 		.4byte	0x2c
 7363 027b 14       		.byte	0x14
 7364 027c 06       		.uleb128 0x6
 7365 027d 57070000 		.4byte	.LASF43
 7366 0281 08       		.byte	0x8
 7367 0282 3D       		.byte	0x3d
 7368 0283 2C000000 		.4byte	0x2c
 7369 0287 18       		.byte	0x18
 7370 0288 06       		.uleb128 0x6
 7371 0289 AA050000 		.4byte	.LASF44
 7372 028d 08       		.byte	0x8
 7373 028e 3E       		.byte	0x3e
 7374 028f 2C000000 		.4byte	0x2c
 7375 0293 1C       		.byte	0x1c
 7376 0294 06       		.uleb128 0x6
ARM GAS  C:\Users\jo\AppData\Local\Temp\ccDsJqTW.s 			page 133


 7377 0295 97070000 		.4byte	.LASF45
 7378 0299 08       		.byte	0x8
 7379 029a 3F       		.byte	0x3f
 7380 029b 2C000000 		.4byte	0x2c
 7381 029f 20       		.byte	0x20
 7382 02a0 00       		.byte	0
 7383 02a1 10       		.uleb128 0x10
 7384 02a2 84010000 		.4byte	.LASF46
 7385 02a6 0801     		.2byte	0x108
 7386 02a8 08       		.byte	0x8
 7387 02a9 48       		.byte	0x48
 7388 02aa E1020000 		.4byte	0x2e1
 7389 02ae 06       		.uleb128 0x6
 7390 02af 1D020000 		.4byte	.LASF47
 7391 02b3 08       		.byte	0x8
 7392 02b4 49       		.byte	0x49
 7393 02b5 E1020000 		.4byte	0x2e1
 7394 02b9 00       		.byte	0
 7395 02ba 06       		.uleb128 0x6
 7396 02bb 00000000 		.4byte	.LASF48
 7397 02bf 08       		.byte	0x8
 7398 02c0 4A       		.byte	0x4a
 7399 02c1 E1020000 		.4byte	0x2e1
 7400 02c5 80       		.byte	0x80
 7401 02c6 11       		.uleb128 0x11
 7402 02c7 DC060000 		.4byte	.LASF49
 7403 02cb 08       		.byte	0x8
 7404 02cc 4C       		.byte	0x4c
 7405 02cd B4010000 		.4byte	0x1b4
 7406 02d1 0001     		.2byte	0x100
 7407 02d3 11       		.uleb128 0x11
 7408 02d4 BF010000 		.4byte	.LASF50
 7409 02d8 08       		.byte	0x8
 7410 02d9 4F       		.byte	0x4f
 7411 02da B4010000 		.4byte	0x1b4
 7412 02de 0401     		.2byte	0x104
 7413 02e0 00       		.byte	0
 7414 02e1 07       		.uleb128 0x7
 7415 02e2 B2010000 		.4byte	0x1b2
 7416 02e6 F1020000 		.4byte	0x2f1
 7417 02ea 08       		.uleb128 0x8
 7418 02eb ED000000 		.4byte	0xed
 7419 02ef 1F       		.byte	0x1f
 7420 02f0 00       		.byte	0
 7421 02f1 10       		.uleb128 0x10
 7422 02f2 0C050000 		.4byte	.LASF51
 7423 02f6 9001     		.2byte	0x190
 7424 02f8 08       		.byte	0x8
 7425 02f9 5B       		.byte	0x5b
 7426 02fa 2F030000 		.4byte	0x32f
 7427 02fe 06       		.uleb128 0x6
 7428 02ff C1060000 		.4byte	.LASF31
 7429 0303 08       		.byte	0x8
 7430 0304 5C       		.byte	0x5c
 7431 0305 2F030000 		.4byte	0x32f
 7432 0309 00       		.byte	0
 7433 030a 06       		.uleb128 0x6
ARM GAS  C:\Users\jo\AppData\Local\Temp\ccDsJqTW.s 			page 134


 7434 030b 07060000 		.4byte	.LASF52
 7435 030f 08       		.byte	0x8
 7436 0310 5D       		.byte	0x5d
 7437 0311 2C000000 		.4byte	0x2c
 7438 0315 04       		.byte	0x4
 7439 0316 06       		.uleb128 0x6
 7440 0317 3F020000 		.4byte	.LASF53
 7441 031b 08       		.byte	0x8
 7442 031c 5F       		.byte	0x5f
 7443 031d 35030000 		.4byte	0x335
 7444 0321 08       		.byte	0x8
 7445 0322 06       		.uleb128 0x6
 7446 0323 84010000 		.4byte	.LASF46
 7447 0327 08       		.byte	0x8
 7448 0328 60       		.byte	0x60
 7449 0329 A1020000 		.4byte	0x2a1
 7450 032d 88       		.byte	0x88
 7451 032e 00       		.byte	0
 7452 032f 0F       		.uleb128 0xf
 7453 0330 04       		.byte	0x4
 7454 0331 F1020000 		.4byte	0x2f1
 7455 0335 07       		.uleb128 0x7
 7456 0336 45030000 		.4byte	0x345
 7457 033a 45030000 		.4byte	0x345
 7458 033e 08       		.uleb128 0x8
 7459 033f ED000000 		.4byte	0xed
 7460 0343 1F       		.byte	0x1f
 7461 0344 00       		.byte	0
 7462 0345 0F       		.uleb128 0xf
 7463 0346 04       		.byte	0x4
 7464 0347 4B030000 		.4byte	0x34b
 7465 034b 12       		.uleb128 0x12
 7466 034c 0D       		.uleb128 0xd
 7467 034d B4050000 		.4byte	.LASF54
 7468 0351 08       		.byte	0x8
 7469 0352 08       		.byte	0x8
 7470 0353 73       		.byte	0x73
 7471 0354 71030000 		.4byte	0x371
 7472 0358 06       		.uleb128 0x6
 7473 0359 6F010000 		.4byte	.LASF55
 7474 035d 08       		.byte	0x8
 7475 035e 74       		.byte	0x74
 7476 035f 71030000 		.4byte	0x371
 7477 0363 00       		.byte	0
 7478 0364 06       		.uleb128 0x6
 7479 0365 2F000000 		.4byte	.LASF56
 7480 0369 08       		.byte	0x8
 7481 036a 75       		.byte	0x75
 7482 036b 2C000000 		.4byte	0x2c
 7483 036f 04       		.byte	0x4
 7484 0370 00       		.byte	0
 7485 0371 0F       		.uleb128 0xf
 7486 0372 04       		.byte	0x4
 7487 0373 4C000000 		.4byte	0x4c
 7488 0377 0D       		.uleb128 0xd
 7489 0378 D9050000 		.4byte	.LASF57
 7490 037c 68       		.byte	0x68
ARM GAS  C:\Users\jo\AppData\Local\Temp\ccDsJqTW.s 			page 135


 7491 037d 08       		.byte	0x8
 7492 037e B3       		.byte	0xb3
 7493 037f A1040000 		.4byte	0x4a1
 7494 0383 0E       		.uleb128 0xe
 7495 0384 5F7000   		.ascii	"_p\000"
 7496 0387 08       		.byte	0x8
 7497 0388 B4       		.byte	0xb4
 7498 0389 71030000 		.4byte	0x371
 7499 038d 00       		.byte	0
 7500 038e 0E       		.uleb128 0xe
 7501 038f 5F7200   		.ascii	"_r\000"
 7502 0392 08       		.byte	0x8
 7503 0393 B5       		.byte	0xb5
 7504 0394 2C000000 		.4byte	0x2c
 7505 0398 04       		.byte	0x4
 7506 0399 0E       		.uleb128 0xe
 7507 039a 5F7700   		.ascii	"_w\000"
 7508 039d 08       		.byte	0x8
 7509 039e B6       		.byte	0xb6
 7510 039f 2C000000 		.4byte	0x2c
 7511 03a3 08       		.byte	0x8
 7512 03a4 06       		.uleb128 0x6
 7513 03a5 B8010000 		.4byte	.LASF58
 7514 03a9 08       		.byte	0x8
 7515 03aa B7       		.byte	0xb7
 7516 03ab 53000000 		.4byte	0x53
 7517 03af 0C       		.byte	0xc
 7518 03b0 06       		.uleb128 0x6
 7519 03b1 F7020000 		.4byte	.LASF59
 7520 03b5 08       		.byte	0x8
 7521 03b6 B8       		.byte	0xb8
 7522 03b7 53000000 		.4byte	0x53
 7523 03bb 0E       		.byte	0xe
 7524 03bc 0E       		.uleb128 0xe
 7525 03bd 5F626600 		.ascii	"_bf\000"
 7526 03c1 08       		.byte	0x8
 7527 03c2 B9       		.byte	0xb9
 7528 03c3 4C030000 		.4byte	0x34c
 7529 03c7 10       		.byte	0x10
 7530 03c8 06       		.uleb128 0x6
 7531 03c9 BA000000 		.4byte	.LASF60
 7532 03cd 08       		.byte	0x8
 7533 03ce BA       		.byte	0xba
 7534 03cf 2C000000 		.4byte	0x2c
 7535 03d3 18       		.byte	0x18
 7536 03d4 06       		.uleb128 0x6
 7537 03d5 99010000 		.4byte	.LASF61
 7538 03d9 08       		.byte	0x8
 7539 03da C1       		.byte	0xc1
 7540 03db B2010000 		.4byte	0x1b2
 7541 03df 1C       		.byte	0x1c
 7542 03e0 06       		.uleb128 0x6
 7543 03e1 9E020000 		.4byte	.LASF62
 7544 03e5 08       		.byte	0x8
 7545 03e6 C3       		.byte	0xc3
 7546 03e7 04060000 		.4byte	0x604
 7547 03eb 20       		.byte	0x20
ARM GAS  C:\Users\jo\AppData\Local\Temp\ccDsJqTW.s 			page 136


 7548 03ec 06       		.uleb128 0x6
 7549 03ed 80040000 		.4byte	.LASF63
 7550 03f1 08       		.byte	0x8
 7551 03f2 C5       		.byte	0xc5
 7552 03f3 33060000 		.4byte	0x633
 7553 03f7 24       		.byte	0x24
 7554 03f8 06       		.uleb128 0x6
 7555 03f9 64060000 		.4byte	.LASF64
 7556 03fd 08       		.byte	0x8
 7557 03fe C8       		.byte	0xc8
 7558 03ff 57060000 		.4byte	0x657
 7559 0403 28       		.byte	0x28
 7560 0404 06       		.uleb128 0x6
 7561 0405 B1070000 		.4byte	.LASF65
 7562 0409 08       		.byte	0x8
 7563 040a C9       		.byte	0xc9
 7564 040b 71060000 		.4byte	0x671
 7565 040f 2C       		.byte	0x2c
 7566 0410 0E       		.uleb128 0xe
 7567 0411 5F756200 		.ascii	"_ub\000"
 7568 0415 08       		.byte	0x8
 7569 0416 CC       		.byte	0xcc
 7570 0417 4C030000 		.4byte	0x34c
 7571 041b 30       		.byte	0x30
 7572 041c 0E       		.uleb128 0xe
 7573 041d 5F757000 		.ascii	"_up\000"
 7574 0421 08       		.byte	0x8
 7575 0422 CD       		.byte	0xcd
 7576 0423 71030000 		.4byte	0x371
 7577 0427 38       		.byte	0x38
 7578 0428 0E       		.uleb128 0xe
 7579 0429 5F757200 		.ascii	"_ur\000"
 7580 042d 08       		.byte	0x8
 7581 042e CE       		.byte	0xce
 7582 042f 2C000000 		.4byte	0x2c
 7583 0433 3C       		.byte	0x3c
 7584 0434 06       		.uleb128 0x6
 7585 0435 69010000 		.4byte	.LASF66
 7586 0439 08       		.byte	0x8
 7587 043a D1       		.byte	0xd1
 7588 043b 77060000 		.4byte	0x677
 7589 043f 40       		.byte	0x40
 7590 0440 06       		.uleb128 0x6
 7591 0441 89070000 		.4byte	.LASF67
 7592 0445 08       		.byte	0x8
 7593 0446 D2       		.byte	0xd2
 7594 0447 87060000 		.4byte	0x687
 7595 044b 43       		.byte	0x43
 7596 044c 0E       		.uleb128 0xe
 7597 044d 5F6C6200 		.ascii	"_lb\000"
 7598 0451 08       		.byte	0x8
 7599 0452 D5       		.byte	0xd5
 7600 0453 4C030000 		.4byte	0x34c
 7601 0457 44       		.byte	0x44
 7602 0458 06       		.uleb128 0x6
 7603 0459 DD010000 		.4byte	.LASF68
 7604 045d 08       		.byte	0x8
ARM GAS  C:\Users\jo\AppData\Local\Temp\ccDsJqTW.s 			page 137


 7605 045e D8       		.byte	0xd8
 7606 045f 2C000000 		.4byte	0x2c
 7607 0463 4C       		.byte	0x4c
 7608 0464 06       		.uleb128 0x6
 7609 0465 F6010000 		.4byte	.LASF69
 7610 0469 08       		.byte	0x8
 7611 046a D9       		.byte	0xd9
 7612 046b 2A010000 		.4byte	0x12a
 7613 046f 50       		.byte	0x50
 7614 0470 06       		.uleb128 0x6
 7615 0471 67000000 		.4byte	.LASF70
 7616 0475 08       		.byte	0x8
 7617 0476 DC       		.byte	0xdc
 7618 0477 BF040000 		.4byte	0x4bf
 7619 047b 54       		.byte	0x54
 7620 047c 06       		.uleb128 0x6
 7621 047d 92030000 		.4byte	.LASF71
 7622 0481 08       		.byte	0x8
 7623 0482 E0       		.byte	0xe0
 7624 0483 A7010000 		.4byte	0x1a7
 7625 0487 58       		.byte	0x58
 7626 0488 06       		.uleb128 0x6
 7627 0489 E1050000 		.4byte	.LASF72
 7628 048d 08       		.byte	0x8
 7629 048e E2       		.byte	0xe2
 7630 048f 9C010000 		.4byte	0x19c
 7631 0493 5C       		.byte	0x5c
 7632 0494 06       		.uleb128 0x6
 7633 0495 98030000 		.4byte	.LASF73
 7634 0499 08       		.byte	0x8
 7635 049a E3       		.byte	0xe3
 7636 049b 2C000000 		.4byte	0x2c
 7637 049f 64       		.byte	0x64
 7638 04a0 00       		.byte	0
 7639 04a1 13       		.uleb128 0x13
 7640 04a2 2C000000 		.4byte	0x2c
 7641 04a6 BF040000 		.4byte	0x4bf
 7642 04aa 14       		.uleb128 0x14
 7643 04ab BF040000 		.4byte	0x4bf
 7644 04af 14       		.uleb128 0x14
 7645 04b0 B2010000 		.4byte	0x1b2
 7646 04b4 14       		.uleb128 0x14
 7647 04b5 F7050000 		.4byte	0x5f7
 7648 04b9 14       		.uleb128 0x14
 7649 04ba 2C000000 		.4byte	0x2c
 7650 04be 00       		.byte	0
 7651 04bf 0F       		.uleb128 0xf
 7652 04c0 04       		.byte	0x4
 7653 04c1 C5040000 		.4byte	0x4c5
 7654 04c5 15       		.uleb128 0x15
 7655 04c6 46060000 		.4byte	.LASF74
 7656 04ca 2804     		.2byte	0x428
 7657 04cc 08       		.byte	0x8
 7658 04cd 3902     		.2byte	0x239
 7659 04cf F7050000 		.4byte	0x5f7
 7660 04d3 16       		.uleb128 0x16
 7661 04d4 84060000 		.4byte	.LASF75
ARM GAS  C:\Users\jo\AppData\Local\Temp\ccDsJqTW.s 			page 138


 7662 04d8 08       		.byte	0x8
 7663 04d9 3B02     		.2byte	0x23b
 7664 04db 2C000000 		.4byte	0x2c
 7665 04df 00       		.byte	0
 7666 04e0 16       		.uleb128 0x16
 7667 04e1 C7010000 		.4byte	.LASF76
 7668 04e5 08       		.byte	0x8
 7669 04e6 4002     		.2byte	0x240
 7670 04e8 DE060000 		.4byte	0x6de
 7671 04ec 04       		.byte	0x4
 7672 04ed 16       		.uleb128 0x16
 7673 04ee C7020000 		.4byte	.LASF77
 7674 04f2 08       		.byte	0x8
 7675 04f3 4002     		.2byte	0x240
 7676 04f5 DE060000 		.4byte	0x6de
 7677 04f9 08       		.byte	0x8
 7678 04fa 16       		.uleb128 0x16
 7679 04fb 6E020000 		.4byte	.LASF78
 7680 04ff 08       		.byte	0x8
 7681 0500 4002     		.2byte	0x240
 7682 0502 DE060000 		.4byte	0x6de
 7683 0506 0C       		.byte	0xc
 7684 0507 16       		.uleb128 0x16
 7685 0508 02060000 		.4byte	.LASF79
 7686 050c 08       		.byte	0x8
 7687 050d 4202     		.2byte	0x242
 7688 050f 2C000000 		.4byte	0x2c
 7689 0513 10       		.byte	0x10
 7690 0514 16       		.uleb128 0x16
 7691 0515 5C000000 		.4byte	.LASF80
 7692 0519 08       		.byte	0x8
 7693 051a 4302     		.2byte	0x243
 7694 051c C0080000 		.4byte	0x8c0
 7695 0520 14       		.byte	0x14
 7696 0521 16       		.uleb128 0x16
 7697 0522 FF060000 		.4byte	.LASF81
 7698 0526 08       		.byte	0x8
 7699 0527 4502     		.2byte	0x245
 7700 0529 2C000000 		.4byte	0x2c
 7701 052d 30       		.byte	0x30
 7702 052e 16       		.uleb128 0x16
 7703 052f 0C060000 		.4byte	.LASF82
 7704 0533 08       		.byte	0x8
 7705 0534 4602     		.2byte	0x246
 7706 0536 28060000 		.4byte	0x628
 7707 053a 34       		.byte	0x34
 7708 053b 16       		.uleb128 0x16
 7709 053c 2C050000 		.4byte	.LASF83
 7710 0540 08       		.byte	0x8
 7711 0541 4802     		.2byte	0x248
 7712 0543 2C000000 		.4byte	0x2c
 7713 0547 38       		.byte	0x38
 7714 0548 16       		.uleb128 0x16
 7715 0549 28060000 		.4byte	.LASF84
 7716 054d 08       		.byte	0x8
 7717 054e 4A02     		.2byte	0x24a
 7718 0550 DB080000 		.4byte	0x8db
ARM GAS  C:\Users\jo\AppData\Local\Temp\ccDsJqTW.s 			page 139


 7719 0554 3C       		.byte	0x3c
 7720 0555 16       		.uleb128 0x16
 7721 0556 6B030000 		.4byte	.LASF85
 7722 055a 08       		.byte	0x8
 7723 055b 4D02     		.2byte	0x24d
 7724 055d 12020000 		.4byte	0x212
 7725 0561 40       		.byte	0x40
 7726 0562 16       		.uleb128 0x16
 7727 0563 A4020000 		.4byte	.LASF86
 7728 0567 08       		.byte	0x8
 7729 0568 4E02     		.2byte	0x24e
 7730 056a 2C000000 		.4byte	0x2c
 7731 056e 44       		.byte	0x44
 7732 056f 16       		.uleb128 0x16
 7733 0570 EC070000 		.4byte	.LASF87
 7734 0574 08       		.byte	0x8
 7735 0575 4F02     		.2byte	0x24f
 7736 0577 12020000 		.4byte	0x212
 7737 057b 48       		.byte	0x48
 7738 057c 16       		.uleb128 0x16
 7739 057d 5E050000 		.4byte	.LASF88
 7740 0581 08       		.byte	0x8
 7741 0582 5002     		.2byte	0x250
 7742 0584 E1080000 		.4byte	0x8e1
 7743 0588 4C       		.byte	0x4c
 7744 0589 16       		.uleb128 0x16
 7745 058a CF020000 		.4byte	.LASF89
 7746 058e 08       		.byte	0x8
 7747 058f 5302     		.2byte	0x253
 7748 0591 2C000000 		.4byte	0x2c
 7749 0595 50       		.byte	0x50
 7750 0596 16       		.uleb128 0x16
 7751 0597 EE010000 		.4byte	.LASF90
 7752 059b 08       		.byte	0x8
 7753 059c 5402     		.2byte	0x254
 7754 059e F7050000 		.4byte	0x5f7
 7755 05a2 54       		.byte	0x54
 7756 05a3 16       		.uleb128 0x16
 7757 05a4 92050000 		.4byte	.LASF91
 7758 05a8 08       		.byte	0x8
 7759 05a9 7702     		.2byte	0x277
 7760 05ab 9E080000 		.4byte	0x89e
 7761 05af 58       		.byte	0x58
 7762 05b0 17       		.uleb128 0x17
 7763 05b1 0C050000 		.4byte	.LASF51
 7764 05b5 08       		.byte	0x8
 7765 05b6 7B02     		.2byte	0x27b
 7766 05b8 2F030000 		.4byte	0x32f
 7767 05bc 4801     		.2byte	0x148
 7768 05be 17       		.uleb128 0x17
 7769 05bf 35030000 		.4byte	.LASF92
 7770 05c3 08       		.byte	0x8
 7771 05c4 7C02     		.2byte	0x27c
 7772 05c6 F1020000 		.4byte	0x2f1
 7773 05ca 4C01     		.2byte	0x14c
 7774 05cc 17       		.uleb128 0x17
 7775 05cd 7F070000 		.4byte	.LASF93
ARM GAS  C:\Users\jo\AppData\Local\Temp\ccDsJqTW.s 			page 140


 7776 05d1 08       		.byte	0x8
 7777 05d2 8002     		.2byte	0x280
 7778 05d4 F2080000 		.4byte	0x8f2
 7779 05d8 DC02     		.2byte	0x2dc
 7780 05da 17       		.uleb128 0x17
 7781 05db A1010000 		.4byte	.LASF94
 7782 05df 08       		.byte	0x8
 7783 05e0 8502     		.2byte	0x285
 7784 05e2 A3060000 		.4byte	0x6a3
 7785 05e6 E002     		.2byte	0x2e0
 7786 05e8 17       		.uleb128 0x17
 7787 05e9 7F010000 		.4byte	.LASF95
 7788 05ed 08       		.byte	0x8
 7789 05ee 8602     		.2byte	0x286
 7790 05f0 FE080000 		.4byte	0x8fe
 7791 05f4 EC02     		.2byte	0x2ec
 7792 05f6 00       		.byte	0
 7793 05f7 0F       		.uleb128 0xf
 7794 05f8 04       		.byte	0x4
 7795 05f9 FD050000 		.4byte	0x5fd
 7796 05fd 02       		.uleb128 0x2
 7797 05fe 01       		.byte	0x1
 7798 05ff 08       		.byte	0x8
 7799 0600 8B060000 		.4byte	.LASF96
 7800 0604 0F       		.uleb128 0xf
 7801 0605 04       		.byte	0x4
 7802 0606 A1040000 		.4byte	0x4a1
 7803 060a 13       		.uleb128 0x13
 7804 060b 2C000000 		.4byte	0x2c
 7805 060f 28060000 		.4byte	0x628
 7806 0613 14       		.uleb128 0x14
 7807 0614 BF040000 		.4byte	0x4bf
 7808 0618 14       		.uleb128 0x14
 7809 0619 B2010000 		.4byte	0x1b2
 7810 061d 14       		.uleb128 0x14
 7811 061e 28060000 		.4byte	0x628
 7812 0622 14       		.uleb128 0x14
 7813 0623 2C000000 		.4byte	0x2c
 7814 0627 00       		.byte	0
 7815 0628 0F       		.uleb128 0xf
 7816 0629 04       		.byte	0x4
 7817 062a 2E060000 		.4byte	0x62e
 7818 062e 18       		.uleb128 0x18
 7819 062f FD050000 		.4byte	0x5fd
 7820 0633 0F       		.uleb128 0xf
 7821 0634 04       		.byte	0x4
 7822 0635 0A060000 		.4byte	0x60a
 7823 0639 13       		.uleb128 0x13
 7824 063a 35010000 		.4byte	0x135
 7825 063e 57060000 		.4byte	0x657
 7826 0642 14       		.uleb128 0x14
 7827 0643 BF040000 		.4byte	0x4bf
 7828 0647 14       		.uleb128 0x14
 7829 0648 B2010000 		.4byte	0x1b2
 7830 064c 14       		.uleb128 0x14
 7831 064d 35010000 		.4byte	0x135
 7832 0651 14       		.uleb128 0x14
ARM GAS  C:\Users\jo\AppData\Local\Temp\ccDsJqTW.s 			page 141


 7833 0652 2C000000 		.4byte	0x2c
 7834 0656 00       		.byte	0
 7835 0657 0F       		.uleb128 0xf
 7836 0658 04       		.byte	0x4
 7837 0659 39060000 		.4byte	0x639
 7838 065d 13       		.uleb128 0x13
 7839 065e 2C000000 		.4byte	0x2c
 7840 0662 71060000 		.4byte	0x671
 7841 0666 14       		.uleb128 0x14
 7842 0667 BF040000 		.4byte	0x4bf
 7843 066b 14       		.uleb128 0x14
 7844 066c B2010000 		.4byte	0x1b2
 7845 0670 00       		.byte	0
 7846 0671 0F       		.uleb128 0xf
 7847 0672 04       		.byte	0x4
 7848 0673 5D060000 		.4byte	0x65d
 7849 0677 07       		.uleb128 0x7
 7850 0678 4C000000 		.4byte	0x4c
 7851 067c 87060000 		.4byte	0x687
 7852 0680 08       		.uleb128 0x8
 7853 0681 ED000000 		.4byte	0xed
 7854 0685 02       		.byte	0x2
 7855 0686 00       		.byte	0
 7856 0687 07       		.uleb128 0x7
 7857 0688 4C000000 		.4byte	0x4c
 7858 068c 97060000 		.4byte	0x697
 7859 0690 08       		.uleb128 0x8
 7860 0691 ED000000 		.4byte	0xed
 7861 0695 00       		.byte	0
 7862 0696 00       		.byte	0
 7863 0697 09       		.uleb128 0x9
 7864 0698 C7050000 		.4byte	.LASF97
 7865 069c 08       		.byte	0x8
 7866 069d 1D01     		.2byte	0x11d
 7867 069f 77030000 		.4byte	0x377
 7868 06a3 19       		.uleb128 0x19
 7869 06a4 61070000 		.4byte	.LASF98
 7870 06a8 0C       		.byte	0xc
 7871 06a9 08       		.byte	0x8
 7872 06aa 2101     		.2byte	0x121
 7873 06ac D8060000 		.4byte	0x6d8
 7874 06b0 16       		.uleb128 0x16
 7875 06b1 C1060000 		.4byte	.LASF31
 7876 06b5 08       		.byte	0x8
 7877 06b6 2301     		.2byte	0x123
 7878 06b8 D8060000 		.4byte	0x6d8
 7879 06bc 00       		.byte	0
 7880 06bd 16       		.uleb128 0x16
 7881 06be 0F030000 		.4byte	.LASF99
 7882 06c2 08       		.byte	0x8
 7883 06c3 2401     		.2byte	0x124
 7884 06c5 2C000000 		.4byte	0x2c
 7885 06c9 04       		.byte	0x4
 7886 06ca 16       		.uleb128 0x16
 7887 06cb C1050000 		.4byte	.LASF100
 7888 06cf 08       		.byte	0x8
 7889 06d0 2501     		.2byte	0x125
ARM GAS  C:\Users\jo\AppData\Local\Temp\ccDsJqTW.s 			page 142


 7890 06d2 DE060000 		.4byte	0x6de
 7891 06d6 08       		.byte	0x8
 7892 06d7 00       		.byte	0
 7893 06d8 0F       		.uleb128 0xf
 7894 06d9 04       		.byte	0x4
 7895 06da A3060000 		.4byte	0x6a3
 7896 06de 0F       		.uleb128 0xf
 7897 06df 04       		.byte	0x4
 7898 06e0 97060000 		.4byte	0x697
 7899 06e4 19       		.uleb128 0x19
 7900 06e5 54000000 		.4byte	.LASF101
 7901 06e9 0E       		.byte	0xe
 7902 06ea 08       		.byte	0x8
 7903 06eb 3D01     		.2byte	0x13d
 7904 06ed 19070000 		.4byte	0x719
 7905 06f1 16       		.uleb128 0x16
 7906 06f2 4D060000 		.4byte	.LASF102
 7907 06f6 08       		.byte	0x8
 7908 06f7 3E01     		.2byte	0x13e
 7909 06f9 19070000 		.4byte	0x719
 7910 06fd 00       		.byte	0
 7911 06fe 16       		.uleb128 0x16
 7912 06ff B4060000 		.4byte	.LASF103
 7913 0703 08       		.byte	0x8
 7914 0704 3F01     		.2byte	0x13f
 7915 0706 19070000 		.4byte	0x719
 7916 070a 06       		.byte	0x6
 7917 070b 16       		.uleb128 0x16
 7918 070c E5060000 		.4byte	.LASF104
 7919 0710 08       		.byte	0x8
 7920 0711 4001     		.2byte	0x140
 7921 0713 5A000000 		.4byte	0x5a
 7922 0717 0C       		.byte	0xc
 7923 0718 00       		.byte	0
 7924 0719 07       		.uleb128 0x7
 7925 071a 5A000000 		.4byte	0x5a
 7926 071e 29070000 		.4byte	0x729
 7927 0722 08       		.uleb128 0x8
 7928 0723 ED000000 		.4byte	0xed
 7929 0727 02       		.byte	0x2
 7930 0728 00       		.byte	0
 7931 0729 1A       		.uleb128 0x1a
 7932 072a D0       		.byte	0xd0
 7933 072b 08       		.byte	0x8
 7934 072c 5802     		.2byte	0x258
 7935 072e 2A080000 		.4byte	0x82a
 7936 0732 16       		.uleb128 0x16
 7937 0733 24070000 		.4byte	.LASF105
 7938 0737 08       		.byte	0x8
 7939 0738 5A02     		.2byte	0x25a
 7940 073a 33000000 		.4byte	0x33
 7941 073e 00       		.byte	0
 7942 073f 16       		.uleb128 0x16
 7943 0740 C7060000 		.4byte	.LASF106
 7944 0744 08       		.byte	0x8
 7945 0745 5B02     		.2byte	0x25b
 7946 0747 F7050000 		.4byte	0x5f7
ARM GAS  C:\Users\jo\AppData\Local\Temp\ccDsJqTW.s 			page 143


 7947 074b 04       		.byte	0x4
 7948 074c 16       		.uleb128 0x16
 7949 074d 4A030000 		.4byte	.LASF107
 7950 0751 08       		.byte	0x8
 7951 0752 5C02     		.2byte	0x25c
 7952 0754 2A080000 		.4byte	0x82a
 7953 0758 08       		.byte	0x8
 7954 0759 16       		.uleb128 0x16
 7955 075a A2070000 		.4byte	.LASF108
 7956 075e 08       		.byte	0x8
 7957 075f 5D02     		.2byte	0x25d
 7958 0761 28020000 		.4byte	0x228
 7959 0765 24       		.byte	0x24
 7960 0766 16       		.uleb128 0x16
 7961 0767 7E020000 		.4byte	.LASF109
 7962 076b 08       		.byte	0x8
 7963 076c 5E02     		.2byte	0x25e
 7964 076e 2C000000 		.4byte	0x2c
 7965 0772 48       		.byte	0x48
 7966 0773 16       		.uleb128 0x16
 7967 0774 EA050000 		.4byte	.LASF110
 7968 0778 08       		.byte	0x8
 7969 0779 5F02     		.2byte	0x25f
 7970 077b 25000000 		.4byte	0x25
 7971 077f 50       		.byte	0x50
 7972 0780 16       		.uleb128 0x16
 7973 0781 CD070000 		.4byte	.LASF111
 7974 0785 08       		.byte	0x8
 7975 0786 6002     		.2byte	0x260
 7976 0788 E4060000 		.4byte	0x6e4
 7977 078c 58       		.byte	0x58
 7978 078d 16       		.uleb128 0x16
 7979 078e F5050000 		.4byte	.LASF112
 7980 0792 08       		.byte	0x8
 7981 0793 6102     		.2byte	0x261
 7982 0795 9C010000 		.4byte	0x19c
 7983 0799 68       		.byte	0x68
 7984 079a 16       		.uleb128 0x16
 7985 079b DE070000 		.4byte	.LASF113
 7986 079f 08       		.byte	0x8
 7987 07a0 6202     		.2byte	0x262
 7988 07a2 9C010000 		.4byte	0x19c
 7989 07a6 70       		.byte	0x70
 7990 07a7 16       		.uleb128 0x16
 7991 07a8 E5000000 		.4byte	.LASF114
 7992 07ac 08       		.byte	0x8
 7993 07ad 6302     		.2byte	0x263
 7994 07af 9C010000 		.4byte	0x19c
 7995 07b3 78       		.byte	0x78
 7996 07b4 16       		.uleb128 0x16
 7997 07b5 75070000 		.4byte	.LASF115
 7998 07b9 08       		.byte	0x8
 7999 07ba 6402     		.2byte	0x264
 8000 07bc 3A080000 		.4byte	0x83a
 8001 07c0 80       		.byte	0x80
 8002 07c1 16       		.uleb128 0x16
 8003 07c2 3E030000 		.4byte	.LASF116
ARM GAS  C:\Users\jo\AppData\Local\Temp\ccDsJqTW.s 			page 144


 8004 07c6 08       		.byte	0x8
 8005 07c7 6502     		.2byte	0x265
 8006 07c9 4A080000 		.4byte	0x84a
 8007 07cd 88       		.byte	0x88
 8008 07ce 16       		.uleb128 0x16
 8009 07cf F2060000 		.4byte	.LASF117
 8010 07d3 08       		.byte	0x8
 8011 07d4 6602     		.2byte	0x266
 8012 07d6 2C000000 		.4byte	0x2c
 8013 07da A0       		.byte	0xa0
 8014 07db 16       		.uleb128 0x16
 8015 07dc 0F020000 		.4byte	.LASF118
 8016 07e0 08       		.byte	0x8
 8017 07e1 6702     		.2byte	0x267
 8018 07e3 9C010000 		.4byte	0x19c
 8019 07e7 A4       		.byte	0xa4
 8020 07e8 16       		.uleb128 0x16
 8021 07e9 D6000000 		.4byte	.LASF119
 8022 07ed 08       		.byte	0x8
 8023 07ee 6802     		.2byte	0x268
 8024 07f0 9C010000 		.4byte	0x19c
 8025 07f4 AC       		.byte	0xac
 8026 07f5 16       		.uleb128 0x16
 8027 07f6 FE010000 		.4byte	.LASF120
 8028 07fa 08       		.byte	0x8
 8029 07fb 6902     		.2byte	0x269
 8030 07fd 9C010000 		.4byte	0x19c
 8031 0801 B4       		.byte	0xb4
 8032 0802 16       		.uleb128 0x16
 8033 0803 72000000 		.4byte	.LASF121
 8034 0807 08       		.byte	0x8
 8035 0808 6A02     		.2byte	0x26a
 8036 080a 9C010000 		.4byte	0x19c
 8037 080e BC       		.byte	0xbc
 8038 080f 16       		.uleb128 0x16
 8039 0810 8B000000 		.4byte	.LASF122
 8040 0814 08       		.byte	0x8
 8041 0815 6B02     		.2byte	0x26b
 8042 0817 9C010000 		.4byte	0x19c
 8043 081b C4       		.byte	0xc4
 8044 081c 16       		.uleb128 0x16
 8045 081d 97050000 		.4byte	.LASF123
 8046 0821 08       		.byte	0x8
 8047 0822 6C02     		.2byte	0x26c
 8048 0824 2C000000 		.4byte	0x2c
 8049 0828 CC       		.byte	0xcc
 8050 0829 00       		.byte	0
 8051 082a 07       		.uleb128 0x7
 8052 082b FD050000 		.4byte	0x5fd
 8053 082f 3A080000 		.4byte	0x83a
 8054 0833 08       		.uleb128 0x8
 8055 0834 ED000000 		.4byte	0xed
 8056 0838 19       		.byte	0x19
 8057 0839 00       		.byte	0
 8058 083a 07       		.uleb128 0x7
 8059 083b FD050000 		.4byte	0x5fd
 8060 083f 4A080000 		.4byte	0x84a
ARM GAS  C:\Users\jo\AppData\Local\Temp\ccDsJqTW.s 			page 145


 8061 0843 08       		.uleb128 0x8
 8062 0844 ED000000 		.4byte	0xed
 8063 0848 07       		.byte	0x7
 8064 0849 00       		.byte	0
 8065 084a 07       		.uleb128 0x7
 8066 084b FD050000 		.4byte	0x5fd
 8067 084f 5A080000 		.4byte	0x85a
 8068 0853 08       		.uleb128 0x8
 8069 0854 ED000000 		.4byte	0xed
 8070 0858 17       		.byte	0x17
 8071 0859 00       		.byte	0
 8072 085a 1A       		.uleb128 0x1a
 8073 085b F0       		.byte	0xf0
 8074 085c 08       		.byte	0x8
 8075 085d 7102     		.2byte	0x271
 8076 085f 7E080000 		.4byte	0x87e
 8077 0863 16       		.uleb128 0x16
 8078 0864 F7040000 		.4byte	.LASF124
 8079 0868 08       		.byte	0x8
 8080 0869 7402     		.2byte	0x274
 8081 086b 7E080000 		.4byte	0x87e
 8082 086f 00       		.byte	0
 8083 0870 16       		.uleb128 0x16
 8084 0871 6C070000 		.4byte	.LASF125
 8085 0875 08       		.byte	0x8
 8086 0876 7502     		.2byte	0x275
 8087 0878 8E080000 		.4byte	0x88e
 8088 087c 78       		.byte	0x78
 8089 087d 00       		.byte	0
 8090 087e 07       		.uleb128 0x7
 8091 087f 71030000 		.4byte	0x371
 8092 0883 8E080000 		.4byte	0x88e
 8093 0887 08       		.uleb128 0x8
 8094 0888 ED000000 		.4byte	0xed
 8095 088c 1D       		.byte	0x1d
 8096 088d 00       		.byte	0
 8097 088e 07       		.uleb128 0x7
 8098 088f 33000000 		.4byte	0x33
 8099 0893 9E080000 		.4byte	0x89e
 8100 0897 08       		.uleb128 0x8
 8101 0898 ED000000 		.4byte	0xed
 8102 089c 1D       		.byte	0x1d
 8103 089d 00       		.byte	0
 8104 089e 1B       		.uleb128 0x1b
 8105 089f F0       		.byte	0xf0
 8106 08a0 08       		.byte	0x8
 8107 08a1 5602     		.2byte	0x256
 8108 08a3 C0080000 		.4byte	0x8c0
 8109 08a7 1C       		.uleb128 0x1c
 8110 08a8 46060000 		.4byte	.LASF74
 8111 08ac 08       		.byte	0x8
 8112 08ad 6D02     		.2byte	0x26d
 8113 08af 29070000 		.4byte	0x729
 8114 08b3 1C       		.uleb128 0x1c
 8115 08b4 8F070000 		.4byte	.LASF126
 8116 08b8 08       		.byte	0x8
 8117 08b9 7602     		.2byte	0x276
ARM GAS  C:\Users\jo\AppData\Local\Temp\ccDsJqTW.s 			page 146


 8118 08bb 5A080000 		.4byte	0x85a
 8119 08bf 00       		.byte	0
 8120 08c0 07       		.uleb128 0x7
 8121 08c1 FD050000 		.4byte	0x5fd
 8122 08c5 D0080000 		.4byte	0x8d0
 8123 08c9 08       		.uleb128 0x8
 8124 08ca ED000000 		.4byte	0xed
 8125 08ce 18       		.byte	0x18
 8126 08cf 00       		.byte	0
 8127 08d0 1D       		.uleb128 0x1d
 8128 08d1 DB080000 		.4byte	0x8db
 8129 08d5 14       		.uleb128 0x14
 8130 08d6 BF040000 		.4byte	0x4bf
 8131 08da 00       		.byte	0
 8132 08db 0F       		.uleb128 0xf
 8133 08dc 04       		.byte	0x4
 8134 08dd D0080000 		.4byte	0x8d0
 8135 08e1 0F       		.uleb128 0xf
 8136 08e2 04       		.byte	0x4
 8137 08e3 12020000 		.4byte	0x212
 8138 08e7 1D       		.uleb128 0x1d
 8139 08e8 F2080000 		.4byte	0x8f2
 8140 08ec 14       		.uleb128 0x14
 8141 08ed 2C000000 		.4byte	0x2c
 8142 08f1 00       		.byte	0
 8143 08f2 0F       		.uleb128 0xf
 8144 08f3 04       		.byte	0x4
 8145 08f4 F8080000 		.4byte	0x8f8
 8146 08f8 0F       		.uleb128 0xf
 8147 08f9 04       		.byte	0x4
 8148 08fa E7080000 		.4byte	0x8e7
 8149 08fe 07       		.uleb128 0x7
 8150 08ff 97060000 		.4byte	0x697
 8151 0903 0E090000 		.4byte	0x90e
 8152 0907 08       		.uleb128 0x8
 8153 0908 ED000000 		.4byte	0xed
 8154 090c 02       		.byte	0x2
 8155 090d 00       		.byte	0
 8156 090e 04       		.uleb128 0x4
 8157 090f 32060000 		.4byte	.LASF127
 8158 0913 09       		.byte	0x9
 8159 0914 34       		.byte	0x34
 8160 0915 97060000 		.4byte	0x697
 8161 0919 0F       		.uleb128 0xf
 8162 091a 04       		.byte	0x4
 8163 091b 1F090000 		.4byte	0x91f
 8164 091f 1E       		.uleb128 0x1e
 8165 0920 1F       		.uleb128 0x1f
 8166 0921 8D020000 		.4byte	.LASF181
 8167 0925 01       		.byte	0x1
 8168 0926 36       		.byte	0x36
 8169 0927 01       		.byte	0x1
 8170 0928 48090000 		.4byte	0x948
 8171 092c 20       		.uleb128 0x20
 8172 092d 7600     		.ascii	"v\000"
 8173 092f 01       		.byte	0x1
 8174 0930 36       		.byte	0x36
ARM GAS  C:\Users\jo\AppData\Local\Temp\ccDsJqTW.s 			page 147


 8175 0931 B2010000 		.4byte	0x1b2
 8176 0935 20       		.uleb128 0x20
 8177 0936 6E00     		.ascii	"n\000"
 8178 0938 01       		.byte	0x1
 8179 0939 36       		.byte	0x36
 8180 093a 3A000000 		.4byte	0x3a
 8181 093e 21       		.uleb128 0x21
 8182 093f 7000     		.ascii	"p\000"
 8183 0941 01       		.byte	0x1
 8184 0942 37       		.byte	0x37
 8185 0943 48090000 		.4byte	0x948
 8186 0947 00       		.byte	0
 8187 0948 0F       		.uleb128 0xf
 8188 0949 04       		.byte	0x4
 8189 094a 4E090000 		.4byte	0x94e
 8190 094e 22       		.uleb128 0x22
 8191 094f 4C000000 		.4byte	0x4c
 8192 0953 23       		.uleb128 0x23
 8193 0954 5B010000 		.4byte	.LASF132
 8194 0958 01       		.byte	0x1
 8195 0959 0A01     		.2byte	0x10a
 8196 095b 01       		.byte	0x1
 8197 095c 9D090000 		.4byte	0x99d
 8198 0960 24       		.uleb128 0x24
 8199 0961 63747800 		.ascii	"ctx\000"
 8200 0965 01       		.byte	0x1
 8201 0966 0A01     		.2byte	0x10a
 8202 0968 9D090000 		.4byte	0x99d
 8203 096c 25       		.uleb128 0x25
 8204 096d 22060000 		.4byte	.LASF128
 8205 0971 01       		.byte	0x1
 8206 0972 0A01     		.2byte	0x10a
 8207 0974 A3090000 		.4byte	0x9a3
 8208 0978 25       		.uleb128 0x25
 8209 0979 67070000 		.4byte	.LASF129
 8210 097d 01       		.byte	0x1
 8211 097e 0B01     		.2byte	0x10b
 8212 0980 3A000000 		.4byte	0x3a
 8213 0984 26       		.uleb128 0x26
 8214 0985 7F050000 		.4byte	.LASF130
 8215 0989 01       		.byte	0x1
 8216 098a 0D01     		.2byte	0x10d
 8217 098c 3A000000 		.4byte	0x3a
 8218 0990 26       		.uleb128 0x26
 8219 0991 23080000 		.4byte	.LASF131
 8220 0995 01       		.byte	0x1
 8221 0996 0E01     		.2byte	0x10e
 8222 0998 81000000 		.4byte	0x81
 8223 099c 00       		.byte	0
 8224 099d 0F       		.uleb128 0xf
 8225 099e 04       		.byte	0x4
 8226 099f 14010000 		.4byte	0x114
 8227 09a3 0F       		.uleb128 0xf
 8228 09a4 04       		.byte	0x4
 8229 09a5 A9090000 		.4byte	0x9a9
 8230 09a9 18       		.uleb128 0x18
 8231 09aa 4C000000 		.4byte	0x4c
ARM GAS  C:\Users\jo\AppData\Local\Temp\ccDsJqTW.s 			page 148


 8232 09ae 27       		.uleb128 0x27
 8233 09af 6A060000 		.4byte	.LASF133
 8234 09b3 01       		.byte	0x1
 8235 09b4 53       		.byte	0x53
 8236 09b5 01       		.byte	0x1
 8237 09b6 C6090000 		.4byte	0x9c6
 8238 09ba 20       		.uleb128 0x20
 8239 09bb 63747800 		.ascii	"ctx\000"
 8240 09bf 01       		.byte	0x1
 8241 09c0 53       		.byte	0x53
 8242 09c1 9D090000 		.4byte	0x99d
 8243 09c5 00       		.byte	0
 8244 09c6 27       		.uleb128 0x27
 8245 09c7 21000000 		.4byte	.LASF134
 8246 09cb 01       		.byte	0x1
 8247 09cc 63       		.byte	0x63
 8248 09cd 01       		.byte	0x1
 8249 09ce E9090000 		.4byte	0x9e9
 8250 09d2 20       		.uleb128 0x20
 8251 09d3 63747800 		.ascii	"ctx\000"
 8252 09d7 01       		.byte	0x1
 8253 09d8 63       		.byte	0x63
 8254 09d9 9D090000 		.4byte	0x99d
 8255 09dd 28       		.uleb128 0x28
 8256 09de 7E030000 		.4byte	.LASF17
 8257 09e2 01       		.byte	0x1
 8258 09e3 63       		.byte	0x63
 8259 09e4 2C000000 		.4byte	0x2c
 8260 09e8 00       		.byte	0
 8261 09e9 27       		.uleb128 0x27
 8262 09ea A8060000 		.4byte	.LASF135
 8263 09ee 01       		.byte	0x1
 8264 09ef 58       		.byte	0x58
 8265 09f0 01       		.byte	0x1
 8266 09f1 010A0000 		.4byte	0xa01
 8267 09f5 20       		.uleb128 0x20
 8268 09f6 63747800 		.ascii	"ctx\000"
 8269 09fa 01       		.byte	0x1
 8270 09fb 58       		.byte	0x58
 8271 09fc 9D090000 		.4byte	0x99d
 8272 0a00 00       		.byte	0
 8273 0a01 23       		.uleb128 0x23
 8274 0a02 C3000000 		.4byte	.LASF136
 8275 0a06 01       		.byte	0x1
 8276 0a07 AF01     		.2byte	0x1af
 8277 0a09 01       		.byte	0x1
 8278 0a0a 330A0000 		.4byte	0xa33
 8279 0a0e 24       		.uleb128 0x24
 8280 0a0f 63747800 		.ascii	"ctx\000"
 8281 0a13 01       		.byte	0x1
 8282 0a14 AF01     		.2byte	0x1af
 8283 0a16 9D090000 		.4byte	0x99d
 8284 0a1a 25       		.uleb128 0x25
 8285 0a1b 22060000 		.4byte	.LASF128
 8286 0a1f 01       		.byte	0x1
 8287 0a20 AF01     		.2byte	0x1af
 8288 0a22 A3090000 		.4byte	0x9a3
ARM GAS  C:\Users\jo\AppData\Local\Temp\ccDsJqTW.s 			page 149


 8289 0a26 25       		.uleb128 0x25
 8290 0a27 67070000 		.4byte	.LASF129
 8291 0a2b 01       		.byte	0x1
 8292 0a2c B001     		.2byte	0x1b0
 8293 0a2e 3A000000 		.4byte	0x3a
 8294 0a32 00       		.byte	0
 8295 0a33 29       		.uleb128 0x29
 8296 0a34 AE090000 		.4byte	0x9ae
 8297 0a38 00000000 		.4byte	.LFB1
 8298 0a3c 08000000 		.4byte	.LFE1-.LFB1
 8299 0a40 01       		.uleb128 0x1
 8300 0a41 9C       		.byte	0x9c
 8301 0a42 6C0A0000 		.4byte	0xa6c
 8302 0a46 2A       		.uleb128 0x2a
 8303 0a47 BA090000 		.4byte	0x9ba
 8304 0a4b 00000000 		.4byte	.LLST0
 8305 0a4f 2B       		.uleb128 0x2b
 8306 0a50 08000000 		.4byte	.LVL1
 8307 0a54 141E0000 		.4byte	0x1e14
 8308 0a58 2C       		.uleb128 0x2c
 8309 0a59 01       		.uleb128 0x1
 8310 0a5a 52       		.byte	0x52
 8311 0a5b 02       		.uleb128 0x2
 8312 0a5c 08       		.byte	0x8
 8313 0a5d EC       		.byte	0xec
 8314 0a5e 2C       		.uleb128 0x2c
 8315 0a5f 01       		.uleb128 0x1
 8316 0a60 51       		.byte	0x51
 8317 0a61 01       		.uleb128 0x1
 8318 0a62 30       		.byte	0x30
 8319 0a63 2C       		.uleb128 0x2c
 8320 0a64 01       		.uleb128 0x1
 8321 0a65 50       		.byte	0x50
 8322 0a66 03       		.uleb128 0x3
 8323 0a67 F3       		.byte	0xf3
 8324 0a68 01       		.uleb128 0x1
 8325 0a69 50       		.byte	0x50
 8326 0a6a 00       		.byte	0
 8327 0a6b 00       		.byte	0
 8328 0a6c 29       		.uleb128 0x29
 8329 0a6d E9090000 		.4byte	0x9e9
 8330 0a71 00000000 		.4byte	.LFB2
 8331 0a75 12000000 		.4byte	.LFE2-.LFB2
 8332 0a79 01       		.uleb128 0x1
 8333 0a7a 9C       		.byte	0x9c
 8334 0a7b BA0A0000 		.4byte	0xaba
 8335 0a7f 2A       		.uleb128 0x2a
 8336 0a80 F5090000 		.4byte	0x9f5
 8337 0a84 21000000 		.4byte	.LLST1
 8338 0a88 2D       		.uleb128 0x2d
 8339 0a89 20090000 		.4byte	0x920
 8340 0a8d 06000000 		.4byte	.LBB74
 8341 0a91 0C000000 		.4byte	.LBE74-.LBB74
 8342 0a95 01       		.byte	0x1
 8343 0a96 5D       		.byte	0x5d
 8344 0a97 2A       		.uleb128 0x2a
 8345 0a98 35090000 		.4byte	0x935
ARM GAS  C:\Users\jo\AppData\Local\Temp\ccDsJqTW.s 			page 150


 8346 0a9c 50000000 		.4byte	.LLST2
 8347 0aa0 2E       		.uleb128 0x2e
 8348 0aa1 2C090000 		.4byte	0x92c
 8349 0aa5 2F       		.uleb128 0x2f
 8350 0aa6 06000000 		.4byte	.LBB75
 8351 0aaa 0C000000 		.4byte	.LBE75-.LBB75
 8352 0aae 30       		.uleb128 0x30
 8353 0aaf 3E090000 		.4byte	0x93e
 8354 0ab3 65000000 		.4byte	.LLST3
 8355 0ab7 00       		.byte	0
 8356 0ab8 00       		.byte	0
 8357 0ab9 00       		.byte	0
 8358 0aba 29       		.uleb128 0x29
 8359 0abb C6090000 		.4byte	0x9c6
 8360 0abf 00000000 		.4byte	.LFB3
 8361 0ac3 90000000 		.4byte	.LFE3-.LFB3
 8362 0ac7 01       		.uleb128 0x1
 8363 0ac8 9C       		.byte	0x9c
 8364 0ac9 DC0A0000 		.4byte	0xadc
 8365 0acd 31       		.uleb128 0x31
 8366 0ace D2090000 		.4byte	0x9d2
 8367 0ad2 01       		.uleb128 0x1
 8368 0ad3 50       		.byte	0x50
 8369 0ad4 31       		.uleb128 0x31
 8370 0ad5 DD090000 		.4byte	0x9dd
 8371 0ad9 01       		.uleb128 0x1
 8372 0ada 51       		.byte	0x51
 8373 0adb 00       		.byte	0
 8374 0adc 32       		.uleb128 0x32
 8375 0add 3A080000 		.4byte	.LASF140
 8376 0ae1 01       		.byte	0x1
 8377 0ae2 84       		.byte	0x84
 8378 0ae3 00000000 		.4byte	.LFB4
 8379 0ae7 E01E0000 		.4byte	.LFE4-.LFB4
 8380 0aeb 01       		.uleb128 0x1
 8381 0aec 9C       		.byte	0x9c
 8382 0aed A30B0000 		.4byte	0xba3
 8383 0af1 33       		.uleb128 0x33
 8384 0af2 63747800 		.ascii	"ctx\000"
 8385 0af6 01       		.byte	0x1
 8386 0af7 84       		.byte	0x84
 8387 0af8 9D090000 		.4byte	0x99d
 8388 0afc 85000000 		.4byte	.LLST4
 8389 0b00 34       		.uleb128 0x34
 8390 0b01 16030000 		.4byte	.LASF137
 8391 0b05 01       		.byte	0x1
 8392 0b06 84       		.byte	0x84
 8393 0b07 A3090000 		.4byte	0x9a3
 8394 0b0b A5000000 		.4byte	.LLST5
 8395 0b0f 35       		.uleb128 0x35
 8396 0b10 7E060000 		.4byte	.LASF138
 8397 0b14 01       		.byte	0x1
 8398 0b15 86       		.byte	0x86
 8399 0b16 81000000 		.4byte	0x81
 8400 0b1a C6000000 		.4byte	.LLST6
 8401 0b1e 35       		.uleb128 0x35
 8402 0b1f BB050000 		.4byte	.LASF139
ARM GAS  C:\Users\jo\AppData\Local\Temp\ccDsJqTW.s 			page 151


 8403 0b23 01       		.byte	0x1
 8404 0b24 86       		.byte	0x86
 8405 0b25 81000000 		.4byte	0x81
 8406 0b29 B4050000 		.4byte	.LLST7
 8407 0b2d 36       		.uleb128 0x36
 8408 0b2e 5700     		.ascii	"W\000"
 8409 0b30 01       		.byte	0x1
 8410 0b31 86       		.byte	0x86
 8411 0b32 A30B0000 		.4byte	0xba3
 8412 0b36 551E0000 		.4byte	.LLST8
 8413 0b3a 36       		.uleb128 0x36
 8414 0b3b 4100     		.ascii	"A\000"
 8415 0b3d 01       		.byte	0x1
 8416 0b3e 87       		.byte	0x87
 8417 0b3f 81000000 		.4byte	0x81
 8418 0b43 741E0000 		.4byte	.LLST9
 8419 0b47 36       		.uleb128 0x36
 8420 0b48 4200     		.ascii	"B\000"
 8421 0b4a 01       		.byte	0x1
 8422 0b4b 87       		.byte	0x87
 8423 0b4c 81000000 		.4byte	0x81
 8424 0b50 FD1E0000 		.4byte	.LLST10
 8425 0b54 36       		.uleb128 0x36
 8426 0b55 4300     		.ascii	"C\000"
 8427 0b57 01       		.byte	0x1
 8428 0b58 87       		.byte	0x87
 8429 0b59 81000000 		.4byte	0x81
 8430 0b5d EF1F0000 		.4byte	.LLST11
 8431 0b61 36       		.uleb128 0x36
 8432 0b62 4400     		.ascii	"D\000"
 8433 0b64 01       		.byte	0x1
 8434 0b65 87       		.byte	0x87
 8435 0b66 81000000 		.4byte	0x81
 8436 0b6a 51200000 		.4byte	.LLST12
 8437 0b6e 36       		.uleb128 0x36
 8438 0b6f 4500     		.ascii	"E\000"
 8439 0b71 01       		.byte	0x1
 8440 0b72 87       		.byte	0x87
 8441 0b73 81000000 		.4byte	0x81
 8442 0b77 D4200000 		.4byte	.LLST13
 8443 0b7b 36       		.uleb128 0x36
 8444 0b7c 4600     		.ascii	"F\000"
 8445 0b7e 01       		.byte	0x1
 8446 0b7f 87       		.byte	0x87
 8447 0b80 81000000 		.4byte	0x81
 8448 0b84 85210000 		.4byte	.LLST14
 8449 0b88 36       		.uleb128 0x36
 8450 0b89 4700     		.ascii	"G\000"
 8451 0b8b 01       		.byte	0x1
 8452 0b8c 87       		.byte	0x87
 8453 0b8d 81000000 		.4byte	0x81
 8454 0b91 20220000 		.4byte	.LLST15
 8455 0b95 36       		.uleb128 0x36
 8456 0b96 4800     		.ascii	"H\000"
 8457 0b98 01       		.byte	0x1
 8458 0b99 87       		.byte	0x87
 8459 0b9a 81000000 		.4byte	0x81
ARM GAS  C:\Users\jo\AppData\Local\Temp\ccDsJqTW.s 			page 152


 8460 0b9e 8D220000 		.4byte	.LLST16
 8461 0ba2 00       		.byte	0
 8462 0ba3 07       		.uleb128 0x7
 8463 0ba4 81000000 		.4byte	0x81
 8464 0ba8 B30B0000 		.4byte	0xbb3
 8465 0bac 08       		.uleb128 0x8
 8466 0bad ED000000 		.4byte	0xed
 8467 0bb1 3F       		.byte	0x3f
 8468 0bb2 00       		.byte	0
 8469 0bb3 29       		.uleb128 0x29
 8470 0bb4 53090000 		.4byte	0x953
 8471 0bb8 00000000 		.4byte	.LFB15
 8472 0bbc 92000000 		.4byte	.LFE15-.LFB15
 8473 0bc0 01       		.uleb128 0x1
 8474 0bc1 9C       		.byte	0x9c
 8475 0bc2 560C0000 		.4byte	0xc56
 8476 0bc6 2A       		.uleb128 0x2a
 8477 0bc7 60090000 		.4byte	0x960
 8478 0bcb 63230000 		.4byte	.LLST17
 8479 0bcf 2A       		.uleb128 0x2a
 8480 0bd0 6C090000 		.4byte	0x96c
 8481 0bd4 8F230000 		.4byte	.LLST18
 8482 0bd8 2A       		.uleb128 0x2a
 8483 0bd9 78090000 		.4byte	0x978
 8484 0bdd CE230000 		.4byte	.LLST19
 8485 0be1 30       		.uleb128 0x30
 8486 0be2 84090000 		.4byte	0x984
 8487 0be6 3F240000 		.4byte	.LLST20
 8488 0bea 30       		.uleb128 0x30
 8489 0beb 90090000 		.4byte	0x990
 8490 0bef 67240000 		.4byte	.LLST21
 8491 0bf3 37       		.uleb128 0x37
 8492 0bf4 40000000 		.4byte	.LVL343
 8493 0bf8 311E0000 		.4byte	0x1e31
 8494 0bfc 180C0000 		.4byte	0xc18
 8495 0c00 2C       		.uleb128 0x2c
 8496 0c01 01       		.uleb128 0x1
 8497 0c02 52       		.byte	0x52
 8498 0c03 02       		.uleb128 0x2
 8499 0c04 74       		.byte	0x74
 8500 0c05 00       		.sleb128 0
 8501 0c06 2C       		.uleb128 0x2c
 8502 0c07 01       		.uleb128 0x1
 8503 0c08 51       		.byte	0x51
 8504 0c09 02       		.uleb128 0x2
 8505 0c0a 79       		.byte	0x79
 8506 0c0b 00       		.sleb128 0
 8507 0c0c 2C       		.uleb128 0x2c
 8508 0c0d 01       		.uleb128 0x1
 8509 0c0e 50       		.byte	0x50
 8510 0c0f 07       		.uleb128 0x7
 8511 0c10 76       		.byte	0x76
 8512 0c11 00       		.sleb128 0
 8513 0c12 78       		.byte	0x78
 8514 0c13 00       		.sleb128 0
 8515 0c14 22       		.byte	0x22
 8516 0c15 23       		.byte	0x23
ARM GAS  C:\Users\jo\AppData\Local\Temp\ccDsJqTW.s 			page 153


 8517 0c16 28       		.uleb128 0x28
 8518 0c17 00       		.byte	0
 8519 0c18 37       		.uleb128 0x37
 8520 0c19 4A000000 		.4byte	.LVL344
 8521 0c1d DC0A0000 		.4byte	0xadc
 8522 0c21 320C0000 		.4byte	0xc32
 8523 0c25 2C       		.uleb128 0x2c
 8524 0c26 01       		.uleb128 0x1
 8525 0c27 51       		.byte	0x51
 8526 0c28 02       		.uleb128 0x2
 8527 0c29 76       		.byte	0x76
 8528 0c2a 28       		.sleb128 40
 8529 0c2b 2C       		.uleb128 0x2c
 8530 0c2c 01       		.uleb128 0x1
 8531 0c2d 50       		.byte	0x50
 8532 0c2e 02       		.uleb128 0x2
 8533 0c2f 76       		.byte	0x76
 8534 0c30 00       		.sleb128 0
 8535 0c31 00       		.byte	0
 8536 0c32 37       		.uleb128 0x37
 8537 0c33 64000000 		.4byte	.LVL350
 8538 0c37 DC0A0000 		.4byte	0xadc
 8539 0c3b 4C0C0000 		.4byte	0xc4c
 8540 0c3f 2C       		.uleb128 0x2c
 8541 0c40 01       		.uleb128 0x1
 8542 0c41 51       		.byte	0x51
 8543 0c42 02       		.uleb128 0x2
 8544 0c43 74       		.byte	0x74
 8545 0c44 00       		.sleb128 0
 8546 0c45 2C       		.uleb128 0x2c
 8547 0c46 01       		.uleb128 0x1
 8548 0c47 50       		.byte	0x50
 8549 0c48 02       		.uleb128 0x2
 8550 0c49 76       		.byte	0x76
 8551 0c4a 00       		.sleb128 0
 8552 0c4b 00       		.byte	0
 8553 0c4c 38       		.uleb128 0x38
 8554 0c4d 92000000 		.4byte	.LVL354
 8555 0c51 311E0000 		.4byte	0x1e31
 8556 0c55 00       		.byte	0
 8557 0c56 29       		.uleb128 0x29
 8558 0c57 53090000 		.4byte	0x953
 8559 0c5b 00000000 		.4byte	.LFB5
 8560 0c5f 08000000 		.4byte	.LFE5-.LFB5
 8561 0c63 01       		.uleb128 0x1
 8562 0c64 9C       		.byte	0x9c
 8563 0c65 AE0C0000 		.4byte	0xcae
 8564 0c69 2A       		.uleb128 0x2a
 8565 0c6a 60090000 		.4byte	0x960
 8566 0c6e 9C240000 		.4byte	.LLST22
 8567 0c72 2A       		.uleb128 0x2a
 8568 0c73 6C090000 		.4byte	0x96c
 8569 0c77 C8240000 		.4byte	.LLST23
 8570 0c7b 2A       		.uleb128 0x2a
 8571 0c7c 78090000 		.4byte	0x978
 8572 0c80 F4240000 		.4byte	.LLST24
 8573 0c84 39       		.uleb128 0x39
ARM GAS  C:\Users\jo\AppData\Local\Temp\ccDsJqTW.s 			page 154


 8574 0c85 84090000 		.4byte	0x984
 8575 0c89 39       		.uleb128 0x39
 8576 0c8a 90090000 		.4byte	0x990
 8577 0c8e 2B       		.uleb128 0x2b
 8578 0c8f 06000000 		.4byte	.LVL356
 8579 0c93 B30B0000 		.4byte	0xbb3
 8580 0c97 2C       		.uleb128 0x2c
 8581 0c98 01       		.uleb128 0x1
 8582 0c99 52       		.byte	0x52
 8583 0c9a 03       		.uleb128 0x3
 8584 0c9b F3       		.byte	0xf3
 8585 0c9c 01       		.uleb128 0x1
 8586 0c9d 52       		.byte	0x52
 8587 0c9e 2C       		.uleb128 0x2c
 8588 0c9f 01       		.uleb128 0x1
 8589 0ca0 51       		.byte	0x51
 8590 0ca1 03       		.uleb128 0x3
 8591 0ca2 F3       		.byte	0xf3
 8592 0ca3 01       		.uleb128 0x1
 8593 0ca4 51       		.byte	0x51
 8594 0ca5 2C       		.uleb128 0x2c
 8595 0ca6 01       		.uleb128 0x1
 8596 0ca7 50       		.byte	0x50
 8597 0ca8 03       		.uleb128 0x3
 8598 0ca9 F3       		.byte	0xf3
 8599 0caa 01       		.uleb128 0x1
 8600 0cab 50       		.byte	0x50
 8601 0cac 00       		.byte	0
 8602 0cad 00       		.byte	0
 8603 0cae 3A       		.uleb128 0x3a
 8604 0caf D7020000 		.4byte	.LASF141
 8605 0cb3 01       		.byte	0x1
 8606 0cb4 3B01     		.2byte	0x13b
 8607 0cb6 00000000 		.4byte	.LFB6
 8608 0cba 10010000 		.4byte	.LFE6-.LFB6
 8609 0cbe 01       		.uleb128 0x1
 8610 0cbf 9C       		.byte	0x9c
 8611 0cc0 E80D0000 		.4byte	0xde8
 8612 0cc4 3B       		.uleb128 0x3b
 8613 0cc5 63747800 		.ascii	"ctx\000"
 8614 0cc9 01       		.byte	0x1
 8615 0cca 3B01     		.2byte	0x13b
 8616 0ccc 9D090000 		.4byte	0x99d
 8617 0cd0 20250000 		.4byte	.LLST25
 8618 0cd4 3C       		.uleb128 0x3c
 8619 0cd5 A0040000 		.4byte	.LASF142
 8620 0cd9 01       		.byte	0x1
 8621 0cda 3B01     		.2byte	0x13b
 8622 0cdc 71030000 		.4byte	0x371
 8623 0ce0 4C250000 		.4byte	.LLST26
 8624 0ce4 3D       		.uleb128 0x3d
 8625 0ce5 57030000 		.4byte	.LASF143
 8626 0ce9 01       		.byte	0x1
 8627 0cea 3D01     		.2byte	0x13d
 8628 0cec 81000000 		.4byte	0x81
 8629 0cf0 78250000 		.4byte	.LLST27
 8630 0cf4 3D       		.uleb128 0x3d
ARM GAS  C:\Users\jo\AppData\Local\Temp\ccDsJqTW.s 			page 155


 8631 0cf5 FE040000 		.4byte	.LASF144
 8632 0cf9 01       		.byte	0x1
 8633 0cfa 3D01     		.2byte	0x13d
 8634 0cfc 81000000 		.4byte	0x81
 8635 0d00 9C250000 		.4byte	.LLST28
 8636 0d04 3D       		.uleb128 0x3d
 8637 0d05 F2040000 		.4byte	.LASF145
 8638 0d09 01       		.byte	0x1
 8639 0d0a 3E01     		.2byte	0x13e
 8640 0d0c 81000000 		.4byte	0x81
 8641 0d10 AF250000 		.4byte	.LLST29
 8642 0d14 3E       		.uleb128 0x3e
 8643 0d15 6C6F7700 		.ascii	"low\000"
 8644 0d19 01       		.byte	0x1
 8645 0d1a 3E01     		.2byte	0x13e
 8646 0d1c 81000000 		.4byte	0x81
 8647 0d20 C2250000 		.4byte	.LLST30
 8648 0d24 3F       		.uleb128 0x3f
 8649 0d25 51050000 		.4byte	.LASF146
 8650 0d29 01       		.byte	0x1
 8651 0d2a 3F01     		.2byte	0x13f
 8652 0d2c E80D0000 		.4byte	0xde8
 8653 0d30 02       		.uleb128 0x2
 8654 0d31 91       		.byte	0x91
 8655 0d32 60       		.sleb128 -32
 8656 0d33 40       		.uleb128 0x40
 8657 0d34 53090000 		.4byte	0x953
 8658 0d38 42000000 		.4byte	.LBB76
 8659 0d3c 00000000 		.4byte	.Ldebug_ranges0+0
 8660 0d40 01       		.byte	0x1
 8661 0d41 4B01     		.2byte	0x14b
 8662 0d43 8F0D0000 		.4byte	0xd8f
 8663 0d47 2A       		.uleb128 0x2a
 8664 0d48 78090000 		.4byte	0x978
 8665 0d4c 9C250000 		.4byte	.LLST28
 8666 0d50 31       		.uleb128 0x31
 8667 0d51 6C090000 		.4byte	0x96c
 8668 0d55 06       		.uleb128 0x6
 8669 0d56 03       		.byte	0x3
 8670 0d57 00000000 		.4byte	sha256_padding
 8671 0d5b 9F       		.byte	0x9f
 8672 0d5c 2A       		.uleb128 0x2a
 8673 0d5d 60090000 		.4byte	0x960
 8674 0d61 E5250000 		.4byte	.LLST32
 8675 0d65 41       		.uleb128 0x41
 8676 0d66 00000000 		.4byte	.Ldebug_ranges0+0
 8677 0d6a 39       		.uleb128 0x39
 8678 0d6b 84090000 		.4byte	0x984
 8679 0d6f 39       		.uleb128 0x39
 8680 0d70 90090000 		.4byte	0x990
 8681 0d74 42       		.uleb128 0x42
 8682 0d75 62000000 		.4byte	.LVL366
 8683 0d79 B30B0000 		.4byte	0xbb3
 8684 0d7d 2C       		.uleb128 0x2c
 8685 0d7e 01       		.uleb128 0x1
 8686 0d7f 51       		.byte	0x51
 8687 0d80 05       		.uleb128 0x5
ARM GAS  C:\Users\jo\AppData\Local\Temp\ccDsJqTW.s 			page 156


 8688 0d81 03       		.byte	0x3
 8689 0d82 00000000 		.4byte	.LANCHOR0
 8690 0d86 2C       		.uleb128 0x2c
 8691 0d87 01       		.uleb128 0x1
 8692 0d88 50       		.byte	0x50
 8693 0d89 02       		.uleb128 0x2
 8694 0d8a 74       		.byte	0x74
 8695 0d8b 00       		.sleb128 0
 8696 0d8c 00       		.byte	0
 8697 0d8d 00       		.byte	0
 8698 0d8e 00       		.byte	0
 8699 0d8f 43       		.uleb128 0x43
 8700 0d90 53090000 		.4byte	0x953
 8701 0d94 62000000 		.4byte	.LBB82
 8702 0d98 0A000000 		.4byte	.LBE82-.LBB82
 8703 0d9c 01       		.byte	0x1
 8704 0d9d 4C01     		.2byte	0x14c
 8705 0d9f 44       		.uleb128 0x44
 8706 0da0 78090000 		.4byte	0x978
 8707 0da4 08       		.byte	0x8
 8708 0da5 2A       		.uleb128 0x2a
 8709 0da6 6C090000 		.4byte	0x96c
 8710 0daa 06260000 		.4byte	.LLST33
 8711 0dae 2A       		.uleb128 0x2a
 8712 0daf 60090000 		.4byte	0x960
 8713 0db3 33260000 		.4byte	.LLST34
 8714 0db7 2F       		.uleb128 0x2f
 8715 0db8 62000000 		.4byte	.LBB83
 8716 0dbc 0A000000 		.4byte	.LBE83-.LBB83
 8717 0dc0 39       		.uleb128 0x39
 8718 0dc1 84090000 		.4byte	0x984
 8719 0dc5 39       		.uleb128 0x39
 8720 0dc6 90090000 		.4byte	0x990
 8721 0dca 42       		.uleb128 0x42
 8722 0dcb 6C000000 		.4byte	.LVL367
 8723 0dcf B30B0000 		.4byte	0xbb3
 8724 0dd3 2C       		.uleb128 0x2c
 8725 0dd4 01       		.uleb128 0x1
 8726 0dd5 52       		.byte	0x52
 8727 0dd6 01       		.uleb128 0x1
 8728 0dd7 38       		.byte	0x38
 8729 0dd8 2C       		.uleb128 0x2c
 8730 0dd9 01       		.uleb128 0x1
 8731 0dda 51       		.byte	0x51
 8732 0ddb 02       		.uleb128 0x2
 8733 0ddc 7D       		.byte	0x7d
 8734 0ddd 00       		.sleb128 0
 8735 0dde 2C       		.uleb128 0x2c
 8736 0ddf 01       		.uleb128 0x1
 8737 0de0 50       		.byte	0x50
 8738 0de1 02       		.uleb128 0x2
 8739 0de2 74       		.byte	0x74
 8740 0de3 00       		.sleb128 0
 8741 0de4 00       		.byte	0
 8742 0de5 00       		.byte	0
 8743 0de6 00       		.byte	0
 8744 0de7 00       		.byte	0
ARM GAS  C:\Users\jo\AppData\Local\Temp\ccDsJqTW.s 			page 157


 8745 0de8 07       		.uleb128 0x7
 8746 0de9 4C000000 		.4byte	0x4c
 8747 0ded F80D0000 		.4byte	0xdf8
 8748 0df1 08       		.uleb128 0x8
 8749 0df2 ED000000 		.4byte	0xed
 8750 0df6 07       		.byte	0x7
 8751 0df7 00       		.byte	0
 8752 0df8 3A       		.uleb128 0x3a
 8753 0df9 8B030000 		.4byte	.LASF147
 8754 0dfd 01       		.byte	0x1
 8755 0dfe 5F01     		.2byte	0x15f
 8756 0e00 00000000 		.4byte	.LFB7
 8757 0e04 D0000000 		.4byte	.LFE7-.LFB7
 8758 0e08 01       		.uleb128 0x1
 8759 0e09 9C       		.byte	0x9c
 8760 0e0a 810F0000 		.4byte	0xf81
 8761 0e0e 3C       		.uleb128 0x3c
 8762 0e0f 22060000 		.4byte	.LASF128
 8763 0e13 01       		.byte	0x1
 8764 0e14 5F01     		.2byte	0x15f
 8765 0e16 A3090000 		.4byte	0x9a3
 8766 0e1a 54260000 		.4byte	.LLST35
 8767 0e1e 3C       		.uleb128 0x3c
 8768 0e1f 67070000 		.4byte	.LASF129
 8769 0e23 01       		.byte	0x1
 8770 0e24 5F01     		.2byte	0x15f
 8771 0e26 3A000000 		.4byte	0x3a
 8772 0e2a 72260000 		.4byte	.LLST36
 8773 0e2e 3C       		.uleb128 0x3c
 8774 0e2f A0040000 		.4byte	.LASF142
 8775 0e33 01       		.byte	0x1
 8776 0e34 6001     		.2byte	0x160
 8777 0e36 71030000 		.4byte	0x371
 8778 0e3a 90260000 		.4byte	.LLST37
 8779 0e3e 3C       		.uleb128 0x3c
 8780 0e3f 7E030000 		.4byte	.LASF17
 8781 0e43 01       		.byte	0x1
 8782 0e44 6001     		.2byte	0x160
 8783 0e46 2C000000 		.4byte	0x2c
 8784 0e4a AE260000 		.4byte	.LLST38
 8785 0e4e 45       		.uleb128 0x45
 8786 0e4f 63747800 		.ascii	"ctx\000"
 8787 0e53 01       		.byte	0x1
 8788 0e54 6201     		.2byte	0x162
 8789 0e56 14010000 		.4byte	0x114
 8790 0e5a 03       		.uleb128 0x3
 8791 0e5b 91       		.byte	0x91
 8792 0e5c F47D     		.sleb128 -268
 8793 0e5e 46       		.uleb128 0x46
 8794 0e5f AE090000 		.4byte	0x9ae
 8795 0e63 0E000000 		.4byte	.LBB84
 8796 0e67 0A000000 		.4byte	.LBE84-.LBB84
 8797 0e6b 01       		.byte	0x1
 8798 0e6c 6401     		.2byte	0x164
 8799 0e6e 980E0000 		.4byte	0xe98
 8800 0e72 2A       		.uleb128 0x2a
 8801 0e73 BA090000 		.4byte	0x9ba
ARM GAS  C:\Users\jo\AppData\Local\Temp\ccDsJqTW.s 			page 158


 8802 0e77 CC260000 		.4byte	.LLST39
 8803 0e7b 42       		.uleb128 0x42
 8804 0e7c 18000000 		.4byte	.LVL375
 8805 0e80 141E0000 		.4byte	0x1e14
 8806 0e84 2C       		.uleb128 0x2c
 8807 0e85 01       		.uleb128 0x1
 8808 0e86 52       		.byte	0x52
 8809 0e87 02       		.uleb128 0x2
 8810 0e88 08       		.byte	0x8
 8811 0e89 EC       		.byte	0xec
 8812 0e8a 2C       		.uleb128 0x2c
 8813 0e8b 01       		.uleb128 0x1
 8814 0e8c 51       		.byte	0x51
 8815 0e8d 01       		.uleb128 0x1
 8816 0e8e 30       		.byte	0x30
 8817 0e8f 2C       		.uleb128 0x2c
 8818 0e90 01       		.uleb128 0x1
 8819 0e91 50       		.byte	0x50
 8820 0e92 03       		.uleb128 0x3
 8821 0e93 91       		.byte	0x91
 8822 0e94 F47D     		.sleb128 -268
 8823 0e96 00       		.byte	0
 8824 0e97 00       		.byte	0
 8825 0e98 40       		.uleb128 0x40
 8826 0e99 C6090000 		.4byte	0x9c6
 8827 0e9d 18000000 		.4byte	.LBB86
 8828 0ea1 20000000 		.4byte	.Ldebug_ranges0+0x20
 8829 0ea5 01       		.byte	0x1
 8830 0ea6 6501     		.2byte	0x165
 8831 0ea8 BD0E0000 		.4byte	0xebd
 8832 0eac 31       		.uleb128 0x31
 8833 0ead DD090000 		.4byte	0x9dd
 8834 0eb1 01       		.uleb128 0x1
 8835 0eb2 54       		.byte	0x54
 8836 0eb3 2A       		.uleb128 0x2a
 8837 0eb4 D2090000 		.4byte	0x9d2
 8838 0eb8 46270000 		.4byte	.LLST40
 8839 0ebc 00       		.byte	0
 8840 0ebd 40       		.uleb128 0x40
 8841 0ebe 53090000 		.4byte	0x953
 8842 0ec2 4C000000 		.4byte	.LBB89
 8843 0ec6 38000000 		.4byte	.Ldebug_ranges0+0x38
 8844 0eca 01       		.byte	0x1
 8845 0ecb 6601     		.2byte	0x166
 8846 0ecd 1A0F0000 		.4byte	0xf1a
 8847 0ed1 2A       		.uleb128 0x2a
 8848 0ed2 78090000 		.4byte	0x978
 8849 0ed6 A7270000 		.4byte	.LLST41
 8850 0eda 2A       		.uleb128 0x2a
 8851 0edb 6C090000 		.4byte	0x96c
 8852 0edf C5270000 		.4byte	.LLST42
 8853 0ee3 2A       		.uleb128 0x2a
 8854 0ee4 60090000 		.4byte	0x960
 8855 0ee8 E3270000 		.4byte	.LLST43
 8856 0eec 41       		.uleb128 0x41
 8857 0eed 38000000 		.4byte	.Ldebug_ranges0+0x38
 8858 0ef1 39       		.uleb128 0x39
ARM GAS  C:\Users\jo\AppData\Local\Temp\ccDsJqTW.s 			page 159


 8859 0ef2 84090000 		.4byte	0x984
 8860 0ef6 39       		.uleb128 0x39
 8861 0ef7 90090000 		.4byte	0x990
 8862 0efb 42       		.uleb128 0x42
 8863 0efc 8E000000 		.4byte	.LVL386
 8864 0f00 B30B0000 		.4byte	0xbb3
 8865 0f04 2C       		.uleb128 0x2c
 8866 0f05 01       		.uleb128 0x1
 8867 0f06 52       		.byte	0x52
 8868 0f07 02       		.uleb128 0x2
 8869 0f08 75       		.byte	0x75
 8870 0f09 00       		.sleb128 0
 8871 0f0a 2C       		.uleb128 0x2c
 8872 0f0b 01       		.uleb128 0x1
 8873 0f0c 51       		.byte	0x51
 8874 0f0d 02       		.uleb128 0x2
 8875 0f0e 77       		.byte	0x77
 8876 0f0f 00       		.sleb128 0
 8877 0f10 2C       		.uleb128 0x2c
 8878 0f11 01       		.uleb128 0x1
 8879 0f12 50       		.byte	0x50
 8880 0f13 03       		.uleb128 0x3
 8881 0f14 91       		.byte	0x91
 8882 0f15 F47D     		.sleb128 -268
 8883 0f17 00       		.byte	0
 8884 0f18 00       		.byte	0
 8885 0f19 00       		.byte	0
 8886 0f1a 46       		.uleb128 0x46
 8887 0f1b E9090000 		.4byte	0x9e9
 8888 0f1f 58000000 		.4byte	.LBB92
 8889 0f23 0C000000 		.4byte	.LBE92-.LBB92
 8890 0f27 01       		.byte	0x1
 8891 0f28 6801     		.2byte	0x168
 8892 0f2a 690F0000 		.4byte	0xf69
 8893 0f2e 2A       		.uleb128 0x2a
 8894 0f2f F5090000 		.4byte	0x9f5
 8895 0f33 52280000 		.4byte	.LLST44
 8896 0f37 2D       		.uleb128 0x2d
 8897 0f38 20090000 		.4byte	0x920
 8898 0f3c 58000000 		.4byte	.LBB93
 8899 0f40 0C000000 		.4byte	.LBE93-.LBB93
 8900 0f44 01       		.byte	0x1
 8901 0f45 5D       		.byte	0x5d
 8902 0f46 2A       		.uleb128 0x2a
 8903 0f47 35090000 		.4byte	0x935
 8904 0f4b 81280000 		.4byte	.LLST45
 8905 0f4f 2E       		.uleb128 0x2e
 8906 0f50 2C090000 		.4byte	0x92c
 8907 0f54 2F       		.uleb128 0x2f
 8908 0f55 58000000 		.4byte	.LBB94
 8909 0f59 0C000000 		.4byte	.LBE94-.LBB94
 8910 0f5d 30       		.uleb128 0x30
 8911 0f5e 3E090000 		.4byte	0x93e
 8912 0f62 CF280000 		.4byte	.LLST46
 8913 0f66 00       		.byte	0
 8914 0f67 00       		.byte	0
 8915 0f68 00       		.byte	0
ARM GAS  C:\Users\jo\AppData\Local\Temp\ccDsJqTW.s 			page 160


 8916 0f69 42       		.uleb128 0x42
 8917 0f6a 56000000 		.4byte	.LVL378
 8918 0f6e AE0C0000 		.4byte	0xcae
 8919 0f72 2C       		.uleb128 0x2c
 8920 0f73 01       		.uleb128 0x1
 8921 0f74 51       		.byte	0x51
 8922 0f75 02       		.uleb128 0x2
 8923 0f76 76       		.byte	0x76
 8924 0f77 00       		.sleb128 0
 8925 0f78 2C       		.uleb128 0x2c
 8926 0f79 01       		.uleb128 0x1
 8927 0f7a 50       		.byte	0x50
 8928 0f7b 03       		.uleb128 0x3
 8929 0f7c 91       		.byte	0x91
 8930 0f7d F47D     		.sleb128 -268
 8931 0f7f 00       		.byte	0
 8932 0f80 00       		.byte	0
 8933 0f81 47       		.uleb128 0x47
 8934 0f82 11070000 		.4byte	.LASF156
 8935 0f86 01       		.byte	0x1
 8936 0f87 6F01     		.2byte	0x16f
 8937 0f89 2C000000 		.4byte	0x2c
 8938 0f8d 00000000 		.4byte	.LFB8
 8939 0f91 0C010000 		.4byte	.LFE8-.LFB8
 8940 0f95 01       		.uleb128 0x1
 8941 0f96 9C       		.byte	0x9c
 8942 0f97 91110000 		.4byte	0x1191
 8943 0f9b 3C       		.uleb128 0x3c
 8944 0f9c 6D000000 		.4byte	.LASF148
 8945 0fa0 01       		.byte	0x1
 8946 0fa1 6F01     		.2byte	0x16f
 8947 0fa3 28060000 		.4byte	0x628
 8948 0fa7 08290000 		.4byte	.LLST47
 8949 0fab 3C       		.uleb128 0x3c
 8950 0fac A0040000 		.4byte	.LASF142
 8951 0fb0 01       		.byte	0x1
 8952 0fb1 6F01     		.2byte	0x16f
 8953 0fb3 71030000 		.4byte	0x371
 8954 0fb7 29290000 		.4byte	.LLST48
 8955 0fbb 3C       		.uleb128 0x3c
 8956 0fbc 7E030000 		.4byte	.LASF17
 8957 0fc0 01       		.byte	0x1
 8958 0fc1 6F01     		.2byte	0x16f
 8959 0fc3 2C000000 		.4byte	0x2c
 8960 0fc7 47290000 		.4byte	.LLST49
 8961 0fcb 3E       		.uleb128 0x3e
 8962 0fcc 6600     		.ascii	"f\000"
 8963 0fce 01       		.byte	0x1
 8964 0fcf 7101     		.2byte	0x171
 8965 0fd1 91110000 		.4byte	0x1191
 8966 0fd5 97290000 		.4byte	.LLST50
 8967 0fd9 3E       		.uleb128 0x3e
 8968 0fda 6E00     		.ascii	"n\000"
 8969 0fdc 01       		.byte	0x1
 8970 0fdd 7201     		.2byte	0x172
 8971 0fdf 3A000000 		.4byte	0x3a
 8972 0fe3 F7290000 		.4byte	.LLST51
ARM GAS  C:\Users\jo\AppData\Local\Temp\ccDsJqTW.s 			page 161


 8973 0fe7 45       		.uleb128 0x45
 8974 0fe8 63747800 		.ascii	"ctx\000"
 8975 0fec 01       		.byte	0x1
 8976 0fed 7301     		.2byte	0x173
 8977 0fef 14010000 		.4byte	0x114
 8978 0ff3 03       		.uleb128 0x3
 8979 0ff4 91       		.byte	0x91
 8980 0ff5 FC75     		.sleb128 -1284
 8981 0ff7 45       		.uleb128 0x45
 8982 0ff8 62756600 		.ascii	"buf\000"
 8983 0ffc 01       		.byte	0x1
 8984 0ffd 7401     		.2byte	0x174
 8985 0fff 97110000 		.4byte	0x1197
 8986 1003 03       		.uleb128 0x3
 8987 1004 91       		.byte	0x91
 8988 1005 E877     		.sleb128 -1048
 8989 1007 46       		.uleb128 0x46
 8990 1008 AE090000 		.4byte	0x9ae
 8991 100c 18000000 		.4byte	.LBB97
 8992 1010 0A000000 		.4byte	.LBE97-.LBB97
 8993 1014 01       		.byte	0x1
 8994 1015 7901     		.2byte	0x179
 8995 1017 41100000 		.4byte	0x1041
 8996 101b 2A       		.uleb128 0x2a
 8997 101c BA090000 		.4byte	0x9ba
 8998 1020 4C2A0000 		.4byte	.LLST52
 8999 1024 42       		.uleb128 0x42
 9000 1025 22000000 		.4byte	.LVL392
 9001 1029 141E0000 		.4byte	0x1e14
 9002 102d 2C       		.uleb128 0x2c
 9003 102e 01       		.uleb128 0x1
 9004 102f 52       		.byte	0x52
 9005 1030 02       		.uleb128 0x2
 9006 1031 08       		.byte	0x8
 9007 1032 EC       		.byte	0xec
 9008 1033 2C       		.uleb128 0x2c
 9009 1034 01       		.uleb128 0x1
 9010 1035 51       		.byte	0x51
 9011 1036 01       		.uleb128 0x1
 9012 1037 30       		.byte	0x30
 9013 1038 2C       		.uleb128 0x2c
 9014 1039 01       		.uleb128 0x1
 9015 103a 50       		.byte	0x50
 9016 103b 03       		.uleb128 0x3
 9017 103c 91       		.byte	0x91
 9018 103d FC75     		.sleb128 -1284
 9019 103f 00       		.byte	0
 9020 1040 00       		.byte	0
 9021 1041 40       		.uleb128 0x40
 9022 1042 C6090000 		.4byte	0x9c6
 9023 1046 22000000 		.4byte	.LBB99
 9024 104a 50000000 		.4byte	.Ldebug_ranges0+0x50
 9025 104e 01       		.byte	0x1
 9026 104f 7A01     		.2byte	0x17a
 9027 1051 68100000 		.4byte	0x1068
 9028 1055 2A       		.uleb128 0x2a
 9029 1056 DD090000 		.4byte	0x9dd
ARM GAS  C:\Users\jo\AppData\Local\Temp\ccDsJqTW.s 			page 162


 9030 105a D42A0000 		.4byte	.LLST53
 9031 105e 2A       		.uleb128 0x2a
 9032 105f D2090000 		.4byte	0x9d2
 9033 1063 1C2B0000 		.4byte	.LLST54
 9034 1067 00       		.byte	0
 9035 1068 40       		.uleb128 0x40
 9036 1069 53090000 		.4byte	0x953
 9037 106d 62000000 		.4byte	.LBB102
 9038 1071 68000000 		.4byte	.Ldebug_ranges0+0x68
 9039 1075 01       		.byte	0x1
 9040 1076 7D01     		.2byte	0x17d
 9041 1078 C5100000 		.4byte	0x10c5
 9042 107c 2A       		.uleb128 0x2a
 9043 107d 78090000 		.4byte	0x978
 9044 1081 8B2B0000 		.4byte	.LLST55
 9045 1085 2A       		.uleb128 0x2a
 9046 1086 6C090000 		.4byte	0x96c
 9047 108a E02B0000 		.4byte	.LLST56
 9048 108e 2A       		.uleb128 0x2a
 9049 108f 60090000 		.4byte	0x960
 9050 1093 2A2C0000 		.4byte	.LLST57
 9051 1097 41       		.uleb128 0x41
 9052 1098 68000000 		.4byte	.Ldebug_ranges0+0x68
 9053 109c 39       		.uleb128 0x39
 9054 109d 84090000 		.4byte	0x984
 9055 10a1 39       		.uleb128 0x39
 9056 10a2 90090000 		.4byte	0x990
 9057 10a6 42       		.uleb128 0x42
 9058 10a7 70000000 		.4byte	.LVL398
 9059 10ab B30B0000 		.4byte	0xbb3
 9060 10af 2C       		.uleb128 0x2c
 9061 10b0 01       		.uleb128 0x1
 9062 10b1 52       		.byte	0x52
 9063 10b2 02       		.uleb128 0x2
 9064 10b3 74       		.byte	0x74
 9065 10b4 00       		.sleb128 0
 9066 10b5 2C       		.uleb128 0x2c
 9067 10b6 01       		.uleb128 0x1
 9068 10b7 51       		.byte	0x51
 9069 10b8 02       		.uleb128 0x2
 9070 10b9 75       		.byte	0x75
 9071 10ba 00       		.sleb128 0
 9072 10bb 2C       		.uleb128 0x2c
 9073 10bc 01       		.uleb128 0x1
 9074 10bd 50       		.byte	0x50
 9075 10be 03       		.uleb128 0x3
 9076 10bf 91       		.byte	0x91
 9077 10c0 FC75     		.sleb128 -1284
 9078 10c2 00       		.byte	0
 9079 10c3 00       		.byte	0
 9080 10c4 00       		.byte	0
 9081 10c5 46       		.uleb128 0x46
 9082 10c6 E9090000 		.4byte	0x9e9
 9083 10ca 94000000 		.4byte	.LBB109
 9084 10ce 0A000000 		.4byte	.LBE109-.LBB109
 9085 10d2 01       		.byte	0x1
 9086 10d3 8001     		.2byte	0x180
ARM GAS  C:\Users\jo\AppData\Local\Temp\ccDsJqTW.s 			page 163


 9087 10d5 14110000 		.4byte	0x1114
 9088 10d9 2A       		.uleb128 0x2a
 9089 10da F5090000 		.4byte	0x9f5
 9090 10de A72C0000 		.4byte	.LLST58
 9091 10e2 2D       		.uleb128 0x2d
 9092 10e3 20090000 		.4byte	0x920
 9093 10e7 94000000 		.4byte	.LBB110
 9094 10eb 0A000000 		.4byte	.LBE110-.LBB110
 9095 10ef 01       		.byte	0x1
 9096 10f0 5D       		.byte	0x5d
 9097 10f1 2A       		.uleb128 0x2a
 9098 10f2 35090000 		.4byte	0x935
 9099 10f6 E42C0000 		.4byte	.LLST59
 9100 10fa 2E       		.uleb128 0x2e
 9101 10fb 2C090000 		.4byte	0x92c
 9102 10ff 2F       		.uleb128 0x2f
 9103 1100 94000000 		.4byte	.LBB111
 9104 1104 0A000000 		.4byte	.LBE111-.LBB111
 9105 1108 30       		.uleb128 0x30
 9106 1109 3E090000 		.4byte	0x93e
 9107 110d 492D0000 		.4byte	.LLST60
 9108 1111 00       		.byte	0
 9109 1112 00       		.byte	0
 9110 1113 00       		.byte	0
 9111 1114 37       		.uleb128 0x37
 9112 1115 12000000 		.4byte	.LVL389
 9113 1119 4E1E0000 		.4byte	0x1e4e
 9114 111d 32110000 		.4byte	0x1132
 9115 1121 2C       		.uleb128 0x2c
 9116 1122 01       		.uleb128 0x1
 9117 1123 51       		.byte	0x51
 9118 1124 05       		.uleb128 0x5
 9119 1125 03       		.byte	0x3
 9120 1126 00000000 		.4byte	.LC0
 9121 112a 2C       		.uleb128 0x2c
 9122 112b 01       		.uleb128 0x1
 9123 112c 50       		.byte	0x50
 9124 112d 03       		.uleb128 0x3
 9125 112e F3       		.byte	0xf3
 9126 112f 01       		.uleb128 0x1
 9127 1130 50       		.byte	0x50
 9128 1131 00       		.byte	0
 9129 1132 37       		.uleb128 0x37
 9130 1133 62000000 		.4byte	.LVL394
 9131 1137 681E0000 		.4byte	0x1e68
 9132 113b 58110000 		.4byte	0x1158
 9133 113f 2C       		.uleb128 0x2c
 9134 1140 01       		.uleb128 0x1
 9135 1141 53       		.byte	0x53
 9136 1142 02       		.uleb128 0x2
 9137 1143 76       		.byte	0x76
 9138 1144 00       		.sleb128 0
 9139 1145 2C       		.uleb128 0x2c
 9140 1146 01       		.uleb128 0x1
 9141 1147 52       		.byte	0x52
 9142 1148 03       		.uleb128 0x3
 9143 1149 0A       		.byte	0xa
ARM GAS  C:\Users\jo\AppData\Local\Temp\ccDsJqTW.s 			page 164


 9144 114a 0004     		.2byte	0x400
 9145 114c 2C       		.uleb128 0x2c
 9146 114d 01       		.uleb128 0x1
 9147 114e 51       		.byte	0x51
 9148 114f 01       		.uleb128 0x1
 9149 1150 31       		.byte	0x31
 9150 1151 2C       		.uleb128 0x2c
 9151 1152 01       		.uleb128 0x1
 9152 1153 50       		.byte	0x50
 9153 1154 02       		.uleb128 0x2
 9154 1155 75       		.byte	0x75
 9155 1156 00       		.sleb128 0
 9156 1157 00       		.byte	0
 9157 1158 37       		.uleb128 0x37
 9158 1159 92000000 		.4byte	.LVL403
 9159 115d AE0C0000 		.4byte	0xcae
 9160 1161 73110000 		.4byte	0x1173
 9161 1165 2C       		.uleb128 0x2c
 9162 1166 01       		.uleb128 0x1
 9163 1167 51       		.byte	0x51
 9164 1168 02       		.uleb128 0x2
 9165 1169 77       		.byte	0x77
 9166 116a 00       		.sleb128 0
 9167 116b 2C       		.uleb128 0x2c
 9168 116c 01       		.uleb128 0x1
 9169 116d 50       		.byte	0x50
 9170 116e 03       		.uleb128 0x3
 9171 116f 91       		.byte	0x91
 9172 1170 FC75     		.sleb128 -1284
 9173 1172 00       		.byte	0
 9174 1173 37       		.uleb128 0x37
 9175 1174 AE000000 		.4byte	.LVL410
 9176 1178 8C1E0000 		.4byte	0x1e8c
 9177 117c 87110000 		.4byte	0x1187
 9178 1180 2C       		.uleb128 0x2c
 9179 1181 01       		.uleb128 0x1
 9180 1182 50       		.byte	0x50
 9181 1183 02       		.uleb128 0x2
 9182 1184 76       		.byte	0x76
 9183 1185 00       		.sleb128 0
 9184 1186 00       		.byte	0
 9185 1187 48       		.uleb128 0x48
 9186 1188 BC000000 		.4byte	.LVL413
 9187 118c 8C1E0000 		.4byte	0x1e8c
 9188 1190 00       		.byte	0
 9189 1191 0F       		.uleb128 0xf
 9190 1192 04       		.byte	0x4
 9191 1193 0E090000 		.4byte	0x90e
 9192 1197 07       		.uleb128 0x7
 9193 1198 4C000000 		.4byte	0x4c
 9194 119c A8110000 		.4byte	0x11a8
 9195 11a0 49       		.uleb128 0x49
 9196 11a1 ED000000 		.4byte	0xed
 9197 11a5 FF03     		.2byte	0x3ff
 9198 11a7 00       		.byte	0
 9199 11a8 3A       		.uleb128 0x3a
 9200 11a9 3E050000 		.4byte	.LASF149
ARM GAS  C:\Users\jo\AppData\Local\Temp\ccDsJqTW.s 			page 165


 9201 11ad 01       		.byte	0x1
 9202 11ae 9001     		.2byte	0x190
 9203 11b0 00000000 		.4byte	.LFB9
 9204 11b4 48010000 		.4byte	.LFE9-.LFB9
 9205 11b8 01       		.uleb128 0x1
 9206 11b9 9C       		.byte	0x9c
 9207 11ba 75130000 		.4byte	0x1375
 9208 11be 3B       		.uleb128 0x3b
 9209 11bf 63747800 		.ascii	"ctx\000"
 9210 11c3 01       		.byte	0x1
 9211 11c4 9001     		.2byte	0x190
 9212 11c6 9D090000 		.4byte	0x99d
 9213 11ca 8D2D0000 		.4byte	.LLST61
 9214 11ce 3B       		.uleb128 0x3b
 9215 11cf 6B657900 		.ascii	"key\000"
 9216 11d3 01       		.byte	0x1
 9217 11d4 9001     		.2byte	0x190
 9218 11d6 A3090000 		.4byte	0x9a3
 9219 11da C12D0000 		.4byte	.LLST62
 9220 11de 3C       		.uleb128 0x3c
 9221 11df 37060000 		.4byte	.LASF150
 9222 11e3 01       		.byte	0x1
 9223 11e4 9101     		.2byte	0x191
 9224 11e6 3A000000 		.4byte	0x3a
 9225 11ea 002E0000 		.4byte	.LLST63
 9226 11ee 3C       		.uleb128 0x3c
 9227 11ef 7E030000 		.4byte	.LASF17
 9228 11f3 01       		.byte	0x1
 9229 11f4 9101     		.2byte	0x191
 9230 11f6 2C000000 		.4byte	0x2c
 9231 11fa 582E0000 		.4byte	.LLST64
 9232 11fe 3E       		.uleb128 0x3e
 9233 11ff 6900     		.ascii	"i\000"
 9234 1201 01       		.byte	0x1
 9235 1202 9301     		.2byte	0x193
 9236 1204 3A000000 		.4byte	0x3a
 9237 1208 8C2E0000 		.4byte	.LLST65
 9238 120c 45       		.uleb128 0x45
 9239 120d 73756D00 		.ascii	"sum\000"
 9240 1211 01       		.byte	0x1
 9241 1212 9401     		.2byte	0x194
 9242 1214 75130000 		.4byte	0x1375
 9243 1218 02       		.uleb128 0x2
 9244 1219 91       		.byte	0x91
 9245 121a 40       		.sleb128 -64
 9246 121b 40       		.uleb128 0x40
 9247 121c C6090000 		.4byte	0x9c6
 9248 1220 62000000 		.4byte	.LBB112
 9249 1224 88000000 		.4byte	.Ldebug_ranges0+0x88
 9250 1228 01       		.byte	0x1
 9251 1229 A601     		.2byte	0x1a6
 9252 122b 42120000 		.4byte	0x1242
 9253 122f 2A       		.uleb128 0x2a
 9254 1230 DD090000 		.4byte	0x9dd
 9255 1234 B72E0000 		.4byte	.LLST66
 9256 1238 2A       		.uleb128 0x2a
 9257 1239 D2090000 		.4byte	0x9d2
ARM GAS  C:\Users\jo\AppData\Local\Temp\ccDsJqTW.s 			page 166


 9258 123d CA2E0000 		.4byte	.LLST67
 9259 1241 00       		.byte	0
 9260 1242 46       		.uleb128 0x46
 9261 1243 53090000 		.4byte	0x953
 9262 1247 9A000000 		.4byte	.LBB115
 9263 124b 0A000000 		.4byte	.LBE115-.LBB115
 9264 124f 01       		.byte	0x1
 9265 1250 A701     		.2byte	0x1a7
 9266 1252 A2120000 		.4byte	0x12a2
 9267 1256 2A       		.uleb128 0x2a
 9268 1257 78090000 		.4byte	0x978
 9269 125b DD2E0000 		.4byte	.LLST68
 9270 125f 2A       		.uleb128 0x2a
 9271 1260 6C090000 		.4byte	0x96c
 9272 1264 F22E0000 		.4byte	.LLST69
 9273 1268 2A       		.uleb128 0x2a
 9274 1269 60090000 		.4byte	0x960
 9275 126d 052F0000 		.4byte	.LLST70
 9276 1271 2F       		.uleb128 0x2f
 9277 1272 9A000000 		.4byte	.LBB116
 9278 1276 0A000000 		.4byte	.LBE116-.LBB116
 9279 127a 39       		.uleb128 0x39
 9280 127b 84090000 		.4byte	0x984
 9281 127f 39       		.uleb128 0x39
 9282 1280 90090000 		.4byte	0x990
 9283 1284 42       		.uleb128 0x42
 9284 1285 A4000000 		.4byte	.LVL427
 9285 1289 B30B0000 		.4byte	0xbb3
 9286 128d 2C       		.uleb128 0x2c
 9287 128e 01       		.uleb128 0x1
 9288 128f 52       		.byte	0x52
 9289 1290 02       		.uleb128 0x2
 9290 1291 08       		.byte	0x8
 9291 1292 40       		.byte	0x40
 9292 1293 2C       		.uleb128 0x2c
 9293 1294 01       		.uleb128 0x1
 9294 1295 51       		.byte	0x51
 9295 1296 02       		.uleb128 0x2
 9296 1297 78       		.byte	0x78
 9297 1298 00       		.sleb128 0
 9298 1299 2C       		.uleb128 0x2c
 9299 129a 01       		.uleb128 0x1
 9300 129b 50       		.byte	0x50
 9301 129c 02       		.uleb128 0x2
 9302 129d 76       		.byte	0x76
 9303 129e 00       		.sleb128 0
 9304 129f 00       		.byte	0
 9305 12a0 00       		.byte	0
 9306 12a1 00       		.byte	0
 9307 12a2 46       		.uleb128 0x46
 9308 12a3 20090000 		.4byte	0x920
 9309 12a7 A4000000 		.4byte	.LBB117
 9310 12ab 0C000000 		.4byte	.LBE117-.LBB117
 9311 12af 01       		.byte	0x1
 9312 12b0 A901     		.2byte	0x1a9
 9313 12b2 D8120000 		.4byte	0x12d8
 9314 12b6 2A       		.uleb128 0x2a
ARM GAS  C:\Users\jo\AppData\Local\Temp\ccDsJqTW.s 			page 167


 9315 12b7 35090000 		.4byte	0x935
 9316 12bb 182F0000 		.4byte	.LLST71
 9317 12bf 2E       		.uleb128 0x2e
 9318 12c0 2C090000 		.4byte	0x92c
 9319 12c4 2F       		.uleb128 0x2f
 9320 12c5 A4000000 		.4byte	.LBB118
 9321 12c9 0C000000 		.4byte	.LBE118-.LBB118
 9322 12cd 30       		.uleb128 0x30
 9323 12ce 3E090000 		.4byte	0x93e
 9324 12d2 652F0000 		.4byte	.LLST72
 9325 12d6 00       		.byte	0
 9326 12d7 00       		.byte	0
 9327 12d8 37       		.uleb128 0x37
 9328 12d9 24000000 		.4byte	.LVL420
 9329 12dd A11E0000 		.4byte	0x1ea1
 9330 12e1 F8120000 		.4byte	0x12f8
 9331 12e5 2C       		.uleb128 0x2c
 9332 12e6 01       		.uleb128 0x1
 9333 12e7 52       		.byte	0x52
 9334 12e8 02       		.uleb128 0x2
 9335 12e9 08       		.byte	0x8
 9336 12ea 40       		.byte	0x40
 9337 12eb 2C       		.uleb128 0x2c
 9338 12ec 01       		.uleb128 0x1
 9339 12ed 51       		.byte	0x51
 9340 12ee 02       		.uleb128 0x2
 9341 12ef 08       		.byte	0x8
 9342 12f0 36       		.byte	0x36
 9343 12f1 2C       		.uleb128 0x2c
 9344 12f2 01       		.uleb128 0x1
 9345 12f3 50       		.byte	0x50
 9346 12f4 02       		.uleb128 0x2
 9347 12f5 78       		.byte	0x78
 9348 12f6 00       		.sleb128 0
 9349 12f7 00       		.byte	0
 9350 12f8 37       		.uleb128 0x37
 9351 12f9 2E000000 		.4byte	.LVL421
 9352 12fd A11E0000 		.4byte	0x1ea1
 9353 1301 18130000 		.4byte	0x1318
 9354 1305 2C       		.uleb128 0x2c
 9355 1306 01       		.uleb128 0x1
 9356 1307 52       		.byte	0x52
 9357 1308 02       		.uleb128 0x2
 9358 1309 08       		.byte	0x8
 9359 130a 40       		.byte	0x40
 9360 130b 2C       		.uleb128 0x2c
 9361 130c 01       		.uleb128 0x1
 9362 130d 51       		.byte	0x51
 9363 130e 02       		.uleb128 0x2
 9364 130f 08       		.byte	0x8
 9365 1310 5C       		.byte	0x5c
 9366 1311 2C       		.uleb128 0x2c
 9367 1312 01       		.uleb128 0x1
 9368 1313 50       		.byte	0x50
 9369 1314 02       		.uleb128 0x2
 9370 1315 79       		.byte	0x79
 9371 1316 00       		.sleb128 0
ARM GAS  C:\Users\jo\AppData\Local\Temp\ccDsJqTW.s 			page 168


 9372 1317 00       		.byte	0
 9373 1318 37       		.uleb128 0x37
 9374 1319 DC000000 		.4byte	.LVL437
 9375 131d F80D0000 		.4byte	0xdf8
 9376 1321 38130000 		.4byte	0x1338
 9377 1325 2C       		.uleb128 0x2c
 9378 1326 01       		.uleb128 0x1
 9379 1327 52       		.byte	0x52
 9380 1328 02       		.uleb128 0x2
 9381 1329 7D       		.byte	0x7d
 9382 132a 00       		.sleb128 0
 9383 132b 2C       		.uleb128 0x2c
 9384 132c 01       		.uleb128 0x1
 9385 132d 51       		.byte	0x51
 9386 132e 02       		.uleb128 0x2
 9387 132f 75       		.byte	0x75
 9388 1330 00       		.sleb128 0
 9389 1331 2C       		.uleb128 0x2c
 9390 1332 01       		.uleb128 0x1
 9391 1333 50       		.byte	0x50
 9392 1334 02       		.uleb128 0x2
 9393 1335 7A       		.byte	0x7a
 9394 1336 00       		.sleb128 0
 9395 1337 00       		.byte	0
 9396 1338 37       		.uleb128 0x37
 9397 1339 F6000000 		.4byte	.LVL440
 9398 133d A11E0000 		.4byte	0x1ea1
 9399 1341 58130000 		.4byte	0x1358
 9400 1345 2C       		.uleb128 0x2c
 9401 1346 01       		.uleb128 0x1
 9402 1347 52       		.byte	0x52
 9403 1348 02       		.uleb128 0x2
 9404 1349 08       		.byte	0x8
 9405 134a 40       		.byte	0x40
 9406 134b 2C       		.uleb128 0x2c
 9407 134c 01       		.uleb128 0x1
 9408 134d 51       		.byte	0x51
 9409 134e 02       		.uleb128 0x2
 9410 134f 08       		.byte	0x8
 9411 1350 36       		.byte	0x36
 9412 1351 2C       		.uleb128 0x2c
 9413 1352 01       		.uleb128 0x1
 9414 1353 50       		.byte	0x50
 9415 1354 02       		.uleb128 0x2
 9416 1355 78       		.byte	0x78
 9417 1356 00       		.sleb128 0
 9418 1357 00       		.byte	0
 9419 1358 42       		.uleb128 0x42
 9420 1359 02010000 		.4byte	.LVL441
 9421 135d A11E0000 		.4byte	0x1ea1
 9422 1361 2C       		.uleb128 0x2c
 9423 1362 01       		.uleb128 0x1
 9424 1363 52       		.byte	0x52
 9425 1364 02       		.uleb128 0x2
 9426 1365 08       		.byte	0x8
 9427 1366 40       		.byte	0x40
 9428 1367 2C       		.uleb128 0x2c
ARM GAS  C:\Users\jo\AppData\Local\Temp\ccDsJqTW.s 			page 169


 9429 1368 01       		.uleb128 0x1
 9430 1369 51       		.byte	0x51
 9431 136a 02       		.uleb128 0x2
 9432 136b 08       		.byte	0x8
 9433 136c 5C       		.byte	0x5c
 9434 136d 2C       		.uleb128 0x2c
 9435 136e 01       		.uleb128 0x1
 9436 136f 50       		.byte	0x50
 9437 1370 02       		.uleb128 0x2
 9438 1371 79       		.byte	0x79
 9439 1372 00       		.sleb128 0
 9440 1373 00       		.byte	0
 9441 1374 00       		.byte	0
 9442 1375 07       		.uleb128 0x7
 9443 1376 4C000000 		.4byte	0x4c
 9444 137a 85130000 		.4byte	0x1385
 9445 137e 08       		.uleb128 0x8
 9446 137f ED000000 		.4byte	0xed
 9447 1383 1F       		.byte	0x1f
 9448 1384 00       		.byte	0
 9449 1385 29       		.uleb128 0x29
 9450 1386 010A0000 		.4byte	0xa01
 9451 138a 00000000 		.4byte	.LFB10
 9452 138e 08000000 		.4byte	.LFE10-.LFB10
 9453 1392 01       		.uleb128 0x1
 9454 1393 9C       		.byte	0x9c
 9455 1394 FD130000 		.4byte	0x13fd
 9456 1398 2A       		.uleb128 0x2a
 9457 1399 0E0A0000 		.4byte	0xa0e
 9458 139d 902F0000 		.4byte	.LLST73
 9459 13a1 2A       		.uleb128 0x2a
 9460 13a2 1A0A0000 		.4byte	0xa1a
 9461 13a6 B12F0000 		.4byte	.LLST74
 9462 13aa 2A       		.uleb128 0x2a
 9463 13ab 260A0000 		.4byte	0xa26
 9464 13af D22F0000 		.4byte	.LLST75
 9465 13b3 43       		.uleb128 0x43
 9466 13b4 53090000 		.4byte	0x953
 9467 13b8 00000000 		.4byte	.LBB120
 9468 13bc 08000000 		.4byte	.LBE120-.LBB120
 9469 13c0 01       		.byte	0x1
 9470 13c1 B201     		.2byte	0x1b2
 9471 13c3 2A       		.uleb128 0x2a
 9472 13c4 78090000 		.4byte	0x978
 9473 13c8 D22F0000 		.4byte	.LLST75
 9474 13cc 2A       		.uleb128 0x2a
 9475 13cd 6C090000 		.4byte	0x96c
 9476 13d1 B12F0000 		.4byte	.LLST74
 9477 13d5 2A       		.uleb128 0x2a
 9478 13d6 60090000 		.4byte	0x960
 9479 13da 902F0000 		.4byte	.LLST73
 9480 13de 2F       		.uleb128 0x2f
 9481 13df 00000000 		.4byte	.LBB121
 9482 13e3 08000000 		.4byte	.LBE121-.LBB121
 9483 13e7 39       		.uleb128 0x39
 9484 13e8 84090000 		.4byte	0x984
 9485 13ec 39       		.uleb128 0x39
ARM GAS  C:\Users\jo\AppData\Local\Temp\ccDsJqTW.s 			page 170


 9486 13ed 90090000 		.4byte	0x990
 9487 13f1 38       		.uleb128 0x38
 9488 13f2 08000000 		.4byte	.LVL443
 9489 13f6 B30B0000 		.4byte	0xbb3
 9490 13fa 00       		.byte	0
 9491 13fb 00       		.byte	0
 9492 13fc 00       		.byte	0
 9493 13fd 3A       		.uleb128 0x3a
 9494 13fe 25020000 		.4byte	.LASF151
 9495 1402 01       		.byte	0x1
 9496 1403 B801     		.2byte	0x1b8
 9497 1405 00000000 		.4byte	.LFB11
 9498 1409 04010000 		.4byte	.LFE11-.LFB11
 9499 140d 01       		.uleb128 0x1
 9500 140e 9C       		.byte	0x9c
 9501 140f C3150000 		.4byte	0x15c3
 9502 1413 3B       		.uleb128 0x3b
 9503 1414 63747800 		.ascii	"ctx\000"
 9504 1418 01       		.byte	0x1
 9505 1419 B801     		.2byte	0x1b8
 9506 141b 9D090000 		.4byte	0x99d
 9507 141f F32F0000 		.4byte	.LLST79
 9508 1423 3C       		.uleb128 0x3c
 9509 1424 A0040000 		.4byte	.LASF142
 9510 1428 01       		.byte	0x1
 9511 1429 B801     		.2byte	0x1b8
 9512 142b 71030000 		.4byte	0x371
 9513 142f 27300000 		.4byte	.LLST80
 9514 1433 3F       		.uleb128 0x3f
 9515 1434 7E030000 		.4byte	.LASF17
 9516 1438 01       		.byte	0x1
 9517 1439 BA01     		.2byte	0x1ba
 9518 143b 2C000000 		.4byte	0x2c
 9519 143f 01       		.uleb128 0x1
 9520 1440 56       		.byte	0x56
 9521 1441 3D       		.uleb128 0x3d
 9522 1442 0C000000 		.4byte	.LASF152
 9523 1446 01       		.byte	0x1
 9524 1447 BA01     		.2byte	0x1ba
 9525 1449 2C000000 		.4byte	0x2c
 9526 144d 5B300000 		.4byte	.LLST81
 9527 1451 3F       		.uleb128 0x3f
 9528 1452 92010000 		.4byte	.LASF153
 9529 1456 01       		.byte	0x1
 9530 1457 BB01     		.2byte	0x1bb
 9531 1459 75130000 		.4byte	0x1375
 9532 145d 02       		.uleb128 0x2
 9533 145e 91       		.byte	0x91
 9534 145f 40       		.sleb128 -64
 9535 1460 40       		.uleb128 0x40
 9536 1461 C6090000 		.4byte	0x9c6
 9537 1465 18000000 		.4byte	.LBB122
 9538 1469 A0000000 		.4byte	.Ldebug_ranges0+0xa0
 9539 146d 01       		.byte	0x1
 9540 146e C101     		.2byte	0x1c1
 9541 1470 87140000 		.4byte	0x1487
 9542 1474 2A       		.uleb128 0x2a
ARM GAS  C:\Users\jo\AppData\Local\Temp\ccDsJqTW.s 			page 171


 9543 1475 DD090000 		.4byte	0x9dd
 9544 1479 7C300000 		.4byte	.LLST82
 9545 147d 2A       		.uleb128 0x2a
 9546 147e D2090000 		.4byte	0x9d2
 9547 1482 9B300000 		.4byte	.LLST83
 9548 1486 00       		.byte	0
 9549 1487 40       		.uleb128 0x40
 9550 1488 53090000 		.4byte	0x953
 9551 148c 4C000000 		.4byte	.LBB129
 9552 1490 D0000000 		.4byte	.Ldebug_ranges0+0xd0
 9553 1494 01       		.byte	0x1
 9554 1495 C201     		.2byte	0x1c2
 9555 1497 E4140000 		.4byte	0x14e4
 9556 149b 2A       		.uleb128 0x2a
 9557 149c 78090000 		.4byte	0x978
 9558 14a0 B9300000 		.4byte	.LLST84
 9559 14a4 2A       		.uleb128 0x2a
 9560 14a5 6C090000 		.4byte	0x96c
 9561 14a9 CE300000 		.4byte	.LLST85
 9562 14ad 2A       		.uleb128 0x2a
 9563 14ae 60090000 		.4byte	0x960
 9564 14b2 EF300000 		.4byte	.LLST86
 9565 14b6 41       		.uleb128 0x41
 9566 14b7 D0000000 		.4byte	.Ldebug_ranges0+0xd0
 9567 14bb 39       		.uleb128 0x39
 9568 14bc 84090000 		.4byte	0x984
 9569 14c0 39       		.uleb128 0x39
 9570 14c1 90090000 		.4byte	0x990
 9571 14c5 42       		.uleb128 0x42
 9572 14c6 5C000000 		.4byte	.LVL451
 9573 14ca B30B0000 		.4byte	0xbb3
 9574 14ce 2C       		.uleb128 0x2c
 9575 14cf 01       		.uleb128 0x1
 9576 14d0 52       		.byte	0x52
 9577 14d1 02       		.uleb128 0x2
 9578 14d2 08       		.byte	0x8
 9579 14d3 40       		.byte	0x40
 9580 14d4 2C       		.uleb128 0x2c
 9581 14d5 01       		.uleb128 0x1
 9582 14d6 51       		.byte	0x51
 9583 14d7 03       		.uleb128 0x3
 9584 14d8 75       		.byte	0x75
 9585 14d9 A801     		.sleb128 168
 9586 14db 2C       		.uleb128 0x2c
 9587 14dc 01       		.uleb128 0x1
 9588 14dd 50       		.byte	0x50
 9589 14de 02       		.uleb128 0x2
 9590 14df 75       		.byte	0x75
 9591 14e0 00       		.sleb128 0
 9592 14e1 00       		.byte	0
 9593 14e2 00       		.byte	0
 9594 14e3 00       		.byte	0
 9595 14e4 46       		.uleb128 0x46
 9596 14e5 53090000 		.4byte	0x953
 9597 14e9 5C000000 		.4byte	.LBB134
 9598 14ed 0A000000 		.4byte	.LBE134-.LBB134
 9599 14f1 01       		.byte	0x1
ARM GAS  C:\Users\jo\AppData\Local\Temp\ccDsJqTW.s 			page 172


 9600 14f2 C301     		.2byte	0x1c3
 9601 14f4 44150000 		.4byte	0x1544
 9602 14f8 2A       		.uleb128 0x2a
 9603 14f9 78090000 		.4byte	0x978
 9604 14fd 0D310000 		.4byte	.LLST87
 9605 1501 2A       		.uleb128 0x2a
 9606 1502 6C090000 		.4byte	0x96c
 9607 1506 20310000 		.4byte	.LLST88
 9608 150a 2A       		.uleb128 0x2a
 9609 150b 60090000 		.4byte	0x960
 9610 150f 3E310000 		.4byte	.LLST89
 9611 1513 2F       		.uleb128 0x2f
 9612 1514 5C000000 		.4byte	.LBB135
 9613 1518 0A000000 		.4byte	.LBE135-.LBB135
 9614 151c 39       		.uleb128 0x39
 9615 151d 84090000 		.4byte	0x984
 9616 1521 39       		.uleb128 0x39
 9617 1522 90090000 		.4byte	0x990
 9618 1526 42       		.uleb128 0x42
 9619 1527 66000000 		.4byte	.LVL452
 9620 152b B30B0000 		.4byte	0xbb3
 9621 152f 2C       		.uleb128 0x2c
 9622 1530 01       		.uleb128 0x1
 9623 1531 52       		.byte	0x52
 9624 1532 02       		.uleb128 0x2
 9625 1533 77       		.byte	0x77
 9626 1534 00       		.sleb128 0
 9627 1535 2C       		.uleb128 0x2c
 9628 1536 01       		.uleb128 0x1
 9629 1537 51       		.byte	0x51
 9630 1538 02       		.uleb128 0x2
 9631 1539 7D       		.byte	0x7d
 9632 153a 00       		.sleb128 0
 9633 153b 2C       		.uleb128 0x2c
 9634 153c 01       		.uleb128 0x1
 9635 153d 50       		.byte	0x50
 9636 153e 02       		.uleb128 0x2
 9637 153f 75       		.byte	0x75
 9638 1540 00       		.sleb128 0
 9639 1541 00       		.byte	0
 9640 1542 00       		.byte	0
 9641 1543 00       		.byte	0
 9642 1544 46       		.uleb128 0x46
 9643 1545 20090000 		.4byte	0x920
 9644 1549 6E000000 		.4byte	.LBB136
 9645 154d 0E000000 		.4byte	.LBE136-.LBB136
 9646 1551 01       		.byte	0x1
 9647 1552 C601     		.2byte	0x1c6
 9648 1554 7E150000 		.4byte	0x157e
 9649 1558 2A       		.uleb128 0x2a
 9650 1559 35090000 		.4byte	0x935
 9651 155d 51310000 		.4byte	.LLST90
 9652 1561 2A       		.uleb128 0x2a
 9653 1562 2C090000 		.4byte	0x92c
 9654 1566 9E310000 		.4byte	.LLST91
 9655 156a 2F       		.uleb128 0x2f
 9656 156b 6E000000 		.4byte	.LBB137
ARM GAS  C:\Users\jo\AppData\Local\Temp\ccDsJqTW.s 			page 173


 9657 156f 0E000000 		.4byte	.LBE137-.LBB137
 9658 1573 30       		.uleb128 0x30
 9659 1574 3E090000 		.4byte	0x93e
 9660 1578 BC310000 		.4byte	.LLST92
 9661 157c 00       		.byte	0
 9662 157d 00       		.byte	0
 9663 157e 37       		.uleb128 0x37
 9664 157f 18000000 		.4byte	.LVL448
 9665 1583 AE0C0000 		.4byte	0xcae
 9666 1587 98150000 		.4byte	0x1598
 9667 158b 2C       		.uleb128 0x2c
 9668 158c 01       		.uleb128 0x1
 9669 158d 51       		.byte	0x51
 9670 158e 02       		.uleb128 0x2
 9671 158f 7D       		.byte	0x7d
 9672 1590 00       		.sleb128 0
 9673 1591 2C       		.uleb128 0x2c
 9674 1592 01       		.uleb128 0x1
 9675 1593 50       		.byte	0x50
 9676 1594 02       		.uleb128 0x2
 9677 1595 75       		.byte	0x75
 9678 1596 00       		.sleb128 0
 9679 1597 00       		.byte	0
 9680 1598 37       		.uleb128 0x37
 9681 1599 6E000000 		.4byte	.LVL453
 9682 159d AE0C0000 		.4byte	0xcae
 9683 15a1 B2150000 		.4byte	0x15b2
 9684 15a5 2C       		.uleb128 0x2c
 9685 15a6 01       		.uleb128 0x1
 9686 15a7 51       		.byte	0x51
 9687 15a8 02       		.uleb128 0x2
 9688 15a9 78       		.byte	0x78
 9689 15aa 00       		.sleb128 0
 9690 15ab 2C       		.uleb128 0x2c
 9691 15ac 01       		.uleb128 0x1
 9692 15ad 50       		.byte	0x50
 9693 15ae 02       		.uleb128 0x2
 9694 15af 75       		.byte	0x75
 9695 15b0 00       		.sleb128 0
 9696 15b1 00       		.byte	0
 9697 15b2 42       		.uleb128 0x42
 9698 15b3 88000000 		.4byte	.LVL460
 9699 15b7 AE0C0000 		.4byte	0xcae
 9700 15bb 2C       		.uleb128 0x2c
 9701 15bc 01       		.uleb128 0x1
 9702 15bd 51       		.byte	0x51
 9703 15be 02       		.uleb128 0x2
 9704 15bf 7D       		.byte	0x7d
 9705 15c0 00       		.sleb128 0
 9706 15c1 00       		.byte	0
 9707 15c2 00       		.byte	0
 9708 15c3 3A       		.uleb128 0x3a
 9709 15c4 28080000 		.4byte	.LASF154
 9710 15c8 01       		.byte	0x1
 9711 15c9 CC01     		.2byte	0x1cc
 9712 15cb 00000000 		.4byte	.LFB12
 9713 15cf A0000000 		.4byte	.LFE12-.LFB12
ARM GAS  C:\Users\jo\AppData\Local\Temp\ccDsJqTW.s 			page 174


 9714 15d3 01       		.uleb128 0x1
 9715 15d4 9C       		.byte	0x9c
 9716 15d5 6D160000 		.4byte	0x166d
 9717 15d9 3B       		.uleb128 0x3b
 9718 15da 63747800 		.ascii	"ctx\000"
 9719 15de 01       		.byte	0x1
 9720 15df CC01     		.2byte	0x1cc
 9721 15e1 9D090000 		.4byte	0x99d
 9722 15e5 E7310000 		.4byte	.LLST93
 9723 15e9 40       		.uleb128 0x40
 9724 15ea C6090000 		.4byte	0x9c6
 9725 15ee 04000000 		.4byte	.LBB140
 9726 15f2 E8000000 		.4byte	.Ldebug_ranges0+0xe8
 9727 15f6 01       		.byte	0x1
 9728 15f7 CE01     		.2byte	0x1ce
 9729 15f9 10160000 		.4byte	0x1610
 9730 15fd 2A       		.uleb128 0x2a
 9731 15fe DD090000 		.4byte	0x9dd
 9732 1602 13320000 		.4byte	.LLST94
 9733 1606 2A       		.uleb128 0x2a
 9734 1607 D2090000 		.4byte	0x9d2
 9735 160b 31320000 		.4byte	.LLST95
 9736 160f 00       		.byte	0
 9737 1610 4A       		.uleb128 0x4a
 9738 1611 53090000 		.4byte	0x953
 9739 1615 3A000000 		.4byte	.LBB145
 9740 1619 08010000 		.4byte	.Ldebug_ranges0+0x108
 9741 161d 01       		.byte	0x1
 9742 161e CF01     		.2byte	0x1cf
 9743 1620 2A       		.uleb128 0x2a
 9744 1621 78090000 		.4byte	0x978
 9745 1625 5D320000 		.4byte	.LLST96
 9746 1629 2A       		.uleb128 0x2a
 9747 162a 6C090000 		.4byte	0x96c
 9748 162e 72320000 		.4byte	.LLST97
 9749 1632 2A       		.uleb128 0x2a
 9750 1633 60090000 		.4byte	0x960
 9751 1637 A3320000 		.4byte	.LLST98
 9752 163b 41       		.uleb128 0x41
 9753 163c 08010000 		.4byte	.Ldebug_ranges0+0x108
 9754 1640 39       		.uleb128 0x39
 9755 1641 84090000 		.4byte	0x984
 9756 1645 39       		.uleb128 0x39
 9757 1646 90090000 		.4byte	0x990
 9758 164a 2B       		.uleb128 0x2b
 9759 164b 48000000 		.4byte	.LVL465
 9760 164f B30B0000 		.4byte	0xbb3
 9761 1653 2C       		.uleb128 0x2c
 9762 1654 01       		.uleb128 0x1
 9763 1655 52       		.byte	0x52
 9764 1656 02       		.uleb128 0x2
 9765 1657 08       		.byte	0x8
 9766 1658 40       		.byte	0x40
 9767 1659 2C       		.uleb128 0x2c
 9768 165a 01       		.uleb128 0x1
 9769 165b 51       		.byte	0x51
 9770 165c 05       		.uleb128 0x5
ARM GAS  C:\Users\jo\AppData\Local\Temp\ccDsJqTW.s 			page 175


 9771 165d F3       		.byte	0xf3
 9772 165e 01       		.uleb128 0x1
 9773 165f 50       		.byte	0x50
 9774 1660 23       		.byte	0x23
 9775 1661 68       		.uleb128 0x68
 9776 1662 2C       		.uleb128 0x2c
 9777 1663 01       		.uleb128 0x1
 9778 1664 50       		.byte	0x50
 9779 1665 03       		.uleb128 0x3
 9780 1666 F3       		.byte	0xf3
 9781 1667 01       		.uleb128 0x1
 9782 1668 50       		.byte	0x50
 9783 1669 00       		.byte	0
 9784 166a 00       		.byte	0
 9785 166b 00       		.byte	0
 9786 166c 00       		.byte	0
 9787 166d 3A       		.uleb128 0x3a
 9788 166e D2070000 		.4byte	.LASF155
 9789 1672 01       		.byte	0x1
 9790 1673 D501     		.2byte	0x1d5
 9791 1675 00000000 		.4byte	.LFB13
 9792 1679 4A000000 		.4byte	.LFE13-.LFB13
 9793 167d 01       		.uleb128 0x1
 9794 167e 9C       		.byte	0x9c
 9795 167f 3E180000 		.4byte	0x183e
 9796 1683 3B       		.uleb128 0x3b
 9797 1684 6B657900 		.ascii	"key\000"
 9798 1688 01       		.byte	0x1
 9799 1689 D501     		.2byte	0x1d5
 9800 168b A3090000 		.4byte	0x9a3
 9801 168f C4320000 		.4byte	.LLST99
 9802 1693 3C       		.uleb128 0x3c
 9803 1694 37060000 		.4byte	.LASF150
 9804 1698 01       		.byte	0x1
 9805 1699 D501     		.2byte	0x1d5
 9806 169b 3A000000 		.4byte	0x3a
 9807 169f E2320000 		.4byte	.LLST100
 9808 16a3 3C       		.uleb128 0x3c
 9809 16a4 22060000 		.4byte	.LASF128
 9810 16a8 01       		.byte	0x1
 9811 16a9 D601     		.2byte	0x1d6
 9812 16ab A3090000 		.4byte	0x9a3
 9813 16af 00330000 		.4byte	.LLST101
 9814 16b3 3C       		.uleb128 0x3c
 9815 16b4 67070000 		.4byte	.LASF129
 9816 16b8 01       		.byte	0x1
 9817 16b9 D601     		.2byte	0x1d6
 9818 16bb 3A000000 		.4byte	0x3a
 9819 16bf 1E330000 		.4byte	.LLST102
 9820 16c3 3C       		.uleb128 0x3c
 9821 16c4 A0040000 		.4byte	.LASF142
 9822 16c8 01       		.byte	0x1
 9823 16c9 D701     		.2byte	0x1d7
 9824 16cb 71030000 		.4byte	0x371
 9825 16cf 3C330000 		.4byte	.LLST103
 9826 16d3 3C       		.uleb128 0x3c
 9827 16d4 7E030000 		.4byte	.LASF17
ARM GAS  C:\Users\jo\AppData\Local\Temp\ccDsJqTW.s 			page 176


 9828 16d8 01       		.byte	0x1
 9829 16d9 D701     		.2byte	0x1d7
 9830 16db 2C000000 		.4byte	0x2c
 9831 16df 5C330000 		.4byte	.LLST104
 9832 16e3 45       		.uleb128 0x45
 9833 16e4 63747800 		.ascii	"ctx\000"
 9834 16e8 01       		.byte	0x1
 9835 16e9 D901     		.2byte	0x1d9
 9836 16eb 14010000 		.4byte	0x114
 9837 16ef 03       		.uleb128 0x3
 9838 16f0 91       		.byte	0x91
 9839 16f1 FC7D     		.sleb128 -260
 9840 16f3 40       		.uleb128 0x40
 9841 16f4 AE090000 		.4byte	0x9ae
 9842 16f8 0A000000 		.4byte	.LBB150
 9843 16fc 20010000 		.4byte	.Ldebug_ranges0+0x120
 9844 1700 01       		.byte	0x1
 9845 1701 DB01     		.2byte	0x1db
 9846 1703 2D170000 		.4byte	0x172d
 9847 1707 2A       		.uleb128 0x2a
 9848 1708 BA090000 		.4byte	0x9ba
 9849 170c 7C330000 		.4byte	.LLST105
 9850 1710 42       		.uleb128 0x42
 9851 1711 16000000 		.4byte	.LVL471
 9852 1715 141E0000 		.4byte	0x1e14
 9853 1719 2C       		.uleb128 0x2c
 9854 171a 01       		.uleb128 0x1
 9855 171b 52       		.byte	0x52
 9856 171c 02       		.uleb128 0x2
 9857 171d 08       		.byte	0x8
 9858 171e EC       		.byte	0xec
 9859 171f 2C       		.uleb128 0x2c
 9860 1720 01       		.uleb128 0x1
 9861 1721 51       		.byte	0x51
 9862 1722 01       		.uleb128 0x1
 9863 1723 30       		.byte	0x30
 9864 1724 2C       		.uleb128 0x2c
 9865 1725 01       		.uleb128 0x1
 9866 1726 50       		.byte	0x50
 9867 1727 03       		.uleb128 0x3
 9868 1728 91       		.byte	0x91
 9869 1729 FC7D     		.sleb128 -260
 9870 172b 00       		.byte	0
 9871 172c 00       		.byte	0
 9872 172d 40       		.uleb128 0x40
 9873 172e 010A0000 		.4byte	0xa01
 9874 1732 22000000 		.4byte	.LBB154
 9875 1736 38010000 		.4byte	.Ldebug_ranges0+0x138
 9876 173a 01       		.byte	0x1
 9877 173b DD01     		.2byte	0x1dd
 9878 173d AE170000 		.4byte	0x17ae
 9879 1741 31       		.uleb128 0x31
 9880 1742 260A0000 		.4byte	0xa26
 9881 1746 01       		.uleb128 0x1
 9882 1747 54       		.byte	0x54
 9883 1748 31       		.uleb128 0x31
 9884 1749 1A0A0000 		.4byte	0xa1a
ARM GAS  C:\Users\jo\AppData\Local\Temp\ccDsJqTW.s 			page 177


 9885 174d 01       		.uleb128 0x1
 9886 174e 57       		.byte	0x57
 9887 174f 2A       		.uleb128 0x2a
 9888 1750 0E0A0000 		.4byte	0xa0e
 9889 1754 0F340000 		.4byte	.LLST106
 9890 1758 4A       		.uleb128 0x4a
 9891 1759 53090000 		.4byte	0x953
 9892 175d 22000000 		.4byte	.LBB155
 9893 1761 38010000 		.4byte	.Ldebug_ranges0+0x138
 9894 1765 01       		.byte	0x1
 9895 1766 B201     		.2byte	0x1b2
 9896 1768 31       		.uleb128 0x31
 9897 1769 78090000 		.4byte	0x978
 9898 176d 01       		.uleb128 0x1
 9899 176e 54       		.byte	0x54
 9900 176f 31       		.uleb128 0x31
 9901 1770 6C090000 		.4byte	0x96c
 9902 1774 01       		.uleb128 0x1
 9903 1775 57       		.byte	0x57
 9904 1776 2A       		.uleb128 0x2a
 9905 1777 60090000 		.4byte	0x960
 9906 177b 0F340000 		.4byte	.LLST106
 9907 177f 41       		.uleb128 0x41
 9908 1780 38010000 		.4byte	.Ldebug_ranges0+0x138
 9909 1784 39       		.uleb128 0x39
 9910 1785 84090000 		.4byte	0x984
 9911 1789 39       		.uleb128 0x39
 9912 178a 90090000 		.4byte	0x990
 9913 178e 42       		.uleb128 0x42
 9914 178f 48000000 		.4byte	.LVL482
 9915 1793 B30B0000 		.4byte	0xbb3
 9916 1797 2C       		.uleb128 0x2c
 9917 1798 01       		.uleb128 0x1
 9918 1799 52       		.byte	0x52
 9919 179a 02       		.uleb128 0x2
 9920 179b 74       		.byte	0x74
 9921 179c 00       		.sleb128 0
 9922 179d 2C       		.uleb128 0x2c
 9923 179e 01       		.uleb128 0x1
 9924 179f 51       		.byte	0x51
 9925 17a0 02       		.uleb128 0x2
 9926 17a1 77       		.byte	0x77
 9927 17a2 00       		.sleb128 0
 9928 17a3 2C       		.uleb128 0x2c
 9929 17a4 01       		.uleb128 0x1
 9930 17a5 50       		.byte	0x50
 9931 17a6 03       		.uleb128 0x3
 9932 17a7 91       		.byte	0x91
 9933 17a8 FC7D     		.sleb128 -260
 9934 17aa 00       		.byte	0
 9935 17ab 00       		.byte	0
 9936 17ac 00       		.byte	0
 9937 17ad 00       		.byte	0
 9938 17ae 46       		.uleb128 0x46
 9939 17af E9090000 		.4byte	0x9e9
 9940 17b3 2E000000 		.4byte	.LBB159
 9941 17b7 0C000000 		.4byte	.LBE159-.LBB159
ARM GAS  C:\Users\jo\AppData\Local\Temp\ccDsJqTW.s 			page 178


 9942 17bb 01       		.byte	0x1
 9943 17bc DF01     		.2byte	0x1df
 9944 17be FD170000 		.4byte	0x17fd
 9945 17c2 2A       		.uleb128 0x2a
 9946 17c3 F5090000 		.4byte	0x9f5
 9947 17c7 70340000 		.4byte	.LLST108
 9948 17cb 2D       		.uleb128 0x2d
 9949 17cc 20090000 		.4byte	0x920
 9950 17d0 2E000000 		.4byte	.LBB160
 9951 17d4 0C000000 		.4byte	.LBE160-.LBB160
 9952 17d8 01       		.byte	0x1
 9953 17d9 5D       		.byte	0x5d
 9954 17da 2A       		.uleb128 0x2a
 9955 17db 35090000 		.4byte	0x935
 9956 17df 9F340000 		.4byte	.LLST109
 9957 17e3 2E       		.uleb128 0x2e
 9958 17e4 2C090000 		.4byte	0x92c
 9959 17e8 2F       		.uleb128 0x2f
 9960 17e9 2E000000 		.4byte	.LBB161
 9961 17ed 0C000000 		.4byte	.LBE161-.LBB161
 9962 17f1 30       		.uleb128 0x30
 9963 17f2 3E090000 		.4byte	0x93e
 9964 17f6 EA340000 		.4byte	.LLST110
 9965 17fa 00       		.byte	0
 9966 17fb 00       		.byte	0
 9967 17fc 00       		.byte	0
 9968 17fd 37       		.uleb128 0x37
 9969 17fe 22000000 		.4byte	.LVL473
 9970 1802 A8110000 		.4byte	0x11a8
 9971 1806 25180000 		.4byte	0x1825
 9972 180a 2C       		.uleb128 0x2c
 9973 180b 01       		.uleb128 0x1
 9974 180c 53       		.byte	0x53
 9975 180d 03       		.uleb128 0x3
 9976 180e 91       		.byte	0x91
 9977 180f 04       		.sleb128 4
 9978 1810 06       		.byte	0x6
 9979 1811 2C       		.uleb128 0x2c
 9980 1812 01       		.uleb128 0x1
 9981 1813 52       		.byte	0x52
 9982 1814 02       		.uleb128 0x2
 9983 1815 75       		.byte	0x75
 9984 1816 00       		.sleb128 0
 9985 1817 2C       		.uleb128 0x2c
 9986 1818 01       		.uleb128 0x1
 9987 1819 51       		.byte	0x51
 9988 181a 02       		.uleb128 0x2
 9989 181b 76       		.byte	0x76
 9990 181c 00       		.sleb128 0
 9991 181d 2C       		.uleb128 0x2c
 9992 181e 01       		.uleb128 0x1
 9993 181f 50       		.byte	0x50
 9994 1820 03       		.uleb128 0x3
 9995 1821 91       		.byte	0x91
 9996 1822 FC7D     		.sleb128 -260
 9997 1824 00       		.byte	0
 9998 1825 42       		.uleb128 0x42
ARM GAS  C:\Users\jo\AppData\Local\Temp\ccDsJqTW.s 			page 179


 9999 1826 2C000000 		.4byte	.LVL475
 10000 182a FD130000 		.4byte	0x13fd
 10001 182e 2C       		.uleb128 0x2c
 10002 182f 01       		.uleb128 0x1
 10003 1830 51       		.byte	0x51
 10004 1831 03       		.uleb128 0x3
 10005 1832 91       		.byte	0x91
 10006 1833 00       		.sleb128 0
 10007 1834 06       		.byte	0x6
 10008 1835 2C       		.uleb128 0x2c
 10009 1836 01       		.uleb128 0x1
 10010 1837 50       		.byte	0x50
 10011 1838 03       		.uleb128 0x3
 10012 1839 91       		.byte	0x91
 10013 183a FC7D     		.sleb128 -260
 10014 183c 00       		.byte	0
 10015 183d 00       		.byte	0
 10016 183e 47       		.uleb128 0x47
 10017 183f 3C000000 		.4byte	.LASF157
 10018 1843 01       		.byte	0x1
 10019 1844 8802     		.2byte	0x288
 10020 1846 2C000000 		.4byte	0x2c
 10021 184a 00000000 		.4byte	.LFB14
 10022 184e DC020000 		.4byte	.LFE14-.LFB14
 10023 1852 01       		.uleb128 0x1
 10024 1853 9C       		.byte	0x9c
 10025 1854 B71C0000 		.4byte	0x1cb7
 10026 1858 3C       		.uleb128 0x3c
 10027 1859 99060000 		.4byte	.LASF158
 10028 185d 01       		.byte	0x1
 10029 185e 8802     		.2byte	0x288
 10030 1860 2C000000 		.4byte	0x2c
 10031 1864 23350000 		.4byte	.LLST111
 10032 1868 3E       		.uleb128 0x3e
 10033 1869 6900     		.ascii	"i\000"
 10034 186b 01       		.byte	0x1
 10035 186c 8A02     		.2byte	0x28a
 10036 186e 2C000000 		.4byte	0x2c
 10037 1872 41350000 		.4byte	.LLST112
 10038 1876 3E       		.uleb128 0x3e
 10039 1877 6A00     		.ascii	"j\000"
 10040 1879 01       		.byte	0x1
 10041 187a 8A02     		.2byte	0x28a
 10042 187c 2C000000 		.4byte	0x2c
 10043 1880 C6350000 		.4byte	.LLST113
 10044 1884 3E       		.uleb128 0x3e
 10045 1885 6B00     		.ascii	"k\000"
 10046 1887 01       		.byte	0x1
 10047 1888 8A02     		.2byte	0x28a
 10048 188a 2C000000 		.4byte	0x2c
 10049 188e 8E360000 		.4byte	.LLST114
 10050 1892 3D       		.uleb128 0x3d
 10051 1893 38020000 		.4byte	.LASF159
 10052 1897 01       		.byte	0x1
 10053 1898 8A02     		.2byte	0x28a
 10054 189a 2C000000 		.4byte	0x2c
 10055 189e E5360000 		.4byte	.LLST115
ARM GAS  C:\Users\jo\AppData\Local\Temp\ccDsJqTW.s 			page 180


 10056 18a2 3E       		.uleb128 0x3e
 10057 18a3 72657400 		.ascii	"ret\000"
 10058 18a7 01       		.byte	0x1
 10059 18a8 8A02     		.2byte	0x28a
 10060 18aa 2C000000 		.4byte	0x2c
 10061 18ae 08370000 		.4byte	.LLST116
 10062 18b2 45       		.uleb128 0x45
 10063 18b3 62756600 		.ascii	"buf\000"
 10064 18b7 01       		.byte	0x1
 10065 18b8 8B02     		.2byte	0x28b
 10066 18ba 97110000 		.4byte	0x1197
 10067 18be 03       		.uleb128 0x3
 10068 18bf 91       		.byte	0x91
 10069 18c0 D877     		.sleb128 -1064
 10070 18c2 3F       		.uleb128 0x3f
 10071 18c3 81000000 		.4byte	.LASF160
 10072 18c7 01       		.byte	0x1
 10073 18c8 8C02     		.2byte	0x28c
 10074 18ca 75130000 		.4byte	0x1375
 10075 18ce 03       		.uleb128 0x3
 10076 18cf 91       		.byte	0x91
 10077 18d0 CC75     		.sleb128 -1332
 10078 18d2 45       		.uleb128 0x45
 10079 18d3 63747800 		.ascii	"ctx\000"
 10080 18d7 01       		.byte	0x1
 10081 18d8 8D02     		.2byte	0x28d
 10082 18da 14010000 		.4byte	0x114
 10083 18de 03       		.uleb128 0x3
 10084 18df 91       		.byte	0x91
 10085 18e0 EC75     		.sleb128 -1300
 10086 18e2 4B       		.uleb128 0x4b
 10087 18e3 31070000 		.4byte	.LASF182
 10088 18e7 01       		.byte	0x1
 10089 18e8 E002     		.2byte	0x2e0
 10090 18ea 3A020000 		.4byte	.L158
 10091 18ee 46       		.uleb128 0x46
 10092 18ef AE090000 		.4byte	0x9ae
 10093 18f3 0A000000 		.4byte	.LBB163
 10094 18f7 0C000000 		.4byte	.LBE163-.LBB163
 10095 18fb 01       		.byte	0x1
 10096 18fc 8F02     		.2byte	0x28f
 10097 18fe 28190000 		.4byte	0x1928
 10098 1902 2A       		.uleb128 0x2a
 10099 1903 BA090000 		.4byte	0x9ba
 10100 1907 33370000 		.4byte	.LLST117
 10101 190b 42       		.uleb128 0x42
 10102 190c 14000000 		.4byte	.LVL486
 10103 1910 141E0000 		.4byte	0x1e14
 10104 1914 2C       		.uleb128 0x2c
 10105 1915 01       		.uleb128 0x1
 10106 1916 52       		.byte	0x52
 10107 1917 02       		.uleb128 0x2
 10108 1918 08       		.byte	0x8
 10109 1919 EC       		.byte	0xec
 10110 191a 2C       		.uleb128 0x2c
 10111 191b 01       		.uleb128 0x1
 10112 191c 51       		.byte	0x51
ARM GAS  C:\Users\jo\AppData\Local\Temp\ccDsJqTW.s 			page 181


 10113 191d 01       		.uleb128 0x1
 10114 191e 30       		.byte	0x30
 10115 191f 2C       		.uleb128 0x2c
 10116 1920 01       		.uleb128 0x1
 10117 1921 50       		.byte	0x50
 10118 1922 03       		.uleb128 0x3
 10119 1923 91       		.byte	0x91
 10120 1924 EC75     		.sleb128 -1300
 10121 1926 00       		.byte	0
 10122 1927 00       		.byte	0
 10123 1928 40       		.uleb128 0x40
 10124 1929 C6090000 		.4byte	0x9c6
 10125 192d 1A000000 		.4byte	.LBB165
 10126 1931 50010000 		.4byte	.Ldebug_ranges0+0x150
 10127 1935 01       		.byte	0x1
 10128 1936 9902     		.2byte	0x299
 10129 1938 4F190000 		.4byte	0x194f
 10130 193c 2A       		.uleb128 0x2a
 10131 193d DD090000 		.4byte	0x9dd
 10132 1941 2A380000 		.4byte	.LLST118
 10133 1945 2A       		.uleb128 0x2a
 10134 1946 D2090000 		.4byte	0x9d2
 10135 194a 62380000 		.4byte	.LLST119
 10136 194e 00       		.byte	0
 10137 194f 40       		.uleb128 0x40
 10138 1950 53090000 		.4byte	0x953
 10139 1954 8A000000 		.4byte	.LBB173
 10140 1958 80010000 		.4byte	.Ldebug_ranges0+0x180
 10141 195c 01       		.byte	0x1
 10142 195d A302     		.2byte	0x2a3
 10143 195f AC190000 		.4byte	0x19ac
 10144 1963 2A       		.uleb128 0x2a
 10145 1964 78090000 		.4byte	0x978
 10146 1968 4E390000 		.4byte	.LLST120
 10147 196c 2A       		.uleb128 0x2a
 10148 196d 6C090000 		.4byte	0x96c
 10149 1971 9C390000 		.4byte	.LLST121
 10150 1975 2A       		.uleb128 0x2a
 10151 1976 60090000 		.4byte	0x960
 10152 197a 023A0000 		.4byte	.LLST122
 10153 197e 41       		.uleb128 0x41
 10154 197f 80010000 		.4byte	.Ldebug_ranges0+0x180
 10155 1983 39       		.uleb128 0x39
 10156 1984 84090000 		.4byte	0x984
 10157 1988 39       		.uleb128 0x39
 10158 1989 90090000 		.4byte	0x990
 10159 198d 42       		.uleb128 0x42
 10160 198e 34020000 		.4byte	.LVL536
 10161 1992 B30B0000 		.4byte	0xbb3
 10162 1996 2C       		.uleb128 0x2c
 10163 1997 01       		.uleb128 0x1
 10164 1998 51       		.byte	0x51
 10165 1999 08       		.uleb128 0x8
 10166 199a 78       		.byte	0x78
 10167 199b 00       		.sleb128 0
 10168 199c 03       		.byte	0x3
 10169 199d 00000000 		.4byte	.LANCHOR3
ARM GAS  C:\Users\jo\AppData\Local\Temp\ccDsJqTW.s 			page 182


 10170 19a1 22       		.byte	0x22
 10171 19a2 2C       		.uleb128 0x2c
 10172 19a3 01       		.uleb128 0x1
 10173 19a4 50       		.byte	0x50
 10174 19a5 03       		.uleb128 0x3
 10175 19a6 91       		.byte	0x91
 10176 19a7 EC75     		.sleb128 -1300
 10177 19a9 00       		.byte	0
 10178 19aa 00       		.byte	0
 10179 19ab 00       		.byte	0
 10180 19ac 40       		.uleb128 0x40
 10181 19ad 010A0000 		.4byte	0xa01
 10182 19b1 F2000000 		.4byte	.LBB176
 10183 19b5 98010000 		.4byte	.Ldebug_ranges0+0x198
 10184 19b9 01       		.byte	0x1
 10185 19ba C902     		.2byte	0x2c9
 10186 19bc 3C1A0000 		.4byte	0x1a3c
 10187 19c0 2A       		.uleb128 0x2a
 10188 19c1 260A0000 		.4byte	0xa26
 10189 19c5 3F3A0000 		.4byte	.LLST123
 10190 19c9 2A       		.uleb128 0x2a
 10191 19ca 1A0A0000 		.4byte	0xa1a
 10192 19ce 5D3A0000 		.4byte	.LLST124
 10193 19d2 2A       		.uleb128 0x2a
 10194 19d3 0E0A0000 		.4byte	0xa0e
 10195 19d7 913A0000 		.4byte	.LLST125
 10196 19db 4A       		.uleb128 0x4a
 10197 19dc 53090000 		.4byte	0x953
 10198 19e0 F2000000 		.4byte	.LBB177
 10199 19e4 98010000 		.4byte	.Ldebug_ranges0+0x198
 10200 19e8 01       		.byte	0x1
 10201 19e9 B201     		.2byte	0x1b2
 10202 19eb 2A       		.uleb128 0x2a
 10203 19ec 78090000 		.4byte	0x978
 10204 19f0 3F3A0000 		.4byte	.LLST123
 10205 19f4 2A       		.uleb128 0x2a
 10206 19f5 6C090000 		.4byte	0x96c
 10207 19f9 5D3A0000 		.4byte	.LLST124
 10208 19fd 2A       		.uleb128 0x2a
 10209 19fe 60090000 		.4byte	0x960
 10210 1a02 913A0000 		.4byte	.LLST125
 10211 1a06 41       		.uleb128 0x41
 10212 1a07 98010000 		.4byte	.Ldebug_ranges0+0x198
 10213 1a0b 39       		.uleb128 0x39
 10214 1a0c 84090000 		.4byte	0x984
 10215 1a10 39       		.uleb128 0x39
 10216 1a11 90090000 		.4byte	0x990
 10217 1a15 42       		.uleb128 0x42
 10218 1a16 94010000 		.4byte	.LVL518
 10219 1a1a B30B0000 		.4byte	0xbb3
 10220 1a1e 2C       		.uleb128 0x2c
 10221 1a1f 01       		.uleb128 0x1
 10222 1a20 51       		.byte	0x51
 10223 1a21 0F       		.uleb128 0xf
 10224 1a22 75       		.byte	0x75
 10225 1a23 00       		.sleb128 0
 10226 1a24 33       		.byte	0x33
ARM GAS  C:\Users\jo\AppData\Local\Temp\ccDsJqTW.s 			page 183


 10227 1a25 24       		.byte	0x24
 10228 1a26 75       		.byte	0x75
 10229 1a27 00       		.sleb128 0
 10230 1a28 22       		.byte	0x22
 10231 1a29 41       		.byte	0x41
 10232 1a2a 1E       		.byte	0x1e
 10233 1a2b 03       		.byte	0x3
 10234 1a2c 00000000 		.4byte	.LANCHOR8
 10235 1a30 22       		.byte	0x22
 10236 1a31 2C       		.uleb128 0x2c
 10237 1a32 01       		.uleb128 0x1
 10238 1a33 50       		.byte	0x50
 10239 1a34 03       		.uleb128 0x3
 10240 1a35 91       		.byte	0x91
 10241 1a36 EC75     		.sleb128 -1300
 10242 1a38 00       		.byte	0
 10243 1a39 00       		.byte	0
 10244 1a3a 00       		.byte	0
 10245 1a3b 00       		.byte	0
 10246 1a3c 46       		.uleb128 0x46
 10247 1a3d 53090000 		.4byte	0x953
 10248 1a41 D8010000 		.4byte	.LBB187
 10249 1a45 0C000000 		.4byte	.LBE187-.LBB187
 10250 1a49 01       		.byte	0x1
 10251 1a4a A002     		.2byte	0x2a0
 10252 1a4c 9E1A0000 		.4byte	0x1a9e
 10253 1a50 2A       		.uleb128 0x2a
 10254 1a51 78090000 		.4byte	0x978
 10255 1a55 033B0000 		.4byte	.LLST129
 10256 1a59 2A       		.uleb128 0x2a
 10257 1a5a 6C090000 		.4byte	0x96c
 10258 1a5e 193B0000 		.4byte	.LLST130
 10259 1a62 2A       		.uleb128 0x2a
 10260 1a63 60090000 		.4byte	0x960
 10261 1a67 2C3B0000 		.4byte	.LLST131
 10262 1a6b 2F       		.uleb128 0x2f
 10263 1a6c D8010000 		.4byte	.LBB188
 10264 1a70 0C000000 		.4byte	.LBE188-.LBB188
 10265 1a74 39       		.uleb128 0x39
 10266 1a75 84090000 		.4byte	0x984
 10267 1a79 39       		.uleb128 0x39
 10268 1a7a 90090000 		.4byte	0x990
 10269 1a7e 42       		.uleb128 0x42
 10270 1a7f E4010000 		.4byte	.LVL524
 10271 1a83 B30B0000 		.4byte	0xbb3
 10272 1a87 2C       		.uleb128 0x2c
 10273 1a88 01       		.uleb128 0x1
 10274 1a89 52       		.byte	0x52
 10275 1a8a 03       		.uleb128 0x3
 10276 1a8b 0A       		.byte	0xa
 10277 1a8c E803     		.2byte	0x3e8
 10278 1a8e 2C       		.uleb128 0x2c
 10279 1a8f 01       		.uleb128 0x1
 10280 1a90 51       		.byte	0x51
 10281 1a91 02       		.uleb128 0x2
 10282 1a92 74       		.byte	0x74
 10283 1a93 00       		.sleb128 0
ARM GAS  C:\Users\jo\AppData\Local\Temp\ccDsJqTW.s 			page 184


 10284 1a94 2C       		.uleb128 0x2c
 10285 1a95 01       		.uleb128 0x1
 10286 1a96 50       		.byte	0x50
 10287 1a97 03       		.uleb128 0x3
 10288 1a98 91       		.byte	0x91
 10289 1a99 EC75     		.sleb128 -1300
 10290 1a9b 00       		.byte	0
 10291 1a9c 00       		.byte	0
 10292 1a9d 00       		.byte	0
 10293 1a9e 46       		.uleb128 0x46
 10294 1a9f E9090000 		.4byte	0x9e9
 10295 1aa3 3C020000 		.4byte	.LBB190
 10296 1aa7 0A000000 		.4byte	.LBE190-.LBB190
 10297 1aab 01       		.byte	0x1
 10298 1aac E102     		.2byte	0x2e1
 10299 1aae ED1A0000 		.4byte	0x1aed
 10300 1ab2 2A       		.uleb128 0x2a
 10301 1ab3 F5090000 		.4byte	0x9f5
 10302 1ab7 5B3B0000 		.4byte	.LLST132
 10303 1abb 2D       		.uleb128 0x2d
 10304 1abc 20090000 		.4byte	0x920
 10305 1ac0 3C020000 		.4byte	.LBB191
 10306 1ac4 0A000000 		.4byte	.LBE191-.LBB191
 10307 1ac8 01       		.byte	0x1
 10308 1ac9 5D       		.byte	0x5d
 10309 1aca 2A       		.uleb128 0x2a
 10310 1acb 35090000 		.4byte	0x935
 10311 1acf 8A3B0000 		.4byte	.LLST133
 10312 1ad3 2E       		.uleb128 0x2e
 10313 1ad4 2C090000 		.4byte	0x92c
 10314 1ad8 2F       		.uleb128 0x2f
 10315 1ad9 3C020000 		.4byte	.LBB192
 10316 1add 0A000000 		.4byte	.LBE192-.LBB192
 10317 1ae1 30       		.uleb128 0x30
 10318 1ae2 3E090000 		.4byte	0x93e
 10319 1ae6 DB3B0000 		.4byte	.LLST134
 10320 1aea 00       		.byte	0
 10321 1aeb 00       		.byte	0
 10322 1aec 00       		.byte	0
 10323 1aed 37       		.uleb128 0x37
 10324 1aee 98000000 		.4byte	.LVL494
 10325 1af2 AE0C0000 		.4byte	0xcae
 10326 1af6 091B0000 		.4byte	0x1b09
 10327 1afa 2C       		.uleb128 0x2c
 10328 1afb 01       		.uleb128 0x1
 10329 1afc 51       		.byte	0x51
 10330 1afd 03       		.uleb128 0x3
 10331 1afe 91       		.byte	0x91
 10332 1aff CC75     		.sleb128 -1332
 10333 1b01 2C       		.uleb128 0x2c
 10334 1b02 01       		.uleb128 0x1
 10335 1b03 50       		.byte	0x50
 10336 1b04 03       		.uleb128 0x3
 10337 1b05 91       		.byte	0x91
 10338 1b06 EC75     		.sleb128 -1300
 10339 1b08 00       		.byte	0
 10340 1b09 37       		.uleb128 0x37
ARM GAS  C:\Users\jo\AppData\Local\Temp\ccDsJqTW.s 			page 185


 10341 1b0a A4000000 		.4byte	.LVL495
 10342 1b0e C01E0000 		.4byte	0x1ec0
 10343 1b12 2C1B0000 		.4byte	0x1b2c
 10344 1b16 2C       		.uleb128 0x2c
 10345 1b17 01       		.uleb128 0x1
 10346 1b18 52       		.byte	0x52
 10347 1b19 04       		.uleb128 0x4
 10348 1b1a 7A       		.byte	0x7a
 10349 1b1b 00       		.sleb128 0
 10350 1b1c 32       		.byte	0x32
 10351 1b1d 24       		.byte	0x24
 10352 1b1e 2C       		.uleb128 0x2c
 10353 1b1f 01       		.uleb128 0x1
 10354 1b20 51       		.byte	0x51
 10355 1b21 02       		.uleb128 0x2
 10356 1b22 77       		.byte	0x77
 10357 1b23 00       		.sleb128 0
 10358 1b24 2C       		.uleb128 0x2c
 10359 1b25 01       		.uleb128 0x1
 10360 1b26 50       		.byte	0x50
 10361 1b27 03       		.uleb128 0x3
 10362 1b28 91       		.byte	0x91
 10363 1b29 CC75     		.sleb128 -1332
 10364 1b2b 00       		.byte	0
 10365 1b2c 37       		.uleb128 0x37
 10366 1b2d EE000000 		.4byte	.LVL500
 10367 1b31 A8110000 		.4byte	0x11a8
 10368 1b35 641B0000 		.4byte	0x1b64
 10369 1b39 2C       		.uleb128 0x2c
 10370 1b3a 01       		.uleb128 0x1
 10371 1b3b 53       		.byte	0x53
 10372 1b3c 02       		.uleb128 0x2
 10373 1b3d 77       		.byte	0x77
 10374 1b3e 00       		.sleb128 0
 10375 1b3f 2C       		.uleb128 0x2c
 10376 1b40 01       		.uleb128 0x1
 10377 1b41 52       		.byte	0x52
 10378 1b42 0B       		.uleb128 0xb
 10379 1b43 75       		.byte	0x75
 10380 1b44 00       		.sleb128 0
 10381 1b45 32       		.byte	0x32
 10382 1b46 24       		.byte	0x24
 10383 1b47 03       		.byte	0x3
 10384 1b48 00000000 		.4byte	.LANCHOR6
 10385 1b4c 22       		.byte	0x22
 10386 1b4d 06       		.byte	0x6
 10387 1b4e 2C       		.uleb128 0x2c
 10388 1b4f 01       		.uleb128 0x1
 10389 1b50 51       		.byte	0x51
 10390 1b51 0A       		.uleb128 0xa
 10391 1b52 75       		.byte	0x75
 10392 1b53 00       		.sleb128 0
 10393 1b54 4A       		.byte	0x4a
 10394 1b55 1E       		.byte	0x1e
 10395 1b56 03       		.byte	0x3
 10396 1b57 00000000 		.4byte	.LANCHOR5
 10397 1b5b 22       		.byte	0x22
ARM GAS  C:\Users\jo\AppData\Local\Temp\ccDsJqTW.s 			page 186


 10398 1b5c 2C       		.uleb128 0x2c
 10399 1b5d 01       		.uleb128 0x1
 10400 1b5e 50       		.byte	0x50
 10401 1b5f 03       		.uleb128 0x3
 10402 1b60 91       		.byte	0x91
 10403 1b61 EC75     		.sleb128 -1300
 10404 1b63 00       		.byte	0
 10405 1b64 37       		.uleb128 0x37
 10406 1b65 FE000000 		.4byte	.LVL504
 10407 1b69 FD130000 		.4byte	0x13fd
 10408 1b6d 801B0000 		.4byte	0x1b80
 10409 1b71 2C       		.uleb128 0x2c
 10410 1b72 01       		.uleb128 0x1
 10411 1b73 51       		.byte	0x51
 10412 1b74 03       		.uleb128 0x3
 10413 1b75 91       		.byte	0x91
 10414 1b76 CC75     		.sleb128 -1332
 10415 1b78 2C       		.uleb128 0x2c
 10416 1b79 01       		.uleb128 0x1
 10417 1b7a 50       		.byte	0x50
 10418 1b7b 03       		.uleb128 0x3
 10419 1b7c 91       		.byte	0x91
 10420 1b7d EC75     		.sleb128 -1300
 10421 1b7f 00       		.byte	0
 10422 1b80 37       		.uleb128 0x37
 10423 1b81 12010000 		.4byte	.LVL505
 10424 1b85 C01E0000 		.4byte	0x1ec0
 10425 1b89 9B1B0000 		.4byte	0x1b9b
 10426 1b8d 2C       		.uleb128 0x2c
 10427 1b8e 01       		.uleb128 0x1
 10428 1b8f 51       		.byte	0x51
 10429 1b90 02       		.uleb128 0x2
 10430 1b91 78       		.byte	0x78
 10431 1b92 00       		.sleb128 0
 10432 1b93 2C       		.uleb128 0x2c
 10433 1b94 01       		.uleb128 0x1
 10434 1b95 50       		.byte	0x50
 10435 1b96 03       		.uleb128 0x3
 10436 1b97 91       		.byte	0x91
 10437 1b98 CC75     		.sleb128 -1332
 10438 1b9a 00       		.byte	0
 10439 1b9b 37       		.uleb128 0x37
 10440 1b9c 5E010000 		.4byte	.LVL510
 10441 1ba0 DF1E0000 		.4byte	0x1edf
 10442 1ba4 C21B0000 		.4byte	0x1bc2
 10443 1ba8 2C       		.uleb128 0x2c
 10444 1ba9 01       		.uleb128 0x1
 10445 1baa 52       		.byte	0x52
 10446 1bab 02       		.uleb128 0x2
 10447 1bac 75       		.byte	0x75
 10448 1bad 01       		.sleb128 1
 10449 1bae 2C       		.uleb128 0x2c
 10450 1baf 01       		.uleb128 0x1
 10451 1bb0 51       		.byte	0x51
 10452 1bb1 06       		.uleb128 0x6
 10453 1bb2 38       		.byte	0x38
 10454 1bb3 77       		.byte	0x77
ARM GAS  C:\Users\jo\AppData\Local\Temp\ccDsJqTW.s 			page 187


 10455 1bb4 00       		.sleb128 0
 10456 1bb5 1C       		.byte	0x1c
 10457 1bb6 35       		.byte	0x35
 10458 1bb7 24       		.byte	0x24
 10459 1bb8 2C       		.uleb128 0x2c
 10460 1bb9 01       		.uleb128 0x1
 10461 1bba 50       		.byte	0x50
 10462 1bbb 05       		.uleb128 0x5
 10463 1bbc 03       		.byte	0x3
 10464 1bbd 28000000 		.4byte	.LC4
 10465 1bc1 00       		.byte	0
 10466 1bc2 37       		.uleb128 0x37
 10467 1bc3 6E010000 		.4byte	.LVL512
 10468 1bc7 A11E0000 		.4byte	0x1ea1
 10469 1bcb E21B0000 		.4byte	0x1be2
 10470 1bcf 2C       		.uleb128 0x2c
 10471 1bd0 01       		.uleb128 0x1
 10472 1bd1 52       		.byte	0x52
 10473 1bd2 02       		.uleb128 0x2
 10474 1bd3 08       		.byte	0x8
 10475 1bd4 83       		.byte	0x83
 10476 1bd5 2C       		.uleb128 0x2c
 10477 1bd6 01       		.uleb128 0x1
 10478 1bd7 51       		.byte	0x51
 10479 1bd8 02       		.uleb128 0x2
 10480 1bd9 08       		.byte	0x8
 10481 1bda AA       		.byte	0xaa
 10482 1bdb 2C       		.uleb128 0x2c
 10483 1bdc 01       		.uleb128 0x1
 10484 1bdd 50       		.byte	0x50
 10485 1bde 02       		.uleb128 0x2
 10486 1bdf 74       		.byte	0x74
 10487 1be0 00       		.sleb128 0
 10488 1be1 00       		.byte	0
 10489 1be2 37       		.uleb128 0x37
 10490 1be3 7A010000 		.4byte	.LVL514
 10491 1be7 A8110000 		.4byte	0x11a8
 10492 1beb 091C0000 		.4byte	0x1c09
 10493 1bef 2C       		.uleb128 0x2c
 10494 1bf0 01       		.uleb128 0x1
 10495 1bf1 53       		.byte	0x53
 10496 1bf2 02       		.uleb128 0x2
 10497 1bf3 77       		.byte	0x77
 10498 1bf4 00       		.sleb128 0
 10499 1bf5 2C       		.uleb128 0x2c
 10500 1bf6 01       		.uleb128 0x1
 10501 1bf7 52       		.byte	0x52
 10502 1bf8 02       		.uleb128 0x2
 10503 1bf9 08       		.byte	0x8
 10504 1bfa 83       		.byte	0x83
 10505 1bfb 2C       		.uleb128 0x2c
 10506 1bfc 01       		.uleb128 0x1
 10507 1bfd 51       		.byte	0x51
 10508 1bfe 02       		.uleb128 0x2
 10509 1bff 74       		.byte	0x74
 10510 1c00 00       		.sleb128 0
 10511 1c01 2C       		.uleb128 0x2c
ARM GAS  C:\Users\jo\AppData\Local\Temp\ccDsJqTW.s 			page 188


 10512 1c02 01       		.uleb128 0x1
 10513 1c03 50       		.byte	0x50
 10514 1c04 03       		.uleb128 0x3
 10515 1c05 91       		.byte	0x91
 10516 1c06 EC75     		.sleb128 -1300
 10517 1c08 00       		.byte	0
 10518 1c09 37       		.uleb128 0x37
 10519 1c0a D4010000 		.4byte	.LVL521
 10520 1c0e A11E0000 		.4byte	0x1ea1
 10521 1c12 2A1C0000 		.4byte	0x1c2a
 10522 1c16 2C       		.uleb128 0x2c
 10523 1c17 01       		.uleb128 0x1
 10524 1c18 52       		.byte	0x52
 10525 1c19 03       		.uleb128 0x3
 10526 1c1a 0A       		.byte	0xa
 10527 1c1b E803     		.2byte	0x3e8
 10528 1c1d 2C       		.uleb128 0x2c
 10529 1c1e 01       		.uleb128 0x1
 10530 1c1f 51       		.byte	0x51
 10531 1c20 02       		.uleb128 0x2
 10532 1c21 08       		.byte	0x8
 10533 1c22 61       		.byte	0x61
 10534 1c23 2C       		.uleb128 0x2c
 10535 1c24 01       		.uleb128 0x1
 10536 1c25 50       		.byte	0x50
 10537 1c26 02       		.uleb128 0x2
 10538 1c27 74       		.byte	0x74
 10539 1c28 00       		.sleb128 0
 10540 1c29 00       		.byte	0
 10541 1c2a 37       		.uleb128 0x37
 10542 1c2b F6010000 		.4byte	.LVL528
 10543 1c2f F51E0000 		.4byte	0x1ef5
 10544 1c33 411C0000 		.4byte	0x1c41
 10545 1c37 2C       		.uleb128 0x2c
 10546 1c38 01       		.uleb128 0x1
 10547 1c39 50       		.byte	0x50
 10548 1c3a 05       		.uleb128 0x5
 10549 1c3b 03       		.byte	0x3
 10550 1c3c 20000000 		.4byte	.LC3
 10551 1c40 00       		.byte	0
 10552 1c41 37       		.uleb128 0x37
 10553 1c42 16020000 		.4byte	.LVL530
 10554 1c46 DF1E0000 		.4byte	0x1edf
 10555 1c4a 661C0000 		.4byte	0x1c66
 10556 1c4e 2C       		.uleb128 0x2c
 10557 1c4f 01       		.uleb128 0x1
 10558 1c50 52       		.byte	0x52
 10559 1c51 02       		.uleb128 0x2
 10560 1c52 78       		.byte	0x78
 10561 1c53 01       		.sleb128 1
 10562 1c54 2C       		.uleb128 0x2c
 10563 1c55 01       		.uleb128 0x1
 10564 1c56 51       		.byte	0x51
 10565 1c57 04       		.uleb128 0x4
 10566 1c58 7A       		.byte	0x7a
 10567 1c59 00       		.sleb128 0
 10568 1c5a 35       		.byte	0x35
ARM GAS  C:\Users\jo\AppData\Local\Temp\ccDsJqTW.s 			page 189


 10569 1c5b 24       		.byte	0x24
 10570 1c5c 2C       		.uleb128 0x2c
 10571 1c5d 01       		.uleb128 0x1
 10572 1c5e 50       		.byte	0x50
 10573 1c5f 05       		.uleb128 0x5
 10574 1c60 03       		.byte	0x3
 10575 1c61 04000000 		.4byte	.LC1
 10576 1c65 00       		.byte	0
 10577 1c66 37       		.uleb128 0x37
 10578 1c67 20020000 		.4byte	.LVL532
 10579 1c6b F51E0000 		.4byte	0x1ef5
 10580 1c6f 7D1C0000 		.4byte	0x1c7d
 10581 1c73 2C       		.uleb128 0x2c
 10582 1c74 01       		.uleb128 0x1
 10583 1c75 50       		.byte	0x50
 10584 1c76 05       		.uleb128 0x5
 10585 1c77 03       		.byte	0x3
 10586 1c78 20000000 		.4byte	.LC3
 10587 1c7c 00       		.byte	0
 10588 1c7d 37       		.uleb128 0x37
 10589 1c7e 54020000 		.4byte	.LVL544
 10590 1c82 0E1F0000 		.4byte	0x1f0e
 10591 1c86 901C0000 		.4byte	0x1c90
 10592 1c8a 2C       		.uleb128 0x2c
 10593 1c8b 01       		.uleb128 0x1
 10594 1c8c 50       		.byte	0x50
 10595 1c8d 01       		.uleb128 0x1
 10596 1c8e 3A       		.byte	0x3a
 10597 1c8f 00       		.byte	0
 10598 1c90 37       		.uleb128 0x37
 10599 1c91 5C020000 		.4byte	.LVL546
 10600 1c95 F51E0000 		.4byte	0x1ef5
 10601 1c99 A71C0000 		.4byte	0x1ca7
 10602 1c9d 2C       		.uleb128 0x2c
 10603 1c9e 01       		.uleb128 0x1
 10604 1c9f 50       		.byte	0x50
 10605 1ca0 05       		.uleb128 0x5
 10606 1ca1 03       		.byte	0x3
 10607 1ca2 18000000 		.4byte	.LC2
 10608 1ca6 00       		.byte	0
 10609 1ca7 42       		.uleb128 0x42
 10610 1ca8 66020000 		.4byte	.LVL548
 10611 1cac 0E1F0000 		.4byte	0x1f0e
 10612 1cb0 2C       		.uleb128 0x2c
 10613 1cb1 01       		.uleb128 0x1
 10614 1cb2 50       		.byte	0x50
 10615 1cb3 01       		.uleb128 0x1
 10616 1cb4 3A       		.byte	0x3a
 10617 1cb5 00       		.byte	0
 10618 1cb6 00       		.byte	0
 10619 1cb7 3F       		.uleb128 0x3f
 10620 1cb8 5C030000 		.4byte	.LASF161
 10621 1cbc 01       		.byte	0x1
 10622 1cbd 3001     		.2byte	0x130
 10623 1cbf C91C0000 		.4byte	0x1cc9
 10624 1cc3 05       		.uleb128 0x5
 10625 1cc4 03       		.byte	0x3
ARM GAS  C:\Users\jo\AppData\Local\Temp\ccDsJqTW.s 			page 190


 10626 1cc5 00000000 		.4byte	sha256_padding
 10627 1cc9 18       		.uleb128 0x18
 10628 1cca 04010000 		.4byte	0x104
 10629 1cce 07       		.uleb128 0x7
 10630 1ccf 4C000000 		.4byte	0x4c
 10631 1cd3 E41C0000 		.4byte	0x1ce4
 10632 1cd7 08       		.uleb128 0x8
 10633 1cd8 ED000000 		.4byte	0xed
 10634 1cdc 02       		.byte	0x2
 10635 1cdd 08       		.uleb128 0x8
 10636 1cde ED000000 		.4byte	0xed
 10637 1ce2 38       		.byte	0x38
 10638 1ce3 00       		.byte	0
 10639 1ce4 3F       		.uleb128 0x3f
 10640 1ce5 11000000 		.4byte	.LASF162
 10641 1ce9 01       		.byte	0x1
 10642 1cea E601     		.2byte	0x1e6
 10643 1cec F61C0000 		.4byte	0x1cf6
 10644 1cf0 05       		.uleb128 0x5
 10645 1cf1 03       		.byte	0x3
 10646 1cf2 00000000 		.4byte	sha256_test_buf
 10647 1cf6 18       		.uleb128 0x18
 10648 1cf7 CE1C0000 		.4byte	0x1cce
 10649 1cfb 07       		.uleb128 0x7
 10650 1cfc 2C000000 		.4byte	0x2c
 10651 1d00 0B1D0000 		.4byte	0x1d0b
 10652 1d04 08       		.uleb128 0x8
 10653 1d05 ED000000 		.4byte	0xed
 10654 1d09 02       		.byte	0x2
 10655 1d0a 00       		.byte	0
 10656 1d0b 3F       		.uleb128 0x3f
 10657 1d0c 36070000 		.4byte	.LASF163
 10658 1d10 01       		.byte	0x1
 10659 1d11 ED01     		.2byte	0x1ed
 10660 1d13 1D1D0000 		.4byte	0x1d1d
 10661 1d17 05       		.uleb128 0x5
 10662 1d18 03       		.byte	0x3
 10663 1d19 00000000 		.4byte	sha256_test_buflen
 10664 1d1d 18       		.uleb128 0x18
 10665 1d1e FB1C0000 		.4byte	0x1cfb
 10666 1d22 07       		.uleb128 0x7
 10667 1d23 4C000000 		.4byte	0x4c
 10668 1d27 381D0000 		.4byte	0x1d38
 10669 1d2b 08       		.uleb128 0x8
 10670 1d2c ED000000 		.4byte	0xed
 10671 1d30 05       		.byte	0x5
 10672 1d31 08       		.uleb128 0x8
 10673 1d32 ED000000 		.4byte	0xed
 10674 1d36 1F       		.byte	0x1f
 10675 1d37 00       		.byte	0
 10676 1d38 3F       		.uleb128 0x3f
 10677 1d39 55020000 		.4byte	.LASF164
 10678 1d3d 01       		.byte	0x1
 10679 1d3e F201     		.2byte	0x1f2
 10680 1d40 4A1D0000 		.4byte	0x1d4a
 10681 1d44 05       		.uleb128 0x5
 10682 1d45 03       		.byte	0x3
ARM GAS  C:\Users\jo\AppData\Local\Temp\ccDsJqTW.s 			page 191


 10683 1d46 00000000 		.4byte	sha256_test_sum
 10684 1d4a 18       		.uleb128 0x18
 10685 1d4b 221D0000 		.4byte	0x1d22
 10686 1d4f 07       		.uleb128 0x7
 10687 1d50 4C000000 		.4byte	0x4c
 10688 1d54 651D0000 		.4byte	0x1d65
 10689 1d58 08       		.uleb128 0x8
 10690 1d59 ED000000 		.4byte	0xed
 10691 1d5d 06       		.byte	0x6
 10692 1d5e 08       		.uleb128 0x8
 10693 1d5f ED000000 		.4byte	0xed
 10694 1d63 19       		.byte	0x19
 10695 1d64 00       		.byte	0
 10696 1d65 3F       		.uleb128 0x3f
 10697 1d66 BC040000 		.4byte	.LASF165
 10698 1d6a 01       		.byte	0x1
 10699 1d6b 1802     		.2byte	0x218
 10700 1d6d 771D0000 		.4byte	0x1d77
 10701 1d71 05       		.uleb128 0x5
 10702 1d72 03       		.byte	0x3
 10703 1d73 00000000 		.4byte	sha256_hmac_test_key
 10704 1d77 18       		.uleb128 0x18
 10705 1d78 4F1D0000 		.4byte	0x1d4f
 10706 1d7c 07       		.uleb128 0x7
 10707 1d7d 2C000000 		.4byte	0x2c
 10708 1d81 8C1D0000 		.4byte	0x1d8c
 10709 1d85 08       		.uleb128 0x8
 10710 1d86 ED000000 		.4byte	0xed
 10711 1d8a 06       		.byte	0x6
 10712 1d8b 00       		.byte	0
 10713 1d8c 3F       		.uleb128 0x3f
 10714 1d8d DA040000 		.4byte	.LASF166
 10715 1d91 01       		.byte	0x1
 10716 1d92 2702     		.2byte	0x227
 10717 1d94 9E1D0000 		.4byte	0x1d9e
 10718 1d98 05       		.uleb128 0x5
 10719 1d99 03       		.byte	0x3
 10720 1d9a 00000000 		.4byte	sha256_hmac_test_keylen
 10721 1d9e 18       		.uleb128 0x18
 10722 1d9f 7C1D0000 		.4byte	0x1d7c
 10723 1da3 07       		.uleb128 0x7
 10724 1da4 4C000000 		.4byte	0x4c
 10725 1da8 B91D0000 		.4byte	0x1db9
 10726 1dac 08       		.uleb128 0x8
 10727 1dad ED000000 		.4byte	0xed
 10728 1db1 06       		.byte	0x6
 10729 1db2 08       		.uleb128 0x8
 10730 1db3 ED000000 		.4byte	0xed
 10731 1db7 98       		.byte	0x98
 10732 1db8 00       		.byte	0
 10733 1db9 3F       		.uleb128 0x3f
 10734 1dba A7040000 		.4byte	.LASF167
 10735 1dbe 01       		.byte	0x1
 10736 1dbf 2C02     		.2byte	0x22c
 10737 1dc1 CB1D0000 		.4byte	0x1dcb
 10738 1dc5 05       		.uleb128 0x5
 10739 1dc6 03       		.byte	0x3
ARM GAS  C:\Users\jo\AppData\Local\Temp\ccDsJqTW.s 			page 192


 10740 1dc7 00000000 		.4byte	sha256_hmac_test_buf
 10741 1dcb 18       		.uleb128 0x18
 10742 1dcc A31D0000 		.4byte	0x1da3
 10743 1dd0 3F       		.uleb128 0x3f
 10744 1dd1 14050000 		.4byte	.LASF168
 10745 1dd5 01       		.byte	0x1
 10746 1dd6 4102     		.2byte	0x241
 10747 1dd8 E21D0000 		.4byte	0x1de2
 10748 1ddc 05       		.uleb128 0x5
 10749 1ddd 03       		.byte	0x3
 10750 1dde 00000000 		.4byte	sha256_hmac_test_buflen
 10751 1de2 18       		.uleb128 0x18
 10752 1de3 7C1D0000 		.4byte	0x1d7c
 10753 1de7 07       		.uleb128 0x7
 10754 1de8 4C000000 		.4byte	0x4c
 10755 1dec FD1D0000 		.4byte	0x1dfd
 10756 1df0 08       		.uleb128 0x8
 10757 1df1 ED000000 		.4byte	0xed
 10758 1df5 0D       		.byte	0xd
 10759 1df6 08       		.uleb128 0x8
 10760 1df7 ED000000 		.4byte	0xed
 10761 1dfb 1F       		.byte	0x1f
 10762 1dfc 00       		.byte	0
 10763 1dfd 3F       		.uleb128 0x3f
 10764 1dfe B8070000 		.4byte	.LASF169
 10765 1e02 01       		.byte	0x1
 10766 1e03 4602     		.2byte	0x246
 10767 1e05 0F1E0000 		.4byte	0x1e0f
 10768 1e09 05       		.uleb128 0x5
 10769 1e0a 03       		.byte	0x3
 10770 1e0b 00000000 		.4byte	sha256_hmac_test_sum
 10771 1e0f 18       		.uleb128 0x18
 10772 1e10 E71D0000 		.4byte	0x1de7
 10773 1e14 4C       		.uleb128 0x4c
 10774 1e15 1D070000 		.4byte	.LASF170
 10775 1e19 B2010000 		.4byte	0x1b2
 10776 1e1d 311E0000 		.4byte	0x1e31
 10777 1e21 14       		.uleb128 0x14
 10778 1e22 B2010000 		.4byte	0x1b2
 10779 1e26 14       		.uleb128 0x14
 10780 1e27 2C000000 		.4byte	0x2c
 10781 1e2b 14       		.uleb128 0x14
 10782 1e2c ED000000 		.4byte	0xed
 10783 1e30 00       		.byte	0
 10784 1e31 4C       		.uleb128 0x4c
 10785 1e32 35000000 		.4byte	.LASF171
 10786 1e36 B2010000 		.4byte	0x1b2
 10787 1e3a 4E1E0000 		.4byte	0x1e4e
 10788 1e3e 14       		.uleb128 0x14
 10789 1e3f B2010000 		.4byte	0x1b2
 10790 1e43 14       		.uleb128 0x14
 10791 1e44 19090000 		.4byte	0x919
 10792 1e48 14       		.uleb128 0x14
 10793 1e49 ED000000 		.4byte	0xed
 10794 1e4d 00       		.byte	0
 10795 1e4e 4D       		.uleb128 0x4d
 10796 1e4f 58050000 		.4byte	.LASF172
ARM GAS  C:\Users\jo\AppData\Local\Temp\ccDsJqTW.s 			page 193


 10797 1e53 09       		.byte	0x9
 10798 1e54 DC       		.byte	0xdc
 10799 1e55 91110000 		.4byte	0x1191
 10800 1e59 681E0000 		.4byte	0x1e68
 10801 1e5d 14       		.uleb128 0x14
 10802 1e5e 28060000 		.4byte	0x628
 10803 1e62 14       		.uleb128 0x14
 10804 1e63 28060000 		.4byte	0x628
 10805 1e67 00       		.byte	0
 10806 1e68 4D       		.uleb128 0x4d
 10807 1e69 1C060000 		.4byte	.LASF173
 10808 1e6d 09       		.byte	0x9
 10809 1e6e C8       		.byte	0xc8
 10810 1e6f 3A000000 		.4byte	0x3a
 10811 1e73 8C1E0000 		.4byte	0x1e8c
 10812 1e77 14       		.uleb128 0x14
 10813 1e78 B2010000 		.4byte	0x1b2
 10814 1e7c 14       		.uleb128 0x14
 10815 1e7d 3A000000 		.4byte	0x3a
 10816 1e81 14       		.uleb128 0x14
 10817 1e82 3A000000 		.4byte	0x3a
 10818 1e86 14       		.uleb128 0x14
 10819 1e87 91110000 		.4byte	0x1191
 10820 1e8b 00       		.byte	0
 10821 1e8c 4D       		.uleb128 0x4d
 10822 1e8d 2E030000 		.4byte	.LASF174
 10823 1e91 09       		.byte	0x9
 10824 1e92 A8       		.byte	0xa8
 10825 1e93 2C000000 		.4byte	0x2c
 10826 1e97 A11E0000 		.4byte	0x1ea1
 10827 1e9b 14       		.uleb128 0x14
 10828 1e9c 91110000 		.4byte	0x1191
 10829 1ea0 00       		.byte	0
 10830 1ea1 4D       		.uleb128 0x4d
 10831 1ea2 1D070000 		.4byte	.LASF170
 10832 1ea6 0A       		.byte	0xa
 10833 1ea7 19       		.byte	0x19
 10834 1ea8 B2010000 		.4byte	0x1b2
 10835 1eac C01E0000 		.4byte	0x1ec0
 10836 1eb0 14       		.uleb128 0x14
 10837 1eb1 B2010000 		.4byte	0x1b2
 10838 1eb5 14       		.uleb128 0x14
 10839 1eb6 2C000000 		.4byte	0x2c
 10840 1eba 14       		.uleb128 0x14
 10841 1ebb 3A000000 		.4byte	0x3a
 10842 1ebf 00       		.byte	0
 10843 1ec0 4D       		.uleb128 0x4d
 10844 1ec1 BA060000 		.4byte	.LASF175
 10845 1ec5 0A       		.byte	0xa
 10846 1ec6 16       		.byte	0x16
 10847 1ec7 2C000000 		.4byte	0x2c
 10848 1ecb DF1E0000 		.4byte	0x1edf
 10849 1ecf 14       		.uleb128 0x14
 10850 1ed0 19090000 		.4byte	0x919
 10851 1ed4 14       		.uleb128 0x14
 10852 1ed5 19090000 		.4byte	0x919
 10853 1ed9 14       		.uleb128 0x14
ARM GAS  C:\Users\jo\AppData\Local\Temp\ccDsJqTW.s 			page 194


 10854 1eda 3A000000 		.4byte	0x3a
 10855 1ede 00       		.byte	0
 10856 1edf 4D       		.uleb128 0x4d
 10857 1ee0 9C000000 		.4byte	.LASF176
 10858 1ee4 09       		.byte	0x9
 10859 1ee5 B1       		.byte	0xb1
 10860 1ee6 2C000000 		.4byte	0x2c
 10861 1eea F51E0000 		.4byte	0x1ef5
 10862 1eee 14       		.uleb128 0x14
 10863 1eef 28060000 		.4byte	0x628
 10864 1ef3 4E       		.uleb128 0x4e
 10865 1ef4 00       		.byte	0
 10866 1ef5 4F       		.uleb128 0x4f
 10867 1ef6 CE010000 		.4byte	.LASF183
 10868 1efa 0B       		.byte	0xb
 10869 1efb 00       		.byte	0
 10870 1efc 1E080000 		.4byte	.LASF184
 10871 1f00 2C000000 		.4byte	0x2c
 10872 1f04 0E1F0000 		.4byte	0x1f0e
 10873 1f08 14       		.uleb128 0x14
 10874 1f09 28060000 		.4byte	0x628
 10875 1f0d 00       		.byte	0
 10876 1f0e 50       		.uleb128 0x50
 10877 1f0f FD020000 		.4byte	.LASF177
 10878 1f13 0B       		.byte	0xb
 10879 1f14 00       		.byte	0
 10880 1f15 E6010000 		.4byte	.LASF185
 10881 1f19 2C000000 		.4byte	0x2c
 10882 1f1d 14       		.uleb128 0x14
 10883 1f1e 2C000000 		.4byte	0x2c
 10884 1f22 00       		.byte	0
 10885 1f23 00       		.byte	0
 10886              		.section	.debug_abbrev,"",%progbits
 10887              	.Ldebug_abbrev0:
 10888 0000 01       		.uleb128 0x1
 10889 0001 11       		.uleb128 0x11
 10890 0002 01       		.byte	0x1
 10891 0003 25       		.uleb128 0x25
 10892 0004 0E       		.uleb128 0xe
 10893 0005 13       		.uleb128 0x13
 10894 0006 0B       		.uleb128 0xb
 10895 0007 03       		.uleb128 0x3
 10896 0008 0E       		.uleb128 0xe
 10897 0009 1B       		.uleb128 0x1b
 10898 000a 0E       		.uleb128 0xe
 10899 000b 55       		.uleb128 0x55
 10900 000c 17       		.uleb128 0x17
 10901 000d 11       		.uleb128 0x11
 10902 000e 01       		.uleb128 0x1
 10903 000f 10       		.uleb128 0x10
 10904 0010 17       		.uleb128 0x17
 10905 0011 00       		.byte	0
 10906 0012 00       		.byte	0
 10907 0013 02       		.uleb128 0x2
 10908 0014 24       		.uleb128 0x24
 10909 0015 00       		.byte	0
 10910 0016 0B       		.uleb128 0xb
ARM GAS  C:\Users\jo\AppData\Local\Temp\ccDsJqTW.s 			page 195


 10911 0017 0B       		.uleb128 0xb
 10912 0018 3E       		.uleb128 0x3e
 10913 0019 0B       		.uleb128 0xb
 10914 001a 03       		.uleb128 0x3
 10915 001b 0E       		.uleb128 0xe
 10916 001c 00       		.byte	0
 10917 001d 00       		.byte	0
 10918 001e 03       		.uleb128 0x3
 10919 001f 24       		.uleb128 0x24
 10920 0020 00       		.byte	0
 10921 0021 0B       		.uleb128 0xb
 10922 0022 0B       		.uleb128 0xb
 10923 0023 3E       		.uleb128 0x3e
 10924 0024 0B       		.uleb128 0xb
 10925 0025 03       		.uleb128 0x3
 10926 0026 08       		.uleb128 0x8
 10927 0027 00       		.byte	0
 10928 0028 00       		.byte	0
 10929 0029 04       		.uleb128 0x4
 10930 002a 16       		.uleb128 0x16
 10931 002b 00       		.byte	0
 10932 002c 03       		.uleb128 0x3
 10933 002d 0E       		.uleb128 0xe
 10934 002e 3A       		.uleb128 0x3a
 10935 002f 0B       		.uleb128 0xb
 10936 0030 3B       		.uleb128 0x3b
 10937 0031 0B       		.uleb128 0xb
 10938 0032 49       		.uleb128 0x49
 10939 0033 13       		.uleb128 0x13
 10940 0034 00       		.byte	0
 10941 0035 00       		.byte	0
 10942 0036 05       		.uleb128 0x5
 10943 0037 13       		.uleb128 0x13
 10944 0038 01       		.byte	0x1
 10945 0039 0B       		.uleb128 0xb
 10946 003a 0B       		.uleb128 0xb
 10947 003b 3A       		.uleb128 0x3a
 10948 003c 0B       		.uleb128 0xb
 10949 003d 3B       		.uleb128 0x3b
 10950 003e 0B       		.uleb128 0xb
 10951 003f 01       		.uleb128 0x1
 10952 0040 13       		.uleb128 0x13
 10953 0041 00       		.byte	0
 10954 0042 00       		.byte	0
 10955 0043 06       		.uleb128 0x6
 10956 0044 0D       		.uleb128 0xd
 10957 0045 00       		.byte	0
 10958 0046 03       		.uleb128 0x3
 10959 0047 0E       		.uleb128 0xe
 10960 0048 3A       		.uleb128 0x3a
 10961 0049 0B       		.uleb128 0xb
 10962 004a 3B       		.uleb128 0x3b
 10963 004b 0B       		.uleb128 0xb
 10964 004c 49       		.uleb128 0x49
 10965 004d 13       		.uleb128 0x13
 10966 004e 38       		.uleb128 0x38
 10967 004f 0B       		.uleb128 0xb
ARM GAS  C:\Users\jo\AppData\Local\Temp\ccDsJqTW.s 			page 196


 10968 0050 00       		.byte	0
 10969 0051 00       		.byte	0
 10970 0052 07       		.uleb128 0x7
 10971 0053 01       		.uleb128 0x1
 10972 0054 01       		.byte	0x1
 10973 0055 49       		.uleb128 0x49
 10974 0056 13       		.uleb128 0x13
 10975 0057 01       		.uleb128 0x1
 10976 0058 13       		.uleb128 0x13
 10977 0059 00       		.byte	0
 10978 005a 00       		.byte	0
 10979 005b 08       		.uleb128 0x8
 10980 005c 21       		.uleb128 0x21
 10981 005d 00       		.byte	0
 10982 005e 49       		.uleb128 0x49
 10983 005f 13       		.uleb128 0x13
 10984 0060 2F       		.uleb128 0x2f
 10985 0061 0B       		.uleb128 0xb
 10986 0062 00       		.byte	0
 10987 0063 00       		.byte	0
 10988 0064 09       		.uleb128 0x9
 10989 0065 16       		.uleb128 0x16
 10990 0066 00       		.byte	0
 10991 0067 03       		.uleb128 0x3
 10992 0068 0E       		.uleb128 0xe
 10993 0069 3A       		.uleb128 0x3a
 10994 006a 0B       		.uleb128 0xb
 10995 006b 3B       		.uleb128 0x3b
 10996 006c 05       		.uleb128 0x5
 10997 006d 49       		.uleb128 0x49
 10998 006e 13       		.uleb128 0x13
 10999 006f 00       		.byte	0
 11000 0070 00       		.byte	0
 11001 0071 0A       		.uleb128 0xa
 11002 0072 17       		.uleb128 0x17
 11003 0073 01       		.byte	0x1
 11004 0074 0B       		.uleb128 0xb
 11005 0075 0B       		.uleb128 0xb
 11006 0076 3A       		.uleb128 0x3a
 11007 0077 0B       		.uleb128 0xb
 11008 0078 3B       		.uleb128 0x3b
 11009 0079 0B       		.uleb128 0xb
 11010 007a 01       		.uleb128 0x1
 11011 007b 13       		.uleb128 0x13
 11012 007c 00       		.byte	0
 11013 007d 00       		.byte	0
 11014 007e 0B       		.uleb128 0xb
 11015 007f 0D       		.uleb128 0xd
 11016 0080 00       		.byte	0
 11017 0081 03       		.uleb128 0x3
 11018 0082 0E       		.uleb128 0xe
 11019 0083 3A       		.uleb128 0x3a
 11020 0084 0B       		.uleb128 0xb
 11021 0085 3B       		.uleb128 0x3b
 11022 0086 0B       		.uleb128 0xb
 11023 0087 49       		.uleb128 0x49
 11024 0088 13       		.uleb128 0x13
ARM GAS  C:\Users\jo\AppData\Local\Temp\ccDsJqTW.s 			page 197


 11025 0089 00       		.byte	0
 11026 008a 00       		.byte	0
 11027 008b 0C       		.uleb128 0xc
 11028 008c 0F       		.uleb128 0xf
 11029 008d 00       		.byte	0
 11030 008e 0B       		.uleb128 0xb
 11031 008f 0B       		.uleb128 0xb
 11032 0090 00       		.byte	0
 11033 0091 00       		.byte	0
 11034 0092 0D       		.uleb128 0xd
 11035 0093 13       		.uleb128 0x13
 11036 0094 01       		.byte	0x1
 11037 0095 03       		.uleb128 0x3
 11038 0096 0E       		.uleb128 0xe
 11039 0097 0B       		.uleb128 0xb
 11040 0098 0B       		.uleb128 0xb
 11041 0099 3A       		.uleb128 0x3a
 11042 009a 0B       		.uleb128 0xb
 11043 009b 3B       		.uleb128 0x3b
 11044 009c 0B       		.uleb128 0xb
 11045 009d 01       		.uleb128 0x1
 11046 009e 13       		.uleb128 0x13
 11047 009f 00       		.byte	0
 11048 00a0 00       		.byte	0
 11049 00a1 0E       		.uleb128 0xe
 11050 00a2 0D       		.uleb128 0xd
 11051 00a3 00       		.byte	0
 11052 00a4 03       		.uleb128 0x3
 11053 00a5 08       		.uleb128 0x8
 11054 00a6 3A       		.uleb128 0x3a
 11055 00a7 0B       		.uleb128 0xb
 11056 00a8 3B       		.uleb128 0x3b
 11057 00a9 0B       		.uleb128 0xb
 11058 00aa 49       		.uleb128 0x49
 11059 00ab 13       		.uleb128 0x13
 11060 00ac 38       		.uleb128 0x38
 11061 00ad 0B       		.uleb128 0xb
 11062 00ae 00       		.byte	0
 11063 00af 00       		.byte	0
 11064 00b0 0F       		.uleb128 0xf
 11065 00b1 0F       		.uleb128 0xf
 11066 00b2 00       		.byte	0
 11067 00b3 0B       		.uleb128 0xb
 11068 00b4 0B       		.uleb128 0xb
 11069 00b5 49       		.uleb128 0x49
 11070 00b6 13       		.uleb128 0x13
 11071 00b7 00       		.byte	0
 11072 00b8 00       		.byte	0
 11073 00b9 10       		.uleb128 0x10
 11074 00ba 13       		.uleb128 0x13
 11075 00bb 01       		.byte	0x1
 11076 00bc 03       		.uleb128 0x3
 11077 00bd 0E       		.uleb128 0xe
 11078 00be 0B       		.uleb128 0xb
 11079 00bf 05       		.uleb128 0x5
 11080 00c0 3A       		.uleb128 0x3a
 11081 00c1 0B       		.uleb128 0xb
ARM GAS  C:\Users\jo\AppData\Local\Temp\ccDsJqTW.s 			page 198


 11082 00c2 3B       		.uleb128 0x3b
 11083 00c3 0B       		.uleb128 0xb
 11084 00c4 01       		.uleb128 0x1
 11085 00c5 13       		.uleb128 0x13
 11086 00c6 00       		.byte	0
 11087 00c7 00       		.byte	0
 11088 00c8 11       		.uleb128 0x11
 11089 00c9 0D       		.uleb128 0xd
 11090 00ca 00       		.byte	0
 11091 00cb 03       		.uleb128 0x3
 11092 00cc 0E       		.uleb128 0xe
 11093 00cd 3A       		.uleb128 0x3a
 11094 00ce 0B       		.uleb128 0xb
 11095 00cf 3B       		.uleb128 0x3b
 11096 00d0 0B       		.uleb128 0xb
 11097 00d1 49       		.uleb128 0x49
 11098 00d2 13       		.uleb128 0x13
 11099 00d3 38       		.uleb128 0x38
 11100 00d4 05       		.uleb128 0x5
 11101 00d5 00       		.byte	0
 11102 00d6 00       		.byte	0
 11103 00d7 12       		.uleb128 0x12
 11104 00d8 15       		.uleb128 0x15
 11105 00d9 00       		.byte	0
 11106 00da 27       		.uleb128 0x27
 11107 00db 19       		.uleb128 0x19
 11108 00dc 00       		.byte	0
 11109 00dd 00       		.byte	0
 11110 00de 13       		.uleb128 0x13
 11111 00df 15       		.uleb128 0x15
 11112 00e0 01       		.byte	0x1
 11113 00e1 27       		.uleb128 0x27
 11114 00e2 19       		.uleb128 0x19
 11115 00e3 49       		.uleb128 0x49
 11116 00e4 13       		.uleb128 0x13
 11117 00e5 01       		.uleb128 0x1
 11118 00e6 13       		.uleb128 0x13
 11119 00e7 00       		.byte	0
 11120 00e8 00       		.byte	0
 11121 00e9 14       		.uleb128 0x14
 11122 00ea 05       		.uleb128 0x5
 11123 00eb 00       		.byte	0
 11124 00ec 49       		.uleb128 0x49
 11125 00ed 13       		.uleb128 0x13
 11126 00ee 00       		.byte	0
 11127 00ef 00       		.byte	0
 11128 00f0 15       		.uleb128 0x15
 11129 00f1 13       		.uleb128 0x13
 11130 00f2 01       		.byte	0x1
 11131 00f3 03       		.uleb128 0x3
 11132 00f4 0E       		.uleb128 0xe
 11133 00f5 0B       		.uleb128 0xb
 11134 00f6 05       		.uleb128 0x5
 11135 00f7 3A       		.uleb128 0x3a
 11136 00f8 0B       		.uleb128 0xb
 11137 00f9 3B       		.uleb128 0x3b
 11138 00fa 05       		.uleb128 0x5
ARM GAS  C:\Users\jo\AppData\Local\Temp\ccDsJqTW.s 			page 199


 11139 00fb 01       		.uleb128 0x1
 11140 00fc 13       		.uleb128 0x13
 11141 00fd 00       		.byte	0
 11142 00fe 00       		.byte	0
 11143 00ff 16       		.uleb128 0x16
 11144 0100 0D       		.uleb128 0xd
 11145 0101 00       		.byte	0
 11146 0102 03       		.uleb128 0x3
 11147 0103 0E       		.uleb128 0xe
 11148 0104 3A       		.uleb128 0x3a
 11149 0105 0B       		.uleb128 0xb
 11150 0106 3B       		.uleb128 0x3b
 11151 0107 05       		.uleb128 0x5
 11152 0108 49       		.uleb128 0x49
 11153 0109 13       		.uleb128 0x13
 11154 010a 38       		.uleb128 0x38
 11155 010b 0B       		.uleb128 0xb
 11156 010c 00       		.byte	0
 11157 010d 00       		.byte	0
 11158 010e 17       		.uleb128 0x17
 11159 010f 0D       		.uleb128 0xd
 11160 0110 00       		.byte	0
 11161 0111 03       		.uleb128 0x3
 11162 0112 0E       		.uleb128 0xe
 11163 0113 3A       		.uleb128 0x3a
 11164 0114 0B       		.uleb128 0xb
 11165 0115 3B       		.uleb128 0x3b
 11166 0116 05       		.uleb128 0x5
 11167 0117 49       		.uleb128 0x49
 11168 0118 13       		.uleb128 0x13
 11169 0119 38       		.uleb128 0x38
 11170 011a 05       		.uleb128 0x5
 11171 011b 00       		.byte	0
 11172 011c 00       		.byte	0
 11173 011d 18       		.uleb128 0x18
 11174 011e 26       		.uleb128 0x26
 11175 011f 00       		.byte	0
 11176 0120 49       		.uleb128 0x49
 11177 0121 13       		.uleb128 0x13
 11178 0122 00       		.byte	0
 11179 0123 00       		.byte	0
 11180 0124 19       		.uleb128 0x19
 11181 0125 13       		.uleb128 0x13
 11182 0126 01       		.byte	0x1
 11183 0127 03       		.uleb128 0x3
 11184 0128 0E       		.uleb128 0xe
 11185 0129 0B       		.uleb128 0xb
 11186 012a 0B       		.uleb128 0xb
 11187 012b 3A       		.uleb128 0x3a
 11188 012c 0B       		.uleb128 0xb
 11189 012d 3B       		.uleb128 0x3b
 11190 012e 05       		.uleb128 0x5
 11191 012f 01       		.uleb128 0x1
 11192 0130 13       		.uleb128 0x13
 11193 0131 00       		.byte	0
 11194 0132 00       		.byte	0
 11195 0133 1A       		.uleb128 0x1a
ARM GAS  C:\Users\jo\AppData\Local\Temp\ccDsJqTW.s 			page 200


 11196 0134 13       		.uleb128 0x13
 11197 0135 01       		.byte	0x1
 11198 0136 0B       		.uleb128 0xb
 11199 0137 0B       		.uleb128 0xb
 11200 0138 3A       		.uleb128 0x3a
 11201 0139 0B       		.uleb128 0xb
 11202 013a 3B       		.uleb128 0x3b
 11203 013b 05       		.uleb128 0x5
 11204 013c 01       		.uleb128 0x1
 11205 013d 13       		.uleb128 0x13
 11206 013e 00       		.byte	0
 11207 013f 00       		.byte	0
 11208 0140 1B       		.uleb128 0x1b
 11209 0141 17       		.uleb128 0x17
 11210 0142 01       		.byte	0x1
 11211 0143 0B       		.uleb128 0xb
 11212 0144 0B       		.uleb128 0xb
 11213 0145 3A       		.uleb128 0x3a
 11214 0146 0B       		.uleb128 0xb
 11215 0147 3B       		.uleb128 0x3b
 11216 0148 05       		.uleb128 0x5
 11217 0149 01       		.uleb128 0x1
 11218 014a 13       		.uleb128 0x13
 11219 014b 00       		.byte	0
 11220 014c 00       		.byte	0
 11221 014d 1C       		.uleb128 0x1c
 11222 014e 0D       		.uleb128 0xd
 11223 014f 00       		.byte	0
 11224 0150 03       		.uleb128 0x3
 11225 0151 0E       		.uleb128 0xe
 11226 0152 3A       		.uleb128 0x3a
 11227 0153 0B       		.uleb128 0xb
 11228 0154 3B       		.uleb128 0x3b
 11229 0155 05       		.uleb128 0x5
 11230 0156 49       		.uleb128 0x49
 11231 0157 13       		.uleb128 0x13
 11232 0158 00       		.byte	0
 11233 0159 00       		.byte	0
 11234 015a 1D       		.uleb128 0x1d
 11235 015b 15       		.uleb128 0x15
 11236 015c 01       		.byte	0x1
 11237 015d 27       		.uleb128 0x27
 11238 015e 19       		.uleb128 0x19
 11239 015f 01       		.uleb128 0x1
 11240 0160 13       		.uleb128 0x13
 11241 0161 00       		.byte	0
 11242 0162 00       		.byte	0
 11243 0163 1E       		.uleb128 0x1e
 11244 0164 26       		.uleb128 0x26
 11245 0165 00       		.byte	0
 11246 0166 00       		.byte	0
 11247 0167 00       		.byte	0
 11248 0168 1F       		.uleb128 0x1f
 11249 0169 2E       		.uleb128 0x2e
 11250 016a 01       		.byte	0x1
 11251 016b 03       		.uleb128 0x3
 11252 016c 0E       		.uleb128 0xe
ARM GAS  C:\Users\jo\AppData\Local\Temp\ccDsJqTW.s 			page 201


 11253 016d 3A       		.uleb128 0x3a
 11254 016e 0B       		.uleb128 0xb
 11255 016f 3B       		.uleb128 0x3b
 11256 0170 0B       		.uleb128 0xb
 11257 0171 27       		.uleb128 0x27
 11258 0172 19       		.uleb128 0x19
 11259 0173 20       		.uleb128 0x20
 11260 0174 0B       		.uleb128 0xb
 11261 0175 01       		.uleb128 0x1
 11262 0176 13       		.uleb128 0x13
 11263 0177 00       		.byte	0
 11264 0178 00       		.byte	0
 11265 0179 20       		.uleb128 0x20
 11266 017a 05       		.uleb128 0x5
 11267 017b 00       		.byte	0
 11268 017c 03       		.uleb128 0x3
 11269 017d 08       		.uleb128 0x8
 11270 017e 3A       		.uleb128 0x3a
 11271 017f 0B       		.uleb128 0xb
 11272 0180 3B       		.uleb128 0x3b
 11273 0181 0B       		.uleb128 0xb
 11274 0182 49       		.uleb128 0x49
 11275 0183 13       		.uleb128 0x13
 11276 0184 00       		.byte	0
 11277 0185 00       		.byte	0
 11278 0186 21       		.uleb128 0x21
 11279 0187 34       		.uleb128 0x34
 11280 0188 00       		.byte	0
 11281 0189 03       		.uleb128 0x3
 11282 018a 08       		.uleb128 0x8
 11283 018b 3A       		.uleb128 0x3a
 11284 018c 0B       		.uleb128 0xb
 11285 018d 3B       		.uleb128 0x3b
 11286 018e 0B       		.uleb128 0xb
 11287 018f 49       		.uleb128 0x49
 11288 0190 13       		.uleb128 0x13
 11289 0191 00       		.byte	0
 11290 0192 00       		.byte	0
 11291 0193 22       		.uleb128 0x22
 11292 0194 35       		.uleb128 0x35
 11293 0195 00       		.byte	0
 11294 0196 49       		.uleb128 0x49
 11295 0197 13       		.uleb128 0x13
 11296 0198 00       		.byte	0
 11297 0199 00       		.byte	0
 11298 019a 23       		.uleb128 0x23
 11299 019b 2E       		.uleb128 0x2e
 11300 019c 01       		.byte	0x1
 11301 019d 3F       		.uleb128 0x3f
 11302 019e 19       		.uleb128 0x19
 11303 019f 03       		.uleb128 0x3
 11304 01a0 0E       		.uleb128 0xe
 11305 01a1 3A       		.uleb128 0x3a
 11306 01a2 0B       		.uleb128 0xb
 11307 01a3 3B       		.uleb128 0x3b
 11308 01a4 05       		.uleb128 0x5
 11309 01a5 27       		.uleb128 0x27
ARM GAS  C:\Users\jo\AppData\Local\Temp\ccDsJqTW.s 			page 202


 11310 01a6 19       		.uleb128 0x19
 11311 01a7 20       		.uleb128 0x20
 11312 01a8 0B       		.uleb128 0xb
 11313 01a9 01       		.uleb128 0x1
 11314 01aa 13       		.uleb128 0x13
 11315 01ab 00       		.byte	0
 11316 01ac 00       		.byte	0
 11317 01ad 24       		.uleb128 0x24
 11318 01ae 05       		.uleb128 0x5
 11319 01af 00       		.byte	0
 11320 01b0 03       		.uleb128 0x3
 11321 01b1 08       		.uleb128 0x8
 11322 01b2 3A       		.uleb128 0x3a
 11323 01b3 0B       		.uleb128 0xb
 11324 01b4 3B       		.uleb128 0x3b
 11325 01b5 05       		.uleb128 0x5
 11326 01b6 49       		.uleb128 0x49
 11327 01b7 13       		.uleb128 0x13
 11328 01b8 00       		.byte	0
 11329 01b9 00       		.byte	0
 11330 01ba 25       		.uleb128 0x25
 11331 01bb 05       		.uleb128 0x5
 11332 01bc 00       		.byte	0
 11333 01bd 03       		.uleb128 0x3
 11334 01be 0E       		.uleb128 0xe
 11335 01bf 3A       		.uleb128 0x3a
 11336 01c0 0B       		.uleb128 0xb
 11337 01c1 3B       		.uleb128 0x3b
 11338 01c2 05       		.uleb128 0x5
 11339 01c3 49       		.uleb128 0x49
 11340 01c4 13       		.uleb128 0x13
 11341 01c5 00       		.byte	0
 11342 01c6 00       		.byte	0
 11343 01c7 26       		.uleb128 0x26
 11344 01c8 34       		.uleb128 0x34
 11345 01c9 00       		.byte	0
 11346 01ca 03       		.uleb128 0x3
 11347 01cb 0E       		.uleb128 0xe
 11348 01cc 3A       		.uleb128 0x3a
 11349 01cd 0B       		.uleb128 0xb
 11350 01ce 3B       		.uleb128 0x3b
 11351 01cf 05       		.uleb128 0x5
 11352 01d0 49       		.uleb128 0x49
 11353 01d1 13       		.uleb128 0x13
 11354 01d2 00       		.byte	0
 11355 01d3 00       		.byte	0
 11356 01d4 27       		.uleb128 0x27
 11357 01d5 2E       		.uleb128 0x2e
 11358 01d6 01       		.byte	0x1
 11359 01d7 3F       		.uleb128 0x3f
 11360 01d8 19       		.uleb128 0x19
 11361 01d9 03       		.uleb128 0x3
 11362 01da 0E       		.uleb128 0xe
 11363 01db 3A       		.uleb128 0x3a
 11364 01dc 0B       		.uleb128 0xb
 11365 01dd 3B       		.uleb128 0x3b
 11366 01de 0B       		.uleb128 0xb
ARM GAS  C:\Users\jo\AppData\Local\Temp\ccDsJqTW.s 			page 203


 11367 01df 27       		.uleb128 0x27
 11368 01e0 19       		.uleb128 0x19
 11369 01e1 20       		.uleb128 0x20
 11370 01e2 0B       		.uleb128 0xb
 11371 01e3 01       		.uleb128 0x1
 11372 01e4 13       		.uleb128 0x13
 11373 01e5 00       		.byte	0
 11374 01e6 00       		.byte	0
 11375 01e7 28       		.uleb128 0x28
 11376 01e8 05       		.uleb128 0x5
 11377 01e9 00       		.byte	0
 11378 01ea 03       		.uleb128 0x3
 11379 01eb 0E       		.uleb128 0xe
 11380 01ec 3A       		.uleb128 0x3a
 11381 01ed 0B       		.uleb128 0xb
 11382 01ee 3B       		.uleb128 0x3b
 11383 01ef 0B       		.uleb128 0xb
 11384 01f0 49       		.uleb128 0x49
 11385 01f1 13       		.uleb128 0x13
 11386 01f2 00       		.byte	0
 11387 01f3 00       		.byte	0
 11388 01f4 29       		.uleb128 0x29
 11389 01f5 2E       		.uleb128 0x2e
 11390 01f6 01       		.byte	0x1
 11391 01f7 31       		.uleb128 0x31
 11392 01f8 13       		.uleb128 0x13
 11393 01f9 11       		.uleb128 0x11
 11394 01fa 01       		.uleb128 0x1
 11395 01fb 12       		.uleb128 0x12
 11396 01fc 06       		.uleb128 0x6
 11397 01fd 40       		.uleb128 0x40
 11398 01fe 18       		.uleb128 0x18
 11399 01ff 9742     		.uleb128 0x2117
 11400 0201 19       		.uleb128 0x19
 11401 0202 01       		.uleb128 0x1
 11402 0203 13       		.uleb128 0x13
 11403 0204 00       		.byte	0
 11404 0205 00       		.byte	0
 11405 0206 2A       		.uleb128 0x2a
 11406 0207 05       		.uleb128 0x5
 11407 0208 00       		.byte	0
 11408 0209 31       		.uleb128 0x31
 11409 020a 13       		.uleb128 0x13
 11410 020b 02       		.uleb128 0x2
 11411 020c 17       		.uleb128 0x17
 11412 020d 00       		.byte	0
 11413 020e 00       		.byte	0
 11414 020f 2B       		.uleb128 0x2b
 11415 0210 898201   		.uleb128 0x4109
 11416 0213 01       		.byte	0x1
 11417 0214 11       		.uleb128 0x11
 11418 0215 01       		.uleb128 0x1
 11419 0216 9542     		.uleb128 0x2115
 11420 0218 19       		.uleb128 0x19
 11421 0219 31       		.uleb128 0x31
 11422 021a 13       		.uleb128 0x13
 11423 021b 00       		.byte	0
ARM GAS  C:\Users\jo\AppData\Local\Temp\ccDsJqTW.s 			page 204


 11424 021c 00       		.byte	0
 11425 021d 2C       		.uleb128 0x2c
 11426 021e 8A8201   		.uleb128 0x410a
 11427 0221 00       		.byte	0
 11428 0222 02       		.uleb128 0x2
 11429 0223 18       		.uleb128 0x18
 11430 0224 9142     		.uleb128 0x2111
 11431 0226 18       		.uleb128 0x18
 11432 0227 00       		.byte	0
 11433 0228 00       		.byte	0
 11434 0229 2D       		.uleb128 0x2d
 11435 022a 1D       		.uleb128 0x1d
 11436 022b 01       		.byte	0x1
 11437 022c 31       		.uleb128 0x31
 11438 022d 13       		.uleb128 0x13
 11439 022e 11       		.uleb128 0x11
 11440 022f 01       		.uleb128 0x1
 11441 0230 12       		.uleb128 0x12
 11442 0231 06       		.uleb128 0x6
 11443 0232 58       		.uleb128 0x58
 11444 0233 0B       		.uleb128 0xb
 11445 0234 59       		.uleb128 0x59
 11446 0235 0B       		.uleb128 0xb
 11447 0236 00       		.byte	0
 11448 0237 00       		.byte	0
 11449 0238 2E       		.uleb128 0x2e
 11450 0239 05       		.uleb128 0x5
 11451 023a 00       		.byte	0
 11452 023b 31       		.uleb128 0x31
 11453 023c 13       		.uleb128 0x13
 11454 023d 00       		.byte	0
 11455 023e 00       		.byte	0
 11456 023f 2F       		.uleb128 0x2f
 11457 0240 0B       		.uleb128 0xb
 11458 0241 01       		.byte	0x1
 11459 0242 11       		.uleb128 0x11
 11460 0243 01       		.uleb128 0x1
 11461 0244 12       		.uleb128 0x12
 11462 0245 06       		.uleb128 0x6
 11463 0246 00       		.byte	0
 11464 0247 00       		.byte	0
 11465 0248 30       		.uleb128 0x30
 11466 0249 34       		.uleb128 0x34
 11467 024a 00       		.byte	0
 11468 024b 31       		.uleb128 0x31
 11469 024c 13       		.uleb128 0x13
 11470 024d 02       		.uleb128 0x2
 11471 024e 17       		.uleb128 0x17
 11472 024f 00       		.byte	0
 11473 0250 00       		.byte	0
 11474 0251 31       		.uleb128 0x31
 11475 0252 05       		.uleb128 0x5
 11476 0253 00       		.byte	0
 11477 0254 31       		.uleb128 0x31
 11478 0255 13       		.uleb128 0x13
 11479 0256 02       		.uleb128 0x2
 11480 0257 18       		.uleb128 0x18
ARM GAS  C:\Users\jo\AppData\Local\Temp\ccDsJqTW.s 			page 205


 11481 0258 00       		.byte	0
 11482 0259 00       		.byte	0
 11483 025a 32       		.uleb128 0x32
 11484 025b 2E       		.uleb128 0x2e
 11485 025c 01       		.byte	0x1
 11486 025d 3F       		.uleb128 0x3f
 11487 025e 19       		.uleb128 0x19
 11488 025f 03       		.uleb128 0x3
 11489 0260 0E       		.uleb128 0xe
 11490 0261 3A       		.uleb128 0x3a
 11491 0262 0B       		.uleb128 0xb
 11492 0263 3B       		.uleb128 0x3b
 11493 0264 0B       		.uleb128 0xb
 11494 0265 27       		.uleb128 0x27
 11495 0266 19       		.uleb128 0x19
 11496 0267 11       		.uleb128 0x11
 11497 0268 01       		.uleb128 0x1
 11498 0269 12       		.uleb128 0x12
 11499 026a 06       		.uleb128 0x6
 11500 026b 40       		.uleb128 0x40
 11501 026c 18       		.uleb128 0x18
 11502 026d 9742     		.uleb128 0x2117
 11503 026f 19       		.uleb128 0x19
 11504 0270 01       		.uleb128 0x1
 11505 0271 13       		.uleb128 0x13
 11506 0272 00       		.byte	0
 11507 0273 00       		.byte	0
 11508 0274 33       		.uleb128 0x33
 11509 0275 05       		.uleb128 0x5
 11510 0276 00       		.byte	0
 11511 0277 03       		.uleb128 0x3
 11512 0278 08       		.uleb128 0x8
 11513 0279 3A       		.uleb128 0x3a
 11514 027a 0B       		.uleb128 0xb
 11515 027b 3B       		.uleb128 0x3b
 11516 027c 0B       		.uleb128 0xb
 11517 027d 49       		.uleb128 0x49
 11518 027e 13       		.uleb128 0x13
 11519 027f 02       		.uleb128 0x2
 11520 0280 17       		.uleb128 0x17
 11521 0281 00       		.byte	0
 11522 0282 00       		.byte	0
 11523 0283 34       		.uleb128 0x34
 11524 0284 05       		.uleb128 0x5
 11525 0285 00       		.byte	0
 11526 0286 03       		.uleb128 0x3
 11527 0287 0E       		.uleb128 0xe
 11528 0288 3A       		.uleb128 0x3a
 11529 0289 0B       		.uleb128 0xb
 11530 028a 3B       		.uleb128 0x3b
 11531 028b 0B       		.uleb128 0xb
 11532 028c 49       		.uleb128 0x49
 11533 028d 13       		.uleb128 0x13
 11534 028e 02       		.uleb128 0x2
 11535 028f 17       		.uleb128 0x17
 11536 0290 00       		.byte	0
 11537 0291 00       		.byte	0
ARM GAS  C:\Users\jo\AppData\Local\Temp\ccDsJqTW.s 			page 206


 11538 0292 35       		.uleb128 0x35
 11539 0293 34       		.uleb128 0x34
 11540 0294 00       		.byte	0
 11541 0295 03       		.uleb128 0x3
 11542 0296 0E       		.uleb128 0xe
 11543 0297 3A       		.uleb128 0x3a
 11544 0298 0B       		.uleb128 0xb
 11545 0299 3B       		.uleb128 0x3b
 11546 029a 0B       		.uleb128 0xb
 11547 029b 49       		.uleb128 0x49
 11548 029c 13       		.uleb128 0x13
 11549 029d 02       		.uleb128 0x2
 11550 029e 17       		.uleb128 0x17
 11551 029f 00       		.byte	0
 11552 02a0 00       		.byte	0
 11553 02a1 36       		.uleb128 0x36
 11554 02a2 34       		.uleb128 0x34
 11555 02a3 00       		.byte	0
 11556 02a4 03       		.uleb128 0x3
 11557 02a5 08       		.uleb128 0x8
 11558 02a6 3A       		.uleb128 0x3a
 11559 02a7 0B       		.uleb128 0xb
 11560 02a8 3B       		.uleb128 0x3b
 11561 02a9 0B       		.uleb128 0xb
 11562 02aa 49       		.uleb128 0x49
 11563 02ab 13       		.uleb128 0x13
 11564 02ac 02       		.uleb128 0x2
 11565 02ad 17       		.uleb128 0x17
 11566 02ae 00       		.byte	0
 11567 02af 00       		.byte	0
 11568 02b0 37       		.uleb128 0x37
 11569 02b1 898201   		.uleb128 0x4109
 11570 02b4 01       		.byte	0x1
 11571 02b5 11       		.uleb128 0x11
 11572 02b6 01       		.uleb128 0x1
 11573 02b7 31       		.uleb128 0x31
 11574 02b8 13       		.uleb128 0x13
 11575 02b9 01       		.uleb128 0x1
 11576 02ba 13       		.uleb128 0x13
 11577 02bb 00       		.byte	0
 11578 02bc 00       		.byte	0
 11579 02bd 38       		.uleb128 0x38
 11580 02be 898201   		.uleb128 0x4109
 11581 02c1 00       		.byte	0
 11582 02c2 11       		.uleb128 0x11
 11583 02c3 01       		.uleb128 0x1
 11584 02c4 9542     		.uleb128 0x2115
 11585 02c6 19       		.uleb128 0x19
 11586 02c7 31       		.uleb128 0x31
 11587 02c8 13       		.uleb128 0x13
 11588 02c9 00       		.byte	0
 11589 02ca 00       		.byte	0
 11590 02cb 39       		.uleb128 0x39
 11591 02cc 34       		.uleb128 0x34
 11592 02cd 00       		.byte	0
 11593 02ce 31       		.uleb128 0x31
 11594 02cf 13       		.uleb128 0x13
ARM GAS  C:\Users\jo\AppData\Local\Temp\ccDsJqTW.s 			page 207


 11595 02d0 00       		.byte	0
 11596 02d1 00       		.byte	0
 11597 02d2 3A       		.uleb128 0x3a
 11598 02d3 2E       		.uleb128 0x2e
 11599 02d4 01       		.byte	0x1
 11600 02d5 3F       		.uleb128 0x3f
 11601 02d6 19       		.uleb128 0x19
 11602 02d7 03       		.uleb128 0x3
 11603 02d8 0E       		.uleb128 0xe
 11604 02d9 3A       		.uleb128 0x3a
 11605 02da 0B       		.uleb128 0xb
 11606 02db 3B       		.uleb128 0x3b
 11607 02dc 05       		.uleb128 0x5
 11608 02dd 27       		.uleb128 0x27
 11609 02de 19       		.uleb128 0x19
 11610 02df 11       		.uleb128 0x11
 11611 02e0 01       		.uleb128 0x1
 11612 02e1 12       		.uleb128 0x12
 11613 02e2 06       		.uleb128 0x6
 11614 02e3 40       		.uleb128 0x40
 11615 02e4 18       		.uleb128 0x18
 11616 02e5 9742     		.uleb128 0x2117
 11617 02e7 19       		.uleb128 0x19
 11618 02e8 01       		.uleb128 0x1
 11619 02e9 13       		.uleb128 0x13
 11620 02ea 00       		.byte	0
 11621 02eb 00       		.byte	0
 11622 02ec 3B       		.uleb128 0x3b
 11623 02ed 05       		.uleb128 0x5
 11624 02ee 00       		.byte	0
 11625 02ef 03       		.uleb128 0x3
 11626 02f0 08       		.uleb128 0x8
 11627 02f1 3A       		.uleb128 0x3a
 11628 02f2 0B       		.uleb128 0xb
 11629 02f3 3B       		.uleb128 0x3b
 11630 02f4 05       		.uleb128 0x5
 11631 02f5 49       		.uleb128 0x49
 11632 02f6 13       		.uleb128 0x13
 11633 02f7 02       		.uleb128 0x2
 11634 02f8 17       		.uleb128 0x17
 11635 02f9 00       		.byte	0
 11636 02fa 00       		.byte	0
 11637 02fb 3C       		.uleb128 0x3c
 11638 02fc 05       		.uleb128 0x5
 11639 02fd 00       		.byte	0
 11640 02fe 03       		.uleb128 0x3
 11641 02ff 0E       		.uleb128 0xe
 11642 0300 3A       		.uleb128 0x3a
 11643 0301 0B       		.uleb128 0xb
 11644 0302 3B       		.uleb128 0x3b
 11645 0303 05       		.uleb128 0x5
 11646 0304 49       		.uleb128 0x49
 11647 0305 13       		.uleb128 0x13
 11648 0306 02       		.uleb128 0x2
 11649 0307 17       		.uleb128 0x17
 11650 0308 00       		.byte	0
 11651 0309 00       		.byte	0
ARM GAS  C:\Users\jo\AppData\Local\Temp\ccDsJqTW.s 			page 208


 11652 030a 3D       		.uleb128 0x3d
 11653 030b 34       		.uleb128 0x34
 11654 030c 00       		.byte	0
 11655 030d 03       		.uleb128 0x3
 11656 030e 0E       		.uleb128 0xe
 11657 030f 3A       		.uleb128 0x3a
 11658 0310 0B       		.uleb128 0xb
 11659 0311 3B       		.uleb128 0x3b
 11660 0312 05       		.uleb128 0x5
 11661 0313 49       		.uleb128 0x49
 11662 0314 13       		.uleb128 0x13
 11663 0315 02       		.uleb128 0x2
 11664 0316 17       		.uleb128 0x17
 11665 0317 00       		.byte	0
 11666 0318 00       		.byte	0
 11667 0319 3E       		.uleb128 0x3e
 11668 031a 34       		.uleb128 0x34
 11669 031b 00       		.byte	0
 11670 031c 03       		.uleb128 0x3
 11671 031d 08       		.uleb128 0x8
 11672 031e 3A       		.uleb128 0x3a
 11673 031f 0B       		.uleb128 0xb
 11674 0320 3B       		.uleb128 0x3b
 11675 0321 05       		.uleb128 0x5
 11676 0322 49       		.uleb128 0x49
 11677 0323 13       		.uleb128 0x13
 11678 0324 02       		.uleb128 0x2
 11679 0325 17       		.uleb128 0x17
 11680 0326 00       		.byte	0
 11681 0327 00       		.byte	0
 11682 0328 3F       		.uleb128 0x3f
 11683 0329 34       		.uleb128 0x34
 11684 032a 00       		.byte	0
 11685 032b 03       		.uleb128 0x3
 11686 032c 0E       		.uleb128 0xe
 11687 032d 3A       		.uleb128 0x3a
 11688 032e 0B       		.uleb128 0xb
 11689 032f 3B       		.uleb128 0x3b
 11690 0330 05       		.uleb128 0x5
 11691 0331 49       		.uleb128 0x49
 11692 0332 13       		.uleb128 0x13
 11693 0333 02       		.uleb128 0x2
 11694 0334 18       		.uleb128 0x18
 11695 0335 00       		.byte	0
 11696 0336 00       		.byte	0
 11697 0337 40       		.uleb128 0x40
 11698 0338 1D       		.uleb128 0x1d
 11699 0339 01       		.byte	0x1
 11700 033a 31       		.uleb128 0x31
 11701 033b 13       		.uleb128 0x13
 11702 033c 52       		.uleb128 0x52
 11703 033d 01       		.uleb128 0x1
 11704 033e 55       		.uleb128 0x55
 11705 033f 17       		.uleb128 0x17
 11706 0340 58       		.uleb128 0x58
 11707 0341 0B       		.uleb128 0xb
 11708 0342 59       		.uleb128 0x59
ARM GAS  C:\Users\jo\AppData\Local\Temp\ccDsJqTW.s 			page 209


 11709 0343 05       		.uleb128 0x5
 11710 0344 01       		.uleb128 0x1
 11711 0345 13       		.uleb128 0x13
 11712 0346 00       		.byte	0
 11713 0347 00       		.byte	0
 11714 0348 41       		.uleb128 0x41
 11715 0349 0B       		.uleb128 0xb
 11716 034a 01       		.byte	0x1
 11717 034b 55       		.uleb128 0x55
 11718 034c 17       		.uleb128 0x17
 11719 034d 00       		.byte	0
 11720 034e 00       		.byte	0
 11721 034f 42       		.uleb128 0x42
 11722 0350 898201   		.uleb128 0x4109
 11723 0353 01       		.byte	0x1
 11724 0354 11       		.uleb128 0x11
 11725 0355 01       		.uleb128 0x1
 11726 0356 31       		.uleb128 0x31
 11727 0357 13       		.uleb128 0x13
 11728 0358 00       		.byte	0
 11729 0359 00       		.byte	0
 11730 035a 43       		.uleb128 0x43
 11731 035b 1D       		.uleb128 0x1d
 11732 035c 01       		.byte	0x1
 11733 035d 31       		.uleb128 0x31
 11734 035e 13       		.uleb128 0x13
 11735 035f 11       		.uleb128 0x11
 11736 0360 01       		.uleb128 0x1
 11737 0361 12       		.uleb128 0x12
 11738 0362 06       		.uleb128 0x6
 11739 0363 58       		.uleb128 0x58
 11740 0364 0B       		.uleb128 0xb
 11741 0365 59       		.uleb128 0x59
 11742 0366 05       		.uleb128 0x5
 11743 0367 00       		.byte	0
 11744 0368 00       		.byte	0
 11745 0369 44       		.uleb128 0x44
 11746 036a 05       		.uleb128 0x5
 11747 036b 00       		.byte	0
 11748 036c 31       		.uleb128 0x31
 11749 036d 13       		.uleb128 0x13
 11750 036e 1C       		.uleb128 0x1c
 11751 036f 0B       		.uleb128 0xb
 11752 0370 00       		.byte	0
 11753 0371 00       		.byte	0
 11754 0372 45       		.uleb128 0x45
 11755 0373 34       		.uleb128 0x34
 11756 0374 00       		.byte	0
 11757 0375 03       		.uleb128 0x3
 11758 0376 08       		.uleb128 0x8
 11759 0377 3A       		.uleb128 0x3a
 11760 0378 0B       		.uleb128 0xb
 11761 0379 3B       		.uleb128 0x3b
 11762 037a 05       		.uleb128 0x5
 11763 037b 49       		.uleb128 0x49
 11764 037c 13       		.uleb128 0x13
 11765 037d 02       		.uleb128 0x2
ARM GAS  C:\Users\jo\AppData\Local\Temp\ccDsJqTW.s 			page 210


 11766 037e 18       		.uleb128 0x18
 11767 037f 00       		.byte	0
 11768 0380 00       		.byte	0
 11769 0381 46       		.uleb128 0x46
 11770 0382 1D       		.uleb128 0x1d
 11771 0383 01       		.byte	0x1
 11772 0384 31       		.uleb128 0x31
 11773 0385 13       		.uleb128 0x13
 11774 0386 11       		.uleb128 0x11
 11775 0387 01       		.uleb128 0x1
 11776 0388 12       		.uleb128 0x12
 11777 0389 06       		.uleb128 0x6
 11778 038a 58       		.uleb128 0x58
 11779 038b 0B       		.uleb128 0xb
 11780 038c 59       		.uleb128 0x59
 11781 038d 05       		.uleb128 0x5
 11782 038e 01       		.uleb128 0x1
 11783 038f 13       		.uleb128 0x13
 11784 0390 00       		.byte	0
 11785 0391 00       		.byte	0
 11786 0392 47       		.uleb128 0x47
 11787 0393 2E       		.uleb128 0x2e
 11788 0394 01       		.byte	0x1
 11789 0395 3F       		.uleb128 0x3f
 11790 0396 19       		.uleb128 0x19
 11791 0397 03       		.uleb128 0x3
 11792 0398 0E       		.uleb128 0xe
 11793 0399 3A       		.uleb128 0x3a
 11794 039a 0B       		.uleb128 0xb
 11795 039b 3B       		.uleb128 0x3b
 11796 039c 05       		.uleb128 0x5
 11797 039d 27       		.uleb128 0x27
 11798 039e 19       		.uleb128 0x19
 11799 039f 49       		.uleb128 0x49
 11800 03a0 13       		.uleb128 0x13
 11801 03a1 11       		.uleb128 0x11
 11802 03a2 01       		.uleb128 0x1
 11803 03a3 12       		.uleb128 0x12
 11804 03a4 06       		.uleb128 0x6
 11805 03a5 40       		.uleb128 0x40
 11806 03a6 18       		.uleb128 0x18
 11807 03a7 9742     		.uleb128 0x2117
 11808 03a9 19       		.uleb128 0x19
 11809 03aa 01       		.uleb128 0x1
 11810 03ab 13       		.uleb128 0x13
 11811 03ac 00       		.byte	0
 11812 03ad 00       		.byte	0
 11813 03ae 48       		.uleb128 0x48
 11814 03af 898201   		.uleb128 0x4109
 11815 03b2 00       		.byte	0
 11816 03b3 11       		.uleb128 0x11
 11817 03b4 01       		.uleb128 0x1
 11818 03b5 31       		.uleb128 0x31
 11819 03b6 13       		.uleb128 0x13
 11820 03b7 00       		.byte	0
 11821 03b8 00       		.byte	0
 11822 03b9 49       		.uleb128 0x49
ARM GAS  C:\Users\jo\AppData\Local\Temp\ccDsJqTW.s 			page 211


 11823 03ba 21       		.uleb128 0x21
 11824 03bb 00       		.byte	0
 11825 03bc 49       		.uleb128 0x49
 11826 03bd 13       		.uleb128 0x13
 11827 03be 2F       		.uleb128 0x2f
 11828 03bf 05       		.uleb128 0x5
 11829 03c0 00       		.byte	0
 11830 03c1 00       		.byte	0
 11831 03c2 4A       		.uleb128 0x4a
 11832 03c3 1D       		.uleb128 0x1d
 11833 03c4 01       		.byte	0x1
 11834 03c5 31       		.uleb128 0x31
 11835 03c6 13       		.uleb128 0x13
 11836 03c7 52       		.uleb128 0x52
 11837 03c8 01       		.uleb128 0x1
 11838 03c9 55       		.uleb128 0x55
 11839 03ca 17       		.uleb128 0x17
 11840 03cb 58       		.uleb128 0x58
 11841 03cc 0B       		.uleb128 0xb
 11842 03cd 59       		.uleb128 0x59
 11843 03ce 05       		.uleb128 0x5
 11844 03cf 00       		.byte	0
 11845 03d0 00       		.byte	0
 11846 03d1 4B       		.uleb128 0x4b
 11847 03d2 0A       		.uleb128 0xa
 11848 03d3 00       		.byte	0
 11849 03d4 03       		.uleb128 0x3
 11850 03d5 0E       		.uleb128 0xe
 11851 03d6 3A       		.uleb128 0x3a
 11852 03d7 0B       		.uleb128 0xb
 11853 03d8 3B       		.uleb128 0x3b
 11854 03d9 05       		.uleb128 0x5
 11855 03da 11       		.uleb128 0x11
 11856 03db 01       		.uleb128 0x1
 11857 03dc 00       		.byte	0
 11858 03dd 00       		.byte	0
 11859 03de 4C       		.uleb128 0x4c
 11860 03df 2E       		.uleb128 0x2e
 11861 03e0 01       		.byte	0x1
 11862 03e1 3F       		.uleb128 0x3f
 11863 03e2 19       		.uleb128 0x19
 11864 03e3 03       		.uleb128 0x3
 11865 03e4 0E       		.uleb128 0xe
 11866 03e5 27       		.uleb128 0x27
 11867 03e6 19       		.uleb128 0x19
 11868 03e7 49       		.uleb128 0x49
 11869 03e8 13       		.uleb128 0x13
 11870 03e9 34       		.uleb128 0x34
 11871 03ea 19       		.uleb128 0x19
 11872 03eb 3C       		.uleb128 0x3c
 11873 03ec 19       		.uleb128 0x19
 11874 03ed 01       		.uleb128 0x1
 11875 03ee 13       		.uleb128 0x13
 11876 03ef 00       		.byte	0
 11877 03f0 00       		.byte	0
 11878 03f1 4D       		.uleb128 0x4d
 11879 03f2 2E       		.uleb128 0x2e
ARM GAS  C:\Users\jo\AppData\Local\Temp\ccDsJqTW.s 			page 212


 11880 03f3 01       		.byte	0x1
 11881 03f4 3F       		.uleb128 0x3f
 11882 03f5 19       		.uleb128 0x19
 11883 03f6 03       		.uleb128 0x3
 11884 03f7 0E       		.uleb128 0xe
 11885 03f8 3A       		.uleb128 0x3a
 11886 03f9 0B       		.uleb128 0xb
 11887 03fa 3B       		.uleb128 0x3b
 11888 03fb 0B       		.uleb128 0xb
 11889 03fc 27       		.uleb128 0x27
 11890 03fd 19       		.uleb128 0x19
 11891 03fe 49       		.uleb128 0x49
 11892 03ff 13       		.uleb128 0x13
 11893 0400 3C       		.uleb128 0x3c
 11894 0401 19       		.uleb128 0x19
 11895 0402 01       		.uleb128 0x1
 11896 0403 13       		.uleb128 0x13
 11897 0404 00       		.byte	0
 11898 0405 00       		.byte	0
 11899 0406 4E       		.uleb128 0x4e
 11900 0407 18       		.uleb128 0x18
 11901 0408 00       		.byte	0
 11902 0409 00       		.byte	0
 11903 040a 00       		.byte	0
 11904 040b 4F       		.uleb128 0x4f
 11905 040c 2E       		.uleb128 0x2e
 11906 040d 01       		.byte	0x1
 11907 040e 3F       		.uleb128 0x3f
 11908 040f 19       		.uleb128 0x19
 11909 0410 03       		.uleb128 0x3
 11910 0411 0E       		.uleb128 0xe
 11911 0412 3A       		.uleb128 0x3a
 11912 0413 0B       		.uleb128 0xb
 11913 0414 3B       		.uleb128 0x3b
 11914 0415 0B       		.uleb128 0xb
 11915 0416 6E       		.uleb128 0x6e
 11916 0417 0E       		.uleb128 0xe
 11917 0418 27       		.uleb128 0x27
 11918 0419 19       		.uleb128 0x19
 11919 041a 49       		.uleb128 0x49
 11920 041b 13       		.uleb128 0x13
 11921 041c 3C       		.uleb128 0x3c
 11922 041d 19       		.uleb128 0x19
 11923 041e 01       		.uleb128 0x1
 11924 041f 13       		.uleb128 0x13
 11925 0420 00       		.byte	0
 11926 0421 00       		.byte	0
 11927 0422 50       		.uleb128 0x50
 11928 0423 2E       		.uleb128 0x2e
 11929 0424 01       		.byte	0x1
 11930 0425 3F       		.uleb128 0x3f
 11931 0426 19       		.uleb128 0x19
 11932 0427 03       		.uleb128 0x3
 11933 0428 0E       		.uleb128 0xe
 11934 0429 3A       		.uleb128 0x3a
 11935 042a 0B       		.uleb128 0xb
 11936 042b 3B       		.uleb128 0x3b
ARM GAS  C:\Users\jo\AppData\Local\Temp\ccDsJqTW.s 			page 213


 11937 042c 0B       		.uleb128 0xb
 11938 042d 6E       		.uleb128 0x6e
 11939 042e 0E       		.uleb128 0xe
 11940 042f 27       		.uleb128 0x27
 11941 0430 19       		.uleb128 0x19
 11942 0431 49       		.uleb128 0x49
 11943 0432 13       		.uleb128 0x13
 11944 0433 3C       		.uleb128 0x3c
 11945 0434 19       		.uleb128 0x19
 11946 0435 00       		.byte	0
 11947 0436 00       		.byte	0
 11948 0437 00       		.byte	0
 11949              		.section	.debug_loc,"",%progbits
 11950              	.Ldebug_loc0:
 11951              	.LLST0:
 11952 0000 00000000 		.4byte	.LVL0
 11953 0004 07000000 		.4byte	.LVL1-1
 11954 0008 0100     		.2byte	0x1
 11955 000a 50       		.byte	0x50
 11956 000b 07000000 		.4byte	.LVL1-1
 11957 000f 08000000 		.4byte	.LFE1
 11958 0013 0400     		.2byte	0x4
 11959 0015 F3       		.byte	0xf3
 11960 0016 01       		.uleb128 0x1
 11961 0017 50       		.byte	0x50
 11962 0018 9F       		.byte	0x9f
 11963 0019 00000000 		.4byte	0
 11964 001d 00000000 		.4byte	0
 11965              	.LLST1:
 11966 0021 00000000 		.4byte	.LVL2
 11967 0025 08000000 		.4byte	.LVL3
 11968 0029 0100     		.2byte	0x1
 11969 002b 50       		.byte	0x50
 11970 002c 08000000 		.4byte	.LVL3
 11971 0030 10000000 		.4byte	.LVL6
 11972 0034 0400     		.2byte	0x4
 11973 0036 72       		.byte	0x72
 11974 0037 947E     		.sleb128 -236
 11975 0039 9F       		.byte	0x9f
 11976 003a 10000000 		.4byte	.LVL6
 11977 003e 12000000 		.4byte	.LFE2
 11978 0042 0400     		.2byte	0x4
 11979 0044 F3       		.byte	0xf3
 11980 0045 01       		.uleb128 0x1
 11981 0046 50       		.byte	0x50
 11982 0047 9F       		.byte	0x9f
 11983 0048 00000000 		.4byte	0
 11984 004c 00000000 		.4byte	0
 11985              	.LLST2:
 11986 0050 08000000 		.4byte	.LVL3
 11987 0054 10000000 		.4byte	.LVL6
 11988 0058 0300     		.2byte	0x3
 11989 005a 08       		.byte	0x8
 11990 005b EB       		.byte	0xeb
 11991 005c 9F       		.byte	0x9f
 11992 005d 00000000 		.4byte	0
 11993 0061 00000000 		.4byte	0
ARM GAS  C:\Users\jo\AppData\Local\Temp\ccDsJqTW.s 			page 214


 11994              	.LLST3:
 11995 0065 08000000 		.4byte	.LVL3
 11996 0069 0C000000 		.4byte	.LVL5
 11997 006d 0300     		.2byte	0x3
 11998 006f 70       		.byte	0x70
 11999 0070 01       		.sleb128 1
 12000 0071 9F       		.byte	0x9f
 12001 0072 0C000000 		.4byte	.LVL5
 12002 0076 10000000 		.4byte	.LVL6
 12003 007a 0100     		.2byte	0x1
 12004 007c 50       		.byte	0x50
 12005 007d 00000000 		.4byte	0
 12006 0081 00000000 		.4byte	0
 12007              	.LLST4:
 12008 0085 00000000 		.4byte	.LVL8
 12009 0089 44000000 		.4byte	.LVL9
 12010 008d 0100     		.2byte	0x1
 12011 008f 50       		.byte	0x50
 12012 0090 44000000 		.4byte	.LVL9
 12013 0094 E01E0000 		.4byte	.LFE4
 12014 0098 0300     		.2byte	0x3
 12015 009a 91       		.byte	0x91
 12016 009b C07E     		.sleb128 -192
 12017 009d 00000000 		.4byte	0
 12018 00a1 00000000 		.4byte	0
 12019              	.LLST5:
 12020 00a5 00000000 		.4byte	.LVL8
 12021 00a9 9A010000 		.4byte	.LVL15
 12022 00ad 0100     		.2byte	0x1
 12023 00af 51       		.byte	0x51
 12024 00b0 9A010000 		.4byte	.LVL15
 12025 00b4 E01E0000 		.4byte	.LFE4
 12026 00b8 0400     		.2byte	0x4
 12027 00ba F3       		.byte	0xf3
 12028 00bb 01       		.uleb128 0x1
 12029 00bc 51       		.byte	0x51
 12030 00bd 9F       		.byte	0x9f
 12031 00be 00000000 		.4byte	0
 12032 00c2 00000000 		.4byte	0
 12033              	.LLST6:
 12034 00c6 5A070000 		.4byte	.LVL25
 12035 00ca 64070000 		.4byte	.LVL27
 12036 00ce 0100     		.2byte	0x1
 12037 00d0 54       		.byte	0x54
 12038 00d1 AC070000 		.4byte	.LVL31
 12039 00d5 E2070000 		.4byte	.LVL35
 12040 00d9 0100     		.2byte	0x1
 12041 00db 50       		.byte	0x50
 12042 00dc 30080000 		.4byte	.LVL37
 12043 00e0 78080000 		.4byte	.LVL42
 12044 00e4 0100     		.2byte	0x1
 12045 00e6 59       		.byte	0x59
 12046 00e7 78080000 		.4byte	.LVL42
 12047 00eb EA080000 		.4byte	.LVL46
 12048 00ef 0100     		.2byte	0x1
 12049 00f1 5E       		.byte	0x5e
 12050 00f2 EA080000 		.4byte	.LVL46
ARM GAS  C:\Users\jo\AppData\Local\Temp\ccDsJqTW.s 			page 215


 12051 00f6 7A090000 		.4byte	.LVL51
 12052 00fa 0100     		.2byte	0x1
 12053 00fc 50       		.byte	0x50
 12054 00fd 92090000 		.4byte	.LVL52
 12055 0101 D2090000 		.4byte	.LVL57
 12056 0105 0100     		.2byte	0x1
 12057 0107 50       		.byte	0x50
 12058 0108 080A0000 		.4byte	.LVL58
 12059 010c 380A0000 		.4byte	.LVL62
 12060 0110 0100     		.2byte	0x1
 12061 0112 54       		.byte	0x54
 12062 0113 620A0000 		.4byte	.LVL66
 12063 0117 A00A0000 		.4byte	.LVL69
 12064 011b 0100     		.2byte	0x1
 12065 011d 50       		.byte	0x50
 12066 011e FC0A0000 		.4byte	.LVL72
 12067 0122 100B0000 		.4byte	.LVL75
 12068 0126 0100     		.2byte	0x1
 12069 0128 58       		.byte	0x58
 12070 0129 700B0000 		.4byte	.LVL79
 12071 012d 8C0B0000 		.4byte	.LVL82
 12072 0131 0100     		.2byte	0x1
 12073 0133 5C       		.byte	0x5c
 12074 0134 E80B0000 		.4byte	.LVL85
 12075 0138 080C0000 		.4byte	.LVL87
 12076 013c 0100     		.2byte	0x1
 12077 013e 51       		.byte	0x51
 12078 013f 5C0C0000 		.4byte	.LVL89
 12079 0143 8E0C0000 		.4byte	.LVL94
 12080 0147 0100     		.2byte	0x1
 12081 0149 57       		.byte	0x57
 12082 014a D00C0000 		.4byte	.LVL95
 12083 014e E80C0000 		.4byte	.LVL98
 12084 0152 0100     		.2byte	0x1
 12085 0154 56       		.byte	0x56
 12086 0155 6E0D0000 		.4byte	.LVL102
 12087 0159 840D0000 		.4byte	.LVL105
 12088 015d 0100     		.2byte	0x1
 12089 015f 55       		.byte	0x55
 12090 0160 EA0D0000 		.4byte	.LVL109
 12091 0164 1E0E0000 		.4byte	.LVL111
 12092 0168 0100     		.2byte	0x1
 12093 016a 53       		.byte	0x53
 12094 016b 6A0E0000 		.4byte	.LVL114
 12095 016f 840E0000 		.4byte	.LVL117
 12096 0173 0100     		.2byte	0x1
 12097 0175 50       		.byte	0x50
 12098 0176 840E0000 		.4byte	.LVL117
 12099 017a 900E0000 		.4byte	.LVL118
 12100 017e 1F00     		.2byte	0x1f
 12101 0180 7C       		.byte	0x7c
 12102 0181 00       		.sleb128 0
 12103 0182 74       		.byte	0x74
 12104 0183 00       		.sleb128 0
 12105 0184 27       		.byte	0x27
 12106 0185 71       		.byte	0x71
 12107 0186 00       		.sleb128 0
ARM GAS  C:\Users\jo\AppData\Local\Temp\ccDsJqTW.s 			page 216


 12108 0187 1A       		.byte	0x1a
 12109 0188 74       		.byte	0x74
 12110 0189 00       		.sleb128 0
 12111 018a 27       		.byte	0x27
 12112 018b 7A       		.byte	0x7a
 12113 018c 00       		.sleb128 0
 12114 018d 22       		.byte	0x22
 12115 018e 91       		.byte	0x91
 12116 018f E07D     		.sleb128 -288
 12117 0191 06       		.byte	0x6
 12118 0192 22       		.byte	0x22
 12119 0193 91       		.byte	0x91
 12120 0194 887E     		.sleb128 -248
 12121 0196 06       		.byte	0x6
 12122 0197 22       		.byte	0x22
 12123 0198 0C       		.byte	0xc
 12124 0199 B96E582A 		.4byte	0x2a586eb9
 12125 019d 1C       		.byte	0x1c
 12126 019e 9F       		.byte	0x9f
 12127 019f D40E0000 		.4byte	.LVL119
 12128 01a3 E60E0000 		.4byte	.LVL121
 12129 01a7 0100     		.2byte	0x1
 12130 01a9 54       		.byte	0x54
 12131 01aa 420F0000 		.4byte	.LVL124
 12132 01ae 5E0F0000 		.4byte	.LVL127
 12133 01b2 0100     		.2byte	0x1
 12134 01b4 5C       		.byte	0x5c
 12135 01b5 BE0F0000 		.4byte	.LVL130
 12136 01b9 D40F0000 		.4byte	.LVL132
 12137 01bd 0100     		.2byte	0x1
 12138 01bf 51       		.byte	0x51
 12139 01c0 1C100000 		.4byte	.LVL135
 12140 01c4 38100000 		.4byte	.LVL138
 12141 01c8 0100     		.2byte	0x1
 12142 01ca 52       		.byte	0x52
 12143 01cb 96100000 		.4byte	.LVL141
 12144 01cf B8100000 		.4byte	.LVL144
 12145 01d3 0100     		.2byte	0x1
 12146 01d5 5E       		.byte	0x5e
 12147 01d6 1E110000 		.4byte	.LVL146
 12148 01da 2A110000 		.4byte	.LVL148
 12149 01de 0100     		.2byte	0x1
 12150 01e0 55       		.byte	0x55
 12151 01e1 2A110000 		.4byte	.LVL148
 12152 01e5 30110000 		.4byte	.LVL149
 12153 01e9 1600     		.2byte	0x16
 12154 01eb 91       		.byte	0x91
 12155 01ec 907E     		.sleb128 -240
 12156 01ee 06       		.byte	0x6
 12157 01ef 7A       		.byte	0x7a
 12158 01f0 00       		.sleb128 0
 12159 01f1 22       		.byte	0x22
 12160 01f2 91       		.byte	0x91
 12161 01f3 E07D     		.sleb128 -288
 12162 01f5 06       		.byte	0x6
 12163 01f6 22       		.byte	0x22
 12164 01f7 79       		.byte	0x79
ARM GAS  C:\Users\jo\AppData\Local\Temp\ccDsJqTW.s 			page 217


 12165 01f8 00       		.sleb128 0
 12166 01f9 22       		.byte	0x22
 12167 01fa 23       		.byte	0x23
 12168 01fb 939AE099 		.uleb128 0x53380d13
 12168      05
 12169 0200 9F       		.byte	0x9f
 12170 0201 30110000 		.4byte	.LVL149
 12171 0205 44110000 		.4byte	.LVL151
 12172 0209 4000     		.2byte	0x40
 12173 020b 91       		.byte	0x91
 12174 020c EC7D     		.sleb128 -276
 12175 020e 06       		.byte	0x6
 12176 020f 3B       		.byte	0x3b
 12177 0210 14       		.byte	0x14
 12178 0211 14       		.byte	0x14
 12179 0212 1F       		.byte	0x1f
 12180 0213 23       		.byte	0x23
 12181 0214 20       		.uleb128 0x20
 12182 0215 24       		.byte	0x24
 12183 0216 17       		.byte	0x17
 12184 0217 25       		.byte	0x25
 12185 0218 21       		.byte	0x21
 12186 0219 91       		.byte	0x91
 12187 021a EC7D     		.sleb128 -276
 12188 021c 06       		.byte	0x6
 12189 021d 36       		.byte	0x36
 12190 021e 14       		.byte	0x14
 12191 021f 14       		.byte	0x14
 12192 0220 1F       		.byte	0x1f
 12193 0221 23       		.byte	0x23
 12194 0222 20       		.uleb128 0x20
 12195 0223 24       		.byte	0x24
 12196 0224 17       		.byte	0x17
 12197 0225 25       		.byte	0x25
 12198 0226 21       		.byte	0x21
 12199 0227 27       		.byte	0x27
 12200 0228 91       		.byte	0x91
 12201 0229 EC7D     		.sleb128 -276
 12202 022b 06       		.byte	0x6
 12203 022c 37       		.byte	0x37
 12204 022d 14       		.byte	0x14
 12205 022e 14       		.byte	0x14
 12206 022f 24       		.byte	0x24
 12207 0230 17       		.byte	0x17
 12208 0231 1F       		.byte	0x1f
 12209 0232 23       		.byte	0x23
 12210 0233 20       		.uleb128 0x20
 12211 0234 25       		.byte	0x25
 12212 0235 21       		.byte	0x21
 12213 0236 27       		.byte	0x27
 12214 0237 91       		.byte	0x91
 12215 0238 907E     		.sleb128 -240
 12216 023a 06       		.byte	0x6
 12217 023b 22       		.byte	0x22
 12218 023c 91       		.byte	0x91
 12219 023d E07D     		.sleb128 -288
 12220 023f 06       		.byte	0x6
ARM GAS  C:\Users\jo\AppData\Local\Temp\ccDsJqTW.s 			page 218


 12221 0240 22       		.byte	0x22
 12222 0241 79       		.byte	0x79
 12223 0242 00       		.sleb128 0
 12224 0243 22       		.byte	0x22
 12225 0244 23       		.byte	0x23
 12226 0245 939AE099 		.uleb128 0x53380d13
 12226      05
 12227 024a 9F       		.byte	0x9f
 12228 024b 7A110000 		.4byte	.LVL153
 12229 024f A0110000 		.4byte	.LVL156
 12230 0253 0100     		.2byte	0x1
 12231 0255 53       		.byte	0x53
 12232 0256 14120000 		.4byte	.LVL159
 12233 025a 3E120000 		.4byte	.LVL163
 12234 025e 0100     		.2byte	0x1
 12235 0260 5A       		.byte	0x5a
 12236 0261 3E120000 		.4byte	.LVL163
 12237 0265 54120000 		.4byte	.LVL164
 12238 0269 3A00     		.2byte	0x3a
 12239 026b 71       		.byte	0x71
 12240 026c 00       		.sleb128 0
 12241 026d 3B       		.byte	0x3b
 12242 026e 14       		.byte	0x14
 12243 026f 14       		.byte	0x14
 12244 0270 1F       		.byte	0x1f
 12245 0271 23       		.byte	0x23
 12246 0272 20       		.uleb128 0x20
 12247 0273 24       		.byte	0x24
 12248 0274 17       		.byte	0x17
 12249 0275 25       		.byte	0x25
 12250 0276 21       		.byte	0x21
 12251 0277 71       		.byte	0x71
 12252 0278 00       		.sleb128 0
 12253 0279 36       		.byte	0x36
 12254 027a 14       		.byte	0x14
 12255 027b 14       		.byte	0x14
 12256 027c 1F       		.byte	0x1f
 12257 027d 23       		.byte	0x23
 12258 027e 20       		.uleb128 0x20
 12259 027f 24       		.byte	0x24
 12260 0280 17       		.byte	0x17
 12261 0281 25       		.byte	0x25
 12262 0282 21       		.byte	0x21
 12263 0283 27       		.byte	0x27
 12264 0284 71       		.byte	0x71
 12265 0285 00       		.sleb128 0
 12266 0286 37       		.byte	0x37
 12267 0287 14       		.byte	0x14
 12268 0288 14       		.byte	0x14
 12269 0289 24       		.byte	0x24
 12270 028a 17       		.byte	0x17
 12271 028b 1F       		.byte	0x1f
 12272 028c 23       		.byte	0x23
 12273 028d 20       		.uleb128 0x20
 12274 028e 25       		.byte	0x25
 12275 028f 21       		.byte	0x21
 12276 0290 27       		.byte	0x27
ARM GAS  C:\Users\jo\AppData\Local\Temp\ccDsJqTW.s 			page 219


 12277 0291 7C       		.byte	0x7c
 12278 0292 00       		.sleb128 0
 12279 0293 91       		.byte	0x91
 12280 0294 EC7D     		.sleb128 -276
 12281 0296 06       		.byte	0x6
 12282 0297 27       		.byte	0x27
 12283 0298 71       		.byte	0x71
 12284 0299 00       		.sleb128 0
 12285 029a 1A       		.byte	0x1a
 12286 029b 91       		.byte	0x91
 12287 029c EC7D     		.sleb128 -276
 12288 029e 06       		.byte	0x6
 12289 029f 27       		.byte	0x27
 12290 02a0 7B       		.byte	0x7b
 12291 02a1 00       		.sleb128 0
 12292 02a2 22       		.byte	0x22
 12293 02a3 22       		.byte	0x22
 12294 02a4 9F       		.byte	0x9f
 12295 02a5 8A120000 		.4byte	.LVL165
 12296 02a9 AA120000 		.4byte	.LVL169
 12297 02ad 0100     		.2byte	0x1
 12298 02af 54       		.byte	0x54
 12299 02b0 18130000 		.4byte	.LVL172
 12300 02b4 26130000 		.4byte	.LVL175
 12301 02b8 0100     		.2byte	0x1
 12302 02ba 5C       		.byte	0x5c
 12303 02bb 78130000 		.4byte	.LVL178
 12304 02bf A4130000 		.4byte	.LVL180
 12305 02c3 0100     		.2byte	0x1
 12306 02c5 51       		.byte	0x51
 12307 02c6 DC130000 		.4byte	.LVL183
 12308 02ca 18140000 		.4byte	.LVL186
 12309 02ce 0100     		.2byte	0x1
 12310 02d0 52       		.byte	0x52
 12311 02d1 66140000 		.4byte	.LVL189
 12312 02d5 72140000 		.4byte	.LVL192
 12313 02d9 0100     		.2byte	0x1
 12314 02db 56       		.byte	0x56
 12315 02dc D0140000 		.4byte	.LVL196
 12316 02e0 E8140000 		.4byte	.LVL200
 12317 02e4 0100     		.2byte	0x1
 12318 02e6 55       		.byte	0x55
 12319 02e7 4A150000 		.4byte	.LVL202
 12320 02eb 6A150000 		.4byte	.LVL206
 12321 02ef 0100     		.2byte	0x1
 12322 02f1 53       		.byte	0x53
 12323 02f2 E0150000 		.4byte	.LVL207
 12324 02f6 F4150000 		.4byte	.LVL210
 12325 02fa 0100     		.2byte	0x1
 12326 02fc 5E       		.byte	0x5e
 12327 02fd 3A160000 		.4byte	.LVL211
 12328 0301 6A160000 		.4byte	.LVL215
 12329 0305 0100     		.2byte	0x1
 12330 0307 54       		.byte	0x54
 12331 0308 6A160000 		.4byte	.LVL215
 12332 030c 78160000 		.4byte	.LVL216
 12333 0310 2E00     		.2byte	0x2e
ARM GAS  C:\Users\jo\AppData\Local\Temp\ccDsJqTW.s 			page 220


 12334 0312 79       		.byte	0x79
 12335 0313 00       		.sleb128 0
 12336 0314 37       		.byte	0x37
 12337 0315 14       		.byte	0x14
 12338 0316 14       		.byte	0x14
 12339 0317 24       		.byte	0x24
 12340 0318 17       		.byte	0x17
 12341 0319 1F       		.byte	0x1f
 12342 031a 23       		.byte	0x23
 12343 031b 20       		.uleb128 0x20
 12344 031c 25       		.byte	0x25
 12345 031d 21       		.byte	0x21
 12346 031e 7B       		.byte	0x7b
 12347 031f 00       		.sleb128 0
 12348 0320 27       		.byte	0x27
 12349 0321 91       		.byte	0x91
 12350 0322 EC7D     		.sleb128 -276
 12351 0324 06       		.byte	0x6
 12352 0325 7C       		.byte	0x7c
 12353 0326 00       		.sleb128 0
 12354 0327 27       		.byte	0x27
 12355 0328 79       		.byte	0x79
 12356 0329 00       		.sleb128 0
 12357 032a 1A       		.byte	0x1a
 12358 032b 7C       		.byte	0x7c
 12359 032c 00       		.sleb128 0
 12360 032d 27       		.byte	0x27
 12361 032e 22       		.byte	0x22
 12362 032f 91       		.byte	0x91
 12363 0330 E47D     		.sleb128 -284
 12364 0332 06       		.byte	0x6
 12365 0333 22       		.byte	0x22
 12366 0334 91       		.byte	0x91
 12367 0335 887E     		.sleb128 -248
 12368 0337 06       		.byte	0x6
 12369 0338 22       		.byte	0x22
 12370 0339 0C       		.byte	0xc
 12371 033a 7BCAF10B 		.4byte	0xbf1ca7b
 12372 033e 1C       		.byte	0x1c
 12373 033f 9F       		.byte	0x9f
 12374 0340 AE160000 		.4byte	.LVL218
 12375 0344 E0160000 		.4byte	.LVL222
 12376 0348 0100     		.2byte	0x1
 12377 034a 5C       		.byte	0x5c
 12378 034b 12170000 		.4byte	.LVL223
 12379 034f 64170000 		.4byte	.LVL227
 12380 0353 0100     		.2byte	0x1
 12381 0355 57       		.byte	0x57
 12382 0356 A8170000 		.4byte	.LVL229
 12383 035a D6170000 		.4byte	.LVL233
 12384 035e 0100     		.2byte	0x1
 12385 0360 59       		.byte	0x59
 12386 0361 06180000 		.4byte	.LVL235
 12387 0365 3A180000 		.4byte	.LVL239
 12388 0369 0100     		.2byte	0x1
 12389 036b 58       		.byte	0x58
 12390 036c 76180000 		.4byte	.LVL241
ARM GAS  C:\Users\jo\AppData\Local\Temp\ccDsJqTW.s 			page 221


 12391 0370 A6180000 		.4byte	.LVL245
 12392 0374 0100     		.2byte	0x1
 12393 0376 58       		.byte	0x58
 12394 0377 D2180000 		.4byte	.LVL247
 12395 037b 2A190000 		.4byte	.LVL251
 12396 037f 0100     		.2byte	0x1
 12397 0381 59       		.byte	0x59
 12398 0382 4C190000 		.4byte	.LVL253
 12399 0386 B8190000 		.4byte	.LVL257
 12400 038a 0100     		.2byte	0x1
 12401 038c 59       		.byte	0x59
 12402 038d D4190000 		.4byte	.LVL259
 12403 0391 2C1A0000 		.4byte	.LVL263
 12404 0395 0100     		.2byte	0x1
 12405 0397 59       		.byte	0x59
 12406 0398 4E1A0000 		.4byte	.LVL265
 12407 039c AC1A0000 		.4byte	.LVL270
 12408 03a0 0100     		.2byte	0x1
 12409 03a2 59       		.byte	0x59
 12410 03a3 F41A0000 		.4byte	.LVL272
 12411 03a7 021B0000 		.4byte	.LVL276
 12412 03ab 0100     		.2byte	0x1
 12413 03ad 51       		.byte	0x51
 12414 03ae 801B0000 		.4byte	.LVL285
 12415 03b2 DC1B0000 		.4byte	.LVL290
 12416 03b6 0100     		.2byte	0x1
 12417 03b8 5C       		.byte	0x5c
 12418 03b9 FE1B0000 		.4byte	.LVL291
 12419 03bd 281C0000 		.4byte	.LVL293
 12420 03c1 0100     		.2byte	0x1
 12421 03c3 5C       		.byte	0x5c
 12422 03c4 281C0000 		.4byte	.LVL293
 12423 03c8 381C0000 		.4byte	.LVL294
 12424 03cc 2A00     		.2byte	0x2a
 12425 03ce 72       		.byte	0x72
 12426 03cf 00       		.sleb128 0
 12427 03d0 3B       		.byte	0x3b
 12428 03d1 14       		.byte	0x14
 12429 03d2 14       		.byte	0x14
 12430 03d3 1F       		.byte	0x1f
 12431 03d4 23       		.byte	0x23
 12432 03d5 20       		.uleb128 0x20
 12433 03d6 24       		.byte	0x24
 12434 03d7 17       		.byte	0x17
 12435 03d8 25       		.byte	0x25
 12436 03d9 21       		.byte	0x21
 12437 03da 72       		.byte	0x72
 12438 03db 00       		.sleb128 0
 12439 03dc 36       		.byte	0x36
 12440 03dd 14       		.byte	0x14
 12441 03de 14       		.byte	0x14
 12442 03df 1F       		.byte	0x1f
 12443 03e0 23       		.byte	0x23
 12444 03e1 20       		.uleb128 0x20
 12445 03e2 24       		.byte	0x24
 12446 03e3 17       		.byte	0x17
 12447 03e4 25       		.byte	0x25
ARM GAS  C:\Users\jo\AppData\Local\Temp\ccDsJqTW.s 			page 222


 12448 03e5 21       		.byte	0x21
 12449 03e6 27       		.byte	0x27
 12450 03e7 72       		.byte	0x72
 12451 03e8 00       		.sleb128 0
 12452 03e9 37       		.byte	0x37
 12453 03ea 14       		.byte	0x14
 12454 03eb 14       		.byte	0x14
 12455 03ec 24       		.byte	0x24
 12456 03ed 17       		.byte	0x17
 12457 03ee 1F       		.byte	0x1f
 12458 03ef 23       		.byte	0x23
 12459 03f0 20       		.uleb128 0x20
 12460 03f1 25       		.byte	0x25
 12461 03f2 21       		.byte	0x21
 12462 03f3 27       		.byte	0x27
 12463 03f4 79       		.byte	0x79
 12464 03f5 00       		.sleb128 0
 12465 03f6 22       		.byte	0x22
 12466 03f7 9F       		.byte	0x9f
 12467 03f8 981C0000 		.4byte	.LVL296
 12468 03fc AC1C0000 		.4byte	.LVL300
 12469 0400 0100     		.2byte	0x1
 12470 0402 56       		.byte	0x56
 12471 0403 AC1C0000 		.4byte	.LVL300
 12472 0407 AE1C0000 		.4byte	.LVL301
 12473 040b 3D00     		.2byte	0x3d
 12474 040d 72       		.byte	0x72
 12475 040e 00       		.sleb128 0
 12476 040f 73       		.byte	0x73
 12477 0410 00       		.sleb128 0
 12478 0411 27       		.byte	0x27
 12479 0412 74       		.byte	0x74
 12480 0413 00       		.sleb128 0
 12481 0414 1A       		.byte	0x1a
 12482 0415 73       		.byte	0x73
 12483 0416 00       		.sleb128 0
 12484 0417 27       		.byte	0x27
 12485 0418 91       		.byte	0x91
 12486 0419 E87D     		.sleb128 -280
 12487 041b 06       		.byte	0x6
 12488 041c 22       		.byte	0x22
 12489 041d 91       		.byte	0x91
 12490 041e 8C7E     		.sleb128 -244
 12491 0420 06       		.byte	0x6
 12492 0421 22       		.byte	0x22
 12493 0422 74       		.byte	0x74
 12494 0423 00       		.sleb128 0
 12495 0424 3B       		.byte	0x3b
 12496 0425 14       		.byte	0x14
 12497 0426 14       		.byte	0x14
 12498 0427 1F       		.byte	0x1f
 12499 0428 23       		.byte	0x23
 12500 0429 20       		.uleb128 0x20
 12501 042a 24       		.byte	0x24
 12502 042b 17       		.byte	0x17
 12503 042c 25       		.byte	0x25
 12504 042d 21       		.byte	0x21
ARM GAS  C:\Users\jo\AppData\Local\Temp\ccDsJqTW.s 			page 223


 12505 042e 74       		.byte	0x74
 12506 042f 00       		.sleb128 0
 12507 0430 36       		.byte	0x36
 12508 0431 14       		.byte	0x14
 12509 0432 14       		.byte	0x14
 12510 0433 1F       		.byte	0x1f
 12511 0434 23       		.byte	0x23
 12512 0435 20       		.uleb128 0x20
 12513 0436 24       		.byte	0x24
 12514 0437 17       		.byte	0x17
 12515 0438 25       		.byte	0x25
 12516 0439 21       		.byte	0x21
 12517 043a 27       		.byte	0x27
 12518 043b 74       		.byte	0x74
 12519 043c 00       		.sleb128 0
 12520 043d 37       		.byte	0x37
 12521 043e 14       		.byte	0x14
 12522 043f 14       		.byte	0x14
 12523 0440 24       		.byte	0x24
 12524 0441 17       		.byte	0x17
 12525 0442 1F       		.byte	0x1f
 12526 0443 23       		.byte	0x23
 12527 0444 20       		.uleb128 0x20
 12528 0445 25       		.byte	0x25
 12529 0446 21       		.byte	0x21
 12530 0447 27       		.byte	0x27
 12531 0448 22       		.byte	0x22
 12532 0449 9F       		.byte	0x9f
 12533 044a F41C0000 		.4byte	.LVL305
 12534 044e 3E1D0000 		.4byte	.LVL310
 12535 0452 0100     		.2byte	0x1
 12536 0454 58       		.byte	0x58
 12537 0455 9C1D0000 		.4byte	.LVL317
 12538 0459 A61D0000 		.4byte	.LVL320
 12539 045d 0100     		.2byte	0x1
 12540 045f 52       		.byte	0x52
 12541 0460 281E0000 		.4byte	.LVL322
 12542 0464 4E1E0000 		.4byte	.LVL324
 12543 0468 0100     		.2byte	0x1
 12544 046a 50       		.byte	0x50
 12545 046b 4E1E0000 		.4byte	.LVL324
 12546 046f 5A1E0000 		.4byte	.LVL325
 12547 0473 8E00     		.2byte	0x8e
 12548 0475 91       		.byte	0x91
 12549 0476 847E     		.sleb128 -252
 12550 0478 06       		.byte	0x6
 12551 0479 3D       		.byte	0x3d
 12552 047a 14       		.byte	0x14
 12553 047b 14       		.byte	0x14
 12554 047c 24       		.byte	0x24
 12555 047d 17       		.byte	0x17
 12556 047e 1F       		.byte	0x1f
 12557 047f 23       		.byte	0x23
 12558 0480 20       		.uleb128 0x20
 12559 0481 25       		.byte	0x25
 12560 0482 21       		.byte	0x21
 12561 0483 91       		.byte	0x91
ARM GAS  C:\Users\jo\AppData\Local\Temp\ccDsJqTW.s 			page 224


 12562 0484 847E     		.sleb128 -252
 12563 0486 06       		.byte	0x6
 12564 0487 3F       		.byte	0x3f
 12565 0488 14       		.byte	0x14
 12566 0489 14       		.byte	0x14
 12567 048a 24       		.byte	0x24
 12568 048b 17       		.byte	0x17
 12569 048c 1F       		.byte	0x1f
 12570 048d 23       		.byte	0x23
 12571 048e 20       		.uleb128 0x20
 12572 048f 25       		.byte	0x25
 12573 0490 21       		.byte	0x21
 12574 0491 27       		.byte	0x27
 12575 0492 91       		.byte	0x91
 12576 0493 847E     		.sleb128 -252
 12577 0495 06       		.byte	0x6
 12578 0496 3A       		.byte	0x3a
 12579 0497 25       		.byte	0x25
 12580 0498 27       		.byte	0x27
 12581 0499 91       		.byte	0x91
 12582 049a EC7D     		.sleb128 -276
 12583 049c 06       		.byte	0x6
 12584 049d 7E       		.byte	0x7e
 12585 049e 00       		.sleb128 0
 12586 049f 27       		.byte	0x27
 12587 04a0 71       		.byte	0x71
 12588 04a1 00       		.sleb128 0
 12589 04a2 1A       		.byte	0x1a
 12590 04a3 7E       		.byte	0x7e
 12591 04a4 00       		.sleb128 0
 12592 04a5 27       		.byte	0x27
 12593 04a6 22       		.byte	0x22
 12594 04a7 76       		.byte	0x76
 12595 04a8 00       		.sleb128 0
 12596 04a9 3E       		.byte	0x3e
 12597 04aa 14       		.byte	0x14
 12598 04ab 14       		.byte	0x14
 12599 04ac 24       		.byte	0x24
 12600 04ad 17       		.byte	0x17
 12601 04ae 1F       		.byte	0x1f
 12602 04af 23       		.byte	0x23
 12603 04b0 20       		.uleb128 0x20
 12604 04b1 25       		.byte	0x25
 12605 04b2 21       		.byte	0x21
 12606 04b3 76       		.byte	0x76
 12607 04b4 00       		.sleb128 0
 12608 04b5 37       		.byte	0x37
 12609 04b6 14       		.byte	0x14
 12610 04b7 14       		.byte	0x14
 12611 04b8 1F       		.byte	0x1f
 12612 04b9 23       		.byte	0x23
 12613 04ba 20       		.uleb128 0x20
 12614 04bb 24       		.byte	0x24
 12615 04bc 17       		.byte	0x17
 12616 04bd 25       		.byte	0x25
 12617 04be 21       		.byte	0x21
 12618 04bf 27       		.byte	0x27
ARM GAS  C:\Users\jo\AppData\Local\Temp\ccDsJqTW.s 			page 225


 12619 04c0 76       		.byte	0x76
 12620 04c1 00       		.sleb128 0
 12621 04c2 33       		.byte	0x33
 12622 04c3 25       		.byte	0x25
 12623 04c4 27       		.byte	0x27
 12624 04c5 22       		.byte	0x22
 12625 04c6 91       		.byte	0x91
 12626 04c7 887E     		.sleb128 -248
 12627 04c9 06       		.byte	0x6
 12628 04ca 22       		.byte	0x22
 12629 04cb 91       		.byte	0x91
 12630 04cc F47D     		.sleb128 -268
 12631 04ce 06       		.byte	0x6
 12632 04cf 22       		.byte	0x22
 12633 04d0 91       		.byte	0x91
 12634 04d1 E07D     		.sleb128 -288
 12635 04d3 06       		.byte	0x6
 12636 04d4 22       		.byte	0x22
 12637 04d5 0C       		.byte	0xc
 12638 04d6 095C0641 		.4byte	0x41065c09
 12639 04da 1C       		.byte	0x1c
 12640 04db 71       		.byte	0x71
 12641 04dc 00       		.sleb128 0
 12642 04dd 3B       		.byte	0x3b
 12643 04de 14       		.byte	0x14
 12644 04df 14       		.byte	0x14
 12645 04e0 1F       		.byte	0x1f
 12646 04e1 23       		.byte	0x23
 12647 04e2 20       		.uleb128 0x20
 12648 04e3 24       		.byte	0x24
 12649 04e4 17       		.byte	0x17
 12650 04e5 25       		.byte	0x25
 12651 04e6 21       		.byte	0x21
 12652 04e7 71       		.byte	0x71
 12653 04e8 00       		.sleb128 0
 12654 04e9 36       		.byte	0x36
 12655 04ea 14       		.byte	0x14
 12656 04eb 14       		.byte	0x14
 12657 04ec 1F       		.byte	0x1f
 12658 04ed 23       		.byte	0x23
 12659 04ee 20       		.uleb128 0x20
 12660 04ef 24       		.byte	0x24
 12661 04f0 17       		.byte	0x17
 12662 04f1 25       		.byte	0x25
 12663 04f2 21       		.byte	0x21
 12664 04f3 27       		.byte	0x27
 12665 04f4 71       		.byte	0x71
 12666 04f5 00       		.sleb128 0
 12667 04f6 37       		.byte	0x37
 12668 04f7 14       		.byte	0x14
 12669 04f8 14       		.byte	0x14
 12670 04f9 24       		.byte	0x24
 12671 04fa 17       		.byte	0x17
 12672 04fb 1F       		.byte	0x1f
 12673 04fc 23       		.byte	0x23
 12674 04fd 20       		.uleb128 0x20
 12675 04fe 25       		.byte	0x25
ARM GAS  C:\Users\jo\AppData\Local\Temp\ccDsJqTW.s 			page 226


 12676 04ff 21       		.byte	0x21
 12677 0500 27       		.byte	0x27
 12678 0501 22       		.byte	0x22
 12679 0502 9F       		.byte	0x9f
 12680 0503 5A1E0000 		.4byte	.LVL325
 12681 0507 841E0000 		.4byte	.LVL327
 12682 050b 9400     		.2byte	0x94
 12683 050d 91       		.byte	0x91
 12684 050e 847E     		.sleb128 -252
 12685 0510 06       		.byte	0x6
 12686 0511 3D       		.byte	0x3d
 12687 0512 14       		.byte	0x14
 12688 0513 14       		.byte	0x14
 12689 0514 24       		.byte	0x24
 12690 0515 17       		.byte	0x17
 12691 0516 1F       		.byte	0x1f
 12692 0517 23       		.byte	0x23
 12693 0518 20       		.uleb128 0x20
 12694 0519 25       		.byte	0x25
 12695 051a 21       		.byte	0x21
 12696 051b 91       		.byte	0x91
 12697 051c 847E     		.sleb128 -252
 12698 051e 06       		.byte	0x6
 12699 051f 3F       		.byte	0x3f
 12700 0520 14       		.byte	0x14
 12701 0521 14       		.byte	0x14
 12702 0522 24       		.byte	0x24
 12703 0523 17       		.byte	0x17
 12704 0524 1F       		.byte	0x1f
 12705 0525 23       		.byte	0x23
 12706 0526 20       		.uleb128 0x20
 12707 0527 25       		.byte	0x25
 12708 0528 21       		.byte	0x21
 12709 0529 27       		.byte	0x27
 12710 052a 91       		.byte	0x91
 12711 052b 847E     		.sleb128 -252
 12712 052d 06       		.byte	0x6
 12713 052e 3A       		.byte	0x3a
 12714 052f 25       		.byte	0x25
 12715 0530 27       		.byte	0x27
 12716 0531 91       		.byte	0x91
 12717 0532 EC7D     		.sleb128 -276
 12718 0534 06       		.byte	0x6
 12719 0535 7E       		.byte	0x7e
 12720 0536 00       		.sleb128 0
 12721 0537 27       		.byte	0x27
 12722 0538 71       		.byte	0x71
 12723 0539 00       		.sleb128 0
 12724 053a 1A       		.byte	0x1a
 12725 053b 7E       		.byte	0x7e
 12726 053c 00       		.sleb128 0
 12727 053d 27       		.byte	0x27
 12728 053e 22       		.byte	0x22
 12729 053f 91       		.byte	0x91
 12730 0540 E47D     		.sleb128 -284
 12731 0542 06       		.byte	0x6
 12732 0543 3E       		.byte	0x3e
ARM GAS  C:\Users\jo\AppData\Local\Temp\ccDsJqTW.s 			page 227


 12733 0544 14       		.byte	0x14
 12734 0545 14       		.byte	0x14
 12735 0546 24       		.byte	0x24
 12736 0547 17       		.byte	0x17
 12737 0548 1F       		.byte	0x1f
 12738 0549 23       		.byte	0x23
 12739 054a 20       		.uleb128 0x20
 12740 054b 25       		.byte	0x25
 12741 054c 21       		.byte	0x21
 12742 054d 91       		.byte	0x91
 12743 054e E47D     		.sleb128 -284
 12744 0550 06       		.byte	0x6
 12745 0551 37       		.byte	0x37
 12746 0552 14       		.byte	0x14
 12747 0553 14       		.byte	0x14
 12748 0554 1F       		.byte	0x1f
 12749 0555 23       		.byte	0x23
 12750 0556 20       		.uleb128 0x20
 12751 0557 24       		.byte	0x24
 12752 0558 17       		.byte	0x17
 12753 0559 25       		.byte	0x25
 12754 055a 21       		.byte	0x21
 12755 055b 27       		.byte	0x27
 12756 055c 91       		.byte	0x91
 12757 055d E47D     		.sleb128 -284
 12758 055f 06       		.byte	0x6
 12759 0560 33       		.byte	0x33
 12760 0561 25       		.byte	0x25
 12761 0562 27       		.byte	0x27
 12762 0563 22       		.byte	0x22
 12763 0564 91       		.byte	0x91
 12764 0565 887E     		.sleb128 -248
 12765 0567 06       		.byte	0x6
 12766 0568 22       		.byte	0x22
 12767 0569 91       		.byte	0x91
 12768 056a F47D     		.sleb128 -268
 12769 056c 06       		.byte	0x6
 12770 056d 22       		.byte	0x22
 12771 056e 91       		.byte	0x91
 12772 056f E07D     		.sleb128 -288
 12773 0571 06       		.byte	0x6
 12774 0572 22       		.byte	0x22
 12775 0573 0C       		.byte	0xc
 12776 0574 095C0641 		.4byte	0x41065c09
 12777 0578 1C       		.byte	0x1c
 12778 0579 71       		.byte	0x71
 12779 057a 00       		.sleb128 0
 12780 057b 3B       		.byte	0x3b
 12781 057c 14       		.byte	0x14
 12782 057d 14       		.byte	0x14
 12783 057e 1F       		.byte	0x1f
 12784 057f 23       		.byte	0x23
 12785 0580 20       		.uleb128 0x20
 12786 0581 24       		.byte	0x24
 12787 0582 17       		.byte	0x17
 12788 0583 25       		.byte	0x25
 12789 0584 21       		.byte	0x21
ARM GAS  C:\Users\jo\AppData\Local\Temp\ccDsJqTW.s 			page 228


 12790 0585 71       		.byte	0x71
 12791 0586 00       		.sleb128 0
 12792 0587 36       		.byte	0x36
 12793 0588 14       		.byte	0x14
 12794 0589 14       		.byte	0x14
 12795 058a 1F       		.byte	0x1f
 12796 058b 23       		.byte	0x23
 12797 058c 20       		.uleb128 0x20
 12798 058d 24       		.byte	0x24
 12799 058e 17       		.byte	0x17
 12800 058f 25       		.byte	0x25
 12801 0590 21       		.byte	0x21
 12802 0591 27       		.byte	0x27
 12803 0592 71       		.byte	0x71
 12804 0593 00       		.sleb128 0
 12805 0594 37       		.byte	0x37
 12806 0595 14       		.byte	0x14
 12807 0596 14       		.byte	0x14
 12808 0597 24       		.byte	0x24
 12809 0598 17       		.byte	0x17
 12810 0599 1F       		.byte	0x1f
 12811 059a 23       		.byte	0x23
 12812 059b 20       		.uleb128 0x20
 12813 059c 25       		.byte	0x25
 12814 059d 21       		.byte	0x21
 12815 059e 27       		.byte	0x27
 12816 059f 22       		.byte	0x22
 12817 05a0 9F       		.byte	0x9f
 12818 05a1 A61E0000 		.4byte	.LVL328
 12819 05a5 C61E0000 		.4byte	.LVL333
 12820 05a9 0100     		.2byte	0x1
 12821 05ab 56       		.byte	0x56
 12822 05ac 00000000 		.4byte	0
 12823 05b0 00000000 		.4byte	0
 12824              	.LLST7:
 12825 05b4 5A070000 		.4byte	.LVL25
 12826 05b8 60070000 		.4byte	.LVL26
 12827 05bc 0100     		.2byte	0x1
 12828 05be 58       		.byte	0x58
 12829 05bf 60070000 		.4byte	.LVL26
 12830 05c3 82070000 		.4byte	.LVL30
 12831 05c7 3000     		.2byte	0x30
 12832 05c9 72       		.byte	0x72
 12833 05ca 00       		.sleb128 0
 12834 05cb 7B       		.byte	0x7b
 12835 05cc 00       		.sleb128 0
 12836 05cd 1A       		.byte	0x1a
 12837 05ce 77       		.byte	0x77
 12838 05cf 00       		.sleb128 0
 12839 05d0 21       		.byte	0x21
 12840 05d1 72       		.byte	0x72
 12841 05d2 00       		.sleb128 0
 12842 05d3 3D       		.byte	0x3d
 12843 05d4 14       		.byte	0x14
 12844 05d5 14       		.byte	0x14
 12845 05d6 1F       		.byte	0x1f
 12846 05d7 23       		.byte	0x23
ARM GAS  C:\Users\jo\AppData\Local\Temp\ccDsJqTW.s 			page 229


 12847 05d8 20       		.uleb128 0x20
 12848 05d9 24       		.byte	0x24
 12849 05da 17       		.byte	0x17
 12850 05db 25       		.byte	0x25
 12851 05dc 21       		.byte	0x21
 12852 05dd 72       		.byte	0x72
 12853 05de 00       		.sleb128 0
 12854 05df 32       		.byte	0x32
 12855 05e0 14       		.byte	0x14
 12856 05e1 14       		.byte	0x14
 12857 05e2 1F       		.byte	0x1f
 12858 05e3 23       		.byte	0x23
 12859 05e4 20       		.uleb128 0x20
 12860 05e5 24       		.byte	0x24
 12861 05e6 17       		.byte	0x17
 12862 05e7 25       		.byte	0x25
 12863 05e8 21       		.byte	0x21
 12864 05e9 27       		.byte	0x27
 12865 05ea 72       		.byte	0x72
 12866 05eb 00       		.sleb128 0
 12867 05ec 3A       		.byte	0x3a
 12868 05ed 14       		.byte	0x14
 12869 05ee 14       		.byte	0x14
 12870 05ef 24       		.byte	0x24
 12871 05f0 17       		.byte	0x17
 12872 05f1 1F       		.byte	0x1f
 12873 05f2 23       		.byte	0x23
 12874 05f3 20       		.uleb128 0x20
 12875 05f4 25       		.byte	0x25
 12876 05f5 21       		.byte	0x21
 12877 05f6 27       		.byte	0x27
 12878 05f7 22       		.byte	0x22
 12879 05f8 9F       		.byte	0x9f
 12880 05f9 82070000 		.4byte	.LVL30
 12881 05fd AC070000 		.4byte	.LVL31
 12882 0601 3600     		.2byte	0x36
 12883 0603 72       		.byte	0x72
 12884 0604 00       		.sleb128 0
 12885 0605 7B       		.byte	0x7b
 12886 0606 00       		.sleb128 0
 12887 0607 21       		.byte	0x21
 12888 0608 73       		.byte	0x73
 12889 0609 00       		.sleb128 0
 12890 060a 1A       		.byte	0x1a
 12891 060b 72       		.byte	0x72
 12892 060c 00       		.sleb128 0
 12893 060d 7B       		.byte	0x7b
 12894 060e 00       		.sleb128 0
 12895 060f 1A       		.byte	0x1a
 12896 0610 21       		.byte	0x21
 12897 0611 72       		.byte	0x72
 12898 0612 00       		.sleb128 0
 12899 0613 3D       		.byte	0x3d
 12900 0614 14       		.byte	0x14
 12901 0615 14       		.byte	0x14
 12902 0616 1F       		.byte	0x1f
 12903 0617 23       		.byte	0x23
ARM GAS  C:\Users\jo\AppData\Local\Temp\ccDsJqTW.s 			page 230


 12904 0618 20       		.uleb128 0x20
 12905 0619 24       		.byte	0x24
 12906 061a 17       		.byte	0x17
 12907 061b 25       		.byte	0x25
 12908 061c 21       		.byte	0x21
 12909 061d 72       		.byte	0x72
 12910 061e 00       		.sleb128 0
 12911 061f 32       		.byte	0x32
 12912 0620 14       		.byte	0x14
 12913 0621 14       		.byte	0x14
 12914 0622 1F       		.byte	0x1f
 12915 0623 23       		.byte	0x23
 12916 0624 20       		.uleb128 0x20
 12917 0625 24       		.byte	0x24
 12918 0626 17       		.byte	0x17
 12919 0627 25       		.byte	0x25
 12920 0628 21       		.byte	0x21
 12921 0629 27       		.byte	0x27
 12922 062a 72       		.byte	0x72
 12923 062b 00       		.sleb128 0
 12924 062c 3A       		.byte	0x3a
 12925 062d 14       		.byte	0x14
 12926 062e 14       		.byte	0x14
 12927 062f 24       		.byte	0x24
 12928 0630 17       		.byte	0x17
 12929 0631 1F       		.byte	0x1f
 12930 0632 23       		.byte	0x23
 12931 0633 20       		.uleb128 0x20
 12932 0634 25       		.byte	0x25
 12933 0635 21       		.byte	0x21
 12934 0636 27       		.byte	0x27
 12935 0637 22       		.byte	0x22
 12936 0638 9F       		.byte	0x9f
 12937 0639 AC070000 		.4byte	.LVL31
 12938 063d DA070000 		.4byte	.LVL33
 12939 0641 3600     		.2byte	0x36
 12940 0643 78       		.byte	0x78
 12941 0644 00       		.sleb128 0
 12942 0645 72       		.byte	0x72
 12943 0646 00       		.sleb128 0
 12944 0647 21       		.byte	0x21
 12945 0648 7B       		.byte	0x7b
 12946 0649 00       		.sleb128 0
 12947 064a 1A       		.byte	0x1a
 12948 064b 78       		.byte	0x78
 12949 064c 00       		.sleb128 0
 12950 064d 72       		.byte	0x72
 12951 064e 00       		.sleb128 0
 12952 064f 1A       		.byte	0x1a
 12953 0650 21       		.byte	0x21
 12954 0651 78       		.byte	0x78
 12955 0652 00       		.sleb128 0
 12956 0653 3D       		.byte	0x3d
 12957 0654 14       		.byte	0x14
 12958 0655 14       		.byte	0x14
 12959 0656 1F       		.byte	0x1f
 12960 0657 23       		.byte	0x23
ARM GAS  C:\Users\jo\AppData\Local\Temp\ccDsJqTW.s 			page 231


 12961 0658 20       		.uleb128 0x20
 12962 0659 24       		.byte	0x24
 12963 065a 17       		.byte	0x17
 12964 065b 25       		.byte	0x25
 12965 065c 21       		.byte	0x21
 12966 065d 78       		.byte	0x78
 12967 065e 00       		.sleb128 0
 12968 065f 32       		.byte	0x32
 12969 0660 14       		.byte	0x14
 12970 0661 14       		.byte	0x14
 12971 0662 1F       		.byte	0x1f
 12972 0663 23       		.byte	0x23
 12973 0664 20       		.uleb128 0x20
 12974 0665 24       		.byte	0x24
 12975 0666 17       		.byte	0x17
 12976 0667 25       		.byte	0x25
 12977 0668 21       		.byte	0x21
 12978 0669 27       		.byte	0x27
 12979 066a 78       		.byte	0x78
 12980 066b 00       		.sleb128 0
 12981 066c 3A       		.byte	0x3a
 12982 066d 14       		.byte	0x14
 12983 066e 14       		.byte	0x14
 12984 066f 24       		.byte	0x24
 12985 0670 17       		.byte	0x17
 12986 0671 1F       		.byte	0x1f
 12987 0672 23       		.byte	0x23
 12988 0673 20       		.uleb128 0x20
 12989 0674 25       		.byte	0x25
 12990 0675 21       		.byte	0x21
 12991 0676 27       		.byte	0x27
 12992 0677 22       		.byte	0x22
 12993 0678 9F       		.byte	0x9f
 12994 0679 DA070000 		.4byte	.LVL33
 12995 067d DE070000 		.4byte	.LVL34
 12996 0681 0100     		.2byte	0x1
 12997 0683 5C       		.byte	0x5c
 12998 0684 DE070000 		.4byte	.LVL34
 12999 0688 30080000 		.4byte	.LVL37
 13000 068c 3600     		.2byte	0x36
 13001 068e 78       		.byte	0x78
 13002 068f 00       		.sleb128 0
 13003 0690 72       		.byte	0x72
 13004 0691 00       		.sleb128 0
 13005 0692 21       		.byte	0x21
 13006 0693 7B       		.byte	0x7b
 13007 0694 00       		.sleb128 0
 13008 0695 1A       		.byte	0x1a
 13009 0696 78       		.byte	0x78
 13010 0697 00       		.sleb128 0
 13011 0698 72       		.byte	0x72
 13012 0699 00       		.sleb128 0
 13013 069a 1A       		.byte	0x1a
 13014 069b 21       		.byte	0x21
 13015 069c 78       		.byte	0x78
 13016 069d 00       		.sleb128 0
 13017 069e 3D       		.byte	0x3d
ARM GAS  C:\Users\jo\AppData\Local\Temp\ccDsJqTW.s 			page 232


 13018 069f 14       		.byte	0x14
 13019 06a0 14       		.byte	0x14
 13020 06a1 1F       		.byte	0x1f
 13021 06a2 23       		.byte	0x23
 13022 06a3 20       		.uleb128 0x20
 13023 06a4 24       		.byte	0x24
 13024 06a5 17       		.byte	0x17
 13025 06a6 25       		.byte	0x25
 13026 06a7 21       		.byte	0x21
 13027 06a8 78       		.byte	0x78
 13028 06a9 00       		.sleb128 0
 13029 06aa 32       		.byte	0x32
 13030 06ab 14       		.byte	0x14
 13031 06ac 14       		.byte	0x14
 13032 06ad 1F       		.byte	0x1f
 13033 06ae 23       		.byte	0x23
 13034 06af 20       		.uleb128 0x20
 13035 06b0 24       		.byte	0x24
 13036 06b1 17       		.byte	0x17
 13037 06b2 25       		.byte	0x25
 13038 06b3 21       		.byte	0x21
 13039 06b4 27       		.byte	0x27
 13040 06b5 78       		.byte	0x78
 13041 06b6 00       		.sleb128 0
 13042 06b7 3A       		.byte	0x3a
 13043 06b8 14       		.byte	0x14
 13044 06b9 14       		.byte	0x14
 13045 06ba 24       		.byte	0x24
 13046 06bb 17       		.byte	0x17
 13047 06bc 1F       		.byte	0x1f
 13048 06bd 23       		.byte	0x23
 13049 06be 20       		.uleb128 0x20
 13050 06bf 25       		.byte	0x25
 13051 06c0 21       		.byte	0x21
 13052 06c1 27       		.byte	0x27
 13053 06c2 22       		.byte	0x22
 13054 06c3 9F       		.byte	0x9f
 13055 06c4 30080000 		.4byte	.LVL37
 13056 06c8 32080000 		.4byte	.LVL38
 13057 06cc 3600     		.2byte	0x36
 13058 06ce 7C       		.byte	0x7c
 13059 06cf 00       		.sleb128 0
 13060 06d0 78       		.byte	0x78
 13061 06d1 00       		.sleb128 0
 13062 06d2 21       		.byte	0x21
 13063 06d3 72       		.byte	0x72
 13064 06d4 00       		.sleb128 0
 13065 06d5 1A       		.byte	0x1a
 13066 06d6 7C       		.byte	0x7c
 13067 06d7 00       		.sleb128 0
 13068 06d8 78       		.byte	0x78
 13069 06d9 00       		.sleb128 0
 13070 06da 1A       		.byte	0x1a
 13071 06db 21       		.byte	0x21
 13072 06dc 7C       		.byte	0x7c
 13073 06dd 00       		.sleb128 0
 13074 06de 3D       		.byte	0x3d
ARM GAS  C:\Users\jo\AppData\Local\Temp\ccDsJqTW.s 			page 233


 13075 06df 14       		.byte	0x14
 13076 06e0 14       		.byte	0x14
 13077 06e1 1F       		.byte	0x1f
 13078 06e2 23       		.byte	0x23
 13079 06e3 20       		.uleb128 0x20
 13080 06e4 24       		.byte	0x24
 13081 06e5 17       		.byte	0x17
 13082 06e6 25       		.byte	0x25
 13083 06e7 21       		.byte	0x21
 13084 06e8 7C       		.byte	0x7c
 13085 06e9 00       		.sleb128 0
 13086 06ea 32       		.byte	0x32
 13087 06eb 14       		.byte	0x14
 13088 06ec 14       		.byte	0x14
 13089 06ed 1F       		.byte	0x1f
 13090 06ee 23       		.byte	0x23
 13091 06ef 20       		.uleb128 0x20
 13092 06f0 24       		.byte	0x24
 13093 06f1 17       		.byte	0x17
 13094 06f2 25       		.byte	0x25
 13095 06f3 21       		.byte	0x21
 13096 06f4 27       		.byte	0x27
 13097 06f5 7C       		.byte	0x7c
 13098 06f6 00       		.sleb128 0
 13099 06f7 3A       		.byte	0x3a
 13100 06f8 14       		.byte	0x14
 13101 06f9 14       		.byte	0x14
 13102 06fa 24       		.byte	0x24
 13103 06fb 17       		.byte	0x17
 13104 06fc 1F       		.byte	0x1f
 13105 06fd 23       		.byte	0x23
 13106 06fe 20       		.uleb128 0x20
 13107 06ff 25       		.byte	0x25
 13108 0700 21       		.byte	0x21
 13109 0701 27       		.byte	0x27
 13110 0702 22       		.byte	0x22
 13111 0703 9F       		.byte	0x9f
 13112 0704 32080000 		.4byte	.LVL38
 13113 0708 76080000 		.4byte	.LVL41
 13114 070c 0100     		.2byte	0x1
 13115 070e 5A       		.byte	0x5a
 13116 070f 76080000 		.4byte	.LVL41
 13117 0713 78080000 		.4byte	.LVL42
 13118 0717 3600     		.2byte	0x36
 13119 0719 7C       		.byte	0x7c
 13120 071a 00       		.sleb128 0
 13121 071b 78       		.byte	0x78
 13122 071c 00       		.sleb128 0
 13123 071d 21       		.byte	0x21
 13124 071e 72       		.byte	0x72
 13125 071f 00       		.sleb128 0
 13126 0720 1A       		.byte	0x1a
 13127 0721 7C       		.byte	0x7c
 13128 0722 00       		.sleb128 0
 13129 0723 78       		.byte	0x78
 13130 0724 00       		.sleb128 0
 13131 0725 1A       		.byte	0x1a
ARM GAS  C:\Users\jo\AppData\Local\Temp\ccDsJqTW.s 			page 234


 13132 0726 21       		.byte	0x21
 13133 0727 7C       		.byte	0x7c
 13134 0728 00       		.sleb128 0
 13135 0729 3D       		.byte	0x3d
 13136 072a 14       		.byte	0x14
 13137 072b 14       		.byte	0x14
 13138 072c 1F       		.byte	0x1f
 13139 072d 23       		.byte	0x23
 13140 072e 20       		.uleb128 0x20
 13141 072f 24       		.byte	0x24
 13142 0730 17       		.byte	0x17
 13143 0731 25       		.byte	0x25
 13144 0732 21       		.byte	0x21
 13145 0733 7C       		.byte	0x7c
 13146 0734 00       		.sleb128 0
 13147 0735 32       		.byte	0x32
 13148 0736 14       		.byte	0x14
 13149 0737 14       		.byte	0x14
 13150 0738 1F       		.byte	0x1f
 13151 0739 23       		.byte	0x23
 13152 073a 20       		.uleb128 0x20
 13153 073b 24       		.byte	0x24
 13154 073c 17       		.byte	0x17
 13155 073d 25       		.byte	0x25
 13156 073e 21       		.byte	0x21
 13157 073f 27       		.byte	0x27
 13158 0740 7C       		.byte	0x7c
 13159 0741 00       		.sleb128 0
 13160 0742 3A       		.byte	0x3a
 13161 0743 14       		.byte	0x14
 13162 0744 14       		.byte	0x14
 13163 0745 24       		.byte	0x24
 13164 0746 17       		.byte	0x17
 13165 0747 1F       		.byte	0x1f
 13166 0748 23       		.byte	0x23
 13167 0749 20       		.uleb128 0x20
 13168 074a 25       		.byte	0x25
 13169 074b 21       		.byte	0x21
 13170 074c 27       		.byte	0x27
 13171 074d 22       		.byte	0x22
 13172 074e 9F       		.byte	0x9f
 13173 074f 78080000 		.4byte	.LVL42
 13174 0753 AC080000 		.4byte	.LVL43
 13175 0757 4000     		.2byte	0x40
 13176 0759 91       		.byte	0x91
 13177 075a E07D     		.sleb128 -288
 13178 075c 06       		.byte	0x6
 13179 075d 7C       		.byte	0x7c
 13180 075e 00       		.sleb128 0
 13181 075f 21       		.byte	0x21
 13182 0760 78       		.byte	0x78
 13183 0761 00       		.sleb128 0
 13184 0762 1A       		.byte	0x1a
 13185 0763 91       		.byte	0x91
 13186 0764 E07D     		.sleb128 -288
 13187 0766 06       		.byte	0x6
 13188 0767 7C       		.byte	0x7c
ARM GAS  C:\Users\jo\AppData\Local\Temp\ccDsJqTW.s 			page 235


 13189 0768 00       		.sleb128 0
 13190 0769 1A       		.byte	0x1a
 13191 076a 21       		.byte	0x21
 13192 076b 91       		.byte	0x91
 13193 076c E07D     		.sleb128 -288
 13194 076e 06       		.byte	0x6
 13195 076f 3D       		.byte	0x3d
 13196 0770 14       		.byte	0x14
 13197 0771 14       		.byte	0x14
 13198 0772 1F       		.byte	0x1f
 13199 0773 23       		.byte	0x23
 13200 0774 20       		.uleb128 0x20
 13201 0775 24       		.byte	0x24
 13202 0776 17       		.byte	0x17
 13203 0777 25       		.byte	0x25
 13204 0778 21       		.byte	0x21
 13205 0779 91       		.byte	0x91
 13206 077a E07D     		.sleb128 -288
 13207 077c 06       		.byte	0x6
 13208 077d 32       		.byte	0x32
 13209 077e 14       		.byte	0x14
 13210 077f 14       		.byte	0x14
 13211 0780 1F       		.byte	0x1f
 13212 0781 23       		.byte	0x23
 13213 0782 20       		.uleb128 0x20
 13214 0783 24       		.byte	0x24
 13215 0784 17       		.byte	0x17
 13216 0785 25       		.byte	0x25
 13217 0786 21       		.byte	0x21
 13218 0787 27       		.byte	0x27
 13219 0788 91       		.byte	0x91
 13220 0789 E07D     		.sleb128 -288
 13221 078b 06       		.byte	0x6
 13222 078c 3A       		.byte	0x3a
 13223 078d 14       		.byte	0x14
 13224 078e 14       		.byte	0x14
 13225 078f 24       		.byte	0x24
 13226 0790 17       		.byte	0x17
 13227 0791 1F       		.byte	0x1f
 13228 0792 23       		.byte	0x23
 13229 0793 20       		.uleb128 0x20
 13230 0794 25       		.byte	0x25
 13231 0795 21       		.byte	0x21
 13232 0796 27       		.byte	0x27
 13233 0797 22       		.byte	0x22
 13234 0798 9F       		.byte	0x9f
 13235 0799 AC080000 		.4byte	.LVL43
 13236 079d C0080000 		.4byte	.LVL44
 13237 07a1 0100     		.2byte	0x1
 13238 07a3 57       		.byte	0x57
 13239 07a4 C0080000 		.4byte	.LVL44
 13240 07a8 EA080000 		.4byte	.LVL46
 13241 07ac 4000     		.2byte	0x40
 13242 07ae 91       		.byte	0x91
 13243 07af E07D     		.sleb128 -288
 13244 07b1 06       		.byte	0x6
 13245 07b2 7C       		.byte	0x7c
ARM GAS  C:\Users\jo\AppData\Local\Temp\ccDsJqTW.s 			page 236


 13246 07b3 00       		.sleb128 0
 13247 07b4 21       		.byte	0x21
 13248 07b5 78       		.byte	0x78
 13249 07b6 00       		.sleb128 0
 13250 07b7 1A       		.byte	0x1a
 13251 07b8 91       		.byte	0x91
 13252 07b9 E07D     		.sleb128 -288
 13253 07bb 06       		.byte	0x6
 13254 07bc 7C       		.byte	0x7c
 13255 07bd 00       		.sleb128 0
 13256 07be 1A       		.byte	0x1a
 13257 07bf 21       		.byte	0x21
 13258 07c0 91       		.byte	0x91
 13259 07c1 E07D     		.sleb128 -288
 13260 07c3 06       		.byte	0x6
 13261 07c4 3D       		.byte	0x3d
 13262 07c5 14       		.byte	0x14
 13263 07c6 14       		.byte	0x14
 13264 07c7 1F       		.byte	0x1f
 13265 07c8 23       		.byte	0x23
 13266 07c9 20       		.uleb128 0x20
 13267 07ca 24       		.byte	0x24
 13268 07cb 17       		.byte	0x17
 13269 07cc 25       		.byte	0x25
 13270 07cd 21       		.byte	0x21
 13271 07ce 91       		.byte	0x91
 13272 07cf E07D     		.sleb128 -288
 13273 07d1 06       		.byte	0x6
 13274 07d2 32       		.byte	0x32
 13275 07d3 14       		.byte	0x14
 13276 07d4 14       		.byte	0x14
 13277 07d5 1F       		.byte	0x1f
 13278 07d6 23       		.byte	0x23
 13279 07d7 20       		.uleb128 0x20
 13280 07d8 24       		.byte	0x24
 13281 07d9 17       		.byte	0x17
 13282 07da 25       		.byte	0x25
 13283 07db 21       		.byte	0x21
 13284 07dc 27       		.byte	0x27
 13285 07dd 91       		.byte	0x91
 13286 07de E07D     		.sleb128 -288
 13287 07e0 06       		.byte	0x6
 13288 07e1 3A       		.byte	0x3a
 13289 07e2 14       		.byte	0x14
 13290 07e3 14       		.byte	0x14
 13291 07e4 24       		.byte	0x24
 13292 07e5 17       		.byte	0x17
 13293 07e6 1F       		.byte	0x1f
 13294 07e7 23       		.byte	0x23
 13295 07e8 20       		.uleb128 0x20
 13296 07e9 25       		.byte	0x25
 13297 07ea 21       		.byte	0x21
 13298 07eb 27       		.byte	0x27
 13299 07ec 22       		.byte	0x22
 13300 07ed 9F       		.byte	0x9f
 13301 07ee EA080000 		.4byte	.LVL46
 13302 07f2 24090000 		.4byte	.LVL47
ARM GAS  C:\Users\jo\AppData\Local\Temp\ccDsJqTW.s 			page 237


 13303 07f6 3A00     		.2byte	0x3a
 13304 07f8 77       		.byte	0x77
 13305 07f9 00       		.sleb128 0
 13306 07fa 91       		.byte	0x91
 13307 07fb E07D     		.sleb128 -288
 13308 07fd 06       		.byte	0x6
 13309 07fe 21       		.byte	0x21
 13310 07ff 7C       		.byte	0x7c
 13311 0800 00       		.sleb128 0
 13312 0801 1A       		.byte	0x1a
 13313 0802 77       		.byte	0x77
 13314 0803 00       		.sleb128 0
 13315 0804 91       		.byte	0x91
 13316 0805 E07D     		.sleb128 -288
 13317 0807 06       		.byte	0x6
 13318 0808 1A       		.byte	0x1a
 13319 0809 21       		.byte	0x21
 13320 080a 77       		.byte	0x77
 13321 080b 00       		.sleb128 0
 13322 080c 3D       		.byte	0x3d
 13323 080d 14       		.byte	0x14
 13324 080e 14       		.byte	0x14
 13325 080f 1F       		.byte	0x1f
 13326 0810 23       		.byte	0x23
 13327 0811 20       		.uleb128 0x20
 13328 0812 24       		.byte	0x24
 13329 0813 17       		.byte	0x17
 13330 0814 25       		.byte	0x25
 13331 0815 21       		.byte	0x21
 13332 0816 77       		.byte	0x77
 13333 0817 00       		.sleb128 0
 13334 0818 32       		.byte	0x32
 13335 0819 14       		.byte	0x14
 13336 081a 14       		.byte	0x14
 13337 081b 1F       		.byte	0x1f
 13338 081c 23       		.byte	0x23
 13339 081d 20       		.uleb128 0x20
 13340 081e 24       		.byte	0x24
 13341 081f 17       		.byte	0x17
 13342 0820 25       		.byte	0x25
 13343 0821 21       		.byte	0x21
 13344 0822 27       		.byte	0x27
 13345 0823 77       		.byte	0x77
 13346 0824 00       		.sleb128 0
 13347 0825 3A       		.byte	0x3a
 13348 0826 14       		.byte	0x14
 13349 0827 14       		.byte	0x14
 13350 0828 24       		.byte	0x24
 13351 0829 17       		.byte	0x17
 13352 082a 1F       		.byte	0x1f
 13353 082b 23       		.byte	0x23
 13354 082c 20       		.uleb128 0x20
 13355 082d 25       		.byte	0x25
 13356 082e 21       		.byte	0x21
 13357 082f 27       		.byte	0x27
 13358 0830 22       		.byte	0x22
 13359 0831 9F       		.byte	0x9f
ARM GAS  C:\Users\jo\AppData\Local\Temp\ccDsJqTW.s 			page 238


 13360 0832 24090000 		.4byte	.LVL47
 13361 0836 26090000 		.4byte	.LVL48
 13362 083a 0100     		.2byte	0x1
 13363 083c 56       		.byte	0x56
 13364 083d 26090000 		.4byte	.LVL48
 13365 0841 92090000 		.4byte	.LVL52
 13366 0845 3A00     		.2byte	0x3a
 13367 0847 77       		.byte	0x77
 13368 0848 00       		.sleb128 0
 13369 0849 91       		.byte	0x91
 13370 084a E07D     		.sleb128 -288
 13371 084c 06       		.byte	0x6
 13372 084d 21       		.byte	0x21
 13373 084e 7C       		.byte	0x7c
 13374 084f 00       		.sleb128 0
 13375 0850 1A       		.byte	0x1a
 13376 0851 77       		.byte	0x77
 13377 0852 00       		.sleb128 0
 13378 0853 91       		.byte	0x91
 13379 0854 E07D     		.sleb128 -288
 13380 0856 06       		.byte	0x6
 13381 0857 1A       		.byte	0x1a
 13382 0858 21       		.byte	0x21
 13383 0859 77       		.byte	0x77
 13384 085a 00       		.sleb128 0
 13385 085b 3D       		.byte	0x3d
 13386 085c 14       		.byte	0x14
 13387 085d 14       		.byte	0x14
 13388 085e 1F       		.byte	0x1f
 13389 085f 23       		.byte	0x23
 13390 0860 20       		.uleb128 0x20
 13391 0861 24       		.byte	0x24
 13392 0862 17       		.byte	0x17
 13393 0863 25       		.byte	0x25
 13394 0864 21       		.byte	0x21
 13395 0865 77       		.byte	0x77
 13396 0866 00       		.sleb128 0
 13397 0867 32       		.byte	0x32
 13398 0868 14       		.byte	0x14
 13399 0869 14       		.byte	0x14
 13400 086a 1F       		.byte	0x1f
 13401 086b 23       		.byte	0x23
 13402 086c 20       		.uleb128 0x20
 13403 086d 24       		.byte	0x24
 13404 086e 17       		.byte	0x17
 13405 086f 25       		.byte	0x25
 13406 0870 21       		.byte	0x21
 13407 0871 27       		.byte	0x27
 13408 0872 77       		.byte	0x77
 13409 0873 00       		.sleb128 0
 13410 0874 3A       		.byte	0x3a
 13411 0875 14       		.byte	0x14
 13412 0876 14       		.byte	0x14
 13413 0877 24       		.byte	0x24
 13414 0878 17       		.byte	0x17
 13415 0879 1F       		.byte	0x1f
 13416 087a 23       		.byte	0x23
ARM GAS  C:\Users\jo\AppData\Local\Temp\ccDsJqTW.s 			page 239


 13417 087b 20       		.uleb128 0x20
 13418 087c 25       		.byte	0x25
 13419 087d 21       		.byte	0x21
 13420 087e 27       		.byte	0x27
 13421 087f 22       		.byte	0x22
 13422 0880 9F       		.byte	0x9f
 13423 0881 92090000 		.4byte	.LVL52
 13424 0885 A8090000 		.4byte	.LVL53
 13425 0889 3800     		.2byte	0x38
 13426 088b 76       		.byte	0x76
 13427 088c 00       		.sleb128 0
 13428 088d 77       		.byte	0x77
 13429 088e 00       		.sleb128 0
 13430 088f 21       		.byte	0x21
 13431 0890 91       		.byte	0x91
 13432 0891 E07D     		.sleb128 -288
 13433 0893 06       		.byte	0x6
 13434 0894 1A       		.byte	0x1a
 13435 0895 76       		.byte	0x76
 13436 0896 00       		.sleb128 0
 13437 0897 77       		.byte	0x77
 13438 0898 00       		.sleb128 0
 13439 0899 1A       		.byte	0x1a
 13440 089a 21       		.byte	0x21
 13441 089b 76       		.byte	0x76
 13442 089c 00       		.sleb128 0
 13443 089d 3D       		.byte	0x3d
 13444 089e 14       		.byte	0x14
 13445 089f 14       		.byte	0x14
 13446 08a0 1F       		.byte	0x1f
 13447 08a1 23       		.byte	0x23
 13448 08a2 20       		.uleb128 0x20
 13449 08a3 24       		.byte	0x24
 13450 08a4 17       		.byte	0x17
 13451 08a5 25       		.byte	0x25
 13452 08a6 21       		.byte	0x21
 13453 08a7 76       		.byte	0x76
 13454 08a8 00       		.sleb128 0
 13455 08a9 32       		.byte	0x32
 13456 08aa 14       		.byte	0x14
 13457 08ab 14       		.byte	0x14
 13458 08ac 1F       		.byte	0x1f
 13459 08ad 23       		.byte	0x23
 13460 08ae 20       		.uleb128 0x20
 13461 08af 24       		.byte	0x24
 13462 08b0 17       		.byte	0x17
 13463 08b1 25       		.byte	0x25
 13464 08b2 21       		.byte	0x21
 13465 08b3 27       		.byte	0x27
 13466 08b4 76       		.byte	0x76
 13467 08b5 00       		.sleb128 0
 13468 08b6 3A       		.byte	0x3a
 13469 08b7 14       		.byte	0x14
 13470 08b8 14       		.byte	0x14
 13471 08b9 24       		.byte	0x24
 13472 08ba 17       		.byte	0x17
 13473 08bb 1F       		.byte	0x1f
ARM GAS  C:\Users\jo\AppData\Local\Temp\ccDsJqTW.s 			page 240


 13474 08bc 23       		.byte	0x23
 13475 08bd 20       		.uleb128 0x20
 13476 08be 25       		.byte	0x25
 13477 08bf 21       		.byte	0x21
 13478 08c0 27       		.byte	0x27
 13479 08c1 22       		.byte	0x22
 13480 08c2 9F       		.byte	0x9f
 13481 08c3 A8090000 		.4byte	.LVL53
 13482 08c7 CA090000 		.4byte	.LVL55
 13483 08cb 0100     		.2byte	0x1
 13484 08cd 55       		.byte	0x55
 13485 08ce CA090000 		.4byte	.LVL55
 13486 08d2 080A0000 		.4byte	.LVL58
 13487 08d6 3800     		.2byte	0x38
 13488 08d8 76       		.byte	0x76
 13489 08d9 00       		.sleb128 0
 13490 08da 77       		.byte	0x77
 13491 08db 00       		.sleb128 0
 13492 08dc 21       		.byte	0x21
 13493 08dd 91       		.byte	0x91
 13494 08de E07D     		.sleb128 -288
 13495 08e0 06       		.byte	0x6
 13496 08e1 1A       		.byte	0x1a
 13497 08e2 76       		.byte	0x76
 13498 08e3 00       		.sleb128 0
 13499 08e4 77       		.byte	0x77
 13500 08e5 00       		.sleb128 0
 13501 08e6 1A       		.byte	0x1a
 13502 08e7 21       		.byte	0x21
 13503 08e8 76       		.byte	0x76
 13504 08e9 00       		.sleb128 0
 13505 08ea 3D       		.byte	0x3d
 13506 08eb 14       		.byte	0x14
 13507 08ec 14       		.byte	0x14
 13508 08ed 1F       		.byte	0x1f
 13509 08ee 23       		.byte	0x23
 13510 08ef 20       		.uleb128 0x20
 13511 08f0 24       		.byte	0x24
 13512 08f1 17       		.byte	0x17
 13513 08f2 25       		.byte	0x25
 13514 08f3 21       		.byte	0x21
 13515 08f4 76       		.byte	0x76
 13516 08f5 00       		.sleb128 0
 13517 08f6 32       		.byte	0x32
 13518 08f7 14       		.byte	0x14
 13519 08f8 14       		.byte	0x14
 13520 08f9 1F       		.byte	0x1f
 13521 08fa 23       		.byte	0x23
 13522 08fb 20       		.uleb128 0x20
 13523 08fc 24       		.byte	0x24
 13524 08fd 17       		.byte	0x17
 13525 08fe 25       		.byte	0x25
 13526 08ff 21       		.byte	0x21
 13527 0900 27       		.byte	0x27
 13528 0901 76       		.byte	0x76
 13529 0902 00       		.sleb128 0
 13530 0903 3A       		.byte	0x3a
ARM GAS  C:\Users\jo\AppData\Local\Temp\ccDsJqTW.s 			page 241


 13531 0904 14       		.byte	0x14
 13532 0905 14       		.byte	0x14
 13533 0906 24       		.byte	0x24
 13534 0907 17       		.byte	0x17
 13535 0908 1F       		.byte	0x1f
 13536 0909 23       		.byte	0x23
 13537 090a 20       		.uleb128 0x20
 13538 090b 25       		.byte	0x25
 13539 090c 21       		.byte	0x21
 13540 090d 27       		.byte	0x27
 13541 090e 22       		.byte	0x22
 13542 090f 9F       		.byte	0x9f
 13543 0910 080A0000 		.4byte	.LVL58
 13544 0914 180A0000 		.4byte	.LVL59
 13545 0918 3600     		.2byte	0x36
 13546 091a 71       		.byte	0x71
 13547 091b 00       		.sleb128 0
 13548 091c 76       		.byte	0x76
 13549 091d 00       		.sleb128 0
 13550 091e 21       		.byte	0x21
 13551 091f 77       		.byte	0x77
 13552 0920 00       		.sleb128 0
 13553 0921 1A       		.byte	0x1a
 13554 0922 71       		.byte	0x71
 13555 0923 00       		.sleb128 0
 13556 0924 76       		.byte	0x76
 13557 0925 00       		.sleb128 0
 13558 0926 1A       		.byte	0x1a
 13559 0927 21       		.byte	0x21
 13560 0928 71       		.byte	0x71
 13561 0929 00       		.sleb128 0
 13562 092a 3D       		.byte	0x3d
 13563 092b 14       		.byte	0x14
 13564 092c 14       		.byte	0x14
 13565 092d 1F       		.byte	0x1f
 13566 092e 23       		.byte	0x23
 13567 092f 20       		.uleb128 0x20
 13568 0930 24       		.byte	0x24
 13569 0931 17       		.byte	0x17
 13570 0932 25       		.byte	0x25
 13571 0933 21       		.byte	0x21
 13572 0934 71       		.byte	0x71
 13573 0935 00       		.sleb128 0
 13574 0936 32       		.byte	0x32
 13575 0937 14       		.byte	0x14
 13576 0938 14       		.byte	0x14
 13577 0939 1F       		.byte	0x1f
 13578 093a 23       		.byte	0x23
 13579 093b 20       		.uleb128 0x20
 13580 093c 24       		.byte	0x24
 13581 093d 17       		.byte	0x17
 13582 093e 25       		.byte	0x25
 13583 093f 21       		.byte	0x21
 13584 0940 27       		.byte	0x27
 13585 0941 71       		.byte	0x71
 13586 0942 00       		.sleb128 0
 13587 0943 3A       		.byte	0x3a
ARM GAS  C:\Users\jo\AppData\Local\Temp\ccDsJqTW.s 			page 242


 13588 0944 14       		.byte	0x14
 13589 0945 14       		.byte	0x14
 13590 0946 24       		.byte	0x24
 13591 0947 17       		.byte	0x17
 13592 0948 1F       		.byte	0x1f
 13593 0949 23       		.byte	0x23
 13594 094a 20       		.uleb128 0x20
 13595 094b 25       		.byte	0x25
 13596 094c 21       		.byte	0x21
 13597 094d 27       		.byte	0x27
 13598 094e 22       		.byte	0x22
 13599 094f 9F       		.byte	0x9f
 13600 0950 180A0000 		.4byte	.LVL59
 13601 0954 2E0A0000 		.4byte	.LVL60
 13602 0958 0100     		.2byte	0x1
 13603 095a 53       		.byte	0x53
 13604 095b 2E0A0000 		.4byte	.LVL60
 13605 095f 420A0000 		.4byte	.LVL65
 13606 0963 3600     		.2byte	0x36
 13607 0965 75       		.byte	0x75
 13608 0966 00       		.sleb128 0
 13609 0967 76       		.byte	0x76
 13610 0968 00       		.sleb128 0
 13611 0969 21       		.byte	0x21
 13612 096a 77       		.byte	0x77
 13613 096b 00       		.sleb128 0
 13614 096c 1A       		.byte	0x1a
 13615 096d 75       		.byte	0x75
 13616 096e 00       		.sleb128 0
 13617 096f 76       		.byte	0x76
 13618 0970 00       		.sleb128 0
 13619 0971 1A       		.byte	0x1a
 13620 0972 21       		.byte	0x21
 13621 0973 75       		.byte	0x75
 13622 0974 00       		.sleb128 0
 13623 0975 3D       		.byte	0x3d
 13624 0976 14       		.byte	0x14
 13625 0977 14       		.byte	0x14
 13626 0978 1F       		.byte	0x1f
 13627 0979 23       		.byte	0x23
 13628 097a 20       		.uleb128 0x20
 13629 097b 24       		.byte	0x24
 13630 097c 17       		.byte	0x17
 13631 097d 25       		.byte	0x25
 13632 097e 21       		.byte	0x21
 13633 097f 75       		.byte	0x75
 13634 0980 00       		.sleb128 0
 13635 0981 32       		.byte	0x32
 13636 0982 14       		.byte	0x14
 13637 0983 14       		.byte	0x14
 13638 0984 1F       		.byte	0x1f
 13639 0985 23       		.byte	0x23
 13640 0986 20       		.uleb128 0x20
 13641 0987 24       		.byte	0x24
 13642 0988 17       		.byte	0x17
 13643 0989 25       		.byte	0x25
 13644 098a 21       		.byte	0x21
ARM GAS  C:\Users\jo\AppData\Local\Temp\ccDsJqTW.s 			page 243


 13645 098b 27       		.byte	0x27
 13646 098c 75       		.byte	0x75
 13647 098d 00       		.sleb128 0
 13648 098e 3A       		.byte	0x3a
 13649 098f 14       		.byte	0x14
 13650 0990 14       		.byte	0x14
 13651 0991 24       		.byte	0x24
 13652 0992 17       		.byte	0x17
 13653 0993 1F       		.byte	0x1f
 13654 0994 23       		.byte	0x23
 13655 0995 20       		.uleb128 0x20
 13656 0996 25       		.byte	0x25
 13657 0997 21       		.byte	0x21
 13658 0998 27       		.byte	0x27
 13659 0999 22       		.byte	0x22
 13660 099a 9F       		.byte	0x9f
 13661 099b 420A0000 		.4byte	.LVL65
 13662 099f 620A0000 		.4byte	.LVL66
 13663 09a3 4000     		.2byte	0x40
 13664 09a5 91       		.byte	0x91
 13665 09a6 DC7D     		.sleb128 -292
 13666 09a8 06       		.byte	0x6
 13667 09a9 76       		.byte	0x76
 13668 09aa 00       		.sleb128 0
 13669 09ab 21       		.byte	0x21
 13670 09ac 77       		.byte	0x77
 13671 09ad 00       		.sleb128 0
 13672 09ae 1A       		.byte	0x1a
 13673 09af 91       		.byte	0x91
 13674 09b0 DC7D     		.sleb128 -292
 13675 09b2 06       		.byte	0x6
 13676 09b3 76       		.byte	0x76
 13677 09b4 00       		.sleb128 0
 13678 09b5 1A       		.byte	0x1a
 13679 09b6 21       		.byte	0x21
 13680 09b7 91       		.byte	0x91
 13681 09b8 DC7D     		.sleb128 -292
 13682 09ba 06       		.byte	0x6
 13683 09bb 3D       		.byte	0x3d
 13684 09bc 14       		.byte	0x14
 13685 09bd 14       		.byte	0x14
 13686 09be 1F       		.byte	0x1f
 13687 09bf 23       		.byte	0x23
 13688 09c0 20       		.uleb128 0x20
 13689 09c1 24       		.byte	0x24
 13690 09c2 17       		.byte	0x17
 13691 09c3 25       		.byte	0x25
 13692 09c4 21       		.byte	0x21
 13693 09c5 91       		.byte	0x91
 13694 09c6 DC7D     		.sleb128 -292
 13695 09c8 06       		.byte	0x6
 13696 09c9 32       		.byte	0x32
 13697 09ca 14       		.byte	0x14
 13698 09cb 14       		.byte	0x14
 13699 09cc 1F       		.byte	0x1f
 13700 09cd 23       		.byte	0x23
 13701 09ce 20       		.uleb128 0x20
ARM GAS  C:\Users\jo\AppData\Local\Temp\ccDsJqTW.s 			page 244


 13702 09cf 24       		.byte	0x24
 13703 09d0 17       		.byte	0x17
 13704 09d1 25       		.byte	0x25
 13705 09d2 21       		.byte	0x21
 13706 09d3 27       		.byte	0x27
 13707 09d4 91       		.byte	0x91
 13708 09d5 DC7D     		.sleb128 -292
 13709 09d7 06       		.byte	0x6
 13710 09d8 3A       		.byte	0x3a
 13711 09d9 14       		.byte	0x14
 13712 09da 14       		.byte	0x14
 13713 09db 24       		.byte	0x24
 13714 09dc 17       		.byte	0x17
 13715 09dd 1F       		.byte	0x1f
 13716 09de 23       		.byte	0x23
 13717 09df 20       		.uleb128 0x20
 13718 09e0 25       		.byte	0x25
 13719 09e1 21       		.byte	0x21
 13720 09e2 27       		.byte	0x27
 13721 09e3 22       		.byte	0x22
 13722 09e4 9F       		.byte	0x9f
 13723 09e5 620A0000 		.4byte	.LVL66
 13724 09e9 8A0A0000 		.4byte	.LVL67
 13725 09ed 3A00     		.2byte	0x3a
 13726 09ef 73       		.byte	0x73
 13727 09f0 00       		.sleb128 0
 13728 09f1 91       		.byte	0x91
 13729 09f2 DC7D     		.sleb128 -292
 13730 09f4 06       		.byte	0x6
 13731 09f5 21       		.byte	0x21
 13732 09f6 76       		.byte	0x76
 13733 09f7 00       		.sleb128 0
 13734 09f8 1A       		.byte	0x1a
 13735 09f9 73       		.byte	0x73
 13736 09fa 00       		.sleb128 0
 13737 09fb 91       		.byte	0x91
 13738 09fc DC7D     		.sleb128 -292
 13739 09fe 06       		.byte	0x6
 13740 09ff 1A       		.byte	0x1a
 13741 0a00 21       		.byte	0x21
 13742 0a01 73       		.byte	0x73
 13743 0a02 00       		.sleb128 0
 13744 0a03 3D       		.byte	0x3d
 13745 0a04 14       		.byte	0x14
 13746 0a05 14       		.byte	0x14
 13747 0a06 1F       		.byte	0x1f
 13748 0a07 23       		.byte	0x23
 13749 0a08 20       		.uleb128 0x20
 13750 0a09 24       		.byte	0x24
 13751 0a0a 17       		.byte	0x17
 13752 0a0b 25       		.byte	0x25
 13753 0a0c 21       		.byte	0x21
 13754 0a0d 73       		.byte	0x73
 13755 0a0e 00       		.sleb128 0
 13756 0a0f 32       		.byte	0x32
 13757 0a10 14       		.byte	0x14
 13758 0a11 14       		.byte	0x14
ARM GAS  C:\Users\jo\AppData\Local\Temp\ccDsJqTW.s 			page 245


 13759 0a12 1F       		.byte	0x1f
 13760 0a13 23       		.byte	0x23
 13761 0a14 20       		.uleb128 0x20
 13762 0a15 24       		.byte	0x24
 13763 0a16 17       		.byte	0x17
 13764 0a17 25       		.byte	0x25
 13765 0a18 21       		.byte	0x21
 13766 0a19 27       		.byte	0x27
 13767 0a1a 73       		.byte	0x73
 13768 0a1b 00       		.sleb128 0
 13769 0a1c 3A       		.byte	0x3a
 13770 0a1d 14       		.byte	0x14
 13771 0a1e 14       		.byte	0x14
 13772 0a1f 24       		.byte	0x24
 13773 0a20 17       		.byte	0x17
 13774 0a21 1F       		.byte	0x1f
 13775 0a22 23       		.byte	0x23
 13776 0a23 20       		.uleb128 0x20
 13777 0a24 25       		.byte	0x25
 13778 0a25 21       		.byte	0x21
 13779 0a26 27       		.byte	0x27
 13780 0a27 22       		.byte	0x22
 13781 0a28 9F       		.byte	0x9f
 13782 0a29 8A0A0000 		.4byte	.LVL67
 13783 0a2d A40A0000 		.4byte	.LVL70
 13784 0a31 0100     		.2byte	0x1
 13785 0a33 5A       		.byte	0x5a
 13786 0a34 A40A0000 		.4byte	.LVL70
 13787 0a38 FC0A0000 		.4byte	.LVL72
 13788 0a3c 3A00     		.2byte	0x3a
 13789 0a3e 73       		.byte	0x73
 13790 0a3f 00       		.sleb128 0
 13791 0a40 91       		.byte	0x91
 13792 0a41 DC7D     		.sleb128 -292
 13793 0a43 06       		.byte	0x6
 13794 0a44 21       		.byte	0x21
 13795 0a45 76       		.byte	0x76
 13796 0a46 00       		.sleb128 0
 13797 0a47 1A       		.byte	0x1a
 13798 0a48 73       		.byte	0x73
 13799 0a49 00       		.sleb128 0
 13800 0a4a 91       		.byte	0x91
 13801 0a4b DC7D     		.sleb128 -292
 13802 0a4d 06       		.byte	0x6
 13803 0a4e 1A       		.byte	0x1a
 13804 0a4f 21       		.byte	0x21
 13805 0a50 73       		.byte	0x73
 13806 0a51 00       		.sleb128 0
 13807 0a52 3D       		.byte	0x3d
 13808 0a53 14       		.byte	0x14
 13809 0a54 14       		.byte	0x14
 13810 0a55 1F       		.byte	0x1f
 13811 0a56 23       		.byte	0x23
 13812 0a57 20       		.uleb128 0x20
 13813 0a58 24       		.byte	0x24
 13814 0a59 17       		.byte	0x17
 13815 0a5a 25       		.byte	0x25
ARM GAS  C:\Users\jo\AppData\Local\Temp\ccDsJqTW.s 			page 246


 13816 0a5b 21       		.byte	0x21
 13817 0a5c 73       		.byte	0x73
 13818 0a5d 00       		.sleb128 0
 13819 0a5e 32       		.byte	0x32
 13820 0a5f 14       		.byte	0x14
 13821 0a60 14       		.byte	0x14
 13822 0a61 1F       		.byte	0x1f
 13823 0a62 23       		.byte	0x23
 13824 0a63 20       		.uleb128 0x20
 13825 0a64 24       		.byte	0x24
 13826 0a65 17       		.byte	0x17
 13827 0a66 25       		.byte	0x25
 13828 0a67 21       		.byte	0x21
 13829 0a68 27       		.byte	0x27
 13830 0a69 73       		.byte	0x73
 13831 0a6a 00       		.sleb128 0
 13832 0a6b 3A       		.byte	0x3a
 13833 0a6c 14       		.byte	0x14
 13834 0a6d 14       		.byte	0x14
 13835 0a6e 24       		.byte	0x24
 13836 0a6f 17       		.byte	0x17
 13837 0a70 1F       		.byte	0x1f
 13838 0a71 23       		.byte	0x23
 13839 0a72 20       		.uleb128 0x20
 13840 0a73 25       		.byte	0x25
 13841 0a74 21       		.byte	0x21
 13842 0a75 27       		.byte	0x27
 13843 0a76 22       		.byte	0x22
 13844 0a77 9F       		.byte	0x9f
 13845 0a78 FC0A0000 		.4byte	.LVL72
 13846 0a7c 0A0B0000 		.4byte	.LVL73
 13847 0a80 3800     		.2byte	0x38
 13848 0a82 70       		.byte	0x70
 13849 0a83 00       		.sleb128 0
 13850 0a84 73       		.byte	0x73
 13851 0a85 00       		.sleb128 0
 13852 0a86 21       		.byte	0x21
 13853 0a87 91       		.byte	0x91
 13854 0a88 DC7D     		.sleb128 -292
 13855 0a8a 06       		.byte	0x6
 13856 0a8b 1A       		.byte	0x1a
 13857 0a8c 70       		.byte	0x70
 13858 0a8d 00       		.sleb128 0
 13859 0a8e 73       		.byte	0x73
 13860 0a8f 00       		.sleb128 0
 13861 0a90 1A       		.byte	0x1a
 13862 0a91 21       		.byte	0x21
 13863 0a92 70       		.byte	0x70
 13864 0a93 00       		.sleb128 0
 13865 0a94 3D       		.byte	0x3d
 13866 0a95 14       		.byte	0x14
 13867 0a96 14       		.byte	0x14
 13868 0a97 1F       		.byte	0x1f
 13869 0a98 23       		.byte	0x23
 13870 0a99 20       		.uleb128 0x20
 13871 0a9a 24       		.byte	0x24
 13872 0a9b 17       		.byte	0x17
ARM GAS  C:\Users\jo\AppData\Local\Temp\ccDsJqTW.s 			page 247


 13873 0a9c 25       		.byte	0x25
 13874 0a9d 21       		.byte	0x21
 13875 0a9e 70       		.byte	0x70
 13876 0a9f 00       		.sleb128 0
 13877 0aa0 32       		.byte	0x32
 13878 0aa1 14       		.byte	0x14
 13879 0aa2 14       		.byte	0x14
 13880 0aa3 1F       		.byte	0x1f
 13881 0aa4 23       		.byte	0x23
 13882 0aa5 20       		.uleb128 0x20
 13883 0aa6 24       		.byte	0x24
 13884 0aa7 17       		.byte	0x17
 13885 0aa8 25       		.byte	0x25
 13886 0aa9 21       		.byte	0x21
 13887 0aaa 27       		.byte	0x27
 13888 0aab 70       		.byte	0x70
 13889 0aac 00       		.sleb128 0
 13890 0aad 3A       		.byte	0x3a
 13891 0aae 14       		.byte	0x14
 13892 0aaf 14       		.byte	0x14
 13893 0ab0 24       		.byte	0x24
 13894 0ab1 17       		.byte	0x17
 13895 0ab2 1F       		.byte	0x1f
 13896 0ab3 23       		.byte	0x23
 13897 0ab4 20       		.uleb128 0x20
 13898 0ab5 25       		.byte	0x25
 13899 0ab6 21       		.byte	0x21
 13900 0ab7 27       		.byte	0x27
 13901 0ab8 22       		.byte	0x22
 13902 0ab9 9F       		.byte	0x9f
 13903 0aba 0A0B0000 		.4byte	.LVL73
 13904 0abe 1C0B0000 		.4byte	.LVL77
 13905 0ac2 0100     		.2byte	0x1
 13906 0ac4 54       		.byte	0x54
 13907 0ac5 1C0B0000 		.4byte	.LVL77
 13908 0ac9 700B0000 		.4byte	.LVL79
 13909 0acd 3800     		.2byte	0x38
 13910 0acf 70       		.byte	0x70
 13911 0ad0 00       		.sleb128 0
 13912 0ad1 73       		.byte	0x73
 13913 0ad2 00       		.sleb128 0
 13914 0ad3 21       		.byte	0x21
 13915 0ad4 91       		.byte	0x91
 13916 0ad5 DC7D     		.sleb128 -292
 13917 0ad7 06       		.byte	0x6
 13918 0ad8 1A       		.byte	0x1a
 13919 0ad9 70       		.byte	0x70
 13920 0ada 00       		.sleb128 0
 13921 0adb 73       		.byte	0x73
 13922 0adc 00       		.sleb128 0
 13923 0add 1A       		.byte	0x1a
 13924 0ade 21       		.byte	0x21
 13925 0adf 70       		.byte	0x70
 13926 0ae0 00       		.sleb128 0
 13927 0ae1 3D       		.byte	0x3d
 13928 0ae2 14       		.byte	0x14
 13929 0ae3 14       		.byte	0x14
ARM GAS  C:\Users\jo\AppData\Local\Temp\ccDsJqTW.s 			page 248


 13930 0ae4 1F       		.byte	0x1f
 13931 0ae5 23       		.byte	0x23
 13932 0ae6 20       		.uleb128 0x20
 13933 0ae7 24       		.byte	0x24
 13934 0ae8 17       		.byte	0x17
 13935 0ae9 25       		.byte	0x25
 13936 0aea 21       		.byte	0x21
 13937 0aeb 70       		.byte	0x70
 13938 0aec 00       		.sleb128 0
 13939 0aed 32       		.byte	0x32
 13940 0aee 14       		.byte	0x14
 13941 0aef 14       		.byte	0x14
 13942 0af0 1F       		.byte	0x1f
 13943 0af1 23       		.byte	0x23
 13944 0af2 20       		.uleb128 0x20
 13945 0af3 24       		.byte	0x24
 13946 0af4 17       		.byte	0x17
 13947 0af5 25       		.byte	0x25
 13948 0af6 21       		.byte	0x21
 13949 0af7 27       		.byte	0x27
 13950 0af8 70       		.byte	0x70
 13951 0af9 00       		.sleb128 0
 13952 0afa 3A       		.byte	0x3a
 13953 0afb 14       		.byte	0x14
 13954 0afc 14       		.byte	0x14
 13955 0afd 24       		.byte	0x24
 13956 0afe 17       		.byte	0x17
 13957 0aff 1F       		.byte	0x1f
 13958 0b00 23       		.byte	0x23
 13959 0b01 20       		.uleb128 0x20
 13960 0b02 25       		.byte	0x25
 13961 0b03 21       		.byte	0x21
 13962 0b04 27       		.byte	0x27
 13963 0b05 22       		.byte	0x22
 13964 0b06 9F       		.byte	0x9f
 13965 0b07 700B0000 		.4byte	.LVL79
 13966 0b0b 720B0000 		.4byte	.LVL80
 13967 0b0f 3600     		.2byte	0x36
 13968 0b11 74       		.byte	0x74
 13969 0b12 00       		.sleb128 0
 13970 0b13 70       		.byte	0x70
 13971 0b14 00       		.sleb128 0
 13972 0b15 21       		.byte	0x21
 13973 0b16 73       		.byte	0x73
 13974 0b17 00       		.sleb128 0
 13975 0b18 1A       		.byte	0x1a
 13976 0b19 74       		.byte	0x74
 13977 0b1a 00       		.sleb128 0
 13978 0b1b 70       		.byte	0x70
 13979 0b1c 00       		.sleb128 0
 13980 0b1d 1A       		.byte	0x1a
 13981 0b1e 21       		.byte	0x21
 13982 0b1f 74       		.byte	0x74
 13983 0b20 00       		.sleb128 0
 13984 0b21 3D       		.byte	0x3d
 13985 0b22 14       		.byte	0x14
 13986 0b23 14       		.byte	0x14
ARM GAS  C:\Users\jo\AppData\Local\Temp\ccDsJqTW.s 			page 249


 13987 0b24 1F       		.byte	0x1f
 13988 0b25 23       		.byte	0x23
 13989 0b26 20       		.uleb128 0x20
 13990 0b27 24       		.byte	0x24
 13991 0b28 17       		.byte	0x17
 13992 0b29 25       		.byte	0x25
 13993 0b2a 21       		.byte	0x21
 13994 0b2b 74       		.byte	0x74
 13995 0b2c 00       		.sleb128 0
 13996 0b2d 32       		.byte	0x32
 13997 0b2e 14       		.byte	0x14
 13998 0b2f 14       		.byte	0x14
 13999 0b30 1F       		.byte	0x1f
 14000 0b31 23       		.byte	0x23
 14001 0b32 20       		.uleb128 0x20
 14002 0b33 24       		.byte	0x24
 14003 0b34 17       		.byte	0x17
 14004 0b35 25       		.byte	0x25
 14005 0b36 21       		.byte	0x21
 14006 0b37 27       		.byte	0x27
 14007 0b38 74       		.byte	0x74
 14008 0b39 00       		.sleb128 0
 14009 0b3a 3A       		.byte	0x3a
 14010 0b3b 14       		.byte	0x14
 14011 0b3c 14       		.byte	0x14
 14012 0b3d 24       		.byte	0x24
 14013 0b3e 17       		.byte	0x17
 14014 0b3f 1F       		.byte	0x1f
 14015 0b40 23       		.byte	0x23
 14016 0b41 20       		.uleb128 0x20
 14017 0b42 25       		.byte	0x25
 14018 0b43 21       		.byte	0x21
 14019 0b44 27       		.byte	0x27
 14020 0b45 22       		.byte	0x22
 14021 0b46 9F       		.byte	0x9f
 14022 0b47 720B0000 		.4byte	.LVL80
 14023 0b4b 900B0000 		.4byte	.LVL83
 14024 0b4f 0100     		.2byte	0x1
 14025 0b51 5A       		.byte	0x5a
 14026 0b52 900B0000 		.4byte	.LVL83
 14027 0b56 E80B0000 		.4byte	.LVL85
 14028 0b5a 4000     		.2byte	0x40
 14029 0b5c 91       		.byte	0x91
 14030 0b5d 887E     		.sleb128 -248
 14031 0b5f 06       		.byte	0x6
 14032 0b60 70       		.byte	0x70
 14033 0b61 00       		.sleb128 0
 14034 0b62 21       		.byte	0x21
 14035 0b63 73       		.byte	0x73
 14036 0b64 00       		.sleb128 0
 14037 0b65 1A       		.byte	0x1a
 14038 0b66 91       		.byte	0x91
 14039 0b67 887E     		.sleb128 -248
 14040 0b69 06       		.byte	0x6
 14041 0b6a 70       		.byte	0x70
 14042 0b6b 00       		.sleb128 0
 14043 0b6c 1A       		.byte	0x1a
ARM GAS  C:\Users\jo\AppData\Local\Temp\ccDsJqTW.s 			page 250


 14044 0b6d 21       		.byte	0x21
 14045 0b6e 91       		.byte	0x91
 14046 0b6f 887E     		.sleb128 -248
 14047 0b71 06       		.byte	0x6
 14048 0b72 3D       		.byte	0x3d
 14049 0b73 14       		.byte	0x14
 14050 0b74 14       		.byte	0x14
 14051 0b75 1F       		.byte	0x1f
 14052 0b76 23       		.byte	0x23
 14053 0b77 20       		.uleb128 0x20
 14054 0b78 24       		.byte	0x24
 14055 0b79 17       		.byte	0x17
 14056 0b7a 25       		.byte	0x25
 14057 0b7b 21       		.byte	0x21
 14058 0b7c 91       		.byte	0x91
 14059 0b7d 887E     		.sleb128 -248
 14060 0b7f 06       		.byte	0x6
 14061 0b80 32       		.byte	0x32
 14062 0b81 14       		.byte	0x14
 14063 0b82 14       		.byte	0x14
 14064 0b83 1F       		.byte	0x1f
 14065 0b84 23       		.byte	0x23
 14066 0b85 20       		.uleb128 0x20
 14067 0b86 24       		.byte	0x24
 14068 0b87 17       		.byte	0x17
 14069 0b88 25       		.byte	0x25
 14070 0b89 21       		.byte	0x21
 14071 0b8a 27       		.byte	0x27
 14072 0b8b 91       		.byte	0x91
 14073 0b8c 887E     		.sleb128 -248
 14074 0b8e 06       		.byte	0x6
 14075 0b8f 3A       		.byte	0x3a
 14076 0b90 14       		.byte	0x14
 14077 0b91 14       		.byte	0x14
 14078 0b92 24       		.byte	0x24
 14079 0b93 17       		.byte	0x17
 14080 0b94 1F       		.byte	0x1f
 14081 0b95 23       		.byte	0x23
 14082 0b96 20       		.uleb128 0x20
 14083 0b97 25       		.byte	0x25
 14084 0b98 21       		.byte	0x21
 14085 0b99 27       		.byte	0x27
 14086 0b9a 22       		.byte	0x22
 14087 0b9b 9F       		.byte	0x9f
 14088 0b9c 5C0C0000 		.4byte	.LVL89
 14089 0ba0 720C0000 		.4byte	.LVL91
 14090 0ba4 3800     		.2byte	0x38
 14091 0ba6 71       		.byte	0x71
 14092 0ba7 00       		.sleb128 0
 14093 0ba8 7C       		.byte	0x7c
 14094 0ba9 00       		.sleb128 0
 14095 0baa 21       		.byte	0x21
 14096 0bab 91       		.byte	0x91
 14097 0bac 887E     		.sleb128 -248
 14098 0bae 06       		.byte	0x6
 14099 0baf 1A       		.byte	0x1a
 14100 0bb0 71       		.byte	0x71
ARM GAS  C:\Users\jo\AppData\Local\Temp\ccDsJqTW.s 			page 251


 14101 0bb1 00       		.sleb128 0
 14102 0bb2 7C       		.byte	0x7c
 14103 0bb3 00       		.sleb128 0
 14104 0bb4 1A       		.byte	0x1a
 14105 0bb5 21       		.byte	0x21
 14106 0bb6 71       		.byte	0x71
 14107 0bb7 00       		.sleb128 0
 14108 0bb8 3D       		.byte	0x3d
 14109 0bb9 14       		.byte	0x14
 14110 0bba 14       		.byte	0x14
 14111 0bbb 1F       		.byte	0x1f
 14112 0bbc 23       		.byte	0x23
 14113 0bbd 20       		.uleb128 0x20
 14114 0bbe 24       		.byte	0x24
 14115 0bbf 17       		.byte	0x17
 14116 0bc0 25       		.byte	0x25
 14117 0bc1 21       		.byte	0x21
 14118 0bc2 71       		.byte	0x71
 14119 0bc3 00       		.sleb128 0
 14120 0bc4 32       		.byte	0x32
 14121 0bc5 14       		.byte	0x14
 14122 0bc6 14       		.byte	0x14
 14123 0bc7 1F       		.byte	0x1f
 14124 0bc8 23       		.byte	0x23
 14125 0bc9 20       		.uleb128 0x20
 14126 0bca 24       		.byte	0x24
 14127 0bcb 17       		.byte	0x17
 14128 0bcc 25       		.byte	0x25
 14129 0bcd 21       		.byte	0x21
 14130 0bce 27       		.byte	0x27
 14131 0bcf 71       		.byte	0x71
 14132 0bd0 00       		.sleb128 0
 14133 0bd1 3A       		.byte	0x3a
 14134 0bd2 14       		.byte	0x14
 14135 0bd3 14       		.byte	0x14
 14136 0bd4 24       		.byte	0x24
 14137 0bd5 17       		.byte	0x17
 14138 0bd6 1F       		.byte	0x1f
 14139 0bd7 23       		.byte	0x23
 14140 0bd8 20       		.uleb128 0x20
 14141 0bd9 25       		.byte	0x25
 14142 0bda 21       		.byte	0x21
 14143 0bdb 27       		.byte	0x27
 14144 0bdc 22       		.byte	0x22
 14145 0bdd 9F       		.byte	0x9f
 14146 0bde 720C0000 		.4byte	.LVL91
 14147 0be2 880C0000 		.4byte	.LVL92
 14148 0be6 0100     		.2byte	0x1
 14149 0be8 52       		.byte	0x52
 14150 0be9 880C0000 		.4byte	.LVL92
 14151 0bed D00C0000 		.4byte	.LVL95
 14152 0bf1 3800     		.2byte	0x38
 14153 0bf3 71       		.byte	0x71
 14154 0bf4 00       		.sleb128 0
 14155 0bf5 7C       		.byte	0x7c
 14156 0bf6 00       		.sleb128 0
 14157 0bf7 21       		.byte	0x21
ARM GAS  C:\Users\jo\AppData\Local\Temp\ccDsJqTW.s 			page 252


 14158 0bf8 91       		.byte	0x91
 14159 0bf9 887E     		.sleb128 -248
 14160 0bfb 06       		.byte	0x6
 14161 0bfc 1A       		.byte	0x1a
 14162 0bfd 71       		.byte	0x71
 14163 0bfe 00       		.sleb128 0
 14164 0bff 7C       		.byte	0x7c
 14165 0c00 00       		.sleb128 0
 14166 0c01 1A       		.byte	0x1a
 14167 0c02 21       		.byte	0x21
 14168 0c03 71       		.byte	0x71
 14169 0c04 00       		.sleb128 0
 14170 0c05 3D       		.byte	0x3d
 14171 0c06 14       		.byte	0x14
 14172 0c07 14       		.byte	0x14
 14173 0c08 1F       		.byte	0x1f
 14174 0c09 23       		.byte	0x23
 14175 0c0a 20       		.uleb128 0x20
 14176 0c0b 24       		.byte	0x24
 14177 0c0c 17       		.byte	0x17
 14178 0c0d 25       		.byte	0x25
 14179 0c0e 21       		.byte	0x21
 14180 0c0f 71       		.byte	0x71
 14181 0c10 00       		.sleb128 0
 14182 0c11 32       		.byte	0x32
 14183 0c12 14       		.byte	0x14
 14184 0c13 14       		.byte	0x14
 14185 0c14 1F       		.byte	0x1f
 14186 0c15 23       		.byte	0x23
 14187 0c16 20       		.uleb128 0x20
 14188 0c17 24       		.byte	0x24
 14189 0c18 17       		.byte	0x17
 14190 0c19 25       		.byte	0x25
 14191 0c1a 21       		.byte	0x21
 14192 0c1b 27       		.byte	0x27
 14193 0c1c 71       		.byte	0x71
 14194 0c1d 00       		.sleb128 0
 14195 0c1e 3A       		.byte	0x3a
 14196 0c1f 14       		.byte	0x14
 14197 0c20 14       		.byte	0x14
 14198 0c21 24       		.byte	0x24
 14199 0c22 17       		.byte	0x17
 14200 0c23 1F       		.byte	0x1f
 14201 0c24 23       		.byte	0x23
 14202 0c25 20       		.uleb128 0x20
 14203 0c26 25       		.byte	0x25
 14204 0c27 21       		.byte	0x21
 14205 0c28 27       		.byte	0x27
 14206 0c29 22       		.byte	0x22
 14207 0c2a 9F       		.byte	0x9f
 14208 0c2b D00C0000 		.4byte	.LVL95
 14209 0c2f E00C0000 		.4byte	.LVL96
 14210 0c33 3600     		.2byte	0x36
 14211 0c35 72       		.byte	0x72
 14212 0c36 00       		.sleb128 0
 14213 0c37 71       		.byte	0x71
 14214 0c38 00       		.sleb128 0
ARM GAS  C:\Users\jo\AppData\Local\Temp\ccDsJqTW.s 			page 253


 14215 0c39 21       		.byte	0x21
 14216 0c3a 7C       		.byte	0x7c
 14217 0c3b 00       		.sleb128 0
 14218 0c3c 1A       		.byte	0x1a
 14219 0c3d 72       		.byte	0x72
 14220 0c3e 00       		.sleb128 0
 14221 0c3f 71       		.byte	0x71
 14222 0c40 00       		.sleb128 0
 14223 0c41 1A       		.byte	0x1a
 14224 0c42 21       		.byte	0x21
 14225 0c43 72       		.byte	0x72
 14226 0c44 00       		.sleb128 0
 14227 0c45 3D       		.byte	0x3d
 14228 0c46 14       		.byte	0x14
 14229 0c47 14       		.byte	0x14
 14230 0c48 1F       		.byte	0x1f
 14231 0c49 23       		.byte	0x23
 14232 0c4a 20       		.uleb128 0x20
 14233 0c4b 24       		.byte	0x24
 14234 0c4c 17       		.byte	0x17
 14235 0c4d 25       		.byte	0x25
 14236 0c4e 21       		.byte	0x21
 14237 0c4f 72       		.byte	0x72
 14238 0c50 00       		.sleb128 0
 14239 0c51 32       		.byte	0x32
 14240 0c52 14       		.byte	0x14
 14241 0c53 14       		.byte	0x14
 14242 0c54 1F       		.byte	0x1f
 14243 0c55 23       		.byte	0x23
 14244 0c56 20       		.uleb128 0x20
 14245 0c57 24       		.byte	0x24
 14246 0c58 17       		.byte	0x17
 14247 0c59 25       		.byte	0x25
 14248 0c5a 21       		.byte	0x21
 14249 0c5b 27       		.byte	0x27
 14250 0c5c 72       		.byte	0x72
 14251 0c5d 00       		.sleb128 0
 14252 0c5e 3A       		.byte	0x3a
 14253 0c5f 14       		.byte	0x14
 14254 0c60 14       		.byte	0x14
 14255 0c61 24       		.byte	0x24
 14256 0c62 17       		.byte	0x17
 14257 0c63 1F       		.byte	0x1f
 14258 0c64 23       		.byte	0x23
 14259 0c65 20       		.uleb128 0x20
 14260 0c66 25       		.byte	0x25
 14261 0c67 21       		.byte	0x21
 14262 0c68 27       		.byte	0x27
 14263 0c69 22       		.byte	0x22
 14264 0c6a 9F       		.byte	0x9f
 14265 0c6b E00C0000 		.4byte	.LVL96
 14266 0c6f E20C0000 		.4byte	.LVL97
 14267 0c73 0100     		.2byte	0x1
 14268 0c75 5E       		.byte	0x5e
 14269 0c76 E20C0000 		.4byte	.LVL97
 14270 0c7a 6E0D0000 		.4byte	.LVL102
 14271 0c7e 3600     		.2byte	0x36
ARM GAS  C:\Users\jo\AppData\Local\Temp\ccDsJqTW.s 			page 254


 14272 0c80 72       		.byte	0x72
 14273 0c81 00       		.sleb128 0
 14274 0c82 71       		.byte	0x71
 14275 0c83 00       		.sleb128 0
 14276 0c84 21       		.byte	0x21
 14277 0c85 7C       		.byte	0x7c
 14278 0c86 00       		.sleb128 0
 14279 0c87 1A       		.byte	0x1a
 14280 0c88 72       		.byte	0x72
 14281 0c89 00       		.sleb128 0
 14282 0c8a 71       		.byte	0x71
 14283 0c8b 00       		.sleb128 0
 14284 0c8c 1A       		.byte	0x1a
 14285 0c8d 21       		.byte	0x21
 14286 0c8e 72       		.byte	0x72
 14287 0c8f 00       		.sleb128 0
 14288 0c90 3D       		.byte	0x3d
 14289 0c91 14       		.byte	0x14
 14290 0c92 14       		.byte	0x14
 14291 0c93 1F       		.byte	0x1f
 14292 0c94 23       		.byte	0x23
 14293 0c95 20       		.uleb128 0x20
 14294 0c96 24       		.byte	0x24
 14295 0c97 17       		.byte	0x17
 14296 0c98 25       		.byte	0x25
 14297 0c99 21       		.byte	0x21
 14298 0c9a 72       		.byte	0x72
 14299 0c9b 00       		.sleb128 0
 14300 0c9c 32       		.byte	0x32
 14301 0c9d 14       		.byte	0x14
 14302 0c9e 14       		.byte	0x14
 14303 0c9f 1F       		.byte	0x1f
 14304 0ca0 23       		.byte	0x23
 14305 0ca1 20       		.uleb128 0x20
 14306 0ca2 24       		.byte	0x24
 14307 0ca3 17       		.byte	0x17
 14308 0ca4 25       		.byte	0x25
 14309 0ca5 21       		.byte	0x21
 14310 0ca6 27       		.byte	0x27
 14311 0ca7 72       		.byte	0x72
 14312 0ca8 00       		.sleb128 0
 14313 0ca9 3A       		.byte	0x3a
 14314 0caa 14       		.byte	0x14
 14315 0cab 14       		.byte	0x14
 14316 0cac 24       		.byte	0x24
 14317 0cad 17       		.byte	0x17
 14318 0cae 1F       		.byte	0x1f
 14319 0caf 23       		.byte	0x23
 14320 0cb0 20       		.uleb128 0x20
 14321 0cb1 25       		.byte	0x25
 14322 0cb2 21       		.byte	0x21
 14323 0cb3 27       		.byte	0x27
 14324 0cb4 22       		.byte	0x22
 14325 0cb5 9F       		.byte	0x9f
 14326 0cb6 6E0D0000 		.4byte	.LVL102
 14327 0cba 7A0D0000 		.4byte	.LVL103
 14328 0cbe 3600     		.2byte	0x36
ARM GAS  C:\Users\jo\AppData\Local\Temp\ccDsJqTW.s 			page 255


 14329 0cc0 7E       		.byte	0x7e
 14330 0cc1 00       		.sleb128 0
 14331 0cc2 72       		.byte	0x72
 14332 0cc3 00       		.sleb128 0
 14333 0cc4 21       		.byte	0x21
 14334 0cc5 71       		.byte	0x71
 14335 0cc6 00       		.sleb128 0
 14336 0cc7 1A       		.byte	0x1a
 14337 0cc8 7E       		.byte	0x7e
 14338 0cc9 00       		.sleb128 0
 14339 0cca 72       		.byte	0x72
 14340 0ccb 00       		.sleb128 0
 14341 0ccc 1A       		.byte	0x1a
 14342 0ccd 21       		.byte	0x21
 14343 0cce 7E       		.byte	0x7e
 14344 0ccf 00       		.sleb128 0
 14345 0cd0 3D       		.byte	0x3d
 14346 0cd1 14       		.byte	0x14
 14347 0cd2 14       		.byte	0x14
 14348 0cd3 1F       		.byte	0x1f
 14349 0cd4 23       		.byte	0x23
 14350 0cd5 20       		.uleb128 0x20
 14351 0cd6 24       		.byte	0x24
 14352 0cd7 17       		.byte	0x17
 14353 0cd8 25       		.byte	0x25
 14354 0cd9 21       		.byte	0x21
 14355 0cda 7E       		.byte	0x7e
 14356 0cdb 00       		.sleb128 0
 14357 0cdc 32       		.byte	0x32
 14358 0cdd 14       		.byte	0x14
 14359 0cde 14       		.byte	0x14
 14360 0cdf 1F       		.byte	0x1f
 14361 0ce0 23       		.byte	0x23
 14362 0ce1 20       		.uleb128 0x20
 14363 0ce2 24       		.byte	0x24
 14364 0ce3 17       		.byte	0x17
 14365 0ce4 25       		.byte	0x25
 14366 0ce5 21       		.byte	0x21
 14367 0ce6 27       		.byte	0x27
 14368 0ce7 7E       		.byte	0x7e
 14369 0ce8 00       		.sleb128 0
 14370 0ce9 3A       		.byte	0x3a
 14371 0cea 14       		.byte	0x14
 14372 0ceb 14       		.byte	0x14
 14373 0cec 24       		.byte	0x24
 14374 0ced 17       		.byte	0x17
 14375 0cee 1F       		.byte	0x1f
 14376 0cef 23       		.byte	0x23
 14377 0cf0 20       		.uleb128 0x20
 14378 0cf1 25       		.byte	0x25
 14379 0cf2 21       		.byte	0x21
 14380 0cf3 27       		.byte	0x27
 14381 0cf4 22       		.byte	0x22
 14382 0cf5 9F       		.byte	0x9f
 14383 0cf6 7A0D0000 		.4byte	.LVL103
 14384 0cfa 880D0000 		.4byte	.LVL106
 14385 0cfe 0100     		.2byte	0x1
ARM GAS  C:\Users\jo\AppData\Local\Temp\ccDsJqTW.s 			page 256


 14386 0d00 57       		.byte	0x57
 14387 0d01 880D0000 		.4byte	.LVL106
 14388 0d05 EA0D0000 		.4byte	.LVL109
 14389 0d09 3600     		.2byte	0x36
 14390 0d0b 7E       		.byte	0x7e
 14391 0d0c 00       		.sleb128 0
 14392 0d0d 72       		.byte	0x72
 14393 0d0e 00       		.sleb128 0
 14394 0d0f 21       		.byte	0x21
 14395 0d10 71       		.byte	0x71
 14396 0d11 00       		.sleb128 0
 14397 0d12 1A       		.byte	0x1a
 14398 0d13 7E       		.byte	0x7e
 14399 0d14 00       		.sleb128 0
 14400 0d15 72       		.byte	0x72
 14401 0d16 00       		.sleb128 0
 14402 0d17 1A       		.byte	0x1a
 14403 0d18 21       		.byte	0x21
 14404 0d19 7E       		.byte	0x7e
 14405 0d1a 00       		.sleb128 0
 14406 0d1b 3D       		.byte	0x3d
 14407 0d1c 14       		.byte	0x14
 14408 0d1d 14       		.byte	0x14
 14409 0d1e 1F       		.byte	0x1f
 14410 0d1f 23       		.byte	0x23
 14411 0d20 20       		.uleb128 0x20
 14412 0d21 24       		.byte	0x24
 14413 0d22 17       		.byte	0x17
 14414 0d23 25       		.byte	0x25
 14415 0d24 21       		.byte	0x21
 14416 0d25 7E       		.byte	0x7e
 14417 0d26 00       		.sleb128 0
 14418 0d27 32       		.byte	0x32
 14419 0d28 14       		.byte	0x14
 14420 0d29 14       		.byte	0x14
 14421 0d2a 1F       		.byte	0x1f
 14422 0d2b 23       		.byte	0x23
 14423 0d2c 20       		.uleb128 0x20
 14424 0d2d 24       		.byte	0x24
 14425 0d2e 17       		.byte	0x17
 14426 0d2f 25       		.byte	0x25
 14427 0d30 21       		.byte	0x21
 14428 0d31 27       		.byte	0x27
 14429 0d32 7E       		.byte	0x7e
 14430 0d33 00       		.sleb128 0
 14431 0d34 3A       		.byte	0x3a
 14432 0d35 14       		.byte	0x14
 14433 0d36 14       		.byte	0x14
 14434 0d37 24       		.byte	0x24
 14435 0d38 17       		.byte	0x17
 14436 0d39 1F       		.byte	0x1f
 14437 0d3a 23       		.byte	0x23
 14438 0d3b 20       		.uleb128 0x20
 14439 0d3c 25       		.byte	0x25
 14440 0d3d 21       		.byte	0x21
 14441 0d3e 27       		.byte	0x27
 14442 0d3f 22       		.byte	0x22
ARM GAS  C:\Users\jo\AppData\Local\Temp\ccDsJqTW.s 			page 257


 14443 0d40 9F       		.byte	0x9f
 14444 0d41 D40E0000 		.4byte	.LVL119
 14445 0d45 EA0E0000 		.4byte	.LVL122
 14446 0d49 0100     		.2byte	0x1
 14447 0d4b 58       		.byte	0x58
 14448 0d4c EA0E0000 		.4byte	.LVL122
 14449 0d50 420F0000 		.4byte	.LVL124
 14450 0d54 3C00     		.2byte	0x3c
 14451 0d56 7B       		.byte	0x7b
 14452 0d57 00       		.sleb128 0
 14453 0d58 91       		.byte	0x91
 14454 0d59 E87D     		.sleb128 -280
 14455 0d5b 06       		.byte	0x6
 14456 0d5c 21       		.byte	0x21
 14457 0d5d 91       		.byte	0x91
 14458 0d5e A47E     		.sleb128 -220
 14459 0d60 06       		.byte	0x6
 14460 0d61 1A       		.byte	0x1a
 14461 0d62 7B       		.byte	0x7b
 14462 0d63 00       		.sleb128 0
 14463 0d64 91       		.byte	0x91
 14464 0d65 E87D     		.sleb128 -280
 14465 0d67 06       		.byte	0x6
 14466 0d68 1A       		.byte	0x1a
 14467 0d69 21       		.byte	0x21
 14468 0d6a 7B       		.byte	0x7b
 14469 0d6b 00       		.sleb128 0
 14470 0d6c 3D       		.byte	0x3d
 14471 0d6d 14       		.byte	0x14
 14472 0d6e 14       		.byte	0x14
 14473 0d6f 1F       		.byte	0x1f
 14474 0d70 23       		.byte	0x23
 14475 0d71 20       		.uleb128 0x20
 14476 0d72 24       		.byte	0x24
 14477 0d73 17       		.byte	0x17
 14478 0d74 25       		.byte	0x25
 14479 0d75 21       		.byte	0x21
 14480 0d76 7B       		.byte	0x7b
 14481 0d77 00       		.sleb128 0
 14482 0d78 32       		.byte	0x32
 14483 0d79 14       		.byte	0x14
 14484 0d7a 14       		.byte	0x14
 14485 0d7b 1F       		.byte	0x1f
 14486 0d7c 23       		.byte	0x23
 14487 0d7d 20       		.uleb128 0x20
 14488 0d7e 24       		.byte	0x24
 14489 0d7f 17       		.byte	0x17
 14490 0d80 25       		.byte	0x25
 14491 0d81 21       		.byte	0x21
 14492 0d82 27       		.byte	0x27
 14493 0d83 7B       		.byte	0x7b
 14494 0d84 00       		.sleb128 0
 14495 0d85 3A       		.byte	0x3a
 14496 0d86 14       		.byte	0x14
 14497 0d87 14       		.byte	0x14
 14498 0d88 24       		.byte	0x24
 14499 0d89 17       		.byte	0x17
ARM GAS  C:\Users\jo\AppData\Local\Temp\ccDsJqTW.s 			page 258


 14500 0d8a 1F       		.byte	0x1f
 14501 0d8b 23       		.byte	0x23
 14502 0d8c 20       		.uleb128 0x20
 14503 0d8d 25       		.byte	0x25
 14504 0d8e 21       		.byte	0x21
 14505 0d8f 27       		.byte	0x27
 14506 0d90 22       		.byte	0x22
 14507 0d91 9F       		.byte	0x9f
 14508 0d92 420F0000 		.4byte	.LVL124
 14509 0d96 580F0000 		.4byte	.LVL126
 14510 0d9a 3800     		.2byte	0x38
 14511 0d9c 74       		.byte	0x74
 14512 0d9d 00       		.sleb128 0
 14513 0d9e 7B       		.byte	0x7b
 14514 0d9f 00       		.sleb128 0
 14515 0da0 21       		.byte	0x21
 14516 0da1 91       		.byte	0x91
 14517 0da2 E87D     		.sleb128 -280
 14518 0da4 06       		.byte	0x6
 14519 0da5 1A       		.byte	0x1a
 14520 0da6 74       		.byte	0x74
 14521 0da7 00       		.sleb128 0
 14522 0da8 7B       		.byte	0x7b
 14523 0da9 00       		.sleb128 0
 14524 0daa 1A       		.byte	0x1a
 14525 0dab 21       		.byte	0x21
 14526 0dac 74       		.byte	0x74
 14527 0dad 00       		.sleb128 0
 14528 0dae 3D       		.byte	0x3d
 14529 0daf 14       		.byte	0x14
 14530 0db0 14       		.byte	0x14
 14531 0db1 1F       		.byte	0x1f
 14532 0db2 23       		.byte	0x23
 14533 0db3 20       		.uleb128 0x20
 14534 0db4 24       		.byte	0x24
 14535 0db5 17       		.byte	0x17
 14536 0db6 25       		.byte	0x25
 14537 0db7 21       		.byte	0x21
 14538 0db8 74       		.byte	0x74
 14539 0db9 00       		.sleb128 0
 14540 0dba 32       		.byte	0x32
 14541 0dbb 14       		.byte	0x14
 14542 0dbc 14       		.byte	0x14
 14543 0dbd 1F       		.byte	0x1f
 14544 0dbe 23       		.byte	0x23
 14545 0dbf 20       		.uleb128 0x20
 14546 0dc0 24       		.byte	0x24
 14547 0dc1 17       		.byte	0x17
 14548 0dc2 25       		.byte	0x25
 14549 0dc3 21       		.byte	0x21
 14550 0dc4 27       		.byte	0x27
 14551 0dc5 74       		.byte	0x74
 14552 0dc6 00       		.sleb128 0
 14553 0dc7 3A       		.byte	0x3a
 14554 0dc8 14       		.byte	0x14
 14555 0dc9 14       		.byte	0x14
 14556 0dca 24       		.byte	0x24
ARM GAS  C:\Users\jo\AppData\Local\Temp\ccDsJqTW.s 			page 259


 14557 0dcb 17       		.byte	0x17
 14558 0dcc 1F       		.byte	0x1f
 14559 0dcd 23       		.byte	0x23
 14560 0dce 20       		.uleb128 0x20
 14561 0dcf 25       		.byte	0x25
 14562 0dd0 21       		.byte	0x21
 14563 0dd1 27       		.byte	0x27
 14564 0dd2 22       		.byte	0x22
 14565 0dd3 9F       		.byte	0x9f
 14566 0dd4 580F0000 		.4byte	.LVL126
 14567 0dd8 640F0000 		.4byte	.LVL128
 14568 0ddc 0100     		.2byte	0x1
 14569 0dde 50       		.byte	0x50
 14570 0ddf 640F0000 		.4byte	.LVL128
 14571 0de3 BE0F0000 		.4byte	.LVL130
 14572 0de7 3800     		.2byte	0x38
 14573 0de9 74       		.byte	0x74
 14574 0dea 00       		.sleb128 0
 14575 0deb 7B       		.byte	0x7b
 14576 0dec 00       		.sleb128 0
 14577 0ded 21       		.byte	0x21
 14578 0dee 91       		.byte	0x91
 14579 0def E87D     		.sleb128 -280
 14580 0df1 06       		.byte	0x6
 14581 0df2 1A       		.byte	0x1a
 14582 0df3 74       		.byte	0x74
 14583 0df4 00       		.sleb128 0
 14584 0df5 7B       		.byte	0x7b
 14585 0df6 00       		.sleb128 0
 14586 0df7 1A       		.byte	0x1a
 14587 0df8 21       		.byte	0x21
 14588 0df9 74       		.byte	0x74
 14589 0dfa 00       		.sleb128 0
 14590 0dfb 3D       		.byte	0x3d
 14591 0dfc 14       		.byte	0x14
 14592 0dfd 14       		.byte	0x14
 14593 0dfe 1F       		.byte	0x1f
 14594 0dff 23       		.byte	0x23
 14595 0e00 20       		.uleb128 0x20
 14596 0e01 24       		.byte	0x24
 14597 0e02 17       		.byte	0x17
 14598 0e03 25       		.byte	0x25
 14599 0e04 21       		.byte	0x21
 14600 0e05 74       		.byte	0x74
 14601 0e06 00       		.sleb128 0
 14602 0e07 32       		.byte	0x32
 14603 0e08 14       		.byte	0x14
 14604 0e09 14       		.byte	0x14
 14605 0e0a 1F       		.byte	0x1f
 14606 0e0b 23       		.byte	0x23
 14607 0e0c 20       		.uleb128 0x20
 14608 0e0d 24       		.byte	0x24
 14609 0e0e 17       		.byte	0x17
 14610 0e0f 25       		.byte	0x25
 14611 0e10 21       		.byte	0x21
 14612 0e11 27       		.byte	0x27
 14613 0e12 74       		.byte	0x74
ARM GAS  C:\Users\jo\AppData\Local\Temp\ccDsJqTW.s 			page 260


 14614 0e13 00       		.sleb128 0
 14615 0e14 3A       		.byte	0x3a
 14616 0e15 14       		.byte	0x14
 14617 0e16 14       		.byte	0x14
 14618 0e17 24       		.byte	0x24
 14619 0e18 17       		.byte	0x17
 14620 0e19 1F       		.byte	0x1f
 14621 0e1a 23       		.byte	0x23
 14622 0e1b 20       		.uleb128 0x20
 14623 0e1c 25       		.byte	0x25
 14624 0e1d 21       		.byte	0x21
 14625 0e1e 27       		.byte	0x27
 14626 0e1f 22       		.byte	0x22
 14627 0e20 9F       		.byte	0x9f
 14628 0e21 BE0F0000 		.4byte	.LVL130
 14629 0e25 DA0F0000 		.4byte	.LVL134
 14630 0e29 0100     		.2byte	0x1
 14631 0e2b 5A       		.byte	0x5a
 14632 0e2c DA0F0000 		.4byte	.LVL134
 14633 0e30 1C100000 		.4byte	.LVL135
 14634 0e34 3600     		.2byte	0x36
 14635 0e36 7C       		.byte	0x7c
 14636 0e37 00       		.sleb128 0
 14637 0e38 74       		.byte	0x74
 14638 0e39 00       		.sleb128 0
 14639 0e3a 21       		.byte	0x21
 14640 0e3b 7B       		.byte	0x7b
 14641 0e3c 00       		.sleb128 0
 14642 0e3d 1A       		.byte	0x1a
 14643 0e3e 7C       		.byte	0x7c
 14644 0e3f 00       		.sleb128 0
 14645 0e40 74       		.byte	0x74
 14646 0e41 00       		.sleb128 0
 14647 0e42 1A       		.byte	0x1a
 14648 0e43 21       		.byte	0x21
 14649 0e44 7C       		.byte	0x7c
 14650 0e45 00       		.sleb128 0
 14651 0e46 3D       		.byte	0x3d
 14652 0e47 14       		.byte	0x14
 14653 0e48 14       		.byte	0x14
 14654 0e49 1F       		.byte	0x1f
 14655 0e4a 23       		.byte	0x23
 14656 0e4b 20       		.uleb128 0x20
 14657 0e4c 24       		.byte	0x24
 14658 0e4d 17       		.byte	0x17
 14659 0e4e 25       		.byte	0x25
 14660 0e4f 21       		.byte	0x21
 14661 0e50 7C       		.byte	0x7c
 14662 0e51 00       		.sleb128 0
 14663 0e52 32       		.byte	0x32
 14664 0e53 14       		.byte	0x14
 14665 0e54 14       		.byte	0x14
 14666 0e55 1F       		.byte	0x1f
 14667 0e56 23       		.byte	0x23
 14668 0e57 20       		.uleb128 0x20
 14669 0e58 24       		.byte	0x24
 14670 0e59 17       		.byte	0x17
ARM GAS  C:\Users\jo\AppData\Local\Temp\ccDsJqTW.s 			page 261


 14671 0e5a 25       		.byte	0x25
 14672 0e5b 21       		.byte	0x21
 14673 0e5c 27       		.byte	0x27
 14674 0e5d 7C       		.byte	0x7c
 14675 0e5e 00       		.sleb128 0
 14676 0e5f 3A       		.byte	0x3a
 14677 0e60 14       		.byte	0x14
 14678 0e61 14       		.byte	0x14
 14679 0e62 24       		.byte	0x24
 14680 0e63 17       		.byte	0x17
 14681 0e64 1F       		.byte	0x1f
 14682 0e65 23       		.byte	0x23
 14683 0e66 20       		.uleb128 0x20
 14684 0e67 25       		.byte	0x25
 14685 0e68 21       		.byte	0x21
 14686 0e69 27       		.byte	0x27
 14687 0e6a 22       		.byte	0x22
 14688 0e6b 9F       		.byte	0x9f
 14689 0e6c 1C100000 		.4byte	.LVL135
 14690 0e70 2C100000 		.4byte	.LVL136
 14691 0e74 3600     		.2byte	0x36
 14692 0e76 71       		.byte	0x71
 14693 0e77 00       		.sleb128 0
 14694 0e78 7C       		.byte	0x7c
 14695 0e79 00       		.sleb128 0
 14696 0e7a 21       		.byte	0x21
 14697 0e7b 74       		.byte	0x74
 14698 0e7c 00       		.sleb128 0
 14699 0e7d 1A       		.byte	0x1a
 14700 0e7e 71       		.byte	0x71
 14701 0e7f 00       		.sleb128 0
 14702 0e80 7C       		.byte	0x7c
 14703 0e81 00       		.sleb128 0
 14704 0e82 1A       		.byte	0x1a
 14705 0e83 21       		.byte	0x21
 14706 0e84 71       		.byte	0x71
 14707 0e85 00       		.sleb128 0
 14708 0e86 3D       		.byte	0x3d
 14709 0e87 14       		.byte	0x14
 14710 0e88 14       		.byte	0x14
 14711 0e89 1F       		.byte	0x1f
 14712 0e8a 23       		.byte	0x23
 14713 0e8b 20       		.uleb128 0x20
 14714 0e8c 24       		.byte	0x24
 14715 0e8d 17       		.byte	0x17
 14716 0e8e 25       		.byte	0x25
 14717 0e8f 21       		.byte	0x21
 14718 0e90 71       		.byte	0x71
 14719 0e91 00       		.sleb128 0
 14720 0e92 32       		.byte	0x32
 14721 0e93 14       		.byte	0x14
 14722 0e94 14       		.byte	0x14
 14723 0e95 1F       		.byte	0x1f
 14724 0e96 23       		.byte	0x23
 14725 0e97 20       		.uleb128 0x20
 14726 0e98 24       		.byte	0x24
 14727 0e99 17       		.byte	0x17
ARM GAS  C:\Users\jo\AppData\Local\Temp\ccDsJqTW.s 			page 262


 14728 0e9a 25       		.byte	0x25
 14729 0e9b 21       		.byte	0x21
 14730 0e9c 27       		.byte	0x27
 14731 0e9d 71       		.byte	0x71
 14732 0e9e 00       		.sleb128 0
 14733 0e9f 3A       		.byte	0x3a
 14734 0ea0 14       		.byte	0x14
 14735 0ea1 14       		.byte	0x14
 14736 0ea2 24       		.byte	0x24
 14737 0ea3 17       		.byte	0x17
 14738 0ea4 1F       		.byte	0x1f
 14739 0ea5 23       		.byte	0x23
 14740 0ea6 20       		.uleb128 0x20
 14741 0ea7 25       		.byte	0x25
 14742 0ea8 21       		.byte	0x21
 14743 0ea9 27       		.byte	0x27
 14744 0eaa 22       		.byte	0x22
 14745 0eab 9F       		.byte	0x9f
 14746 0eac 2C100000 		.4byte	.LVL136
 14747 0eb0 3C100000 		.4byte	.LVL139
 14748 0eb4 0100     		.2byte	0x1
 14749 0eb6 58       		.byte	0x58
 14750 0eb7 3C100000 		.4byte	.LVL139
 14751 0ebb 96100000 		.4byte	.LVL141
 14752 0ebf 3600     		.2byte	0x36
 14753 0ec1 71       		.byte	0x71
 14754 0ec2 00       		.sleb128 0
 14755 0ec3 7C       		.byte	0x7c
 14756 0ec4 00       		.sleb128 0
 14757 0ec5 21       		.byte	0x21
 14758 0ec6 74       		.byte	0x74
 14759 0ec7 00       		.sleb128 0
 14760 0ec8 1A       		.byte	0x1a
 14761 0ec9 71       		.byte	0x71
 14762 0eca 00       		.sleb128 0
 14763 0ecb 7C       		.byte	0x7c
 14764 0ecc 00       		.sleb128 0
 14765 0ecd 1A       		.byte	0x1a
 14766 0ece 21       		.byte	0x21
 14767 0ecf 71       		.byte	0x71
 14768 0ed0 00       		.sleb128 0
 14769 0ed1 3D       		.byte	0x3d
 14770 0ed2 14       		.byte	0x14
 14771 0ed3 14       		.byte	0x14
 14772 0ed4 1F       		.byte	0x1f
 14773 0ed5 23       		.byte	0x23
 14774 0ed6 20       		.uleb128 0x20
 14775 0ed7 24       		.byte	0x24
 14776 0ed8 17       		.byte	0x17
 14777 0ed9 25       		.byte	0x25
 14778 0eda 21       		.byte	0x21
 14779 0edb 71       		.byte	0x71
 14780 0edc 00       		.sleb128 0
 14781 0edd 32       		.byte	0x32
 14782 0ede 14       		.byte	0x14
 14783 0edf 14       		.byte	0x14
 14784 0ee0 1F       		.byte	0x1f
ARM GAS  C:\Users\jo\AppData\Local\Temp\ccDsJqTW.s 			page 263


 14785 0ee1 23       		.byte	0x23
 14786 0ee2 20       		.uleb128 0x20
 14787 0ee3 24       		.byte	0x24
 14788 0ee4 17       		.byte	0x17
 14789 0ee5 25       		.byte	0x25
 14790 0ee6 21       		.byte	0x21
 14791 0ee7 27       		.byte	0x27
 14792 0ee8 71       		.byte	0x71
 14793 0ee9 00       		.sleb128 0
 14794 0eea 3A       		.byte	0x3a
 14795 0eeb 14       		.byte	0x14
 14796 0eec 14       		.byte	0x14
 14797 0eed 24       		.byte	0x24
 14798 0eee 17       		.byte	0x17
 14799 0eef 1F       		.byte	0x1f
 14800 0ef0 23       		.byte	0x23
 14801 0ef1 20       		.uleb128 0x20
 14802 0ef2 25       		.byte	0x25
 14803 0ef3 21       		.byte	0x21
 14804 0ef4 27       		.byte	0x27
 14805 0ef5 22       		.byte	0x22
 14806 0ef6 9F       		.byte	0x9f
 14807 0ef7 96100000 		.4byte	.LVL141
 14808 0efb 9C100000 		.4byte	.LVL142
 14809 0eff 3600     		.2byte	0x36
 14810 0f01 72       		.byte	0x72
 14811 0f02 00       		.sleb128 0
 14812 0f03 71       		.byte	0x71
 14813 0f04 00       		.sleb128 0
 14814 0f05 21       		.byte	0x21
 14815 0f06 7C       		.byte	0x7c
 14816 0f07 00       		.sleb128 0
 14817 0f08 1A       		.byte	0x1a
 14818 0f09 72       		.byte	0x72
 14819 0f0a 00       		.sleb128 0
 14820 0f0b 71       		.byte	0x71
 14821 0f0c 00       		.sleb128 0
 14822 0f0d 1A       		.byte	0x1a
 14823 0f0e 21       		.byte	0x21
 14824 0f0f 72       		.byte	0x72
 14825 0f10 00       		.sleb128 0
 14826 0f11 3D       		.byte	0x3d
 14827 0f12 14       		.byte	0x14
 14828 0f13 14       		.byte	0x14
 14829 0f14 1F       		.byte	0x1f
 14830 0f15 23       		.byte	0x23
 14831 0f16 20       		.uleb128 0x20
 14832 0f17 24       		.byte	0x24
 14833 0f18 17       		.byte	0x17
 14834 0f19 25       		.byte	0x25
 14835 0f1a 21       		.byte	0x21
 14836 0f1b 72       		.byte	0x72
 14837 0f1c 00       		.sleb128 0
 14838 0f1d 32       		.byte	0x32
 14839 0f1e 14       		.byte	0x14
 14840 0f1f 14       		.byte	0x14
 14841 0f20 1F       		.byte	0x1f
ARM GAS  C:\Users\jo\AppData\Local\Temp\ccDsJqTW.s 			page 264


 14842 0f21 23       		.byte	0x23
 14843 0f22 20       		.uleb128 0x20
 14844 0f23 24       		.byte	0x24
 14845 0f24 17       		.byte	0x17
 14846 0f25 25       		.byte	0x25
 14847 0f26 21       		.byte	0x21
 14848 0f27 27       		.byte	0x27
 14849 0f28 72       		.byte	0x72
 14850 0f29 00       		.sleb128 0
 14851 0f2a 3A       		.byte	0x3a
 14852 0f2b 14       		.byte	0x14
 14853 0f2c 14       		.byte	0x14
 14854 0f2d 24       		.byte	0x24
 14855 0f2e 17       		.byte	0x17
 14856 0f2f 1F       		.byte	0x1f
 14857 0f30 23       		.byte	0x23
 14858 0f31 20       		.uleb128 0x20
 14859 0f32 25       		.byte	0x25
 14860 0f33 21       		.byte	0x21
 14861 0f34 27       		.byte	0x27
 14862 0f35 22       		.byte	0x22
 14863 0f36 9F       		.byte	0x9f
 14864 0f37 9C100000 		.4byte	.LVL142
 14865 0f3b BE100000 		.4byte	.LVL145
 14866 0f3f 0100     		.2byte	0x1
 14867 0f41 50       		.byte	0x50
 14868 0f42 BE100000 		.4byte	.LVL145
 14869 0f46 1E110000 		.4byte	.LVL146
 14870 0f4a 3600     		.2byte	0x36
 14871 0f4c 72       		.byte	0x72
 14872 0f4d 00       		.sleb128 0
 14873 0f4e 71       		.byte	0x71
 14874 0f4f 00       		.sleb128 0
 14875 0f50 21       		.byte	0x21
 14876 0f51 7C       		.byte	0x7c
 14877 0f52 00       		.sleb128 0
 14878 0f53 1A       		.byte	0x1a
 14879 0f54 72       		.byte	0x72
 14880 0f55 00       		.sleb128 0
 14881 0f56 71       		.byte	0x71
 14882 0f57 00       		.sleb128 0
 14883 0f58 1A       		.byte	0x1a
 14884 0f59 21       		.byte	0x21
 14885 0f5a 72       		.byte	0x72
 14886 0f5b 00       		.sleb128 0
 14887 0f5c 3D       		.byte	0x3d
 14888 0f5d 14       		.byte	0x14
 14889 0f5e 14       		.byte	0x14
 14890 0f5f 1F       		.byte	0x1f
 14891 0f60 23       		.byte	0x23
 14892 0f61 20       		.uleb128 0x20
 14893 0f62 24       		.byte	0x24
 14894 0f63 17       		.byte	0x17
 14895 0f64 25       		.byte	0x25
 14896 0f65 21       		.byte	0x21
 14897 0f66 72       		.byte	0x72
 14898 0f67 00       		.sleb128 0
ARM GAS  C:\Users\jo\AppData\Local\Temp\ccDsJqTW.s 			page 265


 14899 0f68 32       		.byte	0x32
 14900 0f69 14       		.byte	0x14
 14901 0f6a 14       		.byte	0x14
 14902 0f6b 1F       		.byte	0x1f
 14903 0f6c 23       		.byte	0x23
 14904 0f6d 20       		.uleb128 0x20
 14905 0f6e 24       		.byte	0x24
 14906 0f6f 17       		.byte	0x17
 14907 0f70 25       		.byte	0x25
 14908 0f71 21       		.byte	0x21
 14909 0f72 27       		.byte	0x27
 14910 0f73 72       		.byte	0x72
 14911 0f74 00       		.sleb128 0
 14912 0f75 3A       		.byte	0x3a
 14913 0f76 14       		.byte	0x14
 14914 0f77 14       		.byte	0x14
 14915 0f78 24       		.byte	0x24
 14916 0f79 17       		.byte	0x17
 14917 0f7a 1F       		.byte	0x1f
 14918 0f7b 23       		.byte	0x23
 14919 0f7c 20       		.uleb128 0x20
 14920 0f7d 25       		.byte	0x25
 14921 0f7e 21       		.byte	0x21
 14922 0f7f 27       		.byte	0x27
 14923 0f80 22       		.byte	0x22
 14924 0f81 9F       		.byte	0x9f
 14925 0f82 1E110000 		.4byte	.LVL146
 14926 0f86 4A110000 		.4byte	.LVL152
 14927 0f8a 0100     		.2byte	0x1
 14928 0f8c 58       		.byte	0x58
 14929 0f8d 4A110000 		.4byte	.LVL152
 14930 0f91 7A110000 		.4byte	.LVL153
 14931 0f95 3600     		.2byte	0x36
 14932 0f97 7E       		.byte	0x7e
 14933 0f98 00       		.sleb128 0
 14934 0f99 72       		.byte	0x72
 14935 0f9a 00       		.sleb128 0
 14936 0f9b 21       		.byte	0x21
 14937 0f9c 71       		.byte	0x71
 14938 0f9d 00       		.sleb128 0
 14939 0f9e 1A       		.byte	0x1a
 14940 0f9f 7E       		.byte	0x7e
 14941 0fa0 00       		.sleb128 0
 14942 0fa1 72       		.byte	0x72
 14943 0fa2 00       		.sleb128 0
 14944 0fa3 1A       		.byte	0x1a
 14945 0fa4 21       		.byte	0x21
 14946 0fa5 7E       		.byte	0x7e
 14947 0fa6 00       		.sleb128 0
 14948 0fa7 3D       		.byte	0x3d
 14949 0fa8 14       		.byte	0x14
 14950 0fa9 14       		.byte	0x14
 14951 0faa 1F       		.byte	0x1f
 14952 0fab 23       		.byte	0x23
 14953 0fac 20       		.uleb128 0x20
 14954 0fad 24       		.byte	0x24
 14955 0fae 17       		.byte	0x17
ARM GAS  C:\Users\jo\AppData\Local\Temp\ccDsJqTW.s 			page 266


 14956 0faf 25       		.byte	0x25
 14957 0fb0 21       		.byte	0x21
 14958 0fb1 7E       		.byte	0x7e
 14959 0fb2 00       		.sleb128 0
 14960 0fb3 32       		.byte	0x32
 14961 0fb4 14       		.byte	0x14
 14962 0fb5 14       		.byte	0x14
 14963 0fb6 1F       		.byte	0x1f
 14964 0fb7 23       		.byte	0x23
 14965 0fb8 20       		.uleb128 0x20
 14966 0fb9 24       		.byte	0x24
 14967 0fba 17       		.byte	0x17
 14968 0fbb 25       		.byte	0x25
 14969 0fbc 21       		.byte	0x21
 14970 0fbd 27       		.byte	0x27
 14971 0fbe 7E       		.byte	0x7e
 14972 0fbf 00       		.sleb128 0
 14973 0fc0 3A       		.byte	0x3a
 14974 0fc1 14       		.byte	0x14
 14975 0fc2 14       		.byte	0x14
 14976 0fc3 24       		.byte	0x24
 14977 0fc4 17       		.byte	0x17
 14978 0fc5 1F       		.byte	0x1f
 14979 0fc6 23       		.byte	0x23
 14980 0fc7 20       		.uleb128 0x20
 14981 0fc8 25       		.byte	0x25
 14982 0fc9 21       		.byte	0x21
 14983 0fca 27       		.byte	0x27
 14984 0fcb 22       		.byte	0x22
 14985 0fcc 9F       		.byte	0x9f
 14986 0fcd 7A110000 		.4byte	.LVL153
 14987 0fd1 8C110000 		.4byte	.LVL154
 14988 0fd5 3600     		.2byte	0x36
 14989 0fd7 75       		.byte	0x75
 14990 0fd8 00       		.sleb128 0
 14991 0fd9 7E       		.byte	0x7e
 14992 0fda 00       		.sleb128 0
 14993 0fdb 21       		.byte	0x21
 14994 0fdc 72       		.byte	0x72
 14995 0fdd 00       		.sleb128 0
 14996 0fde 1A       		.byte	0x1a
 14997 0fdf 75       		.byte	0x75
 14998 0fe0 00       		.sleb128 0
 14999 0fe1 7E       		.byte	0x7e
 15000 0fe2 00       		.sleb128 0
 15001 0fe3 1A       		.byte	0x1a
 15002 0fe4 21       		.byte	0x21
 15003 0fe5 75       		.byte	0x75
 15004 0fe6 00       		.sleb128 0
 15005 0fe7 3D       		.byte	0x3d
 15006 0fe8 14       		.byte	0x14
 15007 0fe9 14       		.byte	0x14
 15008 0fea 1F       		.byte	0x1f
 15009 0feb 23       		.byte	0x23
 15010 0fec 20       		.uleb128 0x20
 15011 0fed 24       		.byte	0x24
 15012 0fee 17       		.byte	0x17
ARM GAS  C:\Users\jo\AppData\Local\Temp\ccDsJqTW.s 			page 267


 15013 0fef 25       		.byte	0x25
 15014 0ff0 21       		.byte	0x21
 15015 0ff1 75       		.byte	0x75
 15016 0ff2 00       		.sleb128 0
 15017 0ff3 32       		.byte	0x32
 15018 0ff4 14       		.byte	0x14
 15019 0ff5 14       		.byte	0x14
 15020 0ff6 1F       		.byte	0x1f
 15021 0ff7 23       		.byte	0x23
 15022 0ff8 20       		.uleb128 0x20
 15023 0ff9 24       		.byte	0x24
 15024 0ffa 17       		.byte	0x17
 15025 0ffb 25       		.byte	0x25
 15026 0ffc 21       		.byte	0x21
 15027 0ffd 27       		.byte	0x27
 15028 0ffe 75       		.byte	0x75
 15029 0fff 00       		.sleb128 0
 15030 1000 3A       		.byte	0x3a
 15031 1001 14       		.byte	0x14
 15032 1002 14       		.byte	0x14
 15033 1003 24       		.byte	0x24
 15034 1004 17       		.byte	0x17
 15035 1005 1F       		.byte	0x1f
 15036 1006 23       		.byte	0x23
 15037 1007 20       		.uleb128 0x20
 15038 1008 25       		.byte	0x25
 15039 1009 21       		.byte	0x21
 15040 100a 27       		.byte	0x27
 15041 100b 22       		.byte	0x22
 15042 100c 9F       		.byte	0x9f
 15043 100d 8C110000 		.4byte	.LVL154
 15044 1011 B6110000 		.4byte	.LVL158
 15045 1015 0100     		.2byte	0x1
 15046 1017 59       		.byte	0x59
 15047 1018 B6110000 		.4byte	.LVL158
 15048 101c 14120000 		.4byte	.LVL159
 15049 1020 3600     		.2byte	0x36
 15050 1022 75       		.byte	0x75
 15051 1023 00       		.sleb128 0
 15052 1024 7E       		.byte	0x7e
 15053 1025 00       		.sleb128 0
 15054 1026 21       		.byte	0x21
 15055 1027 72       		.byte	0x72
 15056 1028 00       		.sleb128 0
 15057 1029 1A       		.byte	0x1a
 15058 102a 75       		.byte	0x75
 15059 102b 00       		.sleb128 0
 15060 102c 7E       		.byte	0x7e
 15061 102d 00       		.sleb128 0
 15062 102e 1A       		.byte	0x1a
 15063 102f 21       		.byte	0x21
 15064 1030 75       		.byte	0x75
 15065 1031 00       		.sleb128 0
 15066 1032 3D       		.byte	0x3d
 15067 1033 14       		.byte	0x14
 15068 1034 14       		.byte	0x14
 15069 1035 1F       		.byte	0x1f
ARM GAS  C:\Users\jo\AppData\Local\Temp\ccDsJqTW.s 			page 268


 15070 1036 23       		.byte	0x23
 15071 1037 20       		.uleb128 0x20
 15072 1038 24       		.byte	0x24
 15073 1039 17       		.byte	0x17
 15074 103a 25       		.byte	0x25
 15075 103b 21       		.byte	0x21
 15076 103c 75       		.byte	0x75
 15077 103d 00       		.sleb128 0
 15078 103e 32       		.byte	0x32
 15079 103f 14       		.byte	0x14
 15080 1040 14       		.byte	0x14
 15081 1041 1F       		.byte	0x1f
 15082 1042 23       		.byte	0x23
 15083 1043 20       		.uleb128 0x20
 15084 1044 24       		.byte	0x24
 15085 1045 17       		.byte	0x17
 15086 1046 25       		.byte	0x25
 15087 1047 21       		.byte	0x21
 15088 1048 27       		.byte	0x27
 15089 1049 75       		.byte	0x75
 15090 104a 00       		.sleb128 0
 15091 104b 3A       		.byte	0x3a
 15092 104c 14       		.byte	0x14
 15093 104d 14       		.byte	0x14
 15094 104e 24       		.byte	0x24
 15095 104f 17       		.byte	0x17
 15096 1050 1F       		.byte	0x1f
 15097 1051 23       		.byte	0x23
 15098 1052 20       		.uleb128 0x20
 15099 1053 25       		.byte	0x25
 15100 1054 21       		.byte	0x21
 15101 1055 27       		.byte	0x27
 15102 1056 22       		.byte	0x22
 15103 1057 9F       		.byte	0x9f
 15104 1058 14120000 		.4byte	.LVL159
 15105 105c 1E120000 		.4byte	.LVL160
 15106 1060 3600     		.2byte	0x36
 15107 1062 73       		.byte	0x73
 15108 1063 00       		.sleb128 0
 15109 1064 75       		.byte	0x75
 15110 1065 00       		.sleb128 0
 15111 1066 21       		.byte	0x21
 15112 1067 7E       		.byte	0x7e
 15113 1068 00       		.sleb128 0
 15114 1069 1A       		.byte	0x1a
 15115 106a 73       		.byte	0x73
 15116 106b 00       		.sleb128 0
 15117 106c 75       		.byte	0x75
 15118 106d 00       		.sleb128 0
 15119 106e 1A       		.byte	0x1a
 15120 106f 21       		.byte	0x21
 15121 1070 73       		.byte	0x73
 15122 1071 00       		.sleb128 0
 15123 1072 3D       		.byte	0x3d
 15124 1073 14       		.byte	0x14
 15125 1074 14       		.byte	0x14
 15126 1075 1F       		.byte	0x1f
ARM GAS  C:\Users\jo\AppData\Local\Temp\ccDsJqTW.s 			page 269


 15127 1076 23       		.byte	0x23
 15128 1077 20       		.uleb128 0x20
 15129 1078 24       		.byte	0x24
 15130 1079 17       		.byte	0x17
 15131 107a 25       		.byte	0x25
 15132 107b 21       		.byte	0x21
 15133 107c 73       		.byte	0x73
 15134 107d 00       		.sleb128 0
 15135 107e 32       		.byte	0x32
 15136 107f 14       		.byte	0x14
 15137 1080 14       		.byte	0x14
 15138 1081 1F       		.byte	0x1f
 15139 1082 23       		.byte	0x23
 15140 1083 20       		.uleb128 0x20
 15141 1084 24       		.byte	0x24
 15142 1085 17       		.byte	0x17
 15143 1086 25       		.byte	0x25
 15144 1087 21       		.byte	0x21
 15145 1088 27       		.byte	0x27
 15146 1089 73       		.byte	0x73
 15147 108a 00       		.sleb128 0
 15148 108b 3A       		.byte	0x3a
 15149 108c 14       		.byte	0x14
 15150 108d 14       		.byte	0x14
 15151 108e 24       		.byte	0x24
 15152 108f 17       		.byte	0x17
 15153 1090 1F       		.byte	0x1f
 15154 1091 23       		.byte	0x23
 15155 1092 20       		.uleb128 0x20
 15156 1093 25       		.byte	0x25
 15157 1094 21       		.byte	0x21
 15158 1095 27       		.byte	0x27
 15159 1096 22       		.byte	0x22
 15160 1097 9F       		.byte	0x9f
 15161 1098 1E120000 		.4byte	.LVL160
 15162 109c 32120000 		.4byte	.LVL161
 15163 10a0 0100     		.2byte	0x1
 15164 10a2 59       		.byte	0x59
 15165 10a3 32120000 		.4byte	.LVL161
 15166 10a7 8A120000 		.4byte	.LVL165
 15167 10ab 3600     		.2byte	0x36
 15168 10ad 73       		.byte	0x73
 15169 10ae 00       		.sleb128 0
 15170 10af 75       		.byte	0x75
 15171 10b0 00       		.sleb128 0
 15172 10b1 21       		.byte	0x21
 15173 10b2 7E       		.byte	0x7e
 15174 10b3 00       		.sleb128 0
 15175 10b4 1A       		.byte	0x1a
 15176 10b5 73       		.byte	0x73
 15177 10b6 00       		.sleb128 0
 15178 10b7 75       		.byte	0x75
 15179 10b8 00       		.sleb128 0
 15180 10b9 1A       		.byte	0x1a
 15181 10ba 21       		.byte	0x21
 15182 10bb 73       		.byte	0x73
 15183 10bc 00       		.sleb128 0
ARM GAS  C:\Users\jo\AppData\Local\Temp\ccDsJqTW.s 			page 270


 15184 10bd 3D       		.byte	0x3d
 15185 10be 14       		.byte	0x14
 15186 10bf 14       		.byte	0x14
 15187 10c0 1F       		.byte	0x1f
 15188 10c1 23       		.byte	0x23
 15189 10c2 20       		.uleb128 0x20
 15190 10c3 24       		.byte	0x24
 15191 10c4 17       		.byte	0x17
 15192 10c5 25       		.byte	0x25
 15193 10c6 21       		.byte	0x21
 15194 10c7 73       		.byte	0x73
 15195 10c8 00       		.sleb128 0
 15196 10c9 32       		.byte	0x32
 15197 10ca 14       		.byte	0x14
 15198 10cb 14       		.byte	0x14
 15199 10cc 1F       		.byte	0x1f
 15200 10cd 23       		.byte	0x23
 15201 10ce 20       		.uleb128 0x20
 15202 10cf 24       		.byte	0x24
 15203 10d0 17       		.byte	0x17
 15204 10d1 25       		.byte	0x25
 15205 10d2 21       		.byte	0x21
 15206 10d3 27       		.byte	0x27
 15207 10d4 73       		.byte	0x73
 15208 10d5 00       		.sleb128 0
 15209 10d6 3A       		.byte	0x3a
 15210 10d7 14       		.byte	0x14
 15211 10d8 14       		.byte	0x14
 15212 10d9 24       		.byte	0x24
 15213 10da 17       		.byte	0x17
 15214 10db 1F       		.byte	0x1f
 15215 10dc 23       		.byte	0x23
 15216 10dd 20       		.uleb128 0x20
 15217 10de 25       		.byte	0x25
 15218 10df 21       		.byte	0x21
 15219 10e0 27       		.byte	0x27
 15220 10e1 22       		.byte	0x22
 15221 10e2 9F       		.byte	0x9f
 15222 10e3 8A120000 		.4byte	.LVL165
 15223 10e7 98120000 		.4byte	.LVL166
 15224 10eb 3600     		.2byte	0x36
 15225 10ed 79       		.byte	0x79
 15226 10ee 00       		.sleb128 0
 15227 10ef 73       		.byte	0x73
 15228 10f0 00       		.sleb128 0
 15229 10f1 21       		.byte	0x21
 15230 10f2 75       		.byte	0x75
 15231 10f3 00       		.sleb128 0
 15232 10f4 1A       		.byte	0x1a
 15233 10f5 79       		.byte	0x79
 15234 10f6 00       		.sleb128 0
 15235 10f7 73       		.byte	0x73
 15236 10f8 00       		.sleb128 0
 15237 10f9 1A       		.byte	0x1a
 15238 10fa 21       		.byte	0x21
 15239 10fb 79       		.byte	0x79
 15240 10fc 00       		.sleb128 0
ARM GAS  C:\Users\jo\AppData\Local\Temp\ccDsJqTW.s 			page 271


 15241 10fd 3D       		.byte	0x3d
 15242 10fe 14       		.byte	0x14
 15243 10ff 14       		.byte	0x14
 15244 1100 1F       		.byte	0x1f
 15245 1101 23       		.byte	0x23
 15246 1102 20       		.uleb128 0x20
 15247 1103 24       		.byte	0x24
 15248 1104 17       		.byte	0x17
 15249 1105 25       		.byte	0x25
 15250 1106 21       		.byte	0x21
 15251 1107 79       		.byte	0x79
 15252 1108 00       		.sleb128 0
 15253 1109 32       		.byte	0x32
 15254 110a 14       		.byte	0x14
 15255 110b 14       		.byte	0x14
 15256 110c 1F       		.byte	0x1f
 15257 110d 23       		.byte	0x23
 15258 110e 20       		.uleb128 0x20
 15259 110f 24       		.byte	0x24
 15260 1110 17       		.byte	0x17
 15261 1111 25       		.byte	0x25
 15262 1112 21       		.byte	0x21
 15263 1113 27       		.byte	0x27
 15264 1114 79       		.byte	0x79
 15265 1115 00       		.sleb128 0
 15266 1116 3A       		.byte	0x3a
 15267 1117 14       		.byte	0x14
 15268 1118 14       		.byte	0x14
 15269 1119 24       		.byte	0x24
 15270 111a 17       		.byte	0x17
 15271 111b 1F       		.byte	0x1f
 15272 111c 23       		.byte	0x23
 15273 111d 20       		.uleb128 0x20
 15274 111e 25       		.byte	0x25
 15275 111f 21       		.byte	0x21
 15276 1120 27       		.byte	0x27
 15277 1121 22       		.byte	0x22
 15278 1122 9F       		.byte	0x9f
 15279 1123 98120000 		.4byte	.LVL166
 15280 1127 B6120000 		.4byte	.LVL170
 15281 112b 0100     		.2byte	0x1
 15282 112d 5B       		.byte	0x5b
 15283 112e B6120000 		.4byte	.LVL170
 15284 1132 18130000 		.4byte	.LVL172
 15285 1136 3600     		.2byte	0x36
 15286 1138 79       		.byte	0x79
 15287 1139 00       		.sleb128 0
 15288 113a 73       		.byte	0x73
 15289 113b 00       		.sleb128 0
 15290 113c 21       		.byte	0x21
 15291 113d 75       		.byte	0x75
 15292 113e 00       		.sleb128 0
 15293 113f 1A       		.byte	0x1a
 15294 1140 79       		.byte	0x79
 15295 1141 00       		.sleb128 0
 15296 1142 73       		.byte	0x73
 15297 1143 00       		.sleb128 0
ARM GAS  C:\Users\jo\AppData\Local\Temp\ccDsJqTW.s 			page 272


 15298 1144 1A       		.byte	0x1a
 15299 1145 21       		.byte	0x21
 15300 1146 79       		.byte	0x79
 15301 1147 00       		.sleb128 0
 15302 1148 3D       		.byte	0x3d
 15303 1149 14       		.byte	0x14
 15304 114a 14       		.byte	0x14
 15305 114b 1F       		.byte	0x1f
 15306 114c 23       		.byte	0x23
 15307 114d 20       		.uleb128 0x20
 15308 114e 24       		.byte	0x24
 15309 114f 17       		.byte	0x17
 15310 1150 25       		.byte	0x25
 15311 1151 21       		.byte	0x21
 15312 1152 79       		.byte	0x79
 15313 1153 00       		.sleb128 0
 15314 1154 32       		.byte	0x32
 15315 1155 14       		.byte	0x14
 15316 1156 14       		.byte	0x14
 15317 1157 1F       		.byte	0x1f
 15318 1158 23       		.byte	0x23
 15319 1159 20       		.uleb128 0x20
 15320 115a 24       		.byte	0x24
 15321 115b 17       		.byte	0x17
 15322 115c 25       		.byte	0x25
 15323 115d 21       		.byte	0x21
 15324 115e 27       		.byte	0x27
 15325 115f 79       		.byte	0x79
 15326 1160 00       		.sleb128 0
 15327 1161 3A       		.byte	0x3a
 15328 1162 14       		.byte	0x14
 15329 1163 14       		.byte	0x14
 15330 1164 24       		.byte	0x24
 15331 1165 17       		.byte	0x17
 15332 1166 1F       		.byte	0x1f
 15333 1167 23       		.byte	0x23
 15334 1168 20       		.uleb128 0x20
 15335 1169 25       		.byte	0x25
 15336 116a 21       		.byte	0x21
 15337 116b 27       		.byte	0x27
 15338 116c 22       		.byte	0x22
 15339 116d 9F       		.byte	0x9f
 15340 116e 18130000 		.4byte	.LVL172
 15341 1172 1A130000 		.4byte	.LVL173
 15342 1176 4000     		.2byte	0x40
 15343 1178 91       		.byte	0x91
 15344 1179 EC7D     		.sleb128 -276
 15345 117b 06       		.byte	0x6
 15346 117c 79       		.byte	0x79
 15347 117d 00       		.sleb128 0
 15348 117e 21       		.byte	0x21
 15349 117f 73       		.byte	0x73
 15350 1180 00       		.sleb128 0
 15351 1181 1A       		.byte	0x1a
 15352 1182 91       		.byte	0x91
 15353 1183 EC7D     		.sleb128 -276
 15354 1185 06       		.byte	0x6
ARM GAS  C:\Users\jo\AppData\Local\Temp\ccDsJqTW.s 			page 273


 15355 1186 79       		.byte	0x79
 15356 1187 00       		.sleb128 0
 15357 1188 1A       		.byte	0x1a
 15358 1189 21       		.byte	0x21
 15359 118a 91       		.byte	0x91
 15360 118b EC7D     		.sleb128 -276
 15361 118d 06       		.byte	0x6
 15362 118e 3D       		.byte	0x3d
 15363 118f 14       		.byte	0x14
 15364 1190 14       		.byte	0x14
 15365 1191 1F       		.byte	0x1f
 15366 1192 23       		.byte	0x23
 15367 1193 20       		.uleb128 0x20
 15368 1194 24       		.byte	0x24
 15369 1195 17       		.byte	0x17
 15370 1196 25       		.byte	0x25
 15371 1197 21       		.byte	0x21
 15372 1198 91       		.byte	0x91
 15373 1199 EC7D     		.sleb128 -276
 15374 119b 06       		.byte	0x6
 15375 119c 32       		.byte	0x32
 15376 119d 14       		.byte	0x14
 15377 119e 14       		.byte	0x14
 15378 119f 1F       		.byte	0x1f
 15379 11a0 23       		.byte	0x23
 15380 11a1 20       		.uleb128 0x20
 15381 11a2 24       		.byte	0x24
 15382 11a3 17       		.byte	0x17
 15383 11a4 25       		.byte	0x25
 15384 11a5 21       		.byte	0x21
 15385 11a6 27       		.byte	0x27
 15386 11a7 91       		.byte	0x91
 15387 11a8 EC7D     		.sleb128 -276
 15388 11aa 06       		.byte	0x6
 15389 11ab 3A       		.byte	0x3a
 15390 11ac 14       		.byte	0x14
 15391 11ad 14       		.byte	0x14
 15392 11ae 24       		.byte	0x24
 15393 11af 17       		.byte	0x17
 15394 11b0 1F       		.byte	0x1f
 15395 11b1 23       		.byte	0x23
 15396 11b2 20       		.uleb128 0x20
 15397 11b3 25       		.byte	0x25
 15398 11b4 21       		.byte	0x21
 15399 11b5 27       		.byte	0x27
 15400 11b6 22       		.byte	0x22
 15401 11b7 9F       		.byte	0x9f
 15402 11b8 1A130000 		.4byte	.LVL173
 15403 11bc 2A130000 		.4byte	.LVL176
 15404 11c0 0100     		.2byte	0x1
 15405 11c2 57       		.byte	0x57
 15406 11c3 2A130000 		.4byte	.LVL176
 15407 11c7 78130000 		.4byte	.LVL178
 15408 11cb 4000     		.2byte	0x40
 15409 11cd 91       		.byte	0x91
 15410 11ce EC7D     		.sleb128 -276
 15411 11d0 06       		.byte	0x6
ARM GAS  C:\Users\jo\AppData\Local\Temp\ccDsJqTW.s 			page 274


 15412 11d1 79       		.byte	0x79
 15413 11d2 00       		.sleb128 0
 15414 11d3 21       		.byte	0x21
 15415 11d4 73       		.byte	0x73
 15416 11d5 00       		.sleb128 0
 15417 11d6 1A       		.byte	0x1a
 15418 11d7 91       		.byte	0x91
 15419 11d8 EC7D     		.sleb128 -276
 15420 11da 06       		.byte	0x6
 15421 11db 79       		.byte	0x79
 15422 11dc 00       		.sleb128 0
 15423 11dd 1A       		.byte	0x1a
 15424 11de 21       		.byte	0x21
 15425 11df 91       		.byte	0x91
 15426 11e0 EC7D     		.sleb128 -276
 15427 11e2 06       		.byte	0x6
 15428 11e3 3D       		.byte	0x3d
 15429 11e4 14       		.byte	0x14
 15430 11e5 14       		.byte	0x14
 15431 11e6 1F       		.byte	0x1f
 15432 11e7 23       		.byte	0x23
 15433 11e8 20       		.uleb128 0x20
 15434 11e9 24       		.byte	0x24
 15435 11ea 17       		.byte	0x17
 15436 11eb 25       		.byte	0x25
 15437 11ec 21       		.byte	0x21
 15438 11ed 91       		.byte	0x91
 15439 11ee EC7D     		.sleb128 -276
 15440 11f0 06       		.byte	0x6
 15441 11f1 32       		.byte	0x32
 15442 11f2 14       		.byte	0x14
 15443 11f3 14       		.byte	0x14
 15444 11f4 1F       		.byte	0x1f
 15445 11f5 23       		.byte	0x23
 15446 11f6 20       		.uleb128 0x20
 15447 11f7 24       		.byte	0x24
 15448 11f8 17       		.byte	0x17
 15449 11f9 25       		.byte	0x25
 15450 11fa 21       		.byte	0x21
 15451 11fb 27       		.byte	0x27
 15452 11fc 91       		.byte	0x91
 15453 11fd EC7D     		.sleb128 -276
 15454 11ff 06       		.byte	0x6
 15455 1200 3A       		.byte	0x3a
 15456 1201 14       		.byte	0x14
 15457 1202 14       		.byte	0x14
 15458 1203 24       		.byte	0x24
 15459 1204 17       		.byte	0x17
 15460 1205 1F       		.byte	0x1f
 15461 1206 23       		.byte	0x23
 15462 1207 20       		.uleb128 0x20
 15463 1208 25       		.byte	0x25
 15464 1209 21       		.byte	0x21
 15465 120a 27       		.byte	0x27
 15466 120b 22       		.byte	0x22
 15467 120c 9F       		.byte	0x9f
 15468 120d 78130000 		.4byte	.LVL178
ARM GAS  C:\Users\jo\AppData\Local\Temp\ccDsJqTW.s 			page 275


 15469 1211 B2130000 		.4byte	.LVL182
 15470 1215 0100     		.2byte	0x1
 15471 1217 5A       		.byte	0x5a
 15472 1218 B2130000 		.4byte	.LVL182
 15473 121c DC130000 		.4byte	.LVL183
 15474 1220 3A00     		.2byte	0x3a
 15475 1222 7C       		.byte	0x7c
 15476 1223 00       		.sleb128 0
 15477 1224 91       		.byte	0x91
 15478 1225 EC7D     		.sleb128 -276
 15479 1227 06       		.byte	0x6
 15480 1228 21       		.byte	0x21
 15481 1229 79       		.byte	0x79
 15482 122a 00       		.sleb128 0
 15483 122b 1A       		.byte	0x1a
 15484 122c 7C       		.byte	0x7c
 15485 122d 00       		.sleb128 0
 15486 122e 91       		.byte	0x91
 15487 122f EC7D     		.sleb128 -276
 15488 1231 06       		.byte	0x6
 15489 1232 1A       		.byte	0x1a
 15490 1233 21       		.byte	0x21
 15491 1234 7C       		.byte	0x7c
 15492 1235 00       		.sleb128 0
 15493 1236 3D       		.byte	0x3d
 15494 1237 14       		.byte	0x14
 15495 1238 14       		.byte	0x14
 15496 1239 1F       		.byte	0x1f
 15497 123a 23       		.byte	0x23
 15498 123b 20       		.uleb128 0x20
 15499 123c 24       		.byte	0x24
 15500 123d 17       		.byte	0x17
 15501 123e 25       		.byte	0x25
 15502 123f 21       		.byte	0x21
 15503 1240 7C       		.byte	0x7c
 15504 1241 00       		.sleb128 0
 15505 1242 32       		.byte	0x32
 15506 1243 14       		.byte	0x14
 15507 1244 14       		.byte	0x14
 15508 1245 1F       		.byte	0x1f
 15509 1246 23       		.byte	0x23
 15510 1247 20       		.uleb128 0x20
 15511 1248 24       		.byte	0x24
 15512 1249 17       		.byte	0x17
 15513 124a 25       		.byte	0x25
 15514 124b 21       		.byte	0x21
 15515 124c 27       		.byte	0x27
 15516 124d 7C       		.byte	0x7c
 15517 124e 00       		.sleb128 0
 15518 124f 3A       		.byte	0x3a
 15519 1250 14       		.byte	0x14
 15520 1251 14       		.byte	0x14
 15521 1252 24       		.byte	0x24
 15522 1253 17       		.byte	0x17
 15523 1254 1F       		.byte	0x1f
 15524 1255 23       		.byte	0x23
 15525 1256 20       		.uleb128 0x20
ARM GAS  C:\Users\jo\AppData\Local\Temp\ccDsJqTW.s 			page 276


 15526 1257 25       		.byte	0x25
 15527 1258 21       		.byte	0x21
 15528 1259 27       		.byte	0x27
 15529 125a 22       		.byte	0x22
 15530 125b 9F       		.byte	0x9f
 15531 125c DC130000 		.4byte	.LVL183
 15532 1260 EE130000 		.4byte	.LVL184
 15533 1264 3800     		.2byte	0x38
 15534 1266 71       		.byte	0x71
 15535 1267 00       		.sleb128 0
 15536 1268 7C       		.byte	0x7c
 15537 1269 00       		.sleb128 0
 15538 126a 21       		.byte	0x21
 15539 126b 91       		.byte	0x91
 15540 126c EC7D     		.sleb128 -276
 15541 126e 06       		.byte	0x6
 15542 126f 1A       		.byte	0x1a
 15543 1270 71       		.byte	0x71
 15544 1271 00       		.sleb128 0
 15545 1272 7C       		.byte	0x7c
 15546 1273 00       		.sleb128 0
 15547 1274 1A       		.byte	0x1a
 15548 1275 21       		.byte	0x21
 15549 1276 71       		.byte	0x71
 15550 1277 00       		.sleb128 0
 15551 1278 3D       		.byte	0x3d
 15552 1279 14       		.byte	0x14
 15553 127a 14       		.byte	0x14
 15554 127b 1F       		.byte	0x1f
 15555 127c 23       		.byte	0x23
 15556 127d 20       		.uleb128 0x20
 15557 127e 24       		.byte	0x24
 15558 127f 17       		.byte	0x17
 15559 1280 25       		.byte	0x25
 15560 1281 21       		.byte	0x21
 15561 1282 71       		.byte	0x71
 15562 1283 00       		.sleb128 0
 15563 1284 32       		.byte	0x32
 15564 1285 14       		.byte	0x14
 15565 1286 14       		.byte	0x14
 15566 1287 1F       		.byte	0x1f
 15567 1288 23       		.byte	0x23
 15568 1289 20       		.uleb128 0x20
 15569 128a 24       		.byte	0x24
 15570 128b 17       		.byte	0x17
 15571 128c 25       		.byte	0x25
 15572 128d 21       		.byte	0x21
 15573 128e 27       		.byte	0x27
 15574 128f 71       		.byte	0x71
 15575 1290 00       		.sleb128 0
 15576 1291 3A       		.byte	0x3a
 15577 1292 14       		.byte	0x14
 15578 1293 14       		.byte	0x14
 15579 1294 24       		.byte	0x24
 15580 1295 17       		.byte	0x17
 15581 1296 1F       		.byte	0x1f
 15582 1297 23       		.byte	0x23
ARM GAS  C:\Users\jo\AppData\Local\Temp\ccDsJqTW.s 			page 277


 15583 1298 20       		.uleb128 0x20
 15584 1299 25       		.byte	0x25
 15585 129a 21       		.byte	0x21
 15586 129b 27       		.byte	0x27
 15587 129c 22       		.byte	0x22
 15588 129d 9F       		.byte	0x9f
 15589 129e EE130000 		.4byte	.LVL184
 15590 12a2 1C140000 		.4byte	.LVL187
 15591 12a6 0100     		.2byte	0x1
 15592 12a8 56       		.byte	0x56
 15593 12a9 1C140000 		.4byte	.LVL187
 15594 12ad 66140000 		.4byte	.LVL189
 15595 12b1 3800     		.2byte	0x38
 15596 12b3 71       		.byte	0x71
 15597 12b4 00       		.sleb128 0
 15598 12b5 7C       		.byte	0x7c
 15599 12b6 00       		.sleb128 0
 15600 12b7 21       		.byte	0x21
 15601 12b8 91       		.byte	0x91
 15602 12b9 EC7D     		.sleb128 -276
 15603 12bb 06       		.byte	0x6
 15604 12bc 1A       		.byte	0x1a
 15605 12bd 71       		.byte	0x71
 15606 12be 00       		.sleb128 0
 15607 12bf 7C       		.byte	0x7c
 15608 12c0 00       		.sleb128 0
 15609 12c1 1A       		.byte	0x1a
 15610 12c2 21       		.byte	0x21
 15611 12c3 71       		.byte	0x71
 15612 12c4 00       		.sleb128 0
 15613 12c5 3D       		.byte	0x3d
 15614 12c6 14       		.byte	0x14
 15615 12c7 14       		.byte	0x14
 15616 12c8 1F       		.byte	0x1f
 15617 12c9 23       		.byte	0x23
 15618 12ca 20       		.uleb128 0x20
 15619 12cb 24       		.byte	0x24
 15620 12cc 17       		.byte	0x17
 15621 12cd 25       		.byte	0x25
 15622 12ce 21       		.byte	0x21
 15623 12cf 71       		.byte	0x71
 15624 12d0 00       		.sleb128 0
 15625 12d1 32       		.byte	0x32
 15626 12d2 14       		.byte	0x14
 15627 12d3 14       		.byte	0x14
 15628 12d4 1F       		.byte	0x1f
 15629 12d5 23       		.byte	0x23
 15630 12d6 20       		.uleb128 0x20
 15631 12d7 24       		.byte	0x24
 15632 12d8 17       		.byte	0x17
 15633 12d9 25       		.byte	0x25
 15634 12da 21       		.byte	0x21
 15635 12db 27       		.byte	0x27
 15636 12dc 71       		.byte	0x71
 15637 12dd 00       		.sleb128 0
 15638 12de 3A       		.byte	0x3a
 15639 12df 14       		.byte	0x14
ARM GAS  C:\Users\jo\AppData\Local\Temp\ccDsJqTW.s 			page 278


 15640 12e0 14       		.byte	0x14
 15641 12e1 24       		.byte	0x24
 15642 12e2 17       		.byte	0x17
 15643 12e3 1F       		.byte	0x1f
 15644 12e4 23       		.byte	0x23
 15645 12e5 20       		.uleb128 0x20
 15646 12e6 25       		.byte	0x25
 15647 12e7 21       		.byte	0x21
 15648 12e8 27       		.byte	0x27
 15649 12e9 22       		.byte	0x22
 15650 12ea 9F       		.byte	0x9f
 15651 12eb 66140000 		.4byte	.LVL189
 15652 12ef 68140000 		.4byte	.LVL190
 15653 12f3 3600     		.2byte	0x36
 15654 12f5 72       		.byte	0x72
 15655 12f6 00       		.sleb128 0
 15656 12f7 71       		.byte	0x71
 15657 12f8 00       		.sleb128 0
 15658 12f9 21       		.byte	0x21
 15659 12fa 7C       		.byte	0x7c
 15660 12fb 00       		.sleb128 0
 15661 12fc 1A       		.byte	0x1a
 15662 12fd 72       		.byte	0x72
 15663 12fe 00       		.sleb128 0
 15664 12ff 71       		.byte	0x71
 15665 1300 00       		.sleb128 0
 15666 1301 1A       		.byte	0x1a
 15667 1302 21       		.byte	0x21
 15668 1303 72       		.byte	0x72
 15669 1304 00       		.sleb128 0
 15670 1305 3D       		.byte	0x3d
 15671 1306 14       		.byte	0x14
 15672 1307 14       		.byte	0x14
 15673 1308 1F       		.byte	0x1f
 15674 1309 23       		.byte	0x23
 15675 130a 20       		.uleb128 0x20
 15676 130b 24       		.byte	0x24
 15677 130c 17       		.byte	0x17
 15678 130d 25       		.byte	0x25
 15679 130e 21       		.byte	0x21
 15680 130f 72       		.byte	0x72
 15681 1310 00       		.sleb128 0
 15682 1311 32       		.byte	0x32
 15683 1312 14       		.byte	0x14
 15684 1313 14       		.byte	0x14
 15685 1314 1F       		.byte	0x1f
 15686 1315 23       		.byte	0x23
 15687 1316 20       		.uleb128 0x20
 15688 1317 24       		.byte	0x24
 15689 1318 17       		.byte	0x17
 15690 1319 25       		.byte	0x25
 15691 131a 21       		.byte	0x21
 15692 131b 27       		.byte	0x27
 15693 131c 72       		.byte	0x72
 15694 131d 00       		.sleb128 0
 15695 131e 3A       		.byte	0x3a
 15696 131f 14       		.byte	0x14
ARM GAS  C:\Users\jo\AppData\Local\Temp\ccDsJqTW.s 			page 279


 15697 1320 14       		.byte	0x14
 15698 1321 24       		.byte	0x24
 15699 1322 17       		.byte	0x17
 15700 1323 1F       		.byte	0x1f
 15701 1324 23       		.byte	0x23
 15702 1325 20       		.uleb128 0x20
 15703 1326 25       		.byte	0x25
 15704 1327 21       		.byte	0x21
 15705 1328 27       		.byte	0x27
 15706 1329 22       		.byte	0x22
 15707 132a 9F       		.byte	0x9f
 15708 132b 68140000 		.4byte	.LVL190
 15709 132f 98140000 		.4byte	.LVL195
 15710 1333 0100     		.2byte	0x1
 15711 1335 5A       		.byte	0x5a
 15712 1336 98140000 		.4byte	.LVL195
 15713 133a D0140000 		.4byte	.LVL196
 15714 133e 3600     		.2byte	0x36
 15715 1340 72       		.byte	0x72
 15716 1341 00       		.sleb128 0
 15717 1342 71       		.byte	0x71
 15718 1343 00       		.sleb128 0
 15719 1344 21       		.byte	0x21
 15720 1345 7C       		.byte	0x7c
 15721 1346 00       		.sleb128 0
 15722 1347 1A       		.byte	0x1a
 15723 1348 72       		.byte	0x72
 15724 1349 00       		.sleb128 0
 15725 134a 71       		.byte	0x71
 15726 134b 00       		.sleb128 0
 15727 134c 1A       		.byte	0x1a
 15728 134d 21       		.byte	0x21
 15729 134e 72       		.byte	0x72
 15730 134f 00       		.sleb128 0
 15731 1350 3D       		.byte	0x3d
 15732 1351 14       		.byte	0x14
 15733 1352 14       		.byte	0x14
 15734 1353 1F       		.byte	0x1f
 15735 1354 23       		.byte	0x23
 15736 1355 20       		.uleb128 0x20
 15737 1356 24       		.byte	0x24
 15738 1357 17       		.byte	0x17
 15739 1358 25       		.byte	0x25
 15740 1359 21       		.byte	0x21
 15741 135a 72       		.byte	0x72
 15742 135b 00       		.sleb128 0
 15743 135c 32       		.byte	0x32
 15744 135d 14       		.byte	0x14
 15745 135e 14       		.byte	0x14
 15746 135f 1F       		.byte	0x1f
 15747 1360 23       		.byte	0x23
 15748 1361 20       		.uleb128 0x20
 15749 1362 24       		.byte	0x24
 15750 1363 17       		.byte	0x17
 15751 1364 25       		.byte	0x25
 15752 1365 21       		.byte	0x21
 15753 1366 27       		.byte	0x27
ARM GAS  C:\Users\jo\AppData\Local\Temp\ccDsJqTW.s 			page 280


 15754 1367 72       		.byte	0x72
 15755 1368 00       		.sleb128 0
 15756 1369 3A       		.byte	0x3a
 15757 136a 14       		.byte	0x14
 15758 136b 14       		.byte	0x14
 15759 136c 24       		.byte	0x24
 15760 136d 17       		.byte	0x17
 15761 136e 1F       		.byte	0x1f
 15762 136f 23       		.byte	0x23
 15763 1370 20       		.uleb128 0x20
 15764 1371 25       		.byte	0x25
 15765 1372 21       		.byte	0x21
 15766 1373 27       		.byte	0x27
 15767 1374 22       		.byte	0x22
 15768 1375 9F       		.byte	0x9f
 15769 1376 D0140000 		.4byte	.LVL196
 15770 137a D2140000 		.4byte	.LVL197
 15771 137e 3600     		.2byte	0x36
 15772 1380 78       		.byte	0x78
 15773 1381 00       		.sleb128 0
 15774 1382 72       		.byte	0x72
 15775 1383 00       		.sleb128 0
 15776 1384 21       		.byte	0x21
 15777 1385 71       		.byte	0x71
 15778 1386 00       		.sleb128 0
 15779 1387 1A       		.byte	0x1a
 15780 1388 78       		.byte	0x78
 15781 1389 00       		.sleb128 0
 15782 138a 72       		.byte	0x72
 15783 138b 00       		.sleb128 0
 15784 138c 1A       		.byte	0x1a
 15785 138d 21       		.byte	0x21
 15786 138e 78       		.byte	0x78
 15787 138f 00       		.sleb128 0
 15788 1390 3D       		.byte	0x3d
 15789 1391 14       		.byte	0x14
 15790 1392 14       		.byte	0x14
 15791 1393 1F       		.byte	0x1f
 15792 1394 23       		.byte	0x23
 15793 1395 20       		.uleb128 0x20
 15794 1396 24       		.byte	0x24
 15795 1397 17       		.byte	0x17
 15796 1398 25       		.byte	0x25
 15797 1399 21       		.byte	0x21
 15798 139a 78       		.byte	0x78
 15799 139b 00       		.sleb128 0
 15800 139c 32       		.byte	0x32
 15801 139d 14       		.byte	0x14
 15802 139e 14       		.byte	0x14
 15803 139f 1F       		.byte	0x1f
 15804 13a0 23       		.byte	0x23
 15805 13a1 20       		.uleb128 0x20
 15806 13a2 24       		.byte	0x24
 15807 13a3 17       		.byte	0x17
 15808 13a4 25       		.byte	0x25
 15809 13a5 21       		.byte	0x21
 15810 13a6 27       		.byte	0x27
ARM GAS  C:\Users\jo\AppData\Local\Temp\ccDsJqTW.s 			page 281


 15811 13a7 78       		.byte	0x78
 15812 13a8 00       		.sleb128 0
 15813 13a9 3A       		.byte	0x3a
 15814 13aa 14       		.byte	0x14
 15815 13ab 14       		.byte	0x14
 15816 13ac 24       		.byte	0x24
 15817 13ad 17       		.byte	0x17
 15818 13ae 1F       		.byte	0x1f
 15819 13af 23       		.byte	0x23
 15820 13b0 20       		.uleb128 0x20
 15821 13b1 25       		.byte	0x25
 15822 13b2 21       		.byte	0x21
 15823 13b3 27       		.byte	0x27
 15824 13b4 22       		.byte	0x22
 15825 13b5 9F       		.byte	0x9f
 15826 13b6 D2140000 		.4byte	.LVL197
 15827 13ba E2140000 		.4byte	.LVL198
 15828 13be 0100     		.2byte	0x1
 15829 13c0 56       		.byte	0x56
 15830 13c1 E2140000 		.4byte	.LVL198
 15831 13c5 4A150000 		.4byte	.LVL202
 15832 13c9 3600     		.2byte	0x36
 15833 13cb 78       		.byte	0x78
 15834 13cc 00       		.sleb128 0
 15835 13cd 72       		.byte	0x72
 15836 13ce 00       		.sleb128 0
 15837 13cf 21       		.byte	0x21
 15838 13d0 71       		.byte	0x71
 15839 13d1 00       		.sleb128 0
 15840 13d2 1A       		.byte	0x1a
 15841 13d3 78       		.byte	0x78
 15842 13d4 00       		.sleb128 0
 15843 13d5 72       		.byte	0x72
 15844 13d6 00       		.sleb128 0
 15845 13d7 1A       		.byte	0x1a
 15846 13d8 21       		.byte	0x21
 15847 13d9 78       		.byte	0x78
 15848 13da 00       		.sleb128 0
 15849 13db 3D       		.byte	0x3d
 15850 13dc 14       		.byte	0x14
 15851 13dd 14       		.byte	0x14
 15852 13de 1F       		.byte	0x1f
 15853 13df 23       		.byte	0x23
 15854 13e0 20       		.uleb128 0x20
 15855 13e1 24       		.byte	0x24
 15856 13e2 17       		.byte	0x17
 15857 13e3 25       		.byte	0x25
 15858 13e4 21       		.byte	0x21
 15859 13e5 78       		.byte	0x78
 15860 13e6 00       		.sleb128 0
 15861 13e7 32       		.byte	0x32
 15862 13e8 14       		.byte	0x14
 15863 13e9 14       		.byte	0x14
 15864 13ea 1F       		.byte	0x1f
 15865 13eb 23       		.byte	0x23
 15866 13ec 20       		.uleb128 0x20
 15867 13ed 24       		.byte	0x24
ARM GAS  C:\Users\jo\AppData\Local\Temp\ccDsJqTW.s 			page 282


 15868 13ee 17       		.byte	0x17
 15869 13ef 25       		.byte	0x25
 15870 13f0 21       		.byte	0x21
 15871 13f1 27       		.byte	0x27
 15872 13f2 78       		.byte	0x78
 15873 13f3 00       		.sleb128 0
 15874 13f4 3A       		.byte	0x3a
 15875 13f5 14       		.byte	0x14
 15876 13f6 14       		.byte	0x14
 15877 13f7 24       		.byte	0x24
 15878 13f8 17       		.byte	0x17
 15879 13f9 1F       		.byte	0x1f
 15880 13fa 23       		.byte	0x23
 15881 13fb 20       		.uleb128 0x20
 15882 13fc 25       		.byte	0x25
 15883 13fd 21       		.byte	0x21
 15884 13fe 27       		.byte	0x27
 15885 13ff 22       		.byte	0x22
 15886 1400 9F       		.byte	0x9f
 15887 1401 4A150000 		.4byte	.LVL202
 15888 1405 68150000 		.4byte	.LVL205
 15889 1409 0100     		.2byte	0x1
 15890 140b 55       		.byte	0x55
 15891 140c 68150000 		.4byte	.LVL205
 15892 1410 E0150000 		.4byte	.LVL207
 15893 1414 3600     		.2byte	0x36
 15894 1416 76       		.byte	0x76
 15895 1417 00       		.sleb128 0
 15896 1418 78       		.byte	0x78
 15897 1419 00       		.sleb128 0
 15898 141a 21       		.byte	0x21
 15899 141b 72       		.byte	0x72
 15900 141c 00       		.sleb128 0
 15901 141d 1A       		.byte	0x1a
 15902 141e 76       		.byte	0x76
 15903 141f 00       		.sleb128 0
 15904 1420 78       		.byte	0x78
 15905 1421 00       		.sleb128 0
 15906 1422 1A       		.byte	0x1a
 15907 1423 21       		.byte	0x21
 15908 1424 76       		.byte	0x76
 15909 1425 00       		.sleb128 0
 15910 1426 3D       		.byte	0x3d
 15911 1427 14       		.byte	0x14
 15912 1428 14       		.byte	0x14
 15913 1429 1F       		.byte	0x1f
 15914 142a 23       		.byte	0x23
 15915 142b 20       		.uleb128 0x20
 15916 142c 24       		.byte	0x24
 15917 142d 17       		.byte	0x17
 15918 142e 25       		.byte	0x25
 15919 142f 21       		.byte	0x21
 15920 1430 76       		.byte	0x76
 15921 1431 00       		.sleb128 0
 15922 1432 32       		.byte	0x32
 15923 1433 14       		.byte	0x14
 15924 1434 14       		.byte	0x14
ARM GAS  C:\Users\jo\AppData\Local\Temp\ccDsJqTW.s 			page 283


 15925 1435 1F       		.byte	0x1f
 15926 1436 23       		.byte	0x23
 15927 1437 20       		.uleb128 0x20
 15928 1438 24       		.byte	0x24
 15929 1439 17       		.byte	0x17
 15930 143a 25       		.byte	0x25
 15931 143b 21       		.byte	0x21
 15932 143c 27       		.byte	0x27
 15933 143d 76       		.byte	0x76
 15934 143e 00       		.sleb128 0
 15935 143f 3A       		.byte	0x3a
 15936 1440 14       		.byte	0x14
 15937 1441 14       		.byte	0x14
 15938 1442 24       		.byte	0x24
 15939 1443 17       		.byte	0x17
 15940 1444 1F       		.byte	0x1f
 15941 1445 23       		.byte	0x23
 15942 1446 20       		.uleb128 0x20
 15943 1447 25       		.byte	0x25
 15944 1448 21       		.byte	0x21
 15945 1449 27       		.byte	0x27
 15946 144a 22       		.byte	0x22
 15947 144b 9F       		.byte	0x9f
 15948 144c E0150000 		.4byte	.LVL207
 15949 1450 F0150000 		.4byte	.LVL209
 15950 1454 0100     		.2byte	0x1
 15951 1456 50       		.byte	0x50
 15952 1457 F0150000 		.4byte	.LVL209
 15953 145b 3A160000 		.4byte	.LVL211
 15954 145f 3600     		.2byte	0x36
 15955 1461 75       		.byte	0x75
 15956 1462 00       		.sleb128 0
 15957 1463 76       		.byte	0x76
 15958 1464 00       		.sleb128 0
 15959 1465 21       		.byte	0x21
 15960 1466 78       		.byte	0x78
 15961 1467 00       		.sleb128 0
 15962 1468 1A       		.byte	0x1a
 15963 1469 75       		.byte	0x75
 15964 146a 00       		.sleb128 0
 15965 146b 76       		.byte	0x76
 15966 146c 00       		.sleb128 0
 15967 146d 1A       		.byte	0x1a
 15968 146e 21       		.byte	0x21
 15969 146f 75       		.byte	0x75
 15970 1470 00       		.sleb128 0
 15971 1471 3D       		.byte	0x3d
 15972 1472 14       		.byte	0x14
 15973 1473 14       		.byte	0x14
 15974 1474 1F       		.byte	0x1f
 15975 1475 23       		.byte	0x23
 15976 1476 20       		.uleb128 0x20
 15977 1477 24       		.byte	0x24
 15978 1478 17       		.byte	0x17
 15979 1479 25       		.byte	0x25
 15980 147a 21       		.byte	0x21
 15981 147b 75       		.byte	0x75
ARM GAS  C:\Users\jo\AppData\Local\Temp\ccDsJqTW.s 			page 284


 15982 147c 00       		.sleb128 0
 15983 147d 32       		.byte	0x32
 15984 147e 14       		.byte	0x14
 15985 147f 14       		.byte	0x14
 15986 1480 1F       		.byte	0x1f
 15987 1481 23       		.byte	0x23
 15988 1482 20       		.uleb128 0x20
 15989 1483 24       		.byte	0x24
 15990 1484 17       		.byte	0x17
 15991 1485 25       		.byte	0x25
 15992 1486 21       		.byte	0x21
 15993 1487 27       		.byte	0x27
 15994 1488 75       		.byte	0x75
 15995 1489 00       		.sleb128 0
 15996 148a 3A       		.byte	0x3a
 15997 148b 14       		.byte	0x14
 15998 148c 14       		.byte	0x14
 15999 148d 24       		.byte	0x24
 16000 148e 17       		.byte	0x17
 16001 148f 1F       		.byte	0x1f
 16002 1490 23       		.byte	0x23
 16003 1491 20       		.uleb128 0x20
 16004 1492 25       		.byte	0x25
 16005 1493 21       		.byte	0x21
 16006 1494 27       		.byte	0x27
 16007 1495 22       		.byte	0x22
 16008 1496 9F       		.byte	0x9f
 16009 1497 3A160000 		.4byte	.LVL211
 16010 149b 50160000 		.4byte	.LVL212
 16011 149f 3600     		.2byte	0x36
 16012 14a1 70       		.byte	0x70
 16013 14a2 00       		.sleb128 0
 16014 14a3 75       		.byte	0x75
 16015 14a4 00       		.sleb128 0
 16016 14a5 21       		.byte	0x21
 16017 14a6 76       		.byte	0x76
 16018 14a7 00       		.sleb128 0
 16019 14a8 1A       		.byte	0x1a
 16020 14a9 70       		.byte	0x70
 16021 14aa 00       		.sleb128 0
 16022 14ab 75       		.byte	0x75
 16023 14ac 00       		.sleb128 0
 16024 14ad 1A       		.byte	0x1a
 16025 14ae 21       		.byte	0x21
 16026 14af 70       		.byte	0x70
 16027 14b0 00       		.sleb128 0
 16028 14b1 3D       		.byte	0x3d
 16029 14b2 14       		.byte	0x14
 16030 14b3 14       		.byte	0x14
 16031 14b4 1F       		.byte	0x1f
 16032 14b5 23       		.byte	0x23
 16033 14b6 20       		.uleb128 0x20
 16034 14b7 24       		.byte	0x24
 16035 14b8 17       		.byte	0x17
 16036 14b9 25       		.byte	0x25
 16037 14ba 21       		.byte	0x21
 16038 14bb 70       		.byte	0x70
ARM GAS  C:\Users\jo\AppData\Local\Temp\ccDsJqTW.s 			page 285


 16039 14bc 00       		.sleb128 0
 16040 14bd 32       		.byte	0x32
 16041 14be 14       		.byte	0x14
 16042 14bf 14       		.byte	0x14
 16043 14c0 1F       		.byte	0x1f
 16044 14c1 23       		.byte	0x23
 16045 14c2 20       		.uleb128 0x20
 16046 14c3 24       		.byte	0x24
 16047 14c4 17       		.byte	0x17
 16048 14c5 25       		.byte	0x25
 16049 14c6 21       		.byte	0x21
 16050 14c7 27       		.byte	0x27
 16051 14c8 70       		.byte	0x70
 16052 14c9 00       		.sleb128 0
 16053 14ca 3A       		.byte	0x3a
 16054 14cb 14       		.byte	0x14
 16055 14cc 14       		.byte	0x14
 16056 14cd 24       		.byte	0x24
 16057 14ce 17       		.byte	0x17
 16058 14cf 1F       		.byte	0x1f
 16059 14d0 23       		.byte	0x23
 16060 14d1 20       		.uleb128 0x20
 16061 14d2 25       		.byte	0x25
 16062 14d3 21       		.byte	0x21
 16063 14d4 27       		.byte	0x27
 16064 14d5 22       		.byte	0x22
 16065 14d6 9F       		.byte	0x9f
 16066 14d7 50160000 		.4byte	.LVL212
 16067 14db 5E160000 		.4byte	.LVL213
 16068 14df 0100     		.2byte	0x1
 16069 14e1 5A       		.byte	0x5a
 16070 14e2 5E160000 		.4byte	.LVL213
 16071 14e6 AE160000 		.4byte	.LVL218
 16072 14ea 3600     		.2byte	0x36
 16073 14ec 70       		.byte	0x70
 16074 14ed 00       		.sleb128 0
 16075 14ee 75       		.byte	0x75
 16076 14ef 00       		.sleb128 0
 16077 14f0 21       		.byte	0x21
 16078 14f1 76       		.byte	0x76
 16079 14f2 00       		.sleb128 0
 16080 14f3 1A       		.byte	0x1a
 16081 14f4 70       		.byte	0x70
 16082 14f5 00       		.sleb128 0
 16083 14f6 75       		.byte	0x75
 16084 14f7 00       		.sleb128 0
 16085 14f8 1A       		.byte	0x1a
 16086 14f9 21       		.byte	0x21
 16087 14fa 70       		.byte	0x70
 16088 14fb 00       		.sleb128 0
 16089 14fc 3D       		.byte	0x3d
 16090 14fd 14       		.byte	0x14
 16091 14fe 14       		.byte	0x14
 16092 14ff 1F       		.byte	0x1f
 16093 1500 23       		.byte	0x23
 16094 1501 20       		.uleb128 0x20
 16095 1502 24       		.byte	0x24
ARM GAS  C:\Users\jo\AppData\Local\Temp\ccDsJqTW.s 			page 286


 16096 1503 17       		.byte	0x17
 16097 1504 25       		.byte	0x25
 16098 1505 21       		.byte	0x21
 16099 1506 70       		.byte	0x70
 16100 1507 00       		.sleb128 0
 16101 1508 32       		.byte	0x32
 16102 1509 14       		.byte	0x14
 16103 150a 14       		.byte	0x14
 16104 150b 1F       		.byte	0x1f
 16105 150c 23       		.byte	0x23
 16106 150d 20       		.uleb128 0x20
 16107 150e 24       		.byte	0x24
 16108 150f 17       		.byte	0x17
 16109 1510 25       		.byte	0x25
 16110 1511 21       		.byte	0x21
 16111 1512 27       		.byte	0x27
 16112 1513 70       		.byte	0x70
 16113 1514 00       		.sleb128 0
 16114 1515 3A       		.byte	0x3a
 16115 1516 14       		.byte	0x14
 16116 1517 14       		.byte	0x14
 16117 1518 24       		.byte	0x24
 16118 1519 17       		.byte	0x17
 16119 151a 1F       		.byte	0x1f
 16120 151b 23       		.byte	0x23
 16121 151c 20       		.uleb128 0x20
 16122 151d 25       		.byte	0x25
 16123 151e 21       		.byte	0x21
 16124 151f 27       		.byte	0x27
 16125 1520 22       		.byte	0x22
 16126 1521 9F       		.byte	0x9f
 16127 1522 AE160000 		.4byte	.LVL218
 16128 1526 C4160000 		.4byte	.LVL219
 16129 152a 3600     		.2byte	0x36
 16130 152c 7A       		.byte	0x7a
 16131 152d 00       		.sleb128 0
 16132 152e 70       		.byte	0x70
 16133 152f 00       		.sleb128 0
 16134 1530 21       		.byte	0x21
 16135 1531 75       		.byte	0x75
 16136 1532 00       		.sleb128 0
 16137 1533 1A       		.byte	0x1a
 16138 1534 7A       		.byte	0x7a
 16139 1535 00       		.sleb128 0
 16140 1536 70       		.byte	0x70
 16141 1537 00       		.sleb128 0
 16142 1538 1A       		.byte	0x1a
 16143 1539 21       		.byte	0x21
 16144 153a 7A       		.byte	0x7a
 16145 153b 00       		.sleb128 0
 16146 153c 3D       		.byte	0x3d
 16147 153d 14       		.byte	0x14
 16148 153e 14       		.byte	0x14
 16149 153f 1F       		.byte	0x1f
 16150 1540 23       		.byte	0x23
 16151 1541 20       		.uleb128 0x20
 16152 1542 24       		.byte	0x24
ARM GAS  C:\Users\jo\AppData\Local\Temp\ccDsJqTW.s 			page 287


 16153 1543 17       		.byte	0x17
 16154 1544 25       		.byte	0x25
 16155 1545 21       		.byte	0x21
 16156 1546 7A       		.byte	0x7a
 16157 1547 00       		.sleb128 0
 16158 1548 32       		.byte	0x32
 16159 1549 14       		.byte	0x14
 16160 154a 14       		.byte	0x14
 16161 154b 1F       		.byte	0x1f
 16162 154c 23       		.byte	0x23
 16163 154d 20       		.uleb128 0x20
 16164 154e 24       		.byte	0x24
 16165 154f 17       		.byte	0x17
 16166 1550 25       		.byte	0x25
 16167 1551 21       		.byte	0x21
 16168 1552 27       		.byte	0x27
 16169 1553 7A       		.byte	0x7a
 16170 1554 00       		.sleb128 0
 16171 1555 3A       		.byte	0x3a
 16172 1556 14       		.byte	0x14
 16173 1557 14       		.byte	0x14
 16174 1558 24       		.byte	0x24
 16175 1559 17       		.byte	0x17
 16176 155a 1F       		.byte	0x1f
 16177 155b 23       		.byte	0x23
 16178 155c 20       		.uleb128 0x20
 16179 155d 25       		.byte	0x25
 16180 155e 21       		.byte	0x21
 16181 155f 27       		.byte	0x27
 16182 1560 22       		.byte	0x22
 16183 1561 9F       		.byte	0x9f
 16184 1562 C4160000 		.4byte	.LVL219
 16185 1566 D6160000 		.4byte	.LVL220
 16186 156a 0100     		.2byte	0x1
 16187 156c 5E       		.byte	0x5e
 16188 156d D6160000 		.4byte	.LVL220
 16189 1571 12170000 		.4byte	.LVL223
 16190 1575 3600     		.2byte	0x36
 16191 1577 7A       		.byte	0x7a
 16192 1578 00       		.sleb128 0
 16193 1579 70       		.byte	0x70
 16194 157a 00       		.sleb128 0
 16195 157b 21       		.byte	0x21
 16196 157c 75       		.byte	0x75
 16197 157d 00       		.sleb128 0
 16198 157e 1A       		.byte	0x1a
 16199 157f 7A       		.byte	0x7a
 16200 1580 00       		.sleb128 0
 16201 1581 70       		.byte	0x70
 16202 1582 00       		.sleb128 0
 16203 1583 1A       		.byte	0x1a
 16204 1584 21       		.byte	0x21
 16205 1585 7A       		.byte	0x7a
 16206 1586 00       		.sleb128 0
 16207 1587 3D       		.byte	0x3d
 16208 1588 14       		.byte	0x14
 16209 1589 14       		.byte	0x14
ARM GAS  C:\Users\jo\AppData\Local\Temp\ccDsJqTW.s 			page 288


 16210 158a 1F       		.byte	0x1f
 16211 158b 23       		.byte	0x23
 16212 158c 20       		.uleb128 0x20
 16213 158d 24       		.byte	0x24
 16214 158e 17       		.byte	0x17
 16215 158f 25       		.byte	0x25
 16216 1590 21       		.byte	0x21
 16217 1591 7A       		.byte	0x7a
 16218 1592 00       		.sleb128 0
 16219 1593 32       		.byte	0x32
 16220 1594 14       		.byte	0x14
 16221 1595 14       		.byte	0x14
 16222 1596 1F       		.byte	0x1f
 16223 1597 23       		.byte	0x23
 16224 1598 20       		.uleb128 0x20
 16225 1599 24       		.byte	0x24
 16226 159a 17       		.byte	0x17
 16227 159b 25       		.byte	0x25
 16228 159c 21       		.byte	0x21
 16229 159d 27       		.byte	0x27
 16230 159e 7A       		.byte	0x7a
 16231 159f 00       		.sleb128 0
 16232 15a0 3A       		.byte	0x3a
 16233 15a1 14       		.byte	0x14
 16234 15a2 14       		.byte	0x14
 16235 15a3 24       		.byte	0x24
 16236 15a4 17       		.byte	0x17
 16237 15a5 1F       		.byte	0x1f
 16238 15a6 23       		.byte	0x23
 16239 15a7 20       		.uleb128 0x20
 16240 15a8 25       		.byte	0x25
 16241 15a9 21       		.byte	0x21
 16242 15aa 27       		.byte	0x27
 16243 15ab 22       		.byte	0x22
 16244 15ac 9F       		.byte	0x9f
 16245 15ad 12170000 		.4byte	.LVL223
 16246 15b1 56170000 		.4byte	.LVL225
 16247 15b5 3600     		.2byte	0x36
 16248 15b7 7E       		.byte	0x7e
 16249 15b8 00       		.sleb128 0
 16250 15b9 7A       		.byte	0x7a
 16251 15ba 00       		.sleb128 0
 16252 15bb 21       		.byte	0x21
 16253 15bc 70       		.byte	0x70
 16254 15bd 00       		.sleb128 0
 16255 15be 1A       		.byte	0x1a
 16256 15bf 7E       		.byte	0x7e
 16257 15c0 00       		.sleb128 0
 16258 15c1 7A       		.byte	0x7a
 16259 15c2 00       		.sleb128 0
 16260 15c3 1A       		.byte	0x1a
 16261 15c4 21       		.byte	0x21
 16262 15c5 7E       		.byte	0x7e
 16263 15c6 00       		.sleb128 0
 16264 15c7 3D       		.byte	0x3d
 16265 15c8 14       		.byte	0x14
 16266 15c9 14       		.byte	0x14
ARM GAS  C:\Users\jo\AppData\Local\Temp\ccDsJqTW.s 			page 289


 16267 15ca 1F       		.byte	0x1f
 16268 15cb 23       		.byte	0x23
 16269 15cc 20       		.uleb128 0x20
 16270 15cd 24       		.byte	0x24
 16271 15ce 17       		.byte	0x17
 16272 15cf 25       		.byte	0x25
 16273 15d0 21       		.byte	0x21
 16274 15d1 7E       		.byte	0x7e
 16275 15d2 00       		.sleb128 0
 16276 15d3 32       		.byte	0x32
 16277 15d4 14       		.byte	0x14
 16278 15d5 14       		.byte	0x14
 16279 15d6 1F       		.byte	0x1f
 16280 15d7 23       		.byte	0x23
 16281 15d8 20       		.uleb128 0x20
 16282 15d9 24       		.byte	0x24
 16283 15da 17       		.byte	0x17
 16284 15db 25       		.byte	0x25
 16285 15dc 21       		.byte	0x21
 16286 15dd 27       		.byte	0x27
 16287 15de 7E       		.byte	0x7e
 16288 15df 00       		.sleb128 0
 16289 15e0 3A       		.byte	0x3a
 16290 15e1 14       		.byte	0x14
 16291 15e2 14       		.byte	0x14
 16292 15e3 24       		.byte	0x24
 16293 15e4 17       		.byte	0x17
 16294 15e5 1F       		.byte	0x1f
 16295 15e6 23       		.byte	0x23
 16296 15e7 20       		.uleb128 0x20
 16297 15e8 25       		.byte	0x25
 16298 15e9 21       		.byte	0x21
 16299 15ea 27       		.byte	0x27
 16300 15eb 22       		.byte	0x22
 16301 15ec 9F       		.byte	0x9f
 16302 15ed 56170000 		.4byte	.LVL225
 16303 15f1 5C170000 		.4byte	.LVL226
 16304 15f5 0100     		.2byte	0x1
 16305 15f7 51       		.byte	0x51
 16306 15f8 5C170000 		.4byte	.LVL226
 16307 15fc A8170000 		.4byte	.LVL229
 16308 1600 3600     		.2byte	0x36
 16309 1602 7E       		.byte	0x7e
 16310 1603 00       		.sleb128 0
 16311 1604 7A       		.byte	0x7a
 16312 1605 00       		.sleb128 0
 16313 1606 21       		.byte	0x21
 16314 1607 70       		.byte	0x70
 16315 1608 00       		.sleb128 0
 16316 1609 1A       		.byte	0x1a
 16317 160a 7E       		.byte	0x7e
 16318 160b 00       		.sleb128 0
 16319 160c 7A       		.byte	0x7a
 16320 160d 00       		.sleb128 0
 16321 160e 1A       		.byte	0x1a
 16322 160f 21       		.byte	0x21
 16323 1610 7E       		.byte	0x7e
ARM GAS  C:\Users\jo\AppData\Local\Temp\ccDsJqTW.s 			page 290


 16324 1611 00       		.sleb128 0
 16325 1612 3D       		.byte	0x3d
 16326 1613 14       		.byte	0x14
 16327 1614 14       		.byte	0x14
 16328 1615 1F       		.byte	0x1f
 16329 1616 23       		.byte	0x23
 16330 1617 20       		.uleb128 0x20
 16331 1618 24       		.byte	0x24
 16332 1619 17       		.byte	0x17
 16333 161a 25       		.byte	0x25
 16334 161b 21       		.byte	0x21
 16335 161c 7E       		.byte	0x7e
 16336 161d 00       		.sleb128 0
 16337 161e 32       		.byte	0x32
 16338 161f 14       		.byte	0x14
 16339 1620 14       		.byte	0x14
 16340 1621 1F       		.byte	0x1f
 16341 1622 23       		.byte	0x23
 16342 1623 20       		.uleb128 0x20
 16343 1624 24       		.byte	0x24
 16344 1625 17       		.byte	0x17
 16345 1626 25       		.byte	0x25
 16346 1627 21       		.byte	0x21
 16347 1628 27       		.byte	0x27
 16348 1629 7E       		.byte	0x7e
 16349 162a 00       		.sleb128 0
 16350 162b 3A       		.byte	0x3a
 16351 162c 14       		.byte	0x14
 16352 162d 14       		.byte	0x14
 16353 162e 24       		.byte	0x24
 16354 162f 17       		.byte	0x17
 16355 1630 1F       		.byte	0x1f
 16356 1631 23       		.byte	0x23
 16357 1632 20       		.uleb128 0x20
 16358 1633 25       		.byte	0x25
 16359 1634 21       		.byte	0x21
 16360 1635 27       		.byte	0x27
 16361 1636 22       		.byte	0x22
 16362 1637 9F       		.byte	0x9f
 16363 1638 A8170000 		.4byte	.LVL229
 16364 163c CA170000 		.4byte	.LVL230
 16365 1640 3600     		.2byte	0x36
 16366 1642 71       		.byte	0x71
 16367 1643 00       		.sleb128 0
 16368 1644 7E       		.byte	0x7e
 16369 1645 00       		.sleb128 0
 16370 1646 21       		.byte	0x21
 16371 1647 7A       		.byte	0x7a
 16372 1648 00       		.sleb128 0
 16373 1649 1A       		.byte	0x1a
 16374 164a 71       		.byte	0x71
 16375 164b 00       		.sleb128 0
 16376 164c 7E       		.byte	0x7e
 16377 164d 00       		.sleb128 0
 16378 164e 1A       		.byte	0x1a
 16379 164f 21       		.byte	0x21
 16380 1650 71       		.byte	0x71
ARM GAS  C:\Users\jo\AppData\Local\Temp\ccDsJqTW.s 			page 291


 16381 1651 00       		.sleb128 0
 16382 1652 3D       		.byte	0x3d
 16383 1653 14       		.byte	0x14
 16384 1654 14       		.byte	0x14
 16385 1655 1F       		.byte	0x1f
 16386 1656 23       		.byte	0x23
 16387 1657 20       		.uleb128 0x20
 16388 1658 24       		.byte	0x24
 16389 1659 17       		.byte	0x17
 16390 165a 25       		.byte	0x25
 16391 165b 21       		.byte	0x21
 16392 165c 71       		.byte	0x71
 16393 165d 00       		.sleb128 0
 16394 165e 32       		.byte	0x32
 16395 165f 14       		.byte	0x14
 16396 1660 14       		.byte	0x14
 16397 1661 1F       		.byte	0x1f
 16398 1662 23       		.byte	0x23
 16399 1663 20       		.uleb128 0x20
 16400 1664 24       		.byte	0x24
 16401 1665 17       		.byte	0x17
 16402 1666 25       		.byte	0x25
 16403 1667 21       		.byte	0x21
 16404 1668 27       		.byte	0x27
 16405 1669 71       		.byte	0x71
 16406 166a 00       		.sleb128 0
 16407 166b 3A       		.byte	0x3a
 16408 166c 14       		.byte	0x14
 16409 166d 14       		.byte	0x14
 16410 166e 24       		.byte	0x24
 16411 166f 17       		.byte	0x17
 16412 1670 1F       		.byte	0x1f
 16413 1671 23       		.byte	0x23
 16414 1672 20       		.uleb128 0x20
 16415 1673 25       		.byte	0x25
 16416 1674 21       		.byte	0x21
 16417 1675 27       		.byte	0x27
 16418 1676 22       		.byte	0x22
 16419 1677 9F       		.byte	0x9f
 16420 1678 CA170000 		.4byte	.LVL230
 16421 167c CE170000 		.4byte	.LVL232
 16422 1680 0100     		.2byte	0x1
 16423 1682 5C       		.byte	0x5c
 16424 1683 CE170000 		.4byte	.LVL232
 16425 1687 06180000 		.4byte	.LVL235
 16426 168b 3600     		.2byte	0x36
 16427 168d 71       		.byte	0x71
 16428 168e 00       		.sleb128 0
 16429 168f 7E       		.byte	0x7e
 16430 1690 00       		.sleb128 0
 16431 1691 21       		.byte	0x21
 16432 1692 7A       		.byte	0x7a
 16433 1693 00       		.sleb128 0
 16434 1694 1A       		.byte	0x1a
 16435 1695 71       		.byte	0x71
 16436 1696 00       		.sleb128 0
 16437 1697 7E       		.byte	0x7e
ARM GAS  C:\Users\jo\AppData\Local\Temp\ccDsJqTW.s 			page 292


 16438 1698 00       		.sleb128 0
 16439 1699 1A       		.byte	0x1a
 16440 169a 21       		.byte	0x21
 16441 169b 71       		.byte	0x71
 16442 169c 00       		.sleb128 0
 16443 169d 3D       		.byte	0x3d
 16444 169e 14       		.byte	0x14
 16445 169f 14       		.byte	0x14
 16446 16a0 1F       		.byte	0x1f
 16447 16a1 23       		.byte	0x23
 16448 16a2 20       		.uleb128 0x20
 16449 16a3 24       		.byte	0x24
 16450 16a4 17       		.byte	0x17
 16451 16a5 25       		.byte	0x25
 16452 16a6 21       		.byte	0x21
 16453 16a7 71       		.byte	0x71
 16454 16a8 00       		.sleb128 0
 16455 16a9 32       		.byte	0x32
 16456 16aa 14       		.byte	0x14
 16457 16ab 14       		.byte	0x14
 16458 16ac 1F       		.byte	0x1f
 16459 16ad 23       		.byte	0x23
 16460 16ae 20       		.uleb128 0x20
 16461 16af 24       		.byte	0x24
 16462 16b0 17       		.byte	0x17
 16463 16b1 25       		.byte	0x25
 16464 16b2 21       		.byte	0x21
 16465 16b3 27       		.byte	0x27
 16466 16b4 71       		.byte	0x71
 16467 16b5 00       		.sleb128 0
 16468 16b6 3A       		.byte	0x3a
 16469 16b7 14       		.byte	0x14
 16470 16b8 14       		.byte	0x14
 16471 16b9 24       		.byte	0x24
 16472 16ba 17       		.byte	0x17
 16473 16bb 1F       		.byte	0x1f
 16474 16bc 23       		.byte	0x23
 16475 16bd 20       		.uleb128 0x20
 16476 16be 25       		.byte	0x25
 16477 16bf 21       		.byte	0x21
 16478 16c0 27       		.byte	0x27
 16479 16c1 22       		.byte	0x22
 16480 16c2 9F       		.byte	0x9f
 16481 16c3 06180000 		.4byte	.LVL235
 16482 16c7 28180000 		.4byte	.LVL236
 16483 16cb 3600     		.2byte	0x36
 16484 16cd 7C       		.byte	0x7c
 16485 16ce 00       		.sleb128 0
 16486 16cf 71       		.byte	0x71
 16487 16d0 00       		.sleb128 0
 16488 16d1 21       		.byte	0x21
 16489 16d2 7E       		.byte	0x7e
 16490 16d3 00       		.sleb128 0
 16491 16d4 1A       		.byte	0x1a
 16492 16d5 7C       		.byte	0x7c
 16493 16d6 00       		.sleb128 0
 16494 16d7 71       		.byte	0x71
ARM GAS  C:\Users\jo\AppData\Local\Temp\ccDsJqTW.s 			page 293


 16495 16d8 00       		.sleb128 0
 16496 16d9 1A       		.byte	0x1a
 16497 16da 21       		.byte	0x21
 16498 16db 7C       		.byte	0x7c
 16499 16dc 00       		.sleb128 0
 16500 16dd 3D       		.byte	0x3d
 16501 16de 14       		.byte	0x14
 16502 16df 14       		.byte	0x14
 16503 16e0 1F       		.byte	0x1f
 16504 16e1 23       		.byte	0x23
 16505 16e2 20       		.uleb128 0x20
 16506 16e3 24       		.byte	0x24
 16507 16e4 17       		.byte	0x17
 16508 16e5 25       		.byte	0x25
 16509 16e6 21       		.byte	0x21
 16510 16e7 7C       		.byte	0x7c
 16511 16e8 00       		.sleb128 0
 16512 16e9 32       		.byte	0x32
 16513 16ea 14       		.byte	0x14
 16514 16eb 14       		.byte	0x14
 16515 16ec 1F       		.byte	0x1f
 16516 16ed 23       		.byte	0x23
 16517 16ee 20       		.uleb128 0x20
 16518 16ef 24       		.byte	0x24
 16519 16f0 17       		.byte	0x17
 16520 16f1 25       		.byte	0x25
 16521 16f2 21       		.byte	0x21
 16522 16f3 27       		.byte	0x27
 16523 16f4 7C       		.byte	0x7c
 16524 16f5 00       		.sleb128 0
 16525 16f6 3A       		.byte	0x3a
 16526 16f7 14       		.byte	0x14
 16527 16f8 14       		.byte	0x14
 16528 16f9 24       		.byte	0x24
 16529 16fa 17       		.byte	0x17
 16530 16fb 1F       		.byte	0x1f
 16531 16fc 23       		.byte	0x23
 16532 16fd 20       		.uleb128 0x20
 16533 16fe 25       		.byte	0x25
 16534 16ff 21       		.byte	0x21
 16535 1700 27       		.byte	0x27
 16536 1701 22       		.byte	0x22
 16537 1702 9F       		.byte	0x9f
 16538 1703 28180000 		.4byte	.LVL236
 16539 1707 36180000 		.4byte	.LVL238
 16540 170b 0100     		.2byte	0x1
 16541 170d 5B       		.byte	0x5b
 16542 170e 36180000 		.4byte	.LVL238
 16543 1712 76180000 		.4byte	.LVL241
 16544 1716 3600     		.2byte	0x36
 16545 1718 7C       		.byte	0x7c
 16546 1719 00       		.sleb128 0
 16547 171a 71       		.byte	0x71
 16548 171b 00       		.sleb128 0
 16549 171c 21       		.byte	0x21
 16550 171d 7E       		.byte	0x7e
 16551 171e 00       		.sleb128 0
ARM GAS  C:\Users\jo\AppData\Local\Temp\ccDsJqTW.s 			page 294


 16552 171f 1A       		.byte	0x1a
 16553 1720 7C       		.byte	0x7c
 16554 1721 00       		.sleb128 0
 16555 1722 71       		.byte	0x71
 16556 1723 00       		.sleb128 0
 16557 1724 1A       		.byte	0x1a
 16558 1725 21       		.byte	0x21
 16559 1726 7C       		.byte	0x7c
 16560 1727 00       		.sleb128 0
 16561 1728 3D       		.byte	0x3d
 16562 1729 14       		.byte	0x14
 16563 172a 14       		.byte	0x14
 16564 172b 1F       		.byte	0x1f
 16565 172c 23       		.byte	0x23
 16566 172d 20       		.uleb128 0x20
 16567 172e 24       		.byte	0x24
 16568 172f 17       		.byte	0x17
 16569 1730 25       		.byte	0x25
 16570 1731 21       		.byte	0x21
 16571 1732 7C       		.byte	0x7c
 16572 1733 00       		.sleb128 0
 16573 1734 32       		.byte	0x32
 16574 1735 14       		.byte	0x14
 16575 1736 14       		.byte	0x14
 16576 1737 1F       		.byte	0x1f
 16577 1738 23       		.byte	0x23
 16578 1739 20       		.uleb128 0x20
 16579 173a 24       		.byte	0x24
 16580 173b 17       		.byte	0x17
 16581 173c 25       		.byte	0x25
 16582 173d 21       		.byte	0x21
 16583 173e 27       		.byte	0x27
 16584 173f 7C       		.byte	0x7c
 16585 1740 00       		.sleb128 0
 16586 1741 3A       		.byte	0x3a
 16587 1742 14       		.byte	0x14
 16588 1743 14       		.byte	0x14
 16589 1744 24       		.byte	0x24
 16590 1745 17       		.byte	0x17
 16591 1746 1F       		.byte	0x1f
 16592 1747 23       		.byte	0x23
 16593 1748 20       		.uleb128 0x20
 16594 1749 25       		.byte	0x25
 16595 174a 21       		.byte	0x21
 16596 174b 27       		.byte	0x27
 16597 174c 22       		.byte	0x22
 16598 174d 9F       		.byte	0x9f
 16599 174e 76180000 		.4byte	.LVL241
 16600 1752 96180000 		.4byte	.LVL242
 16601 1756 3600     		.2byte	0x36
 16602 1758 7B       		.byte	0x7b
 16603 1759 00       		.sleb128 0
 16604 175a 7C       		.byte	0x7c
 16605 175b 00       		.sleb128 0
 16606 175c 21       		.byte	0x21
 16607 175d 71       		.byte	0x71
 16608 175e 00       		.sleb128 0
ARM GAS  C:\Users\jo\AppData\Local\Temp\ccDsJqTW.s 			page 295


 16609 175f 1A       		.byte	0x1a
 16610 1760 7B       		.byte	0x7b
 16611 1761 00       		.sleb128 0
 16612 1762 7C       		.byte	0x7c
 16613 1763 00       		.sleb128 0
 16614 1764 1A       		.byte	0x1a
 16615 1765 21       		.byte	0x21
 16616 1766 7B       		.byte	0x7b
 16617 1767 00       		.sleb128 0
 16618 1768 3D       		.byte	0x3d
 16619 1769 14       		.byte	0x14
 16620 176a 14       		.byte	0x14
 16621 176b 1F       		.byte	0x1f
 16622 176c 23       		.byte	0x23
 16623 176d 20       		.uleb128 0x20
 16624 176e 24       		.byte	0x24
 16625 176f 17       		.byte	0x17
 16626 1770 25       		.byte	0x25
 16627 1771 21       		.byte	0x21
 16628 1772 7B       		.byte	0x7b
 16629 1773 00       		.sleb128 0
 16630 1774 32       		.byte	0x32
 16631 1775 14       		.byte	0x14
 16632 1776 14       		.byte	0x14
 16633 1777 1F       		.byte	0x1f
 16634 1778 23       		.byte	0x23
 16635 1779 20       		.uleb128 0x20
 16636 177a 24       		.byte	0x24
 16637 177b 17       		.byte	0x17
 16638 177c 25       		.byte	0x25
 16639 177d 21       		.byte	0x21
 16640 177e 27       		.byte	0x27
 16641 177f 7B       		.byte	0x7b
 16642 1780 00       		.sleb128 0
 16643 1781 3A       		.byte	0x3a
 16644 1782 14       		.byte	0x14
 16645 1783 14       		.byte	0x14
 16646 1784 24       		.byte	0x24
 16647 1785 17       		.byte	0x17
 16648 1786 1F       		.byte	0x1f
 16649 1787 23       		.byte	0x23
 16650 1788 20       		.uleb128 0x20
 16651 1789 25       		.byte	0x25
 16652 178a 21       		.byte	0x21
 16653 178b 27       		.byte	0x27
 16654 178c 22       		.byte	0x22
 16655 178d 9F       		.byte	0x9f
 16656 178e 96180000 		.4byte	.LVL242
 16657 1792 9C180000 		.4byte	.LVL243
 16658 1796 0100     		.2byte	0x1
 16659 1798 56       		.byte	0x56
 16660 1799 9C180000 		.4byte	.LVL243
 16661 179d D2180000 		.4byte	.LVL247
 16662 17a1 3600     		.2byte	0x36
 16663 17a3 7B       		.byte	0x7b
 16664 17a4 00       		.sleb128 0
 16665 17a5 7C       		.byte	0x7c
ARM GAS  C:\Users\jo\AppData\Local\Temp\ccDsJqTW.s 			page 296


 16666 17a6 00       		.sleb128 0
 16667 17a7 21       		.byte	0x21
 16668 17a8 71       		.byte	0x71
 16669 17a9 00       		.sleb128 0
 16670 17aa 1A       		.byte	0x1a
 16671 17ab 7B       		.byte	0x7b
 16672 17ac 00       		.sleb128 0
 16673 17ad 7C       		.byte	0x7c
 16674 17ae 00       		.sleb128 0
 16675 17af 1A       		.byte	0x1a
 16676 17b0 21       		.byte	0x21
 16677 17b1 7B       		.byte	0x7b
 16678 17b2 00       		.sleb128 0
 16679 17b3 3D       		.byte	0x3d
 16680 17b4 14       		.byte	0x14
 16681 17b5 14       		.byte	0x14
 16682 17b6 1F       		.byte	0x1f
 16683 17b7 23       		.byte	0x23
 16684 17b8 20       		.uleb128 0x20
 16685 17b9 24       		.byte	0x24
 16686 17ba 17       		.byte	0x17
 16687 17bb 25       		.byte	0x25
 16688 17bc 21       		.byte	0x21
 16689 17bd 7B       		.byte	0x7b
 16690 17be 00       		.sleb128 0
 16691 17bf 32       		.byte	0x32
 16692 17c0 14       		.byte	0x14
 16693 17c1 14       		.byte	0x14
 16694 17c2 1F       		.byte	0x1f
 16695 17c3 23       		.byte	0x23
 16696 17c4 20       		.uleb128 0x20
 16697 17c5 24       		.byte	0x24
 16698 17c6 17       		.byte	0x17
 16699 17c7 25       		.byte	0x25
 16700 17c8 21       		.byte	0x21
 16701 17c9 27       		.byte	0x27
 16702 17ca 7B       		.byte	0x7b
 16703 17cb 00       		.sleb128 0
 16704 17cc 3A       		.byte	0x3a
 16705 17cd 14       		.byte	0x14
 16706 17ce 14       		.byte	0x14
 16707 17cf 24       		.byte	0x24
 16708 17d0 17       		.byte	0x17
 16709 17d1 1F       		.byte	0x1f
 16710 17d2 23       		.byte	0x23
 16711 17d3 20       		.uleb128 0x20
 16712 17d4 25       		.byte	0x25
 16713 17d5 21       		.byte	0x21
 16714 17d6 27       		.byte	0x27
 16715 17d7 22       		.byte	0x22
 16716 17d8 9F       		.byte	0x9f
 16717 17d9 D2180000 		.4byte	.LVL247
 16718 17dd 00190000 		.4byte	.LVL248
 16719 17e1 3600     		.2byte	0x36
 16720 17e3 76       		.byte	0x76
 16721 17e4 00       		.sleb128 0
 16722 17e5 7B       		.byte	0x7b
ARM GAS  C:\Users\jo\AppData\Local\Temp\ccDsJqTW.s 			page 297


 16723 17e6 00       		.sleb128 0
 16724 17e7 21       		.byte	0x21
 16725 17e8 7C       		.byte	0x7c
 16726 17e9 00       		.sleb128 0
 16727 17ea 1A       		.byte	0x1a
 16728 17eb 76       		.byte	0x76
 16729 17ec 00       		.sleb128 0
 16730 17ed 7B       		.byte	0x7b
 16731 17ee 00       		.sleb128 0
 16732 17ef 1A       		.byte	0x1a
 16733 17f0 21       		.byte	0x21
 16734 17f1 76       		.byte	0x76
 16735 17f2 00       		.sleb128 0
 16736 17f3 3D       		.byte	0x3d
 16737 17f4 14       		.byte	0x14
 16738 17f5 14       		.byte	0x14
 16739 17f6 1F       		.byte	0x1f
 16740 17f7 23       		.byte	0x23
 16741 17f8 20       		.uleb128 0x20
 16742 17f9 24       		.byte	0x24
 16743 17fa 17       		.byte	0x17
 16744 17fb 25       		.byte	0x25
 16745 17fc 21       		.byte	0x21
 16746 17fd 76       		.byte	0x76
 16747 17fe 00       		.sleb128 0
 16748 17ff 32       		.byte	0x32
 16749 1800 14       		.byte	0x14
 16750 1801 14       		.byte	0x14
 16751 1802 1F       		.byte	0x1f
 16752 1803 23       		.byte	0x23
 16753 1804 20       		.uleb128 0x20
 16754 1805 24       		.byte	0x24
 16755 1806 17       		.byte	0x17
 16756 1807 25       		.byte	0x25
 16757 1808 21       		.byte	0x21
 16758 1809 27       		.byte	0x27
 16759 180a 76       		.byte	0x76
 16760 180b 00       		.sleb128 0
 16761 180c 3A       		.byte	0x3a
 16762 180d 14       		.byte	0x14
 16763 180e 14       		.byte	0x14
 16764 180f 24       		.byte	0x24
 16765 1810 17       		.byte	0x17
 16766 1811 1F       		.byte	0x1f
 16767 1812 23       		.byte	0x23
 16768 1813 20       		.uleb128 0x20
 16769 1814 25       		.byte	0x25
 16770 1815 21       		.byte	0x21
 16771 1816 27       		.byte	0x27
 16772 1817 22       		.byte	0x22
 16773 1818 9F       		.byte	0x9f
 16774 1819 00190000 		.4byte	.LVL248
 16775 181d 20190000 		.4byte	.LVL250
 16776 1821 0100     		.2byte	0x1
 16777 1823 53       		.byte	0x53
 16778 1824 20190000 		.4byte	.LVL250
 16779 1828 4C190000 		.4byte	.LVL253
ARM GAS  C:\Users\jo\AppData\Local\Temp\ccDsJqTW.s 			page 298


 16780 182c 3600     		.2byte	0x36
 16781 182e 76       		.byte	0x76
 16782 182f 00       		.sleb128 0
 16783 1830 7B       		.byte	0x7b
 16784 1831 00       		.sleb128 0
 16785 1832 21       		.byte	0x21
 16786 1833 7C       		.byte	0x7c
 16787 1834 00       		.sleb128 0
 16788 1835 1A       		.byte	0x1a
 16789 1836 76       		.byte	0x76
 16790 1837 00       		.sleb128 0
 16791 1838 7B       		.byte	0x7b
 16792 1839 00       		.sleb128 0
 16793 183a 1A       		.byte	0x1a
 16794 183b 21       		.byte	0x21
 16795 183c 76       		.byte	0x76
 16796 183d 00       		.sleb128 0
 16797 183e 3D       		.byte	0x3d
 16798 183f 14       		.byte	0x14
 16799 1840 14       		.byte	0x14
 16800 1841 1F       		.byte	0x1f
 16801 1842 23       		.byte	0x23
 16802 1843 20       		.uleb128 0x20
 16803 1844 24       		.byte	0x24
 16804 1845 17       		.byte	0x17
 16805 1846 25       		.byte	0x25
 16806 1847 21       		.byte	0x21
 16807 1848 76       		.byte	0x76
 16808 1849 00       		.sleb128 0
 16809 184a 32       		.byte	0x32
 16810 184b 14       		.byte	0x14
 16811 184c 14       		.byte	0x14
 16812 184d 1F       		.byte	0x1f
 16813 184e 23       		.byte	0x23
 16814 184f 20       		.uleb128 0x20
 16815 1850 24       		.byte	0x24
 16816 1851 17       		.byte	0x17
 16817 1852 25       		.byte	0x25
 16818 1853 21       		.byte	0x21
 16819 1854 27       		.byte	0x27
 16820 1855 76       		.byte	0x76
 16821 1856 00       		.sleb128 0
 16822 1857 3A       		.byte	0x3a
 16823 1858 14       		.byte	0x14
 16824 1859 14       		.byte	0x14
 16825 185a 24       		.byte	0x24
 16826 185b 17       		.byte	0x17
 16827 185c 1F       		.byte	0x1f
 16828 185d 23       		.byte	0x23
 16829 185e 20       		.uleb128 0x20
 16830 185f 25       		.byte	0x25
 16831 1860 21       		.byte	0x21
 16832 1861 27       		.byte	0x27
 16833 1862 22       		.byte	0x22
 16834 1863 9F       		.byte	0x9f
 16835 1864 4C190000 		.4byte	.LVL253
 16836 1868 6C190000 		.4byte	.LVL254
ARM GAS  C:\Users\jo\AppData\Local\Temp\ccDsJqTW.s 			page 299


 16837 186c 3600     		.2byte	0x36
 16838 186e 73       		.byte	0x73
 16839 186f 00       		.sleb128 0
 16840 1870 76       		.byte	0x76
 16841 1871 00       		.sleb128 0
 16842 1872 21       		.byte	0x21
 16843 1873 7B       		.byte	0x7b
 16844 1874 00       		.sleb128 0
 16845 1875 1A       		.byte	0x1a
 16846 1876 73       		.byte	0x73
 16847 1877 00       		.sleb128 0
 16848 1878 76       		.byte	0x76
 16849 1879 00       		.sleb128 0
 16850 187a 1A       		.byte	0x1a
 16851 187b 21       		.byte	0x21
 16852 187c 73       		.byte	0x73
 16853 187d 00       		.sleb128 0
 16854 187e 3D       		.byte	0x3d
 16855 187f 14       		.byte	0x14
 16856 1880 14       		.byte	0x14
 16857 1881 1F       		.byte	0x1f
 16858 1882 23       		.byte	0x23
 16859 1883 20       		.uleb128 0x20
 16860 1884 24       		.byte	0x24
 16861 1885 17       		.byte	0x17
 16862 1886 25       		.byte	0x25
 16863 1887 21       		.byte	0x21
 16864 1888 73       		.byte	0x73
 16865 1889 00       		.sleb128 0
 16866 188a 32       		.byte	0x32
 16867 188b 14       		.byte	0x14
 16868 188c 14       		.byte	0x14
 16869 188d 1F       		.byte	0x1f
 16870 188e 23       		.byte	0x23
 16871 188f 20       		.uleb128 0x20
 16872 1890 24       		.byte	0x24
 16873 1891 17       		.byte	0x17
 16874 1892 25       		.byte	0x25
 16875 1893 21       		.byte	0x21
 16876 1894 27       		.byte	0x27
 16877 1895 73       		.byte	0x73
 16878 1896 00       		.sleb128 0
 16879 1897 3A       		.byte	0x3a
 16880 1898 14       		.byte	0x14
 16881 1899 14       		.byte	0x14
 16882 189a 24       		.byte	0x24
 16883 189b 17       		.byte	0x17
 16884 189c 1F       		.byte	0x1f
 16885 189d 23       		.byte	0x23
 16886 189e 20       		.uleb128 0x20
 16887 189f 25       		.byte	0x25
 16888 18a0 21       		.byte	0x21
 16889 18a1 27       		.byte	0x27
 16890 18a2 22       		.byte	0x22
 16891 18a3 9F       		.byte	0x9f
 16892 18a4 6C190000 		.4byte	.LVL254
 16893 18a8 AE190000 		.4byte	.LVL256
ARM GAS  C:\Users\jo\AppData\Local\Temp\ccDsJqTW.s 			page 300


 16894 18ac 0100     		.2byte	0x1
 16895 18ae 52       		.byte	0x52
 16896 18af AE190000 		.4byte	.LVL256
 16897 18b3 D4190000 		.4byte	.LVL259
 16898 18b7 3600     		.2byte	0x36
 16899 18b9 73       		.byte	0x73
 16900 18ba 00       		.sleb128 0
 16901 18bb 76       		.byte	0x76
 16902 18bc 00       		.sleb128 0
 16903 18bd 21       		.byte	0x21
 16904 18be 7B       		.byte	0x7b
 16905 18bf 00       		.sleb128 0
 16906 18c0 1A       		.byte	0x1a
 16907 18c1 73       		.byte	0x73
 16908 18c2 00       		.sleb128 0
 16909 18c3 76       		.byte	0x76
 16910 18c4 00       		.sleb128 0
 16911 18c5 1A       		.byte	0x1a
 16912 18c6 21       		.byte	0x21
 16913 18c7 73       		.byte	0x73
 16914 18c8 00       		.sleb128 0
 16915 18c9 3D       		.byte	0x3d
 16916 18ca 14       		.byte	0x14
 16917 18cb 14       		.byte	0x14
 16918 18cc 1F       		.byte	0x1f
 16919 18cd 23       		.byte	0x23
 16920 18ce 20       		.uleb128 0x20
 16921 18cf 24       		.byte	0x24
 16922 18d0 17       		.byte	0x17
 16923 18d1 25       		.byte	0x25
 16924 18d2 21       		.byte	0x21
 16925 18d3 73       		.byte	0x73
 16926 18d4 00       		.sleb128 0
 16927 18d5 32       		.byte	0x32
 16928 18d6 14       		.byte	0x14
 16929 18d7 14       		.byte	0x14
 16930 18d8 1F       		.byte	0x1f
 16931 18d9 23       		.byte	0x23
 16932 18da 20       		.uleb128 0x20
 16933 18db 24       		.byte	0x24
 16934 18dc 17       		.byte	0x17
 16935 18dd 25       		.byte	0x25
 16936 18de 21       		.byte	0x21
 16937 18df 27       		.byte	0x27
 16938 18e0 73       		.byte	0x73
 16939 18e1 00       		.sleb128 0
 16940 18e2 3A       		.byte	0x3a
 16941 18e3 14       		.byte	0x14
 16942 18e4 14       		.byte	0x14
 16943 18e5 24       		.byte	0x24
 16944 18e6 17       		.byte	0x17
 16945 18e7 1F       		.byte	0x1f
 16946 18e8 23       		.byte	0x23
 16947 18e9 20       		.uleb128 0x20
 16948 18ea 25       		.byte	0x25
 16949 18eb 21       		.byte	0x21
 16950 18ec 27       		.byte	0x27
ARM GAS  C:\Users\jo\AppData\Local\Temp\ccDsJqTW.s 			page 301


 16951 18ed 22       		.byte	0x22
 16952 18ee 9F       		.byte	0x9f
 16953 18ef D4190000 		.4byte	.LVL259
 16954 18f3 021A0000 		.4byte	.LVL260
 16955 18f7 3600     		.2byte	0x36
 16956 18f9 72       		.byte	0x72
 16957 18fa 00       		.sleb128 0
 16958 18fb 73       		.byte	0x73
 16959 18fc 00       		.sleb128 0
 16960 18fd 21       		.byte	0x21
 16961 18fe 76       		.byte	0x76
 16962 18ff 00       		.sleb128 0
 16963 1900 1A       		.byte	0x1a
 16964 1901 72       		.byte	0x72
 16965 1902 00       		.sleb128 0
 16966 1903 73       		.byte	0x73
 16967 1904 00       		.sleb128 0
 16968 1905 1A       		.byte	0x1a
 16969 1906 21       		.byte	0x21
 16970 1907 72       		.byte	0x72
 16971 1908 00       		.sleb128 0
 16972 1909 3D       		.byte	0x3d
 16973 190a 14       		.byte	0x14
 16974 190b 14       		.byte	0x14
 16975 190c 1F       		.byte	0x1f
 16976 190d 23       		.byte	0x23
 16977 190e 20       		.uleb128 0x20
 16978 190f 24       		.byte	0x24
 16979 1910 17       		.byte	0x17
 16980 1911 25       		.byte	0x25
 16981 1912 21       		.byte	0x21
 16982 1913 72       		.byte	0x72
 16983 1914 00       		.sleb128 0
 16984 1915 32       		.byte	0x32
 16985 1916 14       		.byte	0x14
 16986 1917 14       		.byte	0x14
 16987 1918 1F       		.byte	0x1f
 16988 1919 23       		.byte	0x23
 16989 191a 20       		.uleb128 0x20
 16990 191b 24       		.byte	0x24
 16991 191c 17       		.byte	0x17
 16992 191d 25       		.byte	0x25
 16993 191e 21       		.byte	0x21
 16994 191f 27       		.byte	0x27
 16995 1920 72       		.byte	0x72
 16996 1921 00       		.sleb128 0
 16997 1922 3A       		.byte	0x3a
 16998 1923 14       		.byte	0x14
 16999 1924 14       		.byte	0x14
 17000 1925 24       		.byte	0x24
 17001 1926 17       		.byte	0x17
 17002 1927 1F       		.byte	0x1f
 17003 1928 23       		.byte	0x23
 17004 1929 20       		.uleb128 0x20
 17005 192a 25       		.byte	0x25
 17006 192b 21       		.byte	0x21
 17007 192c 27       		.byte	0x27
ARM GAS  C:\Users\jo\AppData\Local\Temp\ccDsJqTW.s 			page 302


 17008 192d 22       		.byte	0x22
 17009 192e 9F       		.byte	0x9f
 17010 192f 021A0000 		.4byte	.LVL260
 17011 1933 201A0000 		.4byte	.LVL262
 17012 1937 0100     		.2byte	0x1
 17013 1939 50       		.byte	0x50
 17014 193a 201A0000 		.4byte	.LVL262
 17015 193e 4E1A0000 		.4byte	.LVL265
 17016 1942 3600     		.2byte	0x36
 17017 1944 72       		.byte	0x72
 17018 1945 00       		.sleb128 0
 17019 1946 73       		.byte	0x73
 17020 1947 00       		.sleb128 0
 17021 1948 21       		.byte	0x21
 17022 1949 76       		.byte	0x76
 17023 194a 00       		.sleb128 0
 17024 194b 1A       		.byte	0x1a
 17025 194c 72       		.byte	0x72
 17026 194d 00       		.sleb128 0
 17027 194e 73       		.byte	0x73
 17028 194f 00       		.sleb128 0
 17029 1950 1A       		.byte	0x1a
 17030 1951 21       		.byte	0x21
 17031 1952 72       		.byte	0x72
 17032 1953 00       		.sleb128 0
 17033 1954 3D       		.byte	0x3d
 17034 1955 14       		.byte	0x14
 17035 1956 14       		.byte	0x14
 17036 1957 1F       		.byte	0x1f
 17037 1958 23       		.byte	0x23
 17038 1959 20       		.uleb128 0x20
 17039 195a 24       		.byte	0x24
 17040 195b 17       		.byte	0x17
 17041 195c 25       		.byte	0x25
 17042 195d 21       		.byte	0x21
 17043 195e 72       		.byte	0x72
 17044 195f 00       		.sleb128 0
 17045 1960 32       		.byte	0x32
 17046 1961 14       		.byte	0x14
 17047 1962 14       		.byte	0x14
 17048 1963 1F       		.byte	0x1f
 17049 1964 23       		.byte	0x23
 17050 1965 20       		.uleb128 0x20
 17051 1966 24       		.byte	0x24
 17052 1967 17       		.byte	0x17
 17053 1968 25       		.byte	0x25
 17054 1969 21       		.byte	0x21
 17055 196a 27       		.byte	0x27
 17056 196b 72       		.byte	0x72
 17057 196c 00       		.sleb128 0
 17058 196d 3A       		.byte	0x3a
 17059 196e 14       		.byte	0x14
 17060 196f 14       		.byte	0x14
 17061 1970 24       		.byte	0x24
 17062 1971 17       		.byte	0x17
 17063 1972 1F       		.byte	0x1f
 17064 1973 23       		.byte	0x23
ARM GAS  C:\Users\jo\AppData\Local\Temp\ccDsJqTW.s 			page 303


 17065 1974 20       		.uleb128 0x20
 17066 1975 25       		.byte	0x25
 17067 1976 21       		.byte	0x21
 17068 1977 27       		.byte	0x27
 17069 1978 22       		.byte	0x22
 17070 1979 9F       		.byte	0x9f
 17071 197a 4E1A0000 		.4byte	.LVL265
 17072 197e 6C1A0000 		.4byte	.LVL266
 17073 1982 3600     		.2byte	0x36
 17074 1984 70       		.byte	0x70
 17075 1985 00       		.sleb128 0
 17076 1986 72       		.byte	0x72
 17077 1987 00       		.sleb128 0
 17078 1988 21       		.byte	0x21
 17079 1989 73       		.byte	0x73
 17080 198a 00       		.sleb128 0
 17081 198b 1A       		.byte	0x1a
 17082 198c 70       		.byte	0x70
 17083 198d 00       		.sleb128 0
 17084 198e 72       		.byte	0x72
 17085 198f 00       		.sleb128 0
 17086 1990 1A       		.byte	0x1a
 17087 1991 21       		.byte	0x21
 17088 1992 70       		.byte	0x70
 17089 1993 00       		.sleb128 0
 17090 1994 3D       		.byte	0x3d
 17091 1995 14       		.byte	0x14
 17092 1996 14       		.byte	0x14
 17093 1997 1F       		.byte	0x1f
 17094 1998 23       		.byte	0x23
 17095 1999 20       		.uleb128 0x20
 17096 199a 24       		.byte	0x24
 17097 199b 17       		.byte	0x17
 17098 199c 25       		.byte	0x25
 17099 199d 21       		.byte	0x21
 17100 199e 70       		.byte	0x70
 17101 199f 00       		.sleb128 0
 17102 19a0 32       		.byte	0x32
 17103 19a1 14       		.byte	0x14
 17104 19a2 14       		.byte	0x14
 17105 19a3 1F       		.byte	0x1f
 17106 19a4 23       		.byte	0x23
 17107 19a5 20       		.uleb128 0x20
 17108 19a6 24       		.byte	0x24
 17109 19a7 17       		.byte	0x17
 17110 19a8 25       		.byte	0x25
 17111 19a9 21       		.byte	0x21
 17112 19aa 27       		.byte	0x27
 17113 19ab 70       		.byte	0x70
 17114 19ac 00       		.sleb128 0
 17115 19ad 3A       		.byte	0x3a
 17116 19ae 14       		.byte	0x14
 17117 19af 14       		.byte	0x14
 17118 19b0 24       		.byte	0x24
 17119 19b1 17       		.byte	0x17
 17120 19b2 1F       		.byte	0x1f
 17121 19b3 23       		.byte	0x23
ARM GAS  C:\Users\jo\AppData\Local\Temp\ccDsJqTW.s 			page 304


 17122 19b4 20       		.uleb128 0x20
 17123 19b5 25       		.byte	0x25
 17124 19b6 21       		.byte	0x21
 17125 19b7 27       		.byte	0x27
 17126 19b8 22       		.byte	0x22
 17127 19b9 9F       		.byte	0x9f
 17128 19ba 6C1A0000 		.4byte	.LVL266
 17129 19be 821A0000 		.4byte	.LVL267
 17130 19c2 0100     		.2byte	0x1
 17131 19c4 5E       		.byte	0x5e
 17132 19c5 821A0000 		.4byte	.LVL267
 17133 19c9 F41A0000 		.4byte	.LVL272
 17134 19cd 3600     		.2byte	0x36
 17135 19cf 70       		.byte	0x70
 17136 19d0 00       		.sleb128 0
 17137 19d1 72       		.byte	0x72
 17138 19d2 00       		.sleb128 0
 17139 19d3 21       		.byte	0x21
 17140 19d4 73       		.byte	0x73
 17141 19d5 00       		.sleb128 0
 17142 19d6 1A       		.byte	0x1a
 17143 19d7 70       		.byte	0x70
 17144 19d8 00       		.sleb128 0
 17145 19d9 72       		.byte	0x72
 17146 19da 00       		.sleb128 0
 17147 19db 1A       		.byte	0x1a
 17148 19dc 21       		.byte	0x21
 17149 19dd 70       		.byte	0x70
 17150 19de 00       		.sleb128 0
 17151 19df 3D       		.byte	0x3d
 17152 19e0 14       		.byte	0x14
 17153 19e1 14       		.byte	0x14
 17154 19e2 1F       		.byte	0x1f
 17155 19e3 23       		.byte	0x23
 17156 19e4 20       		.uleb128 0x20
 17157 19e5 24       		.byte	0x24
 17158 19e6 17       		.byte	0x17
 17159 19e7 25       		.byte	0x25
 17160 19e8 21       		.byte	0x21
 17161 19e9 70       		.byte	0x70
 17162 19ea 00       		.sleb128 0
 17163 19eb 32       		.byte	0x32
 17164 19ec 14       		.byte	0x14
 17165 19ed 14       		.byte	0x14
 17166 19ee 1F       		.byte	0x1f
 17167 19ef 23       		.byte	0x23
 17168 19f0 20       		.uleb128 0x20
 17169 19f1 24       		.byte	0x24
 17170 19f2 17       		.byte	0x17
 17171 19f3 25       		.byte	0x25
 17172 19f4 21       		.byte	0x21
 17173 19f5 27       		.byte	0x27
 17174 19f6 70       		.byte	0x70
 17175 19f7 00       		.sleb128 0
 17176 19f8 3A       		.byte	0x3a
 17177 19f9 14       		.byte	0x14
 17178 19fa 14       		.byte	0x14
ARM GAS  C:\Users\jo\AppData\Local\Temp\ccDsJqTW.s 			page 305


 17179 19fb 24       		.byte	0x24
 17180 19fc 17       		.byte	0x17
 17181 19fd 1F       		.byte	0x1f
 17182 19fe 23       		.byte	0x23
 17183 19ff 20       		.uleb128 0x20
 17184 1a00 25       		.byte	0x25
 17185 1a01 21       		.byte	0x21
 17186 1a02 27       		.byte	0x27
 17187 1a03 22       		.byte	0x22
 17188 1a04 9F       		.byte	0x9f
 17189 1a05 F41A0000 		.4byte	.LVL272
 17190 1a09 F61A0000 		.4byte	.LVL273
 17191 1a0d 3600     		.2byte	0x36
 17192 1a0f 76       		.byte	0x76
 17193 1a10 00       		.sleb128 0
 17194 1a11 70       		.byte	0x70
 17195 1a12 00       		.sleb128 0
 17196 1a13 21       		.byte	0x21
 17197 1a14 72       		.byte	0x72
 17198 1a15 00       		.sleb128 0
 17199 1a16 1A       		.byte	0x1a
 17200 1a17 76       		.byte	0x76
 17201 1a18 00       		.sleb128 0
 17202 1a19 70       		.byte	0x70
 17203 1a1a 00       		.sleb128 0
 17204 1a1b 1A       		.byte	0x1a
 17205 1a1c 21       		.byte	0x21
 17206 1a1d 76       		.byte	0x76
 17207 1a1e 00       		.sleb128 0
 17208 1a1f 3D       		.byte	0x3d
 17209 1a20 14       		.byte	0x14
 17210 1a21 14       		.byte	0x14
 17211 1a22 1F       		.byte	0x1f
 17212 1a23 23       		.byte	0x23
 17213 1a24 20       		.uleb128 0x20
 17214 1a25 24       		.byte	0x24
 17215 1a26 17       		.byte	0x17
 17216 1a27 25       		.byte	0x25
 17217 1a28 21       		.byte	0x21
 17218 1a29 76       		.byte	0x76
 17219 1a2a 00       		.sleb128 0
 17220 1a2b 32       		.byte	0x32
 17221 1a2c 14       		.byte	0x14
 17222 1a2d 14       		.byte	0x14
 17223 1a2e 1F       		.byte	0x1f
 17224 1a2f 23       		.byte	0x23
 17225 1a30 20       		.uleb128 0x20
 17226 1a31 24       		.byte	0x24
 17227 1a32 17       		.byte	0x17
 17228 1a33 25       		.byte	0x25
 17229 1a34 21       		.byte	0x21
 17230 1a35 27       		.byte	0x27
 17231 1a36 76       		.byte	0x76
 17232 1a37 00       		.sleb128 0
 17233 1a38 3A       		.byte	0x3a
 17234 1a39 14       		.byte	0x14
 17235 1a3a 14       		.byte	0x14
ARM GAS  C:\Users\jo\AppData\Local\Temp\ccDsJqTW.s 			page 306


 17236 1a3b 24       		.byte	0x24
 17237 1a3c 17       		.byte	0x17
 17238 1a3d 1F       		.byte	0x1f
 17239 1a3e 23       		.byte	0x23
 17240 1a3f 20       		.uleb128 0x20
 17241 1a40 25       		.byte	0x25
 17242 1a41 21       		.byte	0x21
 17243 1a42 27       		.byte	0x27
 17244 1a43 22       		.byte	0x22
 17245 1a44 9F       		.byte	0x9f
 17246 1a45 F61A0000 		.4byte	.LVL273
 17247 1a49 F81A0000 		.4byte	.LVL274
 17248 1a4d 4000     		.2byte	0x40
 17249 1a4f 91       		.byte	0x91
 17250 1a50 F87D     		.sleb128 -264
 17251 1a52 06       		.byte	0x6
 17252 1a53 70       		.byte	0x70
 17253 1a54 00       		.sleb128 0
 17254 1a55 21       		.byte	0x21
 17255 1a56 72       		.byte	0x72
 17256 1a57 00       		.sleb128 0
 17257 1a58 1A       		.byte	0x1a
 17258 1a59 91       		.byte	0x91
 17259 1a5a F87D     		.sleb128 -264
 17260 1a5c 06       		.byte	0x6
 17261 1a5d 70       		.byte	0x70
 17262 1a5e 00       		.sleb128 0
 17263 1a5f 1A       		.byte	0x1a
 17264 1a60 21       		.byte	0x21
 17265 1a61 91       		.byte	0x91
 17266 1a62 F87D     		.sleb128 -264
 17267 1a64 06       		.byte	0x6
 17268 1a65 3D       		.byte	0x3d
 17269 1a66 14       		.byte	0x14
 17270 1a67 14       		.byte	0x14
 17271 1a68 1F       		.byte	0x1f
 17272 1a69 23       		.byte	0x23
 17273 1a6a 20       		.uleb128 0x20
 17274 1a6b 24       		.byte	0x24
 17275 1a6c 17       		.byte	0x17
 17276 1a6d 25       		.byte	0x25
 17277 1a6e 21       		.byte	0x21
 17278 1a6f 91       		.byte	0x91
 17279 1a70 F87D     		.sleb128 -264
 17280 1a72 06       		.byte	0x6
 17281 1a73 32       		.byte	0x32
 17282 1a74 14       		.byte	0x14
 17283 1a75 14       		.byte	0x14
 17284 1a76 1F       		.byte	0x1f
 17285 1a77 23       		.byte	0x23
 17286 1a78 20       		.uleb128 0x20
 17287 1a79 24       		.byte	0x24
 17288 1a7a 17       		.byte	0x17
 17289 1a7b 25       		.byte	0x25
 17290 1a7c 21       		.byte	0x21
 17291 1a7d 27       		.byte	0x27
 17292 1a7e 91       		.byte	0x91
ARM GAS  C:\Users\jo\AppData\Local\Temp\ccDsJqTW.s 			page 307


 17293 1a7f F87D     		.sleb128 -264
 17294 1a81 06       		.byte	0x6
 17295 1a82 3A       		.byte	0x3a
 17296 1a83 14       		.byte	0x14
 17297 1a84 14       		.byte	0x14
 17298 1a85 24       		.byte	0x24
 17299 1a86 17       		.byte	0x17
 17300 1a87 1F       		.byte	0x1f
 17301 1a88 23       		.byte	0x23
 17302 1a89 20       		.uleb128 0x20
 17303 1a8a 25       		.byte	0x25
 17304 1a8b 21       		.byte	0x21
 17305 1a8c 27       		.byte	0x27
 17306 1a8d 22       		.byte	0x22
 17307 1a8e 9F       		.byte	0x9f
 17308 1a8f F81A0000 		.4byte	.LVL274
 17309 1a93 0E1B0000 		.4byte	.LVL279
 17310 1a97 0100     		.2byte	0x1
 17311 1a99 57       		.byte	0x57
 17312 1a9a 0E1B0000 		.4byte	.LVL279
 17313 1a9e 801B0000 		.4byte	.LVL285
 17314 1aa2 4000     		.2byte	0x40
 17315 1aa4 91       		.byte	0x91
 17316 1aa5 F87D     		.sleb128 -264
 17317 1aa7 06       		.byte	0x6
 17318 1aa8 70       		.byte	0x70
 17319 1aa9 00       		.sleb128 0
 17320 1aaa 21       		.byte	0x21
 17321 1aab 72       		.byte	0x72
 17322 1aac 00       		.sleb128 0
 17323 1aad 1A       		.byte	0x1a
 17324 1aae 91       		.byte	0x91
 17325 1aaf F87D     		.sleb128 -264
 17326 1ab1 06       		.byte	0x6
 17327 1ab2 70       		.byte	0x70
 17328 1ab3 00       		.sleb128 0
 17329 1ab4 1A       		.byte	0x1a
 17330 1ab5 21       		.byte	0x21
 17331 1ab6 91       		.byte	0x91
 17332 1ab7 F87D     		.sleb128 -264
 17333 1ab9 06       		.byte	0x6
 17334 1aba 3D       		.byte	0x3d
 17335 1abb 14       		.byte	0x14
 17336 1abc 14       		.byte	0x14
 17337 1abd 1F       		.byte	0x1f
 17338 1abe 23       		.byte	0x23
 17339 1abf 20       		.uleb128 0x20
 17340 1ac0 24       		.byte	0x24
 17341 1ac1 17       		.byte	0x17
 17342 1ac2 25       		.byte	0x25
 17343 1ac3 21       		.byte	0x21
 17344 1ac4 91       		.byte	0x91
 17345 1ac5 F87D     		.sleb128 -264
 17346 1ac7 06       		.byte	0x6
 17347 1ac8 32       		.byte	0x32
 17348 1ac9 14       		.byte	0x14
 17349 1aca 14       		.byte	0x14
ARM GAS  C:\Users\jo\AppData\Local\Temp\ccDsJqTW.s 			page 308


 17350 1acb 1F       		.byte	0x1f
 17351 1acc 23       		.byte	0x23
 17352 1acd 20       		.uleb128 0x20
 17353 1ace 24       		.byte	0x24
 17354 1acf 17       		.byte	0x17
 17355 1ad0 25       		.byte	0x25
 17356 1ad1 21       		.byte	0x21
 17357 1ad2 27       		.byte	0x27
 17358 1ad3 91       		.byte	0x91
 17359 1ad4 F87D     		.sleb128 -264
 17360 1ad6 06       		.byte	0x6
 17361 1ad7 3A       		.byte	0x3a
 17362 1ad8 14       		.byte	0x14
 17363 1ad9 14       		.byte	0x14
 17364 1ada 24       		.byte	0x24
 17365 1adb 17       		.byte	0x17
 17366 1adc 1F       		.byte	0x1f
 17367 1add 23       		.byte	0x23
 17368 1ade 20       		.uleb128 0x20
 17369 1adf 25       		.byte	0x25
 17370 1ae0 21       		.byte	0x21
 17371 1ae1 27       		.byte	0x27
 17372 1ae2 22       		.byte	0x22
 17373 1ae3 9F       		.byte	0x9f
 17374 1ae4 801B0000 		.4byte	.LVL285
 17375 1ae8 921B0000 		.4byte	.LVL286
 17376 1aec 4400     		.2byte	0x44
 17377 1aee 91       		.byte	0x91
 17378 1aef EC7D     		.sleb128 -276
 17379 1af1 06       		.byte	0x6
 17380 1af2 91       		.byte	0x91
 17381 1af3 F87D     		.sleb128 -264
 17382 1af5 06       		.byte	0x6
 17383 1af6 21       		.byte	0x21
 17384 1af7 70       		.byte	0x70
 17385 1af8 00       		.sleb128 0
 17386 1af9 1A       		.byte	0x1a
 17387 1afa 91       		.byte	0x91
 17388 1afb EC7D     		.sleb128 -276
 17389 1afd 06       		.byte	0x6
 17390 1afe 91       		.byte	0x91
 17391 1aff F87D     		.sleb128 -264
 17392 1b01 06       		.byte	0x6
 17393 1b02 1A       		.byte	0x1a
 17394 1b03 21       		.byte	0x21
 17395 1b04 91       		.byte	0x91
 17396 1b05 EC7D     		.sleb128 -276
 17397 1b07 06       		.byte	0x6
 17398 1b08 3D       		.byte	0x3d
 17399 1b09 14       		.byte	0x14
 17400 1b0a 14       		.byte	0x14
 17401 1b0b 1F       		.byte	0x1f
 17402 1b0c 23       		.byte	0x23
 17403 1b0d 20       		.uleb128 0x20
 17404 1b0e 24       		.byte	0x24
 17405 1b0f 17       		.byte	0x17
 17406 1b10 25       		.byte	0x25
ARM GAS  C:\Users\jo\AppData\Local\Temp\ccDsJqTW.s 			page 309


 17407 1b11 21       		.byte	0x21
 17408 1b12 91       		.byte	0x91
 17409 1b13 EC7D     		.sleb128 -276
 17410 1b15 06       		.byte	0x6
 17411 1b16 32       		.byte	0x32
 17412 1b17 14       		.byte	0x14
 17413 1b18 14       		.byte	0x14
 17414 1b19 1F       		.byte	0x1f
 17415 1b1a 23       		.byte	0x23
 17416 1b1b 20       		.uleb128 0x20
 17417 1b1c 24       		.byte	0x24
 17418 1b1d 17       		.byte	0x17
 17419 1b1e 25       		.byte	0x25
 17420 1b1f 21       		.byte	0x21
 17421 1b20 27       		.byte	0x27
 17422 1b21 91       		.byte	0x91
 17423 1b22 EC7D     		.sleb128 -276
 17424 1b24 06       		.byte	0x6
 17425 1b25 3A       		.byte	0x3a
 17426 1b26 14       		.byte	0x14
 17427 1b27 14       		.byte	0x14
 17428 1b28 24       		.byte	0x24
 17429 1b29 17       		.byte	0x17
 17430 1b2a 1F       		.byte	0x1f
 17431 1b2b 23       		.byte	0x23
 17432 1b2c 20       		.uleb128 0x20
 17433 1b2d 25       		.byte	0x25
 17434 1b2e 21       		.byte	0x21
 17435 1b2f 27       		.byte	0x27
 17436 1b30 22       		.byte	0x22
 17437 1b31 9F       		.byte	0x9f
 17438 1b32 921B0000 		.4byte	.LVL286
 17439 1b36 961B0000 		.4byte	.LVL287
 17440 1b3a 0100     		.2byte	0x1
 17441 1b3c 51       		.byte	0x51
 17442 1b3d 961B0000 		.4byte	.LVL287
 17443 1b41 FE1B0000 		.4byte	.LVL291
 17444 1b45 4400     		.2byte	0x44
 17445 1b47 91       		.byte	0x91
 17446 1b48 EC7D     		.sleb128 -276
 17447 1b4a 06       		.byte	0x6
 17448 1b4b 91       		.byte	0x91
 17449 1b4c F87D     		.sleb128 -264
 17450 1b4e 06       		.byte	0x6
 17451 1b4f 21       		.byte	0x21
 17452 1b50 70       		.byte	0x70
 17453 1b51 00       		.sleb128 0
 17454 1b52 1A       		.byte	0x1a
 17455 1b53 91       		.byte	0x91
 17456 1b54 EC7D     		.sleb128 -276
 17457 1b56 06       		.byte	0x6
 17458 1b57 91       		.byte	0x91
 17459 1b58 F87D     		.sleb128 -264
 17460 1b5a 06       		.byte	0x6
 17461 1b5b 1A       		.byte	0x1a
 17462 1b5c 21       		.byte	0x21
 17463 1b5d 91       		.byte	0x91
ARM GAS  C:\Users\jo\AppData\Local\Temp\ccDsJqTW.s 			page 310


 17464 1b5e EC7D     		.sleb128 -276
 17465 1b60 06       		.byte	0x6
 17466 1b61 3D       		.byte	0x3d
 17467 1b62 14       		.byte	0x14
 17468 1b63 14       		.byte	0x14
 17469 1b64 1F       		.byte	0x1f
 17470 1b65 23       		.byte	0x23
 17471 1b66 20       		.uleb128 0x20
 17472 1b67 24       		.byte	0x24
 17473 1b68 17       		.byte	0x17
 17474 1b69 25       		.byte	0x25
 17475 1b6a 21       		.byte	0x21
 17476 1b6b 91       		.byte	0x91
 17477 1b6c EC7D     		.sleb128 -276
 17478 1b6e 06       		.byte	0x6
 17479 1b6f 32       		.byte	0x32
 17480 1b70 14       		.byte	0x14
 17481 1b71 14       		.byte	0x14
 17482 1b72 1F       		.byte	0x1f
 17483 1b73 23       		.byte	0x23
 17484 1b74 20       		.uleb128 0x20
 17485 1b75 24       		.byte	0x24
 17486 1b76 17       		.byte	0x17
 17487 1b77 25       		.byte	0x25
 17488 1b78 21       		.byte	0x21
 17489 1b79 27       		.byte	0x27
 17490 1b7a 91       		.byte	0x91
 17491 1b7b EC7D     		.sleb128 -276
 17492 1b7d 06       		.byte	0x6
 17493 1b7e 3A       		.byte	0x3a
 17494 1b7f 14       		.byte	0x14
 17495 1b80 14       		.byte	0x14
 17496 1b81 24       		.byte	0x24
 17497 1b82 17       		.byte	0x17
 17498 1b83 1F       		.byte	0x1f
 17499 1b84 23       		.byte	0x23
 17500 1b85 20       		.uleb128 0x20
 17501 1b86 25       		.byte	0x25
 17502 1b87 21       		.byte	0x21
 17503 1b88 27       		.byte	0x27
 17504 1b89 22       		.byte	0x22
 17505 1b8a 9F       		.byte	0x9f
 17506 1b8b 981C0000 		.4byte	.LVL296
 17507 1b8f 9A1C0000 		.4byte	.LVL297
 17508 1b93 3C00     		.2byte	0x3c
 17509 1b95 71       		.byte	0x71
 17510 1b96 00       		.sleb128 0
 17511 1b97 91       		.byte	0x91
 17512 1b98 DC7D     		.sleb128 -292
 17513 1b9a 06       		.byte	0x6
 17514 1b9b 21       		.byte	0x21
 17515 1b9c 91       		.byte	0x91
 17516 1b9d EC7D     		.sleb128 -276
 17517 1b9f 06       		.byte	0x6
 17518 1ba0 1A       		.byte	0x1a
 17519 1ba1 71       		.byte	0x71
 17520 1ba2 00       		.sleb128 0
ARM GAS  C:\Users\jo\AppData\Local\Temp\ccDsJqTW.s 			page 311


 17521 1ba3 91       		.byte	0x91
 17522 1ba4 DC7D     		.sleb128 -292
 17523 1ba6 06       		.byte	0x6
 17524 1ba7 1A       		.byte	0x1a
 17525 1ba8 21       		.byte	0x21
 17526 1ba9 71       		.byte	0x71
 17527 1baa 00       		.sleb128 0
 17528 1bab 3D       		.byte	0x3d
 17529 1bac 14       		.byte	0x14
 17530 1bad 14       		.byte	0x14
 17531 1bae 1F       		.byte	0x1f
 17532 1baf 23       		.byte	0x23
 17533 1bb0 20       		.uleb128 0x20
 17534 1bb1 24       		.byte	0x24
 17535 1bb2 17       		.byte	0x17
 17536 1bb3 25       		.byte	0x25
 17537 1bb4 21       		.byte	0x21
 17538 1bb5 71       		.byte	0x71
 17539 1bb6 00       		.sleb128 0
 17540 1bb7 32       		.byte	0x32
 17541 1bb8 14       		.byte	0x14
 17542 1bb9 14       		.byte	0x14
 17543 1bba 1F       		.byte	0x1f
 17544 1bbb 23       		.byte	0x23
 17545 1bbc 20       		.uleb128 0x20
 17546 1bbd 24       		.byte	0x24
 17547 1bbe 17       		.byte	0x17
 17548 1bbf 25       		.byte	0x25
 17549 1bc0 21       		.byte	0x21
 17550 1bc1 27       		.byte	0x27
 17551 1bc2 71       		.byte	0x71
 17552 1bc3 00       		.sleb128 0
 17553 1bc4 3A       		.byte	0x3a
 17554 1bc5 14       		.byte	0x14
 17555 1bc6 14       		.byte	0x14
 17556 1bc7 24       		.byte	0x24
 17557 1bc8 17       		.byte	0x17
 17558 1bc9 1F       		.byte	0x1f
 17559 1bca 23       		.byte	0x23
 17560 1bcb 20       		.uleb128 0x20
 17561 1bcc 25       		.byte	0x25
 17562 1bcd 21       		.byte	0x21
 17563 1bce 27       		.byte	0x27
 17564 1bcf 22       		.byte	0x22
 17565 1bd0 9F       		.byte	0x9f
 17566 1bd1 9A1C0000 		.4byte	.LVL297
 17567 1bd5 061D0000 		.4byte	.LVL306
 17568 1bd9 0100     		.2byte	0x1
 17569 1bdb 59       		.byte	0x59
 17570 1bdc 061D0000 		.4byte	.LVL306
 17571 1be0 301D0000 		.4byte	.LVL307
 17572 1be4 4600     		.2byte	0x46
 17573 1be6 91       		.byte	0x91
 17574 1be7 FC7D     		.sleb128 -260
 17575 1be9 06       		.byte	0x6
 17576 1bea 91       		.byte	0x91
 17577 1beb DC7D     		.sleb128 -292
ARM GAS  C:\Users\jo\AppData\Local\Temp\ccDsJqTW.s 			page 312


 17578 1bed 06       		.byte	0x6
 17579 1bee 21       		.byte	0x21
 17580 1bef 91       		.byte	0x91
 17581 1bf0 EC7D     		.sleb128 -276
 17582 1bf2 06       		.byte	0x6
 17583 1bf3 1A       		.byte	0x1a
 17584 1bf4 91       		.byte	0x91
 17585 1bf5 FC7D     		.sleb128 -260
 17586 1bf7 06       		.byte	0x6
 17587 1bf8 91       		.byte	0x91
 17588 1bf9 DC7D     		.sleb128 -292
 17589 1bfb 06       		.byte	0x6
 17590 1bfc 1A       		.byte	0x1a
 17591 1bfd 21       		.byte	0x21
 17592 1bfe 91       		.byte	0x91
 17593 1bff FC7D     		.sleb128 -260
 17594 1c01 06       		.byte	0x6
 17595 1c02 3D       		.byte	0x3d
 17596 1c03 14       		.byte	0x14
 17597 1c04 14       		.byte	0x14
 17598 1c05 1F       		.byte	0x1f
 17599 1c06 23       		.byte	0x23
 17600 1c07 20       		.uleb128 0x20
 17601 1c08 24       		.byte	0x24
 17602 1c09 17       		.byte	0x17
 17603 1c0a 25       		.byte	0x25
 17604 1c0b 21       		.byte	0x21
 17605 1c0c 91       		.byte	0x91
 17606 1c0d FC7D     		.sleb128 -260
 17607 1c0f 06       		.byte	0x6
 17608 1c10 32       		.byte	0x32
 17609 1c11 14       		.byte	0x14
 17610 1c12 14       		.byte	0x14
 17611 1c13 1F       		.byte	0x1f
 17612 1c14 23       		.byte	0x23
 17613 1c15 20       		.uleb128 0x20
 17614 1c16 24       		.byte	0x24
 17615 1c17 17       		.byte	0x17
 17616 1c18 25       		.byte	0x25
 17617 1c19 21       		.byte	0x21
 17618 1c1a 27       		.byte	0x27
 17619 1c1b 91       		.byte	0x91
 17620 1c1c FC7D     		.sleb128 -260
 17621 1c1e 06       		.byte	0x6
 17622 1c1f 3A       		.byte	0x3a
 17623 1c20 14       		.byte	0x14
 17624 1c21 14       		.byte	0x14
 17625 1c22 24       		.byte	0x24
 17626 1c23 17       		.byte	0x17
 17627 1c24 1F       		.byte	0x1f
 17628 1c25 23       		.byte	0x23
 17629 1c26 20       		.uleb128 0x20
 17630 1c27 25       		.byte	0x25
 17631 1c28 21       		.byte	0x21
 17632 1c29 27       		.byte	0x27
 17633 1c2a 22       		.byte	0x22
 17634 1c2b 9F       		.byte	0x9f
ARM GAS  C:\Users\jo\AppData\Local\Temp\ccDsJqTW.s 			page 313


 17635 1c2c 301D0000 		.4byte	.LVL307
 17636 1c30 4A1D0000 		.4byte	.LVL312
 17637 1c34 0100     		.2byte	0x1
 17638 1c36 5A       		.byte	0x5a
 17639 1c37 4A1D0000 		.4byte	.LVL312
 17640 1c3b 621D0000 		.4byte	.LVL314
 17641 1c3f 3700     		.2byte	0x37
 17642 1c41 75       		.byte	0x75
 17643 1c42 00       		.sleb128 0
 17644 1c43 91       		.byte	0x91
 17645 1c44 FC7D     		.sleb128 -260
 17646 1c46 06       		.byte	0x6
 17647 1c47 21       		.byte	0x21
 17648 1c48 91       		.byte	0x91
 17649 1c49 DC7D     		.sleb128 -292
 17650 1c4b 06       		.byte	0x6
 17651 1c4c 1A       		.byte	0x1a
 17652 1c4d 7B       		.byte	0x7b
 17653 1c4e 00       		.sleb128 0
 17654 1c4f 21       		.byte	0x21
 17655 1c50 75       		.byte	0x75
 17656 1c51 00       		.sleb128 0
 17657 1c52 3D       		.byte	0x3d
 17658 1c53 14       		.byte	0x14
 17659 1c54 14       		.byte	0x14
 17660 1c55 1F       		.byte	0x1f
 17661 1c56 23       		.byte	0x23
 17662 1c57 20       		.uleb128 0x20
 17663 1c58 24       		.byte	0x24
 17664 1c59 17       		.byte	0x17
 17665 1c5a 25       		.byte	0x25
 17666 1c5b 21       		.byte	0x21
 17667 1c5c 75       		.byte	0x75
 17668 1c5d 00       		.sleb128 0
 17669 1c5e 32       		.byte	0x32
 17670 1c5f 14       		.byte	0x14
 17671 1c60 14       		.byte	0x14
 17672 1c61 1F       		.byte	0x1f
 17673 1c62 23       		.byte	0x23
 17674 1c63 20       		.uleb128 0x20
 17675 1c64 24       		.byte	0x24
 17676 1c65 17       		.byte	0x17
 17677 1c66 25       		.byte	0x25
 17678 1c67 21       		.byte	0x21
 17679 1c68 27       		.byte	0x27
 17680 1c69 75       		.byte	0x75
 17681 1c6a 00       		.sleb128 0
 17682 1c6b 3A       		.byte	0x3a
 17683 1c6c 14       		.byte	0x14
 17684 1c6d 14       		.byte	0x14
 17685 1c6e 24       		.byte	0x24
 17686 1c6f 17       		.byte	0x17
 17687 1c70 1F       		.byte	0x1f
 17688 1c71 23       		.byte	0x23
 17689 1c72 20       		.uleb128 0x20
 17690 1c73 25       		.byte	0x25
 17691 1c74 21       		.byte	0x21
ARM GAS  C:\Users\jo\AppData\Local\Temp\ccDsJqTW.s 			page 314


 17692 1c75 27       		.byte	0x27
 17693 1c76 22       		.byte	0x22
 17694 1c77 9F       		.byte	0x9f
 17695 1c78 621D0000 		.4byte	.LVL314
 17696 1c7c 6A1D0000 		.4byte	.LVL315
 17697 1c80 3C00     		.2byte	0x3c
 17698 1c82 75       		.byte	0x75
 17699 1c83 00       		.sleb128 0
 17700 1c84 91       		.byte	0x91
 17701 1c85 FC7D     		.sleb128 -260
 17702 1c87 06       		.byte	0x6
 17703 1c88 21       		.byte	0x21
 17704 1c89 91       		.byte	0x91
 17705 1c8a DC7D     		.sleb128 -292
 17706 1c8c 06       		.byte	0x6
 17707 1c8d 1A       		.byte	0x1a
 17708 1c8e 75       		.byte	0x75
 17709 1c8f 00       		.sleb128 0
 17710 1c90 91       		.byte	0x91
 17711 1c91 FC7D     		.sleb128 -260
 17712 1c93 06       		.byte	0x6
 17713 1c94 1A       		.byte	0x1a
 17714 1c95 21       		.byte	0x21
 17715 1c96 75       		.byte	0x75
 17716 1c97 00       		.sleb128 0
 17717 1c98 3D       		.byte	0x3d
 17718 1c99 14       		.byte	0x14
 17719 1c9a 14       		.byte	0x14
 17720 1c9b 1F       		.byte	0x1f
 17721 1c9c 23       		.byte	0x23
 17722 1c9d 20       		.uleb128 0x20
 17723 1c9e 24       		.byte	0x24
 17724 1c9f 17       		.byte	0x17
 17725 1ca0 25       		.byte	0x25
 17726 1ca1 21       		.byte	0x21
 17727 1ca2 75       		.byte	0x75
 17728 1ca3 00       		.sleb128 0
 17729 1ca4 32       		.byte	0x32
 17730 1ca5 14       		.byte	0x14
 17731 1ca6 14       		.byte	0x14
 17732 1ca7 1F       		.byte	0x1f
 17733 1ca8 23       		.byte	0x23
 17734 1ca9 20       		.uleb128 0x20
 17735 1caa 24       		.byte	0x24
 17736 1cab 17       		.byte	0x17
 17737 1cac 25       		.byte	0x25
 17738 1cad 21       		.byte	0x21
 17739 1cae 27       		.byte	0x27
 17740 1caf 75       		.byte	0x75
 17741 1cb0 00       		.sleb128 0
 17742 1cb1 3A       		.byte	0x3a
 17743 1cb2 14       		.byte	0x14
 17744 1cb3 14       		.byte	0x14
 17745 1cb4 24       		.byte	0x24
 17746 1cb5 17       		.byte	0x17
 17747 1cb6 1F       		.byte	0x1f
 17748 1cb7 23       		.byte	0x23
ARM GAS  C:\Users\jo\AppData\Local\Temp\ccDsJqTW.s 			page 315


 17749 1cb8 20       		.uleb128 0x20
 17750 1cb9 25       		.byte	0x25
 17751 1cba 21       		.byte	0x21
 17752 1cbb 27       		.byte	0x27
 17753 1cbc 22       		.byte	0x22
 17754 1cbd 9F       		.byte	0x9f
 17755 1cbe 6A1D0000 		.4byte	.LVL315
 17756 1cc2 9C1D0000 		.4byte	.LVL317
 17757 1cc6 4600     		.2byte	0x46
 17758 1cc8 91       		.byte	0x91
 17759 1cc9 E87D     		.sleb128 -280
 17760 1ccb 06       		.byte	0x6
 17761 1ccc 91       		.byte	0x91
 17762 1ccd FC7D     		.sleb128 -260
 17763 1ccf 06       		.byte	0x6
 17764 1cd0 21       		.byte	0x21
 17765 1cd1 91       		.byte	0x91
 17766 1cd2 DC7D     		.sleb128 -292
 17767 1cd4 06       		.byte	0x6
 17768 1cd5 1A       		.byte	0x1a
 17769 1cd6 91       		.byte	0x91
 17770 1cd7 E87D     		.sleb128 -280
 17771 1cd9 06       		.byte	0x6
 17772 1cda 91       		.byte	0x91
 17773 1cdb FC7D     		.sleb128 -260
 17774 1cdd 06       		.byte	0x6
 17775 1cde 1A       		.byte	0x1a
 17776 1cdf 21       		.byte	0x21
 17777 1ce0 91       		.byte	0x91
 17778 1ce1 E87D     		.sleb128 -280
 17779 1ce3 06       		.byte	0x6
 17780 1ce4 3D       		.byte	0x3d
 17781 1ce5 14       		.byte	0x14
 17782 1ce6 14       		.byte	0x14
 17783 1ce7 1F       		.byte	0x1f
 17784 1ce8 23       		.byte	0x23
 17785 1ce9 20       		.uleb128 0x20
 17786 1cea 24       		.byte	0x24
 17787 1ceb 17       		.byte	0x17
 17788 1cec 25       		.byte	0x25
 17789 1ced 21       		.byte	0x21
 17790 1cee 91       		.byte	0x91
 17791 1cef E87D     		.sleb128 -280
 17792 1cf1 06       		.byte	0x6
 17793 1cf2 32       		.byte	0x32
 17794 1cf3 14       		.byte	0x14
 17795 1cf4 14       		.byte	0x14
 17796 1cf5 1F       		.byte	0x1f
 17797 1cf6 23       		.byte	0x23
 17798 1cf7 20       		.uleb128 0x20
 17799 1cf8 24       		.byte	0x24
 17800 1cf9 17       		.byte	0x17
 17801 1cfa 25       		.byte	0x25
 17802 1cfb 21       		.byte	0x21
 17803 1cfc 27       		.byte	0x27
 17804 1cfd 91       		.byte	0x91
 17805 1cfe E87D     		.sleb128 -280
ARM GAS  C:\Users\jo\AppData\Local\Temp\ccDsJqTW.s 			page 316


 17806 1d00 06       		.byte	0x6
 17807 1d01 3A       		.byte	0x3a
 17808 1d02 14       		.byte	0x14
 17809 1d03 14       		.byte	0x14
 17810 1d04 24       		.byte	0x24
 17811 1d05 17       		.byte	0x17
 17812 1d06 1F       		.byte	0x1f
 17813 1d07 23       		.byte	0x23
 17814 1d08 20       		.uleb128 0x20
 17815 1d09 25       		.byte	0x25
 17816 1d0a 21       		.byte	0x21
 17817 1d0b 27       		.byte	0x27
 17818 1d0c 22       		.byte	0x22
 17819 1d0d 9F       		.byte	0x9f
 17820 1d0e 9C1D0000 		.4byte	.LVL317
 17821 1d12 9E1D0000 		.4byte	.LVL318
 17822 1d16 3C00     		.2byte	0x3c
 17823 1d18 73       		.byte	0x73
 17824 1d19 00       		.sleb128 0
 17825 1d1a 91       		.byte	0x91
 17826 1d1b E87D     		.sleb128 -280
 17827 1d1d 06       		.byte	0x6
 17828 1d1e 21       		.byte	0x21
 17829 1d1f 91       		.byte	0x91
 17830 1d20 FC7D     		.sleb128 -260
 17831 1d22 06       		.byte	0x6
 17832 1d23 1A       		.byte	0x1a
 17833 1d24 73       		.byte	0x73
 17834 1d25 00       		.sleb128 0
 17835 1d26 91       		.byte	0x91
 17836 1d27 E87D     		.sleb128 -280
 17837 1d29 06       		.byte	0x6
 17838 1d2a 1A       		.byte	0x1a
 17839 1d2b 21       		.byte	0x21
 17840 1d2c 73       		.byte	0x73
 17841 1d2d 00       		.sleb128 0
 17842 1d2e 3D       		.byte	0x3d
 17843 1d2f 14       		.byte	0x14
 17844 1d30 14       		.byte	0x14
 17845 1d31 1F       		.byte	0x1f
 17846 1d32 23       		.byte	0x23
 17847 1d33 20       		.uleb128 0x20
 17848 1d34 24       		.byte	0x24
 17849 1d35 17       		.byte	0x17
 17850 1d36 25       		.byte	0x25
 17851 1d37 21       		.byte	0x21
 17852 1d38 73       		.byte	0x73
 17853 1d39 00       		.sleb128 0
 17854 1d3a 32       		.byte	0x32
 17855 1d3b 14       		.byte	0x14
 17856 1d3c 14       		.byte	0x14
 17857 1d3d 1F       		.byte	0x1f
 17858 1d3e 23       		.byte	0x23
 17859 1d3f 20       		.uleb128 0x20
 17860 1d40 24       		.byte	0x24
 17861 1d41 17       		.byte	0x17
 17862 1d42 25       		.byte	0x25
ARM GAS  C:\Users\jo\AppData\Local\Temp\ccDsJqTW.s 			page 317


 17863 1d43 21       		.byte	0x21
 17864 1d44 27       		.byte	0x27
 17865 1d45 73       		.byte	0x73
 17866 1d46 00       		.sleb128 0
 17867 1d47 3A       		.byte	0x3a
 17868 1d48 14       		.byte	0x14
 17869 1d49 14       		.byte	0x14
 17870 1d4a 24       		.byte	0x24
 17871 1d4b 17       		.byte	0x17
 17872 1d4c 1F       		.byte	0x1f
 17873 1d4d 23       		.byte	0x23
 17874 1d4e 20       		.uleb128 0x20
 17875 1d4f 25       		.byte	0x25
 17876 1d50 21       		.byte	0x21
 17877 1d51 27       		.byte	0x27
 17878 1d52 22       		.byte	0x22
 17879 1d53 9F       		.byte	0x9f
 17880 1d54 9E1D0000 		.4byte	.LVL318
 17881 1d58 AC1D0000 		.4byte	.LVL321
 17882 1d5c 0100     		.2byte	0x1
 17883 1d5e 54       		.byte	0x54
 17884 1d5f AC1D0000 		.4byte	.LVL321
 17885 1d63 281E0000 		.4byte	.LVL322
 17886 1d67 3C00     		.2byte	0x3c
 17887 1d69 73       		.byte	0x73
 17888 1d6a 00       		.sleb128 0
 17889 1d6b 91       		.byte	0x91
 17890 1d6c E87D     		.sleb128 -280
 17891 1d6e 06       		.byte	0x6
 17892 1d6f 21       		.byte	0x21
 17893 1d70 91       		.byte	0x91
 17894 1d71 FC7D     		.sleb128 -260
 17895 1d73 06       		.byte	0x6
 17896 1d74 1A       		.byte	0x1a
 17897 1d75 73       		.byte	0x73
 17898 1d76 00       		.sleb128 0
 17899 1d77 91       		.byte	0x91
 17900 1d78 E87D     		.sleb128 -280
 17901 1d7a 06       		.byte	0x6
 17902 1d7b 1A       		.byte	0x1a
 17903 1d7c 21       		.byte	0x21
 17904 1d7d 73       		.byte	0x73
 17905 1d7e 00       		.sleb128 0
 17906 1d7f 3D       		.byte	0x3d
 17907 1d80 14       		.byte	0x14
 17908 1d81 14       		.byte	0x14
 17909 1d82 1F       		.byte	0x1f
 17910 1d83 23       		.byte	0x23
 17911 1d84 20       		.uleb128 0x20
 17912 1d85 24       		.byte	0x24
 17913 1d86 17       		.byte	0x17
 17914 1d87 25       		.byte	0x25
 17915 1d88 21       		.byte	0x21
 17916 1d89 73       		.byte	0x73
 17917 1d8a 00       		.sleb128 0
 17918 1d8b 32       		.byte	0x32
 17919 1d8c 14       		.byte	0x14
ARM GAS  C:\Users\jo\AppData\Local\Temp\ccDsJqTW.s 			page 318


 17920 1d8d 14       		.byte	0x14
 17921 1d8e 1F       		.byte	0x1f
 17922 1d8f 23       		.byte	0x23
 17923 1d90 20       		.uleb128 0x20
 17924 1d91 24       		.byte	0x24
 17925 1d92 17       		.byte	0x17
 17926 1d93 25       		.byte	0x25
 17927 1d94 21       		.byte	0x21
 17928 1d95 27       		.byte	0x27
 17929 1d96 73       		.byte	0x73
 17930 1d97 00       		.sleb128 0
 17931 1d98 3A       		.byte	0x3a
 17932 1d99 14       		.byte	0x14
 17933 1d9a 14       		.byte	0x14
 17934 1d9b 24       		.byte	0x24
 17935 1d9c 17       		.byte	0x17
 17936 1d9d 1F       		.byte	0x1f
 17937 1d9e 23       		.byte	0x23
 17938 1d9f 20       		.uleb128 0x20
 17939 1da0 25       		.byte	0x25
 17940 1da1 21       		.byte	0x21
 17941 1da2 27       		.byte	0x27
 17942 1da3 22       		.byte	0x22
 17943 1da4 9F       		.byte	0x9f
 17944 1da5 281E0000 		.4byte	.LVL322
 17945 1da9 461E0000 		.4byte	.LVL323
 17946 1dad 3800     		.2byte	0x38
 17947 1daf 72       		.byte	0x72
 17948 1db0 00       		.sleb128 0
 17949 1db1 73       		.byte	0x73
 17950 1db2 00       		.sleb128 0
 17951 1db3 21       		.byte	0x21
 17952 1db4 91       		.byte	0x91
 17953 1db5 E87D     		.sleb128 -280
 17954 1db7 06       		.byte	0x6
 17955 1db8 1A       		.byte	0x1a
 17956 1db9 72       		.byte	0x72
 17957 1dba 00       		.sleb128 0
 17958 1dbb 73       		.byte	0x73
 17959 1dbc 00       		.sleb128 0
 17960 1dbd 1A       		.byte	0x1a
 17961 1dbe 21       		.byte	0x21
 17962 1dbf 72       		.byte	0x72
 17963 1dc0 00       		.sleb128 0
 17964 1dc1 3D       		.byte	0x3d
 17965 1dc2 14       		.byte	0x14
 17966 1dc3 14       		.byte	0x14
 17967 1dc4 1F       		.byte	0x1f
 17968 1dc5 23       		.byte	0x23
 17969 1dc6 20       		.uleb128 0x20
 17970 1dc7 24       		.byte	0x24
 17971 1dc8 17       		.byte	0x17
 17972 1dc9 25       		.byte	0x25
 17973 1dca 21       		.byte	0x21
 17974 1dcb 72       		.byte	0x72
 17975 1dcc 00       		.sleb128 0
 17976 1dcd 32       		.byte	0x32
ARM GAS  C:\Users\jo\AppData\Local\Temp\ccDsJqTW.s 			page 319


 17977 1dce 14       		.byte	0x14
 17978 1dcf 14       		.byte	0x14
 17979 1dd0 1F       		.byte	0x1f
 17980 1dd1 23       		.byte	0x23
 17981 1dd2 20       		.uleb128 0x20
 17982 1dd3 24       		.byte	0x24
 17983 1dd4 17       		.byte	0x17
 17984 1dd5 25       		.byte	0x25
 17985 1dd6 21       		.byte	0x21
 17986 1dd7 27       		.byte	0x27
 17987 1dd8 72       		.byte	0x72
 17988 1dd9 00       		.sleb128 0
 17989 1dda 3A       		.byte	0x3a
 17990 1ddb 14       		.byte	0x14
 17991 1ddc 14       		.byte	0x14
 17992 1ddd 24       		.byte	0x24
 17993 1dde 17       		.byte	0x17
 17994 1ddf 1F       		.byte	0x1f
 17995 1de0 23       		.byte	0x23
 17996 1de1 20       		.uleb128 0x20
 17997 1de2 25       		.byte	0x25
 17998 1de3 21       		.byte	0x21
 17999 1de4 27       		.byte	0x27
 18000 1de5 22       		.byte	0x22
 18001 1de6 9F       		.byte	0x9f
 18002 1de7 461E0000 		.4byte	.LVL323
 18003 1deb 701E0000 		.4byte	.LVL326
 18004 1def 0100     		.2byte	0x1
 18005 1df1 59       		.byte	0x59
 18006 1df2 701E0000 		.4byte	.LVL326
 18007 1df6 A61E0000 		.4byte	.LVL328
 18008 1dfa 3800     		.2byte	0x38
 18009 1dfc 72       		.byte	0x72
 18010 1dfd 00       		.sleb128 0
 18011 1dfe 73       		.byte	0x73
 18012 1dff 00       		.sleb128 0
 18013 1e00 21       		.byte	0x21
 18014 1e01 91       		.byte	0x91
 18015 1e02 E87D     		.sleb128 -280
 18016 1e04 06       		.byte	0x6
 18017 1e05 1A       		.byte	0x1a
 18018 1e06 72       		.byte	0x72
 18019 1e07 00       		.sleb128 0
 18020 1e08 73       		.byte	0x73
 18021 1e09 00       		.sleb128 0
 18022 1e0a 1A       		.byte	0x1a
 18023 1e0b 21       		.byte	0x21
 18024 1e0c 72       		.byte	0x72
 18025 1e0d 00       		.sleb128 0
 18026 1e0e 3D       		.byte	0x3d
 18027 1e0f 14       		.byte	0x14
 18028 1e10 14       		.byte	0x14
 18029 1e11 1F       		.byte	0x1f
 18030 1e12 23       		.byte	0x23
 18031 1e13 20       		.uleb128 0x20
 18032 1e14 24       		.byte	0x24
 18033 1e15 17       		.byte	0x17
ARM GAS  C:\Users\jo\AppData\Local\Temp\ccDsJqTW.s 			page 320


 18034 1e16 25       		.byte	0x25
 18035 1e17 21       		.byte	0x21
 18036 1e18 72       		.byte	0x72
 18037 1e19 00       		.sleb128 0
 18038 1e1a 32       		.byte	0x32
 18039 1e1b 14       		.byte	0x14
 18040 1e1c 14       		.byte	0x14
 18041 1e1d 1F       		.byte	0x1f
 18042 1e1e 23       		.byte	0x23
 18043 1e1f 20       		.uleb128 0x20
 18044 1e20 24       		.byte	0x24
 18045 1e21 17       		.byte	0x17
 18046 1e22 25       		.byte	0x25
 18047 1e23 21       		.byte	0x21
 18048 1e24 27       		.byte	0x27
 18049 1e25 72       		.byte	0x72
 18050 1e26 00       		.sleb128 0
 18051 1e27 3A       		.byte	0x3a
 18052 1e28 14       		.byte	0x14
 18053 1e29 14       		.byte	0x14
 18054 1e2a 24       		.byte	0x24
 18055 1e2b 17       		.byte	0x17
 18056 1e2c 1F       		.byte	0x1f
 18057 1e2d 23       		.byte	0x23
 18058 1e2e 20       		.uleb128 0x20
 18059 1e2f 25       		.byte	0x25
 18060 1e30 21       		.byte	0x21
 18061 1e31 27       		.byte	0x27
 18062 1e32 22       		.byte	0x22
 18063 1e33 9F       		.byte	0x9f
 18064 1e34 A61E0000 		.4byte	.LVL328
 18065 1e38 AC1E0000 		.4byte	.LVL329
 18066 1e3c 0F00     		.2byte	0xf
 18067 1e3e 7B       		.byte	0x7b
 18068 1e3f 00       		.sleb128 0
 18069 1e40 72       		.byte	0x72
 18070 1e41 00       		.sleb128 0
 18071 1e42 21       		.byte	0x21
 18072 1e43 73       		.byte	0x73
 18073 1e44 00       		.sleb128 0
 18074 1e45 1A       		.byte	0x1a
 18075 1e46 79       		.byte	0x79
 18076 1e47 00       		.sleb128 0
 18077 1e48 21       		.byte	0x21
 18078 1e49 7A       		.byte	0x7a
 18079 1e4a 00       		.sleb128 0
 18080 1e4b 22       		.byte	0x22
 18081 1e4c 9F       		.byte	0x9f
 18082 1e4d 00000000 		.4byte	0
 18083 1e51 00000000 		.4byte	0
 18084              	.LLST8:
 18085 1e55 B8000000 		.4byte	.LVL10
 18086 1e59 BC000000 		.4byte	.LVL11
 18087 1e5d 0D00     		.2byte	0xd
 18088 1e5f 91       		.byte	0x91
 18089 1e60 8C7E     		.sleb128 -244
 18090 1e62 93       		.byte	0x93
ARM GAS  C:\Users\jo\AppData\Local\Temp\ccDsJqTW.s 			page 321


 18091 1e63 04       		.uleb128 0x4
 18092 1e64 91       		.byte	0x91
 18093 1e65 DC7D     		.sleb128 -292
 18094 1e67 93       		.byte	0x93
 18095 1e68 04       		.uleb128 0x4
 18096 1e69 93       		.byte	0x93
 18097 1e6a F801     		.uleb128 0xf8
 18098 1e6c 00000000 		.4byte	0
 18099 1e70 00000000 		.4byte	0
 18100              	.LLST9:
 18101 1e74 5A070000 		.4byte	.LVL25
 18102 1e78 70070000 		.4byte	.LVL28
 18103 1e7c 0100     		.2byte	0x1
 18104 1e7e 5A       		.byte	0x5a
 18105 1e7f DE070000 		.4byte	.LVL34
 18106 1e83 2E0B0000 		.4byte	.LVL78
 18107 1e87 0100     		.2byte	0x1
 18108 1e89 5C       		.byte	0x5c
 18109 1e8a 8C0B0000 		.4byte	.LVL82
 18110 1e8e 080F0000 		.4byte	.LVL123
 18111 1e92 0100     		.2byte	0x1
 18112 1e94 5C       		.byte	0x5c
 18113 1e95 5E0F0000 		.4byte	.LVL127
 18114 1e99 C2120000 		.4byte	.LVL171
 18115 1e9d 0100     		.2byte	0x1
 18116 1e9f 5C       		.byte	0x5c
 18117 1ea0 26130000 		.4byte	.LVL175
 18118 1ea4 8A160000 		.4byte	.LVL217
 18119 1ea8 0100     		.2byte	0x1
 18120 1eaa 5C       		.byte	0x5c
 18121 1eab D8160000 		.4byte	.LVL221
 18122 1eaf 341A0000 		.4byte	.LVL264
 18123 1eb3 0100     		.2byte	0x1
 18124 1eb5 5E       		.byte	0x5e
 18125 1eb6 8C1A0000 		.4byte	.LVL269
 18126 1eba F61A0000 		.4byte	.LVL273
 18127 1ebe 0100     		.2byte	0x1
 18128 1ec0 56       		.byte	0x56
 18129 1ec1 F61A0000 		.4byte	.LVL273
 18130 1ec5 A21C0000 		.4byte	.LVL298
 18131 1ec9 0300     		.2byte	0x3
 18132 1ecb 91       		.byte	0x91
 18133 1ecc F87D     		.sleb128 -264
 18134 1ece A21C0000 		.4byte	.LVL298
 18135 1ed2 841E0000 		.4byte	.LVL327
 18136 1ed6 0100     		.2byte	0x1
 18137 1ed8 5E       		.byte	0x5e
 18138 1ed9 A61E0000 		.4byte	.LVL328
 18139 1edd AC1E0000 		.4byte	.LVL329
 18140 1ee1 1200     		.2byte	0x12
 18141 1ee3 7B       		.byte	0x7b
 18142 1ee4 00       		.sleb128 0
 18143 1ee5 72       		.byte	0x72
 18144 1ee6 00       		.sleb128 0
 18145 1ee7 21       		.byte	0x21
 18146 1ee8 73       		.byte	0x73
 18147 1ee9 00       		.sleb128 0
ARM GAS  C:\Users\jo\AppData\Local\Temp\ccDsJqTW.s 			page 322


 18148 1eea 1A       		.byte	0x1a
 18149 1eeb 79       		.byte	0x79
 18150 1eec 00       		.sleb128 0
 18151 1eed 21       		.byte	0x21
 18152 1eee 7A       		.byte	0x7a
 18153 1eef 00       		.sleb128 0
 18154 1ef0 22       		.byte	0x22
 18155 1ef1 76       		.byte	0x76
 18156 1ef2 00       		.sleb128 0
 18157 1ef3 22       		.byte	0x22
 18158 1ef4 9F       		.byte	0x9f
 18159 1ef5 00000000 		.4byte	0
 18160 1ef9 00000000 		.4byte	0
 18161              	.LLST10:
 18162 1efd 60070000 		.4byte	.LVL26
 18163 1f01 D60A0000 		.4byte	.LVL71
 18164 1f05 0100     		.2byte	0x1
 18165 1f07 58       		.byte	0x58
 18166 1f08 0C0B0000 		.4byte	.LVL74
 18167 1f0c 140B0000 		.4byte	.LVL76
 18168 1f10 0300     		.2byte	0x3
 18169 1f12 91       		.byte	0x91
 18170 1f13 887E     		.sleb128 -248
 18171 1f15 140B0000 		.4byte	.LVL76
 18172 1f19 EE0C0000 		.4byte	.LVL99
 18173 1f1d 3200     		.2byte	0x32
 18174 1f1f F3       		.byte	0xf3
 18175 1f20 01       		.uleb128 0x1
 18176 1f21 51       		.byte	0x51
 18177 1f22 23       		.byte	0x23
 18178 1f23 08       		.uleb128 0x8
 18179 1f24 94       		.byte	0x94
 18180 1f25 01       		.byte	0x1
 18181 1f26 08       		.byte	0x8
 18182 1f27 FF       		.byte	0xff
 18183 1f28 1A       		.byte	0x1a
 18184 1f29 48       		.byte	0x48
 18185 1f2a 24       		.byte	0x24
 18186 1f2b F3       		.byte	0xf3
 18187 1f2c 01       		.uleb128 0x1
 18188 1f2d 51       		.byte	0x51
 18189 1f2e 23       		.byte	0x23
 18190 1f2f 09       		.uleb128 0x9
 18191 1f30 94       		.byte	0x94
 18192 1f31 01       		.byte	0x1
 18193 1f32 08       		.byte	0x8
 18194 1f33 FF       		.byte	0xff
 18195 1f34 1A       		.byte	0x1a
 18196 1f35 40       		.byte	0x40
 18197 1f36 24       		.byte	0x24
 18198 1f37 21       		.byte	0x21
 18199 1f38 F3       		.byte	0xf3
 18200 1f39 01       		.uleb128 0x1
 18201 1f3a 51       		.byte	0x51
 18202 1f3b 23       		.byte	0x23
 18203 1f3c 0A       		.uleb128 0xa
 18204 1f3d 94       		.byte	0x94
ARM GAS  C:\Users\jo\AppData\Local\Temp\ccDsJqTW.s 			page 323


 18205 1f3e 01       		.byte	0x1
 18206 1f3f 08       		.byte	0x8
 18207 1f40 FF       		.byte	0xff
 18208 1f41 1A       		.byte	0x1a
 18209 1f42 38       		.byte	0x38
 18210 1f43 24       		.byte	0x24
 18211 1f44 21       		.byte	0x21
 18212 1f45 F3       		.byte	0xf3
 18213 1f46 01       		.uleb128 0x1
 18214 1f47 51       		.byte	0x51
 18215 1f48 23       		.byte	0x23
 18216 1f49 0B       		.uleb128 0xb
 18217 1f4a 94       		.byte	0x94
 18218 1f4b 01       		.byte	0x1
 18219 1f4c 08       		.byte	0x8
 18220 1f4d FF       		.byte	0xff
 18221 1f4e 1A       		.byte	0x1a
 18222 1f4f 21       		.byte	0x21
 18223 1f50 9F       		.byte	0x9f
 18224 1f51 EE0C0000 		.4byte	.LVL99
 18225 1f55 F00C0000 		.4byte	.LVL100
 18226 1f59 0100     		.2byte	0x1
 18227 1f5b 50       		.byte	0x50
 18228 1f5c F00C0000 		.4byte	.LVL100
 18229 1f60 900E0000 		.4byte	.LVL118
 18230 1f64 0100     		.2byte	0x1
 18231 1f66 54       		.byte	0x54
 18232 1f67 E60E0000 		.4byte	.LVL121
 18233 1f6b 96100000 		.4byte	.LVL141
 18234 1f6f 0100     		.2byte	0x1
 18235 1f71 54       		.byte	0x54
 18236 1f72 96100000 		.4byte	.LVL141
 18237 1f76 A6100000 		.4byte	.LVL143
 18238 1f7a 0300     		.2byte	0x3
 18239 1f7c 91       		.byte	0x91
 18240 1f7d EC7D     		.sleb128 -276
 18241 1f7f A6100000 		.4byte	.LVL143
 18242 1f83 9E120000 		.4byte	.LVL167
 18243 1f87 1600     		.2byte	0x16
 18244 1f89 91       		.byte	0x91
 18245 1f8a 48       		.sleb128 -56
 18246 1f8b 06       		.byte	0x6
 18247 1f8c 48       		.byte	0x48
 18248 1f8d 24       		.byte	0x24
 18249 1f8e 91       		.byte	0x91
 18250 1f8f 4C       		.sleb128 -52
 18251 1f90 06       		.byte	0x6
 18252 1f91 40       		.byte	0x40
 18253 1f92 24       		.byte	0x24
 18254 1f93 21       		.byte	0x21
 18255 1f94 91       		.byte	0x91
 18256 1f95 54       		.sleb128 -44
 18257 1f96 06       		.byte	0x6
 18258 1f97 38       		.byte	0x38
 18259 1f98 24       		.byte	0x24
 18260 1f99 21       		.byte	0x21
 18261 1f9a 91       		.byte	0x91
ARM GAS  C:\Users\jo\AppData\Local\Temp\ccDsJqTW.s 			page 324


 18262 1f9b 50       		.sleb128 -48
 18263 1f9c 06       		.byte	0x6
 18264 1f9d 21       		.byte	0x21
 18265 1f9e 9F       		.byte	0x9f
 18266 1f9f 9E120000 		.4byte	.LVL167
 18267 1fa3 A8120000 		.4byte	.LVL168
 18268 1fa7 0300     		.2byte	0x3
 18269 1fa9 91       		.byte	0x91
 18270 1faa EC7D     		.sleb128 -276
 18271 1fac 66140000 		.4byte	.LVL189
 18272 1fb0 74140000 		.4byte	.LVL193
 18273 1fb4 0300     		.2byte	0x3
 18274 1fb6 91       		.byte	0x91
 18275 1fb7 E47D     		.sleb128 -284
 18276 1fb9 68160000 		.4byte	.LVL214
 18277 1fbd C8190000 		.4byte	.LVL258
 18278 1fc1 0100     		.2byte	0x1
 18279 1fc3 5A       		.byte	0x5a
 18280 1fc4 201A0000 		.4byte	.LVL262
 18281 1fc8 FE1B0000 		.4byte	.LVL291
 18282 1fcc 0100     		.2byte	0x1
 18283 1fce 50       		.byte	0x50
 18284 1fcf FE1B0000 		.4byte	.LVL291
 18285 1fd3 121C0000 		.4byte	.LVL292
 18286 1fd7 0300     		.2byte	0x3
 18287 1fd9 91       		.byte	0x91
 18288 1fda E07D     		.sleb128 -288
 18289 1fdc 4E1E0000 		.4byte	.LVL324
 18290 1fe0 E01E0000 		.4byte	.LFE4
 18291 1fe4 0100     		.2byte	0x1
 18292 1fe6 5B       		.byte	0x5b
 18293 1fe7 00000000 		.4byte	0
 18294 1feb 00000000 		.4byte	0
 18295              	.LLST11:
 18296 1fef 5A070000 		.4byte	.LVL25
 18297 1ff3 400A0000 		.4byte	.LVL64
 18298 1ff7 0100     		.2byte	0x1
 18299 1ff9 52       		.byte	0x52
 18300 1ffa A00A0000 		.4byte	.LVL69
 18301 1ffe 5C0C0000 		.4byte	.LVL89
 18302 2002 0100     		.2byte	0x1
 18303 2004 50       		.byte	0x50
 18304 2005 5C0C0000 		.4byte	.LVL89
 18305 2009 680C0000 		.4byte	.LVL90
 18306 200d 0300     		.2byte	0x3
 18307 200f 91       		.byte	0x91
 18308 2010 E07D     		.sleb128 -288
 18309 2012 7E0E0000 		.4byte	.LVL116
 18310 2016 AC110000 		.4byte	.LVL157
 18311 201a 0100     		.2byte	0x1
 18312 201c 5B       		.byte	0x5b
 18313 201d 34120000 		.4byte	.LVL162
 18314 2021 5E150000 		.4byte	.LVL204
 18315 2025 0100     		.2byte	0x1
 18316 2027 59       		.byte	0x59
 18317 2028 F0150000 		.4byte	.LVL209
 18318 202c 3A190000 		.4byte	.LVL252
ARM GAS  C:\Users\jo\AppData\Local\Temp\ccDsJqTW.s 			page 325


 18319 2030 0100     		.2byte	0x1
 18320 2032 50       		.byte	0x50
 18321 2033 AE190000 		.4byte	.LVL256
 18322 2037 421D0000 		.4byte	.LVL311
 18323 203b 0100     		.2byte	0x1
 18324 203d 52       		.byte	0x52
 18325 203e A61D0000 		.4byte	.LVL320
 18326 2042 BC1E0000 		.4byte	.LVL331
 18327 2046 0100     		.2byte	0x1
 18328 2048 52       		.byte	0x52
 18329 2049 00000000 		.4byte	0
 18330 204d 00000000 		.4byte	0
 18331              	.LLST12:
 18332 2051 5A070000 		.4byte	.LVL25
 18333 2055 C4090000 		.4byte	.LVL54
 18334 2059 0100     		.2byte	0x1
 18335 205b 5B       		.byte	0x5b
 18336 205c 340A0000 		.4byte	.LVL61
 18337 2060 BE0D0000 		.4byte	.LVL107
 18338 2064 0100     		.2byte	0x1
 18339 2066 53       		.byte	0x53
 18340 2067 1E0E0000 		.4byte	.LVL111
 18341 206b 4C0E0000 		.4byte	.LVL112
 18342 206f 0100     		.2byte	0x1
 18343 2071 53       		.byte	0x53
 18344 2072 4C0E0000 		.4byte	.LVL112
 18345 2076 580E0000 		.4byte	.LVL113
 18346 207a 0100     		.2byte	0x1
 18347 207c 55       		.byte	0x55
 18348 207d 580E0000 		.4byte	.LVL113
 18349 2081 D00F0000 		.4byte	.LVL131
 18350 2085 0300     		.2byte	0x3
 18351 2087 91       		.byte	0x91
 18352 2088 E87D     		.sleb128 -280
 18353 208a D00F0000 		.4byte	.LVL131
 18354 208e 40110000 		.4byte	.LVL150
 18355 2092 0100     		.2byte	0x1
 18356 2094 53       		.byte	0x53
 18357 2095 A0110000 		.4byte	.LVL156
 18358 2099 06150000 		.4byte	.LVL201
 18359 209d 0100     		.2byte	0x1
 18360 209f 53       		.byte	0x53
 18361 20a0 68150000 		.4byte	.LVL205
 18362 20a4 4C170000 		.4byte	.LVL224
 18363 20a8 0100     		.2byte	0x1
 18364 20aa 55       		.byte	0x55
 18365 20ab 4C170000 		.4byte	.LVL224
 18366 20af C6180000 		.4byte	.LVL246
 18367 20b3 0100     		.2byte	0x1
 18368 20b5 52       		.byte	0x52
 18369 20b6 20190000 		.4byte	.LVL250
 18370 20ba BE1C0000 		.4byte	.LVL302
 18371 20be 0100     		.2byte	0x1
 18372 20c0 53       		.byte	0x53
 18373 20c1 3A1D0000 		.4byte	.LVL309
 18374 20c5 AC1E0000 		.4byte	.LVL329
 18375 20c9 0100     		.2byte	0x1
ARM GAS  C:\Users\jo\AppData\Local\Temp\ccDsJqTW.s 			page 326


 18376 20cb 53       		.byte	0x53
 18377 20cc 00000000 		.4byte	0
 18378 20d0 00000000 		.4byte	0
 18379              	.LLST13:
 18380 20d4 5A070000 		.4byte	.LVL25
 18381 20d8 2A090000 		.4byte	.LVL49
 18382 20dc 0100     		.2byte	0x1
 18383 20de 53       		.byte	0x53
 18384 20df 880B0000 		.4byte	.LVL81
 18385 20e3 260D0000 		.4byte	.LVL101
 18386 20e7 0100     		.2byte	0x1
 18387 20e9 55       		.byte	0x55
 18388 20ea 840D0000 		.4byte	.LVL105
 18389 20ee D20D0000 		.4byte	.LVL108
 18390 20f2 0100     		.2byte	0x1
 18391 20f4 55       		.byte	0x55
 18392 20f5 D20D0000 		.4byte	.LVL108
 18393 20f9 420F0000 		.4byte	.LVL124
 18394 20fd 0300     		.2byte	0x3
 18395 20ff 91       		.byte	0x91
 18396 2100 A47E     		.sleb128 -220
 18397 2102 420F0000 		.4byte	.LVL124
 18398 2106 520F0000 		.4byte	.LVL125
 18399 210a 0300     		.2byte	0x3
 18400 210c 91       		.byte	0x91
 18401 210d E07D     		.sleb128 -288
 18402 210f 2A110000 		.4byte	.LVL148
 18403 2113 8E140000 		.4byte	.LVL194
 18404 2117 0100     		.2byte	0x1
 18405 2119 55       		.byte	0x55
 18406 211a E4140000 		.4byte	.LVL199
 18407 211e 5E180000 		.4byte	.LVL240
 18408 2122 0100     		.2byte	0x1
 18409 2124 56       		.byte	0x56
 18410 2125 9E180000 		.4byte	.LVL244
 18411 2129 4E1A0000 		.4byte	.LVL265
 18412 212d 0100     		.2byte	0x1
 18413 212f 56       		.byte	0x56
 18414 2130 4E1A0000 		.4byte	.LVL265
 18415 2134 841A0000 		.4byte	.LVL268
 18416 2138 0300     		.2byte	0x3
 18417 213a 91       		.byte	0x91
 18418 213b E87D     		.sleb128 -280
 18419 213d AA1C0000 		.4byte	.LVL299
 18420 2141 EE1C0000 		.4byte	.LVL304
 18421 2145 0100     		.2byte	0x1
 18422 2147 55       		.byte	0x55
 18423 2148 EE1C0000 		.4byte	.LVL304
 18424 214c 341D0000 		.4byte	.LVL308
 18425 2150 0100     		.2byte	0x1
 18426 2152 50       		.byte	0x50
 18427 2153 341D0000 		.4byte	.LVL308
 18428 2157 6A1D0000 		.4byte	.LVL315
 18429 215b 0100     		.2byte	0x1
 18430 215d 55       		.byte	0x55
 18431 215e 6A1D0000 		.4byte	.LVL315
 18432 2162 A61E0000 		.4byte	.LVL328
ARM GAS  C:\Users\jo\AppData\Local\Temp\ccDsJqTW.s 			page 327


 18433 2166 0300     		.2byte	0x3
 18434 2168 91       		.byte	0x91
 18435 2169 E87D     		.sleb128 -280
 18436 216b A61E0000 		.4byte	.LVL328
 18437 216f C61E0000 		.4byte	.LVL333
 18438 2173 0800     		.2byte	0x8
 18439 2175 91       		.byte	0x91
 18440 2176 E87D     		.sleb128 -280
 18441 2178 06       		.byte	0x6
 18442 2179 76       		.byte	0x76
 18443 217a 00       		.sleb128 0
 18444 217b 22       		.byte	0x22
 18445 217c 9F       		.byte	0x9f
 18446 217d 00000000 		.4byte	0
 18447 2181 00000000 		.4byte	0
 18448              	.LLST14:
 18449 2185 5A070000 		.4byte	.LVL25
 18450 2189 7E070000 		.4byte	.LVL29
 18451 218d 0100     		.2byte	0x1
 18452 218f 55       		.byte	0x55
 18453 2190 7E070000 		.4byte	.LVL29
 18454 2194 38090000 		.4byte	.LVL50
 18455 2198 0300     		.2byte	0x3
 18456 219a 91       		.byte	0x91
 18457 219b FC7D     		.sleb128 -260
 18458 219d 38090000 		.4byte	.LVL50
 18459 21a1 8A0C0000 		.4byte	.LVL93
 18460 21a5 0100     		.2byte	0x1
 18461 21a7 56       		.byte	0x56
 18462 21a8 EE0C0000 		.4byte	.LVL99
 18463 21ac 54100000 		.4byte	.LVL140
 18464 21b0 0100     		.2byte	0x1
 18465 21b2 5E       		.byte	0x5e
 18466 21b3 B8100000 		.4byte	.LVL144
 18467 21b7 9E120000 		.4byte	.LVL167
 18468 21bb 0100     		.2byte	0x1
 18469 21bd 5E       		.byte	0x5e
 18470 21be 9E120000 		.4byte	.LVL167
 18471 21c2 32140000 		.4byte	.LVL188
 18472 21c6 0100     		.2byte	0x1
 18473 21c8 50       		.byte	0x50
 18474 21c9 6E140000 		.4byte	.LVL191
 18475 21cd 68160000 		.4byte	.LVL214
 18476 21d1 0100     		.2byte	0x1
 18477 21d3 58       		.byte	0x58
 18478 21d4 68160000 		.4byte	.LVL214
 18479 21d8 EC170000 		.4byte	.LVL234
 18480 21dc 0100     		.2byte	0x1
 18481 21de 53       		.byte	0x53
 18482 21df 36180000 		.4byte	.LVL238
 18483 21e3 D21B0000 		.4byte	.LVL289
 18484 21e7 0100     		.2byte	0x1
 18485 21e9 5B       		.byte	0x5b
 18486 21ea 281C0000 		.4byte	.LVL293
 18487 21ee 6E1C0000 		.4byte	.LVL295
 18488 21f2 0100     		.2byte	0x1
 18489 21f4 5C       		.byte	0x5c
ARM GAS  C:\Users\jo\AppData\Local\Temp\ccDsJqTW.s 			page 328


 18490 21f5 6E1C0000 		.4byte	.LVL295
 18491 21f9 D81C0000 		.4byte	.LVL303
 18492 21fd 0100     		.2byte	0x1
 18493 21ff 51       		.byte	0x51
 18494 2200 D81C0000 		.4byte	.LVL303
 18495 2204 4E1E0000 		.4byte	.LVL324
 18496 2208 0300     		.2byte	0x3
 18497 220a 91       		.byte	0x91
 18498 220b FC7D     		.sleb128 -260
 18499 220d 4E1E0000 		.4byte	.LVL324
 18500 2211 BE1E0000 		.4byte	.LVL332
 18501 2215 0100     		.2byte	0x1
 18502 2217 50       		.byte	0x50
 18503 2218 00000000 		.4byte	0
 18504 221c 00000000 		.4byte	0
 18505              	.LLST15:
 18506 2220 5A070000 		.4byte	.LVL25
 18507 2224 54080000 		.4byte	.LVL40
 18508 2228 0100     		.2byte	0x1
 18509 222a 5E       		.byte	0x5e
 18510 222b C8080000 		.4byte	.LVL45
 18511 222f 3C0C0000 		.4byte	.LVL88
 18512 2233 0100     		.2byte	0x1
 18513 2235 57       		.byte	0x57
 18514 2236 880C0000 		.4byte	.LVL92
 18515 223a D60F0000 		.4byte	.LVL133
 18516 223e 0100     		.2byte	0x1
 18517 2240 52       		.byte	0x52
 18518 2241 38100000 		.4byte	.LVL138
 18519 2245 A6130000 		.4byte	.LVL181
 18520 2249 0100     		.2byte	0x1
 18521 224b 52       		.byte	0x52
 18522 224c 18140000 		.4byte	.LVL186
 18523 2250 EE150000 		.4byte	.LVL208
 18524 2254 0100     		.2byte	0x1
 18525 2256 52       		.byte	0x52
 18526 2257 EE150000 		.4byte	.LVL208
 18527 225b 82170000 		.4byte	.LVL228
 18528 225f 0100     		.2byte	0x1
 18529 2261 59       		.byte	0x59
 18530 2262 CE170000 		.4byte	.LVL232
 18531 2266 3E1B0000 		.4byte	.LVL282
 18532 226a 0100     		.2byte	0x1
 18533 226c 5C       		.byte	0x5c
 18534 226d AA1B0000 		.4byte	.LVL288
 18535 2271 A01D0000 		.4byte	.LVL319
 18536 2275 0300     		.2byte	0x3
 18537 2277 91       		.byte	0x91
 18538 2278 DC7D     		.sleb128 -292
 18539 227a A01D0000 		.4byte	.LVL319
 18540 227e B01E0000 		.4byte	.LVL330
 18541 2282 0100     		.2byte	0x1
 18542 2284 51       		.byte	0x51
 18543 2285 00000000 		.4byte	0
 18544 2289 00000000 		.4byte	0
 18545              	.LLST16:
 18546 228d 5A070000 		.4byte	.LVL25
ARM GAS  C:\Users\jo\AppData\Local\Temp\ccDsJqTW.s 			page 329


 18547 2291 EC070000 		.4byte	.LVL36
 18548 2295 0100     		.2byte	0x1
 18549 2297 59       		.byte	0x59
 18550 2298 42080000 		.4byte	.LVL39
 18551 229c 340A0000 		.4byte	.LVL61
 18552 22a0 0300     		.2byte	0x3
 18553 22a2 91       		.byte	0x91
 18554 22a3 E07D     		.sleb128 -288
 18555 22a5 340A0000 		.4byte	.LVL61
 18556 22a9 3A0A0000 		.4byte	.LVL63
 18557 22ad 0100     		.2byte	0x1
 18558 22af 51       		.byte	0x51
 18559 22b0 3A0A0000 		.4byte	.LVL63
 18560 22b4 A80B0000 		.4byte	.LVL84
 18561 22b8 0100     		.2byte	0x1
 18562 22ba 5E       		.byte	0x5e
 18563 22bb 080C0000 		.4byte	.LVL87
 18564 22bf 7C0F0000 		.4byte	.LVL129
 18565 22c3 0100     		.2byte	0x1
 18566 22c5 51       		.byte	0x51
 18567 22c6 D40F0000 		.4byte	.LVL132
 18568 22ca 34130000 		.4byte	.LVL177
 18569 22ce 0100     		.2byte	0x1
 18570 22d0 51       		.byte	0x51
 18571 22d1 A4130000 		.4byte	.LVL180
 18572 22d5 4A150000 		.4byte	.LVL202
 18573 22d9 0100     		.2byte	0x1
 18574 22db 51       		.byte	0x51
 18575 22dc 4A150000 		.4byte	.LVL202
 18576 22e0 5A150000 		.4byte	.LVL203
 18577 22e4 0300     		.2byte	0x3
 18578 22e6 91       		.byte	0x91
 18579 22e7 EC7D     		.sleb128 -276
 18580 22e9 5C170000 		.4byte	.LVL226
 18581 22ed B81A0000 		.4byte	.LVL271
 18582 22f1 0100     		.2byte	0x1
 18583 22f3 51       		.byte	0x51
 18584 22f4 0A1B0000 		.4byte	.LVL277
 18585 22f8 0C1B0000 		.4byte	.LVL278
 18586 22fc 0100     		.2byte	0x1
 18587 22fe 51       		.byte	0x51
 18588 22ff 0C1B0000 		.4byte	.LVL278
 18589 2303 161B0000 		.4byte	.LVL280
 18590 2307 0100     		.2byte	0x1
 18591 2309 56       		.byte	0x56
 18592 230a 161B0000 		.4byte	.LVL280
 18593 230e 2C1B0000 		.4byte	.LVL281
 18594 2312 0100     		.2byte	0x1
 18595 2314 58       		.byte	0x58
 18596 2315 2C1B0000 		.4byte	.LVL281
 18597 2319 421B0000 		.4byte	.LVL283
 18598 231d 0100     		.2byte	0x1
 18599 231f 56       		.byte	0x56
 18600 2320 421B0000 		.4byte	.LVL283
 18601 2324 7E1B0000 		.4byte	.LVL284
 18602 2328 0100     		.2byte	0x1
 18603 232a 5C       		.byte	0x5c
ARM GAS  C:\Users\jo\AppData\Local\Temp\ccDsJqTW.s 			page 330


 18604 232b 7E1B0000 		.4byte	.LVL284
 18605 232f 301D0000 		.4byte	.LVL307
 18606 2333 0300     		.2byte	0x3
 18607 2335 91       		.byte	0x91
 18608 2336 EC7D     		.sleb128 -276
 18609 2338 301D0000 		.4byte	.LVL307
 18610 233c 5C1D0000 		.4byte	.LVL313
 18611 2340 0100     		.2byte	0x1
 18612 2342 57       		.byte	0x57
 18613 2343 5C1D0000 		.4byte	.LVL313
 18614 2347 921D0000 		.4byte	.LVL316
 18615 234b 0100     		.2byte	0x1
 18616 234d 51       		.byte	0x51
 18617 234e 921D0000 		.4byte	.LVL316
 18618 2352 E01E0000 		.4byte	.LFE4
 18619 2356 0300     		.2byte	0x3
 18620 2358 91       		.byte	0x91
 18621 2359 EC7D     		.sleb128 -276
 18622 235b 00000000 		.4byte	0
 18623 235f 00000000 		.4byte	0
 18624              	.LLST17:
 18625 2363 00000000 		.4byte	.LVL335
 18626 2367 08000000 		.4byte	.LVL336
 18627 236b 0100     		.2byte	0x1
 18628 236d 50       		.byte	0x50
 18629 236e 08000000 		.4byte	.LVL336
 18630 2372 8E000000 		.4byte	.LVL353
 18631 2376 0100     		.2byte	0x1
 18632 2378 56       		.byte	0x56
 18633 2379 8E000000 		.4byte	.LVL353
 18634 237d 92000000 		.4byte	.LFE15
 18635 2381 0400     		.2byte	0x4
 18636 2383 F3       		.byte	0xf3
 18637 2384 01       		.uleb128 0x1
 18638 2385 50       		.byte	0x50
 18639 2386 9F       		.byte	0x9f
 18640 2387 00000000 		.4byte	0
 18641 238b 00000000 		.4byte	0
 18642              	.LLST18:
 18643 238f 00000000 		.4byte	.LVL335
 18644 2393 2C000000 		.4byte	.LVL338
 18645 2397 0100     		.2byte	0x1
 18646 2399 51       		.byte	0x51
 18647 239a 2C000000 		.4byte	.LVL338
 18648 239e 2E000000 		.4byte	.LVL339
 18649 23a2 0100     		.2byte	0x1
 18650 23a4 59       		.byte	0x59
 18651 23a5 32000000 		.4byte	.LVL340
 18652 23a9 38000000 		.4byte	.LVL341
 18653 23ad 0100     		.2byte	0x1
 18654 23af 51       		.byte	0x51
 18655 23b0 38000000 		.4byte	.LVL341
 18656 23b4 5A000000 		.4byte	.LVL348
 18657 23b8 0100     		.2byte	0x1
 18658 23ba 59       		.byte	0x59
 18659 23bb 5A000000 		.4byte	.LVL348
 18660 23bf 80000000 		.4byte	.LVL352
ARM GAS  C:\Users\jo\AppData\Local\Temp\ccDsJqTW.s 			page 331


 18661 23c3 0100     		.2byte	0x1
 18662 23c5 54       		.byte	0x54
 18663 23c6 00000000 		.4byte	0
 18664 23ca 00000000 		.4byte	0
 18665              	.LLST19:
 18666 23ce 00000000 		.4byte	.LVL335
 18667 23d2 2C000000 		.4byte	.LVL338
 18668 23d6 0100     		.2byte	0x1
 18669 23d8 52       		.byte	0x52
 18670 23d9 2C000000 		.4byte	.LVL338
 18671 23dd 2E000000 		.4byte	.LVL339
 18672 23e1 0100     		.2byte	0x1
 18673 23e3 57       		.byte	0x57
 18674 23e4 32000000 		.4byte	.LVL340
 18675 23e8 3A000000 		.4byte	.LVL342
 18676 23ec 0100     		.2byte	0x1
 18677 23ee 52       		.byte	0x52
 18678 23ef 3A000000 		.4byte	.LVL342
 18679 23f3 4C000000 		.4byte	.LVL345
 18680 23f7 0100     		.2byte	0x1
 18681 23f9 57       		.byte	0x57
 18682 23fa 4C000000 		.4byte	.LVL345
 18683 23fe 4E000000 		.4byte	.LVL346
 18684 2402 0400     		.2byte	0x4
 18685 2404 F3       		.byte	0xf3
 18686 2405 01       		.uleb128 0x1
 18687 2406 52       		.byte	0x52
 18688 2407 9F       		.byte	0x9f
 18689 2408 4E000000 		.4byte	.LVL346
 18690 240c 5A000000 		.4byte	.LVL348
 18691 2410 0100     		.2byte	0x1
 18692 2412 57       		.byte	0x57
 18693 2413 5A000000 		.4byte	.LVL348
 18694 2417 5E000000 		.4byte	.LVL349
 18695 241b 0100     		.2byte	0x1
 18696 241d 55       		.byte	0x55
 18697 241e 5E000000 		.4byte	.LVL349
 18698 2422 6A000000 		.4byte	.LVL351
 18699 2426 0400     		.2byte	0x4
 18700 2428 75       		.byte	0x75
 18701 2429 C000     		.sleb128 64
 18702 242b 9F       		.byte	0x9f
 18703 242c 6A000000 		.4byte	.LVL351
 18704 2430 80000000 		.4byte	.LVL352
 18705 2434 0100     		.2byte	0x1
 18706 2436 55       		.byte	0x55
 18707 2437 00000000 		.4byte	0
 18708 243b 00000000 		.4byte	0
 18709              	.LLST20:
 18710 243f 16000000 		.4byte	.LVL337
 18711 2443 2C000000 		.4byte	.LVL338
 18712 2447 0600     		.2byte	0x6
 18713 2449 08       		.byte	0x8
 18714 244a 40       		.byte	0x40
 18715 244b 78       		.byte	0x78
 18716 244c 00       		.sleb128 0
 18717 244d 1C       		.byte	0x1c
ARM GAS  C:\Users\jo\AppData\Local\Temp\ccDsJqTW.s 			page 332


 18718 244e 9F       		.byte	0x9f
 18719 244f 32000000 		.4byte	.LVL340
 18720 2453 52000000 		.4byte	.LVL347
 18721 2457 0600     		.2byte	0x6
 18722 2459 08       		.byte	0x8
 18723 245a 40       		.byte	0x40
 18724 245b 78       		.byte	0x78
 18725 245c 00       		.sleb128 0
 18726 245d 1C       		.byte	0x1c
 18727 245e 9F       		.byte	0x9f
 18728 245f 00000000 		.4byte	0
 18729 2463 00000000 		.4byte	0
 18730              	.LLST21:
 18731 2467 16000000 		.4byte	.LVL337
 18732 246b 2E000000 		.4byte	.LVL339
 18733 246f 0100     		.2byte	0x1
 18734 2471 58       		.byte	0x58
 18735 2472 32000000 		.4byte	.LVL340
 18736 2476 4E000000 		.4byte	.LVL346
 18737 247a 0100     		.2byte	0x1
 18738 247c 58       		.byte	0x58
 18739 247d 4E000000 		.4byte	.LVL346
 18740 2481 52000000 		.4byte	.LVL347
 18741 2485 0200     		.2byte	0x2
 18742 2487 30       		.byte	0x30
 18743 2488 9F       		.byte	0x9f
 18744 2489 52000000 		.4byte	.LVL347
 18745 248d 5A000000 		.4byte	.LVL348
 18746 2491 0100     		.2byte	0x1
 18747 2493 58       		.byte	0x58
 18748 2494 00000000 		.4byte	0
 18749 2498 00000000 		.4byte	0
 18750              	.LLST22:
 18751 249c 00000000 		.4byte	.LVL355
 18752 24a0 05000000 		.4byte	.LVL356-1
 18753 24a4 0100     		.2byte	0x1
 18754 24a6 50       		.byte	0x50
 18755 24a7 05000000 		.4byte	.LVL356-1
 18756 24ab 06000000 		.4byte	.LVL356
 18757 24af 0400     		.2byte	0x4
 18758 24b1 F3       		.byte	0xf3
 18759 24b2 01       		.uleb128 0x1
 18760 24b3 50       		.byte	0x50
 18761 24b4 9F       		.byte	0x9f
 18762 24b5 06000000 		.4byte	.LVL356
 18763 24b9 08000000 		.4byte	.LFE5
 18764 24bd 0100     		.2byte	0x1
 18765 24bf 50       		.byte	0x50
 18766 24c0 00000000 		.4byte	0
 18767 24c4 00000000 		.4byte	0
 18768              	.LLST23:
 18769 24c8 00000000 		.4byte	.LVL355
 18770 24cc 05000000 		.4byte	.LVL356-1
 18771 24d0 0100     		.2byte	0x1
 18772 24d2 51       		.byte	0x51
 18773 24d3 05000000 		.4byte	.LVL356-1
 18774 24d7 06000000 		.4byte	.LVL356
ARM GAS  C:\Users\jo\AppData\Local\Temp\ccDsJqTW.s 			page 333


 18775 24db 0400     		.2byte	0x4
 18776 24dd F3       		.byte	0xf3
 18777 24de 01       		.uleb128 0x1
 18778 24df 51       		.byte	0x51
 18779 24e0 9F       		.byte	0x9f
 18780 24e1 06000000 		.4byte	.LVL356
 18781 24e5 08000000 		.4byte	.LFE5
 18782 24e9 0100     		.2byte	0x1
 18783 24eb 51       		.byte	0x51
 18784 24ec 00000000 		.4byte	0
 18785 24f0 00000000 		.4byte	0
 18786              	.LLST24:
 18787 24f4 00000000 		.4byte	.LVL355
 18788 24f8 05000000 		.4byte	.LVL356-1
 18789 24fc 0100     		.2byte	0x1
 18790 24fe 52       		.byte	0x52
 18791 24ff 05000000 		.4byte	.LVL356-1
 18792 2503 06000000 		.4byte	.LVL356
 18793 2507 0400     		.2byte	0x4
 18794 2509 F3       		.byte	0xf3
 18795 250a 01       		.uleb128 0x1
 18796 250b 52       		.byte	0x52
 18797 250c 9F       		.byte	0x9f
 18798 250d 06000000 		.4byte	.LVL356
 18799 2511 08000000 		.4byte	.LFE5
 18800 2515 0100     		.2byte	0x1
 18801 2517 52       		.byte	0x52
 18802 2518 00000000 		.4byte	0
 18803 251c 00000000 		.4byte	0
 18804              	.LLST25:
 18805 2520 00000000 		.4byte	.LVL357
 18806 2524 20000000 		.4byte	.LVL362
 18807 2528 0100     		.2byte	0x1
 18808 252a 50       		.byte	0x50
 18809 252b 20000000 		.4byte	.LVL362
 18810 252f 0C010000 		.4byte	.LVL369
 18811 2533 0100     		.2byte	0x1
 18812 2535 54       		.byte	0x54
 18813 2536 0C010000 		.4byte	.LVL369
 18814 253a 10010000 		.4byte	.LFE6
 18815 253e 0400     		.2byte	0x4
 18816 2540 F3       		.byte	0xf3
 18817 2541 01       		.uleb128 0x1
 18818 2542 50       		.byte	0x50
 18819 2543 9F       		.byte	0x9f
 18820 2544 00000000 		.4byte	0
 18821 2548 00000000 		.4byte	0
 18822              	.LLST26:
 18823 254c 00000000 		.4byte	.LVL357
 18824 2550 0A000000 		.4byte	.LVL358
 18825 2554 0100     		.2byte	0x1
 18826 2556 51       		.byte	0x51
 18827 2557 0A000000 		.4byte	.LVL358
 18828 255b 0C010000 		.4byte	.LVL369
 18829 255f 0100     		.2byte	0x1
 18830 2561 55       		.byte	0x55
 18831 2562 0C010000 		.4byte	.LVL369
ARM GAS  C:\Users\jo\AppData\Local\Temp\ccDsJqTW.s 			page 334


 18832 2566 10010000 		.4byte	.LFE6
 18833 256a 0400     		.2byte	0x4
 18834 256c F3       		.byte	0xf3
 18835 256d 01       		.uleb128 0x1
 18836 256e 51       		.byte	0x51
 18837 256f 9F       		.byte	0x9f
 18838 2570 00000000 		.4byte	0
 18839 2574 00000000 		.4byte	0
 18840              	.LLST27:
 18841 2578 18000000 		.4byte	.LVL361
 18842 257c 32000000 		.4byte	.LVL363
 18843 2580 0100     		.2byte	0x1
 18844 2582 52       		.byte	0x52
 18845 2583 32000000 		.4byte	.LVL363
 18846 2587 61000000 		.4byte	.LVL366-1
 18847 258b 0700     		.2byte	0x7
 18848 258d 74       		.byte	0x74
 18849 258e 00       		.sleb128 0
 18850 258f 06       		.byte	0x6
 18851 2590 08       		.byte	0x8
 18852 2591 3F       		.byte	0x3f
 18853 2592 1A       		.byte	0x1a
 18854 2593 9F       		.byte	0x9f
 18855 2594 00000000 		.4byte	0
 18856 2598 00000000 		.4byte	0
 18857              	.LLST28:
 18858 259c 36000000 		.4byte	.LVL364
 18859 25a0 61000000 		.4byte	.LVL366-1
 18860 25a4 0100     		.2byte	0x1
 18861 25a6 52       		.byte	0x52
 18862 25a7 00000000 		.4byte	0
 18863 25ab 00000000 		.4byte	0
 18864              	.LLST29:
 18865 25af 12000000 		.4byte	.LVL359
 18866 25b3 61000000 		.4byte	.LVL366-1
 18867 25b7 0100     		.2byte	0x1
 18868 25b9 53       		.byte	0x53
 18869 25ba 00000000 		.4byte	0
 18870 25be 00000000 		.4byte	0
 18871              	.LLST30:
 18872 25c2 14000000 		.4byte	.LVL360
 18873 25c6 44000000 		.4byte	.LVL365
 18874 25ca 0100     		.2byte	0x1
 18875 25cc 51       		.byte	0x51
 18876 25cd 44000000 		.4byte	.LVL365
 18877 25d1 61000000 		.4byte	.LVL366-1
 18878 25d5 0600     		.2byte	0x6
 18879 25d7 74       		.byte	0x74
 18880 25d8 00       		.sleb128 0
 18881 25d9 06       		.byte	0x6
 18882 25da 33       		.byte	0x33
 18883 25db 24       		.byte	0x24
 18884 25dc 9F       		.byte	0x9f
 18885 25dd 00000000 		.4byte	0
 18886 25e1 00000000 		.4byte	0
 18887              	.LLST32:
 18888 25e5 36000000 		.4byte	.LVL364
ARM GAS  C:\Users\jo\AppData\Local\Temp\ccDsJqTW.s 			page 335


 18889 25e9 0C010000 		.4byte	.LVL369
 18890 25ed 0100     		.2byte	0x1
 18891 25ef 54       		.byte	0x54
 18892 25f0 0C010000 		.4byte	.LVL369
 18893 25f4 10010000 		.4byte	.LFE6
 18894 25f8 0400     		.2byte	0x4
 18895 25fa F3       		.byte	0xf3
 18896 25fb 01       		.uleb128 0x1
 18897 25fc 50       		.byte	0x50
 18898 25fd 9F       		.byte	0x9f
 18899 25fe 00000000 		.4byte	0
 18900 2602 00000000 		.4byte	0
 18901              	.LLST33:
 18902 2606 62000000 		.4byte	.LVL366
 18903 260a 08010000 		.4byte	.LVL368
 18904 260e 0100     		.2byte	0x1
 18905 2610 5D       		.byte	0x5d
 18906 2611 08010000 		.4byte	.LVL368
 18907 2615 0C010000 		.4byte	.LVL369
 18908 2619 0300     		.2byte	0x3
 18909 261b 91       		.byte	0x91
 18910 261c 60       		.sleb128 -32
 18911 261d 9F       		.byte	0x9f
 18912 261e 0C010000 		.4byte	.LVL369
 18913 2622 10010000 		.4byte	.LFE6
 18914 2626 0300     		.2byte	0x3
 18915 2628 7D       		.byte	0x7d
 18916 2629 60       		.sleb128 -32
 18917 262a 9F       		.byte	0x9f
 18918 262b 00000000 		.4byte	0
 18919 262f 00000000 		.4byte	0
 18920              	.LLST34:
 18921 2633 62000000 		.4byte	.LVL366
 18922 2637 0C010000 		.4byte	.LVL369
 18923 263b 0100     		.2byte	0x1
 18924 263d 54       		.byte	0x54
 18925 263e 0C010000 		.4byte	.LVL369
 18926 2642 10010000 		.4byte	.LFE6
 18927 2646 0400     		.2byte	0x4
 18928 2648 F3       		.byte	0xf3
 18929 2649 01       		.uleb128 0x1
 18930 264a 50       		.byte	0x50
 18931 264b 9F       		.byte	0x9f
 18932 264c 00000000 		.4byte	0
 18933 2650 00000000 		.4byte	0
 18934              	.LLST35:
 18935 2654 00000000 		.4byte	.LVL370
 18936 2658 10000000 		.4byte	.LVL372
 18937 265c 0100     		.2byte	0x1
 18938 265e 50       		.byte	0x50
 18939 265f 10000000 		.4byte	.LVL372
 18940 2663 D0000000 		.4byte	.LFE7
 18941 2667 0100     		.2byte	0x1
 18942 2669 57       		.byte	0x57
 18943 266a 00000000 		.4byte	0
 18944 266e 00000000 		.4byte	0
 18945              	.LLST36:
ARM GAS  C:\Users\jo\AppData\Local\Temp\ccDsJqTW.s 			page 336


 18946 2672 00000000 		.4byte	.LVL370
 18947 2676 12000000 		.4byte	.LVL373
 18948 267a 0100     		.2byte	0x1
 18949 267c 51       		.byte	0x51
 18950 267d 12000000 		.4byte	.LVL373
 18951 2681 D0000000 		.4byte	.LFE7
 18952 2685 0100     		.2byte	0x1
 18953 2687 55       		.byte	0x55
 18954 2688 00000000 		.4byte	0
 18955 268c 00000000 		.4byte	0
 18956              	.LLST37:
 18957 2690 00000000 		.4byte	.LVL370
 18958 2694 14000000 		.4byte	.LVL374
 18959 2698 0100     		.2byte	0x1
 18960 269a 52       		.byte	0x52
 18961 269b 14000000 		.4byte	.LVL374
 18962 269f D0000000 		.4byte	.LFE7
 18963 26a3 0100     		.2byte	0x1
 18964 26a5 56       		.byte	0x56
 18965 26a6 00000000 		.4byte	0
 18966 26aa 00000000 		.4byte	0
 18967              	.LLST38:
 18968 26ae 00000000 		.4byte	.LVL370
 18969 26b2 17000000 		.4byte	.LVL375-1
 18970 26b6 0100     		.2byte	0x1
 18971 26b8 53       		.byte	0x53
 18972 26b9 17000000 		.4byte	.LVL375-1
 18973 26bd D0000000 		.4byte	.LFE7
 18974 26c1 0100     		.2byte	0x1
 18975 26c3 54       		.byte	0x54
 18976 26c4 00000000 		.4byte	0
 18977 26c8 00000000 		.4byte	0
 18978              	.LLST39:
 18979 26cc 06000000 		.4byte	.LVL371
 18980 26d0 10000000 		.4byte	.LVL372
 18981 26d4 0400     		.2byte	0x4
 18982 26d6 91       		.byte	0x91
 18983 26d7 F47D     		.sleb128 -268
 18984 26d9 9F       		.byte	0x9f
 18985 26da 10000000 		.4byte	.LVL372
 18986 26de 17000000 		.4byte	.LVL375-1
 18987 26e2 0100     		.2byte	0x1
 18988 26e4 50       		.byte	0x50
 18989 26e5 17000000 		.4byte	.LVL375-1
 18990 26e9 52000000 		.4byte	.LVL377
 18991 26ed 0400     		.2byte	0x4
 18992 26ef 91       		.byte	0x91
 18993 26f0 F47D     		.sleb128 -268
 18994 26f2 9F       		.byte	0x9f
 18995 26f3 52000000 		.4byte	.LVL377
 18996 26f7 55000000 		.4byte	.LVL378-1
 18997 26fb 0100     		.2byte	0x1
 18998 26fd 50       		.byte	0x50
 18999 26fe 55000000 		.4byte	.LVL378-1
 19000 2702 58000000 		.4byte	.LVL379
 19001 2706 0400     		.2byte	0x4
 19002 2708 91       		.byte	0x91
ARM GAS  C:\Users\jo\AppData\Local\Temp\ccDsJqTW.s 			page 337


 19003 2709 F47D     		.sleb128 -268
 19004 270b 9F       		.byte	0x9f
 19005 270c 58000000 		.4byte	.LVL379
 19006 2710 5A000000 		.4byte	.LVL380
 19007 2714 0100     		.2byte	0x1
 19008 2716 53       		.byte	0x53
 19009 2717 5A000000 		.4byte	.LVL380
 19010 271b 8A000000 		.4byte	.LVL385
 19011 271f 0400     		.2byte	0x4
 19012 2721 91       		.byte	0x91
 19013 2722 F47D     		.sleb128 -268
 19014 2724 9F       		.byte	0x9f
 19015 2725 8A000000 		.4byte	.LVL385
 19016 2729 8D000000 		.4byte	.LVL386-1
 19017 272d 0100     		.2byte	0x1
 19018 272f 50       		.byte	0x50
 19019 2730 8D000000 		.4byte	.LVL386-1
 19020 2734 D0000000 		.4byte	.LFE7
 19021 2738 0400     		.2byte	0x4
 19022 273a 91       		.byte	0x91
 19023 273b F47D     		.sleb128 -268
 19024 273d 9F       		.byte	0x9f
 19025 273e 00000000 		.4byte	0
 19026 2742 00000000 		.4byte	0
 19027              	.LLST40:
 19028 2746 18000000 		.4byte	.LVL375
 19029 274a 52000000 		.4byte	.LVL377
 19030 274e 0400     		.2byte	0x4
 19031 2750 91       		.byte	0x91
 19032 2751 F47D     		.sleb128 -268
 19033 2753 9F       		.byte	0x9f
 19034 2754 52000000 		.4byte	.LVL377
 19035 2758 55000000 		.4byte	.LVL378-1
 19036 275c 0100     		.2byte	0x1
 19037 275e 50       		.byte	0x50
 19038 275f 55000000 		.4byte	.LVL378-1
 19039 2763 58000000 		.4byte	.LVL379
 19040 2767 0400     		.2byte	0x4
 19041 2769 91       		.byte	0x91
 19042 276a F47D     		.sleb128 -268
 19043 276c 9F       		.byte	0x9f
 19044 276d 58000000 		.4byte	.LVL379
 19045 2771 5A000000 		.4byte	.LVL380
 19046 2775 0100     		.2byte	0x1
 19047 2777 53       		.byte	0x53
 19048 2778 5A000000 		.4byte	.LVL380
 19049 277c 8A000000 		.4byte	.LVL385
 19050 2780 0400     		.2byte	0x4
 19051 2782 91       		.byte	0x91
 19052 2783 F47D     		.sleb128 -268
 19053 2785 9F       		.byte	0x9f
 19054 2786 8A000000 		.4byte	.LVL385
 19055 278a 8D000000 		.4byte	.LVL386-1
 19056 278e 0100     		.2byte	0x1
 19057 2790 50       		.byte	0x50
 19058 2791 8D000000 		.4byte	.LVL386-1
 19059 2795 D0000000 		.4byte	.LFE7
ARM GAS  C:\Users\jo\AppData\Local\Temp\ccDsJqTW.s 			page 338


 19060 2799 0400     		.2byte	0x4
 19061 279b 91       		.byte	0x91
 19062 279c F47D     		.sleb128 -268
 19063 279e 9F       		.byte	0x9f
 19064 279f 00000000 		.4byte	0
 19065 27a3 00000000 		.4byte	0
 19066              	.LLST41:
 19067 27a7 4C000000 		.4byte	.LVL376
 19068 27ab 6A000000 		.4byte	.LVL383
 19069 27af 0100     		.2byte	0x1
 19070 27b1 55       		.byte	0x55
 19071 27b2 84000000 		.4byte	.LVL384
 19072 27b6 D0000000 		.4byte	.LFE7
 19073 27ba 0100     		.2byte	0x1
 19074 27bc 55       		.byte	0x55
 19075 27bd 00000000 		.4byte	0
 19076 27c1 00000000 		.4byte	0
 19077              	.LLST42:
 19078 27c5 4C000000 		.4byte	.LVL376
 19079 27c9 6A000000 		.4byte	.LVL383
 19080 27cd 0100     		.2byte	0x1
 19081 27cf 57       		.byte	0x57
 19082 27d0 84000000 		.4byte	.LVL384
 19083 27d4 D0000000 		.4byte	.LFE7
 19084 27d8 0100     		.2byte	0x1
 19085 27da 57       		.byte	0x57
 19086 27db 00000000 		.4byte	0
 19087 27df 00000000 		.4byte	0
 19088              	.LLST43:
 19089 27e3 4C000000 		.4byte	.LVL376
 19090 27e7 52000000 		.4byte	.LVL377
 19091 27eb 0400     		.2byte	0x4
 19092 27ed 91       		.byte	0x91
 19093 27ee F47D     		.sleb128 -268
 19094 27f0 9F       		.byte	0x9f
 19095 27f1 52000000 		.4byte	.LVL377
 19096 27f5 55000000 		.4byte	.LVL378-1
 19097 27f9 0100     		.2byte	0x1
 19098 27fb 50       		.byte	0x50
 19099 27fc 55000000 		.4byte	.LVL378-1
 19100 2800 58000000 		.4byte	.LVL379
 19101 2804 0400     		.2byte	0x4
 19102 2806 91       		.byte	0x91
 19103 2807 F47D     		.sleb128 -268
 19104 2809 9F       		.byte	0x9f
 19105 280a 58000000 		.4byte	.LVL379
 19106 280e 5A000000 		.4byte	.LVL380
 19107 2812 0100     		.2byte	0x1
 19108 2814 53       		.byte	0x53
 19109 2815 5A000000 		.4byte	.LVL380
 19110 2819 6A000000 		.4byte	.LVL383
 19111 281d 0400     		.2byte	0x4
 19112 281f 91       		.byte	0x91
 19113 2820 F47D     		.sleb128 -268
 19114 2822 9F       		.byte	0x9f
 19115 2823 84000000 		.4byte	.LVL384
 19116 2827 8A000000 		.4byte	.LVL385
ARM GAS  C:\Users\jo\AppData\Local\Temp\ccDsJqTW.s 			page 339


 19117 282b 0400     		.2byte	0x4
 19118 282d 91       		.byte	0x91
 19119 282e F47D     		.sleb128 -268
 19120 2830 9F       		.byte	0x9f
 19121 2831 8A000000 		.4byte	.LVL385
 19122 2835 8D000000 		.4byte	.LVL386-1
 19123 2839 0100     		.2byte	0x1
 19124 283b 50       		.byte	0x50
 19125 283c 8D000000 		.4byte	.LVL386-1
 19126 2840 D0000000 		.4byte	.LFE7
 19127 2844 0400     		.2byte	0x4
 19128 2846 91       		.byte	0x91
 19129 2847 F47D     		.sleb128 -268
 19130 2849 9F       		.byte	0x9f
 19131 284a 00000000 		.4byte	0
 19132 284e 00000000 		.4byte	0
 19133              	.LLST44:
 19134 2852 56000000 		.4byte	.LVL378
 19135 2856 58000000 		.4byte	.LVL379
 19136 285a 0400     		.2byte	0x4
 19137 285c 91       		.byte	0x91
 19138 285d F47D     		.sleb128 -268
 19139 285f 9F       		.byte	0x9f
 19140 2860 58000000 		.4byte	.LVL379
 19141 2864 5A000000 		.4byte	.LVL380
 19142 2868 0100     		.2byte	0x1
 19143 286a 53       		.byte	0x53
 19144 286b 5A000000 		.4byte	.LVL380
 19145 286f 6A000000 		.4byte	.LVL383
 19146 2873 0400     		.2byte	0x4
 19147 2875 91       		.byte	0x91
 19148 2876 F47D     		.sleb128 -268
 19149 2878 9F       		.byte	0x9f
 19150 2879 00000000 		.4byte	0
 19151 287d 00000000 		.4byte	0
 19152              	.LLST45:
 19153 2881 56000000 		.4byte	.LVL378
 19154 2885 5A000000 		.4byte	.LVL380
 19155 2889 0300     		.2byte	0x3
 19156 288b 08       		.byte	0x8
 19157 288c EB       		.byte	0xeb
 19158 288d 9F       		.byte	0x9f
 19159 288e 5A000000 		.4byte	.LVL380
 19160 2892 5C000000 		.4byte	.LVL381
 19161 2896 0900     		.2byte	0x9
 19162 2898 91       		.byte	0x91
 19163 2899 00       		.sleb128 0
 19164 289a 73       		.byte	0x73
 19165 289b 00       		.sleb128 0
 19166 289c 1C       		.byte	0x1c
 19167 289d 08       		.byte	0x8
 19168 289e 21       		.byte	0x21
 19169 289f 1C       		.byte	0x1c
 19170 28a0 9F       		.byte	0x9f
 19171 28a1 5C000000 		.4byte	.LVL381
 19172 28a5 60000000 		.4byte	.LVL382
 19173 28a9 0900     		.2byte	0x9
ARM GAS  C:\Users\jo\AppData\Local\Temp\ccDsJqTW.s 			page 340


 19174 28ab 91       		.byte	0x91
 19175 28ac 00       		.sleb128 0
 19176 28ad 73       		.byte	0x73
 19177 28ae 00       		.sleb128 0
 19178 28af 1C       		.byte	0x1c
 19179 28b0 08       		.byte	0x8
 19180 28b1 22       		.byte	0x22
 19181 28b2 1C       		.byte	0x1c
 19182 28b3 9F       		.byte	0x9f
 19183 28b4 60000000 		.4byte	.LVL382
 19184 28b8 6A000000 		.4byte	.LVL383
 19185 28bc 0900     		.2byte	0x9
 19186 28be 91       		.byte	0x91
 19187 28bf 00       		.sleb128 0
 19188 28c0 73       		.byte	0x73
 19189 28c1 00       		.sleb128 0
 19190 28c2 1C       		.byte	0x1c
 19191 28c3 08       		.byte	0x8
 19192 28c4 21       		.byte	0x21
 19193 28c5 1C       		.byte	0x1c
 19194 28c6 9F       		.byte	0x9f
 19195 28c7 00000000 		.4byte	0
 19196 28cb 00000000 		.4byte	0
 19197              	.LLST46:
 19198 28cf 56000000 		.4byte	.LVL378
 19199 28d3 58000000 		.4byte	.LVL379
 19200 28d7 0400     		.2byte	0x4
 19201 28d9 91       		.byte	0x91
 19202 28da F47D     		.sleb128 -268
 19203 28dc 9F       		.byte	0x9f
 19204 28dd 58000000 		.4byte	.LVL379
 19205 28e1 5A000000 		.4byte	.LVL380
 19206 28e5 0100     		.2byte	0x1
 19207 28e7 53       		.byte	0x53
 19208 28e8 5A000000 		.4byte	.LVL380
 19209 28ec 60000000 		.4byte	.LVL382
 19210 28f0 0300     		.2byte	0x3
 19211 28f2 73       		.byte	0x73
 19212 28f3 01       		.sleb128 1
 19213 28f4 9F       		.byte	0x9f
 19214 28f5 60000000 		.4byte	.LVL382
 19215 28f9 6A000000 		.4byte	.LVL383
 19216 28fd 0100     		.2byte	0x1
 19217 28ff 53       		.byte	0x53
 19218 2900 00000000 		.4byte	0
 19219 2904 00000000 		.4byte	0
 19220              	.LLST47:
 19221 2908 00000000 		.4byte	.LVL387
 19222 290c 11000000 		.4byte	.LVL389-1
 19223 2910 0100     		.2byte	0x1
 19224 2912 50       		.byte	0x50
 19225 2913 11000000 		.4byte	.LVL389-1
 19226 2917 0C010000 		.4byte	.LFE8
 19227 291b 0400     		.2byte	0x4
 19228 291d F3       		.byte	0xf3
 19229 291e 01       		.uleb128 0x1
 19230 291f 50       		.byte	0x50
ARM GAS  C:\Users\jo\AppData\Local\Temp\ccDsJqTW.s 			page 341


 19231 2920 9F       		.byte	0x9f
 19232 2921 00000000 		.4byte	0
 19233 2925 00000000 		.4byte	0
 19234              	.LLST48:
 19235 2929 00000000 		.4byte	.LVL387
 19236 292d 0C000000 		.4byte	.LVL388
 19237 2931 0100     		.2byte	0x1
 19238 2933 51       		.byte	0x51
 19239 2934 0C000000 		.4byte	.LVL388
 19240 2938 0C010000 		.4byte	.LFE8
 19241 293c 0100     		.2byte	0x1
 19242 293e 57       		.byte	0x57
 19243 293f 00000000 		.4byte	0
 19244 2943 00000000 		.4byte	0
 19245              	.LLST49:
 19246 2947 00000000 		.4byte	.LVL387
 19247 294b 11000000 		.4byte	.LVL389-1
 19248 294f 0100     		.2byte	0x1
 19249 2951 52       		.byte	0x52
 19250 2952 11000000 		.4byte	.LVL389-1
 19251 2956 54000000 		.4byte	.LVL393
 19252 295a 0100     		.2byte	0x1
 19253 295c 54       		.byte	0x54
 19254 295d 54000000 		.4byte	.LVL393
 19255 2961 72000000 		.4byte	.LVL399
 19256 2965 0400     		.2byte	0x4
 19257 2967 F3       		.byte	0xf3
 19258 2968 01       		.uleb128 0x1
 19259 2969 52       		.byte	0x52
 19260 296a 9F       		.byte	0x9f
 19261 296b 72000000 		.4byte	.LVL399
 19262 296f 8A000000 		.4byte	.LVL400
 19263 2973 0100     		.2byte	0x1
 19264 2975 54       		.byte	0x54
 19265 2976 8A000000 		.4byte	.LVL400
 19266 297a C2000000 		.4byte	.LVL414
 19267 297e 0400     		.2byte	0x4
 19268 2980 F3       		.byte	0xf3
 19269 2981 01       		.uleb128 0x1
 19270 2982 52       		.byte	0x52
 19271 2983 9F       		.byte	0x9f
 19272 2984 C2000000 		.4byte	.LVL414
 19273 2988 0C010000 		.4byte	.LFE8
 19274 298c 0100     		.2byte	0x1
 19275 298e 54       		.byte	0x54
 19276 298f 00000000 		.4byte	0
 19277 2993 00000000 		.4byte	0
 19278              	.LLST50:
 19279 2997 12000000 		.4byte	.LVL389
 19280 299b 1A000000 		.4byte	.LVL391
 19281 299f 0100     		.2byte	0x1
 19282 29a1 50       		.byte	0x50
 19283 29a2 1A000000 		.4byte	.LVL391
 19284 29a6 AA000000 		.4byte	.LVL409
 19285 29aa 0100     		.2byte	0x1
 19286 29ac 56       		.byte	0x56
 19287 29ad AA000000 		.4byte	.LVL409
ARM GAS  C:\Users\jo\AppData\Local\Temp\ccDsJqTW.s 			page 342


 19288 29b1 AD000000 		.4byte	.LVL410-1
 19289 29b5 0100     		.2byte	0x1
 19290 29b7 50       		.byte	0x50
 19291 29b8 AD000000 		.4byte	.LVL410-1
 19292 29bc B8000000 		.4byte	.LVL412
 19293 29c0 0100     		.2byte	0x1
 19294 29c2 56       		.byte	0x56
 19295 29c3 B8000000 		.4byte	.LVL412
 19296 29c7 BB000000 		.4byte	.LVL413-1
 19297 29cb 0100     		.2byte	0x1
 19298 29cd 50       		.byte	0x50
 19299 29ce BB000000 		.4byte	.LVL413-1
 19300 29d2 C2000000 		.4byte	.LVL414
 19301 29d6 0100     		.2byte	0x1
 19302 29d8 56       		.byte	0x56
 19303 29d9 C2000000 		.4byte	.LVL414
 19304 29dd C6000000 		.4byte	.LVL415
 19305 29e1 0100     		.2byte	0x1
 19306 29e3 50       		.byte	0x50
 19307 29e4 C6000000 		.4byte	.LVL415
 19308 29e8 0C010000 		.4byte	.LFE8
 19309 29ec 0100     		.2byte	0x1
 19310 29ee 56       		.byte	0x56
 19311 29ef 00000000 		.4byte	0
 19312 29f3 00000000 		.4byte	0
 19313              	.LLST51:
 19314 29f7 62000000 		.4byte	.LVL394
 19315 29fb 6C000000 		.4byte	.LVL397
 19316 29ff 0100     		.2byte	0x1
 19317 2a01 50       		.byte	0x50
 19318 2a02 6C000000 		.4byte	.LVL397
 19319 2a06 6F000000 		.4byte	.LVL398-1
 19320 2a0a 0100     		.2byte	0x1
 19321 2a0c 52       		.byte	0x52
 19322 2a0d 6F000000 		.4byte	.LVL398-1
 19323 2a11 72000000 		.4byte	.LVL399
 19324 2a15 0100     		.2byte	0x1
 19325 2a17 54       		.byte	0x54
 19326 2a18 8A000000 		.4byte	.LVL400
 19327 2a1c 8C000000 		.4byte	.LVL401
 19328 2a20 0100     		.2byte	0x1
 19329 2a22 50       		.byte	0x50
 19330 2a23 8C000000 		.4byte	.LVL401
 19331 2a27 91000000 		.4byte	.LVL403-1
 19332 2a2b 0100     		.2byte	0x1
 19333 2a2d 52       		.byte	0x52
 19334 2a2e 91000000 		.4byte	.LVL403-1
 19335 2a32 96000000 		.4byte	.LVL405
 19336 2a36 0100     		.2byte	0x1
 19337 2a38 54       		.byte	0x54
 19338 2a39 96000000 		.4byte	.LVL405
 19339 2a3d A8000000 		.4byte	.LVL408
 19340 2a41 0100     		.2byte	0x1
 19341 2a43 50       		.byte	0x50
 19342 2a44 00000000 		.4byte	0
 19343 2a48 00000000 		.4byte	0
 19344              	.LLST52:
ARM GAS  C:\Users\jo\AppData\Local\Temp\ccDsJqTW.s 			page 343


 19345 2a4c 18000000 		.4byte	.LVL390
 19346 2a50 1A000000 		.4byte	.LVL391
 19347 2a54 0400     		.2byte	0x4
 19348 2a56 91       		.byte	0x91
 19349 2a57 FC75     		.sleb128 -1284
 19350 2a59 9F       		.byte	0x9f
 19351 2a5a 1A000000 		.4byte	.LVL391
 19352 2a5e 21000000 		.4byte	.LVL392-1
 19353 2a62 0100     		.2byte	0x1
 19354 2a64 50       		.byte	0x50
 19355 2a65 21000000 		.4byte	.LVL392-1
 19356 2a69 6C000000 		.4byte	.LVL397
 19357 2a6d 0400     		.2byte	0x4
 19358 2a6f 91       		.byte	0x91
 19359 2a70 FC75     		.sleb128 -1284
 19360 2a72 9F       		.byte	0x9f
 19361 2a73 6C000000 		.4byte	.LVL397
 19362 2a77 6F000000 		.4byte	.LVL398-1
 19363 2a7b 0100     		.2byte	0x1
 19364 2a7d 50       		.byte	0x50
 19365 2a7e 6F000000 		.4byte	.LVL398-1
 19366 2a82 8C000000 		.4byte	.LVL401
 19367 2a86 0400     		.2byte	0x4
 19368 2a88 91       		.byte	0x91
 19369 2a89 FC75     		.sleb128 -1284
 19370 2a8b 9F       		.byte	0x9f
 19371 2a8c 8C000000 		.4byte	.LVL401
 19372 2a90 91000000 		.4byte	.LVL403-1
 19373 2a94 0100     		.2byte	0x1
 19374 2a96 50       		.byte	0x50
 19375 2a97 91000000 		.4byte	.LVL403-1
 19376 2a9b 94000000 		.4byte	.LVL404
 19377 2a9f 0400     		.2byte	0x4
 19378 2aa1 91       		.byte	0x91
 19379 2aa2 FC75     		.sleb128 -1284
 19380 2aa4 9F       		.byte	0x9f
 19381 2aa5 94000000 		.4byte	.LVL404
 19382 2aa9 96000000 		.4byte	.LVL405
 19383 2aad 0100     		.2byte	0x1
 19384 2aaf 53       		.byte	0x53
 19385 2ab0 96000000 		.4byte	.LVL405
 19386 2ab4 B0000000 		.4byte	.LVL411
 19387 2ab8 0400     		.2byte	0x4
 19388 2aba 91       		.byte	0x91
 19389 2abb FC75     		.sleb128 -1284
 19390 2abd 9F       		.byte	0x9f
 19391 2abe B8000000 		.4byte	.LVL412
 19392 2ac2 C2000000 		.4byte	.LVL414
 19393 2ac6 0400     		.2byte	0x4
 19394 2ac8 91       		.byte	0x91
 19395 2ac9 FC75     		.sleb128 -1284
 19396 2acb 9F       		.byte	0x9f
 19397 2acc 00000000 		.4byte	0
 19398 2ad0 00000000 		.4byte	0
 19399              	.LLST53:
 19400 2ad4 22000000 		.4byte	.LVL392
 19401 2ad8 54000000 		.4byte	.LVL393
ARM GAS  C:\Users\jo\AppData\Local\Temp\ccDsJqTW.s 			page 344


 19402 2adc 0100     		.2byte	0x1
 19403 2ade 54       		.byte	0x54
 19404 2adf 54000000 		.4byte	.LVL393
 19405 2ae3 72000000 		.4byte	.LVL399
 19406 2ae7 0400     		.2byte	0x4
 19407 2ae9 F3       		.byte	0xf3
 19408 2aea 01       		.uleb128 0x1
 19409 2aeb 52       		.byte	0x52
 19410 2aec 9F       		.byte	0x9f
 19411 2aed 72000000 		.4byte	.LVL399
 19412 2af1 8A000000 		.4byte	.LVL400
 19413 2af5 0100     		.2byte	0x1
 19414 2af7 54       		.byte	0x54
 19415 2af8 8A000000 		.4byte	.LVL400
 19416 2afc B0000000 		.4byte	.LVL411
 19417 2b00 0400     		.2byte	0x4
 19418 2b02 F3       		.byte	0xf3
 19419 2b03 01       		.uleb128 0x1
 19420 2b04 52       		.byte	0x52
 19421 2b05 9F       		.byte	0x9f
 19422 2b06 B8000000 		.4byte	.LVL412
 19423 2b0a C2000000 		.4byte	.LVL414
 19424 2b0e 0400     		.2byte	0x4
 19425 2b10 F3       		.byte	0xf3
 19426 2b11 01       		.uleb128 0x1
 19427 2b12 52       		.byte	0x52
 19428 2b13 9F       		.byte	0x9f
 19429 2b14 00000000 		.4byte	0
 19430 2b18 00000000 		.4byte	0
 19431              	.LLST54:
 19432 2b1c 22000000 		.4byte	.LVL392
 19433 2b20 6C000000 		.4byte	.LVL397
 19434 2b24 0400     		.2byte	0x4
 19435 2b26 91       		.byte	0x91
 19436 2b27 FC75     		.sleb128 -1284
 19437 2b29 9F       		.byte	0x9f
 19438 2b2a 6C000000 		.4byte	.LVL397
 19439 2b2e 6F000000 		.4byte	.LVL398-1
 19440 2b32 0100     		.2byte	0x1
 19441 2b34 50       		.byte	0x50
 19442 2b35 6F000000 		.4byte	.LVL398-1
 19443 2b39 8C000000 		.4byte	.LVL401
 19444 2b3d 0400     		.2byte	0x4
 19445 2b3f 91       		.byte	0x91
 19446 2b40 FC75     		.sleb128 -1284
 19447 2b42 9F       		.byte	0x9f
 19448 2b43 8C000000 		.4byte	.LVL401
 19449 2b47 91000000 		.4byte	.LVL403-1
 19450 2b4b 0100     		.2byte	0x1
 19451 2b4d 50       		.byte	0x50
 19452 2b4e 91000000 		.4byte	.LVL403-1
 19453 2b52 94000000 		.4byte	.LVL404
 19454 2b56 0400     		.2byte	0x4
 19455 2b58 91       		.byte	0x91
 19456 2b59 FC75     		.sleb128 -1284
 19457 2b5b 9F       		.byte	0x9f
 19458 2b5c 94000000 		.4byte	.LVL404
ARM GAS  C:\Users\jo\AppData\Local\Temp\ccDsJqTW.s 			page 345


 19459 2b60 96000000 		.4byte	.LVL405
 19460 2b64 0100     		.2byte	0x1
 19461 2b66 53       		.byte	0x53
 19462 2b67 96000000 		.4byte	.LVL405
 19463 2b6b B0000000 		.4byte	.LVL411
 19464 2b6f 0400     		.2byte	0x4
 19465 2b71 91       		.byte	0x91
 19466 2b72 FC75     		.sleb128 -1284
 19467 2b74 9F       		.byte	0x9f
 19468 2b75 B8000000 		.4byte	.LVL412
 19469 2b79 C2000000 		.4byte	.LVL414
 19470 2b7d 0400     		.2byte	0x4
 19471 2b7f 91       		.byte	0x91
 19472 2b80 FC75     		.sleb128 -1284
 19473 2b82 9F       		.byte	0x9f
 19474 2b83 00000000 		.4byte	0
 19475 2b87 00000000 		.4byte	0
 19476              	.LLST55:
 19477 2b8b 66000000 		.4byte	.LVL395
 19478 2b8f 6C000000 		.4byte	.LVL397
 19479 2b93 0100     		.2byte	0x1
 19480 2b95 50       		.byte	0x50
 19481 2b96 6C000000 		.4byte	.LVL397
 19482 2b9a 6F000000 		.4byte	.LVL398-1
 19483 2b9e 0100     		.2byte	0x1
 19484 2ba0 52       		.byte	0x52
 19485 2ba1 6F000000 		.4byte	.LVL398-1
 19486 2ba5 72000000 		.4byte	.LVL399
 19487 2ba9 0100     		.2byte	0x1
 19488 2bab 54       		.byte	0x54
 19489 2bac 8A000000 		.4byte	.LVL400
 19490 2bb0 8C000000 		.4byte	.LVL401
 19491 2bb4 0100     		.2byte	0x1
 19492 2bb6 50       		.byte	0x50
 19493 2bb7 8C000000 		.4byte	.LVL401
 19494 2bbb 91000000 		.4byte	.LVL403-1
 19495 2bbf 0100     		.2byte	0x1
 19496 2bc1 52       		.byte	0x52
 19497 2bc2 91000000 		.4byte	.LVL403-1
 19498 2bc6 96000000 		.4byte	.LVL405
 19499 2bca 0100     		.2byte	0x1
 19500 2bcc 54       		.byte	0x54
 19501 2bcd 96000000 		.4byte	.LVL405
 19502 2bd1 A8000000 		.4byte	.LVL408
 19503 2bd5 0100     		.2byte	0x1
 19504 2bd7 50       		.byte	0x50
 19505 2bd8 00000000 		.4byte	0
 19506 2bdc 00000000 		.4byte	0
 19507              	.LLST56:
 19508 2be0 62000000 		.4byte	.LVL394
 19509 2be4 6A000000 		.4byte	.LVL396
 19510 2be8 0100     		.2byte	0x1
 19511 2bea 55       		.byte	0x55
 19512 2beb 6A000000 		.4byte	.LVL396
 19513 2bef 6F000000 		.4byte	.LVL398-1
 19514 2bf3 0100     		.2byte	0x1
 19515 2bf5 51       		.byte	0x51
ARM GAS  C:\Users\jo\AppData\Local\Temp\ccDsJqTW.s 			page 346


 19516 2bf6 6F000000 		.4byte	.LVL398-1
 19517 2bfa 72000000 		.4byte	.LVL399
 19518 2bfe 0100     		.2byte	0x1
 19519 2c00 55       		.byte	0x55
 19520 2c01 8A000000 		.4byte	.LVL400
 19521 2c05 8E000000 		.4byte	.LVL402
 19522 2c09 0100     		.2byte	0x1
 19523 2c0b 51       		.byte	0x51
 19524 2c0c 8E000000 		.4byte	.LVL402
 19525 2c10 B0000000 		.4byte	.LVL411
 19526 2c14 0100     		.2byte	0x1
 19527 2c16 55       		.byte	0x55
 19528 2c17 B8000000 		.4byte	.LVL412
 19529 2c1b C2000000 		.4byte	.LVL414
 19530 2c1f 0100     		.2byte	0x1
 19531 2c21 55       		.byte	0x55
 19532 2c22 00000000 		.4byte	0
 19533 2c26 00000000 		.4byte	0
 19534              	.LLST57:
 19535 2c2a 62000000 		.4byte	.LVL394
 19536 2c2e 6C000000 		.4byte	.LVL397
 19537 2c32 0400     		.2byte	0x4
 19538 2c34 91       		.byte	0x91
 19539 2c35 FC75     		.sleb128 -1284
 19540 2c37 9F       		.byte	0x9f
 19541 2c38 6C000000 		.4byte	.LVL397
 19542 2c3c 6F000000 		.4byte	.LVL398-1
 19543 2c40 0100     		.2byte	0x1
 19544 2c42 50       		.byte	0x50
 19545 2c43 6F000000 		.4byte	.LVL398-1
 19546 2c47 72000000 		.4byte	.LVL399
 19547 2c4b 0400     		.2byte	0x4
 19548 2c4d 91       		.byte	0x91
 19549 2c4e FC75     		.sleb128 -1284
 19550 2c50 9F       		.byte	0x9f
 19551 2c51 8A000000 		.4byte	.LVL400
 19552 2c55 8C000000 		.4byte	.LVL401
 19553 2c59 0400     		.2byte	0x4
 19554 2c5b 91       		.byte	0x91
 19555 2c5c FC75     		.sleb128 -1284
 19556 2c5e 9F       		.byte	0x9f
 19557 2c5f 8C000000 		.4byte	.LVL401
 19558 2c63 91000000 		.4byte	.LVL403-1
 19559 2c67 0100     		.2byte	0x1
 19560 2c69 50       		.byte	0x50
 19561 2c6a 91000000 		.4byte	.LVL403-1
 19562 2c6e 94000000 		.4byte	.LVL404
 19563 2c72 0400     		.2byte	0x4
 19564 2c74 91       		.byte	0x91
 19565 2c75 FC75     		.sleb128 -1284
 19566 2c77 9F       		.byte	0x9f
 19567 2c78 94000000 		.4byte	.LVL404
 19568 2c7c 96000000 		.4byte	.LVL405
 19569 2c80 0100     		.2byte	0x1
 19570 2c82 53       		.byte	0x53
 19571 2c83 96000000 		.4byte	.LVL405
 19572 2c87 B0000000 		.4byte	.LVL411
ARM GAS  C:\Users\jo\AppData\Local\Temp\ccDsJqTW.s 			page 347


 19573 2c8b 0400     		.2byte	0x4
 19574 2c8d 91       		.byte	0x91
 19575 2c8e FC75     		.sleb128 -1284
 19576 2c90 9F       		.byte	0x9f
 19577 2c91 B8000000 		.4byte	.LVL412
 19578 2c95 C2000000 		.4byte	.LVL414
 19579 2c99 0400     		.2byte	0x4
 19580 2c9b 91       		.byte	0x91
 19581 2c9c FC75     		.sleb128 -1284
 19582 2c9e 9F       		.byte	0x9f
 19583 2c9f 00000000 		.4byte	0
 19584 2ca3 00000000 		.4byte	0
 19585              	.LLST58:
 19586 2ca7 92000000 		.4byte	.LVL403
 19587 2cab 94000000 		.4byte	.LVL404
 19588 2caf 0400     		.2byte	0x4
 19589 2cb1 91       		.byte	0x91
 19590 2cb2 FC75     		.sleb128 -1284
 19591 2cb4 9F       		.byte	0x9f
 19592 2cb5 94000000 		.4byte	.LVL404
 19593 2cb9 96000000 		.4byte	.LVL405
 19594 2cbd 0100     		.2byte	0x1
 19595 2cbf 53       		.byte	0x53
 19596 2cc0 96000000 		.4byte	.LVL405
 19597 2cc4 B0000000 		.4byte	.LVL411
 19598 2cc8 0400     		.2byte	0x4
 19599 2cca 91       		.byte	0x91
 19600 2ccb FC75     		.sleb128 -1284
 19601 2ccd 9F       		.byte	0x9f
 19602 2cce B8000000 		.4byte	.LVL412
 19603 2cd2 C2000000 		.4byte	.LVL414
 19604 2cd6 0400     		.2byte	0x4
 19605 2cd8 91       		.byte	0x91
 19606 2cd9 FC75     		.sleb128 -1284
 19607 2cdb 9F       		.byte	0x9f
 19608 2cdc 00000000 		.4byte	0
 19609 2ce0 00000000 		.4byte	0
 19610              	.LLST59:
 19611 2ce4 92000000 		.4byte	.LVL403
 19612 2ce8 96000000 		.4byte	.LVL405
 19613 2cec 0300     		.2byte	0x3
 19614 2cee 08       		.byte	0x8
 19615 2cef EB       		.byte	0xeb
 19616 2cf0 9F       		.byte	0x9f
 19617 2cf1 96000000 		.4byte	.LVL405
 19618 2cf5 98000000 		.4byte	.LVL406
 19619 2cf9 0A00     		.2byte	0xa
 19620 2cfb 91       		.byte	0x91
 19621 2cfc 00       		.sleb128 0
 19622 2cfd 73       		.byte	0x73
 19623 2cfe 00       		.sleb128 0
 19624 2cff 1C       		.byte	0x1c
 19625 2d00 0A       		.byte	0xa
 19626 2d01 1904     		.2byte	0x419
 19627 2d03 1C       		.byte	0x1c
 19628 2d04 9F       		.byte	0x9f
 19629 2d05 98000000 		.4byte	.LVL406
ARM GAS  C:\Users\jo\AppData\Local\Temp\ccDsJqTW.s 			page 348


 19630 2d09 9A000000 		.4byte	.LVL407
 19631 2d0d 0A00     		.2byte	0xa
 19632 2d0f 91       		.byte	0x91
 19633 2d10 00       		.sleb128 0
 19634 2d11 73       		.byte	0x73
 19635 2d12 00       		.sleb128 0
 19636 2d13 1C       		.byte	0x1c
 19637 2d14 0A       		.byte	0xa
 19638 2d15 1A04     		.2byte	0x41a
 19639 2d17 1C       		.byte	0x1c
 19640 2d18 9F       		.byte	0x9f
 19641 2d19 9A000000 		.4byte	.LVL407
 19642 2d1d AD000000 		.4byte	.LVL410-1
 19643 2d21 0A00     		.2byte	0xa
 19644 2d23 91       		.byte	0x91
 19645 2d24 00       		.sleb128 0
 19646 2d25 73       		.byte	0x73
 19647 2d26 00       		.sleb128 0
 19648 2d27 1C       		.byte	0x1c
 19649 2d28 0A       		.byte	0xa
 19650 2d29 1904     		.2byte	0x419
 19651 2d2b 1C       		.byte	0x1c
 19652 2d2c 9F       		.byte	0x9f
 19653 2d2d B8000000 		.4byte	.LVL412
 19654 2d31 BB000000 		.4byte	.LVL413-1
 19655 2d35 0A00     		.2byte	0xa
 19656 2d37 91       		.byte	0x91
 19657 2d38 00       		.sleb128 0
 19658 2d39 73       		.byte	0x73
 19659 2d3a 00       		.sleb128 0
 19660 2d3b 1C       		.byte	0x1c
 19661 2d3c 0A       		.byte	0xa
 19662 2d3d 1904     		.2byte	0x419
 19663 2d3f 1C       		.byte	0x1c
 19664 2d40 9F       		.byte	0x9f
 19665 2d41 00000000 		.4byte	0
 19666 2d45 00000000 		.4byte	0
 19667              	.LLST60:
 19668 2d49 92000000 		.4byte	.LVL403
 19669 2d4d 94000000 		.4byte	.LVL404
 19670 2d51 0400     		.2byte	0x4
 19671 2d53 91       		.byte	0x91
 19672 2d54 FC75     		.sleb128 -1284
 19673 2d56 9F       		.byte	0x9f
 19674 2d57 94000000 		.4byte	.LVL404
 19675 2d5b 96000000 		.4byte	.LVL405
 19676 2d5f 0100     		.2byte	0x1
 19677 2d61 53       		.byte	0x53
 19678 2d62 96000000 		.4byte	.LVL405
 19679 2d66 9A000000 		.4byte	.LVL407
 19680 2d6a 0300     		.2byte	0x3
 19681 2d6c 73       		.byte	0x73
 19682 2d6d 01       		.sleb128 1
 19683 2d6e 9F       		.byte	0x9f
 19684 2d6f 9A000000 		.4byte	.LVL407
 19685 2d73 AD000000 		.4byte	.LVL410-1
 19686 2d77 0100     		.2byte	0x1
ARM GAS  C:\Users\jo\AppData\Local\Temp\ccDsJqTW.s 			page 349


 19687 2d79 53       		.byte	0x53
 19688 2d7a B8000000 		.4byte	.LVL412
 19689 2d7e BB000000 		.4byte	.LVL413-1
 19690 2d82 0100     		.2byte	0x1
 19691 2d84 53       		.byte	0x53
 19692 2d85 00000000 		.4byte	0
 19693 2d89 00000000 		.4byte	0
 19694              	.LLST61:
 19695 2d8d 00000000 		.4byte	.LVL416
 19696 2d91 1C000000 		.4byte	.LVL419
 19697 2d95 0100     		.2byte	0x1
 19698 2d97 50       		.byte	0x50
 19699 2d98 1C000000 		.4byte	.LVL419
 19700 2d9c CE000000 		.4byte	.LVL433
 19701 2da0 0100     		.2byte	0x1
 19702 2da2 56       		.byte	0x56
 19703 2da3 CE000000 		.4byte	.LVL433
 19704 2da7 D0000000 		.4byte	.LVL434
 19705 2dab 0100     		.2byte	0x1
 19706 2dad 50       		.byte	0x50
 19707 2dae D0000000 		.4byte	.LVL434
 19708 2db2 48010000 		.4byte	.LFE9
 19709 2db6 0100     		.2byte	0x1
 19710 2db8 56       		.byte	0x56
 19711 2db9 00000000 		.4byte	0
 19712 2dbd 00000000 		.4byte	0
 19713              	.LLST62:
 19714 2dc1 00000000 		.4byte	.LVL416
 19715 2dc5 18000000 		.4byte	.LVL417
 19716 2dc9 0100     		.2byte	0x1
 19717 2dcb 51       		.byte	0x51
 19718 2dcc 18000000 		.4byte	.LVL417
 19719 2dd0 CE000000 		.4byte	.LVL433
 19720 2dd4 0100     		.2byte	0x1
 19721 2dd6 5A       		.byte	0x5a
 19722 2dd7 CE000000 		.4byte	.LVL433
 19723 2ddb D6000000 		.4byte	.LVL435
 19724 2ddf 0100     		.2byte	0x1
 19725 2de1 51       		.byte	0x51
 19726 2de2 D6000000 		.4byte	.LVL435
 19727 2de6 F2000000 		.4byte	.LVL439
 19728 2dea 0100     		.2byte	0x1
 19729 2dec 5A       		.byte	0x5a
 19730 2ded F2000000 		.4byte	.LVL439
 19731 2df1 48010000 		.4byte	.LFE9
 19732 2df5 0100     		.2byte	0x1
 19733 2df7 5D       		.byte	0x5d
 19734 2df8 00000000 		.4byte	0
 19735 2dfc 00000000 		.4byte	0
 19736              	.LLST63:
 19737 2e00 00000000 		.4byte	.LVL416
 19738 2e04 1A000000 		.4byte	.LVL418
 19739 2e08 0100     		.2byte	0x1
 19740 2e0a 52       		.byte	0x52
 19741 2e0b 1A000000 		.4byte	.LVL418
 19742 2e0f 78000000 		.4byte	.LVL425
 19743 2e13 0100     		.2byte	0x1
ARM GAS  C:\Users\jo\AppData\Local\Temp\ccDsJqTW.s 			page 350


 19744 2e15 55       		.byte	0x55
 19745 2e16 B6000000 		.4byte	.LVL431
 19746 2e1a C4000000 		.4byte	.LVL432
 19747 2e1e 0100     		.2byte	0x1
 19748 2e20 55       		.byte	0x55
 19749 2e21 CE000000 		.4byte	.LVL433
 19750 2e25 D8000000 		.4byte	.LVL436
 19751 2e29 0100     		.2byte	0x1
 19752 2e2b 52       		.byte	0x52
 19753 2e2c D8000000 		.4byte	.LVL436
 19754 2e30 F0000000 		.4byte	.LVL438
 19755 2e34 0100     		.2byte	0x1
 19756 2e36 55       		.byte	0x55
 19757 2e37 F0000000 		.4byte	.LVL438
 19758 2e3b F2000000 		.4byte	.LVL439
 19759 2e3f 0400     		.2byte	0x4
 19760 2e41 F3       		.byte	0xf3
 19761 2e42 01       		.uleb128 0x1
 19762 2e43 52       		.byte	0x52
 19763 2e44 9F       		.byte	0x9f
 19764 2e45 F2000000 		.4byte	.LVL439
 19765 2e49 48010000 		.4byte	.LFE9
 19766 2e4d 0100     		.2byte	0x1
 19767 2e4f 55       		.byte	0x55
 19768 2e50 00000000 		.4byte	0
 19769 2e54 00000000 		.4byte	0
 19770              	.LLST64:
 19771 2e58 00000000 		.4byte	.LVL416
 19772 2e5c 23000000 		.4byte	.LVL420-1
 19773 2e60 0100     		.2byte	0x1
 19774 2e62 53       		.byte	0x53
 19775 2e63 23000000 		.4byte	.LVL420-1
 19776 2e67 CE000000 		.4byte	.LVL433
 19777 2e6b 0100     		.2byte	0x1
 19778 2e6d 57       		.byte	0x57
 19779 2e6e CE000000 		.4byte	.LVL433
 19780 2e72 DB000000 		.4byte	.LVL437-1
 19781 2e76 0100     		.2byte	0x1
 19782 2e78 53       		.byte	0x53
 19783 2e79 DB000000 		.4byte	.LVL437-1
 19784 2e7d 48010000 		.4byte	.LFE9
 19785 2e81 0100     		.2byte	0x1
 19786 2e83 57       		.byte	0x57
 19787 2e84 00000000 		.4byte	0
 19788 2e88 00000000 		.4byte	0
 19789              	.LLST65:
 19790 2e8c 2E000000 		.4byte	.LVL421
 19791 2e90 3E000000 		.4byte	.LVL422
 19792 2e94 0200     		.2byte	0x2
 19793 2e96 30       		.byte	0x30
 19794 2e97 9F       		.byte	0x9f
 19795 2e98 3E000000 		.4byte	.LVL422
 19796 2e9c 62000000 		.4byte	.LVL424
 19797 2ea0 0100     		.2byte	0x1
 19798 2ea2 52       		.byte	0x52
 19799 2ea3 02010000 		.4byte	.LVL441
 19800 2ea7 48010000 		.4byte	.LFE9
ARM GAS  C:\Users\jo\AppData\Local\Temp\ccDsJqTW.s 			page 351


 19801 2eab 0200     		.2byte	0x2
 19802 2ead 30       		.byte	0x30
 19803 2eae 9F       		.byte	0x9f
 19804 2eaf 00000000 		.4byte	0
 19805 2eb3 00000000 		.4byte	0
 19806              	.LLST66:
 19807 2eb7 62000000 		.4byte	.LVL424
 19808 2ebb CE000000 		.4byte	.LVL433
 19809 2ebf 0100     		.2byte	0x1
 19810 2ec1 57       		.byte	0x57
 19811 2ec2 00000000 		.4byte	0
 19812 2ec6 00000000 		.4byte	0
 19813              	.LLST67:
 19814 2eca 62000000 		.4byte	.LVL424
 19815 2ece CE000000 		.4byte	.LVL433
 19816 2ed2 0100     		.2byte	0x1
 19817 2ed4 56       		.byte	0x56
 19818 2ed5 00000000 		.4byte	0
 19819 2ed9 00000000 		.4byte	0
 19820              	.LLST68:
 19821 2edd 9A000000 		.4byte	.LVL426
 19822 2ee1 B6000000 		.4byte	.LVL431
 19823 2ee5 0300     		.2byte	0x3
 19824 2ee7 08       		.byte	0x8
 19825 2ee8 40       		.byte	0x40
 19826 2ee9 9F       		.byte	0x9f
 19827 2eea 00000000 		.4byte	0
 19828 2eee 00000000 		.4byte	0
 19829              	.LLST69:
 19830 2ef2 9A000000 		.4byte	.LVL426
 19831 2ef6 B6000000 		.4byte	.LVL431
 19832 2efa 0100     		.2byte	0x1
 19833 2efc 58       		.byte	0x58
 19834 2efd 00000000 		.4byte	0
 19835 2f01 00000000 		.4byte	0
 19836              	.LLST70:
 19837 2f05 9A000000 		.4byte	.LVL426
 19838 2f09 B6000000 		.4byte	.LVL431
 19839 2f0d 0100     		.2byte	0x1
 19840 2f0f 56       		.byte	0x56
 19841 2f10 00000000 		.4byte	0
 19842 2f14 00000000 		.4byte	0
 19843              	.LLST71:
 19844 2f18 A4000000 		.4byte	.LVL427
 19845 2f1c A6000000 		.4byte	.LVL428
 19846 2f20 0200     		.2byte	0x2
 19847 2f22 4F       		.byte	0x4f
 19848 2f23 9F       		.byte	0x9f
 19849 2f24 A6000000 		.4byte	.LVL428
 19850 2f28 A8000000 		.4byte	.LVL429
 19851 2f2c 0900     		.2byte	0x9
 19852 2f2e 91       		.byte	0x91
 19853 2f2f 00       		.sleb128 0
 19854 2f30 74       		.byte	0x74
 19855 2f31 00       		.sleb128 0
 19856 2f32 1C       		.byte	0x1c
 19857 2f33 08       		.byte	0x8
ARM GAS  C:\Users\jo\AppData\Local\Temp\ccDsJqTW.s 			page 352


 19858 2f34 21       		.byte	0x21
 19859 2f35 1C       		.byte	0x1c
 19860 2f36 9F       		.byte	0x9f
 19861 2f37 A8000000 		.4byte	.LVL429
 19862 2f3b AC000000 		.4byte	.LVL430
 19863 2f3f 0900     		.2byte	0x9
 19864 2f41 91       		.byte	0x91
 19865 2f42 00       		.sleb128 0
 19866 2f43 74       		.byte	0x74
 19867 2f44 00       		.sleb128 0
 19868 2f45 1C       		.byte	0x1c
 19869 2f46 08       		.byte	0x8
 19870 2f47 22       		.byte	0x22
 19871 2f48 1C       		.byte	0x1c
 19872 2f49 9F       		.byte	0x9f
 19873 2f4a AC000000 		.4byte	.LVL430
 19874 2f4e B6000000 		.4byte	.LVL431
 19875 2f52 0900     		.2byte	0x9
 19876 2f54 91       		.byte	0x91
 19877 2f55 00       		.sleb128 0
 19878 2f56 74       		.byte	0x74
 19879 2f57 00       		.sleb128 0
 19880 2f58 1C       		.byte	0x1c
 19881 2f59 08       		.byte	0x8
 19882 2f5a 21       		.byte	0x21
 19883 2f5b 1C       		.byte	0x1c
 19884 2f5c 9F       		.byte	0x9f
 19885 2f5d 00000000 		.4byte	0
 19886 2f61 00000000 		.4byte	0
 19887              	.LLST72:
 19888 2f65 A4000000 		.4byte	.LVL427
 19889 2f69 A6000000 		.4byte	.LVL428
 19890 2f6d 0100     		.2byte	0x1
 19891 2f6f 54       		.byte	0x54
 19892 2f70 A6000000 		.4byte	.LVL428
 19893 2f74 AC000000 		.4byte	.LVL430
 19894 2f78 0300     		.2byte	0x3
 19895 2f7a 74       		.byte	0x74
 19896 2f7b 01       		.sleb128 1
 19897 2f7c 9F       		.byte	0x9f
 19898 2f7d AC000000 		.4byte	.LVL430
 19899 2f81 B6000000 		.4byte	.LVL431
 19900 2f85 0100     		.2byte	0x1
 19901 2f87 54       		.byte	0x54
 19902 2f88 00000000 		.4byte	0
 19903 2f8c 00000000 		.4byte	0
 19904              	.LLST73:
 19905 2f90 00000000 		.4byte	.LVL442
 19906 2f94 07000000 		.4byte	.LVL443-1
 19907 2f98 0100     		.2byte	0x1
 19908 2f9a 50       		.byte	0x50
 19909 2f9b 07000000 		.4byte	.LVL443-1
 19910 2f9f 08000000 		.4byte	.LFE10
 19911 2fa3 0400     		.2byte	0x4
 19912 2fa5 F3       		.byte	0xf3
 19913 2fa6 01       		.uleb128 0x1
 19914 2fa7 50       		.byte	0x50
ARM GAS  C:\Users\jo\AppData\Local\Temp\ccDsJqTW.s 			page 353


 19915 2fa8 9F       		.byte	0x9f
 19916 2fa9 00000000 		.4byte	0
 19917 2fad 00000000 		.4byte	0
 19918              	.LLST74:
 19919 2fb1 00000000 		.4byte	.LVL442
 19920 2fb5 07000000 		.4byte	.LVL443-1
 19921 2fb9 0100     		.2byte	0x1
 19922 2fbb 51       		.byte	0x51
 19923 2fbc 07000000 		.4byte	.LVL443-1
 19924 2fc0 08000000 		.4byte	.LFE10
 19925 2fc4 0400     		.2byte	0x4
 19926 2fc6 F3       		.byte	0xf3
 19927 2fc7 01       		.uleb128 0x1
 19928 2fc8 51       		.byte	0x51
 19929 2fc9 9F       		.byte	0x9f
 19930 2fca 00000000 		.4byte	0
 19931 2fce 00000000 		.4byte	0
 19932              	.LLST75:
 19933 2fd2 00000000 		.4byte	.LVL442
 19934 2fd6 07000000 		.4byte	.LVL443-1
 19935 2fda 0100     		.2byte	0x1
 19936 2fdc 52       		.byte	0x52
 19937 2fdd 07000000 		.4byte	.LVL443-1
 19938 2fe1 08000000 		.4byte	.LFE10
 19939 2fe5 0400     		.2byte	0x4
 19940 2fe7 F3       		.byte	0xf3
 19941 2fe8 01       		.uleb128 0x1
 19942 2fe9 52       		.byte	0x52
 19943 2fea 9F       		.byte	0x9f
 19944 2feb 00000000 		.4byte	0
 19945 2fef 00000000 		.4byte	0
 19946              	.LLST79:
 19947 2ff3 00000000 		.4byte	.LVL444
 19948 2ff7 17000000 		.4byte	.LVL448-1
 19949 2ffb 0100     		.2byte	0x1
 19950 2ffd 50       		.byte	0x50
 19951 2ffe 17000000 		.4byte	.LVL448-1
 19952 3002 82000000 		.4byte	.LVL458
 19953 3006 0100     		.2byte	0x1
 19954 3008 55       		.byte	0x55
 19955 3009 82000000 		.4byte	.LVL458
 19956 300d 87000000 		.4byte	.LVL460-1
 19957 3011 0100     		.2byte	0x1
 19958 3013 50       		.byte	0x50
 19959 3014 87000000 		.4byte	.LVL460-1
 19960 3018 04010000 		.4byte	.LFE11
 19961 301c 0100     		.2byte	0x1
 19962 301e 55       		.byte	0x55
 19963 301f 00000000 		.4byte	0
 19964 3023 00000000 		.4byte	0
 19965              	.LLST80:
 19966 3027 00000000 		.4byte	.LVL444
 19967 302b 14000000 		.4byte	.LVL447
 19968 302f 0100     		.2byte	0x1
 19969 3031 51       		.byte	0x51
 19970 3032 14000000 		.4byte	.LVL447
 19971 3036 82000000 		.4byte	.LVL458
ARM GAS  C:\Users\jo\AppData\Local\Temp\ccDsJqTW.s 			page 354


 19972 303a 0100     		.2byte	0x1
 19973 303c 58       		.byte	0x58
 19974 303d 82000000 		.4byte	.LVL458
 19975 3041 84000000 		.4byte	.LVL459
 19976 3045 0100     		.2byte	0x1
 19977 3047 51       		.byte	0x51
 19978 3048 84000000 		.4byte	.LVL459
 19979 304c 04010000 		.4byte	.LFE11
 19980 3050 0100     		.2byte	0x1
 19981 3052 58       		.byte	0x58
 19982 3053 00000000 		.4byte	0
 19983 3057 00000000 		.4byte	0
 19984              	.LLST81:
 19985 305b 12000000 		.4byte	.LVL446
 19986 305f 4C000000 		.4byte	.LVL449
 19987 3063 0300     		.2byte	0x3
 19988 3065 08       		.byte	0x8
 19989 3066 20       		.byte	0x20
 19990 3067 9F       		.byte	0x9f
 19991 3068 82000000 		.4byte	.LVL458
 19992 306c 04010000 		.4byte	.LFE11
 19993 3070 0200     		.2byte	0x2
 19994 3072 4C       		.byte	0x4c
 19995 3073 9F       		.byte	0x9f
 19996 3074 00000000 		.4byte	0
 19997 3078 00000000 		.4byte	0
 19998              	.LLST82:
 19999 307c 18000000 		.4byte	.LVL448
 20000 3080 4C000000 		.4byte	.LVL449
 20001 3084 0200     		.2byte	0x2
 20002 3086 30       		.byte	0x30
 20003 3087 9F       		.byte	0x9f
 20004 3088 88000000 		.4byte	.LVL460
 20005 308c 04010000 		.4byte	.LFE11
 20006 3090 0100     		.2byte	0x1
 20007 3092 56       		.byte	0x56
 20008 3093 00000000 		.4byte	0
 20009 3097 00000000 		.4byte	0
 20010              	.LLST83:
 20011 309b 18000000 		.4byte	.LVL448
 20012 309f 82000000 		.4byte	.LVL458
 20013 30a3 0100     		.2byte	0x1
 20014 30a5 55       		.byte	0x55
 20015 30a6 88000000 		.4byte	.LVL460
 20016 30aa 04010000 		.4byte	.LFE11
 20017 30ae 0100     		.2byte	0x1
 20018 30b0 55       		.byte	0x55
 20019 30b1 00000000 		.4byte	0
 20020 30b5 00000000 		.4byte	0
 20021              	.LLST84:
 20022 30b9 58000000 		.4byte	.LVL450
 20023 30bd 82000000 		.4byte	.LVL458
 20024 30c1 0300     		.2byte	0x3
 20025 30c3 08       		.byte	0x8
 20026 30c4 40       		.byte	0x40
 20027 30c5 9F       		.byte	0x9f
 20028 30c6 00000000 		.4byte	0
ARM GAS  C:\Users\jo\AppData\Local\Temp\ccDsJqTW.s 			page 355


 20029 30ca 00000000 		.4byte	0
 20030              	.LLST85:
 20031 30ce 58000000 		.4byte	.LVL450
 20032 30d2 5B000000 		.4byte	.LVL451-1
 20033 30d6 0100     		.2byte	0x1
 20034 30d8 51       		.byte	0x51
 20035 30d9 5B000000 		.4byte	.LVL451-1
 20036 30dd 82000000 		.4byte	.LVL458
 20037 30e1 0400     		.2byte	0x4
 20038 30e3 75       		.byte	0x75
 20039 30e4 A801     		.sleb128 168
 20040 30e6 9F       		.byte	0x9f
 20041 30e7 00000000 		.4byte	0
 20042 30eb 00000000 		.4byte	0
 20043              	.LLST86:
 20044 30ef 58000000 		.4byte	.LVL450
 20045 30f3 5B000000 		.4byte	.LVL451-1
 20046 30f7 0100     		.2byte	0x1
 20047 30f9 50       		.byte	0x50
 20048 30fa 5B000000 		.4byte	.LVL451-1
 20049 30fe 82000000 		.4byte	.LVL458
 20050 3102 0100     		.2byte	0x1
 20051 3104 55       		.byte	0x55
 20052 3105 00000000 		.4byte	0
 20053 3109 00000000 		.4byte	0
 20054              	.LLST87:
 20055 310d 5C000000 		.4byte	.LVL451
 20056 3111 82000000 		.4byte	.LVL458
 20057 3115 0100     		.2byte	0x1
 20058 3117 57       		.byte	0x57
 20059 3118 00000000 		.4byte	0
 20060 311c 00000000 		.4byte	0
 20061              	.LLST88:
 20062 3120 5C000000 		.4byte	.LVL451
 20063 3124 7E000000 		.4byte	.LVL457
 20064 3128 0100     		.2byte	0x1
 20065 312a 5D       		.byte	0x5d
 20066 312b 7E000000 		.4byte	.LVL457
 20067 312f 82000000 		.4byte	.LVL458
 20068 3133 0100     		.2byte	0x1
 20069 3135 54       		.byte	0x54
 20070 3136 00000000 		.4byte	0
 20071 313a 00000000 		.4byte	0
 20072              	.LLST89:
 20073 313e 5C000000 		.4byte	.LVL451
 20074 3142 82000000 		.4byte	.LVL458
 20075 3146 0100     		.2byte	0x1
 20076 3148 55       		.byte	0x55
 20077 3149 00000000 		.4byte	0
 20078 314d 00000000 		.4byte	0
 20079              	.LLST90:
 20080 3151 6E000000 		.4byte	.LVL453
 20081 3155 72000000 		.4byte	.LVL454
 20082 3159 0200     		.2byte	0x2
 20083 315b 4F       		.byte	0x4f
 20084 315c 9F       		.byte	0x9f
 20085 315d 72000000 		.4byte	.LVL454
ARM GAS  C:\Users\jo\AppData\Local\Temp\ccDsJqTW.s 			page 356


 20086 3161 74000000 		.4byte	.LVL455
 20087 3165 0900     		.2byte	0x9
 20088 3167 91       		.byte	0x91
 20089 3168 00       		.sleb128 0
 20090 3169 71       		.byte	0x71
 20091 316a 00       		.sleb128 0
 20092 316b 1C       		.byte	0x1c
 20093 316c 08       		.byte	0x8
 20094 316d 21       		.byte	0x21
 20095 316e 1C       		.byte	0x1c
 20096 316f 9F       		.byte	0x9f
 20097 3170 74000000 		.4byte	.LVL455
 20098 3174 78000000 		.4byte	.LVL456
 20099 3178 0900     		.2byte	0x9
 20100 317a 91       		.byte	0x91
 20101 317b 00       		.sleb128 0
 20102 317c 71       		.byte	0x71
 20103 317d 00       		.sleb128 0
 20104 317e 1C       		.byte	0x1c
 20105 317f 08       		.byte	0x8
 20106 3180 22       		.byte	0x22
 20107 3181 1C       		.byte	0x1c
 20108 3182 9F       		.byte	0x9f
 20109 3183 78000000 		.4byte	.LVL456
 20110 3187 82000000 		.4byte	.LVL458
 20111 318b 0900     		.2byte	0x9
 20112 318d 91       		.byte	0x91
 20113 318e 00       		.sleb128 0
 20114 318f 71       		.byte	0x71
 20115 3190 00       		.sleb128 0
 20116 3191 1C       		.byte	0x1c
 20117 3192 08       		.byte	0x8
 20118 3193 21       		.byte	0x21
 20119 3194 1C       		.byte	0x1c
 20120 3195 9F       		.byte	0x9f
 20121 3196 00000000 		.4byte	0
 20122 319a 00000000 		.4byte	0
 20123              	.LLST91:
 20124 319e 6E000000 		.4byte	.LVL453
 20125 31a2 7E000000 		.4byte	.LVL457
 20126 31a6 0100     		.2byte	0x1
 20127 31a8 5D       		.byte	0x5d
 20128 31a9 7E000000 		.4byte	.LVL457
 20129 31ad 82000000 		.4byte	.LVL458
 20130 31b1 0100     		.2byte	0x1
 20131 31b3 54       		.byte	0x54
 20132 31b4 00000000 		.4byte	0
 20133 31b8 00000000 		.4byte	0
 20134              	.LLST92:
 20135 31bc 6E000000 		.4byte	.LVL453
 20136 31c0 72000000 		.4byte	.LVL454
 20137 31c4 0100     		.2byte	0x1
 20138 31c6 5D       		.byte	0x5d
 20139 31c7 72000000 		.4byte	.LVL454
 20140 31cb 78000000 		.4byte	.LVL456
 20141 31cf 0300     		.2byte	0x3
 20142 31d1 71       		.byte	0x71
ARM GAS  C:\Users\jo\AppData\Local\Temp\ccDsJqTW.s 			page 357


 20143 31d2 01       		.sleb128 1
 20144 31d3 9F       		.byte	0x9f
 20145 31d4 78000000 		.4byte	.LVL456
 20146 31d8 82000000 		.4byte	.LVL458
 20147 31dc 0100     		.2byte	0x1
 20148 31de 51       		.byte	0x51
 20149 31df 00000000 		.4byte	0
 20150 31e3 00000000 		.4byte	0
 20151              	.LLST93:
 20152 31e7 00000000 		.4byte	.LVL461
 20153 31eb 47000000 		.4byte	.LVL465-1
 20154 31ef 0100     		.2byte	0x1
 20155 31f1 50       		.byte	0x50
 20156 31f2 47000000 		.4byte	.LVL465-1
 20157 31f6 48000000 		.4byte	.LVL465
 20158 31fa 0400     		.2byte	0x4
 20159 31fc F3       		.byte	0xf3
 20160 31fd 01       		.uleb128 0x1
 20161 31fe 50       		.byte	0x50
 20162 31ff 9F       		.byte	0x9f
 20163 3200 48000000 		.4byte	.LVL465
 20164 3204 A0000000 		.4byte	.LFE12
 20165 3208 0100     		.2byte	0x1
 20166 320a 50       		.byte	0x50
 20167 320b 00000000 		.4byte	0
 20168 320f 00000000 		.4byte	0
 20169              	.LLST94:
 20170 3213 04000000 		.4byte	.LVL462
 20171 3217 47000000 		.4byte	.LVL465-1
 20172 321b 0100     		.2byte	0x1
 20173 321d 53       		.byte	0x53
 20174 321e 48000000 		.4byte	.LVL465
 20175 3222 A0000000 		.4byte	.LFE12
 20176 3226 0100     		.2byte	0x1
 20177 3228 53       		.byte	0x53
 20178 3229 00000000 		.4byte	0
 20179 322d 00000000 		.4byte	0
 20180              	.LLST95:
 20181 3231 04000000 		.4byte	.LVL462
 20182 3235 47000000 		.4byte	.LVL465-1
 20183 3239 0100     		.2byte	0x1
 20184 323b 50       		.byte	0x50
 20185 323c 47000000 		.4byte	.LVL465-1
 20186 3240 48000000 		.4byte	.LVL465
 20187 3244 0400     		.2byte	0x4
 20188 3246 F3       		.byte	0xf3
 20189 3247 01       		.uleb128 0x1
 20190 3248 50       		.byte	0x50
 20191 3249 9F       		.byte	0x9f
 20192 324a 48000000 		.4byte	.LVL465
 20193 324e A0000000 		.4byte	.LFE12
 20194 3252 0100     		.2byte	0x1
 20195 3254 50       		.byte	0x50
 20196 3255 00000000 		.4byte	0
 20197 3259 00000000 		.4byte	0
 20198              	.LLST96:
 20199 325d 3A000000 		.4byte	.LVL463
ARM GAS  C:\Users\jo\AppData\Local\Temp\ccDsJqTW.s 			page 358


 20200 3261 48000000 		.4byte	.LVL465
 20201 3265 0300     		.2byte	0x3
 20202 3267 08       		.byte	0x8
 20203 3268 40       		.byte	0x40
 20204 3269 9F       		.byte	0x9f
 20205 326a 00000000 		.4byte	0
 20206 326e 00000000 		.4byte	0
 20207              	.LLST97:
 20208 3272 3A000000 		.4byte	.LVL463
 20209 3276 3E000000 		.4byte	.LVL464
 20210 327a 0400     		.2byte	0x4
 20211 327c 70       		.byte	0x70
 20212 327d E800     		.sleb128 104
 20213 327f 9F       		.byte	0x9f
 20214 3280 3E000000 		.4byte	.LVL464
 20215 3284 47000000 		.4byte	.LVL465-1
 20216 3288 0100     		.2byte	0x1
 20217 328a 51       		.byte	0x51
 20218 328b 47000000 		.4byte	.LVL465-1
 20219 328f 48000000 		.4byte	.LVL465
 20220 3293 0600     		.2byte	0x6
 20221 3295 F3       		.byte	0xf3
 20222 3296 01       		.uleb128 0x1
 20223 3297 50       		.byte	0x50
 20224 3298 23       		.byte	0x23
 20225 3299 68       		.uleb128 0x68
 20226 329a 9F       		.byte	0x9f
 20227 329b 00000000 		.4byte	0
 20228 329f 00000000 		.4byte	0
 20229              	.LLST98:
 20230 32a3 3A000000 		.4byte	.LVL463
 20231 32a7 47000000 		.4byte	.LVL465-1
 20232 32ab 0100     		.2byte	0x1
 20233 32ad 50       		.byte	0x50
 20234 32ae 47000000 		.4byte	.LVL465-1
 20235 32b2 48000000 		.4byte	.LVL465
 20236 32b6 0400     		.2byte	0x4
 20237 32b8 F3       		.byte	0xf3
 20238 32b9 01       		.uleb128 0x1
 20239 32ba 50       		.byte	0x50
 20240 32bb 9F       		.byte	0x9f
 20241 32bc 00000000 		.4byte	0
 20242 32c0 00000000 		.4byte	0
 20243              	.LLST99:
 20244 32c4 00000000 		.4byte	.LVL466
 20245 32c8 10000000 		.4byte	.LVL470
 20246 32cc 0100     		.2byte	0x1
 20247 32ce 50       		.byte	0x50
 20248 32cf 10000000 		.4byte	.LVL470
 20249 32d3 4A000000 		.4byte	.LFE13
 20250 32d7 0100     		.2byte	0x1
 20251 32d9 56       		.byte	0x56
 20252 32da 00000000 		.4byte	0
 20253 32de 00000000 		.4byte	0
 20254              	.LLST100:
 20255 32e2 00000000 		.4byte	.LVL466
 20256 32e6 0C000000 		.4byte	.LVL468
ARM GAS  C:\Users\jo\AppData\Local\Temp\ccDsJqTW.s 			page 359


 20257 32ea 0100     		.2byte	0x1
 20258 32ec 51       		.byte	0x51
 20259 32ed 0C000000 		.4byte	.LVL468
 20260 32f1 4A000000 		.4byte	.LFE13
 20261 32f5 0100     		.2byte	0x1
 20262 32f7 55       		.byte	0x55
 20263 32f8 00000000 		.4byte	0
 20264 32fc 00000000 		.4byte	0
 20265              	.LLST101:
 20266 3300 00000000 		.4byte	.LVL466
 20267 3304 0E000000 		.4byte	.LVL469
 20268 3308 0100     		.2byte	0x1
 20269 330a 52       		.byte	0x52
 20270 330b 0E000000 		.4byte	.LVL469
 20271 330f 4A000000 		.4byte	.LFE13
 20272 3313 0100     		.2byte	0x1
 20273 3315 57       		.byte	0x57
 20274 3316 00000000 		.4byte	0
 20275 331a 00000000 		.4byte	0
 20276              	.LLST102:
 20277 331e 00000000 		.4byte	.LVL466
 20278 3322 15000000 		.4byte	.LVL471-1
 20279 3326 0100     		.2byte	0x1
 20280 3328 53       		.byte	0x53
 20281 3329 15000000 		.4byte	.LVL471-1
 20282 332d 4A000000 		.4byte	.LFE13
 20283 3331 0100     		.2byte	0x1
 20284 3333 54       		.byte	0x54
 20285 3334 00000000 		.4byte	0
 20286 3338 00000000 		.4byte	0
 20287              	.LLST103:
 20288 333c 00000000 		.4byte	.LVL466
 20289 3340 3E000000 		.4byte	.LVL480
 20290 3344 0200     		.2byte	0x2
 20291 3346 91       		.byte	0x91
 20292 3347 00       		.sleb128 0
 20293 3348 3E000000 		.4byte	.LVL480
 20294 334c 4A000000 		.4byte	.LFE13
 20295 3350 0200     		.2byte	0x2
 20296 3352 91       		.byte	0x91
 20297 3353 00       		.sleb128 0
 20298 3354 00000000 		.4byte	0
 20299 3358 00000000 		.4byte	0
 20300              	.LLST104:
 20301 335c 00000000 		.4byte	.LVL466
 20302 3360 3E000000 		.4byte	.LVL480
 20303 3364 0200     		.2byte	0x2
 20304 3366 91       		.byte	0x91
 20305 3367 04       		.sleb128 4
 20306 3368 3E000000 		.4byte	.LVL480
 20307 336c 4A000000 		.4byte	.LFE13
 20308 3370 0200     		.2byte	0x2
 20309 3372 91       		.byte	0x91
 20310 3373 04       		.sleb128 4
 20311 3374 00000000 		.4byte	0
 20312 3378 00000000 		.4byte	0
 20313              	.LLST105:
ARM GAS  C:\Users\jo\AppData\Local\Temp\ccDsJqTW.s 			page 360


 20314 337c 04000000 		.4byte	.LVL467
 20315 3380 10000000 		.4byte	.LVL470
 20316 3384 0400     		.2byte	0x4
 20317 3386 91       		.byte	0x91
 20318 3387 FC7D     		.sleb128 -260
 20319 3389 9F       		.byte	0x9f
 20320 338a 10000000 		.4byte	.LVL470
 20321 338e 15000000 		.4byte	.LVL471-1
 20322 3392 0100     		.2byte	0x1
 20323 3394 50       		.byte	0x50
 20324 3395 15000000 		.4byte	.LVL471-1
 20325 3399 18000000 		.4byte	.LVL472
 20326 339d 0400     		.2byte	0x4
 20327 339f 91       		.byte	0x91
 20328 33a0 FC7D     		.sleb128 -260
 20329 33a2 9F       		.byte	0x9f
 20330 33a3 18000000 		.4byte	.LVL472
 20331 33a7 21000000 		.4byte	.LVL473-1
 20332 33ab 0100     		.2byte	0x1
 20333 33ad 50       		.byte	0x50
 20334 33ae 21000000 		.4byte	.LVL473-1
 20335 33b2 26000000 		.4byte	.LVL474
 20336 33b6 0400     		.2byte	0x4
 20337 33b8 91       		.byte	0x91
 20338 33b9 FC7D     		.sleb128 -260
 20339 33bb 9F       		.byte	0x9f
 20340 33bc 26000000 		.4byte	.LVL474
 20341 33c0 2B000000 		.4byte	.LVL475-1
 20342 33c4 0100     		.2byte	0x1
 20343 33c6 50       		.byte	0x50
 20344 33c7 2B000000 		.4byte	.LVL475-1
 20345 33cb 2E000000 		.4byte	.LVL476
 20346 33cf 0400     		.2byte	0x4
 20347 33d1 91       		.byte	0x91
 20348 33d2 FC7D     		.sleb128 -260
 20349 33d4 9F       		.byte	0x9f
 20350 33d5 2E000000 		.4byte	.LVL476
 20351 33d9 30000000 		.4byte	.LVL477
 20352 33dd 0100     		.2byte	0x1
 20353 33df 53       		.byte	0x53
 20354 33e0 30000000 		.4byte	.LVL477
 20355 33e4 44000000 		.4byte	.LVL481
 20356 33e8 0400     		.2byte	0x4
 20357 33ea 91       		.byte	0x91
 20358 33eb FC7D     		.sleb128 -260
 20359 33ed 9F       		.byte	0x9f
 20360 33ee 44000000 		.4byte	.LVL481
 20361 33f2 47000000 		.4byte	.LVL482-1
 20362 33f6 0100     		.2byte	0x1
 20363 33f8 50       		.byte	0x50
 20364 33f9 47000000 		.4byte	.LVL482-1
 20365 33fd 4A000000 		.4byte	.LFE13
 20366 3401 0400     		.2byte	0x4
 20367 3403 91       		.byte	0x91
 20368 3404 FC7D     		.sleb128 -260
 20369 3406 9F       		.byte	0x9f
 20370 3407 00000000 		.4byte	0
ARM GAS  C:\Users\jo\AppData\Local\Temp\ccDsJqTW.s 			page 361


 20371 340b 00000000 		.4byte	0
 20372              	.LLST106:
 20373 340f 22000000 		.4byte	.LVL473
 20374 3413 26000000 		.4byte	.LVL474
 20375 3417 0400     		.2byte	0x4
 20376 3419 91       		.byte	0x91
 20377 341a FC7D     		.sleb128 -260
 20378 341c 9F       		.byte	0x9f
 20379 341d 26000000 		.4byte	.LVL474
 20380 3421 2B000000 		.4byte	.LVL475-1
 20381 3425 0100     		.2byte	0x1
 20382 3427 50       		.byte	0x50
 20383 3428 2B000000 		.4byte	.LVL475-1
 20384 342c 2E000000 		.4byte	.LVL476
 20385 3430 0400     		.2byte	0x4
 20386 3432 91       		.byte	0x91
 20387 3433 FC7D     		.sleb128 -260
 20388 3435 9F       		.byte	0x9f
 20389 3436 2E000000 		.4byte	.LVL476
 20390 343a 30000000 		.4byte	.LVL477
 20391 343e 0100     		.2byte	0x1
 20392 3440 53       		.byte	0x53
 20393 3441 30000000 		.4byte	.LVL477
 20394 3445 44000000 		.4byte	.LVL481
 20395 3449 0400     		.2byte	0x4
 20396 344b 91       		.byte	0x91
 20397 344c FC7D     		.sleb128 -260
 20398 344e 9F       		.byte	0x9f
 20399 344f 44000000 		.4byte	.LVL481
 20400 3453 47000000 		.4byte	.LVL482-1
 20401 3457 0100     		.2byte	0x1
 20402 3459 50       		.byte	0x50
 20403 345a 47000000 		.4byte	.LVL482-1
 20404 345e 4A000000 		.4byte	.LFE13
 20405 3462 0400     		.2byte	0x4
 20406 3464 91       		.byte	0x91
 20407 3465 FC7D     		.sleb128 -260
 20408 3467 9F       		.byte	0x9f
 20409 3468 00000000 		.4byte	0
 20410 346c 00000000 		.4byte	0
 20411              	.LLST108:
 20412 3470 2C000000 		.4byte	.LVL475
 20413 3474 2E000000 		.4byte	.LVL476
 20414 3478 0400     		.2byte	0x4
 20415 347a 91       		.byte	0x91
 20416 347b FC7D     		.sleb128 -260
 20417 347d 9F       		.byte	0x9f
 20418 347e 2E000000 		.4byte	.LVL476
 20419 3482 30000000 		.4byte	.LVL477
 20420 3486 0100     		.2byte	0x1
 20421 3488 53       		.byte	0x53
 20422 3489 30000000 		.4byte	.LVL477
 20423 348d 3E000000 		.4byte	.LVL480
 20424 3491 0400     		.2byte	0x4
 20425 3493 91       		.byte	0x91
 20426 3494 FC7D     		.sleb128 -260
 20427 3496 9F       		.byte	0x9f
ARM GAS  C:\Users\jo\AppData\Local\Temp\ccDsJqTW.s 			page 362


 20428 3497 00000000 		.4byte	0
 20429 349b 00000000 		.4byte	0
 20430              	.LLST109:
 20431 349f 2C000000 		.4byte	.LVL475
 20432 34a3 30000000 		.4byte	.LVL477
 20433 34a7 0300     		.2byte	0x3
 20434 34a9 08       		.byte	0x8
 20435 34aa EB       		.byte	0xeb
 20436 34ab 9F       		.byte	0x9f
 20437 34ac 30000000 		.4byte	.LVL477
 20438 34b0 32000000 		.4byte	.LVL478
 20439 34b4 0800     		.2byte	0x8
 20440 34b6 91       		.byte	0x91
 20441 34b7 00       		.sleb128 0
 20442 34b8 73       		.byte	0x73
 20443 34b9 00       		.sleb128 0
 20444 34ba 1C       		.byte	0x1c
 20445 34bb 49       		.byte	0x49
 20446 34bc 1C       		.byte	0x1c
 20447 34bd 9F       		.byte	0x9f
 20448 34be 32000000 		.4byte	.LVL478
 20449 34c2 36000000 		.4byte	.LVL479
 20450 34c6 0800     		.2byte	0x8
 20451 34c8 91       		.byte	0x91
 20452 34c9 00       		.sleb128 0
 20453 34ca 73       		.byte	0x73
 20454 34cb 00       		.sleb128 0
 20455 34cc 1C       		.byte	0x1c
 20456 34cd 4A       		.byte	0x4a
 20457 34ce 1C       		.byte	0x1c
 20458 34cf 9F       		.byte	0x9f
 20459 34d0 36000000 		.4byte	.LVL479
 20460 34d4 3E000000 		.4byte	.LVL480
 20461 34d8 0800     		.2byte	0x8
 20462 34da 91       		.byte	0x91
 20463 34db 00       		.sleb128 0
 20464 34dc 73       		.byte	0x73
 20465 34dd 00       		.sleb128 0
 20466 34de 1C       		.byte	0x1c
 20467 34df 49       		.byte	0x49
 20468 34e0 1C       		.byte	0x1c
 20469 34e1 9F       		.byte	0x9f
 20470 34e2 00000000 		.4byte	0
 20471 34e6 00000000 		.4byte	0
 20472              	.LLST110:
 20473 34ea 2C000000 		.4byte	.LVL475
 20474 34ee 2E000000 		.4byte	.LVL476
 20475 34f2 0400     		.2byte	0x4
 20476 34f4 91       		.byte	0x91
 20477 34f5 FC7D     		.sleb128 -260
 20478 34f7 9F       		.byte	0x9f
 20479 34f8 2E000000 		.4byte	.LVL476
 20480 34fc 30000000 		.4byte	.LVL477
 20481 3500 0100     		.2byte	0x1
 20482 3502 53       		.byte	0x53
 20483 3503 30000000 		.4byte	.LVL477
 20484 3507 36000000 		.4byte	.LVL479
ARM GAS  C:\Users\jo\AppData\Local\Temp\ccDsJqTW.s 			page 363


 20485 350b 0300     		.2byte	0x3
 20486 350d 73       		.byte	0x73
 20487 350e 01       		.sleb128 1
 20488 350f 9F       		.byte	0x9f
 20489 3510 36000000 		.4byte	.LVL479
 20490 3514 3E000000 		.4byte	.LVL480
 20491 3518 0100     		.2byte	0x1
 20492 351a 53       		.byte	0x53
 20493 351b 00000000 		.4byte	0
 20494 351f 00000000 		.4byte	0
 20495              	.LLST111:
 20496 3523 00000000 		.4byte	.LVL483
 20497 3527 0E000000 		.4byte	.LVL485
 20498 352b 0100     		.2byte	0x1
 20499 352d 50       		.byte	0x50
 20500 352e 0E000000 		.4byte	.LVL485
 20501 3532 DC020000 		.4byte	.LFE14
 20502 3536 0100     		.2byte	0x1
 20503 3538 56       		.byte	0x56
 20504 3539 00000000 		.4byte	0
 20505 353d 00000000 		.4byte	0
 20506              	.LLST112:
 20507 3541 14000000 		.4byte	.LVL486
 20508 3545 22000000 		.4byte	.LVL487
 20509 3549 0200     		.2byte	0x2
 20510 354b 30       		.byte	0x30
 20511 354c 9F       		.byte	0x9f
 20512 354d 22000000 		.4byte	.LVL487
 20513 3551 C0000000 		.4byte	.LVL497
 20514 3555 0100     		.2byte	0x1
 20515 3557 55       		.byte	0x55
 20516 3558 C0000000 		.4byte	.LVL497
 20517 355c D2000000 		.4byte	.LVL498
 20518 3560 0200     		.2byte	0x2
 20519 3562 30       		.byte	0x30
 20520 3563 9F       		.byte	0x9f
 20521 3564 D2000000 		.4byte	.LVL498
 20522 3568 96010000 		.4byte	.LVL519
 20523 356c 0100     		.2byte	0x1
 20524 356e 5B       		.byte	0x5b
 20525 356f 96010000 		.4byte	.LVL519
 20526 3573 EC010000 		.4byte	.LVL526
 20527 3577 0100     		.2byte	0x1
 20528 3579 55       		.byte	0x55
 20529 357a EC010000 		.4byte	.LVL526
 20530 357e F2010000 		.4byte	.LVL527
 20531 3582 0100     		.2byte	0x1
 20532 3584 5B       		.byte	0x5b
 20533 3585 F2010000 		.4byte	.LVL527
 20534 3589 F6010000 		.4byte	.LVL528
 20535 358d 0300     		.2byte	0x3
 20536 358f 7B       		.byte	0x7b
 20537 3590 7F       		.sleb128 -1
 20538 3591 9F       		.byte	0x9f
 20539 3592 F6010000 		.4byte	.LVL528
 20540 3596 06020000 		.4byte	.LVL529
 20541 359a 0100     		.2byte	0x1
ARM GAS  C:\Users\jo\AppData\Local\Temp\ccDsJqTW.s 			page 364


 20542 359c 5B       		.byte	0x5b
 20543 359d 06020000 		.4byte	.LVL529
 20544 35a1 36020000 		.4byte	.LVL537
 20545 35a5 0100     		.2byte	0x1
 20546 35a7 55       		.byte	0x55
 20547 35a8 4E020000 		.4byte	.LVL543
 20548 35ac 56020000 		.4byte	.LVL545
 20549 35b0 0100     		.2byte	0x1
 20550 35b2 55       		.byte	0x55
 20551 35b3 60020000 		.4byte	.LVL547
 20552 35b7 DC020000 		.4byte	.LFE14
 20553 35bb 0100     		.2byte	0x1
 20554 35bd 5B       		.byte	0x5b
 20555 35be 00000000 		.4byte	0
 20556 35c2 00000000 		.4byte	0
 20557              	.LLST113:
 20558 35c6 3A000000 		.4byte	.LVL488
 20559 35ca 90000000 		.4byte	.LVL492
 20560 35ce 0100     		.2byte	0x1
 20561 35d0 58       		.byte	0x58
 20562 35d1 D2000000 		.4byte	.LVL498
 20563 35d5 2A010000 		.4byte	.LVL507
 20564 35d9 0100     		.2byte	0x1
 20565 35db 55       		.byte	0x55
 20566 35dc 46010000 		.4byte	.LVL508
 20567 35e0 96010000 		.4byte	.LVL519
 20568 35e4 0100     		.2byte	0x1
 20569 35e6 55       		.byte	0x55
 20570 35e7 96010000 		.4byte	.LVL519
 20571 35eb D4010000 		.4byte	.LVL521
 20572 35ef 0100     		.2byte	0x1
 20573 35f1 58       		.byte	0x58
 20574 35f2 D4010000 		.4byte	.LVL521
 20575 35f6 D8010000 		.4byte	.LVL522
 20576 35fa 0200     		.2byte	0x2
 20577 35fc 30       		.byte	0x30
 20578 35fd 9F       		.byte	0x9f
 20579 35fe D8010000 		.4byte	.LVL522
 20580 3602 E4010000 		.4byte	.LVL524
 20581 3606 0700     		.2byte	0x7
 20582 3608 0A       		.byte	0xa
 20583 3609 E803     		.2byte	0x3e8
 20584 360b 78       		.byte	0x78
 20585 360c 00       		.sleb128 0
 20586 360d 1C       		.byte	0x1c
 20587 360e 9F       		.byte	0x9f
 20588 360f E4010000 		.4byte	.LVL524
 20589 3613 E8010000 		.4byte	.LVL525
 20590 3617 0700     		.2byte	0x7
 20591 3619 0A       		.byte	0xa
 20592 361a E903     		.2byte	0x3e9
 20593 361c 78       		.byte	0x78
 20594 361d 00       		.sleb128 0
 20595 361e 1C       		.byte	0x1c
 20596 361f 9F       		.byte	0x9f
 20597 3620 E8010000 		.4byte	.LVL525
 20598 3624 EC010000 		.4byte	.LVL526
ARM GAS  C:\Users\jo\AppData\Local\Temp\ccDsJqTW.s 			page 365


 20599 3628 0700     		.2byte	0x7
 20600 362a 0A       		.byte	0xa
 20601 362b E803     		.2byte	0x3e8
 20602 362d 78       		.byte	0x78
 20603 362e 00       		.sleb128 0
 20604 362f 1C       		.byte	0x1c
 20605 3630 9F       		.byte	0x9f
 20606 3631 EC010000 		.4byte	.LVL526
 20607 3635 06020000 		.4byte	.LVL529
 20608 3639 0100     		.2byte	0x1
 20609 363b 55       		.byte	0x55
 20610 363c 06020000 		.4byte	.LVL529
 20611 3640 1A020000 		.4byte	.LVL531
 20612 3644 0100     		.2byte	0x1
 20613 3646 58       		.byte	0x58
 20614 3647 22020000 		.4byte	.LVL533
 20615 364b 2C020000 		.4byte	.LVL534
 20616 364f 0100     		.2byte	0x1
 20617 3651 58       		.byte	0x58
 20618 3652 2C020000 		.4byte	.LVL534
 20619 3656 36020000 		.4byte	.LVL537
 20620 365a 1F00     		.2byte	0x1f
 20621 365c 75       		.byte	0x75
 20622 365d 00       		.sleb128 0
 20623 365e 75       		.byte	0x75
 20624 365f 00       		.sleb128 0
 20625 3660 F7       		.byte	0xf7
 20626 3661 2C       		.uleb128 0x2c
 20627 3662 F7       		.byte	0xf7
 20628 3663 25       		.uleb128 0x25
 20629 3664 79       		.byte	0x79
 20630 3665 00       		.sleb128 0
 20631 3666 F7       		.byte	0xf7
 20632 3667 2C       		.uleb128 0x2c
 20633 3668 F7       		.byte	0xf7
 20634 3669 25       		.uleb128 0x25
 20635 366a 1E       		.byte	0x1e
 20636 366b 08       		.byte	0x8
 20637 366c 20       		.byte	0x20
 20638 366d F7       		.byte	0xf7
 20639 366e 25       		.uleb128 0x25
 20640 366f 25       		.byte	0x25
 20641 3670 F7       		.byte	0xf7
 20642 3671 33       		.uleb128 0x33
 20643 3672 75       		.byte	0x75
 20644 3673 00       		.sleb128 0
 20645 3674 4F       		.byte	0x4f
 20646 3675 26       		.byte	0x26
 20647 3676 1C       		.byte	0x1c
 20648 3677 33       		.byte	0x33
 20649 3678 1E       		.byte	0x1e
 20650 3679 1C       		.byte	0x1c
 20651 367a 9F       		.byte	0x9f
 20652 367b 60020000 		.4byte	.LVL547
 20653 367f DC020000 		.4byte	.LFE14
 20654 3683 0100     		.2byte	0x1
 20655 3685 55       		.byte	0x55
ARM GAS  C:\Users\jo\AppData\Local\Temp\ccDsJqTW.s 			page 366


 20656 3686 00000000 		.4byte	0
 20657 368a 00000000 		.4byte	0
 20658              	.LLST114:
 20659 368e 3A000000 		.4byte	.LVL488
 20660 3692 44000000 		.4byte	.LVL489
 20661 3696 0100     		.2byte	0x1
 20662 3698 53       		.byte	0x53
 20663 3699 D2000000 		.4byte	.LVL498
 20664 369d 2A010000 		.4byte	.LVL507
 20665 36a1 0100     		.2byte	0x1
 20666 36a3 57       		.byte	0x57
 20667 36a4 4C010000 		.4byte	.LVL509
 20668 36a8 96010000 		.4byte	.LVL519
 20669 36ac 0100     		.2byte	0x1
 20670 36ae 57       		.byte	0x57
 20671 36af EC010000 		.4byte	.LVL526
 20672 36b3 06020000 		.4byte	.LVL529
 20673 36b7 0100     		.2byte	0x1
 20674 36b9 57       		.byte	0x57
 20675 36ba 06020000 		.4byte	.LVL529
 20676 36be 15020000 		.4byte	.LVL530-1
 20677 36c2 0100     		.2byte	0x1
 20678 36c4 53       		.byte	0x53
 20679 36c5 15020000 		.4byte	.LVL530-1
 20680 36c9 1A020000 		.4byte	.LVL531
 20681 36cd 0300     		.2byte	0x3
 20682 36cf 91       		.byte	0x91
 20683 36d0 C475     		.sleb128 -1340
 20684 36d2 60020000 		.4byte	.LVL547
 20685 36d6 DC020000 		.4byte	.LFE14
 20686 36da 0100     		.2byte	0x1
 20687 36dc 57       		.byte	0x57
 20688 36dd 00000000 		.4byte	0
 20689 36e1 00000000 		.4byte	0
 20690              	.LLST115:
 20691 36e5 64010000 		.4byte	.LVL511
 20692 36e9 82010000 		.4byte	.LVL516
 20693 36ed 0300     		.2byte	0x3
 20694 36ef 08       		.byte	0x8
 20695 36f0 83       		.byte	0x83
 20696 36f1 9F       		.byte	0x9f
 20697 36f2 C8010000 		.4byte	.LVL520
 20698 36f6 EC010000 		.4byte	.LVL526
 20699 36fa 0400     		.2byte	0x4
 20700 36fc 0A       		.byte	0xa
 20701 36fd E803     		.2byte	0x3e8
 20702 36ff 9F       		.byte	0x9f
 20703 3700 00000000 		.4byte	0
 20704 3704 00000000 		.4byte	0
 20705              	.LLST116:
 20706 3708 00000000 		.4byte	.LVL483
 20707 370c 3A020000 		.4byte	.LVL538
 20708 3710 0200     		.2byte	0x2
 20709 3712 30       		.byte	0x30
 20710 3713 9F       		.byte	0x9f
 20711 3714 3A020000 		.4byte	.LVL538
 20712 3718 4E020000 		.4byte	.LVL543
ARM GAS  C:\Users\jo\AppData\Local\Temp\ccDsJqTW.s 			page 367


 20713 371c 0100     		.2byte	0x1
 20714 371e 50       		.byte	0x50
 20715 371f 4E020000 		.4byte	.LVL543
 20716 3723 DC020000 		.4byte	.LFE14
 20717 3727 0200     		.2byte	0x2
 20718 3729 30       		.byte	0x30
 20719 372a 9F       		.byte	0x9f
 20720 372b 00000000 		.4byte	0
 20721 372f 00000000 		.4byte	0
 20722              	.LLST117:
 20723 3733 08000000 		.4byte	.LVL484
 20724 3737 0E000000 		.4byte	.LVL485
 20725 373b 0400     		.2byte	0x4
 20726 373d 91       		.byte	0x91
 20727 373e EC75     		.sleb128 -1300
 20728 3740 9F       		.byte	0x9f
 20729 3741 0E000000 		.4byte	.LVL485
 20730 3745 13000000 		.4byte	.LVL486-1
 20731 3749 0100     		.2byte	0x1
 20732 374b 50       		.byte	0x50
 20733 374c 13000000 		.4byte	.LVL486-1
 20734 3750 92000000 		.4byte	.LVL493
 20735 3754 0400     		.2byte	0x4
 20736 3756 91       		.byte	0x91
 20737 3757 EC75     		.sleb128 -1300
 20738 3759 9F       		.byte	0x9f
 20739 375a 92000000 		.4byte	.LVL493
 20740 375e 97000000 		.4byte	.LVL494-1
 20741 3762 0100     		.2byte	0x1
 20742 3764 50       		.byte	0x50
 20743 3765 97000000 		.4byte	.LVL494-1
 20744 3769 E8000000 		.4byte	.LVL499
 20745 376d 0400     		.2byte	0x4
 20746 376f 91       		.byte	0x91
 20747 3770 EC75     		.sleb128 -1300
 20748 3772 9F       		.byte	0x9f
 20749 3773 E8000000 		.4byte	.LVL499
 20750 3777 ED000000 		.4byte	.LVL500-1
 20751 377b 0100     		.2byte	0x1
 20752 377d 50       		.byte	0x50
 20753 377e ED000000 		.4byte	.LVL500-1
 20754 3782 F8000000 		.4byte	.LVL503
 20755 3786 0400     		.2byte	0x4
 20756 3788 91       		.byte	0x91
 20757 3789 EC75     		.sleb128 -1300
 20758 378b 9F       		.byte	0x9f
 20759 378c F8000000 		.4byte	.LVL503
 20760 3790 FD000000 		.4byte	.LVL504-1
 20761 3794 0100     		.2byte	0x1
 20762 3796 50       		.byte	0x50
 20763 3797 FD000000 		.4byte	.LVL504-1
 20764 379b 72010000 		.4byte	.LVL513
 20765 379f 0400     		.2byte	0x4
 20766 37a1 91       		.byte	0x91
 20767 37a2 EC75     		.sleb128 -1300
 20768 37a4 9F       		.byte	0x9f
 20769 37a5 72010000 		.4byte	.LVL513
ARM GAS  C:\Users\jo\AppData\Local\Temp\ccDsJqTW.s 			page 368


 20770 37a9 79010000 		.4byte	.LVL514-1
 20771 37ad 0100     		.2byte	0x1
 20772 37af 50       		.byte	0x50
 20773 37b0 79010000 		.4byte	.LVL514-1
 20774 37b4 90010000 		.4byte	.LVL517
 20775 37b8 0400     		.2byte	0x4
 20776 37ba 91       		.byte	0x91
 20777 37bb EC75     		.sleb128 -1300
 20778 37bd 9F       		.byte	0x9f
 20779 37be 90010000 		.4byte	.LVL517
 20780 37c2 93010000 		.4byte	.LVL518-1
 20781 37c6 0100     		.2byte	0x1
 20782 37c8 50       		.byte	0x50
 20783 37c9 93010000 		.4byte	.LVL518-1
 20784 37cd DA010000 		.4byte	.LVL523
 20785 37d1 0400     		.2byte	0x4
 20786 37d3 91       		.byte	0x91
 20787 37d4 EC75     		.sleb128 -1300
 20788 37d6 9F       		.byte	0x9f
 20789 37d7 DA010000 		.4byte	.LVL523
 20790 37db E3010000 		.4byte	.LVL524-1
 20791 37df 0100     		.2byte	0x1
 20792 37e1 50       		.byte	0x50
 20793 37e2 E3010000 		.4byte	.LVL524-1
 20794 37e6 30020000 		.4byte	.LVL535
 20795 37ea 0400     		.2byte	0x4
 20796 37ec 91       		.byte	0x91
 20797 37ed EC75     		.sleb128 -1300
 20798 37ef 9F       		.byte	0x9f
 20799 37f0 30020000 		.4byte	.LVL535
 20800 37f4 33020000 		.4byte	.LVL536-1
 20801 37f8 0100     		.2byte	0x1
 20802 37fa 50       		.byte	0x50
 20803 37fb 33020000 		.4byte	.LVL536-1
 20804 37ff 3C020000 		.4byte	.LVL539
 20805 3803 0400     		.2byte	0x4
 20806 3805 91       		.byte	0x91
 20807 3806 EC75     		.sleb128 -1300
 20808 3808 9F       		.byte	0x9f
 20809 3809 3C020000 		.4byte	.LVL539
 20810 380d 3E020000 		.4byte	.LVL540
 20811 3811 0100     		.2byte	0x1
 20812 3813 53       		.byte	0x53
 20813 3814 3E020000 		.4byte	.LVL540
 20814 3818 DC020000 		.4byte	.LFE14
 20815 381c 0400     		.2byte	0x4
 20816 381e 91       		.byte	0x91
 20817 381f EC75     		.sleb128 -1300
 20818 3821 9F       		.byte	0x9f
 20819 3822 00000000 		.4byte	0
 20820 3826 00000000 		.4byte	0
 20821              	.LLST118:
 20822 382a 44000000 		.4byte	.LVL489
 20823 382e 86000000 		.4byte	.LVL490
 20824 3832 0100     		.2byte	0x1
 20825 3834 53       		.byte	0x53
 20826 3835 86000000 		.4byte	.LVL490
ARM GAS  C:\Users\jo\AppData\Local\Temp\ccDsJqTW.s 			page 369


 20827 3839 90000000 		.4byte	.LVL492
 20828 383d 0300     		.2byte	0x3
 20829 383f 91       		.byte	0x91
 20830 3840 D477     		.sleb128 -1068
 20831 3842 96010000 		.4byte	.LVL519
 20832 3846 D3010000 		.4byte	.LVL521-1
 20833 384a 0100     		.2byte	0x1
 20834 384c 53       		.byte	0x53
 20835 384d 22020000 		.4byte	.LVL533
 20836 3851 33020000 		.4byte	.LVL536-1
 20837 3855 0300     		.2byte	0x3
 20838 3857 91       		.byte	0x91
 20839 3858 D477     		.sleb128 -1068
 20840 385a 00000000 		.4byte	0
 20841 385e 00000000 		.4byte	0
 20842              	.LLST119:
 20843 3862 44000000 		.4byte	.LVL489
 20844 3866 92000000 		.4byte	.LVL493
 20845 386a 0400     		.2byte	0x4
 20846 386c 91       		.byte	0x91
 20847 386d EC75     		.sleb128 -1300
 20848 386f 9F       		.byte	0x9f
 20849 3870 92000000 		.4byte	.LVL493
 20850 3874 97000000 		.4byte	.LVL494-1
 20851 3878 0100     		.2byte	0x1
 20852 387a 50       		.byte	0x50
 20853 387b 97000000 		.4byte	.LVL494-1
 20854 387f E8000000 		.4byte	.LVL499
 20855 3883 0400     		.2byte	0x4
 20856 3885 91       		.byte	0x91
 20857 3886 EC75     		.sleb128 -1300
 20858 3888 9F       		.byte	0x9f
 20859 3889 E8000000 		.4byte	.LVL499
 20860 388d ED000000 		.4byte	.LVL500-1
 20861 3891 0100     		.2byte	0x1
 20862 3893 50       		.byte	0x50
 20863 3894 ED000000 		.4byte	.LVL500-1
 20864 3898 F8000000 		.4byte	.LVL503
 20865 389c 0400     		.2byte	0x4
 20866 389e 91       		.byte	0x91
 20867 389f EC75     		.sleb128 -1300
 20868 38a1 9F       		.byte	0x9f
 20869 38a2 F8000000 		.4byte	.LVL503
 20870 38a6 FD000000 		.4byte	.LVL504-1
 20871 38aa 0100     		.2byte	0x1
 20872 38ac 50       		.byte	0x50
 20873 38ad FD000000 		.4byte	.LVL504-1
 20874 38b1 72010000 		.4byte	.LVL513
 20875 38b5 0400     		.2byte	0x4
 20876 38b7 91       		.byte	0x91
 20877 38b8 EC75     		.sleb128 -1300
 20878 38ba 9F       		.byte	0x9f
 20879 38bb 72010000 		.4byte	.LVL513
 20880 38bf 79010000 		.4byte	.LVL514-1
 20881 38c3 0100     		.2byte	0x1
 20882 38c5 50       		.byte	0x50
 20883 38c6 79010000 		.4byte	.LVL514-1
ARM GAS  C:\Users\jo\AppData\Local\Temp\ccDsJqTW.s 			page 370


 20884 38ca 90010000 		.4byte	.LVL517
 20885 38ce 0400     		.2byte	0x4
 20886 38d0 91       		.byte	0x91
 20887 38d1 EC75     		.sleb128 -1300
 20888 38d3 9F       		.byte	0x9f
 20889 38d4 90010000 		.4byte	.LVL517
 20890 38d8 93010000 		.4byte	.LVL518-1
 20891 38dc 0100     		.2byte	0x1
 20892 38de 50       		.byte	0x50
 20893 38df 93010000 		.4byte	.LVL518-1
 20894 38e3 DA010000 		.4byte	.LVL523
 20895 38e7 0400     		.2byte	0x4
 20896 38e9 91       		.byte	0x91
 20897 38ea EC75     		.sleb128 -1300
 20898 38ec 9F       		.byte	0x9f
 20899 38ed DA010000 		.4byte	.LVL523
 20900 38f1 E3010000 		.4byte	.LVL524-1
 20901 38f5 0100     		.2byte	0x1
 20902 38f7 50       		.byte	0x50
 20903 38f8 E3010000 		.4byte	.LVL524-1
 20904 38fc 06020000 		.4byte	.LVL529
 20905 3900 0400     		.2byte	0x4
 20906 3902 91       		.byte	0x91
 20907 3903 EC75     		.sleb128 -1300
 20908 3905 9F       		.byte	0x9f
 20909 3906 1A020000 		.4byte	.LVL531
 20910 390a 30020000 		.4byte	.LVL535
 20911 390e 0400     		.2byte	0x4
 20912 3910 91       		.byte	0x91
 20913 3911 EC75     		.sleb128 -1300
 20914 3913 9F       		.byte	0x9f
 20915 3914 30020000 		.4byte	.LVL535
 20916 3918 33020000 		.4byte	.LVL536-1
 20917 391c 0100     		.2byte	0x1
 20918 391e 50       		.byte	0x50
 20919 391f 33020000 		.4byte	.LVL536-1
 20920 3923 3C020000 		.4byte	.LVL539
 20921 3927 0400     		.2byte	0x4
 20922 3929 91       		.byte	0x91
 20923 392a EC75     		.sleb128 -1300
 20924 392c 9F       		.byte	0x9f
 20925 392d 3C020000 		.4byte	.LVL539
 20926 3931 3E020000 		.4byte	.LVL540
 20927 3935 0100     		.2byte	0x1
 20928 3937 53       		.byte	0x53
 20929 3938 3E020000 		.4byte	.LVL540
 20930 393c DC020000 		.4byte	.LFE14
 20931 3940 0400     		.2byte	0x4
 20932 3942 91       		.byte	0x91
 20933 3943 EC75     		.sleb128 -1300
 20934 3945 9F       		.byte	0x9f
 20935 3946 00000000 		.4byte	0
 20936 394a 00000000 		.4byte	0
 20937              	.LLST120:
 20938 394e 8A000000 		.4byte	.LVL491
 20939 3952 90000000 		.4byte	.LVL492
 20940 3956 0100     		.2byte	0x1
ARM GAS  C:\Users\jo\AppData\Local\Temp\ccDsJqTW.s 			page 371


 20941 3958 52       		.byte	0x52
 20942 3959 22020000 		.4byte	.LVL533
 20943 395d 33020000 		.4byte	.LVL536-1
 20944 3961 0100     		.2byte	0x1
 20945 3963 52       		.byte	0x52
 20946 3964 33020000 		.4byte	.LVL536-1
 20947 3968 36020000 		.4byte	.LVL537
 20948 396c 2600     		.2byte	0x26
 20949 396e 75       		.byte	0x75
 20950 396f 00       		.sleb128 0
 20951 3970 75       		.byte	0x75
 20952 3971 00       		.sleb128 0
 20953 3972 F7       		.byte	0xf7
 20954 3973 2C       		.uleb128 0x2c
 20955 3974 F7       		.byte	0xf7
 20956 3975 25       		.uleb128 0x25
 20957 3976 79       		.byte	0x79
 20958 3977 00       		.sleb128 0
 20959 3978 F7       		.byte	0xf7
 20960 3979 2C       		.uleb128 0x2c
 20961 397a F7       		.byte	0xf7
 20962 397b 25       		.uleb128 0x25
 20963 397c 1E       		.byte	0x1e
 20964 397d 08       		.byte	0x8
 20965 397e 20       		.byte	0x20
 20966 397f F7       		.byte	0xf7
 20967 3980 25       		.uleb128 0x25
 20968 3981 25       		.byte	0x25
 20969 3982 F7       		.byte	0xf7
 20970 3983 33       		.uleb128 0x33
 20971 3984 75       		.byte	0x75
 20972 3985 00       		.sleb128 0
 20973 3986 4F       		.byte	0x4f
 20974 3987 26       		.byte	0x26
 20975 3988 1C       		.byte	0x1c
 20976 3989 33       		.byte	0x33
 20977 398a 1E       		.byte	0x1e
 20978 398b 1C       		.byte	0x1c
 20979 398c 32       		.byte	0x32
 20980 398d 24       		.byte	0x24
 20981 398e 03       		.byte	0x3
 20982 398f 00000000 		.4byte	.LANCHOR2
 20983 3993 22       		.byte	0x22
 20984 3994 00000000 		.4byte	0
 20985 3998 00000000 		.4byte	0
 20986              	.LLST121:
 20987 399c 8A000000 		.4byte	.LVL491
 20988 39a0 90000000 		.4byte	.LVL492
 20989 39a4 0C00     		.2byte	0xc
 20990 39a6 78       		.byte	0x78
 20991 39a7 00       		.sleb128 0
 20992 39a8 08       		.byte	0x8
 20993 39a9 39       		.byte	0x39
 20994 39aa 1E       		.byte	0x1e
 20995 39ab 03       		.byte	0x3
 20996 39ac 00000000 		.4byte	sha256_test_buf
 20997 39b0 22       		.byte	0x22
ARM GAS  C:\Users\jo\AppData\Local\Temp\ccDsJqTW.s 			page 372


 20998 39b1 9F       		.byte	0x9f
 20999 39b2 22020000 		.4byte	.LVL533
 21000 39b6 2C020000 		.4byte	.LVL534
 21001 39ba 0C00     		.2byte	0xc
 21002 39bc 78       		.byte	0x78
 21003 39bd 00       		.sleb128 0
 21004 39be 08       		.byte	0x8
 21005 39bf 39       		.byte	0x39
 21006 39c0 1E       		.byte	0x1e
 21007 39c1 03       		.byte	0x3
 21008 39c2 00000000 		.4byte	sha256_test_buf
 21009 39c6 22       		.byte	0x22
 21010 39c7 9F       		.byte	0x9f
 21011 39c8 2C020000 		.4byte	.LVL534
 21012 39cc 36020000 		.4byte	.LVL537
 21013 39d0 2800     		.2byte	0x28
 21014 39d2 75       		.byte	0x75
 21015 39d3 00       		.sleb128 0
 21016 39d4 75       		.byte	0x75
 21017 39d5 00       		.sleb128 0
 21018 39d6 F7       		.byte	0xf7
 21019 39d7 2C       		.uleb128 0x2c
 21020 39d8 F7       		.byte	0xf7
 21021 39d9 25       		.uleb128 0x25
 21022 39da 79       		.byte	0x79
 21023 39db 00       		.sleb128 0
 21024 39dc F7       		.byte	0xf7
 21025 39dd 2C       		.uleb128 0x2c
 21026 39de F7       		.byte	0xf7
 21027 39df 25       		.uleb128 0x25
 21028 39e0 1E       		.byte	0x1e
 21029 39e1 08       		.byte	0x8
 21030 39e2 20       		.byte	0x20
 21031 39e3 F7       		.byte	0xf7
 21032 39e4 25       		.uleb128 0x25
 21033 39e5 25       		.byte	0x25
 21034 39e6 F7       		.byte	0xf7
 21035 39e7 33       		.uleb128 0x33
 21036 39e8 75       		.byte	0x75
 21037 39e9 00       		.sleb128 0
 21038 39ea 4F       		.byte	0x4f
 21039 39eb 26       		.byte	0x26
 21040 39ec 1C       		.byte	0x1c
 21041 39ed 33       		.byte	0x33
 21042 39ee 1E       		.byte	0x1e
 21043 39ef 1C       		.byte	0x1c
 21044 39f0 08       		.byte	0x8
 21045 39f1 39       		.byte	0x39
 21046 39f2 1E       		.byte	0x1e
 21047 39f3 03       		.byte	0x3
 21048 39f4 00000000 		.4byte	sha256_test_buf
 21049 39f8 22       		.byte	0x22
 21050 39f9 9F       		.byte	0x9f
 21051 39fa 00000000 		.4byte	0
 21052 39fe 00000000 		.4byte	0
 21053              	.LLST122:
 21054 3a02 8A000000 		.4byte	.LVL491
ARM GAS  C:\Users\jo\AppData\Local\Temp\ccDsJqTW.s 			page 373


 21055 3a06 90000000 		.4byte	.LVL492
 21056 3a0a 0400     		.2byte	0x4
 21057 3a0c 91       		.byte	0x91
 21058 3a0d EC75     		.sleb128 -1300
 21059 3a0f 9F       		.byte	0x9f
 21060 3a10 22020000 		.4byte	.LVL533
 21061 3a14 30020000 		.4byte	.LVL535
 21062 3a18 0400     		.2byte	0x4
 21063 3a1a 91       		.byte	0x91
 21064 3a1b EC75     		.sleb128 -1300
 21065 3a1d 9F       		.byte	0x9f
 21066 3a1e 30020000 		.4byte	.LVL535
 21067 3a22 33020000 		.4byte	.LVL536-1
 21068 3a26 0100     		.2byte	0x1
 21069 3a28 50       		.byte	0x50
 21070 3a29 33020000 		.4byte	.LVL536-1
 21071 3a2d 36020000 		.4byte	.LVL537
 21072 3a31 0400     		.2byte	0x4
 21073 3a33 91       		.byte	0x91
 21074 3a34 EC75     		.sleb128 -1300
 21075 3a36 9F       		.byte	0x9f
 21076 3a37 00000000 		.4byte	0
 21077 3a3b 00000000 		.4byte	0
 21078              	.LLST123:
 21079 3a3f F2000000 		.4byte	.LVL501
 21080 3a43 F6000000 		.4byte	.LVL502
 21081 3a47 0100     		.2byte	0x1
 21082 3a49 52       		.byte	0x52
 21083 3a4a 7E010000 		.4byte	.LVL515
 21084 3a4e 93010000 		.4byte	.LVL518-1
 21085 3a52 0100     		.2byte	0x1
 21086 3a54 52       		.byte	0x52
 21087 3a55 00000000 		.4byte	0
 21088 3a59 00000000 		.4byte	0
 21089              	.LLST124:
 21090 3a5d F2000000 		.4byte	.LVL501
 21091 3a61 F6000000 		.4byte	.LVL502
 21092 3a65 0C00     		.2byte	0xc
 21093 3a67 75       		.byte	0x75
 21094 3a68 00       		.sleb128 0
 21095 3a69 08       		.byte	0x8
 21096 3a6a 99       		.byte	0x99
 21097 3a6b 1E       		.byte	0x1e
 21098 3a6c 03       		.byte	0x3
 21099 3a6d 00000000 		.4byte	sha256_hmac_test_buf
 21100 3a71 22       		.byte	0x22
 21101 3a72 9F       		.byte	0x9f
 21102 3a73 7E010000 		.4byte	.LVL515
 21103 3a77 82010000 		.4byte	.LVL516
 21104 3a7b 0C00     		.2byte	0xc
 21105 3a7d 75       		.byte	0x75
 21106 3a7e 00       		.sleb128 0
 21107 3a7f 08       		.byte	0x8
 21108 3a80 99       		.byte	0x99
 21109 3a81 1E       		.byte	0x1e
 21110 3a82 03       		.byte	0x3
 21111 3a83 00000000 		.4byte	sha256_hmac_test_buf
ARM GAS  C:\Users\jo\AppData\Local\Temp\ccDsJqTW.s 			page 374


 21112 3a87 22       		.byte	0x22
 21113 3a88 9F       		.byte	0x9f
 21114 3a89 00000000 		.4byte	0
 21115 3a8d 00000000 		.4byte	0
 21116              	.LLST125:
 21117 3a91 F2000000 		.4byte	.LVL501
 21118 3a95 F8000000 		.4byte	.LVL503
 21119 3a99 0400     		.2byte	0x4
 21120 3a9b 91       		.byte	0x91
 21121 3a9c EC75     		.sleb128 -1300
 21122 3a9e 9F       		.byte	0x9f
 21123 3a9f F8000000 		.4byte	.LVL503
 21124 3aa3 FD000000 		.4byte	.LVL504-1
 21125 3aa7 0100     		.2byte	0x1
 21126 3aa9 50       		.byte	0x50
 21127 3aaa FD000000 		.4byte	.LVL504-1
 21128 3aae 2A010000 		.4byte	.LVL507
 21129 3ab2 0400     		.2byte	0x4
 21130 3ab4 91       		.byte	0x91
 21131 3ab5 EC75     		.sleb128 -1300
 21132 3ab7 9F       		.byte	0x9f
 21133 3ab8 7E010000 		.4byte	.LVL515
 21134 3abc 90010000 		.4byte	.LVL517
 21135 3ac0 0400     		.2byte	0x4
 21136 3ac2 91       		.byte	0x91
 21137 3ac3 EC75     		.sleb128 -1300
 21138 3ac5 9F       		.byte	0x9f
 21139 3ac6 90010000 		.4byte	.LVL517
 21140 3aca 93010000 		.4byte	.LVL518-1
 21141 3ace 0100     		.2byte	0x1
 21142 3ad0 50       		.byte	0x50
 21143 3ad1 93010000 		.4byte	.LVL518-1
 21144 3ad5 96010000 		.4byte	.LVL519
 21145 3ad9 0400     		.2byte	0x4
 21146 3adb 91       		.byte	0x91
 21147 3adc EC75     		.sleb128 -1300
 21148 3ade 9F       		.byte	0x9f
 21149 3adf EC010000 		.4byte	.LVL526
 21150 3ae3 06020000 		.4byte	.LVL529
 21151 3ae7 0400     		.2byte	0x4
 21152 3ae9 91       		.byte	0x91
 21153 3aea EC75     		.sleb128 -1300
 21154 3aec 9F       		.byte	0x9f
 21155 3aed 60020000 		.4byte	.LVL547
 21156 3af1 DC020000 		.4byte	.LFE14
 21157 3af5 0400     		.2byte	0x4
 21158 3af7 91       		.byte	0x91
 21159 3af8 EC75     		.sleb128 -1300
 21160 3afa 9F       		.byte	0x9f
 21161 3afb 00000000 		.4byte	0
 21162 3aff 00000000 		.4byte	0
 21163              	.LLST129:
 21164 3b03 D8010000 		.4byte	.LVL522
 21165 3b07 EC010000 		.4byte	.LVL526
 21166 3b0b 0400     		.2byte	0x4
 21167 3b0d 0A       		.byte	0xa
 21168 3b0e E803     		.2byte	0x3e8
ARM GAS  C:\Users\jo\AppData\Local\Temp\ccDsJqTW.s 			page 375


 21169 3b10 9F       		.byte	0x9f
 21170 3b11 00000000 		.4byte	0
 21171 3b15 00000000 		.4byte	0
 21172              	.LLST130:
 21173 3b19 D8010000 		.4byte	.LVL522
 21174 3b1d EC010000 		.4byte	.LVL526
 21175 3b21 0100     		.2byte	0x1
 21176 3b23 54       		.byte	0x54
 21177 3b24 00000000 		.4byte	0
 21178 3b28 00000000 		.4byte	0
 21179              	.LLST131:
 21180 3b2c D8010000 		.4byte	.LVL522
 21181 3b30 DA010000 		.4byte	.LVL523
 21182 3b34 0400     		.2byte	0x4
 21183 3b36 91       		.byte	0x91
 21184 3b37 EC75     		.sleb128 -1300
 21185 3b39 9F       		.byte	0x9f
 21186 3b3a DA010000 		.4byte	.LVL523
 21187 3b3e E3010000 		.4byte	.LVL524-1
 21188 3b42 0100     		.2byte	0x1
 21189 3b44 50       		.byte	0x50
 21190 3b45 E3010000 		.4byte	.LVL524-1
 21191 3b49 EC010000 		.4byte	.LVL526
 21192 3b4d 0400     		.2byte	0x4
 21193 3b4f 91       		.byte	0x91
 21194 3b50 EC75     		.sleb128 -1300
 21195 3b52 9F       		.byte	0x9f
 21196 3b53 00000000 		.4byte	0
 21197 3b57 00000000 		.4byte	0
 21198              	.LLST132:
 21199 3b5b 3A020000 		.4byte	.LVL538
 21200 3b5f 3C020000 		.4byte	.LVL539
 21201 3b63 0400     		.2byte	0x4
 21202 3b65 91       		.byte	0x91
 21203 3b66 EC75     		.sleb128 -1300
 21204 3b68 9F       		.byte	0x9f
 21205 3b69 3C020000 		.4byte	.LVL539
 21206 3b6d 3E020000 		.4byte	.LVL540
 21207 3b71 0100     		.2byte	0x1
 21208 3b73 53       		.byte	0x53
 21209 3b74 3E020000 		.4byte	.LVL540
 21210 3b78 4E020000 		.4byte	.LVL543
 21211 3b7c 0400     		.2byte	0x4
 21212 3b7e 91       		.byte	0x91
 21213 3b7f EC75     		.sleb128 -1300
 21214 3b81 9F       		.byte	0x9f
 21215 3b82 00000000 		.4byte	0
 21216 3b86 00000000 		.4byte	0
 21217              	.LLST133:
 21218 3b8a 3A020000 		.4byte	.LVL538
 21219 3b8e 3E020000 		.4byte	.LVL540
 21220 3b92 0300     		.2byte	0x3
 21221 3b94 08       		.byte	0x8
 21222 3b95 EB       		.byte	0xeb
 21223 3b96 9F       		.byte	0x9f
 21224 3b97 3E020000 		.4byte	.LVL540
 21225 3b9b 40020000 		.4byte	.LVL541
ARM GAS  C:\Users\jo\AppData\Local\Temp\ccDsJqTW.s 			page 376


 21226 3b9f 0A00     		.2byte	0xa
 21227 3ba1 91       		.byte	0x91
 21228 3ba2 00       		.sleb128 0
 21229 3ba3 73       		.byte	0x73
 21230 3ba4 00       		.sleb128 0
 21231 3ba5 1C       		.byte	0x1c
 21232 3ba6 0A       		.byte	0xa
 21233 3ba7 2904     		.2byte	0x429
 21234 3ba9 1C       		.byte	0x1c
 21235 3baa 9F       		.byte	0x9f
 21236 3bab 40020000 		.4byte	.LVL541
 21237 3baf 42020000 		.4byte	.LVL542
 21238 3bb3 0A00     		.2byte	0xa
 21239 3bb5 91       		.byte	0x91
 21240 3bb6 00       		.sleb128 0
 21241 3bb7 73       		.byte	0x73
 21242 3bb8 00       		.sleb128 0
 21243 3bb9 1C       		.byte	0x1c
 21244 3bba 0A       		.byte	0xa
 21245 3bbb 2A04     		.2byte	0x42a
 21246 3bbd 1C       		.byte	0x1c
 21247 3bbe 9F       		.byte	0x9f
 21248 3bbf 42020000 		.4byte	.LVL542
 21249 3bc3 4E020000 		.4byte	.LVL543
 21250 3bc7 0A00     		.2byte	0xa
 21251 3bc9 91       		.byte	0x91
 21252 3bca 00       		.sleb128 0
 21253 3bcb 73       		.byte	0x73
 21254 3bcc 00       		.sleb128 0
 21255 3bcd 1C       		.byte	0x1c
 21256 3bce 0A       		.byte	0xa
 21257 3bcf 2904     		.2byte	0x429
 21258 3bd1 1C       		.byte	0x1c
 21259 3bd2 9F       		.byte	0x9f
 21260 3bd3 00000000 		.4byte	0
 21261 3bd7 00000000 		.4byte	0
 21262              	.LLST134:
 21263 3bdb 3A020000 		.4byte	.LVL538
 21264 3bdf 3C020000 		.4byte	.LVL539
 21265 3be3 0400     		.2byte	0x4
 21266 3be5 91       		.byte	0x91
 21267 3be6 EC75     		.sleb128 -1300
 21268 3be8 9F       		.byte	0x9f
 21269 3be9 3C020000 		.4byte	.LVL539
 21270 3bed 3E020000 		.4byte	.LVL540
 21271 3bf1 0100     		.2byte	0x1
 21272 3bf3 53       		.byte	0x53
 21273 3bf4 3E020000 		.4byte	.LVL540
 21274 3bf8 42020000 		.4byte	.LVL542
 21275 3bfc 0300     		.2byte	0x3
 21276 3bfe 73       		.byte	0x73
 21277 3bff 01       		.sleb128 1
 21278 3c00 9F       		.byte	0x9f
 21279 3c01 42020000 		.4byte	.LVL542
 21280 3c05 4E020000 		.4byte	.LVL543
 21281 3c09 0100     		.2byte	0x1
 21282 3c0b 53       		.byte	0x53
ARM GAS  C:\Users\jo\AppData\Local\Temp\ccDsJqTW.s 			page 377


 21283 3c0c 00000000 		.4byte	0
 21284 3c10 00000000 		.4byte	0
 21285              		.section	.debug_aranges,"",%progbits
 21286 0000 8C000000 		.4byte	0x8c
 21287 0004 0200     		.2byte	0x2
 21288 0006 00000000 		.4byte	.Ldebug_info0
 21289 000a 04       		.byte	0x4
 21290 000b 00       		.byte	0
 21291 000c 0000     		.2byte	0
 21292 000e 0000     		.2byte	0
 21293 0010 00000000 		.4byte	.LFB1
 21294 0014 08000000 		.4byte	.LFE1-.LFB1
 21295 0018 00000000 		.4byte	.LFB2
 21296 001c 12000000 		.4byte	.LFE2-.LFB2
 21297 0020 00000000 		.4byte	.LFB3
 21298 0024 90000000 		.4byte	.LFE3-.LFB3
 21299 0028 00000000 		.4byte	.LFB4
 21300 002c E01E0000 		.4byte	.LFE4-.LFB4
 21301 0030 00000000 		.4byte	.LFB15
 21302 0034 92000000 		.4byte	.LFE15-.LFB15
 21303 0038 00000000 		.4byte	.LFB5
 21304 003c 08000000 		.4byte	.LFE5-.LFB5
 21305 0040 00000000 		.4byte	.LFB6
 21306 0044 10010000 		.4byte	.LFE6-.LFB6
 21307 0048 00000000 		.4byte	.LFB7
 21308 004c D0000000 		.4byte	.LFE7-.LFB7
 21309 0050 00000000 		.4byte	.LFB8
 21310 0054 0C010000 		.4byte	.LFE8-.LFB8
 21311 0058 00000000 		.4byte	.LFB9
 21312 005c 48010000 		.4byte	.LFE9-.LFB9
 21313 0060 00000000 		.4byte	.LFB10
 21314 0064 08000000 		.4byte	.LFE10-.LFB10
 21315 0068 00000000 		.4byte	.LFB11
 21316 006c 04010000 		.4byte	.LFE11-.LFB11
 21317 0070 00000000 		.4byte	.LFB12
 21318 0074 A0000000 		.4byte	.LFE12-.LFB12
 21319 0078 00000000 		.4byte	.LFB13
 21320 007c 4A000000 		.4byte	.LFE13-.LFB13
 21321 0080 00000000 		.4byte	.LFB14
 21322 0084 DC020000 		.4byte	.LFE14-.LFB14
 21323 0088 00000000 		.4byte	0
 21324 008c 00000000 		.4byte	0
 21325              		.section	.debug_ranges,"",%progbits
 21326              	.Ldebug_ranges0:
 21327 0000 42000000 		.4byte	.LBB76
 21328 0004 44000000 		.4byte	.LBE76
 21329 0008 48000000 		.4byte	.LBB80
 21330 000c 4A000000 		.4byte	.LBE80
 21331 0010 5E000000 		.4byte	.LBB81
 21332 0014 62000000 		.4byte	.LBE81
 21333 0018 00000000 		.4byte	0
 21334 001c 00000000 		.4byte	0
 21335 0020 18000000 		.4byte	.LBB86
 21336 0024 4C000000 		.4byte	.LBE86
 21337 0028 6A000000 		.4byte	.LBB95
 21338 002c 84000000 		.4byte	.LBE95
 21339 0030 00000000 		.4byte	0
ARM GAS  C:\Users\jo\AppData\Local\Temp\ccDsJqTW.s 			page 378


 21340 0034 00000000 		.4byte	0
 21341 0038 4C000000 		.4byte	.LBB89
 21342 003c 4E000000 		.4byte	.LBE89
 21343 0040 84000000 		.4byte	.LBB96
 21344 0044 D0000000 		.4byte	.LBE96
 21345 0048 00000000 		.4byte	0
 21346 004c 00000000 		.4byte	0
 21347 0050 22000000 		.4byte	.LBB99
 21348 0054 54000000 		.4byte	.LBE99
 21349 0058 72000000 		.4byte	.LBB108
 21350 005c 8A000000 		.4byte	.LBE108
 21351 0060 00000000 		.4byte	0
 21352 0064 00000000 		.4byte	0
 21353 0068 62000000 		.4byte	.LBB102
 21354 006c 64000000 		.4byte	.LBE102
 21355 0070 66000000 		.4byte	.LBB106
 21356 0074 68000000 		.4byte	.LBE106
 21357 0078 6A000000 		.4byte	.LBB107
 21358 007c 72000000 		.4byte	.LBE107
 21359 0080 00000000 		.4byte	0
 21360 0084 00000000 		.4byte	0
 21361 0088 62000000 		.4byte	.LBB112
 21362 008c 9A000000 		.4byte	.LBE112
 21363 0090 B6000000 		.4byte	.LBB119
 21364 0094 CE000000 		.4byte	.LBE119
 21365 0098 00000000 		.4byte	0
 21366 009c 00000000 		.4byte	0
 21367 00a0 18000000 		.4byte	.LBB122
 21368 00a4 30000000 		.4byte	.LBE122
 21369 00a8 32000000 		.4byte	.LBB128
 21370 00ac 4C000000 		.4byte	.LBE128
 21371 00b0 54000000 		.4byte	.LBB132
 21372 00b4 58000000 		.4byte	.LBE132
 21373 00b8 88000000 		.4byte	.LBB138
 21374 00bc A4000000 		.4byte	.LBE138
 21375 00c0 A6000000 		.4byte	.LBB139
 21376 00c4 04010000 		.4byte	.LBE139
 21377 00c8 00000000 		.4byte	0
 21378 00cc 00000000 		.4byte	0
 21379 00d0 4C000000 		.4byte	.LBB129
 21380 00d4 54000000 		.4byte	.LBE129
 21381 00d8 58000000 		.4byte	.LBB133
 21382 00dc 5C000000 		.4byte	.LBE133
 21383 00e0 00000000 		.4byte	0
 21384 00e4 00000000 		.4byte	0
 21385 00e8 04000000 		.4byte	.LBB140
 21386 00ec 06000000 		.4byte	.LBE140
 21387 00f0 08000000 		.4byte	.LBB144
 21388 00f4 3A000000 		.4byte	.LBE144
 21389 00f8 48000000 		.4byte	.LBB149
 21390 00fc A0000000 		.4byte	.LBE149
 21391 0100 00000000 		.4byte	0
 21392 0104 00000000 		.4byte	0
 21393 0108 3A000000 		.4byte	.LBB145
 21394 010c 40000000 		.4byte	.LBE145
 21395 0110 44000000 		.4byte	.LBB148
 21396 0114 48000000 		.4byte	.LBE148
ARM GAS  C:\Users\jo\AppData\Local\Temp\ccDsJqTW.s 			page 379


 21397 0118 00000000 		.4byte	0
 21398 011c 00000000 		.4byte	0
 21399 0120 0A000000 		.4byte	.LBB150
 21400 0124 10000000 		.4byte	.LBE150
 21401 0128 12000000 		.4byte	.LBB153
 21402 012c 16000000 		.4byte	.LBE153
 21403 0130 00000000 		.4byte	0
 21404 0134 00000000 		.4byte	0
 21405 0138 22000000 		.4byte	.LBB154
 21406 013c 24000000 		.4byte	.LBE154
 21407 0140 3E000000 		.4byte	.LBB162
 21408 0144 4A000000 		.4byte	.LBE162
 21409 0148 00000000 		.4byte	0
 21410 014c 00000000 		.4byte	0
 21411 0150 1A000000 		.4byte	.LBB165
 21412 0154 1E000000 		.4byte	.LBE165
 21413 0158 44000000 		.4byte	.LBB171
 21414 015c 72000000 		.4byte	.LBE171
 21415 0160 76000000 		.4byte	.LBB172
 21416 0164 80000000 		.4byte	.LBE172
 21417 0168 96010000 		.4byte	.LBB185
 21418 016c B2010000 		.4byte	.LBE185
 21419 0170 B6010000 		.4byte	.LBB186
 21420 0174 C4010000 		.4byte	.LBE186
 21421 0178 00000000 		.4byte	0
 21422 017c 00000000 		.4byte	0
 21423 0180 8A000000 		.4byte	.LBB173
 21424 0184 90000000 		.4byte	.LBE173
 21425 0188 2C020000 		.4byte	.LBB189
 21426 018c 36020000 		.4byte	.LBE189
 21427 0190 00000000 		.4byte	0
 21428 0194 00000000 		.4byte	0
 21429 0198 F2000000 		.4byte	.LBB176
 21430 019c F6000000 		.4byte	.LBE176
 21431 01a0 7E010000 		.4byte	.LBB183
 21432 01a4 82010000 		.4byte	.LBE183
 21433 01a8 8C010000 		.4byte	.LBB184
 21434 01ac 96010000 		.4byte	.LBE184
 21435 01b0 00000000 		.4byte	0
 21436 01b4 00000000 		.4byte	0
 21437 01b8 00000000 		.4byte	.LFB1
 21438 01bc 08000000 		.4byte	.LFE1
 21439 01c0 00000000 		.4byte	.LFB2
 21440 01c4 12000000 		.4byte	.LFE2
 21441 01c8 00000000 		.4byte	.LFB3
 21442 01cc 90000000 		.4byte	.LFE3
 21443 01d0 00000000 		.4byte	.LFB4
 21444 01d4 E01E0000 		.4byte	.LFE4
 21445 01d8 00000000 		.4byte	.LFB15
 21446 01dc 92000000 		.4byte	.LFE15
 21447 01e0 00000000 		.4byte	.LFB5
 21448 01e4 08000000 		.4byte	.LFE5
 21449 01e8 00000000 		.4byte	.LFB6
 21450 01ec 10010000 		.4byte	.LFE6
 21451 01f0 00000000 		.4byte	.LFB7
 21452 01f4 D0000000 		.4byte	.LFE7
 21453 01f8 00000000 		.4byte	.LFB8
ARM GAS  C:\Users\jo\AppData\Local\Temp\ccDsJqTW.s 			page 380


 21454 01fc 0C010000 		.4byte	.LFE8
 21455 0200 00000000 		.4byte	.LFB9
 21456 0204 48010000 		.4byte	.LFE9
 21457 0208 00000000 		.4byte	.LFB10
 21458 020c 08000000 		.4byte	.LFE10
 21459 0210 00000000 		.4byte	.LFB11
 21460 0214 04010000 		.4byte	.LFE11
 21461 0218 00000000 		.4byte	.LFB12
 21462 021c A0000000 		.4byte	.LFE12
 21463 0220 00000000 		.4byte	.LFB13
 21464 0224 4A000000 		.4byte	.LFE13
 21465 0228 00000000 		.4byte	.LFB14
 21466 022c DC020000 		.4byte	.LFE14
 21467 0230 00000000 		.4byte	0
 21468 0234 00000000 		.4byte	0
 21469              		.section	.debug_line,"",%progbits
 21470              	.Ldebug_line0:
 21471 0000 3F0B0000 		.section	.debug_str,"MS",%progbits,1
 21471      02003702 
 21471      00000201 
 21471      FB0E0D00 
 21471      01010101 
 21472              	.LASF48:
 21473 0000 5F64736F 		.ascii	"_dso_handle\000"
 21473      5F68616E 
 21473      646C6500 
 21474              	.LASF152:
 21475 000c 686C656E 		.ascii	"hlen\000"
 21475      00
 21476              	.LASF162:
 21477 0011 73686132 		.ascii	"sha256_test_buf\000"
 21477      35365F74 
 21477      6573745F 
 21477      62756600 
 21478              	.LASF134:
 21479 0021 73686132 		.ascii	"sha256_starts\000"
 21479      35365F73 
 21479      74617274 
 21479      7300
 21480              	.LASF56:
 21481 002f 5F73697A 		.ascii	"_size\000"
 21481      6500
 21482              	.LASF171:
 21483 0035 6D656D63 		.ascii	"memcpy\000"
 21483      707900
 21484              	.LASF157:
 21485 003c 73686132 		.ascii	"sha256_self_test\000"
 21485      35365F73 
 21485      656C665F 
 21485      74657374 
 21485      00
 21486              	.LASF7:
 21487 004d 73697A65 		.ascii	"size_t\000"
 21487      5F7400
 21488              	.LASF101:
 21489 0054 5F72616E 		.ascii	"_rand48\000"
 21489      64343800 
ARM GAS  C:\Users\jo\AppData\Local\Temp\ccDsJqTW.s 			page 381


 21490              	.LASF80:
 21491 005c 5F656D65 		.ascii	"_emergency\000"
 21491      7267656E 
 21491      637900
 21492              	.LASF70:
 21493 0067 5F646174 		.ascii	"_data\000"
 21493      6100
 21494              	.LASF148:
 21495 006d 70617468 		.ascii	"path\000"
 21495      00
 21496              	.LASF121:
 21497 0072 5F776372 		.ascii	"_wcrtomb_state\000"
 21497      746F6D62 
 21497      5F737461 
 21497      746500
 21498              	.LASF160:
 21499 0081 73686132 		.ascii	"sha256sum\000"
 21499      35367375 
 21499      6D00
 21500              	.LASF122:
 21501 008b 5F776373 		.ascii	"_wcsrtombs_state\000"
 21501      72746F6D 
 21501      62735F73 
 21501      74617465 
 21501      00
 21502              	.LASF176:
 21503 009c 7072696E 		.ascii	"printf\000"
 21503      746600
 21504              	.LASF0:
 21505 00a3 6C6F6E67 		.ascii	"long long unsigned int\000"
 21505      206C6F6E 
 21505      6720756E 
 21505      7369676E 
 21505      65642069 
 21506              	.LASF60:
 21507 00ba 5F6C6266 		.ascii	"_lbfsize\000"
 21507      73697A65 
 21507      00
 21508              	.LASF136:
 21509 00c3 73686132 		.ascii	"sha256_hmac_update\000"
 21509      35365F68 
 21509      6D61635F 
 21509      75706461 
 21509      746500
 21510              	.LASF119:
 21511 00d6 5F6D6272 		.ascii	"_mbrtowc_state\000"
 21511      746F7763 
 21511      5F737461 
 21511      746500
 21512              	.LASF114:
 21513 00e5 5F776374 		.ascii	"_wctomb_state\000"
 21513      6F6D625F 
 21513      73746174 
 21513      6500
 21514              	.LASF180:
 21515 00f3 433A5C55 		.ascii	"C:\\Users\\jo\\Documents\\GitHub\\ChibiOS\\demos\\S"
 21515      73657273 
ARM GAS  C:\Users\jo\AppData\Local\Temp\ccDsJqTW.s 			page 382


 21515      5C6A6F5C 
 21515      446F6375 
 21515      6D656E74 
 21516 011f 544D3332 		.ascii	"TM32\\RT-STM32F407-DISCOVERY-uHttp\000"
 21516      5C52542D 
 21516      53544D33 
 21516      32463430 
 21516      372D4449 
 21517              	.LASF10:
 21518 0141 6C6F6E67 		.ascii	"long long int\000"
 21518      206C6F6E 
 21518      6720696E 
 21518      7400
 21519              	.LASF2:
 21520 014f 7369676E 		.ascii	"signed char\000"
 21520      65642063 
 21520      68617200 
 21521              	.LASF132:
 21522 015b 73686132 		.ascii	"sha256_update\000"
 21522      35365F75 
 21522      70646174 
 21522      6500
 21523              	.LASF66:
 21524 0169 5F756275 		.ascii	"_ubuf\000"
 21524      6600
 21525              	.LASF55:
 21526 016f 5F626173 		.ascii	"_base\000"
 21526      6500
 21527              	.LASF39:
 21528 0175 5F5F746D 		.ascii	"__tm_hour\000"
 21528      5F686F75 
 21528      7200
 21529              	.LASF95:
 21530 017f 5F5F7366 		.ascii	"__sf\000"
 21530      00
 21531              	.LASF46:
 21532 0184 5F6F6E5F 		.ascii	"_on_exit_args\000"
 21532      65786974 
 21532      5F617267 
 21532      7300
 21533              	.LASF153:
 21534 0192 746D7062 		.ascii	"tmpbuf\000"
 21534      756600
 21535              	.LASF61:
 21536 0199 5F636F6F 		.ascii	"_cookie\000"
 21536      6B696500 
 21537              	.LASF94:
 21538 01a1 5F5F7367 		.ascii	"__sglue\000"
 21538      6C756500 
 21539              	.LASF13:
 21540 01a9 73746174 		.ascii	"state\000"
 21540      6500
 21541              	.LASF6:
 21542 01af 6C6F6E67 		.ascii	"long int\000"
 21542      20696E74 
 21542      00
 21543              	.LASF58:
ARM GAS  C:\Users\jo\AppData\Local\Temp\ccDsJqTW.s 			page 383


 21544 01b8 5F666C61 		.ascii	"_flags\000"
 21544      677300
 21545              	.LASF50:
 21546 01bf 5F69735F 		.ascii	"_is_cxa\000"
 21546      63786100 
 21547              	.LASF76:
 21548 01c7 5F737464 		.ascii	"_stdin\000"
 21548      696E00
 21549              	.LASF183:
 21550 01ce 5F5F6275 		.ascii	"__builtin_puts\000"
 21550      696C7469 
 21550      6E5F7075 
 21550      747300
 21551              	.LASF68:
 21552 01dd 5F626C6B 		.ascii	"_blksize\000"
 21552      73697A65 
 21552      00
 21553              	.LASF185:
 21554 01e6 70757463 		.ascii	"putchar\000"
 21554      68617200 
 21555              	.LASF90:
 21556 01ee 5F637674 		.ascii	"_cvtbuf\000"
 21556      62756600 
 21557              	.LASF69:
 21558 01f6 5F6F6666 		.ascii	"_offset\000"
 21558      73657400 
 21559              	.LASF120:
 21560 01fe 5F6D6273 		.ascii	"_mbsrtowcs_state\000"
 21560      72746F77 
 21560      63735F73 
 21560      74617465 
 21560      00
 21561              	.LASF118:
 21562 020f 5F6D6272 		.ascii	"_mbrlen_state\000"
 21562      6C656E5F 
 21562      73746174 
 21562      6500
 21563              	.LASF47:
 21564 021d 5F666E61 		.ascii	"_fnargs\000"
 21564      72677300 
 21565              	.LASF151:
 21566 0225 73686132 		.ascii	"sha256_hmac_finish\000"
 21566      35365F68 
 21566      6D61635F 
 21566      66696E69 
 21566      736800
 21567              	.LASF159:
 21568 0238 6275666C 		.ascii	"buflen\000"
 21568      656E00
 21569              	.LASF53:
 21570 023f 5F666E73 		.ascii	"_fns\000"
 21570      00
 21571              	.LASF8:
 21572 0244 5F5F7569 		.ascii	"__uint32_t\000"
 21572      6E743332 
 21572      5F7400
 21573              	.LASF33:
ARM GAS  C:\Users\jo\AppData\Local\Temp\ccDsJqTW.s 			page 384


 21574 024f 5F736967 		.ascii	"_sign\000"
 21574      6E00
 21575              	.LASF164:
 21576 0255 73686132 		.ascii	"sha256_test_sum\000"
 21576      35365F74 
 21576      6573745F 
 21576      73756D00 
 21577              	.LASF29:
 21578 0265 5F666C6F 		.ascii	"_flock_t\000"
 21578      636B5F74 
 21578      00
 21579              	.LASF78:
 21580 026e 5F737464 		.ascii	"_stderr\000"
 21580      65727200 
 21581              	.LASF35:
 21582 0276 5F426967 		.ascii	"_Bigint\000"
 21582      696E7400 
 21583              	.LASF109:
 21584 027e 5F67616D 		.ascii	"_gamma_signgam\000"
 21584      6D615F73 
 21584      69676E67 
 21584      616D00
 21585              	.LASF181:
 21586 028d 706F6C61 		.ascii	"polarssl_zeroize\000"
 21586      7273736C 
 21586      5F7A6572 
 21586      6F697A65 
 21586      00
 21587              	.LASF62:
 21588 029e 5F726561 		.ascii	"_read\000"
 21588      6400
 21589              	.LASF86:
 21590 02a4 5F726573 		.ascii	"_result_k\000"
 21590      756C745F 
 21590      6B00
 21591              	.LASF36:
 21592 02ae 5F5F746D 		.ascii	"__tm\000"
 21592      00
 21593              	.LASF1:
 21594 02b3 756E7369 		.ascii	"unsigned int\000"
 21594      676E6564 
 21594      20696E74 
 21594      00
 21595              	.LASF25:
 21596 02c0 5F5F7763 		.ascii	"__wchb\000"
 21596      686200
 21597              	.LASF77:
 21598 02c7 5F737464 		.ascii	"_stdout\000"
 21598      6F757400 
 21599              	.LASF89:
 21600 02cf 5F637674 		.ascii	"_cvtlen\000"
 21600      6C656E00 
 21601              	.LASF141:
 21602 02d7 73686132 		.ascii	"sha256_finish\000"
 21602      35365F66 
 21602      696E6973 
 21602      6800
ARM GAS  C:\Users\jo\AppData\Local\Temp\ccDsJqTW.s 			page 385


 21603              	.LASF9:
 21604 02e5 6C6F6E67 		.ascii	"long unsigned int\000"
 21604      20756E73 
 21604      69676E65 
 21604      6420696E 
 21604      7400
 21605              	.LASF59:
 21606 02f7 5F66696C 		.ascii	"_file\000"
 21606      6500
 21607              	.LASF177:
 21608 02fd 5F5F6275 		.ascii	"__builtin_putchar\000"
 21608      696C7469 
 21608      6E5F7075 
 21608      74636861 
 21608      7200
 21609              	.LASF99:
 21610 030f 5F6E696F 		.ascii	"_niobs\000"
 21610      627300
 21611              	.LASF137:
 21612 0316 64617461 		.ascii	"data\000"
 21612      00
 21613              	.LASF5:
 21614 031b 73686F72 		.ascii	"short unsigned int\000"
 21614      7420756E 
 21614      7369676E 
 21614      65642069 
 21614      6E7400
 21615              	.LASF174:
 21616 032e 66636C6F 		.ascii	"fclose\000"
 21616      736500
 21617              	.LASF92:
 21618 0335 5F617465 		.ascii	"_atexit0\000"
 21618      78697430 
 21618      00
 21619              	.LASF116:
 21620 033e 5F736967 		.ascii	"_signal_buf\000"
 21620      6E616C5F 
 21620      62756600 
 21621              	.LASF107:
 21622 034a 5F617363 		.ascii	"_asctime_buf\000"
 21622      74696D65 
 21622      5F627566 
 21622      00
 21623              	.LASF143:
 21624 0357 6C617374 		.ascii	"last\000"
 21624      00
 21625              	.LASF161:
 21626 035c 73686132 		.ascii	"sha256_padding\000"
 21626      35365F70 
 21626      61646469 
 21626      6E6700
 21627              	.LASF85:
 21628 036b 5F726573 		.ascii	"_result\000"
 21628      756C7400 
 21629              	.LASF24:
 21630 0373 5F5F7763 		.ascii	"__wch\000"
 21630      6800
ARM GAS  C:\Users\jo\AppData\Local\Temp\ccDsJqTW.s 			page 386


 21631              	.LASF16:
 21632 0379 6F706164 		.ascii	"opad\000"
 21632      00
 21633              	.LASF17:
 21634 037e 69733232 		.ascii	"is224\000"
 21634      3400
 21635              	.LASF23:
 21636 0384 77696E74 		.ascii	"wint_t\000"
 21636      5F7400
 21637              	.LASF147:
 21638 038b 73686132 		.ascii	"sha256\000"
 21638      353600
 21639              	.LASF71:
 21640 0392 5F6C6F63 		.ascii	"_lock\000"
 21640      6B00
 21641              	.LASF73:
 21642 0398 5F666C61 		.ascii	"_flags2\000"
 21642      67733200 
 21643              	.LASF12:
 21644 03a0 746F7461 		.ascii	"total\000"
 21644      6C00
 21645              	.LASF178:
 21646 03a6 474E5520 		.ascii	"GNU C 4.9.3 20141119 (release) [ARM/embedded-4_9-br"
 21646      4320342E 
 21646      392E3320 
 21646      32303134 
 21646      31313139 
 21647 03d9 616E6368 		.ascii	"anch revision 218278] -mcpu=cortex-m4 -mno-thumb-in"
 21647      20726576 
 21647      6973696F 
 21647      6E203231 
 21647      38323738 
 21648 040c 74657277 		.ascii	"terwork -mthumb -ggdb -O2 -fomit-frame-pointer -fal"
 21648      6F726B20 
 21648      2D6D7468 
 21648      756D6220 
 21648      2D676764 
 21649 043f 69676E2D 		.ascii	"ign-functions=16 -ffunction-sections -fdata-section"
 21649      66756E63 
 21649      74696F6E 
 21649      733D3136 
 21649      202D6666 
 21650 0472 73202D66 		.ascii	"s -fno-common\000"
 21650      6E6F2D63 
 21650      6F6D6D6F 
 21650      6E00
 21651              	.LASF63:
 21652 0480 5F777269 		.ascii	"_write\000"
 21652      746500
 21653              	.LASF42:
 21654 0487 5F5F746D 		.ascii	"__tm_year\000"
 21654      5F796561 
 21654      7200
 21655              	.LASF19:
 21656 0491 73686132 		.ascii	"sha256_context\000"
 21656      35365F63 
 21656      6F6E7465 
ARM GAS  C:\Users\jo\AppData\Local\Temp\ccDsJqTW.s 			page 387


 21656      787400
 21657              	.LASF142:
 21658 04a0 6F757470 		.ascii	"output\000"
 21658      757400
 21659              	.LASF167:
 21660 04a7 73686132 		.ascii	"sha256_hmac_test_buf\000"
 21660      35365F68 
 21660      6D61635F 
 21660      74657374 
 21660      5F627566 
 21661              	.LASF165:
 21662 04bc 73686132 		.ascii	"sha256_hmac_test_key\000"
 21662      35365F68 
 21662      6D61635F 
 21662      74657374 
 21662      5F6B6579 
 21663              	.LASF18:
 21664 04d1 73697A65 		.ascii	"sizetype\000"
 21664      74797065 
 21664      00
 21665              	.LASF166:
 21666 04da 73686132 		.ascii	"sha256_hmac_test_keylen\000"
 21666      35365F68 
 21666      6D61635F 
 21666      74657374 
 21666      5F6B6579 
 21667              	.LASF145:
 21668 04f2 68696768 		.ascii	"high\000"
 21668      00
 21669              	.LASF124:
 21670 04f7 5F6E6578 		.ascii	"_nextf\000"
 21670      746600
 21671              	.LASF144:
 21672 04fe 7061646E 		.ascii	"padn\000"
 21672      00
 21673              	.LASF41:
 21674 0503 5F5F746D 		.ascii	"__tm_mon\000"
 21674      5F6D6F6E 
 21674      00
 21675              	.LASF51:
 21676 050c 5F617465 		.ascii	"_atexit\000"
 21676      78697400 
 21677              	.LASF168:
 21678 0514 73686132 		.ascii	"sha256_hmac_test_buflen\000"
 21678      35365F68 
 21678      6D61635F 
 21678      74657374 
 21678      5F627566 
 21679              	.LASF83:
 21680 052c 5F5F7364 		.ascii	"__sdidinit\000"
 21680      6964696E 
 21680      697400
 21681              	.LASF21:
 21682 0537 5F6F6666 		.ascii	"_off_t\000"
 21682      5F7400
 21683              	.LASF149:
 21684 053e 73686132 		.ascii	"sha256_hmac_starts\000"
ARM GAS  C:\Users\jo\AppData\Local\Temp\ccDsJqTW.s 			page 388


 21684      35365F68 
 21684      6D61635F 
 21684      73746172 
 21684      747300
 21685              	.LASF146:
 21686 0551 6D73676C 		.ascii	"msglen\000"
 21686      656E00
 21687              	.LASF172:
 21688 0558 666F7065 		.ascii	"fopen\000"
 21688      6E00
 21689              	.LASF88:
 21690 055e 5F667265 		.ascii	"_freelist\000"
 21690      656C6973 
 21690      7400
 21691              	.LASF20:
 21692 0568 5F4C4F43 		.ascii	"_LOCK_RECURSIVE_T\000"
 21692      4B5F5245 
 21692      43555253 
 21692      4956455F 
 21692      5400
 21693              	.LASF15:
 21694 057a 69706164 		.ascii	"ipad\000"
 21694      00
 21695              	.LASF130:
 21696 057f 66696C6C 		.ascii	"fill\000"
 21696      00
 21697              	.LASF3:
 21698 0584 756E7369 		.ascii	"unsigned char\000"
 21698      676E6564 
 21698      20636861 
 21698      7200
 21699              	.LASF91:
 21700 0592 5F6E6577 		.ascii	"_new\000"
 21700      00
 21701              	.LASF123:
 21702 0597 5F685F65 		.ascii	"_h_errno\000"
 21702      72726E6F 
 21702      00
 21703              	.LASF4:
 21704 05a0 73686F72 		.ascii	"short int\000"
 21704      7420696E 
 21704      7400
 21705              	.LASF44:
 21706 05aa 5F5F746D 		.ascii	"__tm_yday\000"
 21706      5F796461 
 21706      7900
 21707              	.LASF54:
 21708 05b4 5F5F7362 		.ascii	"__sbuf\000"
 21708      756600
 21709              	.LASF139:
 21710 05bb 74656D70 		.ascii	"temp2\000"
 21710      3200
 21711              	.LASF100:
 21712 05c1 5F696F62 		.ascii	"_iobs\000"
 21712      7300
 21713              	.LASF97:
 21714 05c7 5F5F4649 		.ascii	"__FILE\000"
ARM GAS  C:\Users\jo\AppData\Local\Temp\ccDsJqTW.s 			page 389


 21714      4C4500
 21715              	.LASF28:
 21716 05ce 5F6D6273 		.ascii	"_mbstate_t\000"
 21716      74617465 
 21716      5F7400
 21717              	.LASF57:
 21718 05d9 5F5F7346 		.ascii	"__sFILE\000"
 21718      494C4500 
 21719              	.LASF72:
 21720 05e1 5F6D6273 		.ascii	"_mbstate\000"
 21720      74617465 
 21720      00
 21721              	.LASF110:
 21722 05ea 5F72616E 		.ascii	"_rand_next\000"
 21722      645F6E65 
 21722      787400
 21723              	.LASF112:
 21724 05f5 5F6D626C 		.ascii	"_mblen_state\000"
 21724      656E5F73 
 21724      74617465 
 21724      00
 21725              	.LASF79:
 21726 0602 5F696E63 		.ascii	"_inc\000"
 21726      00
 21727              	.LASF52:
 21728 0607 5F696E64 		.ascii	"_ind\000"
 21728      00
 21729              	.LASF82:
 21730 060c 5F637572 		.ascii	"_current_locale\000"
 21730      72656E74 
 21730      5F6C6F63 
 21730      616C6500 
 21731              	.LASF173:
 21732 061c 66726561 		.ascii	"fread\000"
 21732      6400
 21733              	.LASF128:
 21734 0622 696E7075 		.ascii	"input\000"
 21734      7400
 21735              	.LASF84:
 21736 0628 5F5F636C 		.ascii	"__cleanup\000"
 21736      65616E75 
 21736      7000
 21737              	.LASF127:
 21738 0632 46494C45 		.ascii	"FILE\000"
 21738      00
 21739              	.LASF150:
 21740 0637 6B65796C 		.ascii	"keylen\000"
 21740      656E00
 21741              	.LASF32:
 21742 063e 5F6D6178 		.ascii	"_maxwds\000"
 21742      77647300 
 21743              	.LASF74:
 21744 0646 5F726565 		.ascii	"_reent\000"
 21744      6E7400
 21745              	.LASF102:
 21746 064d 5F736565 		.ascii	"_seed\000"
 21746      6400
ARM GAS  C:\Users\jo\AppData\Local\Temp\ccDsJqTW.s 			page 390


 21747              	.LASF26:
 21748 0653 5F5F636F 		.ascii	"__count\000"
 21748      756E7400 
 21749              	.LASF11:
 21750 065b 75696E74 		.ascii	"uint32_t\000"
 21750      33325F74 
 21750      00
 21751              	.LASF64:
 21752 0664 5F736565 		.ascii	"_seek\000"
 21752      6B00
 21753              	.LASF133:
 21754 066a 73686132 		.ascii	"sha256_init\000"
 21754      35365F69 
 21754      6E697400 
 21755              	.LASF22:
 21756 0676 5F66706F 		.ascii	"_fpos_t\000"
 21756      735F7400 
 21757              	.LASF138:
 21758 067e 74656D70 		.ascii	"temp1\000"
 21758      3100
 21759              	.LASF75:
 21760 0684 5F657272 		.ascii	"_errno\000"
 21760      6E6F00
 21761              	.LASF96:
 21762 068b 63686172 		.ascii	"char\000"
 21762      00
 21763              	.LASF38:
 21764 0690 5F5F746D 		.ascii	"__tm_min\000"
 21764      5F6D696E 
 21764      00
 21765              	.LASF158:
 21766 0699 76657262 		.ascii	"verbose\000"
 21766      6F736500 
 21767              	.LASF14:
 21768 06a1 62756666 		.ascii	"buffer\000"
 21768      657200
 21769              	.LASF135:
 21770 06a8 73686132 		.ascii	"sha256_free\000"
 21770      35365F66 
 21770      72656500 
 21771              	.LASF103:
 21772 06b4 5F6D756C 		.ascii	"_mult\000"
 21772      7400
 21773              	.LASF175:
 21774 06ba 6D656D63 		.ascii	"memcmp\000"
 21774      6D7000
 21775              	.LASF31:
 21776 06c1 5F6E6578 		.ascii	"_next\000"
 21776      7400
 21777              	.LASF106:
 21778 06c7 5F737472 		.ascii	"_strtok_last\000"
 21778      746F6B5F 
 21778      6C617374 
 21778      00
 21779              	.LASF27:
 21780 06d4 5F5F7661 		.ascii	"__value\000"
 21780      6C756500 
ARM GAS  C:\Users\jo\AppData\Local\Temp\ccDsJqTW.s 			page 391


 21781              	.LASF49:
 21782 06dc 5F666E74 		.ascii	"_fntypes\000"
 21782      79706573 
 21782      00
 21783              	.LASF104:
 21784 06e5 5F616464 		.ascii	"_add\000"
 21784      00
 21785              	.LASF30:
 21786 06ea 5F5F554C 		.ascii	"__ULong\000"
 21786      6F6E6700 
 21787              	.LASF117:
 21788 06f2 5F676574 		.ascii	"_getdate_err\000"
 21788      64617465 
 21788      5F657272 
 21788      00
 21789              	.LASF81:
 21790 06ff 5F637572 		.ascii	"_current_category\000"
 21790      72656E74 
 21790      5F636174 
 21790      65676F72 
 21790      7900
 21791              	.LASF156:
 21792 0711 73686132 		.ascii	"sha256_file\000"
 21792      35365F66 
 21792      696C6500 
 21793              	.LASF170:
 21794 071d 6D656D73 		.ascii	"memset\000"
 21794      657400
 21795              	.LASF105:
 21796 0724 5F756E75 		.ascii	"_unused_rand\000"
 21796      7365645F 
 21796      72616E64 
 21796      00
 21797              	.LASF182:
 21798 0731 65786974 		.ascii	"exit\000"
 21798      00
 21799              	.LASF163:
 21800 0736 73686132 		.ascii	"sha256_test_buflen\000"
 21800      35365F74 
 21800      6573745F 
 21800      6275666C 
 21800      656E00
 21801              	.LASF37:
 21802 0749 5F5F746D 		.ascii	"__tm_sec\000"
 21802      5F736563 
 21802      00
 21803              	.LASF34:
 21804 0752 5F776473 		.ascii	"_wds\000"
 21804      00
 21805              	.LASF43:
 21806 0757 5F5F746D 		.ascii	"__tm_wday\000"
 21806      5F776461 
 21806      7900
 21807              	.LASF98:
 21808 0761 5F676C75 		.ascii	"_glue\000"
 21808      6500
 21809              	.LASF129:
ARM GAS  C:\Users\jo\AppData\Local\Temp\ccDsJqTW.s 			page 392


 21810 0767 696C656E 		.ascii	"ilen\000"
 21810      00
 21811              	.LASF125:
 21812 076c 5F6E6D61 		.ascii	"_nmalloc\000"
 21812      6C6C6F63 
 21812      00
 21813              	.LASF115:
 21814 0775 5F6C3634 		.ascii	"_l64a_buf\000"
 21814      615F6275 
 21814      6600
 21815              	.LASF93:
 21816 077f 5F736967 		.ascii	"_sig_func\000"
 21816      5F66756E 
 21816      6300
 21817              	.LASF67:
 21818 0789 5F6E6275 		.ascii	"_nbuf\000"
 21818      6600
 21819              	.LASF126:
 21820 078f 5F756E75 		.ascii	"_unused\000"
 21820      73656400 
 21821              	.LASF45:
 21822 0797 5F5F746D 		.ascii	"__tm_isdst\000"
 21822      5F697364 
 21822      737400
 21823              	.LASF108:
 21824 07a2 5F6C6F63 		.ascii	"_localtime_buf\000"
 21824      616C7469 
 21824      6D655F62 
 21824      756600
 21825              	.LASF65:
 21826 07b1 5F636C6F 		.ascii	"_close\000"
 21826      736500
 21827              	.LASF169:
 21828 07b8 73686132 		.ascii	"sha256_hmac_test_sum\000"
 21828      35365F68 
 21828      6D61635F 
 21828      74657374 
 21828      5F73756D 
 21829              	.LASF111:
 21830 07cd 5F723438 		.ascii	"_r48\000"
 21830      00
 21831              	.LASF155:
 21832 07d2 73686132 		.ascii	"sha256_hmac\000"
 21832      35365F68 
 21832      6D616300 
 21833              	.LASF113:
 21834 07de 5F6D6274 		.ascii	"_mbtowc_state\000"
 21834      6F77635F 
 21834      73746174 
 21834      6500
 21835              	.LASF87:
 21836 07ec 5F703573 		.ascii	"_p5s\000"
 21836      00
 21837              	.LASF179:
 21838 07f1 2E2E2F2E 		.ascii	"../../../ext/mbedtls-1.3.11/library/sha256.c\000"
 21838      2E2F2E2E 
 21838      2F657874 
ARM GAS  C:\Users\jo\AppData\Local\Temp\ccDsJqTW.s 			page 393


 21838      2F6D6265 
 21838      64746C73 
 21839              	.LASF184:
 21840 081e 70757473 		.ascii	"puts\000"
 21840      00
 21841              	.LASF131:
 21842 0823 6C656674 		.ascii	"left\000"
 21842      00
 21843              	.LASF154:
 21844 0828 73686132 		.ascii	"sha256_hmac_reset\000"
 21844      35365F68 
 21844      6D61635F 
 21844      72657365 
 21844      7400
 21845              	.LASF140:
 21846 083a 73686132 		.ascii	"sha256_process\000"
 21846      35365F70 
 21846      726F6365 
 21846      737300
 21847              	.LASF40:
 21848 0849 5F5F746D 		.ascii	"__tm_mday\000"
 21848      5F6D6461 
 21848      7900
 21849              		.ident	"GCC: (GNU Tools for ARM Embedded Processors) 4.9.3 20141119 (release) [ARM/embedded-4_9-br
ARM GAS  C:\Users\jo\AppData\Local\Temp\ccDsJqTW.s 			page 394


DEFINED SYMBOLS
                            *ABS*:00000000 sha256.c
C:\Users\jo\AppData\Local\Temp\ccDsJqTW.s:19     .text.sha256_init:00000000 $t
C:\Users\jo\AppData\Local\Temp\ccDsJqTW.s:25     .text.sha256_init:00000000 sha256_init
C:\Users\jo\AppData\Local\Temp\ccDsJqTW.s:43     .text.sha256_free:00000000 $t
C:\Users\jo\AppData\Local\Temp\ccDsJqTW.s:49     .text.sha256_free:00000000 sha256_free
C:\Users\jo\AppData\Local\Temp\ccDsJqTW.s:81     .text.sha256_starts:00000000 $t
C:\Users\jo\AppData\Local\Temp\ccDsJqTW.s:87     .text.sha256_starts:00000000 sha256_starts
C:\Users\jo\AppData\Local\Temp\ccDsJqTW.s:167    .text.sha256_starts:00000050 $d
C:\Users\jo\AppData\Local\Temp\ccDsJqTW.s:187    .text.sha256_process:00000000 $t
C:\Users\jo\AppData\Local\Temp\ccDsJqTW.s:193    .text.sha256_process:00000000 sha256_process
C:\Users\jo\AppData\Local\Temp\ccDsJqTW.s:891    .text.sha256_process:0000056c $d
C:\Users\jo\AppData\Local\Temp\ccDsJqTW.s:903    .text.sha256_process:00000594 $t
C:\Users\jo\AppData\Local\Temp\ccDsJqTW.s:1353   .text.sha256_process:00000948 $d
C:\Users\jo\AppData\Local\Temp\ccDsJqTW.s:1365   .text.sha256_process:00000970 $t
C:\Users\jo\AppData\Local\Temp\ccDsJqTW.s:1855   .text.sha256_process:00000d3c $d
C:\Users\jo\AppData\Local\Temp\ccDsJqTW.s:1864   .text.sha256_process:00000d5c $t
C:\Users\jo\AppData\Local\Temp\ccDsJqTW.s:2454   .text.sha256_process:000011ec $d
C:\Users\jo\AppData\Local\Temp\ccDsJqTW.s:2467   .text.sha256_process:00001214 $t
C:\Users\jo\AppData\Local\Temp\ccDsJqTW.s:2935   .text.sha256_process:00001598 $d
C:\Users\jo\AppData\Local\Temp\ccDsJqTW.s:2944   .text.sha256_process:000015b8 $t
C:\Users\jo\AppData\Local\Temp\ccDsJqTW.s:3439   .text.sha256_process:00001984 $d
C:\Users\jo\AppData\Local\Temp\ccDsJqTW.s:3449   .text.sha256_process:000019a8 $t
C:\Users\jo\AppData\Local\Temp\ccDsJqTW.s:4012   .text.sha256_process:00001dd8 $d
C:\Users\jo\AppData\Local\Temp\ccDsJqTW.s:4021   .text.sha256_process:00001df8 $t
C:\Users\jo\AppData\Local\Temp\ccDsJqTW.s:4163   .text.sha256_update.part.0:00000000 $t
C:\Users\jo\AppData\Local\Temp\ccDsJqTW.s:4168   .text.sha256_update.part.0:00000000 sha256_update.part.0
C:\Users\jo\AppData\Local\Temp\ccDsJqTW.s:4307   .text.sha256_update:00000000 $t
C:\Users\jo\AppData\Local\Temp\ccDsJqTW.s:4313   .text.sha256_update:00000000 sha256_update
C:\Users\jo\AppData\Local\Temp\ccDsJqTW.s:4331   .text.sha256_finish:00000000 $t
C:\Users\jo\AppData\Local\Temp\ccDsJqTW.s:4337   .text.sha256_finish:00000000 sha256_finish
C:\Users\jo\AppData\Local\Temp\ccDsJqTW.s:4523   .text.sha256_finish:0000010c $d
C:\Users\jo\AppData\Local\Temp\ccDsJqTW.s:4528   .text.sha256:00000000 $t
C:\Users\jo\AppData\Local\Temp\ccDsJqTW.s:4534   .text.sha256:00000000 sha256
C:\Users\jo\AppData\Local\Temp\ccDsJqTW.s:4689   .text.sha256:00000090 $d
C:\Users\jo\AppData\Local\Temp\ccDsJqTW.s:4711   .text.sha256_file:00000000 $t
C:\Users\jo\AppData\Local\Temp\ccDsJqTW.s:4717   .text.sha256_file:00000000 sha256_file
C:\Users\jo\AppData\Local\Temp\ccDsJqTW.s:4923   .text.sha256_file:000000c8 $d
C:\Users\jo\AppData\Local\Temp\ccDsJqTW.s:4944   .text.sha256_hmac_starts:00000000 $t
C:\Users\jo\AppData\Local\Temp\ccDsJqTW.s:4950   .text.sha256_hmac_starts:00000000 sha256_hmac_starts
C:\Users\jo\AppData\Local\Temp\ccDsJqTW.s:5179   .text.sha256_hmac_starts:00000108 $d
C:\Users\jo\AppData\Local\Temp\ccDsJqTW.s:5199   .text.sha256_hmac_update:00000000 $t
C:\Users\jo\AppData\Local\Temp\ccDsJqTW.s:5205   .text.sha256_hmac_update:00000000 sha256_hmac_update
C:\Users\jo\AppData\Local\Temp\ccDsJqTW.s:5227   .text.sha256_hmac_finish:00000000 $t
C:\Users\jo\AppData\Local\Temp\ccDsJqTW.s:5233   .text.sha256_hmac_finish:00000000 sha256_hmac_finish
C:\Users\jo\AppData\Local\Temp\ccDsJqTW.s:5433   .text.sha256_hmac_finish:000000c4 $d
C:\Users\jo\AppData\Local\Temp\ccDsJqTW.s:5455   .text.sha256_hmac_reset:00000000 $t
C:\Users\jo\AppData\Local\Temp\ccDsJqTW.s:5461   .text.sha256_hmac_reset:00000000 sha256_hmac_reset
C:\Users\jo\AppData\Local\Temp\ccDsJqTW.s:5577   .text.sha256_hmac_reset:00000060 $d
C:\Users\jo\AppData\Local\Temp\ccDsJqTW.s:5599   .text.sha256_hmac:00000000 $t
C:\Users\jo\AppData\Local\Temp\ccDsJqTW.s:5605   .text.sha256_hmac:00000000 sha256_hmac
C:\Users\jo\AppData\Local\Temp\ccDsJqTW.s:5714   .text.sha256_self_test:00000000 $t
C:\Users\jo\AppData\Local\Temp\ccDsJqTW.s:5720   .text.sha256_self_test:00000000 sha256_self_test
C:\Users\jo\AppData\Local\Temp\ccDsJqTW.s:6229   .text.sha256_self_test:0000026c $d
C:\Users\jo\AppData\Local\Temp\ccDsJqTW.s:6261   .rodata.sha256_padding:00000000 $d
C:\Users\jo\AppData\Local\Temp\ccDsJqTW.s:6265   .rodata.sha256_padding:00000000 sha256_padding
C:\Users\jo\AppData\Local\Temp\ccDsJqTW.s:6331   .rodata.sha256_test_sum:00000000 $d
ARM GAS  C:\Users\jo\AppData\Local\Temp\ccDsJqTW.s 			page 395


C:\Users\jo\AppData\Local\Temp\ccDsJqTW.s:6335   .rodata.sha256_test_sum:00000000 sha256_test_sum
C:\Users\jo\AppData\Local\Temp\ccDsJqTW.s:6520   .rodata.sha256_test_buf:00000000 $d
C:\Users\jo\AppData\Local\Temp\ccDsJqTW.s:6524   .rodata.sha256_test_buf:00000000 sha256_test_buf
C:\Users\jo\AppData\Local\Temp\ccDsJqTW.s:6532   .rodata.sha256_hmac_test_sum:00000000 $d
C:\Users\jo\AppData\Local\Temp\ccDsJqTW.s:6536   .rodata.sha256_hmac_test_sum:00000000 sha256_hmac_test_sum
C:\Users\jo\AppData\Local\Temp\ccDsJqTW.s:6938   .rodata.sha256_test_buflen:00000000 $d
C:\Users\jo\AppData\Local\Temp\ccDsJqTW.s:6942   .rodata.sha256_test_buflen:00000000 sha256_test_buflen
C:\Users\jo\AppData\Local\Temp\ccDsJqTW.s:6947   .rodata.sha256_hmac_test_buf:00000000 $d
C:\Users\jo\AppData\Local\Temp\ccDsJqTW.s:6951   .rodata.sha256_hmac_test_buf:00000000 sha256_hmac_test_buf
C:\Users\jo\AppData\Local\Temp\ccDsJqTW.s:6975   .rodata.str1.4:00000000 $d
C:\Users\jo\AppData\Local\Temp\ccDsJqTW.s:6990   .rodata.sha256_hmac_test_key:00000000 $d
C:\Users\jo\AppData\Local\Temp\ccDsJqTW.s:6994   .rodata.sha256_hmac_test_key:00000000 sha256_hmac_test_key
C:\Users\jo\AppData\Local\Temp\ccDsJqTW.s:7013   .rodata.sha256_hmac_test_keylen:00000000 $d
C:\Users\jo\AppData\Local\Temp\ccDsJqTW.s:7017   .rodata.sha256_hmac_test_keylen:00000000 sha256_hmac_test_keylen
C:\Users\jo\AppData\Local\Temp\ccDsJqTW.s:7026   .rodata.sha256_hmac_test_buflen:00000000 $d
C:\Users\jo\AppData\Local\Temp\ccDsJqTW.s:7030   .rodata.sha256_hmac_test_buflen:00000000 sha256_hmac_test_buflen
                     .debug_frame:00000010 $d
C:\Users\jo\AppData\Local\Temp\ccDsJqTW.s:4943   .text.sha256_file:0000010c $t
C:\Users\jo\AppData\Local\Temp\ccDsJqTW.s:5198   .text.sha256_hmac_starts:00000148 $t
C:\Users\jo\AppData\Local\Temp\ccDsJqTW.s:5454   .text.sha256_hmac_finish:00000104 $t
C:\Users\jo\AppData\Local\Temp\ccDsJqTW.s:6260   .text.sha256_self_test:000002dc $t

UNDEFINED SYMBOLS
memset
memcpy
fopen
fread
fclose
memcmp
printf
puts
putchar
